(dp0
I0
I78
sI1
I89
sI2
I48
sI3
I62
sI4
I62
sI5
I68
sI6
I62
sI7
I77
sI8
I89
sI9
I112
sI10
I124
sI11
I110
sI12
I155
sI13
I174
sI14
I433
sI15
I404
sI16
I410
sI17
I453
sI18
I571
sI19
I2249
sI20
I2278
sI21
I2244
sI22
I1997
sI23
I1793
sI24
I1618
sI25
I1524
sI26
I1472
sI27
I1291
sI28
I1302
sI29
I1262
sI30
I1126
sI31
I1084
sI32
I1072
sI33
I1068
sI34
I986
sI35
I996
sI36
I991
sI37
I956
sI38
I904
sI39
I911
sI40
I876
sI41
I857
sI42
I842
sI43
I847
sI44
I780
sI45
I784
sI46
I803
sI47
I842
sI48
I722
sI49
I697
sI50
I762
sI51
I707
sI52
I728
sI53
I684
sI54
I728
sI55
I662
sI56
I639
sI57
I685
sI58
I625
sI59
I656
sI60
I636
sI61
I611
sI62
I659
sI63
I594
sI64
I563
sI65
I616
sI66
I520
sI67
I565
sI68
I506
sI69
I579
sI70
I534
sI71
I576
sI72
I548
sI73
I514
sI74
I555
sI75
I492
sI76
I536
sI77
I507
sI78
I507
sI79
I501
sI80
I450
sI81
I445
sI82
I477
sI83
I467
sI84
I457
sI85
I449
sI86
I449
sI87
I444
sI88
I414
sI89
I436
sI90
I415
sI91
I433
sI92
I427
sI93
I425
sI94
I427
sI95
I383
sI96
I401
sI97
I365
sI98
I405
sI99
I357
sI100
I397
sI101
I378
sI102
I361
sI103
I390
sI104
I358
sI105
I358
sI106
I335
sI107
I332
sI108
I353
sI109
I325
sI110
I326
sI111
I293
sI112
I342
sI113
I302
sI114
I314
sI115
I320
sI116
I320
sI117
I302
sI118
I290
sI119
I322
sI120
I293
sI121
I278
sI122
I295
sI123
I280
sI124
I297
sI125
I269
sI126
I260
sI127
I261
sI128
I251
sI129
I230
sI130
I268
sI131
I250
sI132
I266
sI133
I216
sI134
I250
sI135
I232
sI136
I230
sI137
I233
sI138
I220
sI139
I226
sI140
I211
sI141
I227
sI142
I201
sI143
I201
sI144
I214
sI145
I190
sI146
I207
sI147
I253
sI148
I191
sI149
I188
sI150
I182
sI151
I183
sI152
I169
sI153
I219
sI154
I189
sI155
I182
sI156
I185
sI157
I176
sI158
I198
sI159
I192
sI160
I164
sI161
I157
sI162
I177
sI163
I163
sI164
I163
sI165
I151
sI166
I174
sI167
I156
sI168
I147
sI169
I169
sI170
I145
sI171
I181
sI172
I134
sI173
I156
sI174
I133
sI175
I156
sI176
I159
sI177
I147
sI178
I135
sI179
I109
sI180
I135
sI181
I141
sI182
I153
sI183
I148
sI184
I126
sI185
I127
sI186
I141
sI187
I127
sI188
I115
sI189
I120
sI190
I121
sI191
I142
sI192
I127
sI193
I106
sI194
I113
sI195
I130
sI196
I98
sI197
I115
sI198
I97
sI199
I112
sI200
I111
sI201
I116
sI202
I110
sI203
I114
sI204
I95
sI205
I104
sI206
I104
sI207
I90
sI208
I95
sI209
I90
sI210
I95
sI211
I96
sI212
I101
sI213
I108
sI214
I87
sI215
I88
sI216
I100
sI217
I86
sI218
I102
sI219
I96
sI220
I91
sI221
I87
sI222
I75
sI223
I78
sI224
I99
sI225
I78
sI226
I78
sI227
I81
sI228
I79
sI229
I65
sI230
I60
sI231
I75
sI232
I72
sI233
I69
sI234
I79
sI235
I75
sI236
I57
sI237
I76
sI238
I72
sI239
I59
sI240
I70
sI241
I71
sI242
I59
sI243
I69
sI244
I65
sI245
I62
sI246
I55
sI247
I57
sI248
I72
sI249
I59
sI250
I56
sI251
I69
sI252
I67
sI253
I54
sI254
I49
sI255
I54
sI256
I51
sI257
I48
sI258
I41
sI259
I54
sI260
I41
sI261
I57
sI262
I63
sI263
I48
sI264
I48
sI265
I64
sI266
I50
sI267
I58
sI268
I51
sI269
I56
sI270
I55
sI271
I49
sI272
I54
sI273
I54
sI274
I54
sI275
I51
sI276
I62
sI277
I37
sI278
I56
sI279
I42
sI280
I39
sI281
I40
sI282
I39
sI283
I31
sI284
I50
sI285
I39
sI286
I42
sI287
I51
sI288
I38
sI289
I42
sI290
I46
sI291
I45
sI292
I47
sI293
I25
sI294
I50
sI295
I34
sI296
I41
sI297
I39
sI298
I37
sI299
I43
sI300
I4830
s.