(dp0
(S'ring'
p1
S'tones'
p2
tp3
(lp4
(I8
I11
I0
S'more'
p5
I0
tp6
as(S'samsung'
p7
tp8
(lp9
(I1
I51
F0.375
S'newer'
p10
I7
tp11
a(I1
I136
F1.0
S'good'
p12
I7
tp13
a(I1
I138
F0.25
S'larger'
p14
I7
tp15
a(I1
I138
I0
S'same'
p16
I7
tp17
a(I4
I28
F-0.75
S'bright'
p18
I7
tp19
as(S'games'
p20
tp21
(lp22
(I1
I175
I0
S'expect'
p23
I19
tp24
a(I1
I175
I0
S'more'
p25
I19
tp26
a(I1
I175
I0
S'more'
p27
I19
tp28
a(I2
I5
F-0.625
S'addictive'
p29
I19
tp30
a(I5
I59
F-0.625
S'other'
p31
I19
tp32
a(I5
I59
I0
S'great'
p33
I19
tp34
a(I8
I9
F0.375
S'new'
p35
I19
tp36
a(I8
I9
F-0.125
S'cant'
p37
I19
tp38
as(S'reception'
p39
tp40
(lp41
(I0
I7
F1.0
S'good'
p42
I0
tp43
a(I1
I4
F1.0
S'good'
p44
I0
tp45
a(I1
I4
F0.75
S'due'
p46
I0
tp47
a(I1
I40
I0
S'great'
p48
I0
tp49
a(I1
I96
I0
S'great'
p50
I0
tp51
a(I4
I19
F1.0
S'good'
p52
I0
tp53
a(I10
I12
F-0.625
S'bad'
p54
I0
tp55
as(S'cool'
p56
tp57
(lp58
(I5
I63
I0
S'real'
p59
I11
tp60
as(S'signal'
p61
tp62
(lp63
(I0
I45
I0
S'more'
p64
I1
tp65
a(I0
I59
F0.5
S'strong'
p66
I1
tp67
a(I0
I59
F0.5
S'clear'
p68
I1
tp69
a(I1
I126
F-0.25
S'low'
p70
I1
tp71
a(I1
I170
F1.0
S'good'
p72
I1
tp73
a(I4
I7
I0
S'most'
p74
I1
tp75
as(S'good'
p76
S'battery'
p77
S'life'
p78
tp79
(lp80
(I0
I8
F1.0
S'good'
p81
I0
tp82
a(I5
I74
F1.0
S'good'
p83
I0
tp84
a(I8
I6
F1.0
S'good'
p85
I0
tp86
a(I8
I13
F1.0
S'good'
p87
I0
tp88
a(I8
I14
F1.0
S'good'
p89
I0
tp90
a(I0
I8
F1.0
g81
I1
tp91
a(I1
I48
F-0.5
S'long'
p92
I1
tp93
a(I1
I63
F1.0
S'better'
p94
I1
tp95
a(I4
I14
F-0.75
S'short'
p96
I1
tp97
a(I4
I27
F-0.25
S'disappointed'
p98
I1
tp99
a(I5
I25
F-0.875
S'awful'
p100
I1
tp101
a(I5
I28
I0
S'great'
p102
I1
tp103
a(I5
I74
F1.0
g83
I1
tp104
a(I7
I3
I0
S'great'
p105
I1
tp106
a(I8
I4
I0
S'more'
p107
I1
tp108
a(I8
I6
F1.0
g85
I1
tp109
a(I8
I13
F1.0
g87
I1
tp110
a(I8
I14
F1.0
g89
I1
tp111
a(I9
I13
F0.375
S'extra'
p112
I1
tp113
a(I0
I8
F1.0
g81
I19
tp114
a(I1
I63
F1.0
g94
I19
tp115
a(I4
I14
F-0.75
g96
I19
tp116
a(I5
I25
F-0.875
g100
I19
tp117
a(I5
I74
F1.0
g83
I19
tp118
a(I7
I3
I0
g105
I19
tp119
a(I1
I48
F-0.5
g92
I15
tp120
a(I4
I27
F-0.25
g98
I15
tp121
a(I5
I28
I0
g102
I15
tp122
a(I8
I4
I0
g107
I15
tp123
a(I8
I6
F1.0
g85
I15
tp124
a(I8
I13
F1.0
g87
I15
tp125
a(I8
I14
F1.0
g89
I15
tp126
a(I9
I13
F0.375
g112
I15
tp127
as(S'camera'
p128
S'attachment'
p129
tp130
(lp131
(I0
I13
F0.75
S'worth'
p132
I0
tp133
a(I1
I153
F0.5
S'careful'
p134
I0
tp135
a(I5
I32
F1.0
S'better'
p136
I0
tp137
a(I0
I55
F-0.625
S'want'
p138
I1
tp139
a(I1
I34
I0
S'great'
p140
I1
tp141
a(I1
I50
F0.5
S'attachable'
p142
I1
tp143
a(I1
I50
F-0.625
S'useless'
p144
I1
tp145
a(I1
I55
F-0.625
S'bad'
p146
I1
tp147
a(I4
I26
I0
S'great'
p148
I1
tp149
a(I5
I76
F-0.625
S'other'
p150
I1
tp151
a(I7
I7
F0.5
S'buy'
p152
I1
tp153
a(I8
I10
I0
S'great'
p154
I1
tp155
a(I10
I26
F-0.625
S'bad'
p156
I1
tp157
a(I10
I26
I0
S'cooler'
p158
I1
tp159
a(I0
I13
F0.75
g132
I7
tp160
a(I1
I153
F0.5
g134
I7
tp161
a(I5
I32
F1.0
g136
I7
tp162
as(S'ringtones'
p163
tp164
(lp165
(I1
I32
F-0.625
S'other'
p166
I0
tp167
a(I1
I32
I0
S'great'
p168
I0
tp169
a(I5
I54
I0
S'cool'
p170
I0
tp171
a(I10
I1
I0
S'cool'
p172
I0
tp173
as(S'voice'
p174
tp175
(lp176
(I0
I34
F1.0
S'good'
p177
I4
tp178
as(S'calls'
p179
tp180
(lp181
(I0
I7
F-0.25
S'dropped'
p182
I0
tp183
a(I0
I28
F0.125
S'able'
p184
I0
tp185
a(I0
I34
I0
S'handy'
p186
I0
tp187
a(I1
I4
F0.5
S'clear'
p188
I0
tp189
as(S'quot'
p190
tp191
(lp192
(I0
I5
F0.375
S'busy'
p193
I3
tp194
a(I1
I147
F0.375
S'new'
p195
I3
tp196
as(S'flip'
p197
tp198
(lp199
(I4
I13
F1.0
S'good'
p200
I4
tp201
a(I10
I23
F0.375
S'much'
p202
I4
tp203
as(S'much'
p204
S'better'
p205
tp206
(lp207
(I4
I4
F0.375
S'much'
p208
I9
tp209
as(S'talk'
p210
S'time'
p211
tp212
(lp213
(I0
I9
F0.375
S'much'
p214
I0
tp215
a(I0
I38
F-0.5
S'long'
p216
I0
tp217
a(I5
I73
F-0.125
S'mine'
p218
I0
tp219
as(S'color'
p220
S'screen'
p221
tp222
(lp223
(I0
I53
I0
S'big'
p224
I1
tp225
a(I0
I53
F0.5
S'clear'
p226
I1
tp227
a(I0
I53
F0.625
S'easy'
p228
I1
tp229
a(I0
I53
F0.5
S'strong'
p230
I1
tp231
a(I0
I53
F-0.625
S'light'
p232
I1
tp233
a(I0
I53
F-0.75
S'dark'
p234
I1
tp235
a(I1
I50
F-0.5
S'weak'
p236
I1
tp237
a(I1
I102
F1.0
S'good'
p238
I1
tp239
a(I1
I102
I0
S'great'
p240
I1
tp241
a(I7
I4
F0.25
S'sharper'
p242
I1
tp243
as(S'volume'
p244
tp245
(lp246
(I1
I17
F-0.25
S'low'
p247
I6
tp248
a(I1
I24
F-0.25
S'low'
p249
I6
tp250
a(I1
I31
F0.375
S'loud'
p251
I6
tp252
a(I1
I51
F-0.25
S'highest'
p253
I6
tp254
a(I4
I11
I0
S'high'
p255
I6
tp256
a(I5
I14
I0
S'cool'
p257
I6
tp258
a(I5
I67
I0
S'ringer'
p259
I6
tp260
a(I5
I68
F0.375
S'loud'
p261
I6
tp262
a(I5
I68
F-0.25
S'lower'
p263
I6
tp264
as(S't722i'
p265
tp266
(lp267
(I1
I14
F-0.125
S'overall'
p268
I0
tp269
a(I5
I26
I0
S'different'
p270
I0
tp271
as.