(dp0
(S'memory'
p1
S'card'
p2
tp3
(lp4
(I1
I11
F0.125
S'plenty'
p5
I0
tp6
a(I6
I35
I0
S'big'
p7
I0
tp8
a(I6
I148
I0
S'internal'
p9
I0
tp10
a(I6
I148
I0
S'most'
p11
I0
tp12
a(I6
I148
F0.25
S'main'
p13
I0
tp14
a(I7
I10
F0.25
S'main'
p15
I0
tp16
a(I1
I11
F0.125
g5
I5
tp17
a(I1
I226
I0
S'more'
p18
I5
tp19
a(I1
I391
I0
S'internal'
p20
I5
tp21
a(I4
I129
F0.375
S'much'
p22
I5
tp23
a(I4
I129
F0.5
S'possible'
p24
I5
tp25
a(I4
I129
I0
S'internal'
p26
I5
tp27
a(I4
I129
F-0.625
S'free'
p28
I5
tp29
a(I6
I35
I0
g7
I5
tp30
a(I6
I64
F-0.5
S'inefficient'
p31
I5
tp32
a(I6
I148
I0
g9
I5
tp33
a(I6
I148
F0.25
g13
I5
tp34
a(I7
I10
F0.25
g15
I5
tp35
a(I8
I47
I0
S'more'
p36
I5
tp37
a(I8
I47
I0
S'internal'
p38
I5
tp39
as(S'battery'
p40
S'life'
p41
tp42
(lp43
(I1
I287
F0.5
S'so-so'
p44
I1
tp45
a(I4
I26
F0.625
S'fair'
p46
I1
tp47
a(I4
I82
F1.0
S'good'
p48
I1
tp49
a(I0
I88
I0
S'great'
p50
I19
tp51
a(I1
I287
F0.5
g44
I19
tp52
a(I4
I26
F0.625
g46
I19
tp53
a(I4
I82
F1.0
g48
I19
tp54
a(I1
I436
F0.625
S'removable'
p55
I15
tp56
a(I6
I2
F-0.625
S'lighter'
p57
I15
tp58
a(I8
I42
F0.625
S'removable'
p59
I15
tp60
a(I8
I42
I0
S'handy'
p61
I15
tp62
as(S'keyboard'
p63
tp64
(lp65
(I0
I40
I0
S'external'
p66
I2
tp67
a(I1
I280
F1.0
S'good'
p68
I2
tp69
a(I1
I281
F0.75
S'due'
p70
I2
tp71
a(I4
I31
F1.0
S'good'
p72
I2
tp73
a(I6
I76
I0
S'integrated'
p74
I2
tp75
a(I6
I134
I0
S'great'
p76
I2
tp77
a(I6
I134
F-0.375
S'small'
p78
I2
tp79
a(I7
I20
I0
S'fast'
p80
I2
tp81
a(I8
I43
F-0.75
S'little'
p82
I2
tp83
as(S'email'
p84
tp85
(lp86
(I0
I6
F0.5
S'personal'
p87
I5
tp88
a(I1
I309
F-0.5
S'less'
p89
I5
tp90
a(I1
I311
F0.5
S'personal'
p91
I5
tp92
a(I4
I119
F0.5
S'personal'
p93
I5
tp94
as(S'download'
p95
tp96
(lp97
(I6
I42
F-0.625
S'free'
p98
I1
tp99
as(S'games'
p100
tp101
(lp102
(I0
I46
I0
S'either'
p103
I19
tp104
a(I0
I53
I0
S'few'
p105
I19
tp106
a(I1
I219
F0.5
S'true'
p107
I19
tp108
a(I6
I163
F0.75
S'classic'
p109
I19
tp110
a(I6
I163
F-0.625
S'unplayable'
p111
I19
tp112
a(I6
I173
F0.625
S'interested'
p113
I19
tp114
a(I6
I173
I0
S'such'
p115
I19
tp116
as(S'sprint'
p117
tp118
(lp119
(I0
I33
I0
S'old'
p120
I0
tp121
a(I1
I193
F0.5
S'loyal'
p122
I0
tp123
a(I7
I17
F-0.375
S'unstable'
p124
I0
tp125
a(I11
I13
I0
S'more'
p126
I0
tp127
a(I11
I16
F0.25
S'favorite'
p128
I0
tp129
as(S'files'
p130
tp131
(lp132
(I1
I362
I0
S'big'
p133
I0
tp134
a(I4
I51
I0
S'more'
p135
I0
tp136
a(I6
I67
F-0.875
S'worst'
p137
I0
tp138
as(S'bottom'
p139
S'line'
p140
tp141
(lp142
(I6
I170
I0
S'many'
p143
I0
tp144
as(S'blue'
p145
S'tooth'
p146
tp147
(lp148
(I2
I63
I0
S'blue'
p149
I0
tp150
a(I6
I76
I0
S'blue'
p151
I0
tp152
a(I11
I11
F-0.5
S'poor'
p153
I0
tp154
a(I11
I11
I0
S'blue'
p155
I0
tp156
as(S'buttons'
p157
tp158
(lp159
(I1
I428
I0
S'few'
p160
I13
tp161
a(I1
I428
I0
S'critical'
p162
I13
tp163
a(I6
I163
I0
S'many'
p164
I13
tp165
as(S'button'
p166
tp167
(lp168
(I7
I18
I0
S'dial'
p169
I19
tp170
a(I11
I23
F0.25
S'bigger'
p171
I19
tp172
as(S'wireless'
p173
tp174
(lp175
(I1
I452
I0
S'quick'
p176
I0
tp177
as(S'applications'
p178
tp179
(lp180
(I2
I25
I0
S'different'
p181
I3
tp182
a(I6
I68
I0
S'many'
p183
I3
tp184
a(I6
I150
I0
S'many'
p185
I3
tp186
a(I6
I150
I0
S'such'
p187
I3
tp188
a(I6
I169
F-0.25
S'past'
p189
I3
tp190
a(I7
I10
I0
S'few'
p191
I3
tp192
a(I7
I10
F-0.625
S'free'
p193
I3
tp194
as(S'voice'
p195
tp196
(lp197
(I0
I37
I0
S'dial'
p198
I4
tp199
a(I1
I141
F-0.875
S'bother'
p200
I4
tp201
a(I1
I360
F0.875
S'nice'
p202
I4
tp203
a(I2
I93
F0.125
S'digital'
p204
I4
tp205
a(I6
I87
F-0.25
S'low'
p206
I4
tp207
as(S'palm'
p208
S'os'
p209
tp210
(lp211
(I0
I50
F1.0
S'best'
p212
I0
tp213
a(I6
I5
F0.375
S'new'
p214
I0
tp215
a(I6
I61
F0.5
S'loyal'
p216
I0
tp217
a(I6
I69
I0
S'more'
p218
I0
tp219
a(I6
I69
I0
S'current'
p220
I0
tp221
a(I6
I69
I0
S'most'
p222
I0
tp223
a(I6
I183
F-0.625
S'bad'
p224
I0
tp225
a(I0
I50
F1.0
g212
I1
tp226
a(I0
I98
F-0.5
S'recover'
p227
I1
tp228
a(I0
I99
I0
S'fanatic'
p229
I1
tp230
a(I1
I230
F-0.75
S'wrong'
p231
I1
tp232
a(I1
I248
F-0.5
S'separate'
p233
I1
tp234
a(I1
I326
I0
S'great'
p235
I1
tp236
a(I1
I444
F-0.75
S'sick'
p237
I1
tp238
a(I1
I445
I0
S'current'
p239
I1
tp240
a(I4
I75
F0.375
S'similar'
p241
I1
tp242
a(I4
I75
F0.5
S'compatible'
p243
I1
tp244
a(I6
I61
F0.5
g216
I1
tp245
a(I6
I69
I0
g218
I1
tp246
a(I6
I69
I0
g220
I1
tp247
a(I6
I69
I0
g222
I1
tp248
a(I6
I162
F0.125
S'last'
p249
I1
tp250
a(I6
I183
F-0.625
g224
I1
tp251
a(I8
I2
F0.5
S'told'
p252
I1
tp253
a(I8
I4
I0
S'fourth'
p254
I1
tp255
a(I9
I10
F0.125
S'memory'
p256
I1
tp257
as(S'e'
p258
S'mail'
p259
tp260
(lp261
(I1
I250
I0
S'more'
p262
I2
tp263
a(I7
I17
F0.375
S'new'
p264
I2
tp265
a(I1
I250
I0
g262
I13
tp266
a(I7
I17
F0.375
g264
I13
tp267
as(S'hotsync'
p268
S'cable'
p269
tp270
(lp271
(I1
I431
I0
S'cable'
p272
I0
tp273
a(I1
I434
I0
S'cable'
p274
I0
tp275
as(S'web'
p276
S'browser'
p277
tp278
(lp279
(I1
I278
F0.25
S'powerful'
p280
I0
tp281
a(I4
I29
F0.5
S'so-so'
p282
I0
tp283
a(I4
I54
F-0.125
S'slow'
p284
I0
tp285
as(S'digital'
p286
S'camera'
p287
tp288
(lp289
(I1
I52
F0.125
S'digital'
p290
I1
tp291
a(I1
I212
F0.125
S'digital'
p292
I1
tp293
a(I1
I352
F0.125
S'digital'
p294
I1
tp295
a(I6
I18
F1.0
S'best'
p296
I1
tp297
a(I6
I18
F0.125
S'digital'
p298
I1
tp299
a(I6
I19
F0.125
S'digital'
p300
I1
tp301
a(I6
I135
F0.25
S'main'
p302
I1
tp303
a(I1
I52
F0.125
g290
I1
tp304
a(I1
I212
F0.125
g292
I1
tp305
a(I1
I352
F0.125
g294
I1
tp306
a(I1
I354
F1.0
S'better'
p307
I1
tp308
a(I1
I354
F0.5
S'disposable'
p309
I1
tp310
a(I1
I426
F1.0
S'good'
p311
I1
tp312
a(I4
I93
I0
S'standard'
p313
I1
tp314
a(I5
I1
F1.0
S'best'
p315
I1
tp316
a(I6
I18
F1.0
g296
I1
tp317
a(I6
I18
F0.125
g298
I1
tp318
a(I6
I19
F0.125
g300
I1
tp319
a(I6
I62
F1.0
S'better'
p320
I1
tp321
a(I6
I63
F0.375
S'much'
p322
I1
tp323
a(I6
I63
F1.0
S'better'
p324
I1
tp325
as(S'hot'
p326
S'sync'
p327
tp328
(lp329
(I1
I204
I0
S'hot'
p330
I0
tp331
a(I2
I10
F-0.625
S'bad'
p332
I0
tp333
a(I1
I204
I0
g330
I0
tp334
a(I1
I237
F-0.75
S'short'
p335
I0
tp336
a(I4
I132
F-0.5
S'long'
p337
I0
tp338
as(S'data'
p339
tp340
(lp341
(I1
I353
F-0.75
S'raw'
p342
I13
tp343
a(I1
I443
F-0.125
S'slow'
p344
I13
tp345
a(I1
I443
I0
S'high'
p346
I13
tp347
a(I6
I72
F0.375
S'much'
p348
I13
tp349
as(S'much'
p350
S'better'
p351
tp352
(lp353
(I6
I0
F-0.125
S'former'
p354
I9
tp355
a(I6
I0
F0.375
S'much'
p356
I9
tp357
as(S'bluetooth'
p358
S'headset'
p359
tp360
(lp361
(I6
I47
F0.5
S'recommend'
p362
I0
tp363
a(I6
I47
F1.0
S'good'
p364
I0
tp365
a(I6
I47
I0
S'standard'
p366
I0
tp367
a(I6
I47
F-0.5
S'regular'
p368
I0
tp369
a(I11
I12
F-0.5
S'poor'
p370
I0
tp371
a(I6
I30
I0
S'basic'
p372
I0
tp373
a(I6
I47
I0
g366
I0
tp374
a(I6
I47
F-0.5
g368
I0
tp375
a(I1
I356
F-0.5
S'unimpressive'
p376
I3
tp377
a(I2
I62
F0.5
S'clear'
p378
I3
tp379
a(I6
I17
I0
S'most'
p380
I3
tp381
a(I6
I47
F0.5
g362
I3
tp382
a(I6
I47
F1.0
g364
I3
tp383
a(I6
I119
F0.625
S'accessible'
p384
I3
tp385
a(I11
I12
F-0.5
g370
I3
tp386
as(S'customer'
p387
S'service'
p388
tp389
(lp390
(I8
I18
F-0.5
S'sure'
p391
I3
tp392
a(I8
I18
I0
S'general'
p393
I3
tp394
a(I8
I38
F1.0
S'good'
p395
I3
tp396
a(I0
I147
F0.125
S'enough'
p397
I16
tp398
a(I1
I250
F1.0
S'best'
p399
I16
tp400
a(I8
I18
I0
g393
I16
tp401
a(I0
I145
F0.5
S'loyal'
p402
I11
tp403
a(I8
I18
F-0.5
g391
I11
tp404
a(I8
I38
F1.0
g395
I11
tp405
as(S'pocket'
p406
tp407
(lp408
(I1
I248
F-0.625
S'free'
p409
I17
tp410
a(I1
I344
I0
S'same'
p411
I17
tp412
a(I2
I31
I0
S'coat'
p413
I17
tp414
a(I4
I49
I0
S'coat'
p415
I17
tp416
as(S'dropped'
p417
S'calls'
p418
tp419
(lp420
(I0
I9
I0
S'few'
p421
I0
tp422
a(I0
I9
F-0.25
S'dropped'
p423
I0
tp424
a(I1
I418
F-0.25
S'dropped'
p425
I0
tp426
a(I1
I446
F-0.25
S'dropped'
p427
I0
tp428
a(I0
I9
I0
g421
I0
tp429
a(I0
I9
F-0.25
g423
I0
tp430
a(I0
I104
F-0.5
S'long'
p431
I0
tp432
a(I1
I418
F-0.25
g425
I0
tp433
a(I1
I446
F-0.25
g427
I0
tp434
as(S'treo'
p435
tp436
(lp437
(I0
I34
F0.375
S'new'
p438
I0
tp439
a(I0
I64
F0.875
S'music'
p440
I0
tp441
a(I0
I83
F0.875
S'music'
p442
I0
tp443
a(I0
I86
F0.375
S'new'
p444
I0
tp445
a(I0
I90
F0.375
S'available'
p446
I0
tp447
a(I1
I2
F0.125
S'capable'
p448
I0
tp449
a(I1
I314
F0.625
S'easy'
p450
I0
tp451
a(I1
I360
I-100
S'07d'
p452
I0
tp453
a(I1
I383
I0
S'faster'
p454
I0
tp455
a(I1
I390
F1.0
S'good'
p456
I0
tp457
a(I1
I429
I0
S'old'
p458
I0
tp459
a(I1
I437
F0.375
S'available'
p460
I0
tp461
a(I1
I455
F-0.125
S'former'
p462
I0
tp463
a(I2
I28
F0.375
S'much'
p464
I0
tp465
a(I4
I2
F0.375
S'much'
p466
I0
tp467
a(I6
I8
I0
S'more'
p468
I0
tp469
a(I6
I64
F0.375
S'new'
p470
I0
tp471
a(I6
I66
I0
S'old'
p472
I0
tp473
a(I6
I72
F0.25
S'sweet'
p474
I0
tp475
a(I6
I87
I0
S'many'
p476
I0
tp477
a(I8
I41
I0
S'wish'
p478
I0
tp479
a(I8
I41
F1.0
S'better'
p480
I0
tp481
a(I8
I45
F0.625
S'easy'
p482
I0
tp483
a(I8
I51
F0.375
S'new'
p484
I0
tp485
a(I11
I22
F0.375
S'new'
p486
I0
tp487
a(I11
I27
F0.375
S'new'
p488
I0
tp489
as.