(dp0
(S'motorola'
p1
tp2
(lp3
(I3
I3
F-0.625
S'other'
p4
tp5
a(I22
I1
F0.375
S'new'
p6
tp7
a(I37
I11
I0
S'incredible'
p8
tp9
a(I37
I20
F0.375
S'confident'
p10
tp11
a(I53
I14
F1.0
S'good'
p12
tp13
a(I53
I14
I0
S'particular'
p14
tp15
a(I53
I14
F1.0
S'good'
p16
tp17
a(I79
I13
I0
S'faithful'
p18
tp19
a(I80
I5
F-0.625
S'other'
p20
tp21
a(I111
I0
F1.0
S'best'
p22
tp23
a(I111
I3
F0.125
S'last'
p24
tp25
a(I118
I0
I0
S'total'
p26
tp27
a(I126
I7
I0
S'fifth'
p28
tp29
a(I135
I4
I0
S'more'
p30
tp31
a(I145
I5
F-0.5
S'regular'
p32
tp33
a(I145
I5
I0
S'cable'
p34
tp35
a(I151
I5
F1.0
S'good'
p36
tp37
a(I154
I0
I0
S'old'
p38
tp39
a(I169
I5
I0
S'affiliate'
p40
tp41
a(I174
I2
F-0.75
S'wrong'
p42
tp43
a(I204
I9
F0.625
S'aware'
p44
tp45
a(I215
I10
F1.0
S'better'
p46
tp47
a(I225
I0
F0.125
S'first'
p48
tp49
a(I234
I14
F0.125
S'first'
p50
tp51
a(I234
I14
F0.125
S'last'
p52
tp53
a(I275
I7
I0
S'many'
p54
tp55
a(I275
I7
F-0.625
S'other'
p56
tp57
a(I294
I7
F-0.125
S'overall'
p58
tp59
a(I302
I6
F-0.375
S'top'
p60
tp61
a(I303
I0
I0
S'traditional'
p62
tp63
a(I303
I1
I0
S'traditional'
p64
tp65
a(I311
I7
F0.375
S'similar'
p66
tp67
a(I316
I3
F-0.625
S'other'
p68
tp69
as(S'nice'
p70
tp71
(lp72
(I243
I0
I0
S'real'
p73
tp74
as(S'reviews'
p75
tp76
(lp77
(I20
I12
I0
S'most'
p78
tp79
a(I20
I12
F-0.625
S'other'
p80
tp81
a(I90
I27
F-0.875
S'negative'
p82
tp83
a(I98
I7
F-0.875
S'negative'
p84
tp85
a(I103
I5
I0
S'many'
p86
tp87
a(I103
I5
I0
S'many'
p88
tp89
a(I106
I0
F-0.625
S'other'
p90
tp91
a(I125
I0
F-0.875
S'negative'
p92
tp93
a(I150
I10
F-0.625
S'other'
p94
tp95
a(I250
I1
F-0.5
S'sure'
p96
tp97
a(I250
I1
I0
S'most'
p98
tp99
a(I250
I1
F-0.625
S'other'
p100
tp101
a(I259
I0
F-0.625
S'other'
p102
tp103
a(I261
I1
I0
S'great'
p104
tp105
a(I261
I1
F-0.125
S'overall'
p106
tp107
a(I262
I0
F-0.625
S'sorry'
p108
tp109
a(I262
I0
I0
S'such'
p110
tp111
a(I262
I0
F-0.625
S'bad'
p112
tp113
a(I307
I0
F-0.875
S'negative'
p114
tp115
a(I307
I1
F-0.625
S'bad'
p116
tp117
a(I307
I2
F-0.875
S'negative'
p118
tp119
a(I307
I16
F-0.875
S'negative'
p120
tp121
a(I316
I2
F1.0
S'good'
p122
tp123
as(S't'
p124
S'mobile'
p125
S'customer'
p126
tp127
(lp128
(I289
I22
F1.0
S'good'
p129
tp130
a(I312
I2
I0
S'least'
p131
tp132
as(S'quality'
p133
tp134
(lp135
(I4
I6
F-0.5
S'poor'
p136
tp137
a(I20
I17
I0
S'great'
p138
tp139
a(I40
I0
F0.125
S'solid'
p140
tp141
a(I40
I0
F0.875
S'attractive'
p142
tp143
a(I41
I17
I0
S'high'
p144
tp145
a(I63
I4
F1.0
S'good'
p146
tp147
a(I100
I1
F1.0
S'better'
p148
tp149
a(I113
I3
F-0.125
S'overall'
p150
tp151
a(I113
I3
I0
S'visual'
p152
tp153
a(I125
I20
I0
S'high'
p154
tp155
a(I127
I3
F1.0
S'good'
p156
tp157
a(I134
I5
F-0.625
S'average'
p158
tp159
a(I134
I5
F1.0
S'best'
p160
tp161
a(I148
I1
F1.0
S'good'
p162
tp163
a(I151
I4
F0.875
S'nice'
p164
tp165
a(I156
I1
F1.0
S'good'
p166
tp167
a(I162
I3
I0
S'high'
p168
tp169
a(I175
I5
F0.375
S'complete'
p170
tp171
a(I191
I10
F1.0
S'good'
p172
tp173
a(I195
I1
F1.0
S'good'
p174
tp175
a(I203
I5
F1.0
S'best'
p176
tp177
a(I285
I4
F-0.625
S'bad'
p178
tp179
a(I289
I21
F0.5
S'expensive'
p180
tp181
a(I289
I26
F-0.125
S'mine'
p182
tp183
a(I292
I12
F0.5
S'reasonable'
p184
tp185
a(I296
I3
F-0.625
S'bad'
p186
tp187
a(I301
I1
I0
S'great'
p188
tp189
a(I317
I29
F-0.5
S'poor'
p190
tp191
a(I317
I31
I0
S'same'
p192
tp193
a(I317
I32
F1.0
S'good'
p194
tp195
as(S'a'
p196
S'much'
p197
S'better'
p198
tp199
(lp200
(I33
I3
F0.375
S'much'
p201
tp202
a(I58
I1
F0.375
S'much'
p203
tp204
a(I279
I1
F0.375
S'much'
p205
tp206
a(I317
I23
F0.375
S'much'
p207
tp208
as(g124
S'mobile'
p209
S'service'
p210
tp211
(lp212
(I27
I2
I0
S'great'
p213
tp214
a(I90
I19
F0.125
S'unwieldy'
p215
tp216
a(I90
I19
I0
S'great'
p217
tp218
a(I98
I3
F1.0
S'good'
p219
tp220
a(I99
I1
I0
S'great'
p221
tp222
a(I99
I1
F1.0
S'good'
p223
tp224
a(I99
I1
I0
S'rural'
p225
tp226
a(I99
I1
F1.0
S'good'
p227
tp228
a(I116
I0
F-0.625
S'bad'
p229
tp230
a(I141
I6
F0.5
S'strong'
p231
tp232
a(I198
I1
I0
S'great'
p233
tp234
a(I220
I7
I0
S'great'
p235
tp236
a(I243
I0
I0
S'great'
p237
tp238
a(I303
I3
I0
S'close'
p239
tp240
a(I317
I13
F0.125
S'impressive'
p241
tp242
as(S'sound'
p243
tp244
(lp245
(I11
I0
F0.375
S'polyphonic'
p246
tp247
a(I25
I1
F0.625
S'easy'
p248
tp249
a(I25
I1
I0
S'great'
p250
tp251
a(I35
I3
F0.5
S'odd'
p252
tp253
a(I125
I7
I0
S'great'
p254
tp255
a(I191
I0
I0
S'great'
p256
tp257
a(I285
I1
F-0.875
S'worst'
p258
tp259
as(S'ringtones'
p260
tp261
(lp262
(I20
I5
I0
S'included'
p263
tp264
a(I20
I6
F0.625
S'easy'
p265
tp266
a(I20
I6
F0.375
S'extra'
p267
tp268
a(I20
I6
F-0.625
S'free'
p269
tp270
a(I22
I3
I0
S'cool'
p271
tp272
a(I28
I0
F0.375
S'polyphonic'
p273
tp274
a(I47
I3
F1.0
S'good'
p275
tp276
a(I94
I1
I0
S'great'
p277
tp278
a(I94
I2
I0
S'few'
p279
tp280
a(I108
I8
F-0.625
S'free'
p281
tp282
a(I114
I20
I0
S'same'
p283
tp284
a(I145
I4
F-0.75
S'difficult'
p285
tp286
a(I145
I4
F1.0
S'best'
p287
tp288
a(I153
I1
F0.125
S'able'
p289
tp290
a(I241
I1
F0.5
S'second'
p291
tp292
a(I260
I1
F0.25
S'sweet'
p293
tp294
a(I289
I17
F-0.625
S'bad'
p295
tp296
a(I297
I6
I0
S'site'
p297
tp298
as(S'nokia'
p299
tp300
(lp301
(I48
I3
F-0.625
S'bad'
p302
tp303
a(I63
I2
I0
S'old'
p304
tp305
a(I76
I4
I0
S'earlier'
p306
tp307
a(I90
I3
I0
S'same'
p308
tp309
a(I103
I14
F-0.625
S'free'
p310
tp311
a(I139
I1
F0.375
S'new'
p312
tp313
a(I145
I6
I0
S'old'
p314
tp315
a(I196
I3
F-0.625
S'other'
p316
tp317
a(I196
I3
F-0.5
S'regular'
p318
tp319
as(S'sim'
p320
S'card'
p321
tp322
(lp323
(I90
I20
I0
S'overseas'
p324
tp325
a(I126
I2
I0
S'same'
p326
tp327
as(S'charge'
p328
tp329
(lp330
(I35
I5
F0.375
S'complete'
p331
tp332
a(I43
I9
I0
S'fast'
p333
tp334
a(I92
I3
I0
S'full'
p335
tp336
a(I92
I4
I0
S'full'
p337
tp338
a(I100
I13
F0.125
S'first'
p339
tp340
a(I211
I3
F0.5
S'possible'
p341
tp342
a(I273
I22
F1.0
S'better'
p343
tp344
a(I316
I24
I0
S'full'
p345
tp346
as(S'circuit'
p347
S'city'
p348
tp349
(lp350
(I111
I10
F-0.125
S'mine'
p351
tp352
as(S'picture'
p353
tp354
(lp355
(I2
I4
F1.0
S'good'
p356
tp357
a(I3
I0
F0.875
S'nice'
p358
tp359
a(I20
I18
F-0.875
S'bother'
p360
tp361
a(I58
I2
I0
S'real'
p362
tp363
a(I58
I2
F1.0
S'good'
p364
tp365
a(I79
I12
F-0.5
S'poor'
p366
tp367
a(I111
I2
F1.0
S'good'
p368
tp369
a(I207
I1
F0.5
S'clear'
p370
tp371
a(I210
I6
I0
S'great'
p372
tp373
a(I262
I1
F1.0
S'good'
p374
tp375
a(I266
I0
F0.5
S'clear'
p376
tp377
a(I266
I0
F0.25
S'bigger'
p378
tp379
a(I298
I3
F-0.5
S'poor'
p380
tp381
as(S'good'
p382
tp383
(lp384
(I16
I1
F1.0
S'good'
p385
tp386
as(S'love'
p387
tp388
(lp389
(I247
I1
F0.25
S'sweet'
p390
tp391
as(S'customer'
p392
S'service'
p393
tp394
(lp395
(I70
I1
F0.875
S'happy'
p396
tp397
a(I84
I11
F-0.875
S'worst'
p398
tp399
a(I249
I0
I0
S'sprint'
p400
tp401
a(I289
I22
F1.0
g129
tp402
a(I312
I2
I0
g131
tp403
as(g124
S'mobile'
p404
S'store'
p405
tp406
(lp407
(I15
I6
F0.25
S'helpful'
p408
tp409
a(I44
I3
I0
S'common'
p410
tp411
as(S'volume'
p412
tp413
(lp414
(I13
I1
I0
S'external'
p415
tp416
a(I35
I4
F-0.25
S'low'
p417
tp418
a(I85
I3
F-0.375
S'top'
p419
tp420
a(I95
I8
F0.875
S'nice'
p421
tp422
a(I140
I4
F-0.875
S'awful'
p423
tp424
a(I140
I6
I0
S'high'
p425
tp426
a(I181
I3
F0.125
S'key'
p427
tp428
a(I181
I6
I0
S'ringer'
p429
tp430
a(I234
I4
I0
S'high'
p431
tp432
a(I261
I3
F0.375
S'loud'
p433
tp434
a(I261
I5
F0.375
S'louder'
p435
tp436
a(I316
I7
F-0.25
S'low'
p437
tp438
as(S'times'
p439
tp440
(lp441
(I3
I2
F-0.375
S'static'
p442
tp443
a(I18
I1
F0.25
S'responsive'
p444
tp445
a(I20
I19
F-0.625
S'bad'
p446
tp447
a(I39
I4
F0.25
S'helpful'
p448
tp449
a(I41
I14
I0
S'few'
p450
tp451
a(I57
I8
F1.0
S'good'
p452
tp453
a(I67
I4
I0
S'few'
p454
tp455
a(I75
I3
F0.125
S'first'
p456
tp457
a(I75
I3
I0
S'few'
p458
tp459
a(I119
I8
F-0.5
S'less'
p460
tp461
a(I130
I4
I0
S'many'
p462
tp463
a(I130
I4
F-0.375
S'happen'
p464
tp465
a(I151
I10
I0
S'many'
p466
tp467
a(I166
I0
I0
S'many'
p468
tp469
a(I166
I0
F-0.25
S'past'
p470
tp471
a(I206
I6
I0
S'many'
p472
tp473
a(I206
I6
F-0.75
S'sick'
p474
tp475
a(I208
I9
F0.125
S'consecutive'
p476
tp477
a(I247
I0
I0
S'more'
p478
tp479
a(I257
I5
I0
S'most'
p480
tp481
a(I296
I2
I0
S'least'
p482
tp483
as(S'problem'
p484
tp485
(lp486
(I9
I3
I0
S'common'
p487
tp488
a(I28
I10
I0
S'same'
p489
tp490
a(I37
I0
I0
S'most'
p491
tp492
a(I44
I1
F-0.75
S'unable'
p493
tp494
a(I77
I4
F0.625
S'perfect'
p495
tp496
a(I77
I4
I0
S'only'
p497
tp498
a(I79
I6
I0
S'same'
p499
tp500
a(I86
I1
F0.25
S'familiar'
p501
tp502
a(I94
I2
F0.625
S'major'
p503
tp504
a(I94
I2
F-0.125
S'slow'
p505
tp506
a(I96
I0
I0
S'same'
p507
tp508
a(I99
I3
I0
S'same'
p509
tp510
a(I103
I4
I0
S'same'
p511
tp512
a(I103
I10
I0
S'same'
p513
tp514
a(I103
I10
F0.125
S'able'
p515
tp516
a(I113
I2
I0
S'only'
p517
tp518
a(I158
I1
I0
S'same'
p519
tp520
a(I164
I1
F-0.75
S'single'
p521
tp522
a(I164
I6
F0.625
S'major'
p523
tp524
a(I187
I2
I0
S'same'
p525
tp526
a(I187
I3
F0.375
S'new'
p527
tp528
a(I188
I2
I0
S'common'
p529
tp530
a(I213
I2
I0
S'only'
p531
tp532
a(I225
I7
F0.25
S'biggest'
p533
tp534
a(I227
I2
F-0.75
S'worse'
p535
tp536
a(I252
I5
I0
S'signal'
p537
tp538
a(I255
I2
I0
S'same'
p539
tp540
a(I256
I2
I0
S'only'
p541
tp542
a(I274
I14
I0
S'common'
p543
tp544
a(I275
I4
I0
S'latest'
p545
tp546
a(I297
I3
F-0.375
S'small'
p547
tp548
a(I297
I8
F0.5
S'clear'
p549
tp550
a(I320
I1
F-0.75
S'single'
p551
tp552
a(I321
I5
I0
S'same'
p553
tp554
as(g124
S'still'
p555
S'works'
p556
tp557
(lp558
(I194
I5
I0
S'great'
p559
tp560
as(S'size'
p561
S'and'
p562
S'weight'
p563
tp564
(lp565
(I273
I2
F0.875
S'nice'
p566
tp567
a(I305
I1
I0
S'great'
p568
tp569
as(S'text'
p570
tp571
(lp572
(I45
I5
F-0.375
S'stopped'
p573
tp574
a(I113
I1
I0
S'e-mail'
p575
tp576
a(I141
I3
I0
S'minimal'
p577
tp578
a(I180
I3
I0
S'such'
p579
tp580
a(I193
I2
I0
S'awhile'
p581
tp582
a(I193
I2
I0
S'sensitive'
p583
tp584
a(I280
I4
F0.125
S'first'
p585
tp586
a(I289
I17
F0.625
S'easy'
p587
tp588
a(I308
I0
I0
S'great'
p589
tp590
as(S'color'
p591
S'screen'
p592
tp593
(lp594
(I0
I16
F0.125
S'able'
p595
tp596
a(I7
I3
I0
S'id'
p597
tp598
a(I33
I3
F0.25
S'sharp'
p599
tp600
a(I39
I0
I0
S'great'
p601
tp602
a(I54
I1
F0.75
S'beautiful'
p603
tp604
a(I72
I2
F0.875
S'nice'
p605
tp606
a(I92
I1
F0.125
S'colorful'
p607
tp608
a(I92
I1
F-0.75
S'bright'
p609
tp610
a(I125
I13
I0
S'great'
p611
tp612
a(I145
I7
F0.75
S'beautiful'
p613
tp614
a(I272
I16
F0.125
S'able'
p615
tp616
a(I317
I6
F0.875
S'nice'
p617
tp618
a(I317
I6
F0.5
S'clear'
p619
tp620
a(I317
I6
F-0.75
S'bright'
p621
tp622
as(S'service'
p623
tp624
(lp625
(I27
I2
I0
g213
tp626
a(I34
I2
I0
S'nationwide'
p627
tp628
a(I43
I11
F1.0
S'good'
p629
tp630
a(I90
I19
F0.125
g215
tp631
a(I90
I19
I0
g217
tp632
a(I93
I2
F0.625
S'decent'
p633
tp634
a(I94
I2
F-0.875
S'hard'
p635
tp636
a(I98
I3
F1.0
g219
tp637
a(I99
I1
I0
g221
tp638
a(I99
I1
F1.0
g223
tp639
a(I99
I1
I0
g225
tp640
a(I99
I1
F1.0
g227
tp641
a(I116
I0
F-0.625
g229
tp642
a(I126
I2
I0
S'same'
p643
tp644
a(I138
I11
F-0.75
S'imperfect'
p645
tp646
a(I141
I6
F0.5
g231
tp647
a(I167
I7
I0
S'postal'
p648
tp649
a(I171
I6
F0.5
S'told'
p650
tp651
a(I171
I6
I0
S'minimal'
p652
tp653
a(I198
I1
I0
g233
tp654
a(I208
I10
I0
S'least'
p655
tp656
a(I220
I7
I0
g235
tp657
a(I243
I0
I0
g237
tp658
a(I249
I0
I0
g400
tp659
a(I256
I18
F0.625
S'decent'
p660
tp661
a(I290
I3
F-0.625
S'other'
p662
tp663
a(I290
I3
F-0.875
S'worst'
p664
tp665
a(I303
I3
I0
g239
tp666
a(I310
I8
I0
S'postal'
p667
tp668
a(I317
I13
F0.125
g241
tp669
as(S'number'
p670
tp671
(lp672
(I12
I5
I0
S'most'
p673
tp674
a(I37
I21
I0
S'serial'
p675
tp676
a(I38
I11
F0.625
S'fair'
p677
tp678
a(I70
I11
F0.5
S'second'
p679
tp680
a(I70
I11
I0
S'more'
p681
tp682
a(I97
I4
I0
S'dial'
p683
tp684
a(I111
I1
F-0.5
S'sure'
p685
tp686
a(I249
I1
F0.125
S'able'
p687
tp688
a(I271
I4
I0
S'old'
p689
tp690
a(I271
I4
F0.625
S'easy'
p691
tp692
a(I312
I3
F0.375
S'new'
p693
tp694
as(S'need'
p695
tp696
(lp697
(I144
I2
F-0.625
S'useless'
p698
tp699
as(S'data'
p700
S'cable'
p701
tp702
(lp703
(I53
I3
I0
S'cable'
p704
tp705
a(I97
I2
I0
S'cable'
p706
tp707
a(I97
I11
I0
S'cable'
p708
tp709
a(I97
I16
I0
S'cable'
p710
tp711
a(I104
I6
F-0.5
S'sure'
p712
tp713
a(I104
I6
F0.375
S'available'
p714
tp715
a(I135
I4
I0
S'cable'
p716
tp717
a(I266
I0
I0
S'cable'
p718
tp719
a(I289
I11
I0
S'quick'
p720
tp721
a(I289
I12
I0
S'cable'
p722
tp723
a(I289
I17
I0
S'cable'
p724
tp725
a(I289
I17
I0
S'cable'
p726
tp727
as(S'built'
p728
S'n'
p729
S'camera'
p730
tp731
(lp732
(I125
I17
F0.75
S'consider'
p733
tp734
a(I264
I3
F0.875
S'nice'
p735
tp736
a(I264
I3
F0.5
S'clear'
p737
tp738
a(I283
I1
I0
S'great'
p739
tp740
as(S'features'
p741
tp742
(lp743
(I0
I7
I0
S'few'
p744
tp745
a(I0
I7
F1.0
S'best'
p746
tp747
a(I20
I0
I0
S'great'
p748
tp749
a(I21
I0
F1.0
S'good'
p750
tp751
a(I35
I11
I0
S'many'
p752
tp753
a(I39
I0
I0
S'such'
p754
tp755
a(I41
I12
F0.875
S'happy'
p756
tp757
a(I41
I13
F0.625
S'easy'
p758
tp759
a(I50
I1
F-0.625
S'other'
p760
tp761
a(I50
I1
F1.0
S'good'
p762
tp763
a(I54
I0
I0
S'useful'
p764
tp765
a(I56
I6
I0
S'more'
p766
tp767
a(I56
I6
F0.5
S'possible'
p768
tp769
a(I67
I10
F-0.625
S'other'
p770
tp771
a(I70
I9
F-0.125
S'slow'
p772
tp773
a(I71
I0
I0
S'great'
p774
tp775
a(I71
I2
F-0.625
S'other'
p776
tp777
a(I83
I5
F0.5
S'personal'
p778
tp779
a(I87
I0
F0.875
S'nice'
p780
tp781
a(I89
I0
I0
S'useful'
p782
tp783
a(I90
I3
I0
S'most'
p784
tp785
a(I90
I3
I0
S'same'
p786
tp787
a(I92
I5
I0
S'great'
p788
tp789
a(I95
I5
F0.375
S'extra'
p790
tp791
a(I98
I1
I0
S'great'
p792
tp793
a(I106
I0
F1.0
S'good'
p794
tp795
a(I107
I0
I0
S'great'
p796
tp797
a(I114
I4
I0
S'same'
p798
tp799
a(I114
I4
I0
S'basic'
p800
tp801
a(I114
I15
F-0.375
S'simple'
p802
tp803
a(I114
I15
F0.375
S'extra'
p804
tp805
a(I128
I0
F0.625
S'decent'
p806
tp807
a(I145
I14
F0.5
S'advanced'
p808
tp809
a(I163
I3
I0
S'great'
p810
tp811
a(I177
I2
I0
S'great'
p812
tp813
a(I179
I3
I0
S'many'
p814
tp815
a(I179
I3
I0
S'great'
p816
tp817
a(I183
I1
I0
S'great'
p818
tp819
a(I190
I4
I0
S'great'
p820
tp821
a(I191
I14
I0
S'such'
p822
tp823
a(I191
I14
F-0.625
S'other'
p824
tp825
a(I191
I14
I0
S'great'
p826
tp827
a(I202
I3
F0.125
S'first'
p828
tp829
a(I203
I1
I0
S'many'
p830
tp831
a(I203
I1
F-0.875
S'hard'
p832
tp833
a(I212
I2
I0
S'many'
p834
tp835
a(I215
I8
F-0.625
S'useless'
p836
tp837
a(I229
I2
F0.625
S'easy'
p838
tp839
a(I236
I3
F-0.625
S'other'
p840
tp841
a(I236
I3
I0
S'most'
p842
tp843
a(I251
I2
I0
S'many'
p844
tp845
a(I251
I2
I0
S'many'
p846
tp847
a(I259
I1
I0
S'minimal'
p848
tp849
a(I259
I1
F1.0
S'best'
p850
tp851
a(I259
I3
F0.875
S'important'
p852
tp853
a(I259
I4
F0.375
S'newer'
p854
tp855
a(I266
I0
F0.25
S'helpful'
p856
tp857
a(I270
I3
F0.375
S'new'
p858
tp859
a(I270
I3
I0
S'such'
p860
tp861
a(I272
I7
I0
S'few'
p862
tp863
a(I272
I7
F1.0
S'best'
p864
tp865
a(I283
I3
I0
S'many'
p866
tp867
a(I283
I3
F0.375
S'similar'
p868
tp869
a(I284
I0
I0
S'great'
p870
tp871
a(I289
I7
I0
S'competitive'
p872
tp873
a(I301
I1
I0
S'such'
p874
tp875
a(I302
I5
F0.25
S'favorite'
p876
tp877
a(I309
I3
F0.25
S'bigger'
p878
tp879
a(I309
I3
F0.375
S'new'
p880
tp881
a(I316
I2
F0.875
S'nice'
p882
tp883
a(I317
I9
F0.5
S'advanced'
p884
tp885
a(I317
I9
I0
S'more'
p886
tp887
as(g196
S'long'
p888
S'time'
p889
tp890
(lp891
(I6
I4
F-0.5
S'long'
p892
tp893
a(I34
I6
F-0.5
S'long'
p894
tp895
a(I73
I4
F-0.5
S'long'
p896
tp897
a(I94
I2
F-0.125
S'overall'
p898
tp899
a(I140
I3
F-0.5
S'long'
p900
tp901
a(I224
I0
F-0.5
S'long'
p902
tp903
a(I231
I0
F-0.5
S'long'
p904
tp905
a(I289
I3
F-0.5
S'long'
p906
tp907
a(I289
I7
F-0.5
S'long'
p908
tp909
as(S'voice'
p910
tp911
(lp912
(I70
I7
I0
S'dial'
p913
tp914
a(I88
I4
F0.125
S'digital'
p915
tp916
a(I118
I2
F-0.75
S'unable'
p917
tp918
a(I185
I2
F0.625
S'easy'
p919
tp920
a(I209
I5
F0.875
S'nice'
p921
tp922
a(I210
I9
I0
S'cool'
p923
tp924
a(I229
I2
F0.875
S'nice'
p925
tp926
a(I230
I4
I0
S'dial'
p927
tp928
a(I273
I21
I0
S'dial'
p929
tp930
as(S'replacement'
p931
tp932
(lp933
(I53
I4
F0.375
S'new'
p934
tp935
a(I96
I0
F0.5
S'second'
p936
tp937
a(I102
I0
F0.25
S'original'
p938
tp939
a(I182
I4
F0.125
S'first'
p940
tp941
a(I241
I3
F-0.625
S'free'
p942
tp943
a(I241
I6
I0
S'third'
p944
tp945
a(I284
I4
F0.125
S'last'
p946
tp947
a(I284
I9
I0
S'third'
p948
tp949
a(I312
I6
F0.375
S'new'
p950
tp951
a(I315
I5
I0
S'next'
p952
tp953
as(S'thing'
p954
tp955
(lp956
(I5
I0
F0.125
S'last'
p957
tp958
a(I18
I2
F1.0
S'good'
p959
tp960
a(I56
I3
I0
S'same'
p961
tp962
a(I61
I2
I0
S'same'
p963
tp964
a(I62
I4
I0
S'only'
p965
tp966
a(I65
I0
I0
S'same'
p967
tp968
a(I90
I27
F-0.625
S'bad'
p969
tp970
a(I93
I6
I0
S'same'
p971
tp972
a(I100
I6
F0.5
S'whole'
p973
tp974
a(I114
I17
I0
S'only'
p975
tp976
a(I114
I17
I0
S'cool'
p977
tp978
a(I130
I1
F0.875
S'important'
p979
tp980
a(I133
I2
I0
S'same'
p981
tp982
a(I135
I8
F1.0
S'best'
p983
tp984
a(I168
I1
I0
S'only'
p985
tp986
a(I179
I3
F0.875
S'important'
p987
tp988
a(I185
I4
F-0.375
S'manual'
p989
tp990
a(I185
I4
F-0.75
S'little'
p991
tp992
a(I188
I3
I0
S'only'
p993
tp994
a(I200
I0
I0
S'annual'
p995
tp996
a(I202
I4
F-0.875
S'worst'
p997
tp998
a(I218
I1
F1.0
S'good'
p999
tp1000
a(I236
I4
I0
S'only'
p1001
tp1002
a(I236
I4
F-0.875
S'negative'
p1003
tp1004
a(I244
I0
I0
S'funny'
p1005
tp1006
a(I262
I4
F-0.625
S'bad'
p1007
tp1008
a(I288
I3
I0
S'only'
p1009
tp1010
a(I301
I5
I0
S'only'
p1011
tp1012
a(I301
I5
F-0.875
S'negative'
p1013
tp1014
a(I317
I16
F0.125
S'first'
p1015
tp1016
as(S'alarm'
p1017
S'clock'
p1018
tp1019
(lp1020
(I279
I3
I0
S'more'
p1021
tp1022
as(S'dropped'
p1023
S'calls'
p1024
tp1025
(lp1026
(I4
I3
F-0.25
S'dropped'
p1027
tp1028
a(I76
I19
F-0.25
S'dropped'
p1029
tp1030
a(I106
I9
F-0.25
S'dropped'
p1031
tp1032
a(I141
I2
I0
S'minimal'
p1033
tp1034
a(I143
I3
F-0.25
S'dropped'
p1035
tp1036
a(I234
I7
F-0.625
S'bad'
p1037
tp1038
a(I249
I0
F-0.25
S'dropped'
p1039
tp1040
a(I250
I1
F-0.25
S'dropped'
p1041
tp1042
as(S'sony'
p1043
S'ericsson'
p1044
tp1045
(lp1046
(I303
I0
F0.375
S'much'
p1047
tp1048
as(g729
S'r'
p1049
S'area'
p1050
tp1051
(lp1052
(I12
I1
I0
S'most'
p1053
tp1054
a(I27
I2
F1.0
S'good'
p1055
tp1056
a(I35
I2
I0
S'same'
p1057
tp1058
a(I35
I2
I0
S'only'
p1059
tp1060
a(I45
I9
F1.0
S'good'
p1061
tp1062
a(I45
I9
I0
S'seattle'
p1063
tp1064
a(I45
I9
F-0.625
S'bad'
p1065
tp1066
a(I81
I5
I0
S'urban'
p1067
tp1068
a(I112
I1
F0.375
S'new'
p1069
tp1070
a(I141
I2
F0.5
S'strong'
p1071
tp1072
a(I142
I1
F1.0
S'good'
p1073
tp1074
a(I151
I6
I0
S'same'
p1075
tp1076
a(I317
I14
I0
S'signal'
p1077
tp1078
a(I317
I14
F0.5
S'strong'
p1079
tp1080
as(S'key'
p1081
S'pad'
p1082
tp1083
(lp1084
(I0
I17
F0.125
S'key'
p1085
tp1086
a(I18
I1
F0.125
S'key'
p1087
tp1088
a(I18
I1
F-0.125
S'slow'
p1089
tp1090
a(I18
I1
F0.25
S'responsive'
p1091
tp1092
a(I272
I17
F0.125
S'key'
p1093
tp1094
as(S'battery'
p1095
S'life'
p1096
tp1097
(lp1098
(I46
I10
F0.125
S'impressive'
p1099
tp1100
a(I78
I19
F1.0
S'good'
p1101
tp1102
a(I91
I2
F-0.75
S'short'
p1103
tp1104
a(I101
I0
F-0.875
S'awful'
p1105
tp1106
a(I117
I5
F1.0
S'good'
p1107
tp1108
a(I177
I3
F0.125
S'first'
p1109
tp1110
a(I177
I3
F-0.5
S'weak'
p1111
tp1112
a(I177
I3
F-0.625
S'lasting'
p1113
tp1114
a(I197
I1
F0.125
S'first'
p1115
tp1116
a(I204
I3
F-0.75
S'short'
p1117
tp1118
a(I225
I7
F-0.75
S'short'
p1119
tp1120
a(I229
I2
F-0.5
S'poor'
p1121
tp1122
a(I235
I6
F0.875
S'lucky'
p1123
tp1124
a(I239
I5
F-0.375
S'near'
p1125
tp1126
a(I250
I6
I0
S'great'
p1127
tp1128
a(I259
I1
F-0.5
S'poor'
p1129
tp1130
a(I259
I1
F-0.375
S'manual'
p1131
tp1132
a(I279
I1
F1.0
S'good'
p1133
tp1134
a(I282
I1
F1.0
S'good'
p1135
tp1136
a(I289
I17
F1.0
S'good'
p1137
tp1138
a(I301
I4
F-0.625
S'bad'
p1139
tp1140
as(S'minutes'
p1141
tp1142
(lp1143
(I15
I3
I0
S'later'
p1144
tp1145
a(I20
I17
F0.875
S'lucky'
p1146
tp1147
a(I34
I6
F0.375
S'extra'
p1148
tp1149
a(I41
I13
I0
S'few'
p1150
tp1151
a(I45
I10
I0
S'more'
p1152
tp1153
a(I201
I20
I0
S'such'
p1154
tp1155
a(I201
I20
I0
S'many'
p1156
tp1157
a(I206
I6
I0
S'few'
p1158
tp1159
a(I206
I7
I0
S'few'
p1160
tp1161
a(I269
I1
I0
S'more'
p1162
tp1163
a(I307
I6
I0
S'more'
p1164
tp1165
a(I314
I3
F0.75
S'due'
p1166
tp1167
as(S'problems'
p1168
tp1169
(lp1170
(I15
I7
I0
S'common'
p1171
tp1172
a(I35
I8
F-0.625
S'other'
p1173
tp1174
a(I37
I23
F0.375
S'similar'
p1175
tp1176
a(I41
I18
I0
S'few'
p1177
tp1178
a(I53
I13
F0.375
S'similar'
p1179
tp1180
a(I81
I0
I0
S'more'
p1181
tp1182
a(I83
I2
I0
S'earlier'
p1183
tp1184
a(I93
I1
I0
S'many'
p1185
tp1186
a(I99
I0
I0
S'many'
p1187
tp1188
a(I99
I0
F0.625
S'major'
p1189
tp1190
a(I113
I0
F0.625
S'major'
p1191
tp1192
a(I129
I0
I0
S'most'
p1193
tp1194
a(I149
I5
F-0.75
S'minor'
p1195
tp1196
a(I149
I5
F-0.625
S'glad'
p1197
tp1198
a(I150
I10
I0
S'more'
p1199
tp1200
a(I150
I10
F-0.625
S'inevitable'
p1201
tp1202
a(I151
I10
I0
S'later'
p1203
tp1204
a(I153
I1
F-0.375
S'small'
p1205
tp1206
a(I165
I1
F-0.375
S'serious'
p1207
tp1208
a(I167
I8
F0.375
S'similar'
p1209
tp1210
a(I192
I0
F0.625
S'major'
p1211
tp1212
a(I193
I4
F-0.625
S'free'
p1213
tp1214
a(I197
I12
I0
S'common'
p1215
tp1216
a(I229
I1
I0
S'few'
p1217
tp1218
a(I256
I1
F0.625
S'major'
p1219
tp1220
a(I261
I2
F0.125
S'first'
p1221
tp1222
a(I270
I10
I0
S'same'
p1223
tp1224
as(S'back'
p1225
tp1226
(lp1227
(I193
I2
I0
S'blue'
p1228
tp1229
as(S'reception'
p1230
tp1231
(lp1232
(I3
I1
F1.0
S'good'
p1233
tp1234
a(I3
I3
F1.0
S'better'
p1235
tp1236
a(I3
I3
F0.25
S'bigger'
p1237
tp1238
a(I7
I2
I0
S'great'
p1239
tp1240
a(I12
I1
F1.0
S'good'
p1241
tp1242
a(I14
I0
F1.0
S'good'
p1243
tp1244
a(I14
I1
I0
S'full'
p1245
tp1246
a(I14
I2
F1.0
S'good'
p1247
tp1248
a(I14
I3
F1.0
S'good'
p1249
tp1250
a(I14
I4
F1.0
S'best'
p1251
tp1252
a(I35
I0
I0
S'great'
p1253
tp1254
a(I35
I1
F-0.625
S'bad'
p1255
tp1256
a(I35
I1
F-0.75
S'impossible'
p1257
tp1258
a(I54
I0
F1.0
S'good'
p1259
tp1260
a(I64
I3
F-0.5
S'poor'
p1261
tp1262
a(I76
I19
F-0.5
S'poor'
p1263
tp1264
a(I86
I2
F-0.5
S'poor'
p1265
tp1266
a(I92
I1
I0
S'great'
p1267
tp1268
a(I109
I1
F1.0
S'good'
p1269
tp1270
a(I117
I3
F1.0
S'good'
p1271
tp1272
a(I130
I2
I0
S'great'
p1273
tp1274
a(I135
I0
F0.5
S'clear'
p1275
tp1276
a(I137
I1
F1.0
S'good'
p1277
tp1278
a(I143
I4
F0.625
S'perfect'
p1279
tp1280
a(I147
I9
I0
S'same'
p1281
tp1282
a(I169
I0
I0
S'full'
p1283
tp1284
a(I177
I1
F1.0
S'good'
p1285
tp1286
a(I191
I10
F-0.625
S'bad'
p1287
tp1288
a(I211
I4
F-0.75
S'little'
p1289
tp1290
a(I217
I5
F-0.625
S'bad'
p1291
tp1292
a(I232
I1
F1.0
S'good'
p1293
tp1294
a(I242
I1
F-0.5
S'poor'
p1295
tp1296
a(I242
I7
I0
S'more'
p1297
tp1298
a(I242
I7
F-0.625
S'bad'
p1299
tp1300
a(I242
I8
F-0.625
S'bad'
p1301
tp1302
a(I247
I2
I0
S'more'
p1303
tp1304
a(I256
I18
I0
S'least'
p1305
tp1306
a(I257
I3
I0
S'great'
p1307
tp1308
a(I293
I1
F1.0
S'good'
p1309
tp1310
a(I301
I3
F-0.625
S'bad'
p1311
tp1312
as(S'life'
p1313
tp1314
(lp1315
(I91
I2
F-0.75
g1103
tp1316
a(I101
I0
F-0.875
g1105
tp1317
a(I177
I3
F-0.5
g1111
tp1318
a(I177
I3
F-0.625
g1113
tp1319
a(I204
I3
F-0.75
g1117
tp1320
a(I235
I6
F0.875
g1123
tp1321
a(I239
I5
F-0.375
g1125
tp1322
a(I250
I6
I0
g1127
tp1323
a(I259
I1
F-0.375
g1131
tp1324
a(I301
I4
F-0.625
g1139
tp1325
as(S'cool'
p1326
tp1327
(lp1328
(I35
I8
F-0.375
S'near'
p1329
tp1330
a(I157
I2
I0
S'many'
p1331
tp1332
a(I234
I12
I0
S'same'
p1333
tp1334
a(I251
I2
I0
S'many'
p1335
tp1336
as(S'motorola'
p1337
S'v300'
p1338
tp1339
(lp1340
(I3
I3
F-0.625
g4
tp1341
a(I22
I1
F-0.25
S'late'
p1342
tp1343
a(I22
I1
F0.375
g6
tp1344
a(I37
I1
F-0.5
S'regular'
p1345
tp1346
a(I79
I13
I0
g18
tp1347
a(I118
I0
I0
g26
tp1348
a(I126
I7
I0
g28
tp1349
a(I174
I2
F-0.75
g42
tp1350
a(I190
I0
I0
S'more'
p1351
tp1352
a(I257
I1
F0.875
S'happy'
p1353
tp1354
a(I294
I1
I0
S'such'
p1355
tp1356
a(I303
I0
I0
S'many'
p1357
tp1358
a(I303
I0
I0
g62
tp1359
as(S'good'
p1360
S'battery'
p1361
S'life'
p1362
tp1363
(lp1364
(I78
I19
F1.0
g1101
tp1365
a(I117
I5
F1.0
g1107
tp1366
a(I229
I2
F-0.5
g1121
tp1367
a(I279
I1
F1.0
g1133
tp1368
a(I282
I1
F1.0
g1135
tp1369
a(I289
I17
F1.0
g1137
tp1370
as(S'speakerphone'
p1371
tp1372
(lp1373
(I33
I1
F0.625
S'convenient'
p1374
tp1375
a(I41
I16
F1.0
S'good'
p1376
tp1377
a(I46
I14
F0.875
S'nice'
p1378
tp1379
a(I46
I14
F0.125
S'able'
p1380
tp1381
a(I46
I14
I0
S'dial'
p1382
tp1383
a(I97
I2
I0
S'integrated'
p1384
tp1385
a(I106
I0
F1.0
S'good'
p1386
tp1387
a(I117
I5
I0
S'walkie-talkie'
p1388
tp1389
a(I152
I0
F-0.125
S'private'
p1390
tp1391
a(I199
I4
F0.5
S'clear'
p1392
tp1393
a(I201
I5
F-0.125
S'public'
p1394
tp1395
a(I319
I8
F0.5
S'clear'
p1396
tp1397
a(I319
I8
I0
S'useful'
p1398
tp1399
as(S'plan'
p1400
tp1401
(lp1402
(I39
I0
I0
S'net'
p1403
tp1404
a(I61
I0
F0.375
S'worked'
p1405
tp1406
a(I61
I0
F1.0
S'good'
p1407
tp1408
a(I114
I2
I0
S'monthly'
p1409
tp1410
a(I148
I0
F-0.5
S'sure'
p1411
tp1412
a(I220
I8
I0
S'such'
p1413
tp1414
a(I223
I1
F-0.625
S'free'
p1415
tp1416
a(I223
I1
F0.375
S'new'
p1417
tp1418
as(S'display'
p1419
tp1420
(lp1421
(I41
I4
F-0.75
S'little'
p1422
tp1423
a(I41
I6
F0.125
S'visible'
p1424
tp1425
a(I74
I1
F0.125
S'outside'
p1426
tp1427
a(I78
I1
F-0.875
S'harder'
p1428
tp1429
a(I91
I8
F0.875
S'nice'
p1430
tp1431
a(I97
I1
I0
S'large'
p1432
tp1433
a(I134
I4
F0.5
S'clear'
p1434
tp1435
a(I141
I0
F-0.75
S'bright'
p1436
tp1437
a(I175
I2
F0.125
S'first'
p1438
tp1439
a(I175
I2
F0.75
S'due'
p1440
tp1441
a(I175
I2
F-0.75
S'short'
p1442
tp1443
a(I175
I2
I0
S'internal'
p1444
tp1445
a(I185
I5
F0.625
S'easy'
p1446
tp1447
a(I266
I0
F0.5
S'clear'
p1448
tp1449
a(I266
I0
F-0.625
S'clean'
p1450
tp1451
a(I266
I0
F0.625
S'easy'
p1452
tp1453
a(I292
I3
I0
S'great'
p1454
tp1455
a(I312
I1
F0.5
S'whole'
p1456
tp1457
as(S'color'
p1458
tp1459
(lp1460
(I7
I3
I0
g597
tp1461
a(I39
I0
I0
g601
tp1462
a(I42
I3
I0
S'wish'
p1463
tp1464
a(I54
I1
F0.75
g603
tp1465
a(I55
I15
I0
S'external'
p1466
tp1467
a(I104
I5
F1.0
S'good'
p1468
tp1469
a(I107
I0
I0
S'blue'
p1470
tp1471
a(I145
I7
F0.75
g613
tp1472
a(I264
I1
F1.0
S'best'
p1473
tp1474
a(I281
I1
F0.125
S'impressive'
p1475
tp1476
a(I298
I6
F1.0
S'better'
p1477
tp1478
a(I320
I7
I0
S'most'
p1479
tp1480
as(S'cell'
p1481
tp1482
(lp1483
(I0
I1
I0
S'such'
p1484
tp1485
a(I0
I2
I0
S'different'
p1486
tp1487
a(I6
I4
I0
S'many'
p1488
tp1489
a(I6
I4
I0
S'older'
p1490
tp1491
a(I10
I0
I0
S'old'
p1492
tp1493
a(I51
I2
F0.875
S'happier'
p1494
tp1495
a(I55
I10
F0.125
S'first'
p1496
tp1497
a(I90
I21
F0.625
S'progressive'
p1498
tp1499
a(I90
I22
F-0.5
S'heavy'
p1500
tp1501
a(I93
I11
F1.0
S'good'
p1502
tp1503
a(I93
I13
F0.5
S'expensive'
p1504
tp1505
a(I95
I10
I0
S'standard'
p1506
tp1507
a(I97
I10
F-0.625
S'other'
p1508
tp1509
a(I111
I1
F1.0
S'best'
p1510
tp1511
a(I119
I0
F0.125
S'first'
p1512
tp1513
a(I132
I1
F1.0
S'best'
p1514
tp1515
a(I150
I10
F0.375
S'new'
p1516
tp1517
a(I151
I14
F-0.625
S'other'
p1518
tp1519
a(I155
I2
F1.0
S'good'
p1520
tp1521
a(I157
I1
F0.125
S'first'
p1522
tp1523
a(I257
I8
F-0.625
S'other'
p1524
tp1525
a(I259
I11
F-0.625
S'other'
p1526
tp1527
a(I259
I13
F-0.625
S'other'
p1528
tp1529
a(I272
I1
I0
S'such'
p1530
tp1531
a(I272
I2
I0
S'different'
p1532
tp1533
a(I276
I9
F-0.625
S'other'
p1534
tp1535
a(I304
I1
F0.375
S'new'
p1536
tp1537
a(I320
I3
F0.125
S'typical'
p1538
tp1539
as(S'calls'
p1540
tp1541
(lp1542
(I4
I2
F0.5
S'clear'
p1543
tp1544
a(I4
I3
F-0.25
g1027
tp1545
a(I20
I15
I0
S'signal'
p1546
tp1547
a(I35
I4
F-0.75
S'difficult'
p1548
tp1549
a(I35
I11
F1.0
S'good'
p1550
tp1551
a(I76
I19
F-0.25
g1029
tp1552
a(I106
I9
F-0.25
g1031
tp1553
a(I122
I3
F0.125
S'able'
p1554
tp1555
a(I132
I0
F-0.5
S'international'
p1556
tp1557
a(I132
I1
F0.5
S'reasonable'
p1558
tp1559
a(I141
I2
I0
g1033
tp1560
a(I143
I3
F-0.25
g1035
tp1561
a(I151
I0
I0
S'few'
p1562
tp1563
a(I151
I0
F0.75
S'due'
p1564
tp1565
a(I161
I5
F0.5
S'clear'
p1566
tp1567
a(I223
I4
F-0.75
S'impossible'
p1568
tp1569
a(I234
I7
F-0.625
g1037
tp1570
a(I249
I0
F-0.25
g1039
tp1571
a(I250
I1
F-0.25
g1041
tp1572
a(I253
I5
I0
S'fourth'
p1573
tp1574
a(I267
I0
I0
S'more'
p1575
tp1576
a(I279
I3
I0
S'exact'
p1577
tp1578
a(I279
I5
I0
S'many'
p1579
tp1580
a(I279
I5
I0
S'more'
p1581
tp1582
a(I297
I3
I0
S'select'
p1583
tp1584
a(I307
I18
F-0.5
S'poor'
p1585
tp1586
a(I313
I1
I0
S'third'
p1587
tp1588
a(I314
I3
F-0.75
S'little'
p1589
tp1590
as(g124
S'mobile'
p1591
S"'s"
p1592
S'service'
p1593
tp1594
(lp1595
(I317
I13
F0.125
g241
tp1596
as(S'speaker'
p1597
tp1598
(lp1599
(I45
I2
F0.375
S'loud'
p1600
tp1601
a(I47
I3
F0.5
S'clear'
p1602
tp1603
a(I97
I7
F-0.625
S'quiet'
p1604
tp1605
a(I103
I7
F0.75
S'ear'
p1606
tp1607
a(I125
I8
I0
S'great'
p1608
tp1609
a(I141
I3
I0
S'great'
p1610
tp1611
a(I201
I6
F0.875
S'rude'
p1612
tp1613
a(I229
I2
F-0.75
S'dead'
p1614
tp1615
a(I242
I0
F-0.5
S'regular'
p1616
tp1617
a(I266
I0
F0.375
S'polyphonic'
p1618
tp1619
a(I307
I9
I0
S'external'
p1620
tp1621
as(S'aol'
p1622
S'instant'
p1623
tp1624
(lp1625
(I289
I17
F0.625
S'easy'
p1626
tp1627
as(S'time'
p1628
tp1629
(lp1630
(I6
I4
F-0.5
g892
tp1631
a(I19
I12
F0.125
S'first'
p1632
tp1633
a(I28
I7
F0.375
S'new'
p1634
tp1635
a(I34
I6
F-0.5
g894
tp1636
a(I53
I6
I0
S'same'
p1637
tp1638
a(I55
I8
I0
S'awhile'
p1639
tp1640
a(I56
I6
F-0.875
S'hard'
p1641
tp1642
a(I56
I11
F-0.75
S'little'
p1643
tp1644
a(I56
I11
F-0.375
S'manual'
p1645
tp1646
a(I73
I4
F-0.5
g896
tp1647
a(I76
I20
I0
S'crystal'
p1648
tp1649
a(I76
I20
F0.5
S'clear'
p1650
tp1651
a(I80
I0
I0
S'awhile'
p1652
tp1653
a(I93
I1
F0.875
S'happy'
p1654
tp1655
a(I93
I1
F-0.125
S'overall'
p1656
tp1657
a(I94
I2
F-0.125
g898
tp1658
a(I97
I16
F-0.875
S'hard'
p1659
tp1660
a(I102
I3
I0
S'third'
p1661
tp1662
a(I106
I3
I0
S'same'
p1663
tp1664
a(I107
I3
F-0.5
S'answer'
p1665
tp1666
a(I140
I3
F-0.5
g900
tp1667
a(I169
I4
F-0.75
S'difficult'
p1668
tp1669
a(I174
I2
F-0.875
S'hard'
p1670
tp1671
a(I175
I2
I0
S'most'
p1672
tp1673
a(I224
I0
F-0.5
g902
tp1674
a(I231
I0
F-0.5
g904
tp1675
a(I234
I13
I0
S'fast'
p1676
tp1677
a(I239
I3
F0.375
S'early'
p1678
tp1679
a(I239
I3
F0.375
S'extended'
p1680
tp1681
a(I239
I7
F1.0
S'good'
p1682
tp1683
a(I250
I10
F0.125
S'able'
p1684
tp1685
a(I252
I9
F-0.125
S'slow'
p1686
tp1687
a(I253
I3
F-0.875
S'hard'
p1688
tp1689
a(I256
I18
F0.125
S'first'
p1690
tp1691
a(I259
I4
F0.125
S'first'
p1692
tp1693
a(I261
I1
F0.375
S'new'
p1694
tp1695
a(I261
I6
F-0.75
S'difficult'
p1696
tp1697
a(I261
I7
I0
S'only'
p1698
tp1699
a(I270
I4
F0.125
S'first'
p1700
tp1701
a(I273
I10
I0
S'most'
p1702
tp1703
a(I289
I3
F-0.5
g906
tp1704
a(I289
I7
F-0.5
g908
tp1705
a(I317
I20
F0.375
S'much'
p1706
tp1707
a(I317
I20
F-0.25
S'lower'
p1708
tp1709
as(g124
S'drops'
p1710
S'calls'
p1711
tp1712
(lp1713
(I27
I6
I0
S'signal'
p1714
tp1715
as(S'months'
p1716
tp1717
(lp1718
(I6
I6
I0
S'many'
p1719
tp1720
a(I20
I15
I0
S'later'
p1721
tp1722
a(I32
I3
F0.125
S'last'
p1723
tp1724
a(I62
I7
I0
S'few'
p1725
tp1726
a(I65
I0
F0.5
S'second'
p1727
tp1728
a(I66
I3
F0.125
S'first'
p1729
tp1730
a(I82
I3
I0
S'later'
p1731
tp1732
a(I103
I10
I0
S'few'
p1733
tp1734
a(I134
I0
I0
S'few'
p1735
tp1736
a(I139
I4
I0
S'old'
p1737
tp1738
a(I151
I7
I0
S'few'
p1739
tp1740
a(I151
I15
F1.0
S'good'
p1741
tp1742
a(I151
I15
F0.125
S'first'
p1743
tp1744
a(I151
I15
I0
S'few'
p1745
tp1746
a(I161
I0
F0.125
S'last'
p1747
tp1748
a(I166
I0
I0
S'few'
p1749
tp1750
a(I167
I3
I0
S'few'
p1751
tp1752
a(I191
I9
F-0.5
S'afraid'
p1753
tp1754
a(I208
I10
I0
S'more'
p1755
tp1756
a(I208
I10
F0.5
S'told'
p1757
tp1758
a(I228
I1
I0
S'few'
p1759
tp1760
a(I250
I1
I0
S'few'
p1761
tp1762
a(I252
I7
I0
S'old'
p1763
tp1764
a(I270
I10
I0
S'few'
p1765
tp1766
as(S'flip'
p1767
tp1768
(lp1769
(I35
I10
F0.375
S'reliable'
p1770
tp1771
a(I104
I5
F1.0
S'best'
p1772
tp1773
a(I145
I3
F-0.5
S'open'
p1774
tp1775
a(I161
I0
I0
S'many'
p1776
tp1777
a(I161
I0
F1.0
S'good'
p1778
tp1779
a(I161
I0
F0.375
S'new'
p1780
tp1781
a(I162
I3
I0
S'old'
p1782
tp1783
a(I191
I17
F-0.5
S'regular'
p1784
tp1785
as(S'belt'
p1786
S'clip'
p1787
tp1788
(lp1789
(I318
I2
I0
S'useful'
p1790
tp1791
as(S'loud'
p1792
tp1793
(lp1794
(I3
I1
F0.875
S'nice'
p1795
tp1796
a(I33
I1
F0.5
S'clear'
p1797
tp1798
a(I38
I9
I0
S'soft'
p1799
tp1800
a(I155
I0
F0.875
S'nice'
p1801
tp1802
a(I222
I2
F-0.375
S'static'
p1803
tp1804
a(I261
I7
F0.5
S'clear'
p1805
tp1806
a(I289
I17
F-0.5
S'vibrate'
p1807
tp1808
as(S'year'
p1809
tp1810
(lp1811
(I73
I3
F-0.75
S'little'
p1812
tp1813
a(I155
I0
F0.125
S'last'
p1814
tp1815
a(I155
I0
F0.125
S'last'
p1816
tp1817
a(I237
I8
F-0.25
S'past'
p1818
tp1819
a(I248
I0
I0
S'most'
p1820
tp1821
a(I283
I0
F-0.25
S'past'
p1822
tp1823
a(I300
I2
F-0.125
S'overall'
p1824
tp1825
as(S'charging'
p1826
tp1827
(lp1828
(I152
I1
F-0.875
S'trouble'
p1829
tp1830
as(S'ring'
p1831
S'tones'
p1832
tp1833
(lp1834
(I25
I1
I0
S'cool'
p1835
tp1836
a(I114
I16
F0.875
S'music'
p1837
tp1838
a(I125
I22
I0
S'many'
p1839
tp1840
a(I141
I2
F0.875
S'music'
p1841
tp1842
a(I199
I5
F0.375
S'loud'
p1843
tp1844
a(I273
I12
F0.625
S'decent'
p1845
tp1846
a(I301
I1
I0
S'great'
p1847
tp1848
a(I315
I8
I0
S'great'
p1849
tp1850
as(S'screen'
p1851
tp1852
(lp1853
(I0
I16
F0.125
g595
tp1854
a(I3
I3
F0.5
S'elegant'
p1855
tp1856
a(I12
I3
F-0.375
S'black'
p1857
tp1858
a(I12
I3
F0.125
S'key'
p1859
tp1860
a(I19
I8
F-0.75
S'bright'
p1861
tp1862
a(I19
I8
F-0.25
S'white'
p1863
tp1864
a(I22
I3
F0.75
S'beautiful'
p1865
tp1866
a(I22
I3
I0
S'large'
p1867
tp1868
a(I33
I3
F0.25
g599
tp1869
a(I38
I22
F0.25
S'main'
p1870
tp1871
a(I38
I22
I0
S'least'
p1872
tp1873
a(I55
I13
F-0.375
S'black'
p1874
tp1875
a(I57
I4
F-0.75
S'dark'
p1876
tp1877
a(I72
I2
F0.875
g605
tp1878
a(I90
I14
F-0.75
S'bright'
p1879
tp1880
a(I92
I1
F0.125
g607
tp1881
a(I92
I1
F-0.75
g609
tp1882
a(I111
I2
F-0.75
S'bright'
p1883
tp1884
a(I125
I13
I0
g611
tp1885
a(I150
I9
I0
S'dial'
p1886
tp1887
a(I199
I1
I0
S'large'
p1888
tp1889
a(I212
I4
F1.0
S'better'
p1890
tp1891
a(I217
I3
F-0.75
S'bright'
p1892
tp1893
a(I217
I3
F0.75
S'beautiful'
p1894
tp1895
a(I217
I4
I0
S'blue'
p1896
tp1897
a(I221
I1
F-0.75
S'unable'
p1898
tp1899
a(I222
I4
I0
S'entire'
p1900
tp1901
a(I230
I2
F0.875
S'nice'
p1902
tp1903
a(I232
I1
F0.75
S'beautiful'
p1904
tp1905
a(I243
I0
F0.875
S'nice'
p1906
tp1907
a(I256
I9
F0.5
S'second'
p1908
tp1909
a(I265
I1
F-0.75
S'bright'
p1910
tp1911
a(I272
I16
F0.125
g615
tp1912
a(I273
I3
F-0.75
S'bright'
p1913
tp1914
a(I273
I3
I0
S'legible'
p1915
tp1916
a(I283
I2
F0.5
S'clear'
p1917
tp1918
a(I283
I2
F-0.75
S'bright'
p1919
tp1920
a(I283
I2
I0
S'most'
p1921
tp1922
a(I286
I5
F-0.625
S'bad'
p1923
tp1924
a(I289
I15
F1.0
S'better'
p1925
tp1926
a(I289
I15
I0
S'most'
p1927
tp1928
a(I295
I1
F0.125
S'spectacular'
p1929
tp1930
a(I317
I6
F0.875
g617
tp1931
a(I317
I6
F0.5
g619
tp1932
a(I317
I6
F-0.75
g621
tp1933
as(S'customer'
p1934
tp1935
(lp1936
(I70
I1
F0.875
g396
tp1937
a(I78
I3
F1.0
S'good'
p1938
tp1939
a(I84
I11
F-0.875
g398
tp1940
a(I289
I22
F1.0
g129
tp1941
a(I312
I2
I0
g131
tp1942
as(S'samsung'
p1943
tp1944
(lp1945
(I46
I11
F-0.5
S'heavier'
p1946
tp1947
a(I70
I12
F1.0
S'good'
p1948
tp1949
a(I120
I1
I0
S'lcd'
p1950
tp1951
a(I282
I2
F1.0
S'better'
p1952
tp1953
a(I317
I7
F-0.125
S'former'
p1954
tp1955
a(I317
I23
F-0.125
S'former'
p1956
tp1957
as(S'camera'
p1958
tp1959
(lp1960
(I7
I3
I0
S'caller'
p1961
tp1962
a(I15
I1
F0.75
S'due'
p1963
tp1964
a(I20
I17
F-0.25
S'low'
p1965
tp1966
a(I21
I2
F-0.25
S'low'
p1967
tp1968
a(I21
I4
F-0.5
S'heavy'
p1969
tp1970
a(I28
I0
I0
S'cool'
p1971
tp1972
a(I33
I2
F1.0
S'good'
p1973
tp1974
a(I45
I2
F0.5
S'clear'
p1975
tp1976
a(I56
I8
F0.125
S'digital'
p1977
tp1978
a(I63
I2
I0
S'great'
p1979
tp1980
a(I69
I1
F1.0
S'good'
p1981
tp1982
a(I72
I5
F1.0
S'good'
p1983
tp1984
a(I76
I2
F0.375
S'much'
p1985
tp1986
a(I76
I2
F0.375
S'much'
p1987
tp1988
a(I76
I2
F0.375
S'much'
p1989
tp1990
a(I76
I2
F-0.625
S'other'
p1991
tp1992
a(I78
I17
F0.125
S'digital'
p1993
tp1994
a(I85
I2
F0.625
S'easy'
p1995
tp1996
a(I92
I1
I0
S'great'
p1997
tp1998
a(I106
I0
F0.875
S'nice'
p1999
tp2000
a(I107
I4
I0
S'great'
p2001
tp2002
a(I108
I1
F0.625
S'easy'
p2003
tp2004
a(I113
I4
F-0.375
S'simple'
p2005
tp2006
a(I114
I25
I0
S'great'
p2007
tp2008
a(I114
I26
I0
S'great'
p2009
tp2010
a(I125
I16
F0.125
S'digital'
p2011
tp2012
a(I125
I17
F0.75
g733
tp2013
a(I134
I11
F1.0
S'better'
p2014
tp2015
a(I141
I2
I0
S'adequate'
p2016
tp2017
a(I145
I8
F0.875
S'nice'
p2018
tp2019
a(I153
I1
F-0.625
S'bad'
p2020
tp2021
a(I164
I2
I0
S'great'
p2022
tp2023
a(I180
I1
I0
S'passable'
p2024
tp2025
a(I181
I5
F0.75
S'worth'
p2026
tp2027
a(I199
I3
F0.625
S'fair'
p2028
tp2029
a(I202
I2
I0
S'great'
p2030
tp2031
a(I209
I3
F0.5
S'so-so'
p2032
tp2033
a(I210
I7
F-0.625
S'other'
p2034
tp2035
a(I234
I0
F0.125
S'dedicated'
p2036
tp2037
a(I251
I2
F1.0
S'best'
p2038
tp2039
a(I256
I6
F0.125
S'first'
p2040
tp2041
a(I261
I11
I0
S'fourth'
p2042
tp2043
a(I264
I3
F0.875
g735
tp2044
a(I264
I3
F0.5
g737
tp2045
a(I274
I10
F0.5
S'true'
p2046
tp2047
a(I282
I0
I0
S'coolest'
p2048
tp2049
a(I283
I1
I0
g739
tp2050
a(I314
I6
I0
S'great'
p2051
tp2052
a(I317
I27
F0.625
S'easy'
p2053
tp2054
a(I318
I2
F0.625
S'decent'
p2055
tp2056
a(I319
I9
F0.375
S'much'
p2057
tp2058
as(S'using'
p2059
tp2060
(lp2061
(I159
I2
F0.125
S'able'
p2062
tp2063
as(S'games'
p2064
tp2065
(lp2066
(I2
I4
F0.25
S'original'
p2067
tp2068
a(I20
I3
F0.875
S'nice'
p2069
tp2070
a(I43
I6
F0.625
S'decent'
p2071
tp2072
a(I94
I1
I0
S'many'
p2073
tp2074
a(I94
I1
F-0.625
S'free'
p2075
tp2076
a(I151
I5
F-0.625
S'free'
p2077
tp2078
a(I257
I6
I0
S'few'
p2079
tp2080
as(S'ring'
p2081
tp2082
(lp2083
(I25
I1
I0
g1835
tp2084
a(I114
I16
F0.875
g1837
tp2085
a(I208
I3
F0.5
S'clear'
p2086
tp2087
a(I208
I3
F-0.25
S'lower'
p2088
tp2089
a(I281
I2
F0.5
S'clear'
p2090
tp2091
a(I281
I2
F0.375
S'polyphonic'
p2092
tp2093
a(I301
I1
I0
g1847
tp2094
as(S'mobile'
p2095
tp2096
(lp2097
(I5
I0
I0
S'great'
p2098
tp2099
as(S'pictures'
p2100
tp2101
(lp2102
(I47
I2
I0
S'great'
p2103
tp2104
a(I72
I10
I0
S'many'
p2105
tp2106
a(I85
I2
I0
S'great'
p2107
tp2108
a(I89
I6
F-0.125
S'slow'
p2109
tp2110
a(I99
I2
F1.0
S'good'
p2111
tp2112
a(I111
I2
I0
S'great'
p2113
tp2114
a(I111
I2
I0
S'adequate'
p2115
tp2116
a(I114
I23
F0.125
S'able'
p2117
tp2118
a(I114
I23
I0
S'great'
p2119
tp2120
a(I135
I5
F0.25
S'favorite'
p2121
tp2122
a(I138
I8
F0.5
S'clear'
p2123
tp2124
a(I150
I2
F0.875
S'nice'
p2125
tp2126
a(I150
I2
F0.125
S'able'
p2127
tp2128
a(I188
I2
F0.25
S'sharp'
p2129
tp2130
a(I188
I2
F0.5
S'clear'
p2131
tp2132
a(I199
I3
F0.125
S'distant'
p2133
tp2134
a(I235
I5
F1.0
S'better'
p2135
tp2136
a(I281
I4
F-0.5
S'unwanted'
p2137
tp2138
a(I289
I17
F-0.625
S'free'
p2139
tp2140
a(I298
I6
F0.25
S'sharper'
p2141
tp2142
a(I300
I2
F-0.625
S'average'
p2143
tp2144
a(I300
I2
F1.0
S'better'
p2145
tp2146
as(S'signal'
p2147
tp2148
(lp2149
(I88
I10
I0
S'least'
p2150
tp2151
a(I260
I0
F1.0
S'good'
p2152
tp2153
a(I263
I1
I0
S'full'
p2154
tp2155
a(I268
I2
F1.0
S'good'
p2156
tp2157
a(I314
I3
I0
S'even'
p2158
tp2159
as(g196
S'data'
p2160
S'cable'
p2161
tp2162
(lp2163
(I53
I3
I0
g704
tp2164
a(I97
I2
I0
g706
tp2165
a(I97
I11
I0
g708
tp2166
a(I97
I16
I0
g710
tp2167
a(I104
I6
F-0.5
g712
tp2168
a(I104
I6
F0.375
g714
tp2169
a(I135
I4
I0
g716
tp2170
a(I266
I0
I0
g718
tp2171
a(I289
I11
I0
g720
tp2172
a(I289
I12
I0
g722
tp2173
a(I289
I17
I0
g724
tp2174
a(I289
I17
I0
g726
tp2175
as(S'people'
p2176
tp2177
(lp2178
(I41
I13
I0
S'most'
p2179
tp2180
a(I41
I13
F0.125
S'able'
p2181
tp2182
a(I44
I1
I0
S'many'
p2183
tp2184
a(I44
I1
F-0.625
S'other'
p2185
tp2186
a(I44
I2
F-0.625
S'other'
p2187
tp2188
a(I79
I9
F0.875
S'happy'
p2189
tp2190
a(I86
I1
I0
S'different'
p2191
tp2192
a(I103
I4
F-0.625
S'other'
p2193
tp2194
a(I111
I3
F0.125
S'able'
p2195
tp2196
a(I113
I0
F-0.625
S'other'
p2197
tp2198
a(I145
I5
F-0.625
S'other'
p2199
tp2200
a(I250
I2
F-0.625
S'other'
p2201
tp2202
a(I262
I5
I0
S'many'
p2203
tp2204
a(I269
I2
F-0.625
S'other'
p2205
tp2206
a(I301
I3
I0
S'many'
p2207
tp2208
a(I301
I4
I0
S'many'
p2209
tp2210
a(I307
I8
F0.375
S'louder'
p2211
tp2212
a(I312
I8
F-0.625
S'other'
p2213
tp2214
as(S'tons'
p2215
tp2216
(lp2217
(I60
I1
F-0.5
S'vibrate'
p2218
tp2219
as(S'feature'
p2220
tp2221
(lp2222
(I11
I5
F0.875
S'nice'
p2223
tp2224
a(I25
I1
I0
S'great'
p2225
tp2226
a(I88
I3
F0.875
S'nice'
p2227
tp2228
a(I113
I3
F0.625
S'fair'
p2229
tp2230
a(I117
I2
F-0.5
S'long'
p2231
tp2232
a(I125
I20
F0.375
S'extra'
p2233
tp2234
a(I215
I1
F0.25
S'main'
p2235
tp2236
a(I215
I4
I0
S'most'
p2237
tp2238
a(I215
I4
F0.875
S'important'
p2239
tp2240
a(I259
I6
F0.125
S'first'
p2241
tp2242
a(I260
I3
F1.0
S'good'
p2243
tp2244
a(I273
I11
F0.875
S'nice'
p2245
tp2246
a(I320
I3
F0.625
S'easy'
p2247
tp2248
as(S'v300'
p2249
tp2250
(lp2251
(I0
I15
I0
S'many'
p2252
tp2253
a(I0
I22
I0
S'great'
p2254
tp2255
a(I10
I1
F-0.5
S'call'
p2256
tp2257
a(I14
I2
F-0.375
S'near'
p2258
tp2259
a(I22
I1
F-0.25
g1342
tp2260
a(I37
I1
F-0.5
g1345
tp2261
a(I37
I3
I0
S'full'
p2262
tp2263
a(I58
I2
F1.0
S'better'
p2264
tp2265
a(I64
I4
F0.375
S'new'
p2266
tp2267
a(I64
I4
I0
S'full'
p2268
tp2269
a(I65
I0
F0.75
S'due'
p2270
tp2271
a(I65
I0
F0.125
S'first'
p2272
tp2273
a(I79
I8
F0.25
S'refurbished'
p2274
tp2275
a(I82
I2
F0.375
S'new'
p2276
tp2277
a(I83
I5
F-0.375
S'small'
p2278
tp2279
a(I83
I5
I0
S'blue'
p2280
tp2281
a(I85
I10
F0.375
S'new'
p2282
tp2283
a(I113
I4
F-0.75
S'short'
p2284
tp2285
a(I118
I1
I0
S'fourth'
p2286
tp2287
a(I118
I4
F-0.75
S'sick'
p2288
tp2289
a(I119
I3
F0.125
S'first'
p2290
tp2291
a(I125
I7
I0
S'many'
p2292
tp2293
a(I153
I3
F1.0
S'better'
p2294
tp2295
a(I157
I2
F-0.25
S'ready'
p2296
tp2297
a(I161
I1
F0.375
S'new'
p2298
tp2299
a(I167
I0
I0
S'third'
p2300
tp2301
a(I190
I0
I0
g1351
tp2302
a(I207
I0
F1.0
S'best'
p2303
tp2304
a(I210
I7
F0.625
S'superior'
p2305
tp2306
a(I220
I2
F0.375
S'new'
p2307
tp2308
a(I220
I6
F0.375
S'new'
p2309
tp2310
a(I229
I5
F0.75
S'worth'
p2311
tp2312
a(I241
I2
F0.125
S'first'
p2313
tp2314
a(I241
I6
F0.5
S'functional'
p2315
tp2316
a(I247
I0
I0
S'more'
p2317
tp2318
a(I257
I1
F0.875
g1353
tp2319
a(I272
I15
I0
S'many'
p2320
tp2321
a(I272
I22
I0
S'great'
p2322
tp2323
a(I273
I29
I0
S'same'
p2324
tp2325
a(I273
I29
F-0.625
S'free'
p2326
tp2327
a(I274
I7
F-0.875
S'negative'
p2328
tp2329
a(I279
I0
I0
S'old'
p2330
tp2331
a(I280
I1
F0.75
S'due'
p2332
tp2333
a(I289
I10
I0
S'special'
p2334
tp2335
a(I294
I1
I0
g1355
tp2336
a(I299
I1
F0.875
S'nice'
p2337
tp2338
a(I299
I2
F-0.75
S'impossible'
p2339
tp2340
a(I303
I0
I0
g1357
tp2341
a(I313
I0
I0
S'third'
p2342
tp2343
a(I315
I7
F0.25
S'original'
p2344
tp2345
as(S'battery'
p2346
tp2347
(lp2348
(I2
I3
F0.125
S'last'
p2349
tp2350
a(I2
I3
F-0.5
S'long'
p2351
tp2352
a(I4
I4
I0
S'same'
p2353
tp2354
a(I35
I5
F-0.5
S'weak'
p2355
tp2356
a(I37
I12
I0
S'full'
p2357
tp2358
a(I46
I6
I0
S'full'
p2359
tp2360
a(I46
I10
F0.125
g1099
tp2361
a(I46
I11
F0.25
S'bigger'
p2362
tp2363
a(I49
I0
F0.375
S'new'
p2364
tp2365
a(I74
I4
F1.0
S'good'
p2366
tp2367
a(I78
I19
F1.0
g1101
tp2368
a(I85
I4
I0
S'faster'
p2369
tp2370
a(I86
I1
F0.375
S'extended'
p2371
tp2372
a(I86
I1
I0
S'same'
p2373
tp2374
a(I90
I23
F-0.25
S'low'
p2375
tp2376
a(I90
I25
F-0.75
S'dead'
p2377
tp2378
a(I93
I4
F-0.75
S'invalid'
p2379
tp2380
a(I93
I6
I0
S'different'
p2381
tp2382
a(I100
I13
I0
S'full'
p2383
tp2384
a(I101
I1
F-0.25
S'low'
p2385
tp2386
a(I117
I5
F1.0
g1107
tp2387
a(I120
I4
F0.125
S'last'
p2388
tp2389
a(I125
I3
F-0.625
S'bad'
p2390
tp2391
a(I126
I4
F-0.75
S'short'
p2392
tp2393
a(I130
I3
F-0.75
S'wrong'
p2394
tp2395
a(I177
I3
F0.125
g1109
tp2396
a(I197
I1
F0.125
g1115
tp2397
a(I197
I5
F0.375
S'new'
p2398
tp2399
a(I202
I1
F-0.25
S'low'
p2400
tp2401
a(I210
I8
F-0.25
S'low'
p2402
tp2403
a(I225
I7
F-0.75
g1119
tp2404
a(I227
I3
F0.625
S'cover'
p2405
tp2406
a(I229
I2
F-0.5
g1121
tp2407
a(I238
I0
F1.0
S'good'
p2408
tp2409
a(I259
I1
F-0.5
g1129
tp2410
a(I279
I1
F1.0
g1133
tp2411
a(I282
I1
F1.0
g1135
tp2412
a(I289
I17
F1.0
g1137
tp2413
a(I303
I2
F0.75
S'due'
p2414
tp2415
a(I303
I2
F-0.625
S'improper'
p2416
tp2417
a(I303
I2
I0
S'initial'
p2418
tp2419
a(I321
I7
F-0.25
S'low'
p2420
tp2421
as(S'works'
p2422
tp2423
(lp2424
(I47
I6
I0
S'great'
p2425
tp2426
a(I78
I9
I0
S'great'
p2427
tp2428
a(I78
I17
I0
S'great'
p2429
tp2430
a(I88
I1
I0
S'great'
p2431
tp2432
a(I156
I1
I0
S'great'
p2433
tp2434
a(I194
I5
I0
g559
tp2435
a(I257
I7
I0
S'great'
p2436
tp2437
as(S'better'
p2438
tp2439
(lp2440
(I33
I3
F0.375
g201
tp2441
a(I58
I1
F0.375
g203
tp2442
a(I279
I1
F0.375
g205
tp2443
a(I317
I23
F0.375
g207
tp2444
as(S'instant'
p2445
S'messenger'
p2446
tp2447
(lp2448
(I90
I18
I0
S'instant'
p2449
tp2450
as(S'call'
p2451
tp2452
(lp2453
(I11
I6
I0
S'dial'
p2454
tp2455
a(I36
I4
F0.875
S'important'
p2456
tp2457
a(I40
I1
F0.5
S'clear'
p2458
tp2459
a(I76
I7
I0
S'latest'
p2460
tp2461
a(I76
I9
F0.125
S'last'
p2462
tp2463
a(I81
I5
F-0.25
S'dropping'
p2464
tp2465
a(I151
I1
F0.125
S'last'
p2466
tp2467
a(I161
I4
F1.0
S'good'
p2468
tp2469
a(I185
I0
F-0.375
S'simple'
p2470
tp2471
a(I201
I19
I0
S'website'
p2472
tp2473
a(I222
I1
F-0.75
S'single'
p2474
tp2475
a(I253
I3
F0.25
S'original'
p2476
tp2477
a(I293
I3
F0.625
S'successful'
p2478
tp2479
a(I299
I2
F-0.75
S'single'
p2480
tp2481
a(I307
I5
F-0.75
S'single'
p2482
tp2483
a(I307
I5
F-0.25
S'dropped'
p2484
tp2485
a(I317
I4
F0.75
S'receive'
p2486
tp2487
as(S'much'
p2488
S'better'
p2489
tp2490
(lp2491
(I33
I3
F0.375
g201
tp2492
a(I58
I1
F0.375
g203
tp2493
a(I279
I1
F0.375
g205
tp2494
a(I317
I23
F0.375
g207
tp2495
as(g196
S'family'
p2496
S'plan'
p2497
tp2498
(lp2499
(I39
I0
I0
S'basic'
p2500
tp2501
a(I39
I0
I0
g1403
tp2502
a(I170
I0
F0.625
S'interested'
p2503
tp2504
as(S'charger'
p2505
tp2506
(lp2507
(I100
I14
F-0.75
S'stupid'
p2508
tp2509
a(I103
I2
F-0.75
S'impossible'
p2510
tp2511
a(I205
I3
F-0.625
S'bad'
p2512
tp2513
a(I205
I7
I0
S'more'
p2514
tp2515
a(I221
I3
I0
S'same'
p2516
tp2517
a(I247
I3
F-0.75
S'incorrect'
p2518
tp2519
as(S'mobile'
p2520
S'service'
p2521
tp2522
(lp2523
(I27
I2
I0
g213
tp2524
a(I90
I19
F0.125
g215
tp2525
a(I90
I19
I0
g217
tp2526
a(I98
I3
F1.0
g219
tp2527
a(I99
I1
I0
g221
tp2528
a(I99
I1
F1.0
g223
tp2529
a(I99
I1
I0
g225
tp2530
a(I99
I1
F1.0
g227
tp2531
a(I116
I0
F-0.625
g229
tp2532
a(I141
I6
F0.5
g231
tp2533
a(I198
I1
I0
g233
tp2534
a(I220
I7
I0
g235
tp2535
a(I243
I0
I0
g237
tp2536
a(I303
I3
I0
g239
tp2537
a(I317
I13
F0.125
g241
tp2538
as(S'days'
p2539
tp2540
(lp2541
(I20
I2
I0
S'few'
p2542
tp2543
a(I78
I20
I0
S'least'
p2544
tp2545
a(I86
I1
I0
S'full'
p2546
tp2547
a(I103
I3
I0
S'few'
p2548
tp2549
a(I103
I3
F-0.75
S'impossible'
p2550
tp2551
a(I134
I3
F-0.5
S'heavier'
p2552
tp2553
a(I140
I6
F-0.625
S'other'
p2554
tp2555
a(I142
I0
I0
S'more'
p2556
tp2557
a(I177
I4
I0
S'few'
p2558
tp2559
a(I177
I6
I0
S'least'
p2560
tp2561
a(I208
I0
I0
S'few'
p2562
tp2563
a(I208
I5
F-0.25
S'past'
p2564
tp2565
a(I208
I5
I0
S'few'
p2566
tp2567
a(I208
I5
I0
S'online'
p2568
tp2569
a(I208
I5
I0
S'website'
p2570
tp2571
a(I249
I0
F-0.25
S'late'
p2572
tp2573
a(I317
I18
I0
S'few'
p2574
tp2575
as.