(dp0
(S'numbers'
p1
tp2
(lp3
(I1
I7
F-0.5
S'weak'
p4
tp5
a(I1
I7
F-0.5
S'international'
p6
tp7
a(I44
I5
F0.5
S'second'
p8
tp9
a(I46
I9
F-0.375
S'simple'
p10
tp11
a(I75
I9
F0.625
S'easy'
p12
tp13
a(I78
I5
I0
S'same'
p14
tp15
a(I84
I3
F-0.5
S'sure'
p16
tp17
a(I125
I9
I0
S'multiple'
p18
tp19
as(S'usb'
p20
S'cable'
p21
tp22
(lp23
(I132
I9
I0
S'optional'
p24
tp25
a(I132
I9
I0
S'cable'
p26
tp27
as(S'motorola'
p28
tp29
(lp30
(I13
I7
I0
S'old'
p31
tp32
a(I24
I37
I0
S'old'
p33
tp34
a(I32
I6
F-0.625
S'bad'
p35
tp36
a(I32
I15
F0.375
S'much'
p37
tp38
a(I52
I0
F0.125
S'last'
p39
tp40
a(I54
I6
F0.375
S'new'
p41
tp42
a(I91
I6
F0.25
S'sent'
p43
tp44
a(I95
I1
F0.125
S'first'
p45
tp46
a(I107
I8
I0
S'european'
p47
tp48
a(I142
I2
F0.5
S'technical'
p49
tp50
a(I149
I10
F0.125
S'last'
p51
tp52
as(S'nice'
p53
tp54
(lp55
(I37
I15
I0
S'only'
p56
tp57
as(S'consumer'
p58
S'reports'
p59
tp60
(lp61
(I36
I1
F0.5
S'second'
p62
tp63
as(S'tons'
p64
S'on'
p65
S'outside'
p66
tp67
(lp68
(I105
I7
F0.625
S'easy'
p69
tp70
as(S'month'
p71
tp72
(lp73
(I24
I27
F0.125
S'first'
p74
tp75
a(I24
I27
F0.5
S'second'
p76
tp77
a(I54
I1
F-0.25
S'past'
p78
tp79
a(I108
I0
F0.5
S'told'
p80
tp81
a(I108
I3
F0.125
S'last'
p82
tp83
as(S'quality'
p84
tp85
(lp86
(I5
I1
I0
S'first-rate'
p87
tp88
a(I11
I2
F-0.625
S'unendurable'
p89
tp90
a(I12
I0
F0.875
S'nice'
p91
tp92
a(I29
I0
F0.875
S'attractive'
p93
tp94
a(I37
I8
F-0.25
S'low'
p95
tp96
a(I42
I5
I0
S'great'
p97
tp98
a(I44
I1
F1.0
S'good'
p99
tp100
a(I64
I4
F1.0
S'best'
p101
tp102
a(I85
I0
F-0.125
S'overall'
p103
tp104
a(I120
I0
F-0.25
S'low'
p105
tp106
a(I130
I2
F1.0
S'good'
p107
tp108
a(I131
I7
F1.0
S'best'
p109
tp110
a(I152
I1
F1.0
S'best'
p111
tp112
as(S'playing'
p113
S'games'
p114
tp115
(lp116
(I32
I9
F0.375
S'loud'
p117
tp118
as(S'menu'
p119
tp120
(lp121
(I9
I28
F-0.75
S'wrong'
p122
tp123
a(I9
I28
F0.5
S'whole'
p124
tp125
a(I32
I9
F0.25
S'main'
p126
tp127
a(I64
I6
F-0.375
S'small'
p128
tp129
a(I100
I3
F0.625
S'easy'
p130
tp131
a(I118
I3
F0.5
S'clear'
p132
tp133
as(S't'
p134
S'mobile'
p135
S'service'
p136
tp137
(lp138
(I48
I0
F0.875
S'happy'
p139
tp140
a(I109
I1
I0
S'hungary'
p141
tp142
as(S'customer'
p143
tp144
(lp145
(I31
I10
I0
S'least'
p146
tp147
a(I36
I1
F1.0
S'good'
p148
tp149
a(I67
I3
F0.5
S'told'
p150
tp151
a(I143
I0
F-0.875
S'worst'
p152
tp153
as(S'ear'
p154
S'piece'
p155
tp156
(lp157
(I119
I31
F0.75
S'ear'
p158
tp159
a(I155
I6
F0.75
S'ear'
p160
tp161
as(S'side'
p162
tp163
(lp164
(I36
I10
F0.25
S'broader'
p165
tp166
a(I36
I10
F1.0
S'good'
p167
tp168
a(I124
I7
F-0.5
S'heavy'
p169
tp170
as(S'and'
p171
S'battery'
p172
S'life'
p173
tp174
(lp175
(I0
I2
F-0.5
S'longest'
p176
tp177
a(I21
I0
F-0.625
S'bad'
p178
tp179
a(I83
I3
F1.0
S'good'
p180
tp181
a(I92
I3
F1.0
S'best'
p182
tp183
a(I98
I3
F1.0
S'good'
p184
tp185
a(I107
I10
I0
S'phenomenal'
p186
tp187
a(I118
I3
F-0.5
S'long'
p188
tp189
a(I129
I8
F1.0
S'better'
p190
tp191
a(I131
I1
I0
S'great'
p192
tp193
a(I131
I5
F1.0
S'good'
p194
tp195
a(I138
I5
I0
S'more'
p196
tp197
a(I141
I0
F1.0
S'better'
p198
tp199
as(S'software'
p200
tp201
(lp202
(I3
I6
F-0.125
S'slow'
p203
tp204
a(I4
I2
F-0.125
S'slow'
p205
tp206
a(I37
I9
F0.375
S'friendly'
p207
tp208
a(I82
I7
F-0.125
S'slow'
p209
tp210
a(I92
I4
F-0.125
S'slow'
p211
tp212
a(I98
I5
F0.625
S'necessary'
p213
tp214
a(I107
I7
F-0.5
S'separate'
p215
tp216
a(I116
I5
F-0.125
S'slow'
p217
tp218
a(I122
I5
F1.0
S'good'
p219
tp220
a(I146
I1
F0.625
S'major'
p221
tp222
as(S'nokia'
p223
tp224
(lp225
(I9
I6
I0
S'old'
p226
tp227
a(I10
I7
F0.75
S'classic'
p228
tp229
a(I13
I6
I0
S'basic'
p230
tp231
a(I39
I9
F-0.75
S'difficult'
p232
tp233
a(I43
I3
I0
S'basic'
p234
tp235
a(I105
I0
I0
S'big'
p236
tp237
a(I105
I3
F0.375
S'much'
p238
tp239
a(I105
I3
F-0.375
S'simpler'
p240
tp241
a(I105
I4
F0.5
S'technical'
p242
tp243
a(I106
I1
F0.5
S'rid'
p244
tp245
a(I107
I23
I0
S'latest'
p246
tp247
a(I124
I3
F-0.375
S'simple'
p248
tp249
a(I124
I7
I0
S'big'
p250
tp251
a(I129
I0
F-0.125
S'overall'
p252
tp253
a(I131
I5
F1.0
S'good'
p254
tp255
a(I150
I1
I0
S'old'
p256
tp257
as(S'quad'
p258
S'band'
p259
tp260
(lp261
(I59
I0
I0
S'quad'
p262
tp263
a(I59
I2
I0
S'quad'
p264
tp265
a(I107
I3
F0.375
S'reliable'
p266
tp267
as(S'picture'
p268
tp269
(lp270
(I9
I25
F0.625
S'easy'
p271
tp272
a(I12
I15
F0.875
S'nice'
p273
tp274
as(S'easy'
p275
S'to'
p276
S'use'
p277
tp278
(lp279
(I143
I3
I0
S'e-mail'
p280
tp281
as(S'customer'
p282
S'service'
p283
tp284
(lp285
(I31
I10
I0
g146
tp286
a(I38
I6
F-0.875
S'worst'
p287
tp288
a(I67
I3
F0.5
g150
tp289
a(I143
I0
F-0.875
g152
tp290
as(S'sometimes'
p291
tp292
(lp293
(I95
I1
F-0.5
S'vibrate'
p294
tp295
as(S'sound'
p296
S'quality'
p297
tp298
(lp299
(I10
I7
F1.0
S'good'
p300
tp301
a(I12
I0
F0.875
g91
tp302
a(I42
I5
I0
g97
tp303
a(I130
I2
F1.0
g107
tp304
as(S'times'
p305
tp306
(lp307
(I25
I2
F-0.125
S'mine'
p308
tp309
a(I31
I22
I0
S'few'
p310
tp311
a(I46
I2
F-0.75
S'inappropriate'
p312
tp313
a(I47
I5
I0
S'many'
p314
tp315
a(I57
I0
I0
S'many'
p316
tp317
a(I57
I3
I0
S'many'
p318
tp319
a(I66
I0
I0
S'few'
p320
tp321
a(I76
I3
I0
S'many'
p322
tp323
a(I95
I1
F-0.625
S'other'
p324
tp325
a(I107
I11
F0.125
S'first'
p326
tp327
a(I109
I12
I0
S'few'
p328
tp329
a(I119
I17
I0
S'many'
p330
tp331
a(I119
I33
I0
S'more'
p332
tp333
a(I138
I5
I0
S'few'
p334
tp335
a(I153
I0
F-0.125
S'mine'
p336
tp337
as(S'problem'
p338
tp339
(lp340
(I7
I2
F-0.75
S'single'
p341
tp342
a(I13
I7
I0
S'same'
p343
tp344
a(I23
I7
F0.5
S'second'
p345
tp346
a(I23
I7
F0.25
S'biggest'
p347
tp348
a(I25
I7
I0
S'big'
p349
tp350
a(I26
I2
F0.5
S'second'
p351
tp352
a(I26
I2
F0.25
S'biggest'
p353
tp354
a(I31
I23
F0.625
S'major'
p355
tp356
a(I36
I5
F0.125
S'first'
p357
tp358
a(I40
I3
I0
S'only'
p359
tp360
a(I40
I3
F0.625
S'major'
p361
tp362
a(I40
I5
I0
S'big'
p363
tp364
a(I54
I5
I0
S'same'
p365
tp366
a(I57
I2
I0
S'only'
p367
tp368
a(I67
I5
I0
S'same'
p369
tp370
a(I87
I7
I0
S'same'
p371
tp372
a(I101
I3
I0
S'same'
p373
tp374
a(I101
I6
F-0.5
S'sure'
p375
tp376
a(I110
I3
F0.25
S'biggest'
p377
tp378
a(I113
I2
I0
S'same'
p379
tp380
a(I113
I5
I0
S'many'
p381
tp382
a(I128
I1
F0.25
S'main'
p383
tp384
as(S'name'
p385
tp386
(lp387
(I56
I6
I0
S'same'
p388
tp389
a(I56
I6
I0
S'such'
p390
tp391
a(I107
I7
F0.125
S'first'
p392
tp393
a(I125
I9
F-0.75
S'single'
p394
tp395
a(I129
I11
F0.125
S'first'
p396
tp397
a(I129
I11
F0.125
S'last'
p398
tp399
a(I129
I12
F0.125
S'last'
p400
tp401
a(I129
I12
F0.125
S'last'
p402
tp403
a(I129
I12
F0.125
S'first'
p404
tp405
as(S'service'
p406
tp407
(lp408
(I24
I39
F1.0
S'good'
p409
tp410
a(I38
I6
F-0.875
g287
tp411
a(I48
I0
F0.875
g139
tp412
a(I52
I4
I0
S'great'
p413
tp414
a(I64
I8
F-0.625
S'other'
p415
tp416
a(I83
I1
F-0.75
S'worse'
p417
tp418
a(I83
I1
F1.0
S'better'
p419
tp420
a(I83
I1
F-0.625
S'bad'
p421
tp422
a(I109
I1
I0
g141
tp423
a(I142
I9
F-0.5
S'poor'
p424
tp425
a(I149
I3
I0
S'great'
p426
tp427
a(I150
I1
F0.5
S'satisfactory'
p428
tp429
as(S'number'
p430
tp431
(lp432
(I12
I13
F0.125
S'able'
p433
tp434
a(I99
I4
I0
S'dial'
p435
tp436
a(I99
I4
F0.5
S'second'
p437
tp438
a(I112
I8
F-0.5
S'long'
p439
tp440
a(I119
I25
I0
S'own'
p441
tp442
a(I148
I3
I0
S'large'
p443
tp444
as(S'rural'
p445
S'areas'
p446
tp447
(lp448
(I36
I6
I0
S'rural'
p449
tp450
a(I85
I2
I0
S'rural'
p451
tp452
a(I132
I11
I0
S'rural'
p453
tp454
as(S'things'
p455
tp456
(lp457
(I9
I31
F-0.625
S'bad'
p458
tp459
a(I31
I1
I0
S'later'
p460
tp461
a(I31
I23
F-0.625
S'other'
p462
tp463
a(I39
I14
F1.0
S'good'
p464
tp465
a(I44
I3
F0.625
S'easy'
p466
tp467
a(I82
I2
F-0.875
S'negative'
p468
tp469
a(I141
I1
I0
S'few'
p470
tp471
a(I152
I2
I0
S'few'
p472
tp473
as(S'and'
p474
S'receive'
p475
S'calls'
p476
tp477
(lp478
(I18
I7
F0.75
S'receive'
p479
tp480
a(I34
I10
F-0.625
S'bad'
p481
tp482
a(I34
I10
F1.0
S'best'
p483
tp484
a(I107
I15
F0.75
S'receive'
p485
tp486
as(S'features'
p487
tp488
(lp489
(I4
I3
I0
S'useful'
p490
tp491
a(I23
I4
F1.0
S'good'
p492
tp493
a(I28
I0
I0
S'user'
p494
tp495
a(I28
I0
F0.375
S'friendly'
p496
tp497
a(I34
I9
F0.875
S'nice'
p498
tp499
a(I34
I9
F-0.375
S'small'
p500
tp501
a(I35
I0
I0
S'many'
p502
tp503
a(I42
I3
F-0.125
S'overall'
p504
tp505
a(I48
I1
I0
S'user'
p506
tp507
a(I48
I1
F0.5
S'functional'
p508
tp509
a(I52
I1
F-0.75
S'difficult'
p510
tp511
a(I53
I1
I0
S'great'
p512
tp513
a(I64
I1
F1.0
S'best'
p514
tp515
a(I74
I6
I0
S'cool'
p516
tp517
a(I82
I5
I0
S'many'
p518
tp519
a(I87
I10
F1.0
S'good'
p520
tp521
a(I102
I3
I0
S'many'
p522
tp523
a(I102
I3
I0
S'great'
p524
tp525
a(I105
I0
I0
S'same'
p526
tp527
a(I107
I22
I0
S'such'
p528
tp529
a(I111
I10
I0
S'most'
p530
tp531
a(I119
I6
F1.0
S'best'
p532
tp533
a(I126
I0
F0.875
S'nice'
p534
tp535
a(I126
I0
I0
S'standard'
p536
tp537
a(I126
I2
F0.375
S'new'
p538
tp539
a(I131
I0
I0
S'great'
p540
tp541
as(S'operating'
p542
S'system'
p543
tp544
(lp545
(I84
I2
I0
S'pragmatic'
p546
tp547
as(S'voice'
p548
tp549
(lp550
(I1
I8
F-0.25
S'low'
p551
tp552
a(I14
I4
F0.5
S'accurate'
p553
tp554
a(I83
I2
I0
S'normal'
p555
tp556
a(I132
I11
F1.0
S'good'
p557
tp558
as(S'slow'
p559
tp560
(lp561
(I152
I11
F-0.375
S'smooth'
p562
tp563
as(S'area'
p564
tp565
(lp566
(I36
I7
I0
S'rural'
p567
tp568
a(I40
I6
I0
S'rural'
p569
tp570
a(I64
I9
I0
S'full'
p571
tp572
a(I100
I3
F0.75
S'proper'
p573
tp574
a(I105
I8
F-0.625
S'bad'
p575
tp576
a(I147
I0
F1.0
S'good'
p577
tp578
as(S'work'
p579
tp580
(lp581
(I69
I0
F1.0
S'good'
p582
tp583
as(S'dropped'
p584
S'calls'
p585
tp586
(lp587
(I35
I2
I0
S'frequent'
p588
tp589
a(I41
I2
F0.375
S'much'
p590
tp591
a(I70
I9
F-0.25
S'dropped'
p592
tp593
a(I70
I9
F-0.25
S'dropped'
p594
tp595
a(I113
I2
F-0.25
S'dropped'
p596
tp597
a(I124
I2
F-0.25
S'dropped'
p598
tp599
a(I148
I3
F-0.25
S'dropped'
p600
tp601
as(S'text'
p602
S'messaging'
p603
tp604
(lp605
(I129
I3
I0
S'text'
p606
tp607
as(S'battery'
p608
S'life'
p609
tp610
(lp611
(I0
I2
F-0.5
g176
tp612
a(I12
I2
F0.5
S'so-so'
p613
tp614
a(I21
I0
F-0.625
g178
tp615
a(I23
I4
F0.5
S'true'
p616
tp617
a(I83
I3
F1.0
g180
tp618
a(I92
I3
F1.0
g182
tp619
a(I98
I3
F1.0
g184
tp620
a(I107
I10
I0
g186
tp621
a(I118
I3
F-0.5
g188
tp622
a(I129
I8
F1.0
g190
tp623
a(I131
I1
I0
g192
tp624
a(I131
I5
F1.0
g194
tp625
a(I138
I5
I0
g196
tp626
a(I141
I0
F1.0
g198
tp627
a(I143
I4
I0
S'great'
p628
tp629
as(S'missed'
p630
S'calls'
p631
tp632
(lp633
(I46
I2
F-0.5
S'missed'
p634
tp635
a(I46
I2
F-0.5
S'vibrate'
p636
tp637
as(S'problems'
p638
tp639
(lp640
(I8
I1
I0
S'few'
p641
tp642
a(I17
I0
F0.625
S'major'
p643
tp644
a(I23
I11
F0.375
S'similar'
p645
tp646
a(I31
I14
F0.625
S'major'
p647
tp648
a(I38
I1
F-0.375
S'serious'
p649
tp650
a(I89
I1
I0
S'same'
p651
tp652
a(I93
I5
I0
S'exact'
p653
tp654
a(I104
I2
F0.625
S'major'
p655
tp656
a(I104
I2
F-0.625
S'other'
p657
tp658
a(I104
I2
I0
S'many'
p659
tp660
a(I122
I4
F-0.625
S'other'
p661
tp662
a(I137
I0
I0
S'many'
p663
tp664
a(I142
I16
I0
S'few'
p665
tp666
as(S'any'
p667
S'dropped'
p668
S'calls'
p669
tp670
(lp671
(I113
I2
F-0.25
g596
tp672
a(I124
I2
F-0.25
g598
tp673
as(S'book'
p674
tp675
(lp676
(I31
I19
I0
S'great'
p677
tp678
a(I44
I3
F1.0
S'good'
p679
tp680
as(S'reception'
p681
tp682
(lp683
(I3
I5
F0.75
S'due'
p684
tp685
a(I3
I9
I0
S'full'
p686
tp687
a(I6
I4
F0.125
S'solid'
p688
tp689
a(I6
I4
F1.0
S'good'
p690
tp691
a(I10
I10
I0
S'great'
p692
tp693
a(I11
I1
I0
S'great'
p694
tp695
a(I14
I4
I0
S'great'
p696
tp697
a(I17
I1
F0.375
S'much'
p698
tp699
a(I19
I2
I0
S'great'
p700
tp701
a(I32
I10
F1.0
S'good'
p702
tp703
a(I36
I8
F1.0
S'better'
p704
tp705
a(I40
I1
F1.0
S'good'
p706
tp707
a(I48
I3
F1.0
S'good'
p708
tp709
a(I52
I4
F-0.5
S'poor'
p710
tp711
a(I55
I4
I0
S'great'
p712
tp713
a(I57
I2
F-0.5
S'poor'
p714
tp715
a(I57
I2
I0
S'signal'
p716
tp717
a(I72
I0
F-0.625
S'bad'
p718
tp719
a(I81
I2
I0
S'great'
p720
tp721
a(I81
I2
F1.0
S'good'
p722
tp723
a(I87
I9
F-0.625
S'other'
p724
tp725
a(I87
I9
F1.0
S'good'
p726
tp727
a(I111
I9
F0.25
S'suppose'
p728
tp729
a(I111
I9
I0
S'great'
p730
tp731
a(I118
I3
I0
S'unbelievable'
p732
tp733
a(I129
I4
F1.0
S'better'
p734
tp735
a(I130
I1
F1.0
S'good'
p736
tp737
a(I144
I1
F-0.625
S'bad'
p738
tp739
a(I148
I3
F-0.5
S'poor'
p740
tp741
a(I148
I4
F-0.625
S'bad'
p742
tp743
a(I154
I0
F1.0
S'good'
p744
tp745
a(I155
I9
I0
S'great'
p746
tp747
as(S'blue'
p748
S'tooth'
p749
tp750
(lp751
(I25
I6
I0
S'blue'
p752
tp753
a(I35
I0
I0
S'blue'
p754
tp755
a(I155
I4
I0
S'blue'
p756
tp757
as(S'life'
p758
tp759
(lp760
(I12
I2
F0.5
g613
tp761
a(I23
I4
F0.5
g616
tp762
a(I83
I3
F1.0
g180
tp763
a(I92
I3
F1.0
g182
tp764
a(I98
I3
F1.0
g184
tp765
a(I107
I10
I0
g186
tp766
a(I112
I2
F0.625
S'easy'
p767
tp768
a(I125
I1
F0.625
S'easier'
p769
tp770
a(I131
I5
F1.0
g194
tp771
a(I138
I5
I0
g196
tp772
a(I141
I0
F1.0
g198
tp773
as(S'speakerphone'
p774
tp775
(lp776
(I29
I0
F1.0
S'good'
p777
tp778
a(I82
I10
F1.0
S'good'
p779
tp780
a(I132
I2
I0
S'add-on'
p781
tp782
as(S'display'
p783
tp784
(lp785
(I83
I4
F0.125
S'digital'
p786
tp787
a(I101
I1
F-0.25
S'hung'
p788
tp789
a(I125
I14
I0
S'external'
p790
tp791
a(I125
I14
I0
S'blue'
p792
tp793
a(I138
I4
F0.375
S'exterior'
p794
tp795
as(S'battery'
p796
tp797
(lp798
(I0
I2
F-0.5
g176
tp799
a(I9
I15
I0
S'cool'
p800
tp801
a(I9
I15
F-0.375
S'cooked'
p802
tp803
a(I16
I4
F-0.75
S'dead'
p804
tp805
a(I16
I5
I0
S'current'
p806
tp807
a(I16
I5
F-0.25
S'plugged'
p808
tp809
a(I21
I0
F-0.625
g178
tp810
a(I23
I9
I0
S'next'
p811
tp812
a(I91
I3
F-0.25
S'low'
p813
tp814
a(I98
I7
F0.5
S'second'
p815
tp816
a(I98
I10
F-0.75
S'dead'
p817
tp818
a(I117
I1
F-0.625
S'lighter'
p819
tp820
a(I118
I3
F-0.5
g188
tp821
a(I129
I8
F1.0
g190
tp822
a(I131
I1
I0
g192
tp823
a(I141
I9
F-0.25
S'low'
p824
tp825
a(I141
I9
F-0.5
S'weak'
p826
tp827
a(I142
I11
F0.375
S'extra'
p828
tp829
a(I143
I4
I0
g628
tp830
as(S'sent'
p831
tp832
(lp833
(I127
I2
F0.375
S'new'
p834
tp835
as(S'cell'
p836
tp837
(lp838
(I32
I11
F0.375
S'busy'
p839
tp840
a(I75
I4
F-0.625
S'other'
p841
tp842
a(I81
I0
F1.0
S'best'
p843
tp844
a(I82
I0
F0.125
S'first'
p845
tp846
a(I82
I11
F0.125
S'first'
p847
tp848
a(I84
I0
F1.0
S'good'
p849
tp850
a(I84
I1
I0
S'different'
p851
tp852
a(I125
I1
F0.375
S'much'
p853
tp854
a(I125
I1
F0.125
S'typical'
p855
tp856
a(I125
I9
F0.375
S'new'
p857
tp858
as(S'calls'
p859
tp860
(lp861
(I11
I9
I0
S'individual'
p862
tp863
a(I12
I11
I0
S'crystal'
p864
tp865
a(I18
I7
F0.75
g479
tp866
a(I34
I10
F-0.625
g481
tp867
a(I34
I10
F1.0
g483
tp868
a(I35
I2
I0
g588
tp869
a(I41
I2
F0.375
g590
tp870
a(I46
I2
F-0.5
g634
tp871
a(I46
I2
F-0.5
g636
tp872
a(I70
I9
F-0.25
g592
tp873
a(I70
I9
F-0.25
g594
tp874
a(I90
I2
F-0.5
S'answer'
p875
tp876
a(I90
I2
F-0.5
S'heavy'
p877
tp878
a(I107
I15
F0.75
g485
tp879
a(I113
I2
F-0.25
g596
tp880
a(I124
I2
F-0.25
g598
tp881
a(I148
I3
F-0.25
g600
tp882
as(S'motorola'
p883
S'v600'
p884
tp885
(lp886
(I24
I37
I0
g33
tp887
a(I32
I0
F0.125
S'first'
p888
tp889
a(I32
I15
F0.375
g37
tp890
a(I39
I0
F0.625
S'superior'
p891
tp892
a(I55
I0
F0.375
S'new'
p893
tp894
a(I85
I0
F0.125
S'solid'
p895
tp896
a(I119
I35
F-0.625
S'bad'
p897
tp898
a(I154
I3
I0
S'primitive'
p899
tp900
a(I154
I3
F-0.75
S'difficult'
p901
tp902
as(S'a'
p903
S'separate'
p904
S'entry'
p905
tp906
(lp907
(I119
I23
F-0.5
S'separate'
p908
tp909
a(I129
I8
F-0.5
S'separate'
p910
tp911
a(I130
I5
F-0.5
S'separate'
p912
tp913
a(I154
I8
F-0.5
S'separate'
p914
tp915
as(S'time'
p916
tp917
(lp918
(I3
I7
F-0.5
S'vibrate'
p919
tp920
a(I3
I7
I0
S'same'
p921
tp922
a(I3
I7
F1.0
S'best'
p923
tp924
a(I7
I2
F-0.5
S'long'
p925
tp926
a(I9
I31
F-0.5
S'long'
p927
tp928
a(I9
I32
I0
S'more'
p929
tp930
a(I14
I3
F-0.875
S'hard'
p931
tp932
a(I21
I2
F0.375
S'new'
p933
tp934
a(I24
I39
I0
S'signal'
p935
tp936
a(I32
I5
I0
S'more'
p937
tp938
a(I32
I12
I0
S'most'
p939
tp940
a(I44
I4
F1.0
S'good'
p941
tp942
a(I51
I2
F-0.5
S'long'
p943
tp944
a(I60
I3
F-0.75
S'single'
p945
tp946
a(I66
I1
F-0.875
S'hard'
p947
tp948
a(I73
I0
F0.125
S'first'
p949
tp950
a(I73
I0
F0.5
S'second'
p951
tp952
a(I74
I1
F-0.625
S'other'
p953
tp954
a(I87
I11
F0.625
S'noticeable'
p955
tp956
a(I91
I18
F-0.625
S'want'
p957
tp958
a(I97
I1
F0.375
S'new'
p959
tp960
a(I127
I6
I0
S'more'
p961
tp962
a(I138
I4
F-0.75
S'little'
p963
tp964
a(I150
I2
I0
S'fourth'
p965
tp966
a(I152
I3
I0
S'efficient'
p967
tp968
a(I152
I5
F1.0
S'good'
p969
tp970
as(g903
S'quad'
p971
S'band'
p972
tp973
(lp974
(I59
I0
I0
g262
tp975
a(I59
I2
I0
g264
tp976
a(I107
I3
F0.375
g266
tp977
as(S'r'
p978
S'address'
p979
S'book'
p980
tp981
(lp982
(I31
I19
I0
g677
tp983
as(S'bluetooth'
p984
S'headset'
p985
tp986
(lp987
(I56
I3
F0.625
S'easy'
p988
tp989
as(S'flip'
p990
tp991
(lp992
(I27
I6
I0
S'great'
p993
tp994
a(I67
I2
I0
S'only'
p995
tp996
as(S'major'
p997
S'cities'
p998
tp999
(lp1000
(I36
I8
F0.625
S'major'
p1001
tp1002
a(I118
I7
F0.625
S'major'
p1003
tp1004
a(I132
I4
F0.625
S'major'
p1005
tp1006
as(S'every'
p1007
S'time'
p1008
tp1009
(lp1010
(I21
I2
F0.375
g933
tp1011
a(I32
I5
I0
g937
tp1012
a(I44
I4
F1.0
g941
tp1013
a(I60
I3
F-0.75
g945
tp1014
a(I74
I1
F-0.625
g953
tp1015
a(I87
I11
F0.625
g955
tp1016
a(I152
I3
I0
g967
tp1017
as(S'coverage'
p1018
tp1019
(lp1020
(I10
I4
F-0.5
S'weak'
p1021
tp1022
a(I36
I2
I0
S'same'
p1023
tp1024
a(I99
I2
I0
S'great'
p1025
tp1026
a(I100
I5
F-0.5
S'poor'
p1027
tp1028
a(I143
I0
I0
S'national'
p1029
tp1030
a(I143
I0
F-0.5
S'international'
p1031
tp1032
as(S'loud'
p1033
tp1034
(lp1035
(I44
I6
I0
S'soft'
p1036
tp1037
a(I58
I2
I0
S'signal'
p1038
tp1039
as(S'ring'
p1040
S'tones'
p1041
tp1042
(lp1043
(I0
I2
F0.875
S'nice'
p1044
tp1045
a(I0
I2
F0.375
S'polyphonic'
p1046
tp1047
a(I0
I2
I0
S'most'
p1048
tp1049
a(I44
I3
I0
S'standard'
p1050
tp1051
a(I119
I4
I0
S'own'
p1052
tp1053
as(S'screen'
p1054
tp1055
(lp1056
(I32
I9
F-0.75
S'bright'
p1057
tp1058
a(I38
I5
I0
S'internal'
p1059
tp1060
a(I74
I2
F-0.25
S'white'
p1061
tp1062
a(I83
I2
F-0.25
S'white'
p1063
tp1064
a(I93
I2
I0
S'internal'
p1065
tp1066
a(I107
I10
F-0.75
S'bright'
p1067
tp1068
a(I109
I11
F0.5
S'clear'
p1069
tp1070
a(I135
I1
I0
S'internal'
p1071
tp1072
a(I135
I2
F0.625
S'color'
p1073
tp1074
a(I138
I2
F0.25
S'sharp'
p1075
tp1076
a(I138
I2
F0.25
S'contrast'
p1077
tp1078
a(I138
I2
I0
S'darkest'
p1079
tp1080
a(I145
I1
F-0.25
S'white'
p1081
tp1082
a(I154
I7
F-0.75
S'single'
p1083
tp1084
as(S'sound'
p1085
tp1086
(lp1087
(I10
I7
F1.0
g300
tp1088
a(I63
I0
F1.0
S'good'
p1089
tp1090
a(I64
I3
I0
S'great'
p1091
tp1092
a(I105
I12
I0
S'different'
p1093
tp1094
a(I131
I1
F0.5
S'strong'
p1095
tp1096
a(I144
I2
I0
S'ringer'
p1097
tp1098
a(I144
I2
F0.5
S'true'
p1099
tp1100
as(S'everything'
p1101
tp1102
(lp1103
(I30
I0
I0
S'incredible'
p1104
tp1105
a(I87
I1
I0
S'cool'
p1106
tp1107
as(S'fewer'
p1108
S'steps'
p1109
tp1110
(lp1111
(I129
I3
I0
S'fewer'
p1112
tp1113
a(I129
I14
I0
S'fewer'
p1114
tp1115
a(I129
I14
I0
S'fewer'
p1116
tp1117
as(S'camera'
p1118
tp1119
(lp1120
(I6
I7
F0.125
S'capable'
p1121
tp1122
a(I10
I7
F0.125
S'digital'
p1123
tp1124
a(I24
I13
F0.25
S'sweet'
p1125
tp1126
a(I31
I11
F-0.5
S'actual'
p1127
tp1128
a(I31
I11
F-0.75
S'single'
p1129
tp1130
a(I44
I1
F0.125
S'first'
p1131
tp1132
a(I44
I1
F0.625
S'easy'
p1133
tp1134
a(I92
I2
I0
S'great'
p1135
tp1136
a(I100
I4
F0.625
S'decent'
p1137
tp1138
a(I105
I6
I0
S'great'
p1139
tp1140
a(I107
I1
F1.0
S'best'
p1141
tp1142
a(I116
I8
I0
S'cool'
p1143
tp1144
a(I130
I2
F0.5
S'clear'
p1145
tp1146
a(I132
I2
F0.875
S'nice'
p1147
tp1148
a(I132
I2
F0.125
S'digital'
p1149
tp1150
a(I141
I6
I0
S'close'
p1151
tp1152
a(I143
I3
F0.625
S'easy'
p1153
tp1154
a(I152
I10
F1.0
S'good'
p1155
tp1156
a(I152
I10
F0.375
S'much'
p1157
tp1158
a(I156
I0
F1.0
S'good'
p1159
tp1160
as(S'using'
p1161
tp1162
(lp1163
(I71
I1
I0
S'dial'
p1164
tp1165
as(S'bluetooth'
p1166
tp1167
(lp1168
(I12
I11
I0
S'limited'
p1169
tp1170
a(I31
I19
I0
S'great'
p1171
tp1172
a(I56
I2
F1.0
S'good'
p1173
tp1174
a(I56
I2
I0
S'great'
p1175
tp1176
as(S'ring'
p1177
tp1178
(lp1179
(I0
I2
F0.875
g1044
tp1180
a(I0
I2
F0.375
g1046
tp1181
a(I44
I3
I0
g1050
tp1182
as(S'mobile'
p1183
tp1184
(lp1185
(I87
I0
F-0.25
S'desperate'
p1186
tp1187
a(I107
I9
I0
S'retail'
p1188
tp1189
as(S'pictures'
p1190
tp1191
(lp1192
(I1
I7
I0
S'many'
p1193
tp1194
a(I10
I7
F0.625
S'decent'
p1195
tp1196
a(I31
I11
F-0.5
S'actual'
p1197
tp1198
a(I31
I11
F-0.5
S'actual'
p1199
tp1200
a(I31
I11
F-0.5
S'actual'
p1201
tp1202
a(I32
I14
F0.625
S'kind'
p1203
tp1204
a(I40
I1
F1.0
S'good'
p1205
tp1206
a(I44
I1
F0.5
S'clear'
p1207
tp1208
a(I81
I0
F0.5
S'clear'
p1209
tp1210
a(I98
I3
F0.625
S'decent'
p1211
tp1212
as(S'signal'
p1213
tp1214
(lp1215
(I34
I6
I0
S'blue'
p1216
tp1217
a(I94
I1
F1.0
S'good'
p1218
tp1219
a(I100
I3
I0
S'great'
p1220
tp1221
a(I107
I13
F-0.25
S'low'
p1222
tp1223
a(I132
I6
I0
S'full'
p1224
tp1225
as(S'band'
p1226
tp1227
(lp1228
(I6
I6
I0
S'fourth'
p1229
tp1230
a(I59
I0
I0
g262
tp1231
a(I59
I2
I0
g264
tp1232
a(I107
I3
F0.375
g266
tp1233
as(S'people'
p1234
tp1235
(lp1236
(I0
I14
F-0.625
S'other'
p1237
tp1238
a(I9
I19
I0
S'great'
p1239
tp1240
a(I13
I3
I0
S'hear'
p1241
tp1242
a(I37
I14
I0
S'sixth'
p1243
tp1244
a(I64
I2
F0.125
S'first'
p1245
tp1246
a(I76
I4
F0.5
S'slick'
p1247
tp1248
a(I76
I4
I0
S'many'
p1249
tp1250
a(I108
I5
I0
S'different'
p1251
tp1252
a(I111
I6
I0
S'most'
p1253
tp1254
a(I112
I3
I0
S'different'
p1255
tp1256
a(I130
I5
F-0.75
S'complain'
p1257
tp1258
as(S'tons'
p1259
tp1260
(lp1261
(I144
I1
F-0.75
S'difficult'
p1262
tp1263
as(S'feature'
p1264
tp1265
(lp1266
(I24
I18
F0.375
S'new'
p1267
tp1268
a(I39
I0
I0
S'great'
p1269
tp1270
a(I43
I3
F-0.375
S'top'
p1271
tp1272
a(I43
I7
I0
S'basic'
p1273
tp1274
a(I43
I11
I0
S'basic'
p1275
tp1276
a(I43
I12
F0.125
S'essential'
p1277
tp1278
a(I46
I1
I0
S'only'
p1279
tp1280
a(I84
I4
F0.875
S'nice'
p1281
tp1282
a(I116
I15
F0.875
S'nice'
p1283
tp1284
a(I134
I5
F1.0
S'best'
p1285
tp1286
as(S'entry'
p1287
tp1288
(lp1289
(I1
I6
I0
S'john'
p1290
tp1291
a(I28
I3
F0.625
S'easier'
p1292
tp1293
a(I107
I18
I0
S'same'
p1294
tp1295
a(I107
I18
F-0.375
S'simple'
p1296
tp1297
a(I119
I23
F-0.5
g908
tp1298
a(I129
I8
F-0.5
g910
tp1299
a(I129
I12
F0.125
S'first'
p1300
tp1301
a(I130
I5
F-0.5
g912
tp1302
a(I135
I2
I0
S'different'
p1303
tp1304
a(I154
I8
F-0.5
g914
tp1305
as(S'works'
p1306
tp1307
(lp1308
(I2
I2
I0
S'great'
p1309
tp1310
a(I107
I20
F1.0
S'better'
p1311
tp1312
a(I131
I0
I0
S'great'
p1313
tp1314
a(I135
I1
I0
S'great'
p1315
tp1316
as(S'headset'
p1317
tp1318
(lp1319
(I56
I3
F0.625
g988
tp1320
a(I65
I6
F-0.5
S'weak'
p1321
tp1322
as(S'think'
p1323
tp1324
(lp1325
(I33
I9
F1.0
S'better'
p1326
tp1327
a(I33
I9
I0
S'signal'
p1328
tp1329
as(S'better'
p1330
tp1331
(lp1332
(I12
I20
F0.375
S'much'
p1333
tp1334
a(I33
I1
F0.375
S'much'
p1335
tp1336
a(I105
I8
F0.375
S'much'
p1337
tp1338
a(I118
I2
F0.375
S'much'
p1339
tp1340
as(S'person'
p1341
tp1342
(lp1343
(I0
I5
I0
S'more'
p1344
tp1345
a(I1
I2
I0
S'same'
p1346
tp1347
a(I63
I2
I0
S'mobile'
p1348
tp1349
a(I119
I14
I0
S'same'
p1350
tp1351
a(I119
I23
F-0.75
S'single'
p1352
tp1353
a(I119
I24
I0
S'same'
p1354
tp1355
a(I121
I2
F-0.625
S'other'
p1356
tp1357
a(I133
I1
F-0.625
S'other'
p1358
tp1359
as(S'of'
p1360
S'dropped'
p1361
S'calls'
p1362
tp1363
(lp1364
(I70
I9
F-0.25
g592
tp1365
a(I70
I9
F-0.25
g594
tp1366
a(I113
I2
F-0.25
g596
tp1367
a(I148
I3
F-0.25
g600
tp1368
as(S'call'
p1369
tp1370
(lp1371
(I9
I4
I0
S'next'
p1372
tp1373
a(I11
I7
F0.125
S'last'
p1374
tp1375
a(I24
I39
F1.0
S'good'
p1376
tp1377
a(I43
I6
F0.125
S'last'
p1378
tp1379
a(I122
I3
F-0.5
S'answer'
p1380
tp1381
a(I124
I7
F0.125
S'last'
p1382
tp1383
as(S'much'
p1384
S'better'
p1385
tp1386
(lp1387
(I12
I20
F0.375
g1333
tp1388
a(I33
I1
F0.375
g1335
tp1389
a(I105
I8
F0.375
g1337
tp1390
a(I118
I2
F0.375
g1339
tp1391
as(S'v600'
p1392
tp1393
(lp1394
(I9
I16
F1.0
S'good'
p1395
tp1396
a(I9
I16
F-0.5
S'sure'
p1397
tp1398
a(I10
I4
I0
S'full'
p1399
tp1400
a(I21
I1
I0
S'fourth'
p1401
tp1402
a(I32
I0
F0.125
g888
tp1403
a(I32
I3
F0.125
S'first'
p1404
tp1405
a(I32
I5
F0.625
S'easy'
p1406
tp1407
a(I39
I0
F0.625
g891
tp1408
a(I39
I3
F0.625
S'superior'
p1409
tp1410
a(I39
I11
F-0.375
S'small'
p1411
tp1412
a(I39
I11
I0
S'great'
p1413
tp1414
a(I54
I5
F-0.625
S'other'
p1415
tp1416
a(I55
I0
F0.375
g893
tp1417
a(I79
I8
F0.625
S'eager'
p1418
tp1419
a(I79
I8
F0.375
S'new'
p1420
tp1421
a(I85
I0
F0.125
g895
tp1422
a(I109
I15
F-0.375
S'wear'
p1423
tp1424
a(I116
I12
F1.0
S'good'
p1425
tp1426
a(I119
I30
I0
S'same'
p1427
tp1428
a(I119
I30
F0.25
S'tired'
p1429
tp1430
a(I119
I30
I0
S'commercial'
p1431
tp1432
a(I119
I35
F-0.625
g897
tp1433
a(I120
I0
F-0.625
S'other'
p1434
tp1435
a(I127
I3
F0.375
S'new'
p1436
tp1437
a(I127
I4
F-0.75
S'hate'
p1438
tp1439
a(I129
I5
F0.375
S'much'
p1440
tp1441
a(I129
I13
F0.5
S'possible'
p1442
tp1443
a(I149
I0
F0.125
S'last'
p1444
tp1445
a(I154
I3
I0
g899
tp1446
a(I154
I3
F-0.75
g901
tp1447
as.