(dp0
(S'memory'
p1
S'card'
p2
tp3
(lp4
(I1
I270
I0
S'least'
p5
I0
tp6
a(I1
I270
F-0.375
S'small'
p7
I0
tp8
a(I7
I4
I0
S'more'
p9
I0
tp10
a(I1
I270
I0
g5
I5
tp11
a(I1
I270
F-0.375
g7
I5
tp12
a(I7
I4
I0
g9
I5
tp13
a(I10
I55
I0
S'most'
p14
I5
tp15
as(S'battery'
p16
S'life'
p17
tp18
(lp19
(I1
I165
F-0.75
S'short'
p20
I1
tp21
a(I3
I160
I0
S'normal'
p22
I1
tp23
a(I5
I5
F1.0
S'best'
p24
I1
tp25
a(I8
I20
F1.0
S'good'
p26
I1
tp27
a(I10
I156
I0
S'great'
p28
I1
tp29
a(I1
I165
F-0.75
g20
I15
tp30
a(I3
I91
F0.375
S'new'
p31
I15
tp32
as(S'cingular'
p33
tp34
(lp35
(I1
I50
F1.0
S'good'
p36
I0
tp37
a(I7
I18
F-0.875
S'awful'
p38
I0
tp39
as(S'ring'
p40
S'tones'
p41
tp42
(lp43
(I1
I125
I0
S'least'
p44
I0
tp45
a(I4
I2
I0
S'own'
p46
I0
tp47
a(I4
I2
F1.0
S'good'
p48
I0
tp49
a(I4
I2
F-0.5
S'long'
p50
I0
tp51
a(I7
I128
F0.625
S'musical'
p52
I0
tp53
a(I7
I128
F-0.75
S'hate'
p54
I0
tp55
a(I7
I138
F-0.375
S'simple'
p56
I0
tp57
as(S'call'
p58
S'quality'
p59
tp60
(lp61
(I2
I69
I0
S'great'
p62
I0
tp63
a(I2
I82
F1.0
S'good'
p64
I0
tp65
a(I3
I162
I0
S'normal'
p66
I0
tp67
a(I9
I10
F1.0
S'good'
p68
I0
tp69
a(I10
I62
I0
S'great'
p70
I0
tp71
a(I10
I126
F0.625
S'superior'
p72
I0
tp73
a(I10
I137
F1.0
S'good'
p74
I0
tp75
a(I10
I142
F1.0
S'good'
p76
I0
tp77
a(I11
I38
F-0.625
S'bad'
p78
I0
tp79
as(S'camera'
p80
tp81
(lp82
(I1
I22
F-0.375
S'top'
p83
I1
tp84
a(I1
I245
F1.0
S'good'
p85
I1
tp86
a(I3
I25
F0.125
S'digital'
p87
I1
tp88
a(I3
I77
F1.0
S'good'
p89
I1
tp90
a(I3
I77
I-100
S'~1'
p91
I1
tp92
a(I3
I157
F0.625
S'acceptable'
p93
I1
tp94
a(I9
I9
F0.125
S'impressive'
p95
I1
tp96
a(I10
I44
F0.125
S'digital'
p97
I1
tp98
as(S'speaker'
p99
tp100
(lp101
(I3
I80
I0
S'wish'
p102
I8
tp103
a(I3
I116
I0
S'great'
p104
I8
tp105
a(I3
I144
F0.25
S'bigger'
p106
I8
tp107
a(I5
I8
I0
S'high'
p108
I8
tp109
a(I8
I49
F-0.25
S'higher'
p110
I8
tp111
a(I9
I200
F-0.25
S'low'
p112
I8
tp113
a(I9
I205
F-0.25
S'low'
p114
I8
tp115
as(S'sony'
p116
tp117
(lp118
(I11
I51
I0
S'latest'
p119
I5
tp120
as(S'bluetooth'
p121
tp122
(lp123
(I10
I155
I0
S'great'
p124
I3
tp125
as(S'reception'
p126
tp127
(lp128
(I1
I65
F1.0
S'good'
p129
I0
tp130
a(I1
I262
I0
S'great'
p131
I0
tp132
a(I5
I1
I0
S'great'
p133
I0
tp134
a(I7
I138
F1.0
S'better'
p135
I0
tp136
a(I9
I3
F1.0
S'good'
p137
I0
tp138
a(I9
I10
F0.125
S'impressive'
p139
I0
tp140
a(I9
I205
F-0.5
S'poor'
p141
I0
tp142
a(I10
I83
F1.0
S'good'
p143
I0
tp144
a(I10
I178
F1.0
S'good'
p145
I0
tp146
a(I10
I210
F1.0
S'good'
p147
I0
tp148
as(S'menu'
p149
tp150
(lp151
(I1
I248
I0
S'weird'
p152
I2
tp153
a(I9
I87
F-0.75
S'bright'
p154
I2
tp155
a(I9
I87
F0.125
S'colorful'
p156
I2
tp157
a(I10
I35
F-0.75
S'single'
p158
I2
tp159
a(I10
I79
F-0.375
S'top'
p160
I2
tp161
a(I11
I16
F-0.75
S'unable'
p162
I2
tp163
a(I11
I37
F0.625
S'easy'
p164
I2
tp165
as(S'samsung'
p166
S'd807'
p167
tp168
(lp169
(I10
I200
I0
S'great'
p170
I0
tp171
a(I1
I161
F-0.625
S'other'
p172
I7
tp173
a(I1
I169
F-0.625
S'other'
p174
I7
tp175
a(I1
I226
F0.5
S'willing'
p176
I7
tp177
a(I2
I58
F-0.125
S'complicated'
p178
I7
tp179
a(I3
I141
F0.5
S'bought'
p180
I7
tp181
a(I3
I141
I0
S'standard'
p182
I7
tp183
a(I3
I170
I0
S'more'
p184
I7
tp185
a(I4
I5
F-0.625
S'free'
p186
I7
tp187
a(I9
I75
F0.125
S'first'
p188
I7
tp189
a(I10
I93
F0.125
S'first'
p190
I7
tp191
a(I10
I93
F0.125
S'last'
p192
I7
tp193
a(I10
I198
F0.125
S'first'
p194
I7
tp195
a(I7
I114
I0
S'later'
p196
I0
tp197
a(I10
I200
I0
g170
I0
tp198
as(S'button'
p199
tp200
(lp201
(I1
I10
F-0.5
S'press'
p202
I19
tp203
a(I1
I60
F0.5
S'clear'
p204
I19
tp205
a(I1
I60
I0
S'close'
p206
I19
tp207
a(I3
I118
F0.625
S'accessible'
p208
I19
tp209
as(S'pocket'
p210
tp211
(lp212
(I0
I16
F-0.75
S'unable'
p213
I17
tp214
a(I11
I9
F-0.625
S'quiet'
p215
I17
tp216
as(S'slider'
p217
tp218
(lp219
(I1
I12
I0
S'great'
p220
I0
tp221
a(I1
I36
F1.0
S'best'
p222
I0
tp223
a(I1
I133
F0.625
S'easy'
p224
I0
tp225
a(I2
I107
F0.375
S'new'
p226
I0
tp227
a(I9
I191
F0.625
S'aware'
p228
I0
tp229
a(I10
I151
I-100
S'super-slim'
p230
I0
tp231
as(S'music'
p232
S'player'
p233
tp234
(lp235
(I1
I240
F0.875
S'music'
p236
I0
tp237
a(I1
I240
F0.875
g236
I6
tp238
a(I3
I6
F-0.375
S'simple'
p239
I6
tp240
a(I7
I73
I0
S'close'
p241
I6
tp242
a(I9
I152
F-0.625
S'free'
p243
I6
tp244
a(I1
I155
F0.5
S'personal'
p245
I0
tp246
as(S'address'
p247
S'book'
p248
tp249
(lp250
(I6
I3
F-0.875
S'hard'
p251
I0
tp252
a(I8
I43
I0
S'user'
p253
I0
tp254
as(S'ringtones'
p255
tp256
(lp257
(I2
I63
I0
S'many'
p258
I0
tp259
a(I3
I72
F0.125
S'able'
p260
I0
tp261
a(I6
I5
I0
S'own'
p262
I0
tp263
a(I6
I5
I0
S'personalized'
p264
I0
tp265
a(I10
I155
I0
S'upload'
p266
I0
tp267
as(S'voice'
p268
tp269
(lp270
(I7
I124
I0
S'dial'
p271
I4
tp272
a(I7
I124
F1.0
S'good'
p273
I4
tp274
a(I8
I16
F1.0
S'good'
p275
I4
tp276
a(I10
I138
I0
S'dial'
p277
I4
tp278
a(I10
I175
F0.625
S'easier'
p279
I4
tp280
a(I10
I187
I0
S'cool'
p281
I4
tp282
as(S'headset'
p283
tp284
(lp285
(I3
I71
F0.625
S'easy'
p286
I0
tp287
a(I10
I158
F0.375
S'extra'
p288
I0
tp289
as(S'pros'
p290
S'and'
p291
S'cons'
p292
tp293
(lp294
(I1
I116
I0
S'most'
p295
I0
tp296
a(I9
I206
I0
S'few'
p297
I0
tp298
a(I1
I116
I0
g295
I7
tp299
a(I9
I0
F0.125
S'weigh'
p300
I7
tp301
a(I9
I206
I0
g297
I7
tp302
as(S'songs'
p303
tp304
(lp305
(I2
I38
F-0.5
S'certain'
p306
I1
tp307
a(I6
I5
F0.25
S'favorite'
p308
I1
tp309
as(S'buttons'
p310
tp311
(lp312
(I1
I37
F-0.75
S'wrong'
p313
I13
tp314
a(I7
I122
F1.0
S'best'
p315
I13
tp316
a(I8
I44
F-0.375
S'top'
p317
I13
tp318
a(I8
I50
F-0.375
S'small'
p319
I13
tp320
a(I8
I51
F-0.375
S'smaller'
p321
I13
tp322
a(I8
I51
F-0.875
S'harder'
p323
I13
tp324
a(I9
I13
F0.625
S'easy'
p325
I13
tp326
as(S'nokia'
p327
tp328
(lp329
(I1
I4
I0
S'old'
p330
I0
tp331
a(I10
I198
I0
S'many'
p332
I0
tp333
a(I10
I198
I0
S'different'
p334
I0
tp335
a(I10
I206
F0.25
S'read'
p336
I0
tp337
a(I10
I206
F0.375
S'new'
p338
I0
tp339
a(I10
I210
F0.125
S'last'
p340
I0
tp341
a(I10
I210
I0
S'great'
p342
I0
tp343
as(S'calls'
p344
tp345
(lp346
(I1
I19
I0
S'great'
p347
I0
tp348
a(I3
I140
I0
S'adequate'
p349
I0
tp350
a(I5
I3
F-0.5
S'less'
p351
I0
tp352
a(I7
I7
F-0.5
S'miss'
p353
I0
tp354
a(I8
I26
F0.25
S'recent'
p355
I0
tp356
a(I8
I49
I0
S'most'
p357
I0
tp358
a(I10
I174
F-0.375
S'simple'
p359
I0
tp360
a(I11
I9
F-0.5
S'miss'
p361
I0
tp362
a(I11
I10
F-0.125
S'public'
p363
I0
tp364
a(I11
I38
I0
S'hear'
p365
I0
tp366
as(S'sim'
p367
S'card'
p368
tp369
(lp370
(I10
I56
F0.625
S'easy'
p371
I0
tp372
as(S'call'
p373
S'volume'
p374
tp375
(lp376
(I1
I269
I0
S'soft'
p377
I0
tp378
a(I1
I269
F0.75
S'receive'
p379
I0
tp380
a(I10
I97
F-0.25
S'low'
p381
I0
tp382
a(I0
I16
F0.375
S'loudest'
p383
I6
tp384
a(I1
I24
F1.0
S'good'
p385
I6
tp386
a(I1
I96
F-0.25
S'higher'
p387
I6
tp388
a(I1
I96
I0
S'initial'
p389
I6
tp390
a(I1
I269
I0
g377
I6
tp391
a(I1
I275
I0
S'more'
p392
I6
tp393
a(I1
I277
I0
S'softer'
p394
I6
tp395
a(I2
I71
I0
S'more'
p396
I6
tp397
a(I4
I10
F-0.25
S'low'
p398
I6
tp399
a(I9
I200
F-0.75
S'difficult'
p400
I6
tp401
a(I10
I50
I0
S'more'
p402
I6
tp403
a(I10
I97
F-0.25
g381
I6
tp404
a(I10
I176
F-0.125
S'mine'
p405
I6
tp406
a(I10
I213
F-0.25
S'low'
p407
I6
tp408
as(S'razr'
p409
tp410
(lp411
(I3
I82
F-0.25
S'thin'
p412
I0
tp413
as(S'mp3'
p414
S'player'
p415
tp416
(lp417
(I3
I6
F-0.375
g239
I1
tp418
a(I7
I73
I0
g241
I1
tp419
a(I9
I152
F-0.625
g243
I1
tp420
as(S'sound'
p421
S'quality'
p422
tp423
(lp424
(I1
I201
I0
S'great'
p425
I0
tp426
a(I2
I100
F1.0
S'good'
p427
I0
tp428
a(I10
I62
I0
g70
I0
tp429
a(I10
I88
F1.0
S'best'
p430
I0
tp431
a(I10
I142
F1.0
S'good'
p432
I0
tp433
a(I11
I38
F-0.625
g78
I0
tp434
a(I3
I17
F-0.25
S'low'
p435
I7
tp436
a(I3
I55
F-0.25
S'low'
p437
I7
tp438
a(I7
I81
F1.0
S'good'
p439
I7
tp440
a(I7
I90
F-0.625
S'bad'
p441
I7
tp442
a(I10
I142
F1.0
g432
I7
tp443
a(I10
I213
F-0.5
S'complaint'
p444
I7
tp445
a(I10
I213
I0
S'standard'
p446
I7
tp447
as.