(dp0
(S'motorola'
p1
S'v400'
p2
tp3
(lp4
(I5
I0
I0
S'great'
p5
I0
tp6
a(I9
I1
F0.375
S'much'
p7
I0
tp8
a(I3
I6
F0.625
S'finish'
p9
I0
tp10
a(I3
I6
I0
S'more'
p11
I0
tp12
a(I5
I0
I0
g5
I0
tp13
a(I5
I30
F0.375
S'extra'
p14
I0
tp15
a(I9
I25
F0.5
S'strong'
p16
I0
tp17
a(I11
I16
F0.125
S'first'
p18
I0
tp19
a(I1
I38
F-0.5
S'sure'
p20
I0
tp21
a(I3
I99
F0.75
S'wonder'
p22
I0
tp23
a(I3
I107
F0.375
S'much'
p24
I0
tp25
a(I6
I63
F-0.625
S'other'
p26
I0
tp27
a(I9
I1
F0.375
g7
I0
tp28
a(I9
I10
I0
S'different'
p29
I0
tp30
a(I10
I1
I-100
S'site.-'
p31
I0
tp32
a(I11
I3
I0
S'older'
p33
I0
tp34
a(I11
I27
F0.375
S'new'
p35
I0
tp36
a(I11
I27
F0.125
S'last'
p37
I0
tp38
as(S'volume'
p39
tp40
(lp41
(I4
I46
I0
S'great'
p42
I6
tp43
a(I5
I51
F-0.25
S'lower'
p44
I6
tp45
a(I6
I21
F-0.625
S'bad'
p46
I6
tp47
as(S'battery'
p48
S'life'
p49
tp50
(lp51
(I1
I13
I0
S'great'
p52
I1
tp53
a(I3
I104
F-0.5
S'long'
p54
I1
tp55
a(I5
I59
F1.0
S'good'
p56
I1
tp57
a(I6
I93
F-0.625
S'average'
p58
I1
tp59
a(I3
I52
F-0.5
S'sudden'
p60
I15
tp61
a(I3
I52
F-0.75
S'dead'
p62
I15
tp63
a(I3
I77
F-0.25
S'low'
p64
I15
tp65
a(I3
I104
F-0.5
g54
I15
tp66
as(S'calls'
p67
tp68
(lp69
(I1
I41
I0
S'most'
p70
I0
tp71
a(I3
I23
I0
S'many'
p72
I0
tp73
a(I3
I23
F0.125
S'able'
p74
I0
tp75
a(I6
I147
I0
S'most'
p76
I0
tp77
as(S'games'
p78
tp79
(lp80
(I6
I71
F1.0
S'best'
p81
I19
tp82
a(I6
I71
I0
S'mobile'
p83
I19
tp84
a(I7
I3
I0
S'great'
p85
I19
tp86
as(S'ringtones'
p87
tp88
(lp89
(I0
I7
I0
S'few'
p90
I0
tp91
a(I1
I50
F0.375
S'new'
p92
I0
tp93
a(I5
I8
F0.5
S'compatible'
p94
I0
tp95
a(I5
I21
F0.5
S'true'
p96
I0
tp97
a(I5
I39
I0
S'great'
p98
I0
tp99
a(I6
I4
I0
S'more'
p100
I0
tp101
a(I6
I4
F0.375
S'available'
p102
I0
tp103
a(I10
I0
F1.0
S'better'
p104
I0
tp105
a(I10
I0
F1.0
S'good'
p106
I0
tp107
as(S'customer'
p108
S'service'
p109
tp110
(lp111
(I3
I32
I0
S'great'
p112
I3
tp113
a(I0
I3
I0
S'close'
p114
I16
tp115
a(I3
I47
I0
S'full'
p116
I16
tp117
a(I3
I64
F-0.625
S'bad'
p118
I16
tp119
as(S'nokia'
p120
tp121
(lp122
(I1
I9
F0.375
S'much'
p123
I0
tp124
a(I1
I9
F0.5
S'unattractive'
p125
I0
tp126
a(I3
I55
I0
S'different'
p127
I0
tp128
a(I6
I135
I0
S'same'
p129
I0
tp130
a(I9
I23
F-0.5
S'long'
p131
I0
tp132
a(I11
I9
I0
S'old'
p133
I0
tp134
as(S'speakerphone'
p135
tp136
(lp137
(I3
I104
F0.5
S'clear'
p138
I0
tp139
a(I3
I104
I0
S'useful'
p140
I0
tp141
a(I5
I18
F0.5
S'clear'
p142
I0
tp143
a(I5
I18
F0.375
S'louder'
p144
I0
tp145
a(I5
I24
F0.875
S'nice'
p146
I0
tp147
a(I6
I123
F0.125
S'first'
p148
I0
tp149
as(S'speaker'
p150
tp151
(lp152
(I5
I23
F0.875
S'nicer'
p153
I8
tp154
as(S'camera'
p155
tp156
(lp157
(I1
I18
F1.0
S'best'
p158
I1
tp159
a(I3
I43
F0.875
S'nice'
p160
I1
tp161
a(I3
I70
F0.625
S'interested'
p162
I1
tp163
a(I3
I98
F-0.75
S'bright'
p164
I1
tp165
a(I4
I46
F1.0
S'good'
p166
I1
tp167
a(I5
I6
F0.5
S'obvious'
p168
I1
tp169
a(I5
I20
F1.0
S'good'
p170
I1
tp171
a(I5
I52
I0
S'great'
p172
I1
tp173
a(I6
I90
F1.0
S'good'
p174
I1
tp175
a(I6
I90
F1.0
S'best'
p176
I1
tp177
as(S'side'
p178
S'buttons'
p179
tp180
(lp181
(I5
I45
F-0.75
S'difficult'
p182
I0
tp183
a(I9
I15
F0.375
S'exterior'
p184
I0
tp185
a(I1
I47
F-0.125
S'directional'
p186
I13
tp187
a(I4
I6
F-0.125
S'slow'
p188
I13
tp189
a(I5
I45
F-0.75
g182
I13
tp190
as(S'reception'
p191
tp192
(lp193
(I1
I0
F-0.5
S'poor'
p194
I0
tp195
a(I1
I9
F1.0
S'better'
p196
I0
tp197
a(I1
I23
F0.625
S'perfect'
p198
I0
tp199
a(I2
I3
I0
S'great'
p200
I0
tp201
a(I3
I7
I0
S'great'
p202
I0
tp203
a(I3
I104
F0.5
S'clear'
p204
I0
tp205
a(I6
I60
F1.0
S'good'
p206
I0
tp207
a(I6
I91
I0
S'great'
p208
I0
tp209
a(I6
I131
F1.0
S'good'
p210
I0
tp211
as.