(dp0
(S'battery'
p1
S'life'
p2
tp3
(lp4
(I3
I1
F1.0
S'good'
p5
I1
tp6
a(I3
I14
F0.375
S'much'
p7
I1
tp8
a(I3
I14
F-0.75
S'short'
p9
I1
tp10
a(I6
I4
F0.75
S'proper'
p11
I1
tp12
a(I11
I30
F-0.5
S'poor'
p13
I1
tp14
a(I22
I54
F0.875
S'lucky'
p15
I1
tp16
a(I28
I103
F-0.625
S'bad'
p17
I1
tp18
a(I28
I103
F0.625
S'fair'
p19
I1
tp20
a(I32
I53
F0.375
S'much'
p21
I1
tp22
a(I32
I53
F-0.375
S'small'
p23
I1
tp24
a(I32
I53
F0.125
S'profile'
p25
I1
tp26
a(I34
I16
F1.0
S'good'
p27
I1
tp28
a(I36
I13
F-0.75
S'short'
p29
I1
tp30
a(I39
I10
F-0.75
S'short'
p31
I1
tp32
a(I46
I6
F-0.75
S'short'
p33
I1
tp34
a(I53
I22
I0
S'great'
p35
I1
tp36
a(I3
I14
F0.375
g7
I19
tp37
a(I3
I14
F-0.75
g9
I19
tp38
a(I11
I30
F-0.5
g13
I19
tp39
a(I28
I103
F0.625
g19
I19
tp40
a(I32
I53
F0.375
g21
I19
tp41
a(I32
I53
F-0.375
g23
I19
tp42
a(I32
I53
F0.125
g25
I19
tp43
a(I34
I16
F1.0
g27
I19
tp44
a(I36
I13
F-0.75
g29
I19
tp45
a(I39
I10
F-0.75
g31
I19
tp46
a(I46
I6
F-0.75
g33
I19
tp47
a(I55
I10
F-0.875
S'hard'
p48
I19
tp49
as(S'cingular'
p50
tp51
(lp52
(I52
I40
I0
S'local'
p53
I0
tp54
a(I53
I5
F0.375
S'new'
p55
I0
tp56
as(S'ring'
p57
S'tones'
p58
tp59
(lp60
(I22
I59
I0
S'minimal'
p61
I0
tp62
a(I32
I54
I0
S'basic'
p63
I0
tp64
a(I55
I13
F-0.875
S'deficient'
p65
I0
tp66
as(S'piece'
p67
S'of'
p68
S'junk'
p69
tp70
(lp71
(I53
I30
F0.875
S'nice'
p72
I2
tp73
a(I53
I30
F0.375
S'new'
p74
I2
tp75
as(S'camera'
p76
S'and'
p77
S'video'
p78
tp79
(lp80
(I14
I41
F0.125
S'digital'
p81
I0
tp82
a(I20
I71
I0
S'great'
p83
I0
tp84
a(I35
I24
I0
S'basic'
p85
I0
tp86
a(I45
I19
F0.875
S'nice'
p87
I0
tp88
a(I6
I7
F-0.5
S'less'
p89
I1
tp90
a(I6
I7
I0
S'most'
p91
I1
tp92
a(I14
I41
F0.125
g81
I1
tp93
a(I14
I51
F1.0
S'good'
p94
I1
tp95
a(I35
I24
I0
g85
I1
tp96
a(I35
I64
I0
S'least'
p97
I1
tp98
a(I35
I64
F1.0
S'good'
p99
I1
tp100
a(I35
I118
F1.0
S'good'
p101
I1
tp102
a(I40
I12
F1.0
S'good'
p103
I1
tp104
a(I40
I12
I0
S'own'
p105
I1
tp106
a(I45
I19
F0.875
g87
I1
tp107
as(S'international'
p108
S'version'
p109
tp110
(lp111
(I32
I39
F-0.5
S'international'
p112
I0
tp113
a(I44
I27
F-0.5
S'international'
p114
I0
tp115
a(I54
I4
F-0.5
S'international'
p116
I0
tp117
as(S'service'
p118
tp119
(lp120
(I22
I26
I0
S'local'
p121
I16
tp122
a(I45
I5
I0
S'great'
p123
I16
tp124
a(I50
I24
I0
S'prompt'
p125
I16
tp126
a(I52
I28
F1.0
S'good'
p127
I16
tp128
as(S'works'
p129
S'fine'
p130
tp131
(lp132
(I15
I20
I0
S'general'
p133
I9
tp134
a(I28
I118
F-0.25
S'rest'
p135
I9
tp136
as(S'data'
p137
S'cable'
p138
tp139
(lp140
(I37
I12
I0
S'cable'
p141
I0
tp142
as(S'sony'
p143
S'ericsson'
p144
tp145
(lp146
(I57
I24
I0
S'old'
p147
I0
tp148
a(I57
I40
I0
S'old'
p149
I0
tp150
as(S'bluetooth'
p151
tp152
(lp153
(I32
I58
F0.625
S'easy'
p154
I3
tp155
as(S'reception'
p156
tp157
(lp158
(I6
I85
F1.0
S'good'
p159
I0
tp160
a(I14
I43
F1.0
S'good'
p161
I0
tp162
a(I16
I10
F0.5
S'touch'
p163
I0
tp164
a(I16
I11
F-0.5
S'poor'
p165
I0
tp166
a(I16
I28
I0
S'same'
p167
I0
tp168
a(I17
I0
F-0.5
S'poor'
p169
I0
tp170
a(I34
I15
F1.0
S'better'
p171
I0
tp172
a(I35
I108
F0.875
S'happy'
p173
I0
tp174
a(I46
I70
F0.5
S'clear'
p175
I0
tp176
a(I53
I22
I0
S'great'
p177
I0
tp178
as(S'usb'
p179
S'connector'
p180
tp181
(lp182
(I15
I12
I0
S'standard'
p183
I0
tp184
a(I44
I10
I0
S'same'
p185
I0
tp186
as(S'wear'
p187
S'marks'
p188
tp189
(lp190
(I34
I8
F0.5
S'obvious'
p191
I0
tp192
a(I34
I8
F-0.375
S'wear'
p193
I0
tp194
a(I34
I8
F-0.375
S'wear'
p195
I0
tp196
as(S'hold'
p197
S'a'
p198
S'charge'
p199
tp200
(lp201
(I6
I61
I0
S'more'
p202
I0
tp203
a(I53
I32
F0.625
S'hold'
p204
I0
tp205
a(I57
I14
F-0.5
S'longer'
p206
I0
tp207
a(I57
I15
F-0.5
S'longer'
p208
I0
tp209
as(S'seller'
p210
tp211
(lp212
(I3
I4
I0
S'more'
p213
I19
tp214
a(I10
I11
F0.875
S'reputable'
p215
I19
tp216
a(I21
I36
I0
S'great'
p217
I19
tp218
a(I22
I3
F0.125
S'first'
p219
I19
tp220
a(I32
I93
F0.375
S'reliable'
p221
I19
tp222
a(I41
I25
I0
S'different'
p223
I19
tp224
a(I46
I37
F0.375
S'new'
p225
I19
tp226
a(I52
I30
I0
S'least'
p227
I19
tp228
a(I57
I31
F0.5
S'willing'
p229
I19
tp230
as(S'in'
p231
S'back'
p232
S'pocket'
p233
tp234
(lp235
(I11
I20
F0.625
S'easy'
p236
I0
tp237
a(I14
I47
F0.625
S'perfect'
p238
I0
tp239
as(S'motorola'
p240
S'razr'
p241
tp242
(lp243
(I17
I20
F-0.5
S'actual'
p244
I0
tp245
a(I52
I22
F0.125
S'essential'
p246
I0
tp247
a(I6
I81
F0.375
S'new'
p248
I0
tp249
a(I6
I130
F1.0
S'best'
p250
I0
tp251
a(I14
I5
I0
S'fourth'
p252
I0
tp253
a(I14
I5
F0.125
S'consecutive'
p254
I0
tp255
a(I16
I16
I0
S'old'
p256
I0
tp257
a(I16
I17
F1.0
S'better'
p258
I0
tp259
a(I17
I20
F-0.5
g244
I0
tp260
a(I25
I3
F1.0
S'best'
p261
I0
tp262
a(I25
I3
F1.0
S'best'
p263
I0
tp264
a(I25
I63
F0.25
S'original'
p265
I0
tp266
a(I28
I14
F-0.25
S'disappointed'
p267
I0
tp268
a(I32
I79
F0.25
S'original'
p269
I0
tp270
a(I35
I77
F0.25
S'original'
p271
I0
tp272
a(I35
I80
F-0.375
S'authorized'
p273
I0
tp274
a(I36
I15
F-0.125
S'overall'
p275
I0
tp276
a(I44
I21
F0.875
S'happy'
p277
I0
tp278
a(I45
I2
F0.5
S'told'
p279
I0
tp280
a(I45
I4
F0.5
S'true'
p281
I0
tp282
a(I45
I6
F-0.5
S'sure'
p283
I0
tp284
a(I46
I56
F-0.75
S'short'
p285
I0
tp286
a(I50
I21
F-0.636
S'genuine'
p287
I0
tp288
a(I52
I22
F0.125
g246
I0
tp289
a(I52
I88
F0.25
S'original'
p290
I0
tp291
as(g198
S'razr'
p292
S'v3'
p293
tp294
(lp295
(I6
I11
F0.25
S'original'
p296
I0
tp297
a(I18
I38
F-0.375
S'small'
p298
I0
tp299
a(I18
I38
F-0.125
S'obtrusive'
p300
I0
tp301
a(I28
I100
I0
S'current'
p302
I0
tp303
a(I46
I44
F0.875
S'happy'
p304
I0
tp305
a(I49
I31
F-0.125
S'overall'
p306
I0
tp307
a(I52
I10
I0
S'more'
p308
I0
tp309
a(I52
I13
F0.375
S'available'
p310
I0
tp311
a(I56
I5
I0
S'domestic'
p312
I0
tp313
a(I56
I12
I0
S'plastic'
p314
I0
tp315
a(I56
I12
I0
S'domestic'
p316
I0
tp317
a(I6
I11
F0.25
g296
I0
tp318
a(I18
I38
F-0.375
g298
I0
tp319
a(I18
I38
F-0.125
g300
I0
tp320
a(I28
I100
I0
g302
I0
tp321
a(I46
I44
F0.875
g304
I0
tp322
a(I49
I31
F-0.125
g306
I0
tp323
a(I52
I10
I0
g308
I0
tp324
a(I52
I13
F0.375
g310
I0
tp325
a(I56
I5
I0
g312
I0
tp326
a(I56
I12
I0
g314
I0
tp327
a(I56
I12
I0
g316
I0
tp328
a(I0
I33
I0
S'old'
p329
I0
tp330
a(I6
I11
F0.25
g296
I0
tp331
a(I6
I42
F0.25
S'used'
p332
I0
tp333
a(I10
I11
F-0.25
S'cheaper'
p334
I0
tp335
a(I14
I10
F0.5
S'functional'
p336
I0
tp337
a(I21
I50
F1.0
S'good'
p338
I0
tp339
a(I22
I30
F-0.375
S'black'
p340
I0
tp341
a(I25
I72
F0.125
S'first'
p342
I0
tp343
a(I28
I102
I0
S'current'
p344
I0
tp345
a(I32
I22
I0
S'old'
p346
I0
tp347
a(I36
I37
F-0.125
S'overall'
p348
I0
tp349
a(I41
I2
F-0.25
S'past'
p350
I0
tp351
a(I41
I12
I0
S'blue'
p352
I0
tp353
a(I41
I30
F-0.375
S'black'
p354
I0
tp355
a(I42
I3
I0
S'third'
p356
I0
tp357
a(I42
I3
F0.625
S'easy'
p358
I0
tp359
a(I44
I24
I0
S'old'
p360
I0
tp361
a(I46
I31
F0.375
S'new'
p362
I0
tp363
a(I46
I31
F0.25
S'unlocked'
p364
I0
tp365
a(I46
I40
F0.375
S'new'
p366
I0
tp367
a(I49
I29
F0.125
S'first'
p368
I0
tp369
a(I52
I77
F-0.125
S'overall'
p370
I0
tp371
a(I53
I18
I0
S'european'
p372
I0
tp373
a(I54
I9
I0
S'fourth'
p374
I0
tp375
a(I56
I5
I0
g312
I0
tp376
a(I56
I12
I0
g314
I0
tp377
a(I56
I12
I0
g316
I0
tp378
a(I57
I9
F-0.625
S'other'
p379
I0
tp380
a(I57
I14
F0.375
S'new'
p381
I0
tp382
a(I57
I68
F-0.75
S'damaged'
p383
I0
tp384
a(I57
I69
F0.25
S'original'
p385
I0
tp386
a(I57
I85
I0
S'old'
p387
I0
tp388
as(S'nokia'
p389
tp390
(lp391
(I22
I49
F0.375
S'newer'
p392
I0
tp393
a(I35
I94
F0.375
S'new'
p394
I0
tp395
a(I38
I1
I0
S'next'
p396
I0
tp397
a(I38
I1
I0
S'current'
p398
I0
tp399
a(I38
I1
F-0.5
S'flimsy'
p400
I0
tp401
as(S'calls'
p402
tp403
(lp404
(I14
I57
F0.5
S'possible'
p405
I0
tp406
a(I14
I59
F-0.125
S'private'
p407
I0
tp408
a(I14
I59
F0.75
S'receive'
p409
I0
tp410
a(I25
I68
I0
S'many'
p411
I0
tp412
a(I26
I7
I0
S'many'
p413
I0
tp414
a(I28
I103
I0
S'most'
p415
I0
tp416
a(I29
I23
I0
S'local'
p417
I0
tp418
a(I29
I24
I0
S'local'
p419
I0
tp420
a(I46
I107
F0.875
S'important'
p421
I0
tp422
a(I52
I59
F-0.25
S'dropped'
p423
I0
tp424
a(I57
I88
I0
S'few'
p425
I0
tp426
as(S'text'
p427
S'messages'
p428
tp429
(lp430
(I18
I23
I0
S'old'
p431
I0
tp432
a(I28
I72
F-0.375
S'blind'
p433
I0
tp434
a(I28
I72
F-0.75
S'unable'
p435
I0
tp436
a(I34
I36
I0
S'text'
p437
I0
tp438
a(I52
I3
F-0.75
S'short'
p439
I0
tp440
a(I52
I3
I0
S'chinese'
p441
I0
tp442
a(I53
I23
I0
S'great'
p443
I0
tp444
a(I53
I23
F-0.625
S'other'
p445
I0
tp446
a(I53
I23
F0.5
S'odd'
p447
I0
tp448
a(I18
I23
I0
g431
I18
tp449
a(I28
I72
F-0.375
g433
I18
tp450
a(I28
I72
F-0.75
g435
I18
tp451
a(I33
I4
I0
S'garbled'
p452
I18
tp453
a(I33
I25
F0.125
S'able'
p454
I18
tp455
a(I46
I97
F0.875
S'nice'
p456
I18
tp457
a(I46
I97
I0
S'adequate'
p458
I18
tp459
a(I52
I3
F-0.75
g439
I18
tp460
as(S'warranty'
p461
tp462
(lp463
(I25
I19
F-0.5
S'poor'
p464
I2
tp465
a(I25
I22
F-0.375
S'void'
p466
I2
tp467
a(I41
I12
F-0.5
S'less'
p468
I2
tp469
as(S'quad'
p470
S'band'
p471
tp472
(lp473
(I15
I10
I0
S'quad'
p474
I0
tp475
a(I44
I20
F0.25
S'unlocked'
p476
I0
tp477
as(g198
S'new'
p478
S'battery'
p479
tp480
(lp481
(I0
I34
F0.375
S'new'
p482
I1
tp483
a(I0
I58
F0.375
S'new'
p484
I1
tp485
a(I4
I6
F0.375
S'new'
p486
I1
tp487
a(I6
I81
F0.375
S'new'
p488
I1
tp489
a(I20
I13
F0.375
S'new'
p490
I1
tp491
a(I20
I66
F0.375
S'new'
p492
I1
tp493
a(I28
I127
F0.375
S'new'
p494
I1
tp495
a(I29
I5
F0.375
S'new'
p496
I1
tp497
a(I29
I9
F0.375
S'new'
p498
I1
tp499
a(I29
I9
F0.375
S'new'
p500
I1
tp501
a(I29
I9
F-0.75
S'invalid'
p502
I1
tp503
a(I36
I53
F1.0
S'good'
p504
I1
tp505
a(I37
I3
F0.375
S'new'
p506
I1
tp507
a(I37
I3
F0.25
S'original'
p508
I1
tp509
a(I37
I3
I0
S'same'
p510
I1
tp511
a(I57
I86
F0.375
S'new'
p512
I1
tp513
a(I0
I34
F0.375
g482
I1
tp514
a(I0
I58
F0.375
g484
I1
tp515
a(I4
I6
F0.375
g486
I1
tp516
a(I6
I81
F0.375
g488
I1
tp517
a(I20
I13
F0.375
g490
I1
tp518
a(I20
I66
F0.375
g492
I1
tp519
a(I28
I127
F0.375
g494
I1
tp520
a(I29
I5
F0.375
g496
I1
tp521
a(I29
I9
F0.375
g498
I1
tp522
a(I29
I9
F0.375
g500
I1
tp523
a(I29
I9
F-0.75
g502
I1
tp524
a(I36
I53
F1.0
g504
I1
tp525
a(I37
I3
F0.375
g506
I1
tp526
a(I37
I3
F0.25
g508
I1
tp527
a(I37
I3
I0
g510
I1
tp528
a(I57
I86
F0.375
g512
I1
tp529
a(I0
I34
F0.375
g482
I15
tp530
a(I0
I58
F0.375
g484
I15
tp531
a(I3
I1
F1.0
g5
I15
tp532
a(I4
I6
F0.375
g486
I15
tp533
a(I6
I4
F0.75
g11
I15
tp534
a(I6
I81
F0.375
g488
I15
tp535
a(I14
I36
F0.375
S'much'
p536
I15
tp537
a(I14
I36
F0.625
S'major'
p538
I15
tp539
a(I16
I2
F0.125
S'last'
p540
I15
tp541
a(I16
I2
F-0.5
S'long'
p542
I15
tp543
a(I16
I8
F0.125
S'able'
p544
I15
tp545
a(I17
I25
F-0.75
S'dead'
p546
I15
tp547
a(I20
I13
F0.375
g490
I15
tp548
a(I20
I66
F0.375
g492
I15
tp549
a(I22
I54
F0.875
g15
I15
tp550
a(I25
I15
F-0.75
S'invalid'
p551
I15
tp552
a(I28
I103
F-0.625
g17
I15
tp553
a(I28
I127
F0.375
g494
I15
tp554
a(I29
I5
F0.375
g496
I15
tp555
a(I29
I7
F0.125
S'last'
p556
I15
tp557
a(I29
I9
F0.375
g498
I15
tp558
a(I29
I9
F0.375
g500
I15
tp559
a(I29
I9
F-0.75
g502
I15
tp560
a(I34
I34
F-0.5
S'weak'
p561
I15
tp562
a(I35
I92
F0.5
S'discharged'
p563
I15
tp564
a(I35
I97
F-0.25
S'low'
p565
I15
tp566
a(I36
I53
F1.0
g504
I15
tp567
a(I37
I3
F0.375
g506
I15
tp568
a(I37
I3
F0.25
g508
I15
tp569
a(I37
I3
I0
g510
I15
tp570
a(I46
I52
F-0.25
S'low'
p571
I15
tp572
a(I46
I54
I0
S'most'
p573
I15
tp574
a(I46
I89
F0.125
S'last'
p575
I15
tp576
a(I49
I4
F-0.625
S'bad'
p577
I15
tp578
a(I49
I18
F0.375
S'extended'
p579
I15
tp580
a(I49
I35
F-0.5
S'insignificant'
p581
I15
tp582
a(I52
I86
I0
S'below'
p583
I15
tp584
a(I52
I86
I0
S'standard'
p585
I15
tp586
a(I53
I12
F0.5
S'optimistic'
p587
I15
tp588
a(I53
I22
I0
g35
I15
tp589
a(I57
I86
F0.375
g512
I15
tp590
as(g198
S'us'
p591
S'adapter'
p592
tp593
(lp594
(I15
I21
I0
S'european'
p595
I0
tp596
a(I15
I21
I0
g595
I0
tp597
as(g198
S'sim'
p598
S'card'
p599
tp600
(lp601
(I6
I100
I0
S'local'
p602
I0
tp603
a(I10
I20
F0.125
S'able'
p604
I0
tp605
a(I15
I9
F-0.125
S'foreign'
p606
I0
tp607
a(I20
I63
I0
S'local'
p608
I0
tp609
a(I32
I12
F0.375
S'meant'
p610
I0
tp611
a(I6
I100
I0
g602
I0
tp612
a(I10
I20
F0.125
g604
I0
tp613
a(I15
I9
F-0.125
g606
I0
tp614
a(I20
I63
I0
g608
I0
tp615
a(I32
I12
F0.375
g610
I0
tp616
as(S'amazon'
p617
tp618
(lp619
(I6
I67
F-0.25
S'disappointing'
p620
I13
tp621
a(I6
I85
F1.0
S'good'
p622
I13
tp623
a(I20
I64
F0.625
S'perfect'
p624
I13
tp625
a(I28
I85
F0.125
S'last'
p626
I13
tp627
a(I37
I32
I0
S'european'
p628
I13
tp629
a(I41
I1
I-100
S'am-'
p630
I13
tp631
a(I41
I21
F-0.625
S'glad'
p632
I13
tp633
a(I46
I1
F0.875
S'happy'
p634
I13
tp635
a(I50
I24
I0
S'great'
p636
I13
tp637
a(I56
I4
F-0.625
S'free'
p638
I13
tp639
as.