(dp0
(S'battery'
p1
S'life'
p2
tp3
(lp4
(I0
I221
F1.0
S'good'
p5
I1
tp6
a(I0
I565
I0
S'old'
p7
I1
tp8
a(I2
I15
F-0.5
S'less'
p9
I1
tp10
a(I2
I343
F1.0
S'good'
p11
I1
tp12
a(I2
I369
F-0.5
S'poor'
p13
I1
tp14
a(I2
I452
F-0.625
S'moderate'
p15
I1
tp16
a(I2
I496
F-0.75
S'worse'
p17
I1
tp18
a(I2
I540
F-0.625
S'average'
p19
I1
tp20
a(I2
I635
F-0.25
S'low'
p21
I1
tp22
a(I0
I221
F1.0
g5
I15
tp23
a(I0
I565
I0
g7
I15
tp24
a(I2
I14
F-0.75
S'dead'
p25
I15
tp26
a(I2
I328
F0.375
S'extended'
p27
I15
tp28
a(I2
I329
F-0.75
S'dead'
p29
I15
tp30
a(I2
I343
F1.0
g11
I15
tp31
a(I2
I541
F-0.5
S'long'
p32
I15
tp33
a(I2
I634
F-0.5
S'heavy'
p34
I15
tp35
a(I2
I638
F0.375
S'extended'
p36
I15
tp37
as(S'keyboard'
p38
tp39
(lp40
(I0
I317
F1.0
S'good'
p41
I2
tp42
a(I0
I396
I0
S'great'
p43
I2
tp44
a(I0
I404
I0
S'dial'
p45
I2
tp46
a(I0
I648
F0.625
S'easy'
p47
I2
tp48
a(I1
I48
F-0.75
S'difficult'
p49
I2
tp50
a(I2
I477
F0.5
S'awkward'
p51
I2
tp52
a(I2
I696
F-0.75
S'unnatural'
p53
I2
tp54
a(I2
I696
F0.125
S'first'
p55
I2
tp56
as(S'email'
p57
tp58
(lp59
(I0
I202
F0.625
S'easy'
p60
I5
tp61
a(I0
I460
I0
S'standard'
p62
I5
tp63
a(I0
I514
I0
S'corporate'
p64
I5
tp65
a(I2
I502
I0
S'few'
p66
I5
tp67
a(I2
I582
F0.5
S'personal'
p68
I5
tp69
as(S'ring'
p70
S'tones'
p71
tp72
(lp73
(I2
I290
I0
S'specific'
p74
I0
tp75
as(S'piece'
p76
S'of'
p77
S'junk'
p78
tp79
(lp80
(I0
I245
F0.5
S'rid'
p81
I2
tp82
a(I2
I41
F-0.875
S'awful'
p83
I2
tp84
as(S'third'
p85
S'party'
p86
S'software'
p87
tp88
(lp89
(I0
I271
I0
S'third'
p90
I0
tp91
a(I0
I291
I0
S'third'
p92
I0
tp93
a(I0
I294
I0
S'third'
p94
I0
tp95
a(I2
I137
F0.375
S'extra'
p96
I0
tp97
a(I0
I254
I0
S'third'
p98
I0
tp99
a(I0
I271
I0
g90
I0
tp100
a(I0
I291
I0
g92
I0
tp101
a(I0
I294
I0
g94
I0
tp102
a(I0
I478
I0
S'third'
p103
I0
tp104
as(S'a'
p105
S'hard'
p106
S'reset'
p107
tp108
(lp109
(I0
I4
F-0.875
S'hard'
p110
I0
tp111
a(I0
I246
F-0.875
S'hard'
p112
I0
tp113
a(I0
I256
F-0.875
S'hard'
p114
I0
tp115
a(I0
I257
F-0.875
S'hard'
p116
I0
tp117
a(I0
I258
F-0.875
S'hard'
p118
I0
tp119
a(I0
I418
F-0.875
S'hard'
p120
I0
tp121
a(I0
I424
I0
S'soft'
p122
I0
tp123
a(I1
I51
F-0.875
S'hard'
p124
I0
tp125
a(I2
I464
F-0.875
S'hard'
p126
I0
tp127
a(I0
I4
F-0.875
g110
I0
tp128
a(I0
I246
F-0.875
g112
I0
tp129
a(I0
I256
F-0.875
g114
I0
tp130
a(I0
I257
F-0.875
g116
I0
tp131
a(I0
I258
F-0.875
g118
I0
tp132
a(I0
I418
F-0.875
g120
I0
tp133
a(I0
I424
I0
g122
I0
tp134
a(I1
I51
F-0.875
g124
I0
tp135
a(I2
I464
F-0.875
g126
I0
tp136
a(I0
I4
F-0.875
g110
I7
tp137
a(I0
I107
I0
S'soft'
p138
I7
tp139
a(I0
I246
F-0.875
g112
I7
tp140
a(I0
I256
F-0.875
g114
I7
tp141
a(I0
I257
F-0.875
g116
I7
tp142
a(I0
I258
F-0.875
g118
I7
tp143
a(I0
I268
F-0.75
S'cold'
p144
I7
tp145
a(I0
I268
I0
S'least'
p146
I7
tp147
a(I0
I418
F-0.875
g120
I7
tp148
a(I0
I424
I0
g122
I7
tp149
a(I0
I665
I0
S'soft'
p150
I7
tp151
a(I1
I51
F-0.875
g124
I7
tp152
a(I2
I442
I0
S'soft'
p153
I7
tp154
a(I2
I464
F-0.875
g126
I7
tp155
as(S'tech'
p156
S'support'
p157
tp158
(lp159
(I2
I446
I0
S'tech'
p160
I1
tp161
a(I2
I455
I0
S'tech'
p162
I1
tp163
as(S'freezing'
p164
tp165
(lp166
(I2
I138
I0
S'oh'
p167
I2
tp168
as(g105
S'text'
p169
S'message'
p170
tp171
(lp172
(I0
I358
F-0.375
S'simple'
p173
I0
tp174
a(I2
I682
I0
S'many'
p175
I0
tp176
a(I2
I682
F0.375
S'new'
p177
I0
tp178
a(I0
I358
F-0.375
g173
I0
tp179
a(I2
I682
I0
g175
I0
tp180
a(I2
I682
F0.375
g177
I0
tp181
a(I0
I358
F-0.375
g173
I18
tp182
a(I2
I682
I0
g175
I18
tp183
a(I2
I682
F0.375
g177
I18
tp184
a(I2
I690
I0
S'internet'
p185
I18
tp186
a(I2
I698
I0
S'legible'
p187
I18
tp188
a(I2
I698
F-0.375
S'smallest'
p189
I18
tp190
a(I0
I638
F0.375
S'new'
p191
I1
tp192
as(S'camera'
p193
tp194
(lp195
(I0
I365
F0.625
S'superior'
p196
I1
tp197
a(I0
I439
F-0.625
S'other'
p198
I1
tp199
a(I0
I590
F1.0
S'better'
p200
I1
tp201
a(I0
I590
F0.125
S'digital'
p202
I1
tp203
a(I0
I591
F-0.875
S'stuck'
p204
I1
tp205
a(I0
I644
F-0.5
S'separate'
p206
I1
tp207
a(I2
I202
I0
S'great'
p208
I1
tp209
a(I2
I306
F1.0
S'good'
p210
I1
tp211
a(I2
I693
I0
S'primitive'
p212
I1
tp213
as(S'bluetooth'
p214
tp215
(lp216
(I0
I374
F0.375
S'much'
p217
I3
tp218
as(S'calendar'
p219
tp220
(lp221
(I0
I338
F0.5
S'crucial'
p222
I2
tp223
a(I0
I339
F-0.625
S'other'
p224
I2
tp225
a(I0
I339
F0.875
S'important'
p226
I2
tp227
a(I2
I703
F0.25
S'powerful'
p228
I2
tp229
as(S'times'
p230
S'per'
p231
S'day'
p232
tp233
(lp234
(I0
I151
I0
S'least'
p235
I0
tp236
a(I0
I151
I0
S'few'
p237
I0
tp238
as(S'times'
p239
g105
S'day'
p240
tp241
(lp242
(I0
I151
I0
g235
I0
tp243
a(I0
I151
I0
g237
I0
tp244
a(I0
I153
I0
S'few'
p245
I0
tp246
a(I0
I552
F-0.5
S'longer'
p247
I0
tp248
as(S'memory'
p249
tp250
(lp251
(I0
I231
F0.375
S'new'
p252
I5
tp253
a(I0
I317
F1.0
S'good'
p254
I5
tp255
a(I0
I576
I0
S'full'
p256
I5
tp257
a(I0
I584
I0
S'more'
p258
I5
tp259
a(I1
I23
F0.375
S'available'
p260
I5
tp261
a(I2
I203
I0
S'internal'
p262
I5
tp263
a(I2
I565
F0.375
S'extra'
p264
I5
tp265
a(I2
I725
F0.25
S'main'
p266
I5
tp267
as(S'design'
p268
S'flaw'
p269
tp270
(lp271
(I0
I322
I0
S'many'
p272
I3
tp273
as(S'voice'
p274
S'mail'
p275
tp276
(lp277
(I0
I187
F0.625
S'easy'
p278
I0
tp279
a(I0
I187
F-0.5
S'call'
p280
I0
tp281
a(I0
I147
I0
S'dial'
p282
I4
tp283
a(I0
I187
F0.625
g278
I4
tp284
a(I0
I187
F-0.5
g280
I4
tp285
a(I0
I198
I0
S'slower'
p286
I4
tp287
a(I2
I411
I0
S'later'
p288
I13
tp289
a(I2
I413
F0.375
S'new'
p290
I13
tp291
as(S'button'
p292
tp293
(lp294
(I0
I214
I0
S'touchscreen'
p295
I19
tp296
a(I0
I228
I-100
S'save/delete'
p297
I19
tp298
a(I0
I532
I0
S'such'
p299
I19
tp300
a(I0
I537
I0
S'entire'
p301
I19
tp302
a(I0
I537
F-0.5
S'certain'
p303
I19
tp304
a(I0
I553
I-100
S'bottom-right'
p305
I19
tp306
a(I1
I47
I-100
S'5-way'
p307
I19
tp308
a(I2
I323
F0.375
S'reliable'
p309
I19
tp310
as(S'verizon'
p311
tp312
(lp313
(I0
I13
F1.0
S'good'
p314
I0
tp315
a(I0
I39
F0.625
S'aware'
p316
I0
tp317
a(I0
I273
I0
S'local'
p318
I0
tp319
a(I0
I280
F-0.625
S'other'
p320
I0
tp321
a(I0
I313
F0.5
S'true'
p322
I0
tp323
a(I0
I501
F1.0
S'good'
p324
I0
tp325
a(I0
I501
F0.375
S'new'
p326
I0
tp327
a(I0
I614
F0.5
S'clear'
p328
I0
tp329
a(I2
I214
I0
S'initial'
p330
I0
tp331
a(I2
I265
F-0.375
S'smaller'
p332
I0
tp333
as(S'big'
p334
S'deal'
p335
tp336
(lp337
(I0
I479
I0
S'big'
p338
I11
tp339
a(I0
I481
I0
S'big'
p340
I11
tp341
a(I2
I642
I0
S'big'
p342
I11
tp343
a(I2
I642
I0
S'great'
p344
I11
tp345
as(S'soft'
p346
S'reset'
p347
tp348
(lp349
(I0
I107
I0
g138
I0
tp350
a(I0
I258
F-0.875
g118
I0
tp351
a(I0
I424
I0
g122
I0
tp352
a(I0
I665
I0
g150
I0
tp353
a(I2
I442
I0
g153
I0
tp354
as(S'web'
p355
S'browser'
p356
tp357
(lp358
(I0
I634
F0.5
S'functional'
p359
I0
tp360
as(S'wireless'
p361
S'sync'
p362
tp363
(lp364
(I2
I439
F0.375
S'new'
p365
I0
tp366
a(I2
I439
F0.375
g365
I0
tp367
as(S'messaging'
p368
tp369
(lp370
(I0
I234
I0
S'instant'
p371
I0
tp372
a(I0
I656
I0
S'large'
p373
I0
tp374
as(S'palm'
p375
tp376
(lp377
(I0
I33
I0
S'different'
p378
I1
tp379
a(I0
I293
F-0.625
S'other'
p380
I1
tp381
a(I0
I296
F0.5
S'loyal'
p382
I1
tp383
a(I0
I542
F0.875
S'happy'
p384
I1
tp385
a(I0
I545
F0.875
S'nice'
p386
I1
tp387
a(I2
I44
F-0.625
S'glad'
p388
I1
tp389
a(I2
I45
F0.625
S'easier'
p390
I1
tp391
a(I2
I69
F0.125
S'first'
p392
I1
tp393
a(I2
I72
I0
S'more'
p394
I1
tp395
a(I2
I72
F0.25
S'familiar'
p396
I1
tp397
a(I2
I138
F-0.875
S'unhappy'
p398
I1
tp399
a(I2
I275
F0.25
S'familiar'
p400
I1
tp401
a(I2
I304
I0
S'different'
p402
I1
tp403
a(I2
I361
F-0.625
S'disturbing'
p404
I1
tp405
a(I2
I361
F-0.75
S'unethical'
p406
I1
tp407
a(I2
I386
F0.625
S'easier'
p408
I1
tp409
a(I2
I448
F-0.5
S'sure'
p410
I1
tp411
a(I2
I467
F0.125
S'first'
p412
I1
tp413
a(I2
I475
F0.25
S'original'
p414
I1
tp415
a(I2
I503
F0.5
S'whole'
p416
I1
tp417
a(I2
I561
I0
S'website'
p418
I1
tp419
a(I2
I578
F0.25
S'recent'
p420
I1
tp421
a(I2
I617
F-0.5
S'separate'
p422
I1
tp423
a(I2
I631
I0
S'many'
p424
I1
tp425
as(S'learning'
p426
S'curve'
p427
tp428
(lp429
(I2
I304
F0.375
S'steep'
p430
I2
tp431
as(S'network'
p432
tp433
(lp434
(I0
I368
I0
S'such'
p435
I0
tp436
as(S'calls'
p437
tp438
(lp439
(I0
I204
I0
S'different'
p440
I0
tp441
a(I0
I250
F-0.25
S'past'
p442
I0
tp443
a(I0
I322
I0
S'least'
p444
I0
tp445
a(I0
I357
F-0.25
S'loose'
p446
I0
tp447
a(I0
I404
F0.25
S'recent'
p448
I0
tp449
a(I0
I538
F0.375
S'much'
p450
I0
tp451
a(I0
I538
I0
S'same'
p452
I0
tp453
a(I2
I171
I0
S'dial'
p454
I0
tp455
a(I2
I228
F0.125
S'able'
p456
I0
tp457
a(I2
I359
F-0.375
S'unacceptable'
p458
I0
tp459
a(I2
I512
F0.875
S'important'
p460
I0
tp461
a(I2
I664
F-0.875
S'hard'
p462
I0
tp463
a(I2
I666
F-0.25
S'dropped'
p464
I0
tp465
a(I2
I679
F-0.25
S'dropped'
p466
I0
tp467
as(S'help'
p468
S'desk'
p469
tp470
(lp471
(I2
I95
F0.375
S'new'
p472
I0
tp473
a(I2
I95
I0
S'great'
p474
I0
tp475
as(S'internet'
p476
tp477
(lp478
(I0
I490
F1.0
S'good'
p479
I6
tp480
a(I2
I486
F-0.625
S'other'
p481
I6
tp482
a(I2
I578
F0.125
S'able'
p483
I6
tp484
as(S'blackberry'
p485
tp486
(lp487
(I0
I498
F0.375
S'new'
p488
I1
tp489
a(I2
I20
I0
S'switched'
p490
I1
tp491
as(S'data'
p492
tp493
(lp494
(I0
I323
F-0.625
S'free'
p495
I13
tp496
a(I2
I24
F-0.875
S'hard'
p497
I13
tp498
a(I2
I329
F-0.625
S'other'
p499
I13
tp500
as(S'much'
p501
S'better'
p502
tp503
(lp504
(I2
I37
F0.375
S'much'
p505
I9
tp506
as(S'smartphone'
p507
tp508
(lp509
(I2
I110
I0
S'great'
p510
I0
tp511
a(I2
I353
F0.375
S'reliable'
p512
I0
tp513
a(I2
I464
F0.125
S'first'
p514
I0
tp515
a(I2
I467
F0.125
S'first'
p516
I0
tp517
a(I2
I534
F1.0
S'good'
p518
I0
tp519
a(I2
I677
I0
S'incredible'
p520
I0
tp521
as(S'firmware'
p522
S'upgrade'
p523
tp524
(lp525
(I0
I38
F0.25
S'recent'
p526
I0
tp527
a(I0
I38
F0.625
S'major'
p528
I0
tp529
a(I2
I500
F-0.625
S'other'
p530
I0
tp531
a(I0
I573
F1.0
S'best'
p532
I3
tp533
a(I0
I577
F0.875
S'nice'
p534
I3
tp535
a(I0
I577
F0.75
S'wonder'
p536
I3
tp537
a(I0
I577
I0
S'least'
p538
I3
tp539
a(I2
I500
F-0.625
g530
I3
tp540
as(S'customer'
p541
S'service'
p542
tp543
(lp544
(I0
I332
F0.5
S'told'
p545
I3
tp546
a(I2
I28
F0.625
S'easy'
p547
I3
tp548
a(I2
I80
I0
S'great'
p549
I3
tp550
a(I2
I350
I0
S'adequate'
p551
I3
tp552
a(I2
I661
F-0.5
S'poor'
p553
I3
tp554
a(I0
I417
F0.5
S'functional'
p555
I16
tp556
a(I0
I516
F-0.5
S'long'
p557
I16
tp558
a(I0
I614
F0.375
S'available'
p559
I16
tp560
a(I0
I621
F-0.5
S'unavailable'
p561
I16
tp562
a(I0
I661
F-0.625
S'bad'
p563
I16
tp564
a(I2
I28
F0.625
g547
I16
tp565
a(I2
I205
F-0.125
S'former'
p566
I16
tp567
a(I2
I661
F-0.5
g553
I16
tp568
a(I0
I332
F0.5
g545
I11
tp569
a(I2
I80
I0
g549
I11
tp570
a(I2
I350
I0
g551
I11
tp571
as(S'stereo'
p572
S'headset'
p573
tp574
(lp575
(I2
I338
I0
S'older'
p576
I0
tp577
a(I0
I580
F-0.625
S'bad'
p578
I0
tp579
as(S'treo'
p580
tp581
(lp582
(I0
I11
I0
S'old'
p583
I0
tp584
a(I0
I339
I0
S'old'
p585
I0
tp586
a(I0
I388
I0
S'wish'
p587
I0
tp588
a(I0
I453
I0
S'great'
p589
I0
tp590
a(I0
I469
F0.375
S'interesting'
p591
I0
tp592
a(I0
I498
I0
S'fifth'
p593
I0
tp594
a(I2
I48
F0.875
S'happy'
p595
I0
tp596
a(I2
I76
I0
S'great'
p597
I0
tp598
a(I2
I209
I0
S'slower'
p599
I0
tp600
a(I2
I290
F0.375
S'new'
p601
I0
tp602
a(I2
I473
I0
S'more'
p603
I0
tp604
a(I2
I479
I0
S'more'
p605
I0
tp606
a(I2
I522
I0
S'great'
p607
I0
tp608
a(I2
I620
I0
S'only'
p609
I0
tp610
a(I2
I681
I0
S'earlier'
p611
I0
tp612
a(I2
I722
F-0.875
S'negative'
p613
I0
tp614
as.