(dp0
(S'mobile'
p1
tp2
(lp3
(I0
I203
F0.125
S'usual'
p4
I0
tp5
as(S'battery'
p6
S'life'
p7
tp8
(lp9
(I0
I262
F1.0
S'good'
p10
I1
tp11
a(I3
I32
I0
S'such'
p12
I1
tp13
a(I6
I63
I0
S'great'
p14
I1
tp15
a(I6
I63
I0
S'great'
p16
I1
tp17
a(I12
I67
F-0.5
S'poor'
p18
I1
tp19
a(I0
I262
F1.0
g10
I19
tp20
a(I5
I9
F0.375
S'complete'
p21
I19
tp22
a(I6
I63
I0
g14
I19
tp23
a(I6
I63
I0
g16
I19
tp24
a(I10
I1
F0.625
S'easier'
p25
I19
tp26
a(I3
I32
I0
g12
I15
tp27
a(I11
I88
F1.0
S'better'
p28
I15
tp29
a(I11
I88
F0.375
S'new'
p30
I15
tp31
a(I12
I67
F-0.5
g18
I15
tp32
a(I12
I75
F0.375
S'extended'
p33
I15
tp34
a(I13
I17
F0.625
S'replaceable'
p35
I15
tp36
as(S'keyboard'
p37
tp38
(lp39
(I0
I28
F0.875
S'nice'
p40
I2
tp41
a(I0
I115
F-0.375
S'small'
p42
I2
tp43
a(I0
I147
F0.125
S'key'
p44
I2
tp45
a(I0
I258
F0.25
S'larger'
p46
I2
tp47
a(I12
I36
I0
S'faster'
p48
I2
tp49
a(I13
I17
F1.0
S'better'
p50
I2
tp51
as(S'program'
p52
tp53
(lp54
(I3
I12
I0
S'same'
p55
I16
tp56
a(I11
I86
F0.25
S'main'
p57
I16
tp58
as(S'service'
p59
tp60
(lp61
(I11
I65
I0
S'great'
p62
I16
tp63
as(S'camera'
p64
tp65
(lp66
(I0
I105
I0
S'wish'
p67
I1
tp68
a(I0
I106
F-0.25
S'higher'
p69
I1
tp70
a(I0
I295
I0
S'great'
p71
I1
tp72
a(I0
I305
I0
S'adequate'
p73
I1
tp74
a(I6
I60
F1.0
S'good'
p75
I1
tp76
a(I6
I60
I0
S'real'
p77
I1
tp78
a(I6
I60
F1.0
S'better'
p79
I1
tp80
a(I6
I60
I0
S'integrated'
p81
I1
tp82
a(I11
I75
F0.875
S'nice'
p83
I1
tp84
a(I11
I132
I0
S'great'
p85
I1
tp86
a(I13
I31
F0.125
S'digital'
p87
I1
tp88
as(S'bluetooth'
p89
tp90
(lp91
(I12
I75
I0
S'e-mail'
p92
I3
tp93
as(S'blue'
p94
S'tooth'
p95
tp96
(lp97
(I7
I41
I0
S'blue'
p98
I0
tp99
a(I13
I32
I0
S'great'
p100
I0
tp101
as(S'windows'
p102
tp103
(lp104
(I0
I57
F-0.5
S'open'
p105
I0
tp106
a(I11
I127
F0.375
S'much'
p107
I0
tp108
a(I11
I127
F0.625
S'easier'
p109
I0
tp110
a(I11
I127
I0
S'mobile'
p111
I0
tp112
as(S'times'
p113
S'a'
p114
S'day'
p115
tp116
(lp117
(I0
I174
I0
S'few'
p118
I0
tp119
a(I13
I43
I0
S'few'
p120
I0
tp121
as(S'volume'
p122
tp123
(lp124
(I0
I20
I0
S'wish'
p125
I6
tp126
a(I0
I20
I0
S'more'
p127
I6
tp128
a(I0
I116
F0.625
S'easy'
p129
I6
tp130
a(I0
I301
F-0.375
S'static'
p131
I6
tp132
a(I0
I301
F-0.25
S'low'
p133
I6
tp134
a(I0
I301
F-0.25
S'highest'
p135
I6
tp136
a(I7
I30
F-0.75
S'dead'
p137
I6
tp138
a(I10
I63
F0.125
S'enough'
p139
I6
tp140
as(S'business'
p141
tp142
(lp143
(I0
I76
F0.25
S'professional'
p144
I9
tp145
a(I0
I110
I0
S'heavy-duty'
p146
I9
tp147
a(I9
I8
F0.375
S'extended'
p148
I9
tp149
a(I9
I18
F0.875
S'important'
p150
I9
tp151
a(I11
I39
F-0.625
S'harmful'
p152
I9
tp153
a(I11
I39
I0
S'website'
p154
I9
tp155
as(S'sim'
p156
S'cards'
p157
tp158
(lp159
(I7
I38
F-0.75
S'damaged'
p160
I0
tp161
as(S'address'
p162
S'book'
p163
tp164
(lp165
(I3
I40
F-0.5
S'sure'
p166
I0
tp167
a(I3
I40
I0
S'big'
p168
I0
tp169
as(S'reset'
p170
tp171
(lp172
(I0
I11
I0
S'require'
p173
I7
tp174
a(I0
I11
F-0.375
S'manual'
p175
I7
tp176
a(I0
I268
I0
S'soft'
p177
I7
tp178
a(I4
I39
F-0.875
S'hard'
p179
I7
tp180
as(S'internet'
p181
S'access'
p182
tp183
(lp184
(I0
I295
F-0.75
S'short'
p185
I0
tp186
a(I9
I11
I0
S'faster'
p187
I0
tp188
a(I11
I90
F0.625
S'easier'
p189
I0
tp190
a(I0
I37
F0.125
S'first'
p191
I6
tp192
a(I9
I11
I0
g187
I6
tp193
as(S'e'
p194
S'mail'
p195
tp196
(lp197
(I3
I56
F-0.25
S'google'
p198
I2
tp199
a(I3
I56
F-0.25
g198
I13
tp200
as(S'mp3'
p201
S'player'
p202
tp203
(lp204
(I12
I79
F1.0
S'good'
p205
I1
tp206
a(I0
I175
F0.875
S'music'
p207
I6
tp208
a(I0
I192
F1.0
S'good'
p209
I6
tp210
as(S'contacts'
p211
tp212
(lp213
(I1
I20
I0
S'handy'
p214
I0
tp215
a(I4
I12
I0
S'more'
p216
I0
tp217
a(I4
I14
I0
S'specific'
p218
I0
tp219
as(S'blackberry'
p220
tp221
(lp222
(I3
I53
F0.375
S'new'
p223
I1
tp224
a(I4
I45
F-0.125
S'mine'
p225
I1
tp226
a(I12
I58
I0
S'resemble'
p227
I1
tp228
a(I12
I81
F1.0
S'good'
p229
I1
tp230
as(S'data'
p231
tp232
(lp233
(I0
I248
F-0.125
S'slow'
p234
I13
tp235
a(I0
I248
I0
S'high'
p236
I13
tp237
a(I11
I19
I0
S'fastest'
p238
I13
tp239
a(I11
I19
I0
S'mobile'
p240
I13
tp241
a(I13
I25
F-0.5
S'destroy'
p242
I13
tp243
as(S'6'
p244
S'months'
p245
tp246
(lp247
(I7
I0
I0
S'few'
p248
I6
tp249
a(I8
I30
F-0.625
S'sorry'
p250
I6
tp251
a(I12
I33
F-0.5
S'less'
p252
I6
tp253
as(S'memory'
p254
tp255
(lp256
(I0
I137
F0.875
S'nice'
p257
I5
tp258
a(I12
I16
I0
S'external'
p259
I5
tp260
a(I12
I16
F-0.625
S'other'
p261
I5
tp262
a(I12
I65
I0
S'more'
p263
I5
tp264
a(I12
I103
F0.125
S'essential'
p265
I5
tp266
a(I12
I103
I0
S'internal'
p267
I5
tp268
a(I12
I114
I0
S'internal'
p269
I5
tp270
a(I12
I114
F-0.375
S'small'
p271
I5
tp272
as(S'pocket'
p273
tp274
(lp275
(I0
I57
I0
S'same'
p276
I17
tp277
a(I8
I14
I0
S'later'
p278
I17
tp279
as(S'party'
p280
tp281
(lp282
(I4
I11
I0
S'third'
p283
I8
tp284
a(I10
I78
I0
S'third'
p285
I8
tp286
as(S'dropped'
p287
S'calls'
p288
tp289
(lp290
(I0
I251
F-0.25
S'dropped'
p291
I0
tp292
a(I10
I7
F-0.25
S'dropped'
p293
I0
tp294
a(I0
I251
F-0.25
g291
I0
tp295
a(I10
I7
F-0.25
g293
I0
tp296
a(I10
I65
I0
S'least'
p297
I0
tp298
a(I11
I79
F0.875
S'important'
p299
I0
tp300
a(I12
I109
F-0.625
S'earth'
p301
I0
tp302
a(I12
I109
F0.75
S'receive'
p303
I0
tp304
as(S'amazon'
p305
tp306
(lp307
(I0
I221
F0.25
S'unlocked'
p308
I13
tp309
a(I6
I37
F1.0
S'good'
p310
I13
tp311
a(I7
I42
F0.875
S'happy'
p312
I13
tp313
as(S'voice'
p314
S'dialing'
p315
tp316
(lp317
(I4
I10
F0.5
S'second'
p318
I0
tp319
as(S'touch'
p320
S'screen'
p321
tp322
(lp323
(I1
I34
F0.5
S'touch'
p324
I2
tp325
a(I6
I74
F0.75
S'ear'
p326
I2
tp327
a(I6
I74
F-0.375
S'disable'
p328
I2
tp329
a(I6
I74
F0.5
S'touch'
p330
I2
tp331
a(I11
I51
F0.5
S'touch'
p332
I2
tp333
a(I12
I84
F0.5
S'touch'
p334
I2
tp335
as(S'palm'
p336
S'treo'
p337
tp338
(lp339
(I0
I44
I0
S'different'
p340
I0
tp341
a(I6
I56
F0.375
S'new'
p342
I0
tp343
a(I8
I35
F0.375
S'available'
p344
I0
tp345
a(I9
I0
I0
S'basic'
p346
I0
tp347
a(I11
I11
F0.25
S'original'
p348
I0
tp349
a(I0
I35
F0.375
S'newer'
p350
I0
tp351
a(I0
I44
I0
g340
I0
tp352
a(I0
I79
F0.25
S'recent'
p353
I0
tp354
a(I0
I109
F-0.125
S'overall'
p355
I0
tp356
a(I0
I109
F1.0
S'good'
p357
I0
tp358
a(I0
I152
F-0.75
S'wrong'
p359
I0
tp360
a(I0
I164
F0.125
S'first'
p361
I0
tp362
a(I0
I175
F1.0
S'good'
p363
I0
tp364
a(I0
I178
I0
S'basic'
p365
I0
tp366
a(I0
I198
I0
S'stable'
p367
I0
tp368
a(I0
I203
F0.25
S'bigger'
p369
I0
tp370
a(I0
I219
F-0.125
S'overall'
p371
I0
tp372
a(I0
I252
F0.25
S'unlocked'
p373
I0
tp374
a(I2
I7
F-0.75
S'single'
p375
I0
tp376
a(I2
I7
I0
S'cable'
p377
I0
tp378
a(I2
I14
F-0.125
S'former'
p379
I0
tp380
a(I4
I41
I0
S'moody'
p381
I0
tp382
a(I5
I7
F0.375
S'new'
p383
I0
tp384
a(I6
I8
I-100
S'culture-shock'
p385
I0
tp386
a(I6
I12
I0
S'website'
p387
I0
tp388
a(I6
I31
F0.75
S'give'
p389
I0
tp390
a(I7
I9
F-0.5
S'heavy'
p391
I0
tp392
a(I7
I33
I0
S'close'
p393
I0
tp394
a(I8
I35
F0.375
g344
I0
tp395
a(I9
I0
I0
g346
I0
tp396
a(I10
I40
I0
S'slower'
p397
I0
tp398
a(I11
I12
F0.25
S'unlocked'
p399
I0
tp400
a(I11
I14
F0.375
S'new'
p401
I0
tp402
a(I11
I104
F-0.5
S'certain'
p403
I0
tp404
a(I12
I53
F0.375
S'newer'
p405
I0
tp406
a(I12
I69
I0
S'many'
p407
I0
tp408
a(I12
I116
F0.75
S'receive'
p409
I0
tp410
a(I0
I5
F0.125
S'typical'
p411
I1
tp412
a(I0
I57
F-0.125
S'overall'
p413
I1
tp414
a(I0
I57
F-0.75
S'comfortable'
p415
I1
tp416
a(I0
I103
I0
S'wish'
p417
I1
tp418
a(I0
I249
F-0.75
S'sick'
p419
I1
tp420
a(I0
I250
I0
S'current'
p421
I1
tp422
a(I0
I309
F-0.125
S'overall'
p423
I1
tp424
a(I2
I3
I0
S'cable'
p425
I1
tp426
a(I3
I12
I0
S'different'
p427
I1
tp428
a(I3
I34
F0.125
S'last'
p429
I1
tp430
a(I3
I53
F0.375
S'available'
p431
I1
tp432
a(I3
I53
I0
S'old'
p433
I1
tp434
a(I6
I40
I0
S'real'
p435
I1
tp436
a(I6
I56
F0.375
g342
I1
tp437
a(I7
I40
F0.625
S'aware'
p438
I1
tp439
a(I7
I53
F0.25
S'used'
p440
I1
tp441
a(I8
I16
I0
S'great'
p442
I1
tp443
a(I9
I12
F0.125
S'native'
p444
I1
tp445
a(I10
I30
F0.125
S'able'
p446
I1
tp447
a(I11
I11
F0.25
g348
I1
tp448
a(I11
I27
I0
S'website'
p449
I1
tp450
a(I11
I99
I0
S'old'
p451
I1
tp452
a(I12
I24
F-0.5
S'separate'
p453
I1
tp454
a(I12
I98
F0.5
S'loyal'
p455
I1
tp456
a(I13
I2
F0.125
S'first'
p457
I1
tp458
as.