(dp0
(S'battery'
p1
S'life'
p2
tp3
(lp4
(I5
I19
I0
S'great'
p5
I1
tp6
a(I7
I8
F-0.5
S'long'
p7
I1
tp8
a(I7
I45
F-0.25
S'battery'
p9
I1
tp10
a(I10
I38
I0
S'great'
p11
I1
tp12
a(I10
I132
F1.0
S'good'
p13
I1
tp14
a(I14
I44
I0
S'great'
p15
I1
tp16
a(I15
I10
I0
S'great'
p17
I1
tp18
a(I15
I10
F1.0
S'better'
p19
I1
tp20
a(I0
I47
F-0.625
S'free'
p21
I19
tp22
a(I7
I45
F-0.25
g9
I19
tp23
a(I10
I38
I0
g11
I19
tp24
a(I10
I132
F1.0
g13
I19
tp25
a(I15
I10
F1.0
g19
I19
tp26
a(I5
I19
I0
g5
I15
tp27
a(I7
I8
F-0.5
g7
I15
tp28
a(I10
I50
F0.125
S'last'
p29
I15
tp30
a(I10
I67
F1.0
S'good'
p31
I15
tp32
a(I14
I44
I0
g15
I15
tp33
a(I15
I10
I0
g17
I15
tp34
a(I15
I67
F1.0
S'good'
p35
I15
tp36
as(S'5'
p37
S'bars'
p38
tp39
(lp40
(I10
I149
I0
S'full'
p41
I0
tp42
a(I10
I149
I0
S'signal'
p43
I0
tp44
a(I10
I222
I0
S'signal'
p45
I0
tp46
a(I7
I139
I0
S'more'
p47
I10
tp48
a(I10
I149
I0
g41
I10
tp49
a(I10
I149
I0
g43
I10
tp50
a(I10
I222
I0
g45
I10
tp51
as(S'ring'
p52
S'tones'
p53
tp54
(lp55
(I0
I36
I0
S'different'
p56
I0
tp57
a(I5
I18
I0
S'many'
p58
I0
tp59
a(I5
I18
I0
S'most'
p60
I0
tp61
a(I10
I31
F0.375
S'extra'
p62
I0
tp63
a(I10
I33
F0.375
S'extra'
p64
I0
tp65
a(I10
I33
F0.5
S'personal'
p66
I0
tp67
a(I10
I33
I0
S'great'
p68
I0
tp69
a(I10
I125
F0.5
S'clear'
p70
I0
tp71
as(S'motorola'
p72
tp73
(lp74
(I10
I77
I0
S'current'
p75
I0
tp76
a(I15
I29
I0
S'ancient'
p77
I0
tp78
as(S'take'
p79
S'pictures'
p80
tp81
(lp82
(I7
I65
I0
S'many'
p83
I0
tp84
a(I10
I172
F0.875
S'important'
p85
I0
tp86
a(I10
I272
F1.0
S'good'
p87
I0
tp88
a(I10
I272
F0.5
S'clear'
p89
I0
tp90
a(I15
I2
F-0.375
S'top'
p91
I0
tp92
a(I15
I2
I0
S'own'
p93
I0
tp94
a(I15
I36
F-0.375
S'simple'
p95
I0
tp96
as(S'menu'
p97
tp98
(lp99
(I10
I225
I0
S'few'
p100
I2
tp101
a(I13
I41
I0
S'more'
p102
I2
tp103
a(I13
I115
F0.625
S'easy'
p104
I2
tp105
a(I15
I4
F0.875
S'nice'
p106
I2
tp107
a(I15
I4
F-0.375
S'simple'
p108
I2
tp109
a(I15
I49
I0
S'great'
p110
I2
tp111
as(S'great'
p112
S'reception'
p113
tp114
(lp115
(I7
I22
I0
S'great'
p116
I0
tp117
a(I7
I139
I0
S'great'
p118
I0
tp119
a(I7
I150
F1.0
S'better'
p120
I0
tp121
a(I10
I8
I0
S'great'
p122
I0
tp123
a(I10
I122
I0
S'great'
p124
I0
tp125
a(I0
I21
F-0.625
S'bad'
p126
I0
tp127
a(I2
I14
F1.0
S'better'
p128
I0
tp129
a(I2
I17
I0
S'fringe'
p130
I0
tp131
a(I5
I39
F1.0
S'good'
p132
I0
tp133
a(I7
I22
I0
g116
I0
tp134
a(I7
I115
I0
S'general'
p135
I0
tp136
a(I7
I115
F1.0
S'better'
p137
I0
tp138
a(I7
I139
I0
g118
I0
tp139
a(I7
I150
F1.0
g120
I0
tp140
a(I7
I152
F-0.75
S'worse'
p141
I0
tp142
a(I7
I154
F-0.125
S'overall'
p143
I0
tp144
a(I10
I3
F1.0
S'good'
p145
I0
tp146
a(I10
I8
I0
g122
I0
tp147
a(I10
I122
I0
g124
I0
tp148
a(I10
I123
F-0.625
S'average'
p149
I0
tp150
a(I10
I123
F-0.5
S'poor'
p151
I0
tp152
a(I10
I191
F1.0
S'good'
p153
I0
tp154
a(I10
I191
F-0.125
S'mine'
p155
I0
tp156
a(I10
I230
F0.125
S'solid'
p157
I0
tp158
a(I12
I1
F-0.625
S'bad'
p159
I0
tp160
a(I12
I1
F0.5
S'strong'
p161
I0
tp162
a(I12
I1
F0.125
S'first'
p163
I0
tp164
a(I14
I51
F1.0
S'good'
p165
I0
tp166
a(I15
I76
F1.0
S'good'
p167
I0
tp168
as(S'memory'
p169
S'leak'
p170
tp171
(lp172
(I12
I37
I0
S'mobile'
p173
I0
tp174
a(I0
I65
F0.375
S'much'
p175
I5
tp176
a(I0
I65
F0.375
S'dependable'
p177
I5
tp178
a(I5
I25
I0
S'full'
p179
I5
tp180
a(I10
I48
I0
S'internal'
p181
I5
tp182
a(I11
I8
I0
S'full'
p183
I5
tp184
a(I13
I67
I0
S'internal'
p185
I5
tp186
a(I13
I67
I0
S'large'
p187
I5
tp188
as(S'mp3'
p189
S'ringtones'
p190
tp191
(lp192
(I7
I116
F0.375
S'polyphonic'
p193
I0
tp194
a(I14
I61
I0
S'own'
p195
I0
tp196
a(I1
I36
F0.375
S'audible'
p197
I0
tp198
a(I7
I116
F0.375
g193
I0
tp199
a(I7
I117
F1.0
S'good'
p200
I0
tp201
a(I13
I199
I0
S'great'
p202
I0
tp203
a(I14
I61
I0
g195
I0
tp204
as(S'cool'
p205
tp206
(lp207
(I13
I37
I0
S'many'
p208
I11
tp209
as(S'signal'
p210
tp211
(lp212
(I5
I12
F1.0
S'good'
p213
I1
tp214
a(I6
I5
F0.75
S'due'
p215
I1
tp216
a(I10
I28
F1.0
S'good'
p217
I1
tp218
as(S'pocket'
p219
tp220
(lp221
(I7
I150
F0.625
S'easy'
p222
I17
tp223
a(I10
I87
F-0.375
S'small'
p224
I17
tp225
a(I12
I23
F-0.125
S'pant'
p226
I17
tp227
a(I13
I118
F-0.75
S'uncomfortable'
p228
I17
tp229
as(S'sony'
p230
S'ericsson'
p231
tp232
(lp233
(I7
I83
F-0.5
S'less'
p234
I0
tp235
a(I10
I128
F0.125
S'solid'
p236
I0
tp237
a(I10
I128
F0.625
S'easy'
p238
I0
tp239
a(I10
I221
F0.375
S'new'
p240
I0
tp241
a(I13
I141
F0.125
S'last'
p242
I0
tp243
a(I5
I6
I0
S'reconsider'
p244
I5
tp245
a(I5
I45
F1.0
S'best'
p246
I5
tp247
a(I7
I83
F-0.5
g234
I5
tp248
a(I10
I221
F0.375
g240
I5
tp249
a(I10
I240
F0.625
S'trust'
p250
I5
tp251
a(I13
I141
F0.125
g242
I5
tp252
a(I13
I146
I0
S'least'
p253
I5
tp254
a(I10
I128
F0.125
g236
I0
tp255
a(I10
I128
F0.625
g238
I0
tp256
as(S'external'
p257
S'screen'
p258
tp259
(lp260
(I7
I45
F0.5
S'second'
p261
I0
tp262
a(I7
I45
I0
S'external'
p263
I0
tp264
a(I7
I150
I0
S'external'
p265
I0
tp266
a(I7
I150
F0.5
S'touch'
p267
I0
tp268
a(I13
I39
I0
S'external'
p269
I0
tp270
a(I13
I52
I0
S'external'
p271
I0
tp272
a(I13
I52
I0
S'internal'
p273
I0
tp274
a(I14
I25
I0
S'external'
p275
I0
tp276
a(I15
I11
I0
S'external'
p277
I0
tp278
a(I15
I11
I0
S'external'
p279
I0
tp280
a(I15
I11
F-0.375
S'small'
p281
I0
tp282
as(S'z520a'
p283
tp284
(lp285
(I7
I43
F1.0
S'best'
p286
I0
tp287
a(I7
I43
I0
S'mobile'
p288
I0
tp289
a(I10
I221
F0.75
S'beautiful'
p290
I0
tp291
a(I10
I229
F0.75
S'beautiful'
p292
I0
tp293
a(I13
I86
I0
S'high'
p294
I0
tp295
a(I15
I80
F-0.625
S'free'
p296
I0
tp297
a(I15
I80
I0
S'rebate'
p298
I0
tp299
as(S'sound'
p300
tp301
(lp302
(I6
I10
F0.125
S'key'
p303
I7
tp304
a(I10
I63
I0
S'great'
p305
I7
tp306
a(I10
I63
F1.0
S'better'
p307
I7
tp308
as(S'inside'
p309
tp310
(lp311
(I12
I41
I0
S'own'
p312
I16
tp313
as(S'good'
p314
S'reception'
p315
tp316
(lp317
(I5
I39
F1.0
g132
I0
tp318
a(I10
I3
F1.0
g145
I0
tp319
a(I10
I8
I0
g122
I0
tp320
a(I10
I191
F1.0
g153
I0
tp321
a(I10
I191
F-0.125
g155
I0
tp322
a(I14
I51
F1.0
g165
I0
tp323
a(I15
I76
F1.0
g167
I0
tp324
as(S'infrared'
p325
S'port'
p326
tp327
(lp328
(I0
I2
F0.875
S'nice'
p329
I0
tp330
as(S'nokia'
p331
tp332
(lp333
(I7
I114
I0
S'old'
p334
I0
tp335
a(I10
I223
I0
S'old'
p336
I0
tp337
a(I10
I230
F0.75
S'due'
p338
I0
tp339
a(I10
I281
I0
S'old'
p340
I0
tp341
a(I13
I33
I0
S'old'
p342
I0
tp343
a(I13
I190
F0.375
S'much'
p344
I0
tp345
a(I14
I19
F0.375
S'much'
p346
I0
tp347
as(S'speaker'
p348
tp349
(lp350
(I7
I2
F-0.75
S'dead'
p351
I8
tp352
a(I10
I52
I0
S'external'
p353
I8
tp354
a(I10
I125
I0
S'large'
p355
I8
tp356
a(I12
I19
F0.375
S'much'
p357
I8
tp358
a(I12
I19
F1.0
S'better'
p359
I8
tp360
as(S'quad'
p361
S'band'
p362
tp363
(lp364
(I6
I13
I0
S'quad'
p365
I0
tp366
a(I10
I74
I0
S'overseas'
p367
I0
tp368
as(S'accidentally'
p369
S'press'
p370
tp371
(lp372
(I10
I137
F0.625
S'easy'
p373
I0
tp374
as(S'bluetooth'
p375
S'headset'
p376
tp377
(lp378
(I6
I6
F-0.625
S'free'
p379
I0
tp380
a(I5
I19
F1.0
S'good'
p381
I3
tp382
a(I6
I6
F-0.625
g379
I3
tp383
a(I10
I32
F0.375
S'available'
p384
I3
tp385
a(I10
I134
I0
S'standard'
p386
I3
tp387
a(I10
I288
F0.25
S'used'
p388
I3
tp389
a(I15
I10
F0.625
S'easy'
p390
I3
tp391
as(S'customer'
p392
S'service'
p393
tp394
(lp395
(I0
I56
F0.375
S'much'
p396
I3
tp397
a(I10
I298
F1.0
S'good'
p398
I3
tp399
a(I10
I298
F1.0
g398
I16
tp400
as(S'buttons'
p401
tp402
(lp403
(I7
I21
F-0.75
S'difficult'
p404
I13
tp405
a(I7
I40
F-0.875
S'hard'
p406
I13
tp407
a(I7
I40
F-0.5
S'long'
p408
I13
tp409
a(I10
I5
I0
S'large'
p410
I13
tp411
a(I10
I195
F-0.375
S'top'
p412
I13
tp413
a(I10
I254
F-0.375
S'small'
p414
I13
tp415
a(I14
I22
F0.25
S'bigger'
p416
I13
tp417
a(I14
I22
F0.625
S'easier'
p418
I13
tp419
a(I15
I17
F-0.5
S'answer'
p420
I13
tp421
a(I15
I20
F-0.75
S'wrong'
p422
I13
tp423
as(S'razr'
p424
tp425
(lp426
(I1
I6
I0
S'full'
p427
I0
tp428
a(I14
I3
I0
S'least'
p429
I0
tp430
a(I14
I3
F0.375
S'much'
p431
I0
tp432
a(I14
I3
F0.625
S'easier'
p433
I0
tp434
as(S'flashing'
p435
S'lights'
p436
tp437
(lp438
(I15
I23
F-0.5
S'less'
p439
I0
tp440
as(S'make'
p441
S'a'
p442
S'call'
p443
tp444
(lp445
(I10
I60
I0
S'dial'
p446
I0
tp447
a(I10
I60
F0.625
S'pleasant'
p448
I0
tp449
a(I15
I17
F-0.25
S'hang'
p450
I0
tp451
as(S'dropped'
p452
S'calls'
p453
tp454
(lp455
(I2
I38
I0
S'many'
p456
I0
tp457
a(I14
I46
F-0.25
S'dropped'
p458
I0
tp459
a(I0
I22
I0
S'crystal'
p460
I0
tp461
a(I0
I22
F0.5
S'clear'
p462
I0
tp463
a(I2
I38
I0
g456
I0
tp464
a(I7
I63
I0
S'many'
p465
I0
tp466
a(I14
I18
F-0.5
S'answer'
p467
I0
tp468
a(I14
I46
F-0.25
g458
I0
tp469
as(S'camera'
p470
S'button'
p471
tp472
(lp473
(I0
I32
F0.125
S'first'
p474
I0
tp475
a(I4
I6
I0
S'sensitive'
p476
I0
tp477
a(I5
I23
F0.375
S'extra'
p478
I0
tp479
a(I7
I104
F0.25
S'biggest'
p480
I0
tp481
a(I7
I104
F-0.875
S'negative'
p482
I0
tp483
a(I7
I150
I0
S'more'
p484
I0
tp485
a(I7
I151
I0
S'sensitive'
p486
I0
tp487
a(I10
I34
I0
S'big'
p488
I0
tp489
a(I10
I35
F0.625
S'easy'
p490
I0
tp491
a(I10
I36
F-0.625
S'other'
p492
I0
tp493
a(I10
I256
I0
S'large'
p494
I0
tp495
a(I10
I256
I0
S'sensitive'
p496
I0
tp497
a(I14
I1
F-0.75
S'stupid'
p498
I0
tp499
a(I15
I17
F0.625
S'easy'
p500
I0
tp501
a(I15
I49
F0.625
S'easy'
p502
I0
tp503
a(I0
I32
F0.125
g474
I1
tp504
a(I0
I62
F0.875
S'nice'
p505
I1
tp506
a(I4
I6
I0
g476
I1
tp507
a(I5
I23
F0.375
g478
I1
tp508
a(I7
I5
I0
S'great'
p509
I1
tp510
a(I7
I104
F0.25
g480
I1
tp511
a(I7
I104
F-0.875
g482
I1
tp512
a(I7
I150
I0
g484
I1
tp513
a(I7
I151
I0
g486
I1
tp514
a(I10
I8
F1.0
S'good'
p515
I1
tp516
a(I10
I35
F0.625
g490
I1
tp517
a(I10
I135
F0.625
S'decent'
p518
I1
tp519
a(I10
I209
F-0.5
S'sudden'
p520
I1
tp521
a(I10
I256
I0
g494
I1
tp522
a(I10
I256
I0
g496
I1
tp523
a(I12
I20
F1.0
S'good'
p524
I1
tp525
a(I13
I150
I0
S'more'
p526
I1
tp527
a(I14
I1
F-0.75
g498
I1
tp528
a(I15
I17
F0.625
g500
I1
tp529
a(I15
I33
F1.0
S'good'
p530
I1
tp531
a(I7
I68
I0
S'only'
p532
I19
tp533
a(I10
I34
I0
g488
I19
tp534
a(I10
I36
F-0.625
g492
I19
tp535
a(I13
I75
F0.625
S'accessible'
p536
I19
tp537
a(I13
I75
F0.625
S'accessible'
p538
I19
tp539
a(I15
I49
F0.625
g502
I19
tp540
as(S'drop'
p541
tp542
(lp543
(I13
I173
F-0.75
S'minor'
p544
I9
tp545
as(S'user'
p546
S'interface'
p547
tp548
(lp549
(I10
I20
F1.0
S'good'
p550
I0
tp551
a(I10
I126
F1.0
S'best'
p552
I0
tp553
a(I10
I126
I0
S'stable'
p554
I0
tp555
as(S'ring'
p556
S'tone'
p557
tp558
(lp559
(I0
I36
I0
g56
I0
tp560
a(I10
I31
F0.375
g62
I0
tp561
a(I10
I33
F0.375
g64
I0
tp562
a(I10
I33
F0.5
g66
I0
tp563
a(I10
I289
F0.375
S'available'
p564
I0
tp565
as.