(dp0
(S'a'
p1
S'great'
p2
S'show'
p3
tp4
(lp5
(I0
I9
I0
S'great'
p6
I0
tp7
a(I0
I17
I0
S'great'
p8
I0
tp9
a(I5
I51
I0
S'great'
p10
I0
tp11
a(I5
I51
I0
S'great'
p12
I0
tp13
a(I5
I126
I0
S'great'
p14
I0
tp15
a(I7
I4
I0
S'great'
p16
I0
tp17
a(I8
I38
I0
S'great'
p18
I0
tp19
a(I9
I32
F0.25
S'gear'
p20
I0
tp21
a(I0
I9
I0
g6
I0
tp22
a(I0
I17
I0
g8
I0
tp23
a(I5
I51
I0
g10
I0
tp24
a(I5
I51
I0
g12
I0
tp25
a(I5
I126
I0
g14
I0
tp26
a(I7
I4
I0
g16
I0
tp27
a(I8
I38
I0
g18
I0
tp28
a(I9
I32
F0.25
g20
I0
tp29
as(S'characters'
p30
tp31
(lp32
(I1
I5
F0.625
S'loveable'
p33
I3
tp34
a(I5
I38
F0.625
S'accessible'
p35
I3
tp36
a(I5
I38
F-0.375
S'likable'
p37
I3
tp38
a(I5
I73
F-0.625
S'other'
p39
I3
tp40
a(I5
I124
I0
S'human'
p41
I3
tp42
a(I5
I138
F0.5
S'obvious'
p43
I3
tp44
a(I14
I30
F-0.625
S'other'
p45
I3
tp46
a(I14
I47
I0
S'full'
p47
I3
tp48
a(I15
I68
I0
S'more'
p49
I3
tp50
a(I15
I75
I0
S'more'
p51
I3
tp52
a(I15
I75
I0
S'real'
p53
I3
tp54
a(I15
I86
F-0.625
S'fresh'
p55
I3
tp56
a(I15
I92
F0.25
S'favorite'
p57
I3
tp58
a(I15
I93
F-0.625
S'other'
p59
I3
tp60
a(I16
I7
F0.625
S'accessible'
p61
I3
tp62
a(I16
I7
F-0.375
S'likable'
p63
I3
tp64
as(S'series'
p65
tp66
(lp67
(I3
I39
F-0.625
S'unfamiliar'
p68
I5
tp69
a(I5
I40
F0.5
S'second'
p70
I5
tp71
a(I5
I40
F0.125
S'first'
p72
I5
tp73
a(I5
I40
F0.125
S'first'
p74
I5
tp75
a(I5
I130
F-0.75
S'dead'
p76
I5
tp77
a(I14
I25
F-0.375
S'small'
p78
I5
tp79
a(I14
I52
F0.375
S'complete'
p80
I5
tp81
a(I16
I9
F0.5
S'second'
p82
I5
tp83
a(I16
I9
F0.125
S'first'
p84
I5
tp85
a(I16
I9
F0.125
S'first'
p86
I5
tp87
as(S'personal'
p88
S'lives'
p89
tp90
(lp91
(I3
I46
F0.5
S'personal'
p92
I0
tp93
a(I3
I48
F0.5
S'personal'
p94
I0
tp95
a(I5
I59
F0.5
S'personal'
p96
I0
tp97
a(I15
I102
F0.5
S'personal'
p98
I0
tp99
as(S'comedy'
p100
tp101
(lp102
(I0
I11
F1.0
S'best'
p103
I0
tp104
a(I1
I5
I0
S'physical'
p105
I0
tp106
a(I8
I24
I0
S'standard'
p107
I0
tp108
a(I8
I35
F-0.875
S'hard'
p109
I0
tp110
a(I14
I6
F1.0
S'best'
p111
I0
tp112
a(I14
I37
I-100
S'fast-paced'
p113
I0
tp114
a(I15
I186
I0
S'generic'
p115
I0
tp116
as(S'battery'
p117
S'life'
p118
tp119
(lp120
(I15
I163
F-0.625
S'bad'
p121
I1
tp122
a(I15
I195
F0.5
S'reasonable'
p123
I1
tp124
a(I15
I200
I0
S'predictable'
p125
I1
tp126
a(I5
I55
F0.25
S'hospital'
p127
I19
tp128
a(I6
I8
F0.125
S'usual'
p129
I19
tp130
a(I8
I57
F0.25
S'hospital'
p131
I19
tp132
a(I15
I122
F0.5
S'personal'
p133
I19
tp134
a(I15
I163
F-0.625
g121
I19
tp135
a(I17
I4
I0
S'real'
p136
I19
tp137
a(I12
I11
F1.0
S'good'
p138
I15
tp139
a(I15
I195
F0.5
g123
I15
tp140
a(I15
I200
I0
g125
I15
tp141
as(S'qwerty'
p142
S'keyboard'
p143
tp144
(lp145
(I5
I26
F1.0
S'good'
p146
I0
tp147
a(I5
I26
F0.875
S'nice'
p148
I0
tp149
a(I15
I148
I0
S'full'
p150
I0
tp151
a(I15
I196
F1.0
S'good'
p152
I0
tp153
as(S'internet'
p154
tp155
(lp156
(I7
I43
F0.875
S'music'
p157
I6
tp158
a(I11
I43
F0.375
S'available'
p159
I6
tp160
a(I11
I46
F-0.625
S'free'
p161
I6
tp162
as(S'worth'
p163
S'money'
p164
tp165
(lp166
(I0
I1
F0.75
S'worth'
p167
I0
tp168
a(I15
I175
F0.75
S'worth'
p169
I0
tp170
a(I16
I35
F0.75
S'worth'
p171
I0
tp172
as(S'fantasy'
p173
S'sequences'
p174
tp175
(lp176
(I0
I16
F0.25
S'original'
p177
I0
tp178
a(I5
I64
F-0.5
S'fantasy'
p179
I0
tp180
a(I15
I104
F0.5
S'odd'
p181
I0
tp182
a(I15
I104
F-0.5
S'fantasy'
p183
I0
tp184
as(S'episodes'
p185
tp186
(lp187
(I1
I23
I0
S'great'
p188
I0
tp189
a(I3
I53
I0
S'great'
p190
I0
tp191
a(I5
I68
I0
S'earlier'
p192
I0
tp193
a(I15
I179
I0
S'great'
p194
I0
tp195
a(I15
I247
I0
S'more'
p196
I0
tp197
a(I15
I247
I0
S'more'
p198
I0
tp199
a(I16
I16
F-0.25
S'disappointing'
p200
I0
tp201
as(S'in'
p202
S'second'
p203
S'season'
p204
tp205
(lp206
(I0
I14
F0.5
S'second'
p207
I0
tp208
a(I3
I25
F0.5
S'second'
p209
I0
tp210
a(I3
I25
F0.125
S'first'
p211
I0
tp212
a(I3
I38
F0.5
S'second'
p213
I0
tp214
a(I5
I52
F0.5
S'second'
p215
I0
tp216
a(I5
I107
F0.5
S'second'
p217
I0
tp218
a(I7
I79
F0.5
S'second'
p219
I0
tp220
a(I9
I9
F0.125
S'first'
p221
I0
tp222
a(I9
I9
F0.125
S'first'
p223
I0
tp224
a(I9
I9
F0.5
S'second'
p225
I0
tp226
a(I9
I24
F0.5
S'second'
p227
I0
tp228
a(I10
I10
F0.125
S'first'
p229
I0
tp230
a(I10
I10
F0.125
S'first'
p231
I0
tp232
a(I10
I10
F0.5
S'second'
p233
I0
tp234
a(I14
I28
F0.5
S'second'
p235
I0
tp236
a(I14
I28
F0.125
S'first'
p237
I0
tp238
a(I14
I38
F0.5
S'second'
p239
I0
tp240
a(I15
I4
F0.5
S'second'
p241
I0
tp242
a(I15
I4
F0.125
S'first'
p243
I0
tp244
a(I15
I102
F0.5
S'second'
p245
I0
tp246
a(I0
I14
F0.5
g207
I0
tp247
a(I3
I25
F0.5
g209
I0
tp248
a(I3
I25
F0.125
g211
I0
tp249
a(I3
I38
F0.5
g213
I0
tp250
a(I5
I5
F0.5
S'second'
p251
I0
tp252
a(I5
I52
F0.5
g215
I0
tp253
a(I5
I107
F0.5
g217
I0
tp254
a(I5
I141
F-0.125
S'overall'
p255
I0
tp256
a(I5
I141
F0.5
S'second'
p257
I0
tp258
a(I7
I62
I0
S'more'
p259
I0
tp260
a(I7
I79
F0.5
g219
I0
tp261
a(I9
I9
F0.125
g221
I0
tp262
a(I9
I9
F0.125
g223
I0
tp263
a(I9
I9
F0.5
g225
I0
tp264
a(I9
I24
F0.5
g227
I0
tp265
a(I10
I10
F0.125
g229
I0
tp266
a(I10
I10
F0.125
g231
I0
tp267
a(I10
I10
F0.5
g233
I0
tp268
a(I11
I67
F0.5
S'second'
p269
I0
tp270
a(I14
I6
F0.5
S'second'
p271
I0
tp272
a(I14
I24
F0.5
S'second'
p273
I0
tp274
a(I14
I28
F0.5
g235
I0
tp275
a(I14
I28
F0.125
g237
I0
tp276
a(I14
I38
F0.5
g239
I0
tp277
a(I15
I4
F0.5
g241
I0
tp278
a(I15
I4
F0.125
g243
I0
tp279
a(I15
I76
F0.5
S'second'
p280
I0
tp281
a(I15
I80
F0.5
S'second'
p282
I0
tp283
a(I15
I102
F0.5
g245
I0
tp284
a(I15
I177
F0.5
S'second'
p285
I0
tp286
as(S'laugh'
p287
tp288
(lp289
(I16
I35
F1.0
S'good'
p290
I2
tp291
as(S'in'
p292
S'first'
p293
S'season'
p294
tp295
(lp296
(I3
I25
F0.5
g209
I0
tp297
a(I3
I25
F0.125
g211
I0
tp298
a(I5
I55
F0.125
S'first'
p299
I0
tp300
a(I8
I12
F0.125
S'first'
p301
I0
tp302
a(I9
I8
F0.125
S'first'
p303
I0
tp304
a(I9
I9
F0.125
g221
I0
tp305
a(I9
I9
F0.125
g223
I0
tp306
a(I9
I9
F0.5
g225
I0
tp307
a(I9
I10
I0
S'immediate'
p308
I0
tp309
a(I9
I11
F0.5
S'stronger'
p310
I0
tp311
a(I9
I32
I0
S'great'
p312
I0
tp313
a(I9
I32
F0.125
S'first'
p314
I0
tp315
a(I10
I10
F0.125
g229
I0
tp316
a(I10
I10
F0.125
g231
I0
tp317
a(I10
I10
F0.5
g233
I0
tp318
a(I14
I26
F0.125
S'first'
p319
I0
tp320
a(I14
I28
F0.5
g235
I0
tp321
a(I14
I28
F0.125
g237
I0
tp322
a(I15
I4
F0.5
g241
I0
tp323
a(I15
I4
F0.125
g243
I0
tp324
a(I15
I64
F0.125
S'first'
p325
I0
tp326
a(I15
I70
F0.125
S'first'
p327
I0
tp328
a(I16
I16
F0.125
S'first'
p329
I0
tp330
a(I3
I25
F0.5
g209
I0
tp331
a(I3
I25
F0.125
g211
I0
tp332
a(I5
I44
F0.125
S'first'
p333
I0
tp334
a(I5
I55
F0.125
g299
I0
tp335
a(I8
I12
F0.125
g301
I0
tp336
a(I9
I8
F0.125
g303
I0
tp337
a(I9
I9
F0.125
g221
I0
tp338
a(I9
I9
F0.125
g223
I0
tp339
a(I9
I9
F0.5
g225
I0
tp340
a(I9
I10
I0
g308
I0
tp341
a(I9
I11
F0.5
g310
I0
tp342
a(I9
I32
I0
g312
I0
tp343
a(I9
I32
F0.125
g314
I0
tp344
a(I10
I10
F0.125
g229
I0
tp345
a(I10
I10
F0.125
g231
I0
tp346
a(I10
I10
F0.5
g233
I0
tp347
a(I11
I70
F0.125
S'first'
p348
I0
tp349
a(I14
I24
F0.5
g273
I0
tp350
a(I14
I26
F0.125
g319
I0
tp351
a(I14
I28
F0.5
g235
I0
tp352
a(I14
I28
F0.125
g237
I0
tp353
a(I15
I4
F0.5
g241
I0
tp354
a(I15
I4
F0.125
g243
I0
tp355
a(I15
I62
F0.125
S'first'
p356
I0
tp357
a(I15
I64
F0.125
g325
I0
tp358
a(I15
I70
F0.125
g327
I0
tp359
a(I16
I16
F0.125
g329
I0
tp360
a(I16
I36
F0.125
S'first'
p361
I0
tp362
a(I16
I104
F1.0
S'good'
p363
I0
tp364
a(I16
I104
F0.125
S'first'
p365
I0
tp366
as(S'episode'
p367
tp368
(lp369
(I3
I1
I0
S'full'
p370
I0
tp371
a(I5
I70
I0
S'later'
p372
I0
tp373
a(I5
I78
F0.375
S'new'
p374
I0
tp375
a(I5
I78
F-0.625
S'fresh'
p376
I0
tp377
a(I5
I120
F0.375
S'newest'
p378
I0
tp379
a(I7
I80
F0.75
S'worth'
p380
I0
tp381
a(I8
I6
F-0.5
S'sure'
p382
I0
tp383
a(I8
I34
F0.125
S'first'
p384
I0
tp385
a(I9
I18
F0.625
S'emotional'
p386
I0
tp387
a(I15
I14
I0
S'realistic'
p388
I0
tp389
a(I15
I24
F0.25
S'favorite'
p390
I0
tp391
a(I15
I60
F0.125
S'explore'
p392
I0
tp393
a(I15
I178
F0.25
S'favorite'
p394
I0
tp395
a(I15
I243
F-0.625
S'other'
p396
I0
tp397
a(I16
I65
F-0.625
S'bad'
p398
I0
tp399
as(S'watching'
p400
tp401
(lp402
(I14
I33
F0.75
S'worth'
p403
I11
tp404
as(S'cast'
p405
tp406
(lp407
(I0
I16
F-0.5
S'regular'
p408
I1
tp409
a(I1
I5
I0
S'great'
p410
I1
tp411
a(I1
I5
F0.125
S'colorful'
p412
I1
tp413
a(I3
I53
F0.25
S'main'
p414
I1
tp415
a(I15
I132
F-0.5
S'regular'
p416
I1
tp417
as(S'music'
p418
tp419
(lp420
(I5
I9
I0
S'great'
p421
I0
tp422
a(I5
I126
I0
S'great'
p423
I0
tp424
a(I15
I253
I0
S'great'
p425
I0
tp426
as(S'web'
p427
S'site'
p428
tp429
(lp430
(I12
I54
I0
S'most'
p431
I1
tp432
as(S'season'
p433
S'of'
p434
S'scrubs'
p435
tp436
(lp437
(I0
I14
F0.5
g207
I0
tp438
a(I3
I25
F0.5
g209
I0
tp439
a(I3
I25
F1.0
S'good'
p440
I0
tp441
a(I3
I25
F0.125
g211
I0
tp442
a(I3
I38
F0.5
g213
I0
tp443
a(I5
I52
F0.5
g215
I0
tp444
a(I7
I79
F0.5
g219
I0
tp445
a(I14
I6
F0.5
g271
I0
tp446
a(I14
I24
F0.5
g273
I0
tp447
a(I15
I4
F0.5
g241
I0
tp448
a(I15
I4
F0.125
g243
I0
tp449
a(I16
I33
I0
S'great'
p450
I0
tp451
a(I0
I14
F0.5
g207
I4
tp452
a(I0
I17
I0
S'great'
p453
I4
tp454
a(I3
I25
F0.5
g209
I4
tp455
a(I3
I25
F0.125
g211
I4
tp456
a(I3
I38
F0.5
g213
I4
tp457
a(I3
I46
I0
S'more'
p458
I4
tp459
a(I5
I1
F1.0
S'best'
p460
I4
tp461
a(I5
I5
F0.5
g251
I4
tp462
a(I5
I44
F0.125
g333
I4
tp463
a(I5
I52
F0.5
g215
I4
tp464
a(I5
I55
F0.125
g299
I4
tp465
a(I5
I95
I0
S'great'
p466
I4
tp467
a(I5
I107
F0.5
g217
I4
tp468
a(I5
I141
F-0.125
g255
I4
tp469
a(I5
I141
F0.5
g257
I4
tp470
a(I5
I144
I0
S'third'
p471
I4
tp472
a(I7
I4
I0
S'reminder'
p473
I4
tp474
a(I7
I62
I0
g259
I4
tp475
a(I7
I64
F0.5
S'added'
p476
I4
tp477
a(I7
I79
F0.5
g219
I4
tp478
a(I7
I90
F0.375
S'new'
p479
I4
tp480
a(I8
I12
F0.125
g301
I4
tp481
a(I8
I23
F0.25
S'original'
p482
I4
tp483
a(I8
I23
I0
S'funny'
p484
I4
tp485
a(I8
I26
F0.75
S'worth'
p486
I4
tp487
a(I8
I46
I0
S'same'
p488
I4
tp489
a(I9
I8
F0.125
g303
I4
tp490
a(I9
I9
F0.125
g221
I4
tp491
a(I9
I9
F0.125
g223
I4
tp492
a(I9
I9
F0.5
g225
I4
tp493
a(I9
I10
I0
g308
I4
tp494
a(I9
I11
F0.5
g310
I4
tp495
a(I9
I17
F0.125
S'last'
p496
I4
tp497
a(I9
I24
F0.5
g227
I4
tp498
a(I9
I32
I0
g312
I4
tp499
a(I9
I32
F0.125
g314
I4
tp500
a(I10
I10
F0.125
g229
I4
tp501
a(I10
I10
F0.125
g231
I4
tp502
a(I10
I10
F0.5
g233
I4
tp503
a(I11
I67
F0.5
g269
I4
tp504
a(I11
I70
F0.125
g348
I4
tp505
a(I12
I15
I0
S'great'
p506
I4
tp507
a(I14
I6
F0.5
g271
I4
tp508
a(I14
I24
F0.5
g273
I4
tp509
a(I14
I26
F0.125
g319
I4
tp510
a(I14
I28
F0.5
g235
I4
tp511
a(I14
I28
F0.125
g237
I4
tp512
a(I14
I38
F0.5
g239
I4
tp513
a(I15
I4
F0.5
g241
I4
tp514
a(I15
I4
F0.125
g243
I4
tp515
a(I15
I28
I0
S'later'
p516
I4
tp517
a(I15
I62
F0.125
g356
I4
tp518
a(I15
I63
F0.125
S'last'
p519
I4
tp520
a(I15
I64
F0.125
g325
I4
tp521
a(I15
I70
F0.125
g327
I4
tp522
a(I15
I76
F0.5
g280
I4
tp523
a(I15
I80
F0.5
g282
I4
tp524
a(I15
I86
I0
S'funny'
p525
I4
tp526
a(I15
I102
F0.5
g245
I4
tp527
a(I15
I177
F0.5
g285
I4
tp528
a(I15
I185
I0
S'more'
p529
I4
tp530
a(I15
I234
F1.0
S'better'
p531
I4
tp532
a(I15
I235
I0
S'third'
p533
I4
tp534
a(I15
I244
F-0.75
S'single'
p535
I4
tp536
a(I15
I244
F1.0
S'best'
p537
I4
tp538
a(I16
I16
F0.125
g329
I4
tp539
a(I16
I30
I0
S'funny'
p540
I4
tp541
a(I16
I36
F0.125
g361
I4
tp542
a(I16
I45
F-0.625
S'other'
p543
I4
tp544
a(I16
I57
F-0.625
S'bad'
p545
I4
tp546
a(I16
I58
F1.0
S'best'
p547
I4
tp548
a(I16
I61
I0
S'third'
p549
I4
tp550
a(I16
I104
F1.0
g363
I4
tp551
a(I16
I104
F0.125
g365
I4
tp552
a(I0
I5
I0
S'entire'
p553
I0
tp554
a(I0
I13
I0
S'different'
p555
I0
tp556
a(I0
I13
F-0.5
S'try'
p557
I0
tp558
a(I1
I12
I0
S'close'
p559
I0
tp560
a(I3
I25
F1.0
g440
I0
tp561
a(I3
I42
F0.375
S'honest'
p562
I0
tp563
a(I5
I45
I0
S'awhile'
p564
I0
tp565
a(I5
I91
F-0.75
S'short'
p566
I0
tp567
a(I5
I91
I0
S'great'
p568
I0
tp569
a(I5
I129
F1.0
S'best'
p570
I0
tp571
a(I5
I132
F0.625
S'successful'
p572
I0
tp573
a(I8
I23
F0.125
S'last'
p574
I0
tp575
a(I8
I80
I0
S'fanatic'
p576
I0
tp577
a(I9
I9
F0.125
S'first'
p578
I0
tp579
a(I11
I2
I0
S'such'
p580
I0
tp581
a(I12
I25
F-0.625
S'glad'
p582
I0
tp583
a(I14
I37
F-0.75
S'difficult'
p584
I0
tp585
a(I14
I52
I0
S'real'
p586
I0
tp587
a(I15
I182
F0.5
S'true'
p588
I0
tp589
a(I15
I252
I0
S'funny'
p590
I0
tp591
a(I16
I20
I0
S'entire'
p592
I0
tp593
a(I16
I33
I0
g450
I0
tp594
a(I17
I6
F0.625
S'perfect'
p595
I0
tp596
as(S'smartphone'
p597
tp598
(lp599
(I3
I28
F1.0
S'best'
p600
I0
tp601
a(I5
I33
F0.375
S'new'
p602
I0
tp603
a(I7
I38
I0
S'such'
p604
I0
tp605
a(I7
I46
F-0.75
S'comfortable'
p606
I0
tp607
a(I11
I47
F-0.625
S'other'
p608
I0
tp609
a(I15
I146
F0.125
S'first'
p610
I0
tp611
as(S'hospital'
p612
tp613
(lp614
(I5
I93
I0
S'many'
p615
I0
tp616
a(I14
I34
I0
S'real'
p617
I0
tp618
as(S'windows'
p619
S'mobile'
p620
tp621
(lp622
(I5
I18
I0
S'own'
p623
I0
tp624
a(I7
I38
F-0.625
S'other'
p625
I0
tp626
a(I5
I18
I0
g623
I0
tp627
a(I7
I38
F-0.625
g625
I0
tp628
a(I13
I7
F0.5
S'functional'
p629
I0
tp630
as(S'character'
p631
tp632
(lp633
(I1
I10
F0.25
S'main'
p634
I3
tp635
a(I5
I49
I0
S'more'
p636
I3
tp637
a(I5
I49
F0.375
S'interesting'
p638
I3
tp639
a(I5
I131
I0
S'third'
p640
I3
tp641
a(I9
I19
I0
S'human'
p642
I3
tp643
a(I15
I59
I0
S'different'
p644
I3
tp645
as(S'guest'
p646
S'stars'
p647
tp648
(lp649
(I5
I45
I0
S'guest'
p650
I0
tp651
a(I15
I138
I0
S'guest'
p652
I0
tp653
a(I15
I138
F0.875
S'music'
p654
I0
tp655
as.