(dp0
(S'speaker'
p1
tp2
(lp3
(I6
I29
I0
S'rear'
p4
I8
tp5
a(I8
I19
F0.875
S'music'
p6
I8
tp7
a(I9
I8
F0.5
S'clear'
p8
I8
tp9
a(I9
I50
F0.875
S'nice'
p10
I8
tp11
as(S'resolution'
p12
tp13
(lp14
(I1
I123
I0
S'high'
p15
I1
tp16
a(I1
I131
F-0.25
S'low'
p17
I1
tp18
a(I1
I158
F-0.25
S'higher'
p19
I1
tp20
a(I7
I22
F0.5
S'reasonable'
p21
I1
tp22
a(I7
I29
F0.5
S'reasonable'
p23
I1
tp24
a(I8
I38
I0
S'high'
p25
I1
tp26
a(I9
I17
F-0.25
S'lower'
p27
I1
tp28
a(I9
I53
F0.75
S'beautiful'
p29
I1
tp30
as(S'usb'
p31
S'cable'
p32
tp33
(lp34
(I1
I30
I0
S'cable'
p35
I2
tp36
a(I2
I24
F-0.5
S'separate'
p37
I2
tp38
as(S'keys'
p39
tp40
(lp41
(I1
I78
F0.875
S'happy'
p42
I9
tp43
a(I1
I81
F-0.75
S'unresponsive'
p44
I9
tp45
a(I1
I218
F-0.375
S'small'
p46
I9
tp47
a(I8
I25
I0
S'soft'
p48
I9
tp49
a(I8
I45
I0
S'soft'
p50
I9
tp51
a(I8
I46
I0
S'soft'
p52
I9
tp53
a(I8
I46
F0.375
S'available'
p54
I9
tp55
a(I8
I46
I0
S'soft'
p56
I9
tp57
as(S'ring'
p58
S'tones'
p59
tp60
(lp61
(I1
I145
I0
S'own'
p62
I0
tp63
a(I2
I8
I0
S'own'
p64
I0
tp65
a(I2
I13
F0.375
S'new'
p66
I0
tp67
as(S'sony'
p68
S'ericsson'
p69
tp70
(lp71
(I1
I125
I0
S'many'
p72
I0
tp73
a(I1
I125
F-0.625
S'other'
p74
I0
tp75
a(I2
I0
F-0.625
S'other'
p76
I0
tp77
a(I1
I49
I0
S'real'
p78
I5
tp79
a(I1
I125
I0
g72
I5
tp80
a(I1
I125
F-0.625
g74
I5
tp81
a(I2
I0
F-0.625
g76
I5
tp82
a(I7
I33
F0.375
S'new'
p83
I5
tp84
a(I8
I11
I0
S'old'
p85
I5
tp86
a(I8
I28
F0.5
S'expensive'
p87
I5
tp88
as(S'games'
p89
tp90
(lp91
(I1
I193
I0
S'great'
p92
I19
tp93
a(I1
I194
I0
S'3d'
p94
I19
tp95
a(I5
I9
I0
S'3d'
p96
I19
tp97
a(I5
I9
I0
S'such'
p98
I19
tp99
a(I5
I9
I0
S'3d'
p100
I19
tp101
a(I5
I25
F-0.625
S'bad'
p102
I19
tp103
as(S'bluetooth'
p104
tp105
(lp106
(I6
I15
F1.0
S'good'
p107
I3
tp108
as(S'reception'
p109
tp110
(lp111
(I0
I0
F1.0
S'good'
p112
I0
tp113
a(I1
I126
F1.0
S'good'
p114
I0
tp115
a(I3
I25
F1.0
S'good'
p116
I0
tp117
a(I6
I20
F1.0
S'better'
p118
I0
tp119
a(I6
I20
I0
S'more'
p120
I0
tp121
as(S'camera'
p122
S'lens'
p123
S'cover'
p124
tp125
(lp126
(I1
I110
F0.625
S'easy'
p127
I0
tp128
a(I1
I218
F-0.375
S'small'
p129
I0
tp130
a(I1
I218
F0.125
S'digital'
p131
I0
tp132
a(I9
I4
F-0.5
S'open'
p133
I0
tp134
a(I1
I85
F-0.5
S'flimsy'
p135
I0
tp136
a(I1
I110
F0.625
g127
I0
tp137
a(I8
I65
F0.875
S'nice'
p138
I0
tp139
a(I9
I4
F-0.5
g133
I0
tp140
a(I1
I218
F-0.375
g129
I0
tp141
a(I1
I218
F0.125
g131
I0
tp142
a(I2
I16
F-0.5
S'open'
p143
I0
tp144
a(I7
I83
I0
S'slid'
p145
I0
tp146
a(I2
I16
F-0.5
g143
I2
tp147
a(I7
I83
I0
g145
I2
tp148
a(I8
I65
F0.875
g138
I2
tp149
a(I1
I28
F0.125
S'digital'
p150
I1
tp151
a(I1
I68
F-0.5
S'separate'
p152
I1
tp153
a(I1
I83
I0
S'great'
p154
I1
tp155
a(I1
I86
F0.25
S'responsive'
p156
I1
tp157
a(I1
I107
F1.0
S'good'
p158
I1
tp159
a(I1
I121
F0.375
S'similar'
p160
I1
tp161
a(I1
I137
I0
S'such'
p162
I1
tp163
a(I1
I181
F-0.125
S'overall'
p164
I1
tp165
a(I1
I181
F1.0
S'good'
p166
I1
tp167
a(I1
I183
F0.125
S'digital'
p168
I1
tp169
a(I1
I186
F0.5
S'so-so'
p170
I1
tp171
a(I1
I188
F0.25
S'portable'
p172
I1
tp173
a(I1
I218
F-0.375
g129
I1
tp174
a(I1
I218
F0.125
g131
I1
tp175
a(I2
I12
F-0.75
S'bright'
p176
I1
tp177
a(I2
I12
F1.0
S'best'
p178
I1
tp179
a(I2
I53
F1.0
S'good'
p180
I1
tp181
a(I3
I9
F1.0
S'best'
p182
I1
tp183
a(I3
I11
F0.125
S'digital'
p184
I1
tp185
a(I3
I15
F1.0
S'good'
p186
I1
tp187
a(I3
I17
F0.625
S'easy'
p188
I1
tp189
a(I3
I20
I0
S'more'
p190
I1
tp191
a(I3
I23
I0
S'great'
p192
I1
tp193
a(I3
I46
I0
S'great'
p194
I1
tp195
a(I3
I69
F0.5
S'drive'
p196
I1
tp197
a(I7
I61
F1.0
S'good'
p198
I1
tp199
a(I7
I80
F1.0
S'good'
p200
I1
tp201
a(I7
I93
I0
S'real'
p202
I1
tp203
a(I8
I12
F0.5
S'whole'
p204
I1
tp205
a(I8
I17
F0.5
S'true'
p206
I1
tp207
a(I8
I17
F0.125
S'digital'
p208
I1
tp209
a(I8
I41
F1.0
S'good'
p210
I1
tp211
a(I9
I14
F1.0
S'good'
p212
I1
tp213
a(I9
I27
I0
S'great'
p214
I1
tp215
as(S'memory'
p216
S'stick'
p217
S'micro'
p218
tp219
(lp220
(I1
I22
F0.5
S'expensive'
p221
I0
tp222
a(I7
I63
F0.375
S'new'
p223
I0
tp224
a(I1
I22
F0.5
g221
I0
tp225
a(I1
I147
F-0.75
S'sufficient'
p226
I0
tp227
a(I7
I63
F0.375
g223
I0
tp228
a(I1
I22
F0.5
g221
I5
tp229
a(I7
I63
F0.375
g223
I5
tp230
a(I9
I36
F0.375
S'extra'
p231
I5
tp232
as(S'pocket'
p233
tp234
(lp235
(I7
I83
F0.625
S'easy'
p236
I17
tp237
a(I8
I61
F-0.75
S'comfortable'
p238
I17
tp239
as(S'music'
p240
tp241
(lp242
(I1
I145
F0.875
S'music'
p243
I0
tp244
a(I3
I65
F1.0
S'best'
p245
I0
tp246
as(S'radio'
p247
tp248
(lp249
(I1
I112
F1.0
S'good'
p250
I0
tp251
as(S'sound'
p252
tp253
(lp254
(I1
I100
F-0.625
S'average'
p255
I7
tp256
a(I1
I126
I0
S'great'
p257
I7
tp258
a(I1
I126
I0
S'large'
p259
I7
tp260
a(I1
I207
I0
S'close'
p261
I7
tp262
a(I9
I7
F0.875
S'nice'
p263
I7
tp264
as(S'picture'
p265
S'quality'
p266
tp267
(lp268
(I1
I126
F1.0
S'good'
p269
I1
tp270
a(I2
I6
F0.875
S'music'
p271
I1
tp272
a(I2
I53
I0
S'high'
p273
I1
tp274
a(I6
I9
I0
S'great'
p275
I1
tp276
a(I7
I37
F0.875
S'nice'
p277
I1
tp278
as(S'w800i'
p279
tp280
(lp281
(I1
I123
F-0.5
S'less'
p282
I0
tp283
a(I5
I3
F-0.5
S'heavier'
p284
I0
tp285
as(S'internet'
p286
tp287
(lp288
(I1
I37
I0
S'fastest'
p289
I6
tp290
a(I1
I125
F0.625
S'easy'
p291
I6
tp292
a(I1
I134
I-100
S'fly-high-speed'
p293
I6
tp294
a(I1
I134
I-100
S'laptop-unique'
p295
I6
tp296
a(I5
I12
F-0.5
S'sure'
p297
I6
tp298
a(I8
I24
I-100
S'either.-despite'
p299
I6
tp300
as(S'digital'
p301
S'camera'
p302
tp303
(lp304
(I1
I28
F0.125
g150
I1
tp305
a(I1
I122
F-0.75
S'bright'
p306
I1
tp307
a(I1
I183
F0.125
g168
I1
tp308
a(I1
I218
F-0.375
g129
I1
tp309
a(I1
I218
F0.125
g131
I1
tp310
a(I2
I30
I0
S'real'
p311
I1
tp312
a(I3
I11
F0.125
g184
I1
tp313
a(I3
I20
I0
g190
I1
tp314
a(I3
I20
I0
S'real'
p315
I1
tp316
a(I7
I61
F1.0
g198
I1
tp317
a(I8
I17
F0.5
g206
I1
tp318
a(I8
I17
F0.125
g208
I1
tp319
a(I9
I16
F-0.5
S'regular'
p320
I1
tp321
a(I1
I122
F-0.75
g306
I3
tp322
a(I2
I30
I0
g311
I3
tp323
a(I3
I20
I0
g315
I3
tp324
a(I9
I16
F-0.5
g320
I3
tp325
as(S'much'
p326
S'better'
p327
tp328
(lp329
(I1
I95
F0.375
S'much'
p330
I9
tp331
a(I8
I30
F0.375
S'much'
p332
I9
tp333
as(S'xenon'
p334
S'flash'
p335
tp336
(lp337
(I5
I22
I0
S'useful'
p338
I0
tp339
a(I5
I22
I0
S'normal'
p340
I0
tp341
a(I5
I22
F0.5
S'stronger'
p342
I0
tp343
a(I5
I25
F0.5
S'strong'
p344
I0
tp345
a(I5
I22
I0
g338
I2
tp346
a(I5
I22
I0
g340
I2
tp347
a(I5
I25
F0.5
g344
I2
tp348
a(I6
I26
F-0.375
S'top'
p349
I2
tp350
a(I9
I16
F1.0
S'good'
p351
I2
tp352
a(I9
I16
F-0.375
S'smaller'
p353
I2
tp354
a(I9
I44
F1.0
S'good'
p355
I2
tp356
a(I9
I44
F0.5
S'strong'
p357
I2
tp358
as(S'headphones'
p359
tp360
(lp361
(I1
I21
F0.375
S'new'
p362
I0
tp363
a(I8
I22
I0
S'own'
p364
I0
tp365
as(S'k790a'
p366
tp367
(lp368
(I3
I11
F0.125
S'capable'
p369
I0
tp370
as(S'mp3'
p371
S'player'
p372
tp373
(lp374
(I0
I0
I0
S'local'
p375
I1
tp376
a(I1
I9
I0
S'useful'
p377
I1
tp378
a(I1
I147
F0.875
S'nice'
p379
I1
tp380
a(I3
I31
I0
S'great'
p381
I1
tp382
a(I3
I49
I0
S'great'
p383
I1
tp384
a(I3
I49
F0.875
S'music'
p385
I1
tp386
a(I6
I16
F0.375
S'much'
p387
I1
tp388
a(I1
I9
I0
g377
I6
tp389
a(I1
I147
F0.875
g379
I6
tp390
a(I3
I31
I0
g381
I6
tp391
a(I3
I49
I0
g383
I6
tp392
a(I3
I49
F0.875
g385
I6
tp393
as.