(dp0
(S'numbers'
p1
tp2
(lp3
(I1
I144
I0
S'old'
p4
I11
tp5
a(I4
I40
I0
S'different'
p6
I11
tp7
a(I7
I29
I0
S'many'
p8
I11
tp9
a(I7
I136
I0
S'dial'
p10
I11
tp11
a(I11
I85
F0.375
S'new'
p12
I11
tp13
a(I11
I86
I0
S'old'
p14
I11
tp15
a(I11
I86
F0.375
S'new'
p16
I11
tp17
a(I14
I5
I0
S'multiple'
p18
I11
tp19
a(I16
I75
I0
S's/n'
p20
I11
tp21
a(I25
I195
F1.0
S'better'
p22
I11
tp23
as(S'loud'
p24
tp25
(lp26
(I7
I159
F0.625
S'easy'
p27
I10
tp28
a(I13
I33
F0.5
S'clear'
p29
I10
tp30
a(I14
I90
F0.5
S'clear'
p31
I10
tp32
a(I25
I181
F0.5
S'clear'
p33
I10
tp34
as(S'talk'
p35
S'time'
p36
tp37
(lp38
(I4
I18
F0.125
S'first'
p39
I0
tp40
a(I4
I18
F-0.25
S'low'
p41
I0
tp42
a(I11
I38
F-0.5
S'less'
p43
I0
tp44
a(I25
I132
F-0.5
S'less'
p45
I0
tp46
a(I26
I7
I0
S'great'
p47
I0
tp48
a(I26
I7
I0
S'unbelievable'
p49
I0
tp50
as(S'charging'
p51
tp52
(lp53
(I1
I148
I0
S'third'
p54
I12
tp55
a(I10
I40
I0
S'most'
p56
I12
tp57
a(I16
I12
F-0.875
S'awful'
p58
I12
tp59
a(I16
I72
F0.75
S'constant'
p60
I12
tp61
as(S'ring'
p62
S'tones'
p63
tp64
(lp65
(I1
I257
F1.0
S'good'
p66
I0
tp67
a(I3
I19
I-100
S'double-charged'
p68
I0
tp69
a(I8
I64
F1.0
S'better'
p70
I0
tp71
a(I8
I64
F-0.5
S'longer'
p72
I0
tp73
a(I16
I102
I0
S'different'
p74
I0
tp75
a(I22
I150
F-0.875
S'hard'
p76
I0
tp77
a(I23
I8
I0
S'different'
p78
I0
tp79
a(I23
I86
I0
S'great'
p80
I0
tp81
as(S'belt'
p82
S'clip'
p83
tp84
(lp85
(I7
I34
F-0.125
S'mine'
p86
I0
tp87
a(I11
I190
I0
S'fourth'
p88
I0
tp89
a(I11
I190
I0
S'plastic'
p90
I0
tp91
a(I11
I194
F1.0
S'best'
p92
I0
tp93
a(I24
I139
F-0.5
S'sure'
p94
I0
tp95
as(S'camera'
p96
S'and'
p97
S'video'
p98
tp99
(lp100
(I2
I23
F0.125
S'digital'
p101
I0
tp102
a(I7
I46
F1.0
S'best'
p103
I0
tp104
a(I7
I300
F1.0
S'good'
p105
I0
tp106
a(I8
I64
F1.0
S'best'
p107
I0
tp108
a(I13
I117
F1.0
S'good'
p109
I0
tp110
a(I13
I117
F-0.5
S'poor'
p111
I0
tp112
a(I13
I117
F-0.625
S'light'
p113
I0
tp114
a(I15
I54
I0
S'great'
p115
I0
tp116
a(I15
I54
I0
S'cool'
p117
I0
tp118
a(I22
I148
F1.0
S'good'
p119
I0
tp120
a(I25
I308
F0.5
S'touch'
p121
I0
tp122
a(I1
I216
F0.625
S'interested'
p123
I1
tp124
a(I2
I23
F0.125
g101
I1
tp125
a(I4
I2
I0
S'along'
p126
I1
tp127
a(I4
I53
F-0.625
S'other'
p128
I1
tp129
a(I4
I53
I0
S'soft'
p130
I1
tp131
a(I4
I53
F0.125
S'key'
p132
I1
tp133
a(I6
I67
F0.875
S'nice'
p134
I1
tp135
a(I7
I244
I0
S'integrated'
p136
I1
tp137
a(I8
I64
F1.0
g107
I1
tp138
a(I10
I15
I0
S'cool'
p139
I1
tp140
a(I11
I65
F1.0
S'better'
p141
I1
tp142
a(I14
I91
F0.875
S'nice'
p143
I1
tp144
a(I14
I91
F0.625
S'easy'
p145
I1
tp146
a(I14
I145
F1.0
S'good'
p147
I1
tp148
a(I15
I54
I0
g115
I1
tp149
a(I18
I22
F0.375
S'much'
p150
I1
tp151
a(I19
I5
F0.625
S'easy'
p152
I1
tp153
a(I19
I29
I0
S'great'
p154
I1
tp155
a(I22
I104
F-0.75
S'wrong'
p156
I1
tp157
a(I22
I137
F0.625
S'easy'
p158
I1
tp159
a(I23
I65
F0.875
S'nice'
p160
I1
tp161
a(I24
I69
F1.0
S'good'
p162
I1
tp163
a(I25
I24
F-0.625
S'other'
p164
I1
tp165
a(I25
I39
F0.125
S'first'
p166
I1
tp167
a(I25
I66
I0
S'real'
p168
I1
tp169
a(I25
I185
F0.125
S'digital'
p170
I1
tp171
a(I25
I216
I0
S'great'
p172
I1
tp173
a(I26
I14
F-0.75
S'care'
p174
I1
tp175
a(I26
I14
F0.375
S'much'
p176
I1
tp177
as(S'short'
p178
S'battery'
p179
S'life'
p180
tp181
(lp182
(I8
I61
F-0.75
S'short'
p183
I0
tp184
a(I9
I28
F-0.75
S'short'
p185
I0
tp186
a(I13
I152
F-0.75
S'short'
p187
I0
tp188
a(I21
I15
F-0.75
S'short'
p189
I0
tp190
a(I23
I53
F-0.75
S'short'
p191
I0
tp192
a(I1
I69
F-0.5
S'suspect'
p193
I1
tp194
a(I1
I136
F0.375
S'new'
p195
I1
tp196
a(I2
I39
F-0.625
S'average'
p197
I1
tp198
a(I3
I89
F-0.125
S'mine'
p199
I1
tp200
a(I6
I5
I0
S'most'
p201
I1
tp202
a(I6
I5
F1.0
S'good'
p203
I1
tp204
a(I6
I5
I0
S'least'
p205
I1
tp206
a(I7
I44
I0
S'minimal'
p207
I1
tp208
a(I7
I142
F0.625
S'superior'
p209
I1
tp210
a(I7
I168
F0.875
S'important'
p211
I1
tp212
a(I7
I181
F1.0
S'good'
p213
I1
tp214
a(I7
I303
F0.5
S'satisfactory'
p215
I1
tp216
a(I7
I310
F1.0
S'better'
p217
I1
tp218
a(I8
I54
F1.0
S'good'
p219
I1
tp220
a(I8
I61
F-0.75
g183
I1
tp221
a(I9
I28
F-0.75
g185
I1
tp222
a(I11
I34
F1.0
S'good'
p223
I1
tp224
a(I11
I196
F1.0
S'good'
p225
I1
tp226
a(I13
I152
F-0.75
g187
I1
tp227
a(I14
I1
F-0.5
S'poor'
p228
I1
tp229
a(I21
I15
F-0.75
g189
I1
tp230
a(I22
I2
F1.0
S'good'
p231
I1
tp232
a(I22
I33
F-0.625
S'bad'
p233
I1
tp234
a(I22
I134
F1.0
S'good'
p235
I1
tp236
a(I22
I134
F0.5
S'true'
p237
I1
tp238
a(I23
I53
F-0.75
g191
I1
tp239
a(I23
I79
F1.0
S'better'
p240
I1
tp241
a(I24
I9
F0.5
S'second'
p242
I1
tp243
a(I25
I129
F0.25
S'powerful'
p244
I1
tp245
a(I25
I210
F-0.5
S'poor'
p246
I1
tp247
a(I25
I239
F0.5
S'strong'
p248
I1
tp249
a(I25
I311
F1.0
S'good'
p250
I1
tp251
a(I1
I69
F-0.5
g193
I19
tp252
a(I2
I39
F-0.625
g197
I19
tp253
a(I3
I55
F-0.625
S'bad'
p254
I19
tp255
a(I3
I89
F-0.125
g199
I19
tp256
a(I6
I5
I0
g201
I19
tp257
a(I6
I5
F1.0
g203
I19
tp258
a(I6
I5
I0
g205
I19
tp259
a(I7
I168
F0.875
g211
I19
tp260
a(I7
I303
F0.5
g215
I19
tp261
a(I8
I54
F1.0
g219
I19
tp262
a(I13
I152
F-0.75
g187
I19
tp263
a(I18
I180
F1.0
S'best'
p264
I19
tp265
a(I22
I2
F1.0
g231
I19
tp266
a(I22
I33
F-0.625
g233
I19
tp267
a(I22
I134
F1.0
g235
I19
tp268
a(I22
I134
F0.5
g237
I19
tp269
a(I25
I311
F1.0
g250
I19
tp270
a(I1
I130
F-0.75
S'dead'
p271
I15
tp272
a(I1
I130
F-0.625
S'wall'
p273
I15
tp274
a(I1
I136
F0.375
g195
I15
tp275
a(I1
I139
F0.125
S'last'
p276
I15
tp277
a(I1
I139
F-0.5
S'long'
p278
I15
tp279
a(I4
I16
I0
S'standard'
p280
I15
tp281
a(I4
I20
F0.375
S'extended'
p282
I15
tp283
a(I7
I44
I0
g207
I15
tp284
a(I7
I72
I0
S'full'
p285
I15
tp286
a(I7
I89
F0.625
S'acceptable'
p287
I15
tp288
a(I7
I142
F0.625
g209
I15
tp289
a(I7
I181
F1.0
g213
I15
tp290
a(I7
I252
F-0.25
S'low'
p291
I15
tp292
a(I7
I310
F1.0
g217
I15
tp293
a(I8
I61
F-0.75
g183
I15
tp294
a(I9
I28
F-0.75
g185
I15
tp295
a(I10
I20
F-0.75
S'dry'
p296
I15
tp297
a(I10
I40
I0
S'more'
p298
I15
tp299
a(I11
I34
F1.0
g223
I15
tp300
a(I11
I91
F0.125
S'first'
p301
I15
tp302
a(I11
I148
F-0.75
S'dead'
p303
I15
tp304
a(I11
I196
F1.0
g225
I15
tp305
a(I13
I43
I0
S'more'
p306
I15
tp307
a(I13
I51
I0
S'great'
p308
I15
tp309
a(I13
I60
I0
S'great'
p310
I15
tp311
a(I14
I1
F-0.5
g228
I15
tp312
a(I14
I34
F-0.75
S'dead'
p313
I15
tp314
a(I15
I8
F-0.625
S'other'
p315
I15
tp316
a(I15
I8
I0
S'full'
p317
I15
tp318
a(I18
I103
F-0.75
S'dead'
p319
I15
tp320
a(I18
I105
F-0.75
S'dead'
p321
I15
tp322
a(I18
I107
F-0.75
S'dead'
p323
I15
tp324
a(I19
I12
F0.5
S'strong'
p325
I15
tp326
a(I21
I15
F-0.75
g189
I15
tp327
a(I21
I24
F-0.625
S'bad'
p328
I15
tp329
a(I22
I32
I0
S'more'
p330
I15
tp331
a(I23
I53
F-0.75
g191
I15
tp332
a(I23
I63
F0.375
S'new'
p333
I15
tp334
a(I23
I79
F1.0
g240
I15
tp335
a(I24
I9
F0.5
g242
I15
tp336
a(I24
I59
F-0.625
S'clean'
p337
I15
tp338
a(I24
I88
F-0.75
S'dead'
p339
I15
tp340
a(I25
I126
F0.375
S'much'
p341
I15
tp342
a(I25
I129
F0.25
g244
I15
tp343
a(I25
I210
F-0.5
g246
I15
tp344
a(I25
I239
F0.5
g248
I15
tp345
a(I25
I312
F-0.5
S'longer'
p346
I15
tp347
as(S'and'
p348
S'dropped'
p349
S'calls'
p350
tp351
(lp352
(I3
I148
I0
S'many'
p353
I0
tp354
a(I7
I43
I0
S'fewer'
p355
I0
tp356
a(I7
I238
F-0.5
S'less'
p357
I0
tp358
a(I7
I337
I0
S'few'
p359
I0
tp360
a(I7
I337
F-0.25
S'dropped'
p361
I0
tp362
a(I7
I338
F-0.25
S'dropped'
p363
I0
tp364
a(I7
I355
F-0.625
S'impractical'
p365
I0
tp366
a(I9
I4
F0.5
S'touch'
p367
I0
tp368
a(I10
I28
F-0.25
S'dropped'
p369
I0
tp370
a(I10
I28
F0.75
S'due'
p371
I0
tp372
a(I13
I113
F-0.25
S'dropped'
p373
I0
tp374
a(I14
I9
F-0.25
S'dropped'
p375
I0
tp376
a(I18
I1
F-0.25
S'dropped'
p377
I0
tp378
a(I19
I23
F-0.25
S'dropped'
p379
I0
tp380
a(I23
I69
F-0.25
S'dropped'
p381
I0
tp382
a(I25
I57
I0
S'more'
p383
I0
tp384
as(S'motorola'
p385
S'v551'
p386
tp387
(lp388
(I3
I76
I0
S'such'
p389
I0
tp390
a(I6
I7
F-0.75
S'wrong'
p391
I0
tp392
a(I11
I15
F0.5
S'told'
p393
I0
tp394
a(I11
I15
F1.0
S'best'
p395
I0
tp396
a(I18
I72
F1.0
S'better'
p397
I0
tp398
a(I18
I72
F0.125
S'last'
p399
I0
tp400
a(I24
I121
I0
S'many'
p401
I0
tp402
a(I25
I230
F-0.125
S'overall'
p403
I0
tp404
a(I2
I93
F-0.875
S'inferior'
p405
I0
tp406
a(I3
I113
F0.875
S'nice'
p407
I0
tp408
a(I6
I50
F-0.25
S'direct'
p409
I0
tp410
a(I9
I21
F-0.125
S'overall'
p411
I0
tp412
a(I11
I15
F1.0
g395
I0
tp413
a(I13
I76
F0.5
S'second'
p414
I0
tp415
a(I15
I67
F0.75
S'consider'
p416
I0
tp417
a(I15
I117
F-0.625
S'other'
p418
I0
tp419
a(I18
I72
F1.0
g397
I0
tp420
a(I18
I145
F0.5
S'second'
p421
I0
tp422
a(I21
I29
F0.375
S'new'
p423
I0
tp424
a(I21
I29
F0.125
S'last'
p425
I0
tp426
a(I22
I41
F1.0
S'good'
p427
I0
tp428
a(I22
I63
F0.375
S'new'
p429
I0
tp430
a(I22
I90
I0
S'own'
p431
I0
tp432
a(I24
I121
I0
g401
I0
tp433
a(I1
I36
I0
S'more'
p434
I0
tp435
a(I2
I94
F0.5
S'second'
p436
I0
tp437
a(I3
I76
I0
g389
I0
tp438
a(I3
I148
F-0.625
S'other'
p439
I0
tp440
a(I6
I7
F-0.75
g391
I0
tp441
a(I7
I40
F1.0
S'best'
p442
I0
tp443
a(I7
I260
F1.0
S'best'
p444
I0
tp445
a(I7
I320
F0.25
S'familiar'
p446
I0
tp447
a(I10
I60
F-0.625
S'other'
p448
I0
tp449
a(I11
I15
F0.5
g393
I0
tp450
a(I11
I117
F0.125
S'first'
p451
I0
tp452
a(I12
I17
I-100
S'v500-line'
p453
I0
tp454
a(I14
I86
F0.375
S'new'
p455
I0
tp456
a(I15
I47
F0.5
S'second'
p457
I0
tp458
a(I16
I75
I0
S'website'
p459
I0
tp460
a(I16
I106
F0.625
S'easy'
p461
I0
tp462
a(I18
I10
I0
S'nt'
p463
I0
tp464
a(I18
I10
F0.75
S'give'
p465
I0
tp466
a(I18
I28
F-0.5
S'poor'
p467
I0
tp468
a(I18
I29
F-0.625
S'other'
p469
I0
tp470
a(I18
I72
F0.125
g399
I0
tp471
a(I22
I22
I0
S'most'
p472
I0
tp473
a(I23
I21
I0
S'many'
p474
I0
tp475
a(I23
I61
I0
S'third'
p476
I0
tp477
a(I24
I112
I0
S'latest'
p478
I0
tp479
a(I25
I4
F-0.375
S'disable'
p480
I0
tp481
a(I25
I22
I0
S'most'
p482
I0
tp483
a(I25
I26
F0.125
S'typical'
p484
I0
tp485
a(I25
I26
F-0.625
S'other'
p486
I0
tp487
a(I25
I129
I0
S'researched'
p488
I0
tp489
a(I25
I230
F-0.125
g403
I0
tp490
as(S'reception'
p491
tp492
(lp493
(I1
I157
I0
S'great'
p494
I0
tp495
a(I1
I264
F-0.75
S'unable'
p496
I0
tp497
a(I3
I44
I0
S'full'
p498
I0
tp499
a(I3
I155
F1.0
S'good'
p500
I0
tp501
a(I7
I158
F0.5
S'clear'
p502
I0
tp503
a(I7
I241
F1.0
S'good'
p504
I0
tp505
a(I7
I279
F-0.5
S'poor'
p506
I0
tp507
a(I7
I303
I0
S'great'
p508
I0
tp509
a(I7
I311
F0.5
S'clear'
p510
I0
tp511
a(I8
I28
F1.0
S'good'
p512
I0
tp513
a(I8
I64
I0
S'great'
p514
I0
tp515
a(I10
I41
F-0.875
S'hard'
p516
I0
tp517
a(I10
I41
F1.0
S'good'
p518
I0
tp519
a(I11
I31
F-0.625
S'bad'
p520
I0
tp521
a(I11
I31
I0
S'most'
p522
I0
tp523
a(I13
I49
F1.0
S'good'
p524
I0
tp525
a(I13
I62
I0
S'great'
p526
I0
tp527
a(I13
I159
I0
S'trade-off'
p528
I0
tp529
a(I14
I20
F0.625
S'superior'
p530
I0
tp531
a(I14
I77
I0
S'signal'
p532
I0
tp533
a(I14
I110
I0
S'basic'
p534
I0
tp535
a(I14
I120
F1.0
S'good'
p536
I0
tp537
a(I15
I106
I0
S'full'
p538
I0
tp539
a(I16
I14
F-0.5
S'poor'
p540
I0
tp541
a(I16
I14
F0.75
S'due'
p542
I0
tp543
a(I18
I1
F-0.625
S'bad'
p544
I0
tp545
a(I18
I87
F-0.5
S'poor'
p546
I0
tp547
a(I19
I23
F-0.5
S'poor'
p548
I0
tp549
a(I19
I30
F1.0
S'good'
p550
I0
tp551
a(I20
I0
F-0.5
S'poor'
p552
I0
tp553
a(I21
I36
I0
S'phenomenal'
p554
I0
tp555
a(I22
I83
F-0.5
S'poor'
p556
I0
tp557
a(I22
I93
F-0.5
S'poor'
p558
I0
tp559
a(I22
I107
F1.0
S'good'
p560
I0
tp561
a(I22
I134
I0
S'great'
p562
I0
tp563
a(I23
I15
F-0.625
S'bad'
p564
I0
tp565
a(I23
I30
F-0.5
S'poor'
p566
I0
tp567
a(I23
I53
F-0.875
S'awful'
p568
I0
tp569
a(I23
I91
I0
S'adequate'
p570
I0
tp571
a(I23
I159
I0
S'great'
p572
I0
tp573
a(I23
I161
I0
S'most'
p574
I0
tp575
a(I23
I161
F0.875
S'important'
p576
I0
tp577
a(I25
I52
F-0.625
S'bad'
p578
I0
tp579
a(I25
I239
F-0.5
S'poor'
p580
I0
tp581
a(I25
I314
F1.0
S'good'
p582
I0
tp583
as(S'blue'
p584
S'tooth'
p585
tp586
(lp587
(I14
I146
I0
S'blue'
p588
I0
tp589
a(I22
I93
I0
S'blue'
p590
I0
tp591
a(I22
I100
I0
S'great'
p592
I0
tp593
a(I22
I100
I0
S'plastic'
p594
I0
tp595
a(I23
I133
I0
S'blue'
p596
I0
tp597
a(I23
I133
I0
S'blue'
p598
I0
tp599
as(S'a'
p600
S'full'
p601
S'charge'
p602
tp603
(lp604
(I1
I114
I0
S'full'
p605
I0
tp606
a(I7
I79
I0
S'full'
p607
I0
tp608
a(I7
I360
I0
S'full'
p609
I0
tp610
a(I13
I54
I0
S'full'
p611
I0
tp612
a(I15
I24
F-0.75
S'single'
p613
I0
tp614
a(I15
I24
I0
S'full'
p615
I0
tp616
a(I18
I19
I0
S'full'
p617
I0
tp618
a(I18
I19
F-0.75
S'dead'
p619
I0
tp620
a(I24
I10
I0
S'full'
p621
I0
tp622
a(I24
I10
I0
S'full'
p623
I0
tp624
a(I25
I31
F0.125
S'first'
p625
I0
tp626
as(S'alarm'
p627
S'clock'
p628
tp629
(lp630
(I19
I9
F0.375
S'available'
p631
I0
tp632
as(S'more'
p633
S'dropped'
p634
S'calls'
p635
tp636
(lp637
(I1
I10
I0
S'more'
p638
I0
tp639
a(I23
I75
I0
S'more'
p640
I0
tp641
a(I25
I57
I0
g383
I0
tp642
as(g600
S'bluetooth'
p643
S'headset'
p644
tp645
(lp646
(I1
I92
I0
S'forth'
p647
I0
tp648
a(I24
I120
F-0.75
S'minor'
p649
I0
tp650
a(I1
I92
I0
g647
I0
tp651
a(I24
I120
F-0.75
g649
I0
tp652
a(I1
I107
F0.125
S'first'
p653
I3
tp654
a(I2
I37
I0
S'cool'
p655
I3
tp656
a(I2
I53
F0.125
S'key'
p657
I3
tp658
a(I3
I140
I0
S'most'
p659
I3
tp660
a(I6
I11
F0.125
S'flaky'
p661
I3
tp662
a(I6
I54
I0
S'more'
p663
I3
tp664
a(I7
I267
F0.875
S'nice'
p665
I3
tp666
a(I9
I20
F-0.75
S'care'
p667
I3
tp668
a(I11
I128
I0
S'next'
p669
I3
tp670
a(I15
I17
F0.125
S'first'
p671
I3
tp672
a(I17
I4
F-0.625
S'average'
p673
I3
tp674
a(I18
I30
I0
S'activate'
p675
I3
tp676
a(I18
I132
F-0.625
S'other'
p677
I3
tp678
a(I25
I17
F0.625
S'easy'
p679
I3
tp680
a(I25
I20
F-0.5
S'sure'
p681
I3
tp682
as(S'charge'
p683
S'every'
p684
S'night'
p685
tp686
(lp687
(I23
I102
F-0.375
S'charge'
p688
I0
tp689
as(S'couple'
p690
S'of'
p691
S'months'
p692
tp693
(lp694
(I25
I285
F0.125
S'last'
p695
I0
tp696
as(S'speakerphone'
p697
tp698
(lp699
(I4
I6
I0
S'activate'
p700
I0
tp701
a(I6
I47
I0
S'crystal'
p702
I0
tp703
a(I6
I47
F0.5
S'clear'
p704
I0
tp705
a(I7
I149
F0.625
S'easy'
p706
I0
tp707
a(I7
I249
F0.5
S'clear'
p708
I0
tp709
a(I13
I119
I0
S'useful'
p710
I0
tp711
a(I21
I35
F1.0
S'best'
p712
I0
tp713
a(I23
I106
I0
S'great'
p714
I0
tp715
a(I23
I140
F1.0
S'best'
p716
I0
tp717
a(I24
I23
F0.5
S'clear'
p718
I0
tp719
as(S'loose'
p720
S'contact'
p721
tp722
(lp723
(I13
I93
I0
S'many'
p724
I0
tp725
as(S'voice'
p726
S'dialing'
p727
tp728
(lp729
(I13
I158
F-0.125
S'universal'
p730
I0
tp731
a(I23
I106
I0
S'great'
p732
I0
tp733
a(I1
I25
I0
S'many'
p734
I4
tp735
a(I1
I96
F-0.25
S'unaware'
p736
I4
tp737
a(I14
I85
I0
S'great'
p738
I4
tp739
a(I23
I106
I0
g732
I4
tp740
a(I23
I132
I0
S'dial'
p741
I4
tp742
a(I25
I182
F0.5
S'second'
p743
I4
tp744
as(S'address'
p745
S'book'
p746
tp747
(lp748
(I1
I242
F0.375
S'address'
p749
I0
tp750
a(I13
I106
I0
S'hierarchical'
p751
I0
tp752
a(I13
I109
F-0.5
S'sure'
p753
I0
tp754
a(I23
I42
F-0.75
S'worse'
p755
I0
tp756
as(S'ringtones'
p757
tp758
(lp759
(I1
I61
F0.5
S'clearer'
p760
I0
tp761
a(I7
I15
I0
S'few'
p762
I0
tp763
a(I7
I15
F0.875
S'nice'
p764
I0
tp765
a(I7
I176
F0.875
S'music'
p766
I0
tp767
a(I8
I51
I0
S'different'
p768
I0
tp769
a(I9
I8
F1.0
S'good'
p770
I0
tp771
a(I11
I107
F0.125
S'enough'
p772
I0
tp773
a(I13
I147
I0
S'most'
p774
I0
tp775
a(I14
I47
I0
S'great'
p776
I0
tp777
a(I14
I156
F0.875
S'nice'
p778
I0
tp779
a(I14
I156
F1.0
S'better'
p780
I0
tp781
a(I14
I156
F0.875
S'nice'
p782
I0
tp783
a(I15
I34
I0
S'few'
p784
I0
tp785
a(I15
I42
I0
S'assign'
p786
I0
tp787
a(I16
I103
F1.0
S'best'
p788
I0
tp789
a(I25
I78
I0
S'next'
p790
I0
tp791
a(I25
I295
F-0.625
S'other'
p792
I0
tp793
a(I26
I12
I0
S'own'
p794
I0
tp795
a(I26
I12
I0
S'great'
p796
I0
tp797
as(S'candy'
p798
S'bar'
p799
tp800
(lp801
(I13
I26
I0
S'old'
p802
I0
tp803
as(S'p'
p804
S'o'
p805
S's'
p806
tp807
(lp808
(I3
I22
F0.125
S'first'
p809
I0
tp810
a(I3
I22
I0
S'initial'
p811
I0
tp812
a(I15
I83
F0.125
S'first'
p813
I0
tp814
a(I15
I83
I0
S'initial'
p815
I0
tp816
as(S'and'
p817
S'battery'
p818
S'life'
p819
tp820
(lp821
(I1
I69
F-0.5
g193
I1
tp822
a(I1
I136
F0.375
g195
I1
tp823
a(I6
I5
I0
g201
I1
tp824
a(I6
I5
F1.0
g203
I1
tp825
a(I6
I5
I0
g205
I1
tp826
a(I7
I44
I0
g207
I1
tp827
a(I7
I142
F0.625
g209
I1
tp828
a(I7
I303
F0.5
g215
I1
tp829
a(I14
I1
F-0.5
g228
I1
tp830
a(I21
I15
F-0.75
g189
I1
tp831
a(I23
I53
F-0.75
g191
I1
tp832
a(I25
I129
F0.25
g244
I1
tp833
a(I25
I210
F-0.5
g246
I1
tp834
a(I25
I239
F0.5
g248
I1
tp835
as(S'caller'
p836
S'id'
p837
tp838
(lp839
(I1
I280
F0.875
S'nice'
p840
I0
tp841
a(I1
I280
F0.125
S'outside'
p842
I0
tp843
a(I21
I14
I0
S'external'
p844
I0
tp845
a(I26
I21
F0.375
S'allow'
p846
I0
tp847
a(I26
I21
I0
S'pic'
p848
I0
tp849
as(S'to'
p850
S'sim'
p851
S'card'
p852
tp853
(lp854
(I10
I52
F0.375
S'new'
p855
I0
tp856
a(I18
I172
I0
S'most'
p857
I0
tp858
a(I10
I52
F0.375
g855
I0
tp859
a(I18
I172
I0
g857
I0
tp860
as(S'nokia'
p861
tp862
(lp863
(I1
I74
I0
S'old'
p864
I0
tp865
a(I1
I113
I0
S'old'
p866
I0
tp867
a(I1
I127
I0
S'old'
p868
I0
tp869
a(I1
I130
I0
S'old'
p870
I0
tp871
a(I1
I242
F0.375
S'flexible'
p872
I0
tp873
a(I3
I85
I0
S'old'
p874
I0
tp875
a(I3
I89
I0
S'old'
p876
I0
tp877
a(I3
I100
F-0.625
S'free'
p878
I0
tp879
a(I3
I107
F-0.5
S'long'
p880
I0
tp881
a(I6
I5
I0
S'old'
p882
I0
tp883
a(I7
I53
F0.625
S'superior'
p884
I0
tp885
a(I8
I62
I0
S'old'
p886
I0
tp887
a(I8
I62
I0
S'old'
p888
I0
tp889
a(I11
I53
I0
S'old'
p890
I0
tp891
a(I11
I112
F1.0
S'better'
p892
I0
tp893
a(I11
I152
I0
S'old'
p894
I0
tp895
a(I13
I31
F0.625
S'easy'
p896
I0
tp897
a(I18
I30
F-0.75
S'unresponsive'
p898
I0
tp899
a(I22
I23
F1.0
S'better'
p900
I0
tp901
a(I23
I164
F0.75
S'worth'
p902
I0
tp903
a(I23
I164
F0.375
S'extra'
p904
I0
tp905
a(I25
I67
I0
S'current'
p906
I0
tp907
a(I25
I84
I0
S'voicemail'
p908
I0
tp909
a(I25
I84
I0
S'dial'
p910
I0
tp911
a(I25
I98
F0.625
S'easy'
p912
I0
tp913
a(I25
I112
F0.125
S'digital'
p914
I0
tp915
a(I25
I253
I0
S'ancient'
p916
I0
tp917
a(I25
I280
I0
S'different'
p918
I0
tp919
as(S'of'
p920
S'dropped'
p921
S'calls'
p922
tp923
(lp924
(I7
I19
F-0.25
S'dropped'
p925
I0
tp926
a(I7
I283
I0
S'many'
p927
I0
tp928
a(I7
I337
I0
g359
I0
tp929
a(I7
I337
F-0.25
g361
I0
tp930
a(I7
I338
F-0.25
g363
I0
tp931
a(I10
I28
F-0.25
g369
I0
tp932
a(I10
I28
F0.75
g371
I0
tp933
a(I13
I113
F-0.25
g373
I0
tp934
a(I17
I28
I0
S'least'
p935
I0
tp936
a(I18
I1
F-0.25
g377
I0
tp937
a(I18
I91
I0
S'many'
p938
I0
tp939
a(I19
I23
F-0.25
g379
I0
tp940
a(I23
I69
F-0.25
g381
I0
tp941
a(I1
I10
I0
g638
I0
tp942
a(I3
I118
F-0.25
S'dropped'
p943
I0
tp944
a(I3
I118
I0
S'many'
p945
I0
tp946
a(I3
I148
I0
g353
I0
tp947
a(I7
I19
F-0.25
g925
I0
tp948
a(I7
I43
I0
g355
I0
tp949
a(I7
I238
F-0.5
g357
I0
tp950
a(I7
I283
I0
g927
I0
tp951
a(I7
I337
I0
g359
I0
tp952
a(I7
I337
F-0.25
g361
I0
tp953
a(I7
I338
F-0.25
g363
I0
tp954
a(I7
I355
F-0.625
g365
I0
tp955
a(I9
I4
F0.5
g367
I0
tp956
a(I10
I28
F-0.25
g369
I0
tp957
a(I10
I28
F0.75
g371
I0
tp958
a(I13
I113
F-0.25
g373
I0
tp959
a(I14
I9
F-0.25
g375
I0
tp960
a(I17
I28
I0
g935
I0
tp961
a(I18
I1
F-0.25
g377
I0
tp962
a(I18
I91
I0
g938
I0
tp963
a(I19
I23
F-0.25
g379
I0
tp964
a(I23
I69
F-0.25
g381
I0
tp965
a(I23
I75
I0
g640
I0
tp966
a(I25
I57
I0
g383
I0
tp967
a(I1
I10
I0
g638
I0
tp968
a(I1
I80
I0
S'many'
p969
I0
tp970
a(I3
I72
F0.75
S'receive'
p971
I0
tp972
a(I3
I118
F-0.25
g943
I0
tp973
a(I3
I118
I0
g945
I0
tp974
a(I3
I148
I0
g353
I0
tp975
a(I7
I19
F-0.25
g925
I0
tp976
a(I7
I43
I0
g355
I0
tp977
a(I7
I238
F-0.5
g357
I0
tp978
a(I7
I283
I0
g927
I0
tp979
a(I7
I337
I0
g359
I0
tp980
a(I7
I337
F-0.25
g361
I0
tp981
a(I7
I338
F-0.25
g363
I0
tp982
a(I7
I355
F-0.625
g365
I0
tp983
a(I8
I74
I0
S'few'
p984
I0
tp985
a(I9
I4
F0.5
g367
I0
tp986
a(I10
I28
F-0.25
g369
I0
tp987
a(I10
I28
F0.75
g371
I0
tp988
a(I11
I80
I0
S'many'
p989
I0
tp990
a(I11
I145
I0
S'next'
p991
I0
tp992
a(I13
I87
F0.125
S'able'
p993
I0
tp994
a(I13
I102
F0.125
S'able'
p995
I0
tp996
a(I13
I113
F-0.25
g373
I0
tp997
a(I14
I9
F-0.25
g375
I0
tp998
a(I14
I153
I0
S'more'
p999
I0
tp1000
a(I15
I4
F-0.5
S'international'
p1001
I0
tp1002
a(I15
I4
I0
S'imperative'
p1003
I0
tp1004
a(I17
I28
I0
g935
I0
tp1005
a(I18
I1
F-0.25
g377
I0
tp1006
a(I18
I84
F0.5
S'strong'
p1007
I0
tp1008
a(I18
I84
I0
S'signal'
p1009
I0
tp1010
a(I18
I91
I0
g938
I0
tp1011
a(I19
I10
F1.0
S'better'
p1012
I0
tp1013
a(I19
I23
F-0.25
g379
I0
tp1014
a(I22
I65
I0
S'most'
p1015
I0
tp1016
a(I23
I69
F-0.25
g381
I0
tp1017
a(I23
I75
I0
g640
I0
tp1018
a(I23
I183
I0
S'more'
p1019
I0
tp1020
a(I24
I105
F-0.5
S'international'
p1021
I0
tp1022
a(I25
I32
I0
S'few'
p1023
I0
tp1024
a(I25
I57
I0
g383
I0
tp1025
a(I25
I148
F0.5
S'clear'
p1026
I0
tp1027
as(S'cingular'
p1028
S'service'
p1029
tp1030
(lp1031
(I1
I172
I0
S'same'
p1032
I0
tp1033
a(I1
I173
I0
S'great'
p1034
I0
tp1035
a(I4
I23
F-0.5
S'sure'
p1036
I0
tp1037
a(I14
I122
F-0.625
S'bad'
p1038
I0
tp1039
a(I18
I69
F-0.75
S'unreliable'
p1040
I0
tp1041
a(I23
I45
F0.125
S'able'
p1042
I0
tp1043
a(I24
I47
I0
S'general'
p1044
I0
tp1045
a(I25
I158
I0
S'internet'
p1046
I0
tp1047
a(I1
I122
I0
S'local'
p1048
I0
tp1049
a(I1
I290
I0
S'close'
p1050
I0
tp1051
a(I2
I13
F0.375
S'new'
p1052
I0
tp1053
a(I2
I30
F0.5
S'careful'
p1054
I0
tp1055
a(I2
I46
F0.375
S'new'
p1056
I0
tp1057
a(I4
I23
F-0.5
g1036
I0
tp1058
a(I7
I1
F0.375
S'new'
p1059
I0
tp1060
a(I8
I66
F1.0
S'best'
p1061
I0
tp1062
a(I14
I131
F0.75
S'fortunate'
p1063
I0
tp1064
a(I17
I19
F-0.625
S'disgruntled'
p1065
I0
tp1066
a(I18
I157
F1.0
S'better'
p1067
I0
tp1068
a(I23
I19
F1.0
S'better'
p1069
I0
tp1070
a(I23
I45
F0.125
g1042
I0
tp1071
a(I24
I30
F-0.625
S'threw'
p1072
I0
tp1073
a(I24
I132
F-0.625
S'bad'
p1074
I0
tp1075
a(I25
I29
F0.375
S'new'
p1076
I0
tp1077
a(I25
I158
I0
g1046
I0
tp1078
a(I25
I257
I0
S'many'
p1079
I0
tp1080
as(S'button'
p1081
S'on'
p1082
S'side'
p1083
tp1084
(lp1085
(I11
I188
I0
S'great'
p1086
I0
tp1087
a(I19
I0
F0.125
S'outside'
p1088
I0
tp1089
a(I25
I16
F0.875
S'nice'
p1090
I0
tp1091
a(I1
I226
F0.625
S'easy'
p1092
I19
tp1093
a(I3
I15
F0.625
S'convenient'
p1094
I19
tp1095
a(I15
I75
F0.625
S'convenient'
p1096
I19
tp1097
a(I18
I56
I0
S'many'
p1098
I19
tp1099
a(I19
I0
F0.125
g1088
I19
tp1100
a(I25
I16
F0.875
g1090
I19
tp1101
a(I25
I146
F-0.375
S'black'
p1102
I19
tp1103
as(S'speaker'
p1104
tp1105
(lp1106
(I7
I150
I0
S'external'
p1107
I8
tp1108
a(I7
I213
F0.75
S'ear'
p1109
I8
tp1110
a(I8
I19
I0
S'third'
p1111
I8
tp1112
a(I16
I114
F0.875
S'nice'
p1113
I8
tp1114
a(I19
I7
F0.625
S'convenient'
p1115
I8
tp1116
a(I22
I140
I0
S'softer'
p1117
I8
tp1118
as(S'quad'
p1119
S'band'
p1120
tp1121
(lp1122
(I25
I17
F0.5
S'true'
p1123
I0
tp1124
as(S'i.'
p1125
S'e.'
p1126
tp1127
(lp1128
(I24
I81
I0
S'high'
p1129
I0
tp1130
as(S'much'
p1131
S'better'
p1132
tp1133
(lp1134
(I1
I145
F0.375
S'much'
p1135
I9
tp1136
a(I3
I85
F0.375
S'much'
p1137
I9
tp1138
a(I8
I73
F0.375
S'much'
p1139
I9
tp1140
a(I14
I99
F0.375
S'much'
p1141
I9
tp1142
as(S'pictures'
p1143
S'and'
p1144
S'video'
p1145
tp1146
(lp1147
(I1
I85
I0
S'adequate'
p1148
I0
tp1149
a(I5
I8
F1.0
S'good'
p1150
I0
tp1151
a(I6
I52
I0
S'great'
p1152
I0
tp1153
a(I7
I46
F1.0
S'good'
p1154
I0
tp1155
a(I7
I46
F1.0
g103
I0
tp1156
a(I11
I125
I0
S'great'
p1157
I0
tp1158
as(g600
S'text'
p1159
S'message'
p1160
tp1161
(lp1162
(I25
I194
I0
S'text'
p1163
I0
tp1164
a(I25
I194
I0
g1163
I0
tp1165
a(I6
I37
F0.5
S'careful'
p1166
I18
tp1167
a(I8
I64
I0
S'quick'
p1168
I18
tp1169
a(I25
I91
I0
S'most'
p1170
I18
tp1171
as(S'customer'
p1172
S'service'
p1173
tp1174
(lp1175
(I3
I119
F1.0
S'good'
p1176
I3
tp1177
a(I14
I122
F-0.625
g1038
I3
tp1178
a(I16
I81
F-0.875
S'worst'
p1179
I3
tp1180
a(I25
I110
F-0.25
S'direct'
p1181
I3
tp1182
a(I1
I167
I0
S'great'
p1183
I16
tp1184
a(I1
I172
I0
g1032
I16
tp1185
a(I1
I173
I0
g1034
I16
tp1186
a(I3
I45
I0
S'full'
p1187
I16
tp1188
a(I6
I64
F0.5
S'clear'
p1189
I16
tp1190
a(I6
I64
F0.625
S'perfect'
p1191
I16
tp1192
a(I7
I109
F-0.25
S'past'
p1193
I16
tp1194
a(I7
I110
F0.125
S'able'
p1195
I16
tp1196
a(I7
I211
I0
S'full'
p1197
I16
tp1198
a(I7
I311
I0
S'more'
p1199
I16
tp1200
a(I7
I364
I0
S'great'
p1201
I16
tp1202
a(I10
I53
I0
S'cellular'
p1203
I16
tp1204
a(I11
I12
F0.25
S'helpful'
p1205
I16
tp1206
a(I14
I122
F-0.625
g1038
I16
tp1207
a(I14
I132
F0.625
S'perfect'
p1208
I16
tp1209
a(I15
I107
I0
S'full'
p1210
I16
tp1211
a(I16
I81
F-0.875
g1179
I16
tp1212
a(I16
I128
I0
S'more'
p1213
I16
tp1214
a(I18
I69
F-0.75
g1040
I16
tp1215
a(I24
I39
F-0.5
S'poor'
p1216
I16
tp1217
a(I24
I47
I0
g1044
I16
tp1218
a(I24
I77
I0
S'same'
p1219
I16
tp1220
a(I24
I83
F1.0
S'better'
p1221
I16
tp1222
as(S'volume'
p1223
tp1224
(lp1225
(I1
I19
F-0.25
S'low'
p1226
I6
tp1227
a(I5
I15
F-0.75
S'impossible'
p1228
I6
tp1229
a(I6
I20
F0.5
S'second'
p1230
I6
tp1231
a(I7
I59
F-0.375
S'top'
p1232
I6
tp1233
a(I7
I95
F0.375
S'loudest'
p1234
I6
tp1235
a(I7
I159
F0.875
S'nice'
p1236
I6
tp1237
a(I7
I355
F-0.25
S'low'
p1238
I6
tp1239
a(I7
I355
I0
S'continual'
p1240
I6
tp1241
a(I10
I43
F-0.25
S'low'
p1242
I6
tp1243
a(I15
I53
F-0.25
S'low'
p1244
I6
tp1245
a(I16
I120
F0.125
S'adjust'
p1246
I6
tp1247
a(I18
I77
I0
S'full'
p1248
I6
tp1249
a(I19
I7
F-0.25
S'low'
p1250
I6
tp1251
a(I19
I23
F-0.5
S'poor'
p1252
I6
tp1253
a(I22
I3
F-0.25
S'low'
p1254
I6
tp1255
a(I23
I3
F0.375
S'loud'
p1256
I6
tp1257
a(I23
I7
F-0.25
S'low'
p1258
I6
tp1259
as(S'make'
p1260
g600
S'call'
p1261
tp1262
(lp1263
(I14
I15
F0.125
S'able'
p1264
I0
tp1265
a(I23
I15
F0.875
S'important'
p1266
I0
tp1267
a(I23
I181
F0.125
S'able'
p1268
I0
tp1269
as(S'operating'
p1270
S'system'
p1271
tp1272
(lp1273
(I18
I63
F0.625
S'superior'
p1274
I2
tp1275
as(S'flip'
p1276
tp1277
(lp1278
(I6
I7
F0.125
S'solid'
p1279
I4
tp1280
a(I7
I117
F-0.75
S'comfortable'
p1281
I4
tp1282
a(I11
I192
F0.625
S'magnetic'
p1283
I4
tp1284
a(I15
I38
F0.375
S'reliable'
p1285
I4
tp1286
a(I16
I11
F-0.75
S'difficult'
p1287
I4
tp1288
a(I23
I149
F0.5
S'strong'
p1289
I4
tp1290
a(I24
I71
F-0.375
S'robust'
p1291
I4
tp1292
a(I24
I71
I0
S'most'
p1293
I4
tp1294
a(I24
I71
F-0.625
S'other'
p1295
I4
tp1296
a(I24
I71
I0
S'basic'
p1297
I4
tp1298
a(I25
I112
F0.125
S'first'
p1299
I4
tp1300
a(I25
I113
F-0.5
S'sure'
p1301
I4
tp1302
a(I25
I140
F-0.625
S'other'
p1303
I4
tp1304
as(S'text'
p1305
S'messaging'
p1306
tp1307
(lp1308
(I1
I224
I0
S'text'
p1309
I0
tp1310
a(I6
I37
F0.5
g1166
I0
tp1311
a(I6
I39
I0
S'text'
p1312
I0
tp1313
a(I7
I296
I0
S'great'
p1314
I0
tp1315
a(I8
I44
I0
S'text'
p1316
I0
tp1317
a(I8
I64
I0
g1168
I0
tp1318
a(I25
I88
I0
S'next'
p1319
I0
tp1320
a(I25
I88
I0
S'text'
p1321
I0
tp1322
as(S'sound'
p1323
S'quality'
p1324
tp1325
(lp1326
(I2
I15
F-0.5
S'poor'
p1327
I0
tp1328
a(I11
I100
I0
S'great'
p1329
I0
tp1330
a(I11
I132
I0
S'great'
p1331
I0
tp1332
a(I18
I20
F-0.625
S'average'
p1333
I0
tp1334
a(I23
I106
I0
S'great'
p1335
I0
tp1336
a(I24
I1
I0
S'great'
p1337
I0
tp1338
a(I25
I219
F0.75
S'sound'
p1339
I0
tp1340
a(I1
I158
F0.5
S'clear'
p1341
I7
tp1342
a(I7
I41
F0.5
S'clear'
p1343
I7
tp1344
a(I9
I26
F-0.375
S'static'
p1345
I7
tp1346
a(I11
I100
I0
g1329
I7
tp1347
a(I11
I176
F-0.125
S'mine'
p1348
I7
tp1349
a(I16
I61
F-0.75
S'dead'
p1350
I7
tp1351
a(I16
I138
F0.5
S'clear'
p1352
I7
tp1353
a(I16
I138
F0.375
S'reliable'
p1354
I7
tp1355
a(I23
I106
I0
g1335
I7
tp1356
a(I24
I140
F1.0
S'good'
p1357
I7
tp1358
a(I25
I211
I0
S'real'
p1359
I7
tp1360
as.