(dp0
(S'memory'
p1
S'card'
p2
tp3
(lp4
(I4
I85
F0.625
S'easy'
p5
I0
tp6
a(I2
I9
F0.625
S'removable'
p7
I5
tp8
a(I4
I86
F-0.25
S'higher'
p9
I5
tp10
as(S'battery'
p11
S'life'
p12
tp13
(lp14
(I1
I36
F1.0
S'good'
p15
I1
tp16
a(I2
I8
I0
S'initial'
p17
I1
tp18
a(I2
I50
F-0.25
S'low'
p19
I1
tp20
a(I7
I37
I0
S'great'
p21
I1
tp22
a(I7
I81
F0.375
S'extra'
p23
I1
tp24
a(I11
I68
I0
S'great'
p25
I1
tp26
a(I11
I125
I0
S'least'
p27
I1
tp28
a(I1
I36
F1.0
g15
I19
tp29
a(I2
I44
F0.875
S'music'
p30
I19
tp31
a(I11
I68
I0
g25
I19
tp32
a(I11
I125
I0
g27
I19
tp33
a(I2
I8
I0
g17
I15
tp34
a(I2
I50
F-0.25
g19
I15
tp35
a(I2
I103
F-0.5
S'weak'
p36
I15
tp37
a(I7
I23
I0
S'third'
p38
I15
tp39
a(I7
I37
I0
g21
I15
tp40
a(I7
I81
F0.375
g23
I15
tp41
a(I7
I82
F0.625
S'aware'
p42
I15
tp43
a(I7
I82
F0.25
S'larger'
p44
I15
tp45
a(I8
I126
F-0.75
S'dead'
p46
I15
tp47
as(S'usb'
p48
S'cable'
p49
tp50
(lp51
(I4
I103
I0
S'cable'
p52
I2
tp53
a(I11
I94
I0
S'cable'
p54
I2
tp55
as(S'speakers'
p56
tp57
(lp58
(I2
I7
I0
S'external'
p59
I2
tp60
a(I2
I9
F1.0
S'good'
p61
I2
tp62
a(I3
I96
F-0.75
S'blow'
p63
I2
tp64
a(I4
I61
I0
S'incredible'
p65
I2
tp66
a(I7
I72
F0.5
S'clear'
p67
I2
tp68
a(I8
I125
I0
S'large'
p69
I2
tp70
a(I11
I104
F0.875
S'nice'
p71
I2
tp72
as(S'ring'
p73
S'tones'
p74
tp75
(lp76
(I0
I25
F0.125
S'ring'
p77
I0
tp78
a(I4
I11
F0.375
S'new'
p79
I0
tp80
a(I4
I74
F0.875
S'nice'
p81
I0
tp82
a(I11
I68
F0.5
S'true'
p83
I0
tp84
as(S'motorola'
p85
tp86
(lp87
(I1
I29
I0
S'switched'
p88
I0
tp89
a(I4
I57
F-0.625
S'bad'
p90
I0
tp91
as(S'service'
p92
tp93
(lp94
(I3
I14
I0
S'great'
p95
I16
tp96
a(I3
I46
F0.375
S'available'
p97
I16
tp98
a(I3
I93
F1.0
S'good'
p99
I16
tp100
a(I3
I104
I0
S'great'
p101
I16
tp102
a(I3
I128
I0
S'great'
p103
I16
tp104
a(I3
I128
F0.625
S'easy'
p105
I16
tp106
a(I4
I147
F0.375
S'extra'
p107
I16
tp108
a(I6
I8
F-0.125
S'overall'
p109
I16
tp110
a(I6
I8
F0.25
S'consistent'
p111
I16
tp112
a(I6
I10
I0
S'great'
p113
I16
tp114
a(I8
I31
I0
S'asked'
p115
I16
tp116
a(I9
I26
F0.375
S'reliable'
p117
I16
tp118
a(I11
I122
I0
S'own'
p119
I16
tp120
a(I11
I122
F0.375
S'confident'
p121
I16
tp122
as(S'web'
p123
S'browser'
p124
tp125
(lp126
(I8
I21
F-0.625
S'bad'
p127
I0
tp128
as(S'mp3s'
p129
tp130
(lp131
(I11
I122
F0.125
S'able'
p132
I0
tp133
as(S'reception'
p134
tp135
(lp136
(I0
I78
F1.0
S'better'
p137
I0
tp138
a(I0
I78
F0.75
S'ear'
p139
I0
tp140
a(I1
I18
F1.0
S'good'
p141
I0
tp142
a(I1
I28
F-0.5
S'poor'
p143
I0
tp144
a(I1
I33
I0
S'great'
p145
I0
tp146
a(I2
I39
I0
S'great'
p147
I0
tp148
a(I3
I107
F1.0
S'better'
p149
I0
tp150
a(I4
I1
I0
S'great'
p151
I0
tp152
a(I4
I24
F1.0
S'best'
p153
I0
tp154
a(I6
I10
I0
S'great'
p155
I0
tp156
a(I8
I86
F-0.75
S'worse'
p157
I0
tp158
a(I8
I88
F-0.5
S'poor'
p159
I0
tp160
a(I8
I92
F-0.5
S'poor'
p161
I0
tp162
a(I9
I19
F-0.875
S'worst'
p163
I0
tp164
a(I9
I26
I0
S'such'
p165
I0
tp166
a(I9
I26
F-0.875
S'worst'
p167
I0
tp168
a(I9
I108
F1.0
S'better'
p169
I0
tp170
a(I11
I68
F1.0
S'good'
p171
I0
tp172
a(I11
I81
F1.0
S'good'
p173
I0
tp174
as(S'menu'
p175
tp176
(lp177
(I3
I90
F-0.625
S'push'
p178
I2
tp179
a(I3
I116
I0
S'more'
p180
I2
tp181
a(I8
I51
F0.5
S'whole'
p182
I2
tp183
a(I11
I68
I0
S'basic'
p184
I2
tp185
as(S'vcast'
p186
tp187
(lp188
(I3
I33
F0.5
S'clear'
p189
I0
tp190
a(I3
I57
I0
S'later'
p191
I0
tp192
a(I4
I13
I0
S'impress'
p193
I0
tp194
a(I8
I83
F0.25
S'sweet'
p195
I0
tp196
a(I11
I126
F0.5
S'expensive'
p197
I0
tp198
as(S'button'
p199
tp200
(lp201
(I1
I53
F0.5
S'second'
p202
I19
tp203
a(I3
I18
F0.75
S'give'
p204
I19
tp205
a(I3
I83
I0
S'pic'
p206
I19
tp207
as(S'speakerphone'
p208
tp209
(lp210
(I4
I6
F0.5
S'clear'
p211
I0
tp212
a(I7
I45
F1.0
S'good'
p213
I0
tp214
a(I11
I99
F0.875
S'nice'
p215
I0
tp216
as(S'music'
p217
tp218
(lp219
(I3
I60
F0.5
S'told'
p220
I0
tp221
a(I3
I60
I0
S'active'
p222
I0
tp223
a(I6
I4
F-0.5
S'infinite'
p224
I0
tp225
as(S'mini'
p226
S'sd'
p227
S'card'
p228
tp229
(lp230
(I7
I77
F-0.5
S'regular'
p231
I0
tp232
a(I9
I3
F0.5
S'bought'
p233
I0
tp234
a(I7
I77
F-0.5
g231
I0
tp235
a(I7
I77
F-0.5
g231
I0
tp236
a(I9
I3
F0.5
g233
I0
tp237
as(S'songs'
p238
tp239
(lp240
(I6
I38
F-0.375
S'simple'
p241
I1
tp242
a(I6
I44
I0
S'great'
p243
I1
tp244
a(I11
I119
I0
S'cable'
p245
I1
tp246
as(S'ringtones'
p247
tp248
(lp249
(I2
I124
F0.625
S'easy'
p250
I0
tp251
a(I6
I10
F1.0
S'good'
p252
I0
tp253
a(I6
I86
F0.5
S'expensive'
p254
I0
tp255
a(I7
I67
F0.125
S'typical'
p256
I0
tp257
a(I9
I91
I0
S'own'
p258
I0
tp259
a(I11
I94
F0.5
S'expensive'
p260
I0
tp261
as(S'calls'
p262
tp263
(lp264
(I4
I0
F-0.25
S'dropped'
p265
I0
tp266
a(I6
I64
I0
S'few'
p267
I0
tp268
a(I7
I45
F0.5
S'clear'
p269
I0
tp270
as(S'front'
p271
tp272
(lp273
(I2
I102
F0.875
S'nice'
p274
I14
tp275
as(S'signal'
p276
S'strength'
p277
tp278
(lp279
(I1
I3
I0
S'signal'
p280
I0
tp281
a(I1
I3
F-0.25
S'low'
p282
I0
tp283
a(I1
I3
I0
S'signal'
p284
I0
tp285
a(I8
I106
I0
S'full'
p286
I0
tp287
a(I8
I106
I0
S'signal'
p288
I0
tp289
a(I8
I110
F1.0
S'good'
p290
I0
tp291
a(I8
I118
I0
S'high'
p292
I0
tp293
a(I8
I118
F1.0
S'good'
p294
I0
tp295
a(I9
I67
I0
S'signal'
p296
I0
tp297
a(I9
I68
I0
S'signal'
p298
I0
tp299
a(I9
I77
F1.0
S'better'
p300
I0
tp301
a(I9
I77
I0
S'signal'
p302
I0
tp303
a(I11
I58
I0
S'signal'
p304
I0
tp305
a(I1
I1
I0
S'signal'
p306
I1
tp307
a(I2
I46
I0
S'great'
p308
I1
tp309
a(I2
I79
F-0.5
S'weak'
p310
I1
tp311
a(I3
I56
F1.0
S'good'
p312
I1
tp313
a(I5
I0
I0
S'more'
p314
I1
tp315
a(I8
I110
F1.0
g290
I1
tp316
a(I8
I118
F1.0
g294
I1
tp317
a(I9
I31
F0.625
S'perfect'
p318
I1
tp319
as(S'vx8100'
p320
tp321
(lp322
(I2
I28
F1.0
S'better'
p323
I0
tp324
a(I9
I34
F0.375
S'new'
p325
I0
tp326
a(I11
I20
F0.625
S'perfect'
p327
I0
tp328
as(S'text'
p329
S'messages'
p330
tp331
(lp332
(I4
I60
I0
S'text'
p333
I0
tp334
a(I4
I60
F0.125
S'plenty'
p335
I0
tp336
a(I4
I70
F0.125
S'able'
p337
I0
tp338
a(I4
I70
F0.125
g337
I18
tp339
a(I4
I60
I0
g333
I1
tp340
a(I4
I60
F0.125
g335
I1
tp341
as(S'speaker'
p342
tp343
(lp344
(I2
I46
F0.375
S'loudest'
p345
I8
tp346
as(S'digital'
p347
S'camera'
p348
tp349
(lp350
(I0
I33
F0.125
S'digital'
p351
I1
tp352
a(I3
I28
F0.875
S'nice'
p353
I1
tp354
a(I3
I28
F0.125
S'digital'
p355
I1
tp356
a(I4
I67
F0.125
S'digital'
p357
I1
tp358
a(I6
I30
F0.875
S'nice'
p359
I1
tp360
a(I9
I87
I0
S'real'
p361
I1
tp362
a(I11
I12
F0.125
S'digital'
p363
I1
tp364
a(I0
I33
F0.125
g351
I1
tp365
a(I0
I92
F1.0
S'best'
p366
I1
tp367
a(I0
I92
F0.5
S'clearest'
p368
I1
tp369
a(I2
I44
I0
S'great'
p370
I1
tp371
a(I2
I94
F1.0
S'good'
p372
I1
tp373
a(I2
I101
F0.5
S'whole'
p374
I1
tp375
a(I3
I28
F0.875
g353
I1
tp376
a(I3
I28
F0.125
g355
I1
tp377
a(I3
I119
F0.625
S'decent'
p378
I1
tp379
a(I4
I67
F0.125
g357
I1
tp380
a(I4
I83
I0
S'great'
p381
I1
tp382
a(I4
I116
F1.0
S'good'
p383
I1
tp384
a(I6
I10
F1.0
S'good'
p385
I1
tp386
a(I6
I30
F0.875
g359
I1
tp387
a(I8
I82
F1.0
S'good'
p388
I1
tp389
a(I11
I2
F1.0
S'good'
p390
I1
tp391
a(I11
I12
F0.125
g363
I1
tp392
as(S'voice'
p393
S'command'
p394
tp395
(lp396
(I8
I50
I0
S'many'
p397
I0
tp398
a(I8
I50
F0.5
S'possible'
p399
I0
tp400
a(I3
I76
I0
S'gat'
p401
I4
tp402
a(I8
I50
I0
g397
I4
tp403
a(I8
I50
F0.5
g399
I4
tp404
as(S'alarm'
p405
S'clock'
p406
tp407
(lp408
(I3
I30
I0
S'e-mail'
p409
I0
tp410
as(S'bluetooth'
p411
S'headset'
p412
tp413
(lp414
(I2
I64
F0.5
S'clear'
p415
I0
tp416
a(I2
I64
I0
S'more'
p417
I0
tp418
a(I3
I51
I0
S'great'
p419
I0
tp420
a(I4
I37
F-0.5
S'weak'
p421
I0
tp422
a(I4
I37
F1.0
S'best'
p423
I0
tp424
a(I7
I84
I0
S'great'
p425
I0
tp426
a(I3
I20
I0
S'more'
p427
I0
tp428
a(I3
I20
F-0.75
S'stupid'
p429
I0
tp430
a(I3
I51
I0
g419
I0
tp431
a(I7
I84
I0
g425
I0
tp432
a(I2
I64
F0.5
g415
I3
tp433
a(I2
I64
I0
g417
I3
tp434
a(I4
I37
F-0.5
g421
I3
tp435
a(I4
I37
F1.0
g423
I3
tp436
a(I7
I51
I0
S'full'
p437
I3
tp438
as(S'much'
p439
S'better'
p440
tp441
(lp442
(I8
I123
F0.375
S'much'
p443
I9
tp444
as(S'volume'
p445
tp446
(lp447
(I0
I73
F-0.625
S'infrequent'
p448
I6
tp449
a(I1
I28
F0.5
S'variable'
p450
I6
tp451
a(I1
I31
F0.5
S'variable'
p452
I6
tp453
a(I2
I64
F0.125
S'enough'
p454
I6
tp455
a(I4
I140
F-0.125
S'minimum'
p456
I6
tp457
a(I6
I26
F0.25
S'effective'
p458
I6
tp459
a(I8
I112
F-0.25
S'highest'
p460
I6
tp461
a(I11
I95
F0.875
S'nice'
p462
I6
tp463
a(I11
I100
F0.125
S'enough'
p464
I6
tp465
a(I11
I107
F-0.125
S'minimum'
p466
I6
tp467
as(S'picture'
p468
S'quality'
p469
tp470
(lp471
(I1
I18
I0
S'great'
p472
I1
tp473
a(I2
I9
I0
S'great'
p474
I1
tp475
a(I3
I32
F-0.625
S'bad'
p476
I1
tp477
a(I3
I32
F1.0
S'good'
p478
I1
tp479
a(I3
I32
F1.0
S'good'
p480
I1
tp481
a(I6
I86
F-0.5
S'poor'
p482
I1
tp483
a(I7
I13
F1.0
S'good'
p484
I1
tp485
a(I11
I12
F1.0
S'good'
p486
I1
tp487
a(I11
I72
F0.75
S'worth'
p488
I1
tp489
a(I11
I90
F1.0
S'good'
p490
I1
tp491
as(S'mp3'
p492
S'player'
p493
tp494
(lp495
(I3
I59
I0
S'active'
p496
I1
tp497
a(I4
I20
F0.875
S'nice'
p498
I1
tp499
a(I4
I20
F-0.625
S'other'
p500
I1
tp501
a(I6
I43
F-0.5
S'separate'
p502
I1
tp503
a(I9
I3
F0.125
S'able'
p504
I1
tp505
a(I11
I35
F-0.25
S'grate'
p506
I1
tp507
a(I11
I49
F-0.5
S'separate'
p508
I1
tp509
a(I11
I104
I0
S'great'
p510
I1
tp511
a(I3
I59
I0
g496
I6
tp512
a(I4
I20
F0.875
g498
I6
tp513
a(I4
I20
F-0.625
g500
I6
tp514
a(I4
I157
F0.875
S'nice'
p515
I6
tp516
a(I7
I81
F0.875
S'music'
p517
I6
tp518
a(I11
I35
F-0.25
g506
I6
tp519
as(S'e815'
p520
tp521
(lp522
(I0
I80
I0
S'sturdier'
p523
I0
tp524
a(I0
I80
F-0.5
S'less'
p525
I0
tp526
a(I0
I80
F-0.75
S'likely'
p527
I0
tp528
a(I4
I19
F-0.625
S'free'
p529
I0
tp530
a(I4
I19
F0.375
S'new'
p531
I0
tp532
a(I8
I122
I0
S'large'
p533
I0
tp534
a(I8
I124
F-0.5
S'longer'
p535
I0
tp536
a(I8
I124
F-0.25
S'thinner'
p537
I0
tp538
as(S'verizon'
p539
S'wireless'
p540
tp541
(lp542
(I11
I39
I0
S'great'
p543
I0
tp544
a(I0
I74
F0.5
S'incomplete'
p545
I0
tp546
a(I1
I0
F-0.5
S'poor'
p547
I0
tp548
a(I2
I42
F-0.5
S'sure'
p549
I0
tp550
a(I2
I69
F0.625
S'wary'
p551
I0
tp552
a(I2
I102
F-0.375
S'disable'
p553
I0
tp554
a(I3
I43
F-0.5
S'sure'
p555
I0
tp556
a(I3
I43
F-0.625
S'other'
p557
I0
tp558
a(I4
I128
I0
S'general'
p559
I0
tp560
a(I5
I7
F0.375
S'new'
p561
I0
tp562
a(I7
I69
F1.0
S'best'
p563
I0
tp564
a(I8
I22
I0
S'special'
p565
I0
tp566
a(I8
I23
I0
S'special'
p567
I0
tp568
a(I8
I81
I0
S'update'
p569
I0
tp570
a(I9
I13
F0.125
S'appropriate'
p571
I0
tp572
a(I9
I86
F-0.5
S'less'
p573
I0
tp574
a(I11
I9
I0
S'full'
p575
I0
tp576
a(I11
I9
I0
S'signal'
p577
I0
tp578
a(I11
I78
F-0.375
S'disable'
p579
I0
tp580
as(S'sound'
p581
S'quality'
p582
tp583
(lp584
(I1
I18
I0
g472
I0
tp585
a(I1
I18
F1.0
S'good'
p586
I0
tp587
a(I3
I32
F1.0
g478
I0
tp588
a(I3
I32
F1.0
g480
I0
tp589
a(I4
I141
F1.0
S'good'
p590
I0
tp591
a(I7
I32
F1.0
S'good'
p592
I0
tp593
a(I9
I114
I0
S'high'
p594
I0
tp595
a(I1
I18
F1.0
g586
I7
tp596
a(I11
I1
F-0.625
S'bad'
p597
I7
tp598
as.