(dp0
(S'problem'
p1
tp2
(lp3
(I14
I1
I0
S'same'
p4
tp5
a(I26
I2
I0
S'old'
p6
tp7
a(I26
I2
F0.25
S'biggest'
p8
tp9
a(I65
I3
F-0.625
S'useless'
p10
tp11
a(I83
I2
F0.375
S'much'
p12
tp13
a(I90
I4
I0
S'same'
p14
tp15
a(I90
I4
I0
S'same'
p16
tp17
a(I122
I5
I0
S'common'
p18
tp19
a(I127
I11
F-0.75
S'single'
p20
tp21
a(I142
I43
F0.375
S'new'
p22
tp23
a(I156
I6
F-0.5
S'sure'
p24
tp25
as(S'looks'
p26
tp27
(lp28
(I61
I6
F-0.75
S'worse'
p29
tp30
a(I61
I6
F-0.375
S'wear'
p31
tp32
a(I61
I6
F0.5
S'functional'
p33
tp34
a(I67
I0
I0
S'great'
p35
tp36
a(I115
I0
I0
S'great'
p37
tp38
a(I142
I2
F-0.5
S'less'
p39
tp40
as(S'battery'
p41
S'life'
p42
tp43
(lp44
(I21
I24
F-0.5
S'long'
p45
tp46
a(I64
I3
I0
S'great'
p47
tp48
a(I64
I3
F1.0
S'good'
p49
tp50
a(I140
I7
F0.375
S'new'
p51
tp52
a(I140
I7
I0
S'normal'
p53
tp54
as(S'purchase'
p55
tp56
(lp57
(I8
I1
F0.875
S'happy'
p58
tp59
a(I54
I2
F0.125
S'last'
p60
tp61
a(I110
I3
F-0.875
S'worst'
p62
tp63
a(I142
I15
F0.375
S'new'
p64
tp65
a(I147
I0
F0.875
S'happy'
p66
tp67
as(S'year'
p68
tp69
(lp70
(I5
I2
I0
S'old'
p71
tp72
a(I70
I0
F0.125
S'last'
p73
tp74
a(I99
I0
F-0.5
S'less'
p75
tp76
a(I99
I0
F0.5
S'recommend'
p77
tp78
a(I109
I34
F0.125
S'last'
p79
tp80
a(I109
I34
F0.75
S'due'
p81
tp82
a(I140
I7
I0
S'earlier'
p83
tp84
as(S'ring'
p85
S'tones'
p86
tp87
(lp88
(I7
I12
F0.125
S'ring'
p89
tp90
a(I83
I6
F0.625
S'kind'
p91
tp92
a(I155
I9
I0
S'basic'
p93
tp94
a(I155
I10
F0.625
S'musical'
p95
tp96
a(I155
I11
F1.0
S'better'
p97
tp98
as(S'motorola'
p99
tp100
(lp101
(I20
I3
I0
S'website'
p102
tp103
a(I35
I5
I0
S'few'
p104
tp105
a(I39
I2
I0
S'great'
p106
tp107
a(I53
I0
I0
S'such'
p108
tp109
a(I78
I3
I0
S'website'
p110
tp111
a(I78
I3
F1.0
S'good'
p112
tp113
a(I81
I0
I0
S'standard'
p114
tp115
a(I81
I0
I0
S'most'
p116
tp117
a(I84
I0
F-0.625
S'other'
p118
tp119
a(I93
I0
F-0.625
S'other'
p120
tp121
a(I113
I3
F0.25
S'sweet'
p122
tp123
a(I113
I3
F-0.625
S'other'
p124
tp125
a(I120
I0
I0
S'old'
p126
tp127
a(I137
I0
F0.625
S'easy'
p128
tp129
a(I142
I22
F-0.625
S'bad'
p130
tp131
a(I147
I3
F-0.625
S'other'
p132
tp133
a(I151
I9
F0.125
S'first'
p134
tp135
a(I154
I0
I0
S'many'
p136
tp137
a(I154
I18
F0.25
S'helpful'
p138
tp139
as(S'text'
p140
tp141
(lp142
(I48
I14
I0
S'old'
p143
tp144
a(I134
I0
F-0.5
S'call'
p145
tp146
as(S'mp3'
p147
S'player'
p148
tp149
(lp150
(I18
I24
F1.0
S'good'
p151
tp152
a(I26
I2
F0.875
S'music'
p153
tp154
as(S'happy'
p155
tp156
(lp157
(I98
I0
I0
S'real'
p158
tp159
as(S'screen'
p160
tp161
(lp162
(I6
I0
F-0.25
S'white'
p163
tp164
a(I49
I0
F-0.375
S'small'
p165
tp166
a(I49
I0
F0.125
S'outside'
p167
tp168
a(I49
I0
I0
S'plastic'
p169
tp170
a(I49
I0
F0.125
S'outside'
p171
tp172
a(I49
I0
F0.5
S'second'
p173
tp174
a(I83
I8
F0.875
S'nice'
p175
tp176
a(I89
I2
F-0.75
S'dark'
p177
tp178
a(I109
I41
F-0.375
S'black'
p179
tp180
a(I116
I3
F0.25
S'main'
p181
tp182
as(S'service'
p183
tp184
(lp185
(I23
I0
I0
S'own'
p186
tp187
a(I37
I5
F0.25
S'helpful'
p188
tp189
a(I41
I2
F-0.625
S'bad'
p190
tp191
a(I71
I1
F1.0
S'good'
p192
tp193
a(I78
I8
F1.0
S'good'
p194
tp195
a(I78
I8
F1.0
S'good'
p196
tp197
a(I114
I12
F1.0
S'good'
p198
tp199
as(S'music'
p200
tp201
(lp202
(I84
I4
F-0.5
S'separate'
p203
tp204
as(S'settings'
p205
tp206
(lp207
(I137
I0
F0.625
S'easy'
p208
tp209
as(S'cosmic'
p210
S'blue'
p211
tp212
(lp213
(I71
I0
I0
S'cosmic'
p214
tp215
a(I71
I5
I0
S'cosmic'
p216
tp217
as(S'access'
p218
tp219
(lp220
(I21
I12
F0.125
S'able'
p221
tp222
a(I114
I9
I0
S'internet'
p223
tp224
a(I122
I8
I0
S'internet'
p225
tp226
a(I125
I4
I0
S'e-mail'
p227
tp228
a(I142
I1
I0
S'least'
p229
tp230
as(S'version'
p231
tp232
(lp233
(I5
I0
I0
S'european'
p234
tp235
a(I5
I3
I0
S'dial'
p236
tp237
a(I48
I13
F1.0
S'good'
p238
tp239
a(I48
I13
I0
S'old'
p240
tp241
a(I56
I1
F-0.5
S'international'
p242
tp243
a(I71
I0
F-0.5
S'international'
p244
tp245
a(I71
I5
F-0.5
S'international'
p246
tp247
a(I83
I3
F-0.5
S'international'
p248
tp249
a(I116
I11
F0.5
S'true'
p250
tp251
a(I151
I6
I0
S'latest'
p252
tp253
a(I155
I0
I0
S'particular'
p254
tp255
as(S'back'
p256
tp257
(lp258
(I21
I22
F-0.375
S'sat'
p259
tp260
a(I49
I2
F-0.625
S'other'
p261
tp262
a(I77
I6
F-0.25
S'loose'
p263
tp264
as(S'bluetooth'
p265
tp266
(lp267
(I18
I22
I0
S'great'
p268
tp269
a(I21
I13
F0.375
S'extra'
p270
tp271
as(S'native'
p272
S'firmware'
p273
tp274
(lp275
(I35
I2
F0.125
S'native'
p276
tp277
a(I35
I5
F0.125
S'native'
p278
tp279
a(I35
I17
F0.125
S'native'
p280
tp281
as(S'week'
p282
tp283
(lp284
(I71
I0
I0
S'old'
p285
tp286
a(I71
I0
I0
S'same'
p287
tp288
a(I79
I1
I0
S'later'
p289
tp290
a(I99
I8
I0
S'next'
p291
tp292
a(I109
I42
F-0.375
S'black'
p293
tp294
a(I109
I42
F0.125
S'last'
p295
tp296
a(I148
I7
F0.125
S'last'
p297
tp298
as(S'reception'
p299
tp300
(lp301
(I4
I1
I0
S'great'
p302
tp303
a(I7
I7
F1.0
S'better'
p304
tp305
a(I70
I1
F1.0
S'better'
p306
tp307
a(I92
I5
F1.0
S'best'
p308
tp309
a(I95
I2
F1.0
S'better'
p310
tp311
a(I122
I12
F1.0
S'good'
p312
tp313
a(I125
I4
I0
S'great'
p314
tp315
a(I127
I8
F0.5
S'stylish'
p316
tp317
a(I127
I8
F0.75
S'beautiful'
p318
tp319
a(I127
I8
F1.0
S'good'
p320
tp321
a(I147
I1
I0
S'great'
p322
tp323
a(I151
I10
F1.0
S'better'
p324
tp325
as(S'band'
p326
S'gsm'
p327
tp328
(lp329
(I48
I11
I0
S'indispensable'
p330
tp331
a(I48
I25
I0
S'quad'
p332
tp333
as(S'quality'
p334
tp335
(lp336
(I5
I11
F0.375
S'reliable'
p337
tp338
a(I35
I10
I0
S'great'
p339
tp340
a(I37
I8
F-0.5
S'poor'
p341
tp342
a(I42
I0
F1.0
S'good'
p343
tp344
a(I56
I0
F0.875
S'happy'
p345
tp346
a(I62
I5
F1.0
S'good'
p347
tp348
a(I92
I5
F-0.625
S'bad'
p349
tp350
a(I107
I1
F-0.625
S'bad'
p351
tp352
a(I107
I2
F1.0
S'good'
p353
tp354
a(I110
I0
I0
S'high'
p355
tp356
a(I116
I1
F1.0
S'good'
p357
tp358
a(I116
I5
F-0.75
S'impossible'
p359
tp360
a(I116
I5
F-0.625
S'free'
p361
tp362
a(I116
I5
I0
S'great'
p363
tp364
a(I140
I3
F-0.5
S'call'
p365
tp366
a(I151
I10
F0.5
S'clear'
p367
tp368
a(I155
I5
I0
S'great'
p369
tp370
as(S'camera'
p371
tp372
(lp373
(I21
I10
F0.125
S'digital'
p374
tp375
a(I46
I8
F1.0
S'good'
p376
tp377
a(I80
I1
I0
S'adequate'
p378
tp379
a(I80
I1
F0.25
S'stellar'
p380
tp381
a(I114
I7
F0.625
S'acceptable'
p382
tp383
a(I127
I9
F1.0
S'good'
p384
tp385
a(I133
I3
I0
S'e-mail'
p386
tp387
a(I136
I1
I0
S'great'
p388
tp389
a(I139
I4
F0.875
S'nice'
p390
tp391
as(S'pictures'
p392
tp393
(lp394
(I87
I5
F0.5
S'clear'
p395
tp396
a(I109
I16
F1.0
S'good'
p397
tp398
as(S'signal'
p399
tp400
(lp401
(I34
I1
F0.125
S'able'
p402
tp403
a(I48
I25
F1.0
S'good'
p404
tp405
a(I80
I1
F-0.25
S'low'
p406
tp407
a(I130
I3
F-0.5
S'sure'
p408
tp409
as(S'features'
p410
tp411
(lp412
(I5
I1
I0
S'such'
p413
tp414
a(I28
I3
F-0.625
S'average'
p415
tp416
a(I31
I3
F0.125
S'key'
p417
tp418
a(I48
I0
I0
S'different'
p419
tp420
a(I48
I0
F-0.625
S'bad'
p421
tp422
a(I81
I0
F1.0
S'good'
p423
tp424
a(I87
I0
I0
S'many'
p425
tp426
a(I87
I3
I0
S'standard'
p427
tp428
as(S'next'
p429
S'day'
p430
tp431
(lp432
(I6
I1
I0
S'next'
p433
tp434
a(I48
I25
I0
S'next'
p435
tp436
a(I151
I4
I0
S'next'
p437
tp438
as(S'signal'
p439
S'strength'
p440
tp441
(lp442
(I109
I15
I0
S'signal'
p443
tp444
a(I140
I3
I0
S'signal'
p445
tp446
a(I140
I3
F1.0
S'good'
p447
tp448
as(S'verizon'
p449
tp450
(lp451
(I53
I6
F0.375
S'enable'
p452
tp453
a(I53
I7
F-0.25
S'ready'
p454
tp455
a(I140
I8
F-0.125
S'slow'
p456
tp457
a(I154
I16
F-0.25
S'disappointed'
p458
tp459
as(S'big'
p460
S'deal'
p461
tp462
(lp463
(I46
I10
I0
S'big'
p464
tp465
a(I114
I2
I0
S'big'
p466
tp467
a(I142
I51
I0
S'big'
p468
tp469
as(S'people'
p470
tp471
(lp472
(I37
I6
F-0.625
S'other'
p473
tp474
a(I37
I7
I0
S'many'
p475
tp476
a(I37
I7
F0.125
S'first'
p477
tp478
a(I55
I1
I0
S'most'
p479
tp480
a(I69
I2
I0
S'chinese'
p481
tp482
a(I114
I0
F-0.625
S'other'
p483
tp484
a(I154
I18
I0
S'many'
p485
tp486
a(I155
I4
I0
S'most'
p487
tp488
as(S'razr'
p489
tp490
(lp491
(I7
I4
I0
S'wide'
p492
tp493
a(I7
I7
I0
S'least'
p494
tp495
a(I7
I9
F0.875
S'nice'
p496
tp497
a(I46
I4
F-0.5
S'longer'
p498
tp499
a(I46
I9
I0
S'old'
p500
tp501
a(I109
I12
F-0.25
S'thin'
p502
tp503
a(I109
I12
F-0.5
S'sure'
p504
tp505
a(I113
I2
F-0.5
S'less'
p506
tp507
a(I113
I4
I0
S'more'
p508
tp509
a(I125
I2
I0
S'wide'
p510
tp511
a(I125
I2
F0.75
S'due'
p512
tp513
a(I125
I2
I0
S'width'
p514
tp515
a(I155
I2
F-0.375
S'smaller'
p516
tp517
as(S'call'
p518
tp519
(lp520
(I48
I10
F-0.25
S'dropped'
p521
tp522
a(I78
I1
F1.0
S'good'
p523
tp524
as(S'music'
p525
S'player'
p526
tp527
(lp528
(I3
I5
F-0.875
S'awful'
p529
tp530
a(I26
I2
F0.875
g153
tp531
as(S'cingular'
p532
tp533
(lp534
(I77
I5
I0
S'old'
p535
tp536
a(I77
I5
F-0.375
S'manual'
p537
tp538
as(S'krzr'
p539
S'k1'
p540
tp541
(lp542
(I12
I0
F1.0
S'good'
p543
tp544
a(I15
I0
I0
S'such'
p545
tp546
a(I35
I0
I0
S'blue'
p547
tp548
a(I80
I0
I0
S'great'
p549
tp550
a(I114
I1
I0
S'cosmic'
p551
tp552
as(S'years'
p553
tp554
(lp555
(I109
I49
F0.625
S'noticeable'
p556
tp557
a(I154
I0
F-0.875
S'worst'
p558
tp559
as(S'microsd'
p560
S'card'
p561
tp562
(lp563
(I122
I6
F0.375
S'extra'
p564
tp565
as(S'sound'
p566
tp567
(lp568
(I18
I23
F0.875
S'nice'
p569
tp570
a(I26
I0
F0.875
S'nice'
p571
tp572
a(I26
I0
I0
S'great'
p573
tp574
a(I26
I0
I0
S'great'
p575
tp576
a(I35
I11
I0
S'phenomenal'
p577
tp578
a(I47
I0
F1.0
S'good'
p579
tp580
a(I80
I1
F0.5
S'clear'
p581
tp582
a(I104
I0
F0.5
S'clear'
p583
tp584
a(I104
I0
I0
S'signal'
p585
tp586
a(I104
I0
F1.0
S'good'
p587
tp588
a(I127
I3
F0.375
S'meant'
p589
tp590
as(S'voice'
p591
tp592
(lp593
(I48
I7
F1.0
S'good'
p594
tp595
a(I48
I7
F0.125
S'first'
p596
tp597
a(I71
I2
F1.0
S'good'
p598
tp599
a(I142
I20
F0.875
S'nice'
p600
tp601
a(I142
I20
F0.5
S'clear'
p602
tp603
as(S'ring'
p604
tp605
(lp606
(I137
I0
F1.0
S'good'
p607
tp608
a(I155
I9
I0
g93
tp609
a(I155
I10
F0.625
g95
tp610
a(I155
I11
F1.0
g97
tp611
as(S'battery'
p612
tp613
(lp614
(I6
I3
F0.125
S'first'
p615
tp616
a(I10
I1
F0.125
S'first'
p617
tp618
a(I10
I1
F0.5
S'second'
p619
tp620
a(I10
I1
F-0.75
S'invalid'
p621
tp622
a(I10
I1
I0
S'third'
p623
tp624
a(I12
I2
F-0.625
S'bad'
p625
tp626
a(I15
I0
F1.0
S'best'
p627
tp628
a(I25
I2
F-0.625
S'bad'
p629
tp630
a(I30
I3
F0.125
S'last'
p631
tp632
a(I57
I0
I0
S'particular'
p633
tp634
a(I64
I3
I0
g47
tp635
a(I64
I3
F1.0
g49
tp636
a(I83
I1
I0
S'great'
p637
tp638
a(I99
I6
F-0.25
S'low'
p639
tp640
a(I135
I3
F0.125
S'last'
p641
tp642
a(I140
I7
F0.375
g51
tp643
a(I152
I1
F-0.25
S'low'
p644
tp645
a(I152
I2
F0.75
S'due'
p646
tp647
a(I154
I11
F0.375
S'new'
p648
tp649
a(I154
I18
I0
S'same'
p650
tp651
as(S'software'
p652
tp653
(lp654
(I18
I20
F0.875
S'important'
p655
tp656
a(I21
I10
I0
S'different'
p657
tp658
a(I21
I13
I0
S'proprietary'
p659
tp660
a(I21
I17
F0.375
S'available'
p661
tp662
a(I47
I3
I0
S'same'
p663
tp664
a(I84
I4
F0.875
S'music'
p665
tp666
a(I115
I0
F-0.125
S'slow'
p667
tp668
as(S'looking'
p669
tp670
(lp671
(I4
I10
F1.0
S'good'
p672
tp673
a(I24
I1
F1.0
S'good'
p674
tp675
a(I24
I1
F0.625
S'easy'
p676
tp677
a(I37
I0
I0
S'such'
p678
tp679
a(I37
I0
F0.25
S'sharp'
p680
tp681
a(I94
I1
F1.0
S'good'
p682
tp683
a(I100
I1
F0.5
S'stylish'
p684
tp685
a(I155
I3
F-0.375
S'small'
p686
tp687
a(I155
I3
I0
S'cool'
p688
tp689
as(S'calls'
p690
tp691
(lp692
(I7
I8
I0
S'fewer'
p693
tp694
a(I29
I1
I0
S'internet'
p695
tp696
a(I109
I50
F0.5
S'clear'
p697
tp698
a(I122
I12
F0.5
S'clear'
p699
tp700
as(S'thing'
p701
tp702
(lp703
(I2
I4
F-0.625
S'other'
p704
tp705
a(I5
I7
I0
S'same'
p706
tp707
a(I5
I8
I0
S'same'
p708
tp709
a(I9
I8
F0.125
S'last'
p710
tp711
a(I15
I0
I0
S'same'
p712
tp713
a(I18
I25
F0.875
S'nice'
p714
tp715
a(I18
I25
F-0.5
S'less'
p716
tp717
a(I35
I13
I0
S'great'
p718
tp719
a(I38
I2
I0
S'only'
p720
tp721
a(I38
I2
F-0.25
S'disappointed'
p722
tp723
a(I46
I11
I0
S'english'
p724
tp725
a(I48
I15
F0.625
S'easiest'
p726
tp727
a(I81
I1
I0
S'only'
p728
tp729
a(I114
I9
I0
S'only'
p730
tp731
a(I122
I1
I0
S'same'
p732
tp733
a(I122
I1
F-0.25
S'cheaper'
p734
tp735
a(I127
I5
F0.5
S'second'
p736
tp737
a(I127
I5
F-0.375
S'happened'
p738
tp739
a(I129
I3
I0
S'only'
p740
tp741
a(I129
I3
F1.0
S'good'
p742
tp743
a(I131
I2
F0.25
S'main'
p744
tp745
a(I133
I3
F1.0
S'best'
p746
tp747
a(I142
I22
F-0.375
S'crazy'
p748
tp749
a(I142
I68
F0.5
S'whole'
p750
tp751
a(I147
I3
F0.875
S'happy'
p752
tp753
a(I152
I1
F0.125
S'first'
p754
tp755
a(I154
I2
F0.125
S'first'
p756
tp757
as(S'sim'
p758
S'card'
p759
tp760
(lp761
(I7
I25
I0
S'old'
p762
tp763
a(I60
I2
F-0.5
S'international'
p764
tp765
a(I81
I0
F-0.25
S'ready'
p766
tp767
a(I118
I5
I0
S'local'
p768
tp769
a(I118
I6
I0
S'local'
p770
tp771
a(I142
I45
I0
S'same'
p772
tp773
a(I152
I4
F0.375
S'new'
p774
tp775
as(S'charge'
p776
tp777
(lp778
(I18
I13
F0.125
S'last'
p779
tp780
a(I152
I1
I0
S'full'
p781
tp782
as(S'nothing'
p783
tp784
(lp785
(I102
I1
F-0.375
S'small'
p786
tp787
a(I109
I13
F0.625
S'perfect'
p788
tp789
a(I110
I1
F0.125
S'further'
p790
tp791
a(I142
I50
F1.0
S'better'
p792
tp793
a(I151
I11
F0.125
S'solid'
p794
tp795
as(S'works'
p796
tp797
(lp798
(I83
I7
F1.0
S'good'
p799
tp800
a(I114
I7
I0
S'great'
p801
tp802
a(I114
I12
I0
S'great'
p803
tp804
a(I114
I12
F1.0
S'better'
p805
tp806
a(I124
I0
I0
S'more'
p807
tp808
a(I124
I0
F-0.5
S'less'
p809
tp810
as(S'side'
p811
S'buttons'
p812
tp813
(lp814
(I48
I5
I0
S'sensitive'
p815
tp816
a(I83
I8
F0.5
S'touch'
p817
tp818
as(S'speaker'
p819
tp820
(lp821
(I21
I3
F0.5
S'clear'
p822
tp823
a(I114
I7
F0.5
S'clear'
p824
tp825
a(I114
I7
F0.375
S'loud'
p826
tp827
as(S'nice'
p828
tp829
(lp830
(I140
I13
F-0.25
S'cheaper'
p831
tp832
as(S'quad'
p833
S'band'
p834
tp835
(lp836
(I48
I25
I0
g332
tp837
a(I82
I1
F0.5
S'true'
p838
tp839
as(S'memory'
p840
S'chip'
p841
tp842
(lp843
(I114
I7
F0.125
S'visible'
p844
tp845
a(I114
I7
F0.5
S'functional'
p846
tp847
as(S'motorola'
p848
S'krzr'
p849
tp850
(lp851
(I105
I1
F1.0
S'good'
p852
tp853
a(I146
I0
I0
S'more'
p854
tp855
as(S'time'
p856
tp857
(lp858
(I35
I2
F0.375
S'much'
p859
tp860
a(I35
I16
F0.5
S'willing'
p861
tp862
a(I48
I7
F1.0
S'good'
p863
tp864
a(I48
I7
F1.0
S'good'
p865
tp866
a(I52
I0
F0.125
S'first'
p867
tp868
a(I52
I0
F-0.125
S'mine'
p869
tp870
a(I75
I1
F-0.625
S'other'
p871
tp872
a(I96
I9
F-0.5
S'long'
p873
tp874
a(I109
I35
F0.125
S'first'
p875
tp876
a(I119
I1
F-0.125
S'foreign'
p877
tp878
a(I144
I2
F-0.5
S'long'
p879
tp880
as(S'fine'
p881
tp882
(lp883
(I44
I0
F0.25
S'read'
p884
tp885
as(S'card'
p886
tp887
(lp888
(I2
I6
I0
S'least'
p889
tp890
a(I59
I4
F0.125
S'able'
p891
tp892
a(I81
I0
F-0.25
g766
tp893
as(S'charger'
p894
tp895
(lp896
(I40
I3
F0.375
S'new'
p897
tp898
a(I92
I0
F0.25
S'original'
p899
tp900
a(I112
I0
F-0.75
S'wrong'
p901
tp902
a(I112
I1
F-0.75
S'wrong'
p903
tp904
a(I118
I8
I0
S'same'
p905
tp906
a(I118
I8
I0
S'own'
p907
tp908
a(I118
I8
I0
S'european'
p909
tp910
a(I154
I4
F-0.625
S'wall'
p911
tp912
as(S'cell'
p913
tp914
(lp915
(I48
I10
I0
S'next'
p916
tp917
a(I48
I10
F-0.5
S'suspect'
p918
tp919
a(I69
I0
F-0.625
S'other'
p920
tp921
a(I102
I1
I0
S'big'
p922
tp923
a(I102
I1
F-0.5
S'heavy'
p924
tp925
a(I123
I0
F0.625
S'easy'
p926
tp927
as(S'krzr'
p928
tp929
(lp930
(I35
I0
I0
g547
tp931
a(I37
I0
F0.125
S'first'
p932
tp933
a(I48
I7
F0.375
S'significant'
p934
tp935
a(I48
I7
F-0.625
S'other'
p936
tp937
a(I66
I4
F0.375
S'new'
p938
tp939
a(I89
I0
F0.125
S'last'
p940
tp941
a(I95
I2
F0.5
S'stronger'
p942
tp943
a(I95
I2
I0
S'signal'
p944
tp945
a(I105
I1
F1.0
g852
tp946
a(I109
I23
F-0.125
S'overall'
p947
tp948
a(I109
I52
F-0.75
S'dead'
p949
tp950
a(I113
I0
I0
S'sleek'
p951
tp952
a(I138
I0
F0.5
S'second'
p953
tp954
a(I144
I0
F1.0
S'better'
p955
tp956
a(I146
I0
I0
g854
tp957
as(S'support'
p958
tp959
(lp960
(I20
I5
I0
S'local'
p961
tp962
a(I53
I4
I0
S'special'
p963
tp964
a(I53
I9
I0
S'own'
p965
tp966
a(I149
I7
I0
S'more'
p967
tp968
as(S'better'
p969
tp970
(lp971
(I9
I7
F0.375
S'much'
p972
tp973
a(I48
I10
F0.375
S'much'
p974
tp975
as(S'months'
p976
tp977
(lp978
(I6
I0
I0
S'february'
p979
tp980
a(I6
I0
F1.0
S'good'
p981
tp982
a(I66
I3
I0
S'deplete'
p983
tp984
a(I109
I27
I0
S'later'
p985
tp986
a(I122
I12
I0
S'few'
p987
tp988
a(I127
I3
I0
S'few'
p989
tp990
as(S'player'
p991
tp992
(lp993
(I2
I6
F-0.125
S'slow'
p994
tp995
a(I3
I5
F-0.875
g529
tp996
a(I26
I2
F0.875
g153
tp997
as(S'life'
p998
tp999
(lp1000
(I21
I24
F-0.5
g45
tp1001
a(I61
I3
F-0.875
S'hard'
p1002
tp1003
a(I109
I45
F0.125
S'digital'
p1004
tp1005
a(I140
I7
I0
g53
tp1006
as(S'old'
p1007
S'school'
p1008
tp1009
(lp1010
(I18
I10
I0
S'old'
p1011
tp1012
a(I28
I4
I0
S'old'
p1013
tp1014
a(I70
I0
I0
S'old'
p1015
tp1016
as(S'sound'
p1017
S'quality'
p1018
tp1019
(lp1020
(I47
I0
F1.0
g579
tp1021
a(I62
I5
F1.0
g347
tp1022
a(I92
I5
F-0.625
g349
tp1023
a(I116
I5
F-0.75
g359
tp1024
a(I116
I5
F-0.625
g361
tp1025
a(I116
I5
I0
g363
tp1026
a(I151
I10
F0.5
g367
tp1027
as.