(dp0
(S'weeks'
p1
tp2
(lp3
(I0
I230
F-0.25
S'past'
p4
I18
tp5
a(I0
I230
I0
S'few'
p6
I18
tp7
a(I0
I251
I0
S'few'
p8
I18
tp9
a(I0
I321
F1.0
S'good'
p10
I18
tp11
as(S'virgin'
p12
S'mobile'
p13
tp14
(lp15
(I0
I53
F0.625
S'easy'
p16
I0
tp17
a(I0
I219
F0.25
S'favorite'
p18
I0
tp19
a(I0
I353
I0
S'mobile'
p20
I0
tp21
a(I0
I355
F-0.125
S'top-up'
p22
I0
tp23
a(I2
I31
I0
S'website'
p24
I0
tp25
a(I0
I84
F-0.25
S'cheaper'
p26
I0
tp27
a(I0
I219
F0.25
g18
I0
tp28
a(I0
I353
I0
g20
I0
tp29
a(I0
I53
F0.625
g16
I0
tp30
a(I0
I355
F-0.125
g22
I0
tp31
a(I2
I31
I0
g24
I0
tp32
as(S'ringtones'
p33
tp34
(lp35
(I0
I132
F0.25
S'aged'
p36
I0
tp37
a(I0
I313
I0
S'few'
p38
I0
tp39
a(I0
I313
I0
S'fewer'
p40
I0
tp41
as(S'battery'
p42
S'life'
p43
tp44
(lp45
(I2
I30
F0.125
S'impressive'
p46
I1
tp47
a(I0
I188
F0.625
S'necessary'
p48
I15
tp49
a(I0
I200
I0
S'charged'
p50
I15
tp51
a(I0
I248
F0.5
S'second'
p52
I15
tp53
a(I0
I268
I0
S'full'
p54
I15
tp55
a(I3
I52
F0.5
S'second'
p56
I15
tp57
as(S'much'
p58
S'better'
p59
tp60
(lp61
(I0
I328
F0.375
S'much'
p62
I9
tp63
a(I2
I34
F0.375
S'much'
p64
I9
tp65
as(S'account'
p66
tp67
(lp68
(I0
I162
F0.375
S'new'
p69
I3
tp70
a(I3
I32
I0
S'least'
p71
I3
tp72
a(I3
I32
I0
S'active'
p73
I3
tp74
as(S'replacement'
p75
tp76
(lp77
(I0
I192
F0.5
S'second'
p78
I13
tp79
as(S'customer'
p80
S'service'
p81
tp82
(lp83
(I0
I176
F-0.875
S'worst'
p84
I3
tp85
a(I0
I274
F0.625
S'kind'
p86
I3
tp87
a(I0
I274
F0.5
S'polite'
p88
I3
tp89
a(I0
I274
F0.375
S'new'
p90
I3
tp91
a(I2
I1
F-0.5
S'poor'
p92
I3
tp93
a(I2
I8
F-0.5
S'poor'
p94
I3
tp95
a(I0
I1
I0
S'great'
p96
I16
tp97
a(I0
I232
I0
S'active'
p98
I16
tp99
a(I0
I235
F-0.5
S'less'
p100
I16
tp101
a(I0
I235
F0.5
S'expensive'
p102
I16
tp103
a(I0
I274
F0.625
g86
I16
tp104
a(I0
I274
F0.5
g88
I16
tp105
a(I0
I274
F0.375
g90
I16
tp106
a(I0
I339
I0
S'great'
p107
I16
tp108
a(I2
I1
F-0.5
g92
I16
tp109
a(I3
I15
F0.125
S'able'
p110
I16
tp111
a(I3
I86
I0
S'incredible'
p112
I16
tp113
a(I0
I176
F-0.875
g84
I11
tp114
a(I2
I8
F-0.5
g94
I11
tp115
as(S'nokia'
p116
tp117
(lp118
(I0
I181
F0.25
S'original'
p119
I0
tp120
a(I0
I191
I0
S'third'
p121
I0
tp122
a(I0
I256
F-0.5
S'regular'
p123
I0
tp124
a(I0
I256
I0
S'old'
p125
I0
tp126
a(I2
I22
F-0.625
S'bad'
p127
I0
tp128
a(I3
I37
F-0.375
S'smallest'
p129
I0
tp130
a(I3
I50
F0.5
S'stylish'
p131
I0
tp132
as(S'10'
p133
S'minutes'
p134
tp135
(lp136
(I0
I10
I0
S'more'
p137
I4
tp138
a(I3
I25
F0.125
S'first'
p139
I4
tp140
a(I3
I74
F0.125
S'first'
p141
I4
tp142
a(I3
I81
F-0.625
S'average'
p143
I4
tp144
as(S'web'
p145
S'site'
p146
tp147
(lp148
(I3
I101
F-0.625
S'inaccurate'
p149
I1
tp150
as(S'light'
p151
S'users'
p152
tp153
(lp154
(I0
I74
F-0.625
S'light'
p155
I0
tp156
a(I0
I76
F-0.625
S'light'
p157
I0
tp158
a(I0
I84
F-0.625
S'light'
p159
I0
tp160
as(S'shorty'
p161
tp162
(lp163
(I0
I58
F-0.375
S'small'
p164
I0
tp165
a(I0
I173
I0
S'fourth'
p166
I0
tp167
a(I0
I243
F0.75
S'worth'
p168
I0
tp169
a(I0
I281
I0
S'such'
p170
I0
tp171
a(I0
I332
I0
S'great'
p172
I0
tp173
a(I1
I0
I0
S'such'
p174
I0
tp175
a(I2
I9
F0.625
S'perfect'
p176
I0
tp177
as(S'voice'
p178
S'quality'
p179
tp180
(lp181
(I0
I3
F1.0
S'good'
p182
I0
tp183
a(I0
I42
F1.0
S'good'
p184
I0
tp185
a(I0
I230
F1.0
S'good'
p186
I0
tp187
a(I3
I5
F1.0
S'good'
p188
I0
tp189
a(I0
I3
F1.0
g182
I4
tp190
a(I0
I230
F1.0
g186
I4
tp191
as(S'calls'
p192
tp193
(lp194
(I0
I27
I0
S'few'
p195
I0
tp196
a(I0
I27
F0.375
S'extra'
p197
I0
tp198
a(I3
I56
F0.875
S'important'
p199
I0
tp200
as.