(dp0
(S'love'
p1
S'show'
p2
tp3
(lp4
(I32
I40
F-0.75
S'hate'
p5
tp6
a(I57
I0
F0.5
S'warmest'
p7
tp8
a(I81
I4
F0.375
S'much'
p9
tp10
a(I141
I4
F0.125
S'enough'
p11
tp12
a(I141
I4
F0.375
S'much'
p13
tp14
as(S'a'
p15
S'great'
p16
S'show'
p17
tp18
(lp19
(I3
I2
I0
S'great'
p20
tp21
a(I5
I3
I0
S'great'
p22
tp23
a(I9
I10
I0
S'funny'
p24
tp25
a(I30
I5
I0
S'great'
p26
tp27
a(I30
I5
I0
S'great'
p28
tp29
a(I32
I28
I0
S'great'
p30
tp31
a(I33
I0
I0
S'great'
p32
tp33
a(I37
I0
I0
S'great'
p34
tp35
a(I56
I13
I0
S'great'
p36
tp37
a(I71
I7
F0.25
S'gear'
p38
tp39
a(I140
I0
I0
S'great'
p40
tp41
as(S'characters'
p42
tp43
(lp44
(I9
I1
F0.625
S'loveable'
p45
tp46
a(I28
I2
F0.625
S'accessible'
p47
tp48
a(I28
I2
F-0.375
S'likable'
p49
tp50
a(I31
I28
F-0.625
S'other'
p51
tp52
a(I32
I26
I0
S'human'
p53
tp54
a(I32
I39
F0.5
S'obvious'
p55
tp56
a(I87
I0
I0
S'full'
p57
tp58
a(I100
I3
F-0.625
S'other'
p59
tp60
a(I102
I2
I0
S'full'
p61
tp62
a(I109
I9
I0
S'more'
p63
tp64
a(I109
I15
I0
S'more'
p65
tp66
a(I109
I15
I0
S'real'
p67
tp68
a(I111
I4
F-0.625
S'fresh'
p69
tp70
a(I111
I9
F0.25
S'favorite'
p71
tp72
a(I111
I10
F-0.625
S'other'
p73
tp74
a(I129
I2
F0.625
S'accessible'
p75
tp76
a(I129
I2
F-0.375
S'likable'
p77
tp78
as(S'year'
p79
tp80
(lp81
(I2
I3
F0.125
S'first'
p82
tp83
a(I25
I5
F0.5
S'whole'
p84
tp85
a(I31
I14
F0.375
S'much'
p86
tp87
a(I31
I14
F0.125
S'last'
p88
tp89
a(I31
I33
F1.0
S'better'
p90
tp91
a(I31
I33
F0.125
S'last'
p92
tp93
a(I54
I1
F0.125
S'last'
p94
tp95
a(I106
I19
F0.125
S'last'
p96
tp97
a(I112
I3
F0.5
S'second'
p98
tp99
as(S'story'
p100
tp101
(lp102
(I29
I0
I0
S'more'
p103
tp104
a(I31
I8
F0.25
S'biggest'
p105
tp106
a(I31
I17
F0.375
S'interesting'
p107
tp108
a(I109
I1
I0
S'own'
p109
tp110
a(I122
I1
F1.0
S'better'
p111
tp112
as(S'john'
p113
S'c.'
p114
tp115
(lp116
(I32
I21
I0
S'funny'
p117
tp118
a(I45
I5
I0
S'johnny'
p119
tp120
as(S'dr'
p121
S'cox'
p122
tp123
(lp124
(I60
I3
I0
S'ex-wife'
p125
tp126
a(I60
I3
I0
S'jordan'
p127
tp128
a(I106
I4
F-0.375
S'roast'
p129
tp130
a(I136
I1
I0
S'ex-wife'
p131
tp132
as(S'series'
p133
tp134
(lp135
(I19
I1
F-0.625
S'unfamiliar'
p136
tp137
a(I28
I3
F0.5
S'second'
p138
tp139
a(I28
I3
F0.125
S'first'
p140
tp141
a(I28
I3
F0.125
S'first'
p142
tp143
a(I32
I32
F-0.75
S'dead'
p144
tp145
a(I100
I1
F-0.375
S'small'
p146
tp147
a(I103
I0
F0.375
S'complete'
p148
tp149
a(I129
I3
F0.5
S'second'
p150
tp151
a(I129
I3
F0.125
S'first'
p152
tp153
a(I129
I3
F0.125
S'first'
p154
tp155
as(S'personal'
p156
S'lives'
p157
tp158
(lp159
(I19
I7
F0.5
S'personal'
p160
tp161
a(I19
I9
F0.5
S'personal'
p162
tp163
a(I31
I8
F0.5
S'personal'
p164
tp165
a(I112
I0
F0.5
S'personal'
p166
tp167
as(S'shows'
p168
tp169
(lp170
(I19
I2
F-0.625
S'other'
p171
tp172
a(I31
I38
I0
S'few'
p173
tp174
a(I31
I45
I0
S'most'
p175
tp176
a(I37
I4
I0
S'many'
p177
tp178
a(I49
I7
I0
S'great'
p179
tp180
a(I55
I2
I0
S'few'
p181
tp182
a(I60
I1
I0
S'few'
p183
tp184
a(I70
I8
I0
S'most'
p185
tp186
a(I71
I0
F0.25
S'favorite'
p187
tp188
a(I99
I0
F0.25
S'favorite'
p189
tp190
a(I126
I1
F0.5
S'true'
p191
tp192
as(S'screen'
p193
tp194
(lp195
(I9
I10
I0
S'wide'
p196
tp197
a(I9
I10
I0
S'wide'
p198
tp199
a(I9
I11
I0
S'wide'
p200
tp201
a(I9
I12
I0
S'wide'
p202
tp203
a(I79
I8
I0
S'full'
p204
tp205
a(I79
I12
F0.375
S'available'
p206
tp207
a(I79
I12
F-0.625
S'free'
p208
tp209
a(I121
I7
I0
S'big'
p210
tp211
as(S'n'
p212
S'first'
p213
S'season'
p214
tp215
(lp216
(I17
I0
F0.5
S'second'
p217
tp218
a(I17
I0
F0.125
S'first'
p219
tp220
a(I30
I0
F0.125
S'first'
p221
tp222
a(I31
I3
I0
S'more'
p223
tp224
a(I31
I3
F0.125
S'first'
p225
tp226
a(I45
I0
F0.125
S'first'
p227
tp228
a(I45
I8
F0.125
S'first'
p229
tp230
a(I53
I2
F0.125
S'first'
p231
tp232
a(I57
I1
F0.125
S'first'
p233
tp234
a(I70
I0
F0.125
S'first'
p235
tp236
a(I70
I1
F0.125
S'first'
p237
tp238
a(I70
I1
F0.125
S'first'
p239
tp240
a(I70
I1
F0.5
S'second'
p241
tp242
a(I70
I2
I0
S'immediate'
p243
tp244
a(I70
I3
F0.5
S'stronger'
p245
tp246
a(I71
I7
I0
S'great'
p247
tp248
a(I71
I7
F0.125
S'first'
p249
tp250
a(I75
I4
F0.125
S'first'
p251
tp252
a(I75
I4
F0.125
S'first'
p253
tp254
a(I75
I4
F0.5
S'second'
p255
tp256
a(I81
I4
F0.125
S'first'
p257
tp258
a(I100
I0
F0.5
S'second'
p259
tp260
a(I100
I1
F0.125
S'first'
p261
tp262
a(I100
I2
F0.5
S'second'
p263
tp264
a(I100
I2
F0.125
S'first'
p265
tp266
a(I106
I0
F0.5
S'second'
p267
tp268
a(I106
I0
F0.125
S'first'
p269
tp270
a(I109
I4
F0.125
S'first'
p271
tp272
a(I109
I5
F0.125
S'last'
p273
tp274
a(I109
I5
F0.125
S'first'
p275
tp276
a(I109
I11
F0.125
S'first'
p277
tp278
a(I131
I2
F0.125
S'first'
p279
tp280
a(I136
I0
F0.125
S'first'
p281
tp282
a(I147
I0
F1.0
S'good'
p283
tp284
a(I147
I0
F0.125
S'first'
p285
tp286
as(g212
S'season'
p287
tp288
(lp289
(I5
I0
F0.5
S'second'
p290
tp291
a(I5
I3
I0
S'great'
p292
tp293
a(I17
I0
F0.5
g217
tp294
a(I17
I0
F0.125
g219
tp295
a(I19
I0
F0.5
S'second'
p296
tp297
a(I19
I7
I0
S'more'
p298
tp299
a(I25
I1
F1.0
S'best'
p300
tp301
a(I25
I5
F0.5
S'second'
p302
tp303
a(I30
I0
F0.125
g221
tp304
a(I31
I0
F0.5
S'second'
p305
tp306
a(I31
I3
I0
g223
tp307
a(I31
I3
F0.125
g225
tp308
a(I31
I46
I0
S'great'
p309
tp310
a(I32
I42
F0.5
S'second'
p311
tp312
a(I32
I45
I0
S'third'
p313
tp314
a(I37
I0
I0
S'reminder'
p315
tp316
a(I45
I0
F0.125
g227
tp317
a(I45
I1
F0.375
S'complete'
p318
tp319
a(I45
I1
F0.5
S'second'
p320
tp321
a(I45
I1
I0
S'more'
p322
tp323
a(I45
I8
F0.125
g229
tp324
a(I47
I1
F0.5
S'second'
p325
tp326
a(I49
I5
F0.375
S'new'
p327
tp328
a(I53
I2
F0.125
g231
tp329
a(I56
I0
F0.25
S'original'
p330
tp331
a(I56
I0
I0
S'funny'
p332
tp333
a(I57
I1
F0.125
g233
tp334
a(I58
I0
I0
S'same'
p335
tp336
a(I60
I3
F0.5
S'possible'
p337
tp338
a(I70
I0
F0.125
g235
tp339
a(I70
I1
F0.125
g237
tp340
a(I70
I1
F0.125
g239
tp341
a(I70
I1
F0.5
g241
tp342
a(I70
I2
I0
g243
tp343
a(I70
I3
F0.5
g245
tp344
a(I70
I8
F0.125
S'last'
p345
tp346
a(I70
I17
F0.5
S'second'
p347
tp348
a(I71
I7
I0
g247
tp349
a(I71
I7
F0.125
g249
tp350
a(I75
I4
F0.125
g251
tp351
a(I75
I4
F0.125
g253
tp352
a(I75
I4
F0.5
g255
tp353
a(I81
I0
F0.5
S'second'
p354
tp355
a(I81
I4
F0.125
g257
tp356
a(I85
I1
I0
S'great'
p357
tp358
a(I88
I0
F0.375
S'complete'
p359
tp360
a(I88
I0
F0.5
S'second'
p361
tp362
a(I96
I0
F0.5
S'second'
p363
tp364
a(I100
I0
F0.5
g259
tp365
a(I100
I1
F0.125
g261
tp366
a(I100
I2
F0.5
g263
tp367
a(I100
I2
F0.125
g265
tp368
a(I100
I9
F0.5
S'second'
p369
tp370
a(I106
I0
F0.5
g267
tp371
a(I106
I0
F0.125
g269
tp372
a(I106
I32
F0.375
S'much'
p373
tp374
a(I106
I32
I0
S'more'
p375
tp376
a(I109
I4
F0.125
g271
tp377
a(I109
I5
F0.125
g273
tp378
a(I109
I5
F0.125
g275
tp379
a(I109
I11
F0.125
g277
tp380
a(I110
I0
F0.5
S'second'
p381
tp382
a(I110
I4
F0.5
S'second'
p383
tp384
a(I111
I4
I0
S'funny'
p385
tp386
a(I112
I0
F0.5
S'second'
p387
tp388
a(I118
I0
F0.5
S'second'
p389
tp390
a(I120
I1
I0
S'more'
p391
tp392
a(I122
I1
F1.0
S'better'
p393
tp394
a(I122
I2
I0
S'third'
p395
tp396
a(I124
I0
F-0.75
S'single'
p397
tp398
a(I124
I0
F1.0
S'best'
p399
tp400
a(I131
I2
F0.125
g279
tp401
a(I133
I0
I0
S'funny'
p402
tp403
a(I136
I0
F0.125
g281
tp404
a(I136
I8
F0.375
S'much'
p405
tp406
a(I136
I8
F-0.625
S'other'
p407
tp408
a(I136
I18
F-0.625
S'bad'
p409
tp410
a(I136
I19
F1.0
S'best'
p411
tp412
a(I137
I1
F0.5
S'second'
p413
tp414
a(I137
I2
I0
S'third'
p415
tp416
a(I147
I0
F1.0
g283
tp417
a(I147
I0
F0.125
g285
tp418
a(I149
I0
F0.5
S'second'
p419
tp420
as(S'wife'
p421
tp422
(lp423
(I136
I3
I0
S'pregnant'
p424
tp425
as(S'comedy'
p426
tp427
(lp428
(I4
I1
F1.0
S'best'
p429
tp430
a(I9
I1
I0
S'physical'
p431
tp432
a(I56
I1
I0
S'standard'
p433
tp434
a(I56
I11
F-0.875
S'hard'
p435
tp436
a(I96
I0
F1.0
S'best'
p437
tp438
a(I120
I2
I0
S'generic'
p439
tp440
as(S'john'
p441
S'c'
p442
S'mcginley'
p443
tp444
(lp445
(I32
I21
I0
g117
tp446
a(I112
I31
F0.375
S'interesting'
p447
tp448
as(S'turk'
p449
tp450
(lp451
(I16
I1
I0
S'wish'
p452
tp453
a(I31
I26
F-0.125
S'badger'
p454
tp455
a(I32
I17
F1.0
S'best'
p456
tp457
a(I32
I17
F0.125
S'pal'
p458
tp459
a(I112
I17
I0
S'couch'
p460
tp461
as(S'qwerty'
p462
S'keyboard'
p463
tp464
(lp465
(I27
I10
F1.0
S'good'
p466
tp467
a(I27
I10
F0.875
S'nice'
p468
tp469
a(I114
I2
I0
S'full'
p470
tp471
a(I121
I0
F1.0
S'good'
p472
tp473
as(S'sierra'
p474
S'wireless'
p475
tp476
(lp477
(I91
I4
F0.125
S'last'
p478
tp479
a(I91
I23
F0.125
S'first'
p480
tp481
a(I91
I23
F0.125
S'last'
p482
tp483
as(S'scrubs'
p484
tp485
(lp486
(I2
I5
I0
S'entire'
p487
tp488
a(I4
I3
I0
S'different'
p489
tp490
a(I4
I3
F-0.5
S'try'
p491
tp492
a(I9
I6
I0
S'close'
p493
tp494
a(I17
I0
F1.0
S'good'
p495
tp496
a(I19
I4
F0.375
S'honest'
p497
tp498
a(I30
I1
I0
S'awhile'
p499
tp500
a(I31
I42
F-0.75
S'short'
p501
tp502
a(I31
I42
I0
S'great'
p503
tp504
a(I32
I31
F1.0
S'best'
p505
tp506
a(I45
I0
F0.375
S'complete'
p507
tp508
a(I45
I8
F0.375
S'complete'
p509
tp510
a(I56
I0
F0.125
S'last'
p511
tp512
a(I64
I0
I0
S'fanatic'
p513
tp514
a(I77
I2
I0
S'such'
p515
tp516
a(I88
I2
F-0.625
S'glad'
p517
tp518
a(I100
I8
F-0.75
S'difficult'
p519
tp520
a(I103
I0
I0
S'real'
p521
tp522
a(I119
I1
F0.5
S'true'
p523
tp524
a(I126
I2
I0
S'funny'
p525
tp526
a(I131
I5
I0
S'entire'
p527
tp528
a(I135
I0
I0
S'great'
p529
tp530
a(I149
I0
F0.375
S'complete'
p531
tp532
a(I149
I4
F0.625
S'perfect'
p533
tp534
as(S'quality'
p535
tp536
(lp537
(I9
I4
I0
S'high'
p538
tp539
a(I9
I6
I0
S'human'
p540
tp541
a(I9
I6
I0
S'reach'
p542
tp543
a(I9
I6
I0
S'high'
p544
tp545
a(I43
I18
F0.75
S'worth'
p546
tp547
a(I45
I0
I0
S'high'
p548
tp549
a(I78
I5
F0.125
S'first'
p550
tp551
a(I78
I5
I0
S'many'
p552
tp553
a(I91
I4
I0
S'high'
p554
tp555
as(S'life'
p556
tp557
(lp558
(I31
I3
F0.25
S'hospital'
p559
tp560
a(I35
I3
F0.125
S'usual'
p561
tp562
a(I60
I2
F0.25
S'hospital'
p563
tp564
a(I112
I18
F0.5
S'personal'
p565
tp566
a(I114
I12
F-0.625
S'bad'
p567
tp568
a(I149
I2
I0
S'real'
p569
tp570
as(S'web'
p571
S'site'
p572
tp573
(lp574
(I91
I16
I0
S'most'
p575
tp576
as(S'windows'
p577
tp578
(lp579
(I18
I0
I0
S'mobile'
p580
tp581
a(I27
I1
I0
S'mobile'
p582
tp583
a(I27
I5
I0
S'own'
p584
tp585
a(I43
I2
F-0.625
S'other'
p586
tp587
a(I91
I27
I0
S'mobile'
p588
tp589
a(I93
I2
F0.5
S'functional'
p590
tp591
a(I108
I1
I0
S'mobile'
p592
tp593
as(S'right'
p594
tp595
(lp596
(I120
I8
F0.25
S'favorite'
p597
tp598
as(S'elliot'
p599
tp600
(lp601
(I109
I6
F0.875
S'happy'
p602
tp603
a(I109
I6
I0
S'more'
p604
tp605
as(S'things'
p606
tp607
(lp608
(I2
I3
F1.0
S'good'
p609
tp610
a(I2
I3
F0.5
S'true'
p611
tp612
a(I14
I3
F1.0
S'best'
p613
tp614
a(I31
I7
F-0.75
S'difficult'
p615
tp616
a(I120
I8
F-0.375
S'small'
p617
tp618
a(I144
I7
F1.0
S'good'
p619
tp620
as(S'features'
p621
tp622
(lp623
(I9
I18
I0
S'special'
p624
tp625
a(I19
I13
I0
S'more'
p626
tp627
a(I31
I42
F-0.625
S'other'
p628
tp629
a(I31
I42
F-0.5
S'sure'
p630
tp631
a(I42
I0
I0
S'basic'
p632
tp633
a(I42
I0
F0.625
S'easy'
p634
tp635
a(I43
I1
I0
S'great'
p636
tp637
a(I43
I1
I0
S'such'
p638
tp639
a(I45
I5
F-0.625
S'other'
p640
tp641
a(I45
I5
I0
S'great'
p642
tp643
a(I45
I5
F0.375
S'new'
p644
tp645
a(I80
I7
I0
S'forth'
p646
tp647
a(I80
I7
I0
S'great'
p648
tp649
a(I100
I4
I0
S'special'
p650
tp651
a(I100
I5
I0
S'more'
p652
tp653
a(I108
I5
I0
S'different'
p654
tp655
a(I120
I7
I0
S'special'
p656
tp657
a(I120
I7
I0
S'great'
p658
tp659
a(I126
I5
I0
S'commentary'
p660
tp661
a(I131
I1
I0
S'special'
p662
tp663
a(I131
I1
F0.125
S'informative'
p664
tp665
a(I131
I2
I0
S'many'
p666
tp667
a(I149
I3
F0.375
S'extra'
p668
tp669
as(S'gets'
p670
tp671
(lp672
(I25
I4
F1.0
S'better'
p673
tp674
a(I125
I3
I0
S'november'
p675
tp676
as(S'fantasy'
p677
S'sequences'
p678
tp679
(lp680
(I5
I2
F0.25
S'original'
p681
tp682
a(I31
I14
F-0.5
S'fantasy'
p683
tp684
a(I112
I1
F0.5
S'odd'
p685
tp686
a(I112
I1
F-0.5
S'fantasy'
p687
tp688
as(S'show'
p689
tp690
(lp691
(I3
I2
I0
g20
tp692
a(I5
I3
I0
g22
tp693
a(I9
I6
F-0.375
S'top'
p694
tp695
a(I9
I10
I0
g24
tp696
a(I9
I11
F0.875
S'nice'
p697
tp698
a(I10
I2
F0.25
S'hospital'
p699
tp700
a(I11
I0
F0.25
S'favorite'
p701
tp702
a(I13
I0
I0
S'dvd'
p703
tp704
a(I23
I1
F0.25
S'medical'
p705
tp706
a(I26
I0
I0
S'funny'
p707
tp708
a(I30
I5
I0
g26
tp709
a(I30
I5
I0
g28
tp710
a(I32
I11
F-0.625
S'fresh'
p711
tp712
a(I32
I11
F0.125
S'typical'
p713
tp714
a(I32
I22
F0.25
S'talent'
p715
tp716
a(I32
I22
I0
S'singular'
p717
tp718
a(I32
I28
I0
g30
tp719
a(I32
I40
F-0.75
g5
tp720
a(I33
I0
I0
g32
tp721
a(I37
I0
I0
g34
tp722
a(I37
I5
F0.75
S'worth'
p723
tp724
a(I45
I7
F-0.625
S'other'
p725
tp726
a(I52
I1
I0
S'general'
p727
tp728
a(I53
I0
F0.5
S'absolute'
p729
tp730
a(I53
I0
F1.0
S'best'
p731
tp732
a(I56
I13
I0
g36
tp733
a(I57
I0
F0.5
g7
tp734
a(I60
I1
F1.0
S'good'
p735
tp736
a(I60
I5
F-0.5
S'long'
p737
tp738
a(I71
I7
F0.25
g38
tp739
a(I81
I4
F0.375
g9
tp740
a(I82
I4
I0
S'funny'
p741
tp742
a(I88
I2
F-0.75
S'sad'
p743
tp744
a(I122
I1
F1.0
S'better'
p745
tp746
a(I123
I5
F0.5
S'crucial'
p747
tp748
a(I140
I0
I0
g40
tp749
a(I141
I4
F0.125
g11
tp750
a(I141
I4
F0.375
g13
tp751
a(I144
I5
F-0.625
S'bad'
p752
tp753
a(I144
I5
I0
S'funny'
p754
tp755
as(S'episodes'
p756
tp757
(lp758
(I9
I15
I0
S'great'
p759
tp760
a(I19
I14
I0
S'great'
p761
tp762
a(I31
I20
I0
S'earlier'
p763
tp764
a(I118
I2
I0
S'great'
p765
tp766
a(I125
I1
I0
S'more'
p767
tp768
a(I125
I1
I0
S'more'
p769
tp770
as(S'sarah'
p771
S'chalke'
p772
tp773
(lp774
(I19
I10
F0.625
S'sexy'
p775
tp776
as(S'sim'
p777
S'cards'
p778
tp779
(lp780
(I61
I4
I0
S'different'
p781
tp782
a(I61
I4
I0
S'overseas'
p783
tp784
a(I91
I30
F0.375
S'new'
p785
tp786
a(I91
I42
F-0.25
S'inexpensive'
p787
tp788
a(I91
I46
F0.375
S'new'
p789
tp790
as(S'great'
p791
S'show'
p792
tp793
(lp794
(I3
I2
I0
g20
tp795
a(I5
I3
I0
g22
tp796
a(I9
I10
I0
g24
tp797
a(I30
I5
I0
g26
tp798
a(I30
I5
I0
g28
tp799
a(I32
I28
I0
g30
tp800
a(I33
I0
I0
g32
tp801
a(I37
I0
I0
g34
tp802
a(I56
I13
I0
g36
tp803
a(I71
I7
F0.25
g38
tp804
a(I140
I0
I0
g40
tp805
as(S'battery'
p806
tp807
(lp808
(I84
I3
F1.0
S'good'
p809
tp810
a(I121
I0
F0.5
S'reasonable'
p811
tp812
a(I121
I3
I0
S'predictable'
p813
tp814
as(S'works'
p815
tp816
(lp817
(I80
I4
I0
S'great'
p818
tp819
a(I89
I2
I0
S'great'
p820
tp821
a(I91
I4
I0
S'great'
p822
tp823
as(g442
S'mcginley'
p824
tp825
(lp826
(I112
I31
F0.375
g447
tp827
as(S'ever'
p828
tp829
(lp830
(I19
I8
F-0.375
S'cast'
p831
tp832
as(S'television'
p833
tp834
(lp835
(I23
I0
F0.25
S'original'
p836
tp837
a(I32
I10
F0.25
S'original'
p838
tp839
a(I32
I14
I0
S'most'
p840
tp841
a(I32
I14
F-0.375
S'cast'
p842
tp843
a(I32
I25
F0.625
S'successful'
p844
tp845
a(I32
I32
F0.375
S'new'
p846
tp847
a(I32
I32
F0.75
S'classic'
p848
tp849
a(I32
I32
F-0.5
S'long'
p850
tp851
as(S'first'
p852
S'season'
p853
tp854
(lp855
(I17
I0
F0.5
g217
tp856
a(I17
I0
F0.125
g219
tp857
a(I30
I0
F0.125
g221
tp858
a(I31
I3
I0
g223
tp859
a(I31
I3
F0.125
g225
tp860
a(I45
I0
F0.125
g227
tp861
a(I45
I8
F0.125
g229
tp862
a(I53
I2
F0.125
g231
tp863
a(I57
I1
F0.125
g233
tp864
a(I70
I0
F0.125
g235
tp865
a(I70
I1
F0.125
g237
tp866
a(I70
I1
F0.125
g239
tp867
a(I70
I1
F0.5
g241
tp868
a(I70
I2
I0
g243
tp869
a(I70
I3
F0.5
g245
tp870
a(I71
I7
I0
g247
tp871
a(I71
I7
F0.125
g249
tp872
a(I75
I4
F0.125
g251
tp873
a(I75
I4
F0.125
g253
tp874
a(I75
I4
F0.5
g255
tp875
a(I81
I4
F0.125
g257
tp876
a(I100
I0
F0.5
g259
tp877
a(I100
I1
F0.125
g261
tp878
a(I100
I2
F0.5
g263
tp879
a(I100
I2
F0.125
g265
tp880
a(I106
I0
F0.5
g267
tp881
a(I106
I0
F0.125
g269
tp882
a(I109
I4
F0.125
g271
tp883
a(I109
I5
F0.125
g273
tp884
a(I109
I5
F0.125
g275
tp885
a(I109
I11
F0.125
g277
tp886
a(I131
I2
F0.125
g279
tp887
a(I136
I0
F0.125
g281
tp888
a(I147
I0
F1.0
g283
tp889
a(I147
I0
F0.125
g285
tp890
as(S'season'
p891
tp892
(lp893
(I5
I0
F0.5
g290
tp894
a(I5
I3
I0
g292
tp895
a(I17
I0
F0.5
g217
tp896
a(I17
I0
F0.125
g219
tp897
a(I19
I0
F0.5
g296
tp898
a(I19
I7
I0
g298
tp899
a(I25
I1
F1.0
g300
tp900
a(I25
I5
F0.5
g302
tp901
a(I30
I0
F0.125
g221
tp902
a(I31
I0
F0.5
g305
tp903
a(I31
I3
I0
g223
tp904
a(I31
I3
F0.125
g225
tp905
a(I31
I46
I0
g309
tp906
a(I32
I42
F0.5
g311
tp907
a(I32
I45
I0
g313
tp908
a(I37
I0
I0
g315
tp909
a(I45
I0
F0.125
g227
tp910
a(I45
I1
F0.375
g318
tp911
a(I45
I1
F0.5
g320
tp912
a(I45
I1
I0
g322
tp913
a(I45
I8
F0.125
g229
tp914
a(I47
I1
F0.5
g325
tp915
a(I49
I5
F0.375
g327
tp916
a(I53
I2
F0.125
g231
tp917
a(I56
I0
F0.25
g330
tp918
a(I56
I0
I0
g332
tp919
a(I57
I1
F0.125
g233
tp920
a(I58
I0
I0
g335
tp921
a(I60
I3
F0.5
g337
tp922
a(I70
I0
F0.125
g235
tp923
a(I70
I1
F0.125
g237
tp924
a(I70
I1
F0.125
g239
tp925
a(I70
I1
F0.5
g241
tp926
a(I70
I2
I0
g243
tp927
a(I70
I3
F0.5
g245
tp928
a(I70
I8
F0.125
g345
tp929
a(I70
I17
F0.5
g347
tp930
a(I71
I7
I0
g247
tp931
a(I71
I7
F0.125
g249
tp932
a(I75
I4
F0.125
g251
tp933
a(I75
I4
F0.125
g253
tp934
a(I75
I4
F0.5
g255
tp935
a(I81
I0
F0.5
g354
tp936
a(I81
I4
F0.125
g257
tp937
a(I85
I1
I0
g357
tp938
a(I88
I0
F0.375
g359
tp939
a(I88
I0
F0.5
g361
tp940
a(I96
I0
F0.5
g363
tp941
a(I100
I0
F0.5
g259
tp942
a(I100
I1
F0.125
g261
tp943
a(I100
I2
F0.5
g263
tp944
a(I100
I2
F0.125
g265
tp945
a(I100
I9
F0.5
g369
tp946
a(I106
I0
F0.5
g267
tp947
a(I106
I0
F0.125
g269
tp948
a(I106
I32
F0.375
g373
tp949
a(I106
I32
I0
g375
tp950
a(I109
I4
F0.125
g271
tp951
a(I109
I5
F0.125
g273
tp952
a(I109
I5
F0.125
g275
tp953
a(I109
I11
F0.125
g277
tp954
a(I110
I0
F0.5
g381
tp955
a(I110
I4
F0.5
g383
tp956
a(I111
I4
I0
g385
tp957
a(I112
I0
F0.5
g387
tp958
a(I118
I0
F0.5
g389
tp959
a(I120
I1
I0
g391
tp960
a(I122
I1
F1.0
g393
tp961
a(I122
I2
I0
g395
tp962
a(I124
I0
F-0.75
g397
tp963
a(I124
I0
F1.0
g399
tp964
a(I131
I2
F0.125
g279
tp965
a(I133
I0
I0
g402
tp966
a(I136
I0
F0.125
g281
tp967
a(I136
I8
F0.375
g405
tp968
a(I136
I8
F-0.625
g407
tp969
a(I136
I18
F-0.625
g409
tp970
a(I136
I19
F1.0
g411
tp971
a(I137
I1
F0.5
g413
tp972
a(I137
I2
I0
g415
tp973
a(I147
I0
F1.0
g283
tp974
a(I147
I0
F0.125
g285
tp975
a(I149
I0
F0.5
g419
tp976
as(S'episode'
p977
tp978
(lp979
(I7
I0
I0
S'great'
p980
tp981
a(I14
I1
I0
S'full'
p982
tp983
a(I31
I23
I0
S'later'
p984
tp985
a(I31
I33
F0.375
S'new'
p986
tp987
a(I31
I33
F-0.625
S'fresh'
p988
tp989
a(I32
I23
F0.375
S'newest'
p990
tp991
a(I47
I2
F0.75
S'worth'
p992
tp993
a(I51
I3
F-0.5
S'sure'
p994
tp995
a(I56
I10
F0.125
S'first'
p996
tp997
a(I70
I10
F0.625
S'emotional'
p998
tp999
a(I106
I9
I0
S'realistic'
p1000
tp1001
a(I106
I21
F0.25
S'favorite'
p1002
tp1003
a(I109
I2
F0.125
S'explore'
p1004
tp1005
a(I112
I9
I0
S'great'
p1006
tp1007
a(I118
I1
F0.25
S'favorite'
p1008
tp1009
a(I123
I6
F-0.625
S'other'
p1010
tp1011
a(I139
I1
F-0.625
S'bad'
p1012
tp1013
as(S'thing'
p1014
tp1015
(lp1016
(I31
I20
I0
S'great'
p1017
tp1018
a(I31
I38
F0.875
S'music'
p1019
tp1020
a(I31
I38
I0
S'such'
p1021
tp1022
a(I31
I38
F0.125
S'essential'
p1023
tp1024
a(I43
I14
F0.375
S'new'
p1025
tp1026
a(I57
I0
I0
S'few'
p1027
tp1028
a(I79
I13
I0
S'only'
p1029
tp1030
a(I91
I37
I0
S'only'
p1031
tp1032
a(I91
I37
F-0.625
S'bad'
p1033
tp1034
a(I105
I1
I0
S'only'
p1035
tp1036
a(I105
I1
F-0.625
S'bad'
p1037
tp1038
a(I114
I12
F-0.625
S'bad'
p1039
tp1040
a(I115
I2
I0
S'same'
p1041
tp1042
as(S'people'
p1043
tp1044
(lp1045
(I25
I0
I0
S'many'
p1046
tp1047
a(I31
I43
I0
S'least'
p1048
tp1049
a(I71
I5
I0
S'same'
p1050
tp1051
a(I78
I17
F1.0
S'good'
p1052
tp1053
a(I112
I0
I0
S'more'
p1054
tp1055
a(I112
I0
I0
S'real'
p1056
tp1057
a(I112
I0
F-0.125
S'invest'
p1058
tp1059
as(S'laugh'
p1060
tp1061
(lp1062
(I135
I2
F1.0
S'good'
p1063
tp1064
as(S'battery'
p1065
S'life'
p1066
tp1067
(lp1068
(I114
I12
F-0.625
g567
tp1069
a(I121
I0
F0.5
g811
tp1070
a(I121
I3
I0
g813
tp1071
as(S'cast'
p1072
tp1073
(lp1074
(I5
I2
F-0.5
S'regular'
p1075
tp1076
a(I9
I1
I0
S'great'
p1077
tp1078
a(I9
I1
F0.125
S'colorful'
p1079
tp1080
a(I19
I14
F0.25
S'main'
p1081
tp1082
a(I112
I25
F-0.5
S'regular'
p1083
tp1084
as(S'carla'
p1085
tp1086
(lp1087
(I31
I33
I0
S'next'
p1088
tp1089
as(S'music'
p1090
tp1091
(lp1092
(I26
I1
I0
S'great'
p1093
tp1094
a(I31
I36
I0
S'great'
p1095
tp1096
a(I32
I28
I0
S'great'
p1097
tp1098
a(I126
I3
I0
S'great'
p1099
tp1100
as(S'watching'
p1101
tp1102
(lp1103
(I100
I5
F0.75
S'worth'
p1104
tp1105
as(S'price'
p1106
tp1107
(lp1108
(I1
I1
F-0.5
S'heavier'
p1109
tp1110
a(I1
I1
F0.875
S'happy'
p1111
tp1112
a(I20
I1
F0.5
S'reasonable'
p1113
tp1114
a(I43
I1
F-0.25
S'low'
p1115
tp1116
a(I43
I18
F-0.25
S'low'
p1117
tp1118
a(I43
I18
F-0.25
S'low'
p1119
tp1120
a(I94
I0
F1.0
S'better'
p1121
tp1122
a(I94
I0
F0.5
S'comparable'
p1123
tp1124
a(I95
I1
I0
S'great'
p1125
tp1126
a(I131
I8
I0
S'great'
p1127
tp1128
a(I132
I0
F-0.25
S'low'
p1129
tp1130
a(I140
I3
F0.5
S'reasonable'
p1131
tp1132
as(S'time'
p1133
tp1134
(lp1135
(I9
I8
F0.625
S'acceptable'
p1136
tp1137
a(I9
I8
F0.375
S'prime'
p1138
tp1139
a(I14
I5
F-0.125
S'overall'
p1140
tp1141
a(I14
I5
I0
S'great'
p1142
tp1143
a(I16
I0
F-0.5
S'long'
p1144
tp1145
a(I19
I4
I0
S'same'
p1146
tp1147
a(I30
I5
F1.0
S'good'
p1148
tp1149
a(I30
I5
I0
S'general'
p1150
tp1151
a(I31
I11
F-0.875
S'hard'
p1152
tp1153
a(I32
I1
I0
S'half-hour'
p1154
tp1155
a(I37
I4
F0.5
S'second'
p1156
tp1157
a(I37
I4
I0
S'third'
p1158
tp1159
a(I37
I4
I0
S'fourth'
p1160
tp1161
a(I39
I7
F0.875
S'music'
p1162
tp1163
a(I41
I3
F-0.5
S'long'
p1164
tp1165
a(I42
I2
F0.75
S'worth'
p1166
tp1167
a(I44
I0
I0
S'same'
p1168
tp1169
a(I52
I0
I0
S'same'
p1170
tp1171
a(I57
I0
I0
S'same'
p1172
tp1173
a(I58
I1
I0
S'same'
p1174
tp1175
a(I71
I3
I0
S'entire'
p1176
tp1177
a(I76
I4
F-0.5
S'long'
p1178
tp1179
a(I78
I15
F0.125
S'first'
p1180
tp1181
a(I80
I4
F-0.125
S'slow'
p1182
tp1183
a(I91
I4
I0
S'same'
p1184
tp1185
a(I91
I30
I0
S'wish'
p1186
tp1187
a(I91
I30
I0
S'more'
p1188
tp1189
a(I91
I44
F0.5
S'expensive'
p1190
tp1191
a(I91
I44
I0
S'real'
p1192
tp1193
a(I91
I44
F-0.875
S'hard'
p1194
tp1195
a(I91
I45
F-0.875
S'hard'
p1196
tp1197
a(I106
I15
F0.125
S'first'
p1198
tp1199
a(I106
I23
F0.125
S'first'
p1200
tp1201
a(I109
I5
I0
S'human'
p1202
tp1203
a(I112
I18
I0
S'same'
p1204
tp1205
a(I112
I19
I0
S'funny'
p1206
tp1207
as(S'amy'
p1208
S'smart'
p1209
tp1210
(lp1211
(I5
I2
I0
S'hot'
p1212
tp1213
as(S'season'
p1214
S'of'
p1215
S'scrubs'
p1216
tp1217
(lp1218
(I2
I5
I0
g487
tp1219
a(I5
I0
F0.5
g290
tp1220
a(I17
I0
F0.5
g217
tp1221
a(I17
I0
F1.0
g495
tp1222
a(I17
I0
F0.125
g219
tp1223
a(I19
I0
F0.5
g296
tp1224
a(I31
I0
F0.5
g305
tp1225
a(I45
I0
F0.375
g507
tp1226
a(I45
I0
F0.125
g227
tp1227
a(I47
I1
F0.5
g325
tp1228
a(I58
I0
I0
g335
tp1229
a(I96
I0
F0.5
g363
tp1230
a(I100
I0
F0.5
g259
tp1231
a(I106
I0
F0.5
g267
tp1232
a(I106
I0
F0.125
g269
tp1233
a(I106
I32
F0.375
g373
tp1234
a(I106
I32
I0
g375
tp1235
a(I112
I0
F0.5
g387
tp1236
a(I124
I0
F-0.75
g397
tp1237
a(I124
I0
F1.0
g399
tp1238
a(I135
I0
I0
g529
tp1239
a(I149
I0
F0.375
g531
tp1240
a(I149
I0
F0.5
g419
tp1241
as(S'smartphone'
p1242
tp1243
(lp1244
(I18
I0
F1.0
S'best'
p1245
tp1246
a(I27
I14
I0
S'site'
p1247
tp1248
a(I27
I14
F0.375
S'new'
p1249
tp1250
a(I43
I2
I0
S'such'
p1251
tp1252
a(I43
I10
F-0.75
S'comfortable'
p1253
tp1254
a(I79
I12
F-0.625
S'other'
p1255
tp1256
a(I114
I0
F0.125
S'first'
p1257
tp1258
as(S'card'
p1259
tp1260
(lp1261
(I78
I14
I0
S'file'
p1262
tp1263
as(S'love'
p1264
tp1265
(lp1266
(I120
I8
F0.375
S'new'
p1267
tp1268
as(S'no'
p1269
S'laugh'
p1270
S'track'
p1271
tp1272
(lp1273
(I56
I12
I0
S'funny'
p1274
tp1275
a(I56
I12
F0.375
S'laugh'
p1276
tp1277
a(I112
I2
F0.375
S'laugh'
p1278
tp1279
a(I120
I2
F0.375
S'laugh'
p1280
tp1281
a(I120
I2
F1.0
S'better'
p1282
tp1283
a(I126
I4
F0.375
S'laugh'
p1284
tp1285
as(S'hospital'
p1286
tp1287
(lp1288
(I31
I44
I0
S'many'
p1289
tp1290
a(I100
I6
I0
S'real'
p1291
tp1292
as(S'windows'
p1293
S'mobile'
p1294
tp1295
(lp1296
(I18
I0
I0
g580
tp1297
a(I27
I1
I0
g582
tp1298
a(I27
I5
I0
g584
tp1299
a(I43
I2
F-0.625
g586
tp1300
a(I91
I27
I0
g588
tp1301
a(I108
I1
I0
g592
tp1302
as(S'second'
p1303
S'season'
p1304
tp1305
(lp1306
(I5
I0
F0.5
g290
tp1307
a(I17
I0
F0.5
g217
tp1308
a(I17
I0
F0.125
g219
tp1309
a(I19
I0
F0.5
g296
tp1310
a(I25
I5
F0.5
g302
tp1311
a(I31
I0
F0.5
g305
tp1312
a(I32
I42
F0.5
g311
tp1313
a(I45
I1
F0.375
g318
tp1314
a(I45
I1
F0.5
g320
tp1315
a(I45
I1
I0
g322
tp1316
a(I47
I1
F0.5
g325
tp1317
a(I70
I1
F0.125
g237
tp1318
a(I70
I1
F0.125
g239
tp1319
a(I70
I1
F0.5
g241
tp1320
a(I70
I17
F0.5
g347
tp1321
a(I75
I4
F0.125
g251
tp1322
a(I75
I4
F0.125
g253
tp1323
a(I75
I4
F0.5
g255
tp1324
a(I81
I0
F0.5
g354
tp1325
a(I88
I0
F0.375
g359
tp1326
a(I88
I0
F0.5
g361
tp1327
a(I96
I0
F0.5
g363
tp1328
a(I100
I0
F0.5
g259
tp1329
a(I100
I2
F0.5
g263
tp1330
a(I100
I2
F0.125
g265
tp1331
a(I100
I9
F0.5
g369
tp1332
a(I106
I0
F0.5
g267
tp1333
a(I106
I0
F0.125
g269
tp1334
a(I110
I0
F0.5
g381
tp1335
a(I110
I4
F0.5
g383
tp1336
a(I112
I0
F0.5
g387
tp1337
a(I118
I0
F0.5
g389
tp1338
a(I137
I1
F0.5
g413
tp1339
a(I149
I0
F0.5
g419
tp1340
as(S'character'
p1341
tp1342
(lp1343
(I9
I5
F0.25
S'main'
p1344
tp1345
a(I30
I4
I0
S'more'
p1346
tp1347
a(I30
I4
F0.375
S'interesting'
p1348
tp1349
a(I32
I33
I0
S'third'
p1350
tp1351
a(I70
I12
I0
S'human'
p1352
tp1353
a(I109
I1
I0
S'different'
p1354
tp1355
a(I131
I3
F1.0
S'best'
p1356
tp1357
as(S'guest'
p1358
S'stars'
p1359
tp1360
(lp1361
(I30
I1
I0
S'guest'
p1362
tp1363
a(I112
I30
I0
S'guest'
p1364
tp1365
a(I112
I30
F0.875
S'music'
p1366
tp1367
as(g212
S'second'
p1368
S'season'
p1369
tp1370
(lp1371
(I5
I0
F0.5
g290
tp1372
a(I17
I0
F0.5
g217
tp1373
a(I17
I0
F0.125
g219
tp1374
a(I19
I0
F0.5
g296
tp1375
a(I25
I5
F0.5
g302
tp1376
a(I31
I0
F0.5
g305
tp1377
a(I32
I42
F0.5
g311
tp1378
a(I45
I1
F0.375
g318
tp1379
a(I45
I1
F0.5
g320
tp1380
a(I45
I1
I0
g322
tp1381
a(I47
I1
F0.5
g325
tp1382
a(I70
I1
F0.125
g237
tp1383
a(I70
I1
F0.125
g239
tp1384
a(I70
I1
F0.5
g241
tp1385
a(I70
I17
F0.5
g347
tp1386
a(I75
I4
F0.125
g251
tp1387
a(I75
I4
F0.125
g253
tp1388
a(I75
I4
F0.5
g255
tp1389
a(I81
I0
F0.5
g354
tp1390
a(I88
I0
F0.375
g359
tp1391
a(I88
I0
F0.5
g361
tp1392
a(I96
I0
F0.5
g363
tp1393
a(I100
I0
F0.5
g259
tp1394
a(I100
I2
F0.5
g263
tp1395
a(I100
I2
F0.125
g265
tp1396
a(I100
I9
F0.5
g369
tp1397
a(I106
I0
F0.5
g267
tp1398
a(I106
I0
F0.125
g269
tp1399
a(I110
I0
F0.5
g381
tp1400
a(I110
I4
F0.5
g383
tp1401
a(I112
I0
F0.5
g387
tp1402
a(I118
I0
F0.5
g389
tp1403
a(I137
I1
F0.5
g413
tp1404
a(I149
I0
F0.5
g419
tp1405
as(S'watch'
p1406
tp1407
(lp1408
(I39
I4
F0.875
S'music'
p1409
tp1410
as.