(dp0
(S'razr'
p1
tp2
(lp3
(I5
I16
F-0.5
S'regular'
p4
I0
tp5
a(I7
I2
F0.25
S'original'
p6
I0
tp7
a(I18
I3
F-0.375
S'black'
p8
I0
tp9
a(I18
I3
F-0.5
S'flimsy'
p10
I0
tp11
a(I18
I3
F-0.5
S'afraid'
p12
I0
tp13
a(I18
I7
F0.375
S'similar'
p14
I0
tp15
a(I18
I7
F-0.375
S'black'
p16
I0
tp17
a(I18
I9
F-0.5
S'regular'
p18
I0
tp19
as(S'motorola'
p20
tp21
(lp22
(I2
I5
F-0.5
S'open'
p23
I0
tp24
a(I10
I3
F0.375
S'new'
p25
I0
tp26
as(S'gold'
p27
tp28
(lp29
(I9
I1
F-0.375
S'black'
p30
I6
tp31
as.