(dp0
(S'memory'
p1
S'card'
p2
tp3
(lp4
(I1
I39
I0
S'internal'
p5
I0
tp6
a(I1
I39
I0
S'accompanied'
p7
I0
tp8
a(I9
I103
F-0.75
S'little'
p9
I0
tp10
a(I9
I103
I0
S'internal'
p11
I0
tp12
a(I14
I8
I0
S'gig'
p13
I0
tp14
as(S'mobile'
p15
tp16
(lp17
(I8
I0
I0
S'old'
p18
I0
tp19
as(S'battery'
p20
S'life'
p21
tp22
(lp23
(I0
I299
I0
S'great'
p24
I1
tp25
a(I0
I299
I0
S'great'
p26
I1
tp27
a(I4
I36
I0
S'phenomenal'
p28
I1
tp29
a(I8
I141
F1.0
S'good'
p30
I1
tp31
a(I9
I71
F-0.75
S'short'
p32
I1
tp33
a(I13
I3
I0
S'great'
p34
I1
tp35
a(I13
I7
F-0.5
S'long'
p36
I1
tp37
a(I13
I7
F-0.625
S'average'
p38
I1
tp39
a(I4
I36
I0
g28
I19
tp40
a(I13
I3
I0
g34
I19
tp41
a(I13
I7
F-0.625
g38
I19
tp42
a(I0
I299
I0
g24
I15
tp43
a(I0
I299
I0
g26
I15
tp44
a(I1
I61
F0.625
S'easy'
p45
I15
tp46
a(I2
I6
I0
S'overnight'
p47
I15
tp48
a(I2
I38
I0
S'old'
p49
I15
tp50
a(I3
I24
F0.125
S'last'
p51
I15
tp52
a(I8
I141
F1.0
g30
I15
tp53
a(I9
I9
F-0.875
S'negative'
p54
I15
tp55
a(I9
I71
F-0.75
g32
I15
tp56
a(I13
I7
F-0.5
g36
I15
tp57
as(S'stereo'
p58
S'headsets'
p59
tp60
(lp61
(I3
I18
I0
S'few'
p62
I0
tp63
as(S'motorola'
p64
tp65
(lp66
(I0
I228
F-0.25
S'higher'
p67
I0
tp68
a(I7
I8
F0.5
S'loyal'
p69
I0
tp70
a(I12
I10
F0.25
S'used'
p71
I0
tp72
as(S'ipod'
p73
tp74
(lp75
(I0
I129
F1.0
S'good'
p76
I0
tp77
a(I8
I2
F1.0
S'better'
p78
I0
tp79
a(I8
I74
F0.375
S'similar'
p80
I0
tp81
a(I8
I84
F1.0
S'good'
p82
I0
tp83
as(S'call'
p84
S'quality'
p85
tp86
(lp87
(I0
I0
I0
S'great'
p88
I0
tp89
a(I0
I8
F0.375
S'distinct'
p90
I0
tp91
a(I1
I64
F1.0
S'good'
p92
I0
tp93
a(I4
I36
I0
S'great'
p94
I0
tp95
a(I4
I36
F0.875
S'music'
p96
I0
tp97
a(I9
I156
I0
S'great'
p98
I0
tp99
a(I13
I28
F1.0
S'good'
p100
I0
tp101
as(S'service'
p102
S'provider'
p103
tp104
(lp105
(I4
I38
F-0.625
S'other'
p106
I0
tp107
a(I3
I5
F0.25
S'professional'
p108
I16
tp109
a(I4
I38
F-0.625
g106
I16
tp110
a(I9
I231
F-0.625
S'free'
p111
I16
tp112
as(S'bluetooth'
p113
tp114
(lp115
(I2
I35
F-0.625
S'other'
p116
I3
tp117
a(I3
I15
F1.0
S'best'
p118
I3
tp119
a(I8
I2
F0.625
S'easy'
p120
I3
tp121
a(I15
I32
F0.625
S'easy'
p122
I3
tp123
as(S'auto'
p124
S'focus'
p125
tp126
(lp127
(I1
I18
F0.5
S'second'
p128
I0
tp129
as(S'iphone'
p130
tp131
(lp132
(I8
I9
I0
S'more'
p133
I1
tp134
as(S'files'
p135
tp136
(lp137
(I0
I51
I0
S'useful'
p138
I0
tp139
a(I0
I51
F0.625
S'easy'
p140
I0
tp141
a(I0
I216
F0.125
S'able'
p142
I0
tp143
a(I0
I216
F0.875
S'music'
p144
I0
tp145
a(I0
I216
I0
S'forth'
p146
I0
tp147
a(I9
I51
F0.5
S'drag'
p148
I0
tp149
a(I9
I53
F0.25
S'larger'
p150
I0
tp151
a(I9
I92
F1.0
S'good'
p152
I0
tp153
as(S'reception'
p154
tp155
(lp156
(I0
I139
F0.625
S'perfect'
p157
I0
tp158
a(I0
I143
F1.0
S'good'
p159
I0
tp160
a(I2
I2
I0
S'great'
p161
I0
tp162
a(I2
I2
F1.0
S'good'
p163
I0
tp164
a(I3
I1
F1.0
S'good'
p165
I0
tp166
a(I3
I25
F1.0
S'good'
p167
I0
tp168
a(I4
I18
F1.0
S'good'
p169
I0
tp170
a(I4
I18
F-0.5
S'poor'
p171
I0
tp172
a(I8
I33
F1.0
S'good'
p173
I0
tp174
a(I8
I106
F0.5
S'strong'
p175
I0
tp176
a(I15
I3
F0.625
S'perfect'
p177
I0
tp178
as(S'2'
p179
S'years'
p180
tp181
(lp182
(I0
I271
I0
S'least'
p183
I3
tp184
as(S'fm'
p185
S'radio'
p186
tp187
(lp188
(I0
I14
I0
S'great'
p189
I0
tp190
a(I1
I64
I0
S'accompanied'
p191
I0
tp192
a(I13
I14
F1.0
S'good'
p193
I0
tp194
a(I5
I43
F0.875
S'nice'
p195
I0
tp196
a(I13
I14
F1.0
g193
I0
tp197
as(S'headphone'
p198
S'jack'
p199
tp200
(lp201
(I2
I29
I0
S'normal'
p202
I0
tp203
a(I15
I22
I0
S'proprietary'
p204
I0
tp205
as(S'memory'
p206
S'stick'
p207
S'duo'
p208
tp209
(lp210
(I7
I1
I0
S'more'
p211
I0
tp212
a(I7
I1
F0.875
S'music'
p213
I0
tp214
a(I9
I132
F0.625
S'removable'
p215
I0
tp216
as(S'itunes'
p217
tp218
(lp219
(I8
I88
I0
S'phenomenal'
p220
I0
tp221
as(S'button'
p222
tp223
(lp224
(I0
I110
I0
S'great'
p225
I19
tp226
a(I0
I130
F-0.75
S'single'
p227
I19
tp228
a(I3
I25
F-0.75
S'unable'
p229
I19
tp230
as(S'third'
p231
S'party'
p232
tp233
(lp234
(I0
I73
F-0.625
S'free'
p235
I0
tp236
a(I0
I73
I0
S'third'
p237
I0
tp238
a(I0
I80
I0
S'third'
p239
I0
tp240
a(I9
I204
I0
S'third'
p241
I0
tp242
as(S'an'
p243
S'mp3'
p244
S'player'
p245
tp246
(lp247
(I3
I23
F0.625
S'easy'
p248
I0
tp249
a(I6
I19
F0.875
S'music'
p250
I0
tp251
a(I8
I0
I0
S'great'
p252
I0
tp253
a(I9
I122
F0.25
S'portable'
p254
I0
tp255
a(I13
I33
F0.375
S'new'
p256
I0
tp257
a(I14
I5
F1.0
S'good'
p258
I0
tp259
a(I3
I23
F0.625
g248
I1
tp260
a(I6
I19
F0.875
g250
I1
tp261
a(I6
I76
I0
S'great'
p262
I1
tp263
a(I8
I0
I0
g252
I1
tp264
a(I9
I122
F0.25
g254
I1
tp265
a(I13
I33
F0.375
g256
I1
tp266
a(I14
I5
F1.0
g258
I1
tp267
a(I3
I23
F0.625
g248
I6
tp268
a(I6
I19
F0.875
g250
I6
tp269
a(I6
I43
F0.875
S'music'
p270
I6
tp271
a(I6
I76
I0
g262
I6
tp272
a(I8
I63
F0.875
S'music'
p273
I6
tp274
as(S'w810'
p275
tp276
(lp277
(I0
I218
F-0.75
S'sad'
p278
I0
tp279
a(I4
I4
F0.875
S'happy'
p280
I0
tp281
a(I9
I43
F-0.375
S'small'
p282
I0
tp283
as(S'flash'
p284
tp285
(lp286
(I5
I33
F-0.5
S'weak'
p287
I2
tp288
a(I6
I10
I0
S'full'
p289
I2
tp290
a(I6
I10
I0
S'fledged'
p291
I2
tp292
a(I8
I25
F0.875
S'nice'
p293
I2
tp294
a(I8
I25
F-0.625
S'light'
p295
I2
tp296
as(S'music'
p297
tp298
(lp299
(I0
I88
F-0.625
S'bad'
p300
I0
tp301
a(I0
I257
I0
S'great'
p302
I0
tp303
a(I8
I144
F0.875
S'music'
p304
I0
tp305
a(I9
I115
F0.5
S'obvious'
p306
I0
tp307
a(I9
I123
F0.25
S'portable'
p308
I0
tp309
as(S'a'
p310
S'digital'
p311
S'camera'
p312
tp313
(lp314
(I1
I14
F0.125
S'digital'
p315
I0
tp316
a(I1
I60
F0.125
S'digital'
p317
I0
tp318
a(I5
I2
F0.125
S'digital'
p319
I0
tp320
a(I6
I10
F0.125
S'dedicated'
p321
I0
tp322
a(I7
I11
F0.125
S'digital'
p323
I0
tp324
a(I8
I2
F0.125
S'digital'
p325
I0
tp326
a(I10
I1
F0.125
S'digital'
p327
I0
tp328
a(I1
I14
F0.125
g315
I1
tp329
a(I1
I60
F0.125
g317
I1
tp330
a(I5
I2
F0.125
g319
I1
tp331
a(I6
I10
F0.125
g321
I1
tp332
a(I7
I11
F0.125
g323
I1
tp333
a(I8
I2
F0.125
g325
I1
tp334
a(I10
I1
F0.125
g327
I1
tp335
a(I0
I121
F0.875
S'nice'
p336
I1
tp337
a(I0
I121
F0.25
S'professional'
p338
I1
tp339
a(I0
I122
I0
S'more'
p340
I1
tp341
a(I0
I122
F0.125
S'enough'
p342
I1
tp343
a(I0
I181
F1.0
S'better'
p344
I1
tp345
a(I0
I181
F1.0
S'good'
p346
I1
tp347
a(I0
I181
F-0.5
S'regular'
p348
I1
tp349
a(I0
I182
F-0.5
S'regular'
p350
I1
tp351
a(I0
I225
F0.625
S'superior'
p352
I1
tp353
a(I0
I245
I0
S'great'
p354
I1
tp355
a(I0
I295
F1.0
S'good'
p356
I1
tp357
a(I0
I323
F1.0
S'better'
p358
I1
tp359
a(I0
I327
F1.0
S'better'
p360
I1
tp361
a(I1
I14
F0.125
g315
I1
tp362
a(I1
I18
F0.5
S'second'
p363
I1
tp364
a(I1
I60
F0.125
g317
I1
tp365
a(I4
I21
F0.625
S'easy'
p366
I1
tp367
a(I5
I2
F0.125
g319
I1
tp368
a(I5
I33
F1.0
S'good'
p369
I1
tp370
a(I6
I9
F1.0
S'good'
p371
I1
tp372
a(I6
I26
I0
S'close'
p373
I1
tp374
a(I7
I11
F0.125
g323
I1
tp375
a(I8
I2
F0.125
g325
I1
tp376
a(I8
I10
I0
S'great'
p377
I1
tp378
a(I8
I29
F0.375
S'new'
p379
I1
tp380
a(I10
I1
F0.125
g327
I1
tp381
a(I13
I3
I0
S'adequate'
p382
I1
tp383
a(I15
I5
F0.875
S'nice'
p384
I1
tp385
as(S'video'
p386
S'clips'
p387
tp388
(lp389
(I9
I159
I0
S'few'
p390
I0
tp391
as(S'audio'
p392
tp393
(lp394
(I0
I17
I0
S'proprietary'
p395
I2
tp396
a(I3
I25
F1.0
S'good'
p397
I2
tp398
a(I8
I51
I0
S'own'
p399
I2
tp400
a(I8
I54
F0.25
S'portable'
p401
I2
tp402
a(I8
I138
F0.875
S'nice'
p403
I2
tp404
a(I9
I138
F-0.625
S'other'
p405
I2
tp406
as(S'buttons'
p407
tp408
(lp409
(I0
I127
F0.625
S'easy'
p410
I13
tp411
a(I0
I293
I0
S'many'
p412
I13
tp413
a(I3
I25
F-0.375
S'small'
p414
I13
tp415
a(I5
I13
F-0.375
S'small'
p416
I13
tp417
a(I6
I74
I0
S'least'
p418
I13
tp419
a(I7
I27
F-0.375
S'small'
p420
I13
tp421
a(I9
I44
F0.875
S'music'
p422
I13
tp423
a(I15
I40
F-0.375
S'small'
p424
I13
tp425
as(S'nokia'
p426
tp427
(lp428
(I0
I0
I0
S'old'
p429
I0
tp430
a(I0
I160
F-0.375
S'simple'
p431
I0
tp432
a(I0
I162
F-0.625
S'natural'
p433
I0
tp434
a(I15
I14
F-0.125
S'opposite'
p435
I0
tp436
as(S'walkman'
p437
tp438
(lp439
(I0
I112
F1.0
S'good'
p440
I0
tp441
a(I8
I73
F1.0
S'good'
p442
I0
tp443
as(g310
S'2mp'
p444
S'camera'
p445
tp446
(lp447
(I0
I122
I0
g340
I0
tp448
a(I0
I122
F0.125
g342
I0
tp449
a(I15
I5
F0.875
g384
I0
tp450
a(I0
I122
I0
g340
I0
tp451
a(I0
I122
F0.125
g342
I0
tp452
a(I15
I5
F0.875
g384
I0
tp453
as(S'cutting'
p454
S'edge'
p455
tp456
(lp457
(I8
I124
F0.5
S'absolute'
p458
I0
tp459
as(S'interface'
p460
tp461
(lp462
(I1
I6
F-0.125
S'slow'
p463
I1
tp464
a(I3
I14
F1.0
S'better'
p465
I1
tp466
a(I15
I16
I0
S'user'
p467
I1
tp468
as(S'speaker'
p469
tp470
(lp471
(I0
I113
F-0.375
S'small'
p472
I8
tp473
a(I0
I274
I0
S'external'
p474
I8
tp475
a(I0
I274
F1.0
S'best'
p476
I8
tp477
a(I3
I4
F-0.5
S'poor'
p478
I8
tp479
a(I9
I94
F0.625
S'superior'
p480
I8
tp481
a(I13
I30
F1.0
S'good'
p482
I8
tp483
a(I15
I8
F-0.25
S'low'
p484
I8
tp485
as(S'white'
p486
S'balance'
p487
tp488
(lp489
(I0
I12
F-0.25
S'white'
p490
I0
tp491
a(I6
I84
F-0.25
S'white'
p492
I0
tp493
a(I8
I103
F-0.25
S'white'
p494
I0
tp495
as(S'internet'
p496
tp497
(lp498
(I5
I33
I0
S'fast'
p499
I6
tp500
a(I7
I25
F0.875
S'important'
p501
I6
tp502
as(S'calls'
p503
tp504
(lp505
(I0
I253
I0
S'multiple'
p506
I0
tp507
a(I4
I37
I0
S'many'
p508
I0
tp509
a(I4
I43
F-0.25
S'dropped'
p510
I0
tp511
a(I9
I93
F0.875
S'music'
p512
I0
tp513
a(I9
I93
F-0.875
S'awful'
p514
I0
tp515
as(S'alarm'
p516
S'clock'
p517
tp518
(lp519
(I0
I31
F0.875
S'nice'
p520
I0
tp521
as(S'web'
p522
S'browser'
p523
tp524
(lp525
(I2
I34
F0.125
S'able'
p526
I0
tp527
a(I1
I63
F1.0
S'good'
p528
I0
tp529
a(I2
I34
F0.125
g526
I0
tp530
as(S'memory'
p531
S'stick'
p532
S'pro'
p533
tp534
(lp535
(I1
I64
I0
S'external'
p536
I0
tp537
a(I7
I1
I0
g211
I0
tp538
a(I7
I1
F0.875
g213
I0
tp539
a(I9
I132
F0.625
g215
I0
tp540
a(I0
I278
I0
S'internal'
p541
I0
tp542
a(I1
I64
I0
g536
I0
tp543
a(I7
I1
I0
g211
I0
tp544
a(I7
I1
F0.875
g213
I0
tp545
a(I8
I66
I0
S'standard'
p546
I0
tp547
a(I9
I132
F0.625
g215
I0
tp548
a(I0
I278
I0
g541
I5
tp549
a(I1
I39
I0
g5
I5
tp550
a(I1
I64
I0
g536
I5
tp551
a(I5
I41
I0
S'more'
p552
I5
tp553
a(I7
I1
I0
g211
I5
tp554
a(I7
I1
F0.875
g213
I5
tp555
a(I9
I103
F-0.75
g9
I5
tp556
a(I9
I103
I0
g11
I5
tp557
a(I9
I132
F0.625
g215
I5
tp558
a(I9
I166
I0
S'more'
p559
I5
tp560
a(I14
I8
I0
g13
I5
tp561
as(S'songs'
p562
tp563
(lp564
(I4
I16
F-0.5
S'sure'
p565
I1
tp566
a(I6
I8
F-0.375
S'simple'
p567
I1
tp568
a(I15
I38
I0
S'more'
p569
I1
tp570
as(S'w810i'
p571
tp572
(lp573
(I0
I140
F1.0
S'best'
p574
I0
tp575
a(I6
I74
F-0.75
S'comfortable'
p576
I0
tp577
a(I6
I74
F0.25
S'responsive'
p578
I0
tp579
a(I15
I28
I0
S'most'
p580
I0
tp581
as(S'volume'
p582
tp583
(lp584
(I0
I263
I0
S'normal'
p585
I6
tp586
a(I3
I4
F0.375
S'much'
p587
I6
tp588
a(I8
I74
F0.375
S'allow'
p589
I6
tp590
a(I9
I68
I0
S'very'
p591
I6
tp592
a(I9
I68
F-0.25
S'highest'
p593
I6
tp594
as(S'form'
p595
S'factor'
p596
tp597
(lp598
(I2
I37
F-0.375
S'small'
p599
I1
tp600
a(I9
I65
I0
S'great'
p601
I1
tp602
as(g310
S'sony'
p603
S'ericsson'
p604
tp605
(lp606
(I0
I262
F-0.75
S'worse'
p607
I0
tp608
a(I1
I56
F0.25
S'consistent'
p609
I0
tp610
a(I5
I10
I0
S'few'
p611
I0
tp612
a(I5
I30
F0.625
S'easy'
p613
I0
tp614
a(I9
I29
F-0.625
S'other'
p615
I0
tp616
a(I0
I262
F-0.75
g607
I0
tp617
a(I1
I56
F0.25
g609
I0
tp618
a(I5
I10
I0
g611
I0
tp619
a(I5
I30
F0.625
g613
I0
tp620
a(I9
I29
F-0.625
g615
I0
tp621
a(I0
I24
I0
S'packaged'
p622
I5
tp623
a(I0
I215
F0.625
S'easy'
p624
I5
tp625
a(I0
I215
F0.625
S'easy'
p626
I5
tp627
a(I0
I217
F0.125
S'able'
p628
I5
tp629
a(I0
I217
I0
S'website'
p630
I5
tp631
a(I0
I262
F-0.75
g607
I5
tp632
a(I1
I56
F0.25
g609
I5
tp633
a(I5
I10
I0
g611
I5
tp634
a(I5
I30
F0.625
g613
I5
tp635
a(I8
I48
F-0.125
S'slow'
p636
I5
tp637
a(I9
I4
I0
S'site'
p638
I5
tp639
a(I9
I29
F-0.625
g615
I5
tp640
a(I9
I98
F0.625
S'superior'
p641
I5
tp642
a(I9
I216
F0.5
S'loyal'
p643
I5
tp644
as(S'good'
p645
S'quality'
p646
tp647
(lp648
(I0
I214
F1.0
S'good'
p649
I16
tp650
a(I1
I64
F1.0
g92
I16
tp651
a(I3
I1
I0
S'high'
p652
I16
tp653
a(I4
I21
F1.0
S'good'
p654
I16
tp655
a(I7
I22
F1.0
S'good'
p656
I16
tp657
a(I7
I29
F1.0
S'good'
p658
I16
tp659
a(I8
I138
F1.0
S'good'
p660
I16
tp661
a(I9
I80
F1.0
S'good'
p662
I16
tp663
a(I9
I136
F1.0
S'good'
p664
I16
tp665
a(I9
I198
F1.0
S'good'
p666
I16
tp667
a(I13
I28
F1.0
g100
I16
tp668
a(I14
I8
F1.0
S'good'
p669
I16
tp670
as(S'google'
p671
S'maps'
p672
tp673
(lp674
(I0
I24
F-0.25
S'google'
p675
I1
tp676
a(I0
I63
F-0.25
S'google'
p677
I1
tp678
a(I0
I305
F-0.25
S'google'
p679
I1
tp680
as(S'sound'
p681
S'quality'
p682
tp683
(lp684
(I0
I190
F1.0
S'good'
p685
I0
tp686
a(I1
I64
F1.0
g92
I0
tp687
a(I9
I136
F1.0
g664
I0
tp688
a(I0
I190
F1.0
g685
I7
tp689
a(I8
I83
F1.0
S'good'
p690
I7
tp691
a(I9
I96
F1.0
S'good'
p692
I7
tp693
as.