(dp0
(S'windows'
p1
tp2
(lp3
(I6
I65
F0.5
S'possible'
p4
I0
tp5
a(I6
I137
I0
S'artistic'
p6
I0
tp7
as(S'battery'
p8
S'life'
p9
tp10
(lp11
(I4
I234
F-0.375
S'black'
p12
I1
tp13
a(I5
I111
F-0.5
S'long'
p14
I1
tp15
a(I5
I130
F-0.5
S'weak'
p16
I1
tp17
a(I6
I186
F0.375
S'new'
p18
I1
tp19
a(I4
I120
F-0.75
S'worse'
p20
I15
tp21
a(I4
I234
F-0.375
g12
I15
tp22
as(S'palm'
p23
tp24
(lp25
(I5
I69
I0
S'different'
p26
I1
tp27
a(I5
I132
F0.125
S'first'
p28
I1
tp29
as(S'qwerty'
p30
S'keyboard'
p31
tp32
(lp33
(I5
I203
I0
S'full'
p34
I0
tp35
a(I5
I203
F0.625
S'superior'
p36
I0
tp37
a(I5
I206
I0
S'full'
p38
I0
tp39
a(I6
I153
I0
S'full'
p40
I0
tp41
as(S'functions'
p42
tp43
(lp44
(I4
I281
I0
S'faster'
p45
I4
tp46
a(I4
I291
F0.625
S'easier'
p47
I4
tp48
a(I5
I124
I0
S'great'
p49
I4
tp50
a(I5
I127
I0
S'many'
p51
I4
tp52
as(S'email'
p53
S'accounts'
p54
tp55
(lp56
(I2
I3
I0
S'cool'
p57
I0
tp58
a(I2
I3
F0.5
S'personal'
p59
I0
tp60
a(I4
I281
F-0.625
S'other'
p61
I0
tp62
a(I5
I61
F0.5
S'personal'
p63
I0
tp64
a(I6
I219
I0
S'different'
p65
I0
tp66
a(I0
I4
F0.125
S'able'
p67
I5
tp68
a(I2
I3
F0.5
g59
I5
tp69
a(I3
I3
F0.625
S'easy'
p70
I5
tp71
a(I3
I44
I0
S'corporate'
p72
I5
tp73
a(I3
I51
F-0.125
S'complex'
p74
I5
tp75
a(I4
I2
F-0.5
S'answer'
p76
I5
tp77
a(I4
I2
I0
S'more'
p78
I5
tp79
a(I4
I67
I0
S'great'
p80
I5
tp81
a(I4
I203
F0.875
S'important'
p82
I5
tp83
a(I4
I258
F0.5
S'personal'
p84
I5
tp85
a(I4
I281
F-0.625
g61
I5
tp86
a(I4
I282
F0.5
S'willing'
p87
I5
tp88
a(I5
I61
F0.5
g63
I5
tp89
a(I5
I151
F0.625
S'easy'
p90
I5
tp91
a(I5
I151
F0.375
S'new'
p92
I5
tp93
a(I6
I39
I0
S'instant'
p94
I5
tp95
a(I6
I53
I0
S'incredible'
p96
I5
tp97
a(I6
I219
I0
g65
I5
tp98
a(I6
I225
F0.75
S'receive'
p99
I5
tp100
as(S'call'
p101
S'quality'
p102
tp103
(lp104
(I6
I18
F-0.5
S'poor'
p105
I0
tp106
a(I6
I19
F0.125
S'first'
p107
I0
tp108
a(I6
I24
F0.375
S'new'
p109
I0
tp110
a(I6
I24
F1.0
S'better'
p111
I0
tp112
a(I6
I24
F1.0
S'good'
p113
I0
tp114
as(S'service'
p115
tp116
(lp117
(I3
I38
F0.75
S'worth'
p118
I16
tp119
a(I3
I44
F0.375
S'available'
p120
I16
tp121
a(I4
I246
I0
S'incredible'
p122
I16
tp123
a(I4
I255
F-0.75
S'have'
p124
I16
tp125
a(I5
I237
F-0.25
S'lower'
p126
I16
tp127
a(I5
I237
I0
S'monthly'
p128
I16
tp129
a(I6
I214
F0.875
S'happy'
p130
I16
tp131
a(I6
I214
F0.625
S'easy'
p132
I16
tp133
a(I6
I214
I0
S'automatic'
p134
I16
tp135
as(S'full'
p136
S'size'
p137
S'keyboard'
p138
tp139
(lp140
(I6
I49
I0
S'full'
p141
I0
tp142
a(I6
I71
I0
S'full'
p143
I0
tp144
a(I6
I76
I0
S'full'
p145
I0
tp146
a(I6
I76
I0
S'big'
p147
I0
tp148
a(I6
I81
I0
S'full'
p149
I0
tp150
a(I2
I14
I0
S'full'
p151
I2
tp152
a(I3
I16
F-0.375
S'small'
p153
I2
tp154
a(I4
I237
F-0.375
S'smaller'
p155
I2
tp156
a(I5
I20
F0.625
S'perfect'
p157
I2
tp158
a(I5
I148
I0
S'full'
p159
I2
tp160
a(I5
I203
F0.625
g36
I2
tp161
a(I6
I3
I0
S'full'
p162
I2
tp163
a(I6
I76
I0
g147
I2
tp164
a(I6
I133
F-0.75
S'dark'
p165
I2
tp166
as(S'bluetooth'
p167
S'headset'
p168
tp169
(lp170
(I4
I289
I0
S'great'
p171
I0
tp172
a(I5
I129
F0.375
S'new'
p173
I0
tp174
a(I5
I190
I0
S'great'
p175
I0
tp176
a(I5
I190
I0
g175
I0
tp177
a(I4
I289
I0
g171
I3
tp178
a(I5
I129
F0.375
g173
I3
tp179
a(I5
I224
I0
S'full'
p180
I3
tp181
as(S'calendar'
p182
tp183
(lp184
(I4
I91
I0
S'mechanical'
p185
I2
tp186
as(S'internet'
p187
tp188
(lp189
(I3
I20
I0
S'big'
p190
I6
tp191
as(S'mobile'
p192
tp193
(lp194
(I4
I1
F0.375
S'complete'
p195
I0
tp196
a(I5
I10
F-0.625
S'conventional'
p197
I0
tp198
a(I6
I128
F0.125
S'impressive'
p199
I0
tp200
as(S'cingular'
p201
tp202
(lp203
(I4
I194
F0.25
S'original'
p204
I0
tp205
a(I4
I252
F0.25
S'biggest'
p206
I0
tp207
a(I4
I252
F-0.875
S'negative'
p208
I0
tp209
a(I5
I41
F0.375
S'new'
p210
I0
tp211
a(I5
I230
F-0.5
S'sure'
p212
I0
tp213
as(S'business'
p214
tp215
(lp216
(I4
I105
I0
S'great'
p217
I9
tp218
a(I4
I108
I0
S'great'
p219
I9
tp220
a(I4
I156
F0.5
S'personal'
p221
I9
tp222
as(S'speakerphone'
p223
tp224
(lp225
(I2
I8
F0.625
S'easier'
p226
I0
tp227
a(I4
I112
I0
S'great'
p228
I0
tp229
a(I6
I149
F1.0
S'better'
p230
I0
tp231
as(S'devices'
p232
tp233
(lp234
(I3
I20
I0
S'mobile'
p235
I8
tp236
a(I4
I289
F-0.625
S'other'
p237
I8
tp238
a(I5
I131
I0
S'great'
p239
I8
tp240
a(I5
I168
F-0.625
S'other'
p241
I8
tp242
a(I6
I44
I0
S'many'
p243
I8
tp244
a(I6
I44
I0
S'competitive'
p245
I8
tp246
as(S'last'
p247
S'week'
p248
tp249
(lp250
(I4
I58
F0.125
S'last'
p251
I4
tp252
as(S'pocket'
p253
S'pc'
p254
tp255
(lp256
(I4
I47
F-0.75
S'impossible'
p257
I0
tp258
as(S'address'
p259
S'book'
p260
tp261
(lp262
(I5
I162
I0
S'dial'
p263
I0
tp264
a(I5
I162
I0
g263
I12
tp265
a(I6
I78
I0
S'website'
p266
I12
tp267
as(S'web'
p268
S'browsing'
p269
tp270
(lp271
(I5
I85
F-0.5
S'long'
p272
I0
tp273
a(I6
I167
I0
S'faster'
p274
I0
tp275
a(I6
I174
I-100
S'ultra-fast'
p276
I0
tp277
as(S'laptop'
p278
tp279
(lp280
(I4
I64
F-0.5
S'open'
p281
I17
tp282
a(I4
I66
F0.5
S'rid'
p283
I17
tp284
a(I5
I56
F0.875
S'nice'
p285
I17
tp286
as(S'network'
p287
tp288
(lp289
(I4
I166
F0.25
S'recent'
p290
I0
tp291
a(I6
I150
I0
S'net'
p292
I0
tp293
as(S'calls'
p294
tp295
(lp296
(I4
I58
F-0.25
S'dropped'
p297
I0
tp298
a(I4
I254
I0
S'least'
p299
I0
tp300
a(I6
I20
F1.0
S'good'
p301
I0
tp302
as(S'contact'
p303
tp304
(lp305
(I5
I143
I0
S'same'
p306
I10
tp307
a(I5
I143
F0.5
S'second'
p308
I10
tp309
as(S'blackberry'
p310
tp311
(lp312
(I2
I6
F0.875
S'happy'
p313
I1
tp314
a(I3
I39
F0.875
S'happy'
p315
I1
tp316
a(I4
I27
F1.0
S'good'
p317
I1
tp318
a(I4
I32
F0.125
S'first'
p319
I1
tp320
a(I4
I52
I0
S'stable'
p321
I1
tp322
a(I4
I61
I0
S'third'
p323
I1
tp324
a(I4
I110
F0.125
S'first'
p325
I1
tp326
a(I4
I110
F-0.25
S'past'
p327
I1
tp328
a(I4
I125
I0
S'great'
p329
I1
tp330
a(I4
I125
F0.25
S'bigger'
p331
I1
tp332
a(I4
I136
I0
S'e-mail'
p333
I1
tp334
a(I4
I145
F-0.75
S'sad'
p335
I1
tp336
a(I4
I174
I0
S'great'
p337
I1
tp338
a(I4
I177
F-0.625
S'bad'
p339
I1
tp340
a(I4
I187
F0.375
S'new'
p341
I1
tp342
a(I4
I194
I0
S'most'
p343
I1
tp344
a(I4
I194
F0.5
S'strong'
p345
I1
tp346
a(I4
I194
F0.375
S'reliable'
p347
I1
tp348
a(I4
I195
F0.125
S'first'
p349
I1
tp350
a(I4
I206
F0.375
S'new'
p351
I1
tp352
a(I4
I279
F-0.625
S'bad'
p353
I1
tp354
a(I4
I281
F0.375
S'much'
p355
I1
tp356
a(I4
I286
F-0.125
S'future'
p357
I1
tp358
a(I5
I17
F-0.75
S'short'
p359
I1
tp360
a(I5
I17
F1.0
S'good'
p361
I1
tp362
a(I5
I19
F0.375
S'new'
p363
I1
tp364
a(I5
I23
I0
S'standard'
p365
I1
tp366
a(I5
I72
F-0.875
S'inferior'
p367
I1
tp368
a(I5
I100
I0
S'current'
p369
I1
tp370
a(I5
I175
F0.25
S'original'
p371
I1
tp372
a(I6
I47
F0.125
S'first'
p373
I1
tp374
a(I6
I64
F0.25
S'responsive'
p375
I1
tp376
a(I6
I64
I0
S'stable'
p377
I1
tp378
a(I6
I144
I0
S'fourth'
p379
I1
tp380
a(I6
I233
F0.625
S'easy'
p381
I1
tp382
a(I6
I241
I0
S'wish'
p383
I1
tp384
as(S'much'
p385
S'better'
p386
tp387
(lp388
(I4
I183
F0.375
S'much'
p389
I9
tp390
a(I5
I209
F0.375
S'much'
p391
I9
tp392
as(S'smartphone'
p393
tp394
(lp395
(I4
I276
F1.0
S'better'
p396
I0
tp397
a(I5
I105
F0.125
S'first'
p398
I0
tp399
a(I5
I146
F-0.25
S'modern'
p400
I0
tp401
a(I5
I171
F-0.625
S'other'
p402
I0
tp403
a(I5
I214
F0.125
S'first'
p404
I0
tp405
as(S'faster'
p406
tp407
(lp408
(I4
I211
F0.5
S'functional'
p409
I7
tp410
a(I5
I73
F0.375
S'much'
p411
I7
tp412
a(I5
I169
F0.375
S'much'
p413
I7
tp414
as(S'touch'
p415
S'screen'
p416
tp417
(lp418
(I4
I279
F0.5
S'touch'
p419
I2
tp420
a(I4
I279
I0
S'therefore'
p421
I2
tp422
a(I4
I279
F0.5
S'touch'
p423
I2
tp424
as(S'3rd'
p425
S'party'
p426
tp427
(lp428
(I2
I19
I0
S'few'
p429
I0
tp430
a(I4
I75
I0
S'useful'
p431
I0
tp432
a(I5
I64
F-0.25
S'couple'
p433
I0
tp434
as(S'form'
p435
S'factor'
p436
tp437
(lp438
(I3
I16
F-0.125
S'overall'
p439
I1
tp440
as(S'sound'
p441
S'quality'
p442
tp443
(lp444
(I4
I3
I0
S'internal'
p445
I0
tp446
a(I4
I3
F-0.5
S'poor'
p447
I0
tp448
a(I4
I3
F-0.5
S'sure'
p449
I0
tp450
a(I4
I197
I0
S'great'
p451
I0
tp452
a(I4
I286
F1.0
S'good'
p453
I0
tp454
a(I5
I128
F-0.5
S'poor'
p455
I0
tp456
a(I4
I3
I0
g445
I7
tp457
a(I5
I182
F0.5
S'clearer'
p458
I7
tp459
as(S'text'
p460
S'messaging'
p461
tp462
(lp463
(I2
I4
I0
S'instant'
p464
I0
tp465
a(I2
I13
I0
S'text'
p466
I0
tp467
a(I4
I291
I0
S'text'
p468
I0
tp469
a(I4
I291
I0
S'text'
p470
I0
tp471
as(S'treo'
p472
tp473
(lp474
(I4
I127
I0
S'mile'
p475
I0
tp476
a(I4
I286
F1.0
S'better'
p477
I0
tp478
a(I4
I289
I0
S'stable'
p479
I0
tp480
a(I4
I289
I0
S'old'
p481
I0
tp482
a(I5
I83
F-0.625
S'bad'
p483
I0
tp484
a(I6
I38
I0
S'such'
p485
I0
tp486
as.