(dp0
(S'mobile'
p1
tp2
(lp3
(I12
I101
F-0.5
S'actual'
p4
I0
tp5
a(I12
I101
F0.625
S'easy'
p6
I0
tp7
as(S'battery'
p8
S'life'
p9
tp10
(lp11
(I1
I61
F1.0
S'good'
p12
I1
tp13
a(I5
I165
F-0.75
S'short'
p14
I1
tp15
a(I9
I21
F1.0
S'good'
p16
I1
tp17
a(I12
I19
F0.625
S'superior'
p18
I1
tp19
a(I0
I95
F-0.625
S'secure'
p20
I15
tp21
a(I1
I62
F1.0
S'good'
p22
I15
tp23
a(I4
I1
F-0.625
S'bad'
p24
I15
tp25
a(I6
I17
F1.0
S'good'
p26
I15
tp27
a(I10
I15
F0.125
S'able'
p28
I15
tp29
as(S'mpx220'
p30
tp31
(lp32
(I0
I113
F0.625
S'easier'
p33
I0
tp34
a(I0
I115
F-0.375
S'top'
p35
I0
tp36
a(I5
I159
F0.5
S'compatible'
p37
I0
tp38
a(I6
I32
F0.125
S'first'
p39
I0
tp40
a(I6
I53
I0
S'great'
p41
I0
tp42
a(I7
I59
I0
S'high'
p43
I0
tp44
a(I9
I11
F0.125
S'able'
p45
I0
tp46
a(I12
I224
F-0.75
S'unlucky'
p47
I0
tp48
as(S'new'
p49
S'software'
p50
tp51
(lp52
(I1
I21
F0.375
S'new'
p53
I0
tp54
a(I4
I3
F0.375
S'new'
p55
I0
tp56
a(I7
I106
I0
S'updated'
p57
I0
tp58
a(I12
I71
F0.375
S'new'
p59
I0
tp60
a(I12
I82
F0.375
S'new'
p61
I0
tp62
a(I12
I88
F0.375
S'newest'
p63
I0
tp64
a(I12
I89
F0.75
S'receive'
p65
I0
tp66
a(I12
I89
F0.375
S'new'
p67
I0
tp68
a(I12
I121
F0.375
S'new'
p69
I0
tp70
as(S'cingular'
p71
tp72
(lp73
(I3
I5
I0
S'same'
p74
I0
tp75
a(I5
I99
F-0.125
S'mine'
p76
I0
tp77
a(I6
I33
F0.375
S'new'
p78
I0
tp79
a(I6
I90
F-0.25
S'direct'
p80
I0
tp81
a(I6
I93
F0.375
S'new'
p82
I0
tp83
as(S'ring'
p84
S'tones'
p85
tp86
(lp87
(I5
I80
I0
S'own'
p88
I0
tp89
a(I7
I98
I0
S'standard'
p90
I0
tp91
as(S'motorola'
p92
tp93
(lp94
(I0
I198
I0
S'standard'
p95
I0
tp96
a(I0
I198
F0.125
S'fat'
p97
I0
tp98
a(I3
I5
I0
S'standard'
p99
I0
tp100
a(I5
I87
F0.125
S'first'
p101
I0
tp102
a(I5
I159
I0
S'integrated'
p103
I0
tp104
a(I5
I160
F-0.625
S'other'
p105
I0
tp106
a(I12
I76
F0.375
S'new'
p107
I0
tp108
a(I12
I96
F0.125
S'last'
p109
I0
tp110
a(I12
I154
F-0.75
S'plain'
p111
I0
tp112
as(S'internet'
p113
S'explorer'
p114
tp115
(lp116
(I5
I146
I0
S'internet'
p117
I0
tp118
a(I5
I146
F0.625
S'easy'
p119
I0
tp120
a(I0
I157
I0
S'full'
p121
I6
tp122
a(I1
I57
I0
S'entire'
p123
I6
tp124
a(I5
I147
F-0.5
S'regular'
p125
I6
tp126
a(I6
I20
F0.625
S'major'
p127
I6
tp128
a(I6
I95
I0
S'full'
p129
I6
tp130
a(I6
I97
I0
S'real'
p131
I6
tp132
as(S'sync'
p133
tp134
(lp135
(I5
I272
I0
S'coolest'
p136
I0
tp137
as(S'bluetooth'
p138
S'headset'
p139
tp140
(lp141
(I12
I23
F0.125
S'capable'
p142
I0
tp143
a(I5
I159
F0.125
S'capable'
p144
I3
tp145
a(I5
I163
I0
S'full'
p146
I3
tp147
a(I9
I24
F-0.5
S'certain'
p148
I3
tp149
a(I12
I23
F0.125
g142
I3
tp150
a(I12
I157
I0
S'great'
p151
I3
tp152
as(S'operating'
p153
S'system'
p154
tp155
(lp156
(I1
I151
F0.25
S'used'
p157
I2
tp158
as(S'reception'
p159
tp160
(lp161
(I0
I54
F1.0
S'better'
p162
I0
tp163
a(I1
I50
F1.0
S'good'
p164
I0
tp165
a(I2
I9
F-0.625
S'bad'
p166
I0
tp167
a(I5
I112
F1.0
S'better'
p168
I0
tp169
a(I7
I112
F-0.625
S'bad'
p170
I0
tp171
a(I11
I6
F1.0
S'good'
p172
I0
tp173
a(I12
I18
F0.75
S'due'
p174
I0
tp175
as(S'blue'
p176
S'tooth'
p177
tp178
(lp179
(I12
I10
I0
S'blue'
p180
I0
tp181
a(I12
I134
I0
S'blue'
p182
I0
tp183
as(S'customer'
p184
S'service'
p185
tp186
(lp187
(I12
I57
F0.5
S'satisfactory'
p188
I3
tp189
a(I12
I57
F0.5
g188
I16
tp190
a(I12
I94
I0
S'full'
p191
I16
tp192
as(S'memory'
p193
tp194
(lp195
(I0
I122
F0.25
S'related'
p196
I5
tp197
a(I13
I42
I0
S'more'
p198
I5
tp199
as(S'media'
p200
S'player'
p201
tp202
(lp203
(I7
I25
F0.875
S'nice'
p204
I0
tp205
as(S'windows'
p206
tp207
(lp208
(I0
I139
I0
S'reboot'
p209
I0
tp210
a(I0
I139
I0
S'mobile'
p211
I0
tp212
a(I1
I151
I0
S'most'
p213
I0
tp214
a(I2
I4
F0.25
S'familiar'
p215
I0
tp216
a(I6
I64
F0.25
S'familiar'
p217
I0
tp218
a(I6
I64
I0
S'mobilized'
p219
I0
tp220
a(I12
I101
F-0.125
S'complicated'
p221
I0
tp222
as(S'earpiece'
p223
tp224
(lp225
(I12
I122
F-0.625
S'other'
p226
I0
tp227
as(S'unlimited'
p228
S'data'
p229
tp230
(lp231
(I12
I145
I0
S'standard'
p232
I0
tp233
a(I12
I145
F-0.5
S'unlimited'
p234
I0
tp235
a(I12
I102
I0
S'cable'
p236
I13
tp237
a(I12
I145
I0
g232
I13
tp238
a(I12
I145
F-0.5
g234
I13
tp239
as(S'crystal'
p240
S'clear'
p241
tp242
(lp243
(I12
I94
I0
S'crystal'
p244
I0
tp245
as(S'5'
p246
S'minutes'
p247
tp248
(lp249
(I7
I2
I0
S'more'
p250
I13
tp251
as(S'firmware'
p252
tp253
(lp254
(I0
I25
I0
S'latest'
p255
I0
tp256
a(I6
I20
I0
S'latest'
p257
I0
tp258
a(I6
I41
I0
S'latest'
p259
I0
tp260
a(I6
I145
I0
S'latest'
p261
I0
tp262
a(I7
I71
F0.375
S'newer'
p263
I0
tp264
a(I12
I35
F-0.125
S'mine'
p265
I0
tp266
as(S'form'
p267
S'factor'
p268
tp269
(lp270
(I5
I155
I0
S'same'
p271
I1
tp272
a(I12
I18
F-0.375
S'smaller'
p273
I1
tp274
as(S'speakerphone'
p275
tp276
(lp277
(I1
I37
F0.375
S'audible'
p278
I0
tp279
a(I1
I113
I0
S'few'
p280
I0
tp281
a(I7
I74
I0
S'useful'
p282
I0
tp283
a(I12
I118
F-0.625
S'quiet'
p284
I0
tp285
a(I12
I118
F-0.5
S'actual'
p286
I0
tp287
a(I13
I18
F-0.625
S'bad'
p288
I0
tp289
as(S'voice'
p290
S'dialing'
p291
tp292
(lp293
(I5
I19
F-0.875
S'worst'
p294
I0
tp295
a(I5
I19
F-0.875
S'worst'
p296
I0
tp297
a(I6
I22
F0.5
S'advanced'
p298
I0
tp299
a(I1
I111
F-0.375
S'simple'
p300
I4
tp301
a(I6
I22
F0.5
g298
I4
tp302
a(I6
I135
F-0.375
S'manual'
p303
I4
tp304
as(S'jar'
p305
S'files'
p306
tp307
(lp308
(I0
I176
F0.5
S'technical'
p309
I0
tp310
a(I0
I176
F-0.125
S'complicated'
p311
I0
tp312
a(I0
I176
F0.5
g309
I0
tp313
a(I0
I176
F-0.125
g311
I0
tp314
a(I5
I132
F0.625
S'easy'
p315
I0
tp316
as(S'clamshell'
p317
S'design'
p318
tp319
(lp320
(I1
I90
F0.125
S'solid'
p321
I0
tp322
a(I1
I90
F-0.5
S'open'
p323
I0
tp324
a(I1
I90
F0.125
S'first'
p325
I0
tp326
a(I1
I90
F-0.5
S'sure'
p327
I0
tp328
a(I1
I90
I0
S'same'
p329
I0
tp330
as(S'second'
p331
S'edition'
p332
tp333
(lp334
(I1
I97
F0.5
S'second'
p335
I0
tp336
as(S'calls'
p337
tp338
(lp339
(I5
I178
F0.875
S'important'
p340
I0
tp341
a(I5
I181
F0.125
S'enough'
p342
I0
tp343
a(I5
I181
F-0.25
S'dropped'
p344
I0
tp345
a(I6
I73
F0.75
S'receive'
p346
I0
tp347
as(S'amazon'
p348
tp349
(lp350
(I12
I5
F0.375
S'new'
p351
I13
tp352
a(I12
I144
F-0.75
S'worse'
p353
I13
tp354
as(S'contacts'
p355
tp356
(lp357
(I6
I28
F0.875
S'nice'
p358
I0
tp359
as(S'mini'
p360
S'sd'
p361
S'card'
p362
tp363
(lp364
(I1
I88
I0
S'standard'
p365
I0
tp366
a(I1
I88
I0
g365
I0
tp367
a(I0
I153
I0
S'normal'
p368
I0
tp369
a(I1
I88
I0
g365
I0
tp370
as(S'side'
p371
S'buttons'
p372
tp373
(lp374
(I12
I132
I0
S'big'
p375
I0
tp376
a(I12
I132
F-0.625
S'sometime'
p377
I0
tp378
as(S'speaker'
p379
S'volume'
p380
tp381
(lp382
(I1
I103
F-0.25
S'highest'
p383
I0
tp384
a(I5
I79
F-0.5
S'complaint'
p385
I0
tp386
a(I5
I95
F-0.25
S'low'
p387
I0
tp388
a(I5
I185
F1.0
S'good'
p389
I0
tp390
a(I7
I12
F-0.25
S'low'
p391
I0
tp392
a(I12
I41
F-0.25
S'lowest'
p393
I0
tp394
a(I12
I130
F-0.25
S'low'
p395
I0
tp396
a(I0
I74
F-0.25
S'low'
p397
I6
tp398
a(I0
I101
F0.375
S'loudest'
p399
I6
tp400
a(I0
I101
I0
S'normal'
p401
I6
tp402
a(I1
I50
F1.0
S'good'
p403
I6
tp404
a(I1
I103
F-0.25
g383
I6
tp405
a(I1
I117
F-0.25
S'low'
p406
I6
tp407
a(I2
I25
F0.25
S'original'
p408
I6
tp409
a(I2
I25
F-0.25
S'low'
p410
I6
tp411
a(I2
I38
F-0.25
S'low'
p412
I6
tp413
a(I3
I5
F-0.625
S'average'
p414
I6
tp415
a(I5
I86
I0
S'external'
p416
I6
tp417
a(I5
I92
F-0.25
S'low'
p418
I6
tp419
a(I5
I95
F-0.25
g387
I6
tp420
a(I5
I185
F1.0
g389
I6
tp421
a(I7
I12
F-0.25
g391
I6
tp422
a(I7
I82
F-0.25
S'low'
p423
I6
tp424
a(I8
I17
F-0.25
S'lowest'
p425
I6
tp426
a(I10
I15
F-0.125
S'mine'
p427
I6
tp428
a(I10
I24
I-100
S'inspite'
p429
I6
tp430
a(I10
I24
I0
S'high'
p431
I6
tp432
a(I12
I41
F-0.25
g393
I6
tp433
a(I12
I130
F-0.25
g395
I6
tp434
a(I12
I135
F-0.25
S'low'
p435
I6
tp436
a(I12
I135
F-0.625
S'unbearable'
p437
I6
tp438
a(I5
I79
F-0.5
g385
I8
tp439
a(I5
I96
F-0.25
S'lower'
p440
I8
tp441
as(S'digital'
p442
S'camera'
p443
tp444
(lp445
(I0
I128
F0.125
S'digital'
p446
I1
tp447
a(I5
I269
F0.125
S'digital'
p448
I1
tp449
a(I6
I7
F0.125
S'digital'
p450
I1
tp451
a(I12
I108
F1.0
S'good'
p452
I1
tp453
a(I0
I45
F0.5
S'comparable'
p454
I1
tp455
a(I0
I128
F0.125
g446
I1
tp456
a(I0
I148
I0
S'incredible'
p457
I1
tp458
a(I0
I195
I0
S'great'
p459
I1
tp460
a(I1
I114
F-0.625
S'bad'
p461
I1
tp462
a(I1
I140
F1.0
S'good'
p463
I1
tp464
a(I3
I6
F0.625
S'fair'
p465
I1
tp466
a(I5
I141
F-0.625
S'other'
p467
I1
tp468
a(I5
I143
I0
S'most'
p469
I1
tp470
a(I5
I143
F-0.625
S'other'
p471
I1
tp472
a(I5
I144
I0
S'useful'
p473
I1
tp474
a(I5
I269
F0.125
g448
I1
tp475
a(I6
I7
F0.125
g450
I1
tp476
a(I12
I18
F1.0
S'better'
p477
I1
tp478
a(I12
I107
F1.0
S'good'
p479
I1
tp480
a(I12
I108
F1.0
g452
I1
tp481
as(S'quad'
p482
S'band'
p483
tp484
(lp485
(I5
I116
I0
S'great'
p486
I0
tp487
as(S'much'
p488
S'better'
p489
tp490
(lp491
(I1
I60
F0.375
S'much'
p492
I9
tp493
a(I11
I6
F0.375
S'much'
p494
I9
tp495
as(S'outlook'
p496
tp497
(lp498
(I1
I163
I0
S'more'
p499
I0
tp500
a(I5
I75
F0.625
S'easy'
p501
I0
tp502
as(S'smartphone'
p503
tp504
(lp505
(I5
I232
F-0.875
S'hard'
p506
I0
tp507
a(I5
I232
F0.5
S'drive'
p508
I0
tp509
as(S'rom'
p510
S'version'
p511
tp512
(lp513
(I5
I102
I0
S'old'
p514
I0
tp515
a(I12
I140
F-0.125
S'mine'
p516
I0
tp517
as(S'loud'
p518
tp519
(lp520
(I1
I50
F0.375
S'loud'
p521
I10
tp522
a(I1
I103
F0.375
S'loud'
p523
I10
tp524
as(S'low'
p525
S'volume'
p526
tp527
(lp528
(I0
I74
F-0.25
g397
I0
tp529
a(I1
I117
F-0.25
g406
I0
tp530
a(I2
I25
F0.25
g408
I0
tp531
a(I2
I25
F-0.25
g410
I0
tp532
a(I2
I38
F-0.25
g412
I0
tp533
a(I5
I92
F-0.25
g418
I0
tp534
a(I5
I95
F-0.25
g387
I0
tp535
a(I7
I12
F-0.25
g391
I0
tp536
a(I7
I82
F-0.25
g423
I0
tp537
a(I8
I17
F-0.25
g425
I0
tp538
a(I10
I15
F-0.125
g427
I0
tp539
a(I12
I41
F-0.25
g393
I0
tp540
a(I12
I130
F-0.25
g395
I0
tp541
a(I12
I135
F-0.25
g435
I0
tp542
a(I12
I135
F-0.625
g437
I0
tp543
as(S'mp3'
p544
S'player'
p545
tp546
(lp547
(I1
I145
I0
S'many'
p548
I1
tp549
a(I1
I145
F-0.625
S'other'
p550
I1
tp551
a(I7
I25
F0.875
g204
I1
tp552
a(I6
I154
F0.625
S'decent'
p553
I6
tp554
a(I7
I25
F0.875
g204
I6
tp555
as(S'sound'
p556
S'quality'
p557
tp558
(lp559
(I1
I36
F-0.5
S'weak'
p560
I0
tp561
a(I1
I138
I0
S'crystal'
p562
I0
tp563
a(I1
I138
F0.5
S'clear'
p564
I0
tp565
a(I0
I183
F0.875
S'happy'
p566
I7
tp567
a(I1
I74
F0.5
S'clearer'
p568
I7
tp569
a(I1
I138
I0
g562
I7
tp570
a(I1
I138
F0.5
g564
I7
tp571
a(I2
I21
F-0.25
S'low'
p572
I7
tp573
a(I3
I5
F1.0
S'good'
p574
I7
tp575
a(I6
I75
F0.875
S'music'
p576
I7
tp577
a(I6
I113
F0.5
S'incomplete'
p578
I7
tp579
a(I6
I113
F0.375
S'audible'
p580
I7
tp581
a(I12
I136
F1.0
S'good'
p582
I7
tp583
as.