(dp0
(S'battery'
p1
S'life'
p2
tp3
(lp4
(I1
I23
F-0.5
S'poor'
p5
I1
tp6
a(I1
I29
I0
S'closer'
p7
I1
tp8
a(I11
I11
I0
S'such'
p9
I1
tp10
a(I11
I11
F-0.75
S'short'
p11
I1
tp12
a(I14
I4
I0
S'great'
p13
I1
tp14
a(I18
I5
I0
S'great'
p15
I1
tp16
a(I19
I34
I0
S'great'
p17
I1
tp18
a(I20
I58
F1.0
S'good'
p19
I1
tp20
a(I21
I53
I0
S'great'
p21
I1
tp22
a(I21
I53
F-0.25
S'low'
p23
I1
tp24
a(I1
I23
F-0.5
g5
I19
tp25
a(I1
I29
I0
g7
I19
tp26
a(I18
I5
I0
g15
I19
tp27
a(I20
I58
F1.0
g19
I19
tp28
a(I21
I53
I0
g21
I19
tp29
a(I1
I10
F0.875
S'nice'
p30
I15
tp31
a(I1
I14
F0.375
S'new'
p32
I15
tp33
a(I1
I32
F0.375
S'extra'
p34
I15
tp35
a(I6
I0
F-0.5
S'sure'
p36
I15
tp37
a(I6
I0
F-0.5
S'weak'
p38
I15
tp39
a(I6
I1
I0
S'great'
p40
I15
tp41
a(I11
I11
I0
g9
I15
tp42
a(I11
I11
F-0.75
g11
I15
tp43
a(I11
I53
F-0.75
S'dead'
p44
I15
tp45
a(I14
I4
I0
g13
I15
tp46
a(I19
I34
I0
g17
I15
tp47
a(I21
I53
F-0.25
g23
I15
tp48
a(I23
I5
F-0.75
S'dead'
p49
I15
tp50
a(I23
I7
F0.375
S'new'
p51
I15
tp52
as(S'several'
p53
S'times'
p54
tp55
(lp56
(I11
I62
I0
S'different'
p57
I4
tp58
as(S'camera'
p59
tp60
(lp61
(I9
I24
F1.0
S'good'
p62
I1
tp63
a(I9
I43
F1.0
S'good'
p64
I1
tp65
a(I12
I12
F0.125
S'digital'
p66
I1
tp67
a(I16
I23
I0
S'great'
p68
I1
tp69
a(I16
I24
F0.125
S'digital'
p70
I1
tp71
a(I17
I77
F0.125
S'digital'
p72
I1
tp73
a(I19
I24
F0.625
S'decent'
p74
I1
tp75
as(S'sony'
p76
S'ericsson'
p77
tp78
(lp79
(I9
I136
F0.625
S'easier'
p80
I0
tp81
a(I9
I137
I0
S'incredible'
p82
I0
tp83
as(S'magenta'
p84
tp85
(lp86
(I9
I158
F0.375
S'new'
p87
I0
tp88
a(I9
I163
F-0.375
S'black'
p89
I0
tp90
a(I18
I7
F0.5
S'bold'
p91
I0
tp92
a(I21
I58
I0
S'own'
p93
I0
tp94
as(S'plug'
p95
S'in'
p96
S'charger'
p97
tp98
(lp99
(I6
I2
I0
S'plug-in'
p100
I0
tp101
as(S'reception'
p102
tp103
(lp104
(I0
I4
F0.5
S'clear'
p105
I0
tp106
a(I11
I76
F1.0
S'best'
p107
I0
tp108
a(I21
I83
F-0.875
S'awful'
p109
I0
tp110
as(S'few'
p111
S'months'
p112
tp113
(lp114
(I6
I6
I0
S'few'
p115
I5
tp116
a(I10
I15
I0
S'few'
p117
I5
tp118
a(I16
I39
F0.125
S'last'
p119
I5
tp120
a(I16
I39
I0
S'few'
p121
I5
tp122
as(S'pink'
p123
S'razr'
p124
tp125
(lp126
(I1
I2
F-0.375
S'black'
p127
I0
tp128
a(I21
I82
F0.375
S'new'
p129
I0
tp130
a(I21
I82
F-0.375
S'black'
p131
I0
tp132
a(I11
I65
I0
S'hot'
p133
I7
tp134
a(I16
I39
F-0.5
S'separate'
p135
I7
tp136
a(I17
I3
F-0.125
S'super'
p137
I7
tp138
a(I21
I82
F-0.375
g131
I7
tp139
as(S'hold'
p140
S'a'
p141
S'charge'
p142
tp143
(lp144
(I6
I0
I0
S'more'
p145
I0
tp146
a(I11
I7
F0.625
S'hold'
p147
I0
tp148
a(I20
I39
I0
S'full'
p149
I0
tp150
as(S'seller'
p151
tp152
(lp153
(I9
I50
F-0.875
S'hard'
p154
I19
tp155
a(I11
I73
I0
S'different'
p156
I19
tp157
as(S'weeks'
p158
tp159
(lp160
(I8
I5
I0
S'few'
p161
I18
tp162
a(I9
I102
I0
S'few'
p163
I18
tp164
a(I9
I102
F0.375
S'new'
p165
I18
tp166
as(S'amazon'
p167
tp168
(lp169
(I21
I30
F0.125
S'typical'
p170
I13
tp171
as(S'calls'
p172
tp173
(lp174
(I1
I14
I0
S'most'
p175
I0
tp176
a(I9
I130
I0
S'great'
p177
I0
tp178
a(I17
I89
F0.25
S'recent'
p179
I0
tp180
as(S'sim'
p181
S'card'
p182
tp183
(lp184
(I16
I17
I0
S'old'
p185
I0
tp186
a(I16
I30
F0.125
S'typical'
p187
I0
tp188
a(I17
I100
F0.625
S'easy'
p189
I0
tp190
a(I17
I100
F0.625
S'easy'
p191
I0
tp192
as(S'text'
p193
S'messages'
p194
tp195
(lp196
(I3
I42
F-0.125
S'delete'
p197
I0
tp198
a(I21
I52
I0
S'text'
p199
I0
tp200
as(S'motorola'
p201
S'razr'
p202
S'v3'
p203
tp204
(lp205
(I17
I88
I0
S'particular'
p206
I0
tp207
a(I17
I89
I0
S'particular'
p208
I0
tp209
a(I21
I82
F0.375
g129
I0
tp210
a(I17
I88
I0
g206
I0
tp211
a(I17
I89
I0
g208
I0
tp212
a(I1
I2
F-0.375
g127
I0
tp213
a(I1
I19
F0.375
S'new'
p214
I0
tp215
a(I11
I22
I0
S'real'
p216
I0
tp217
a(I11
I73
F-0.25
S'past'
p218
I0
tp219
a(I12
I3
I0
S'most'
p220
I0
tp221
a(I12
I6
F1.0
S'best'
p222
I0
tp223
a(I16
I30
F0.75
S'classic'
p224
I0
tp225
a(I16
I30
I0
S'most'
p226
I0
tp227
a(I17
I10
F-0.375
S'black'
p228
I0
tp229
a(I19
I4
I0
S'old'
p230
I0
tp231
a(I21
I0
I0
S'old'
p232
I0
tp233
a(I21
I2
I0
S'old'
p234
I0
tp235
a(I21
I49
F-0.625
S'other'
p236
I0
tp237
a(I21
I82
F0.375
g129
I0
tp238
a(I9
I136
F0.625
S'find'
p239
I0
tp240
a(I9
I140
F-0.375
S'nearest'
p241
I0
tp242
a(I12
I14
I0
S'sturdy'
p243
I0
tp244
a(I16
I41
F0.125
S'last'
p245
I0
tp246
a(I17
I88
I0
g206
I0
tp247
a(I17
I89
I0
g208
I0
tp248
a(I18
I4
F0.25
S'favorite'
p249
I0
tp250
a(I20
I14
F-0.375
S'crap'
p251
I0
tp252
a(I20
I20
I0
S'special'
p253
I0
tp254
as(S'customer'
p255
S'service'
p256
tp257
(lp258
(I9
I166
F-0.75
S'unable'
p259
I3
tp260
a(I19
I32
F0.875
S'nice'
p261
I3
tp262
a(I9
I166
F-0.75
g259
I16
tp263
a(I19
I32
F0.875
g261
I16
tp264
a(I21
I17
F-0.75
S'little'
p265
I16
tp266
as(S'4'
p267
S'hours'
p268
tp269
(lp270
(I10
I39
F-0.625
S'other'
p271
I2
tp272
as(S'mp3'
p273
S'player'
p274
tp275
(lp276
(I12
I7
F-0.625
S'want'
p277
I1
tp278
as(S'works'
p279
S'fine'
p280
tp281
(lp282
(I1
I19
I0
S'dandy'
p283
I9
tp284
as.