(dp0
(S'battery'
p1
S'life'
p2
tp3
(lp4
(I0
I80
F-0.5
S'poor'
p5
I1
tp6
a(I0
I132
F-0.5
S'long'
p7
I1
tp8
a(I1
I19
F1.0
S'good'
p9
I1
tp10
a(I1
I40
F1.0
S'good'
p11
I1
tp12
a(I1
I54
F1.0
S'good'
p13
I1
tp14
a(I1
I105
I0
S'many'
p15
I1
tp16
a(I1
I165
F0.375
S'extra'
p17
I1
tp18
a(I1
I165
F0.5
S'second'
p19
I1
tp20
a(I1
I176
F-0.5
S'poor'
p21
I1
tp22
a(I1
I402
I0
S'same'
p23
I1
tp24
a(I1
I408
F1.0
S'good'
p25
I1
tp26
a(I1
I425
F-0.375
S'small'
p27
I1
tp28
a(I2
I15
F0.375
S'extended'
p29
I1
tp30
a(I4
I17
F-0.625
S'bad'
p31
I1
tp32
a(I4
I62
F-0.25
S'precious'
p33
I1
tp34
a(I5
I116
F1.0
S'good'
p35
I1
tp36
a(I5
I116
F0.5
S'clear'
p37
I1
tp38
a(I5
I116
I0
S'signal'
p39
I1
tp40
a(I5
I116
F1.0
S'good'
p41
I1
tp42
a(I7
I29
I0
S'included'
p43
I1
tp44
a(I7
I29
F0.375
S'extended'
p45
I1
tp46
a(I0
I80
F-0.5
g5
I19
tp47
a(I0
I132
F-0.5
g7
I19
tp48
a(I1
I54
F1.0
g13
I19
tp49
a(I1
I105
I0
g15
I19
tp50
a(I1
I408
F1.0
g25
I19
tp51
a(I1
I425
F-0.375
g27
I19
tp52
a(I2
I15
F0.375
g29
I19
tp53
a(I5
I116
F0.5
g37
I19
tp54
a(I5
I116
I0
g39
I19
tp55
a(I5
I116
F1.0
g41
I19
tp56
as(S'a'
p57
S'data'
p58
S'plan'
p59
tp60
(lp61
(I4
I16
F0.125
S'able'
p62
I0
tp63
a(I4
I16
F0.125
g62
I0
tp64
a(I0
I3
I0
S'more'
p65
I13
tp66
a(I0
I215
F0.75
S'receive'
p67
I13
tp68
as(S'email'
p69
tp70
(lp71
(I0
I82
I0
S'few'
p72
I5
tp73
a(I1
I28
F-0.125
S'cant'
p74
I5
tp75
a(I1
I153
I0
S'corporate'
p76
I5
tp77
a(I1
I216
F-0.375
S'small'
p78
I5
tp79
a(I1
I216
F-0.5
S'heavy'
p80
I5
tp81
a(I1
I260
F-0.375
S'disable'
p82
I5
tp83
a(I1
I298
F-0.75
S'difficult'
p84
I5
tp85
a(I2
I31
F0.75
S'receive'
p86
I5
tp87
a(I2
I39
F0.25
S'favorite'
p88
I5
tp89
a(I2
I45
F0.375
S'new'
p90
I5
tp91
a(I5
I66
F0.125
S'first'
p92
I5
tp93
as(S'keys'
p94
tp95
(lp96
(I0
I256
I0
S'big'
p97
I9
tp98
a(I0
I256
F-0.625
S'other'
p99
I9
tp100
a(I0
I256
F0.625
S'easy'
p101
I9
tp102
a(I1
I147
F-0.375
S'small'
p103
I9
tp104
a(I1
I282
F-0.375
S'small'
p105
I9
tp106
a(I1
I336
F-0.375
S'small'
p107
I9
tp108
a(I1
I336
F-0.625
S'bad'
p109
I9
tp110
a(I4
I13
F-0.375
S'small'
p111
I9
tp112
a(I4
I15
F-0.75
S'wrong'
p113
I9
tp114
a(I4
I15
F0.125
S'key'
p115
I9
tp116
a(I5
I93
F-0.375
S'small'
p117
I9
tp118
a(I5
I103
F-0.375
S'small'
p119
I9
tp120
as(S'text'
p121
tp122
(lp123
(I1
I28
F0.375
S'copy'
p124
I18
tp125
a(I2
I49
F-0.375
S'small'
p126
I18
tp127
as(S'tech'
p128
S'support'
p129
tp130
(lp131
(I1
I428
I0
S'tech'
p132
I1
tp133
as(S'service'
p134
tp135
(lp136
(I1
I46
I0
S'own'
p137
I16
tp138
a(I1
I173
F-0.5
S'sure'
p139
I16
tp140
a(I3
I6
I0
S'special'
p141
I16
tp142
a(I3
I6
I0
S'e-mail'
p143
I16
tp144
a(I3
I17
F-0.5
S'sure'
p145
I16
tp146
as(S'samsung'
p147
tp148
(lp149
(I5
I75
F0.5
S'swung'
p150
I7
tp151
a(I5
I99
F1.0
S'better'
p152
I7
tp153
as(S'sync'
p154
tp155
(lp156
(I1
I383
F0.125
S'able'
p157
I0
tp158
a(I5
I40
F1.0
S'good'
p159
I0
tp160
as(S'camera'
p161
tp162
(lp163
(I0
I5
F1.0
S'better'
p164
I1
tp165
a(I0
I148
F-0.125
S'slow'
p166
I1
tp167
a(I1
I17
I0
S'great'
p168
I1
tp169
a(I2
I26
F1.0
S'good'
p170
I1
tp171
a(I5
I11
F0.125
S'impressive'
p172
I1
tp173
as(S'calendar'
p174
tp175
(lp176
(I1
I31
I0
S'later'
p177
I2
tp178
a(I4
I88
F0.125
S'able'
p179
I2
tp180
a(I5
I33
F0.5
S'personal'
p181
I2
tp182
as(S'internet'
p183
tp184
(lp185
(I1
I98
F-0.5
S'open'
p186
I6
tp187
a(I3
I43
F0.875
S'music'
p188
I6
tp189
a(I4
I66
I-100
S"'faster"
p190
I6
tp191
as(g57
S'full'
p192
S'keyboard'
p193
tp194
(lp195
(I0
I3
F-0.625
S'glad'
p196
I0
tp197
a(I0
I3
I0
S'full'
p198
I0
tp199
a(I1
I146
I0
S'full'
p200
I0
tp201
a(I4
I53
I0
S'full'
p202
I0
tp203
a(I4
I94
I0
S'full'
p204
I0
tp205
a(I4
I104
I0
S'full'
p206
I0
tp207
a(I7
I31
I0
S'full'
p208
I0
tp209
a(I0
I3
F-0.625
g196
I2
tp210
a(I0
I3
I0
g198
I2
tp211
a(I0
I7
F0.125
S'able'
p212
I2
tp213
a(I1
I16
F-0.375
S'small'
p214
I2
tp215
a(I1
I146
I0
g200
I2
tp216
a(I1
I335
F0.875
S'nice'
p217
I2
tp218
a(I4
I53
I0
g202
I2
tp219
a(I4
I94
I0
g204
I2
tp220
a(I4
I104
I0
g206
I2
tp221
a(I5
I68
F-0.375
S'small'
p222
I2
tp223
a(I5
I118
F-0.5
S'regular'
p224
I2
tp225
a(I7
I31
I0
g208
I2
tp226
a(I7
I61
F-0.375
S'small'
p227
I2
tp228
a(I7
I80
F0.375
S'tight'
p229
I2
tp230
as(S'scroll'
p231
S'wheel'
p232
tp233
(lp234
(I1
I312
F0.625
S'easy'
p235
I0
tp236
as(S'extended'
p237
S'battery'
p238
tp239
(lp240
(I0
I9
F0.375
S'extended'
p241
I0
tp242
a(I0
I9
F-0.25
S'thin'
p243
I0
tp244
a(I0
I265
F0.375
S'extended'
p245
I0
tp246
a(I1
I55
I0
S'standard'
p247
I0
tp248
a(I1
I260
F0.375
S'extended'
p249
I0
tp250
a(I1
I279
F0.375
S'extended'
p251
I0
tp252
a(I1
I389
F0.375
S'extended'
p253
I0
tp254
a(I1
I392
I0
S'standard'
p255
I0
tp256
a(I1
I392
F0.375
S'extended'
p257
I0
tp258
a(I1
I393
F0.375
S'extended'
p259
I0
tp260
a(I2
I65
F0.375
S'extended'
p261
I0
tp262
a(I2
I65
F0.375
S'new'
p263
I0
tp264
a(I2
I68
F0.375
S'extended'
p265
I0
tp266
a(I2
I70
I0
S'standard'
p267
I0
tp268
a(I2
I70
F0.375
S'extended'
p269
I0
tp270
a(I4
I18
F-0.5
S'regular'
p271
I0
tp272
a(I4
I18
F0.375
S'extended'
p273
I0
tp274
a(I5
I116
F1.0
g35
I0
tp275
a(I7
I29
I0
g43
I0
tp276
a(I7
I29
F0.375
g45
I0
tp277
as(S'button'
p278
tp279
(lp280
(I0
I98
F-0.75
S'wrong'
p281
I19
tp282
a(I0
I266
F-0.375
S'top'
p283
I19
tp284
a(I4
I46
F-0.375
S'top'
p285
I19
tp286
a(I4
I96
F-0.375
S'top'
p287
I19
tp288
as(S'razr'
p289
tp290
(lp291
(I1
I60
F-0.125
S'slow'
p292
I0
tp293
a(I1
I62
F-0.625
S'bad'
p294
I0
tp295
a(I5
I50
F0.625
S'easy'
p296
I0
tp297
a(I7
I13
F1.0
S'good'
p298
I0
tp299
a(I7
I83
I0
S'old'
p300
I0
tp301
as(S'blackjack'
p302
tp303
(lp304
(I0
I121
I0
S'standard'
p305
I0
tp306
a(I0
I277
I0
S'same'
p307
I0
tp308
a(I1
I46
F0.625
S'aware'
p309
I0
tp310
a(I1
I199
F-0.125
S'slow'
p311
I0
tp312
a(I1
I324
F-0.5
S'sure'
p313
I0
tp314
a(I3
I12
F0.875
S'nice'
p315
I0
tp316
a(I3
I16
F-0.25
S'disappointing'
p317
I0
tp318
a(I3
I34
F-0.125
S'overall'
p319
I0
tp320
a(I3
I34
F0.625
S'sexy'
p321
I0
tp322
a(I3
I34
F0.375
S'dependable'
p323
I0
tp324
a(I3
I49
I0
S'close'
p325
I0
tp326
a(I4
I32
F0.375
S'new'
p327
I0
tp328
a(I4
I81
I0
S'great'
p329
I0
tp330
a(I4
I86
F0.5
S'clear'
p331
I0
tp332
a(I4
I88
F0.375
S'much'
p333
I0
tp334
a(I4
I89
F0.875
S'happy'
p335
I0
tp336
a(I5
I53
F0.375
S'much'
p337
I0
tp338
a(I5
I117
F0.375
S'much'
p339
I0
tp340
a(I5
I117
F0.625
S'easier'
p341
I0
tp342
as(S'player'
p343
tp344
(lp345
(I5
I121
F-0.5
S'regular'
p346
I6
tp347
a(I7
I66
F1.0
S'good'
p348
I6
tp349
as(S'network'
p350
tp351
(lp352
(I1
I371
F-0.625
S'other'
p353
I0
tp354
a(I2
I47
I0
S'internet'
p355
I0
tp356
as(S'buttons'
p357
tp358
(lp359
(I0
I256
F-0.5
S'answer'
p360
I13
tp361
a(I0
I256
F-0.25
S'hang'
p362
I13
tp363
a(I1
I230
F-0.625
S'other'
p364
I13
tp365
a(I2
I28
F0.625
S'easy'
p366
I13
tp367
a(I3
I50
F-0.375
S'small'
p368
I13
tp369
a(I3
I50
F-0.5
S'sure'
p370
I13
tp371
a(I6
I44
I-100
S'tosend/end'
p372
I13
tp373
a(I6
I44
F0.625
S'easy'
p374
I13
tp375
as(S'e'
p376
S'mail'
p377
tp378
(lp379
(I1
I417
F-0.25
S'google'
p380
I2
tp381
a(I1
I417
F-0.25
g380
I13
tp382
as(S'calls'
p383
tp384
(lp385
(I0
I82
I0
S'few'
p386
I0
tp387
a(I0
I115
F-0.25
S'dropped'
p388
I0
tp389
a(I0
I221
F0.875
S'music'
p390
I0
tp391
a(I1
I372
F-0.25
S'dropped'
p392
I0
tp393
a(I1
I399
F-0.5
S'regular'
p394
I0
tp395
a(I2
I18
F0.5
S'clear'
p396
I0
tp397
as(S'contacts'
p398
tp399
(lp400
(I0
I268
F-0.5
S'poor'
p401
I0
tp402
a(I5
I41
F0.5
S'second'
p403
I0
tp404
a(I7
I37
I0
S'many'
p405
I0
tp406
as(S'form'
p407
S'factor'
p408
tp409
(lp410
(I1
I356
I0
S'great'
p411
I1
tp412
a(I5
I31
I0
S'great'
p413
I1
tp414
a(I5
I31
F0.625
S'easy'
p415
I1
tp416
a(I5
I54
I0
S'lightweight'
p417
I1
tp418
a(I5
I54
F-0.25
S'thin'
p419
I1
tp420
as(S'music'
p421
tp422
(lp423
(I0
I226
F0.25
S'favorite'
p424
I0
tp425
as(S'directional'
p426
S'pad'
p427
tp428
(lp429
(I1
I91
F-0.125
S'directional'
p430
I0
tp431
a(I1
I93
F-0.125
S'directional'
p432
I0
tp433
a(I1
I101
I0
S'central'
p434
I0
tp435
a(I1
I101
F-0.125
S'directional'
p436
I0
tp437
as(S'blackberry'
p438
tp439
(lp440
(I1
I274
F-0.875
S'stuck'
p441
I1
tp442
a(I4
I31
I0
S'more'
p443
I1
tp444
as(S'standard'
p445
S'headphone'
p446
S'jack'
p447
tp448
(lp449
(I0
I5
I0
S'standard'
p450
I0
tp451
a(I1
I270
I0
S'standard'
p452
I0
tp453
a(I1
I291
I0
S'standard'
p454
I0
tp455
a(I7
I57
I0
S'standard'
p456
I0
tp457
a(I0
I5
I0
g450
I0
tp458
a(I1
I270
I0
g452
I0
tp459
a(I1
I291
I0
g454
I0
tp460
a(I7
I57
I0
g456
I0
tp461
as(S'extra'
p462
S'battery'
p463
tp464
(lp465
(I1
I165
F0.375
g17
I0
tp466
a(I1
I165
F0.5
g19
I0
tp467
a(I3
I38
F0.375
S'extra'
p468
I0
tp469
a(I3
I39
F0.375
S'extra'
p470
I0
tp471
a(I3
I39
F0.25
S'larger'
p472
I0
tp473
a(I5
I39
F0.375
S'extra'
p474
I0
tp475
a(I5
I136
F0.375
S'extra'
p476
I0
tp477
a(I0
I9
F0.375
g241
I15
tp478
a(I0
I9
F-0.25
g243
I15
tp479
a(I0
I58
F0.125
S'last'
p480
I15
tp481
a(I0
I127
F0.5
S'second'
p482
I15
tp483
a(I0
I175
F-0.375
S'smaller'
p484
I15
tp485
a(I0
I265
F0.375
g245
I15
tp486
a(I1
I19
F1.0
g9
I15
tp487
a(I1
I40
F1.0
g11
I15
tp488
a(I1
I55
I0
g247
I15
tp489
a(I1
I165
F0.375
g17
I15
tp490
a(I1
I165
F0.5
g19
I15
tp491
a(I1
I176
F-0.5
g21
I15
tp492
a(I1
I246
F-0.25
S'low'
p493
I15
tp494
a(I1
I260
F0.375
g249
I15
tp495
a(I1
I279
F0.375
g251
I15
tp496
a(I1
I389
F0.375
g253
I15
tp497
a(I1
I392
I0
g255
I15
tp498
a(I1
I392
F0.375
g257
I15
tp499
a(I1
I393
F0.375
g259
I15
tp500
a(I1
I402
I0
g23
I15
tp501
a(I2
I65
F0.375
g261
I15
tp502
a(I2
I65
F0.375
g263
I15
tp503
a(I2
I67
I0
S'standard'
p504
I15
tp505
a(I2
I68
F0.375
g265
I15
tp506
a(I2
I70
I0
g267
I15
tp507
a(I2
I70
F0.375
g269
I15
tp508
a(I3
I38
F0.375
g468
I15
tp509
a(I3
I39
F0.375
g470
I15
tp510
a(I3
I39
F0.25
g472
I15
tp511
a(I4
I17
F-0.625
g31
I15
tp512
a(I4
I18
F-0.5
g271
I15
tp513
a(I4
I18
F0.375
g273
I15
tp514
a(I4
I20
F-0.5
S'sure'
p515
I15
tp516
a(I4
I35
F-0.75
S'stupid'
p517
I15
tp518
a(I4
I62
F-0.25
g33
I15
tp519
a(I4
I63
F0.25
S'bigger'
p520
I15
tp521
a(I5
I18
F0.5
S'second'
p522
I15
tp523
a(I5
I39
F0.375
g474
I15
tp524
a(I5
I40
I0
S'signal'
p525
I15
tp526
a(I5
I80
F-0.5
S'less'
p527
I15
tp528
a(I5
I81
F0.5
S'second'
p529
I15
tp530
a(I5
I116
F1.0
g35
I15
tp531
a(I5
I136
F0.375
g476
I15
tp532
a(I7
I29
I0
g43
I15
tp533
a(I7
I29
F0.375
g45
I15
tp534
a(I7
I32
I0
S'standard'
p535
I15
tp536
a(I7
I75
F-0.5
S'long'
p537
I15
tp538
a(I7
I76
F0.375
S'new'
p539
I15
tp540
as(S'smartphone'
p541
tp542
(lp543
(I0
I192
F0.375
S'new'
p544
I0
tp545
a(I0
I217
F0.375
S'new'
p546
I0
tp547
a(I2
I2
F0.125
S'first'
p548
I0
tp549
a(I5
I17
I0
S'great'
p550
I0
tp551
a(I5
I126
F0.125
S'first'
p552
I0
tp553
a(I6
I20
I0
S'great'
p554
I0
tp555
as(S'bluetooth'
p556
S'headset'
p557
tp558
(lp559
(I1
I50
I0
S'quick'
p560
I0
tp561
a(I7
I37
F-0.25
S'ready'
p562
I0
tp563
a(I0
I166
F0.5
S'compatible'
p564
I3
tp565
a(I0
I166
I0
S'many'
p566
I3
tp567
a(I0
I188
F0.875
S'music'
p568
I3
tp569
a(I1
I297
I0
S'great'
p570
I3
tp571
a(I3
I65
F0.625
S'easy'
p572
I3
tp573
a(I5
I52
F1.0
S'good'
p574
I3
tp575
a(I7
I6
F1.0
S'best'
p576
I3
tp577
as(S'windows'
p578
S'mobile'
p579
tp580
(lp581
(I0
I23
F-0.375
S'crap'
p582
I0
tp583
a(I1
I353
I0
S'most'
p584
I0
tp585
a(I1
I382
I0
S'mobile'
p586
I0
tp587
a(I1
I353
I0
g584
I0
tp588
a(I1
I382
I0
g586
I0
tp589
a(I1
I421
F-0.625
S'other'
p590
I0
tp591
a(I0
I23
F-0.375
g582
I0
tp592
as(S'close'
p593
S'together'
p594
tp595
(lp596
(I0
I122
I0
S'close'
p597
I1
tp598
a(I1
I147
I0
S'close'
p599
I1
tp600
a(I2
I7
I0
S'close'
p601
I1
tp602
as(S'voice'
p603
S'quality'
p604
tp605
(lp606
(I1
I383
F1.0
S'good'
p607
I0
tp608
as(S'google'
p609
S'maps'
p610
tp611
(lp612
(I1
I0
F-0.25
S'google'
p613
I1
tp614
a(I1
I155
F0.375
S'newest'
p615
I1
tp616
a(I1
I380
F-0.25
S'google'
p617
I1
tp618
as(S'3'
p619
S'months'
p620
tp621
(lp622
(I1
I47
F0.5
S'functional'
p623
I1
tp624
a(I1
I47
I0
S'least'
p625
I1
tp626
as(S'touch'
p627
S'screen'
p628
tp629
(lp630
(I0
I210
I0
S'soft'
p631
I2
tp632
a(I1
I236
F0.5
S'touch'
p633
I2
tp634
a(I1
I241
F0.5
S'touch'
p635
I2
tp636
a(I1
I255
F0.5
S'touch'
p637
I2
tp638
a(I7
I17
F0.5
S'touch'
p639
I2
tp640
as(S'sound'
p641
S'quality'
p642
tp643
(lp644
(I0
I241
F1.0
S'good'
p645
I0
tp646
a(I1
I317
I0
S'high'
p647
I0
tp648
a(I1
I317
F-0.125
S'overall'
p649
I0
tp650
a(I5
I31
F1.0
S'best'
p651
I0
tp652
a(I5
I124
F0.375
S'much'
p653
I0
tp654
as.