(dp0
(S'sound'
p1
tp2
(lp3
(I5
I202
F1.0
S'good'
p4
I7
tp5
as(S'battery'
p6
S'life'
p7
tp8
(lp9
(I0
I37
F-0.375
S'small'
p10
I1
tp11
a(I4
I100
F0.625
S'fair'
p12
I1
tp13
a(I5
I165
I0
S'great'
p14
I1
tp15
a(I5
I165
I0
g14
I19
tp16
a(I0
I37
F-0.375
g10
I15
tp17
a(I2
I77
I0
S'real'
p18
I15
tp19
a(I2
I77
F-0.25
S'low'
p20
I15
tp21
a(I2
I97
F-0.5
S'weak'
p22
I15
tp23
a(I3
I11
I0
S'full'
p24
I15
tp25
a(I4
I100
F0.625
g12
I15
tp26
a(I5
I106
F-0.25
S'drained'
p27
I15
tp28
as(S'ring'
p29
S'tones'
p30
tp31
(lp32
(I0
I37
I0
S'own'
p33
I0
tp34
a(I2
I20
I0
S'individual'
p35
I0
tp36
a(I2
I48
F0.375
S'polyphonic'
p37
I0
tp38
a(I2
I48
F0.375
g37
I1
tp39
as(S'motorola'
p40
tp41
(lp42
(I2
I23
I0
S'quick'
p43
I0
tp44
a(I2
I23
F0.625
S'easy'
p45
I0
tp46
a(I4
I87
F-0.625
S'other'
p47
I0
tp48
a(I4
I87
F0.375
S'similar'
p49
I0
tp50
a(I5
I206
I0
S'old'
p51
I0
tp52
as(S'one'
p53
S'day'
p54
tp55
(lp56
(I2
I182
I0
S'next'
p57
I1
tp58
a(I5
I225
I0
S'next'
p59
I1
tp60
as(S'menus'
p61
tp62
(lp63
(I2
I61
F0.625
S'easy'
p64
I0
tp65
a(I4
I55
F0.625
S'easy'
p66
I0
tp67
a(I5
I187
F0.625
S'easier'
p68
I0
tp69
as(S'camera'
p70
tp71
(lp72
(I0
I37
F0.375
S'new'
p73
I1
tp74
a(I2
I74
F0.875
S'nice'
p75
I1
tp76
a(I2
I159
I0
S'basic'
p77
I1
tp78
a(I2
I160
F0.125
S'digital'
p79
I1
tp80
a(I4
I55
F1.0
S'good'
p81
I1
tp82
a(I4
I90
I0
S'wide'
p83
I1
tp84
a(I5
I38
F-0.625
S'bad'
p85
I1
tp86
a(I6
I12
I0
S'basic'
p87
I1
tp88
a(I6
I40
F0.125
S'digital'
p89
I1
tp90
as(S'data'
p91
S'cable'
p92
tp93
(lp94
(I5
I69
I0
S'cable'
p95
I0
tp96
a(I4
I70
F-0.625
S'other'
p97
I13
tp98
a(I5
I69
I0
g95
I13
tp99
as(S'old'
p100
S'nokia'
p101
tp102
(lp103
(I2
I66
F0.5
S'compatible'
p104
I0
tp105
a(I4
I46
I0
S'older'
p106
I0
tp107
a(I4
I96
F0.125
S'first'
p108
I0
tp109
a(I6
I54
I0
S'old'
p110
I0
tp111
a(I6
I58
I0
S'old'
p112
I0
tp113
a(I6
I61
I0
S'old'
p114
I0
tp115
a(I6
I63
I0
S'old'
p116
I0
tp117
a(I0
I25
F-0.625
S'other'
p118
I0
tp119
a(I0
I36
F0.375
S'new'
p120
I0
tp121
a(I2
I43
F0.375
S'new'
p122
I0
tp123
a(I2
I62
I0
S'most'
p124
I0
tp125
a(I2
I66
F0.5
g104
I0
tp126
a(I2
I107
F0.5
S'rid'
p127
I0
tp128
a(I2
I107
I0
S'most'
p129
I0
tp130
a(I4
I11
F0.125
S'first'
p131
I0
tp132
a(I4
I12
F0.5
S'second'
p133
I0
tp134
a(I4
I45
F-0.625
S'free'
p135
I0
tp136
a(I4
I46
I0
g106
I0
tp137
a(I4
I84
F0.125
S'first'
p138
I0
tp139
a(I4
I85
I0
S'earlier'
p140
I0
tp141
a(I4
I96
F0.125
g108
I0
tp142
a(I5
I25
I0
S'different'
p143
I0
tp144
a(I5
I25
F-0.625
S'other'
p145
I0
tp146
a(I5
I33
F-0.625
S'other'
p147
I0
tp148
a(I5
I97
F-0.625
S'free'
p149
I0
tp150
a(I5
I180
F0.5
S'second'
p151
I0
tp152
a(I5
I193
F-0.625
S'other'
p153
I0
tp154
a(I5
I205
F-0.625
S'free'
p155
I0
tp156
a(I6
I1
I0
S'such'
p157
I0
tp158
a(I6
I43
F1.0
S'good'
p159
I0
tp160
a(I6
I54
I0
g110
I0
tp161
a(I6
I58
I0
g112
I0
tp162
a(I6
I59
F0.5
S'whole'
p163
I0
tp164
a(I6
I61
I0
g114
I0
tp165
a(I6
I63
I0
g116
I0
tp166
as(S'bluetooth'
p167
tp168
(lp169
(I2
I53
F-0.75
S'sufficient'
p170
I3
tp171
as(S'reception'
p172
tp173
(lp174
(I0
I1
I0
S'great'
p175
I0
tp176
a(I2
I13
I0
S'signal'
p177
I0
tp178
a(I2
I62
I0
S'great'
p179
I0
tp180
a(I2
I117
I0
S'great'
p181
I0
tp182
a(I2
I203
F1.0
S'good'
p183
I0
tp184
a(I2
I211
F1.0
S'good'
p185
I0
tp186
a(I3
I22
I0
S'great'
p187
I0
tp188
a(I3
I22
F-0.5
S'poor'
p189
I0
tp190
a(I4
I85
I0
S'great'
p191
I0
tp192
a(I5
I53
F-0.5
S'poor'
p193
I0
tp194
a(I5
I158
F-0.625
S'average'
p195
I0
tp196
a(I5
I158
F1.0
S'best'
p197
I0
tp198
a(I6
I32
F1.0
S'good'
p199
I0
tp200
as(S'memory'
p201
tp202
(lp203
(I2
I64
I0
S'external'
p204
I5
tp205
a(I2
I106
I0
S'full'
p206
I5
tp207
a(I5
I11
F0.375
S'much'
p208
I5
tp209
a(I6
I17
F0.75
S'due'
p210
I5
tp211
a(I6
I17
I0
S'limited'
p212
I5
tp213
as(S'menu'
p214
tp215
(lp216
(I2
I14
I0
S'few'
p217
I2
tp218
a(I2
I17
F-0.75
S'wrong'
p219
I2
tp220
a(I4
I47
F0.25
S'main'
p221
I2
tp222
a(I5
I28
F-0.875
S'trouble'
p223
I2
tp224
as(S'other'
p225
S'party'
p226
tp227
(lp228
(I2
I3
F-0.625
S'other'
p229
I0
tp230
a(I2
I89
F-0.625
S'other'
p231
I0
tp232
a(I5
I91
F-0.625
S'other'
p233
I0
tp234
as(S'speakerphone'
p235
tp236
(lp237
(I0
I33
F0.25
S'powerful'
p238
I0
tp239
a(I2
I72
F0.5
S'clear'
p240
I0
tp241
a(I2
I72
F0.375
S'loud'
p242
I0
tp243
a(I4
I67
I0
S'integrated'
p244
I0
tp245
a(I6
I34
F-0.625
S'bad'
p246
I0
tp247
a(I6
I34
F-0.375
S'small'
p248
I0
tp249
as(S'speaker'
p250
tp251
(lp252
(I0
I32
I0
S'basic'
p253
I8
tp254
a(I0
I32
I0
S'great'
p255
I8
tp256
a(I0
I33
I0
S'normal'
p257
I8
tp258
a(I2
I125
I0
S'very'
p259
I8
tp260
a(I2
I125
F-0.375
S'small'
p261
I8
tp262
a(I5
I144
I0
S'next'
p263
I8
tp264
as(S'radio'
p265
tp266
(lp267
(I2
I127
F0.75
S'contrary'
p268
I0
tp269
a(I6
I34
F1.0
S'good'
p270
I0
tp271
as(S'ringtones'
p272
tp273
(lp274
(I2
I14
F0.375
S'new'
p275
I0
tp276
a(I2
I175
F-0.625
S'other'
p277
I0
tp278
a(I3
I16
F0.25
S'consistent'
p279
I0
tp280
a(I4
I61
F0.375
S'polyphonic'
p281
I0
tp282
a(I4
I107
I0
S'great'
p283
I0
tp284
as(S'voice'
p285
tp286
(lp287
(I6
I27
I0
S'basic'
p288
I4
tp289
as(S'bottom'
p290
S'line'
p291
tp292
(lp293
(I5
I115
F-0.375
S'top'
p294
I0
tp295
as(S'ring'
p296
S'tone'
p297
tp298
(lp299
(I0
I37
I0
g33
I0
tp300
a(I2
I20
I0
g35
I0
tp301
a(I2
I148
I0
S'different'
p302
I0
tp303
as(S'sim'
p304
S'card'
p305
tp306
(lp307
(I2
I191
F-0.25
S'dumbfounded'
p308
I0
tp309
as(S'physical'
p310
S'damage'
p311
tp312
(lp313
(I0
I6
I0
S'physical'
p314
I0
tp315
a(I4
I80
I0
S'physical'
p316
I0
tp317
a(I4
I80
I0
S'physical'
p318
I0
tp319
as(S'volume'
p320
tp321
(lp322
(I2
I2
I0
S'soft'
p323
I6
tp324
a(I2
I124
F-0.25
S'low'
p325
I6
tp326
a(I2
I135
F-0.25
S'low'
p327
I6
tp328
a(I2
I224
F-0.25
S'low'
p329
I6
tp330
a(I2
I224
F-0.25
S'highest'
p331
I6
tp332
a(I4
I48
I0
S'great'
p333
I6
tp334
a(I5
I144
F1.0
S'best'
p335
I6
tp336
as(S'dropped'
p337
S'calls'
p338
tp339
(lp340
(I5
I100
F-0.25
S'dropped'
p341
I0
tp342
a(I6
I32
I0
S'few'
p343
I0
tp344
a(I6
I32
F-0.25
S'dropped'
p345
I0
tp346
a(I5
I100
F-0.25
g341
I0
tp347
a(I5
I113
F-0.5
S'international'
p348
I0
tp349
a(I5
I189
I0
S'many'
p350
I0
tp351
a(I6
I32
I0
g343
I0
tp352
a(I6
I32
F-0.25
g345
I0
tp353
as(S'flip'
p354
tp355
(lp356
(I0
I19
I0
S'sturdy'
p357
I4
tp358
a(I0
I19
F0.5
S'strong'
p359
I4
tp360
a(I2
I43
F0.625
S'easy'
p361
I4
tp362
a(I2
I65
F-0.625
S'other'
p363
I4
tp364
a(I2
I98
I0
S'latest'
p365
I4
tp366
a(I4
I96
F0.625
S'successful'
p367
I4
tp368
a(I5
I152
F0.125
S'first'
p369
I4
tp370
a(I5
I181
I0
S'sturdy'
p371
I4
tp372
as.