(dp0
(S'key'
p1
S'pad'
p2
tp3
(lp4
(I6
I80
F0.125
S'key'
p5
I0
tp6
a(I14
I23
F0.125
S'key'
p7
I0
tp8
a(I43
I53
F0.125
S'key'
p9
I0
tp10
a(I50
I56
F0.125
S'key'
p11
I0
tp12
a(I50
I56
F0.625
S'easy'
p13
I0
tp14
as(S'midi'
p15
S'files'
p16
tp17
(lp18
(I47
I53
I0
S'own'
p19
I0
tp20
as(S'joystick'
p21
tp22
(lp23
(I6
I163
F0.625
S'convenient'
p24
I0
tp25
a(I13
I39
I0
S'sensitive'
p26
I0
tp27
a(I13
I39
F-0.875
S'hard'
p28
I0
tp29
a(I20
I24
F-0.75
S'little'
p30
I0
tp31
a(I24
I0
F-0.5
S'poor'
p32
I0
tp33
a(I30
I3
F-0.75
S'little'
p34
I0
tp35
a(I42
I12
I0
S'more'
p36
I0
tp37
as(S'good'
p38
S'reception'
p39
tp40
(lp41
(I1
I77
F1.0
S'good'
p42
I0
tp43
a(I1
I244
F1.0
S'good'
p44
I0
tp45
a(I8
I17
F1.0
S'good'
p46
I0
tp47
a(I8
I21
F1.0
S'good'
p48
I0
tp49
a(I9
I93
F1.0
S'good'
p50
I0
tp51
a(I12
I1
F1.0
S'good'
p52
I0
tp53
a(I17
I115
F1.0
S'good'
p54
I0
tp55
a(I20
I32
F1.0
S'good'
p56
I0
tp57
a(I22
I14
F1.0
S'good'
p58
I0
tp59
a(I22
I14
F1.0
S'good'
p60
I0
tp61
a(I22
I161
F1.0
S'good'
p62
I0
tp63
a(I22
I236
F1.0
S'good'
p64
I0
tp65
a(I22
I238
F1.0
S'good'
p66
I0
tp67
a(I25
I12
F1.0
S'good'
p68
I0
tp69
a(I27
I90
I0
S'great'
p70
I0
tp71
a(I30
I36
F1.0
S'good'
p72
I0
tp73
a(I32
I8
F1.0
S'better'
p74
I0
tp75
a(I32
I8
F1.0
S'good'
p76
I0
tp77
a(I32
I40
F1.0
S'good'
p78
I0
tp79
a(I34
I43
F1.0
S'good'
p80
I0
tp81
a(I37
I27
F1.0
S'good'
p82
I0
tp83
a(I37
I52
I0
S'cool'
p84
I0
tp85
a(I40
I19
F1.0
S'good'
p86
I0
tp87
a(I40
I25
F1.0
S'good'
p88
I0
tp89
a(I40
I93
F1.0
S'good'
p90
I0
tp91
a(I43
I86
F1.0
S'good'
p92
I0
tp93
a(I45
I4
F1.0
S'good'
p94
I0
tp95
a(I45
I4
I0
S'great'
p96
I0
tp97
a(I49
I9
F1.0
S'good'
p98
I0
tp99
a(I49
I53
F1.0
S'good'
p100
I0
tp101
a(I50
I79
F-0.5
S'poor'
p102
I0
tp103
as(S'ring'
p104
S'tones'
p105
tp106
(lp107
(I1
I225
F1.0
S'good'
p108
I0
tp109
a(I30
I38
F0.375
S'polyphonic'
p110
I0
tp111
a(I33
I3
F0.375
S'polyphonic'
p112
I0
tp113
a(I43
I17
I0
S'standard'
p114
I0
tp115
a(I43
I72
F0.5
S'personal'
p116
I0
tp117
a(I50
I58
I0
S'special'
p118
I0
tp119
as(S'contacts'
p120
tp121
(lp122
(I5
I12
F-0.625
S'other'
p123
I0
tp124
a(I14
I86
F-0.75
S'dirty'
p125
I0
tp126
a(I26
I42
F-0.625
S'other'
p127
I0
tp128
a(I27
I30
F0.625
S'easy'
p129
I0
tp130
a(I31
I24
F-0.5
S'call'
p131
I0
tp132
a(I40
I42
F0.625
S'easy'
p133
I0
tp134
a(I47
I53
I0
S'old'
p135
I0
tp136
as(S'games'
p137
tp138
(lp139
(I9
I32
I0
S'cool'
p140
I19
tp141
a(I9
I81
I0
S'more'
p142
I19
tp143
a(I40
I86
F0.125
S'able'
p144
I19
tp145
a(I40
I95
F1.0
S'good'
p146
I19
tp147
a(I49
I3
I0
S'great'
p148
I19
tp149
a(I49
I111
F-0.625
S'other'
p150
I19
tp151
as(S'blue'
p152
S'tooth'
p153
tp154
(lp155
(I8
I6
I0
S'blue'
p156
I0
tp157
a(I17
I106
I0
S'blue'
p158
I0
tp159
a(I24
I39
I0
S'blue'
p160
I0
tp161
a(I25
I24
I0
S'cool'
p162
I0
tp163
a(I27
I88
I0
S'blue'
p164
I0
tp165
a(I30
I25
I0
S'blue'
p166
I0
tp167
a(I30
I29
F-0.625
S'free'
p168
I0
tp169
a(I30
I29
I0
S'blue'
p170
I0
tp171
a(I32
I2
I0
S'blue'
p172
I0
tp173
a(I49
I51
I0
S'blue'
p174
I0
tp175
as(S'storage'
p176
S'space'
p177
tp178
(lp179
(I30
I16
F0.375
S'much'
p180
I0
tp181
a(I45
I3
I0
S'great'
p182
I0
tp183
as(S'menu'
p184
tp185
(lp186
(I6
I65
F0.625
S'easy'
p187
I2
tp188
a(I6
I165
F0.625
S'easy'
p189
I2
tp190
a(I14
I146
F-0.75
S'difficult'
p191
I2
tp192
a(I22
I200
F0.625
S'easy'
p193
I2
tp194
a(I30
I62
F0.25
S'main'
p195
I2
tp196
a(I35
I15
F-0.75
S'difficult'
p197
I2
tp198
a(I42
I12
F-0.5
S'unwanted'
p199
I2
tp200
a(I43
I38
F0.25
S'main'
p201
I2
tp202
a(I43
I55
F-0.75
S'difficult'
p203
I2
tp204
a(I48
I12
I0
S'great'
p205
I2
tp206
a(I48
I12
F-0.375
S'small'
p207
I2
tp208
a(I48
I12
F0.625
S'easy'
p209
I2
tp210
a(I48
I12
F0.625
S'easy'
p211
I2
tp212
a(I49
I52
F0.625
S'easy'
p213
I2
tp214
a(I49
I80
F-0.125
S'delete'
p215
I2
tp216
as(S'cool'
p217
tp218
(lp219
(I0
I5
F-0.375
S'manual'
p220
I11
tp221
a(I2
I26
F0.625
S'easy'
p222
I11
tp223
a(I25
I46
F0.125
S'last'
p224
I11
tp225
a(I27
I16
F-0.625
S'other'
p226
I11
tp227
a(I37
I86
F-0.625
S'other'
p228
I11
tp229
a(I37
I88
I0
S'many'
p230
I11
tp231
a(I43
I20
F0.375
S'extra'
p232
I11
tp233
as(S'sony'
p234
S'ericsson'
p235
S't610'
p236
tp237
(lp238
(I6
I228
F0.625
S'safe'
p239
I0
tp240
a(I10
I65
F1.0
S'good'
p241
I0
tp242
a(I15
I43
F0.375
S'new'
p243
I0
tp244
a(I46
I38
F-0.25
S'revolutionary'
p245
I0
tp246
a(I6
I206
F0.5
S'buy'
p247
I0
tp248
a(I6
I206
F-0.625
S'other'
p249
I0
tp250
a(I6
I228
F0.625
g239
I0
tp251
a(I15
I43
F0.375
g243
I0
tp252
a(I22
I140
I0
S'faster'
p253
I0
tp254
a(I22
I214
I0
S'more'
p255
I0
tp256
a(I22
I214
F0.125
S'conservative'
p257
I0
tp258
a(I43
I56
F-0.5
S'less'
p259
I0
tp260
a(I46
I38
F-0.25
g245
I0
tp261
a(I10
I65
F1.0
g241
I0
tp262
a(I46
I38
F-0.25
g245
I0
tp263
a(I0
I18
F-0.125
S'overall'
p264
I0
tp265
a(I1
I111
F0.5
S'second'
p266
I0
tp267
a(I2
I51
I0
S'many'
p268
I0
tp269
a(I8
I13
F-0.5
S'long'
p270
I0
tp271
a(I10
I65
F1.0
g241
I0
tp272
a(I11
I7
F0.875
S'happy'
p273
I0
tp274
a(I12
I31
F-0.375
S'small'
p275
I0
tp276
a(I12
I31
F0.375
S'loud'
p277
I0
tp278
a(I14
I126
F0.75
S'due'
p279
I0
tp280
a(I15
I10
F-0.5
S'less'
p281
I0
tp282
a(I15
I46
F1.0
S'better'
p283
I0
tp284
a(I15
I53
I0
S'few'
p285
I0
tp286
a(I18
I28
F-0.75
S'likely'
p287
I0
tp288
a(I18
I28
F-0.625
S'free'
p289
I0
tp290
a(I24
I29
F0.5
S'bought'
p291
I0
tp292
a(I25
I68
F-0.625
S'other'
p293
I0
tp294
a(I30
I24
F1.0
S'better'
p295
I0
tp296
a(I31
I39
F1.0
S'good'
p297
I0
tp298
a(I43
I3
F0.875
S'happy'
p299
I0
tp300
a(I43
I32
F-0.375
S'manual'
p301
I0
tp302
a(I49
I120
F-0.875
S'hard'
p303
I0
tp304
a(I6
I206
F0.5
g247
I5
tp305
a(I6
I206
F-0.625
g249
I5
tp306
a(I6
I228
F0.625
g239
I5
tp307
a(I8
I0
F-0.5
S'less'
p308
I5
tp309
a(I15
I43
F0.375
g243
I5
tp310
a(I20
I42
I0
S'update'
p311
I5
tp312
a(I22
I140
I0
g253
I5
tp313
a(I30
I23
F0.375
S'complete'
p314
I5
tp315
a(I32
I76
F0.125
S'first'
p316
I5
tp317
a(I43
I56
F-0.5
g259
I5
tp318
a(I45
I11
F-0.5
S'try'
p319
I5
tp320
a(I50
I76
F0.125
S'first'
p321
I5
tp322
a(I6
I119
F0.125
S'first'
p323
I0
tp324
a(I22
I214
I0
g255
I0
tp325
a(I22
I214
F0.125
g257
I0
tp326
a(I34
I13
F-0.25
S'past'
p327
I0
tp328
a(I46
I38
F-0.25
g245
I0
tp329
a(I50
I120
I0
S'older'
p330
I0
tp331
as(S'good'
p332
S'battery'
p333
S'life'
p334
tp335
(lp336
(I4
I6
F-0.125
S'overall'
p337
I0
tp338
a(I4
I6
F-0.25
S'inexpensive'
p339
I0
tp340
a(I4
I6
F1.0
S'good'
p341
I0
tp342
a(I13
I34
F0.875
S'nice'
p343
I0
tp344
a(I18
I55
F1.0
S'good'
p345
I0
tp346
a(I22
I124
F1.0
S'good'
p347
I0
tp348
a(I27
I121
F-0.75
S'difficult'
p349
I0
tp350
a(I30
I36
F1.0
S'good'
p351
I0
tp352
a(I34
I8
F-0.375
S'small'
p353
I0
tp354
a(I34
I8
F1.0
S'good'
p355
I0
tp356
a(I47
I49
I0
S'least'
p357
I0
tp358
as(S'make'
p359
S'a'
p360
S'call'
p361
tp362
(lp363
(I9
I86
F0.125
S'pal'
p364
I0
tp365
as(S't'
p366
S'mobile'
p367
S'service'
p368
tp369
(lp370
(I1
I223
F-0.625
S'bad'
p371
I0
tp372
a(I14
I107
F1.0
S'better'
p373
I0
tp374
a(I14
I113
F1.0
S'good'
p375
I0
tp376
a(I14
I113
F0.125
S'solid'
p377
I0
tp378
a(I14
I113
I0
S'signal'
p379
I0
tp380
a(I19
I2
F0.875
S'happy'
p381
I0
tp382
a(I22
I241
F1.0
S'best'
p383
I0
tp384
a(I31
I43
F1.0
S'best'
p385
I0
tp386
a(I34
I9
I0
S'great'
p387
I0
tp388
a(I34
I76
I0
S'great'
p389
I0
tp390
a(I34
I76
I0
S'great'
p391
I0
tp392
a(I43
I43
F0.625
S'aware'
p393
I0
tp394
a(I48
I12
I0
S'great'
p395
I0
tp396
a(I49
I52
F1.0
S'good'
p397
I0
tp398
a(I49
I86
F1.0
S'best'
p399
I0
tp400
a(I49
I134
F0.25
S'helpful'
p401
I0
tp402
a(I50
I109
F-0.625
S'bad'
p403
I0
tp404
a(I50
I243
F-0.875
S'worst'
p405
I0
tp406
a(I1
I223
F-0.625
g371
I0
tp407
a(I14
I107
F1.0
g373
I0
tp408
a(I14
I113
F1.0
g375
I0
tp409
a(I14
I113
F0.125
g377
I0
tp410
a(I14
I113
I0
g379
I0
tp411
a(I19
I2
F0.875
g381
I0
tp412
a(I22
I241
F1.0
g383
I0
tp413
a(I31
I43
F1.0
g385
I0
tp414
a(I34
I9
I0
g387
I0
tp415
a(I34
I76
I0
g389
I0
tp416
a(I34
I76
I0
g391
I0
tp417
a(I43
I43
F0.625
g393
I0
tp418
a(I48
I12
I0
g395
I0
tp419
a(I49
I52
F1.0
g397
I0
tp420
a(I49
I86
F1.0
g399
I0
tp421
a(I49
I134
F0.25
g401
I0
tp422
a(I50
I109
F-0.625
g403
I0
tp423
a(I50
I243
F-0.875
g405
I0
tp424
a(I0
I24
F-0.625
S'bad'
p425
I16
tp426
a(I0
I25
I0
S'more'
p427
I16
tp428
a(I1
I176
F-0.625
S'bad'
p429
I16
tp430
a(I1
I223
F-0.625
g371
I16
tp431
a(I1
I228
I0
S'great'
p432
I16
tp433
a(I9
I134
F-0.625
S'bad'
p434
I16
tp435
a(I10
I62
F1.0
S'better'
p436
I16
tp437
a(I14
I107
F1.0
g373
I16
tp438
a(I14
I113
F1.0
g375
I16
tp439
a(I14
I113
F0.125
g377
I16
tp440
a(I14
I113
I0
g379
I16
tp441
a(I17
I46
I0
S'same'
p442
I16
tp443
a(I19
I2
F0.875
g381
I16
tp444
a(I22
I0
I0
S'same'
p445
I16
tp446
a(I22
I183
I0
S'old'
p447
I16
tp448
a(I22
I241
F1.0
g383
I16
tp449
a(I25
I14
I0
S'same'
p450
I16
tp451
a(I25
I52
F-0.5
S'poor'
p452
I16
tp453
a(I28
I3
F-0.875
S'worst'
p454
I16
tp455
a(I29
I31
F1.0
S'good'
p456
I16
tp457
a(I30
I22
I0
S'same'
p458
I16
tp459
a(I31
I43
F1.0
g385
I16
tp460
a(I34
I9
I0
g387
I16
tp461
a(I34
I75
I0
S'download'
p462
I16
tp463
a(I34
I76
I0
g389
I16
tp464
a(I34
I76
I0
g391
I16
tp465
a(I38
I2
F-0.875
S'worst'
p466
I16
tp467
a(I43
I43
F0.625
g393
I16
tp468
a(I46
I84
F0.375
S'extra'
p469
I16
tp470
a(I47
I0
F-0.625
S'bad'
p471
I16
tp472
a(I48
I12
I0
g395
I16
tp473
a(I49
I5
I0
S'full'
p474
I16
tp475
a(I49
I52
F1.0
g397
I16
tp476
a(I49
I86
F1.0
g399
I16
tp477
a(I49
I134
F0.25
g401
I16
tp478
a(I50
I44
F-0.625
S'sorry'
p479
I16
tp480
a(I50
I109
F-0.625
g403
I16
tp481
a(I50
I158
F1.0
S'good'
p482
I16
tp483
a(I50
I160
F0.625
S'wary'
p484
I16
tp485
a(I50
I243
F-0.875
g405
I16
tp486
a(I50
I244
F0.625
S'decent'
p487
I16
tp488
a(I37
I109
F0.625
S'aware'
p489
I0
tp490
as(S'reception'
p491
S'very'
p492
S'poor'
p493
tp494
(lp495
(I25
I26
F-0.5
S'poor'
p496
I0
tp497
a(I32
I22
F-0.5
S'poor'
p498
I0
tp499
a(I34
I18
F0.5
S'second'
p500
I0
tp501
a(I34
I18
F-0.5
S'poor'
p502
I0
tp503
a(I46
I93
F-0.5
S'poor'
p504
I0
tp505
a(I49
I151
F-0.5
S'poor'
p506
I0
tp507
a(I50
I79
F-0.5
g102
I0
tp508
a(I1
I77
F1.0
g42
I0
tp509
a(I1
I145
F-0.625
S'bad'
p510
I0
tp511
a(I1
I223
I0
S'most'
p512
I0
tp513
a(I1
I244
F1.0
g44
I0
tp514
a(I1
I272
F-0.5
S'poor'
p515
I0
tp516
a(I1
I273
F1.0
S'better'
p517
I0
tp518
a(I2
I41
F1.0
S'better'
p519
I0
tp520
a(I2
I42
F-0.5
S'poor'
p521
I0
tp522
a(I3
I2
I0
S'full'
p523
I0
tp524
a(I4
I7
I0
S'wide'
p525
I0
tp526
a(I6
I34
F-0.625
S'bad'
p527
I0
tp528
a(I6
I218
I0
S'great'
p529
I0
tp530
a(I6
I234
F0.75
S'due'
p531
I0
tp532
a(I8
I17
F1.0
g46
I0
tp533
a(I8
I21
F1.0
g48
I0
tp534
a(I9
I93
F1.0
g50
I0
tp535
a(I12
I1
F1.0
g52
I0
tp536
a(I12
I8
F-0.625
S'bad'
p537
I0
tp538
a(I14
I109
F0.5
S'told'
p539
I0
tp540
a(I15
I11
F-0.5
S'poor'
p541
I0
tp542
a(I15
I22
I0
S'great'
p543
I0
tp544
a(I17
I44
F-0.625
S'bad'
p545
I0
tp546
a(I17
I62
F1.0
S'better'
p547
I0
tp548
a(I17
I106
I0
S'great'
p549
I0
tp550
a(I17
I115
F1.0
g54
I0
tp551
a(I18
I58
F1.0
S'better'
p552
I0
tp553
a(I18
I65
F-0.625
S'other'
p554
I0
tp555
a(I18
I65
F-0.5
S'weak'
p556
I0
tp557
a(I20
I32
F1.0
g56
I0
tp558
a(I21
I5
F-0.625
S'bad'
p559
I0
tp560
a(I21
I20
F0.875
S'important'
p561
I0
tp562
a(I22
I0
F-0.25
S'low'
p563
I0
tp564
a(I22
I9
I0
S'signal'
p565
I0
tp566
a(I22
I9
F-0.5
S'weak'
p567
I0
tp568
a(I22
I9
F0.625
S'fair'
p569
I0
tp570
a(I22
I14
F1.0
g58
I0
tp571
a(I22
I14
F1.0
g60
I0
tp572
a(I22
I58
I0
S'great'
p573
I0
tp574
a(I22
I127
I0
S'external'
p575
I0
tp576
a(I22
I127
I0
S'great'
p577
I0
tp578
a(I22
I161
F1.0
g62
I0
tp579
a(I22
I170
F-0.5
S'poor'
p580
I0
tp581
a(I22
I206
F-0.75
S'worse'
p582
I0
tp583
a(I22
I236
F1.0
g64
I0
tp584
a(I22
I238
F1.0
g66
I0
tp585
a(I23
I8
I0
S'great'
p586
I0
tp587
a(I25
I12
F1.0
g68
I0
tp588
a(I25
I26
F-0.5
g496
I0
tp589
a(I26
I53
F-0.5
S'poor'
p590
I0
tp591
a(I26
I63
I0
S'signal'
p592
I0
tp593
a(I27
I3
I0
S'signal'
p594
I0
tp595
a(I27
I67
I0
S'great'
p596
I0
tp597
a(I27
I80
F-0.625
S'bad'
p598
I0
tp599
a(I27
I81
F-0.625
S'bad'
p600
I0
tp601
a(I27
I90
I0
g70
I0
tp602
a(I27
I134
F-0.625
S'bad'
p603
I0
tp604
a(I30
I36
F1.0
g72
I0
tp605
a(I32
I8
F1.0
g74
I0
tp606
a(I32
I8
F1.0
g76
I0
tp607
a(I32
I13
F0.5
S'strong'
p608
I0
tp609
a(I32
I13
I0
S'signal'
p610
I0
tp611
a(I32
I22
F-0.5
g498
I0
tp612
a(I32
I27
I0
S'most'
p613
I0
tp614
a(I32
I31
F-0.625
S'bad'
p615
I0
tp616
a(I32
I40
F1.0
g78
I0
tp617
a(I32
I42
F-0.625
S'bad'
p618
I0
tp619
a(I32
I67
F0.5
S'clear'
p620
I0
tp621
a(I34
I2
F0.625
S'kind'
p622
I0
tp623
a(I34
I18
F0.5
g500
I0
tp624
a(I34
I18
F-0.5
g502
I0
tp625
a(I34
I33
F-0.625
S'bad'
p626
I0
tp627
a(I34
I43
F1.0
g80
I0
tp628
a(I34
I63
F-0.5
S'less'
p629
I0
tp630
a(I34
I63
F-0.625
S'other'
p631
I0
tp632
a(I36
I10
I0
S'great'
p633
I0
tp634
a(I37
I27
F1.0
g82
I0
tp635
a(I37
I28
I0
S'great'
p636
I0
tp637
a(I37
I52
I0
g84
I0
tp638
a(I37
I114
F-0.5
S'poor'
p639
I0
tp640
a(I40
I5
F0.125
S'key'
p641
I0
tp642
a(I40
I5
F-0.5
S'poor'
p643
I0
tp644
a(I40
I19
F1.0
g86
I0
tp645
a(I40
I23
I0
S'adequate'
p646
I0
tp647
a(I40
I25
F1.0
g88
I0
tp648
a(I40
I93
F1.0
g90
I0
tp649
a(I41
I30
F0.5
S'strong'
p650
I0
tp651
a(I41
I36
F-0.625
S'bad'
p652
I0
tp653
a(I42
I24
F0.5
S'comparable'
p654
I0
tp655
a(I43
I86
F1.0
g92
I0
tp656
a(I45
I4
F1.0
g94
I0
tp657
a(I45
I4
I0
g96
I0
tp658
a(I46
I58
F-0.5
S'weak'
p659
I0
tp660
a(I46
I93
F-0.5
g504
I0
tp661
a(I47
I4
F-0.625
S'bad'
p662
I0
tp663
a(I48
I37
F-0.125
S'overall'
p664
I0
tp665
a(I49
I9
F1.0
g98
I0
tp666
a(I49
I53
F1.0
g100
I0
tp667
a(I49
I151
F-0.5
g506
I0
tp668
a(I50
I36
F-0.5
S'poor'
p669
I0
tp670
a(I50
I79
F-0.5
g102
I0
tp671
a(I50
I151
I0
S'great'
p672
I0
tp673
a(I50
I153
I0
S'most'
p674
I0
tp675
a(I50
I153
F0.875
S'important'
p676
I0
tp677
as(g360
S'digital'
p678
S'camera'
p679
tp680
(lp681
(I8
I28
F0.125
S'digital'
p682
I0
tp683
a(I16
I7
F0.125
S'digital'
p684
I0
tp685
a(I17
I118
F0.125
S'digital'
p686
I0
tp687
a(I27
I39
F0.125
S'digital'
p688
I0
tp689
a(I30
I69
F0.125
S'digital'
p690
I0
tp691
a(I35
I14
F0.125
S'digital'
p692
I0
tp693
a(I37
I128
F0.375
S'available'
p694
I0
tp695
a(I40
I36
F0.125
S'digital'
p696
I0
tp697
a(I40
I91
I0
S'great'
p698
I0
tp699
a(I46
I75
F-0.5
S'regular'
p700
I0
tp701
a(I48
I23
F0.125
S'digital'
p702
I0
tp703
a(I50
I8
F-0.5
S'regular'
p704
I0
tp705
a(I50
I41
F0.125
S'digital'
p706
I0
tp707
a(I1
I48
F0.625
S'interested'
p708
I1
tp709
a(I1
I79
F1.0
S'good'
p710
I1
tp711
a(I1
I225
F1.0
S'good'
p712
I1
tp713
a(I2
I23
F0.125
S'first'
p714
I1
tp715
a(I5
I4
F-0.625
S'other'
p716
I1
tp717
a(I6
I155
F1.0
S'good'
p718
I1
tp719
a(I6
I212
F-0.625
S'bad'
p720
I1
tp721
a(I6
I212
F-0.625
S'bad'
p722
I1
tp723
a(I6
I222
F1.0
S'good'
p724
I1
tp725
a(I8
I18
I0
S'great'
p726
I1
tp727
a(I8
I28
F0.125
g682
I1
tp728
a(I9
I32
I0
S'cool'
p729
I1
tp730
a(I9
I75
F-0.5
S'poor'
p731
I1
tp732
a(I9
I120
F-0.5
S'poor'
p733
I1
tp734
a(I9
I120
I0
S'pic'
p735
I1
tp736
a(I10
I25
F1.0
S'better'
p737
I1
tp738
a(I10
I50
F-0.375
S'small'
p739
I1
tp740
a(I10
I50
I0
S'lightweight'
p741
I1
tp742
a(I10
I51
F1.0
S'best'
p743
I1
tp744
a(I12
I33
I0
S'great'
p745
I1
tp746
a(I13
I100
F-0.5
S'poor'
p747
I1
tp748
a(I16
I7
F0.125
g684
I1
tp749
a(I17
I12
F1.0
S'good'
p750
I1
tp751
a(I17
I48
F-0.625
S'bad'
p752
I1
tp753
a(I17
I118
F0.125
g686
I1
tp754
a(I18
I51
F0.875
S'nice'
p755
I1
tp756
a(I18
I77
F-0.375
S'simple'
p757
I1
tp758
a(I20
I13
F-0.625
S'average'
p759
I1
tp760
a(I20
I28
F1.0
S'good'
p761
I1
tp762
a(I22
I26
I0
S'great'
p763
I1
tp764
a(I22
I141
F-0.5
S'poor'
p765
I1
tp766
a(I22
I141
F0.5
S'clear'
p767
I1
tp768
a(I22
I141
F0.5
S'clear'
p769
I1
tp770
a(I22
I192
F0.125
S'first'
p771
I1
tp772
a(I25
I91
F1.0
S'better'
p773
I1
tp774
a(I26
I3
I0
S'great'
p775
I1
tp776
a(I26
I92
F0.875
S'important'
p777
I1
tp778
a(I27
I38
F1.0
S'good'
p779
I1
tp780
a(I27
I39
F0.125
g688
I1
tp781
a(I27
I91
F-0.625
S'bad'
p782
I1
tp783
a(I27
I107
I0
S'useful'
p784
I1
tp785
a(I29
I22
F1.0
S'good'
p786
I1
tp787
a(I30
I27
I0
S'more'
p788
I1
tp789
a(I30
I39
I0
S'great'
p790
I1
tp791
a(I30
I69
F0.125
g690
I1
tp792
a(I31
I35
F1.0
S'good'
p793
I1
tp794
a(I32
I45
F-0.625
S'useless'
p795
I1
tp796
a(I33
I23
I0
S'great'
p797
I1
tp798
a(I34
I9
F1.0
S'enjoy'
p799
I1
tp800
a(I35
I14
F0.125
g692
I1
tp801
a(I37
I74
F1.0
S'good'
p802
I1
tp803
a(I39
I15
F-0.625
S'light'
p804
I1
tp805
a(I40
I36
F0.125
g696
I1
tp806
a(I40
I91
I0
g698
I1
tp807
a(I41
I35
I0
S'blah'
p808
I1
tp809
a(I43
I74
F-0.625
S'other'
p810
I1
tp811
a(I45
I23
I0
S'hot'
p812
I1
tp813
a(I46
I16
I0
S'integrated'
p814
I1
tp815
a(I46
I91
I0
S'pic'
p816
I1
tp817
a(I48
I12
F-0.375
S'black'
p818
I1
tp819
a(I48
I23
F0.125
g702
I1
tp820
a(I49
I52
F0.625
S'easy'
p821
I1
tp822
a(I49
I97
F1.0
S'best'
p823
I1
tp824
a(I50
I7
I0
S'great'
p825
I1
tp826
a(I50
I41
F0.125
g706
I1
tp827
a(I50
I116
F1.0
S'good'
p828
I1
tp829
a(I50
I182
I0
S'most'
p830
I1
tp831
as(g360
S'long'
p832
S'time'
p833
tp834
(lp835
(I22
I18
F-0.5
S'long'
p836
I12
tp837
a(I22
I18
I0
S'most'
p838
I12
tp839
a(I22
I113
F0.125
S'last'
p840
I12
tp841
a(I22
I113
F-0.5
S'long'
p842
I12
tp843
a(I25
I28
F-0.5
S'long'
p844
I12
tp845
a(I31
I20
F-0.5
S'long'
p846
I12
tp847
a(I37
I36
F-0.5
S'long'
p848
I12
tp849
a(I40
I89
F-0.5
S'long'
p850
I12
tp851
a(I47
I38
F-0.5
S'long'
p852
I12
tp853
a(I49
I18
F-0.5
S'long'
p854
I12
tp855
a(I50
I106
F-0.5
S'long'
p856
I12
tp857
as(S'leather'
p858
S'case'
p859
tp860
(lp861
(I1
I251
F-0.625
S'other'
p862
I0
tp863
a(I22
I229
I0
S'pouch'
p864
I0
tp865
a(I50
I38
F-0.5
S'open'
p866
I0
tp867
as(S'voice'
p868
tp869
(lp870
(I18
I6
I0
S'dial'
p871
I4
tp872
a(I18
I15
F-0.75
S'unreliable'
p873
I4
tp874
a(I22
I10
F-0.25
S'low'
p875
I4
tp876
a(I25
I84
F1.0
S'good'
p877
I4
tp878
a(I33
I0
I0
S'great'
p879
I4
tp880
a(I40
I102
I0
S'few'
p881
I4
tp882
a(I47
I53
I0
S'dial'
p883
I4
tp884
a(I49
I81
I0
S'least'
p885
I4
tp886
as(S'gon'
p887
S'na'
p888
tp889
(lp890
(I47
I6
F0.625
S'kind'
p891
I1
tp892
as(S'sim'
p893
S'card'
p894
tp895
(lp896
(I1
I255
F0.375
S'new'
p897
I0
tp898
a(I6
I233
F0.375
S'much'
p899
I0
tp900
a(I12
I22
I0
S'local'
p901
I0
tp902
a(I50
I145
I0
S'local'
p903
I0
tp904
as(S'long'
p905
S'battery'
p906
S'life'
p907
tp908
(lp909
(I6
I217
F-0.5
S'longest'
p910
I0
tp911
a(I33
I26
F-0.25
S'battery'
p912
I0
tp913
a(I50
I52
F-0.5
S'long'
p914
I0
tp915
a(I4
I6
F-0.125
g337
I1
tp916
a(I4
I6
F-0.25
g339
I1
tp917
a(I4
I6
F1.0
g341
I1
tp918
a(I6
I30
F-0.75
S'short'
p919
I1
tp920
a(I6
I217
F-0.5
g910
I1
tp921
a(I9
I72
F1.0
S'better'
p922
I1
tp923
a(I13
I34
F0.875
g343
I1
tp924
a(I18
I55
F1.0
g345
I1
tp925
a(I22
I28
I0
S'incredible'
p926
I1
tp927
a(I22
I124
F1.0
g347
I1
tp928
a(I22
I198
F0.75
S'beautiful'
p929
I1
tp930
a(I26
I2
F-0.625
S'other'
p931
I1
tp932
a(I27
I73
F-0.125
S'mine'
p933
I1
tp934
a(I27
I121
F-0.75
g349
I1
tp935
a(I30
I36
F1.0
g351
I1
tp936
a(I32
I43
F0.625
S'acceptable'
p937
I1
tp938
a(I33
I26
F-0.25
g912
I1
tp939
a(I34
I8
F-0.375
g353
I1
tp940
a(I34
I8
F1.0
g355
I1
tp941
a(I41
I34
F0.125
S'last'
p942
I1
tp943
a(I45
I12
I0
S'incredible'
p944
I1
tp945
a(I47
I49
I0
g357
I1
tp946
a(I50
I32
F-0.125
S'overall'
p947
I1
tp948
a(I50
I32
I0
S'great'
p949
I1
tp950
a(I50
I52
F-0.5
g914
I1
tp951
a(I50
I98
I0
S'great'
p952
I1
tp953
a(I1
I109
F0.5
S'personal'
p954
I19
tp955
a(I6
I217
F-0.5
g910
I19
tp956
a(I9
I72
F1.0
g922
I19
tp957
a(I15
I46
F0.625
S'easier'
p958
I19
tp959
a(I18
I55
F1.0
g345
I19
tp960
a(I22
I28
I0
g926
I19
tp961
a(I22
I124
F1.0
g347
I19
tp962
a(I22
I198
F0.75
g929
I19
tp963
a(I27
I73
F-0.125
g933
I19
tp964
a(I32
I43
F0.625
g937
I19
tp965
a(I33
I26
F-0.25
g912
I19
tp966
a(I41
I34
F0.125
g942
I19
tp967
a(I47
I49
I0
g357
I19
tp968
a(I50
I98
I0
g952
I19
tp969
a(I0
I13
F-0.375
S'small'
p970
I15
tp971
a(I0
I13
F-0.625
S'light'
p972
I15
tp973
a(I0
I14
I0
S'full'
p974
I15
tp975
a(I0
I14
F-0.5
S'less'
p976
I15
tp977
a(I1
I104
I0
S'great'
p978
I15
tp979
a(I2
I8
F0.25
S'powerful'
p980
I15
tp981
a(I4
I6
F-0.125
g337
I15
tp982
a(I4
I6
F-0.25
g339
I15
tp983
a(I4
I6
F1.0
g341
I15
tp984
a(I6
I30
F-0.75
g919
I15
tp985
a(I6
I165
F0.25
S'powerful'
p986
I15
tp987
a(I13
I34
F0.875
g343
I15
tp988
a(I15
I48
F0.625
S'acceptable'
p989
I15
tp990
a(I15
I48
I0
S'signal'
p991
I15
tp992
a(I26
I2
F-0.625
g931
I15
tp993
a(I26
I25
I0
S'close'
p994
I15
tp995
a(I27
I43
I0
S'empty'
p996
I15
tp997
a(I27
I121
F-0.75
g349
I15
tp998
a(I30
I36
F1.0
g351
I15
tp999
a(I34
I8
F-0.375
g353
I15
tp1000
a(I34
I8
F1.0
g355
I15
tp1001
a(I45
I12
I0
g944
I15
tp1002
a(I50
I32
F-0.125
g947
I15
tp1003
a(I50
I32
I0
g949
I15
tp1004
a(I50
I45
F0.375
S'new'
p1005
I15
tp1006
a(I50
I45
F0.375
S'new'
p1007
I15
tp1008
a(I50
I52
F-0.5
g914
I15
tp1009
as(S'buttons'
p1010
tp1011
(lp1012
(I2
I20
F-0.375
S'small'
p1013
I13
tp1014
a(I2
I20
F-0.75
S'difficult'
p1015
I13
tp1016
a(I6
I141
F-0.5
S'press'
p1017
I13
tp1018
a(I6
I212
I-100
S'teeny-tiny'
p1019
I13
tp1020
a(I9
I86
F0.875
S'nice'
p1021
I13
tp1022
a(I9
I86
F-0.375
S'small'
p1023
I13
tp1024
a(I14
I9
F-0.375
S'black'
p1025
I13
tp1026
a(I14
I10
F-0.625
S'other'
p1027
I13
tp1028
a(I17
I0
F0.5
S'touch'
p1029
I13
tp1030
a(I17
I15
F-0.375
S'small'
p1031
I13
tp1032
a(I17
I94
F-0.375
S'small'
p1033
I13
tp1034
a(I17
I112
F-0.375
S'small'
p1035
I13
tp1036
a(I18
I18
F-0.375
S'small'
p1037
I13
tp1038
a(I18
I18
F0.625
S'easy'
p1039
I13
tp1040
a(I18
I29
F0.625
S'easy'
p1041
I13
tp1042
a(I20
I17
F-0.75
S'wrong'
p1043
I13
tp1044
a(I20
I17
F0.125
S'able'
p1045
I13
tp1046
a(I26
I35
F-0.375
S'small'
p1047
I13
tp1048
a(I32
I86
F0.125
S'first'
p1049
I13
tp1050
a(I32
I86
F-0.375
S'small'
p1051
I13
tp1052
a(I36
I1
I0
S'many'
p1053
I13
tp1054
a(I41
I6
F-0.375
S'small'
p1055
I13
tp1056
a(I42
I2
F-0.375
S'small'
p1057
I13
tp1058
as(S'nokia'
p1059
tp1060
(lp1061
(I1
I58
F-0.375
S'smaller'
p1062
I0
tp1063
a(I1
I64
I0
S'big'
p1064
I0
tp1065
a(I2
I31
I0
S'old'
p1066
I0
tp1067
a(I2
I62
I0
S'old'
p1068
I0
tp1069
a(I6
I178
F0.375
S'new'
p1070
I0
tp1071
a(I6
I190
F-0.5
S'miss'
p1072
I0
tp1073
a(I22
I22
F0.875
S'nice'
p1074
I0
tp1075
a(I22
I22
F-0.375
S'simple'
p1076
I0
tp1077
a(I24
I28
I0
S'big'
p1078
I0
tp1079
a(I25
I14
F-0.625
S'other'
p1080
I0
tp1081
a(I26
I54
I0
S'old'
p1082
I0
tp1083
a(I27
I49
F0.5
S'comparable'
p1084
I0
tp1085
a(I30
I42
F-0.625
S'other'
p1086
I0
tp1087
a(I31
I38
I0
S'big'
p1088
I0
tp1089
a(I34
I43
I0
S'old'
p1090
I0
tp1091
a(I35
I6
F-0.375
S'smaller'
p1092
I0
tp1093
a(I50
I162
F0.375
S'new'
p1094
I0
tp1095
as(S'calls'
p1096
tp1097
(lp1098
(I1
I259
F0.625
S'easy'
p1099
I0
tp1100
a(I10
I3
F0.5
S'clear'
p1101
I0
tp1102
a(I14
I41
F0.125
S'able'
p1103
I0
tp1104
a(I14
I41
F-0.25
S'dropped'
p1105
I0
tp1106
a(I17
I17
F-0.625
S'light'
p1107
I0
tp1108
a(I17
I23
I0
S'more'
p1109
I0
tp1110
a(I18
I1
I0
S'many'
p1111
I0
tp1112
a(I20
I19
F0.625
S'easy'
p1113
I0
tp1114
a(I21
I3
I0
S'crystal'
p1115
I0
tp1116
a(I21
I3
F0.5
S'clear'
p1117
I0
tp1118
a(I22
I3
F-0.5
S'poor'
p1119
I0
tp1120
a(I23
I6
F-0.25
S'dropped'
p1121
I0
tp1122
a(I27
I55
F-0.5
S'heavy'
p1123
I0
tp1124
a(I27
I55
F-0.375
S'static'
p1125
I0
tp1126
a(I32
I59
F0.375
S'unintelligible'
p1127
I0
tp1128
a(I46
I56
F-0.5
S'long'
p1129
I0
tp1130
a(I49
I152
I0
S'most'
p1131
I0
tp1132
a(I50
I29
F-0.5
S'certain'
p1133
I0
tp1134
a(I50
I110
F-0.25
S'dropped'
p1135
I0
tp1136
a(I50
I141
F0.875
S'important'
p1137
I0
tp1138
as(S'amazon'
p1139
tp1140
(lp1141
(I1
I254
F-0.75
S'impossible'
p1142
I13
tp1143
a(I49
I44
F-0.5
S'sure'
p1144
I13
tp1145
as(S'quot'
p1146
tp1147
(lp1148
(I1
I100
F0.25
S'bigger'
p1149
I3
tp1150
a(I1
I117
I0
S'internal'
p1151
I3
tp1152
a(I9
I58
I0
S'many'
p1153
I3
tp1154
a(I9
I102
F0.125
S'equal'
p1155
I3
tp1156
a(I16
I9
F-0.375
S'small'
p1157
I3
tp1158
a(I16
I9
F0.25
S'sweet'
p1159
I3
tp1160
a(I20
I18
I0
S'standard'
p1161
I3
tp1162
a(I20
I19
I0
S'more'
p1163
I3
tp1164
a(I22
I247
F-0.625
S'fresh'
p1165
I3
tp1166
a(I22
I247
I0
S'signal'
p1167
I3
tp1168
a(I39
I7
I0
S'sensitive'
p1169
I3
tp1170
a(I49
I9
F0.375
S'reliable'
p1171
I3
tp1172
as(S'list'
p1173
S'of'
p1174
S'features'
p1175
tp1176
(lp1177
(I12
I0
F-0.5
S'long'
p1178
I0
tp1179
as(S'signal'
p1180
S'strength'
p1181
tp1182
(lp1183
(I0
I15
F-0.5
S'weak'
p1184
I0
tp1185
a(I6
I44
I0
S'same'
p1186
I0
tp1187
a(I6
I82
F-0.5
S'poor'
p1188
I0
tp1189
a(I6
I178
I0
S'signal'
p1190
I0
tp1191
a(I6
I178
F1.0
S'good'
p1192
I0
tp1193
a(I9
I74
I0
S'signal'
p1194
I0
tp1195
a(I17
I78
F0.75
S'due'
p1196
I0
tp1197
a(I18
I13
I0
S'full'
p1198
I0
tp1199
a(I25
I84
F-0.5
S'actual'
p1200
I0
tp1201
a(I25
I87
I0
S'signal'
p1202
I0
tp1203
a(I26
I15
I0
S'signal'
p1204
I0
tp1205
a(I27
I7
I0
S'signal'
p1206
I0
tp1207
a(I33
I47
F1.0
S'good'
p1208
I0
tp1209
a(I33
I50
F-0.25
S'low'
p1210
I0
tp1211
a(I36
I12
I0
S'signal'
p1212
I0
tp1213
a(I36
I22
I0
S'great'
p1214
I0
tp1215
a(I37
I25
I0
S'close'
p1216
I0
tp1217
a(I49
I5
F0.125
S'outside'
p1218
I0
tp1219
a(I49
I86
I0
S'signal'
p1220
I0
tp1221
a(I49
I86
F-0.875
S'worst'
p1222
I0
tp1223
as(S'1'
p1224
S'2'
p1225
S'bars'
p1226
tp1227
(lp1228
(I27
I114
F0.5
S'second'
p1229
I0
tp1230
a(I32
I60
F-0.5
S'less'
p1231
I0
tp1232
a(I1
I11
I0
S'full'
p1233
I10
tp1234
a(I12
I28
F0.5
S'clear'
p1235
I10
tp1236
a(I22
I214
I0
S'many'
p1237
I10
tp1238
a(I22
I215
I0
S'many'
p1239
I10
tp1240
a(I27
I114
F0.5
g1229
I10
tp1241
a(I27
I115
I0
S'more'
p1242
I10
tp1243
a(I32
I52
F-0.625
S'bad'
p1244
I10
tp1245
a(I32
I60
F-0.5
g1231
I10
tp1246
a(I40
I54
I0
S'least'
p1247
I10
tp1248
a(I49
I37
F0.125
S'able'
p1249
I10
tp1250
a(I49
I37
I0
S'signal'
p1251
I10
tp1252
as(S'to'
p1253
S'take'
p1254
S'pictures'
p1255
tp1256
(lp1257
(I12
I34
F0.125
S'able'
p1258
I0
tp1259
a(I12
I34
F1.0
S'good'
p1260
I0
tp1261
a(I27
I107
I0
S'quick'
p1262
I0
tp1263
a(I42
I7
F-0.5
S'poor'
p1264
I0
tp1265
a(I50
I127
I0
S'transfer'
p1266
I0
tp1267
a(I50
I127
I0
S'mobile'
p1268
I0
tp1269
as(g360
S'family'
p1270
S'plan'
p1271
tp1272
(lp1273
(I50
I209
F0.5
S'willing'
p1274
I0
tp1275
a(I50
I211
F0.75
S'give'
p1276
I0
tp1277
as(S'direct'
p1278
S'sunlight'
p1279
tp1280
(lp1281
(I4
I5
F-0.25
S'direct'
p1282
I0
tp1283
a(I6
I19
F-0.25
S'direct'
p1284
I0
tp1285
a(I15
I45
F-0.25
S'direct'
p1286
I0
tp1287
a(I26
I1
F-0.75
S'bright'
p1288
I0
tp1289
a(I40
I99
F-0.25
S'direct'
p1290
I0
tp1291
a(I42
I5
F-0.25
S'direct'
p1292
I0
tp1293
a(I46
I22
F-0.25
S'direct'
p1294
I0
tp1295
as(S'speed'
p1296
S'dial'
p1297
tp1298
(lp1299
(I15
I58
I0
S'dial'
p1300
I0
tp1301
as(S'get'
p1302
g360
S'signal'
p1303
tp1304
(lp1305
(I13
I95
F-0.5
S'weak'
p1306
I0
tp1307
a(I13
I95
F1.0
S'good'
p1308
I0
tp1309
a(I27
I52
I0
S'great'
p1310
I0
tp1311
a(I1
I10
F1.0
S'best'
p1312
I1
tp1313
a(I1
I169
F1.0
S'good'
p1314
I1
tp1315
a(I6
I226
I0
S'great'
p1316
I1
tp1317
a(I10
I46
F-0.5
S'weak'
p1318
I1
tp1319
a(I10
I46
F1.0
S'best'
p1320
I1
tp1321
a(I13
I95
F-0.5
g1306
I1
tp1322
a(I13
I95
F1.0
g1308
I1
tp1323
a(I25
I84
F-0.5
g1200
I1
tp1324
a(I27
I52
I0
g1310
I1
tp1325
a(I33
I47
F1.0
g1208
I1
tp1326
a(I33
I50
F-0.25
g1210
I1
tp1327
a(I46
I1
F-0.375
S'unstable'
p1328
I1
tp1329
a(I46
I58
F-0.5
S'weak'
p1330
I1
tp1331
a(I46
I58
I0
S'least'
p1332
I1
tp1333
a(I49
I5
F0.125
g1218
I1
tp1334
a(I50
I102
F-0.5
S'complaint'
p1335
I1
tp1336
a(I50
I102
I0
S'great'
p1337
I1
tp1338
as(S'color'
p1339
S'screen'
p1340
tp1341
(lp1342
(I0
I6
F-0.75
S'bright'
p1343
I1
tp1344
a(I1
I277
I0
S'big'
p1345
I1
tp1346
a(I9
I85
F0.875
S'nice'
p1347
I1
tp1348
a(I9
I85
I0
S'great'
p1349
I1
tp1350
a(I14
I56
F0.125
S'essential'
p1351
I1
tp1352
a(I15
I13
F0.875
S'nice'
p1353
I1
tp1354
a(I16
I5
F-0.75
S'little'
p1355
I1
tp1356
a(I19
I6
F-0.375
S'small'
p1357
I1
tp1358
a(I19
I6
I0
S'great'
p1359
I1
tp1360
a(I22
I221
I0
S'large'
p1361
I1
tp1362
a(I27
I90
F0.625
S'easy'
p1363
I1
tp1364
a(I47
I6
I0
S'full'
p1365
I1
tp1366
as(S'bluetooth'
p1367
S'headset'
p1368
tp1369
(lp1370
(I0
I19
I0
S'cool'
p1371
I0
tp1372
a(I1
I247
F-0.625
S'free'
p1373
I0
tp1374
a(I6
I67
F0.625
S'easy'
p1375
I0
tp1376
a(I14
I132
I0
S'great'
p1377
I0
tp1378
a(I17
I98
I0
S'rebate'
p1379
I0
tp1380
a(I20
I40
I0
S'optional'
p1381
I0
tp1382
a(I22
I174
F-0.625
S'free'
p1383
I0
tp1384
a(I23
I26
F0.75
S'worth'
p1385
I0
tp1386
a(I33
I6
F-0.625
S'free'
p1387
I0
tp1388
a(I37
I51
F-0.625
S'free'
p1389
I0
tp1390
a(I0
I19
I0
g1371
I0
tp1391
a(I14
I85
I0
S'real'
p1392
I0
tp1393
a(I14
I90
F-0.625
S'useless'
p1394
I0
tp1395
a(I23
I26
F0.75
g1385
I0
tp1396
a(I37
I51
F-0.625
g1389
I0
tp1397
a(I39
I9
F0.25
S'original'
p1398
I0
tp1399
a(I47
I7
F-0.625
S'free'
p1400
I0
tp1401
a(I1
I166
I0
S'cool'
p1402
I3
tp1403
a(I1
I245
F0.125
S'able'
p1404
I3
tp1405
a(I1
I247
F-0.625
g1373
I3
tp1406
a(I1
I276
F-0.625
S'other'
p1407
I3
tp1408
a(I2
I63
F-0.625
S'other'
p1409
I3
tp1410
a(I6
I15
I0
S'only'
p1411
I3
tp1412
a(I6
I15
F0.5
S'compatible'
p1413
I3
tp1414
a(I6
I67
F0.625
g1375
I3
tp1415
a(I6
I156
I0
S'great'
p1416
I3
tp1417
a(I9
I70
I0
S'generic'
p1418
I3
tp1419
a(I9
I73
F1.0
S'better'
p1420
I3
tp1421
a(I13
I17
F0.875
S'nice'
p1422
I3
tp1423
a(I13
I17
I0
S'add-on'
p1424
I3
tp1425
a(I14
I36
F0.125
S'able'
p1426
I3
tp1427
a(I14
I54
F-0.625
S'other'
p1428
I3
tp1429
a(I14
I132
I0
g1377
I3
tp1430
a(I16
I5
F-0.25
S'modern'
p1431
I3
tp1432
a(I17
I98
I0
g1379
I3
tp1433
a(I20
I40
I0
g1381
I3
tp1434
a(I22
I8
F0.375
S'reliable'
p1435
I3
tp1436
a(I22
I38
F-0.625
S'other'
p1437
I3
tp1438
a(I22
I174
F-0.625
g1383
I3
tp1439
a(I24
I15
F0.625
S'convenient'
p1440
I3
tp1441
a(I26
I85
F0.625
S'easy'
p1442
I3
tp1443
a(I32
I28
F0.75
S'worth'
p1444
I3
tp1445
a(I33
I6
F-0.625
g1387
I3
tp1446
a(I42
I27
I0
S'faster'
p1447
I3
tp1448
a(I46
I16
F-0.625
S'other'
p1449
I3
tp1450
a(I46
I46
F-0.625
S'other'
p1451
I3
tp1452
a(I46
I48
F-0.625
S'other'
p1453
I3
tp1454
a(I50
I188
F0.125
S'capable'
p1455
I3
tp1456
as(S'to'
p1457
S'see'
p1458
S'screen'
p1459
tp1460
(lp1461
(I3
I1
F0.5
S'true'
p1462
I0
tp1463
a(I3
I1
F-0.875
S'hard'
p1464
I0
tp1465
a(I8
I24
F-0.625
S'euphemistic'
p1466
I0
tp1467
a(I10
I52
I0
S'large'
p1468
I0
tp1469
a(I10
I52
F0.625
S'easy'
p1470
I0
tp1471
a(I12
I35
F0.5
S'second'
p1472
I0
tp1473
a(I12
I35
F0.125
S'able'
p1474
I0
tp1475
a(I20
I37
I0
S'sensitive'
p1476
I0
tp1477
a(I20
I40
I0
S'more'
p1478
I0
tp1479
a(I20
I40
F0.5
S'hi-tech'
p1480
I0
tp1481
a(I20
I40
F0.5
S'touch'
p1482
I0
tp1483
a(I26
I1
F-0.75
S'difficult'
p1484
I0
tp1485
a(I27
I90
F0.625
g1363
I0
tp1486
a(I34
I16
F-0.75
S'impossible'
p1487
I0
tp1488
a(I40
I4
F-0.75
S'bright'
p1489
I0
tp1490
a(I40
I99
F-0.875
S'hard'
p1491
I0
tp1492
a(I50
I47
F-0.75
S'impossible'
p1493
I0
tp1494
as(S'customer'
p1495
S'service'
p1496
tp1497
(lp1498
(I9
I13
F0.125
S'first'
p1499
I3
tp1500
a(I9
I20
F-0.5
S'sure'
p1501
I3
tp1502
a(I9
I134
F-0.625
g434
I3
tp1503
a(I13
I105
F1.0
S'good'
p1504
I3
tp1505
a(I27
I108
F1.0
S'good'
p1506
I3
tp1507
a(I32
I15
F-0.625
S'bad'
p1508
I3
tp1509
a(I38
I2
F-0.875
g466
I3
tp1510
a(I49
I52
F1.0
g397
I3
tp1511
a(I49
I134
F0.25
g401
I3
tp1512
a(I50
I248
F-0.75
S'worse'
p1513
I3
tp1514
a(I9
I13
F0.125
g1499
I11
tp1515
a(I9
I20
F-0.5
g1501
I11
tp1516
a(I13
I105
F1.0
g1504
I11
tp1517
a(I27
I108
F1.0
g1506
I11
tp1518
a(I32
I15
F-0.625
g1508
I11
tp1519
a(I50
I248
F-0.75
g1513
I11
tp1520
as(S'great'
p1521
S'battery'
p1522
S'life'
p1523
tp1524
(lp1525
(I6
I217
F-0.5
g910
I0
tp1526
a(I50
I32
F-0.125
g947
I0
tp1527
a(I50
I32
I0
g949
I0
tp1528
a(I50
I98
I0
g952
I0
tp1529
as(S'form'
p1530
S'factor'
p1531
tp1532
(lp1533
(I50
I33
I0
S'great'
p1534
I1
tp1535
as(g360
S'great'
p1536
S'deal'
p1537
tp1538
(lp1539
(I6
I156
F1.0
S'good'
p1540
I9
tp1541
a(I17
I98
I0
S'great'
p1542
I9
tp1543
a(I23
I29
I0
S'great'
p1544
I9
tp1545
a(I34
I44
I0
S'great'
p1546
I9
tp1547
a(I36
I7
I0
S'great'
p1548
I9
tp1549
a(I49
I54
F1.0
S'good'
p1550
I9
tp1551
a(I49
I54
F0.125
S'first'
p1552
I9
tp1553
as(S'external'
p1554
S'antenna'
p1555
tp1556
(lp1557
(I0
I17
I0
S'external'
p1558
I1
tp1559
a(I22
I127
F0.5
S'strong'
p1560
I1
tp1561
a(I40
I5
I0
S'external'
p1562
I1
tp1563
a(I45
I14
I0
S'external'
p1564
I1
tp1565
as(S'text'
p1566
S'messaging'
p1567
tp1568
(lp1569
(I6
I66
F0.625
S'easy'
p1570
I0
tp1571
a(I27
I51
F0.625
S'easy'
p1572
I0
tp1573
a(I40
I89
I0
S'text'
p1574
I0
tp1575
a(I48
I5
F0.625
S'easy'
p1576
I0
tp1577
a(I49
I110
I0
S'fast'
p1578
I0
tp1579
a(I49
I110
F0.625
S'easy'
p1580
I0
tp1581
a(I27
I51
F0.625
g1572
I18
tp1582
a(I48
I5
F0.625
g1576
I18
tp1583
a(I49
I110
I0
g1578
I18
tp1584
a(I49
I110
F0.625
g1580
I18
tp1585
as(S'sound'
p1586
S'quality'
p1587
tp1588
(lp1589
(I2
I21
F0.5
S'so-so'
p1590
I0
tp1591
a(I6
I233
F-0.5
S'poor'
p1592
I0
tp1593
a(I9
I7
F1.0
S'good'
p1594
I0
tp1595
a(I9
I118
F1.0
S'good'
p1596
I0
tp1597
a(I12
I39
F1.0
S'good'
p1598
I0
tp1599
a(I22
I47
F1.0
S'good'
p1600
I0
tp1601
a(I22
I143
I0
S'high'
p1602
I0
tp1603
a(I33
I50
I0
S'more'
p1604
I0
tp1605
a(I33
I50
F1.0
S'good'
p1606
I0
tp1607
a(I47
I18
F1.0
S'good'
p1608
I0
tp1609
a(I50
I33
F1.0
S'good'
p1610
I0
tp1611
as.