(dp0
(S'r'
p1
S'port'
p2
tp3
(lp4
(I17
I6
F-0.75
S'sufficient'
p5
tp6
a(I111
I14
F0.625
S'easy'
p7
tp8
a(I129
I6
I0
S'great'
p9
tp10
a(I129
I6
I0
S'infrared'
p11
tp12
a(I135
I2
I0
S'great'
p13
tp14
as(S'external'
p15
S'display'
p16
tp17
(lp18
(I3
I14
I0
S'external'
p19
tp20
a(I26
I4
I0
S'external'
p21
tp22
a(I64
I6
I0
S'external'
p23
tp24
a(I64
I6
I0
S'blue'
p25
tp26
a(I64
I6
I0
S'organic'
p27
tp28
a(I72
I5
I0
S'external'
p29
tp30
a(I72
I5
F-0.75
S'bright'
p31
tp32
a(I72
I5
F0.625
S'easy'
p33
tp34
a(I73
I22
I0
S'external'
p35
tp36
a(I90
I3
I0
S'external'
p37
tp38
a(I90
I3
F-0.5
S'open'
p39
tp40
a(I90
I9
I0
S'external'
p41
tp42
a(I90
I10
I0
S'external'
p43
tp44
a(I121
I6
I0
S'external'
p45
tp46
a(I136
I0
I0
S'external'
p47
tp48
as(S'nice'
p49
tp50
(lp51
(I80
I4
I0
S'real'
p52
tp53
as(S'antenna'
p54
tp55
(lp56
(I9
I3
I0
S'internal'
p57
tp58
a(I15
I3
I0
S'external'
p59
tp60
a(I15
I3
F0.875
S'attractive'
p61
tp62
a(I22
I3
I0
S'internal'
p63
tp64
a(I26
I15
I0
S'great'
p65
tp66
a(I27
I1
I0
S'external'
p67
tp68
a(I33
I2
I0
S'internal'
p69
tp70
a(I44
I6
F-0.75
S'worse'
p71
tp72
a(I44
I6
I0
S'internal'
p73
tp74
a(I47
I5
I0
S'external'
p75
tp76
a(I49
I14
I0
S'external'
p77
tp78
a(I49
I14
F-0.375
S'small'
p79
tp80
a(I49
I14
F0.875
S'attractive'
p81
tp82
a(I52
I1
I0
S'internal'
p83
tp84
a(I52
I1
I0
S'most'
p85
tp86
a(I64
I1
I0
S'internal'
p87
tp88
a(I75
I1
I0
S'internal'
p89
tp90
a(I75
I1
F0.375
S'much'
p91
tp92
a(I77
I9
I0
S'internal'
p93
tp94
a(I83
I5
I0
S'external'
p95
tp96
a(I90
I11
I0
S'external'
p97
tp98
a(I97
I26
F-0.375
S'small'
p99
tp100
a(I97
I26
I0
S'external'
p101
tp102
a(I112
I4
I0
S'internal'
p103
tp104
a(I121
I6
I0
S'external'
p105
tp106
a(I131
I0
I0
S'internal'
p107
tp108
a(I144
I6
F0.375
S'exterior'
p109
tp110
as(S'quality'
p111
tp112
(lp113
(I4
I0
F1.0
S'better'
p114
tp115
a(I11
I0
F1.0
S'best'
p116
tp117
a(I11
I0
I0
S'signal'
p118
tp119
a(I11
I2
I0
S'signal'
p120
tp121
a(I18
I5
I0
S'high'
p122
tp123
a(I26
I14
F1.0
S'good'
p124
tp125
a(I28
I0
F1.0
S'best'
p126
tp127
a(I28
I4
F1.0
S'best'
p128
tp129
a(I33
I1
F0.625
S'perfect'
p130
tp131
a(I35
I5
F-0.875
S'awful'
p132
tp133
a(I35
I5
I0
S'least'
p134
tp135
a(I45
I8
F1.0
S'good'
p136
tp137
a(I51
I5
I0
S'high'
p138
tp139
a(I52
I10
F1.0
S'best'
p140
tp141
a(I52
I10
F-0.5
S'fun'
p142
tp143
a(I64
I3
I0
S'questionable'
p144
tp145
a(I69
I6
F1.0
S'good'
p146
tp147
a(I70
I9
F0.25
S'original'
p148
tp149
a(I77
I22
I0
S'normal'
p150
tp151
a(I92
I3
F1.0
S'good'
p152
tp153
a(I103
I6
F-0.5
S'poor'
p154
tp155
a(I110
I0
F1.0
S'good'
p156
tp157
a(I116
I2
I0
S'high'
p158
tp159
a(I116
I7
F-0.75
S'sufficient'
p160
tp161
a(I120
I3
F1.0
S'good'
p162
tp163
a(I120
I3
I0
S'most'
p164
tp165
a(I129
I0
I0
S'same'
p166
tp167
a(I134
I14
I0
S'pic'
p168
tp169
a(I134
I14
F1.0
S'good'
p170
tp171
a(I149
I5
F1.0
S'best'
p172
tp173
a(I150
I7
F1.0
S'better'
p174
tp175
as(S'digital'
p176
tp177
(lp178
(I77
I24
F1.0
S'good'
p179
tp180
as(S'digital'
p181
S'cameras'
p182
tp183
(lp184
(I41
I9
I0
S'many'
p185
tp186
a(I41
I9
F0.125
S'digital'
p187
tp188
a(I77
I24
F1.0
g179
tp189
a(I92
I10
F0.125
S'digital'
p190
tp191
as(S'a'
p192
S'known'
p193
S'problem'
p194
tp195
(lp196
(I102
I3
F0.125
S'able'
p197
tp198
a(I102
I8
F0.5
S'willing'
p199
tp200
as(S'sound'
p201
tp202
(lp203
(I3
I18
F0.25
S'stellar'
p204
tp205
a(I4
I0
F1.0
S'good'
p206
tp207
a(I5
I0
F0.5
S'clear'
p208
tp209
a(I51
I2
F0.5
S'clear'
p210
tp211
a(I87
I13
F1.0
S'best'
p212
tp213
as(S'excellent'
p214
tp215
(lp216
(I126
I15
F0.5
S'clear'
p217
tp218
a(I126
I15
F0.25
S'sharp'
p219
tp220
as(S'side'
p221
tp222
(lp223
(I22
I3
F-0.5
S'weak'
p224
tp225
a(I79
I9
F0.375
S'new'
p226
tp227
a(I112
I10
F-0.375
S'top'
p228
tp229
as(S'ringtones'
p230
tp231
(lp232
(I10
I19
I0
S'normal'
p233
tp234
a(I26
I12
F0.625
S'musical'
p235
tp236
a(I33
I3
F0.375
S'loud'
p237
tp238
a(I42
I11
I0
S'juvenile'
p239
tp240
a(I49
I10
I0
S'most'
p241
tp242
a(I49
I10
F-0.625
S'free'
p243
tp244
a(I52
I7
F-0.625
S'intolerable'
p245
tp246
a(I59
I18
I0
S'specific'
p247
tp248
a(I77
I35
F0.625
S'sophisticated'
p249
tp250
a(I77
I35
F0.875
S'important'
p251
tp252
a(I78
I2
F0.375
S'polyphonic'
p253
tp254
a(I80
I2
F0.375
S'tight'
p255
tp256
a(I107
I0
I0
S'different'
p257
tp258
a(I107
I0
F-0.5
S'regular'
p259
tp260
a(I116
I4
F0.5
S'aggressive'
p261
tp262
a(I119
I6
F0.375
S'polyphonic'
p263
tp264
a(I127
I6
F-0.625
S'free'
p265
tp266
a(I129
I7
F0.375
S'new'
p267
tp268
as(S'and'
p269
S'battery'
p270
S'life'
p271
tp272
(lp273
(I7
I2
F0.125
S'last'
p274
tp275
a(I8
I0
F1.0
S'good'
p276
tp277
a(I14
I1
F-0.75
S'short'
p278
tp279
a(I38
I2
F-0.25
S'low'
p280
tp281
a(I44
I11
F-0.25
S'battery'
p282
tp283
a(I53
I1
F-0.5
S'poor'
p284
tp285
a(I53
I2
F-0.5
S'poor'
p286
tp287
a(I53
I2
F0.75
S'due'
p288
tp289
a(I58
I2
F-0.75
S'short'
p290
tp291
a(I68
I0
F0.5
S'true'
p292
tp293
a(I70
I9
F-0.625
S'bad'
p294
tp295
a(I97
I27
F-0.25
S'battery'
p296
tp297
a(I123
I0
F-0.75
S'short'
p298
tp299
a(I123
I0
F0.375
S'extra'
p300
tp301
as(S'caller'
p302
S'id'
p303
tp304
(lp305
(I43
I0
I0
S'individual'
p306
tp307
a(I59
I16
I0
S'caller'
p308
tp309
a(I83
I22
I0
S'external'
p310
tp311
a(I83
I22
F-0.75
S'bright'
p312
tp313
a(I100
I8
I0
S'caller'
p314
tp315
a(I119
I5
I0
S'cool'
p316
tp317
as(S'nokia'
p318
tp319
(lp320
(I70
I0
I0
S'old'
p321
tp322
a(I77
I8
F-0.375
S'top'
p323
tp324
a(I86
I6
F-0.625
S'other'
p325
tp326
a(I86
I6
F-0.125
S'former'
p327
tp328
a(I121
I6
F0.375
S'early'
p329
tp330
as(S'quot'
p331
tp332
(lp333
(I18
I14
F-0.5
S'regular'
p334
tp335
a(I18
I20
I0
S'hear'
p336
tp337
a(I48
I3
F0.5
S'slick'
p338
tp339
a(I112
I7
F-0.125
S'minimum'
p340
tp341
a(I112
I7
F0.625
S'correct'
p342
tp343
a(I116
I3
I0
S'most'
p344
tp345
a(I126
I15
I0
S'normal'
p346
tp347
as(S'charge'
p348
tp349
(lp350
(I49
I1
F0.125
S'first'
p351
tp352
a(I49
I2
I0
S'third'
p353
tp354
a(I52
I4
F-0.5
S'weak'
p355
tp356
a(I53
I1
I0
S'full'
p357
tp358
a(I53
I2
I0
S'full'
p359
tp360
a(I56
I1
I0
S'full'
p361
tp362
a(I56
I6
I0
S'full'
p363
tp364
a(I60
I3
F-0.375
S'simple'
p365
tp366
a(I87
I2
I0
S'full'
p367
tp368
a(I142
I1
I0
S'full'
p369
tp370
a(I142
I2
F1.0
S'better'
p371
tp372
as(S'picture'
p373
tp374
(lp375
(I10
I1
F0.5
S'possible'
p376
tp377
a(I41
I6
F-0.5
S'regular'
p378
tp379
a(I53
I0
I0
S'particular'
p380
tp381
a(I71
I1
F0.75
S'beautiful'
p382
tp383
a(I134
I12
F-0.875
S'hard'
p384
tp385
as(S'customer'
p386
S'service'
p387
tp388
(lp389
(I10
I15
F1.0
S'good'
p390
tp391
a(I87
I20
F1.0
S'good'
p392
tp393
a(I87
I22
I0
S'great'
p394
tp395
a(I107
I0
F1.0
S'good'
p396
tp397
as(S't'
p398
S'mobile'
p399
S'store'
p400
tp401
(lp402
(I61
I1
F1.0
S'best'
p403
tp404
a(I83
I24
F0.125
S'able'
p405
tp406
as(S'sound'
p407
S'quality'
p408
tp409
(lp410
(I3
I18
F0.25
g204
tp411
a(I4
I0
F1.0
g206
tp412
a(I4
I0
F1.0
g114
tp413
a(I5
I0
F0.5
g208
tp414
a(I11
I2
I0
g120
tp415
a(I26
I14
F1.0
g124
tp416
as(S'problem'
p417
tp418
(lp419
(I3
I20
I0
S'only'
p420
tp421
a(I10
I12
F-0.625
S'free'
p422
tp423
a(I19
I3
I0
S'same'
p424
tp425
a(I21
I0
F0.5
S'second'
p426
tp427
a(I21
I0
I0
S'same'
p428
tp429
a(I70
I14
I0
S'big'
p430
tp431
a(I81
I0
F-0.625
S'other'
p432
tp433
a(I87
I1
I0
S'real'
p434
tp435
a(I88
I3
I0
S'same'
p436
tp437
a(I88
I4
I0
S'same'
p438
tp439
a(I99
I7
I0
S'common'
p440
tp441
a(I101
I3
F0.5
S'second'
p442
tp443
a(I101
I3
F-0.5
S'poor'
p444
tp445
a(I102
I1
F0.625
S'major'
p446
tp447
a(I102
I3
F0.125
g197
tp448
a(I102
I6
F0.5
S'second'
p449
tp450
a(I102
I8
F0.5
g199
tp451
a(I108
I2
I0
S'same'
p452
tp453
a(I124
I7
I0
S'only'
p454
tp455
a(I125
I1
I0
S'same'
p456
tp457
a(I127
I2
I0
S'same'
p458
tp459
a(I138
I7
F-0.75
S'difficult'
p460
tp461
a(I138
I7
I0
S'common'
p462
tp463
a(I141
I3
I0
S'common'
p464
tp465
a(I141
I7
I0
S'common'
p466
tp467
as(S'text'
p468
tp469
(lp470
(I29
I2
F-0.75
S'unable'
p471
tp472
a(I41
I6
I0
S'typed'
p473
tp474
a(I41
I6
F0.125
S'able'
p475
tp476
a(I97
I15
F0.125
S'first'
p477
tp478
a(I116
I9
I0
S'brief'
p479
tp480
a(I134
I14
I0
S'full'
p481
tp482
a(I134
I14
F0.125
S'able'
p483
tp484
a(I134
I14
I0
S'quick'
p485
tp486
as(S'price'
p487
tp488
(lp489
(I1
I0
F1.0
S'better'
p490
tp491
a(I10
I1
F-0.625
S'free'
p492
tp493
a(I39
I5
F0.75
S'worth'
p494
tp495
a(I72
I9
I0
S'great'
p496
tp497
a(I74
I11
I0
S'full'
p498
tp499
a(I77
I2
F1.0
S'good'
p500
tp501
a(I83
I24
I0
S'same'
p502
tp503
a(I102
I14
I0
S'retail'
p504
tp505
a(I117
I0
F0.75
S'worth'
p506
tp507
a(I144
I21
F0.75
S'worth'
p508
tp509
as(S'service'
p510
tp511
(lp512
(I10
I15
F1.0
g390
tp513
a(I29
I5
F0.75
S'due'
p514
tp515
a(I29
I5
F-0.5
S'poor'
p516
tp517
a(I51
I4
F-0.75
S'dark'
p518
tp519
a(I55
I10
I0
S'great'
p520
tp521
a(I87
I20
F1.0
g392
tp522
a(I87
I22
I0
g394
tp523
a(I97
I20
I0
S'dial'
p524
tp525
a(I106
I5
I0
S'great'
p526
tp527
a(I107
I0
F1.0
g396
tp528
a(I134
I23
I0
S'most'
p529
tp530
a(I134
I23
F-0.75
S'likely'
p531
tp532
a(I144
I7
F-0.625
S'light'
p533
tp534
a(I144
I10
F-0.625
S'other'
p535
tp536
as(S'data'
p537
S'cable'
p538
tp539
(lp540
(I30
I5
I0
S'cable'
p541
tp542
a(I49
I5
I0
S'cable'
p543
tp544
a(I73
I23
I0
S'cable'
p545
tp546
a(I92
I13
I0
S'cable'
p547
tp548
a(I129
I8
I0
S'cable'
p549
tp550
as(S'scan'
p551
S'lines'
p552
tp553
(lp554
(I13
I1
F0.375
S'scan'
p555
tp556
a(I111
I2
F0.375
S'scan'
p557
tp558
a(I111
I3
F0.375
S'scan'
p559
tp560
a(I111
I5
F0.375
S'scan'
p561
tp562
a(I111
I6
F0.375
S'scan'
p563
tp564
a(I111
I6
F0.75
S'due'
p565
tp566
as(S'things'
p567
tp568
(lp569
(I10
I18
F1.0
S'better'
p570
tp571
a(I26
I23
F0.375
S'new'
p572
tp573
a(I27
I1
F-0.75
S'comfortable'
p574
tp575
a(I27
I1
F-0.625
S'bad'
p576
tp577
a(I44
I11
I0
S'only'
p578
tp579
a(I52
I4
F0.375
S'new'
p580
tp581
a(I73
I7
I0
S'few'
p582
tp583
a(I76
I5
F-0.75
S'minor'
p584
tp585
a(I97
I2
F0.125
S'first'
p586
tp587
a(I124
I6
I0
S'different'
p588
tp589
a(I130
I0
F0.375
S'new'
p590
tp591
a(I134
I24
F-0.75
S'wrong'
p592
tp593
as(S'features'
p594
tp595
(lp596
(I13
I2
I0
S'great'
p597
tp598
a(I13
I2
F1.0
S'good'
p599
tp600
a(I13
I6
I0
S'great'
p601
tp602
a(I26
I1
I0
S'few'
p603
tp604
a(I26
I21
F0.5
S'desirable'
p605
tp606
a(I26
I21
F-0.25
S'cheaper'
p607
tp608
a(I27
I1
F1.0
S'good'
p609
tp610
a(I27
I5
F0.125
S'practical'
p611
tp612
a(I32
I3
F0.125
S'typical'
p613
tp614
a(I38
I1
F0.875
S'nice'
p615
tp616
a(I46
I0
F0.875
S'nice'
p617
tp618
a(I58
I1
F1.0
S'better'
p619
tp620
a(I58
I1
I0
S'useful'
p621
tp622
a(I60
I1
I0
S'great'
p623
tp624
a(I60
I1
I0
S'such'
p625
tp626
a(I70
I2
I0
S'such'
p627
tp628
a(I72
I4
F0.25
S'favorite'
p629
tp630
a(I73
I3
I0
S'more'
p631
tp632
a(I76
I1
I0
S'great'
p633
tp634
a(I76
I2
I0
S'basic'
p635
tp636
a(I86
I0
I0
S'cool'
p637
tp638
a(I90
I7
F0.125
S'usual'
p639
tp640
a(I93
I3
I0
S'many'
p641
tp642
a(I97
I2
I0
S'such'
p643
tp644
a(I97
I3
F0.125
S'key'
p645
tp646
a(I97
I3
I0
S'such'
p647
tp648
a(I102
I15
F0.5
S'comparable'
p649
tp650
a(I114
I0
F1.0
S'good'
p651
tp652
a(I128
I7
I0
S'such'
p653
tp654
a(I134
I23
F0.25
S'used'
p655
tp656
a(I138
I3
F0.375
S'extra'
p657
tp658
a(I138
I3
F0.875
S'nice'
p659
tp660
a(I145
I2
F0.625
S'easy'
p661
tp662
a(I148
I1
I0
S'many'
p663
tp664
a(I149
I4
F-0.375
S'small'
p665
tp666
a(I149
I4
I0
S'full'
p667
tp668
as(S'flash'
p669
tp670
(lp671
(I15
I4
F0.875
S'nice'
p672
tp673
a(I36
I1
I0
S'great'
p674
tp675
a(I107
I0
F-0.5
S'long'
p676
tp677
a(I144
I6
I0
S'most'
p678
tp679
a(I144
I6
F-0.75
S'bright'
p680
tp681
as(g192
S'long'
p682
S'time'
p683
tp684
(lp685
(I70
I0
F-0.5
S'long'
p686
tp687
a(I70
I14
F-0.5
S'long'
p688
tp689
a(I83
I21
F-0.5
S'long'
p690
tp691
a(I107
I0
F0.5
S'second'
p692
tp693
a(I149
I1
F-0.5
S'long'
p694
tp695
as(S'voice'
p696
tp697
(lp698
(I26
I2
F0.125
S'first'
p699
tp700
a(I59
I18
I0
S'close'
p701
tp702
a(I97
I6
I0
S'such'
p703
tp704
a(I97
I15
F0.375
S'new'
p705
tp706
a(I97
I18
I0
S'next'
p707
tp708
a(I97
I18
I0
S'dial'
p709
tp710
a(I97
I23
F0.375
S'new'
p711
tp712
as(S'nternal'
p713
S'antenna'
p714
tp715
(lp716
(I9
I3
I0
g57
tp717
a(I22
I3
I0
g63
tp718
a(I26
I15
I0
g65
tp719
a(I33
I2
I0
g69
tp720
a(I44
I6
F-0.75
g71
tp721
a(I44
I6
I0
g73
tp722
a(I52
I1
I0
g83
tp723
a(I52
I1
I0
g85
tp724
a(I64
I1
I0
g87
tp725
a(I75
I1
I0
g89
tp726
a(I75
I1
F0.375
g91
tp727
a(I77
I9
I0
g93
tp728
a(I112
I4
I0
g103
tp729
a(I131
I0
I0
g107
tp730
as(S'thing'
p731
tp732
(lp733
(I1
I3
I0
S'only'
p734
tp735
a(I1
I3
F-0.625
S'other'
p736
tp737
a(I10
I10
I0
S'same'
p738
tp739
a(I10
I10
F0.5
S'true'
p740
tp741
a(I24
I5
I0
S'only'
p742
tp743
a(I35
I4
I0
S'only'
p744
tp745
a(I56
I7
I0
S'great'
p746
tp747
a(I68
I0
F0.125
S'last'
p748
tp749
a(I76
I5
F1.0
S'best'
p750
tp751
a(I85
I15
F0.875
S'important'
p752
tp753
a(I90
I11
I0
S'great'
p754
tp755
a(I97
I3
F-0.5
S'power'
p756
tp757
a(I99
I3
I0
S'same'
p758
tp759
a(I120
I1
I0
S'only'
p760
tp761
a(I121
I4
I0
S'great'
p762
tp763
a(I128
I4
F0.875
S'important'
p764
tp765
a(I133
I3
I0
S'only'
p766
tp767
a(I133
I3
F1.0
S'good'
p768
tp769
a(I147
I1
F1.0
S'best'
p770
tp771
as(S'signal'
p772
S'strength'
p773
tp774
(lp775
(I3
I15
I0
S'signal'
p776
tp777
a(I41
I4
I0
S'signal'
p778
tp779
a(I52
I8
I0
S'signal'
p780
tp781
a(I64
I7
I0
S'signal'
p782
tp783
a(I85
I4
I0
S'signal'
p784
tp785
a(I85
I9
I0
S'signal'
p786
tp787
a(I97
I2
I0
S'signal'
p788
tp789
as(S're'
p790
S'no'
p791
S'way'
p792
tp793
(lp794
(I97
I5
F-0.375
S'disable'
p795
tp796
a(I129
I10
F-0.75
S'short'
p797
tp798
a(I150
I2
I0
S'only'
p799
tp800
as(S'to'
p801
S'take'
p802
S'pictures'
p803
tp804
(lp805
(I27
I1
F1.0
S'better'
p806
tp807
a(I37
I2
F1.0
S'better'
p808
tp809
a(I49
I3
F-0.25
S'lid'
p810
tp811
a(I85
I7
I0
S'many'
p812
tp813
a(I90
I4
F0.125
S'able'
p814
tp815
a(I100
I8
I0
S'caller'
p816
tp817
a(I100
I8
F0.125
S'able'
p818
tp819
a(I142
I3
I0
S'many'
p820
tp821
as(S'lcd'
p822
S'screen'
p823
tp824
(lp825
(I15
I8
F0.5
S'clearer'
p826
tp827
a(I28
I0
F0.125
S'first'
p828
tp829
a(I51
I4
I0
S'external'
p830
tp831
a(I51
I4
I0
S'useful'
p832
tp833
a(I67
I1
I0
S'great'
p834
tp835
a(I104
I7
F0.5
S'clear'
p836
tp837
a(I112
I4
F-0.75
S'bright'
p838
tp839
as(S'port'
p840
tp841
(lp842
(I17
I6
F-0.75
g5
tp843
a(I111
I14
F0.625
g7
tp844
a(I129
I6
I0
g9
tp845
a(I129
I6
I0
g11
tp846
a(I135
I2
I0
g13
tp847
as(S'hours'
p848
tp849
(lp850
(I54
I6
I0
S'many'
p851
tp852
a(I81
I0
F0.625
S'easy'
p853
tp854
as(S'battery'
p855
S'life'
p856
tp857
(lp858
(I4
I1
F-0.5
S'weak'
p859
tp860
a(I7
I2
F0.125
g274
tp861
a(I8
I0
F1.0
g276
tp862
a(I14
I1
F-0.75
g278
tp863
a(I18
I11
F1.0
S'good'
p864
tp865
a(I38
I2
F-0.25
g280
tp866
a(I44
I11
F-0.25
g282
tp867
a(I45
I6
F-0.75
S'short'
p868
tp869
a(I53
I1
F-0.5
g284
tp870
a(I53
I2
F-0.5
g286
tp871
a(I53
I2
F0.75
g288
tp872
a(I57
I0
I0
S'same'
p873
tp874
a(I58
I2
F-0.75
g290
tp875
a(I60
I2
I0
S'extensive'
p876
tp877
a(I64
I5
F0.875
S'happy'
p878
tp879
a(I64
I10
F-0.75
S'short'
p880
tp881
a(I66
I1
F-0.5
S'poor'
p882
tp883
a(I68
I0
F0.5
g292
tp884
a(I69
I1
F1.0
S'good'
p885
tp886
a(I69
I1
F0.5
S'true'
p887
tp888
a(I70
I9
F-0.625
g294
tp889
a(I72
I2
I0
S'great'
p890
tp891
a(I74
I5
F1.0
S'good'
p892
tp893
a(I87
I1
F-0.875
S'worst'
p894
tp895
a(I97
I27
F-0.25
g296
tp896
a(I104
I5
F-0.375
S'unacceptable'
p897
tp898
a(I123
I0
F-0.75
g298
tp899
a(I123
I0
F0.375
g300
tp900
a(I133
I1
F-0.875
S'worst'
p901
tp902
a(I142
I0
F0.5
S'true'
p903
tp904
a(I142
I0
F-0.5
S'poor'
p905
tp906
as(S'samsung'
p907
S'e715'
p908
tp909
(lp910
(I3
I19
F0.375
S'louder'
p911
tp912
a(I10
I14
I0
S'great'
p913
tp914
a(I13
I0
I0
S'january'
p915
tp916
a(I60
I0
F0.375
S'new'
p917
tp918
a(I117
I6
F1.0
S'good'
p919
tp920
a(I152
I2
F0.875
S'nice'
p921
tp922
a(I152
I2
F-0.625
S'light'
p923
tp924
as(S'almost'
p925
g192
S'year'
p926
tp927
(lp928
(I9
I1
F0.125
S'first'
p929
tp930
a(I111
I0
F0.875
S'happy'
p931
tp932
as(S'service'
p933
S'light'
p934
tp935
(lp936
(I51
I4
F-0.75
g518
tp937
a(I107
I0
F1.0
g396
tp938
a(I144
I7
F-0.625
g533
tp939
a(I144
I10
F-0.625
g535
tp940
as(S'take'
p941
g192
S'picture'
p942
tp943
(lp944
(I41
I6
F-0.5
g378
tp945
a(I53
I0
I0
g380
tp946
as(S'problems'
p947
tp948
(lp949
(I19
I2
F0.5
S'technical'
p950
tp951
a(I22
I3
I0
S'same'
p952
tp953
a(I72
I8
I0
S'only'
p954
tp955
a(I103
I8
I0
S'same'
p956
tp957
a(I116
I0
I0
S'signal'
p958
tp959
a(I134
I24
I0
S'same'
p960
tp961
a(I141
I4
F-0.625
S'other'
p962
tp963
a(I141
I4
F-0.25
S'potential'
p964
tp965
a(I150
I0
F-0.375
S'serious'
p966
tp967
as(S'back'
p968
tp969
(lp970
(I92
I4
F0.625
S'easy'
p971
tp972
as(S'book'
p973
tp974
(lp975
(I97
I3
F-0.5
S'unavailable'
p976
tp977
as(S'reception'
p978
tp979
(lp980
(I5
I0
F1.0
S'good'
p981
tp982
a(I9
I2
F-0.5
S'long'
p983
tp984
a(I10
I14
F-0.375
S'small'
p985
tp986
a(I24
I3
F1.0
S'good'
p987
tp988
a(I28
I3
F1.0
S'good'
p989
tp990
a(I28
I3
F1.0
S'good'
p991
tp992
a(I33
I2
F1.0
S'good'
p993
tp994
a(I37
I2
F-0.375
S'smaller'
p995
tp996
a(I37
I2
F0.375
S'much'
p997
tp998
a(I37
I2
F-0.25
S'cheaper'
p999
tp1000
a(I42
I1
F1.0
S'good'
p1001
tp1002
a(I44
I5
F1.0
S'good'
p1003
tp1004
a(I64
I1
F1.0
S'good'
p1005
tp1006
a(I75
I4
F-0.5
S'poor'
p1007
tp1008
a(I78
I2
F0.5
S'clear'
p1009
tp1010
a(I79
I3
F0.625
S'major'
p1011
tp1012
a(I84
I10
F0.5
S'clear'
p1013
tp1014
a(I98
I1
F-0.625
S'bad'
p1015
tp1016
a(I101
I0
F0.5
S'clear'
p1017
tp1018
a(I101
I2
I0
S'crystal'
p1019
tp1020
a(I101
I2
F0.5
S'clear'
p1021
tp1022
a(I102
I9
F-0.625
S'other'
p1023
tp1024
a(I112
I5
F1.0
S'best'
p1025
tp1026
a(I112
I5
F1.0
S'good'
p1027
tp1028
a(I113
I0
F1.0
S'good'
p1029
tp1030
a(I129
I0
F1.0
S'good'
p1031
tp1032
a(I134
I23
F-0.5
S'poor'
p1033
tp1034
a(I152
I13
F-0.625
S'bad'
p1035
tp1036
as(S'fine'
p1037
tp1038
(lp1039
(I10
I8
F0.875
S'happy'
p1040
tp1041
a(I127
I5
F0.125
S'first'
p1042
tp1043
as(S'life'
p1044
tp1045
(lp1046
(I4
I1
F-0.5
g859
tp1047
a(I7
I2
F0.125
g274
tp1048
a(I18
I11
F1.0
g864
tp1049
a(I44
I11
F-0.25
g282
tp1050
a(I45
I6
F-0.75
g868
tp1051
a(I53
I1
F-0.5
g284
tp1052
a(I53
I2
F0.75
g288
tp1053
a(I57
I0
I0
g873
tp1054
a(I58
I2
F-0.75
g290
tp1055
a(I60
I2
I0
g876
tp1056
a(I64
I10
F-0.75
g880
tp1057
a(I66
I1
F-0.5
g882
tp1058
a(I68
I0
F0.5
g292
tp1059
a(I69
I1
F1.0
g885
tp1060
a(I69
I1
F0.5
g887
tp1061
a(I70
I9
F-0.625
g294
tp1062
a(I72
I2
I0
g890
tp1063
a(I74
I5
F1.0
g892
tp1064
a(I87
I1
F-0.875
g894
tp1065
a(I97
I27
F-0.25
g296
tp1066
a(I104
I5
F-0.375
g897
tp1067
a(I123
I0
F-0.75
g298
tp1068
a(I133
I1
F-0.875
g901
tp1069
a(I142
I0
F-0.5
g905
tp1070
as(S'cool'
p1071
tp1072
(lp1073
(I46
I6
I0
S'lame'
p1074
tp1075
a(I144
I1
I0
S'many'
p1076
tp1077
as(g192
S'digital'
p1078
S'camera'
p1079
tp1080
(lp1081
(I33
I1
F0.125
S'digital'
p1082
tp1083
a(I41
I9
I0
S'quick'
p1084
tp1085
a(I77
I17
F0.125
S'digital'
p1086
tp1087
a(I77
I24
F1.0
g179
tp1088
a(I78
I2
F0.125
S'digital'
p1089
tp1090
a(I78
I2
I0
S'e-mail'
p1091
tp1092
a(I85
I7
F-0.625
S'other'
p1093
tp1094
a(I85
I7
F0.125
S'digital'
p1095
tp1096
a(I120
I2
F0.125
S'digital'
p1097
tp1098
a(I148
I1
F0.125
S'digital'
p1099
tp1100
a(I148
I3
F0.125
S'digital'
p1101
tp1102
as(S'n'
p1103
g1
S'pocket'
p1104
tp1105
(lp1106
(I3
I16
F0.125
S'able'
p1107
tp1108
a(I13
I3
I0
S'great'
p1109
tp1110
as(S'display'
p1111
tp1112
(lp1113
(I3
I14
I0
g19
tp1114
a(I26
I4
I0
g21
tp1115
a(I26
I13
F-0.75
S'bright'
p1116
tp1117
a(I41
I4
F0.875
S'nice'
p1118
tp1119
a(I44
I5
F1.0
S'good'
p1120
tp1121
a(I57
I1
F-0.75
S'bright'
p1122
tp1123
a(I64
I6
I0
g23
tp1124
a(I64
I6
I0
g25
tp1125
a(I64
I6
I0
g27
tp1126
a(I72
I5
I0
g29
tp1127
a(I72
I5
F-0.75
g31
tp1128
a(I72
I5
F0.625
g33
tp1129
a(I73
I22
I0
g35
tp1130
a(I90
I3
I0
g37
tp1131
a(I90
I3
F-0.5
g39
tp1132
a(I90
I9
I0
g41
tp1133
a(I90
I10
I0
g43
tp1134
a(I97
I27
F-0.75
S'bright'
p1135
tp1136
a(I97
I27
F0.625
S'easy'
p1137
tp1138
a(I103
I1
I0
S'same'
p1139
tp1140
a(I107
I0
F-0.75
S'dark'
p1141
tp1142
a(I113
I0
F0.5
S'second'
p1143
tp1144
a(I113
I0
F0.875
S'nice'
p1145
tp1146
a(I116
I4
F-0.75
S'bright'
p1147
tp1148
a(I121
I6
I0
g45
tp1149
a(I133
I0
F0.375
S'complete'
p1150
tp1151
a(I136
I0
I0
g47
tp1152
a(I141
I3
I0
S'internal'
p1153
tp1154
as(S'color'
p1155
tp1156
(lp1157
(I5
I0
I0
S'great'
p1158
tp1159
a(I51
I1
F0.5
S'clear'
p1160
tp1161
a(I72
I6
F-0.625
S'other'
p1162
tp1163
a(I75
I4
I0
S'internal'
p1164
tp1165
a(I90
I10
I0
S'full'
p1166
tp1167
a(I100
I3
F-0.75
S'bright'
p1168
tp1169
a(I144
I16
I0
S'full'
p1170
tp1171
as(S'cell'
p1172
tp1173
(lp1174
(I2
I1
F-0.875
S'worst'
p1175
tp1176
a(I32
I5
I0
S'different'
p1177
tp1178
a(I47
I4
F1.0
S'good'
p1179
tp1180
a(I47
I4
F0.125
S'enough'
p1181
tp1182
a(I60
I2
I0
S'most'
p1183
tp1184
a(I69
I3
F0.875
S'happy'
p1185
tp1186
a(I75
I2
F-0.5
S'heavy'
p1187
tp1188
a(I84
I2
I0
S'many'
p1189
tp1190
a(I84
I2
I0
S'many'
p1191
tp1192
a(I87
I15
I0
S'standard'
p1193
tp1194
a(I116
I7
F0.625
S'fair'
p1195
tp1196
a(I116
I7
F0.5
S'whole'
p1197
tp1198
as(S'calls'
p1199
tp1200
(lp1201
(I26
I5
I0
S'more'
p1202
tp1203
a(I26
I15
I0
S'crystal'
p1204
tp1205
a(I26
I15
F0.5
S'clear'
p1206
tp1207
a(I52
I3
F-0.25
S'dropped'
p1208
tp1209
a(I55
I12
F0.125
S'first'
p1210
tp1211
a(I70
I16
I0
S'few'
p1212
tp1213
a(I75
I3
F-0.5
S'longer'
p1214
tp1215
a(I117
I6
F-0.25
S'dropped'
p1216
tp1217
a(I152
I8
I0
S'most'
p1218
tp1219
as(S'digital'
p1220
S'camera'
p1221
tp1222
(lp1223
(I33
I1
F0.125
g1082
tp1224
a(I41
I9
I0
g1084
tp1225
a(I77
I17
F0.125
g1086
tp1226
a(I77
I24
F1.0
g179
tp1227
a(I78
I2
F0.125
g1089
tp1228
a(I78
I2
I0
g1091
tp1229
a(I85
I7
F-0.625
g1093
tp1230
a(I85
I7
F0.125
g1095
tp1231
a(I120
I2
F0.125
g1097
tp1232
a(I148
I1
F0.125
g1099
tp1233
a(I148
I3
F0.125
g1101
tp1234
as(S'screen'
p1235
tp1236
(lp1237
(I9
I6
F-0.25
S'white'
p1238
tp1239
a(I15
I8
F0.5
g826
tp1240
a(I16
I1
F-0.625
S'bad'
p1241
tp1242
a(I17
I9
F-0.75
S'bright'
p1243
tp1244
a(I20
I3
F-0.5
S'longer'
p1245
tp1246
a(I22
I1
F-0.75
S'bright'
p1247
tp1248
a(I28
I0
F0.125
g828
tp1249
a(I42
I2
F0.875
S'nice'
p1250
tp1251
a(I44
I5
F-0.75
S'bright'
p1252
tp1253
a(I49
I7
I0
S'external'
p1254
tp1255
a(I51
I4
I0
g832
tp1256
a(I67
I1
I0
g834
tp1257
a(I70
I11
I0
S'sensitive'
p1258
tp1259
a(I76
I5
F-0.375
S'smaller'
p1260
tp1261
a(I79
I1
F-0.75
S'bright'
p1262
tp1263
a(I83
I14
F-0.75
S'bright'
p1264
tp1265
a(I83
I17
I0
S'external'
p1266
tp1267
a(I83
I17
F0.625
S'color'
p1268
tp1269
a(I99
I7
F0.375
S'new'
p1270
tp1271
a(I99
I7
I0
S'arrive'
p1272
tp1273
a(I112
I4
F-0.75
g838
tp1274
a(I116
I0
F0.25
S'dim'
p1275
tp1276
a(I126
I3
I0
S'next'
p1277
tp1278
a(I126
I4
F-0.875
S'inferior'
p1279
tp1280
a(I134
I12
F-0.375
S'smaller'
p1281
tp1282
a(I149
I5
F0.25
S'sharpest'
p1283
tp1284
as(S'time'
p1285
tp1286
(lp1287
(I2
I3
F0.5
S'second'
p1288
tp1289
a(I9
I5
F-0.5
S'less'
p1290
tp1291
a(I9
I5
I0
S'old'
p1292
tp1293
a(I9
I6
F0.5
S'second'
p1294
tp1295
a(I41
I4
I0
S'current'
p1296
tp1297
a(I47
I1
F-0.75
S'single'
p1298
tp1299
a(I59
I18
I0
S'same'
p1300
tp1301
a(I64
I8
I0
S'closing'
p1302
tp1303
a(I70
I0
F-0.5
g686
tp1304
a(I70
I14
F-0.5
g688
tp1305
a(I83
I21
F-0.5
g690
tp1306
a(I85
I4
I0
S'current'
p1307
tp1308
a(I85
I5
F0.25
S'helpful'
p1309
tp1310
a(I90
I9
F0.25
S'lit'
p1311
tp1312
a(I97
I12
F0.5
S'accurate'
p1313
tp1314
a(I97
I23
I0
S'next'
p1315
tp1316
a(I104
I1
F-0.875
S'hard'
p1317
tp1318
a(I107
I0
F0.5
g692
tp1319
a(I149
I1
F-0.5
g694
tp1320
as(S'no'
p1321
S'external'
p1322
S'antenna'
p1323
tp1324
(lp1325
(I15
I3
I0
g59
tp1326
a(I15
I3
F0.875
g61
tp1327
a(I27
I1
I0
g67
tp1328
a(I47
I5
I0
g75
tp1329
a(I49
I14
I0
g77
tp1330
a(I49
I14
F-0.375
g79
tp1331
a(I49
I14
F0.875
g81
tp1332
a(I83
I5
I0
g95
tp1333
a(I90
I11
I0
g97
tp1334
a(I97
I26
F-0.375
g99
tp1335
a(I97
I26
I0
g101
tp1336
a(I121
I6
I0
g105
tp1337
as(S'months'
p1338
tp1339
(lp1340
(I2
I0
F0.125
S'last'
p1341
tp1342
a(I21
I0
F-0.75
S'bright'
p1343
tp1344
a(I32
I5
F0.125
S'last'
p1345
tp1346
a(I45
I2
F-0.25
S'past'
p1347
tp1348
a(I55
I15
I0
S'next'
p1349
tp1350
a(I76
I0
F-0.25
S'past'
p1351
tp1352
a(I77
I6
F0.125
S'last'
p1353
tp1354
a(I77
I6
I0
S'few'
p1355
tp1356
a(I121
I7
F0.125
S'first'
p1357
tp1358
a(I126
I14
I0
S'few'
p1359
tp1360
a(I133
I3
I0
S'later'
p1361
tp1362
a(I134
I5
I0
S'few'
p1363
tp1364
a(I141
I1
I0
S'horizontal'
p1365
tp1366
a(I150
I1
F0.25
S'original'
p1367
tp1368
a(I152
I4
I0
S'old'
p1369
tp1370
as(S'external'
p1371
S'antenna'
p1372
tp1373
(lp1374
(I15
I3
I0
g59
tp1375
a(I15
I3
F0.875
g61
tp1376
a(I27
I1
I0
g67
tp1377
a(I47
I5
I0
g75
tp1378
a(I49
I14
I0
g77
tp1379
a(I49
I14
F-0.375
g79
tp1380
a(I49
I14
F0.875
g81
tp1381
a(I83
I5
I0
g95
tp1382
a(I90
I11
I0
g97
tp1383
a(I97
I26
F-0.375
g99
tp1384
a(I97
I26
I0
g101
tp1385
a(I121
I6
I0
g105
tp1386
as(S'flip'
p1387
tp1388
(lp1389
(I15
I0
F-0.625
S'other'
p1390
tp1391
a(I73
I1
F0.125
S'first'
p1392
tp1393
a(I73
I3
F-0.25
S'cheaper'
p1394
tp1395
a(I84
I10
I0
S'incredible'
p1396
tp1397
a(I92
I1
I0
S'only'
p1398
tp1399
a(I126
I1
F0.375
S'similar'
p1400
tp1401
as(S'looks'
p1402
tp1403
(lp1404
(I3
I26
F0.75
S'beautiful'
p1405
tp1406
a(I17
I2
I0
S'great'
p1407
tp1408
a(I38
I1
F1.0
S'good'
p1409
tp1410
a(I138
I4
I0
S'great'
p1411
tp1412
a(I138
I4
F-0.75
S'worse'
p1413
tp1414
as(S'year'
p1415
tp1416
(lp1417
(I9
I1
F0.125
g929
tp1418
a(I9
I9
F0.375
S'new'
p1419
tp1420
a(I49
I15
I0
S'next'
p1421
tp1422
a(I57
I0
I0
S'old'
p1423
tp1424
a(I65
I6
F-0.625
S'other'
p1425
tp1426
a(I77
I4
F0.125
S'last'
p1427
tp1428
a(I92
I6
F0.5
S'whole'
p1429
tp1430
a(I108
I1
F-0.5
S'less'
p1431
tp1432
a(I111
I0
F0.875
g931
tp1433
a(I152
I1
I0
S'younger'
p1434
tp1435
as(S'ring'
p1436
S'tones'
p1437
tp1438
(lp1439
(I44
I8
I0
S'generic'
p1440
tp1441
a(I87
I12
I0
S'wallpaper'
p1442
tp1443
a(I138
I4
I0
S'great'
p1444
tp1445
as(S'take'
p1446
S'pictures'
p1447
tp1448
(lp1449
(I13
I3
F-0.375
S'black'
p1450
tp1451
a(I26
I19
I0
S'few'
p1452
tp1453
a(I27
I1
F1.0
g806
tp1454
a(I28
I1
F0.375
S'flash'
p1455
tp1456
a(I37
I2
F1.0
g808
tp1457
a(I49
I3
F-0.25
g810
tp1458
a(I82
I2
F-0.375
S'black'
p1459
tp1460
a(I85
I7
I0
g812
tp1461
a(I90
I4
F0.125
g814
tp1462
a(I91
I2
I0
S'great'
p1463
tp1464
a(I100
I8
I0
g816
tp1465
a(I100
I8
F0.125
g818
tp1466
a(I142
I3
I0
g820
tp1467
as(S'look'
p1468
tp1469
(lp1470
(I22
I5
I0
S'futuristic'
p1471
tp1472
a(I35
I4
F-0.625
S'bad'
p1473
tp1474
as(S'customer'
p1475
tp1476
(lp1477
(I113
I0
F0.375
S'new'
p1478
tp1479
as(S'samsung'
p1480
tp1481
(lp1482
(I27
I0
F0.125
S'first'
p1483
tp1484
a(I45
I1
F0.125
S'first'
p1485
tp1486
a(I60
I0
F0.375
g917
tp1487
a(I66
I0
I0
S'old'
p1488
tp1489
a(I82
I7
F-0.5
S'sure'
p1490
tp1491
a(I117
I6
F1.0
g919
tp1492
a(I121
I5
F-0.625
S'other'
p1493
tp1494
a(I126
I3
I0
S'quick'
p1495
tp1496
a(I126
I3
F-0.625
S'other'
p1497
tp1498
a(I126
I6
F0.375
S'new'
p1499
tp1500
a(I142
I1
F-0.5
S'sure'
p1501
tp1502
as(S'camera'
p1503
tp1504
(lp1505
(I8
I0
F1.0
S'good'
p1506
tp1507
a(I10
I18
F0.875
S'nice'
p1508
tp1509
a(I26
I17
I0
S'great'
p1510
tp1511
a(I26
I17
F1.0
S'best'
p1512
tp1513
a(I33
I1
F0.125
g1082
tp1514
a(I36
I1
F0.5
S'clear'
p1515
tp1516
a(I36
I1
I0
S'signal'
p1517
tp1518
a(I41
I2
I0
S'latest'
p1519
tp1520
a(I41
I9
I0
g1084
tp1521
a(I42
I2
F-0.375
S'small'
p1522
tp1523
a(I43
I4
I0
S'great'
p1524
tp1525
a(I47
I3
F1.0
S'good'
p1526
tp1527
a(I52
I9
F0.375
S'busy'
p1528
tp1529
a(I55
I1
F1.0
S'good'
p1530
tp1531
a(I55
I10
F0.125
S'first'
p1532
tp1533
a(I58
I2
F-0.5
S'actual'
p1534
tp1535
a(I59
I0
F0.125
S'first'
p1536
tp1537
a(I64
I2
F1.0
S'best'
p1538
tp1539
a(I70
I2
F-0.625
S'other'
p1540
tp1541
a(I76
I2
I0
S'great'
p1542
tp1543
a(I76
I5
F-0.625
S'other'
p1544
tp1545
a(I77
I17
F0.125
g1086
tp1546
a(I78
I2
F0.125
g1089
tp1547
a(I78
I2
I0
g1091
tp1548
a(I85
I7
F-0.625
g1093
tp1549
a(I85
I7
F0.125
g1095
tp1550
a(I87
I0
F-0.625
S'light'
p1551
tp1552
a(I89
I4
F1.0
S'good'
p1553
tp1554
a(I100
I8
I0
S'great'
p1555
tp1556
a(I100
I9
I0
S'next'
p1557
tp1558
a(I111
I12
I0
S'external'
p1559
tp1560
a(I114
I0
F1.0
S'good'
p1561
tp1562
a(I116
I8
F0.5
S'functional'
p1563
tp1564
a(I119
I7
F-0.875
S'hard'
p1565
tp1566
a(I120
I2
F0.125
g1097
tp1567
a(I120
I3
F0.875
S'important'
p1568
tp1569
a(I121
I3
F0.125
S'first'
p1570
tp1571
a(I121
I3
I0
S'integrated'
p1572
tp1573
a(I121
I3
F0.25
S'detachable'
p1574
tp1575
a(I121
I3
F-0.625
S'other'
p1576
tp1577
a(I124
I3
I0
S'external'
p1578
tp1579
a(I140
I0
F-0.25
S'd'
p1580
tp1581
a(I143
I0
F1.0
S'good'
p1582
tp1583
a(I144
I5
F-0.625
S'other'
p1584
tp1585
a(I144
I6
F-0.25
S'thinnest'
p1586
tp1587
a(I145
I2
I0
S'particular'
p1588
tp1589
a(I148
I1
F0.125
g1099
tp1590
a(I148
I3
F0.125
g1101
tp1591
as(S'ring'
p1592
tp1593
(lp1594
(I3
I20
I0
S'standard'
p1595
tp1596
a(I44
I8
I0
g1440
tp1597
a(I72
I9
I0
S'wish'
p1598
tp1599
as(S'take'
p1600
tp1601
(lp1602
(I102
I13
F0.5
S'willing'
p1603
tp1604
as(S'tones'
p1605
tp1606
(lp1607
(I87
I12
I0
g1442
tp1608
a(I109
I2
I0
S'many'
p1609
tp1610
a(I138
I4
I0
g1444
tp1611
a(I151
I6
F-0.625
S'free'
p1612
tp1613
as(g192
S'full'
p1614
S'charge'
p1615
tp1616
(lp1617
(I53
I1
I0
g357
tp1618
a(I53
I2
I0
g359
tp1619
a(I56
I1
I0
g361
tp1620
a(I56
I6
I0
g363
tp1621
a(I60
I3
F-0.375
g365
tp1622
a(I87
I2
I0
g367
tp1623
a(I142
I1
I0
g369
tp1624
as(S'mobile'
p1625
tp1626
(lp1627
(I80
I4
I0
g398
tp1628
as(S'pictures'
p1629
tp1630
(lp1631
(I3
I8
F-0.25
S'low'
p1632
tp1633
a(I3
I8
F-0.625
S'light'
p1634
tp1635
a(I3
I8
F0.5
S'possible'
p1636
tp1637
a(I3
I12
F-0.25
S'ready'
p1638
tp1639
a(I3
I12
F0.125
S'able'
p1640
tp1641
a(I3
I13
F0.625
S'easy'
p1642
tp1643
a(I10
I10
F0.5
S'possible'
p1644
tp1645
a(I10
I14
F0.125
S'able'
p1646
tp1647
a(I13
I3
F-0.375
g1450
tp1648
a(I26
I19
I0
g1452
tp1649
a(I27
I1
F1.0
g806
tp1650
a(I28
I1
F0.375
g1455
tp1651
a(I36
I1
I0
S'many'
p1652
tp1653
a(I37
I2
F1.0
g808
tp1654
a(I41
I7
F0.25
S'spontaneous'
p1655
tp1656
a(I49
I3
F-0.25
g810
tp1657
a(I57
I2
F-0.75
S'bright'
p1658
tp1659
a(I59
I9
F-0.75
S'irreplaceable'
p1660
tp1661
a(I65
I7
F0.25
S'sharp'
p1662
tp1663
a(I73
I8
F-0.625
S'natural'
p1664
tp1665
a(I73
I8
F-0.625
S'light'
p1666
tp1667
a(I82
I2
F-0.375
g1459
tp1668
a(I83
I23
F-0.5
S'undesirable'
p1669
tp1670
a(I85
I7
I0
g812
tp1671
a(I90
I4
F0.125
g814
tp1672
a(I91
I2
I0
g1463
tp1673
a(I100
I7
F0.5
S'clearer'
p1674
tp1675
a(I100
I8
I0
g816
tp1676
a(I100
I8
F0.125
g818
tp1677
a(I142
I3
I0
g820
tp1678
a(I151
I5
F1.0
S'good'
p1679
tp1680
as(g192
S'data'
p1681
S'cable'
p1682
tp1683
(lp1684
(I30
I5
I0
g541
tp1685
a(I49
I5
I0
g543
tp1686
a(I73
I23
I0
g545
tp1687
a(I92
I13
I0
g547
tp1688
a(I129
I8
I0
g549
tp1689
as(S'people'
p1690
tp1691
(lp1692
(I10
I11
I0
S'many'
p1693
tp1694
a(I50
I3
F-0.875
S'awful'
p1695
tp1696
a(I68
I0
F-0.625
S'other'
p1697
tp1698
a(I85
I5
I0
S'many'
p1699
tp1700
a(I85
I10
F-0.625
S'other'
p1701
tp1702
a(I108
I2
F-0.625
S'other'
p1703
tp1704
a(I123
I0
F-0.625
S'bad'
p1705
tp1706
as(S'feature'
p1707
tp1708
(lp1709
(I18
I3
F0.625
S'led'
p1710
tp1711
a(I18
I18
F-0.875
S'worst'
p1712
tp1713
a(I20
I1
I0
S'high'
p1714
tp1715
a(I42
I1
F0.875
S'important'
p1716
tp1717
a(I52
I2
F0.875
S'nice'
p1718
tp1719
a(I71
I5
F-0.625
S'other'
p1720
tp1721
a(I77
I46
I0
S'such'
p1722
tp1723
a(I77
I46
I0
S'useful'
p1724
tp1725
a(I81
I4
I0
S'great'
p1726
tp1727
a(I93
I7
I0
S'only'
p1728
tp1729
a(I95
I3
F1.0
S'best'
p1730
tp1731
a(I95
I5
I0
S'great'
p1732
tp1733
a(I96
I5
I0
S'great'
p1734
tp1735
a(I101
I0
F0.125
S'essential'
p1736
tp1737
a(I126
I9
I0
S'handy'
p1738
tp1739
a(I126
I9
I0
S'great'
p1740
tp1741
a(I134
I14
F-0.75
S'bright'
p1742
tp1743
a(I134
I14
I0
S'external'
p1744
tp1745
a(I135
I2
F1.0
S'best'
p1746
tp1747
as(S'battery'
p1748
tp1749
(lp1750
(I8
I0
F1.0
g276
tp1751
a(I9
I4
F0.375
S'new'
p1752
tp1753
a(I14
I1
F-0.75
g278
tp1754
a(I34
I5
F-0.625
S'other'
p1755
tp1756
a(I38
I2
F-0.25
g280
tp1757
a(I45
I7
F0.375
S'extra'
p1758
tp1759
a(I51
I10
F0.5
S'strong'
p1760
tp1761
a(I53
I2
F-0.5
g286
tp1762
a(I56
I1
F-0.5
S'sudden'
p1763
tp1764
a(I56
I6
I0
S'same'
p1765
tp1766
a(I59
I4
I0
S'full'
p1767
tp1768
a(I60
I3
I0
S'full'
p1769
tp1770
a(I64
I5
F0.875
g878
tp1771
a(I106
I4
F0.375
S'new'
p1772
tp1773
a(I123
I0
F0.375
g300
tp1774
a(I142
I0
F0.5
g903
tp1775
a(I148
I4
F-0.375
S'small'
p1776
tp1777
a(I148
I5
F0.125
S'last'
p1778
tp1779
a(I152
I3
F0.5
S'second'
p1780
tp1781
as(S'better'
p1782
tp1783
(lp1784
(I28
I2
F0.375
S'much'
p1785
tp1786
a(I37
I2
F0.375
S'much'
p1787
tp1788
a(I120
I2
F0.375
S'much'
p1789
tp1790
a(I151
I2
F0.375
S'much'
p1791
tp1792
as(S'call'
p1793
tp1794
(lp1795
(I97
I4
I0
S'few'
p1796
tp1797
as(S'e715'
p1798
tp1799
(lp1800
(I3
I17
I0
S'crystal'
p1801
tp1802
a(I3
I17
F0.5
S'clear'
p1803
tp1804
a(I3
I19
F0.375
g911
tp1805
a(I10
I14
I0
g913
tp1806
a(I13
I0
I0
g915
tp1807
a(I17
I3
F-0.625
S'lighter'
p1808
tp1809
a(I55
I9
F-0.25
S'direct'
p1810
tp1811
a(I70
I14
I0
S'cool'
p1812
tp1813
a(I75
I3
I0
S'signal'
p1814
tp1815
a(I77
I5
F1.0
S'good'
p1816
tp1817
a(I77
I10
I0
S'same'
p1818
tp1819
a(I77
I12
I0
S'large'
p1820
tp1821
a(I77
I16
F1.0
S'good'
p1822
tp1823
a(I77
I20
I0
S'great'
p1824
tp1825
a(I77
I21
I0
S'such'
p1826
tp1827
a(I77
I35
I0
S'non-issue'
p1828
tp1829
a(I77
I47
I0
S'fastest'
p1830
tp1831
a(I83
I9
F1.0
S'good'
p1832
tp1833
a(I101
I3
F0.125
S'first'
p1834
tp1835
a(I101
I3
F0.75
S'due'
p1836
tp1837
a(I112
I3
I0
S'more'
p1838
tp1839
a(I126
I7
F-0.375
S'small'
p1840
tp1841
a(I152
I2
F0.875
g921
tp1842
a(I152
I2
F-0.625
g923
tp1843
as(S'much'
p1844
S'better'
p1845
tp1846
(lp1847
(I28
I2
F0.375
g1785
tp1848
a(I37
I2
F0.375
g1787
tp1849
a(I120
I2
F0.375
g1789
tp1850
a(I151
I2
F0.375
g1791
tp1851
as(S'light'
p1852
tp1853
(lp1854
(I10
I8
I0
S'signal'
p1855
tp1856
a(I11
I4
F-0.75
S'dark'
p1857
tp1858
a(I11
I4
I0
S'needed'
p1859
tp1860
a(I18
I3
I0
S'external'
p1861
tp1862
a(I39
I3
F0.875
S'nice'
p1863
tp1864
a(I70
I2
F1.0
S'best'
p1865
tp1866
a(I72
I4
F0.5
S'strong'
p1867
tp1868
a(I81
I4
F-0.375
S'small'
p1869
tp1870
a(I95
I6
F-0.25
S'white'
p1871
tp1872
a(I121
I6
F1.0
S'good'
p1873
tp1874
as(S'looking'
p1875
tp1876
(lp1877
(I123
I0
F0.875
S'nice'
p1878
tp1879
a(I153
I0
I0
S'cool'
p1880
tp1881
as(S'picture'
p1882
S'quality'
p1883
tp1884
(lp1885
(I4
I0
F1.0
g114
tp1886
a(I33
I1
F0.625
g130
tp1887
a(I35
I5
F-0.875
g132
tp1888
a(I35
I5
I0
g134
tp1889
a(I45
I8
F1.0
g136
tp1890
a(I69
I6
F1.0
g146
tp1891
a(I70
I9
F0.25
g148
tp1892
a(I77
I22
I0
g150
tp1893
a(I92
I3
F1.0
g152
tp1894
a(I103
I6
F-0.5
g154
tp1895
a(I120
I3
F1.0
g162
tp1896
a(I120
I3
I0
g164
tp1897
a(I129
I0
I0
g166
tp1898
as(S'days'
p1899
tp1900
(lp1901
(I53
I0
I0
S'only'
p1902
tp1903
a(I53
I0
I0
S'few'
p1904
tp1905
a(I53
I0
I0
S'old'
p1906
tp1907
a(I57
I0
F1.0
S'best'
p1908
tp1909
a(I59
I6
F-0.25
S'past'
p1910
tp1911
a(I77
I49
I0
S'more'
p1912
tp1913
a(I131
I0
I0
S'later'
p1914
tp1915
as.