(dp0
(S'key'
p1
S'pad'
p2
tp3
(lp4
(I5
I398
F0.125
S'key'
p5
I0
tp6
a(I5
I400
F0.125
S'key'
p7
I0
tp8
a(I5
I400
I0
S'same'
p9
I0
tp10
a(I5
I404
F0.125
S'key'
p11
I0
tp12
as(S'memory'
p13
S'card'
p14
tp15
(lp16
(I1
I80
F1.0
S'better'
p17
I0
tp18
a(I5
I238
F1.0
S'good'
p19
I0
tp20
a(I5
I238
F0.875
S'music'
p21
I0
tp22
a(I5
I381
F-0.5
S'separate'
p23
I0
tp24
a(I6
I253
F-0.625
S'conventional'
p25
I0
tp26
a(I4
I4
I0
S'internal'
p27
I5
tp28
a(I5
I181
I0
S'more'
p29
I5
tp30
a(I5
I342
F-0.875
S'hard'
p31
I5
tp32
a(I5
I381
F-0.5
g23
I5
tp33
a(I6
I86
F-0.25
S'low'
p34
I5
tp35
a(I6
I253
F-0.625
g25
I5
tp36
a(I12
I49
F0.625
S'easy'
p37
I5
tp38
as(S'battery'
p39
S'life'
p40
tp41
(lp42
(I0
I20
F1.0
S'good'
p43
I1
tp44
a(I5
I67
F1.0
S'good'
p45
I1
tp46
a(I6
I325
F0.125
S'solid'
p47
I1
tp48
a(I7
I33
F1.0
S'good'
p49
I1
tp50
a(I10
I1
F-0.5
S'poor'
p51
I1
tp52
a(I10
I5
F1.0
S'good'
p53
I1
tp54
a(I12
I49
F-0.625
S'average'
p55
I1
tp56
a(I0
I20
F1.0
g43
I19
tp57
a(I5
I67
F1.0
g45
I19
tp58
a(I6
I0
I0
S'individual'
p59
I19
tp60
a(I6
I325
F0.125
g47
I19
tp61
a(I7
I33
F1.0
g49
I19
tp62
a(I4
I28
F0.125
S'last'
p63
I15
tp64
a(I6
I45
F1.0
S'better'
p65
I15
tp66
a(I6
I47
I0
S'great'
p67
I15
tp68
a(I6
I274
F0.5
S'strong'
p69
I15
tp70
a(I6
I317
I0
S'rapid'
p71
I15
tp72
a(I10
I1
F-0.5
g51
I15
tp73
a(I10
I5
F1.0
g53
I15
tp74
a(I12
I49
F-0.625
g55
I15
tp75
as(S'cingular'
p76
tp77
(lp78
(I6
I139
I0
S'current'
p79
I0
tp80
as(S'keys'
p81
tp82
(lp83
(I0
I42
F0.125
S'solid'
p84
I9
tp85
a(I2
I3
F-0.75
S'comfortable'
p86
I9
tp87
a(I4
I38
F-0.375
S'disable'
p88
I9
tp89
a(I4
I38
F-0.75
S'impossible'
p90
I9
tp91
a(I4
I40
F-0.625
S'bad'
p92
I9
tp93
a(I4
I40
F0.375
S'enable'
p94
I9
tp95
a(I4
I49
F-0.375
S'small'
p96
I9
tp97
a(I5
I352
F0.125
S'essential'
p98
I9
tp99
a(I5
I373
F-0.625
S'other'
p100
I9
tp101
a(I5
I380
F-0.375
S'small'
p102
I9
tp103
a(I6
I14
F-0.375
S'small'
p104
I9
tp105
a(I6
I76
F0.25
S'bigger'
p106
I9
tp107
a(I6
I76
I0
S'great'
p108
I9
tp109
a(I6
I124
F-0.375
S'small'
p110
I9
tp111
a(I6
I152
F0.5
S'stylish'
p112
I9
tp113
a(I6
I323
I0
S'soft'
p114
I9
tp115
a(I12
I34
I0
S'many'
p116
I9
tp117
a(I12
I34
F-0.75
S'short'
p118
I9
tp119
as(S'belt'
p120
S'clip'
p121
tp122
(lp123
(I5
I319
I0
S'plastic'
p124
I0
tp125
as(S'samsung'
p126
S'd807'
p127
tp128
(lp129
(I5
I110
F0.875
S'happy'
p130
I0
tp131
a(I5
I127
I0
S'next'
p132
I0
tp133
as(S"'call"
p134
S'log'
p135
tp136
(lp137
(I5
I419
F0.625
S'notice'
p138
I0
tp139
as(S'games'
p140
tp141
(lp142
(I1
I63
I-100
S'gameloft'
p143
I19
tp144
a(I4
I30
I0
S'only'
p145
I19
tp146
a(I4
I30
F-0.875
S'negative'
p147
I19
tp148
a(I4
I30
F-0.75
S'wrong'
p149
I19
tp150
a(I6
I44
I0
S'few'
p151
I19
tp152
a(I6
I326
F0.875
S'music'
p153
I19
tp154
a(I9
I1
F0.375
S'much'
p155
I19
tp156
as(S'bluetooth'
p157
tp158
(lp159
(I5
I174
F0.875
S'music'
p160
I3
tp161
a(I6
I84
I0
S'great'
p162
I3
tp163
as(S'camera'
p164
S'cover'
p165
tp166
(lp167
(I5
I146
F0.875
S'nice'
p168
I0
tp169
a(I5
I181
F1.0
S'better'
p170
I0
tp171
a(I5
I258
I0
S'great'
p172
I0
tp173
a(I5
I412
F-0.375
S'smooth'
p174
I0
tp175
a(I5
I412
I0
S'sensitive'
p176
I0
tp177
a(I6
I12
F0.125
S'protective'
p178
I0
tp179
a(I12
I30
F0.875
S'nice'
p180
I0
tp181
as(S'internet'
p182
tp183
(lp184
(I2
I38
F1.0
S'good'
p185
I6
tp186
a(I6
I209
F1.0
S'enjoy'
p187
I6
tp188
as(S'headphone'
p189
S'jack'
p190
tp191
(lp192
(I5
I27
I0
S'standard'
p193
I0
tp194
a(I5
I27
F-0.625
S'sorry'
p195
I0
tp196
a(I6
I337
I0
S'wish'
p197
I0
tp198
a(I6
I337
I0
S'normal'
p199
I0
tp200
as(S'flash'
p201
tp202
(lp203
(I1
I62
F1.0
S'good'
p204
I2
tp205
a(I5
I33
F0.25
S'bigger'
p206
I2
tp207
a(I6
I66
F-0.75
S'dark'
p208
I2
tp209
a(I6
I329
F-0.625
S'bad'
p210
I2
tp211
as(S'razr'
p212
tp213
(lp214
(I1
I7
F0.5
S'second'
p215
I0
tp216
a(I5
I278
F0.25
S'unlocked'
p217
I0
tp218
a(I5
I284
F0.25
S'unlocked'
p219
I0
tp220
a(I6
I157
F0.125
S'above'
p221
I0
tp222
a(I12
I36
F-0.25
S'thin'
p223
I0
tp224
as(S'voice'
p225
tp226
(lp227
(I5
I42
I0
S'basic'
p228
I4
tp229
a(I5
I454
I0
S'great'
p230
I4
tp231
a(I6
I25
F0.375
S'new'
p232
I4
tp233
a(I6
I25
F-0.375
S'small'
p234
I4
tp235
as(S'good'
p236
S'reception'
p237
tp238
(lp239
(I1
I26
F1.0
S'good'
p240
I0
tp241
a(I2
I29
F1.0
S'good'
p242
I0
tp243
a(I5
I61
F1.0
S'better'
p244
I0
tp245
a(I5
I135
F1.0
S'good'
p246
I0
tp247
a(I5
I265
F1.0
S'good'
p248
I0
tp249
a(I6
I13
F1.0
S'good'
p250
I0
tp251
a(I12
I49
F1.0
S'good'
p252
I0
tp253
a(I1
I22
F1.0
S'better'
p254
I0
tp255
a(I1
I26
F1.0
g240
I0
tp256
a(I2
I29
F1.0
g242
I0
tp257
a(I4
I12
I0
S'great'
p258
I0
tp259
a(I5
I60
F1.0
S'better'
p260
I0
tp261
a(I5
I61
F1.0
g244
I0
tp262
a(I5
I135
F1.0
g246
I0
tp263
a(I5
I265
F1.0
g248
I0
tp264
a(I6
I13
F1.0
g250
I0
tp265
a(I10
I23
F1.0
S'best'
p266
I0
tp267
a(I10
I24
F-0.375
S'vary'
p268
I0
tp269
a(I12
I49
F1.0
g252
I0
tp270
as(S'headset'
p271
tp272
(lp273
(I5
I195
F1.0
S'good'
p274
I0
tp275
a(I5
I195
I0
S'most'
p276
I0
tp277
as(S'right'
p278
S'menu'
p279
S'key'
p280
tp281
(lp282
(I5
I355
F0.125
S'key'
p283
I0
tp284
a(I5
I355
F0.125
S'key'
p285
I0
tp286
a(I5
I355
F0.125
S'key'
p287
I0
tp288
a(I5
I355
F0.125
g283
I0
tp289
a(I5
I355
F0.125
g285
I0
tp290
a(I5
I355
F0.125
g287
I0
tp291
a(I5
I356
F0.25
S'favorite'
p292
I0
tp293
a(I5
I371
F-0.5
S'separate'
p294
I0
tp295
a(I5
I371
F0.125
S'key'
p296
I0
tp297
a(I5
I39
I0
S'few'
p298
I2
tp299
a(I5
I355
F0.125
g285
I2
tp300
a(I5
I355
F0.125
g287
I2
tp301
a(I5
I356
F0.25
g292
I2
tp302
a(I5
I371
F-0.5
g294
I2
tp303
a(I5
I371
F0.125
g296
I2
tp304
a(I5
I422
F0.125
S'last'
p305
I2
tp306
as(S'buttons'
p307
tp308
(lp309
(I1
I5
I0
S'close'
p310
I13
tp311
a(I1
I10
I0
S'great'
p312
I13
tp313
a(I4
I39
I0
S'fast'
p314
I13
tp315
a(I4
I39
F0.625
S'easy'
p316
I13
tp317
a(I5
I24
F-0.375
S'small'
p318
I13
tp319
a(I6
I36
F0.625
S'easy'
p320
I13
tp321
a(I7
I48
F-0.375
S'small'
p322
I13
tp323
as(S'nokia'
p324
tp325
(lp326
(I1
I23
I0
S'most'
p327
I0
tp328
a(I2
I15
F1.0
S'good'
p329
I0
tp330
a(I4
I13
F0.625
S'superior'
p331
I0
tp332
a(I4
I19
F0.375
S'much'
p333
I0
tp334
a(I4
I19
F0.625
S'easier'
p335
I0
tp336
a(I5
I6
F1.0
S'good'
p337
I0
tp338
a(I5
I155
I0
S'many'
p339
I0
tp340
a(I5
I242
F0.875
S'music'
p341
I0
tp342
a(I5
I294
F1.0
S'good'
p343
I0
tp344
a(I5
I311
I0
S'third'
p345
I0
tp346
a(I5
I400
F-0.625
S'other'
p347
I0
tp348
a(I6
I188
F-0.125
S'overall'
p349
I0
tp350
a(I6
I254
F-0.125
S'future'
p351
I0
tp352
a(I6
I344
I0
S'next'
p353
I0
tp354
a(I7
I13
F-0.75
S'wrong'
p355
I0
tp356
a(I7
I49
F-0.25
S'past'
p357
I0
tp358
a(I10
I24
F1.0
S'best'
p359
I0
tp360
a(I12
I49
F0.125
S'last'
p361
I0
tp362
a(I12
I53
I0
S'next'
p363
I0
tp364
as(S'ring'
p365
S'tone'
p366
tp367
(lp368
(I2
I14
I0
S'own'
p369
I0
tp370
as(S'left'
p371
S'selection'
p372
S'key'
p373
tp374
(lp375
(I5
I355
F0.125
g283
I0
tp376
a(I5
I355
F0.125
g283
I0
tp377
as(S'many'
p378
S'features'
p379
tp380
(lp381
(I2
I29
I0
S'many'
p382
I0
tp383
a(I4
I58
I0
S'many'
p384
I0
tp385
a(I5
I271
I0
S'many'
p386
I0
tp387
a(I5
I271
I0
S'many'
p388
I0
tp389
a(I5
I284
I0
S'many'
p390
I0
tp391
a(I5
I284
F0.375
S'much'
p392
I0
tp393
a(I6
I109
I0
S'many'
p394
I0
tp395
a(I6
I207
I0
S'most'
p396
I0
tp397
as(S'form'
p398
S'factor'
p399
tp400
(lp401
(I6
I215
F0.625
S'acceptable'
p402
I1
tp403
as(S'digital'
p404
S'camera'
p405
tp406
(lp407
(I6
I70
F-0.5
S'regular'
p408
I1
tp409
a(I6
I70
F0.125
S'digital'
p410
I1
tp411
a(I6
I93
F0.125
S'digital'
p412
I1
tp413
a(I6
I122
F0.125
S'digital'
p414
I1
tp415
a(I0
I49
I0
S'great'
p416
I1
tp417
a(I1
I48
F0.375
S'extra'
p418
I1
tp419
a(I5
I1
F1.0
S'good'
p420
I1
tp421
a(I5
I55
F1.0
S'good'
p422
I1
tp423
a(I5
I75
F1.0
S'best'
p424
I1
tp425
a(I5
I79
F1.0
S'good'
p426
I1
tp427
a(I5
I146
F0.875
g168
I1
tp428
a(I5
I181
F1.0
g170
I1
tp429
a(I5
I232
F1.0
S'good'
p430
I1
tp431
a(I5
I258
I0
g172
I1
tp432
a(I6
I9
F0.875
S'music'
p433
I1
tp434
a(I6
I68
I0
S'wish'
p435
I1
tp436
a(I6
I70
F-0.5
g408
I1
tp437
a(I6
I70
F0.125
g410
I1
tp438
a(I6
I93
F0.125
g412
I1
tp439
a(I6
I122
F0.125
g414
I1
tp440
a(I6
I304
F0.875
S'nice'
p441
I1
tp442
a(I6
I330
F-0.625
S'light'
p443
I1
tp444
a(I6
I330
I0
S'useful'
p445
I1
tp446
a(I7
I6
F1.0
S'good'
p447
I1
tp448
a(I7
I51
I0
S'great'
p449
I1
tp450
a(I10
I18
I0
S'rich'
p451
I1
tp452
as(S'blue'
p453
S'tooth'
p454
tp455
(lp456
(I5
I388
I0
S'blue'
p457
I0
tp458
a(I5
I391
I0
S'blue'
p459
I0
tp460
a(I5
I392
I0
S'blue'
p461
I0
tp462
a(I5
I394
I0
S'blue'
p463
I0
tp464
as(S'data'
p465
tp466
(lp467
(I5
I12
I0
S'cable'
p468
I13
tp469
a(I6
I91
I0
S'cable'
p470
I13
tp471
a(I6
I91
F1.0
S'good'
p472
I13
tp473
a(I7
I4
I0
S'cable'
p474
I13
tp475
a(I7
I4
F0.375
S'worked'
p476
I13
tp477
as(S'key'
p478
S'to'
p479
S'access'
p480
tp481
(lp482
(I5
I356
F0.125
S'enough'
p483
I0
tp484
a(I5
I435
F0.625
S'easy'
p485
I0
tp486
as(S'headphones'
p487
tp488
(lp489
(I0
I9
I0
S'close'
p490
I0
tp491
a(I0
I9
F0.125
S'practical'
p492
I0
tp493
a(I0
I81
F1.0
S'good'
p494
I0
tp495
a(I0
I81
F0.25
S'favorite'
p496
I0
tp497
a(I2
I13
I0
S'many'
p498
I0
tp499
a(I5
I26
F1.0
S'good'
p500
I0
tp501
a(I6
I63
I0
S'close'
p502
I0
tp503
a(I6
I64
F-0.5
S'regular'
p504
I0
tp505
a(I12
I41
F-0.625
S'other'
p506
I0
tp507
as(S'mp3'
p508
S'player'
p509
tp510
(lp511
(I1
I30
F1.0
S'good'
p512
I1
tp513
a(I2
I12
F0.25
S'sweet'
p514
I1
tp515
a(I2
I12
F1.0
S'good'
p516
I1
tp517
a(I5
I241
F1.0
S'good'
p518
I1
tp519
a(I7
I28
F1.0
S'good'
p520
I1
tp521
a(I1
I30
F1.0
g512
I6
tp522
a(I2
I12
F1.0
g516
I6
tp523
a(I4
I49
F0.875
S'music'
p524
I6
tp525
a(I4
I49
F1.0
S'good'
p526
I6
tp527
a(I5
I241
F1.0
g518
I6
tp528
a(I6
I51
F1.0
S'good'
p529
I6
tp530
a(I6
I52
F-0.625
S'free'
p531
I6
tp532
a(I7
I16
I0
S'real'
p533
I6
tp534
a(I7
I28
F1.0
g520
I6
tp535
as(S'sound'
p536
S'quality'
p537
tp538
(lp539
(I5
I7
F1.0
S'good'
p540
I0
tp541
a(I5
I59
F0.5
S'utterly'
p542
I0
tp543
a(I5
I67
F-0.5
S'poor'
p544
I0
tp545
a(I6
I270
F1.0
S'good'
p546
I0
tp547
a(I6
I270
I0
S'high'
p548
I0
tp549
a(I7
I27
F1.0
S'good'
p550
I0
tp551
a(I1
I77
F-0.625
S'other'
p552
I7
tp553
a(I4
I35
F1.0
S'good'
p554
I7
tp555
a(I5
I59
F0.5
g542
I7
tp556
a(I5
I67
F-0.5
g544
I7
tp557
a(I6
I129
I0
S'great'
p558
I7
tp559
a(I7
I14
F1.0
S'good'
p560
I7
tp561
a(I7
I27
F1.0
g550
I7
tp562
as(S'power'
p563
S'button'
p564
tp565
(lp566
(I5
I144
F0.625
S'easy'
p567
I0
tp568
a(I5
I409
F-0.5
S'press'
p569
I0
tp570
a(I5
I104
F-0.625
S'green'
p571
I19
tp572
a(I6
I26
F0.5
S'clear'
p573
I19
tp574
a(I6
I26
F-0.375
S'small'
p575
I19
tp576
a(I6
I26
F0.5
S'awkward'
p577
I19
tp578
as(S'calls'
p579
tp580
(lp581
(I1
I26
F0.5
S'clear'
p582
I0
tp583
a(I5
I289
I0
S'unreasonable'
p584
I0
tp585
a(I5
I418
F0.5
S'obvious'
p586
I0
tp587
a(I6
I44
I0
S'many'
p588
I0
tp589
a(I6
I108
F-0.25
S'dropped'
p590
I0
tp591
as.