(dp0
(S'numbers'
p1
tp2
(lp3
(I3
I74
I0
S'dial'
p4
I11
tp5
a(I3
I157
I0
S'most'
p6
I11
tp7
a(I9
I6
F-0.5
S'separate'
p8
I11
tp9
a(I9
I82
I0
S'multiple'
p10
I11
tp11
a(I15
I57
F-0.75
S'difficult'
p12
I11
tp13
as(S'battery'
p14
S'life'
p15
tp16
(lp17
(I3
I225
F-0.5
S'long'
p18
I1
tp19
a(I8
I12
F1.0
S'good'
p20
I1
tp21
a(I10
I41
F0.375
S'much'
p22
I1
tp23
a(I12
I29
F0.5
S'reasonable'
p24
I1
tp25
a(I14
I169
I0
S'great'
p26
I1
tp27
a(I8
I12
F1.0
g20
I19
tp28
a(I10
I41
F0.375
g22
I19
tp29
a(I12
I29
F0.5
g24
I19
tp30
a(I3
I225
F-0.5
g18
I15
tp31
a(I8
I90
F0.375
S'new'
p32
I15
tp33
a(I11
I10
F-0.625
S'bad'
p34
I15
tp35
a(I11
I14
F-0.625
S'free'
p36
I15
tp37
a(I11
I14
I0
S'different'
p38
I15
tp39
a(I12
I42
F-0.5
S'weak'
p40
I15
tp41
a(I12
I42
F-0.375
S'daily'
p42
I15
tp43
a(I12
I95
F-0.125
S'overall'
p44
I15
tp45
a(I14
I169
I0
g26
I15
tp46
as(S'keyboard'
p47
tp48
(lp49
(I1
I99
I0
S'stable'
p50
I2
tp51
a(I2
I20
I0
S'very'
p52
I2
tp53
a(I2
I20
F0.625
S'easy'
p54
I2
tp55
a(I3
I11
I0
S'full'
p56
I2
tp57
a(I3
I70
F-0.625
S'glad'
p58
I2
tp59
a(I3
I130
F-0.375
S'top'
p60
I2
tp61
a(I3
I206
F-0.75
S'difficult'
p62
I2
tp63
a(I5
I22
F-0.5
S'open'
p64
I2
tp65
a(I8
I75
F-0.875
S'hard'
p66
I2
tp67
a(I8
I75
F1.0
S'better'
p68
I2
tp69
a(I8
I113
F1.0
S'better'
p70
I2
tp71
a(I8
I172
F-0.125
S'overall'
p72
I2
tp73
a(I8
I172
F0.125
S'solid'
p74
I2
tp75
a(I10
I85
I0
S'great'
p76
I2
tp77
a(I12
I100
F-0.75
S'little'
p78
I2
tp79
a(I14
I72
F0.875
S'nice'
p80
I2
tp81
a(I14
I151
I0
S'great'
p82
I2
tp83
a(I14
I181
F-0.75
S'impossible'
p84
I2
tp85
as(S'email'
p86
tp87
(lp88
(I3
I41
F0.5
S'touch'
p89
I5
tp90
a(I5
I62
F0.75
S'receive'
p91
I5
tp92
a(I10
I9
F-0.75
S'off'
p93
I5
tp94
a(I14
I143
F0.375
S'new'
p95
I5
tp96
a(I14
I198
F-0.125
S'slow'
p97
I5
tp98
as(S'keys'
p99
tp100
(lp101
(I8
I10
F0.625
S'easy'
p102
I9
tp103
a(I9
I10
I0
S'different'
p104
I9
tp105
a(I13
I55
I0
S'soft'
p106
I9
tp107
a(I14
I181
F-0.625
S'other'
p108
I9
tp109
a(I14
I181
F0.125
S'key'
p110
I9
tp111
as(S'a'
p112
S'pocket'
p113
S'pc'
p114
tp115
(lp116
(I3
I230
F-0.375
S'small'
p117
I0
tp118
a(I7
I55
F-0.5
S'sure'
p119
I0
tp120
a(I13
I48
F-0.25
S'past'
p121
I0
tp122
a(I3
I230
F-0.375
g117
I0
tp123
a(I7
I55
F-0.5
g119
I0
tp124
a(I13
I48
F-0.25
g121
I0
tp125
a(I1
I43
I0
S'same'
p126
I17
tp127
as(S'tmobile'
p128
tp129
(lp130
(I5
I37
I0
S'real'
p131
I0
tp132
a(I14
I131
F0.5
S'satisfied'
p133
I0
tp134
as(S'internet'
p135
S'plan'
p136
tp137
(lp138
(I3
I182
I0
S'basic'
p139
I0
tp140
a(I3
I182
F-0.125
S'cant'
p141
I0
tp142
a(I3
I184
I0
S'same'
p143
I0
tp144
a(I3
I182
I0
g139
I6
tp145
a(I3
I182
F-0.125
g141
I6
tp146
a(I3
I184
I0
g143
I6
tp147
a(I3
I240
I0
S'mobile'
p148
I6
tp149
a(I8
I153
I-100
S'replace/augment'
p150
I6
tp151
a(I12
I25
I-100
S'99/month'
p152
I6
tp153
as(S'windows'
p154
S'mobile'
p155
tp156
(lp157
(I3
I238
I0
S'mobile'
p158
I0
tp159
a(I6
I2
F0.375
S'newest'
p160
I0
tp161
a(I9
I42
I0
S'more'
p162
I0
tp163
a(I9
I42
I0
S'cool'
p164
I0
tp165
a(I3
I26
F0.375
S'new'
p166
I0
tp167
a(I3
I238
I0
g158
I0
tp168
a(I6
I2
F0.375
g160
I0
tp169
a(I9
I42
I0
g162
I0
tp170
a(I9
I64
F0.25
S'portable'
p171
I0
tp172
a(I13
I6
F1.0
S'good'
p173
I0
tp174
a(I2
I3
F-0.5
S'sure'
p175
I0
tp176
a(I9
I42
I0
g164
I0
tp177
a(I10
I31
F0.625
S'easy'
p178
I0
tp179
as(S'settings'
p180
tp181
(lp182
(I3
I26
F-0.5
S'open'
p183
I1
tp184
a(I3
I174
I0
S'many'
p185
I1
tp186
a(I3
I174
I0
S'many'
p187
I1
tp188
as(S'bluetooth'
p189
S'headset'
p190
tp191
(lp192
(I10
I66
F0.5
S'compatible'
p193
I0
tp194
a(I3
I216
F0.625
S'decent'
p195
I3
tp196
a(I10
I30
I0
S'great'
p197
I3
tp198
a(I14
I149
I0
S'great'
p199
I3
tp200
a(I14
I183
F-0.375
S'manual'
p201
I3
tp202
as(S'camera'
p203
tp204
(lp205
(I1
I120
F-0.75
S'care'
p206
I1
tp207
a(I2
I11
F0.125
S'digital'
p208
I1
tp209
a(I2
I12
F0.625
S'decent'
p210
I1
tp211
a(I3
I170
F0.625
S'kind'
p212
I1
tp213
a(I3
I170
F0.125
S'digital'
p214
I1
tp215
a(I5
I27
F0.5
S'stronger'
p216
I1
tp217
a(I10
I110
I0
S'great'
p218
I1
tp219
a(I12
I84
F0.5
S'desirable'
p220
I1
tp221
a(I12
I104
F1.0
S'good'
p222
I1
tp223
a(I14
I234
I0
S'cool'
p224
I1
tp225
as(S'reception'
p226
tp227
(lp228
(I3
I123
I0
S'crystal'
p229
I0
tp230
a(I3
I123
F0.5
S'clear'
p231
I0
tp232
a(I3
I187
F-0.625
S'bad'
p233
I0
tp234
a(I5
I7
F0.125
S'able'
p235
I0
tp236
a(I5
I7
I0
S'full'
p237
I0
tp238
a(I6
I5
F-0.5
S'poor'
p239
I0
tp240
a(I7
I3
I0
S'great'
p241
I0
tp242
a(I7
I30
I0
S'full'
p243
I0
tp244
a(I7
I46
F-0.5
S'weak'
p245
I0
tp246
a(I13
I50
F-0.5
S'poor'
p247
I0
tp248
a(I13
I84
I0
S'incredible'
p249
I0
tp250
a(I14
I209
I0
S'great'
p251
I0
tp252
as(S'direct'
p253
S'push'
p254
tp255
(lp256
(I14
I142
F-0.25
S'direct'
p257
I0
tp258
a(I14
I144
F-0.25
S'direct'
p259
I0
tp260
a(I15
I5
F-0.25
S'direct'
p261
I0
tp262
a(I15
I5
F0.375
S'available'
p263
I0
tp264
as(S'customer'
p265
S'service'
p266
tp267
(lp268
(I7
I14
I0
S'more'
p269
I3
tp270
a(I7
I14
I0
S'great'
p271
I3
tp272
a(I8
I60
F-0.875
S'awful'
p273
I3
tp274
a(I14
I121
F-0.5
S'poor'
p275
I3
tp276
a(I1
I16
F0.875
S'happy'
p277
I16
tp278
a(I7
I14
I0
g271
I16
tp279
a(I8
I60
F-0.875
g273
I16
tp280
a(I12
I26
F-0.625
S'bad'
p281
I16
tp282
a(I14
I121
F-0.5
g275
I16
tp283
as(S'mini'
p284
S'sd'
p285
S'card'
p286
tp287
(lp288
(I12
I39
F1.0
S'good'
p289
I0
tp290
a(I12
I39
F1.0
g289
I0
tp291
a(I14
I147
F0.875
S'nice'
p292
I0
tp293
a(I3
I240
I0
S'standard'
p294
I0
tp295
as(S'signal'
p296
tp297
(lp298
(I7
I28
F0.5
S'strong'
p299
I1
tp300
a(I9
I31
F1.0
S'good'
p301
I1
tp302
a(I10
I3
F-0.5
S'complaint'
p303
I1
tp304
a(I10
I3
F-0.5
S'weak'
p305
I1
tp306
a(I14
I178
F-0.25
S'low'
p307
I1
tp308
as(S'stylus'
p309
tp310
(lp311
(I3
I13
F0.5
S'awkward'
p312
I7
tp313
a(I3
I19
I0
S'dial'
p314
I7
tp315
a(I9
I35
F-0.5
S'sure'
p316
I7
tp317
a(I10
I111
I0
S'great'
p318
I7
tp319
a(I10
I111
I0
S'pic'
p320
I7
tp321
a(I12
I12
F0.375
S'available'
p322
I7
tp323
as(S'wifi'
p324
tp325
(lp326
(I8
I103
I0
S'great'
p327
I0
tp328
a(I8
I159
F0.375
S'available'
p329
I0
tp330
a(I8
I160
F0.375
S'available'
p331
I0
tp332
a(I14
I36
F-0.625
S'free'
p333
I0
tp334
a(I14
I138
I0
S'great'
p335
I0
tp336
a(I15
I24
F-0.875
S'hard'
p337
I0
tp338
a(I15
I24
F0.875
S'nice'
p339
I0
tp340
as(S'palm'
p341
tp342
(lp343
(I8
I42
I0
S'own'
p344
I1
tp345
as(S'learning'
p346
S'curve'
p347
tp348
(lp349
(I3
I79
F0.375
S'steeper'
p350
I2
tp351
a(I3
I217
I0
S'extensive'
p352
I2
tp353
a(I14
I12
F0.5
S'willing'
p354
I2
tp355
a(I14
I12
I0
S'different'
p356
I2
tp357
as(S'memory'
p358
S'running'
p359
S'programs'
p360
tp361
(lp362
(I1
I122
I0
S'close'
p363
I0
tp364
a(I1
I139
I0
S'closing'
p365
I8
tp366
a(I3
I12
I0
S'internal'
p367
I5
tp368
a(I10
I90
I0
S'wish'
p369
I5
tp370
a(I10
I90
I0
S'more'
p371
I5
tp372
a(I10
I90
F1.0
S'better'
p373
I5
tp374
as(S'network'
p375
tp376
(lp377
(I8
I63
F0.125
S'able'
p378
I0
tp379
a(I13
I32
F0.5
S'temporary'
p380
I0
tp381
as(S'wireless'
p382
tp383
(lp384
(I6
I12
F0.125
S'first'
p385
I0
tp386
as(S'watch'
p387
S'movies'
p388
tp389
(lp390
(I2
I22
I0
S'dvd'
p391
I1
tp392
as(S'calls'
p393
tp394
(lp395
(I3
I122
F0.75
S'contrary'
p396
I0
tp397
a(I5
I6
I0
S'crystal'
p398
I0
tp399
a(I5
I6
F0.5
S'clear'
p400
I0
tp401
a(I5
I7
F0.5
S'clear'
p402
I0
tp403
a(I8
I67
I0
S'few'
p404
I0
tp405
a(I8
I67
F-0.25
S'dropped'
p406
I0
tp407
as(S'form'
p408
S'factor'
p409
tp410
(lp411
(I10
I85
I0
S'great'
p412
I1
tp413
a(I12
I98
I0
S'big'
p414
I1
tp415
a(I14
I51
F0.875
S'nice'
p416
I1
tp417
a(I14
I51
F-0.375
S'small'
p418
I1
tp419
as(S'text'
p420
S'messages'
p421
tp422
(lp423
(I3
I185
I0
S'charged'
p424
I0
tp425
a(I9
I23
I0
S'arrive'
p426
I0
tp427
a(I12
I9
F-0.375
S'daily'
p428
I0
tp429
a(I12
I9
I0
S'multiple'
p430
I0
tp431
a(I12
I30
I0
S'text'
p432
I0
tp433
as(S'gig'
p434
S'mini'
p435
S'sd'
p436
tp437
(lp438
(I14
I49
F-0.625
S'free'
p439
I0
tp440
as(S'data'
p441
tp442
(lp443
(I3
I64
F0.625
S'perfect'
p444
I13
tp445
a(I8
I0
I0
S'full'
p446
I13
tp447
a(I12
I72
F-0.75
S'impossible'
p448
I13
tp449
as(S'much'
p450
S'better'
p451
tp452
(lp453
(I8
I125
F0.375
S'much'
p454
I9
tp455
a(I9
I33
F0.375
S'much'
p456
I9
tp457
as(S'switch'
p458
S'modes'
p459
tp460
(lp461
(I14
I8
F-0.125
S'delete'
p462
I0
tp463
a(I14
I8
F-0.125
S'delete'
p464
I0
tp465
as(S'touch'
p466
S'screen'
p467
tp468
(lp469
(I1
I6
F0.5
S'touch'
p470
I2
tp471
a(I1
I108
F0.5
S'touch'
p472
I2
tp473
a(I1
I139
F0.75
S'due'
p474
I2
tp475
a(I3
I25
F0.5
S'touch'
p476
I2
tp477
a(I3
I27
I0
S'great'
p478
I2
tp479
a(I3
I73
F0.5
S'touch'
p480
I2
tp481
a(I3
I97
F0.5
S'touch'
p482
I2
tp483
a(I3
I156
F0.5
S'touch'
p484
I2
tp485
a(I3
I212
F0.5
S'touch'
p486
I2
tp487
a(I7
I40
F0.5
S'touch'
p488
I2
tp489
a(I8
I9
F-0.75
S'dirty'
p490
I2
tp491
a(I8
I50
F0.5
S'touch'
p492
I2
tp493
a(I8
I140
F0.5
S'touch'
p494
I2
tp495
a(I8
I142
F0.5
S'touch'
p496
I2
tp497
a(I9
I13
F0.5
S'touch'
p498
I2
tp499
a(I12
I87
F-0.75
S'impossible'
p500
I2
tp501
a(I14
I150
I0
S'great'
p502
I2
tp503
a(I15
I41
F0.5
S'touch'
p504
I2
tp505
as(S'sidekick'
p506
tp507
(lp508
(I7
I27
F0.25
S'original'
p509
I0
tp510
a(I14
I22
F0.375
S'new'
p511
I0
tp512
as(S'sound'
p513
S'quality'
p514
tp515
(lp516
(I3
I155
F1.0
S'good'
p517
I0
tp518
a(I5
I44
I0
S'real'
p519
I0
tp520
a(I5
I44
F1.0
S'good'
p521
I0
tp522
a(I5
I44
F0.375
S'loud'
p523
I0
tp524
a(I5
I65
F-0.625
S'bad'
p525
I0
tp526
a(I5
I66
I0
S'crystal'
p527
I0
tp528
a(I9
I16
F1.0
S'better'
p529
I0
tp530
a(I11
I57
F-0.875
S'awful'
p531
I0
tp532
a(I15
I57
F-0.5
S'poor'
p533
I0
tp534
as(S'text'
p535
S'messaging'
p536
tp537
(lp538
(I3
I129
I0
S'big'
p539
I0
tp540
a(I3
I184
F0.5
S'rid'
p541
I0
tp542
a(I3
I185
I0
g424
I0
tp543
a(I3
I185
I0
S'text'
p544
I0
tp545
a(I12
I4
F-0.5
S'regular'
p546
I0
tp547
a(I12
I9
F-0.375
g428
I0
tp548
a(I12
I9
I0
g430
I0
tp549
a(I12
I30
F-0.75
S'unreliable'
p550
I0
tp551
a(I3
I129
I0
g539
I18
tp552
a(I3
I131
I0
S'quick'
p553
I18
tp554
a(I3
I131
F0.625
S'easy'
p555
I18
tp556
a(I3
I184
F0.5
g541
I18
tp557
a(I3
I185
I0
g424
I18
tp558
a(I12
I4
F-0.5
g546
I18
tp559
a(I12
I9
F-0.375
g428
I18
tp560
a(I12
I9
I0
g430
I18
tp561
a(I3
I185
I0
g544
I0
tp562
a(I5
I60
I0
S'instant'
p563
I0
tp564
a(I10
I37
F0.625
S'easy'
p565
I0
tp566
a(I10
I104
I0
S'instant'
p567
I0
tp568
a(I12
I30
F-0.75
g550
I0
tp569
as(S'travel'
p570
S'charger'
p571
tp572
(lp573
(I10
I65
I0
S'useful'
p574
I1
tp575
as(S'treo'
p576
tp577
(lp578
(I3
I51
I0
S'more'
p579
I0
tp580
a(I3
I196
I0
S'old'
p581
I0
tp582
a(I7
I23
F0.75
S'due'
p583
I0
tp584
as.