(dp0
(S'text'
p1
S'message'
p2
tp3
(lp4
(I8
I75
I0
S'many'
p5
I0
tp6
a(I8
I193
F0.25
S'read'
p7
I0
tp8
as(S'compact'
p9
tp10
(lp11
(I7
I239
F-0.375
S'small'
p12
I8
tp13
as(S'battery'
p14
S'life'
p15
tp16
(lp17
(I2
I7
I0
S'signal'
p18
I1
tp19
a(I7
I88
F1.0
S'good'
p20
I1
tp21
a(I7
I130
F-0.75
S'short'
p22
I1
tp23
a(I7
I157
F-0.5
S'long'
p24
I1
tp25
a(I7
I181
F1.0
S'good'
p26
I1
tp27
a(I7
I266
I0
S'great'
p28
I1
tp29
a(I7
I319
I0
S'great'
p30
I1
tp31
a(I9
I2
F-0.375
S'near'
p32
I1
tp33
a(I2
I7
I0
g18
I19
tp34
a(I7
I88
F1.0
g20
I19
tp35
a(I7
I130
F-0.75
g22
I19
tp36
a(I7
I181
F1.0
g26
I19
tp37
a(I7
I266
I0
g28
I19
tp38
a(I7
I319
I0
g30
I19
tp39
a(I9
I2
F-0.375
g32
I19
tp40
a(I2
I114
F-0.5
S'weak'
p41
I15
tp42
a(I2
I115
I0
S'full'
p43
I15
tp44
a(I2
I115
I0
S'charged'
p45
I15
tp46
a(I2
I115
F0.125
S'last'
p47
I15
tp48
a(I2
I133
F0.375
S'new'
p49
I15
tp50
a(I5
I40
F0.125
S'last'
p51
I15
tp52
a(I7
I157
F-0.5
g24
I15
tp53
as(S'email'
p54
tp55
(lp56
(I1
I95
F0.625
S'decent'
p57
I5
tp58
a(I5
I26
F-0.875
S'negative'
p59
I5
tp60
a(I5
I28
I0
S'common'
p61
I5
tp62
a(I7
I126
I0
S'useful'
p63
I5
tp64
a(I7
I199
F-0.625
S'light'
p65
I5
tp66
as(S'ring'
p67
S'tones'
p68
tp69
(lp70
(I5
I2
I0
S'own'
p71
I0
tp72
a(I7
I76
F0.875
S'nice'
p73
I0
tp74
as(S'motorola'
p75
tp76
(lp77
(I1
I125
F-0.625
S'other'
p78
I0
tp79
a(I1
I145
F-0.625
S'other'
p80
I0
tp81
a(I2
I136
F0.875
S'nice'
p82
I0
tp83
a(I7
I63
I0
S'mobile'
p84
I0
tp85
a(I7
I172
I0
S'most'
p86
I0
tp87
a(I7
I176
I0
S'old'
p88
I0
tp89
a(I8
I5
F0.875
S'happy'
p90
I0
tp91
a(I8
I101
F0.125
S'first'
p92
I0
tp93
a(I8
I179
F0.875
S'happy'
p94
I0
tp95
as(S'talk'
p96
tp97
(lp98
(I1
I108
F-0.5
S'long'
p99
I13
tp100
a(I2
I108
I0
S'cable'
p101
I13
tp102
a(I7
I1
F-0.625
S'green'
p103
I13
tp104
as(S'overall'
p105
tp106
(lp107
(I2
I74
F1.0
S'best'
p108
I12
tp109
as(S'phonebook'
p110
tp111
(lp112
(I1
I52
F-0.75
S'difficult'
p113
I0
tp114
a(I2
I119
I0
S'different'
p115
I0
tp116
a(I7
I190
F-0.375
S'nag'
p117
I0
tp118
a(I7
I191
F-0.875
S'worst'
p119
I0
tp120
a(I7
I193
I0
S'filter'
p121
I0
tp122
a(I7
I201
F0.75
S'due'
p123
I0
tp124
a(I7
I294
F-0.75
S'difficult'
p125
I0
tp126
a(I8
I215
F-0.875
S'hard'
p127
I0
tp128
as(S'camera'
p129
tp130
(lp131
(I1
I60
F-0.625
S'other'
p132
I1
tp133
a(I1
I116
F1.0
S'best'
p134
I1
tp135
a(I1
I183
F1.0
S'best'
p136
I1
tp137
a(I2
I44
F0.625
S'easy'
p138
I1
tp139
a(I7
I184
F1.0
S'good'
p140
I1
tp141
a(I7
I245
F0.125
S'digital'
p142
I1
tp143
a(I7
I318
I0
S'e-mail'
p144
I1
tp145
a(I8
I116
I0
S'vertical'
p146
I1
tp147
as(S'qwerty'
p148
S'keyboard'
p149
tp150
(lp151
(I1
I61
I0
S'more'
p152
I0
tp153
a(I1
I95
F-0.375
S'small'
p154
I0
tp155
a(I2
I128
F0.25
S'bigger'
p156
I0
tp157
a(I2
I128
F0.625
S'easy'
p158
I0
tp159
a(I7
I240
F0.75
S'worth'
p160
I0
tp161
a(I8
I173
F1.0
S'best'
p162
I0
tp163
a(I8
I173
F0.75
S'due'
p164
I0
tp165
a(I1
I13
F-0.375
S'small'
p166
I0
tp167
a(I2
I128
F0.25
g156
I0
tp168
a(I8
I85
F1.0
S'best'
p169
I0
tp170
a(I8
I173
F1.0
g162
I0
tp171
a(I8
I173
F0.75
g164
I0
tp172
a(I1
I61
I0
g152
I2
tp173
a(I1
I62
F-0.375
S'small'
p174
I2
tp175
a(I1
I62
F0.625
S'easy'
p176
I2
tp177
a(I1
I95
F-0.375
g154
I2
tp178
a(I1
I176
I0
S'full'
p179
I2
tp180
a(I1
I180
F1.0
S'good'
p181
I2
tp182
a(I2
I4
F-0.75
S'little'
p183
I2
tp184
a(I2
I4
I0
S'great'
p185
I2
tp186
a(I2
I15
F1.0
S'good'
p187
I2
tp188
a(I2
I15
F1.0
S'good'
p189
I2
tp190
a(I2
I128
F0.625
g158
I2
tp191
a(I5
I8
I0
S'external'
p192
I2
tp193
a(I5
I38
F0.5
S'slick'
p194
I2
tp195
a(I5
I44
F-0.75
S'comfortable'
p196
I2
tp197
a(I7
I0
F1.0
S'good'
p198
I2
tp199
a(I7
I158
I0
S'real'
p200
I2
tp201
a(I7
I177
I0
S'same'
p202
I2
tp203
a(I7
I177
F0.625
S'easy'
p204
I2
tp205
a(I7
I231
F0.125
S'able'
p206
I2
tp207
a(I7
I240
F0.75
g160
I2
tp208
a(I7
I270
F1.0
S'good'
p209
I2
tp210
a(I7
I281
I0
S'full'
p211
I2
tp212
a(I8
I97
F-0.625
S'bad'
p213
I2
tp214
a(I8
I97
F0.625
S'easy'
p215
I2
tp216
a(I9
I29
I0
S'full'
p217
I2
tp218
a(I9
I29
F0.875
S'nice'
p219
I2
tp220
as(S'reception'
p221
tp222
(lp223
(I1
I189
F1.0
S'better'
p224
I0
tp225
a(I7
I8
F-0.5
S'poor'
p226
I0
tp227
a(I7
I167
F0.5
S'stylish'
p228
I0
tp229
a(I7
I167
I0
S'great'
p230
I0
tp231
a(I8
I47
F0.5
S'clear'
p232
I0
tp233
a(I8
I251
F1.0
S'good'
p234
I0
tp235
as(S'button'
p236
tp237
(lp238
(I1
I206
F-0.125
S'slow'
p239
I19
tp240
a(I2
I50
I-100
S'talk/activate'
p241
I19
tp242
a(I7
I18
F-0.125
S'directional'
p243
I19
tp244
as(S'mobile'
p245
tp246
(lp247
(I5
I21
F1.0
S'good'
p248
I0
tp249
as(S'signal'
p250
tp251
(lp252
(I1
I106
F-0.25
S'low'
p253
I1
tp254
a(I7
I355
I0
S'adequate'
p255
I1
tp256
a(I7
I362
F0.5
S'clear'
p257
I1
tp258
as(S'a630'
p259
tp260
(lp261
(I1
I100
F0.375
S'new'
p262
I0
tp263
a(I5
I22
F0.625
S'positive'
p264
I0
tp265
a(I5
I41
F1.0
S'best'
p266
I0
tp267
a(I7
I170
I0
S'cool'
p268
I0
tp269
a(I7
I201
F-0.125
S'overall'
p270
I0
tp271
a(I7
I325
F-0.5
S'sure'
p272
I0
tp273
a(I8
I74
I0
S'more'
p274
I0
tp275
as(S'long'
p276
S'time'
p277
tp278
(lp279
(I1
I130
F-0.5
S'long'
p280
I13
tp281
a(I8
I16
F0.625
S'easy'
p282
I13
tp283
a(I8
I16
F-0.5
S'long'
p284
I13
tp285
a(I8
I18
F-0.5
S'long'
p286
I13
tp287
a(I8
I93
F-0.5
S'long'
p288
I13
tp289
a(I8
I94
F-0.5
S'long'
p290
I13
tp291
a(I10
I20
F-0.5
S'long'
p292
I13
tp293
as(S'charging'
p294
tp295
(lp296
(I1
I193
F-0.5
S'poor'
p297
I12
tp298
a(I7
I82
I0
S'most'
p299
I12
tp300
as(S'voice'
p301
tp302
(lp303
(I0
I13
F0.125
S'outside'
p304
I4
tp305
a(I1
I148
F-0.25
S'cheapest'
p306
I4
tp307
as(S'biggest'
p308
S'problem'
p309
tp310
(lp311
(I1
I223
F0.125
S'first'
p312
I0
tp313
a(I1
I223
F0.25
S'biggest'
p314
I0
tp315
a(I1
I228
F0.25
S'biggest'
p316
I0
tp317
a(I2
I8
F0.25
S'biggest'
p318
I0
tp319
as(S'first'
p320
S'letter'
p321
tp322
(lp323
(I4
I0
F0.125
S'first'
p324
I0
tp325
a(I4
I0
F-0.125
S'delete'
p326
I0
tp327
a(I4
I0
F0.125
S'first'
p328
I0
tp329
a(I7
I133
F0.125
S'first'
p330
I0
tp331
a(I7
I137
F0.125
S'first'
p332
I0
tp333
a(I7
I138
F0.125
S'first'
p334
I0
tp335
as(S'e'
p336
S'mail'
p337
tp338
(lp339
(I1
I136
F0.375
S'new'
p340
I2
tp341
as(S'calls'
p342
tp343
(lp344
(I2
I23
F0.125
S'able'
p345
I0
tp346
a(I2
I24
F-0.625
S'other'
p347
I0
tp348
a(I8
I49
F0.5
S'hi-tech'
p349
I0
tp350
a(I8
I49
I0
S'least'
p351
I0
tp352
a(I8
I61
F0.125
S'able'
p353
I0
tp354
a(I8
I207
I0
S'many'
p355
I0
tp356
as(S'heavy'
p357
S'use'
p358
tp359
(lp360
(I7
I132
I0
S'normal'
p361
I1
tp362
a(I7
I132
F-0.5
S'heavy'
p363
I1
tp364
a(I7
I150
F-0.5
S'heavy'
p365
I1
tp366
a(I7
I181
F-0.5
S'heavy'
p367
I1
tp368
a(I7
I199
F-0.5
S'heavy'
p369
I1
tp370
a(I8
I206
F-0.5
S'heavy'
p371
I1
tp372
as(S'text'
p373
S'messages'
p374
tp375
(lp376
(I8
I75
I0
g5
I0
tp377
a(I8
I193
F0.25
g7
I0
tp378
a(I9
I29
I-100
S'text/instant'
p379
I0
tp380
a(I8
I36
F0.625
S'easy'
p381
I18
tp382
a(I8
I75
I0
g5
I18
tp383
a(I8
I193
F0.25
g7
I18
tp384
as(S'speaker'
p385
tp386
(lp387
(I1
I118
I0
S'internal'
p388
I8
tp389
a(I7
I77
F0.375
S'loud'
p390
I8
tp391
as(S'key'
p392
S'lock'
p393
tp394
(lp395
(I8
I198
F0.125
S'key'
p396
I0
tp397
as(S'bluetooth'
p398
S'headset'
p399
tp400
(lp401
(I7
I262
I0
S'great'
p402
I0
tp403
a(I7
I305
I0
S'cool'
p404
I0
tp405
a(I7
I305
F0.625
S'easy'
p406
I0
tp407
a(I8
I247
I0
S'later'
p408
I0
tp409
a(I1
I54
F-0.5
S'flimsy'
p410
I0
tp411
a(I7
I71
I0
S'great'
p412
I0
tp413
a(I7
I305
F0.625
g406
I0
tp414
a(I8
I247
I0
g408
I0
tp415
a(I1
I119
F0.125
S'solid'
p416
I3
tp417
a(I1
I147
I0
S'great'
p418
I3
tp419
a(I2
I100
F0.5
S'expensive'
p420
I3
tp421
a(I5
I41
F-0.625
S'want'
p422
I3
tp423
a(I7
I262
I0
g402
I3
tp424
a(I7
I305
I0
g404
I3
tp425
as(S'customer'
p426
S'service'
p427
tp428
(lp429
(I8
I7
F0.5
S'technical'
p430
I3
tp431
a(I8
I7
F0.75
S'due'
p432
I3
tp433
a(I2
I62
F-0.625
S'free'
p434
I16
tp435
a(I7
I52
F0.5
S'clear'
p436
I16
tp437
a(I7
I66
I0
S'many'
p438
I16
tp439
a(I8
I7
F0.5
g430
I16
tp440
a(I8
I94
F1.0
S'good'
p441
I16
tp442
a(I10
I9
F0.375
S'new'
p443
I16
tp444
as(S'volume'
p445
tp446
(lp447
(I1
I26
F-0.5
S'weak'
p448
I6
tp449
a(I1
I144
F-0.25
S'low'
p450
I6
tp451
a(I2
I69
F-0.75
S'little'
p452
I6
tp453
a(I2
I69
F-0.125
S'slow'
p454
I6
tp455
a(I7
I151
I0
S'full'
p456
I6
tp457
as(S'amazon'
p458
tp459
(lp460
(I1
I28
F-0.625
S'free'
p461
I13
tp462
a(I1
I28
I0
S'rebate'
p463
I13
tp464
a(I1
I33
I0
S'least'
p465
I13
tp466
a(I7
I285
I0
S'rebate'
p467
I13
tp468
as(S'flip'
p469
tp470
(lp471
(I1
I89
F-0.5
S'open'
p472
I4
tp473
a(I1
I190
F0.25
S'bigger'
p474
I4
tp475
a(I8
I111
F-0.125
S'mine'
p476
I4
tp477
as(S'sound'
p478
S'quality'
p479
tp480
(lp481
(I0
I11
F1.0
S'good'
p482
I0
tp483
a(I0
I11
F0.125
S'outside'
p484
I0
tp485
a(I1
I1
F1.0
S'good'
p486
I0
tp487
a(I5
I22
F1.0
S'good'
p488
I0
tp489
as.