(dp0
(S'memory'
p1
S'card'
p2
tp3
(lp4
(I0
I31
F1.0
S'good'
p5
I0
tp6
a(I11
I41
I0
S'internal'
p7
I0
tp8
a(I34
I116
I0
S'internal'
p9
I0
tp10
as(S'battery'
p11
S'life'
p12
tp13
(lp14
(I1
I1
I0
S'great'
p15
I1
tp16
a(I11
I123
I0
S'sturdy'
p17
I1
tp18
a(I11
I123
F0.375
S'reliable'
p19
I1
tp20
a(I11
I123
I0
S'great'
p21
I1
tp22
a(I11
I123
I0
S'great'
p23
I1
tp24
a(I11
I129
F0.375
S'reliable'
p25
I1
tp26
a(I13
I1
I0
S'only'
p27
I1
tp28
a(I13
I1
F-0.875
S'negative'
p29
I1
tp30
a(I13
I1
F-0.75
S'short'
p31
I1
tp32
a(I19
I26
F1.0
S'good'
p33
I1
tp34
a(I22
I26
I0
S'great'
p35
I1
tp36
a(I26
I13
I0
S'great'
p37
I1
tp38
a(I27
I32
F1.0
S'good'
p39
I1
tp40
a(I0
I52
F-0.625
S'free'
p41
I19
tp42
a(I11
I123
I0
g23
I19
tp43
a(I13
I1
F-0.75
g31
I19
tp44
a(I19
I26
F1.0
g33
I19
tp45
a(I22
I26
I0
g35
I19
tp46
a(I26
I13
I0
g37
I19
tp47
a(I27
I32
F1.0
g39
I19
tp48
a(I1
I1
I0
g15
I15
tp49
a(I11
I13
I0
S'standard'
p50
I15
tp51
a(I11
I123
I0
g17
I15
tp52
a(I11
I123
F0.375
g19
I15
tp53
a(I11
I123
I0
g21
I15
tp54
a(I11
I129
F0.375
g25
I15
tp55
a(I13
I1
I0
g27
I15
tp56
a(I13
I1
F-0.875
g29
I15
tp57
a(I21
I3
F0.25
S'original'
p58
I15
tp59
a(I22
I34
F0.375
S'new'
p60
I15
tp61
a(I28
I90
I0
S'full'
p62
I15
tp63
a(I31
I13
F-0.25
S'low'
p64
I15
tp65
a(I32
I5
F-0.625
S'bad'
p66
I15
tp67
a(I34
I57
F0.375
S'extended'
p68
I15
tp69
a(I37
I18
F0.375
S'new'
p70
I15
tp71
a(I37
I19
F0.375
S'new'
p72
I15
tp73
a(I37
I47
F0.125
S'last'
p74
I15
tp75
a(I38
I23
F0.5
S'functional'
p76
I15
tp77
as(S'music'
p78
S'essentials'
p79
S'kit'
p80
tp81
(lp82
(I0
I30
F0.875
S'music'
p83
I0
tp84
a(I11
I173
F0.875
S'music'
p85
I0
tp86
a(I15
I0
I0
S'own'
p87
I0
tp88
a(I34
I53
F0.875
S'music'
p89
I0
tp90
a(I34
I113
F0.875
S'music'
p91
I0
tp92
a(I34
I113
F0.875
S'music'
p93
I0
tp94
a(I11
I173
F0.875
g85
I0
tp95
a(I15
I0
I0
g87
I0
tp96
a(I34
I53
F0.875
g89
I0
tp97
a(I34
I113
F0.875
g91
I0
tp98
a(I0
I30
F0.875
g83
I0
tp99
a(I11
I173
F0.875
g85
I0
tp100
a(I34
I53
F0.875
g89
I0
tp101
a(I34
I113
F0.875
g91
I0
tp102
a(I34
I113
F0.875
g93
I0
tp103
a(I0
I35
F1.0
S'good'
p104
I0
tp105
a(I0
I40
F-0.625
S'other'
p106
I0
tp107
a(I15
I0
I0
g87
I0
tp108
as(S'text'
p109
tp110
(lp111
(I11
I143
I0
S'arbitrary'
p112
I18
tp113
a(I21
I52
I0
S'same'
p114
I18
tp115
a(I28
I38
F0.375
S'new'
p116
I18
tp117
a(I28
I38
F-0.375
S'simple'
p118
I18
tp119
a(I28
I38
F0.625
S'easy'
p120
I18
tp121
as(S'service'
p122
tp123
(lp124
(I1
I25
F-0.625
S'average'
p125
I16
tp126
a(I18
I22
I0
S'great'
p127
I16
tp128
a(I18
I22
I0
S'great'
p129
I16
tp130
a(I19
I9
F0.375
S'reliable'
p131
I16
tp132
a(I19
I47
F1.0
S'better'
p133
I16
tp134
a(I21
I72
F0.5
S'comparable'
p135
I16
tp136
a(I27
I5
I0
S'same'
p137
I16
tp138
a(I28
I16
I0
S'great'
p139
I16
tp140
a(I33
I66
F1.0
S'good'
p141
I16
tp142
a(I34
I39
F-0.5
S'try'
p143
I16
tp144
a(I34
I172
F0.125
S'solid'
p145
I16
tp146
a(I38
I14
I0
S'great'
p147
I16
tp148
as(S'bells'
p149
S'and'
p150
S'whistles'
p151
tp152
(lp153
(I30
I40
F0.375
S'extra'
p154
I0
tp155
as(S'camera'
p156
tp157
(lp158
(I1
I1
F1.0
S'good'
p159
I1
tp160
a(I1
I35
I0
S'incredible'
p161
I1
tp162
a(I6
I27
F1.0
S'better'
p163
I1
tp164
a(I11
I64
I0
S'useful'
p165
I1
tp166
a(I11
I69
F0.125
S'capable'
p167
I1
tp168
a(I14
I25
I0
S'great'
p169
I1
tp170
a(I26
I6
F-0.875
S'trouble'
p171
I1
tp172
a(I26
I28
I0
S'real'
p173
I1
tp174
a(I27
I26
F1.0
S'good'
p175
I1
tp176
a(I27
I30
I0
S'same'
p177
I1
tp178
a(I30
I11
I0
S'great'
p179
I1
tp180
a(I30
I27
F0.125
S'digital'
p181
I1
tp182
a(I34
I170
F0.875
S'important'
p183
I1
tp184
as(S'bluetooth'
p185
tp186
(lp187
(I0
I13
I0
S'standard'
p188
I3
tp189
a(I11
I32
F-0.625
S'other'
p190
I3
tp191
a(I21
I6
F-0.875
S'trouble'
p192
I3
tp193
a(I21
I56
I0
S'great'
p194
I3
tp195
a(I21
I62
I0
S'great'
p196
I3
tp197
a(I37
I15
F1.0
S'good'
p198
I3
tp199
as(S'reception'
p200
tp201
(lp202
(I1
I1
I0
S'great'
p203
I0
tp204
a(I3
I4
I0
S'great'
p205
I0
tp206
a(I9
I14
F1.0
S'best'
p207
I0
tp208
a(I9
I29
F1.0
S'good'
p209
I0
tp210
a(I11
I107
I0
S'great'
p211
I0
tp212
a(I11
I108
F1.0
S'best'
p213
I0
tp214
a(I11
I113
F1.0
S'good'
p215
I0
tp216
a(I11
I113
F-0.5
S'sure'
p217
I0
tp218
a(I16
I0
I0
S'great'
p219
I0
tp220
a(I19
I6
F-0.625
S'average'
p221
I0
tp222
a(I26
I19
I0
S'great'
p223
I0
tp224
a(I27
I18
F0.625
S'perfect'
p225
I0
tp226
a(I30
I29
F-0.875
S'inferior'
p227
I0
tp228
a(I37
I21
F1.0
S'good'
p229
I0
tp230
a(I37
I23
F1.0
S'better'
p231
I0
tp232
a(I38
I1
F-0.25
S'disappointing'
p233
I0
tp234
as(S'blue'
p235
S'tooth'
p236
tp237
(lp238
(I9
I1
I0
S'great'
p239
I0
tp240
a(I30
I37
I0
S'blue'
p241
I0
tp242
a(I36
I6
F-0.5
S'certain'
p243
I0
tp244
as(S'v'
p245
S'cast'
p246
tp247
(lp248
(I0
I34
F0.875
S'music'
p249
I0
tp250
a(I0
I41
F0.125
S'capable'
p251
I0
tp252
as(S'ring'
p253
S'tones'
p254
tp255
(lp256
(I26
I34
F1.0
S'good'
p257
I0
tp258
as(S'menu'
p259
tp260
(lp261
(I11
I137
I0
S'least'
p262
I2
tp263
a(I19
I88
F-0.5
S'inefficient'
p264
I2
tp265
a(I21
I45
F-0.375
S'simple'
p266
I2
tp267
a(I27
I24
I0
S'special'
p268
I2
tp269
a(I33
I47
I0
S'different'
p270
I2
tp271
as(S'vcast'
p272
tp273
(lp274
(I18
I13
F-0.625
S'other'
p275
I0
tp276
as(S'button'
p277
tp278
(lp279
(I11
I100
F-0.625
S'push'
p280
I19
tp281
a(I19
I67
F0.5
S'clear'
p282
I19
tp283
a(I34
I121
F0.875
S'music'
p284
I19
tp285
a(I37
I35
F-0.75
S'wrong'
p286
I19
tp287
as(S'in'
p288
S'great'
p289
S'condition'
p290
tp291
(lp292
(I14
I45
I0
S'great'
p293
I6
tp294
a(I22
I9
I0
S'great'
p295
I6
tp296
a(I26
I58
I0
S'great'
p297
I6
tp298
a(I27
I0
I0
S'great'
p299
I6
tp300
a(I30
I21
F0.375
S'new'
p301
I6
tp302
a(I30
I21
I0
S'great'
p303
I6
tp304
a(I32
I2
I0
S'great'
p305
I6
tp306
a(I33
I36
I0
S'great'
p307
I6
tp308
as(S'hold'
p309
S'a'
p310
S'charge'
p311
tp312
(lp313
(I22
I33
I0
S'more'
p314
I0
tp315
a(I37
I43
F-0.5
S'long'
p316
I0
tp317
as(S'speakerphone'
p318
tp319
(lp320
(I1
I4
F1.0
S'good'
p321
I0
tp322
a(I1
I30
F0.5
S'clear'
p323
I0
tp324
a(I6
I32
F1.0
S'better'
p325
I0
tp326
a(I9
I19
F0.5
S'clear'
p327
I0
tp328
a(I11
I171
F1.0
S'good'
p329
I0
tp330
a(I26
I11
F0.5
S'clear'
p331
I0
tp332
a(I31
I31
I0
S'great'
p333
I0
tp334
as(S'speaker'
p335
tp336
(lp337
(I21
I16
I0
S'great'
p338
I8
tp339
a(I30
I8
I0
S'large'
p340
I8
tp341
as(S'display'
p342
S'themes'
p343
tp344
(lp345
(I26
I15
I0
S'different'
p346
I0
tp347
as(g310
S'long'
p348
S'time'
p349
tp350
(lp351
(I7
I2
F-0.5
S'long'
p352
I12
tp353
a(I28
I125
F-0.5
S'long'
p354
I12
tp355
a(I30
I3
F-0.5
S'long'
p356
I12
tp357
a(I30
I44
F-0.5
S'long'
p358
I12
tp359
a(I37
I47
F-0.5
S'long'
p360
I12
tp361
a(I37
I47
I0
S'hot'
p362
I12
tp363
as(S'ringtones'
p364
tp365
(lp366
(I0
I4
F-0.625
S'free'
p367
I0
tp368
a(I6
I26
F0.875
S'music'
p369
I0
tp370
a(I9
I21
F1.0
S'good'
p371
I0
tp372
a(I11
I26
I0
S'obsessive'
p373
I0
tp374
a(I11
I28
I0
S'latest'
p375
I0
tp376
a(I11
I74
F-0.5
S'dull'
p377
I0
tp378
a(I19
I86
F-0.375
S'manual'
p379
I0
tp380
a(I19
I86
F0.875
S'music'
p381
I0
tp382
a(I25
I13
F-0.875
S'awful'
p383
I0
tp384
a(I27
I36
I0
S'own'
p385
I0
tp386
a(I27
I36
F-0.625
S'free'
p387
I0
tp388
a(I28
I26
F0.375
S'loud'
p389
I0
tp390
a(I28
I72
I0
S'website'
p391
I0
tp392
a(I28
I72
I0
S'own'
p393
I0
tp394
a(I33
I61
I0
S'own'
p395
I0
tp396
a(I34
I70
I0
S'least'
p397
I0
tp398
a(I37
I12
I0
S'few'
p399
I0
tp400
as(S'caller'
p401
S'id'
p402
tp403
(lp404
(I11
I24
F-0.5
S'undesirable'
p405
I0
tp406
as(S'buttons'
p407
tp408
(lp409
(I4
I10
F0.625
S'easier'
p410
I13
tp411
a(I6
I36
I0
S'more'
p412
I13
tp413
a(I9
I12
I0
S'sensitive'
p414
I13
tp415
a(I11
I75
I0
S'external'
p416
I13
tp417
a(I14
I3
F-0.375
S'small'
p418
I13
tp419
a(I19
I22
F0.625
S'easy'
p420
I13
tp421
a(I28
I15
I0
S'large'
p422
I13
tp423
a(I28
I15
F0.625
S'easy'
p424
I13
tp425
a(I28
I108
I0
S'big'
p426
I13
tp427
a(I28
I108
F0.625
S'easy'
p428
I13
tp429
a(I33
I78
I0
S'make-up'
p430
I13
tp431
as(S'calls'
p432
tp433
(lp434
(I13
I5
F0.5
S'clear'
p435
I0
tp436
a(I13
I5
F-0.25
S'droped'
p437
I0
tp438
a(I19
I78
I0
S'many'
p439
I0
tp440
a(I21
I14
I0
S'most'
p441
I0
tp442
a(I21
I83
F-0.5
S'less'
p443
I0
tp444
a(I21
I91
I0
S'text'
p445
I0
tp446
a(I21
I91
F0.125
S'capable'
p447
I0
tp448
a(I27
I17
F0.5
S'clear'
p449
I0
tp450
a(I34
I7
F0.5
S'clearer'
p451
I0
tp452
a(I34
I7
F-0.625
S'other'
p453
I0
tp454
a(I37
I36
F0.125
S'valid'
p455
I0
tp456
as(S'mp3'
p457
S'player'
p458
tp459
(lp460
(I19
I83
I0
S'few'
p461
I1
tp462
as(S'contacts'
p463
tp464
(lp465
(I11
I21
I0
S'different'
p466
I0
tp467
a(I11
I25
F-0.625
S'bad'
p468
I0
tp469
a(I27
I19
F0.625
S'easy'
p470
I0
tp471
a(I28
I41
I0
S'different'
p472
I0
tp473
as(S'voice'
p474
S'command'
p475
tp476
(lp477
(I11
I22
F0.5
S'matching'
p478
I0
tp479
a(I11
I22
I0
S'own'
p480
I0
tp481
a(I34
I89
F0.125
S'first'
p482
I0
tp483
as(g310
S'verizon'
p484
S'store'
p485
tp486
(lp487
(I33
I53
F0.5
S'told'
p488
I0
tp489
a(I1
I51
F-0.625
S'other'
p490
I0
tp491
a(I4
I27
I0
S'more'
p492
I0
tp493
a(I11
I61
I0
S'add-on'
p494
I0
tp495
a(I11
I105
I0
S'general'
p496
I0
tp497
a(I11
I148
I0
S'most'
p498
I0
tp499
a(I11
I148
F0.5
S'true'
p500
I0
tp501
a(I11
I150
I0
S'different'
p502
I0
tp503
a(I11
I162
I0
S'more'
p504
I0
tp505
a(I19
I11
F0.625
S'easy'
p506
I0
tp507
a(I19
I43
F-0.875
S'worst'
p508
I0
tp509
a(I19
I48
I0
S'most'
p510
I0
tp511
a(I19
I53
F-0.75
S'painful'
p512
I0
tp513
a(I19
I69
F-0.625
S'other'
p514
I0
tp515
a(I19
I71
F-0.625
S'free'
p516
I0
tp517
a(I19
I91
F-0.75
S'worse'
p518
I0
tp519
a(I19
I104
F0.875
S'happy'
p520
I0
tp521
a(I19
I104
I0
S'anymore'
p522
I0
tp523
a(I21
I9
F1.0
S'better'
p524
I0
tp525
a(I27
I25
F-0.375
S'manual'
p526
I0
tp527
a(I27
I50
F-0.125
S'mine'
p528
I0
tp529
a(I28
I73
I0
S'song'
p530
I0
tp531
a(I28
I73
F-0.75
S'stupid'
p532
I0
tp533
a(I33
I12
I0
S'general'
p534
I0
tp535
a(I33
I34
I0
S'very'
p536
I0
tp537
a(I33
I34
F-0.75
S'likely'
p538
I0
tp539
a(I34
I95
I0
S'generic'
p540
I0
tp541
a(I36
I7
F0.875
S'music'
p542
I0
tp543
a(I37
I36
F-0.625
S'other'
p544
I0
tp545
as(S'voice'
p546
S'activated'
p547
S'commands'
p548
tp549
(lp550
(I11
I22
I0
g480
I0
tp551
a(I9
I18
F0.625
S'easy'
p552
I4
tp553
a(I11
I22
I0
g480
I4
tp554
a(I34
I89
F0.125
g482
I4
tp555
as(S'micro'
p556
S'sd'
p557
S'card'
p558
tp559
(lp560
(I1
I13
F0.875
S'nice'
p561
I0
tp562
a(I27
I31
F0.375
S'much'
p563
I0
tp564
a(I30
I13
F-0.5
S'regular'
p565
I0
tp566
a(I1
I13
F0.875
g561
I0
tp567
a(I24
I19
I0
S'own'
p568
I0
tp569
a(I27
I31
F0.375
g563
I0
tp570
a(I30
I13
F-0.5
g565
I0
tp571
a(I34
I54
F0.125
S'essential'
p572
I0
tp573
as(S'call'
p574
S'quality'
p575
tp576
(lp577
(I11
I131
F1.0
S'good'
p578
I0
tp579
a(I19
I10
F1.0
S'good'
p580
I0
tp581
a(I34
I169
F0.625
S'easy'
p582
I0
tp583
as(S'amazon'
p584
tp585
(lp586
(I0
I55
F0.875
S'music'
p587
I13
tp588
a(I34
I171
F0.875
S'happy'
p589
I13
tp590
as(S'microsd'
p591
tp592
(lp593
(I9
I4
F0.5
S'added'
p594
I0
tp595
a(I11
I41
I0
S'optional'
p596
I0
tp597
a(I11
I49
I0
S'big'
p598
I0
tp599
a(I11
I70
I0
S'optional'
p600
I0
tp601
a(I33
I6
F0.625
S'accessible'
p602
I0
tp603
as(S'sound'
p604
S'quality'
p605
tp606
(lp607
(I6
I3
I0
S'sturdy'
p608
I0
tp609
a(I6
I3
F0.625
S'easy'
p610
I0
tp611
a(I6
I3
F1.0
S'good'
p612
I0
tp613
a(I11
I193
F1.0
S'better'
p614
I0
tp615
a(I11
I193
F-0.75
S'worse'
p616
I0
tp617
a(I11
I193
F-0.625
S'other'
p618
I0
tp619
a(I19
I92
F-0.75
S'worse'
p620
I0
tp621
a(I21
I39
F1.0
S'best'
p622
I0
tp623
a(I22
I1
F-0.5
S'poor'
p624
I0
tp625
a(I26
I32
I0
S'great'
p626
I0
tp627
a(I1
I17
I0
S'great'
p628
I7
tp629
a(I1
I17
F0.375
S'intelligible'
p630
I7
tp631
a(I6
I3
I0
g608
I7
tp632
a(I6
I3
F0.625
g610
I7
tp633
a(I21
I82
F0.5
S'clear'
p634
I7
tp635
a(I22
I1
F-0.5
g624
I7
tp636
a(I22
I40
F0.5
S'reasonable'
p637
I7
tp638
a(I28
I46
I0
S'cheese'
p639
I7
tp640
a(I30
I6
I0
S'tinny'
p641
I7
tp642
a(I30
I6
I0
S'same'
p643
I7
tp644
a(I30
I6
F0.875
S'music'
p645
I7
tp646
a(I34
I24
F0.5
S'satisfactory'
p647
I7
tp648
a(I34
I24
I0
S'great'
p649
I7
tp650
as.