(dp0
(S'belt'
p1
S'clip'
p2
tp3
(lp4
(I2
I3
F-0.5
S'open'
p5
I0
tp6
a(I3
I237
F0.125
S'first'
p7
I0
tp8
a(I4
I21
I0
S'included'
p9
I0
tp10
as(S'battery'
p11
S'life'
p12
tp13
(lp14
(I2
I12
F0.5
S'reasonable'
p15
I1
tp16
a(I3
I76
I0
S'great'
p17
I1
tp18
a(I3
I240
F1.0
S'best'
p19
I1
tp20
a(I5
I91
F-0.75
S'short'
p21
I1
tp22
a(I2
I12
F0.5
g15
I19
tp23
a(I3
I240
F1.0
g19
I19
tp24
a(I5
I91
F-0.75
g21
I19
tp25
a(I3
I13
F-0.75
S'dead'
p26
I15
tp27
a(I3
I76
I0
g17
I15
tp28
a(I3
I77
F-0.5
S'longer'
p29
I15
tp30
a(I3
I114
F-0.75
S'dead'
p31
I15
tp32
a(I3
I114
F-0.75
S'dark'
p33
I15
tp34
a(I4
I99
F0.25
S'larger'
p35
I15
tp36
a(I5
I20
F0.375
S'extended'
p37
I15
tp38
a(I5
I125
F-0.375
S'pull'
p39
I15
tp40
a(I5
I125
F-0.75
S'dry'
p41
I15
tp42
a(I8
I88
I0
S'hot'
p43
I15
tp44
as(S'ring'
p45
S'tones'
p46
tp47
(lp48
(I2
I35
F0.375
S'extra'
p49
I0
tp50
a(I2
I35
F0.875
S'nice'
p51
I0
tp52
a(I3
I164
I0
S'special'
p53
I0
tp54
as(S'high'
p55
S'quality'
p56
tp57
(lp58
(I3
I9
I0
S'high'
p59
I12
tp60
a(I3
I9
I0
S'high'
p61
I12
tp62
a(I4
I40
I0
S'high'
p63
I12
tp64
a(I5
I107
F-0.25
S'highest'
p65
I12
tp66
a(I6
I23
I0
S'high'
p67
I12
tp68
as(S'service'
p69
tp70
(lp71
(I3
I36
F1.0
S'good'
p72
I16
tp73
a(I3
I102
I0
S'forest'
p74
I16
tp75
a(I3
I102
I0
S'forest'
p76
I16
tp77
a(I3
I149
F1.0
S'good'
p78
I16
tp79
a(I3
I213
F1.0
S'best'
p80
I16
tp81
a(I5
I80
F-0.625
S'bad'
p82
I16
tp83
a(I5
I86
F-0.625
S'bad'
p84
I16
tp85
a(I5
I101
F0.5
S'reasonable'
p86
I16
tp87
a(I5
I116
F0.375
S'new'
p88
I16
tp89
a(I9
I34
F0.875
S'happier'
p90
I16
tp91
as(S'data'
p92
S'cable'
p93
tp94
(lp95
(I1
I3
I0
S'cable'
p96
I0
tp97
a(I5
I124
I0
S'cable'
p98
I0
tp99
as(S'inside'
p100
tp101
(lp102
(I4
I58
I0
S'large'
p103
I16
tp104
as(S'camera'
p105
S'works'
p106
tp107
(lp108
(I2
I18
I0
S'great'
p109
I0
tp110
a(I3
I198
F1.0
S'good'
p111
I0
tp112
a(I5
I31
I0
S'great'
p113
I0
tp114
a(I1
I15
F1.0
S'good'
p115
I1
tp116
a(I3
I7
F-0.875
S'awful'
p117
I1
tp118
a(I4
I34
I0
S'brief'
p119
I1
tp120
a(I4
I34
F0.875
S'nice'
p121
I1
tp122
a(I5
I31
I0
g113
I1
tp123
a(I5
I96
F1.0
S'good'
p124
I1
tp125
a(I5
I107
F-0.5
S'poor'
p126
I1
tp127
a(I6
I48
F1.0
S'good'
p128
I1
tp129
a(I8
I74
F0.125
S'first'
p130
I1
tp131
a(I8
I74
F-0.625
S'other'
p132
I1
tp133
as(S'volume'
p134
tp135
(lp136
(I3
I175
I0
S'current'
p137
I6
tp138
a(I3
I182
F-0.25
S'lowest'
p139
I6
tp140
a(I4
I15
F-0.25
S'low'
p141
I6
tp142
a(I4
I15
F-0.5
S'inaudible'
p143
I6
tp144
a(I8
I45
F1.0
S'good'
p145
I6
tp146
a(I8
I45
I0
S'great'
p147
I6
tp148
as(S'verizon'
p149
tp150
(lp151
(I2
I0
F1.0
S'better'
p152
I0
tp153
a(I2
I0
F-0.625
S'other'
p154
I0
tp155
a(I2
I17
F1.0
S'best'
p156
I0
tp157
a(I3
I38
F-0.5
S'separate'
p158
I0
tp159
a(I4
I66
F1.0
S'best'
p160
I0
tp161
a(I5
I87
F0.5
S'willing'
p162
I0
tp163
a(I5
I92
F0.875
S'happy'
p164
I0
tp165
a(I6
I52
F-0.375
S'smaller'
p166
I0
tp167
a(I9
I59
F0.5
S'expensive'
p168
I0
tp169
as(S'vx6100'
p170
tp171
(lp172
(I3
I105
F-0.5
S'open'
p173
I0
tp174
a(I3
I107
F-0.5
S'open'
p175
I0
tp176
a(I3
I165
F-0.125
S'overall'
p177
I0
tp178
a(I6
I4
I0
S'great'
p179
I0
tp180
a(I8
I42
F-0.625
S'free'
p181
I0
tp182
a(I8
I62
I-100
S'boxier'
p183
I0
tp184
a(I9
I20
I0
S'close'
p185
I0
tp186
as(S'speakerphone'
p187
tp188
(lp189
(I0
I10
F1.0
S'good'
p190
I0
tp191
a(I3
I4
F0.5
S'clear'
p192
I0
tp193
a(I3
I15
I0
S'such'
p194
I0
tp195
a(I5
I139
F-0.375
S'small'
p196
I0
tp197
as(S'lens'
p198
S'cover'
p199
tp200
(lp201
(I6
I57
F1.0
S'good'
p202
I0
tp203
as(S'ringtones'
p204
tp205
(lp206
(I0
I11
I0
S'own'
p207
I0
tp208
a(I4
I65
I0
S'downloaded'
p209
I0
tp210
a(I4
I65
F0.375
S'polyphonic'
p211
I0
tp212
a(I4
I65
F0.375
S'loud'
p213
I0
tp214
as(S'buttons'
p215
S'on'
p216
S'side'
p217
tp218
(lp219
(I3
I32
F-0.75
S'stupid'
p220
I0
tp221
a(I3
I33
I0
S'sensitive'
p222
I0
tp223
a(I3
I77
I0
S'wish'
p224
I0
tp225
a(I3
I162
I0
S'useful'
p226
I0
tp227
a(I3
I190
F-0.375
S'small'
p228
I0
tp229
a(I4
I24
I0
S'external'
p230
I0
tp231
a(I8
I24
F-0.75
S'little'
p232
I0
tp233
a(I8
I36
F0.125
S'outside'
p234
I0
tp235
a(I8
I36
F0.125
S'solid'
p236
I0
tp237
a(I3
I32
F-0.75
g220
I0
tp238
a(I3
I33
I0
g222
I0
tp239
a(I3
I77
I0
g224
I0
tp240
a(I3
I162
I0
g226
I0
tp241
a(I3
I190
F-0.375
g228
I0
tp242
a(I4
I24
I0
g230
I0
tp243
a(I8
I24
F-0.75
g232
I0
tp244
a(I8
I36
F0.125
g234
I0
tp245
a(I8
I36
F0.125
g236
I0
tp246
a(I3
I77
I0
g224
I13
tp247
a(I3
I190
F-0.375
g228
I13
tp248
a(I4
I24
I0
g230
I13
tp249
a(I4
I43
F0.375
S'exterior'
p250
I13
tp251
a(I7
I13
I0
S'same'
p252
I13
tp253
a(I7
I13
F0.625
S'easy'
p254
I13
tp255
a(I8
I24
F-0.75
g232
I13
tp256
a(I8
I36
F0.125
g234
I13
tp257
a(I8
I36
F0.125
g236
I13
tp258
a(I9
I24
I0
S'external'
p259
I13
tp260
as(S'button'
p261
S'on'
p262
S'side'
p263
tp264
(lp265
(I3
I32
F-0.75
g220
I0
tp266
a(I3
I33
I0
g222
I0
tp267
a(I3
I162
I0
g226
I0
tp268
a(I3
I268
F-0.5
S'poor'
p269
I0
tp270
a(I9
I27
F0.375
S'extra'
p271
I0
tp272
a(I9
I27
F0.5
S'careful'
p273
I0
tp274
a(I1
I13
F-0.75
S'stupid'
p275
I19
tp276
a(I3
I16
F-0.625
S'green'
p277
I19
tp278
a(I3
I268
F-0.5
g269
I19
tp279
a(I4
I32
F0.125
S'practical'
p280
I19
tp281
a(I4
I32
I0
S'external'
p282
I19
tp283
a(I4
I39
F-0.5
S'certain'
p284
I19
tp285
a(I5
I145
I0
S'few'
p286
I19
tp287
a(I6
I58
F0.625
S'easy'
p288
I19
tp289
a(I9
I27
F0.375
g271
I19
tp290
a(I9
I27
F0.5
g273
I19
tp291
as(S'great'
p292
S'reception'
p293
tp294
(lp295
(I3
I71
I0
S'great'
p296
I0
tp297
a(I3
I258
I0
S'great'
p298
I0
tp299
a(I5
I95
I0
S'great'
p300
I0
tp301
a(I5
I95
F0.625
S'easy'
p302
I0
tp303
a(I5
I95
F-0.375
S'small'
p304
I0
tp305
a(I7
I7
I0
S'great'
p306
I0
tp307
a(I8
I44
I0
S'great'
p308
I0
tp309
a(I9
I23
F1.0
S'good'
p310
I0
tp311
a(I3
I71
I0
g296
I0
tp312
a(I3
I79
F-0.875
S'worst'
p313
I0
tp314
a(I3
I142
F0.625
S'acceptable'
p315
I0
tp316
a(I3
I258
I0
g298
I0
tp317
a(I4
I6
F1.0
S'good'
p318
I0
tp319
a(I4
I10
F1.0
S'good'
p320
I0
tp321
a(I5
I95
I0
g300
I0
tp322
a(I5
I95
F0.625
g302
I0
tp323
a(I5
I95
F-0.375
g304
I0
tp324
a(I7
I7
I0
g306
I0
tp325
a(I8
I44
I0
g308
I0
tp326
a(I8
I67
F1.0
S'better'
p327
I0
tp328
a(I9
I23
F1.0
g310
I0
tp329
as(S'nokia'
p330
tp331
(lp332
(I3
I52
I0
S'different'
p333
I0
tp334
a(I3
I186
F1.0
S'good'
p335
I0
tp336
a(I3
I186
I0
S'old'
p337
I0
tp338
a(I5
I57
I0
S'basic'
p339
I0
tp340
a(I5
I88
I0
S'switched'
p341
I0
tp342
a(I9
I49
F-0.625
S'free'
p343
I0
tp344
as(S'voice'
p345
S'recognition'
p346
tp347
(lp348
(I1
I2
F1.0
S'good'
p349
I0
tp350
a(I5
I149
F1.0
S'good'
p351
I0
tp352
a(I7
I6
F0.625
S'perfect'
p353
I0
tp354
a(I8
I33
F1.0
S'good'
p355
I0
tp356
a(I1
I2
F1.0
g349
I4
tp357
a(I3
I162
I0
S'quick'
p358
I4
tp359
a(I4
I29
F-0.75
S'short'
p360
I4
tp361
a(I8
I68
I0
S'dial'
p362
I4
tp363
as(S'voice'
p364
S'commands'
p365
tp366
(lp367
(I4
I29
F-0.75
g360
I0
tp368
a(I5
I149
F0.875
S'nice'
p369
I0
tp370
as(S'speaker'
p371
tp372
(lp373
(I3
I126
F0.5
S'clear'
p374
I8
tp375
a(I5
I156
I0
S'table'
p376
I8
tp377
as(S'few'
p378
S'seconds'
p379
tp380
(lp381
(I1
I3
I0
S'few'
p382
I2
tp383
a(I3
I11
I0
S'few'
p384
I2
tp385
a(I3
I110
I0
S'few'
p386
I2
tp387
as(S'voice'
p388
S'command'
p389
tp390
(lp391
(I4
I29
F-0.75
g360
I0
tp392
as(S'signal'
p393
tp394
(lp395
(I4
I87
F-0.5
S'weak'
p396
I1
tp397
a(I8
I11
F1.0
S'good'
p398
I1
tp399
a(I9
I47
F1.0
S'good'
p400
I1
tp401
as(S'contact'
p402
S'list'
p403
tp404
(lp405
(I3
I135
F0.625
S'easy'
p406
I0
tp407
as(S'make'
p408
S'a'
p409
S'call'
p410
tp411
(lp412
(I4
I45
I0
S'next'
p413
I0
tp414
a(I9
I54
F-0.5
S'answer'
p415
I0
tp416
as(S'dropped'
p417
S'calls'
p418
tp419
(lp420
(I1
I24
F-0.25
S'dropped'
p421
I0
tp422
a(I3
I81
F-0.25
S'dropped'
p423
I0
tp424
a(I3
I190
I0
S'few'
p425
I0
tp426
a(I3
I190
F-0.25
S'dropped'
p427
I0
tp428
a(I5
I46
I0
S'least'
p429
I0
tp430
a(I5
I54
F-0.25
S'dropped'
p431
I0
tp432
a(I5
I103
I0
S'fewer'
p433
I0
tp434
a(I1
I24
F-0.25
g421
I0
tp435
a(I3
I81
F-0.25
g423
I0
tp436
a(I3
I190
I0
g425
I0
tp437
a(I3
I190
F-0.25
g427
I0
tp438
a(I4
I73
F-0.625
S'average'
p439
I0
tp440
a(I5
I46
I0
g429
I0
tp441
a(I5
I54
F-0.25
g431
I0
tp442
a(I5
I63
I0
S'least'
p443
I0
tp444
a(I5
I103
I0
g433
I0
tp445
a(I5
I161
F0.125
S'able'
p446
I0
tp447
a(I8
I56
F0.125
S'able'
p448
I0
tp449
as(S'vibrate'
p450
tp451
(lp452
(I4
I67
F0.5
S'strong'
p453
I0
tp454
a(I4
I67
I0
S'big'
p455
I0
tp456
a(I4
I69
F-0.5
S'weak'
p457
I0
tp458
as(S'sound'
p459
S'quality'
p460
tp461
(lp462
(I3
I21
I0
S'great'
p463
I0
tp464
a(I5
I21
I0
S'great'
p465
I0
tp466
a(I6
I32
F1.0
S'good'
p467
I0
tp468
a(I8
I19
F1.0
S'good'
p469
I0
tp470
a(I3
I3
I0
S'great'
p471
I7
tp472
a(I3
I21
I0
g463
I7
tp473
a(I3
I183
I0
S'treble'
p474
I7
tp475
a(I3
I183
F-0.625
S'unbearable'
p476
I7
tp477
a(I6
I32
F1.0
g467
I7
tp478
as.