(dp0
(S'something'
p1
tp2
(lp3
(I51
I15
F-0.75
S'wrong'
p4
tp5
a(I70
I5
F0.125
S'able'
p6
tp7
a(I91
I0
F-0.125
S'present'
p8
tp9
a(I94
I2
F0.375
S'similar'
p10
tp11
a(I108
I8
F0.375
S'similar'
p12
tp13
a(I140
I5
F-0.25
S'hang'
p14
tp15
a(I147
I5
F0.125
S'able'
p16
tp17
as(S'windows'
p18
tp19
(lp20
(I8
I3
F0.375
S'new'
p21
tp22
a(I10
I4
F-0.75
S'impossible'
p23
tp24
a(I10
I9
F-0.25
S'past'
p25
tp26
a(I10
I9
I0
S'mobile'
p27
tp28
a(I20
I23
I0
S'mobile'
p29
tp30
a(I24
I26
I0
S'mobile'
p31
tp32
a(I45
I3
I0
S'mobile'
p33
tp34
a(I64
I10
I0
S'mobile'
p35
tp36
a(I64
I59
F0.375
S'new'
p37
tp38
a(I64
I59
I0
S'mobile'
p39
tp40
a(I64
I59
I0
S'different'
p41
tp42
a(I64
I61
F0.375
S'new'
p43
tp44
a(I64
I83
I0
S'mobile'
p45
tp46
a(I67
I4
F0.5
S'characteristic'
p47
tp48
a(I67
I12
F-0.75
S'likely'
p49
tp50
a(I82
I0
F0.5
S'second'
p51
tp52
a(I82
I0
I0
S'mobile'
p53
tp54
a(I85
I5
F-0.625
S'other'
p55
tp56
a(I85
I11
I0
S'latest'
p57
tp58
a(I85
I11
I0
S'most'
p59
tp60
a(I85
I11
F0.25
S'powerful'
p61
tp62
a(I85
I11
I0
S'mobile'
p63
tp64
a(I94
I1
I0
S'mobile'
p65
tp66
a(I94
I2
F-0.5
S'open'
p67
tp68
a(I94
I2
I0
S'close'
p69
tp70
a(I104
I1
I0
S'mobile'
p71
tp72
a(I107
I2
I0
S'mobile'
p73
tp74
a(I126
I41
I0
S'download'
p75
tp76
a(I126
I41
I0
S'mobile'
p77
tp78
a(I126
I43
I0
S'standard'
p79
tp80
a(I133
I0
I0
S'mobile'
p81
tp82
a(I144
I3
I0
S'mobile'
p83
tp84
a(I147
I3
I0
S'mobile'
p85
tp86
as(S'keyboard'
p87
tp88
(lp89
(I20
I20
F-0.875
S'harder'
p90
tp91
a(I20
I22
F-0.75
S'comfortable'
p92
tp93
a(I64
I28
F0.875
S'nice'
p94
tp95
a(I64
I28
I0
S'tactile'
p96
tp97
a(I74
I3
I0
S'faster'
p98
tp99
a(I76
I2
F0.625
S'easy'
p100
tp101
a(I82
I4
I0
S'great'
p102
tp103
a(I94
I9
I0
S'full'
p104
tp105
a(I95
I32
I0
S'large'
p106
tp107
a(I98
I26
I0
S'real'
p108
tp109
a(I100
I29
F0.25
S'helpful'
p110
tp111
a(I101
I29
F0.625
S'easy'
p112
tp113
a(I108
I10
F0.625
S'easier'
p114
tp115
a(I118
I11
I0
S'full'
p116
tp117
a(I126
I15
F0.375
S'honest'
p118
tp119
a(I131
I28
F0.625
S'decent'
p120
tp121
a(I152
I6
F-0.25
S'parallel'
p122
tp123
a(I155
I13
I0
S'great'
p124
tp125
as(S'right'
p126
tp127
(lp128
(I58
I1
F0.125
S'able'
p129
tp130
a(I63
I3
F0.375
S'upper'
p131
tp132
a(I64
I41
F-0.5
S'sure'
p133
tp134
a(I70
I1
F-0.75
S'wrong'
p135
tp136
a(I95
I28
F-0.375
S'top'
p137
tp138
a(I95
I37
F-0.375
S'top'
p139
tp140
a(I95
I50
F0.375
S'upper'
p141
tp142
a(I151
I11
F-0.375
S'top'
p143
tp144
as(S'want'
p145
S'to'
p146
S'use'
p147
tp148
(lp149
(I64
I54
F0.125
S'typical'
p150
tp151
a(I154
I5
F0.5
S'rid'
p152
tp153
as(S'keys'
p154
tp155
(lp156
(I5
I7
I0
S'useful'
p157
tp158
a(I5
I7
I0
S'special'
p159
tp160
a(I20
I21
I0
S'soft'
p161
tp162
a(I20
I22
F0.625
S'finish'
p163
tp164
a(I24
I18
I0
S'most'
p165
tp166
a(I24
I18
F0.875
S'important'
p167
tp168
a(I24
I18
I0
S'close'
p169
tp170
a(I64
I35
I0
S'soft'
p171
tp172
a(I64
I35
F-0.375
S'top'
p173
tp174
a(I67
I2
I0
S'many'
p175
tp176
a(I70
I9
F-0.75
S'wrong'
p177
tp178
a(I82
I4
F-0.375
S'small'
p179
tp180
a(I95
I31
I0
S'most'
p181
tp182
a(I101
I30
I0
S'large'
p183
tp184
a(I101
I30
F-0.75
S'wrong'
p185
tp186
a(I123
I19
F1.0
S'best'
p187
tp188
a(I138
I13
F0.25
S'larger'
p189
tp190
a(I138
I13
F0.625
S'easy'
p191
tp192
a(I138
I16
I0
S'useful'
p193
tp194
a(I141
I3
F-0.875
S'hard'
p195
tp196
a(I141
I12
F-0.875
S'hard'
p197
tp198
as(S'nice'
p199
tp200
(lp201
(I46
I1
I0
S'real'
p202
tp203
a(I93
I2
I0
S'mobile'
p204
tp205
a(I93
I2
I0
S'few'
p206
tp207
as(S'reviews'
p208
tp209
(lp210
(I20
I1
I0
S'high'
p211
tp212
a(I25
I7
I0
S'many'
p213
tp214
a(I25
I7
F-0.625
S'other'
p215
tp216
a(I26
I0
F-0.5
S'sure'
p217
tp218
a(I26
I0
F-0.625
S'other'
p219
tp220
a(I26
I3
F-0.625
S'other'
p221
tp222
a(I30
I0
I0
S'many'
p223
tp224
a(I30
I0
I0
S'great'
p225
tp226
a(I42
I0
F0.625
S'positive'
p227
tp228
a(I51
I2
F0.625
S'enthusiastic'
p229
tp230
a(I51
I2
F-0.375
S'top'
p231
tp232
a(I64
I94
I0
S'latest'
p233
tp234
a(I86
I0
F0.75
S'give'
p235
tp236
a(I86
I0
F-0.625
S'bad'
p237
tp238
a(I86
I0
F-0.125
S'complex'
p239
tp240
a(I96
I2
F0.25
S'professional'
p241
tp242
a(I97
I3
I0
S'nervous'
p243
tp244
a(I113
I0
F-0.875
S'negative'
p245
tp246
a(I113
I1
F-0.625
S'bad'
p247
tp248
a(I119
I0
F1.0
S'good'
p249
tp250
a(I141
I13
F0.625
S'positive'
p251
tp252
a(I158
I5
I0
S'many'
p253
tp254
a(I159
I6
I0
S'efficient'
p255
tp256
as(S'things'
p257
tp258
(lp259
(I10
I8
F-0.375
S'top'
p260
tp261
a(I23
I1
F-0.625
S'other'
p262
tp263
a(I36
I5
F0.375
S'much'
p264
tp265
a(I36
I5
I0
S'basic'
p266
tp267
a(I37
I16
I0
S'few'
p268
tp269
a(I51
I21
I0
S'great'
p270
tp271
a(I51
I21
I0
S'many'
p272
tp273
a(I72
I2
I0
S'more'
p274
tp275
a(I72
I2
I0
S'more'
p276
tp277
a(I97
I16
F0.25
S'helpful'
p278
tp279
a(I100
I24
I0
S'few'
p280
tp281
a(I117
I2
I0
S'more'
p282
tp283
a(I117
I2
F0.125
S'enough'
p284
tp285
a(I117
I2
F0.375
S'busy'
p286
tp287
a(I117
I8
I0
S'many'
p288
tp289
a(I126
I11
I0
S'cool'
p290
tp291
a(I126
I16
F-0.25
S'myriad'
p292
tp293
a(I126
I16
F-0.625
S'other'
p294
tp295
a(I137
I9
F-0.5
S'certain'
p296
tp297
a(I137
I9
I0
S'different'
p298
tp299
a(I137
I9
I0
S'such'
p300
tp301
a(I151
I6
F-0.625
S'other'
p302
tp303
a(I158
I13
F-0.625
S'other'
p304
tp305
as(S'touch'
p306
tp307
(lp308
(I100
I18
F0.625
S'easier'
p309
tp310
a(I155
I0
F0.125
S'first'
p311
tp312
as(S't'
p313
S'tilt'
p314
S'smartphone'
p315
tp316
(lp317
(I118
I0
F-0.125
S'ultimate'
p318
tp319
a(I118
I24
I0
S'great'
p320
tp321
a(I158
I11
I0
S'prospective'
p322
tp323
a(I158
I11
F0.25
S'powerful'
p324
tp325
as(S'quality'
p326
tp327
(lp328
(I3
I3
I0
S'great'
p329
tp330
a(I23
I1
F-0.625
S'bad'
p331
tp332
a(I25
I7
F-0.5
S'poor'
p333
tp334
a(I31
I3
F1.0
S'good'
p335
tp336
a(I32
I5
F-0.5
S'poor'
p337
tp338
a(I40
I7
F-0.5
S'poor'
p339
tp340
a(I49
I3
F-0.875
S'worst'
p341
tp342
a(I49
I9
I0
S'high'
p343
tp344
a(I63
I2
F-0.25
S'low'
p345
tp346
a(I67
I0
F-0.5
S'poor'
p347
tp348
a(I76
I7
F1.0
S'good'
p349
tp350
a(I87
I16
F1.0
S'good'
p351
tp352
a(I95
I19
F0.375
S'much'
p353
tp354
a(I95
I34
F0.25
S'familiar'
p355
tp356
a(I95
I34
F0.625
S'easy'
p357
tp358
a(I100
I11
I0
S'great'
p359
tp360
a(I108
I13
I0
S'great'
p361
tp362
a(I119
I3
I0
S'great'
p363
tp364
a(I138
I1
I0
S'great'
p365
tp366
a(I147
I4
F1.0
S'good'
p367
tp368
as(S'scroll'
p369
S'wheel'
p370
tp371
(lp372
(I64
I43
I0
S'real'
p373
tp374
a(I92
I6
F0.5
S'second'
p375
tp376
as(S'store'
p377
tp378
(lp379
(I45
I3
F0.875
S'nice'
p380
tp381
a(I45
I3
F0.625
S'easy'
p382
tp383
a(I55
I22
F-0.875
S'stuck'
p384
tp385
a(I148
I5
F-0.5
S'less'
p386
tp387
as(S'software'
p388
tp389
(lp390
(I10
I0
F0.375
S'much'
p391
tp392
a(I10
I2
F0.375
S'available'
p393
tp394
a(I15
I4
I0
S'great'
p395
tp396
a(I15
I4
F0.375
S'available'
p397
tp398
a(I31
I5
F-0.625
S'free'
p399
tp400
a(I37
I8
F0.375
S'extra'
p401
tp402
a(I45
I4
F-0.5
S'poor'
p403
tp404
a(I64
I18
F0.125
S'usual'
p405
tp406
a(I64
I82
F0.5
S'careful'
p407
tp408
a(I65
I19
I0
S'mobile'
p409
tp410
a(I65
I19
I0
S'great'
p411
tp412
a(I70
I12
F1.0
S'better'
p413
tp414
a(I118
I17
F-0.5
S'certain'
p415
tp416
a(I140
I6
F-0.625
S'useless'
p417
tp418
a(I152
I7
I0
S'fast'
p419
tp420
a(I152
I7
F0.625
S'easy'
p421
tp422
a(I160
I2
F0.25
S'responsive'
p423
tp424
as(S'blackjack'
p425
S'ii'
p426
tp427
(lp428
(I95
I40
I0
S'next'
p429
tp430
as(S'blackberry'
p431
tp432
(lp433
(I1
I8
F0.5
S'personal'
p434
tp435
a(I25
I14
I0
S'older'
p436
tp437
a(I33
I1
F0.5
S'touch'
p438
tp439
as(S'card'
p440
tp441
(lp442
(I20
I29
F0.75
S'due'
p443
tp444
a(I64
I11
I0
S'external'
p445
tp446
as(S'advanced'
p447
S'technology'
p448
tp449
(lp450
(I62
I5
F0.5
S'advanced'
p451
tp452
a(I62
I11
F0.5
S'advanced'
p453
tp454
as(S'wifi'
p455
tp456
(lp457
(I17
I3
F-0.625
S'free'
p458
tp459
a(I65
I4
I0
S'next'
p460
tp461
as(S'times'
p462
tp463
(lp464
(I51
I5
F0.125
S'first'
p465
tp466
a(I51
I6
F0.125
S'first'
p467
tp468
a(I62
I3
I0
S'many'
p469
tp470
a(I62
I4
I0
S'many'
p471
tp472
a(I64
I80
F-0.5
S'certain'
p473
tp474
a(I82
I19
I0
S'few'
p475
tp476
a(I85
I3
I0
S'many'
p477
tp478
a(I85
I10
F-0.625
S'other'
p479
tp480
a(I88
I0
I0
S'sensitive'
p481
tp482
a(I88
I1
F-0.625
S'other'
p483
tp484
a(I92
I28
F-0.125
S'mine'
p485
tp486
a(I94
I9
I0
S'few'
p487
tp488
a(I112
I2
I0
S'many'
p489
tp490
a(I132
I13
I0
S'faster'
p491
tp492
a(I136
I3
F-0.625
S'average'
p493
tp494
as(S'problem'
p495
tp496
(lp497
(I25
I14
I0
S'same'
p498
tp499
a(I46
I4
I0
S'big'
p500
tp501
a(I59
I1
F0.625
S'major'
p502
tp503
a(I68
I1
F0.625
S'major'
p504
tp505
a(I68
I5
F0.25
S'main'
p506
tp507
a(I124
I3
I0
S'same'
p508
tp509
a(I126
I46
F0.25
S'biggest'
p510
tp511
as(S'email'
p512
tp513
(lp514
(I13
I3
I0
S'same'
p515
tp516
a(I103
I5
F0.125
S'able'
p517
tp518
a(I137
I12
I0
S'own'
p519
tp520
a(I138
I1
F1.0
S'good'
p521
tp522
a(I138
I47
I0
S'many'
p523
tp524
a(I140
I17
I0
S'corporate'
p525
tp526
a(I153
I3
F-0.625
S'push'
p527
tp528
as(S'instant'
p529
S'messaging'
p530
tp531
(lp532
(I64
I61
I0
S'instant'
p533
tp534
a(I65
I45
I0
S'instant'
p535
tp536
as(S'service'
p537
tp538
(lp539
(I17
I3
F-0.625
S'free'
p540
tp541
a(I17
I3
F0.375
S'available'
p542
tp543
a(I55
I17
F1.0
S'good'
p544
tp545
a(I55
I19
F-0.375
S'unexpected'
p546
tp547
a(I62
I2
I0
S'such'
p548
tp549
a(I62
I3
I0
S'monthly'
p550
tp551
a(I109
I1
I0
S'more'
p552
tp553
a(I134
I3
F0.25
S'stellar'
p554
tp555
as(S'need'
p556
tp557
(lp558
(I126
I34
F-0.125
S'complicated'
p559
tp560
a(I132
I4
F-0.75
S'likely'
p561
tp562
as(S'memory'
p563
tp564
(lp565
(I20
I2
I0
S'internal'
p566
tp567
a(I20
I23
I0
S'more'
p568
tp569
a(I20
I27
I0
S'internal'
p570
tp571
a(I20
I27
I0
S'internal'
p572
tp573
a(I20
I29
F0.25
S'larger'
p574
tp575
a(I20
I29
I0
S'internal'
p576
tp577
a(I24
I25
F-0.375
S'scant'
p578
tp579
a(I64
I9
I0
S'more'
p580
tp581
a(I64
I9
I0
S'later'
p582
tp583
a(I64
I9
F-0.375
S'double'
p584
tp585
a(I64
I10
F-0.5
S'less'
p586
tp587
a(I64
I69
F-0.625
S'free'
p588
tp589
a(I64
I74
F-0.625
S'free'
p590
tp591
a(I65
I24
F0.25
S'main'
p592
tp593
a(I95
I24
I0
S'more'
p594
tp595
a(I135
I5
I0
S'more'
p596
tp597
a(I135
I12
I0
S'same'
p598
tp599
a(I138
I8
F0.375
S'extra'
p600
tp601
as(S'make'
p602
S'a'
p603
S'call'
p604
tp605
(lp606
(I70
I12
F-0.625
S'other'
p607
tp608
a(I85
I3
F-0.625
S'free'
p609
tp610
as(S'google'
p611
tp612
(lp613
(I93
I3
I0
S'latest'
p614
tp615
as(S'tilt'
p616
tp617
(lp618
(I11
I3
F-0.875
S'worst'
p619
tp620
a(I26
I9
F0.375
S'new'
p621
tp622
a(I49
I0
F-0.125
S'slow'
p623
tp624
a(I50
I2
F-0.125
S'slow'
p625
tp626
a(I51
I8
F0.125
S'able'
p627
tp628
a(I60
I5
I0
S'current'
p629
tp630
a(I70
I6
I0
S'most'
p631
tp632
a(I92
I21
F0.625
S'easy'
p633
tp634
a(I92
I21
F-0.375
S'disable'
p635
tp636
a(I92
I25
I0
S'signal'
p637
tp638
a(I95
I42
F-0.625
S'other'
p639
tp640
a(I95
I43
F-0.625
S'other'
p641
tp642
a(I95
I62
I0
S'different'
p643
tp644
a(I97
I3
F0.875
S'happy'
p645
tp646
a(I103
I3
F0.375
S'available'
p647
tp648
a(I123
I12
I0
g313
tp649
a(I124
I3
F-0.625
S'other'
p650
tp651
a(I140
I1
F1.0
S'best'
p652
tp653
a(I140
I13
F-0.25
S'precious'
p654
tp655
a(I158
I11
F0.25
g324
tp656
as(S'features'
p657
tp658
(lp659
(I15
I14
I0
S'great'
p660
tp661
a(I32
I7
F-0.625
S'other'
p662
tp663
a(I49
I8
F1.0
S'best'
p664
tp665
a(I64
I62
F1.0
S'good'
p666
tp667
a(I67
I7
I0
S'general'
p668
tp669
a(I67
I7
F-0.875
S'hard'
p670
tp671
a(I70
I13
F-0.625
S'other'
p672
tp673
a(I70
I13
F0.875
S'nice'
p674
tp675
a(I86
I4
F-0.625
S'other'
p676
tp677
a(I94
I9
F-0.875
S'hard'
p678
tp679
a(I95
I68
I0
S'few'
p680
tp681
a(I95
I68
F-0.625
S'other'
p682
tp683
a(I109
I3
I0
S'cool'
p684
tp685
a(I118
I10
I0
S'rich'
p686
tp687
a(I128
I2
I0
S'many'
p688
tp689
a(I128
I2
I0
S'same'
p690
tp691
a(I141
I11
F-0.75
S'unreliable'
p692
tp693
a(I147
I14
I0
S'basic'
p694
tp695
a(I147
I15
I0
S'basic'
p696
tp697
a(I148
I7
F0.625
S'easy'
p698
tp699
a(I148
I7
I0
S'full'
p700
tp701
as(S'power'
p702
tp703
(lp704
(I24
I14
I0
S'close'
p705
tp706
a(I24
I14
I0
S'same'
p707
tp708
a(I24
I15
F0.375
S'much'
p709
tp710
a(I24
I15
F0.5
S'possible'
p711
tp712
a(I26
I7
I0
S'different'
p713
tp714
a(I64
I46
F0.375
S'mean'
p715
tp716
a(I64
I46
F0.625
S'easy'
p717
tp718
as(S'built'
p719
S'n'
p720
S'gps'
p721
tp722
(lp723
(I32
I3
F0.375
S'available'
p724
tp725
a(I64
I48
I0
S'cool'
p726
tp727
a(I65
I45
I0
S'instant'
p728
tp729
a(I67
I11
F0.375
S'much'
p730
tp731
a(I98
I6
I0
S'great'
p732
tp733
a(I118
I3
F0.875
S'nice'
p734
tp735
as(S'video'
p736
tp737
(lp738
(I53
I8
F-0.75
S'short'
p739
tp740
a(I65
I45
I0
S'cellular'
p741
tp742
a(I78
I1
I0
S'chose'
p743
tp744
a(I78
I1
F0.75
S'proper'
p745
tp746
a(I78
I2
F-0.125
S'slow'
p747
tp748
a(I129
I2
I0
S'along'
p749
tp750
a(I129
I2
F1.0
S'better'
p751
tp752
a(I161
I5
I0
S'most'
p753
tp754
as(g603
S'long'
p755
S'time'
p756
tp757
(lp758
(I10
I0
F-0.5
S'long'
p759
tp760
a(I25
I1
F-0.5
S'long'
p761
tp762
a(I65
I7
F-0.5
S'long'
p763
tp764
a(I94
I12
F-0.5
S'long'
p765
tp766
a(I126
I16
F-0.625
S'idle'
p767
tp768
a(I141
I14
F0.5
S'second'
p769
tp770
as(S'voice'
p771
tp772
(lp773
(I11
I2
F0.5
S'clear'
p774
tp775
as(S'on'
p776
S'touch'
p777
S'screen'
p778
tp779
(lp780
(I19
I0
F0.5
S'touch'
p781
tp782
a(I23
I2
F0.25
S'responsive'
p783
tp784
a(I24
I31
F0.5
S'touch'
p785
tp786
a(I24
I31
F-0.75
S'difficult'
p787
tp788
a(I43
I3
F0.5
S'touch'
p789
tp790
a(I50
I3
F0.5
S'touch'
p791
tp792
a(I56
I7
F0.5
S'touch'
p793
tp794
a(I56
I9
F0.5
S'touch'
p795
tp796
a(I56
I9
F-0.75
S'unreliable'
p797
tp798
a(I56
I12
F0.5
S'touch'
p799
tp800
a(I77
I3
I0
S'dial'
p801
tp802
a(I77
I3
F0.5
S'touch'
p803
tp804
a(I87
I3
F-0.625
S'light'
p805
tp806
a(I87
I3
F-0.5
S'touched'
p807
tp808
a(I94
I3
F-0.375
S'small'
p809
tp810
a(I95
I28
I0
S'close'
p811
tp812
a(I95
I67
F0.5
S'touch'
p813
tp814
a(I97
I12
I0
S'horizontal'
p815
tp816
a(I97
I12
I0
S'vertical'
p817
tp818
a(I101
I32
F0.5
S'touch'
p819
tp820
a(I103
I2
F0.5
S'touch'
p821
tp822
a(I115
I1
F0.5
S'touch'
p823
tp824
a(I120
I17
F0.5
S'touch'
p825
tp826
a(I126
I22
F0.5
S'touch'
p827
tp828
a(I126
I26
F0.5
S'touch'
p829
tp830
a(I129
I3
F0.5
S'touch'
p831
tp832
a(I129
I3
I0
S'sensitive'
p833
tp834
a(I135
I1
F0.5
S'touch'
p835
tp836
a(I141
I8
F0.5
S'touch'
p837
tp838
a(I143
I1
F0.5
S'touch'
p839
tp840
as(S'3'
p841
S'mp'
p842
S'camera'
p843
tp844
(lp845
(I64
I13
I0
S'autofocus'
p846
tp847
a(I71
I3
F0.875
S'nice'
p848
tp849
a(I98
I12
F1.0
S'good'
p850
tp851
a(I138
I35
F1.0
S'good'
p852
tp853
as(S'thing'
p854
tp855
(lp856
(I2
I7
I0
S'only'
p857
tp858
a(I10
I8
I0
S'most'
p859
tp860
a(I20
I4
I0
S'closest'
p861
tp862
a(I25
I7
F-0.75
S'hate'
p863
tp864
a(I42
I2
I0
S'same'
p865
tp866
a(I45
I4
I0
S'only'
p867
tp868
a(I49
I2
I0
S'same'
p869
tp870
a(I65
I51
F-0.5
S'less'
p871
tp872
a(I65
I51
F0.5
S'expensive'
p873
tp874
a(I77
I4
I0
S'same'
p875
tp876
a(I86
I5
F0.875
S'important'
p877
tp878
a(I95
I76
I0
S'same'
p879
tp880
a(I97
I28
F0.5
S'whole'
p881
tp882
a(I97
I28
I0
S'plastic'
p883
tp884
a(I107
I4
I0
S'only'
p885
tp886
a(I109
I3
I0
S'great'
p887
tp888
a(I114
I10
F-0.5
S'regular'
p889
tp890
a(I114
I10
I0
S'e-mail'
p891
tp892
a(I115
I1
I0
S'only'
p893
tp894
a(I118
I11
I0
S'great'
p895
tp896
a(I118
I14
F0.875
S'nice'
p897
tp898
a(I127
I8
F0.125
S'first'
p899
tp900
a(I137
I5
F1.0
S'good'
p901
tp902
a(I137
I6
F1.0
S'good'
p903
tp904
a(I137
I6
F-0.75
S'dark'
p905
tp906
a(I141
I5
I0
S'same'
p907
tp908
a(I147
I1
I0
S'next'
p909
tp910
a(I147
I1
F1.0
S'best'
p911
tp912
a(I151
I14
F0.5
S'rid'
p913
tp914
a(I152
I13
F1.0
S'best'
p915
tp916
a(I158
I5
I0
S'same'
p917
tp918
as(S'data'
p919
tp920
(lp921
(I24
I31
I0
S'most'
p922
tp923
a(I57
I3
I0
S'least'
p924
tp925
a(I57
I3
F0.5
S'expensive'
p926
tp927
a(I64
I3
I0
S'basic'
p928
tp929
a(I92
I10
F0.5
S'true'
p930
tp931
a(I92
I13
I0
S'download'
p932
tp933
a(I92
I13
F-0.625
S'idle'
p934
tp935
as(S'portrait'
p936
S'to'
p937
S'landscape'
p938
tp939
(lp940
(I75
I3
F0.625
S'acceptable'
p941
tp942
as(g603
S'data'
p943
S'plan'
p944
tp945
(lp946
(I148
I13
F-0.625
S'want'
p947
tp948
a(I148
I13
F-0.5
S'sure'
p949
tp950
a(I148
I16
F0.5
S'expensive'
p951
tp952
as(S'work'
p953
tp954
(lp955
(I94
I11
F0.25
S'powerful'
p956
tp957
a(I161
I0
I0
S'most'
p958
tp959
as(S'laptop'
p960
tp961
(lp962
(I98
I22
I0
S'entire'
p963
tp964
a(I127
I6
I0
S'close'
p965
tp966
a(I135
I15
F0.625
S'easy'
p967
tp968
a(I148
I7
F0.875
S'music'
p969
tp970
a(I148
I9
F0.625
S'easy'
p971
tp972
a(I159
I3
I0
S'rebate'
p973
tp974
as(S'google'
p975
S'maps'
p976
tp977
(lp978
(I9
I7
F0.125
S'able'
p979
tp980
a(I9
I7
F-0.25
S'google'
p981
tp982
a(I9
I7
I0
S'bc'
p983
tp984
a(I30
I3
F-0.25
S'google'
p985
tp986
a(I51
I10
F-0.25
S'google'
p987
tp988
a(I64
I50
F-0.25
S'google'
p989
tp990
a(I67
I10
F-0.25
S'google'
p991
tp992
a(I82
I7
F-0.25
S'google'
p993
tp994
a(I90
I8
F-0.25
S'google'
p995
tp996
a(I90
I8
F-0.5
S'sure'
p997
tp998
a(I93
I3
I0
g614
tp999
a(I98
I6
F-0.25
S'google'
p1000
tp1001
a(I118
I4
F0.875
S'happy'
p1002
tp1003
a(I126
I17
F-0.25
S'google'
p1004
tp1005
a(I126
I21
F-0.25
S'google'
p1006
tp1007
a(I127
I13
F-0.25
S'google'
p1008
tp1009
a(I134
I2
F-0.25
S'google'
p1010
tp1011
a(I138
I29
F-0.25
S'google'
p1012
tp1013
a(I150
I2
F-0.25
S'google'
p1014
tp1015
a(I160
I3
F-0.25
S'google'
p1016
tp1017
as(S'battery'
p1018
S'life'
p1019
tp1020
(lp1021
(I23
I1
I0
S'real'
p1022
tp1023
a(I23
I1
F1.0
S'good'
p1024
tp1025
a(I67
I4
F-0.625
S'unpredictable'
p1026
tp1027
a(I73
I4
I0
S'great'
p1028
tp1029
a(I95
I3
F-0.75
S'short'
p1030
tp1031
a(I95
I16
F0.625
S'fair'
p1032
tp1033
a(I95
I17
F0.375
S'extended'
p1034
tp1035
a(I95
I17
F0.375
S'available'
p1036
tp1037
a(I118
I17
F0.5
S'true'
p1038
tp1039
a(I129
I7
F-0.125
S'overall'
p1040
tp1041
a(I129
I7
F0.5
S'so-so'
p1042
tp1043
a(I129
I7
F0.375
S'much'
p1044
tp1045
as(g720
S'r'
p1046
S'car'
p1047
tp1048
(lp1049
(I126
I21
I0
S'most'
p1050
tp1051
as(S'xda'
p1052
S'developers'
p1053
tp1054
(lp1055
(I107
I3
F-0.25
S'google'
p1056
tp1057
as(S'with'
p1058
S'one'
p1059
S'hand'
p1060
tp1061
(lp1062
(I94
I8
F0.125
S'able'
p1063
tp1064
a(I126
I46
F0.125
S'able'
p1065
tp1066
a(I151
I9
F-0.75
S'impossible'
p1067
tp1068
as(g603
S'touch'
p1069
S'screen'
p1070
tp1071
(lp1072
(I14
I1
F0.5
S'touch'
p1073
tp1074
a(I14
I2
F-0.875
S'hard'
p1075
tp1076
a(I16
I3
F0.5
S'touch'
p1077
tp1078
a(I19
I0
F0.5
g781
tp1079
a(I23
I2
F0.25
g783
tp1080
a(I24
I31
F0.5
g785
tp1081
a(I24
I31
F-0.75
g787
tp1082
a(I43
I3
F0.5
g789
tp1083
a(I50
I3
F0.5
g791
tp1084
a(I56
I9
F0.5
g795
tp1085
a(I56
I9
F-0.75
g797
tp1086
a(I56
I12
F0.5
g799
tp1087
a(I58
I1
F0.5
S'touch'
p1088
tp1089
a(I77
I3
I0
g801
tp1090
a(I77
I3
F0.5
g803
tp1091
a(I87
I3
F-0.625
g805
tp1092
a(I87
I3
F-0.5
g807
tp1093
a(I94
I3
F-0.375
g809
tp1094
a(I95
I28
I0
g811
tp1095
a(I95
I67
F0.5
g813
tp1096
a(I97
I11
F0.5
S'touch'
p1097
tp1098
a(I97
I12
I0
g815
tp1099
a(I97
I12
I0
g817
tp1100
a(I101
I32
F0.5
g819
tp1101
a(I103
I2
F0.5
g821
tp1102
a(I115
I1
F0.5
g823
tp1103
a(I120
I2
F0.5
S'touch'
p1104
tp1105
a(I120
I7
I0
S'dial'
p1106
tp1107
a(I120
I17
F0.5
g825
tp1108
a(I126
I22
F0.5
g827
tp1109
a(I126
I26
F0.5
g829
tp1110
a(I129
I3
F0.5
g831
tp1111
a(I129
I3
I0
g833
tp1112
a(I135
I1
F0.5
g835
tp1113
a(I141
I8
F0.5
g837
tp1114
a(I143
I1
F0.5
g839
tp1115
a(I155
I0
F0.125
g311
tp1116
a(I155
I0
F-0.75
S'difficult'
p1117
tp1118
as(S'life'
p1119
tp1120
(lp1121
(I43
I3
I0
S'dial'
p1122
tp1123
a(I65
I27
F0.625
S'easier'
p1124
tp1125
a(I65
I31
F0.625
S'easier'
p1126
tp1127
a(I67
I4
F-0.625
g1026
tp1128
a(I73
I4
I0
g1028
tp1129
a(I95
I16
F0.625
g1032
tp1130
a(I95
I17
F0.375
g1034
tp1131
a(I118
I17
F0.5
g1038
tp1132
a(I126
I17
I0
S'real'
p1133
tp1134
a(I127
I12
F0.625
S'easier'
p1135
tp1136
a(I129
I7
F-0.125
g1040
tp1137
a(I129
I7
F0.5
g1042
tp1138
a(I129
I7
F0.375
g1044
tp1139
as(S'today'
p1140
S'screen'
p1141
tp1142
(lp1143
(I20
I22
I0
S'plug-in'
p1144
tp1145
a(I64
I75
F0.875
S'nice'
p1146
tp1147
a(I97
I12
I0
g815
tp1148
a(I97
I12
I0
g817
tp1149
as(S'next'
p1150
S'generation'
p1151
tp1152
(lp1153
(I65
I45
I0
S'next'
p1154
tp1155
a(I65
I45
I0
S'next'
p1156
tp1157
a(I147
I12
I0
S'next'
p1158
tp1159
as(S'call'
p1160
tp1161
(lp1162
(I65
I21
F0.25
S'recent'
p1163
tp1164
a(I70
I12
F-0.625
g607
tp1165
a(I85
I3
F-0.625
g609
tp1166
a(I101
I4
F0.5
S'strong'
p1167
tp1168
a(I101
I4
I0
S'signal'
p1169
tp1170
a(I138
I25
F0.5
S'clear'
p1171
tp1172
a(I138
I25
F0.375
S'loud'
p1173
tp1174
as(S'plan'
p1175
tp1176
(lp1177
(I62
I10
I0
S'competitive'
p1178
tp1179
a(I120
I19
F0.75
S'worth'
p1180
tp1181
a(I148
I13
F-0.625
g947
tp1182
a(I148
I13
F-0.5
g949
tp1183
a(I148
I16
F0.5
g951
tp1184
as(S'slide'
p1185
S'out'
p1186
S'keyboard'
p1187
tp1188
(lp1189
(I24
I17
F0.5
S'second'
p1190
tp1191
a(I82
I4
I0
S'full'
p1192
tp1193
a(I82
I4
I0
g102
tp1194
a(I100
I1
I0
S'great'
p1195
tp1196
a(I118
I11
I0
g116
tp1197
a(I126
I15
F0.375
g118
tp1198
as(S'battery'
p1199
tp1200
(lp1201
(I23
I1
I0
g1022
tp1202
a(I23
I1
F1.0
g1024
tp1203
a(I28
I1
I0
S'mobile'
p1204
tp1205
a(I36
I2
F-0.125
S'slow'
p1206
tp1207
a(I67
I5
I0
S'close'
p1208
tp1209
a(I67
I5
I0
S'full'
p1210
tp1211
a(I68
I8
F0.5
S'live'
p1212
tp1213
a(I68
I8
F-0.75
S'short'
p1214
tp1215
a(I83
I1
F0.375
S'new'
p1216
tp1217
a(I87
I12
F0.625
S'removable'
p1218
tp1219
a(I95
I3
F-0.75
g1030
tp1220
a(I95
I12
F0.375
S'new'
p1221
tp1222
a(I95
I15
F-0.5
S'sure'
p1223
tp1224
a(I95
I17
F0.375
g1036
tp1225
a(I100
I5
I0
S'big'
p1226
tp1227
a(I102
I1
F0.125
S'last'
p1228
tp1229
a(I114
I2
F0.125
S'first'
p1230
tp1231
a(I114
I2
F-0.25
S'low'
p1232
tp1233
a(I146
I0
F-0.75
S'dead'
p1234
tp1235
a(I151
I7
F-0.625
S'dying'
p1236
tp1237
as(S'microsd'
p1238
S'cards'
p1239
tp1240
(lp1241
(I133
I1
F0.25
S'larger'
p1242
tp1243
as(S'cell'
p1244
tp1245
(lp1246
(I26
I4
F-0.625
S'other'
p1247
tp1248
a(I64
I79
F-0.5
S'regular'
p1249
tp1250
a(I77
I6
F-0.5
S'separate'
p1251
tp1252
a(I95
I44
F-0.375
S'smaller'
p1253
tp1254
a(I95
I44
F-0.625
S'lighter'
p1255
tp1256
a(I105
I0
F-0.875
S'worst'
p1257
tp1258
a(I131
I2
F1.0
S'good'
p1259
tp1260
a(I148
I5
F0.375
S'new'
p1261
tp1262
a(I159
I3
I0
S'next'
p1263
tp1264
a(I159
I3
F0.375
S'new'
p1265
tp1266
a(I159
I6
F0.375
S'new'
p1267
tp1268
as(S'calls'
p1269
tp1270
(lp1271
(I25
I5
F0.75
S'due'
p1272
tp1273
a(I35
I1
F0.5
S'clear'
p1274
tp1275
a(I85
I3
F-0.625
S'bad'
p1276
tp1277
a(I95
I8
I0
S'few'
p1278
tp1279
a(I95
I8
I0
S'brief'
p1280
tp1281
a(I95
I15
I0
S'most'
p1282
tp1283
a(I154
I7
I0
S'few'
p1284
tp1285
a(I154
I7
F-0.25
S'dropped'
p1286
tp1287
as(S'able'
p1288
S'to'
p1289
S'use'
p1290
tp1291
(lp1292
(I154
I5
F0.5
g152
tp1293
as(S'time'
p1294
tp1295
(lp1296
(I8
I1
F0.125
S'last'
p1297
tp1298
a(I10
I0
F-0.5
g759
tp1299
a(I15
I8
F0.5
S'second'
p1300
tp1301
a(I15
I14
F0.625
S'necessary'
p1302
tp1303
a(I15
I19
F0.375
S'busy'
p1304
tp1305
a(I20
I5
F0.5
S'expensive'
p1306
tp1307
a(I22
I1
F-0.5
S'open'
p1308
tp1309
a(I25
I1
F-0.5
g761
tp1310
a(I37
I21
F1.0
S'best'
p1311
tp1312
a(I45
I4
I0
S'only'
p1313
tp1314
a(I50
I4
I0
S'pen'
p1315
tp1316
a(I65
I7
F-0.5
g763
tp1317
a(I82
I17
F-0.75
S'comfortable'
p1318
tp1319
a(I84
I3
F0.125
S'first'
p1320
tp1321
a(I92
I29
F0.125
S'first'
p1322
tp1323
a(I92
I30
F0.5
S'second'
p1324
tp1325
a(I92
I31
I0
S'third'
p1326
tp1327
a(I94
I6
F-0.875
S'hard'
p1328
tp1329
a(I94
I12
F-0.5
g765
tp1330
a(I95
I51
I0
S'same'
p1331
tp1332
a(I116
I2
F-0.75
S'short'
p1333
tp1334
a(I126
I16
F-0.625
g767
tp1335
a(I127
I5
I0
S'only'
p1336
tp1337
a(I139
I3
I0
S'same'
p1338
tp1339
a(I140
I16
F-0.75
S'short'
p1340
tp1341
a(I140
I16
F-0.625
S'save'
p1342
tp1343
a(I141
I14
F0.5
g769
tp1344
a(I150
I1
F0.125
S'first'
p1345
tp1346
a(I159
I5
F-0.875
S'hard'
p1347
tp1348
as(S'find'
p1349
tp1350
(lp1351
(I91
I7
I0
S'net'
p1352
tp1353
as(S'months'
p1354
tp1355
(lp1356
(I6
I0
F-0.625
S'bad'
p1357
tp1358
a(I18
I0
I0
S'few'
p1359
tp1360
a(I23
I7
I0
S'few'
p1361
tp1362
a(I49
I0
I0
S'later'
p1363
tp1364
a(I65
I43
I0
S'few'
p1365
tp1366
a(I92
I34
I0
S'few'
p1367
tp1368
a(I111
I9
I0
S'few'
p1369
tp1370
a(I140
I14
I0
S'old'
p1371
tp1372
a(I141
I0
I0
S'few'
p1373
tp1374
a(I141
I5
I0
S'later'
p1375
tp1376
a(I142
I2
I0
S'great'
p1377
tp1378
as(S'star'
p1379
S'rating'
p1380
tp1381
(lp1382
(I64
I92
F0.125
S'able'
p1383
tp1384
a(I64
I92
I0
S'initial'
p1385
tp1386
as(S'touch'
p1387
S'screen'
p1388
tp1389
(lp1390
(I14
I1
F0.5
g1073
tp1391
a(I14
I2
F-0.875
g1075
tp1392
a(I16
I3
F0.5
g1077
tp1393
a(I19
I0
F0.5
g781
tp1394
a(I23
I2
F0.25
g783
tp1395
a(I24
I31
F0.5
g785
tp1396
a(I24
I31
F-0.75
g787
tp1397
a(I43
I3
F0.5
g789
tp1398
a(I50
I3
F0.5
g791
tp1399
a(I56
I7
F0.5
g793
tp1400
a(I56
I9
F0.5
g795
tp1401
a(I56
I9
F-0.75
g797
tp1402
a(I56
I12
F0.5
g799
tp1403
a(I58
I1
F0.5
g1088
tp1404
a(I77
I3
I0
g801
tp1405
a(I77
I3
F0.5
g803
tp1406
a(I87
I3
F-0.625
g805
tp1407
a(I87
I3
F-0.5
g807
tp1408
a(I94
I3
F-0.375
g809
tp1409
a(I95
I28
I0
g811
tp1410
a(I95
I67
F0.5
g813
tp1411
a(I97
I11
F0.5
g1097
tp1412
a(I97
I12
I0
g815
tp1413
a(I97
I12
I0
g817
tp1414
a(I101
I32
F0.5
g819
tp1415
a(I103
I2
F0.5
g821
tp1416
a(I115
I1
F0.5
g823
tp1417
a(I120
I2
F0.5
g1104
tp1418
a(I120
I7
I0
g1106
tp1419
a(I120
I17
F0.5
g825
tp1420
a(I126
I22
F0.5
g827
tp1421
a(I126
I26
F0.5
g829
tp1422
a(I129
I3
F0.5
g831
tp1423
a(I129
I3
I0
g833
tp1424
a(I135
I1
F0.5
g835
tp1425
a(I141
I8
F0.5
g837
tp1426
a(I143
I1
F0.5
g839
tp1427
a(I155
I0
F0.125
g311
tp1428
a(I155
I0
F-0.75
g1117
tp1429
as(S'to'
p1430
S'use'
p1431
S'keyboard'
p1432
tp1433
(lp1434
(I20
I20
F-0.875
g90
tp1435
a(I20
I22
F-0.75
g92
tp1436
a(I76
I2
F0.625
g100
tp1437
a(I95
I32
I0
g106
tp1438
a(I101
I29
F0.625
g112
tp1439
a(I108
I10
F0.625
g114
tp1440
a(I118
I11
I0
g116
tp1441
a(I126
I15
F0.375
g118
tp1442
as(S'push'
p1443
S'to'
p1444
S'talk'
p1445
tp1446
(lp1447
(I65
I45
F0.125
S'capable'
p1448
tp1449
as(S'screen'
p1450
tp1451
(lp1452
(I1
I5
F-0.375
S'black'
p1453
tp1454
a(I14
I1
F0.5
g1073
tp1455
a(I14
I2
F-0.875
g1075
tp1456
a(I14
I3
F-0.375
S'black'
p1457
tp1458
a(I16
I3
F0.5
g1077
tp1459
a(I19
I0
F0.5
g781
tp1460
a(I20
I9
F0.375
S'new'
p1461
tp1462
a(I22
I5
F0.875
S'nice'
p1463
tp1464
a(I22
I5
I0
S'table'
p1465
tp1466
a(I22
I6
F-0.75
S'bright'
p1467
tp1468
a(I23
I2
F0.25
g783
tp1469
a(I24
I31
F0.5
g785
tp1470
a(I24
I31
F-0.75
g787
tp1471
a(I43
I3
F0.5
g789
tp1472
a(I46
I3
I0
S'same'
p1473
tp1474
a(I50
I3
F0.5
g791
tp1475
a(I53
I5
F-0.75
S'painful'
p1476
tp1477
a(I56
I7
F0.5
g793
tp1478
a(I56
I9
F0.5
g795
tp1479
a(I56
I9
F-0.75
g797
tp1480
a(I56
I12
F0.5
g799
tp1481
a(I58
I1
F0.5
g1088
tp1482
a(I64
I53
F-0.75
S'difficult'
p1483
tp1484
a(I64
I53
F-0.75
S'bright'
p1485
tp1486
a(I64
I53
F-0.625
S'light'
p1487
tp1488
a(I77
I3
I0
g801
tp1489
a(I77
I3
F0.5
g803
tp1490
a(I78
I4
F1.0
S'good'
p1491
tp1492
a(I87
I3
F-0.625
g805
tp1493
a(I87
I3
F-0.5
g807
tp1494
a(I92
I7
I0
S'third'
p1495
tp1496
a(I92
I7
I0
S'most'
p1497
tp1498
a(I92
I7
F0.5
S'obvious'
p1499
tp1500
a(I92
I9
F-0.625
S'bad'
p1501
tp1502
a(I94
I3
F-0.375
g809
tp1503
a(I95
I28
I0
g811
tp1504
a(I95
I67
F0.5
g813
tp1505
a(I97
I11
F0.5
g1097
tp1506
a(I97
I12
I0
g815
tp1507
a(I97
I12
I0
g817
tp1508
a(I101
I32
F0.5
g819
tp1509
a(I103
I2
F0.5
g821
tp1510
a(I110
I0
F-0.5
S'poor'
p1511
tp1512
a(I115
I1
F0.5
g823
tp1513
a(I120
I2
F0.5
g1104
tp1514
a(I120
I7
I0
g1106
tp1515
a(I120
I17
F0.5
g825
tp1516
a(I126
I22
F0.5
g827
tp1517
a(I126
I26
F0.5
g829
tp1518
a(I129
I3
F0.5
g831
tp1519
a(I129
I3
I0
g833
tp1520
a(I131
I28
I0
S'latest'
p1521
tp1522
a(I135
I1
F0.5
g835
tp1523
a(I138
I18
F0.75
S'beautiful'
p1524
tp1525
a(I140
I13
F0.625
S'concrete'
p1526
tp1527
a(I141
I8
F0.5
g837
tp1528
a(I143
I1
F0.5
g839
tp1529
a(I154
I5
F0.625
S'easier'
p1530
tp1531
a(I155
I0
F-0.75
g1117
tp1532
as(S'everything'
p1533
tp1534
(lp1535
(I86
I9
F1.0
S'good'
p1536
tp1537
a(I118
I0
F-0.5
S'sure'
p1538
tp1539
a(I139
I10
F0.75
S'worth'
p1540
tp1541
a(I145
I3
F-0.125
S'overall'
p1542
tp1543
as(S'programs'
p1544
tp1545
(lp1546
(I64
I79
I0
S'such'
p1547
tp1548
a(I79
I3
F-0.625
S'other'
p1549
tp1550
a(I91
I4
I0
S'different'
p1551
tp1552
a(I95
I25
I0
S'few'
p1553
tp1554
a(I95
I28
F-0.5
S'open'
p1555
tp1556
a(I118
I16
F-0.625
S'free'
p1557
tp1558
a(I119
I5
F0.375
S'busy'
p1559
tp1560
a(I119
I8
I0
S'special'
p1561
tp1562
a(I120
I0
I0
S'useful'
p1563
tp1564
a(I138
I30
F-0.625
S'other'
p1565
tp1566
as(S'easier'
p1567
S'to'
p1568
S'use'
p1569
tp1570
(lp1571
(I67
I11
F0.375
S'much'
p1572
tp1573
a(I154
I5
F0.5
g152
tp1574
as(S'camera'
p1575
tp1576
(lp1577
(I18
I4
F1.0
S'good'
p1578
tp1579
a(I20
I16
F0.125
S'digital'
p1580
tp1581
a(I24
I24
F0.875
S'nice'
p1582
tp1583
a(I30
I2
F1.0
S'good'
p1584
tp1585
a(I32
I4
F-0.25
S'past'
p1586
tp1587
a(I53
I6
F0.75
S'due'
p1588
tp1589
a(I64
I13
I0
g846
tp1590
a(I64
I56
F0.375
S'new'
p1591
tp1592
a(I71
I3
F0.875
g848
tp1593
a(I95
I20
F-0.625
S'average'
p1594
tp1595
a(I98
I12
F1.0
g850
tp1596
a(I118
I12
F1.0
S'better'
p1597
tp1598
a(I127
I21
F0.875
S'nice'
p1599
tp1600
a(I127
I21
I0
S'standard'
p1601
tp1602
a(I127
I21
F0.375
S'available'
p1603
tp1604
a(I138
I35
F1.0
g852
tp1605
a(I152
I20
F-0.25
S'low'
p1606
tp1607
a(I152
I20
F-0.625
S'light'
p1608
tp1609
as(S'bluetooth'
p1610
tp1611
(lp1612
(I63
I8
I0
S'same'
p1613
tp1614
a(I71
I2
F0.5
S'personal'
p1615
tp1616
a(I91
I4
F1.0
S'better'
p1617
tp1618
a(I101
I7
F-0.75
S'dead'
p1619
tp1620
a(I126
I37
F0.375
S'enable'
p1621
tp1622
as(S'headphone'
p1623
S'jack'
p1624
tp1625
(lp1626
(I31
I5
F0.125
S'last'
p1627
tp1628
a(I31
I5
F-0.5
S'long'
p1629
tp1630
a(I87
I16
I0
S'old'
p1631
tp1632
a(I131
I22
I0
S'standard'
p1633
tp1634
as(S'proper'
p1635
S'video'
p1636
S'drivers'
p1637
tp1638
(lp1639
(I78
I1
I0
g743
tp1640
a(I78
I1
F0.75
g745
tp1641
as(S'windows'
p1642
S'mobile'
p1643
tp1644
(lp1645
(I10
I9
F-0.25
g25
tp1646
a(I10
I9
I0
g27
tp1647
a(I20
I23
I0
g29
tp1648
a(I24
I26
I0
g31
tp1649
a(I45
I3
I0
g33
tp1650
a(I64
I10
I0
g35
tp1651
a(I64
I59
F0.375
g37
tp1652
a(I64
I59
I0
g39
tp1653
a(I64
I59
I0
g41
tp1654
a(I64
I83
I0
g45
tp1655
a(I82
I0
F0.5
g51
tp1656
a(I82
I0
I0
g53
tp1657
a(I85
I5
F-0.625
g55
tp1658
a(I85
I11
I0
g57
tp1659
a(I85
I11
I0
g59
tp1660
a(I85
I11
F0.25
g61
tp1661
a(I85
I11
I0
g63
tp1662
a(I94
I1
I0
g65
tp1663
a(I104
I1
I0
g71
tp1664
a(I107
I2
I0
g73
tp1665
a(I126
I41
I0
g75
tp1666
a(I126
I41
I0
g77
tp1667
a(I133
I0
I0
g81
tp1668
a(I144
I3
I0
g83
tp1669
a(I147
I3
I0
g85
tp1670
as(S'people'
p1671
tp1672
(lp1673
(I7
I6
I0
S'many'
p1674
tp1675
a(I17
I5
I0
S'many'
p1676
tp1677
a(I23
I0
I0
S'most'
p1678
tp1679
a(I42
I2
I0
S'few'
p1680
tp1681
a(I53
I10
I0
S'many'
p1682
tp1683
a(I64
I41
F-0.5
S'separate'
p1684
tp1685
a(I64
I60
I0
S'many'
p1686
tp1687
a(I64
I60
F-0.25
S'past'
p1688
tp1689
a(I64
I68
I0
S'big'
p1690
tp1691
a(I82
I15
I0
S'most'
p1692
tp1693
a(I86
I4
F-0.625
S'other'
p1694
tp1695
a(I86
I10
F-0.625
S'other'
p1696
tp1697
a(I98
I16
I0
S'many'
p1698
tp1699
a(I126
I16
I0
S'most'
p1700
tp1701
a(I127
I9
I0
S'most'
p1702
tp1703
a(I127
I14
I0
S'most'
p1704
tp1705
as(S'feature'
p1706
tp1707
(lp1708
(I9
I1
F1.0
S'best'
p1709
tp1710
a(I20
I29
I0
S'most'
p1711
tp1712
a(I20
I29
F0.5
S'advanced'
p1713
tp1714
a(I32
I1
I0
S'full'
p1715
tp1716
a(I53
I0
I0
S'great'
p1717
tp1718
a(I53
I10
I0
S'great'
p1719
tp1720
a(I57
I1
F-0.625
S'free'
p1721
tp1722
a(I65
I28
F0.625
S'interested'
p1723
tp1724
a(I65
I28
F-0.5
S'sure'
p1725
tp1726
a(I92
I34
F0.125
S'impressive'
p1727
tp1728
a(I132
I5
F0.875
S'nice'
p1729
tp1730
a(I138
I44
F-0.125
S'slow'
p1731
tp1732
a(I139
I6
I0
S'great'
p1733
tp1734
a(I140
I5
I0
S'later'
p1735
tp1736
as(S'works'
p1737
tp1738
(lp1739
(I20
I25
I0
S'dandy'
p1740
tp1741
a(I31
I5
I0
S'great'
p1742
tp1743
a(I71
I0
I0
S'great'
p1744
tp1745
a(I87
I16
I0
S'great'
p1746
tp1747
as(g603
S'big'
p1748
S'deal'
p1749
tp1750
(lp1751
(I20
I29
I0
S'big'
p1752
tp1753
a(I27
I1
I0
S'big'
p1754
tp1755
a(I55
I18
I0
S'big'
p1756
tp1757
a(I92
I9
I0
S'big'
p1758
tp1759
a(I97
I24
I0
S'big'
p1760
tp1761
a(I98
I3
I0
S'big'
p1762
tp1763
a(I118
I20
I0
S'big'
p1764
tp1765
as(S'better'
p1766
tp1767
(lp1768
(I17
I15
F-0.5
S'sure'
p1769
tp1770
a(I67
I8
F0.375
S'much'
p1771
tp1772
a(I108
I12
F0.375
S'much'
p1773
tp1774
a(I118
I6
F0.375
S'much'
p1775
tp1776
as(S'device'
p1777
tp1778
(lp1779
(I20
I3
I0
S'latest'
p1780
tp1781
a(I20
I29
F0.375
S'similar'
p1782
tp1783
a(I45
I4
F-0.75
S'single'
p1784
tp1785
a(I60
I2
I0
S'handy'
p1786
tp1787
a(I64
I44
F-0.125
S'jog'
p1788
tp1789
a(I64
I74
F0.5
S'slick'
p1790
tp1791
a(I64
I78
F0.375
S'new'
p1792
tp1793
a(I65
I45
I0
S'latest'
p1794
tp1795
a(I65
I45
I0
S'mobile'
p1796
tp1797
a(I65
I45
F0.25
S'professional'
p1798
tp1799
a(I68
I12
I0
S'great'
p1800
tp1801
a(I87
I18
I0
S'standard'
p1802
tp1803
a(I92
I0
F0.25
S'powerful'
p1804
tp1805
a(I92
I34
F0.25
S'powerful'
p1806
tp1807
a(I100
I7
F-0.625
S'bad'
p1808
tp1809
a(I106
I3
F1.0
S'better'
p1810
tp1811
a(I106
I3
I0
S'mobile'
p1812
tp1813
a(I111
I6
F1.0
S'good'
p1814
tp1815
a(I114
I16
I0
S'great'
p1816
tp1817
a(I126
I45
I0
S'great'
p1818
tp1819
a(I129
I2
F0.125
S'capable'
p1820
tp1821
a(I133
I2
F0.125
S'enough'
p1822
tp1823
a(I133
I2
F0.75
S'worth'
p1824
tp1825
a(I133
I2
F0.375
S'tested'
p1826
tp1827
a(I134
I5
I0
S'great'
p1828
tp1829
a(I144
I2
F0.375
S'feature'
p1830
tp1831
a(I144
I2
F0.375
S'complete'
p1832
tp1833
a(I144
I5
F0.125
S'two-handed'
p1834
tp1835
a(I154
I8
F0.25
S'powerful'
p1836
tp1837
a(I156
I2
F0.625
S'responsible'
p1838
tp1839
as(S'bells'
p1840
S'and'
p1841
S'whistles'
p1842
tp1843
(lp1844
(I36
I5
I0
S'cool'
p1845
tp1846
as(S'music'
p1847
tp1848
(lp1849
(I65
I45
I0
S'mobile'
p1850
tp1851
a(I73
I6
F-0.375
S'simple'
p1852
tp1853
a(I138
I34
F-0.375
S'handicapped'
p1854
tp1855
a(I152
I19
I0
S'own'
p1856
tp1857
a(I157
I5
I0
S'great'
p1858
tp1859
as(S'watching'
p1860
S'videos'
p1861
tp1862
(lp1863
(I64
I6
F0.875
S'nice'
p1864
tp1865
as(S'data'
p1866
S'plan'
p1867
tp1868
(lp1869
(I148
I13
F-0.625
g947
tp1870
a(I148
I13
F-0.5
g949
tp1871
a(I148
I16
F0.5
g951
tp1872
as(S'3rd'
p1873
S'party'
p1874
tp1875
(lp1876
(I64
I60
F0.25
S'used'
p1877
tp1878
a(I106
I0
F-0.125
S'mine'
p1879
tp1880
as(S'looking'
p1881
tp1882
(lp1883
(I64
I23
F0.875
S'nice'
p1884
tp1885
as.