(dp0
(S'text'
p1
S'message'
p2
tp3
(lp4
(I0
I132
I0
S'next'
p5
I0
tp6
a(I0
I134
I0
S'next'
p7
I0
tp8
a(I8
I141
F0.25
S'helpful'
p9
I0
tp10
as(S'key'
p11
S'pad'
p12
tp13
(lp14
(I0
I1
F0.125
S'key'
p15
I0
tp16
a(I2
I102
F0.125
S'key'
p17
I0
tp18
as(S'listen'
p19
S'to'
p20
S'radio'
p21
tp22
(lp23
(I4
I494
F1.0
S'good'
p24
I0
tp25
a(I4
I531
F0.625
S'decent'
p26
I0
tp27
a(I0
I193
F0.875
S'nice'
p28
I0
tp29
a(I0
I195
F0.625
S'easy'
p30
I0
tp31
a(I1
I25
F1.0
S'good'
p32
I0
tp33
a(I4
I5
F0.625
S'decent'
p34
I0
tp35
a(I4
I494
F1.0
g24
I0
tp36
a(I4
I531
F0.625
g26
I0
tp37
a(I5
I37
F0.875
S'music'
p38
I0
tp39
a(I5
I62
F1.0
S'good'
p40
I0
tp41
a(I7
I117
I0
S'cool'
p42
I0
tp43
a(I9
I24
F0.25
S'portable'
p44
I0
tp45
a(I9
I143
F0.625
S'accessible'
p46
I0
tp47
a(I9
I153
I0
S'great'
p48
I0
tp49
as(S'battery'
p50
S'life'
p51
tp52
(lp53
(I0
I29
F-0.5
S'poor'
p54
I1
tp55
a(I0
I115
I0
S'least'
p56
I1
tp57
a(I0
I121
F-0.5
S'less'
p58
I1
tp59
a(I2
I92
I0
S'adequate'
p60
I1
tp61
a(I4
I138
F1.0
S'good'
p62
I1
tp63
a(I4
I337
I0
S'great'
p64
I1
tp65
a(I4
I473
F0.125
S'impressive'
p66
I1
tp67
a(I4
I535
I0
S'great'
p68
I1
tp69
a(I7
I143
F-0.5
S'poor'
p70
I1
tp71
a(I7
I149
F0.375
S'new'
p72
I1
tp73
a(I7
I149
F-0.5
S'long'
p74
I1
tp75
a(I0
I29
F-0.5
g54
I19
tp76
a(I0
I115
I0
g56
I19
tp77
a(I0
I121
F-0.5
g58
I19
tp78
a(I2
I92
I0
g60
I19
tp79
a(I4
I40
I0
S'very'
p80
I19
tp81
a(I4
I40
I0
S'useful'
p82
I19
tp83
a(I4
I138
F1.0
g62
I19
tp84
a(I4
I473
F0.125
g66
I19
tp85
a(I4
I535
I0
g68
I19
tp86
a(I7
I149
F-0.5
g74
I19
tp87
a(I1
I17
F0.375
S'new'
p88
I15
tp89
a(I1
I19
I0
S'latest'
p90
I15
tp91
a(I1
I29
F-0.5
S'sure'
p92
I15
tp93
a(I1
I29
F0.125
S'last'
p94
I15
tp95
a(I4
I19
F-0.375
S'daily'
p96
I15
tp97
a(I4
I215
F0.125
S'last'
p98
I15
tp99
a(I4
I224
F-0.5
S'heavy'
p100
I15
tp101
a(I4
I337
I0
g64
I15
tp102
a(I7
I84
F0.125
S'last'
p103
I15
tp104
a(I7
I84
F-0.5
S'long'
p105
I15
tp106
a(I7
I143
F-0.5
g70
I15
tp107
a(I7
I144
F0.125
S'last'
p108
I15
tp109
a(I7
I149
F0.375
g72
I15
tp110
a(I8
I69
F0.5
S'second'
p111
I15
tp112
a(I8
I200
I0
S'normal'
p113
I15
tp114
a(I8
I206
I0
S'least'
p115
I15
tp116
as(S'cingular'
p117
tp118
(lp119
(I4
I9
I0
S'local'
p120
I0
tp121
a(I4
I42
F0.125
S'first'
p122
I0
tp123
a(I4
I323
F0.375
S'available'
p124
I0
tp125
a(I5
I111
F-0.875
S'worst'
p126
I0
tp127
a(I5
I149
F0.375
S'new'
p128
I0
tp129
a(I8
I199
F0.75
S'due'
p130
I0
tp131
a(I8
I213
I0
S'common'
p132
I0
tp133
a(I9
I19
I0
S'local'
p134
I0
tp135
as(S'speakers'
p136
tp137
(lp138
(I0
I46
F0.875
S'music'
p139
I2
tp140
a(I0
I50
F-0.375
S'top'
p141
I2
tp142
a(I4
I415
I0
S'great'
p143
I2
tp144
a(I4
I516
F0.5
S'clear'
p145
I2
tp146
a(I4
I532
I0
S'external'
p147
I2
tp148
a(I5
I60
F1.0
S'good'
p149
I2
tp150
a(I5
I211
I0
S'external'
p151
I2
tp152
a(I8
I25
F0.375
S'loud'
p153
I2
tp154
a(I8
I25
I0
S'internal'
p155
I2
tp156
a(I9
I37
I-100
S'speakers-music'
p157
I2
tp158
a(I9
I180
I0
S'internal'
p159
I2
tp160
a(I9
I180
F0.375
S'loud'
p161
I2
tp162
as(S'ring'
p163
S'tones'
p164
tp165
(lp166
(I2
I25
F0.875
S'music'
p167
I0
tp168
a(I9
I88
I0
S'cool'
p169
I0
tp170
as(S'swivel'
p171
S'design'
p172
tp173
(lp174
(I0
I77
I0
S'unsure'
p175
I0
tp176
a(I4
I74
F0.875
S'attractive'
p177
I0
tp178
a(I4
I130
F0.625
S'kind'
p179
I0
tp180
a(I4
I159
F-0.5
S'open'
p181
I0
tp182
a(I4
I336
I0
S'weird'
p183
I0
tp184
a(I4
I458
F-0.5
S'open'
p185
I0
tp186
a(I4
I475
F0.375
S'similar'
p187
I0
tp188
a(I5
I138
I0
S'cool'
p189
I0
tp190
a(I8
I97
I0
S'third'
p191
I0
tp192
as(S'call'
p193
S'quality'
p194
tp195
(lp196
(I0
I60
I0
S'great'
p197
I0
tp198
a(I0
I95
F0.25
S'sharp'
p199
I0
tp200
a(I4
I157
F1.0
S'good'
p201
I0
tp202
a(I4
I464
I0
S'high'
p203
I0
tp204
a(I4
I464
I0
S'high'
p205
I0
tp206
a(I5
I14
I0
S'great'
p207
I0
tp208
a(I8
I120
I0
S'great'
p209
I0
tp210
as(S'sony'
p211
S'ericsson'
p212
tp213
(lp214
(I2
I72
I0
S'many'
p215
I0
tp216
a(I5
I11
I0
S'update'
p217
I0
tp218
a(I8
I205
F0.5
S'willing'
p219
I0
tp220
a(I4
I243
F0.125
S'first'
p221
I5
tp222
a(I5
I11
I0
g217
I5
tp223
a(I8
I34
F-0.625
S'other'
p224
I5
tp225
a(I9
I149
F0.25
S'original'
p226
I5
tp227
a(I2
I72
I0
g215
I0
tp228
a(I8
I205
F0.5
g219
I0
tp229
as(S'games'
p230
tp231
(lp232
(I0
I60
I0
S'great'
p233
I19
tp234
a(I2
I3
F0.875
S'music'
p235
I19
tp236
a(I4
I4
I0
S'cool'
p237
I19
tp238
a(I4
I464
F-0.625
S'free'
p239
I19
tp240
a(I5
I39
F1.0
S'good'
p241
I19
tp242
a(I5
I46
F0.375
S'new'
p243
I19
tp244
a(I7
I40
I0
S'mobile'
p245
I19
tp246
a(I7
I186
I0
S'3-d'
p247
I19
tp248
a(I7
I186
F0.25
S'favorite'
p249
I19
tp250
a(I8
I112
I0
S'full'
p251
I19
tp252
as(S'bluetooth'
p253
tp254
(lp255
(I3
I3
I0
S'cool'
p256
I3
tp257
a(I7
I270
I0
S'most'
p258
I3
tp259
a(I9
I77
F-0.125
S'slow'
p260
I3
tp261
as(S'sync'
p262
S'with'
p263
S'outlook'
p264
tp265
(lp266
(I4
I289
F0.625
S'easy'
p267
I0
tp268
as(S'reception'
p269
tp270
(lp271
(I0
I79
I0
S'great'
p272
I0
tp273
a(I0
I234
I0
S'great'
p274
I0
tp275
a(I1
I25
F1.0
S'better'
p276
I0
tp277
a(I1
I27
F-0.5
S'poor'
p278
I0
tp279
a(I1
I28
F1.0
S'good'
p280
I0
tp281
a(I2
I2
F1.0
S'best'
p282
I0
tp283
a(I2
I18
I0
S'great'
p284
I0
tp285
a(I4
I45
I0
S'great'
p286
I0
tp287
a(I4
I117
I0
S'great'
p288
I0
tp289
a(I4
I224
F-0.5
S'poor'
p290
I0
tp291
a(I4
I301
F1.0
S'better'
p292
I0
tp293
a(I4
I400
F1.0
S'better'
p294
I0
tp295
a(I4
I459
F1.0
S'better'
p296
I0
tp297
a(I4
I464
F1.0
S'good'
p298
I0
tp299
a(I4
I471
I0
S'great'
p300
I0
tp301
a(I4
I495
I0
S'great'
p302
I0
tp303
a(I4
I531
F-0.5
S'poor'
p304
I0
tp305
a(I4
I533
F1.0
S'good'
p306
I0
tp307
a(I5
I2
F1.0
S'good'
p308
I0
tp309
a(I5
I44
F1.0
S'good'
p310
I0
tp311
a(I8
I20
F1.0
S'better'
p312
I0
tp313
a(I8
I20
I0
S'many'
p314
I0
tp315
a(I8
I248
F0.875
S'important'
p316
I0
tp317
a(I8
I249
F-0.875
S'worst'
p318
I0
tp319
a(I10
I12
F-0.5
S'poor'
p320
I0
tp321
as(S'blue'
p322
S'tooth'
p323
tp324
(lp325
(I2
I27
I0
S'blue'
p326
I0
tp327
a(I7
I126
I0
S'blue'
p328
I0
tp329
a(I9
I47
I0
S'blue'
p330
I0
tp331
as(S'memory'
p332
tp333
(lp334
(I0
I242
F-0.625
S'bad'
p335
I5
tp336
a(I1
I52
F1.0
S'good'
p337
I5
tp338
a(I2
I28
F0.125
S'plenty'
p339
I5
tp340
a(I4
I269
F-0.625
S'free'
p341
I5
tp342
a(I4
I297
I0
S'external'
p343
I5
tp344
a(I4
I298
I0
S'proprietary'
p345
I5
tp346
a(I4
I381
I0
S'more'
p347
I5
tp348
a(I4
I381
I0
S'most'
p349
I5
tp350
a(I4
I398
I0
S'internal'
p351
I5
tp352
a(I4
I417
F0.25
S'bigger'
p353
I5
tp354
a(I4
I438
I0
S'such'
p355
I5
tp356
a(I4
I463
I0
S'more'
p357
I5
tp358
a(I5
I158
I0
S'internal'
p359
I5
tp360
a(I5
I160
F0.375
S'available'
p361
I5
tp362
a(I7
I63
F0.375
S'much'
p363
I5
tp364
a(I8
I17
F0.625
S'removable'
p365
I5
tp366
a(I8
I17
F-0.625
S'other'
p367
I5
tp368
a(I8
I131
I0
S'internal'
p369
I5
tp370
a(I9
I80
I0
S'same'
p371
I5
tp372
a(I9
I96
F-0.25
S'precious'
p373
I5
tp374
a(I9
I106
F-0.375
S'small'
p375
I5
tp376
a(I10
I3
I0
S'internal'
p377
I5
tp378
as(S'fm'
p379
S'radio'
p380
tp381
(lp382
(I2
I47
I0
S'cool'
p383
I0
tp384
a(I7
I117
I0
g42
I0
tp385
a(I9
I143
F0.625
g46
I0
tp386
a(I9
I153
I0
g48
I0
tp387
as(S'screen'
p388
S'of'
p389
S'death'
p390
tp391
(lp392
(I1
I37
F0.625
S'convenient'
p393
I0
tp394
a(I1
I41
F-0.25
S'white'
p395
I0
tp396
a(I5
I153
F-0.25
S'white'
p397
I0
tp398
as(S'transfer'
p399
tp400
(lp401
(I5
I158
I0
S'file'
p402
I1
tp403
as(S'cool'
p404
tp405
(lp406
(I4
I256
F-0.625
S'other'
p407
I11
tp408
a(I4
I539
I0
S'many'
p409
I11
tp410
as(S'button'
p411
tp412
(lp413
(I0
I134
F-0.75
S'single'
p414
I19
tp415
a(I4
I37
I0
S'most'
p416
I19
tp417
a(I4
I485
I0
S'glue'
p418
I19
tp419
a(I4
I534
F-0.75
S'single'
p420
I19
tp421
a(I4
I534
I0
S'same'
p422
I19
tp423
a(I4
I534
F0.875
S'music'
p424
I19
tp425
a(I5
I46
I0
S'large'
p426
I19
tp427
a(I9
I137
I0
S'few'
p428
I19
tp429
as(S'flash'
p430
tp431
(lp432
(I0
I221
F-0.75
S'little'
p433
I2
tp434
a(I3
I47
F1.0
S'good'
p435
I2
tp436
a(I4
I463
F0.25
S'larger'
p437
I2
tp438
a(I7
I241
F-0.625
S'light'
p439
I2
tp440
a(I9
I95
I0
S'very'
p441
I2
tp442
a(I9
I95
F-0.5
S'weak'
p443
I2
tp444
as(S'headphones'
p445
tp446
(lp447
(I2
I6
I0
S'weird'
p448
I0
tp449
a(I2
I7
F1.0
S'better'
p450
I0
tp451
a(I4
I140
F0.125
S'supplied'
p452
I0
tp453
a(I4
I140
F0.625
S'kind'
p454
I0
tp455
a(I4
I254
F0.125
S'able'
p456
I0
tp457
a(I4
I328
F-0.375
S'double'
p458
I0
tp459
a(I4
I381
I0
S'included'
p460
I0
tp461
a(I4
I381
F-0.75
S'uncomfortable'
p462
I0
tp463
a(I4
I381
I0
S'own'
p464
I0
tp465
a(I4
I534
F1.0
S'good'
p466
I0
tp467
a(I4
I534
I0
S'great'
p468
I0
tp469
a(I4
I534
I0
S'included'
p470
I0
tp471
a(I4
I541
F-0.25
S'low'
p472
I0
tp473
a(I5
I198
F1.0
S'good'
p474
I0
tp475
a(I9
I87
F0.25
S'favorite'
p476
I0
tp477
a(I9
I89
F-0.25
S'disappointing'
p478
I0
tp479
a(I9
I154
F0.875
S'nice'
p480
I0
tp481
a(I10
I9
F0.25
S'favorite'
p482
I0
tp483
as(S'w600i'
p484
tp485
(lp486
(I3
I76
F-0.5
S'miss'
p487
I0
tp488
a(I4
I154
F-0.625
S'other'
p489
I0
tp490
a(I9
I75
I0
S'full'
p491
I0
tp492
as(S'address'
p493
S'book'
p494
tp495
(lp496
(I4
I318
I0
S'buggy'
p497
I0
tp498
as(S'ear'
p499
S'buds'
p500
tp501
(lp502
(I1
I19
F1.0
S'good'
p503
I0
tp504
a(I8
I100
F0.75
S'ear'
p505
I0
tp506
a(I8
I109
F0.75
S'ear'
p507
I0
tp508
as(S'file'
p509
tp510
(lp511
(I1
I49
F0.5
S'incomplete'
p512
I6
tp513
as(S'ringtones'
p514
tp515
(lp516
(I0
I176
I0
S'cool'
p517
I0
tp518
a(I0
I177
F-0.625
S'free'
p519
I0
tp520
a(I0
I207
I0
S'own'
p521
I0
tp522
a(I4
I448
I0
S'individual'
p523
I0
tp524
a(I5
I210
I0
S'own'
p525
I0
tp526
as(S'songs'
p527
tp528
(lp529
(I0
I253
I0
S'few'
p530
I1
tp531
a(I2
I4
I0
S'many'
p532
I1
tp533
a(I4
I437
I0
S'many'
p534
I1
tp535
a(I4
I451
F-0.375
S'simple'
p536
I1
tp537
a(I7
I107
F-0.25
S'low'
p538
I1
tp539
a(I8
I102
F0.25
S'favorite'
p540
I1
tp541
a(I8
I254
I0
S'more'
p542
I1
tp543
a(I9
I23
F0.625
S'easy'
p544
I1
tp545
as(S'buttons'
p546
tp547
(lp548
(I0
I250
F-0.375
S'small'
p549
I13
tp550
a(I1
I19
I0
S'great'
p551
I13
tp552
a(I4
I207
F1.0
S'good'
p553
I13
tp554
a(I4
I312
F0.625
S'easy'
p555
I13
tp556
a(I4
I313
F-0.375
S'top'
p557
I13
tp558
a(I4
I375
I0
S'close'
p559
I13
tp560
a(I4
I375
F-0.625
S'other'
p561
I13
tp562
a(I5
I53
F0.625
S'easy'
p563
I13
tp564
a(I5
I230
F-0.375
S'small'
p565
I13
tp566
as(S'voice'
p567
S'dialing'
p568
tp569
(lp570
(I4
I449
F0.625
S'easy'
p571
I0
tp572
a(I4
I449
F-0.375
S'manual'
p573
I0
tp574
a(I9
I99
F1.0
S'good'
p575
I0
tp576
a(I4
I449
F0.625
g571
I4
tp577
a(I4
I449
F-0.375
g573
I4
tp578
a(I9
I99
F1.0
g575
I4
tp579
a(I9
I102
I0
S'dial'
p580
I4
tp581
as(S'calls'
p582
tp583
(lp584
(I0
I219
F0.75
S'receive'
p585
I0
tp586
a(I0
I226
I0
S'great'
p587
I0
tp588
a(I5
I189
F0.875
S'music'
p589
I0
tp590
a(I7
I193
F0.625
S'easy'
p591
I0
tp592
as(S'white'
p593
S'screen'
p594
tp595
(lp596
(I0
I109
F-0.25
S'white'
p597
I0
tp598
a(I1
I41
F-0.25
g395
I0
tp599
a(I2
I67
F-0.25
S'white'
p600
I0
tp601
a(I2
I68
I0
S'same'
p602
I0
tp603
a(I4
I392
F-0.25
S'white'
p604
I0
tp605
a(I5
I13
F-0.375
S'avoid'
p606
I0
tp607
a(I5
I13
F-0.625
S'dreaded'
p608
I0
tp609
a(I5
I153
F-0.25
g397
I0
tp610
a(I5
I155
F-0.25
S'white'
p611
I0
tp612
a(I4
I440
F-0.875
S'negative'
p613
I9
tp614
a(I5
I13
F-0.375
g606
I9
tp615
a(I5
I13
F-0.625
g608
I9
tp616
as(S'interface'
p617
tp618
(lp619
(I0
I27
F0.625
S'easy'
p620
I1
tp621
a(I0
I60
F0.5
S'clear'
p622
I1
tp623
a(I0
I79
F0.625
S'easy'
p624
I1
tp625
a(I0
I239
I0
S'great'
p626
I1
tp627
a(I1
I1
F0.75
S'beautiful'
p628
I1
tp629
a(I4
I253
I0
S'standard'
p630
I1
tp631
a(I4
I433
F-0.375
S'simple'
p632
I1
tp633
a(I7
I159
F0.625
S'easier'
p634
I1
tp635
a(I7
I223
F0.25
S'main'
p636
I1
tp637
as(S'signal'
p638
S'strength'
p639
tp640
(lp641
(I0
I97
I0
S'signal'
p642
I0
tp643
a(I2
I28
I0
S'great'
p644
I0
tp645
as(S'bells'
p646
S'and'
p647
S'whistles'
p648
tp649
(lp650
(I10
I18
F-0.625
S'other'
p651
I0
tp652
as(S'music'
p653
tp654
(lp655
(I2
I46
I0
S'large'
p656
I0
tp657
a(I4
I433
I0
S'common'
p658
I0
tp659
a(I5
I25
F-0.875
S'awful'
p660
I0
tp661
a(I7
I81
F-0.25
S'intense'
p662
I0
tp663
a(I7
I255
I0
S'own'
p664
I0
tp665
a(I8
I151
I0
S'more'
p666
I0
tp667
a(I8
I151
F-0.75
S'sufficient'
p668
I0
tp669
a(I9
I143
F0.125
S'digital'
p670
I0
tp671
a(I9
I187
F1.0
S'good'
p672
I0
tp673
a(I9
I187
F1.0
S'best'
p674
I0
tp675
as(S'digital'
p676
S'camera'
p677
tp678
(lp679
(I0
I85
F0.125
S'digital'
p680
I1
tp681
a(I4
I348
F-0.75
S'difficult'
p682
I1
tp683
a(I4
I442
F-0.625
S'other'
p684
I1
tp685
a(I5
I5
F0.125
S'digital'
p686
I1
tp687
a(I8
I95
F-0.5
S'regular'
p688
I1
tp689
a(I8
I148
F0.125
S'digital'
p690
I1
tp691
a(I9
I6
F0.125
S'digital'
p692
I1
tp693
a(I0
I17
F1.0
S'best'
p694
I1
tp695
a(I0
I85
F0.125
g680
I1
tp696
a(I0
I89
F1.0
S'good'
p697
I1
tp698
a(I0
I160
I0
S'few'
p699
I1
tp700
a(I1
I13
I0
S'cool'
p701
I1
tp702
a(I2
I45
F-0.125
S'overall'
p703
I1
tp704
a(I4
I5
F-0.625
S'bad'
p705
I1
tp706
a(I4
I71
I0
S'great'
p707
I1
tp708
a(I4
I305
F1.0
S'better'
p709
I1
tp710
a(I4
I306
I0
S'real'
p711
I1
tp712
a(I4
I345
F1.0
S'good'
p713
I1
tp714
a(I4
I348
F-0.75
g682
I1
tp715
a(I4
I439
F-0.375
S'simple'
p716
I1
tp717
a(I4
I439
F0.625
S'easy'
p718
I1
tp719
a(I4
I442
F-0.625
g684
I1
tp720
a(I4
I537
F1.0
S'good'
p721
I1
tp722
a(I4
I539
F0.875
S'nice'
p723
I1
tp724
a(I5
I5
F0.125
g686
I1
tp725
a(I5
I231
F-0.5
S'weak'
p726
I1
tp727
a(I7
I48
F0.125
S'impressive'
p728
I1
tp729
a(I7
I111
F0.875
S'nice'
p730
I1
tp731
a(I8
I49
F-0.25
S'low'
p732
I1
tp733
a(I8
I147
F1.0
S'best'
p734
I1
tp735
a(I8
I148
F0.125
g690
I1
tp736
a(I9
I6
F0.125
g692
I1
tp737
a(I9
I178
F1.0
S'best'
p738
I1
tp739
as(S'media'
p740
S'net'
p741
tp742
(lp743
(I5
I46
I0
S'net'
p744
I0
tp745
a(I9
I6
I0
S'net'
p746
I0
tp747
a(I9
I45
I0
S'net'
p748
I0
tp749
as(S'much'
p750
S'better'
p751
tp752
(lp753
(I1
I23
F0.375
S'much'
p754
I9
tp755
a(I4
I117
F0.375
S'much'
p756
I9
tp757
a(I4
I442
F0.375
S'much'
p758
I9
tp759
a(I4
I442
I0
S'most'
p760
I9
tp761
as(S'technical'
p762
S'support'
p763
tp764
(lp765
(I4
I219
F0.625
S'hold'
p766
I0
tp767
a(I4
I219
F0.5
S'technical'
p768
I0
tp769
a(I9
I168
F0.5
S'technical'
p770
I0
tp771
as(S'internet'
p772
tp773
(lp774
(I9
I137
I0
S'unnecessary'
p775
I6
tp776
as(S'lot'
p777
S'of'
p778
S'people'
p779
tp780
(lp781
(I1
I13
F-0.125
S'complex'
p782
I0
tp783
as(S'keypad'
p784
tp785
(lp786
(I3
I72
F-0.5
S'less'
p787
I0
tp788
a(I4
I28
I0
S'useful'
p789
I0
tp790
a(I4
I78
I0
S'weird'
p791
I0
tp792
a(I4
I223
F-0.875
S'awful'
p793
I0
tp794
a(I4
I392
F-0.375
S'small'
p795
I0
tp796
a(I7
I216
F0.625
S'easy'
p797
I0
tp798
a(I8
I229
F-0.75
S'difficult'
p799
I0
tp800
a(I8
I230
F-0.375
S'top'
p801
I0
tp802
a(I8
I230
F-0.125
S'opposite'
p803
I0
tp804
as(S'loud'
p805
S'and'
p806
S'clear'
p807
tp808
(lp809
(I2
I34
F0.5
S'clear'
p810
I0
tp811
a(I7
I47
I0
S'crystal'
p812
I0
tp813
a(I2
I34
F0.5
g810
I10
tp814
a(I4
I111
F0.625
S'easy'
p815
I10
tp816
a(I4
I165
I0
S'great'
p817
I10
tp818
as(S'mp3'
p819
S'player'
p820
tp821
(lp822
(I4
I381
I0
S'real'
p823
I1
tp824
a(I4
I383
F-0.5
S'separate'
p825
I1
tp826
a(I4
I400
I0
S'great'
p827
I1
tp828
a(I4
I424
F-0.625
S'other'
p829
I1
tp830
a(I5
I7
I0
S'great'
p831
I1
tp832
a(I7
I3
F0.625
S'decent'
p833
I1
tp834
a(I7
I190
F1.0
S'good'
p835
I1
tp836
a(I8
I103
F0.25
S'portable'
p837
I1
tp838
a(I4
I407
I0
S'great'
p839
I6
tp840
a(I5
I7
I0
g831
I6
tp841
a(I8
I82
F0.875
S'music'
p842
I6
tp843
as(S'256'
p844
S'mb'
p845
tp846
(lp847
(I4
I25
F1.0
S'good'
p848
I0
tp849
as(S'sound'
p850
S'quality'
p851
tp852
(lp853
(I2
I7
F0.375
S'much'
p854
I0
tp855
a(I4
I157
F1.0
g201
I0
tp856
a(I4
I204
I0
S'high'
p857
I0
tp858
a(I4
I204
I0
S'great'
p859
I0
tp860
a(I4
I407
F1.0
S'good'
p861
I0
tp862
a(I5
I59
F1.0
S'good'
p863
I0
tp864
a(I5
I179
I0
S'great'
p865
I0
tp866
a(I7
I41
F1.0
S'good'
p867
I0
tp868
a(I7
I196
F1.0
S'good'
p869
I0
tp870
a(I7
I271
F1.0
S'better'
p871
I0
tp872
a(I8
I124
F1.0
S'good'
p873
I0
tp874
a(I0
I184
F1.0
S'good'
p875
I7
tp876
a(I1
I2
I0
S'incredible'
p877
I7
tp878
a(I1
I24
F1.0
S'good'
p879
I7
tp880
a(I1
I44
I0
S'large'
p881
I7
tp882
a(I3
I40
F-0.625
S'other'
p883
I7
tp884
a(I4
I44
F0.625
S'perfect'
p885
I7
tp886
a(I4
I180
I0
S'great'
p887
I7
tp888
a(I4
I317
I0
S'weird'
p889
I7
tp890
a(I5
I59
F1.0
g863
I7
tp891
a(I5
I179
I0
g865
I7
tp892
a(I7
I196
F1.0
g869
I7
tp893
a(I8
I124
F1.0
g873
I7
tp894
a(I9
I23
I0
S'great'
p895
I7
tp896
as(S'text'
p897
S'messaging'
p898
tp899
(lp900
(I5
I252
F0.5
S'awkward'
p901
I0
tp902
a(I8
I99
I0
S'text'
p903
I0
tp904
as(S'walkman'
p905
tp906
(lp907
(I0
I181
F0.625
S'easy'
p908
I0
tp909
a(I1
I8
F1.0
S'best'
p910
I0
tp911
a(I4
I439
F0.375
S'similar'
p912
I0
tp913
a(I5
I151
F0.375
S'new'
p914
I0
tp915
as.