(dp0
(S'contacts'
p1
tp2
(lp3
(I62
I10
I0
S'different'
p4
tp5
a(I62
I14
F-0.625
S'bad'
p6
tp7
a(I133
I5
F0.625
S'easy'
p8
tp9
a(I136
I26
I0
S'different'
p10
tp11
as(S'problem'
p12
tp13
(lp14
(I40
I1
I0
S'different'
p15
tp16
a(I158
I1
I0
S'only'
p17
tp18
as(S'memory'
p19
S'card'
p20
tp21
(lp22
(I4
I5
F1.0
S'good'
p23
tp24
a(I62
I24
I0
S'internal'
p25
tp26
a(I174
I6
I0
S'internal'
p27
tp28
as(S'battery'
p29
S'life'
p30
tp31
(lp32
(I10
I1
I0
S'great'
p33
tp34
a(I66
I1
I0
S'sturdy'
p35
tp36
a(I66
I1
F0.375
S'reliable'
p37
tp38
a(I66
I1
I0
S'great'
p39
tp40
a(I66
I1
I0
S'great'
p41
tp42
a(I66
I6
F0.375
S'reliable'
p43
tp44
a(I72
I0
F1.0
S'good'
p45
tp46
a(I72
I0
F-0.875
S'negative'
p47
tp48
a(I94
I11
F1.0
S'good'
p49
tp50
a(I116
I12
I0
S'great'
p51
tp52
a(I125
I6
I0
S'great'
p53
tp54
a(I133
I14
F1.0
S'good'
p55
tp56
a(I138
I0
F-0.625
S'bad'
p57
tp58
a(I159
I1
F1.0
S'better'
p59
tp60
as(S'n'
p61
S'great'
p62
S'condition'
p63
tp64
(lp65
(I76
I3
I0
S'great'
p66
tp67
a(I115
I2
F1.0
S'good'
p68
tp69
a(I115
I2
F0.375
S'available'
p70
tp71
a(I115
I2
I0
S'great'
p72
tp73
a(I128
I0
I0
S'great'
p74
tp75
a(I130
I0
I0
S'great'
p76
tp77
a(I147
I1
F0.375
S'new'
p78
tp79
a(I147
I1
I0
S'great'
p80
tp81
a(I158
I0
I0
S'great'
p82
tp83
a(I166
I0
I0
S'great'
p84
tp85
as(S'music'
p86
S'essentials'
p87
S'kit'
p88
tp89
(lp90
(I4
I4
F0.875
S'music'
p91
tp92
a(I8
I5
F0.875
S'music'
p93
tp94
a(I69
I6
F0.875
S'music'
p95
tp96
a(I78
I0
F0.875
S'music'
p97
tp98
a(I78
I0
I0
S'own'
p99
tp100
a(I170
I21
F0.875
S'music'
p101
tp102
a(I170
I41
F0.875
S'music'
p103
tp104
a(I174
I3
F0.875
S'music'
p105
tp106
a(I174
I3
F0.875
S'music'
p107
tp108
as(S'1'
p109
S'3'
p110
S'megapixel'
p111
tp112
(lp113
(I136
I28
F0.875
S'nice'
p114
tp115
a(I136
I82
F0.875
S'nice'
p116
tp117
as(S'text'
p118
tp119
(lp120
(I67
I9
I0
S'arbitrary'
p121
tp122
a(I108
I17
I0
S'same'
p123
tp124
a(I136
I23
F0.375
S'new'
p125
tp126
a(I136
I23
F-0.375
S'simple'
p127
tp128
a(I136
I23
F0.625
S'easy'
p129
tp130
as(S'micro'
p131
S'sd'
p132
S'card'
p133
tp134
(lp135
(I12
I3
F0.875
S'nice'
p136
tp137
a(I133
I14
F0.375
S'much'
p138
tp139
a(I146
I10
F-0.5
S'sure'
p140
tp141
a(I146
I10
F-0.5
S'regular'
p142
tp143
as(S'price'
p144
tp145
(lp146
(I23
I3
F-0.25
S'inexpensive'
p147
tp148
a(I25
I1
I0
S'great'
p149
tp150
a(I58
I2
I0
S'unbelievable'
p151
tp152
a(I58
I2
F-0.25
S'low'
p153
tp154
a(I87
I5
F1.0
S'good'
p155
tp156
a(I89
I1
F1.0
S'good'
p157
tp158
a(I108
I22
I0
S'same'
p159
tp160
a(I133
I28
F1.0
S'good'
p161
tp162
a(I140
I1
F0.5
S'reasonable'
p163
tp164
a(I198
I3
I0
S'great'
p165
tp166
a(I200
I2
F0.75
S'worth'
p167
tp168
a(I203
I2
F1.0
S'good'
p169
tp170
as(S'sound'
p171
tp172
(lp173
(I12
I7
I0
S'great'
p174
tp175
a(I12
I7
F0.375
S'intelligible'
p176
tp177
a(I31
I1
I0
S'sturdy'
p178
tp179
a(I31
I1
F0.625
S'easy'
p180
tp181
a(I108
I42
F0.5
S'clear'
p182
tp183
a(I113
I1
F-0.5
S'poor'
p184
tp185
a(I117
I10
F0.5
S'reasonable'
p186
tp187
a(I136
I30
I0
S'cheese'
p188
tp189
a(I146
I3
I0
S'tinny'
p190
tp191
a(I146
I3
I0
S'same'
p192
tp193
a(I146
I3
F0.875
S'music'
p194
tp195
a(I170
I18
F0.5
S'satisfactory'
p196
tp197
a(I170
I18
I0
S'great'
p198
tp199
as(S'service'
p200
tp201
(lp202
(I13
I4
F-0.625
S'average'
p203
tp204
a(I91
I0
I0
S'great'
p205
tp206
a(I91
I0
I0
S'great'
p207
tp208
a(I94
I3
F0.375
S'reliable'
p209
tp210
a(I97
I7
F1.0
S'better'
p211
tp212
a(I108
I35
F0.5
S'comparable'
p213
tp214
a(I131
I3
I0
S'same'
p215
tp216
a(I136
I4
I0
S'great'
p217
tp218
a(I167
I18
F1.0
S'good'
p219
tp220
a(I170
I30
F-0.5
S'try'
p221
tp222
a(I177
I6
F0.125
S'solid'
p223
tp224
a(I198
I3
I0
S'great'
p225
tp226
as(S'everything'
p227
tp228
(lp229
(I4
I3
F-0.375
S'top'
p230
tp231
a(I4
I6
F-0.375
S'top'
p232
tp233
a(I136
I3
F0.625
S'easy'
p234
tp235
as(S'voice'
p236
tp237
(lp238
(I54
I7
F0.625
S'easy'
p239
tp240
a(I62
I11
I0
S'own'
p241
tp242
a(I171
I7
F0.125
S'first'
p243
tp244
as(S'number'
p245
tp246
(lp247
(I64
I27
F0.375
S'new'
p248
tp249
a(I64
I27
F0.625
S'easier'
p250
tp251
a(I64
I27
F-0.625
S'other'
p252
tp253
a(I98
I3
F0.375
S'new'
p254
tp255
a(I108
I15
I0
S'enter'
p256
tp257
a(I127
I14
I0
S'different'
p258
tp259
a(I127
I16
I0
S'different'
p260
tp261
a(I127
I18
I0
S'same'
p262
tp263
as(S'camera'
p264
tp265
(lp266
(I10
I1
F1.0
S'good'
p267
tp268
a(I14
I7
I0
S'incredible'
p269
tp270
a(I36
I2
F1.0
S'better'
p271
tp272
a(I62
I39
I0
S'useful'
p273
tp274
a(I62
I42
F0.125
S'capable'
p275
tp276
a(I75
I13
I0
S'great'
p277
tp278
a(I125
I2
I0
S'least'
p279
tp280
a(I125
I2
F-0.875
S'trouble'
p281
tp282
a(I127
I4
I0
S'real'
p283
tp284
a(I127
I25
F1.0
S'good'
p285
tp286
a(I133
I9
F1.0
S'good'
p287
tp288
a(I133
I13
I0
S'same'
p289
tp290
a(I146
I8
I0
S'great'
p291
tp292
a(I148
I5
F0.125
S'digital'
p293
tp294
a(I170
I36
F0.75
S'worth'
p295
tp296
a(I170
I36
F0.375
S'extra'
p297
tp298
a(I177
I4
F0.875
S'important'
p299
tp300
as(S'speaker'
p301
tp302
(lp303
(I107
I10
I0
S'great'
p304
tp305
a(I146
I5
I0
S'large'
p306
tp307
a(I200
I3
F1.0
S'good'
p308
tp309
as(S'bluetooth'
p310
tp311
(lp312
(I3
I0
I0
S'standard'
p313
tp314
a(I62
I18
F-0.625
S'other'
p315
tp316
a(I108
I20
I0
S'great'
p317
tp318
a(I108
I26
I0
S'great'
p319
tp320
a(I188
I6
F1.0
S'good'
p321
tp322
as(S'reception'
p323
tp324
(lp325
(I10
I1
I0
S'great'
p326
tp327
a(I18
I3
I0
S'great'
p328
tp329
a(I52
I0
I0
S'great'
p330
tp331
a(I54
I17
F1.0
S'good'
p332
tp333
a(I64
I21
F-0.125
S'mine'
p334
tp335
a(I64
I21
I0
S'great'
p336
tp337
a(I64
I22
F1.0
S'best'
p338
tp339
a(I64
I26
F1.0
S'good'
p340
tp341
a(I64
I26
F-0.5
S'sure'
p342
tp343
a(I75
I12
I0
S'great'
p344
tp345
a(I83
I0
I0
S'great'
p346
tp347
a(I94
I0
F-0.625
S'average'
p348
tp349
a(I107
I10
F1.0
S'good'
p350
tp351
a(I125
I9
I0
S'great'
p352
tp353
a(I133
I4
F0.625
S'perfect'
p354
tp355
a(I148
I7
F-0.875
S'inferior'
p356
tp357
a(I190
I1
F1.0
S'good'
p358
tp359
a(I190
I3
F1.0
S'better'
p360
tp361
a(I197
I1
F-0.25
S'disappointing'
p362
tp363
as(S'blue'
p364
S'tooth'
p365
tp366
(lp367
(I52
I1
I0
S'blue'
p368
tp369
a(I150
I1
I0
S'blue'
p370
tp371
a(I183
I3
F-0.5
S'certain'
p372
tp373
as(S'v'
p374
S'cast'
p375
tp376
(lp377
(I4
I8
F0.875
S'music'
p378
tp379
as(S'life'
p380
tp381
(lp382
(I4
I24
F-0.625
S'free'
p383
tp384
a(I66
I1
I0
g41
tp385
a(I94
I11
F1.0
g49
tp386
a(I116
I12
I0
g51
tp387
a(I125
I6
I0
g53
tp388
a(I133
I14
F1.0
g55
tp389
as(S'a'
p390
S'micro'
p391
S'sd'
p392
tp393
(lp394
(I146
I10
F-0.5
g140
tp395
a(I146
I10
F-0.5
g142
tp396
as(S'ring'
p397
S'tones'
p398
tp399
(lp400
(I127
I9
F1.0
S'good'
p401
tp402
as(S'pictures'
p403
tp404
(lp405
(I48
I6
F0.875
S'music'
p406
tp407
a(I62
I3
F-0.375
S'black'
p408
tp409
a(I75
I14
F0.5
S'clear'
p410
tp411
a(I75
I17
F0.875
S'music'
p412
tp413
a(I133
I12
F0.625
S'easy'
p414
tp415
a(I136
I29
F1.0
S'good'
p416
tp417
a(I190
I4
F0.125
S'able'
p418
tp419
as(S'vcast'
p420
tp421
(lp422
(I89
I11
F-0.625
S'other'
p423
tp424
as(g390
S'verizon'
p425
S'store'
p426
tp427
(lp428
(I167
I6
F0.5
S'told'
p429
tp430
as(S'features'
p431
tp432
(lp433
(I8
I2
F0.375
S'extra'
p434
tp435
a(I8
I2
F0.875
S'music'
p436
tp437
a(I14
I14
I0
S'great'
p438
tp439
a(I14
I26
F0.875
S'happy'
p440
tp441
a(I14
I26
F0.375
S'much'
p442
tp443
a(I14
I26
F0.625
S'easy'
p444
tp445
a(I18
I5
I0
S'most'
p446
tp447
a(I18
I5
F-0.625
S'useless'
p448
tp449
a(I23
I2
F-0.625
S'other'
p450
tp451
a(I62
I41
F0.625
S'convenient'
p452
tp453
a(I69
I14
F1.0
S'good'
p454
tp455
a(I69
I15
F-0.75
S'dark'
p456
tp457
a(I100
I13
I0
S'fewer'
p458
tp459
a(I123
I3
I0
S'great'
p460
tp461
a(I133
I7
I0
S'great'
p462
tp463
a(I134
I2
I0
S'many'
p464
tp465
a(I155
I2
I0
S'many'
p466
tp467
a(I155
I2
I0
S'more'
p468
tp469
a(I159
I3
I0
S'basic'
p470
tp471
a(I159
I5
F1.0
S'good'
p472
tp473
a(I194
I2
F-0.625
S'other'
p474
tp475
as(S'essentials'
p476
S'kit'
p477
tp478
(lp479
(I4
I4
F0.875
g91
tp480
a(I8
I5
F0.875
g93
tp481
a(I69
I6
F0.875
g95
tp482
a(I78
I0
F0.875
g97
tp483
a(I170
I21
F0.875
g101
tp484
a(I170
I41
F0.875
g103
tp485
a(I174
I3
F0.875
g105
tp486
a(I174
I3
F0.875
g107
tp487
as(S'verizon'
p488
tp489
(lp490
(I12
I2
F0.375
S'new'
p491
tp492
a(I14
I20
F-0.625
S'other'
p493
tp494
a(I62
I37
I0
S'add-on'
p495
tp496
a(I64
I20
I0
S'general'
p497
tp498
a(I67
I13
I0
S'most'
p499
tp500
a(I67
I13
F0.5
S'true'
p501
tp502
a(I67
I13
I0
S'different'
p503
tp504
a(I94
I3
F0.625
S'easy'
p505
tp506
a(I97
I4
F-0.875
S'worst'
p507
tp508
a(I97
I8
I0
S'most'
p509
tp510
a(I98
I2
F-0.75
S'painful'
p511
tp512
a(I99
I6
F-0.625
S'other'
p513
tp514
a(I99
I8
F-0.625
S'free'
p515
tp516
a(I100
I12
F-0.75
S'worse'
p517
tp518
a(I102
I2
F0.875
S'happy'
p519
tp520
a(I102
I2
I0
S'anymore'
p521
tp522
a(I133
I9
F-0.375
S'manual'
p523
tp524
a(I133
I29
F-0.125
S'mine'
p525
tp526
a(I136
I54
I0
S'song'
p527
tp528
a(I136
I54
F-0.75
S'stupid'
p529
tp530
a(I159
I4
I0
S'general'
p531
tp532
a(I165
I4
I0
S'very'
p533
tp534
a(I165
I4
F-0.75
S'likely'
p535
tp536
a(I172
I2
I0
S'generic'
p537
tp538
a(I183
I3
F0.875
S'music'
p539
tp540
a(I193
I4
F-0.625
S'other'
p541
tp542
as(S'people'
p543
tp544
(lp545
(I49
I0
I0
S'older'
p546
tp547
a(I98
I10
F0.875
S'nice'
p548
tp549
a(I98
I10
F0.25
S'helpful'
p550
tp551
a(I127
I7
I0
S'most'
p552
tp553
a(I127
I7
F0.375
S'new'
p554
tp555
a(I133
I16
F0.875
S'music'
p556
tp557
a(I159
I3
I0
S'many'
p558
tp559
a(I170
I3
I0
S'select'
p560
tp561
a(I170
I19
I0
S'most'
p562
tp563
as(S'feature'
p564
tp565
(lp566
(I4
I13
I0
S'great'
p567
tp568
a(I4
I14
F-0.375
S'top'
p569
tp570
a(I4
I14
F0.75
S'beautiful'
p571
tp572
a(I8
I4
F-0.5
S'vibrate'
p573
tp574
a(I8
I4
F0.125
S'able'
p575
tp576
a(I18
I12
F0.125
S'practical'
p577
tp578
a(I62
I33
F1.0
S'good'
p579
tp580
a(I62
I33
I0
S'ergonomic'
p581
tp582
a(I67
I4
I0
S'such'
p583
tp584
a(I75
I8
I0
S'great'
p585
tp586
a(I116
I9
I0
S'great'
p587
tp588
a(I125
I3
F0.875
S'nice'
p589
tp590
a(I125
I3
F-0.5
S'long'
p591
tp592
a(I136
I77
F0.875
S'nice'
p593
tp594
a(I136
I83
F0.875
S'nice'
p595
tp596
as(S'lg'
p597
S'vx8300'
p598
tp599
(lp600
(I29
I0
F0.375
S'new'
p601
tp602
a(I42
I3
F0.25
S'bigger'
p603
tp604
a(I80
I0
I0
S'old'
p605
tp606
a(I159
I2
I0
S'large'
p607
tp608
a(I174
I2
I0
S'old'
p609
tp610
a(I174
I2
F0.375
S'new'
p611
tp612
as(S'display'
p613
S'themes'
p614
tp615
(lp616
(I125
I7
I0
S'different'
p617
tp618
as(S'and'
p619
S'sound'
p620
S'quality'
p621
tp622
(lp623
(I31
I1
I0
g178
tp624
a(I31
I1
F0.625
g180
tp625
a(I31
I1
F1.0
S'good'
p626
tp627
a(I100
I13
F-0.75
S'worse'
p628
tp629
a(I120
I11
F-0.25
S'highest'
p630
tp631
as(g390
S'long'
p632
S'time'
p633
tp634
(lp635
(I38
I2
F-0.5
S'long'
p636
tp637
a(I137
I1
F-0.5
S'long'
p638
tp639
a(I146
I0
F-0.5
S'long'
p640
tp641
a(I152
I0
F-0.5
S'long'
p642
tp643
a(I195
I2
F-0.5
S'long'
p644
tp645
a(I195
I2
I0
S'hot'
p646
tp647
as(S'years'
p648
tp649
(lp650
(I14
I31
I0
S'next'
p651
tp652
a(I36
I0
F-0.5
S'less'
p653
tp654
a(I63
I0
F1.0
S'good'
p655
tp656
a(I66
I2
F0.125
S'first'
p657
tp658
a(I67
I21
I0
S'more'
p659
tp660
a(I127
I17
I0
S'many'
p661
tp662
a(I127
I17
F-0.625
S'other'
p663
tp664
a(I133
I7
I0
S'old'
p665
tp666
a(I170
I0
F0.125
S'last'
p667
tp668
a(I170
I3
F0.125
S'last'
p669
tp670
a(I202
I4
I0
S'old'
p671
tp672
as(S'menu'
p673
tp674
(lp675
(I67
I5
I0
S'least'
p676
tp677
a(I100
I10
F-0.5
S'inefficient'
p678
tp679
a(I108
I13
F-0.375
S'simple'
p680
tp681
a(I133
I8
I0
S'special'
p682
tp683
a(I167
I3
I0
S'different'
p684
tp685
as(S'ringtones'
p686
tp687
(lp688
(I1
I2
F-0.625
S'free'
p689
tp690
a(I36
I1
F0.875
S'music'
p691
tp692
a(I54
I10
F1.0
S'good'
p693
tp694
a(I62
I14
I0
S'obsessive'
p695
tp696
a(I62
I16
I0
S'latest'
p697
tp698
a(I62
I46
F-0.5
S'dull'
p699
tp700
a(I100
I8
F-0.375
S'manual'
p701
tp702
a(I100
I8
F0.875
S'music'
p703
tp704
a(I123
I5
F-0.875
S'awful'
p705
tp706
a(I133
I17
I0
S'own'
p707
tp708
a(I133
I17
F-0.625
S'free'
p709
tp710
a(I136
I13
F0.375
S'loud'
p711
tp712
a(I136
I53
I0
S'website'
p713
tp714
a(I136
I53
I0
S'own'
p715
tp716
a(I167
I14
I0
S'own'
p717
tp718
a(I170
I57
I0
S'least'
p719
tp720
a(I188
I4
I0
S'few'
p721
tp722
as(S'works'
p723
tp724
(lp725
(I52
I1
I0
S'great'
p726
tp727
a(I70
I0
F0.875
S'happy'
p728
tp729
a(I70
I0
F0.125
S'first'
p730
tp731
a(I82
I0
I0
S'great'
p732
tp733
a(I94
I7
F-0.25
S'low'
p734
tp735
a(I120
I11
I0
S'great'
p736
tp737
a(I171
I6
F-0.5
S'ed'
p738
tp739
a(I173
I0
I0
S'great'
p740
tp741
a(I178
I0
I0
S'great'
p742
tp743
as(g61
S'r'
p744
S'pocket'
p745
tp746
(lp747
(I94
I13
F0.625
S'easy'
p748
tp749
a(I186
I0
F0.625
S'easy'
p750
tp751
as(S'vz'
p752
S'navigator'
p753
tp754
(lp755
(I4
I3
F0.125
S'capable'
p756
tp757
as(S'battery'
p758
tp759
(lp760
(I10
I1
I0
g33
tp761
a(I62
I5
I0
S'standard'
p762
tp763
a(I66
I1
I0
g35
tp764
a(I66
I1
F0.375
g37
tp765
a(I66
I1
I0
g39
tp766
a(I66
I6
F0.375
g43
tp767
a(I72
I0
F1.0
g45
tp768
a(I72
I0
F-0.875
g47
tp769
a(I107
I0
F0.25
S'original'
p770
tp771
a(I117
I4
F0.375
S'new'
p772
tp773
a(I136
I68
I0
S'full'
p774
tp775
a(I138
I0
F-0.625
g57
tp776
a(I153
I13
F-0.25
S'low'
p777
tp778
a(I158
I3
F-0.625
S'bad'
p779
tp780
a(I159
I1
F1.0
g59
tp781
a(I189
I1
F0.375
S'new'
p782
tp783
a(I189
I2
F0.375
S'new'
p784
tp785
a(I195
I2
F0.125
S'last'
p786
tp787
a(I200
I1
F0.5
S'functional'
p788
tp789
as(S'store'
p790
tp791
(lp792
(I45
I1
F0.375
S'new'
p793
tp794
a(I55
I0
F0.5
S'possible'
p795
tp796
a(I62
I45
F0.875
S'music'
p797
tp798
a(I62
I45
F0.625
S'easy'
p799
tp800
a(I98
I7
I0
S'local'
p801
tp802
a(I98
I7
I0
S'old'
p803
tp804
a(I146
I13
F-0.5
S'sure'
p805
tp806
a(I167
I6
F0.5
g429
tp807
as(S'caller'
p808
S'id'
p809
tp810
(lp811
(I62
I13
F-0.5
S'undesirable'
p812
tp813
as(S'vx8300'
p814
tp815
(lp816
(I18
I1
F-0.625
S'free'
p817
tp818
a(I19
I2
F0.25
S'original'
p819
tp820
a(I29
I0
F0.375
g601
tp821
a(I33
I0
F0.375
S'new'
p822
tp823
a(I42
I3
F0.25
g603
tp824
a(I159
I2
I0
g607
tp825
a(I174
I2
F0.375
g611
tp826
a(I193
I2
F0.625
S'fair'
p827
tp828
as(S'hold'
p829
g390
S'charge'
p830
tp831
(lp832
(I117
I3
I0
S'more'
p833
tp834
a(I194
I2
F-0.5
S'long'
p835
tp836
as(S'cell'
p837
tp838
(lp839
(I4
I0
I0
S'sized'
p840
tp841
a(I101
I0
F-0.375
S'simple'
p842
tp843
a(I123
I1
F0.125
S'first'
p844
tp845
a(I134
I1
F-0.375
S'simple'
p846
tp847
a(I136
I0
I0
S'fourth'
p848
tp849
a(I136
I85
F0.375
S'swore'
p850
tp851
a(I137
I0
I0
S'different'
p852
tp853
a(I170
I5
F0.5
S'clear'
p854
tp855
a(I170
I23
F-0.625
S'light'
p856
tp857
a(I198
I1
I0
S'local'
p858
tp859
as(S'calls'
p860
tp861
(lp862
(I73
I0
F0.5
S'clear'
p863
tp864
a(I73
I0
F-0.25
S'droped'
p865
tp866
a(I100
I1
I0
S'many'
p867
tp868
a(I107
I9
I0
S'most'
p869
tp870
a(I108
I43
F-0.5
S'less'
p871
tp872
a(I110
I1
I0
S'text'
p873
tp874
a(I110
I1
F0.125
S'capable'
p875
tp876
a(I133
I3
F0.5
S'clear'
p877
tp878
a(I170
I4
F0.5
S'clearer'
p879
tp880
a(I170
I4
F-0.625
S'other'
p881
tp882
a(I193
I4
F0.125
S'valid'
p883
tp884
as(S'thing'
p885
tp886
(lp887
(I9
I0
I0
S'only'
p888
tp889
a(I11
I1
I0
S'only'
p890
tp891
a(I11
I1
F-0.625
S'bad'
p892
tp893
a(I14
I0
I0
S'great'
p894
tp895
a(I14
I21
F0.875
S'music'
p896
tp897
a(I36
I12
I0
S'next'
p898
tp899
a(I36
I12
F1.0
S'best'
p900
tp901
a(I43
I1
I0
S'same'
p902
tp903
a(I64
I14
F-0.25
S'disappointing'
p904
tp905
a(I74
I1
F0.125
S'typical'
p906
tp907
a(I99
I4
I0
S'only'
p908
tp909
a(I108
I16
F-0.625
S'bad'
p910
tp911
a(I108
I19
F0.125
S'last'
p912
tp913
a(I127
I21
F1.0
S'good'
p914
tp915
a(I146
I12
F-0.75
S'minor'
p916
tp917
as(S'music'
p918
S'essentials'
p919
tp920
(lp921
(I8
I5
F0.875
g93
tp922
a(I69
I6
F0.875
g95
tp923
a(I78
I0
F0.875
g97
tp924
a(I78
I0
I0
g99
tp925
a(I170
I21
F0.875
g101
tp926
a(I170
I41
F0.875
g103
tp927
a(I174
I3
F0.875
g105
tp928
as(S'charge'
p929
tp930
(lp931
(I107
I1
F-0.375
S'weekly'
p932
tp933
a(I117
I3
I0
g833
tp934
a(I194
I2
F-0.5
g835
tp935
as(S'call'
p936
tp937
(lp938
(I167
I4
F1.0
S'best'
p939
tp940
a(I170
I3
F1.0
S'good'
p941
tp942
a(I170
I3
F1.0
S'good'
p943
tp944
a(I177
I4
F0.625
S'easy'
p945
tp946
as(S'micro'
p947
S'sd'
p948
tp949
(lp950
(I146
I10
F-0.5
g140
tp951
a(I146
I10
F-0.5
g142
tp952
as(S'speakerphone'
p953
tp954
(lp955
(I10
I4
F1.0
S'good'
p956
tp957
a(I14
I3
F0.5
S'clear'
p958
tp959
a(I36
I5
F1.0
S'better'
p960
tp961
a(I54
I8
F0.5
S'clear'
p962
tp963
a(I69
I4
F1.0
S'good'
p964
tp965
a(I125
I5
F0.5
S'clear'
p966
tp967
a(I155
I6
I0
S'great'
p968
tp969
as(g390
S'microsd'
p970
S'card'
p971
tp972
(lp973
(I62
I24
I0
S'optional'
p974
tp975
a(I62
I29
I0
S'big'
p976
tp977
a(I62
I43
I0
S'optional'
p978
tp979
as(S'music'
p980
tp981
(lp982
(I4
I9
F1.0
S'good'
p983
tp984
a(I4
I12
F-0.625
S'other'
p985
tp986
a(I78
I0
I0
g99
tp987
as(S'call'
p988
S'quality'
p989
tp990
(lp991
(I67
I1
F1.0
S'good'
p992
tp993
a(I69
I23
F1.0
S'better'
p994
tp995
a(I69
I23
F-0.75
S'worse'
p996
tp997
a(I69
I23
F-0.625
S'other'
p998
tp999
a(I94
I3
F1.0
S'good'
p1000
tp1001
a(I148
I1
F-0.5
S'poor'
p1002
tp1003
a(I177
I4
F0.625
g945
tp1004
as(S'sd'
p1005
S'card'
p1006
tp1007
(lp1008
(I12
I3
F0.875
g136
tp1009
a(I120
I14
I0
S'own'
p1010
tp1011
a(I133
I14
F0.375
g138
tp1012
a(I146
I10
F-0.5
g142
tp1013
a(I170
I42
F0.125
S'essential'
p1014
tp1015
as(S'voice'
p1016
S'command'
p1017
tp1018
(lp1019
(I62
I11
F0.5
S'matching'
p1020
tp1021
a(I62
I11
I0
g241
tp1022
a(I171
I7
F0.125
g243
tp1023
as(S'microsd'
p1024
S'card'
p1025
tp1026
(lp1027
(I62
I24
I0
g974
tp1028
a(I62
I29
I0
g976
tp1029
a(I62
I43
I0
g978
tp1030
as(S'time'
p1031
tp1032
(lp1033
(I38
I2
F-0.5
g636
tp1034
a(I40
I0
I0
S'third'
p1035
tp1036
a(I54
I15
F-0.375
S'manual'
p1037
tp1038
a(I62
I12
F-0.75
S'tough'
p1039
tp1040
a(I64
I4
F0.125
S'last'
p1041
tp1042
a(I72
I1
F0.5
S'second'
p1043
tp1044
a(I81
I1
F0.375
S'dissipated'
p1045
tp1046
a(I85
I0
F1.0
S'good'
p1047
tp1048
a(I108
I17
I0
S'same'
p1049
tp1050
a(I133
I6
F0.5
S'doubt'
p1051
tp1052
a(I133
I16
I0
S'same'
p1053
tp1054
a(I136
I69
F-0.375
S'daily'
p1055
tp1056
a(I137
I1
F-0.5
g638
tp1057
a(I144
I1
F1.0
S'good'
p1058
tp1059
a(I146
I0
F-0.5
g640
tp1060
a(I152
I0
F-0.5
g642
tp1061
a(I171
I7
F0.125
S'first'
p1062
tp1063
a(I171
I8
F0.125
S'first'
p1064
tp1065
a(I171
I9
F0.125
S'first'
p1066
tp1067
a(I187
I0
F-0.5
S'sure'
p1068
tp1069
a(I187
I0
F0.125
S'first'
p1070
tp1071
a(I195
I2
F-0.5
g644
tp1072
a(I195
I2
I0
g646
tp1073
as(S'easy'
p1074
S'to'
p1075
S'use'
p1076
tp1077
(lp1078
(I14
I24
F0.625
S'easy'
p1079
tp1080
as(S'quality'
p1081
tp1082
(lp1083
(I25
I2
I0
S'great'
p1084
tp1085
a(I31
I1
F1.0
g626
tp1086
a(I62
I15
I0
S'great'
p1087
tp1088
a(I67
I1
F1.0
g992
tp1089
a(I69
I23
F1.0
g994
tp1090
a(I69
I23
F-0.75
g996
tp1091
a(I69
I23
F-0.625
g998
tp1092
a(I94
I3
F1.0
g1000
tp1093
a(I100
I13
F-0.75
g628
tp1094
a(I108
I9
F1.0
S'best'
p1095
tp1096
a(I114
I0
I0
S'real'
p1097
tp1098
a(I120
I11
F-0.25
g630
tp1099
a(I127
I3
I0
S'pic'
p1100
tp1101
a(I127
I3
F1.0
S'good'
p1102
tp1103
a(I127
I7
I0
S'great'
p1104
tp1105
a(I133
I18
F-0.625
S'free'
p1106
tp1107
a(I148
I1
F-0.5
g1002
tp1108
a(I163
I2
F1.0
S'good'
p1109
tp1110
a(I177
I5
I0
S'close'
p1111
tp1112
a(I182
I1
F1.0
S'good'
p1113
tp1114
as(S'voice'
p1115
S'activated'
p1116
S'commands'
p1117
tp1118
(lp1119
(I62
I11
I0
g241
tp1120
as(S'card'
p1121
tp1122
(lp1123
(I4
I5
F1.0
g23
tp1124
a(I12
I3
F0.875
g136
tp1125
a(I120
I10
I0
S'external'
p1126
tp1127
a(I133
I14
F0.375
g138
tp1128
a(I170
I42
F0.125
g1014
tp1129
as(S'charger'
p1130
tp1131
(lp1132
(I2
I1
F-0.75
S'wrong'
p1133
tp1134
a(I2
I1
I0
S'old'
p1135
tp1136
a(I17
I0
F-0.75
S'wrong'
p1137
tp1138
a(I55
I0
F0.125
S'able'
p1139
tp1140
a(I95
I0
F0.375
S'extra'
p1141
tp1142
a(I153
I11
I0
S'next'
p1143
tp1144
a(I178
I1
F-0.75
S'inoperable'
p1145
tp1146
a(I178
I1
I0
S'seller'
p1147
tp1148
a(I178
I1
I0
S'quick'
p1149
tp1150
as(S'send'
p1151
tp1152
(lp1153
(I127
I18
F0.625
S'easy'
p1154
tp1155
a(I136
I40
F0.625
S'easy'
p1156
tp1157
as(S'make'
p1158
tp1159
(lp1160
(I195
I6
F0.625
S'easy'
p1161
tp1162
as(S'option'
p1163
tp1164
(lp1165
(I67
I19
I0
S'email'
p1166
tp1167
a(I108
I28
I0
S'wish'
p1168
tp1169
as(S'looking'
p1170
tp1171
(lp1172
(I36
I5
F0.875
S'nice'
p1173
tp1174
a(I145
I2
F1.0
S'good'
p1175
tp1176
as(S'tech'
p1177
S'support'
p1178
tp1179
(lp1180
(I167
I4
I0
S'tech'
p1181
tp1182
as(S'clear'
p1183
tp1184
(lp1185
(I177
I4
F1.0
S'good'
p1186
tp1187
as(S'player'
p1188
tp1189
(lp1190
(I94
I4
I0
S'great'
p1191
tp1192
as(S'seems'
p1193
tp1194
(lp1195
(I116
I10
F0.375
S'extra'
p1196
tp1197
as(S'mp3'
p1198
S'player'
p1199
tp1200
(lp1201
(I94
I4
I0
g1191
tp1202
a(I100
I5
I0
S'few'
p1203
tp1204
as(S'days'
p1205
tp1206
(lp1207
(I11
I0
I0
S'few'
p1208
tp1209
a(I37
I0
I0
S'few'
p1210
tp1211
a(I50
I0
I0
S'few'
p1212
tp1213
a(I69
I25
I0
S'full'
p1214
tp1215
a(I125
I7
I0
S'few'
p1216
tp1217
a(I134
I1
F-0.75
S'difficult'
p1218
tp1219
a(I153
I7
I0
S'few'
p1220
tp1221
a(I153
I7
I0
S'later'
p1222
tp1223
a(I170
I11
I0
S'few'
p1224
tp1225
as(S'bells'
p1226
S'and'
p1227
S'whistles'
p1228
tp1229
(lp1230
(I151
I1
F0.375
S'extra'
p1231
tp1232
as(S'microsd'
p1233
tp1234
(lp1235
(I62
I24
I0
g974
tp1236
a(I62
I29
I0
g976
tp1237
a(I62
I43
I0
g978
tp1238
a(I159
I1
F0.625
S'accessible'
p1239
tp1240
as(S'sound'
p1241
S'quality'
p1242
tp1243
(lp1244
(I31
I1
I0
g178
tp1245
a(I31
I1
F0.625
g180
tp1246
a(I31
I1
F1.0
g626
tp1247
a(I69
I23
F1.0
g994
tp1248
a(I69
I23
F-0.75
g996
tp1249
a(I69
I23
F-0.625
g998
tp1250
a(I100
I13
F-0.75
g628
tp1251
a(I108
I9
F1.0
g1095
tp1252
a(I113
I1
F-0.5
g184
tp1253
a(I120
I11
F-0.25
g630
tp1254
a(I127
I7
I0
g1104
tp1255
as.