(dp0
(S'e.'
p1
S'g.'
p2
tp3
(lp4
(I1
I105
I0
S'such'
p5
I0
tp6
as(S'battery'
p7
S'life'
p8
tp9
(lp10
(I4
I2
I0
S'real'
p11
I1
tp12
a(I4
I2
F1.0
S'good'
p13
I1
tp14
a(I8
I81
F-0.625
S'unpredictable'
p15
I1
tp16
a(I9
I19
I0
S'great'
p17
I1
tp18
a(I15
I4
F-0.75
S'short'
p19
I1
tp20
a(I15
I17
F0.625
S'fair'
p21
I1
tp22
a(I15
I18
F0.375
S'extended'
p23
I1
tp24
a(I15
I18
F0.375
S'available'
p25
I1
tp26
a(I18
I50
F0.5
S'true'
p27
I1
tp28
a(I23
I53
F0.5
S'so-so'
p29
I1
tp30
a(I23
I53
F0.375
S'much'
p31
I1
tp32
a(I6
I23
I0
S'dial'
p33
I19
tp34
a(I8
I30
F0.625
S'easier'
p35
I19
tp36
a(I8
I34
F0.625
S'easier'
p37
I19
tp38
a(I8
I81
F-0.625
g15
I19
tp39
a(I9
I19
I0
g17
I19
tp40
a(I15
I17
F0.625
g21
I19
tp41
a(I15
I18
F0.375
g23
I19
tp42
a(I18
I50
F0.5
g27
I19
tp43
a(I22
I26
I0
S'real'
p44
I19
tp45
a(I23
I14
F0.625
S'easier'
p46
I19
tp47
a(I23
I53
F0.5
g29
I19
tp48
a(I23
I53
F0.375
g31
I19
tp49
a(I4
I2
I0
g11
I15
tp50
a(I4
I2
F1.0
g13
I15
tp51
a(I5
I42
F-0.125
S'slow'
p52
I15
tp53
a(I8
I82
I0
S'close'
p54
I15
tp55
a(I8
I82
I0
S'full'
p56
I15
tp57
a(I12
I47
F0.375
S'new'
p58
I15
tp59
a(I14
I15
F0.25
S'professional'
p60
I15
tp61
a(I14
I20
F0.625
S'removable'
p62
I15
tp63
a(I15
I4
F-0.75
g19
I15
tp64
a(I15
I13
F0.375
S'new'
p65
I15
tp66
a(I15
I16
F-0.5
S'sure'
p67
I15
tp68
a(I15
I18
F0.375
g25
I15
tp69
a(I15
I203
I0
S'big'
p70
I15
tp71
a(I15
I278
F0.125
S'last'
p72
I15
tp73
a(I17
I2
F-0.25
S'low'
p74
I15
tp75
a(I26
I98
F-0.625
S'dying'
p76
I15
tp77
as(S'email'
p78
tp79
(lp80
(I1
I86
I0
S'same'
p81
I5
tp82
a(I15
I288
F0.125
S'able'
p83
I5
tp84
a(I23
I193
I0
S'own'
p85
I5
tp86
a(I24
I1
F1.0
S'good'
p87
I5
tp88
a(I24
I53
I0
S'many'
p89
I5
tp90
a(I24
I97
I0
S'corporate'
p91
I5
tp92
a(I26
I141
F-0.625
S'push'
p93
I5
tp94
as(S'keys'
p95
tp96
(lp97
(I0
I61
I0
S'useful'
p98
I9
tp99
a(I0
I61
I0
S'special'
p100
I9
tp101
a(I3
I29
I0
S'soft'
p102
I9
tp103
a(I3
I32
F0.625
S'finish'
p104
I9
tp105
a(I4
I32
I0
S'most'
p106
I9
tp107
a(I4
I32
F0.875
S'important'
p108
I9
tp109
a(I4
I32
I0
S'close'
p110
I9
tp111
a(I7
I113
I0
S'soft'
p112
I9
tp113
a(I7
I113
F-0.375
S'top'
p114
I9
tp115
a(I8
I76
I0
S'many'
p116
I9
tp117
a(I8
I143
F-0.75
S'wrong'
p118
I9
tp119
a(I12
I10
F-0.375
S'small'
p120
I9
tp121
a(I15
I35
I0
S'most'
p122
I9
tp123
a(I15
I269
I0
S'large'
p124
I9
tp125
a(I15
I269
F-0.75
S'wrong'
p126
I9
tp127
a(I20
I24
F1.0
S'best'
p128
I9
tp129
a(I24
I15
F0.25
S'larger'
p130
I9
tp131
a(I24
I15
F0.625
S'easy'
p132
I9
tp133
a(I24
I101
F-0.875
S'hard'
p134
I9
tp135
a(I24
I111
F-0.875
S'hard'
p136
I9
tp137
as(S'micro'
p138
S'sd'
p139
tp140
(lp141
(I30
I12
F0.625
S'add'
p142
I0
tp143
as(S'xda'
p144
S'developers'
p145
tp146
(lp147
(I15
I311
F-0.25
S'google'
p148
I0
tp149
as(S'instant'
p150
S'messaging'
p151
tp152
(lp153
(I7
I144
I0
S'instant'
p154
I0
tp155
as(S'service'
p156
tp157
(lp158
(I1
I134
F-0.625
S'free'
p159
I16
tp160
a(I1
I134
F0.375
S'available'
p161
I16
tp162
a(I6
I168
F1.0
S'good'
p163
I16
tp164
a(I6
I170
F-0.375
S'unexpected'
p165
I16
tp166
a(I7
I47
I0
S'such'
p167
I16
tp168
a(I7
I48
I0
S'monthly'
p169
I16
tp170
a(I15
I337
I0
S'more'
p171
I16
tp172
a(I23
I142
F0.25
S'stellar'
p173
I16
tp174
a(I23
I169
F0.375
S'much'
p175
I16
tp176
as(S'programs'
p177
tp178
(lp179
(I7
I163
I0
S'such'
p180
I2
tp181
a(I10
I40
F-0.625
S'other'
p182
I2
tp183
a(I14
I63
I0
S'different'
p184
I2
tp185
a(I15
I28
I0
S'few'
p186
I2
tp187
a(I15
I31
F-0.5
S'open'
p188
I2
tp189
a(I18
I47
F-0.625
S'free'
p190
I2
tp191
a(I19
I5
F0.375
S'busy'
p192
I2
tp193
a(I19
I8
I0
S'special'
p194
I2
tp195
a(I19
I10
I0
S'useful'
p196
I2
tp197
a(I24
I33
F-0.625
S'other'
p198
I2
tp199
as(S'easier'
p200
S'to'
p201
S'use'
p202
tp203
(lp204
(I8
I92
F0.375
S'much'
p205
I1
tp206
a(I27
I6
F0.5
S'rid'
p207
I1
tp208
as(S'camera'
p209
tp210
(lp211
(I1
I158
F1.0
S'good'
p212
I1
tp213
a(I3
I22
F0.125
S'digital'
p214
I1
tp215
a(I4
I40
F0.875
S'nice'
p216
I1
tp217
a(I4
I125
F1.0
S'good'
p218
I1
tp219
a(I5
I13
F-0.25
S'past'
p220
I1
tp221
a(I6
I138
F0.75
S'due'
p222
I1
tp223
a(I7
I28
F1.0
S'good'
p224
I1
tp225
a(I7
I88
I0
S'autofocus'
p226
I1
tp227
a(I7
I137
F0.375
S'new'
p228
I1
tp229
a(I8
I159
F0.875
S'nice'
p230
I1
tp231
a(I15
I22
F-0.625
S'average'
p232
I1
tp233
a(I15
I22
F-0.5
S'poor'
p234
I1
tp235
a(I15
I171
F1.0
S'good'
p236
I1
tp237
a(I18
I36
F1.0
S'better'
p238
I1
tp239
a(I23
I27
F0.875
S'nice'
p240
I1
tp241
a(I23
I27
I0
S'standard'
p242
I1
tp243
a(I23
I27
F0.375
S'available'
p244
I1
tp245
a(I24
I40
F1.0
S'good'
p246
I1
tp247
a(I26
I130
F-0.25
S'low'
p248
I1
tp249
a(I26
I130
F-0.625
S'light'
p250
I1
tp251
as(S'mobile'
p252
tp253
(lp254
(I3
I35
F1.0
S'better'
p255
I0
tp256
a(I21
I6
F1.0
S'good'
p257
I0
tp258
a(I26
I87
F0.25
S'professional'
p259
I0
tp260
as(S'bluetooth'
p261
tp262
(lp263
(I7
I68
I0
S'same'
p264
I3
tp265
a(I8
I157
F0.5
S'personal'
p266
I3
tp267
a(I14
I61
F1.0
S'better'
p268
I3
tp269
a(I15
I240
F-0.75
S'dead'
p270
I3
tp271
a(I22
I51
F0.375
S'enable'
p272
I3
tp273
a(I23
I171
I0
S'great'
p274
I3
tp275
as(S'iphone'
p276
tp277
(lp278
(I5
I69
I0
S'more'
p279
I1
tp280
a(I15
I113
F0.375
S'new'
p281
I1
tp282
a(I15
I156
F0.875
S'nice'
p283
I1
tp284
a(I15
I157
F0.375
S'similar'
p285
I1
tp286
a(I15
I157
F0.875
S'nice'
p287
I1
tp288
a(I15
I157
I0
S'faster'
p289
I1
tp290
a(I16
I3
F-0.5
S'miss'
p291
I1
tp292
a(I23
I175
I0
S'next'
p293
I1
tp294
a(I29
I2
F0.375
S'new'
p295
I1
tp296
as(S'headphone'
p297
S'jack'
p298
tp299
(lp300
(I14
I26
I0
S'old'
p301
I0
tp302
a(I23
I90
I0
S'standard'
p303
I0
tp304
as(S'a'
p305
S'touch'
p306
S'screen'
p307
tp308
(lp309
(I1
I90
F0.5
S'touch'
p310
I0
tp311
a(I1
I91
F-0.875
S'hard'
p312
I0
tp313
a(I1
I125
F0.5
S'touch'
p314
I0
tp315
a(I2
I0
F0.5
S'touch'
p316
I0
tp317
a(I4
I4
F0.25
S'responsive'
p318
I0
tp319
a(I4
I49
F0.5
S'touch'
p320
I0
tp321
a(I4
I49
F-0.75
S'difficult'
p322
I0
tp323
a(I6
I23
F0.5
S'touch'
p324
I0
tp325
a(I6
I84
F0.5
S'touch'
p326
I0
tp327
a(I6
I193
F0.5
S'touch'
p328
I0
tp329
a(I6
I193
F-0.75
S'unreliable'
p330
I0
tp331
a(I6
I199
F0.5
S'touch'
p332
I0
tp333
a(I7
I13
F0.5
S'touch'
p334
I0
tp335
a(I9
I24
F0.5
S'touch'
p336
I0
tp337
a(I10
I21
I0
S'dial'
p338
I0
tp339
a(I10
I21
F0.5
S'touch'
p340
I0
tp341
a(I14
I3
F-0.625
S'light'
p342
I0
tp343
a(I14
I3
F-0.5
S'touched'
p344
I0
tp345
a(I14
I123
F-0.375
S'small'
p346
I0
tp347
a(I15
I31
I0
S'close'
p348
I0
tp349
a(I15
I80
F0.5
S'touch'
p350
I0
tp351
a(I15
I127
F0.5
S'touch'
p352
I0
tp353
a(I15
I128
I0
S'horizontal'
p354
I0
tp355
a(I15
I128
I0
S'vertical'
p356
I0
tp357
a(I15
I271
F0.5
S'touch'
p358
I0
tp359
a(I15
I284
F0.5
S'touch'
p360
I0
tp361
a(I17
I20
F0.5
S'touch'
p362
I0
tp363
a(I19
I13
F0.5
S'touch'
p364
I0
tp365
a(I19
I18
I0
S'dial'
p366
I0
tp367
a(I19
I29
F0.5
S'touch'
p368
I0
tp369
a(I22
I33
F0.5
S'touch'
p370
I0
tp371
a(I22
I38
F0.5
S'touch'
p372
I0
tp373
a(I23
I44
I0
S'sensitive'
p374
I0
tp375
a(I23
I146
F0.5
S'touch'
p376
I0
tp377
a(I24
I106
F0.5
S'touch'
p378
I0
tp379
a(I25
I1
F0.5
S'touch'
p380
I0
tp381
a(I27
I12
F-0.75
S'difficult'
p382
I0
tp383
as(S'memory'
p384
tp385
(lp386
(I0
I73
I0
S'large'
p387
I5
tp388
a(I3
I3
I0
S'internal'
p389
I5
tp390
a(I3
I39
I0
S'internal'
p391
I5
tp392
a(I3
I39
I0
S'internal'
p393
I5
tp394
a(I3
I41
F0.25
S'larger'
p395
I5
tp396
a(I3
I41
I0
S'internal'
p397
I5
tp398
a(I4
I41
F-0.375
S'scant'
p399
I5
tp400
a(I7
I83
F-0.375
S'double'
p401
I5
tp402
a(I7
I84
F-0.5
S'less'
p403
I5
tp404
a(I7
I153
F-0.625
S'free'
p405
I5
tp406
a(I7
I158
F-0.625
S'free'
p407
I5
tp408
a(I8
I27
F0.25
S'main'
p409
I5
tp410
a(I15
I27
I0
S'more'
p411
I5
tp412
a(I23
I151
I0
S'more'
p413
I5
tp414
a(I23
I153
F0.75
S'due'
p415
I5
tp416
a(I23
I160
I0
S'same'
p417
I5
tp418
a(I24
I9
F0.375
S'extra'
p419
I5
tp420
as(S'windows'
p421
tp422
(lp423
(I1
I33
F0.375
S'new'
p424
I0
tp425
a(I1
I56
F-0.75
S'impossible'
p426
I0
tp427
a(I1
I65
F-0.25
S'past'
p428
I0
tp429
a(I1
I65
I0
S'mobile'
p430
I0
tp431
a(I4
I43
I0
S'e-mail'
p432
I0
tp433
a(I7
I84
I0
S'mobile'
p434
I0
tp435
a(I7
I141
F0.375
S'new'
p436
I0
tp437
a(I7
I144
F0.375
S'new'
p438
I0
tp439
a(I8
I52
I0
S'latest'
p440
I0
tp441
a(I8
I80
F0.5
S'characteristic'
p442
I0
tp443
a(I12
I5
F0.5
S'second'
p444
I0
tp445
a(I12
I60
F-0.625
S'other'
p446
I0
tp447
a(I12
I67
I0
S'latest'
p448
I0
tp449
a(I12
I67
I0
S'most'
p450
I0
tp451
a(I12
I67
F0.25
S'powerful'
p452
I0
tp453
a(I14
I120
I0
S'mobile'
p454
I0
tp455
a(I14
I121
F-0.5
S'open'
p456
I0
tp457
a(I14
I121
I0
S'close'
p458
I0
tp459
a(I15
I307
F1.0
S'better'
p460
I0
tp461
a(I22
I59
I0
S'standard'
p462
I0
tp463
a(I23
I98
I0
S'latest'
p464
I0
tp465
a(I23
I124
I0
S'mobile'
p466
I0
tp467
a(I26
I27
I0
S'mobile'
p468
I0
tp469
as(S'scroll'
p470
S'wheel'
p471
tp472
(lp473
(I7
I122
I0
S'real'
p474
I0
tp475
a(I14
I79
F0.5
S'second'
p476
I0
tp477
as(S'button'
p478
tp479
(lp480
(I4
I15
F0.25
S'used'
p481
I19
tp482
a(I7
I124
I0
S'flush'
p483
I19
tp484
a(I7
I125
F-0.75
S'dark'
p485
I19
tp486
a(I22
I34
I0
S'real'
p487
I19
tp488
a(I24
I85
I0
S'more'
p489
I19
tp490
a(I27
I18
F-0.125
S'complicated'
p491
I19
tp492
as(S'today'
p493
S'screen'
p494
tp495
(lp496
(I7
I159
F0.875
S'nice'
p497
I0
tp498
a(I15
I128
I0
g354
I0
tp499
a(I15
I128
I0
g356
I0
tp500
as(S'next'
p501
S'generation'
p502
tp503
(lp504
(I8
I52
I0
S'next'
p505
I0
tp506
a(I8
I54
I0
S'next'
p507
I0
tp508
a(I26
I40
I0
S'next'
p509
I0
tp510
as(S'music'
p511
tp512
(lp513
(I9
I22
F-0.375
S'simple'
p514
I0
tp515
a(I24
I39
F-0.375
S'handicapped'
p516
I0
tp517
a(I26
I129
I0
S'own'
p518
I0
tp519
a(I28
I5
I0
S'great'
p520
I0
tp521
as(g305
S'long'
p522
S'time'
p523
tp524
(lp525
(I1
I52
F-0.5
S'long'
p526
I12
tp527
a(I4
I55
F-0.5
S'long'
p528
I12
tp529
a(I8
I7
F-0.5
S'long'
p530
I12
tp531
a(I14
I135
F-0.5
S'long'
p532
I12
tp533
a(I22
I24
F-0.625
S'idle'
p534
I12
tp535
as(S'slide'
p536
S'out'
p537
S'keyboard'
p538
tp539
(lp540
(I12
I10
I0
S'full'
p541
I0
tp542
a(I12
I10
I0
S'great'
p543
I0
tp544
a(I15
I199
I0
S'great'
p545
I0
tp546
a(I22
I23
F0.375
S'honest'
p547
I0
tp548
a(I3
I28
F-0.875
S'harder'
p549
I2
tp550
a(I3
I32
F-0.75
S'comfortable'
p551
I2
tp552
a(I4
I135
F0.875
S'nice'
p553
I2
tp554
a(I7
I106
F0.875
S'nice'
p555
I2
tp556
a(I7
I106
I0
S'tactile'
p557
I2
tp558
a(I10
I3
I0
S'faster'
p559
I2
tp560
a(I10
I12
F0.625
S'easy'
p561
I2
tp562
a(I12
I10
I0
g543
I2
tp563
a(I14
I130
I0
S'full'
p564
I2
tp565
a(I15
I36
I0
S'large'
p566
I2
tp567
a(I15
I188
I0
S'real'
p568
I2
tp569
a(I15
I188
F0.875
S'nice'
p570
I2
tp571
a(I15
I228
F0.25
S'helpful'
p572
I2
tp573
a(I15
I268
F0.625
S'easy'
p574
I2
tp575
a(I15
I324
F0.625
S'easier'
p576
I2
tp577
a(I18
I30
I0
S'full'
p578
I2
tp579
a(I22
I23
F0.375
g547
I2
tp580
a(I23
I99
F0.625
S'decent'
p581
I2
tp582
a(I23
I131
I0
S'ample'
p583
I2
tp584
a(I26
I113
F-0.25
S'parallel'
p585
I2
tp586
a(I27
I26
I0
S'great'
p587
I2
tp588
as(S'on'
p589
S'touch'
p590
S'screen'
p591
tp592
(lp593
(I2
I0
F0.5
g316
I0
tp594
a(I4
I4
F0.25
g318
I0
tp595
a(I6
I23
F0.5
g324
I0
tp596
a(I6
I84
F0.5
g326
I0
tp597
a(I6
I191
F0.5
S'touch'
p598
I0
tp599
a(I6
I193
F0.5
g328
I0
tp600
a(I6
I193
F-0.75
g330
I0
tp601
a(I6
I199
F0.5
g332
I0
tp602
a(I9
I24
F0.5
g336
I0
tp603
a(I10
I21
I0
g338
I0
tp604
a(I10
I21
F0.5
g340
I0
tp605
a(I14
I3
F-0.625
g342
I0
tp606
a(I14
I3
F-0.5
g344
I0
tp607
a(I14
I123
F-0.375
g346
I0
tp608
a(I15
I31
I0
g348
I0
tp609
a(I15
I80
F0.5
g350
I0
tp610
a(I15
I128
I0
g354
I0
tp611
a(I15
I128
I0
g356
I0
tp612
a(I15
I271
F0.5
g358
I0
tp613
a(I15
I284
F0.5
g360
I0
tp614
a(I17
I20
F0.5
g362
I0
tp615
a(I19
I29
F0.5
g368
I0
tp616
a(I22
I33
F0.5
g370
I0
tp617
a(I22
I38
F0.5
g372
I0
tp618
a(I23
I146
F0.5
g376
I0
tp619
a(I24
I106
F0.5
g378
I0
tp620
a(I25
I1
F0.5
g380
I0
tp621
a(I1
I90
F0.5
g310
I2
tp622
a(I1
I91
F-0.875
g312
I2
tp623
a(I1
I125
F0.5
g314
I2
tp624
a(I2
I0
F0.5
g316
I2
tp625
a(I4
I4
F0.25
g318
I2
tp626
a(I4
I49
F0.5
g320
I2
tp627
a(I4
I49
F-0.75
g322
I2
tp628
a(I6
I23
F0.5
g324
I2
tp629
a(I6
I84
F0.5
g326
I2
tp630
a(I6
I191
F0.5
g598
I2
tp631
a(I6
I193
F0.5
g328
I2
tp632
a(I6
I193
F-0.75
g330
I2
tp633
a(I6
I199
F0.5
g332
I2
tp634
a(I7
I13
F0.5
g334
I2
tp635
a(I9
I24
F0.5
g336
I2
tp636
a(I10
I21
I0
g338
I2
tp637
a(I10
I21
F0.5
g340
I2
tp638
a(I14
I3
F-0.625
g342
I2
tp639
a(I14
I3
F-0.5
g344
I2
tp640
a(I14
I123
F-0.375
g346
I2
tp641
a(I15
I31
I0
g348
I2
tp642
a(I15
I80
F0.5
g350
I2
tp643
a(I15
I127
F0.5
g352
I2
tp644
a(I15
I128
I0
g354
I2
tp645
a(I15
I128
I0
g356
I2
tp646
a(I15
I271
F0.5
g358
I2
tp647
a(I15
I284
F0.5
g360
I2
tp648
a(I17
I20
F0.5
g362
I2
tp649
a(I19
I13
F0.5
g364
I2
tp650
a(I19
I18
I0
g366
I2
tp651
a(I19
I29
F0.5
g368
I2
tp652
a(I22
I33
F0.5
g370
I2
tp653
a(I22
I38
F0.5
g372
I2
tp654
a(I23
I44
I0
g374
I2
tp655
a(I23
I146
F0.5
g376
I2
tp656
a(I24
I106
F0.5
g378
I2
tp657
a(I25
I1
F0.5
g380
I2
tp658
a(I27
I12
F-0.75
g382
I2
tp659
as(g305
S'big'
p660
S'deal'
p661
tp662
(lp663
(I3
I43
I0
S'big'
p664
I7
tp665
a(I4
I91
I0
S'big'
p666
I7
tp667
a(I6
I169
I0
S'big'
p668
I7
tp669
a(I14
I82
I0
S'big'
p670
I7
tp671
a(I15
I145
I0
S'big'
p672
I7
tp673
a(I15
I158
I0
S'big'
p674
I7
tp675
a(I18
I56
I0
S'big'
p676
I7
tp677
as(S'microsd'
p678
S'cards'
p679
tp680
(lp681
(I23
I134
F0.25
S'larger'
p682
I0
tp683
as(S'laptop'
p684
tp685
(lp686
(I23
I6
I0
S'close'
p687
I17
tp688
a(I23
I164
F0.625
S'easy'
p689
I17
tp690
a(I26
I53
F0.875
S'music'
p691
I17
tp692
a(I26
I57
F0.625
S'easy'
p693
I17
tp694
a(I29
I4
I0
S'rebate'
p695
I17
tp696
as(S'buttons'
p697
tp698
(lp699
(I3
I33
I0
S'more'
p700
I13
tp701
a(I3
I33
F-0.75
S'difficult'
p702
I13
tp703
a(I5
I67
I-100
S'poor-'
p704
I13
tp705
a(I6
I193
I0
S'opt'
p706
I13
tp707
a(I7
I115
I0
S'many'
p708
I13
tp709
a(I7
I119
F-0.625
S'other'
p710
I13
tp711
a(I14
I3
F0.25
S'larger'
p712
I13
tp713
a(I14
I81
I0
S'soft'
p714
I13
tp715
a(I15
I270
F-0.375
S'small'
p716
I13
tp717
a(I15
I316
F-0.375
S'smaller'
p718
I13
tp719
a(I15
I318
F-0.375
S'top'
p720
I13
tp721
a(I15
I322
I0
S'critical'
p722
I13
tp723
as(S'calls'
p724
tp725
(lp726
(I4
I59
F0.75
S'due'
p727
I0
tp728
a(I5
I33
F0.5
S'clear'
p729
I0
tp730
a(I12
I58
F-0.625
S'bad'
p731
I0
tp732
a(I15
I9
I0
S'few'
p733
I0
tp734
a(I15
I9
I0
S'brief'
p735
I0
tp736
a(I15
I16
I0
S'most'
p737
I0
tp738
a(I27
I9
I0
S'few'
p739
I0
tp740
a(I27
I9
F-0.25
S'dropped'
p741
I0
tp742
as(S'blackjack'
p743
S'ii'
p744
tp745
(lp746
(I15
I46
I0
S'next'
p747
I0
tp748
as(S'bells'
p749
S'and'
p750
S'whistles'
p751
tp752
(lp753
(I5
I45
I0
S'cool'
p754
I0
tp755
as(S'internet'
p756
tp757
(lp758
(I8
I154
F0.125
S'first'
p759
I6
tp760
a(I14
I7
I0
S'fast'
p761
I6
tp762
a(I14
I10
F0.25
S'helpful'
p763
I6
tp764
a(I14
I10
I0
S'real'
p765
I6
tp766
a(I15
I226
F-0.125
S'slow'
p767
I6
tp768
a(I15
I227
F1.0
S'good'
p769
I6
tp770
a(I16
I14
F1.0
S'good'
p771
I6
tp772
a(I16
I14
F0.25
S'portable'
p773
I6
tp774
a(I17
I9
I0
S'limited'
p775
I6
tp776
a(I18
I47
I0
S'full'
p777
I6
tp778
a(I26
I32
I0
S'great'
p779
I6
tp780
a(I28
I24
I0
S'only'
p781
I6
tp782
as(S'blackberry'
p783
tp784
(lp785
(I0
I17
F0.5
S'personal'
p786
I1
tp787
a(I4
I70
I0
S'older'
p788
I1
tp789
a(I18
I61
I0
S'same'
p790
I1
tp791
as(S'able'
p792
S'to'
p793
S'use'
p794
tp795
(lp796
(I27
I6
F0.5
g207
I12
tp797
as(S'watching'
p798
S'videos'
p799
tp800
(lp801
(I7
I78
F0.875
S'nice'
p802
I0
tp803
as(g305
S'data'
p804
S'plan'
p805
tp806
(lp807
(I26
I63
F-0.625
S'want'
p808
I0
tp809
a(I26
I63
F-0.5
S'sure'
p810
I0
tp811
a(I26
I66
F0.5
S'expensive'
p812
I0
tp813
a(I26
I63
F-0.625
g808
I0
tp814
a(I26
I63
F-0.5
g810
I0
tp815
a(I26
I66
F0.5
g812
I0
tp816
a(I4
I49
I0
S'most'
p817
I13
tp818
a(I7
I5
I0
S'least'
p819
I13
tp820
a(I7
I5
F0.5
S'expensive'
p821
I13
tp822
a(I7
I73
I0
S'basic'
p823
I13
tp824
a(I14
I84
F0.5
S'true'
p825
I13
tp826
a(I14
I87
I0
S'download'
p827
I13
tp828
a(I14
I87
F-0.625
S'idle'
p829
I13
tp830
as(S'advanced'
p831
S'technology'
p832
tp833
(lp834
(I7
I50
F0.5
S'advanced'
p835
I0
tp836
a(I7
I56
F0.5
S'advanced'
p837
I0
tp838
as(S'3rd'
p839
S'party'
p840
tp841
(lp842
(I7
I143
F0.25
S'used'
p843
I0
tp844
a(I15
I303
F-0.125
S'mine'
p845
I0
tp846
as(S'wifi'
p847
tp848
(lp849
(I0
I68
F0.375
S'reliable'
p850
I0
tp851
a(I1
I134
F-0.625
S'free'
p852
I0
tp853
a(I8
I4
I0
S'next'
p854
I0
tp855
as(S'make'
p856
g305
S'call'
p857
tp858
(lp859
(I8
I147
F-0.625
S'other'
p860
I0
tp861
a(I12
I58
F-0.625
S'free'
p862
I0
tp863
as(S'amazon'
p864
tp865
(lp866
(I8
I62
F-0.5
S'less'
p867
I13
tp868
a(I8
I62
F0.5
S'expensive'
p869
I13
tp870
a(I18
I3
F-0.625
S'free'
p871
I13
tp872
a(I23
I104
F0.125
S'first'
p873
I13
tp874
as(S'google'
p875
S'maps'
p876
tp877
(lp878
(I1
I45
F0.125
S'able'
p879
I1
tp880
a(I1
I45
F-0.25
S'google'
p881
I1
tp882
a(I1
I45
I0
S'bc'
p883
I1
tp884
a(I14
I53
F-0.25
S'google'
p885
I1
tp886
a(I14
I53
F-0.5
S'sure'
p887
I1
tp888
a(I14
I118
I0
S'latest'
p889
I1
tp890
a(I18
I14
F-0.25
S'google'
p891
I1
tp892
a(I18
I14
F0.875
S'happy'
p893
I1
tp894
a(I22
I26
F-0.25
S'google'
p895
I1
tp896
a(I23
I141
F-0.25
S'google'
p897
I1
tp898
a(I30
I5
F-0.25
S'google'
p899
I1
tp900
a(I14
I118
I0
g889
I4
tp901
as(S'star'
p902
S'rating'
p903
tp904
(lp905
(I7
I180
F0.125
S'able'
p906
I3
tp907
a(I7
I180
I0
S'initial'
p908
I3
tp909
as(S'screen'
p910
S'back'
p911
S'on'
p912
tp913
(lp914
(I27
I6
F0.625
S'easier'
p915
I0
tp916
as.