(dp0
(S'song'
p1
S'limit'
p2
tp3
(lp4
(I0
I25
I0
S'song'
p5
I0
tp6
a(I4
I5
I0
S'song'
p7
I0
tp8
a(I5
I41
I0
S'least'
p9
I0
tp10
a(I5
I45
I0
S'song'
p11
I0
tp12
a(I9
I24
I0
S'song'
p13
I0
tp14
as(S'bluetooth'
p15
tp16
(lp17
(I5
I9
I0
S'great'
p18
I3
tp19
a(I8
I40
F0.5
S'expensive'
p20
I3
tp21
a(I9
I12
I0
S'fourth'
p22
I3
tp23
a(I9
I15
I0
S'great'
p24
I3
tp25
a(I9
I28
I0
S'full'
p26
I3
tp27
as(S'memory'
p28
S'card'
p29
tp30
(lp31
(I7
I6
F-0.75
S'little'
p32
I0
tp33
a(I9
I9
I0
S'standard'
p34
I0
tp35
a(I7
I6
F-0.75
g32
I5
tp36
a(I9
I9
I0
g34
I5
tp37
as(S'battery'
p38
S'life'
p39
tp40
(lp41
(I0
I32
F-0.375
S'daily'
p42
I1
tp43
a(I0
I32
F-0.75
S'short'
p44
I1
tp45
a(I5
I53
F-0.5
S'longer'
p46
I1
tp47
a(I6
I25
F1.0
S'good'
p48
I1
tp49
a(I6
I25
F1.0
S'good'
p50
I1
tp51
a(I9
I7
F1.0
S'better'
p52
I1
tp53
a(I0
I32
F-0.375
g42
I15
tp54
a(I3
I27
I0
S'initial'
p55
I15
tp56
a(I3
I27
F1.0
S'good'
p57
I15
tp58
a(I5
I53
F-0.5
g46
I15
tp59
a(I6
I25
F1.0
g48
I15
tp60
a(I9
I7
F1.0
g52
I15
tp61
as(S'audio'
p62
S'player'
p63
tp64
(lp65
(I3
I16
F0.125
S'digital'
p66
I0
tp67
as(S'an'
p68
S'adaptor'
p69
tp70
(lp71
(I1
I38
F-0.75
S'short'
p72
I0
tp73
as(S'motorola'
p74
tp75
(lp76
(I0
I43
I0
S'more'
p77
I0
tp78
a(I4
I37
I0
S'different'
p79
I0
tp80
a(I7
I15
F0.25
S'original'
p81
I0
tp82
as(S'digital'
p83
g62
tp84
(lp85
(I3
I16
F0.125
g66
I0
tp86
as(S'razr'
p87
tp88
(lp89
(I0
I36
I0
S'entire'
p90
I0
tp91
a(I4
I12
I0
S'normal'
p92
I0
tp93
a(I4
I39
F0.75
S'wonder'
p94
I0
tp95
a(I4
I39
F-0.75
S'wrong'
p96
I0
tp97
a(I5
I45
I0
S'many'
p98
I0
tp99
a(I5
I48
F0.125
S'first'
p100
I0
tp101
a(I5
I50
F-0.125
S'ultimate'
p102
I0
tp103
as(S'sound'
p104
S'quality'
p105
tp106
(lp107
(I5
I42
F-0.5
S'poor'
p108
I0
tp109
a(I8
I21
F1.0
S'good'
p110
I0
tp111
a(I4
I6
F1.0
S'good'
p112
I7
tp113
a(I5
I42
F-0.5
g108
I7
tp114
a(I8
I21
F1.0
g110
I7
tp115
as(S'mp3'
p116
S'player'
p117
tp118
(lp119
(I2
I55
F0.5
S'possible'
p120
I1
tp121
a(I4
I52
F-0.625
S'other'
p122
I1
tp123
a(I8
I87
F0.5
S'expensive'
p124
I1
tp125
a(I3
I4
I0
S'old'
p126
I6
tp127
as(S'contacts'
p128
tp129
(lp130
(I0
I0
I0
S'same'
p131
I0
tp132
a(I8
I68
I0
S'different'
p133
I0
tp134
as(S'amazon'
p135
tp136
(lp137
(I0
I21
F0.5
S'bought'
p138
I13
tp139
as(S'come'
p140
S'with'
p141
S'itunes'
p142
tp143
(lp144
(I3
I20
F-0.375
S'simple'
p145
I0
tp146
a(I3
I20
F1.0
S'best'
p147
I0
tp148
a(I2
I81
F0.875
S'music'
p149
I0
tp150
a(I3
I20
F-0.375
g145
I0
tp151
a(I3
I20
F1.0
g147
I0
tp152
a(I9
I30
F-0.5
S'sure'
p153
I0
tp154
as(S'camera'
p155
tp156
(lp157
(I5
I24
F0.125
S'digital'
p158
I1
tp159
as(S'music'
p160
tp161
(lp162
(I5
I0
F0.125
S'digital'
p163
I0
tp164
as.