(dp0
(S'numbers'
p1
tp2
(lp3
(I10
I6
I0
S'old'
p4
tp5
a(I47
I1
I0
S'different'
p6
tp7
a(I59
I6
I0
S'many'
p8
tp9
a(I65
I14
I0
S'dial'
p10
tp11
a(I111
I2
F0.375
S'new'
p12
tp13
a(I111
I3
I0
S'old'
p14
tp15
a(I111
I3
F0.375
S'new'
p16
tp17
a(I133
I2
I0
S'multiple'
p18
tp19
a(I170
I4
I0
S's/n'
p20
tp21
a(I254
I23
F1.0
S'better'
p22
tp23
as(S'motorola'
p24
tp25
(lp26
(I3
I10
I0
S'more'
p27
tp28
a(I33
I9
F0.5
S'second'
p29
tp30
a(I36
I65
I0
S'such'
p31
tp32
a(I42
I2
F-0.625
S'other'
p33
tp34
a(I51
I5
F-0.75
S'wrong'
p35
tp36
a(I60
I2
F1.0
S'best'
p37
tp38
a(I65
I6
F0.625
S'successful'
p39
tp40
a(I76
I6
F1.0
S'best'
p41
tp42
a(I79
I27
F0.25
S'familiar'
p43
tp44
a(I87
I0
F0.125
S'first'
p45
tp46
a(I100
I3
F-0.625
S'other'
p47
tp48
a(I105
I1
F0.5
S'told'
p49
tp50
a(I114
I0
F0.125
S'first'
p51
tp52
a(I147
I2
F0.375
S'new'
p53
tp54
a(I159
I0
F0.5
S'second'
p55
tp56
a(I170
I4
I0
S'website'
p57
tp58
a(I181
I6
I0
S'nt'
p59
tp60
a(I181
I6
F0.75
S'give'
p61
tp62
a(I183
I2
F-0.5
S'poor'
p63
tp64
a(I183
I3
F-0.625
S'other'
p65
tp66
a(I185
I2
F0.125
S'last'
p67
tp68
a(I205
I2
I0
S'most'
p69
tp70
a(I221
I0
I0
S'many'
p71
tp72
a(I225
I0
I0
S'third'
p73
tp74
a(I245
I0
I0
S'latest'
p75
tp76
a(I246
I2
F-0.375
S'disable'
p77
tp78
a(I248
I7
I0
S'most'
p79
tp80
a(I248
I11
F0.125
S'typical'
p81
tp82
a(I248
I11
F-0.625
S'other'
p83
tp84
a(I254
I8
I0
S'researched'
p85
tp86
as(S'nice'
p87
tp88
(lp89
(I183
I5
I0
S'large'
p90
tp91
a(I249
I10
I0
S'real'
p92
tp93
as(S'under'
p94
S'one'
p95
S'name'
p96
tp97
(lp98
(I18
I17
F-0.889
S'unfortunate'
p99
tp100
as(S't'
p101
S'every'
p102
S'night'
p103
tp104
(lp105
(I79
I39
F-0.5
S'sudden'
p106
tp107
a(I229
I1
F-0.375
S'charge'
p108
tp109
as(S'operating'
p110
S'system'
p111
tp112
(lp113
(I184
I20
F0.625
S'superior'
p114
tp115
as(S'quality'
p116
tp117
(lp118
(I7
I8
I0
S'high'
p119
tp120
a(I26
I3
F-0.5
S'poor'
p121
tp122
a(I26
I6
F0.625
S'superior'
p123
tp124
a(I27
I7
F1.0
S'good'
p125
tp126
a(I39
I7
F1.0
S'good'
p127
tp128
a(I43
I5
F-0.25
S'low'
p129
tp130
a(I44
I2
F1.0
S'good'
p131
tp132
a(I46
I13
F1.0
S'good'
p133
tp134
a(I59
I2
I0
S'great'
p135
tp136
a(I61
I5
F0.25
S'sharp'
p137
tp138
a(I69
I7
F1.0
S'good'
p139
tp140
a(I76
I4
F1.0
S'good'
p141
tp142
a(I79
I41
I0
S'basic'
p143
tp144
a(I96
I1
F-0.5
S'poor'
p145
tp146
a(I114
I15
I0
S'great'
p147
tp148
a(I146
I3
F-0.5
S'poor'
p149
tp150
a(I146
I3
I0
S'signal'
p151
tp152
a(I156
I8
F0.875
S'nice'
p153
tp154
a(I182
I3
F-0.625
S'average'
p155
tp156
a(I194
I4
F-0.625
S'surprising'
p157
tp158
a(I194
I4
F-0.625
S'light'
p159
tp160
a(I197
I1
F-0.5
S'poor'
p161
tp162
a(I201
I4
F1.0
S'good'
p163
tp164
a(I229
I9
I0
S'high'
p165
tp166
a(I229
I9
I0
S'efficient'
p167
tp168
a(I234
I1
I0
S'great'
p169
tp170
a(I237
I6
F-0.625
S'average'
p171
tp172
a(I243
I2
F1.0
S'good'
p173
tp174
a(I248
I7
F1.0
S'good'
p175
tp176
a(I248
I13
I0
S'signal'
p177
tp178
a(I254
I25
I0
S'great'
p179
tp180
a(I254
I25
F0.125
S'solid'
p181
tp182
a(I256
I4
F0.75
S'sound'
p183
tp184
a(I258
I6
F1.0
S'best'
p185
tp186
a(I262
I2
I0
S'high'
p187
tp188
as(S'f'
p189
S'want'
p190
tp191
(lp192
(I109
I9
F-0.5
S'certain'
p193
tp194
as(S'address'
p195
S'book'
p196
tp197
(lp198
(I19
I2
F0.375
S'address'
p199
tp200
a(I129
I0
I0
S'hierarchical'
p201
tp202
a(I129
I3
F-0.5
S'sure'
p203
tp204
a(I223
I5
F-0.75
S'worse'
p205
tp206
as(S'sound'
p207
tp208
(lp209
(I12
I3
F0.5
S'clear'
p210
tp211
a(I18
I6
F0.5
S'incomplete'
p212
tp213
a(I18
I6
F-0.375
S'manual'
p214
tp215
a(I60
I3
F0.5
S'clear'
p216
tp217
a(I95
I1
F-0.375
S'static'
p218
tp219
a(I113
I2
I0
S'great'
p220
tp221
a(I117
I24
F-0.125
S'mine'
p222
tp223
a(I169
I8
F-0.75
S'dead'
p224
tp225
a(I174
I6
F0.5
S'clear'
p226
tp227
a(I174
I6
F0.375
S'reliable'
p228
tp229
a(I229
I4
I0
S'great'
p230
tp231
a(I245
I21
F1.0
S'good'
p232
tp233
a(I255
I0
I0
S'real'
p234
tp235
as(S'want'
p236
tp237
(lp238
(I109
I9
F-0.5
g193
tp239
a(I245
I18
I0
S'own'
p240
tp241
as(S'ringtones'
p242
tp243
(lp244
(I5
I10
F0.5
S'clearer'
p245
tp246
a(I58
I8
I0
S'few'
p247
tp248
a(I58
I8
F0.875
S'nice'
p249
tp250
a(I66
I27
F0.875
S'music'
p251
tp252
a(I89
I13
I0
S'different'
p253
tp254
a(I130
I6
I0
S'most'
p255
tp256
a(I142
I6
I0
S'great'
p257
tp258
a(I154
I1
F0.875
S'nice'
p259
tp260
a(I154
I1
F1.0
S'better'
p261
tp262
a(I154
I1
F0.875
S'nice'
p263
tp264
a(I156
I8
I0
S'few'
p265
tp266
a(I157
I0
I0
S'assign'
p267
tp268
a(I245
I15
F-0.625
S'bad'
p269
tp270
a(I263
I0
F-0.625
S'other'
p271
tp272
a(I264
I12
I0
S'own'
p273
tp274
a(I264
I12
I0
S'great'
p275
tp276
as(S'and'
p277
S'battery'
p278
S'life'
p279
tp280
(lp281
(I6
I4
F-0.5
S'suspect'
p282
tp283
a(I9
I0
F0.375
S'new'
p284
tp285
a(I38
I2
F-0.125
S'mine'
p286
tp287
a(I51
I3
I0
S'most'
p288
tp289
a(I51
I3
F1.0
S'good'
p290
tp291
a(I51
I3
I0
S'least'
p292
tp293
a(I60
I6
I0
S'minimal'
p294
tp295
a(I66
I1
F0.625
S'superior'
p296
tp297
a(I79
I12
F0.5
S'satisfactory'
p298
tp299
a(I89
I15
F1.0
S'good'
p300
tp301
a(I133
I0
F-0.5
S'poor'
p302
tp303
a(I200
I3
F-0.75
S'short'
p304
tp305
a(I206
I4
F-0.25
S'low'
p306
tp307
a(I217
I3
F1.0
S'good'
p308
tp309
a(I217
I3
F0.5
S'true'
p310
tp311
a(I224
I4
F-0.75
S'short'
p312
tp313
a(I254
I8
F0.25
S'powerful'
p314
tp315
a(I254
I30
F-0.5
S'poor'
p316
tp317
a(I257
I5
F0.5
S'strong'
p318
tp319
as(S'caller'
p320
S'id'
p321
tp322
(lp323
(I23
I10
F0.875
S'nice'
p324
tp325
a(I23
I10
F0.125
S'outside'
p326
tp327
a(I200
I2
I0
S'external'
p328
tp329
a(I230
I24
I0
S'different'
p330
tp331
a(I264
I21
F0.375
S'allow'
p332
tp333
a(I264
I21
I0
S'pic'
p334
tp335
as(S'software'
p336
tp337
(lp338
(I9
I0
I0
S'cable'
p339
tp340
a(I9
I0
F0.375
S'similar'
p341
tp342
a(I9
I0
F-0.625
S'free'
p343
tp344
a(I9
I0
I0
S'website'
p345
tp346
a(I32
I12
I0
S'cable'
p347
tp348
a(I93
I10
F-0.125
S'slow'
p349
tp350
a(I119
I14
F1.0
S'better'
p351
tp352
a(I153
I0
F0.625
S'aware'
p353
tp354
a(I153
I0
F0.125
S'first'
p355
tp356
a(I183
I4
F-0.125
S'slow'
p357
tp358
a(I183
I4
F-0.75
S'unresponsive'
p359
tp360
a(I188
I3
F-0.5
S'poor'
p361
tp362
a(I193
I32
I0
S'cable'
p363
tp364
a(I224
I1
I0
S'full'
p365
tp366
a(I248
I11
I0
S'special'
p367
tp368
as(S'for'
p369
S'6'
p370
S'months'
p371
tp372
(lp373
(I195
I1
F-0.125
S'mine'
p374
tp375
as(S'nokia'
p376
tp377
(lp378
(I6
I7
I0
S'old'
p379
tp380
a(I8
I1
I0
S'old'
p381
tp382
a(I8
I10
I0
S'old'
p383
tp384
a(I8
I11
I0
S'old'
p385
tp386
a(I19
I2
F0.375
S'flexible'
p387
tp388
a(I38
I1
I0
S'old'
p389
tp390
a(I38
I1
F0.125
S'usual'
p391
tp392
a(I38
I2
I0
S'old'
p393
tp394
a(I38
I9
F-0.625
S'free'
p395
tp396
a(I38
I12
F-0.5
S'long'
p397
tp398
a(I51
I2
I0
S'old'
p399
tp400
a(I61
I2
F0.625
S'superior'
p401
tp402
a(I90
I0
I0
S'old'
p403
tp404
a(I90
I0
I0
S'old'
p405
tp406
a(I107
I17
I0
S'old'
p407
tp408
a(I113
I8
F1.0
S'better'
p409
tp410
a(I117
I1
I0
S'old'
p411
tp412
a(I123
I3
F0.625
S'easy'
p413
tp414
a(I149
I5
I0
S'anymore'
p415
tp416
a(I184
I0
F1.0
S'good'
p417
tp418
a(I205
I3
F1.0
S'better'
p419
tp420
a(I253
I2
I0
S'current'
p421
tp422
a(I253
I16
I0
S'voicemail'
p423
tp424
a(I253
I16
I0
S'dial'
p425
tp426
a(I253
I26
F0.625
S'easy'
p427
tp428
a(I254
I2
F0.125
S'digital'
p429
tp430
a(I259
I0
I0
S'ancient'
p431
tp432
a(I262
I1
I0
S'different'
p433
tp434
as(S'sim'
p435
S'card'
p436
tp437
(lp438
(I99
I4
F0.375
S'new'
p439
tp440
a(I193
I27
I0
S'most'
p441
tp442
as(S'charge'
p443
tp444
(lp445
(I8
I1
I0
S'full'
p446
tp447
a(I62
I2
F0.625
S'easy'
p448
tp449
a(I62
I11
I0
S'full'
p450
tp451
a(I82
I1
I0
S'full'
p452
tp453
a(I111
I7
F1.0
S'good'
p454
tp455
a(I117
I18
I0
S'awhile'
p456
tp457
a(I118
I19
I0
S'more'
p458
tp459
a(I118
I19
F0.125
S'enough'
p460
tp461
a(I124
I4
I0
S'full'
p462
tp463
a(I131
I0
F1.0
S'better'
p464
tp465
a(I156
I1
F-0.75
S'single'
p466
tp467
a(I156
I1
I0
S'full'
p468
tp469
a(I164
I3
F0.125
S'last'
p470
tp471
a(I182
I3
I0
S'full'
p472
tp473
a(I182
I3
F-0.75
S'dead'
p474
tp475
a(I234
I10
I0
S'full'
p476
tp477
a(I234
I10
I0
S'full'
p478
tp479
a(I249
I1
F0.125
S'first'
p480
tp481
a(I256
I8
F0.625
S'hold'
p482
tp483
a(I257
I1
I0
S'more'
p484
tp485
as(S'v3'
p486
S'razor'
p487
tp488
(lp489
(I248
I1
F0.5
S'expensive'
p490
tp491
a(I248
I1
I0
S'same'
p492
tp493
as(S'quad'
p494
S'band'
p495
tp496
(lp497
(I130
I6
I0
S'quad'
p498
tp499
a(I248
I4
F0.5
S'true'
p500
tp501
as(S'duplicate'
p502
S'entry'
p503
tp504
(lp505
(I36
I58
F0.25
S'duplicate'
p506
tp507
a(I161
I65
F0.25
S'duplicate'
p508
tp509
as(S'talk'
p510
S'time'
p511
tp512
(lp513
(I9
I0
I0
S'minimal'
p514
tp515
a(I9
I0
F-0.5
S'less'
p516
tp517
a(I46
I4
F0.125
S'first'
p518
tp519
a(I46
I4
F-0.25
S'low'
p520
tp521
a(I107
I2
F-0.5
S'less'
p522
tp523
a(I254
I9
F-0.5
S'less'
p524
tp525
a(I264
I7
I0
S'great'
p526
tp527
a(I264
I7
I0
S'unbelievable'
p528
tp529
as(S'customer'
p530
S'service'
p531
tp532
(lp533
(I39
I9
F1.0
S'good'
p534
tp535
a(I149
I8
F-0.625
S'bad'
p536
tp537
a(I170
I8
F-0.875
S'worst'
p538
tp539
a(I214
I2
F-0.625
S'bad'
p540
tp541
a(I254
I1
F-0.25
S'direct'
p542
tp543
as(S'volume'
p544
tp545
(lp546
(I3
I1
F-0.25
S'low'
p547
tp548
a(I50
I0
F-0.75
S'impossible'
p549
tp550
a(I53
I4
F0.5
S'second'
p551
tp552
a(I61
I7
F-0.375
S'top'
p553
tp554
a(I63
I12
F0.375
S'loudest'
p555
tp556
a(I66
I14
F0.875
S'nice'
p557
tp558
a(I81
I4
F-0.25
S'low'
p559
tp560
a(I81
I4
I0
S'continual'
p561
tp562
a(I98
I5
F0.125
S'first'
p563
tp564
a(I98
I5
F-0.25
S'low'
p565
tp566
a(I159
I4
F-0.25
S'low'
p567
tp568
a(I173
I7
F0.125
S'adjust'
p569
tp570
a(I186
I2
I0
S'full'
p571
tp572
a(I194
I6
F-0.25
S'low'
p573
tp574
a(I195
I1
F-0.5
S'poor'
p575
tp576
a(I220
I3
F0.375
S'loud'
p577
tp578
a(I220
I7
F-0.25
S'low'
p579
tp580
as(S'sound'
p581
S'quality'
p582
tp583
(lp584
(I18
I6
F0.5
g212
tp585
a(I18
I6
F-0.375
g214
tp586
a(I26
I3
F-0.5
g121
tp587
a(I113
I2
I0
g220
tp588
a(I114
I15
I0
g147
tp589
a(I182
I3
F-0.625
g155
tp590
a(I229
I4
I0
g230
tp591
a(I234
I1
I0
g169
tp592
a(I256
I4
F0.75
g183
tp593
as(S'times'
p594
tp595
(lp596
(I4
I1
F-0.25
S'past'
p597
tp598
a(I9
I0
F1.0
S'better'
p599
tp600
a(I10
I2
F0.125
S'first'
p601
tp602
a(I10
I2
I0
S'few'
p603
tp604
a(I61
I7
I0
S'many'
p605
tp606
a(I110
I0
I0
S'many'
p607
tp608
a(I119
I14
I0
S'many'
p609
tp610
a(I130
I9
F0.125
S'first'
p611
tp612
a(I130
I9
I0
S'few'
p613
tp614
a(I155
I17
I0
S'few'
p615
tp616
a(I190
I4
F0.375
S'new'
p617
tp618
a(I190
I5
I0
S'enter'
p619
tp620
a(I190
I5
I0
S'anymore'
p621
tp622
a(I190
I5
F-0.5
S'sure'
p623
tp624
a(I190
I5
F0.375
S'new'
p625
tp626
a(I205
I15
F0.625
S'concrete'
p627
tp628
a(I232
I18
F-0.375
S'daily'
p629
tp630
a(I238
I5
I0
S'many'
p631
tp632
a(I254
I19
I0
S'many'
p633
tp634
a(I259
I4
I0
S'many'
p635
tp636
as(S'problem'
p637
tp638
(lp639
(I7
I4
F0.375
S'much'
p640
tp641
a(I12
I4
I0
S'only'
p642
tp643
a(I25
I3
I0
S'same'
p644
tp645
a(I54
I6
I0
S'text'
p646
tp647
a(I61
I6
I0
S'only'
p648
tp649
a(I61
I6
I0
S'real'
p650
tp651
a(I69
I4
F-0.125
S'overall'
p652
tp653
a(I69
I4
I0
S'only'
p654
tp655
a(I70
I2
I0
S'big'
p656
tp657
a(I79
I42
I0
S'real'
p658
tp659
a(I84
I0
F0.25
S'biggest'
p660
tp661
a(I84
I4
F-0.625
S'other'
p662
tp663
a(I97
I27
F-0.5
S'sure'
p664
tp665
a(I103
I4
F-0.875
S'worst'
p666
tp667
a(I105
I3
I0
S'same'
p668
tp669
a(I105
I9
I0
S'same'
p670
tp671
a(I109
I2
I0
S'common'
p672
tp673
a(I119
I7
I0
S'same'
p674
tp675
a(I127
I4
F0.5
S'second'
p676
tp677
a(I127
I4
F-0.75
S'difficult'
p678
tp679
a(I130
I22
F0.125
S'able'
p680
tp681
a(I135
I1
F-0.375
S'manual'
p682
tp683
a(I144
I5
I0
S'common'
p684
tp685
a(I156
I3
F-0.5
S'long'
p686
tp687
a(I159
I3
I0
S'same'
p688
tp689
a(I159
I3
F0.625
S'aware'
p690
tp691
a(I163
I2
F0.625
S'easy'
p692
tp693
a(I163
I2
F0.625
S'major'
p694
tp695
a(I188
I3
F0.25
S'bigest'
p696
tp697
a(I188
I3
F0.75
S'due'
p698
tp699
a(I204
I6
I0
S'same'
p700
tp701
a(I207
I2
I0
S'same'
p702
tp703
a(I218
I2
I0
S'only'
p704
tp705
a(I223
I8
F0.125
S'first'
p706
tp707
a(I229
I0
F-0.75
S'single'
p708
tp709
a(I229
I0
F0.5
S'technical'
p710
tp711
a(I229
I0
F-0.125
S'mine'
p712
tp713
a(I235
I0
I0
S'big'
p714
tp715
a(I237
I9
F0.125
S'solid'
p716
tp717
a(I237
I9
F0.375
S'dependable'
p718
tp719
as(S'pictures'
p720
S'and'
p721
S'video'
p722
tp723
(lp724
(I7
I8
I0
S'adequate'
p725
tp726
a(I49
I1
F1.0
S'good'
p727
tp728
a(I55
I4
I0
S'great'
p729
tp730
a(I60
I8
F1.0
S'good'
p731
tp732
a(I60
I8
F1.0
S'best'
p733
tp734
a(I114
I8
I0
S'great'
p735
tp736
a(I253
I5
F-0.75
S'stupid'
p737
tp738
a(I253
I5
F-0.5
S'long'
p739
tp740
as(S'camera'
p741
S'and'
p742
S'video'
p743
tp744
(lp745
(I27
I4
F0.125
S'digital'
p746
tp747
a(I60
I8
F1.0
g733
tp748
a(I79
I9
F1.0
S'good'
p749
tp750
a(I90
I1
F1.0
S'best'
p751
tp752
a(I129
I9
F1.0
S'good'
p753
tp754
a(I129
I9
F-0.5
S'poor'
p755
tp756
a(I129
I9
F-0.625
S'light'
p757
tp758
a(I159
I5
I0
S'great'
p759
tp760
a(I159
I5
I0
S'cool'
p761
tp762
a(I218
I1
F1.0
S'good'
p763
tp764
a(I254
I19
F0.125
S'digital'
p765
tp766
a(I263
I7
F0.5
S'touch'
p767
tp768
as(S'with'
p769
S'motorola'
p770
S'v551'
p771
tp772
(lp773
(I36
I65
I0
g31
tp774
a(I51
I5
F-0.75
g35
tp775
as(S'v551'
p776
tp777
(lp778
(I8
I11
F-0.625
S'wall'
p779
tp780
a(I32
I13
I0
S'cable'
p781
tp782
a(I33
I8
F-0.875
S'inferior'
p783
tp784
a(I39
I3
F0.875
S'nice'
p785
tp786
a(I55
I3
F-0.25
S'direct'
p787
tp788
a(I93
I10
F-0.125
S'overall'
p789
tp790
a(I105
I1
F1.0
S'best'
p791
tp792
a(I127
I1
F0.5
S'second'
p793
tp794
a(I161
I3
F0.75
S'consider'
p795
tp796
a(I161
I52
F-0.625
S'other'
p797
tp798
a(I161
I72
F0.25
S'p.o.s'
p799
tp800
a(I185
I2
F1.0
S'better'
p801
tp802
a(I193
I0
F0.5
S'second'
p803
tp804
a(I202
I0
F0.375
S'new'
p805
tp806
a(I202
I0
F0.125
S'last'
p807
tp808
a(I205
I16
F1.0
S'good'
p809
tp810
a(I207
I0
F0.375
S'new'
p811
tp812
a(I212
I0
I0
S'own'
p813
tp814
a(I245
I6
I0
S'many'
p815
tp816
as(S'service'
p817
tp818
(lp819
(I12
I12
I0
S'great'
p820
tp821
a(I13
I0
I0
S'same'
p822
tp823
a(I13
I1
I0
S'great'
p824
tp825
a(I16
I8
F-0.875
S'worst'
p826
tp827
a(I36
I37
I0
S'full'
p828
tp829
a(I46
I8
F-0.5
S'sure'
p830
tp831
a(I56
I7
F0.5
S'clear'
p832
tp833
a(I56
I7
F0.625
S'perfect'
p834
tp835
a(I58
I13
F-0.75
S'unreliable'
p836
tp837
a(I64
I11
F-0.25
S'past'
p838
tp839
a(I64
I11
F0.125
S'able'
p840
tp841
a(I71
I1
I0
S'full'
p842
tp843
a(I79
I18
I0
S'more'
p844
tp845
a(I83
I2
I0
S'great'
p846
tp847
a(I99
I5
I0
S'cellular'
p848
tp849
a(I104
I5
F0.25
S'helpful'
p850
tp851
a(I149
I8
F-0.625
g536
tp852
a(I150
I3
F0.625
S'perfect'
p853
tp854
a(I161
I43
I0
S'full'
p855
tp856
a(I170
I8
F-0.875
g538
tp857
a(I173
I13
I0
S'more'
p858
tp859
a(I185
I0
F-0.75
S'unreliable'
p860
tp861
a(I238
I0
F-0.5
S'poor'
p862
tp863
a(I238
I5
I0
S'general'
p864
tp865
a(I240
I16
I0
S'same'
p866
tp867
a(I240
I22
F1.0
S'better'
p868
tp869
as(S'getting'
p870
tp871
(lp872
(I229
I8
F-0.875
S'trouble'
p873
tp874
a(I253
I29
I0
S'useful'
p875
tp876
as(S'number'
p877
tp878
(lp879
(I45
I3
I0
S'e-mail'
p880
tp881
a(I51
I3
F0.125
S'able'
p882
tp883
a(I57
I0
I0
S'current'
p884
tp885
a(I122
I8
I0
S'own'
p886
tp887
a(I122
I8
I0
S'specific'
p888
tp889
a(I165
I14
F0.625
S'aware'
p890
tp891
a(I171
I0
F0.25
S'original'
p892
tp893
a(I223
I9
I0
S'old'
p894
tp895
a(I253
I5
I0
S'dial'
p896
tp897
a(I253
I7
I0
S'dial'
p898
tp899
as(S'need'
p900
tp901
(lp902
(I18
I14
F0.625
S'find'
p903
tp904
a(I18
I14
I0
S'dial'
p905
tp906
as(S'sony'
p907
S'ericsson'
p908
tp909
(lp910
(I231
I0
F0.125
S'first'
p911
tp912
a(I242
I0
F-0.375
S'simple'
p913
tp914
as(S'a'
p915
S'text'
p916
S'message'
p917
tp918
(lp919
(I254
I22
I0
S'text'
p920
tp921
as(S'right'
p922
tp923
(lp924
(I254
I15
F-0.375
S'top'
p925
tp926
as(S'n'
p927
S'r'
p928
S'address'
p929
tp930
(lp931
(I129
I0
I0
g201
tp932
a(I129
I3
F-0.5
g203
tp933
as(S'features'
p934
tp935
(lp936
(I14
I3
F1.0
S'good'
p937
tp938
a(I17
I1
I0
S'keypad'
p939
tp940
a(I17
I1
I0
S'large'
p941
tp942
a(I18
I1
I0
S'many'
p943
tp944
a(I32
I12
F0.375
S'available'
p945
tp946
a(I32
I23
F-0.625
S'other'
p947
tp948
a(I36
I52
I0
S'such'
p949
tp950
a(I44
I0
F1.0
S'good'
p951
tp952
a(I51
I2
F0.625
S'major'
p953
tp954
a(I51
I5
F0.875
S'important'
p955
tp956
a(I56
I0
F-0.375
S'simple'
p957
tp958
a(I66
I8
F0.625
S'easy'
p959
tp960
a(I79
I2
F0.375
S'newer'
p961
tp962
a(I79
I25
F0.625
S'easy'
p963
tp964
a(I79
I26
F0.125
S'able'
p965
tp966
a(I79
I26
F0.625
S'major'
p967
tp968
a(I82
I0
I0
S'great'
p969
tp970
a(I91
I13
I0
S'al'
p971
tp972
a(I97
I28
I0
S'handy'
p973
tp974
a(I114
I17
F0.5
S'obvious'
p975
tp976
a(I123
I2
I0
S'many'
p977
tp978
a(I130
I2
I0
S'same'
p979
tp980
a(I130
I2
F0.375
S'much'
p981
tp982
a(I137
I1
I0
S'teenager'
p983
tp984
a(I156
I0
F0.375
S'extra'
p985
tp986
a(I161
I59
I0
S'such'
p987
tp988
a(I164
I5
F1.0
S'good'
p989
tp990
a(I167
I3
F1.0
S'good'
p991
tp992
a(I167
I3
I0
S'such'
p993
tp994
a(I177
I3
I0
S'great'
p995
tp996
a(I182
I5
F-0.625
S'other'
p997
tp998
a(I184
I25
F0.375
S'extra'
p999
tp1000
a(I190
I2
F-0.5
S'certain'
p1001
tp1002
a(I232
I19
F0.875
S'nice'
p1003
tp1004
a(I241
I2
F-0.625
S'other'
p1005
tp1006
a(I241
I5
I0
S'full'
p1007
tp1008
a(I242
I0
F0.5
S'advanced'
p1009
tp1010
a(I253
I0
I0
S'great'
p1011
tp1012
a(I254
I3
I0
S'fewer'
p1013
tp1014
a(I254
I3
I0
S'minimal'
p1015
tp1016
a(I254
I3
I0
S'more'
p1017
tp1018
a(I254
I12
F-0.5
S'certain'
p1019
tp1020
a(I254
I12
F0.5
S'touch'
p1021
tp1022
a(I254
I26
F-0.5
S'less'
p1023
tp1024
a(I260
I1
I0
S'many'
p1025
tp1026
a(I260
I1
I0
S'great'
p1027
tp1028
as(S'video'
p1029
tp1030
(lp1031
(I27
I3
F-0.625
S'bad'
p1032
tp1033
a(I59
I2
I0
S'many'
p1034
tp1035
a(I60
I8
F1.0
g733
tp1036
a(I79
I9
F1.0
g749
tp1037
a(I129
I9
F1.0
g753
tp1038
a(I129
I9
F-0.5
g755
tp1039
a(I129
I9
F-0.625
g757
tp1040
a(I159
I5
I0
g761
tp1041
a(I195
I4
F-0.5
S'poor'
p1042
tp1043
a(I218
I1
F1.0
g763
tp1044
a(I263
I7
F0.5
g767
tp1045
as(S'voice'
p1046
tp1047
(lp1048
(I3
I3
I0
S'later'
p1049
tp1050
a(I3
I4
I0
S'many'
p1051
tp1052
a(I7
I18
F-0.25
S'unaware'
p1053
tp1054
a(I72
I9
F0.625
S'easy'
p1055
tp1056
a(I72
I9
F1.0
S'good'
p1057
tp1058
a(I130
I6
F1.0
S'good'
p1059
tp1060
a(I147
I1
I0
S'great'
p1061
tp1062
a(I229
I4
I0
S'great'
p1063
tp1064
a(I254
I18
F0.5
S'second'
p1065
tp1066
as(S'thing'
p1067
tp1068
(lp1069
(I1
I6
F-0.625
S'bad'
p1070
tp1071
a(I3
I6
I0
S'same'
p1072
tp1073
a(I4
I2
F-0.75
S'stupid'
p1074
tp1075
a(I4
I4
I0
S'same'
p1076
tp1077
a(I7
I24
F-0.625
S'other'
p1078
tp1079
a(I16
I7
F1.0
S'good'
p1080
tp1081
a(I36
I22
I0
S'funny'
p1082
tp1083
a(I40
I4
I0
S'only'
p1084
tp1085
a(I45
I3
F-0.625
S'other'
p1086
tp1087
a(I59
I5
I0
S'full'
p1088
tp1089
a(I63
I2
F1.0
S'good'
p1090
tp1091
a(I76
I3
F0.875
S'important'
p1092
tp1093
a(I89
I20
I0
S'only'
p1094
tp1095
a(I114
I5
I0
S'next'
p1096
tp1097
a(I117
I13
I0
S'most'
p1098
tp1099
a(I123
I4
F0.125
S'first'
p1100
tp1101
a(I133
I0
F0.875
S'nice'
p1102
tp1103
a(I135
I1
I0
S'only'
p1104
tp1105
a(I147
I1
F0.375
S'significant'
p1106
tp1107
a(I161
I27
I0
S'funny'
p1108
tp1109
a(I163
I3
F1.0
S'good'
p1110
tp1111
a(I182
I1
F-0.75
S'dead'
p1112
tp1113
a(I188
I5
F0.25
S'biggest'
p1114
tp1115
a(I194
I5
F0.875
S'nice'
p1116
tp1117
a(I201
I2
I0
S'only'
p1118
tp1119
a(I201
I2
I0
S'questionable'
p1120
tp1121
a(I220
I8
F-0.875
S'worst'
p1122
tp1123
a(I220
I9
F0.125
S'first'
p1124
tp1125
a(I220
I15
F0.375
S'interesting'
p1126
tp1127
a(I230
I11
I0
S'only'
p1128
tp1129
a(I264
I11
F-0.5
S'flimsy'
p1130
tp1131
a(I264
I15
I0
S'great'
p1132
tp1133
as(S'alarm'
p1134
S'clock'
p1135
tp1136
(lp1137
(I194
I7
F0.375
S'available'
p1138
tp1139
as(S'acura'
p1140
S'tl'
p1141
tp1142
(lp1143
(I6
I1
F0.375
S'new'
p1144
tp1145
as(S'hours'
p1146
tp1147
(lp1148
(I8
I13
I0
S'least'
p1149
tp1150
a(I52
I2
F-0.625
S'average'
p1151
tp1152
a(I52
I2
F0.125
S'able'
p1153
tp1154
a(I52
I2
F-0.5
S'less'
p1155
tp1156
a(I82
I2
F-0.75
S'dead'
p1157
tp1158
a(I82
I2
F0.375
S'complete'
p1159
tp1160
a(I164
I3
I0
S'more'
p1161
tp1162
a(I205
I11
I0
S'more'
p1163
tp1164
as(S'work'
p1165
tp1166
(lp1167
(I124
I6
I0
S'entire'
p1168
tp1169
as(S'dropped'
p1170
S'calls'
p1171
tp1172
(lp1173
(I1
I8
I0
S'more'
p1174
tp1175
a(I39
I8
F-0.25
S'dropped'
p1176
tp1177
a(I39
I8
I0
S'many'
p1178
tp1179
a(I42
I2
I0
S'many'
p1180
tp1181
a(I58
I12
F-0.25
S'dropped'
p1182
tp1183
a(I60
I5
I0
S'fewer'
p1184
tp1185
a(I74
I0
F-0.5
S'less'
p1186
tp1187
a(I78
I4
I0
S'many'
p1188
tp1189
a(I79
I38
I0
S'few'
p1190
tp1191
a(I79
I38
F-0.25
S'dropped'
p1192
tp1193
a(I79
I38
F-0.25
S'dropped'
p1194
tp1195
a(I81
I4
F-0.625
S'impractical'
p1196
tp1197
a(I92
I3
F0.5
S'touch'
p1198
tp1199
a(I97
I22
F-0.25
S'dropped'
p1200
tp1201
a(I97
I23
F-0.25
S'dropped'
p1202
tp1203
a(I97
I23
F0.75
S'due'
p1204
tp1205
a(I119
I2
F0.125
S'first'
p1206
tp1207
a(I129
I6
F-0.25
S'dropped'
p1208
tp1209
a(I135
I0
F-0.25
S'dropped'
p1210
tp1211
a(I179
I0
I0
S'least'
p1212
tp1213
a(I180
I1
F-0.25
S'dropped'
p1214
tp1215
a(I187
I4
I0
S'many'
p1216
tp1217
a(I195
I1
F-0.25
S'dropped'
p1218
tp1219
a(I226
I2
F-0.25
S'dropped'
p1220
tp1221
a(I226
I7
I0
S'more'
p1222
tp1223
a(I238
I5
F-0.25
S'dropped'
p1224
tp1225
a(I251
I2
I0
S'more'
p1226
tp1227
a(I257
I3
F-0.25
S'dropped'
p1228
tp1229
as(S'turn'
p1230
tp1231
(lp1232
(I190
I2
F1.0
S'better'
p1233
tp1234
as(S'text'
p1235
S'messaging'
p1236
tp1237
(lp1238
(I18
I8
I0
S'text'
p1239
tp1240
a(I79
I5
I0
S'great'
p1241
tp1242
a(I89
I6
I0
S'text'
p1243
tp1244
a(I90
I1
I0
S'quick'
p1245
tp1246
a(I253
I17
I0
S'text'
p1247
tp1248
as(S'text'
p1249
S'message'
p1250
tp1251
(lp1252
(I254
I22
I0
g920
tp1253
as(S'duplicate'
p1254
S'entries'
p1255
tp1256
(lp1257
(I36
I55
F0.25
S'duplicate'
p1258
tp1259
a(I161
I62
F0.25
S'duplicate'
p1260
tp1261
as(S'battery'
p1262
S'life'
p1263
tp1264
(lp1265
(I6
I4
F-0.5
g282
tp1266
a(I9
I0
F0.375
g284
tp1267
a(I30
I4
F-0.625
S'average'
p1268
tp1269
a(I38
I2
F-0.125
g286
tp1270
a(I51
I3
I0
g288
tp1271
a(I51
I3
F1.0
g290
tp1272
a(I51
I3
I0
g292
tp1273
a(I60
I6
I0
g294
tp1274
a(I66
I1
F0.625
g296
tp1275
a(I66
I21
F0.875
S'important'
p1276
tp1277
a(I66
I21
F-0.375
S'manual'
p1278
tp1279
a(I66
I21
F-0.625
S'useless'
p1280
tp1281
a(I66
I31
F1.0
S'good'
p1282
tp1283
a(I79
I12
F0.5
g298
tp1284
a(I79
I18
F1.0
S'better'
p1285
tp1286
a(I89
I15
F1.0
g300
tp1287
a(I89
I20
F-0.75
S'short'
p1288
tp1289
a(I96
I0
F-0.75
S'short'
p1290
tp1291
a(I106
I5
F1.0
S'good'
p1292
tp1293
a(I116
I0
F-0.75
S'dead'
p1294
tp1295
a(I118
I9
F1.0
S'good'
p1296
tp1297
a(I130
I11
F-0.75
S'short'
p1298
tp1299
a(I133
I0
F-0.5
g302
tp1300
a(I176
I4
F-0.625
S'average'
p1301
tp1302
a(I200
I3
F-0.75
g304
tp1303
a(I203
I2
F1.0
S'good'
p1304
tp1305
a(I205
I10
I0
S'more'
p1306
tp1307
a(I205
I10
F-0.625
S'bad'
p1308
tp1309
a(I206
I4
F-0.25
g306
tp1310
a(I217
I3
F1.0
g308
tp1311
a(I217
I3
F0.5
g310
tp1312
a(I224
I4
F-0.75
g312
tp1313
a(I226
I10
F1.0
S'better'
p1314
tp1315
a(I234
I9
F0.5
S'second'
p1316
tp1317
a(I254
I5
F0.125
S'first'
p1318
tp1319
a(I254
I8
F0.25
g314
tp1320
a(I254
I30
F-0.5
g316
tp1321
a(I257
I5
F0.5
g318
tp1322
a(I263
I9
F1.0
S'good'
p1323
tp1324
as(S'cingular'
p1325
tp1326
(lp1327
(I26
I1
F0.375
S'new'
p1328
tp1329
a(I32
I0
F0.375
S'new'
p1330
tp1331
a(I57
I0
F0.375
S'new'
p1332
tp1333
a(I177
I12
F-0.625
S'disgruntled'
p1334
tp1335
a(I248
I14
F0.375
S'new'
p1336
tp1337
as(S'problems'
p1338
tp1339
(lp1340
(I7
I31
F0.875
S'happy'
p1341
tp1342
a(I11
I1
F0.625
S'major'
p1343
tp1344
a(I20
I2
I0
S'more'
p1345
tp1346
a(I22
I2
I0
S'subsequent'
p1347
tp1348
a(I22
I2
F0.75
S'due'
p1349
tp1350
a(I36
I0
F0.75
S'give'
p1351
tp1352
a(I84
I0
I0
S'many'
p1353
tp1354
a(I92
I2
F-0.75
S'minor'
p1355
tp1356
a(I98
I6
I0
S'least'
p1357
tp1358
a(I98
I6
F0.375
S'similar'
p1359
tp1360
a(I120
I1
I0
S'many'
p1361
tp1362
a(I127
I1
F0.125
S'first'
p1363
tp1364
a(I127
I1
I0
S'same'
p1365
tp1366
a(I128
I12
I0
S'same'
p1367
tp1368
a(I128
I12
F-0.75
S'have'
p1369
tp1370
a(I135
I0
I0
S'such'
p1371
tp1372
a(I145
I3
I0
S'same'
p1373
tp1374
a(I146
I3
I0
S'such'
p1375
tp1376
a(I262
I8
I0
S'few'
p1377
tp1378
a(I262
I8
I0
S'many'
p1379
tp1380
as(S'back'
p1381
tp1382
(lp1383
(I213
I3
F-0.25
S'white'
p1384
tp1385
as(S'book'
p1386
tp1387
(lp1388
(I19
I2
F0.375
g199
tp1389
a(I223
I5
F-0.75
g205
tp1390
a(I227
I2
F-1.0
S'dog'
p1391
tp1392
a(I227
I2
F-0.125
S'slow'
p1393
tp1394
as(S'motorola'
p1395
S'v551'
p1396
tp1397
(lp1398
(I36
I65
I0
g31
tp1399
a(I51
I5
F-0.75
g35
tp1400
a(I105
I1
F0.5
g49
tp1401
a(I105
I1
F1.0
g791
tp1402
a(I185
I2
F1.0
g801
tp1403
a(I185
I2
F0.125
g67
tp1404
a(I245
I6
I0
g815
tp1405
as(S'good'
p1406
tp1407
(lp1408
(I113
I2
F0.125
S'first'
p1409
tp1410
as(S'reception'
p1411
tp1412
(lp1413
(I12
I2
I0
S'great'
p1414
tp1415
a(I22
I0
F-0.75
S'unable'
p1416
tp1417
a(I36
I36
I0
S'full'
p1418
tp1419
a(I43
I4
F1.0
S'good'
p1420
tp1421
a(I61
I9
F1.0
S'good'
p1422
tp1423
a(I66
I13
F0.5
S'clear'
p1424
tp1425
a(I74
I3
F1.0
S'good'
p1426
tp1427
a(I78
I0
F-0.5
S'poor'
p1428
tp1429
a(I79
I12
I0
S'great'
p1430
tp1431
a(I79
I18
I0
S'active'
p1432
tp1433
a(I79
I18
F0.5
S'clear'
p1434
tp1435
a(I88
I1
F1.0
S'good'
p1436
tp1437
a(I90
I1
I0
S'great'
p1438
tp1439
a(I90
I3
F1.0
S'best'
p1440
tp1441
a(I98
I3
F-0.875
S'hard'
p1442
tp1443
a(I98
I3
F1.0
S'good'
p1444
tp1445
a(I106
I2
F-0.625
S'bad'
p1446
tp1447
a(I106
I2
I0
S'most'
p1448
tp1449
a(I124
I0
F1.0
S'good'
p1450
tp1451
a(I124
I10
I0
S'great'
p1452
tp1453
a(I130
I4
F1.0
S'good'
p1454
tp1455
a(I130
I18
I0
S'trade-off'
p1456
tp1457
a(I138
I2
F0.625
S'superior'
p1458
tp1459
a(I146
I2
I0
S'signal'
p1460
tp1461
a(I148
I8
I0
S'basic'
p1462
tp1463
a(I149
I7
F1.0
S'good'
p1464
tp1465
a(I161
I42
I0
S'full'
p1466
tp1467
a(I164
I4
F-0.5
S'poor'
p1468
tp1469
a(I164
I4
F0.75
S'due'
p1470
tp1471
a(I180
I1
F-0.625
S'bad'
p1472
tp1473
a(I187
I0
F-0.5
S'poor'
p1474
tp1475
a(I195
I1
F-0.5
S'poor'
p1476
tp1477
a(I196
I0
F1.0
S'good'
p1478
tp1479
a(I197
I0
F-0.5
S'poor'
p1480
tp1481
a(I202
I6
I0
S'phenomenal'
p1482
tp1483
a(I210
I0
F-0.5
S'poor'
p1484
tp1485
a(I212
I2
F-0.5
S'poor'
p1486
tp1487
a(I214
I1
F1.0
S'good'
p1488
tp1489
a(I217
I3
I0
S'great'
p1490
tp1491
a(I220
I14
F-0.625
S'bad'
p1492
tp1493
a(I222
I1
F-0.5
S'poor'
p1494
tp1495
a(I224
I4
F-0.875
S'awful'
p1496
tp1497
a(I231
I2
I0
S'great'
p1498
tp1499
a(I231
I3
I0
S'most'
p1500
tp1501
a(I231
I3
F0.875
S'important'
p1502
tp1503
a(I250
I2
F-0.625
S'bad'
p1504
tp1505
a(I257
I5
F-0.5
S'poor'
p1506
tp1507
a(I263
I10
F1.0
S'good'
p1508
tp1509
as(S'blue'
p1510
S'tooth'
p1511
tp1512
(lp1513
(I152
I8
I0
S'blue'
p1514
tp1515
a(I212
I2
I0
S'blue'
p1516
tp1517
a(I213
I3
I0
S'great'
p1518
tp1519
a(I213
I3
I0
S'plastic'
p1520
tp1521
a(I230
I13
I0
S'blue'
p1522
tp1523
a(I230
I13
I0
S'blue'
p1524
tp1525
as(S'life'
p1526
tp1527
(lp1528
(I6
I4
F-0.5
g282
tp1529
a(I30
I4
F-0.625
g1268
tp1530
a(I38
I2
F-0.125
g286
tp1531
a(I51
I3
I0
g288
tp1532
a(I51
I3
F1.0
g290
tp1533
a(I51
I3
I0
g292
tp1534
a(I66
I21
F0.875
g1276
tp1535
a(I66
I21
F-0.375
g1278
tp1536
a(I66
I21
F-0.625
g1280
tp1537
a(I79
I12
F0.5
g298
tp1538
a(I89
I15
F1.0
g300
tp1539
a(I130
I11
F-0.75
g1298
tp1540
a(I176
I4
F-0.625
g1301
tp1541
a(I193
I35
F1.0
S'best'
p1542
tp1543
a(I203
I2
F1.0
g1304
tp1544
a(I205
I10
F-0.625
g1308
tp1545
a(I217
I3
F1.0
g308
tp1546
a(I217
I3
F0.5
g310
tp1547
a(I254
I5
F0.125
g1318
tp1548
a(I263
I9
F1.0
g1323
tp1549
as(S'ton'
p1550
S'on'
p1551
S'side'
p1552
tp1553
(lp1554
(I118
I3
I0
S'great'
p1555
tp1556
a(I227
I2
I0
S'same'
p1557
tp1558
as(S'speakerphone'
p1559
tp1560
(lp1561
(I44
I5
I0
S'activate'
p1562
tp1563
a(I55
I1
I0
S'crystal'
p1564
tp1565
a(I55
I1
F0.5
S'clear'
p1566
tp1567
a(I66
I6
F0.625
S'easy'
p1568
tp1569
a(I75
I6
F0.5
S'clear'
p1570
tp1571
a(I129
I11
I0
S'useful'
p1572
tp1573
a(I202
I5
F1.0
S'best'
p1574
tp1575
a(I229
I4
I0
S'great'
p1576
tp1577
a(I230
I17
F1.0
S'best'
p1578
tp1579
a(I236
I5
F0.5
S'clear'
p1580
tp1581
as(S'display'
p1582
tp1583
(lp1584
(I21
I3
F0.875
S'nice'
p1585
tp1586
a(I46
I16
I0
S'cool'
p1587
tp1588
a(I51
I3
F-0.75
S'bright'
p1589
tp1590
a(I51
I3
F-0.625
S'clean'
p1591
tp1592
a(I64
I14
F-0.75
S'bright'
p1593
tp1594
a(I118
I9
F0.5
S'clear'
p1595
tp1596
a(I134
I0
F0.25
S'larger'
p1597
tp1598
a(I198
I2
F1.0
S'better'
p1599
tp1600
a(I230
I24
F1.0
S'good'
p1601
tp1602
a(I236
I5
F0.75
S'beautiful'
p1603
tp1604
a(I245
I4
I0
S'large'
p1605
tp1606
a(I246
I1
I0
S'keypad'
p1607
tp1608
a(I248
I4
I0
S'external'
p1609
tp1610
a(I248
I7
I0
S'blue'
p1611
tp1612
a(I248
I7
I0
S'external'
p1613
tp1614
as(S'battery'
p1615
tp1616
(lp1617
(I8
I11
F-0.75
S'dead'
p1618
tp1619
a(I9
I0
F0.375
g284
tp1620
a(I10
I1
F0.125
S'last'
p1621
tp1622
a(I10
I1
F-0.5
S'long'
p1623
tp1624
a(I46
I2
I0
S'standard'
p1625
tp1626
a(I46
I6
F0.375
S'extended'
p1627
tp1628
a(I60
I6
I0
g294
tp1629
a(I62
I4
I0
S'full'
p1630
tp1631
a(I63
I4
F-0.375
S'manual'
p1632
tp1633
a(I66
I1
F0.625
g296
tp1634
a(I66
I31
F1.0
g1282
tp1635
a(I76
I1
F-0.25
S'low'
p1636
tp1637
a(I79
I18
F1.0
g1285
tp1638
a(I89
I20
F-0.75
g1288
tp1639
a(I96
I0
F-0.75
g1290
tp1640
a(I97
I17
F-0.75
S'dry'
p1641
tp1642
a(I98
I2
I0
S'more'
p1643
tp1644
a(I106
I5
F1.0
g1292
tp1645
a(I111
I7
F0.125
S'first'
p1646
tp1647
a(I116
I0
F-0.75
g1294
tp1648
a(I118
I9
F1.0
g1296
tp1649
a(I123
I14
I0
S'more'
p1650
tp1651
a(I124
I1
I0
S'great'
p1652
tp1653
a(I124
I9
I0
S'great'
p1654
tp1655
a(I133
I0
F-0.5
g302
tp1656
a(I141
I2
F-0.75
S'dead'
p1657
tp1658
a(I155
I7
F-0.625
S'other'
p1659
tp1660
a(I155
I7
I0
S'full'
p1661
tp1662
a(I188
I7
F-0.75
S'dead'
p1663
tp1664
a(I188
I9
F-0.75
S'dead'
p1665
tp1666
a(I194
I9
F0.5
S'strong'
p1667
tp1668
a(I200
I3
F-0.75
g304
tp1669
a(I201
I3
F-0.625
S'bad'
p1670
tp1671
a(I205
I10
I0
g1306
tp1672
a(I206
I4
F-0.25
g306
tp1673
a(I224
I4
F-0.75
g312
tp1674
a(I225
I2
F0.375
S'new'
p1675
tp1676
a(I226
I10
F1.0
g1314
tp1677
a(I234
I9
F0.5
g1316
tp1678
a(I240
I2
F-0.625
S'clean'
p1679
tp1680
a(I241
I1
F-0.75
S'dead'
p1681
tp1682
a(I254
I7
F0.375
S'much'
p1683
tp1684
a(I254
I8
F0.25
g314
tp1685
a(I254
I30
F-0.5
g316
tp1686
a(I257
I5
F0.5
g318
tp1687
a(I263
I10
F-0.5
S'longer'
p1688
tp1689
as(S'cell'
p1690
tp1691
(lp1692
(I14
I1
F0.125
S'first'
p1693
tp1694
a(I42
I3
I0
S'current'
p1695
tp1696
a(I59
I0
I0
S'many'
p1697
tp1698
a(I66
I0
F0.125
S'first'
p1699
tp1700
a(I81
I0
I0
S'most'
p1701
tp1702
a(I81
I0
F0.375
S'new'
p1703
tp1704
a(I89
I8
I0
S'standard'
p1705
tp1706
a(I97
I1
F0.125
S'first'
p1707
tp1708
a(I107
I0
F-0.875
S'worst'
p1709
tp1710
a(I152
I10
F0.375
S'new'
p1711
tp1712
a(I152
I10
F0.875
S'happy'
p1713
tp1714
a(I177
I6
F-0.375
S'smallest'
p1715
tp1716
a(I182
I6
I0
S'third'
p1717
tp1718
a(I215
I0
F0.125
S'first'
p1719
tp1720
a(I254
I11
F0.125
S'first'
p1721
tp1722
a(I264
I2
F0.375
S'new'
p1723
tp1724
as(S'calls'
p1725
tp1726
(lp1727
(I1
I8
I0
g1174
tp1728
a(I7
I3
I0
S'many'
p1729
tp1730
a(I36
I62
F0.75
S'receive'
p1731
tp1732
a(I39
I8
F-0.25
g1176
tp1733
a(I39
I8
I0
g1178
tp1734
a(I42
I2
I0
g1180
tp1735
a(I58
I12
F-0.25
g1182
tp1736
a(I60
I5
I0
g1184
tp1737
a(I74
I0
F-0.5
g1186
tp1738
a(I78
I4
I0
g1188
tp1739
a(I79
I38
I0
g1190
tp1740
a(I79
I38
F-0.25
g1192
tp1741
a(I79
I38
F-0.25
g1194
tp1742
a(I81
I4
F-0.625
g1196
tp1743
a(I91
I7
I0
S'few'
p1744
tp1745
a(I92
I3
F0.5
g1198
tp1746
a(I97
I22
F-0.25
g1200
tp1747
a(I97
I23
F-0.25
g1202
tp1748
a(I97
I23
F0.75
g1204
tp1749
a(I110
I0
I0
S'many'
p1750
tp1751
a(I115
I5
I0
S'next'
p1752
tp1753
a(I119
I2
F0.125
g1206
tp1754
a(I128
I4
F0.125
S'able'
p1755
tp1756
a(I128
I17
F0.125
S'able'
p1757
tp1758
a(I129
I6
F-0.25
g1208
tp1759
a(I135
I0
F-0.25
g1210
tp1760
a(I153
I2
I0
S'more'
p1761
tp1762
a(I155
I3
F-0.5
S'international'
p1763
tp1764
a(I155
I3
I0
S'imperative'
p1765
tp1766
a(I179
I0
I0
g1212
tp1767
a(I180
I1
F-0.25
g1214
tp1768
a(I186
I6
I0
S'signal'
p1769
tp1770
a(I187
I4
I0
g1216
tp1771
a(I194
I8
F1.0
S'better'
p1772
tp1773
a(I195
I1
F-0.25
g1218
tp1774
a(I207
I1
I0
S'most'
p1775
tp1776
a(I226
I2
F-0.25
g1220
tp1777
a(I226
I7
I0
g1222
tp1778
a(I232
I18
I0
S'more'
p1779
tp1780
a(I238
I5
F-0.25
g1224
tp1781
a(I243
I1
F-0.5
S'international'
p1782
tp1783
a(I249
I2
I0
S'few'
p1784
tp1785
a(I251
I2
I0
g1226
tp1786
a(I254
I12
I0
S'least'
p1787
tp1788
a(I254
I12
F0.5
S'clear'
p1789
tp1790
a(I254
I12
F0.25
S'recent'
p1791
tp1792
a(I257
I3
F-0.25
g1228
tp1793
as(S'speaker'
p1794
tp1795
(lp1796
(I66
I7
I0
S'external'
p1797
tp1798
a(I71
I3
F0.75
S'ear'
p1799
tp1800
a(I87
I3
I0
S'third'
p1801
tp1802
a(I130
I6
F1.0
S'good'
p1803
tp1804
a(I173
I2
F0.875
S'nice'
p1805
tp1806
a(I194
I6
F0.625
S'convenient'
p1807
tp1808
a(I217
I7
I0
S'softer'
p1809
tp1810
as(S'pretty'
p1811
tp1812
(lp1813
(I45
I5
F-0.625
S'other'
p1814
tp1815
as(S'time'
p1816
tp1817
(lp1818
(I4
I1
I0
S'such'
p1819
tp1820
a(I4
I1
F-0.875
S'hard'
p1821
tp1822
a(I4
I2
F-0.5
S'longest'
p1823
tp1824
a(I4
I2
I0
S'only'
p1825
tp1826
a(I20
I6
I0
S'same'
p1827
tp1828
a(I35
I1
F-0.875
S'hard'
p1829
tp1830
a(I36
I64
F0.5
S'whole'
p1831
tp1832
a(I43
I7
F0.125
S'able'
p1833
tp1834
a(I46
I4
F0.125
g518
tp1835
a(I50
I0
F-0.75
S'short'
p1836
tp1837
a(I53
I3
F0.125
S'first'
p1838
tp1839
a(I53
I5
F-0.875
S'awful'
p1840
tp1841
a(I66
I13
F-0.75
S'short'
p1842
tp1843
a(I82
I2
F-0.5
S'long'
p1844
tp1845
a(I97
I12
F0.125
S'first'
p1846
tp1847
a(I99
I3
F0.5
S'second'
p1848
tp1849
a(I99
I4
F0.125
S'last'
p1850
tp1851
a(I107
I1
F-0.5
S'less'
p1852
tp1853
a(I107
I2
F-0.5
g522
tp1854
a(I109
I3
F-0.5
S'long'
p1855
tp1856
a(I133
I2
F-0.75
S'short'
p1857
tp1858
a(I161
I71
F0.5
S'whole'
p1859
tp1860
a(I186
I3
I0
S'most'
p1861
tp1862
a(I204
I1
I0
S'more'
p1863
tp1864
a(I205
I3
F0.125
S'first'
p1865
tp1866
a(I217
I1
F-0.375
S'manual'
p1867
tp1868
a(I217
I3
I0
S'same'
p1869
tp1870
a(I217
I7
I0
S'same'
p1871
tp1872
a(I217
I9
I0
S'most'
p1873
tp1874
a(I217
I10
F0.75
S'receive'
p1875
tp1876
a(I224
I0
I0
S'common'
p1877
tp1878
a(I224
I0
F1.0
S'good'
p1879
tp1880
a(I235
I2
F0.125
S'first'
p1881
tp1882
a(I249
I4
F0.5
S'whole'
p1883
tp1884
a(I254
I2
I0
S'same'
p1885
tp1886
a(I254
I9
F-0.5
g524
tp1887
a(I257
I2
F0.125
S'first'
p1888
tp1889
a(I264
I7
I0
g526
tp1890
a(I264
I7
I0
g528
tp1891
as(g928
S'address'
p1892
S'book'
p1893
tp1894
(lp1895
(I19
I2
F0.375
g199
tp1896
a(I129
I0
I0
g201
tp1897
a(I129
I3
F-0.5
g203
tp1898
a(I223
I5
F-0.75
g205
tp1899
as(S'name'
p1900
tp1901
(lp1902
(I18
I17
F-0.889
g99
tp1903
a(I65
I11
I0
S'full'
p1904
tp1905
a(I65
I11
F0.125
S'last'
p1906
tp1907
a(I91
I11
I0
S'great'
p1908
tp1909
as(S'months'
p1910
tp1911
(lp1912
(I4
I4
I0
S'later'
p1913
tp1914
a(I73
I0
I0
S'few'
p1915
tp1916
a(I73
I1
F-0.25
S'past'
p1917
tp1918
a(I73
I1
F-0.875
S'harder'
p1919
tp1920
a(I81
I3
F0.125
S'first'
p1921
tp1922
a(I81
I3
F-0.5
S'sure'
p1923
tp1924
a(I98
I1
I0
S'few'
p1925
tp1926
a(I195
I1
F-0.125
g374
tp1927
a(I207
I0
F-0.875
S'harder'
p1928
tp1929
a(I240
I5
I0
S'few'
p1930
tp1931
a(I256
I0
F0.875
S'happy'
p1932
tp1933
as(S'flip'
p1934
tp1935
(lp1936
(I51
I5
F0.125
S'solid'
p1937
tp1938
a(I65
I0
F-0.75
S'comfortable'
p1939
tp1940
a(I118
I6
F0.625
S'magnetic'
p1941
tp1942
a(I156
I10
F0.375
S'reliable'
p1943
tp1944
a(I164
I1
F-0.75
S'difficult'
p1945
tp1946
a(I230
I24
F0.5
S'strong'
p1947
tp1948
a(I240
I11
F-0.375
S'robust'
p1949
tp1950
a(I240
I11
I0
S'most'
p1951
tp1952
a(I240
I11
F-0.625
S'other'
p1953
tp1954
a(I240
I11
I0
S'basic'
p1955
tp1956
a(I254
I2
F0.125
S'first'
p1957
tp1958
a(I254
I11
F-0.625
S'other'
p1959
tp1960
as(S'text'
p1961
tp1962
(lp1963
(I90
I1
I0
g1245
tp1964
a(I253
I20
I0
S'most'
p1965
tp1966
as(S'belt'
p1967
S'clip'
p1968
tp1969
(lp1970
(I59
I11
F-0.125
S'mine'
p1971
tp1972
a(I118
I4
I0
S'plastic'
p1973
tp1974
a(I118
I8
F1.0
S'best'
p1975
tp1976
a(I245
I21
F-0.5
S'sure'
p1977
tp1978
as(S'loud'
p1979
tp1980
(lp1981
(I66
I14
F0.625
S'easy'
p1982
tp1983
a(I123
I5
F0.5
S'clear'
p1984
tp1985
a(I147
I6
F0.5
S'clear'
p1986
tp1987
a(I254
I18
F0.5
S'clear'
p1988
tp1989
as(S'year'
p1990
tp1991
(lp1992
(I5
I1
I0
S'old'
p1993
tp1994
a(I109
I9
F-0.75
S'single'
p1995
tp1996
a(I230
I6
I0
S'old'
p1997
tp1998
as(S'charging'
p1999
tp2000
(lp2001
(I11
I3
I0
S'third'
p2002
tp2003
a(I98
I2
I0
S'most'
p2004
tp2005
a(I164
I2
F-0.875
S'awful'
p2006
tp2007
a(I170
I1
F0.75
S'constant'
p2008
tp2009
as(S'screen'
p2010
tp2011
(lp2012
(I12
I4
I0
S'entire'
p2013
tp2014
a(I12
I4
F0.5
S'true'
p2015
tp2016
a(I36
I46
F-0.25
S'white'
p2017
tp2018
a(I36
I47
F0.25
S'main'
p2019
tp2020
a(I66
I4
F-0.75
S'bright'
p2021
tp2022
a(I72
I9
F-0.5
S'sudden'
p2023
tp2024
a(I79
I5
I0
S'big'
p2025
tp2026
a(I93
I7
F-0.75
S'bright'
p2027
tp2028
a(I95
I1
F-0.25
S'white'
p2029
tp2030
a(I95
I2
F-0.5
S'open'
p2031
tp2032
a(I113
I6
I0
S'large'
p2033
tp2034
a(I150
I2
F-0.25
S'white'
p2035
tp2036
a(I153
I0
F-0.25
S'white'
p2037
tp2038
a(I161
I53
F-0.25
S'white'
p2039
tp2040
a(I161
I54
F0.25
S'main'
p2041
tp2042
a(I162
I0
I0
S'big'
p2043
tp2044
a(I172
I5
F-0.75
S'bright'
p2045
tp2046
a(I176
I2
F-0.25
S'white'
p2047
tp2048
a(I177
I10
F-0.25
S'white'
p2049
tp2050
a(I184
I7
I0
S'entire'
p2051
tp2052
a(I188
I10
I0
S'shutdown'
p2053
tp2054
a(I205
I12
F-0.875
S'hard'
p2055
tp2056
a(I211
I0
F-0.375
S'small'
p2057
tp2058
a(I229
I4
I0
S'great'
p2059
tp2060
a(I232
I18
I0
S'more'
p2061
tp2062
a(I248
I1
F0.75
S'beautiful'
p2063
tp2064
a(I254
I7
F-0.375
S'disable'
p2065
tp2066
a(I255
I0
F0.875
S'nice'
p2067
tp2068
a(I256
I7
F-0.75
S'unable'
p2069
tp2070
a(I258
I1
F-0.75
S'bright'
p2071
tp2072
a(I264
I21
F0.125
S'visible'
p2073
tp2074
as(S'camera'
p2075
tp2076
(lp2077
(I18
I3
F0.625
S'interested'
p2078
tp2079
a(I27
I4
F0.125
g746
tp2080
a(I44
I2
I0
S'along'
p2081
tp2082
a(I47
I8
F-0.625
S'other'
p2083
tp2084
a(I47
I8
I0
S'soft'
p2085
tp2086
a(I47
I8
F0.125
S'key'
p2087
tp2088
a(I56
I10
F0.875
S'nice'
p2089
tp2090
a(I75
I2
I0
S'integrated'
p2091
tp2092
a(I90
I1
F1.0
g751
tp2093
a(I97
I13
I0
S'cool'
p2094
tp2095
a(I108
I9
F1.0
S'better'
p2096
tp2097
a(I118
I14
F-0.375
S'grouch'
p2098
tp2099
a(I147
I7
F0.875
S'nice'
p2100
tp2101
a(I147
I7
F0.625
S'easy'
p2102
tp2103
a(I152
I7
F1.0
S'good'
p2104
tp2105
a(I159
I5
I0
g759
tp2106
a(I182
I5
F0.375
S'much'
p2107
tp2108
a(I194
I4
F0.625
S'easy'
p2109
tp2110
a(I195
I8
I0
S'great'
p2111
tp2112
a(I213
I7
F-0.75
S'wrong'
p2113
tp2114
a(I217
I5
F0.625
S'easy'
p2115
tp2116
a(I225
I3
F0.875
S'nice'
p2117
tp2118
a(I240
I10
F1.0
S'good'
p2119
tp2120
a(I248
I9
F-0.625
S'other'
p2121
tp2122
a(I249
I7
F0.125
S'first'
p2123
tp2124
a(I253
I1
I0
S'real'
p2125
tp2126
a(I254
I19
F0.125
g765
tp2127
a(I256
I1
I0
S'great'
p2128
tp2129
a(I258
I6
F-0.625
S'other'
p2130
tp2131
a(I264
I14
F-0.75
S'care'
p2132
tp2133
a(I264
I14
F0.375
S'much'
p2134
tp2135
as(S'using'
p2136
tp2137
(lp2138
(I171
I6
F0.875
S'happy'
p2139
tp2140
as(S'bluetooth'
p2141
tp2142
(lp2143
(I7
I28
F0.125
S'first'
p2144
tp2145
a(I30
I2
I0
S'cool'
p2146
tp2147
a(I32
I4
F0.125
S'key'
p2148
tp2149
a(I41
I8
I0
S'most'
p2150
tp2151
a(I52
I3
F0.125
S'flaky'
p2152
tp2153
a(I55
I6
I0
S'more'
p2154
tp2155
a(I76
I10
F0.875
S'nice'
p2156
tp2157
a(I93
I9
F-0.75
S'care'
p2158
tp2159
a(I114
I11
I0
S'next'
p2160
tp2161
a(I155
I15
F0.125
S'first'
p2162
tp2163
a(I183
I4
I0
S'activate'
p2164
tp2165
a(I191
I2
F-0.625
S'other'
p2166
tp2167
a(I248
I4
F0.625
S'easy'
p2168
tp2169
a(I248
I6
F-0.5
S'sure'
p2170
tp2171
as(S'ring'
p2172
tp2173
(lp2174
(I1
I6
F0.125
S'first'
p2175
tp2176
a(I21
I3
F1.0
S'good'
p2177
tp2178
a(I90
I1
F1.0
S'better'
p2179
tp2180
a(I90
I1
F-0.5
S'longer'
p2181
tp2182
a(I146
I5
F0.375
S'polyphonic'
p2183
tp2184
a(I172
I3
I0
S'different'
p2185
tp2186
a(I194
I1
I0
S'current'
p2187
tp2188
a(I220
I8
I0
S'different'
p2189
tp2190
as(g915
S'full'
p2191
S'charge'
p2192
tp2193
(lp2194
(I8
I1
I0
g446
tp2195
a(I62
I11
I0
g450
tp2196
a(I82
I1
I0
g452
tp2197
a(I124
I4
I0
g462
tp2198
a(I156
I1
F-0.75
g466
tp2199
a(I156
I1
I0
g468
tp2200
a(I182
I3
I0
g472
tp2201
a(I182
I3
F-0.75
g474
tp2202
a(I234
I10
I0
g476
tp2203
a(I234
I10
I0
g478
tp2204
a(I249
I1
F0.125
g480
tp2205
as(S'pictures'
p2206
tp2207
(lp2208
(I7
I8
I0
g725
tp2209
a(I47
I9
F1.0
S'good'
p2210
tp2211
a(I49
I1
F1.0
g727
tp2212
a(I55
I4
I0
g729
tp2213
a(I60
I7
F1.0
S'good'
p2214
tp2215
a(I60
I8
F1.0
g731
tp2216
a(I73
I3
F1.0
S'good'
p2217
tp2218
a(I73
I3
F-0.25
S'past'
p2219
tp2220
a(I94
I0
F-0.625
S'clean'
p2221
tp2222
a(I114
I8
I0
g735
tp2223
a(I232
I5
F1.0
S'best'
p2224
tp2225
a(I248
I2
I0
S'large'
p2226
tp2227
a(I248
I2
F-0.75
S'bright'
p2228
tp2229
a(I248
I2
F1.0
S'good'
p2230
tp2231
a(I248
I4
F-0.375
S'small'
p2232
tp2233
a(I253
I5
F-0.75
g737
tp2234
a(I253
I5
F-0.5
g739
tp2235
a(I260
I2
I0
S'great'
p2236
tp2237
a(I260
I3
F0.375
S'similar'
p2238
tp2239
a(I260
I3
F1.0
S'good'
p2240
tp2241
a(I264
I13
F-0.625
S'want'
p2242
tp2243
as(S'more'
p2244
S'dropped'
p2245
S'calls'
p2246
tp2247
(lp2248
(I1
I8
I0
g1174
tp2249
a(I97
I22
F-0.25
g1200
tp2250
a(I226
I7
I0
g1222
tp2251
a(I251
I2
I0
g1226
tp2252
as(S'sony'
p2253
S'ericsson'
p2254
S't610'
p2255
tp2256
(lp2257
(I231
I0
F0.125
g911
tp2258
as(S'people'
p2259
tp2260
(lp2261
(I10
I1
I0
S'many'
p2262
tp2263
a(I10
I2
F-0.5
S'sure'
p2264
tp2265
a(I12
I0
I0
S'own'
p2266
tp2267
a(I60
I0
F-0.875
S'negative'
p2268
tp2269
a(I64
I7
F-0.625
S'other'
p2270
tp2271
a(I73
I1
F-0.875
S'harder'
p2272
tp2273
a(I74
I3
I0
S'hear'
p2274
tp2275
a(I79
I40
F0.5
S'technical'
p2276
tp2277
a(I98
I6
I0
S'least'
p2278
tp2279
a(I107
I7
F-0.625
S'other'
p2280
tp2281
a(I117
I11
F-0.625
S'bad'
p2282
tp2283
a(I117
I23
F0.625
S'easy'
p2284
tp2285
a(I119
I20
I0
S'many'
p2286
tp2287
a(I128
I6
F0.125
S'able'
p2288
tp2289
a(I145
I3
F-0.625
S'other'
p2290
tp2291
a(I156
I0
I0
S'most'
p2292
tp2293
a(I156
I9
I0
S'most'
p2294
tp2295
a(I163
I2
F-0.25
S'hang'
p2296
tp2297
a(I194
I6
I0
S'same'
p2298
tp2299
a(I194
I12
I0
S'most'
p2300
tp2301
a(I204
I7
I0
S'many'
p2302
tp2303
a(I204
I7
F-0.625
S'other'
p2304
tp2305
a(I242
I3
F0.875
S'important'
p2306
tp2307
a(I253
I25
I0
S'most'
p2308
tp2309
a(I253
I25
F-0.75
S'likely'
p2310
tp2311
a(I254
I1
I0
S'most'
p2312
tp2313
a(I261
I0
F-0.625
S'other'
p2314
tp2315
a(I264
I3
F-0.625
S'bad'
p2316
tp2317
a(I264
I12
I0
S'most'
p2318
tp2319
as(S'loose'
p2320
S'contact'
p2321
tp2322
(lp2323
(I128
I10
I0
S'many'
p2324
tp2325
as(S'of'
p2326
S'talk'
p2327
S'time'
p2328
tp2329
(lp2330
(I9
I0
I0
g514
tp2331
a(I9
I0
F-0.5
g516
tp2332
as(S'works'
p2333
tp2334
(lp2335
(I6
I1
I0
S'great'
p2336
tp2337
a(I43
I4
I0
S'great'
p2338
tp2339
a(I46
I15
I0
S'great'
p2340
tp2341
a(I130
I16
I0
S'great'
p2342
tp2343
a(I219
I1
I0
S'great'
p2344
tp2345
a(I227
I2
I0
S'great'
p2346
tp2347
a(I261
I4
I0
S'great'
p2348
tp2349
as(S'candy'
p2350
S'bar'
p2351
tp2352
(lp2353
(I123
I0
I0
S'old'
p2354
tp2355
as(S'better'
p2356
tp2357
(lp2358
(I11
I0
F0.375
S'much'
p2359
tp2360
a(I38
I1
F0.375
S'much'
p2361
tp2362
a(I91
I6
F0.375
S'much'
p2363
tp2364
a(I148
I1
F0.375
S'much'
p2365
tp2366
as(S'of'
p2367
S'dropped'
p2368
S'calls'
p2369
tp2370
(lp2371
(I58
I12
F-0.25
g1182
tp2372
a(I78
I4
I0
g1188
tp2373
a(I79
I38
I0
g1190
tp2374
a(I79
I38
F-0.25
g1192
tp2375
a(I79
I38
F-0.25
g1194
tp2376
a(I92
I3
F0.5
g1198
tp2377
a(I97
I22
F-0.25
g1200
tp2378
a(I97
I23
F-0.25
g1202
tp2379
a(I97
I23
F0.75
g1204
tp2380
a(I129
I6
F-0.25
g1208
tp2381
a(I179
I0
I0
g1212
tp2382
a(I180
I1
F-0.25
g1214
tp2383
a(I187
I4
I0
g1216
tp2384
a(I195
I1
F-0.25
g1218
tp2385
a(I226
I2
F-0.25
g1220
tp2386
a(I251
I2
I0
g1226
tp2387
a(I257
I3
F-0.25
g1228
tp2388
as(S'call'
p2389
tp2390
(lp2391
(I12
I4
I0
S'pic'
p2392
tp2393
a(I12
I4
F0.125
S'first'
p2394
tp2395
a(I137
I0
F0.125
S'able'
p2396
tp2397
a(I194
I12
F-0.375
S'static'
p2398
tp2399
a(I220
I14
F0.875
S'important'
p2400
tp2401
a(I232
I16
F0.125
S'able'
p2402
tp2403
a(I239
I2
F1.0
S'good'
p2404
tp2405
a(I240
I19
I0
S'high'
p2406
tp2407
as(S'charger'
p2408
tp2409
(lp2410
(I92
I4
F0.625
S'square'
p2411
tp2412
a(I148
I4
F-0.75
S'stupid'
p2413
tp2414
a(I168
I4
F0.375
S'new'
p2415
tp2416
a(I206
I3
F-0.25
S'nightmare'
p2417
tp2418
a(I206
I4
F-0.625
S'bad'
p2419
tp2420
a(I224
I8
F-0.875
S'worst'
p2421
tp2422
a(I240
I5
F1.0
S'good'
p2423
tp2424
a(I264
I20
F-0.5
S'sure'
p2425
tp2426
as(g915
S'bluetooth'
p2427
S'headset'
p2428
tp2429
(lp2430
(I7
I14
I0
S'forth'
p2431
tp2432
a(I245
I6
F-0.75
S'minor'
p2433
tp2434
as(S'days'
p2435
tp2436
(lp2437
(I10
I3
I0
S'few'
p2438
tp2439
a(I16
I6
I0
S'later'
p2440
tp2441
a(I20
I2
I0
S'more'
p2442
tp2443
a(I29
I2
I0
S'rebate'
p2444
tp2445
a(I46
I8
F0.125
S'first'
p2446
tp2447
a(I46
I8
I0
S'few'
p2448
tp2449
a(I66
I20
F1.0
S'best'
p2450
tp2451
a(I89
I16
F0.375
S'busy'
p2452
tp2453
a(I89
I16
F-0.5
S'long'
p2454
tp2455
a(I105
I5
I0
S'later'
p2456
tp2457
a(I118
I5
F0.125
S'first'
p2458
tp2459
a(I130
I11
F0.125
S'first'
p2460
tp2461
a(I130
I11
I0
S'few'
p2462
tp2463
a(I147
I2
F0.125
S'last'
p2464
tp2465
a(I256
I4
I0
S'few'
p2466
tp2467
a(I263
I8
I0
S'few'
p2468
tp2469
as.