(dp0
(S'battery'
p1
S'life'
p2
tp3
(lp4
(I1
I9
I0
S'great'
p5
I1
tp6
a(I2
I16
I0
S'adequate'
p7
I1
tp8
a(I2
I23
F1.0
S'good'
p9
I1
tp10
a(I2
I49
F1.0
S'good'
p11
I1
tp12
a(I2
I122
F-0.75
S'short'
p13
I1
tp14
a(I1
I9
I0
g5
I19
tp15
a(I2
I16
I0
g7
I19
tp16
a(I2
I23
F1.0
g9
I19
tp17
a(I1
I32
F0.625
S'kind'
p18
I15
tp19
a(I1
I147
I0
S'full'
p20
I15
tp21
a(I1
I147
I0
S'charged'
p22
I15
tp23
a(I2
I49
F1.0
g11
I15
tp24
a(I2
I122
F-0.75
g13
I15
tp25
a(I3
I1
F1.0
S'good'
p26
I15
tp27
as(S'keyboard'
p28
tp29
(lp30
(I0
I12
I0
S'normal'
p31
I2
tp32
a(I0
I75
F1.0
S'better'
p33
I2
tp34
a(I0
I75
I0
S'useful'
p35
I2
tp36
a(I2
I21
I0
S'third'
p37
I2
tp38
a(I2
I162
F0.375
S'much'
p39
I2
tp40
a(I2
I183
I0
S'many'
p41
I2
tp42
a(I3
I76
I0
S'full'
p43
I2
tp44
as(S'email'
p45
tp46
(lp47
(I1
I65
I-100
S're-assigned'
p48
I5
tp49
a(I1
I65
I-100
S'1-press'
p50
I5
tp51
a(I1
I65
F0.125
S'key'
p52
I5
tp53
as(S'call'
p54
S'quality'
p55
tp56
(lp57
(I1
I72
F1.0
S'good'
p58
I0
tp59
a(I1
I82
I0
S'great'
p60
I0
tp61
a(I1
I103
F1.0
S'good'
p62
I0
tp63
a(I2
I5
I0
S'great'
p64
I0
tp65
as(S'camera'
p66
tp67
(lp68
(I0
I49
F1.0
S'good'
p69
I1
tp70
a(I2
I17
I0
S'internal'
p71
I1
tp72
a(I2
I17
F-0.5
S'poor'
p73
I1
tp74
a(I2
I136
I0
S'fourth'
p75
I1
tp76
as(S'bluetooth'
p77
tp78
(lp79
(I2
I5
F1.0
S'good'
p80
I3
tp81
as(S'internet'
p82
tp83
(lp84
(I2
I66
F0.375
S'reliable'
p85
I6
tp86
a(I2
I66
I0
S'efficient'
p87
I6
tp88
as(S'usb'
p89
S'cable'
p90
tp91
(lp92
(I0
I13
F0.625
S'necessary'
p93
I2
tp94
a(I0
I13
I0
S'cable'
p95
I2
tp96
a(I3
I71
I0
S'cable'
p97
I2
tp98
as(S'business'
p99
tp100
(lp101
(I3
I80
F0.875
S'important'
p102
I9
tp103
as(S'applications'
p104
tp105
(lp106
(I1
I187
F-0.625
S'other'
p107
I3
tp108
a(I2
I15
F0.375
S'available'
p109
I3
tp110
a(I2
I58
F-0.625
S'other'
p111
I3
tp112
as(S'speaker'
p113
tp114
(lp115
(I1
I108
I0
S'rear'
p116
I8
tp117
as(S'voice'
p118
tp119
(lp120
(I0
I67
F1.0
S'good'
p121
I4
tp122
a(I2
I34
F0.5
S'clear'
p123
I4
tp124
as(S'buttons'
p125
tp126
(lp127
(I1
I35
F-0.375
S'top'
p128
I13
tp129
a(I1
I171
F-0.75
S'little'
p130
I13
tp131
a(I2
I113
I0
S'special'
p132
I13
tp133
as(S'nokia'
p134
tp135
(lp136
(I0
I3
I0
S'old'
p137
I0
tp138
a(I1
I36
F0.625
S'easy'
p139
I0
tp140
a(I1
I37
F-0.375
S'dust'
p141
I0
tp142
a(I1
I135
F-0.625
S'other'
p143
I0
tp144
a(I1
I161
F-0.5
S'sure'
p145
I0
tp146
a(I2
I37
F0.375
S'new'
p147
I0
tp148
a(I2
I156
F0.5
S'advanced'
p149
I0
tp150
a(I3
I14
F0.5
S'slick'
p151
I0
tp152
a(I3
I14
F0.5
S'functional'
p153
I0
tp154
a(I3
I77
F0.875
S'happy'
p155
I0
tp156
a(I3
I90
F0.125
S'first'
p157
I0
tp158
as(S'calls'
p159
tp160
(lp161
(I1
I93
I0
S'few'
p162
I0
tp163
a(I2
I73
F-0.125
S'opposite'
p164
I0
tp165
as(S'contacts'
p166
tp167
(lp168
(I2
I113
I0
S'useful'
p169
I0
tp170
as(S'music'
p171
tp172
(lp173
(I2
I5
F1.0
S'good'
p174
I0
tp175
a(I2
I71
F0.375
S'new'
p176
I0
tp177
a(I3
I29
F0.5
S'clear'
p178
I0
tp179
as(S'volume'
p180
tp181
(lp182
(I1
I117
F0.375
S'loud'
p183
I6
tp184
a(I2
I75
F-0.25
S'highest'
p185
I6
tp186
a(I2
I75
F-0.25
S'low'
p187
I6
tp188
a(I3
I70
F-0.25
S'low'
p189
I6
tp190
as(S'wifi'
p191
tp192
(lp193
(I1
I113
F0.125
S'capable'
p194
I0
tp195
a(I2
I5
F0.5
S'functional'
p196
I0
tp197
a(I2
I113
F1.0
S'good'
p198
I0
tp199
a(I3
I6
F0.75
S'worth'
p200
I0
tp201
a(I3
I21
I0
S'great'
p202
I0
tp203
a(I3
I78
I0
S'internet'
p204
I0
tp205
as(S'amazon'
p206
tp207
(lp208
(I0
I81
I-100
S'100usd'
p209
I13
tp210
a(I3
I91
F0.375
S'new'
p211
I13
tp212
as.