(dp0
(S'every'
p1
S'time'
p2
tp3
(lp4
(I3
I48
F0.5
S'second'
p5
I14
tp6
a(I3
I48
I0
S'third'
p7
I14
tp8
a(I3
I109
F-0.5
S'long'
p9
I14
tp10
a(I10
I35
I0
S'next'
p11
I14
tp12
as(S'mobile'
p13
tp14
(lp15
(I4
I263
F0.875
S'attractive'
p16
I0
tp17
a(I4
I409
F-0.625
S'bad'
p18
I0
tp19
as(S'keyboard'
p20
tp21
(lp22
(I1
I66
F-0.625
S'bad'
p23
I2
tp24
a(I1
I66
F-0.625
S'bad'
p25
I2
tp26
a(I1
I85
F0.375
S'much'
p27
I2
tp28
a(I4
I421
F0.75
S'worth'
p29
I2
tp30
a(I4
I609
I0
S'great'
p31
I2
tp32
a(I8
I1
F0.625
S'easiest'
p33
I2
tp34
a(I8
I399
F0.625
S'easy'
p35
I2
tp36
a(I9
I2
I0
S'mobile'
p37
I2
tp38
a(I10
I16
I0
S'full'
p39
I2
tp40
as(S'email'
p41
tp42
(lp43
(I1
I122
F0.25
S'desired'
p44
I5
tp45
a(I4
I247
F-0.5
S'longer'
p46
I5
tp47
a(I4
I334
F0.5
S'true'
p48
I5
tp49
a(I4
I442
F0.125
S'able'
p50
I5
tp51
a(I4
I498
F0.125
S'able'
p52
I5
tp53
a(I8
I101
I0
S'corporate'
p54
I5
tp55
a(I8
I103
F0.875
S'important'
p56
I5
tp57
a(I8
I119
F-0.5
S'sure'
p58
I5
tp59
a(I9
I72
I0
S'specific'
p60
I5
tp61
as(S'keys'
p62
tp63
(lp64
(I1
I85
F0.25
S'bigger'
p65
I9
tp66
a(I1
I88
F-0.375
S'small'
p67
I9
tp68
a(I1
I92
F-0.875
S'harder'
p69
I9
tp70
a(I3
I114
F-0.875
S'harder'
p71
I9
tp72
a(I3
I114
F-0.875
S'harder'
p73
I9
tp74
a(I3
I127
I0
S'soft'
p75
I9
tp76
a(I3
I228
F-0.5
S'less'
p77
I9
tp78
a(I3
I228
F0.625
S'easy'
p79
I9
tp80
a(I4
I596
F-0.75
S'little'
p81
I9
tp82
as(S'motorola'
p83
tp84
(lp85
(I3
I69
F0.375
S'new'
p86
I0
tp87
a(I3
I208
F0.125
S'first'
p88
I0
tp89
a(I3
I208
F0.125
S'last'
p90
I0
tp91
a(I4
I356
I0
S'latest'
p92
I0
tp93
a(I4
I552
I0
S'such'
p94
I0
tp95
a(I5
I50
F0.25
S'recent'
p96
I0
tp97
a(I5
I50
I0
S'updated'
p98
I0
tp99
a(I8
I22
F0.875
S'nice'
p100
I0
tp101
as(S'tech'
p102
S'support'
p103
tp104
(lp105
(I1
I119
F0.5
S'technical'
p106
I1
tp107
a(I3
I50
I0
S'tech'
p108
I1
tp109
a(I4
I419
F0.125
S'able'
p110
I1
tp111
a(I4
I470
I0
S'tech'
p112
I1
tp113
a(I4
I549
I0
S'tech'
p114
I1
tp115
a(I8
I348
I0
S'tech'
p116
I1
tp117
a(I8
I353
I0
S'tech'
p118
I1
tp119
as(S'service'
p120
tp121
(lp122
(I3
I50
I0
S'more'
p123
I16
tp124
a(I3
I84
F1.0
S'best'
p125
I16
tp126
a(I4
I567
I0
S'great'
p127
I16
tp128
as(S'programs'
p129
tp130
(lp131
(I3
I170
F1.0
S'good'
p132
I2
tp133
a(I4
I404
I0
S'more'
p134
I2
tp135
a(I4
I532
F0.5
S'second'
p136
I2
tp137
a(I4
I624
F0.75
S'give'
p138
I2
tp139
a(I9
I62
I0
S'few'
p140
I2
tp141
as(S'camera'
p142
tp143
(lp144
(I4
I185
I0
S'basic'
p145
I1
tp146
a(I4
I411
F1.0
S'good'
p147
I1
tp148
a(I9
I29
F0.125
S'key'
p149
I1
tp150
a(I9
I43
I0
S'great'
p151
I1
tp152
a(I10
I13
I0
S'many'
p153
I1
tp154
as(S'bluetooth'
p155
tp156
(lp157
(I0
I42
I0
S'song'
p158
I3
tp159
a(I4
I231
F-0.75
S'worse'
p160
I3
tp161
a(I8
I51
F1.0
S'enjoy'
p162
I3
tp163
as(S'a'
p164
S'touch'
p165
S'screen'
p166
tp167
(lp168
(I3
I69
F0.5
S'touch'
p169
I0
tp170
a(I3
I110
I0
S'more'
p171
I0
tp172
a(I3
I110
F0.5
S'touch'
p173
I0
tp174
a(I3
I111
F0.5
S'touch'
p175
I0
tp176
a(I4
I68
F0.5
S'touch'
p177
I0
tp178
a(I4
I243
F0.5
S'touch'
p179
I0
tp180
a(I4
I371
F0.5
S'touch'
p181
I0
tp182
a(I4
I448
F0.5
S'touch'
p183
I0
tp184
a(I10
I21
F0.5
S'touch'
p185
I0
tp186
a(I3
I69
F0.5
g169
I2
tp187
a(I3
I110
I0
g171
I2
tp188
a(I3
I110
F0.5
g173
I2
tp189
a(I3
I111
F0.5
g175
I2
tp190
a(I4
I68
F0.5
g177
I2
tp191
a(I4
I243
F0.5
g179
I2
tp192
a(I4
I371
F0.5
g181
I2
tp193
a(I4
I448
F0.5
g183
I2
tp194
a(I10
I21
F0.5
g185
I2
tp195
as(S'blue'
p196
S'tooth'
p197
tp198
(lp199
(I3
I79
I0
S'blue'
p200
I0
tp201
a(I3
I79
F0.5
S'compatible'
p202
I0
tp203
a(I3
I79
I0
S'blue'
p204
I0
tp205
as(S'internet'
p206
tp207
(lp208
(I1
I38
I0
S'mobile'
p209
I6
tp210
a(I3
I271
I0
S'fast'
p211
I6
tp212
a(I3
I271
I0
S'automatic'
p213
I6
tp214
a(I4
I84
F-0.625
S'average'
p215
I6
tp216
a(I8
I121
F0.625
S'straight'
p217
I6
tp218
a(I8
I283
F-0.125
S'slow'
p219
I6
tp220
as(S'i.'
p221
S'e.'
p222
tp223
(lp224
(I4
I314
F0.125
S'above'
p225
I0
tp226
a(I4
I536
I0
S'nit'
p227
I0
tp228
as(S'button'
p229
tp230
(lp231
(I4
I113
I-100
S"'off"
p232
I19
tp233
a(I9
I25
F-0.625
S'other'
p234
I19
tp235
as(S'third'
p236
S'party'
p237
tp238
(lp239
(I1
I41
I0
S'third'
p240
I0
tp241
a(I4
I156
I0
S'third'
p242
I0
tp243
a(I4
I158
I0
S'third'
p244
I0
tp245
a(I4
I336
I0
S'third'
p246
I0
tp247
a(I8
I131
I0
S'third'
p248
I0
tp249
as(S'data'
p250
S'package'
p251
tp252
(lp253
(I4
I193
F0.5
S'expensive'
p254
I0
tp255
a(I4
I428
I0
S'monthly'
p256
I0
tp257
a(I3
I78
I0
S'own'
p258
I13
tp259
a(I4
I1
F-0.375
S'top'
p260
I13
tp261
a(I4
I428
I0
g256
I13
tp262
a(I8
I346
F0.75
S'receive'
p263
I13
tp264
as(S'wireless'
p265
S'sync'
p266
tp267
(lp268
(I3
I54
F-0.75
S'worse'
p269
I0
tp270
a(I1
I134
I0
S'active'
p271
I0
tp272
a(I3
I16
I0
S'active'
p273
I0
tp274
a(I3
I54
F-0.75
g269
I0
tp275
a(I4
I20
F1.0
S'good'
p276
I0
tp277
a(I4
I520
I0
S'active'
p278
I0
tp279
a(I7
I38
I0
S'active'
p280
I0
tp281
a(I8
I116
F0.125
S'first'
p282
I0
tp283
a(I9
I6
I0
S'active'
p284
I0
tp285
as(S'palm'
p286
tp287
(lp288
(I3
I145
I0
S'wish'
p289
I1
tp290
a(I3
I145
F-0.875
S'stuck'
p291
I1
tp292
a(I4
I202
F1.0
S'better'
p293
I1
tp294
a(I4
I263
F0.25
S'familiar'
p295
I1
tp296
a(I4
I493
F0.375
S'much'
p297
I1
tp298
as(S'operating'
p299
S'system'
p300
tp301
(lp302
(I4
I86
F0.556
S'delicate'
p303
I2
tp304
a(I8
I331
F-0.375
S'unstable'
p305
I2
tp306
a(I9
I58
F-0.5
S'open'
p307
I2
tp308
as(S'voice'
p309
tp310
(lp311
(I3
I91
F0.5
S'advanced'
p312
I4
tp313
a(I4
I333
I0
S'limited'
p314
I4
tp315
a(I4
I561
F-0.5
S'poor'
p316
I4
tp317
a(I7
I32
F0.625
S'superior'
p318
I4
tp319
as(S'bottom'
p320
S'line'
p321
tp322
(lp323
(I4
I23
I-100
S'-test'
p324
I0
tp325
as(S'e'
p326
S'mail'
p327
tp328
(lp329
(I4
I338
F-0.375
S'unstable'
p330
I2
tp331
a(I4
I338
F-0.375
g330
I13
tp332
as(S'treo'
p333
tp334
(lp335
(I3
I39
F0.625
S'easier'
p336
I0
tp337
a(I3
I41
F0.375
S'new'
p338
I0
tp339
a(I3
I75
I0
S'many'
p340
I0
tp341
a(I4
I338
I0
S'current'
p342
I0
tp343
a(I4
I339
F0.125
S'first'
p344
I0
tp345
a(I7
I27
F-0.125
S'former'
p346
I0
tp347
as(S'signal'
p348
S'strength'
p349
tp350
(lp351
(I4
I560
F-0.5
S'poor'
p352
I0
tp353
a(I4
I560
I0
S'signal'
p354
I0
tp355
a(I8
I49
F1.0
S'good'
p356
I0
tp357
a(I8
I50
I0
S'full'
p358
I0
tp359
as(S'sd'
p360
S'card'
p361
tp362
(lp363
(I4
I351
I0
S'great'
p364
I0
tp365
as(S'windows'
p366
S'media'
p367
S'player'
p368
tp369
(lp370
(I4
I570
I0
S'great'
p371
I0
tp372
a(I4
I570
I0
g371
I0
tp373
a(I4
I97
I0
S'mobile'
p374
I0
tp375
a(I4
I173
F-0.625
S'other'
p376
I0
tp377
a(I4
I615
F0.25
S'favorite'
p378
I0
tp379
a(I8
I184
F0.125
S'typical'
p380
I0
tp381
a(I9
I39
F-0.5
S'sure'
p382
I0
tp383
a(I9
I39
I0
S'many'
p384
I0
tp385
a(I4
I570
I0
g371
I6
tp386
as(S'blackberry'
p387
tp388
(lp389
(I1
I89
F-0.375
S'small'
p390
I1
tp391
a(I3
I228
F0.5
S'flat'
p392
I1
tp393
a(I5
I46
I0
S'quick'
p394
I1
tp395
as(S'calls'
p396
tp397
(lp398
(I3
I243
I0
S'many'
p399
I0
tp400
a(I4
I95
F0.125
S'last'
p401
I0
tp402
a(I4
I209
F-0.5
S'miss'
p403
I0
tp404
a(I4
I420
I0
S'many'
p405
I0
tp406
a(I5
I16
I0
S'few'
p407
I0
tp408
a(I8
I170
I0
S'few'
p409
I0
tp410
a(I8
I346
F0.75
S'receive'
p411
I0
tp412
a(I9
I21
F-0.625
S'free'
p413
I0
tp414
as(S'much'
p415
S'better'
p416
tp417
(lp418
(I3
I270
F0.375
S'much'
p419
I9
tp420
a(I4
I293
F0.375
S'much'
p421
I9
tp422
a(I4
I517
F0.375
S'much'
p423
I9
tp424
a(I4
I606
F0.375
S'much'
p425
I9
tp426
as(S'smartphone'
p427
tp428
(lp429
(I3
I251
I0
S'most'
p430
I0
tp431
a(I3
I251
I0
S'stable'
p432
I0
tp433
a(I4
I73
F0.125
S'first'
p434
I0
tp435
a(I4
I290
I0
S'identical'
p436
I0
tp437
a(I8
I12
F0.625
S'perfect'
p438
I0
tp439
a(I8
I225
F-0.25
S'thin'
p440
I0
tp441
as(S'car'
p442
S'charger'
p443
tp444
(lp445
(I4
I381
F-0.25
S'low'
p446
I0
tp447
as(S'verizon'
p448
S'store'
p449
tp450
(lp451
(I3
I256
I0
S'corporate'
p452
I0
tp453
a(I8
I79
I0
S'local'
p454
I0
tp455
a(I8
I144
F-0.5
S'sure'
p456
I0
tp457
a(I0
I17
F0.25
S'original'
p458
I0
tp459
a(I1
I122
I0
S'external'
p460
I0
tp461
a(I4
I4
F0.625
S'aware'
p462
I0
tp463
a(I4
I53
F0.5
S'expensive'
p464
I0
tp465
a(I4
I560
I0
S'old'
p466
I0
tp467
a(I8
I79
I0
g454
I0
tp468
a(I8
I144
F-0.5
g456
I0
tp469
a(I8
I156
I0
S'slower'
p470
I0
tp471
a(I8
I171
F0.5
S'expensive'
p472
I0
tp473
a(I8
I395
I0
S'older'
p474
I0
tp475
a(I9
I20
F0.5
S'clear'
p476
I0
tp477
as(S'gmail'
p478
tp479
(lp480
(I8
I28
F0.5
S'compatible'
p481
I0
tp482
a(I8
I121
I0
S'website'
p483
I0
tp484
a(I9
I10
F0.375
S'remember'
p485
I0
tp486
as(S'3rd'
p487
S'party'
p488
tp489
(lp490
(I0
I41
I0
S'great'
p491
I0
tp492
as(S'pocket'
p493
tp494
(lp495
(I4
I635
F0.375
S'much'
p496
I17
tp497
as(S'form'
p498
S'factor'
p499
tp500
(lp501
(I4
I263
F0.875
S'attractive'
p502
I1
tp503
a(I4
I332
I0
S'great'
p504
I1
tp505
as(S'amount'
p506
S'of'
p507
S'time'
p508
tp509
(lp510
(I4
I95
I0
S'considerable'
p511
I3
tp512
a(I4
I403
F-0.5
S'certain'
p513
I3
tp514
a(I4
I454
I0
S'same'
p515
I3
tp516
as(S'extended'
p517
S'life'
p518
S'battery'
p519
tp520
(lp521
(I0
I14
F0.375
S'extended'
p522
I0
tp523
a(I1
I35
F0.375
S'extended'
p524
I0
tp525
a(I3
I6
F0.375
S'extended'
p526
I0
tp527
a(I4
I410
F0.375
S'extended'
p528
I0
tp529
a(I4
I427
F0.375
S'extended'
p530
I0
tp531
a(I8
I5
F0.375
S'extended'
p532
I0
tp533
a(I8
I145
F0.375
S'extended'
p534
I0
tp535
a(I0
I14
F0.375
g522
I0
tp536
a(I0
I15
F0.375
S'extended'
p537
I0
tp538
a(I1
I62
F-0.5
S'regular'
p539
I0
tp540
a(I1
I62
F-0.5
S'less'
p541
I0
tp542
a(I3
I92
F0.375
S'extended'
p543
I0
tp544
a(I3
I138
F0.375
S'extended'
p545
I0
tp546
a(I3
I256
I0
S'standard'
p547
I0
tp548
a(I3
I256
F0.375
S'extended'
p549
I0
tp550
a(I3
I260
F0.375
S'extended'
p551
I0
tp552
a(I4
I245
I0
S'standard'
p553
I0
tp554
a(I4
I245
F0.375
S'extended'
p555
I0
tp556
a(I4
I312
F0.125
S'first'
p557
I0
tp558
a(I4
I312
F0.375
S'extended'
p559
I0
tp560
a(I4
I410
F0.375
g528
I0
tp561
a(I4
I427
F0.375
g530
I0
tp562
a(I4
I434
F0.375
S'extended'
p563
I0
tp564
a(I4
I529
F0.375
S'extended'
p565
I0
tp566
a(I4
I580
F0.375
S'extended'
p567
I0
tp568
a(I4
I627
F0.375
S'extended'
p569
I0
tp570
a(I4
I629
F0.375
S'extended'
p571
I0
tp572
a(I5
I32
F0.375
S'extended'
p573
I0
tp574
a(I7
I41
F0.375
S'extended'
p575
I0
tp576
a(I8
I89
F0.375
S'extended'
p577
I0
tp578
a(I8
I195
F0.375
S'extended'
p579
I0
tp580
a(I9
I56
F0.375
S'extended'
p581
I0
tp582
a(I0
I12
I0
S'only'
p583
I1
tp584
a(I0
I12
F-0.5
S'poor'
p585
I1
tp586
a(I0
I14
F0.375
g522
I1
tp587
a(I1
I31
I0
S'many'
p588
I1
tp589
a(I1
I32
F0.625
S'fair'
p590
I1
tp591
a(I1
I35
F0.375
g524
I1
tp592
a(I3
I5
F-0.625
S'bad'
p593
I1
tp594
a(I3
I6
F0.375
g526
I1
tp595
a(I4
I6
F1.0
S'good'
p596
I1
tp597
a(I4
I86
F-0.25
S'low'
p598
I1
tp599
a(I4
I207
F-0.625
S'bad'
p600
I1
tp601
a(I4
I353
F0.75
S'due'
p602
I1
tp603
a(I4
I379
F1.0
S'good'
p604
I1
tp605
a(I4
I379
I0
S'standard'
p606
I1
tp607
a(I4
I410
F0.375
g528
I1
tp608
a(I4
I427
F0.375
g530
I1
tp609
a(I4
I562
F1.0
S'good'
p610
I1
tp611
a(I5
I6
F-0.625
S'bad'
p612
I1
tp613
a(I5
I34
F-0.125
S'mine'
p614
I1
tp615
a(I6
I1
F0.75
S'due'
p616
I1
tp617
a(I7
I16
F-0.5
S'complaint'
p618
I1
tp619
a(I8
I5
F0.375
g532
I1
tp620
a(I8
I82
F0.5
S'true'
p621
I1
tp622
a(I8
I82
F-0.75
S'short'
p623
I1
tp624
a(I8
I145
F0.375
g534
I1
tp625
a(I8
I197
I0
S'great'
p626
I1
tp627
a(I8
I323
F0.625
S'acceptable'
p628
I1
tp629
a(I1
I32
F0.625
g590
I19
tp630
a(I1
I35
F0.375
g524
I19
tp631
a(I3
I5
F-0.625
g593
I19
tp632
a(I3
I6
F0.375
g526
I19
tp633
a(I4
I6
F1.0
g596
I19
tp634
a(I4
I207
F-0.625
g600
I19
tp635
a(I4
I234
I0
S'great'
p636
I19
tp637
a(I4
I379
F1.0
g604
I19
tp638
a(I4
I562
F1.0
g610
I19
tp639
a(I8
I5
F0.375
g532
I19
tp640
a(I8
I82
F-0.75
g623
I19
tp641
a(I8
I145
F0.375
g534
I19
tp642
a(I0
I12
I0
g583
I15
tp643
a(I0
I12
F-0.5
g585
I15
tp644
a(I0
I14
F0.375
g522
I15
tp645
a(I0
I15
F0.375
g537
I15
tp646
a(I1
I31
I0
g588
I15
tp647
a(I1
I62
F-0.5
g539
I15
tp648
a(I1
I62
F-0.5
g541
I15
tp649
a(I2
I3
F0.25
S'larger'
p650
I15
tp651
a(I3
I26
F0.125
S'last'
p652
I15
tp653
a(I3
I49
F-0.75
S'stupid'
p654
I15
tp655
a(I3
I92
F0.375
g543
I15
tp656
a(I3
I138
F0.375
g545
I15
tp657
a(I3
I220
F-0.625
S'bad'
p658
I15
tp659
a(I3
I240
F-0.75
S'dead'
p660
I15
tp661
a(I3
I256
I0
g547
I15
tp662
a(I3
I256
F0.375
g549
I15
tp663
a(I3
I260
F0.375
g551
I15
tp664
a(I4
I24
I0
S'charged'
p665
I15
tp666
a(I4
I29
F0.75
S'due'
p667
I15
tp668
a(I4
I86
F-0.25
g598
I15
tp669
a(I4
I245
I0
g553
I15
tp670
a(I4
I245
F0.375
g555
I15
tp671
a(I4
I312
F0.125
g557
I15
tp672
a(I4
I312
F0.375
g559
I15
tp673
a(I4
I316
F0.25
S'biggest'
p674
I15
tp675
a(I4
I334
F0.375
S'available'
p676
I15
tp677
a(I4
I353
F0.75
g602
I15
tp678
a(I4
I379
I0
g606
I15
tp679
a(I4
I397
F-0.5
S'complaint'
p680
I15
tp681
a(I4
I410
F0.375
g528
I15
tp682
a(I4
I427
F0.375
g530
I15
tp683
a(I4
I434
F0.375
g563
I15
tp684
a(I4
I460
I0
S'big'
p685
I15
tp686
a(I4
I461
F-0.25
S'low'
p687
I15
tp688
a(I4
I529
F0.375
g565
I15
tp689
a(I4
I580
F0.375
g567
I15
tp690
a(I4
I627
F0.375
g569
I15
tp691
a(I4
I629
F0.375
g571
I15
tp692
a(I5
I6
F-0.625
g612
I15
tp693
a(I5
I17
I0
S'central'
p694
I15
tp695
a(I5
I17
F-0.75
S'dead'
p696
I15
tp697
a(I5
I32
F0.375
g573
I15
tp698
a(I5
I34
F-0.125
g614
I15
tp699
a(I6
I1
F0.75
g616
I15
tp700
a(I7
I16
F-0.5
g618
I15
tp701
a(I7
I41
F0.375
g575
I15
tp702
a(I7
I51
F-0.625
S'useless'
p703
I15
tp704
a(I7
I54
F1.0
S'better'
p705
I15
tp706
a(I7
I73
I0
S'full'
p707
I15
tp708
a(I7
I76
F-0.75
S'stupid'
p709
I15
tp710
a(I7
I76
I0
S'full'
p711
I15
tp712
a(I8
I82
F0.5
g621
I15
tp713
a(I8
I85
F-0.375
S'small'
p714
I15
tp715
a(I8
I85
F0.125
S'impressive'
p716
I15
tp717
a(I8
I89
F0.375
g577
I15
tp718
a(I8
I195
F0.375
g579
I15
tp719
a(I8
I197
I0
g626
I15
tp720
a(I8
I323
F0.625
g628
I15
tp721
a(I9
I52
F0.375
S'extra'
p722
I15
tp723
a(I9
I53
F0.5
S'second'
p724
I15
tp725
a(I9
I56
F0.375
g581
I15
tp726
a(I10
I14
F0.25
S'larger'
p727
I15
tp728
as(g164
S'good'
p729
S'thing'
p730
tp731
(lp732
(I3
I139
F1.0
S'good'
p733
I5
tp734
a(I3
I140
F1.0
S'good'
p735
I5
tp736
a(I3
I151
F1.0
S'good'
p737
I5
tp738
a(I8
I327
F1.0
S'good'
p739
I5
tp740
as(S'sound'
p741
S'quality'
p742
tp743
(lp744
(I3
I83
F1.0
S'good'
p745
I0
tp746
as.