(dp0
(S'memory'
p1
S'capacity'
p2
tp3
(lp4
(I8
I3
F-0.25
S'low'
p5
I0
tp6
a(I2
I109
I0
S'more'
p7
I5
tp8
a(I4
I197
F1.0
S'good'
p9
I5
tp10
a(I4
I201
I0
S'more'
p11
I5
tp12
as(S'battery'
p13
S'life'
p14
tp15
(lp16
(I1
I5
I0
S'great'
p17
I1
tp18
a(I1
I30
F1.0
S'good'
p19
I1
tp20
a(I1
I5
I0
g17
I19
tp21
a(I1
I30
F1.0
g19
I19
tp22
a(I2
I83
F0.5
S'strong'
p23
I15
tp24
a(I2
I83
F-0.25
S'potential'
p25
I15
tp26
as(S'ring'
p27
S'tones'
p28
tp29
(lp30
(I1
I62
I0
S'own'
p31
I0
tp32
a(I6
I90
I0
S'great'
p33
I0
tp34
a(I7
I5
I0
S'included'
p35
I0
tp36
a(I4
I100
F0.875
S'music'
p37
I1
tp38
a(I6
I90
I0
g33
I1
tp39
as(S'ringer'
p40
S'volume'
p41
tp42
(lp43
(I1
I12
F0.125
S'able'
p44
I0
tp45
a(I4
I66
F0.375
S'loud'
p46
I6
tp47
a(I4
I76
F0.375
S'loud'
p48
I6
tp49
a(I4
I219
I0
S'full'
p50
I6
tp51
a(I4
I222
I0
S'full'
p52
I6
tp53
a(I6
I78
F-0.375
S'top'
p54
I6
tp55
a(I6
I78
I0
S'high'
p56
I6
tp57
a(I6
I160
F-0.25
S'low'
p58
I6
tp59
a(I7
I3
F-0.25
S'low'
p60
I6
tp61
a(I1
I12
F0.125
g44
I1
tp62
a(I4
I47
F-0.25
S'highest'
p63
I1
tp64
as(S'service'
p65
tp66
(lp67
(I4
I45
F-0.75
S'worse'
p68
I16
tp69
a(I4
I123
I0
S'great'
p70
I16
tp71
a(I8
I22
F1.0
S'good'
p72
I16
tp73
as(S'samsung'
p74
tp75
(lp76
(I1
I31
F1.0
S'good'
p77
I7
tp78
a(I1
I65
F0.625
S'perfect'
p79
I7
tp80
as(S'voice'
p81
S'dial'
p82
tp83
(lp84
(I1
I45
I0
S'dial'
p85
I0
tp86
a(I1
I45
I0
S'cool'
p87
I0
tp88
a(I6
I27
F-0.375
S'manual'
p89
I0
tp90
a(I6
I115
I0
S'great'
p91
I0
tp92
as(S'download'
p93
tp94
(lp95
(I6
I83
I0
S'accomplish'
p96
I1
tp97
as(S'camera'
p98
tp99
(lp100
(I0
I2
F1.0
S'good'
p101
I1
tp102
a(I1
I12
I0
S'more'
p103
I1
tp104
a(I1
I12
F0.625
S'easy'
p105
I1
tp106
a(I2
I99
F-0.75
S'sad'
p107
I1
tp108
a(I4
I9
F0.625
S'easy'
p109
I1
tp110
a(I4
I31
I0
S'basic'
p111
I1
tp112
a(I4
I86
F0.125
S'digital'
p113
I1
tp114
a(I4
I102
F0.125
S'first'
p115
I1
tp116
a(I6
I62
F-0.5
S'pointless'
p117
I1
tp118
a(I6
I76
F-0.125
S'slow'
p119
I1
tp120
a(I6
I149
F-0.125
S'overall'
p121
I1
tp122
a(I6
I149
F-0.625
S'bad'
p123
I1
tp124
as(S'reception'
p125
tp126
(lp127
(I1
I79
F-0.625
S'bad'
p128
I0
tp129
a(I2
I4
I0
S'third'
p130
I0
tp131
a(I4
I112
I0
S'same'
p132
I0
tp133
a(I7
I1
I0
S'great'
p134
I0
tp135
a(I7
I4
I0
S'great'
p136
I0
tp137
as(S'menu'
p138
tp139
(lp140
(I2
I90
F0.125
S'able'
p141
I2
tp142
a(I4
I8
I0
S'basic'
p143
I2
tp144
a(I6
I126
I0
S'few'
p145
I2
tp146
as(S'signal'
p147
tp148
(lp149
(I1
I51
F0.5
S'strong'
p150
I1
tp151
a(I4
I81
F-0.5
S'weak'
p152
I1
tp153
as(S'motorola'
p154
S'v220'
p155
tp156
(lp157
(I1
I34
F0.875
S'happy'
p158
I0
tp159
a(I1
I82
F0.125
S'able'
p160
I0
tp161
a(I1
I99
F0.375
S'new'
p162
I0
tp163
a(I2
I0
F0.75
S'due'
p164
I0
tp165
a(I1
I61
F1.0
S'good'
p166
I0
tp167
a(I1
I82
F0.125
g160
I0
tp168
a(I1
I94
F-0.625
S'free'
p169
I0
tp170
a(I2
I0
F0.75
g164
I0
tp171
a(I2
I11
F-0.875
S'awful'
p172
I0
tp173
a(I4
I132
F-0.75
S'single'
p174
I0
tp175
a(I6
I122
F-0.375
S'manual'
p176
I0
tp177
a(I1
I34
F0.875
g158
I0
tp178
a(I1
I99
F0.375
g162
I0
tp179
a(I4
I150
F0.125
S'first'
p180
I0
tp181
a(I4
I150
I0
S'most'
p182
I0
tp183
a(I4
I150
F-0.75
S'likely'
p184
I0
tp185
a(I4
I150
F0.125
S'last'
p186
I0
tp187
a(I6
I16
I0
S'faithful'
p188
I0
tp189
a(I6
I44
I0
S'faithful'
p190
I0
tp191
as(S'receive'
p192
S'calls'
p193
tp194
(lp195
(I2
I18
F0.125
S'able'
p196
I0
tp197
a(I2
I19
F0.125
S'able'
p198
I0
tp199
a(I4
I120
F0.5
S'told'
p200
I0
tp201
a(I4
I139
I0
S'next'
p202
I0
tp203
a(I4
I212
F0.75
S'receive'
p204
I0
tp205
a(I1
I75
F-0.625
S'bad'
p206
I0
tp207
a(I2
I18
F0.125
g196
I0
tp208
a(I2
I19
F0.125
g198
I0
tp209
a(I4
I120
F0.5
g200
I0
tp210
a(I4
I139
I0
g202
I0
tp211
a(I4
I212
F0.75
g204
I0
tp212
a(I6
I154
F-0.25
S'dropped'
p213
I0
tp214
as(S'speakerphone'
p215
tp216
(lp217
(I4
I162
F1.0
S'good'
p218
I0
tp219
as(S'contract'
p220
tp221
(lp222
(I2
I35
I0
S'anniversary'
p223
I0
tp224
a(I6
I92
F-0.625
S'free'
p225
I0
tp226
as(S'voice'
p227
S'dialing'
p228
tp229
(lp230
(I6
I27
F-0.375
g89
I0
tp231
a(I1
I0
F0.125
S'first'
p232
I4
tp233
a(I1
I45
I0
g85
I4
tp234
a(I1
I45
I0
g87
I4
tp235
a(I6
I27
F-0.375
g89
I4
tp236
as(S'address'
p237
S'book'
p238
tp239
(lp240
(I4
I49
I0
S'weird'
p241
I0
tp242
as(S'ringtones'
p243
tp244
(lp245
(I1
I12
F0.5
S'clearer'
p246
I0
tp247
a(I6
I25
I0
S'such'
p248
I0
tp249
as(S'caller'
p250
S'id'
p251
tp252
(lp253
(I1
I29
F0.875
S'nice'
p254
I0
tp255
a(I2
I84
I0
S'caller'
p256
I0
tp257
a(I5
I4
I0
S'external'
p258
I0
tp259
a(I6
I75
I0
S'standard'
p260
I0
tp261
as(S'replacement'
p262
tp263
(lp264
(I4
I250
F0.5
S'second'
p265
I13
tp266
a(I4
I256
F-0.5
S'longer'
p267
I13
tp268
a(I4
I256
F0.125
S'last'
p269
I13
tp270
as(S'buttons'
p271
tp272
(lp273
(I1
I82
I-100
S'-outside'
p274
I13
tp275
a(I1
I82
F0.625
S'easy'
p276
I13
tp277
a(I4
I153
F-0.375
S'small'
p278
I13
tp279
a(I4
I223
I0
S'external'
p280
I13
tp281
a(I4
I232
F-0.25
S'lower'
p282
I13
tp283
as(S'nokia'
p284
tp285
(lp286
(I1
I78
I0
S'old'
p287
I0
tp288
a(I1
I78
I0
S'standard'
p289
I0
tp290
a(I1
I80
I0
S'old'
p291
I0
tp292
a(I6
I72
I0
S'old'
p293
I0
tp294
as(S'speaker'
p295
tp296
(lp297
(I1
I62
F0.5
S'careful'
p298
I8
tp299
a(I4
I197
I0
S'external'
p300
I8
tp301
as(S'much'
p302
S'better'
p303
tp304
(lp305
(I1
I49
F0.375
S'much'
p306
I9
tp307
a(I1
I55
F0.375
S'much'
p308
I9
tp309
a(I1
I55
F0.25
S'bigger'
p310
I9
tp311
a(I4
I68
F0.375
S'much'
p312
I9
tp313
a(I8
I16
F0.375
S'much'
p314
I9
tp315
as(S'v551'
p316
tp317
(lp318
(I2
I9
F0.125
S'enough'
p319
I0
tp320
a(I2
I9
F0.5
S'upgraded'
p321
I0
tp322
as(S'menus'
p323
S'upon'
p324
S'menus'
p325
tp326
(lp327
(I1
I82
F-0.75
S'plain'
p328
I0
tp329
a(I1
I82
F-0.75
g328
I0
tp330
a(I4
I106
I0
S'many'
p331
I0
tp332
a(I4
I166
F-0.75
S'difficult'
p333
I0
tp334
as(S'picture'
p335
S'quality'
p336
tp337
(lp338
(I4
I119
F-0.875
S'awful'
p339
I1
tp340
a(I4
I119
I0
S'rubbish'
p341
I1
tp342
a(I6
I17
F1.0
S'good'
p343
I1
tp344
a(I6
I26
I0
S'standard'
p345
I1
tp346
as(S'dropped'
p347
S'calls'
p348
tp349
(lp350
(I6
I154
F-0.25
g213
I0
tp351
as.