(dp0
(S'numbers'
p1
tp2
(lp3
(I13
I1
I0
S'more'
p4
tp5
a(I41
I5
I0
S'more'
p6
tp7
a(I41
I5
F-0.625
S'other'
p8
tp9
a(I43
I9
I0
S'many'
p10
tp11
a(I43
I9
I0
S'many'
p12
tp13
a(I67
I35
I0
S'multiple'
p14
tp15
a(I106
I13
I0
S'few'
p16
tp17
a(I109
I60
I0
S'multiple'
p18
tp19
a(I114
I6
F0.125
S'further'
p20
tp21
a(I114
I6
F-0.625
S'other'
p22
tp23
a(I114
I6
F-0.625
S'other'
p24
tp25
a(I114
I6
F-0.375
S'simple'
p26
tp27
a(I114
I6
F0.625
S'easy'
p28
tp29
a(I120
I14
F0.5
S'primary'
p30
tp31
a(I123
I7
F-0.75
S'wrong'
p32
tp33
a(I123
I7
F-0.375
S'small'
p34
tp35
a(I147
I1
I0
S'different'
p36
tp37
a(I147
I3
F-0.625
S'other'
p38
tp39
a(I164
I40
F0.5
S'primary'
p40
tp41
a(I164
I40
F0.5
S'primary'
p42
tp43
a(I171
I15
I0
S'multiple'
p44
tp45
a(I195
I11
I0
S'different'
p46
tp47
a(I213
I4
F-0.375
S'simple'
p48
tp49
as(S'keys'
p50
tp51
(lp52
(I43
I1
I0
S'soft'
p53
tp54
a(I62
I2
F0.75
S'due'
p55
tp56
a(I106
I19
I0
S'soft'
p57
tp58
a(I106
I20
I0
S'soft'
p59
tp60
a(I109
I13
F0.625
S'accessible'
p61
tp62
a(I109
I13
F-0.375
S'flipped'
p63
tp64
a(I109
I13
F-0.5
S'open'
p65
tp66
a(I109
I18
F0.5
S'flat'
p67
tp68
a(I109
I18
F-0.875
S'hard'
p69
tp70
a(I129
I25
I0
S'different'
p71
tp72
a(I134
I1
F-0.375
S'small'
p73
tp74
a(I134
I1
F-0.625
S'light'
p75
tp76
a(I134
I1
F0.625
S'easy'
p77
tp78
a(I140
I6
F-0.875
S'harder'
p79
tp80
a(I174
I5
F0.5
S'flat'
p81
tp82
a(I209
I10
F0.5
S'flat'
p83
tp84
a(I209
I27
F-0.75
S'wrong'
p85
tp86
as(S'motorola'
p87
tp88
(lp89
(I25
I2
F-0.625
S'other'
p90
tp91
a(I50
I1
F1.0
S'best'
p92
tp93
a(I71
I0
F0.375
S'new'
p94
tp95
a(I71
I4
F0.25
S'familiar'
p96
tp97
a(I75
I0
I0
S'more'
p98
tp99
a(I100
I6
I0
S'wide'
p100
tp101
a(I123
I1
I0
S'overseas'
p102
tp103
a(I125
I0
F1.0
S'best'
p104
tp105
a(I164
I35
F-0.625
S'bad'
p106
tp107
a(I168
I8
F0.25
S'familiar'
p108
tp109
a(I185
I4
F-0.625
S'other'
p110
tp111
a(I185
I6
F-0.625
S'other'
p112
tp113
a(I185
I6
I0
S'current'
p114
tp115
a(I192
I3
I0
S'old'
p116
tp117
a(I213
I8
F0.5
S'clearer'
p118
tp119
as(S'nice'
p120
tp121
(lp122
(I59
I1
I0
S'very'
p123
tp124
a(I119
I0
I0
S'big'
p125
tp126
a(I156
I11
F1.0
S'better'
p127
tp128
as(S'to'
p129
S'r'
p130
S'computer'
p131
tp132
(lp133
(I173
I4
F-0.375
S'top'
p134
tp135
as(S'n'
p136
S'pocket'
p137
tp138
(lp139
(I1
I26
I0
S'slim'
p140
tp141
a(I1
I26
F-0.75
S'comfortable'
p142
tp143
a(I1
I28
F-0.75
S'panic'
p144
tp145
a(I118
I1
F0.625
S'noticeable'
p146
tp147
a(I121
I2
F0.625
S'easy'
p148
tp149
a(I163
I1
F-0.25
S'thin'
p150
tp151
a(I190
I2
F-0.625
S'light'
p152
tp153
a(I215
I4
F-0.625
S'light'
p154
tp155
as(S't'
p156
S'every'
p157
S'night'
p158
tp159
(lp160
(I114
I2
F-0.125
S'mine'
p161
tp162
a(I133
I5
F-0.5
S'less'
p163
tp164
as(S'quality'
p165
tp166
(lp167
(I17
I1
F-0.625
S'bad'
p168
tp169
a(I33
I9
F1.0
S'good'
p170
tp171
a(I51
I8
F1.0
S'good'
p172
tp173
a(I87
I29
I0
S'great'
p174
tp175
a(I93
I0
F-0.625
S'bad'
p176
tp177
a(I100
I24
F1.0
S'good'
p178
tp179
a(I123
I5
F-0.25
S'low'
p180
tp181
a(I129
I30
F1.0
S'good'
p182
tp183
a(I130
I1
F-0.5
S'poor'
p184
tp185
a(I130
I14
F-0.5
S'poor'
p186
tp187
a(I131
I20
I0
S'high'
p188
tp189
a(I132
I0
F-0.5
S'poor'
p190
tp191
a(I139
I10
F0.5
S'clear'
p192
tp193
a(I139
I14
F0.625
S'superior'
p194
tp195
a(I144
I9
F0.625
S'acceptable'
p196
tp197
a(I153
I43
I0
S'signal'
p198
tp199
a(I175
I1
F1.0
S'best'
p200
tp201
a(I187
I6
F-0.625
S'bad'
p202
tp203
a(I209
I52
I0
S'many'
p204
tp205
a(I214
I1
F1.0
S'good'
p206
tp207
as(S'real'
p208
S'estate'
p209
tp210
(lp211
(I12
I4
I0
S'real'
p212
tp213
a(I12
I5
I0
S'real'
p214
tp215
a(I80
I1
I0
S'real'
p216
tp217
as(S'razr'
p218
S'v3'
p219
tp220
(lp221
(I5
I0
I0
S'latest'
p222
tp223
a(I25
I1
F0.375
S'new'
p224
tp225
a(I89
I6
F-0.5
S'sure'
p226
tp227
a(I164
I3
F0.5
S'alike'
p228
tp229
a(I214
I0
F1.0
S'best'
p230
tp231
a(I218
I1
F0.875
S'attractive'
p232
tp233
as(S'sweet'
p234
S'spot'
p235
tp236
(lp237
(I61
I3
F0.25
S'sweet'
p238
tp239
a(I112
I3
F0.25
S'sweet'
p240
tp241
as(S'address'
p242
S'book'
p243
tp244
(lp245
(I50
I10
I0
S'different'
p246
tp247
a(I114
I3
F-0.125
S'slow'
p248
tp249
a(I114
I3
F-0.5
S'sure'
p250
tp251
a(I114
I4
I0
S'dial'
p252
tp253
as(S'sound'
p254
tp255
(lp256
(I38
I9
I0
S'high'
p257
tp258
a(I60
I0
F1.0
S'good'
p259
tp260
a(I119
I0
I0
S'high'
p261
tp262
a(I120
I33
F1.0
S'good'
p263
tp264
a(I130
I7
F1.0
S'good'
p265
tp266
a(I139
I6
I0
S'crystal'
p267
tp268
a(I139
I6
F0.5
S'clear'
p269
tp270
a(I211
I3
F-0.25
S'low'
p271
tp272
as(S'store'
p273
tp274
(lp275
(I1
I1
F-0.5
S'sure'
p276
tp277
a(I62
I6
F-0.875
S'regret'
p278
tp279
a(I63
I13
I0
S'different'
p280
tp281
a(I76
I18
I0
S'retail'
p282
tp283
a(I183
I2
I0
S'different'
p284
tp285
as(S'caller'
p286
S'id'
p287
tp288
(lp289
(I209
I13
I0
S'useful'
p290
tp291
as(S'software'
p292
tp293
(lp294
(I3
I1
I0
S'old'
p295
tp296
a(I69
I4
F0.125
S'first'
p297
tp298
a(I85
I2
F-0.125
S'slow'
p299
tp300
a(I97
I4
I0
S'great'
p301
tp302
a(I108
I2
F0.375
S'extra'
p303
tp304
a(I108
I4
F0.375
S'extra'
p305
tp306
a(I155
I7
F0.375
S'honest'
p307
tp308
a(I156
I6
F0.875
S'nice'
p309
tp310
a(I166
I4
I0
S'identical'
p311
tp312
a(I169
I6
F0.375
S'new'
p313
tp314
as(S'nokia'
p315
tp316
(lp317
(I11
I3
I0
S'later'
p318
tp319
a(I34
I2
F0.125
S'first'
p320
tp321
a(I38
I2
I0
S'big'
p322
tp323
a(I43
I14
F-0.125
S'overall'
p324
tp325
a(I60
I1
F0.375
S'new'
p326
tp327
a(I109
I30
F1.0
S'best'
p328
tp329
a(I109
I31
F-0.375
S'manual'
p330
tp331
a(I110
I2
F0.125
S'able'
p332
tp333
a(I164
I11
I0
S'old'
p334
tp335
a(I164
I19
I0
S'old'
p336
tp337
a(I166
I18
F-0.375
S'smaller'
p338
tp339
a(I185
I9
F-0.5
S'sure'
p340
tp341
a(I208
I11
F1.0
S'good'
p342
tp343
as(S'sim'
p344
S'card'
p345
tp346
(lp347
(I74
I7
F-0.625
S'free'
p348
tp349
a(I74
I7
F0.5
S'told'
p350
tp351
as(S'however'
p352
tp353
(lp354
(I103
I5
I0
S'topic'
p355
tp356
as(g156
g136
S'pocket'
p357
tp358
(lp359
(I1
I26
I0
g140
tp360
a(I1
I26
F-0.75
g142
tp361
a(I1
I28
F-0.75
g144
tp362
a(I118
I1
F0.625
g146
tp363
a(I121
I2
F0.625
g148
tp364
a(I163
I1
F-0.25
g150
tp365
a(I190
I2
F-0.625
g152
tp366
a(I215
I4
F-0.625
g154
tp367
as(S'quad'
p368
S'band'
p369
tp370
(lp371
(I193
I6
F0.375
S'allow'
p372
tp373
as(S'about'
p374
S'6'
p375
S'months'
p376
tp377
(lp378
(I4
I0
F-0.125
S'overall'
p379
tp380
as(S'love'
p381
tp382
(lp383
(I214
I1
F0.5
S'careful'
p384
tp385
as(S'volume'
p386
tp387
(lp388
(I1
I13
I0
S'high'
p389
tp390
a(I1
I29
I0
S'full'
p391
tp392
a(I1
I33
F0.5
S'personal'
p393
tp394
a(I43
I7
I0
S'only'
p395
tp396
a(I43
I7
F-0.25
S'highest'
p397
tp398
a(I72
I0
F-0.25
S'low'
p399
tp400
a(I72
I1
F-0.25
S'highest'
p401
tp402
a(I72
I4
F-0.25
S'low'
p403
tp404
a(I106
I14
F-0.375
S'small'
p405
tp406
a(I106
I14
F0.75
S'due'
p407
tp408
a(I106
I14
F-0.25
S'thin'
p409
tp410
a(I112
I2
F-0.25
S'low'
p411
tp412
a(I114
I7
F-0.25
S'low'
p413
tp414
a(I114
I7
F-0.25
S'low'
p415
tp416
a(I114
I7
F-0.25
S'low'
p417
tp418
a(I130
I8
I0
S'high'
p419
tp420
a(I130
I8
F0.125
S'enough'
p421
tp422
a(I153
I9
F0.125
S'enough'
p423
tp424
a(I205
I4
F-0.25
S'low'
p425
tp426
as(S'video'
p427
tp428
(lp429
(I173
I2
F-0.125
S'slow'
p430
tp431
a(I173
I2
F-0.125
S'slow'
p432
tp433
a(I206
I1
F-0.375
S'small'
p434
tp435
as(S'sound'
p436
S'quality'
p437
tp438
(lp439
(I17
I1
F-0.625
g168
tp440
a(I100
I24
F1.0
g178
tp441
a(I120
I33
F1.0
g263
tp442
a(I129
I30
F1.0
g182
tp443
a(I130
I1
F-0.5
g184
tp444
a(I130
I14
F-0.5
g186
tp445
a(I144
I9
F0.625
g196
tp446
as(S'times'
p447
tp448
(lp449
(I1
I4
I0
S'many'
p450
tp451
a(I7
I8
F0.875
S'nice'
p452
tp453
a(I11
I17
I0
S'few'
p454
tp455
a(I98
I10
I0
S'many'
p456
tp457
a(I129
I19
I0
S'few'
p458
tp459
a(I129
I25
I0
S'many'
p460
tp461
a(I160
I22
I0
S'many'
p462
tp463
a(I169
I1
I0
S'least'
p464
tp465
a(I208
I0
I0
S'different'
p466
tp467
as(S'problem'
p468
tp469
(lp470
(I29
I1
I0
S'same'
p471
tp472
a(I60
I3
I0
S'big'
p473
tp474
a(I62
I5
F0.125
S'outside'
p475
tp476
a(I85
I1
F-0.375
S'static'
p477
tp478
a(I95
I4
F0.5
S'whole'
p479
tp480
a(I95
I10
I0
S'only'
p481
tp482
a(I114
I9
F-0.75
S'single'
p483
tp484
a(I114
I9
F-0.375
S'slight'
p485
tp486
a(I116
I5
F-0.625
S'other'
p487
tp488
a(I143
I0
F-0.375
S'dust'
p489
tp490
a(I212
I1
I0
S'rebate'
p491
tp492
as(S'price'
p493
tp494
(lp495
(I2
I12
F0.75
S'worth'
p496
tp497
a(I5
I21
F-0.625
S'free'
p498
tp499
a(I5
I21
F0.75
S'worth'
p500
tp501
a(I45
I1
F0.375
S'new'
p502
tp503
a(I51
I12
I0
S'high'
p504
tp505
a(I66
I2
I0
S'high'
p506
tp507
a(I66
I2
F0.75
S'worth'
p508
tp509
a(I71
I3
I0
S'retail'
p510
tp511
a(I76
I19
I0
S'full'
p512
tp513
a(I78
I3
I0
S'big'
p514
tp515
a(I109
I0
I0
S'retail'
p516
tp517
a(I109
I2
I0
S'retail'
p518
tp519
a(I115
I5
I0
S'full'
p520
tp521
a(I129
I1
I0
S'full'
p522
tp523
a(I129
I1
I0
S'retail'
p524
tp525
a(I141
I6
I0
S'high'
p526
tp527
a(I144
I18
F0.625
S'acceptable'
p528
tp529
a(I147
I3
I0
S'more'
p530
tp531
a(I147
I3
F0.25
S'consistent'
p532
tp533
a(I160
I10
F1.0
S'best'
p534
tp535
a(I164
I2
I0
S'exclusive'
p536
tp537
a(I180
I18
I0
S'latest'
p538
tp539
a(I193
I9
F0.25
S'original'
p540
tp541
a(I203
I12
I0
S'sensitive'
p542
tp543
a(I209
I63
F-0.25
S'lower'
p544
tp545
a(I217
I5
I0
S'full'
p546
tp547
as(S'service'
p548
tp549
(lp550
(I3
I1
F0.125
S'able'
p551
tp552
a(I13
I3
F0.875
S'happier'
p553
tp554
a(I23
I9
F1.0
S'good'
p555
tp556
a(I32
I2
F-0.625
S'bad'
p557
tp558
a(I41
I2
I0
S'more'
p559
tp560
a(I41
I9
F1.0
S'good'
p561
tp562
a(I65
I1
F-0.75
S'plain'
p563
tp564
a(I74
I1
F0.125
S'amazon'
p565
tp566
a(I85
I1
F-0.375
S'static'
p567
tp568
a(I85
I1
I0
S'full'
p569
tp570
a(I110
I9
F-0.625
S'bad'
p571
tp572
a(I155
I6
I0
S'great'
p573
tp574
a(I155
I6
F0.125
S'usual'
p575
tp576
a(I160
I3
F0.25
S'professional'
p577
tp578
a(I183
I2
I0
S'different'
p579
tp580
a(I186
I10
I0
S'many'
p581
tp582
a(I187
I10
F0.875
S'happy'
p583
tp584
a(I188
I1
I0
S'only'
p585
tp586
a(I192
I0
F1.0
S'good'
p587
tp588
a(I203
I14
F1.0
S'better'
p589
tp590
a(I216
I5
F-0.875
S'worst'
p591
tp592
as(S'a'
p593
S'text'
p594
S'message'
p595
tp596
(lp597
(I50
I12
I0
S'few'
p598
tp599
a(I87
I39
I0
S'graphical'
p600
tp601
a(I120
I23
I0
S'more'
p602
tp603
a(I156
I5
F0.5
S'true'
p604
tp605
as(S'number'
p606
tp607
(lp608
(I3
I1
I0
S'more'
p609
tp610
a(I7
I13
I0
S'dial'
p611
tp612
a(I41
I5
I0
S'enter'
p613
tp614
a(I41
I5
F0.125
S'first'
p615
tp616
a(I57
I0
I0
S'current'
p617
tp618
a(I74
I2
F0.375
S'new'
p619
tp620
a(I74
I7
I0
S'current'
p621
tp622
a(I74
I7
F0.375
S'new'
p623
tp624
a(I74
I8
I0
S'current'
p625
tp626
a(I74
I14
I0
S'current'
p627
tp628
a(I106
I25
I0
S'own'
p629
tp630
a(I114
I5
F0.5
S'primary'
p631
tp632
a(I114
I5
F-0.375
S'simple'
p633
tp634
a(I114
I6
F0.5
S'primary'
p635
tp636
a(I152
I5
F-0.75
S'wrong'
p637
tp638
a(I162
I2
I0
S'old'
p639
tp640
a(I164
I40
F0.5
S'primary'
p641
tp642
as(S'need'
p643
tp644
(lp645
(I33
I8
F-0.75
S'little'
p646
tp647
as(S'right'
p648
tp649
(lp650
(I114
I9
F-0.625
S'free'
p651
tp652
a(I140
I11
F-0.375
S'top'
p653
tp654
a(I171
I3
F-0.375
S'top'
p655
tp656
as(S'features'
p657
tp658
(lp659
(I5
I1
I0
S'latest'
p660
tp661
a(I7
I18
I0
S'packed'
p662
tp663
a(I7
I18
I0
S'such'
p664
tp665
a(I16
I0
F0.25
S'sweet'
p666
tp667
a(I41
I5
I0
S'great'
p668
tp669
a(I48
I1
F1.0
S'better'
p670
tp671
a(I59
I1
I0
S'lavish'
p672
tp673
a(I63
I2
F0.875
S'nice'
p674
tp675
a(I64
I3
I0
S'basic'
p676
tp677
a(I67
I9
F-0.625
S'other'
p678
tp679
a(I69
I11
I0
S'such'
p680
tp681
a(I74
I18
F0.625
S'easy'
p682
tp683
a(I74
I23
I0
S'different'
p684
tp685
a(I75
I1
I0
S'great'
p686
tp687
a(I82
I1
F1.0
S'good'
p688
tp689
a(I82
I1
F-0.5
S'regular'
p690
tp691
a(I88
I8
I0
S'same'
p692
tp693
a(I94
I0
I0
S'great'
p694
tp695
a(I99
I3
F0.25
S'favorite'
p696
tp697
a(I102
I3
F1.0
S'good'
p698
tp699
a(I109
I68
F0.125
S'able'
p700
tp701
a(I111
I1
F1.0
S'good'
p702
tp703
a(I114
I8
F0.125
S'enough'
p704
tp705
a(I126
I5
F0.75
S'worth'
p706
tp707
a(I129
I0
I0
S'latest'
p708
tp709
a(I129
I23
F1.0
S'good'
p710
tp711
a(I131
I20
I0
S'many'
p712
tp713
a(I131
I20
F0.5
S'possible'
p714
tp715
a(I152
I13
F0.75
S'worth'
p716
tp717
a(I164
I4
I0
S'same'
p718
tp719
a(I164
I4
F-0.5
S'less'
p720
tp721
a(I164
I27
I0
S'many'
p722
tp723
a(I164
I27
I0
S'common'
p724
tp725
a(I166
I18
F-0.125
S'overall'
p726
tp727
a(I166
I18
I0
S'more'
p728
tp729
a(I166
I18
I0
S'more'
p730
tp731
a(I166
I18
F1.0
S'good'
p732
tp733
a(I180
I1
I0
S'many'
p734
tp735
a(I186
I0
F1.0
S'good'
p736
tp737
a(I195
I4
F0.625
S'easy'
p738
tp739
a(I195
I13
F0.625
S'easy'
p740
tp741
a(I202
I0
I0
S'many'
p742
tp743
a(I208
I1
F0.875
S'nice'
p744
tp745
a(I208
I1
F0.75
S'beautiful'
p746
tp747
a(I209
I43
I0
S'few'
p748
tp749
a(I218
I6
F-0.5
S'certain'
p750
tp751
a(I218
I11
I0
S'many'
p752
tp753
as(S'months'
p754
tp755
(lp756
(I1
I2
I0
S'later'
p757
tp758
a(I4
I0
F-0.125
g379
tp759
a(I5
I21
I0
S'few'
p760
tp761
a(I10
I3
F0.5
S'second'
p762
tp763
a(I10
I3
I0
S'old'
p764
tp765
a(I22
I1
I0
S'later'
p766
tp767
a(I31
I0
I0
S'few'
p768
tp769
a(I32
I0
I0
S'few'
p770
tp771
a(I49
I3
I0
S'great'
p772
tp773
a(I87
I3
F-0.25
S'past'
p774
tp775
a(I95
I1
F0.125
S'last'
p776
tp777
a(I96
I0
I0
S'few'
p778
tp779
a(I132
I3
F-0.625
S'free'
p780
tp781
a(I146
I0
F0.875
S'happier'
p782
tp783
as(S'getting'
p784
tp785
(lp786
(I209
I63
F-0.75
S'wrong'
p787
tp788
as(S'design'
p789
tp790
(lp791
(I21
I8
F0.75
S'ideal'
p792
tp793
a(I35
I6
F-0.25
S'thin'
p794
tp795
a(I35
I6
F-0.5
S'flimsy'
p796
tp797
a(I53
I6
F-0.625
S'bad'
p798
tp799
a(I58
I7
F-0.25
S'thin'
p800
tp801
a(I78
I1
I0
S'great'
p802
tp803
a(I78
I1
F-0.375
S'small'
p804
tp805
a(I79
I1
F-0.5
S'poor'
p806
tp807
a(I79
I1
I0
S'mechanical'
p808
tp809
a(I109
I7
I0
S'great'
p810
tp811
a(I116
I6
F-0.625
S'bad'
p812
tp813
a(I129
I23
I0
S'great'
p814
tp815
a(I137
I2
F0.375
S'new'
p816
tp817
a(I137
I2
F0.625
S'easy'
p818
tp819
a(I137
I2
F-0.5
S'fun'
p820
tp821
a(I142
I2
F-0.625
S'light'
p822
tp823
a(I149
I2
I0
S'sleek'
p824
tp825
a(I168
I8
F1.0
S'best'
p826
tp827
a(I178
I8
I0
S'plastic'
p828
tp829
a(I178
I8
F0.625
S'major'
p830
tp831
a(I214
I0
I0
S'slim'
p832
tp833
as(g593
S'long'
p834
S'time'
p835
tp836
(lp837
(I11
I3
F-0.5
S'long'
p838
tp839
a(I41
I0
F-0.5
S'long'
p840
tp841
a(I107
I0
F-0.5
S'long'
p842
tp843
a(I117
I0
F-0.5
S'long'
p844
tp845
a(I129
I30
F-0.5
S'long'
p846
tp847
a(I164
I30
F0.125
S'first'
p848
tp849
a(I180
I0
F-0.5
S'long'
p850
tp851
a(I203
I13
F-0.5
S'long'
p852
tp853
as(S'voice'
p854
tp855
(lp856
(I50
I9
I0
S'great'
p857
tp858
a(I51
I9
F-0.75
S'short'
p859
tp860
a(I67
I38
I0
S'many'
p861
tp862
a(I192
I11
I0
S'great'
p863
tp864
a(I197
I0
F0.375
S'similar'
p865
tp866
a(I197
I1
I0
S'dial'
p867
tp868
a(I203
I15
I0
S'wish'
p869
tp870
as(S'thing'
p871
tp872
(lp873
(I0
I11
F0.125
S'first'
p874
tp875
a(I2
I5
F0.125
S'first'
p876
tp877
a(I2
I13
I0
S'big'
p878
tp879
a(I7
I3
F0.125
S'first'
p880
tp881
a(I10
I0
I0
S'same'
p882
tp883
a(I11
I15
I0
S'great'
p884
tp885
a(I13
I1
I0
S'only'
p886
tp887
a(I13
I1
F0.125
S'memory'
p888
tp889
a(I14
I2
F-0.375
S'ugliest'
p890
tp891
a(I16
I0
I0
S'blue'
p892
tp893
a(I16
I0
F-0.375
S'top'
p894
tp895
a(I35
I8
I0
S'only'
p896
tp897
a(I41
I6
F-0.625
S'bad'
p898
tp899
a(I43
I8
F-0.625
S'other'
p900
tp901
a(I44
I2
I0
S'only'
p902
tp903
a(I48
I1
I0
S'few'
p904
tp905
a(I74
I22
F0.375
S'newest'
p906
tp907
a(I84
I1
I0
S'only'
p908
tp909
a(I86
I2
F-0.875
S'worst'
p910
tp911
a(I86
I6
I0
S'only'
p912
tp913
a(I98
I8
I0
S'great'
p914
tp915
a(I156
I12
F-0.625
S'bad'
p916
tp917
a(I160
I28
F0.625
S'easiest'
p918
tp919
a(I160
I33
F0.5
S'whole'
p920
tp921
a(I169
I10
F-0.75
S'minor'
p922
tp923
a(I185
I9
F1.0
S'best'
p924
tp925
a(I200
I2
F0.875
S'attractive'
p926
tp927
a(I210
I3
F1.0
S'best'
p928
tp929
as(g593
S'mini'
p930
S'usb'
p931
tp932
(lp933
(I147
I3
I0
S'cable'
p934
tp935
as(S'google'
p936
S'search'
p937
tp938
(lp939
(I108
I4
F-0.25
S'google'
p940
tp941
a(I108
I4
I0
S'topic'
p942
tp943
as(S'motorola'
p944
S'razr'
p945
S'v3'
p946
tp947
(lp948
(I25
I1
F0.375
g224
tp949
a(I71
I0
F0.375
g94
tp950
a(I214
I0
F1.0
g230
tp951
a(I218
I1
F0.875
g232
tp952
as(S'around'
p953
tp954
(lp955
(I209
I11
F-0.375
S'black'
p956
tp957
as(S'work'
p958
tp959
(lp960
(I30
I4
F-0.25
S'direct'
p961
tp962
a(I47
I2
F1.0
S'good'
p963
tp964
as(S'battery'
p965
S'life'
p966
tp967
(lp968
(I4
I3
F0.5
S'second'
p969
tp970
a(I6
I0
F1.0
S'good'
p971
tp972
a(I12
I1
F1.0
S'good'
p973
tp974
a(I33
I13
I0
S'basic'
p975
tp976
a(I33
I13
F-0.375
S'simple'
p977
tp978
a(I48
I0
F-0.25
S'low'
p979
tp980
a(I49
I9
I0
S'great'
p981
tp982
a(I58
I4
F-0.75
S'short'
p983
tp984
a(I58
I4
F-0.625
S'unpredictable'
p985
tp986
a(I71
I40
F-0.5
S'long'
p987
tp988
a(I73
I1
F-0.5
S'longer'
p989
tp990
a(I87
I9
F-0.5
S'longer'
p991
tp992
a(I98
I14
I0
S'quick'
p993
tp994
a(I100
I27
F1.0
S'good'
p995
tp996
a(I114
I2
I0
S'most'
p997
tp998
a(I114
I2
F-0.75
S'likely'
p999
tp1000
a(I148
I4
F1.0
S'good'
p1001
tp1002
a(I153
I31
F1.0
S'good'
p1003
tp1004
as(S'cingular'
p1005
tp1006
(lp1007
(I25
I4
F0.875
S'happier'
p1008
tp1009
a(I50
I6
F-0.875
S'fear'
p1010
tp1011
a(I74
I7
F-0.625
S'nearby'
p1012
tp1013
a(I74
I8
F0.375
S'new'
p1014
tp1015
a(I124
I3
I0
S'local'
p1016
tp1017
a(I133
I7
I0
S'local'
p1018
tp1019
a(I216
I1
F-0.75
S'dead'
p1020
tp1021
as(S'problems'
p1022
tp1023
(lp1024
(I85
I3
I0
S'same'
p1025
tp1026
a(I87
I71
I0
S'operational'
p1027
tp1028
a(I89
I5
F0.5
S'technical'
p1029
tp1030
a(I89
I5
F0.375
S'similar'
p1031
tp1032
a(I89
I5
F-0.625
S'other'
p1033
tp1034
a(I116
I1
I0
S'many'
p1035
tp1036
a(I116
I1
I0
S'basic'
p1037
tp1038
a(I141
I7
F-0.625
S'other'
p1039
tp1040
a(I141
I7
F0.625
S'major'
p1041
tp1042
a(I204
I4
I0
S'same'
p1043
tp1044
as(S'book'
p1045
tp1046
(lp1047
(I44
I4
F-0.75
S'impossible'
p1048
tp1049
a(I50
I10
I0
g246
tp1050
a(I114
I3
F-0.125
g248
tp1051
a(I114
I3
F-0.5
g250
tp1052
a(I114
I4
I0
g252
tp1053
a(I120
I15
I0
S'useful'
p1054
tp1055
a(I205
I2
F1.0
S'best'
p1056
tp1057
as(S'with'
p1058
S'one'
p1059
S'hand'
p1060
tp1061
(lp1062
(I1
I33
F0.625
S'easy'
p1063
tp1064
a(I1
I33
F-0.5
S'open'
p1065
tp1066
a(I171
I20
I0
S'close'
p1067
tp1068
a(I222
I9
F-0.375
S'smooth'
p1069
tp1070
a(I222
I9
F-0.5
S'open'
p1071
tp1072
as(S'reception'
p1073
tp1074
(lp1075
(I15
I1
F-0.5
S'poor'
p1076
tp1077
a(I15
I2
F1.0
S'good'
p1078
tp1079
a(I16
I0
I0
S'great'
p1080
tp1081
a(I21
I5
I0
S'great'
p1082
tp1083
a(I24
I5
F1.0
S'better'
p1084
tp1085
a(I49
I4
I0
S'great'
p1086
tp1087
a(I50
I4
F1.0
S'good'
p1088
tp1089
a(I55
I1
F1.0
S'good'
p1090
tp1091
a(I61
I12
F0.125
S'last'
p1092
tp1093
a(I61
I12
I0
S'least'
p1094
tp1095
a(I61
I15
F1.0
S'better'
p1096
tp1097
a(I67
I38
F1.0
S'better'
p1098
tp1099
a(I81
I2
F-0.5
S'poor'
p1100
tp1101
a(I81
I2
I0
S'full'
p1102
tp1103
a(I120
I32
F1.0
S'good'
p1104
tp1105
a(I120
I39
F0.625
S'superior'
p1106
tp1107
a(I129
I35
I0
S'great'
p1108
tp1109
a(I129
I35
F-0.375
S'irrespective'
p1110
tp1111
a(I145
I4
F-0.625
S'bad'
p1112
tp1113
a(I156
I11
F1.0
S'good'
p1114
tp1115
a(I156
I11
I0
S'mobile'
p1116
tp1117
a(I166
I9
F-0.625
S'average'
p1118
tp1119
a(I183
I0
F-0.625
S'bad'
p1120
tp1121
a(I187
I11
F1.0
S'good'
p1122
tp1123
a(I208
I2
F-0.5
S'beef'
p1124
tp1125
a(I208
I2
F1.0
S'good'
p1126
tp1127
a(I214
I0
F1.0
S'good'
p1128
tp1129
as(S'blue'
p1130
S'tooth'
p1131
tp1132
(lp1133
(I67
I6
I0
S'blue'
p1134
tp1135
a(I67
I13
I0
S'blue'
p1136
tp1137
a(I179
I3
F-0.625
S'free'
p1138
tp1139
a(I179
I3
I0
S'blue'
p1140
tp1141
a(I217
I6
I0
S'blue'
p1142
tp1143
as(S'life'
p1144
tp1145
(lp1146
(I6
I0
F1.0
g971
tp1147
a(I12
I1
F1.0
g973
tp1148
a(I48
I0
F-0.25
g979
tp1149
a(I49
I9
I0
g981
tp1150
a(I58
I4
F-0.75
g983
tp1151
a(I58
I4
F-0.625
g985
tp1152
a(I71
I40
F-0.5
g987
tp1153
a(I73
I1
F-0.5
g989
tp1154
a(I98
I14
I0
g993
tp1155
a(I100
I27
F1.0
g995
tp1156
a(I104
I5
I0
S'useful'
p1157
tp1158
a(I104
I5
F1.0
S'good'
p1159
tp1160
a(I114
I2
I0
g997
tp1161
a(I114
I2
F-0.75
g999
tp1162
a(I148
I4
F1.0
g1001
tp1163
as(g156
g136
g130
tp1164
(lp1165
(I74
I2
I0
S'later'
p1166
tp1167
a(I74
I14
F-0.125
S'former'
p1168
tp1169
a(I216
I0
F-0.125
S'former'
p1170
tp1171
a(I222
I0
I0
S'blue'
p1172
tp1173
as(S'cool'
p1174
tp1175
(lp1176
(I0
I1
F0.125
S'first'
p1177
tp1178
a(I93
I0
F-0.125
S'super'
p1179
tp1180
a(I162
I2
F-0.25
S'thin'
p1181
tp1182
as(g136
g130
S'pocket'
p1183
tp1184
(lp1185
(I1
I26
I0
g140
tp1186
a(I1
I26
F-0.75
g142
tp1187
a(I1
I28
F-0.75
g144
tp1188
a(I121
I2
F0.625
g148
tp1189
a(I163
I1
F-0.25
g150
tp1190
a(I190
I2
F-0.625
g152
tp1191
a(I215
I4
F-0.625
g154
tp1192
as(S'display'
p1193
tp1194
(lp1195
(I31
I8
F0.875
S'nice'
p1196
tp1197
a(I71
I30
I0
S'external'
p1198
tp1199
a(I87
I21
F-0.375
S'small'
p1200
tp1201
a(I87
I29
I0
S'big'
p1202
tp1203
a(I120
I20
I0
S'big'
p1204
tp1205
a(I120
I20
F0.125
S'colorful'
p1206
tp1207
a(I120
I20
I0
S'great'
p1208
tp1209
a(I131
I17
I0
S'internal'
p1210
tp1211
a(I164
I20
I0
S'internal'
p1212
tp1213
a(I164
I21
I0
S'large'
p1214
tp1215
a(I164
I21
I0
S'internal'
p1216
tp1217
a(I164
I37
I0
S'internal'
p1218
tp1219
a(I171
I16
I0
S'illegible'
p1220
tp1221
a(I171
I16
I0
S'legible'
p1222
tp1223
a(I191
I1
I0
S'large'
p1224
tp1225
a(I214
I1
I0
S'external'
p1226
tp1227
as(S'battery'
p1228
tp1229
(lp1230
(I0
I9
I0
S'normal'
p1231
tp1232
a(I1
I10
F1.0
S'best'
p1233
tp1234
a(I4
I3
F0.5
g969
tp1235
a(I11
I10
F-0.25
S'low'
p1236
tp1237
a(I33
I13
I0
g975
tp1238
a(I33
I13
F-0.375
g977
tp1239
a(I87
I9
F-0.5
g991
tp1240
a(I94
I8
I0
S'song'
p1241
tp1242
a(I114
I9
F1.0
S'good'
p1243
tp1244
a(I114
I9
F0.25
S'original'
p1245
tp1246
a(I124
I3
F0.125
S'last'
p1247
tp1248
a(I153
I31
F1.0
g1003
tp1249
a(I153
I32
I0
S'great'
p1250
tp1251
a(I163
I2
F0.125
S'last'
p1252
tp1253
a(I163
I2
F-0.5
S'long'
p1254
tp1255
a(I177
I4
F-0.75
S'short'
p1256
tp1257
a(I199
I1
F1.0
S'good'
p1258
tp1259
as(S'motorola'
p1260
S'razr'
p1261
tp1262
(lp1263
(I16
I0
F-0.625
S'want'
p1264
tp1265
a(I16
I0
F-0.25
S'thin'
p1266
tp1267
a(I25
I1
F0.375
g224
tp1268
a(I34
I4
F-0.375
S'black'
p1269
tp1270
a(I71
I0
F0.375
g94
tp1271
a(I71
I4
F0.25
g96
tp1272
a(I75
I0
I0
g98
tp1273
a(I109
I33
F1.0
S'good'
p1274
tp1275
a(I185
I9
I0
S'more'
p1276
tp1277
as(S'cell'
p1278
tp1279
(lp1280
(I1
I29
I0
S'most'
p1281
tp1282
a(I16
I0
F1.0
S'best'
p1283
tp1284
a(I18
I4
I0
S'old'
p1285
tp1286
a(I34
I3
F0.375
S'new'
p1287
tp1288
a(I49
I1
F-0.625
S'other'
p1289
tp1290
a(I67
I41
F-0.5
S'heavy'
p1291
tp1292
a(I71
I39
F1.0
S'good'
p1293
tp1294
a(I74
I0
I0
S'current'
p1295
tp1296
a(I74
I1
F0.375
S'new'
p1297
tp1298
a(I114
I2
F0.125
S'last'
p1299
tp1300
a(I114
I7
F1.0
S'good'
p1301
tp1302
a(I114
I7
F-0.625
S'other'
p1303
tp1304
a(I120
I11
I0
S'old'
p1305
tp1306
a(I137
I3
F0.375
S'new'
p1307
tp1308
a(I139
I3
F-0.125
S'ultimate'
p1309
tp1310
a(I148
I0
I0
S'great'
p1311
tp1312
a(I153
I32
F-0.75
S'care'
p1313
tp1314
a(I160
I1
F0.375
S'new'
p1315
tp1316
a(I167
I1
F0.625
S'sexiest'
p1317
tp1318
a(I192
I11
F0.5
S'drive'
p1319
tp1320
a(I200
I0
F0.125
S'first'
p1321
tp1322
a(I200
I0
F-0.625
S'other'
p1323
tp1324
a(I203
I10
F0.625
S'decent'
p1325
tp1326
a(I210
I4
F1.0
S'best'
p1327
tp1328
a(I222
I1
F0.875
S'reputable'
p1329
tp1330
as(S'ring'
p1331
S'tone'
p1332
tp1333
(lp1334
(I163
I9
I0
S'different'
p1335
tp1336
a(I192
I7
I0
S'own'
p1337
tp1338
as(S'speaker'
p1339
tp1340
(lp1341
(I47
I3
F0.875
S'nice'
p1342
tp1343
a(I47
I3
F0.5
S'clear'
p1344
tp1345
a(I153
I10
F-0.875
S'hard'
p1346
tp1347
a(I153
I43
F-0.25
S'low'
p1348
tp1349
a(I180
I3
I0
S'great'
p1350
tp1351
a(I205
I4
F-0.25
S'highest'
p1352
tp1353
a(I214
I0
I0
S'incredible'
p1354
tp1355
as(S'mini'
p1356
S'usb'
p1357
tp1358
(lp1359
(I147
I3
I0
g934
tp1360
as(S'time'
p1361
tp1362
(lp1363
(I11
I3
F-0.5
g838
tp1364
a(I31
I10
F-0.5
S'open'
p1365
tp1366
a(I41
I0
F-0.5
g840
tp1367
a(I58
I6
F0.375
S'much'
p1368
tp1369
a(I63
I10
F0.125
S'first'
p1370
tp1371
a(I63
I16
I0
S'same'
p1372
tp1373
a(I83
I5
F-0.5
S'less'
p1374
tp1375
a(I83
I5
F0.625
S'convenient'
p1376
tp1377
a(I84
I0
F0.125
S'visible'
p1378
tp1379
a(I92
I0
F0.5
S'second'
p1380
tp1381
a(I107
I0
F-0.5
g842
tp1382
a(I109
I42
F-0.375
S'top'
p1383
tp1384
a(I117
I0
F-0.5
g844
tp1385
a(I129
I30
F-0.5
g846
tp1386
a(I140
I9
I0
S'most'
p1387
tp1388
a(I164
I30
F0.125
g848
tp1389
a(I174
I2
F-0.875
S'worst'
p1390
tp1391
a(I180
I0
F-0.5
g850
tp1392
a(I184
I3
F0.625
S'easy'
p1393
tp1394
a(I193
I3
F-0.875
S'hard'
p1395
tp1396
a(I195
I8
F-0.75
S'difficult'
p1397
tp1398
a(I203
I2
I0
S'big'
p1399
tp1400
a(I203
I13
F-0.5
g852
tp1401
a(I209
I19
F0.125
S'first'
p1402
tp1403
a(I209
I41
F0.125
S'first'
p1404
tp1405
a(I219
I2
I0
S'same'
p1406
tp1407
a(I220
I31
F0.5
S'strong'
p1408
tp1409
a(I220
I31
I0
S'plastic'
p1410
tp1411
as(S'looking'
p1412
tp1413
(lp1414
(I45
I0
I0
S'cool'
p1415
tp1416
a(I64
I0
F-0.75
S'short'
p1417
tp1418
a(I64
I0
I0
S'great'
p1419
tp1420
a(I119
I0
I0
S'great'
p1421
tp1422
a(I129
I23
F0.625
S'chic'
p1423
tp1424
a(I129
I25
F0.875
S'nice'
p1425
tp1426
a(I156
I0
F-0.25
S'thin'
p1427
tp1428
a(I156
I0
I0
S'cool'
p1429
tp1430
a(I160
I29
F0.5
S'expensive'
p1431
tp1432
a(I170
I0
I0
S'sleek'
p1433
tp1434
a(I170
I0
I0
S'such'
p1435
tp1436
a(I173
I0
I0
S'great'
p1437
tp1438
a(I204
I2
I0
S'great'
p1439
tp1440
as(S'bluetooth'
p1441
S'headset'
p1442
tp1443
(lp1444
(I33
I11
I0
S'handy'
p1445
tp1446
a(I72
I3
F-0.625
S'free'
p1447
tp1448
as(S'pocket'
p1449
tp1450
(lp1451
(I1
I26
I0
g140
tp1452
a(I1
I26
F-0.75
g142
tp1453
a(I1
I28
F-0.75
g144
tp1454
a(I118
I1
F0.625
g146
tp1455
a(I121
I2
F0.625
g148
tp1456
a(I163
I1
F-0.25
g150
tp1457
a(I190
I2
F-0.625
g152
tp1458
a(I215
I4
F-0.625
g154
tp1459
as(S'razr'
p1460
tp1461
(lp1462
(I7
I0
F0.5
S'second'
p1463
tp1464
a(I16
I0
F-0.625
g1264
tp1465
a(I16
I0
F-0.25
g1266
tp1466
a(I25
I1
F0.375
g224
tp1467
a(I34
I4
F-0.375
g1269
tp1468
a(I38
I8
I0
S'third'
p1469
tp1470
a(I45
I15
F-0.375
S'black'
p1471
tp1472
a(I63
I5
F0.125
S'first'
p1473
tp1474
a(I63
I9
F0.5
S'second'
p1475
tp1476
a(I63
I18
F0.375
S'reliable'
p1477
tp1478
a(I69
I0
F0.5
S'obvious'
p1479
tp1480
a(I69
I0
F-0.375
S'small'
p1481
tp1482
a(I69
I0
F0.875
S'attractive'
p1483
tp1484
a(I69
I12
F0.375
S'new'
p1485
tp1486
a(I71
I15
I0
S'exclusive'
p1487
tp1488
a(I71
I20
F-0.625
S'light'
p1489
tp1490
a(I88
I8
I0
S'economical'
p1491
tp1492
a(I89
I6
F-0.5
g226
tp1493
a(I106
I14
I0
S'large'
p1494
tp1495
a(I106
I25
F0.875
S'nice'
p1496
tp1497
a(I109
I33
F1.0
g1274
tp1498
a(I130
I11
F-0.25
S'thin'
p1499
tp1500
a(I135
I0
F0.125
S'first'
p1501
tp1502
a(I140
I11
F0.125
S'last'
p1503
tp1504
a(I140
I26
F0.375
S'new'
p1505
tp1506
a(I160
I28
F0.5
S'expensive'
p1507
tp1508
a(I164
I3
F0.5
g228
tp1509
a(I180
I17
I0
S'skinny'
p1510
tp1511
a(I185
I9
I0
g1276
tp1512
a(I186
I16
F-0.875
S'negative'
p1513
tp1514
a(I186
I19
F-0.375
S'black'
p1515
tp1516
a(I197
I4
F-0.625
S'bad'
p1517
tp1518
a(I197
I4
F0.625
S'superior'
p1519
tp1520
a(I211
I6
F0.125
S'last'
p1521
tp1522
as(S'looks'
p1523
tp1524
(lp1525
(I3
I0
I0
S'great'
p1526
tp1527
a(I16
I0
F1.0
S'best'
p1528
tp1529
a(I50
I3
F0.625
S'superior'
p1530
tp1531
a(I50
I3
I0
S'striking'
p1532
tp1533
a(I50
I3
F1.0
S'good'
p1534
tp1535
a(I102
I1
F0.125
S'first'
p1536
tp1537
a(I183
I2
F0.875
S'nice'
p1538
tp1539
a(I193
I2
I0
S'great'
p1540
tp1541
a(I209
I0
F-0.625
S'bad'
p1542
tp1543
as(S'screen'
p1544
tp1545
(lp1546
(I1
I30
I0
S'large'
p1547
tp1548
a(I3
I0
I0
S'big'
p1549
tp1550
a(I4
I2
F0.125
S'first'
p1551
tp1552
a(I4
I2
F-0.75
S'impossible'
p1553
tp1554
a(I31
I6
F-0.875
S'hard'
p1555
tp1556
a(I31
I6
F-0.625
S'clean'
p1557
tp1558
a(I33
I8
F0.875
S'nice'
p1559
tp1560
a(I33
I8
I0
S'big'
p1561
tp1562
a(I35
I8
F0.125
S'impressive'
p1563
tp1564
a(I43
I11
I0
S'large'
p1565
tp1566
a(I43
I11
F0.5
S'clear'
p1567
tp1568
a(I46
I0
I0
S'cool'
p1569
tp1570
a(I46
I0
I0
S'big'
p1571
tp1572
a(I49
I6
I0
S'great'
p1573
tp1574
a(I51
I8
F0.5
S'clear'
p1575
tp1576
a(I61
I9
F-0.75
S'worse'
p1577
tp1578
a(I63
I3
I0
S'big'
p1579
tp1580
a(I71
I34
F0.375
S'much'
p1581
tp1582
a(I75
I2
I0
S'incredible'
p1583
tp1584
a(I75
I3
F0.5
S'clear'
p1585
tp1586
a(I86
I5
F0.25
S'main'
p1587
tp1588
a(I87
I32
I0
S'wide'
p1589
tp1590
a(I100
I7
I0
S'large'
p1591
tp1592
a(I114
I8
F0.875
S'nice'
p1593
tp1594
a(I114
I8
F-0.75
S'dark'
p1595
tp1596
a(I114
I8
I0
S'same'
p1597
tp1598
a(I116
I8
F0.875
S'nice'
p1599
tp1600
a(I116
I8
I0
S'big'
p1601
tp1602
a(I116
I8
F-0.875
S'hard'
p1603
tp1604
a(I116
I11
I0
S'toggle'
p1605
tp1606
a(I119
I0
I0
S'great'
p1607
tp1608
a(I139
I5
I0
S'hot'
p1609
tp1610
a(I140
I16
F-0.375
S'top'
p1611
tp1612
a(I156
I6
I0
S'large'
p1613
tp1614
a(I165
I1
F0.25
S'larger'
p1615
tp1616
a(I166
I5
F0.75
S'beautiful'
p1617
tp1618
a(I167
I6
F-0.75
S'bright'
p1619
tp1620
a(I169
I10
I0
S'crystal'
p1621
tp1622
a(I169
I10
F0.5
S'clear'
p1623
tp1624
a(I170
I3
I0
S'large'
p1625
tp1626
a(I170
I3
I0
S'great'
p1627
tp1628
a(I172
I7
F-0.75
S'bright'
p1629
tp1630
a(I172
I7
F-0.625
S'light'
p1631
tp1632
a(I172
I8
F-0.375
S'black'
p1633
tp1634
a(I200
I1
F0.875
S'nice'
p1635
tp1636
a(I203
I11
I0
S'full'
p1637
tp1638
a(I205
I4
F-0.75
S'difficult'
p1639
tp1640
a(I209
I11
I0
S'external'
p1641
tp1642
a(I209
I12
I0
S'external'
p1643
tp1644
a(I209
I18
I0
S'more'
p1645
tp1646
a(I209
I23
I0
S'internal'
p1647
tp1648
a(I211
I5
F-0.75
S'impossible'
p1649
tp1650
a(I211
I5
F0.125
S'outside'
p1651
tp1652
a(I213
I8
F-0.75
S'bright'
p1653
tp1654
a(I221
I7
I0
S'entire'
p1655
tp1656
a(I221
I7
F-0.25
S'white'
p1657
tp1658
a(I221
I15
F-0.25
S'white'
p1659
tp1660
as(S'look'
p1661
tp1662
(lp1663
(I45
I1
F-0.125
S'overall'
p1664
tp1665
a(I126
I0
F0.75
S'due'
p1666
tp1667
a(I126
I0
I0
S'great'
p1668
tp1669
as(S'camera'
p1670
tp1671
(lp1672
(I1
I15
I0
S'more'
p1673
tp1674
a(I1
I15
F0.625
S'interested'
p1675
tp1676
a(I1
I15
F0.25
S'portable'
p1677
tp1678
a(I1
I15
F0.5
S'expensive'
p1679
tp1680
a(I1
I15
F0.125
S'digital'
p1681
tp1682
a(I12
I4
I0
S'useful'
p1683
tp1684
a(I31
I4
I0
S'great'
p1685
tp1686
a(I33
I10
F1.0
S'good'
p1687
tp1688
a(I42
I2
F1.0
S'good'
p1689
tp1690
a(I47
I3
F0.875
S'nice'
p1691
tp1692
a(I50
I9
F1.0
S'good'
p1693
tp1694
a(I61
I10
I0
S'third'
p1695
tp1696
a(I69
I11
I0
S'more'
p1697
tp1698
a(I71
I31
F0.375
S'much'
p1699
tp1700
a(I75
I2
I0
S'cable'
p1701
tp1702
a(I81
I2
F-0.75
S'damaged'
p1703
tp1704
a(I83
I1
F0.125
S'digital'
p1705
tp1706
a(I84
I3
F0.375
S'much'
p1707
tp1708
a(I87
I27
I0
S'great'
p1709
tp1710
a(I91
I1
I0
S'big'
p1711
tp1712
a(I91
I2
F-0.625
S'bad'
p1713
tp1714
a(I115
I4
F1.0
S'good'
p1715
tp1716
a(I120
I9
F-0.5
S'poor'
p1717
tp1718
a(I137
I1
F-0.625
S'bad'
p1719
tp1720
a(I140
I15
F-0.5
S'actual'
p1721
tp1722
a(I141
I4
I0
S'great'
p1723
tp1724
a(I142
I2
I0
S'great'
p1725
tp1726
a(I151
I1
I0
S'most'
p1727
tp1728
a(I152
I13
I0
S'keypad'
p1729
tp1730
a(I159
I3
F1.0
S'good'
p1731
tp1732
a(I160
I28
I0
S'great'
p1733
tp1734
a(I160
I31
F1.0
S'good'
p1735
tp1736
a(I161
I1
F1.0
S'good'
p1737
tp1738
a(I163
I6
F1.0
S'good'
p1739
tp1740
a(I169
I3
I0
S'blue'
p1741
tp1742
a(I172
I11
F-0.875
S'awful'
p1743
tp1744
a(I176
I7
F0.5
S'upgraded'
p1745
tp1746
a(I180
I3
F0.625
S'decent'
p1747
tp1748
a(I189
I6
F0.375
S'new'
p1749
tp1750
a(I199
I5
I0
S'least'
p1751
tp1752
a(I199
I5
I0
S'useful'
p1753
tp1754
a(I204
I0
I0
S'great'
p1755
tp1756
a(I209
I53
I0
S'real'
p1757
tp1758
a(I214
I1
F-0.625
S'bad'
p1759
tp1760
as(S'bluetooth'
p1761
tp1762
(lp1763
(I24
I2
I0
S'great'
p1764
tp1765
a(I33
I11
I0
g1445
tp1766
a(I138
I4
F0.625
S'easy'
p1767
tp1768
a(I147
I6
I0
S'own'
p1769
tp1770
a(I166
I7
F0.125
S'able'
p1771
tp1772
a(I177
I5
I0
S'real'
p1773
tp1774
as(S'to'
p1775
g130
S'ear'
p1776
tp1777
(lp1778
(I38
I10
F0.375
S'new'
p1779
tp1780
a(I46
I3
F0.5
S'possible'
p1781
tp1782
a(I114
I7
F-0.5
S'sure'
p1783
tp1784
a(I153
I10
I0
S'next'
p1785
tp1786
a(I154
I1
I0
S'big'
p1787
tp1788
as(S'mobile'
p1789
tp1790
(lp1791
(I118
I0
F-0.25
S'thinnest'
p1792
tp1793
a(I118
I0
F-0.625
S'lightest'
p1794
tp1795
a(I118
I0
F0.125
S'practical'
p1796
tp1797
a(I118
I5
F-0.125
S'overall'
p1798
tp1799
as(S'pictures'
p1800
tp1801
(lp1802
(I21
I7
I0
S'great'
p1803
tp1804
a(I46
I0
F0.5
S'clear'
p1805
tp1806
a(I67
I9
F-0.125
S'delete'
p1807
tp1808
a(I67
I38
I0
S'many'
p1809
tp1810
a(I173
I1
F-0.125
S'slow'
p1811
tp1812
a(I173
I1
F-0.625
S'bad'
p1813
tp1814
as(S'people'
p1815
tp1816
(lp1817
(I25
I2
I0
S'most'
p1818
tp1819
a(I25
I6
I0
S'most'
p1820
tp1821
a(I43
I4
F-0.625
S'other'
p1822
tp1823
a(I50
I11
F0.875
S'important'
p1824
tp1825
a(I71
I22
F-0.625
S'other'
p1826
tp1827
a(I71
I23
F-0.5
S'exclaim'
p1828
tp1829
a(I73
I1
I0
S'most'
p1830
tp1831
a(I95
I10
F-0.625
S'other'
p1832
tp1833
a(I98
I2
F-0.625
S'unlike'
p1834
tp1835
a(I98
I2
I0
S'many'
p1836
tp1837
a(I98
I8
I0
S'wide'
p1838
tp1839
a(I98
I10
I0
S'most'
p1840
tp1841
a(I99
I4
I0
S'many'
p1842
tp1843
a(I99
I4
F0.375
S'knew'
p1844
tp1845
a(I103
I4
F-0.625
S'other'
p1846
tp1847
a(I109
I49
I0
S'many'
p1848
tp1849
a(I109
I49
F-0.625
S'other'
p1850
tp1851
a(I109
I60
I0
S'most'
p1852
tp1853
a(I120
I41
I0
S'many'
p1854
tp1855
a(I129
I36
I0
S'more'
p1856
tp1857
a(I160
I14
F-0.375
S'manual'
p1858
tp1859
a(I160
I14
I0
S'many'
p1860
tp1861
a(I167
I3
I0
S'most'
p1862
tp1863
a(I172
I10
F-0.625
S'other'
p1864
tp1865
a(I184
I3
F-0.25
S'cheaper'
p1866
tp1867
a(I193
I11
F1.0
S'good'
p1868
tp1869
a(I204
I4
I0
S'few'
p1870
tp1871
a(I208
I6
F-0.625
S'other'
p1872
tp1873
as(S'tons'
p1874
tp1875
(lp1876
(I184
I5
F0.125
S'first'
p1877
tp1878
as(S'feature'
p1879
tp1880
(lp1881
(I17
I2
F1.0
S'best'
p1882
tp1883
a(I26
I2
I0
S'same'
p1884
tp1885
a(I67
I10
I0
S'great'
p1886
tp1887
a(I67
I17
I0
S'cool'
p1888
tp1889
a(I109
I63
F-0.375
S'simple'
p1890
tp1891
a(I120
I16
F-0.625
S'unusual'
p1892
tp1893
a(I197
I3
I0
S'most'
p1894
tp1895
a(I197
I3
F0.875
S'important'
p1896
tp1897
a(I209
I23
F0.5
S'second'
p1898
tp1899
a(I209
I23
I0
S'most'
p1900
tp1901
a(I209
I23
F0.875
S'attractive'
p1902
tp1903
a(I209
I57
F-0.75
S'likely'
p1904
tp1905
as(S'works'
p1906
tp1907
(lp1908
(I43
I5
I0
S'great'
p1909
tp1910
a(I45
I3
F-0.125
S'mine'
p1911
tp1912
a(I45
I3
I0
S'great'
p1913
tp1914
as(S'headset'
p1915
tp1916
(lp1917
(I67
I12
I0
S'crystal'
p1918
tp1919
a(I67
I12
F0.5
S'clear'
p1920
tp1921
a(I72
I3
F-0.625
g1447
tp1922
a(I106
I3
I0
S'standard'
p1923
tp1924
a(I106
I6
I0
S'standard'
p1925
tp1926
a(I133
I7
I0
S'great'
p1927
tp1928
a(I153
I40
I0
S'great'
p1929
tp1930
a(I222
I18
I0
S'only'
p1931
tp1932
a(I222
I18
F0.375
S'available'
p1933
tp1934
as(S'ear'
p1935
S'piece'
p1936
S'volume'
p1937
tp1938
(lp1939
(I114
I7
F0.75
S'ear'
p1940
tp1941
a(I114
I7
F-0.25
g413
tp1942
a(I114
I7
F-0.5
g1783
tp1943
a(I114
I7
F-0.25
g415
tp1944
a(I114
I7
F-0.25
g417
tp1945
a(I114
I8
F0.75
S'ear'
p1946
tp1947
a(I205
I4
F-0.25
g425
tp1948
as(S'better'
p1949
tp1950
(lp1951
(I5
I11
F0.375
S'much'
p1952
tp1953
a(I45
I15
F-0.125
S'mine'
p1954
tp1955
a(I88
I1
F0.375
S'much'
p1956
tp1957
a(I148
I5
F0.375
S'much'
p1958
tp1959
a(I148
I5
F-0.625
S'average'
p1960
tp1961
a(I171
I14
F0.375
S'much'
p1962
tp1963
as(S'call'
p1964
tp1965
(lp1966
(I62
I3
F-0.25
S'low'
p1967
tp1968
a(I71
I41
F0.125
S'able'
p1969
tp1970
a(I87
I37
F-0.5
S'open'
p1971
tp1972
a(I114
I2
F-0.625
S'free'
p1973
tp1974
a(I114
I2
I0
S'mobile'
p1975
tp1976
a(I129
I7
F0.5
S'clear'
p1977
tp1978
a(I129
I7
I0
S'more'
p1979
tp1980
a(I129
I7
I0
S'few'
p1981
tp1982
a(I177
I6
F-0.375
S'simple'
p1983
tp1984
a(I209
I33
F0.5
S'clear'
p1985
tp1986
a(I218
I5
I0
S'current'
p1987
tp1988
a(I220
I42
F-0.625
S'sorry'
p1989
tp1990
as(S'light'
p1991
tp1992
(lp1993
(I43
I12
F-0.75
S'bright'
p1994
tp1995
a(I100
I20
F0.625
S'easy'
p1996
tp1997
a(I109
I18
I0
S'blue'
p1998
tp1999
a(I221
I2
I0
S'ample'
p2000
tp2001
a(I221
I2
F-0.125
S'overall'
p2002
tp2003
a(I221
I15
I0
S'blue'
p2004
tp2005
as(g136
S'address'
p2006
S'book'
p2007
tp2008
(lp2009
(I50
I10
I0
g246
tp2010
a(I114
I3
F-0.125
g248
tp2011
a(I114
I3
F-0.5
g250
tp2012
a(I114
I4
I0
g252
tp2013
as(g593
S'bluetooth'
p2014
S'headset'
p2015
tp2016
(lp2017
(I33
I11
I0
g1445
tp2018
a(I72
I3
F-0.625
g1447
tp2019
as(S'days'
p2020
tp2021
(lp2022
(I29
I4
F-0.5
S'sure'
p2023
tp2024
a(I29
I4
F-0.25
S'past'
p2025
tp2026
a(I29
I4
I0
S'initial'
p2027
tp2028
a(I33
I5
I0
S'full'
p2029
tp2030
a(I77
I5
I0
S'later'
p2031
tp2032
a(I77
I5
I0
S'later'
p2033
tp2034
a(I109
I71
I0
S'least'
p2035
tp2036
a(I109
I71
I0
S'full'
p2037
tp2038
a(I114
I2
F-0.625
S'average'
p2039
tp2040
a(I148
I10
F1.0
S'good'
p2041
tp2042
a(I171
I17
I0
S'old'
p2043
tp2044
a(I187
I0
I0
S'few'
p2045
tp2046
a(I204
I5
I0
S'few'
p2047
tp2048
a(I210
I2
F-0.5
S'less'
p2049
tp2050
a(I221
I15
F-0.25
S'past'
p2051
tp2052
as(S'calls'
p2053
tp2054
(lp2055
(I1
I22
I0
S'voicemail'
p2056
tp2057
a(I21
I4
F-0.25
S'dropped'
p2058
tp2059
a(I64
I3
F-0.5
S'separate'
p2060
tp2061
a(I87
I69
F0.125
S'able'
p2062
tp2063
a(I87
I69
I0
S'such'
p2064
tp2065
a(I92
I1
F-0.875
S'trouble'
p2066
tp2067
a(I116
I11
F0.25
S'recent'
p2068
tp2069
a(I116
I11
F0.125
S'last'
p2070
tp2071
a(I116
I12
I0
S'same'
p2072
tp2073
a(I129
I7
I0
S'many'
p2074
tp2075
a(I167
I4
I0
S'cellular'
p2076
tp2077
a(I204
I0
F-0.25
S'dropped'
p2078
tp2079
a(I209
I40
I0
S'crystal'
p2080
tp2081
a(I209
I40
F0.5
S'clear'
p2082
tp2083
a(I213
I2
F-0.25
S'dropped'
p2084
tp2085
a(I219
I3
I0
S'many'
p2086
tp2087
as.