(dp0
(S'cheap'
p1
S'plastic'
p2
tp3
(lp4
(I5
I251
I0
S'plastic'
p5
I2
tp6
as(S'exchange'
p7
S'server'
p8
tp9
(lp10
(I2
I52
I-100
S'mailstreet'
p11
I0
tp12
as(S'keyboard'
p13
tp14
(lp15
(I2
I34
I0
S'full'
p16
I2
tp17
a(I4
I5
F-0.5
S'actual'
p18
I2
tp19
a(I5
I86
I0
S'same'
p20
I2
tp21
a(I5
I86
F1.0
S'good'
p22
I2
tp23
a(I5
I238
I0
S'great'
p24
I2
tp25
a(I5
I309
F1.0
S'good'
p26
I2
tp27
a(I6
I201
I0
S'handy'
p28
I2
tp29
a(I6
I403
I0
S'real'
p30
I2
tp31
a(I6
I490
I0
S'full'
p32
I2
tp33
a(I6
I534
F-0.75
S'difficult'
p34
I2
tp35
a(I8
I46
F0.75
S'beautiful'
p36
I2
tp37
a(I8
I46
F0.5
S'functional'
p38
I2
tp39
as(S'email'
p40
tp41
(lp42
(I5
I244
F-0.25
S'cheaper'
p43
I5
tp44
a(I5
I259
I0
S'website'
p45
I5
tp46
a(I5
I269
I0
S'instant'
p47
I5
tp48
a(I5
I288
F0.375
S'extra'
p49
I5
tp50
a(I5
I313
I0
S'quick'
p51
I5
tp52
a(I5
I313
I0
S'corporate'
p53
I5
tp54
a(I6
I21
F0.625
S'easy'
p55
I5
tp56
a(I6
I24
F-0.625
S'push'
p57
I5
tp58
a(I6
I87
F-0.625
S'push'
p59
I5
tp60
a(I6
I155
F0.625
S'easy'
p61
I5
tp62
a(I6
I282
F-0.625
S'other'
p63
I5
tp64
a(I6
I337
F0.5
S'functional'
p65
I5
tp66
a(I6
I387
I0
S'instant'
p67
I5
tp68
a(I6
I542
F0.375
S'reliable'
p69
I5
tp70
a(I8
I29
F1.0
S'good'
p71
I5
tp72
as(S'memory'
p73
S'card'
p74
tp75
(lp76
(I5
I272
F-0.375
S'small'
p77
I0
tp78
a(I6
I90
F-0.5
S'separate'
p79
I0
tp80
as(S'text'
p81
tp82
(lp83
(I5
I151
I0
S'e-mail'
p84
I18
tp85
as(S'i.'
p86
S'e.'
p87
tp88
(lp89
(I5
I285
I-100
S'//mail'
p90
I0
tp91
as(S'camera'
p92
tp93
(lp94
(I3
I10
F0.5
S'clear'
p95
I1
tp96
a(I3
I10
F1.0
S'good'
p97
I1
tp98
a(I6
I197
I0
S'common'
p99
I1
tp100
a(I6
I235
I0
S'great'
p101
I1
tp102
a(I6
I261
I0
S'useful'
p103
I1
tp104
a(I6
I383
I0
S'great'
p105
I1
tp106
a(I6
I499
I0
S'dig'
p107
I1
tp108
a(I6
I501
F0.125
S'digital'
p109
I1
tp110
a(I8
I29
F1.0
S'good'
p111
I1
tp112
a(I8
I101
F0.25
S'used'
p113
I1
tp114
as(S'hot'
p115
S'spot'
p116
tp117
(lp118
(I2
I66
I0
S'hot'
p119
I0
tp120
a(I8
I86
I0
S'hot'
p121
I0
tp122
as(S'operating'
p123
S'system'
p124
tp125
(lp126
(I2
I12
F0.625
S'easy'
p127
I2
tp128
a(I5
I66
F1.0
S'better'
p129
I2
tp130
a(I7
I9
F0.375
S'new'
p131
I2
tp132
as(S'iphone'
p133
tp134
(lp135
(I4
I29
I0
S'great'
p136
I1
tp137
a(I5
I46
F0.375
S'new'
p138
I1
tp139
a(I6
I308
F0.875
S'happier'
p140
I1
tp141
as(S'reception'
p142
tp143
(lp144
(I5
I70
F-0.5
S'poor'
p145
I0
tp146
a(I5
I71
F-0.5
S'poor'
p147
I0
tp148
a(I5
I181
F-0.875
S'worst'
p149
I0
tp150
a(I5
I193
F-0.875
S'awful'
p151
I0
tp152
a(I5
I194
F-0.625
S'other'
p153
I0
tp154
a(I5
I315
F-0.5
S'poor'
p155
I0
tp156
a(I6
I237
F1.0
S'good'
p157
I0
tp158
a(I6
I314
F-0.5
S'poor'
p159
I0
tp160
as(S'battery'
p161
S'life'
p162
tp163
(lp164
(I6
I196
F0.125
S'impressive'
p165
I1
tp166
as(S'internet'
p167
tp168
(lp169
(I5
I241
I-100
S'email/unlim'
p170
I6
tp171
a(I6
I107
F0.625
S'responsible'
p172
I6
tp173
a(I6
I193
F0.5
S'satisfactory'
p174
I6
tp175
a(I7
I23
F-0.125
S'slow'
p176
I6
tp177
a(I7
I31
F-0.125
S'slow'
p178
I6
tp179
a(I7
I31
F-0.125
S'slow'
p180
I6
tp181
a(I7
I31
F-0.125
S'slow'
p182
I6
tp183
a(I8
I20
F1.0
S'good'
p184
I6
tp185
a(I8
I52
F0.125
S'usual'
p186
I6
tp187
as(S'signal'
p188
tp189
(lp190
(I0
I25
F-0.625
S'bad'
p191
I1
tp192
a(I0
I25
F1.0
S'better'
p193
I1
tp194
a(I5
I306
F0.5
S'strong'
p195
I1
tp196
a(I5
I306
F0.375
S'reliable'
p197
I1
tp198
a(I8
I64
F0.125
S'impressive'
p199
I1
tp200
a(I8
I98
F0.5
S'strong'
p201
I1
tp202
a(I8
I99
F0.125
S'able'
p203
I1
tp204
a(I8
I99
I0
S'most'
p205
I1
tp206
as(S'wi'
p207
S'fi'
p208
S'calling'
p209
tp210
(lp211
(I6
I103
F0.375
S'available'
p212
I0
tp213
a(I6
I104
F0.375
S'available'
p214
I0
tp215
a(I6
I108
I0
S'overseas'
p216
I0
tp217
a(I6
I103
F0.375
g212
I0
tp218
a(I6
I104
F0.375
g214
I0
tp219
a(I6
I108
I0
g216
I0
tp220
a(I6
I103
F0.375
g212
I0
tp221
a(I6
I104
F0.375
g214
I0
tp222
a(I6
I108
I0
g216
I0
tp223
as(S't'
p224
S'mobile'
p225
S'service'
p226
tp227
(lp228
(I0
I11
I0
S'mobile'
p229
I0
tp230
a(I1
I19
F-0.625
S'bad'
p231
I0
tp232
a(I2
I61
F-0.875
S'awful'
p233
I0
tp234
a(I5
I32
I0
S'mobile'
p235
I0
tp236
a(I5
I70
F-0.5
S'international'
p237
I0
tp238
a(I5
I257
I0
S'great'
p239
I0
tp240
a(I5
I279
F1.0
S'good'
p241
I0
tp242
a(I6
I75
F1.0
S'better'
p243
I0
tp244
a(I6
I405
I0
S'great'
p245
I0
tp246
a(I0
I11
I0
g229
I0
tp247
a(I1
I19
F-0.625
g231
I0
tp248
a(I2
I61
F-0.875
g233
I0
tp249
a(I5
I70
F-0.5
g237
I0
tp250
a(I5
I257
I0
g239
I0
tp251
a(I5
I279
F1.0
g241
I0
tp252
a(I6
I75
F1.0
g243
I0
tp253
a(I6
I405
I0
g245
I0
tp254
a(I0
I7
I0
S'cool'
p255
I16
tp256
a(I0
I11
I0
g229
I16
tp257
a(I1
I19
F-0.625
g231
I16
tp258
a(I2
I13
F-0.625
S'free'
p259
I16
tp260
a(I2
I13
F1.0
S'good'
p261
I16
tp262
a(I2
I61
F-0.875
g233
I16
tp263
a(I5
I70
F-0.5
g237
I16
tp264
a(I5
I257
I0
g239
I16
tp265
a(I5
I279
F1.0
g241
I16
tp266
a(I6
I75
F1.0
g243
I16
tp267
a(I6
I356
F1.0
S'better'
p268
I16
tp269
a(I6
I405
I0
g245
I16
tp270
a(I6
I473
F1.0
S'good'
p271
I16
tp272
a(I6
I520
F-0.875
S'worst'
p273
I16
tp274
a(I6
I540
I0
S'monthly'
p275
I16
tp276
a(I6
I540
I0
S'monthly'
p277
I16
tp278
a(I8
I81
I-100
S'comparison.-'
p279
I16
tp280
a(I8
I111
F-0.5
S'regular'
p281
I0
tp282
as(S'wi'
p283
S'fi'
p284
S'network'
p285
tp286
(lp287
(I6
I103
I0
S'permissible'
p288
I0
tp289
a(I4
I7
I0
S'adequate'
p290
I0
tp291
a(I6
I61
F-0.125
S'slow'
p292
I0
tp293
a(I6
I61
F0.875
S'happy'
p294
I0
tp295
a(I6
I103
I0
g288
I0
tp296
a(I8
I82
I0
S'different'
p297
I0
tp298
a(I8
I103
F0.375
S'reliable'
p299
I0
tp300
as(S'hotspot'
p301
S'home'
p302
tp303
(lp304
(I5
I295
I0
S'own'
p305
I0
tp306
as(S'address'
p307
S'book'
p308
tp309
(lp310
(I6
I147
I0
S'dial'
p311
I0
tp312
as(S'home'
p313
S'service'
p314
tp315
(lp316
(I5
I295
I0
g305
I0
tp317
a(I6
I75
F1.0
g243
I0
tp318
a(I6
I356
F1.0
g268
I0
tp319
as(S'browser'
p320
tp321
(lp322
(I5
I58
F1.0
S'good'
p323
I0
tp324
a(I6
I327
F0.5
S'functional'
p325
I0
tp326
a(I8
I31
F-0.5
S'poor'
p327
I0
tp328
a(I8
I34
F-0.625
S'bad'
p329
I0
tp330
as(S'e'
p331
S'mail'
p332
tp333
(lp334
(I5
I281
I0
S'corporate'
p335
I2
tp336
a(I5
I284
F-0.375
S'pull'
p337
I2
tp338
a(I5
I284
I0
S'corporate'
p339
I2
tp340
a(I6
I338
I0
S'full'
p341
I2
tp342
a(I5
I281
I0
g335
I13
tp343
a(I5
I284
F-0.375
g337
I13
tp344
a(I5
I284
I0
g339
I13
tp345
a(I6
I338
I0
g341
I13
tp346
as(S'media'
p347
S'player'
p348
tp349
(lp350
(I4
I2
I0
S'great'
p351
I0
tp352
a(I4
I2
I0
g351
I16
tp353
a(I6
I263
F0.25
S'larger'
p354
I16
tp355
as(S'sim'
p356
S'card'
p357
tp358
(lp359
(I5
I77
F0.375
S'new'
p360
I0
tp361
a(I6
I310
I0
S'different'
p362
I0
tp363
as(S'opera'
p364
S'mini'
p365
tp366
(lp367
(I6
I365
F0.625
S'easy'
p368
I0
tp369
as(S'blackberry'
p370
S'curve'
p371
tp372
(lp373
(I5
I156
I0
S'current'
p374
I0
tp375
a(I6
I48
F0.125
S'able'
p376
I0
tp377
a(I6
I160
F0.125
S'popular'
p378
I0
tp379
a(I6
I303
F0.125
S'last'
p380
I0
tp381
a(I5
I18
I0
S'third'
p382
I8
tp383
a(I5
I18
F0.125
S'first'
p384
I8
tp385
a(I5
I26
I0
S'latest'
p386
I8
tp387
a(I5
I38
F-0.625
S'light'
p388
I8
tp389
a(I5
I38
F-0.75
S'comfortable'
p390
I8
tp391
a(I5
I85
I0
S'switched'
p392
I8
tp393
a(I5
I177
F0.125
S'first'
p394
I8
tp395
a(I5
I319
F-0.375
S'smaller'
p396
I8
tp397
a(I5
I319
F-0.625
S'lighter'
p398
I8
tp399
a(I6
I48
F0.125
g376
I8
tp400
a(I6
I160
F0.125
g378
I8
tp401
a(I6
I177
F-0.625
S'other'
p402
I8
tp403
a(I6
I341
I0
S'great'
p404
I8
tp405
a(I6
I407
F0.75
S'worth'
p406
I8
tp407
a(I0
I16
F-0.5
S'suspect'
p408
I1
tp409
a(I1
I1
F1.0
S'best'
p410
I1
tp411
a(I1
I1
F-0.125
S'overall'
p412
I1
tp413
a(I5
I49
F0.375
S'new'
p414
I1
tp415
a(I5
I62
F0.125
S'able'
p416
I1
tp417
a(I5
I115
F0.75
S'give'
p418
I1
tp419
a(I5
I156
I0
g374
I1
tp420
a(I5
I236
F0.125
S'first'
p421
I1
tp422
a(I6
I20
F0.125
S'first'
p423
I1
tp424
a(I6
I93
F-0.625
S'lightest'
p425
I1
tp426
a(I6
I111
F0.5
S'true'
p427
I1
tp428
a(I6
I138
I0
S'efficient'
p429
I1
tp430
a(I6
I247
F0.625
S'easy'
p431
I1
tp432
a(I6
I303
F0.125
g380
I1
tp433
a(I6
I458
I0
S'great'
p434
I1
tp435
a(I6
I458
F-0.625
S'other'
p436
I1
tp437
a(I6
I523
F0.5
S'second'
p438
I1
tp439
a(I7
I17
F0.375
S'new'
p440
I1
tp441
a(I8
I17
F0.375
S'much'
p442
I1
tp443
a(I8
I17
F0.625
S'easier'
p444
I1
tp445
a(I8
I43
F1.0
S'good'
p446
I1
tp447
a(I8
I66
F0.125
S'first'
p448
I1
tp449
a(I8
I66
F0.125
S'last'
p450
I1
tp451
a(I8
I91
F0.125
S'first'
p452
I1
tp453
a(I8
I95
F-0.625
S'glad'
p454
I1
tp455
a(I8
I104
F0.5
S'second'
p456
I1
tp457
as(S'tech'
p458
S'support'
p459
tp460
(lp461
(I6
I128
I0
S'own'
p462
I1
tp463
as(S'wifi'
p464
S'network'
p465
tp466
(lp467
(I7
I26
F0.125
S'capable'
p468
I0
tp469
a(I8
I19
I0
S'great'
p470
I0
tp471
a(I8
I19
F1.0
S'good'
p472
I0
tp473
a(I8
I79
F-0.625
S'free'
p474
I0
tp475
a(I3
I13
I0
S'net'
p476
I0
tp477
a(I6
I101
F-0.5
S'international'
p478
I0
tp479
a(I6
I359
F0.5
S'true'
p480
I0
tp481
a(I6
I359
F-0.5
S'regular'
p482
I0
tp483
a(I6
I493
F0.625
S'easy'
p484
I0
tp485
a(I6
I497
I0
S'faster'
p486
I0
tp487
a(I7
I26
F0.125
g468
I0
tp488
a(I7
I35
F0.375
S'available'
p489
I0
tp490
a(I8
I14
I0
S'great'
p491
I0
tp492
a(I8
I19
I0
g470
I0
tp493
a(I8
I19
F1.0
g472
I0
tp494
a(I8
I27
F-0.625
S'free'
p495
I0
tp496
a(I8
I32
F-0.125
S'slow'
p497
I0
tp498
a(I8
I75
F0.5
S'clearer'
p499
I0
tp500
a(I8
I79
F-0.625
g474
I0
tp501
as(S'data'
p502
S'plan'
p503
tp504
(lp505
(I7
I34
F0.375
S'extra'
p506
I0
tp507
as(S'customer'
p508
S'service'
p509
tp510
(lp511
(I0
I7
I0
g255
I3
tp512
a(I6
I218
F1.0
S'good'
p513
I3
tp514
a(I6
I405
I0
g245
I3
tp515
a(I7
I4
F0.375
S'new'
p516
I3
tp517
a(I8
I35
F0.5
S'expensive'
p518
I3
tp519
a(I8
I36
I0
S'great'
p520
I3
tp521
a(I8
I39
F1.0
S'best'
p522
I3
tp523
a(I6
I218
F1.0
g513
I11
tp524
a(I7
I4
F0.375
g516
I11
tp525
a(I8
I35
F0.5
g518
I11
tp526
a(I8
I36
I0
g520
I11
tp527
a(I8
I39
F1.0
g522
I11
tp528
as(S'amazon'
p529
tp530
(lp531
(I5
I27
I0
S'great'
p532
I13
tp533
a(I5
I31
F-0.5
S'hassle'
p534
I13
tp535
a(I5
I31
F-0.625
S'free'
p536
I13
tp537
a(I8
I21
F0.625
S'easy'
p538
I13
tp539
as(S'treo'
p540
tp541
(lp542
(I8
I2
F0.875
S'happy'
p543
I0
tp544
a(I8
I45
I0
S'old'
p545
I0
tp546
as(S'calls'
p547
tp548
(lp549
(I2
I44
F-0.25
S'dropped'
p550
I0
tp551
a(I2
I63
F0.75
S'receive'
p552
I0
tp553
a(I5
I58
I0
S'great'
p554
I0
tp555
a(I5
I63
F0.875
S'nice'
p556
I0
tp557
a(I5
I63
I0
S'crystal'
p558
I0
tp559
a(I5
I63
F0.5
S'clear'
p560
I0
tp561
a(I5
I281
F-0.625
S'other'
p562
I0
tp563
a(I6
I238
F0.5
S'clear'
p564
I0
tp565
a(I6
I254
F0.125
S'able'
p566
I0
tp567
a(I6
I299
I0
S'few'
p568
I0
tp569
a(I6
I414
F0.5
S'clear'
p570
I0
tp571
a(I6
I493
I0
S'least'
p572
I0
tp573
as.