(dp0
(S'numbers'
p1
tp2
(lp3
(I5
I11
I0
S'dial'
p4
I11
tp5
a(I6
I48
I0
S'different'
p6
I11
tp7
a(I10
I51
I0
S'more'
p8
I11
tp9
a(I13
I95
I0
S'dial'
p10
I11
tp11
as(S'battery'
p12
S'life'
p13
tp14
(lp15
(I1
I55
F-0.5
S'poor'
p16
I1
tp17
a(I6
I78
F-0.625
S'bad'
p18
I1
tp19
a(I8
I0
F-0.625
S'light'
p20
I1
tp21
a(I8
I0
F1.0
S'good'
p22
I1
tp23
a(I8
I68
F1.0
S'good'
p24
I1
tp25
a(I13
I131
I0
S'great'
p26
I1
tp27
a(I13
I135
F-0.5
S'poor'
p28
I1
tp29
a(I13
I140
I0
S'great'
p30
I1
tp31
a(I1
I55
F-0.5
g16
I19
tp32
a(I2
I13
F1.0
S'good'
p33
I19
tp34
a(I6
I78
F-0.625
g18
I19
tp35
a(I8
I68
F1.0
g24
I19
tp36
a(I13
I131
I0
g26
I19
tp37
a(I13
I135
F-0.5
g28
I19
tp38
a(I1
I87
F0.375
S'new'
p39
I15
tp40
a(I2
I35
I0
S'same'
p41
I15
tp42
a(I2
I38
I0
S'signal'
p43
I15
tp44
a(I4
I33
F0.375
S'new'
p45
I15
tp46
a(I5
I11
F0.125
S'last'
p47
I15
tp48
a(I6
I79
F0.375
S'new'
p49
I15
tp50
a(I6
I110
F1.0
S'good'
p51
I15
tp52
a(I8
I0
F-0.625
g20
I15
tp53
a(I8
I0
F1.0
g22
I15
tp54
a(I13
I140
I0
g30
I15
tp55
a(I14
I13
I0
S'full'
p56
I15
tp57
as(S'ring'
p58
S'styles'
p59
tp60
(lp61
(I10
I8
F-0.5
S'vibrate'
p62
I0
tp63
a(I10
I8
F-0.5
S'vibrate'
p64
I0
tp65
a(I10
I86
F0.625
S'easier'
p66
I0
tp67
as(S'ring'
p68
S'tones'
p69
tp70
(lp71
(I5
I13
F-0.625
S'other'
p72
I0
tp73
as(S'samsung'
p74
tp75
(lp76
(I2
I39
I0
S'old'
p77
I7
tp78
a(I4
I16
I0
S'old'
p79
I7
tp80
as(S'voice'
p81
S'quality'
p82
tp83
(lp84
(I1
I142
I0
S'great'
p85
I0
tp86
a(I2
I101
I0
S'great'
p87
I0
tp88
a(I2
I101
F0.625
S'easy'
p89
I0
tp90
a(I7
I5
F-0.625
S'average'
p91
I0
tp92
a(I13
I109
F0.5
S'clear'
p93
I0
tp94
a(I13
I117
F-0.5
S'poor'
p95
I0
tp96
a(I2
I84
I0
S'more'
p97
I4
tp98
a(I2
I101
I0
g87
I4
tp99
a(I13
I109
F0.5
g93
I4
tp100
a(I13
I117
F-0.5
g95
I4
tp101
as(S'data'
p102
S'cable'
p103
tp104
(lp105
(I7
I11
I0
S'cable'
p106
I0
tp107
as(S'bluetooth'
p108
tp109
(lp110
(I0
I1
F0.375
S'new'
p111
I3
tp112
a(I1
I137
F0.25
S'sweet'
p113
I3
tp114
a(I2
I57
F0.625
S'easy'
p115
I3
tp116
a(I6
I42
I0
S'great'
p117
I3
tp118
a(I6
I76
F0.125
S'flaky'
p119
I3
tp120
a(I10
I37
F0.875
S'nice'
p121
I3
tp122
as(S't'
p123
S'mobile'
p124
S'customer'
p125
tp126
(lp127
(I4
I46
F-0.125
S'former'
p128
I0
tp129
a(I9
I21
F-0.875
S'worst'
p130
I0
tp131
a(I4
I46
F-0.125
g128
I11
tp132
a(I9
I21
F-0.875
g130
I11
tp133
as(S'reception'
p134
tp135
(lp136
(I1
I68
F-0.625
S'bad'
p137
I0
tp138
a(I1
I108
F-0.5
S'poor'
p139
I0
tp140
a(I2
I7
F1.0
S'good'
p141
I0
tp142
a(I2
I56
I0
S'full'
p143
I0
tp144
a(I2
I118
F1.0
S'good'
p145
I0
tp146
a(I2
I118
F1.0
S'good'
p147
I0
tp148
a(I2
I121
I0
S'same'
p149
I0
tp150
a(I3
I1
F0.875
S'nice'
p151
I0
tp152
a(I5
I4
F1.0
S'good'
p153
I0
tp154
a(I5
I4
F-0.25
S'disconnect'
p155
I0
tp156
a(I5
I22
F-0.75
S'worse'
p157
I0
tp158
a(I8
I63
I0
S'great'
p159
I0
tp160
a(I8
I72
I0
S'most'
p161
I0
tp162
a(I8
I73
F-0.875
S'worst'
p163
I0
tp164
a(I10
I45
F1.0
S'good'
p165
I0
tp166
a(I10
I82
I-100
S'pros-solid'
p167
I0
tp168
a(I10
I97
F0.125
S'solid'
p169
I0
tp170
a(I12
I25
F-0.5
S'poor'
p171
I0
tp172
a(I12
I38
F-0.625
S'bad'
p173
I0
tp174
a(I13
I63
I0
S'great'
p175
I0
tp176
as(S'blue'
p177
S'tooth'
p178
tp179
(lp180
(I2
I36
I0
S'blue'
p181
I0
tp182
a(I6
I69
I0
S'blue'
p183
I0
tp184
a(I10
I61
I0
S'blue'
p185
I0
tp186
a(I11
I1
F0.5
S'compatible'
p187
I0
tp188
as(S'internet'
p189
tp190
(lp191
(I10
I22
F-0.625
S'free'
p192
I6
tp193
a(I10
I27
F0.375
S'available'
p194
I6
tp195
as(S'audio'
p196
S'connection'
p197
tp198
(lp199
(I10
I72
I0
S'same'
p200
I0
tp201
as(S'motorola'
p202
S'v330'
p203
tp204
(lp205
(I8
I57
F0.375
S'new'
p206
I0
tp207
a(I14
I14
I0
S'different'
p208
I0
tp209
a(I1
I85
F0.125
S'first'
p210
I0
tp211
a(I1
I117
F0.375
S'similar'
p212
I0
tp213
a(I2
I117
F-0.5
S'international'
p214
I0
tp215
a(I4
I27
F1.0
S'better'
p216
I0
tp217
a(I6
I98
F0.25
S'suppose'
p218
I0
tp219
a(I6
I99
F0.375
S'new'
p220
I0
tp221
a(I8
I66
F-0.375
S'crazy'
p222
I0
tp223
a(I9
I24
F-0.875
S'trouble'
p224
I0
tp225
a(I10
I97
F-0.75
S'wrong'
p226
I0
tp227
a(I1
I65
F0.125
S'first'
p228
I0
tp229
a(I2
I5
I0
S'more'
p230
I0
tp231
a(I6
I40
I0
S'special'
p232
I0
tp233
a(I6
I40
I0
S'cable'
p234
I0
tp235
a(I6
I149
F-0.625
S'other'
p236
I0
tp237
a(I8
I45
F0.125
S'typical'
p238
I0
tp239
a(I8
I45
F-0.75
S'little'
p240
I0
tp241
a(I8
I57
F0.375
g206
I0
tp242
a(I9
I18
I0
S'old'
p243
I0
tp244
a(I10
I68
F0.625
S'aware'
p245
I0
tp246
a(I10
I93
F-0.625
S'other'
p247
I0
tp248
a(I10
I109
I0
S'third'
p249
I0
tp250
a(I14
I14
I0
g208
I0
tp251
as(S'signal'
p252
tp253
(lp254
(I2
I35
F1.0
S'good'
p255
I1
tp256
a(I4
I1
F1.0
S'good'
p257
I1
tp258
a(I4
I27
I0
S'great'
p259
I1
tp260
a(I13
I117
F-0.625
S'bad'
p261
I1
tp262
as(S'big'
p263
S'deal'
p264
tp265
(lp266
(I1
I64
I0
S'big'
p267
I11
tp268
a(I2
I22
I0
S'big'
p269
I11
tp270
a(I6
I77
I0
S'big'
p271
I11
tp272
as(S'speakerphone'
p273
tp274
(lp275
(I1
I15
I0
S'dig'
p276
I0
tp277
a(I10
I6
F-0.125
S'super'
p278
I0
tp279
a(I13
I109
F1.0
S'good'
p280
I0
tp281
as(S'razr'
p282
S'v3'
p283
tp284
(lp285
(I1
I173
I0
S'same'
p286
I0
tp287
a(I1
I173
I0
S'current'
p288
I0
tp289
a(I13
I139
F0.875
S'nicer'
p290
I0
tp291
as(S'weeks'
p292
tp293
(lp294
(I1
I80
I0
S'few'
p295
I18
tp296
a(I1
I80
I0
S'later'
p297
I18
tp298
a(I1
I165
I0
S'few'
p299
I18
tp300
as(S'sound'
p301
tp302
(lp303
(I2
I71
I0
S'great'
p304
I7
tp305
a(I8
I73
F-0.875
S'worst'
p306
I7
tp307
a(I10
I10
F1.0
S'good'
p308
I7
tp309
a(I10
I11
F-0.5
S'regular'
p310
I7
tp311
a(I10
I11
I0
S'song'
p312
I7
tp313
a(I10
I11
I0
S'great'
p314
I7
tp315
a(I10
I38
I0
S'stable'
p316
I7
tp317
a(I10
I39
I0
S'great'
p318
I7
tp319
a(I13
I93
I0
S'great'
p320
I7
tp321
as(S'v300'
p322
tp323
(lp324
(I1
I67
I0
S'same'
p325
I0
tp326
a(I2
I42
I0
S'old'
p327
I0
tp328
a(I2
I43
I0
S'old'
p329
I0
tp330
a(I11
I0
I0
S'wish'
p331
I0
tp332
as(S'nokia'
p333
tp334
(lp335
(I1
I165
I0
S'old'
p336
I0
tp337
a(I8
I57
I0
S'old'
p338
I0
tp339
a(I10
I12
F0.375
S'loud'
p340
I0
tp341
a(I10
I50
F1.0
S'good'
p342
I0
tp343
a(I13
I49
I0
S'old'
p344
I0
tp345
a(I13
I126
I0
S'faster'
p346
I0
tp347
a(I14
I3
F0.5
S'clear'
p348
I0
tp349
as(S'sim'
p350
S'card'
p351
tp352
(lp353
(I5
I11
F-0.375
S'small'
p354
I0
tp355
as(S'text'
p356
S'messages'
p357
tp358
(lp359
(I1
I111
F0.75
S'receive'
p360
I0
tp361
a(I1
I160
F0.75
S'receive'
p362
I0
tp363
a(I10
I36
F-0.5
S'heavy'
p364
I0
tp365
a(I13
I72
I0
S'text'
p366
I0
tp367
a(I1
I111
F0.75
g360
I18
tp368
a(I1
I160
F0.75
g362
I18
tp369
a(I2
I74
I0
S'big'
p370
I18
tp371
a(I10
I36
F-0.5
g364
I18
tp372
a(I13
I72
I0
g366
I1
tp373
as(S'quad'
p374
S'band'
p375
tp376
(lp377
(I8
I148
I0
S'quad'
p378
I0
tp379
as(S'camera'
p380
tp381
(lp382
(I1
I51
F-0.875
S'hard'
p383
I1
tp384
a(I1
I96
I0
S'great'
p385
I1
tp386
a(I2
I44
I0
S'most'
p387
I1
tp388
a(I4
I43
I0
S'great'
p389
I1
tp390
a(I8
I37
F-0.75
S'dark'
p391
I1
tp392
a(I8
I108
F-0.5
S'sure'
p393
I1
tp394
a(I8
I108
I0
S'great'
p395
I1
tp396
a(I13
I128
F0.125
S'digital'
p397
I1
tp398
a(I13
I141
I0
S'descent'
p399
I1
tp400
as(S'customer'
p401
S'service'
p402
tp403
(lp404
(I1
I5
F0.25
S'helpful'
p405
I3
tp406
a(I2
I41
I0
S'great'
p407
I3
tp408
a(I4
I46
F-0.125
g128
I3
tp409
a(I4
I46
I0
S'great'
p410
I3
tp411
a(I9
I21
F-0.875
g130
I3
tp412
a(I1
I5
F0.25
g405
I16
tp413
a(I1
I178
I0
S'full'
p414
I16
tp415
a(I2
I41
I0
g407
I16
tp416
a(I4
I46
I0
g410
I16
tp417
a(I8
I57
I0
S'same'
p418
I16
tp419
a(I8
I84
I0
S'internet'
p420
I16
tp421
a(I8
I91
I0
S'monthly'
p422
I16
tp423
a(I8
I101
I0
S'dole'
p424
I16
tp425
a(I13
I76
I0
S'more'
p426
I16
tp427
a(I13
I76
F0.375
S'dependable'
p428
I16
tp429
a(I13
I105
F-0.625
S'other'
p430
I16
tp431
as(S'volume'
p432
tp433
(lp434
(I6
I46
F-0.25
S'low'
p435
I6
tp436
a(I10
I84
F-0.25
S'low'
p437
I6
tp438
as(S'dropped'
p439
S'calls'
p440
tp441
(lp442
(I13
I64
I0
S'few'
p443
I0
tp444
a(I13
I64
F-0.25
S'dropped'
p445
I0
tp446
a(I2
I7
F1.0
S'good'
p447
I0
tp448
a(I2
I7
F-0.375
S'small'
p449
I0
tp450
a(I2
I7
F0.625
S'easy'
p451
I0
tp452
a(I2
I7
F0.5
S'clear'
p453
I0
tp454
a(I2
I7
F-0.375
S'simple'
p455
I0
tp456
a(I8
I68
F1.0
S'good'
p457
I0
tp458
a(I13
I64
I0
g443
I0
tp459
a(I13
I64
F-0.25
g445
I0
tp460
a(I13
I101
F0.5
S'strong'
p461
I0
tp462
a(I13
I101
I0
S'signal'
p463
I0
tp464
a(I13
I139
I0
S'high'
p465
I0
tp466
a(I13
I139
F0.25
S'pitched'
p467
I0
tp468
a(I13
I139
F-0.375
S'static'
p469
I0
tp470
as.