(dp0
(S'service'
p1
tp2
(lp3
(I2
I94
F-0.5
S'poor'
p4
I16
tp5
a(I2
I118
F-0.875
S'hard'
p6
I16
tp7
a(I5
I5
I0
S'great'
p8
I16
tp9
a(I5
I45
I0
S'only'
p10
I16
tp11
a(I5
I45
F-0.5
S'poor'
p12
I16
tp13
a(I5
I46
F0.375
S'available'
p14
I16
tp15
as(S'warranty'
p16
tp17
(lp18
(I1
I105
I0
S'monthly'
p19
I2
tp20
a(I3
I62
F-0.25
S'past'
p21
I2
tp22
as(S'orange'
p23
S'pixels'
p24
tp25
(lp26
(I1
I123
I0
S'orange'
p27
I0
tp28
as(S'reception'
p29
tp30
(lp31
(I1
I35
I0
S'great'
p32
I0
tp33
a(I1
I74
F1.0
S'good'
p34
I0
tp35
a(I2
I1
F-0.5
S'poor'
p36
I0
tp37
a(I3
I36
F1.0
S'good'
p38
I0
tp39
a(I5
I55
F-0.625
S'bad'
p40
I0
tp41
a(I9
I9
F1.0
S'better'
p42
I0
tp43
as(S'calls'
p44
tp45
(lp46
(I2
I60
I-100
S'1023-minute'
p47
I0
tp48
a(I6
I38
F0.5
S'clear'
p49
I0
tp50
a(I7
I24
F1.0
S'better'
p51
I0
tp52
as(S'data'
p53
tp54
(lp55
(I2
I62
I-100
S'95/month'
p56
I13
tp57
as(S'keyboard'
p58
tp59
(lp60
(I2
I14
I0
S'full'
p61
I2
tp62
a(I5
I29
F0.625
S'easy'
p63
I2
tp64
a(I6
I18
F0.125
S'first'
p65
I2
tp66
as(S'6'
p67
S'months'
p68
tp69
(lp70
(I1
I82
I0
S'few'
p71
I6
tp72
a(I7
I28
F0.125
S'last'
p73
I6
tp74
as(S'sound'
p75
S'quality'
p76
tp77
(lp78
(I4
I3
F-0.625
S'bad'
p79
I0
tp80
a(I6
I24
I0
S'great'
p81
I0
tp82
as(S'hard'
p83
S'reset'
p84
tp85
(lp86
(I2
I30
F-0.875
S'hard'
p87
I0
tp88
a(I2
I30
I0
S'own'
p89
I0
tp90
a(I3
I21
F-0.875
S'hard'
p91
I0
tp92
a(I5
I53
F-0.875
S'hard'
p93
I0
tp94
a(I5
I71
F-0.875
S'hard'
p95
I0
tp96
as(S'business'
p97
tp98
(lp99
(I2
I48
F-0.375
S'serious'
p100
I9
tp101
a(I5
I36
I0
S'real'
p102
I9
tp103
as(S'third'
p104
S'party'
p105
tp106
(lp107
(I1
I32
I0
S'third'
p108
I0
tp109
a(I1
I88
I0
S'third'
p110
I0
tp111
a(I9
I4
I0
S'third'
p112
I0
tp113
as(S'battery'
p114
S'life'
p115
tp116
(lp117
(I6
I42
F1.0
S'good'
p118
I1
tp119
as(S'treo'
p120
tp121
(lp122
(I1
I8
I0
S'resemble'
p123
I0
tp124
a(I1
I8
I0
S'more'
p125
I0
tp126
a(I1
I23
F-0.5
S'heavy'
p127
I0
tp128
a(I1
I111
F-0.625
S'free'
p129
I0
tp130
a(I1
I113
F0.375
S'much'
p131
I0
tp132
a(I2
I92
I0
S'third'
p133
I0
tp134
a(I3
I12
F0.125
S'first'
p135
I0
tp136
a(I3
I12
F0.5
S'second'
p137
I0
tp138
a(I3
I19
F0.5
S'second'
p139
I0
tp140
a(I3
I59
F0.375
S'new'
p141
I0
tp142
a(I3
I62
F0.25
S'refurbished'
p143
I0
tp144
a(I3
I67
F0.5
S'second'
p145
I0
tp146
a(I9
I4
I0
S'stable'
p147
I0
tp148
a(I9
I19
I0
S'primitive'
p149
I0
tp150
as(S'sim'
p151
S'card'
p152
tp153
(lp154
(I5
I74
I0
S'older'
p155
I0
tp156
as(S'serial'
p157
S'number'
p158
tp159
(lp160
(I4
I15
I0
S'serial'
p161
I0
tp162
a(I7
I16
I0
S'serial'
p163
I0
tp164
as(S'palm'
p165
tp166
(lp167
(I2
I22
I0
S'fanatic'
p168
I1
tp169
a(I2
I80
F0.125
S'first'
p170
I1
tp171
a(I2
I89
F-0.125
S'mine'
p172
I1
tp173
a(I2
I98
F-0.625
S'other'
p174
I1
tp175
a(I5
I4
F0.375
S'worked'
p176
I1
tp177
a(I5
I13
I0
S'old'
p178
I1
tp179
as(S'mobile'
p180
tp181
(lp182
(I6
I29
F1.0
S'good'
p183
I0
tp184
as(S'verizon'
p185
tp186
(lp187
(I2
I1
F-0.75
S'dead'
p188
I0
tp189
as.