(dp0
(S'memory'
p1
S'card'
p2
tp3
(lp4
(I1
I164
F0.375
S'extra'
p5
I0
tp6
a(I1
I164
F0.375
g5
I5
tp7
a(I7
I18
I0
S'internal'
p8
I5
tp9
a(I10
I175
I-100
S'saved/stored/transferred'
p10
I5
tp11
as(S'battery'
p12
S'life'
p13
tp14
(lp15
(I1
I23
I0
S'many'
p16
I1
tp17
a(I1
I51
F-0.75
S'short'
p18
I1
tp19
a(I4
I66
F-0.625
S'bad'
p20
I1
tp21
a(I4
I88
F1.0
S'good'
p22
I1
tp23
a(I5
I50
I0
S'full'
p24
I1
tp25
a(I5
I104
F0.5
S'comparable'
p26
I1
tp27
a(I5
I105
F0.375
S'extended'
p28
I1
tp29
a(I5
I128
F-0.625
S'bad'
p30
I1
tp31
a(I5
I191
I0
S'great'
p32
I1
tp33
a(I6
I102
F-0.625
S'bad'
p34
I1
tp35
a(I6
I125
F0.375
S'new'
p36
I1
tp37
a(I7
I3
I0
S'great'
p38
I1
tp39
a(I7
I6
I0
S'great'
p40
I1
tp41
a(I8
I48
F0.375
S'extended'
p42
I1
tp43
a(I10
I30
F-0.75
S'difficult'
p44
I1
tp45
a(I11
I69
F1.0
S'good'
p46
I1
tp47
a(I13
I57
F-0.75
S'worse'
p48
I1
tp49
a(I15
I28
F-0.625
S'average'
p50
I1
tp51
a(I1
I23
I0
g16
I19
tp52
a(I1
I51
F-0.75
g18
I19
tp53
a(I4
I66
F-0.625
g20
I19
tp54
a(I5
I104
F0.5
g26
I19
tp55
a(I5
I105
F0.375
g28
I19
tp56
a(I5
I128
F-0.625
g30
I19
tp57
a(I5
I191
I0
g32
I19
tp58
a(I6
I102
F-0.625
g34
I19
tp59
a(I7
I3
I0
g38
I19
tp60
a(I7
I6
I0
g40
I19
tp61
a(I8
I48
F0.375
g42
I19
tp62
a(I10
I24
I0
S'real'
p63
I19
tp64
a(I10
I24
F-0.875
S'negative'
p65
I19
tp66
a(I10
I30
F-0.75
g44
I19
tp67
a(I13
I57
F-0.75
g48
I19
tp68
a(I15
I29
F0.375
S'extended'
p69
I19
tp70
a(I0
I54
I0
S'standard'
p71
I15
tp72
a(I0
I54
F0.375
S'extended'
p73
I15
tp74
a(I0
I54
F0.25
S'larger'
p75
I15
tp76
a(I1
I155
F0.375
S'extended'
p77
I15
tp78
a(I1
I155
F0.375
S'available'
p79
I15
tp80
a(I4
I88
F1.0
g22
I15
tp81
a(I5
I22
F-0.5
S'inadequate'
p82
I15
tp83
a(I5
I50
I0
g24
I15
tp84
a(I5
I208
F1.0
S'good'
p85
I15
tp86
a(I6
I77
I0
S'great'
p87
I15
tp88
a(I6
I77
F1.0
S'better'
p89
I15
tp90
a(I6
I125
F0.375
g36
I15
tp91
a(I7
I28
F-0.25
S'low'
p92
I15
tp93
a(I7
I114
F0.25
S'bigger'
p94
I15
tp95
a(I10
I41
F1.0
S'good'
p96
I15
tp97
a(I10
I61
F0.375
S'new'
p98
I15
tp99
a(I10
I66
F0.125
S'charger'
p100
I15
tp101
a(I11
I69
F1.0
g46
I15
tp102
a(I12
I10
F-0.5
S'separate'
p103
I15
tp104
a(I15
I28
F-0.625
g50
I15
tp105
as(S'loud'
p106
tp107
(lp108
(I1
I102
I0
S'soft'
p109
I10
tp110
a(I8
I16
F0.5
S'clear'
p111
I10
tp112
a(I8
I16
I0
S'useful'
p113
I10
tp114
a(I8
I75
F-0.25
S'plugged'
p115
I10
tp116
as(S'wireless'
p117
S'headset'
p118
tp119
(lp120
(I7
I91
I0
S'useful'
p121
I0
tp122
a(I7
I91
I0
g121
I0
tp123
a(I10
I142
F-0.625
S'other'
p124
I0
tp125
a(I13
I41
F0.5
S'expensive'
p126
I0
tp127
a(I13
I52
F-0.625
S'free'
p128
I0
tp129
a(I11
I49
F0.5
S'clear'
p130
I0
tp131
as(S'2'
p132
S'megapixel'
p133
S'camera'
p134
tp135
(lp136
(I7
I84
F0.125
S'digital'
p137
I0
tp138
a(I1
I5
F-0.625
S'other'
p139
I0
tp140
a(I5
I187
I0
S'many'
p141
I0
tp142
a(I7
I84
F0.125
g137
I0
tp143
a(I10
I83
I0
S'standard'
p144
I0
tp145
as(S'phonebook'
p146
tp147
(lp148
(I4
I31
F-0.75
S'single'
p149
I0
tp150
a(I8
I75
F0.125
S'able'
p151
I0
tp152
a(I8
I75
I0
S'individual'
p153
I0
tp154
a(I10
I4
I0
S'different'
p155
I0
tp156
a(I10
I4
F0.125
S'key'
p157
I0
tp158
a(I10
I190
I-100
S'multi-fielded'
p159
I0
tp160
as(S'voice'
p161
S'dial'
p162
tp163
(lp164
(I5
I175
I0
S'great'
p165
I0
tp166
a(I5
I175
I0
S'dial'
p167
I0
tp168
a(I7
I73
I0
S'dial'
p169
I0
tp170
a(I9
I9
I0
S'dial'
p171
I0
tp172
a(I11
I11
I0
S'dial'
p173
I0
tp174
a(I5
I175
I0
g165
I4
tp175
a(I5
I175
I0
g167
I4
tp176
a(I7
I73
I0
g169
I4
tp177
a(I7
I96
F0.125
S'digital'
p178
I4
tp179
a(I7
I128
F0.125
S'capable'
p180
I4
tp181
a(I9
I9
I0
g171
I4
tp182
a(I11
I11
I0
g173
I4
tp183
as(S'files'
p184
tp185
(lp186
(I2
I12
F0.25
S'larger'
p187
I0
tp188
a(I3
I37
F0.875
S'music'
p189
I0
tp190
a(I6
I32
I0
S'such'
p191
I0
tp192
a(I6
I33
F0.125
S'able'
p193
I0
tp194
a(I8
I44
F0.75
S'receive'
p195
I0
tp196
as(S'blue'
p197
S'tooth'
p198
tp199
(lp200
(I0
I28
I0
S'blue'
p201
I0
tp202
a(I3
I23
F-0.5
S'actual'
p203
I0
tp204
a(I3
I25
I0
S'blue'
p205
I0
tp206
a(I3
I38
I0
S'blue'
p207
I0
tp208
as(S'verizon'
p209
S'service'
p210
tp211
(lp212
(I1
I57
F0.375
S'reliable'
p213
I0
tp214
a(I4
I21
F1.0
S'best'
p215
I0
tp216
a(I5
I212
F0.5
S'possible'
p217
I0
tp218
a(I6
I29
I0
S'many'
p219
I0
tp220
a(I6
I29
I0
S'many'
p221
I0
tp222
a(I6
I53
I0
S'great'
p223
I0
tp224
a(I7
I30
F0.875
S'happier'
p225
I0
tp226
a(I8
I7
F1.0
S'best'
p227
I0
tp228
a(I13
I53
I0
S'more'
p229
I0
tp230
a(I1
I39
I0
S'such'
p231
I16
tp232
a(I1
I57
F0.375
g213
I16
tp233
a(I1
I119
F0.375
S'new'
p234
I16
tp235
a(I4
I11
F1.0
S'better'
p236
I16
tp237
a(I4
I21
F1.0
g215
I16
tp238
a(I4
I46
F1.0
S'good'
p239
I16
tp240
a(I5
I168
I0
S'old'
p241
I16
tp242
a(I5
I168
F0.375
S'new'
p243
I16
tp244
a(I6
I71
F-0.625
S'bad'
p245
I16
tp246
a(I6
I146
F0.5
S'second'
p247
I16
tp248
a(I8
I7
F1.0
g227
I16
tp249
a(I8
I90
F0.125
S'digital'
p250
I16
tp251
as(S'file'
p252
S'transfer'
p253
tp254
(lp255
(I4
I50
I0
S'file'
p256
I0
tp257
a(I10
I79
F-0.375
S'disable'
p258
I0
tp259
as(S'speakerphone'
p260
tp261
(lp262
(I0
I52
F0.625
S'convenient'
p263
I0
tp264
a(I8
I0
I0
S'great'
p265
I0
tp266
a(I8
I11
I0
S'mobile'
p267
I0
tp268
a(I10
I48
F-0.5
S'less'
p269
I0
tp270
as(S'speaker'
p271
tp272
(lp273
(I7
I16
I0
S'external'
p274
I8
tp275
a(I8
I83
F1.0
S'better'
p276
I8
tp277
a(I11
I40
F0.5
S'clear'
p278
I8
tp279
a(I14
I4
I0
S'external'
p280
I8
tp281
as(S'a'
p282
S'digital'
p283
S'camera'
p284
tp285
(lp286
(I7
I11
F0.125
S'digital'
p287
I0
tp288
a(I7
I84
F0.125
g137
I0
tp289
a(I10
I10
F0.125
S'digital'
p290
I0
tp291
a(I10
I10
F-0.875
S'worst'
p292
I0
tp293
a(I11
I13
F0.125
S'digital'
p294
I0
tp295
a(I13
I29
F0.125
S'digital'
p296
I0
tp297
a(I14
I3
I0
S'normal'
p298
I0
tp299
a(I15
I60
F0.125
S'digital'
p300
I0
tp301
a(I15
I92
F0.125
S'digital'
p302
I0
tp303
a(I7
I11
F0.125
g287
I1
tp304
a(I7
I84
F0.125
g137
I1
tp305
a(I10
I10
F0.125
g290
I1
tp306
a(I10
I10
F-0.875
g292
I1
tp307
a(I11
I13
F0.125
g294
I1
tp308
a(I13
I29
F0.125
g296
I1
tp309
a(I14
I3
I0
g298
I1
tp310
a(I15
I60
F0.125
g300
I1
tp311
a(I15
I92
F0.125
g302
I1
tp312
a(I14
I3
I0
g298
I3
tp313
a(I0
I3
F-0.75
S'single'
p314
I1
tp315
a(I1
I4
F-0.5
S'heavier'
p316
I1
tp317
a(I1
I4
F-0.625
S'other'
p318
I1
tp319
a(I1
I132
F0.625
S'decent'
p320
I1
tp321
a(I3
I13
I0
S'great'
p322
I1
tp323
a(I3
I44
I0
S'special'
p324
I1
tp325
a(I4
I73
F0.5
S'disposable'
p326
I1
tp327
a(I5
I116
I0
S'great'
p328
I1
tp329
a(I5
I123
F1.0
S'better'
p330
I1
tp331
a(I6
I26
F0.875
S'nice'
p332
I1
tp333
a(I6
I121
F-0.875
S'negative'
p334
I1
tp335
a(I7
I11
F0.125
g287
I1
tp336
a(I7
I52
F-0.5
S'worthless'
p337
I1
tp338
a(I7
I84
F0.125
g137
I1
tp339
a(I7
I86
F-0.625
S'useless'
p340
I1
tp341
a(I10
I5
I0
S'great'
p342
I1
tp343
a(I10
I10
F0.125
g290
I1
tp344
a(I10
I10
F-0.875
g292
I1
tp345
a(I11
I13
F0.125
g294
I1
tp346
a(I12
I18
F-0.375
S'serious'
p347
I1
tp348
a(I13
I13
F0.625
S'convenient'
p349
I1
tp350
a(I13
I29
F0.125
g296
I1
tp351
a(I15
I47
F1.0
S'good'
p352
I1
tp353
a(I15
I47
F-0.75
S'bright'
p354
I1
tp355
a(I15
I60
F0.125
g300
I1
tp356
a(I15
I86
I0
S'great'
p357
I1
tp358
a(I15
I91
F-0.875
S'worst'
p359
I1
tp360
a(I15
I92
F0.125
g302
I1
tp361
as(S'ringtones'
p362
tp363
(lp364
(I1
I126
I0
S'own'
p365
I0
tp366
a(I5
I122
I0
S'more'
p367
I0
tp368
a(I8
I62
I0
S'own'
p369
I0
tp370
as(S'great'
p371
S'reception'
p372
tp373
(lp374
(I1
I37
I0
S'great'
p375
I0
tp376
a(I6
I0
F1.0
S'best'
p377
I0
tp378
a(I6
I0
F0.5
S'possible'
p379
I0
tp380
a(I6
I49
I0
S'great'
p381
I0
tp382
a(I8
I10
I0
S'great'
p383
I0
tp384
a(I10
I73
I0
S'great'
p385
I0
tp386
a(I10
I116
I0
S'great'
p387
I0
tp388
a(I11
I69
I0
S'great'
p389
I0
tp390
a(I12
I53
I0
S'great'
p391
I0
tp392
a(I13
I67
I0
S'great'
p393
I0
tp394
a(I15
I71
F1.0
S'best'
p395
I0
tp396
a(I1
I37
I0
g375
I0
tp397
a(I4
I88
F1.0
S'good'
p398
I0
tp399
a(I5
I57
F1.0
S'better'
p400
I0
tp401
a(I5
I186
F0.5
S'flat'
p402
I0
tp403
a(I5
I207
F1.0
S'best'
p404
I0
tp405
a(I5
I207
F0.5
S'compatible'
p406
I0
tp407
a(I6
I0
F1.0
g377
I0
tp408
a(I6
I0
F0.5
g379
I0
tp409
a(I6
I49
I0
g381
I0
tp410
a(I7
I94
F1.0
S'best'
p411
I0
tp412
a(I8
I10
I0
g383
I0
tp413
a(I8
I28
F0.5
S'clear'
p414
I0
tp415
a(I8
I29
F0.5
S'clear'
p416
I0
tp417
a(I9
I21
F1.0
S'best'
p418
I0
tp419
a(I10
I73
I0
g385
I0
tp420
a(I10
I75
F-0.75
S'single'
p421
I0
tp422
a(I10
I89
F0.875
S'important'
p423
I0
tp424
a(I10
I116
I0
g387
I0
tp425
a(I10
I149
I0
S'nationwide'
p426
I0
tp427
a(I10
I149
I0
S'same'
p428
I0
tp429
a(I10
I158
F-0.625
S'bad'
p430
I0
tp431
a(I11
I60
F1.0
S'good'
p432
I0
tp433
a(I11
I69
I0
g389
I0
tp434
a(I12
I53
I0
g391
I0
tp435
a(I13
I67
I0
g393
I0
tp436
a(I15
I46
F-0.625
S'bad'
p437
I0
tp438
a(I15
I71
F1.0
g395
I0
tp439
a(I15
I76
F1.0
S'good'
p440
I0
tp441
as(S'mp3'
p442
S'player'
p443
tp444
(lp445
(I15
I26
F-0.625
S'light'
p446
I1
tp447
as(S'contacts'
p448
tp449
(lp450
(I15
I32
F0.5
S'primary'
p451
I0
tp452
as(S'lg'
p453
S'vx6000'
p454
tp455
(lp456
(I13
I45
I0
S'old'
p457
I0
tp458
as(S'motorola'
p459
S'v710'
p460
tp461
(lp462
(I6
I28
F0.375
S'available'
p463
I0
tp464
a(I13
I17
I0
S'big'
p465
I0
tp466
a(I4
I6
F1.0
S'better'
p467
I0
tp468
a(I5
I110
F0.5
S'clear'
p469
I0
tp470
a(I5
I110
F0.625
S'easy'
p471
I0
tp472
a(I5
I179
F0.5
S'second'
p473
I0
tp474
a(I6
I28
F0.375
g463
I0
tp475
a(I9
I22
I0
S'most'
p476
I0
tp477
a(I10
I28
F-0.875
S'worst'
p478
I0
tp479
a(I10
I112
F0.875
S'happy'
p480
I0
tp481
a(I10
I172
F-0.375
S'manual'
p482
I0
tp483
a(I10
I173
F-0.125
S'overall'
p484
I0
tp485
a(I13
I17
I0
g465
I0
tp486
a(I15
I74
F0.25
S'biggest'
p487
I0
tp488
a(I15
I74
F0.375
S'critic'
p489
I0
tp490
a(I1
I111
I0
S'great'
p491
I0
tp492
a(I1
I113
F-0.25
S'lower'
p493
I0
tp494
a(I1
I113
I0
S'old'
p495
I0
tp496
a(I1
I138
I0
S'such'
p497
I0
tp498
a(I3
I1
F-0.625
S'other'
p499
I0
tp500
a(I4
I92
I0
S'add-on'
p501
I0
tp502
a(I5
I57
F-0.625
S'other'
p503
I0
tp504
a(I5
I74
I0
S'more'
p505
I0
tp506
a(I6
I114
F0.125
S'digital'
p507
I0
tp508
a(I6
I138
I0
S'general'
p509
I0
tp510
a(I6
I139
F0.5
S'second'
p511
I0
tp512
a(I8
I82
F-0.875
S'stuck'
p513
I0
tp514
a(I8
I82
F0.125
S'first'
p515
I0
tp516
a(I8
I82
F0.125
S'last'
p517
I0
tp518
a(I9
I20
F0.375
S'much'
p519
I0
tp520
a(I13
I16
F0.25
S'bigger'
p521
I0
tp522
a(I14
I13
I0
S'same'
p523
I0
tp524
as(S'able'
p525
S'to'
p526
S'transfer'
p527
tp528
(lp529
(I5
I199
F-0.25
S'object'
p530
I0
tp531
a(I4
I50
I0
g256
I1
tp532
a(I5
I199
F-0.25
g530
I1
tp533
as(g282
S'transflash'
p534
S'card'
p535
tp536
(lp537
(I7
I50
F0.75
S'worth'
p538
I0
tp539
a(I10
I50
I0
S'optional'
p540
I0
tp541
a(I13
I35
F0.875
S'nice'
p542
I0
tp543
a(I7
I50
F0.75
g538
I0
tp544
a(I10
I50
I0
g540
I0
tp545
a(I13
I35
F0.875
g542
I0
tp546
a(I10
I50
I0
g540
I0
tp547
a(I13
I35
F0.875
g542
I0
tp548
as(S'bluetooth'
p549
S'headset'
p550
tp551
(lp552
(I8
I2
I0
S'useful'
p553
I0
tp554
a(I9
I24
F-0.625
S'free'
p555
I0
tp556
a(I12
I48
I0
S'great'
p557
I0
tp558
a(I15
I26
F0.5
S'functional'
p559
I0
tp560
a(I2
I4
I0
S'standard'
p561
I3
tp562
a(I4
I15
I0
S'only'
p563
I3
tp564
a(I4
I28
F0.5
S'second'
p565
I3
tp566
a(I4
I28
F0.5
S'compatible'
p567
I3
tp568
a(I4
I33
I0
S'full'
p569
I3
tp570
a(I4
I54
F0.5
S'functional'
p571
I3
tp572
a(I6
I103
I0
S'full'
p573
I3
tp574
a(I8
I2
I0
g553
I3
tp575
a(I8
I18
I0
S'useful'
p576
I3
tp577
a(I9
I24
F-0.625
g555
I3
tp578
a(I10
I122
I0
S'only'
p579
I3
tp580
a(I10
I138
F-0.5
S'poor'
p581
I3
tp582
a(I11
I1
I0
S'only'
p583
I3
tp584
a(I12
I48
I0
g557
I3
tp585
a(I13
I41
F1.0
S'good'
p586
I3
tp587
a(I13
I68
I0
S'only'
p588
I3
tp589
a(I15
I24
F1.0
S'better'
p590
I3
tp591
a(I15
I26
F0.5
g559
I3
tp592
a(I15
I36
F0.375
S'knew'
p593
I3
tp594
a(I15
I70
F0.625
S'convenient'
p595
I3
tp596
as(S'dropped'
p597
S'calls'
p598
tp599
(lp600
(I5
I120
F-0.5
S'less'
p601
I0
tp602
a(I5
I120
F1.0
S'better'
p603
I0
tp604
a(I10
I111
I0
S'many'
p605
I0
tp606
a(I10
I138
F-0.375
S'static'
p607
I0
tp608
a(I10
I166
I0
S'more'
p609
I0
tp610
a(I11
I68
F-0.25
S'dropped'
p611
I0
tp612
a(I15
I75
F-0.25
S'dropped'
p613
I0
tp614
a(I15
I75
F-0.375
S'static'
p615
I0
tp616
a(I0
I34
F0.125
S'last'
p617
I0
tp618
a(I1
I108
F0.5
S'clear'
p619
I0
tp620
a(I5
I120
F-0.5
g601
I0
tp621
a(I5
I120
F1.0
g603
I0
tp622
a(I7
I97
F0.625
S'easy'
p623
I0
tp624
a(I10
I111
I0
g605
I0
tp625
a(I10
I121
F0.5
S'clear'
p626
I0
tp627
a(I10
I121
I0
S'quick'
p628
I0
tp629
a(I10
I124
F0.5
S'clear'
p630
I0
tp631
a(I10
I124
F-0.375
S'top'
p632
I0
tp633
a(I10
I138
F-0.375
g607
I0
tp634
a(I10
I166
I0
g609
I0
tp635
a(I11
I68
F-0.25
g611
I0
tp636
a(I12
I49
F0.875
S'important'
p637
I0
tp638
a(I15
I0
F0.5
S'clear'
p639
I0
tp640
a(I15
I46
F0.5
S'clear'
p641
I0
tp642
a(I15
I75
F-0.25
g613
I0
tp643
a(I15
I75
F-0.375
g615
I0
tp644
a(I15
I76
F0.5
S'clear'
p645
I0
tp646
as(S'trans'
p647
S'flash'
p648
S'card'
p649
tp650
(lp651
(I7
I50
F0.75
g538
I0
tp652
a(I15
I66
F-0.375
S'small'
p653
I0
tp654
as(S'verizon'
p655
S'wireless'
p656
tp657
(lp658
(I8
I2
F-0.375
S'disable'
p659
I0
tp660
a(I13
I52
F-0.625
g128
I0
tp661
a(I1
I16
I0
S'local'
p662
I0
tp663
a(I1
I106
I0
S'most'
p664
I0
tp665
a(I1
I106
F-0.75
S'likely'
p666
I0
tp667
a(I2
I4
I0
S'specific'
p668
I0
tp669
a(I3
I3
I0
S'angry'
p670
I0
tp671
a(I3
I7
F-0.25
S'direct'
p672
I0
tp673
a(I5
I125
I0
S'website'
p674
I0
tp675
a(I5
I144
I0
S'great'
p676
I0
tp677
a(I5
I146
I0
S'such'
p678
I0
tp679
a(I5
I197
F-0.5
S'complaint'
p680
I0
tp681
a(I5
I212
F0.5
g217
I0
tp682
a(I6
I29
I0
g219
I0
tp683
a(I6
I29
I0
g221
I0
tp684
a(I6
I53
I0
g223
I0
tp685
a(I6
I68
I0
S'retail'
p686
I0
tp687
a(I6
I97
I0
S'legal'
p688
I0
tp689
a(I6
I100
I0
S'different'
p690
I0
tp691
a(I7
I30
F0.875
g225
I0
tp692
a(I8
I2
F-0.375
g659
I0
tp693
a(I8
I29
F1.0
S'best'
p694
I0
tp695
a(I9
I22
F-0.25
S'inexpensive'
p696
I0
tp697
a(I10
I74
F-0.75
S'likely'
p698
I0
tp699
a(I10
I74
F0.75
S'due'
p700
I0
tp701
a(I10
I89
I0
S'least'
p702
I0
tp703
a(I11
I22
I0
S'only'
p704
I0
tp705
a(I11
I47
F0.5
S'strong'
p706
I0
tp707
a(I11
I47
F-0.625
S'other'
p708
I0
tp709
a(I13
I53
I0
g229
I0
tp710
a(I15
I23
F1.0
S'best'
p711
I0
tp712
a(I15
I71
F-0.625
S'other'
p713
I0
tp714
as(S'sound'
p715
S'quality'
p716
tp717
(lp718
(I7
I117
F-0.25
S'low'
p719
I0
tp720
a(I10
I30
I0
S'large'
p721
I0
tp722
a(I10
I30
F-0.5
S'poor'
p723
I0
tp724
a(I15
I71
F1.0
S'best'
p725
I0
tp726
a(I1
I81
F-0.25
S'lower'
p727
I7
tp728
a(I5
I176
F1.0
S'good'
p729
I7
tp730
a(I8
I12
F1.0
S'good'
p731
I7
tp732
a(I8
I39
F0.5
S'clear'
p733
I7
tp734
a(I10
I30
I0
g721
I7
tp735
a(I10
I83
I0
S'full'
p736
I7
tp737
a(I12
I56
I0
S'great'
p738
I7
tp739
a(I15
I71
F1.0
g725
I7
tp740
as.