(dp0
(S'seller'
p1
tp2
(lp3
(I5
I18
F-0.5
S'sure'
p4
I19
tp5
a(I26
I8
F0.875
S'nice'
p6
I19
tp7
a(I27
I5
F0.875
S'nice'
p8
I19
tp9
as(S'iphone'
p10
tp11
(lp12
(I2
I0
F0.375
S'available'
p13
I1
tp14
a(I2
I9
F0.125
S'first'
p15
I1
tp16
a(I2
I10
F0.375
S'available'
p17
I1
tp18
a(I2
I12
F0.25
S'used'
p19
I1
tp20
a(I4
I1
I0
S'great'
p21
I1
tp22
a(I4
I4
F0.125
S'first'
p23
I1
tp24
a(I4
I14
I0
S'official'
p25
I1
tp26
a(I4
I17
F0.375
S'new'
p27
I1
tp28
a(I14
I2
I0
S'great'
p29
I1
tp30
a(I15
I26
F0.75
S'worth'
p31
I1
tp32
a(I22
I12
F0.375
S'new'
p33
I1
tp34
a(I26
I5
F0.5
S'compatible'
p35
I1
tp36
a(I27
I13
I0
S'legal'
p37
I1
tp38
as(S'an'
p39
S'apple'
p40
S'store'
p41
tp42
(lp43
(I14
I10
F0.125
S'able'
p44
I0
tp45
a(I14
I11
F0.5
S'told'
p46
I0
tp47
a(I15
I35
F0.125
S'able'
p48
I0
tp49
a(I17
I6
F0.125
S'able'
p50
I0
tp51
a(I14
I10
F0.125
g44
I0
tp52
a(I14
I11
F0.5
g46
I0
tp53
a(I15
I35
F0.125
g48
I0
tp54
a(I17
I6
F0.125
g50
I0
tp55
a(I14
I10
F0.125
g44
I4
tp56
a(I14
I11
F0.5
g46
I4
tp57
a(I22
I17
F-0.875
S'scratch'
p58
I4
tp59
as(S'service'
p60
tp61
(lp62
(I5
I4
I0
S'great'
p63
I16
tp64
a(I11
I4
F0.5
S'technical'
p65
I16
tp66
as(S'sim'
p67
S'card'
p68
tp69
(lp70
(I1
I12
F-0.625
S'other'
p71
I0
tp72
a(I17
I2
F-0.125
S'foreign'
p73
I0
tp74
as(S'amazon'
p75
tp76
(lp77
(I2
I16
F0.125
S'first'
p78
I13
tp79
a(I5
I13
F0.5
S'trusty'
p80
I13
tp81
a(I11
I15
F0.375
S'new'
p82
I13
tp83
a(I11
I15
F0.625
S'right'
p84
I13
tp85
a(I14
I28
I0
S'great'
p86
I13
tp87
as(S'get'
p88
S'money'
p89
tp90
(lp91
(I5
I6
F1.0
S'good'
p92
I0
tp93
as.