(dp0
(S'text'
p1
S'message'
p2
tp3
(lp4
(I3
I4
I0
S'few'
p5
I0
tp6
a(I25
I73
F-0.5
S'call'
p7
I0
tp8
a(I11
I3
F0.375
S'new'
p9
I1
tp10
a(I25
I73
F-0.5
g7
I1
tp11
as(S'keyboard'
p12
tp13
(lp14
(I8
I0
F1.0
S'good'
p15
I2
tp16
a(I10
I1
F-0.75
S'comfortable'
p17
I2
tp18
a(I13
I7
I0
S'full'
p19
I2
tp20
a(I13
I7
I0
S'great'
p21
I2
tp22
a(I19
I64
I0
S'internal'
p23
I2
tp24
a(I25
I50
F0.625
S'decent'
p25
I2
tp26
a(I25
I50
I0
S'full'
p27
I2
tp28
as(S'service'
p29
tp30
(lp31
(I25
I6
F0.75
S'due'
p32
I16
tp33
as(S'camera'
p34
tp35
(lp36
(I4
I3
F1.0
S'good'
p37
I1
tp38
a(I11
I23
F1.0
S'good'
p39
I1
tp40
a(I17
I7
F0.625
S'decent'
p41
I1
tp42
as(S'internet'
p43
tp44
(lp45
(I11
I43
I0
S'many'
p46
I6
tp47
as(S'get'
p48
S'a'
p49
S'text'
p50
tp51
(lp52
(I9
I28
F0.375
S'new'
p53
I0
tp54
a(I11
I7
F0.375
S'new'
p55
I0
tp56
a(I3
I4
I0
g5
I18
tp57
a(I5
I5
I0
S'only'
p58
I18
tp59
a(I9
I28
F0.375
g53
I18
tp60
a(I11
I7
F0.375
g55
I18
tp61
a(I25
I6
F-0.5
S'sure'
p62
I18
tp63
a(I25
I6
F0.625
S'alright'
p64
I18
tp65
a(I25
I74
I0
S'many'
p66
I18
tp67
a(I25
I74
I0
S'e-mail'
p68
I18
tp69
as(S'messages'
p70
tp71
(lp72
(I19
I45
I0
S'text'
p73
I1
tp74
as(S'mobile'
p75
S'no'
p76
S'longer'
p77
tp78
(lp79
(I5
I10
F0.5
S'compatible'
p80
I0
tp81
a(I19
I1
F0.375
S'available'
p82
I0
tp83
as(S'battery'
p84
tp85
(lp86
(I5
I8
F0.25
S'original'
p87
I15
tp88
a(I11
I3
F-0.25
S'low'
p89
I15
tp90
a(I11
I21
F-0.5
S'weak'
p91
I15
tp92
a(I17
I13
F0.375
S'new'
p93
I15
tp94
a(I19
I32
F-0.25
S'low'
p95
I15
tp96
a(I25
I54
F-0.75
S'dead'
p97
I15
tp98
as(S'texting'
p99
S'and'
p100
S'calling'
p101
tp102
(lp103
(I0
I3
F1.0
S'good'
p104
I0
tp105
a(I7
I15
I0
S'great'
p106
I0
tp107
as(S'sim'
p108
S'card'
p109
tp110
(lp111
(I0
I51
F0.125
S'able'
p112
I0
tp113
a(I6
I12
F0.625
S'necessary'
p114
I0
tp115
a(I6
I14
F0.125
S'able'
p116
I0
tp117
a(I6
I14
F0.125
S'native'
p118
I0
tp119
a(I11
I63
F-0.5
S'sure'
p120
I0
tp121
as(S'contacts'
p122
tp123
(lp124
(I4
I26
F-0.625
S'bad'
p125
I0
tp126
a(I25
I25
F0.875
S'lucky'
p127
I0
tp128
a(I25
I25
I0
S'most'
p129
I0
tp130
a(I25
I65
F-0.625
S'other'
p131
I0
tp132
as(S'annoying'
p133
tp134
(lp135
(I3
I18
F-0.75
S'little'
p136
I2
tp137
as(g49
S'data'
p138
S'plan'
p139
tp140
(lp141
(I19
I35
F-0.25
S'dropped'
p142
I0
tp143
a(I19
I35
F-0.25
g142
I0
tp144
a(I8
I15
I0
S'active'
p145
I13
tp146
a(I13
I15
I0
S'net'
p147
I13
tp148
a(I13
I31
I0
S'more'
p149
I13
tp150
a(I19
I35
F-0.25
g142
I13
tp151
as(S'every'
p152
S'2'
p153
S'minutes'
p154
tp155
(lp156
(I11
I9
I0
S'least'
p157
I0
tp158
a(I11
I9
I0
g157
I0
tp159
a(I25
I69
F-0.5
S'vibrate'
p160
I0
tp161
a(I25
I69
I0
S'least'
p162
I0
tp163
as(S'sidekick'
p164
tp165
(lp166
(I0
I76
F0.375
S'new'
p167
I0
tp168
a(I13
I23
F0.875
S'happier'
p169
I0
tp170
a(I17
I0
I0
S'full'
p171
I0
tp172
a(I19
I72
F0.375
S'new'
p173
I0
tp174
a(I21
I7
F0.375
S'new'
p175
I0
tp176
a(I22
I0
I0
S'old'
p177
I0
tp178
a(I24
I17
I0
S'more'
p179
I0
tp180
a(I25
I29
I0
S'great'
p181
I0
tp182
as(S'calls'
p183
tp184
(lp185
(I5
I5
F-0.625
S'other'
p186
I0
tp187
a(I9
I16
I0
S'quick'
p188
I0
tp189
a(I9
I16
F0.625
S'easy'
p190
I0
tp191
a(I19
I69
F0.625
S'easy'
p192
I0
tp193
as.