(dp0
(S'battery'
p1
S'life'
p2
tp3
(lp4
(I3
I4
F1.0
S'good'
p5
I1
tp6
a(I5
I4
F-0.5
S'poor'
p7
I1
tp8
a(I21
I76
I0
S'great'
p9
I1
tp10
a(I43
I4
F-0.5
S'poor'
p11
I1
tp12
a(I51
I18
F-0.75
S'short'
p13
I1
tp14
as(S'ring'
p15
S'tones'
p16
tp17
(lp18
(I45
I29
F-0.75
S'unable'
p19
I0
tp20
a(I49
I1
I0
S'big'
p21
I0
tp22
as(S'u'
p23
S's'
p24
S'version'
p25
tp26
(lp27
(I11
I33
F0.25
S'unlocked'
p28
I0
tp29
a(I20
I15
I0
S'older'
p30
I0
tp31
a(I24
I9
F-0.125
S'foreign'
p32
I0
tp33
a(I34
I7
I0
S'same'
p34
I0
tp35
a(I43
I1
I0
S'european'
p36
I0
tp37
a(I46
I101
F-0.5
S'international'
p38
I0
tp39
a(I60
I12
F-0.5
S'international'
p40
I0
tp41
a(I62
I14
I0
S'latest'
p42
I0
tp43
as(S'text'
p44
tp45
(lp46
(I23
I31
F-0.5
S'regular'
p47
I18
tp48
a(I45
I16
I0
S'german'
p49
I18
tp50
a(I58
I24
F-0.375
S'simple'
p51
I18
tp52
as(S'one'
p53
S'day'
p54
tp55
(lp56
(I15
I0
I0
S'third'
p57
I1
tp58
a(I16
I0
F0.125
S'first'
p59
I1
tp60
a(I21
I12
I0
S'lasted'
p61
I1
tp62
a(I21
I31
F-0.5
S'less'
p63
I1
tp64
a(I21
I69
F1.0
S'good'
p65
I1
tp66
a(I28
I1
F-0.75
S'single'
p67
I1
tp68
a(I32
I2
F0.125
S'last'
p69
I1
tp70
a(I52
I45
F-0.25
S'past'
p71
I1
tp72
as(S'works'
p73
S'fine'
p74
tp75
(lp76
(I24
I8
F0.375
S'new'
p77
I9
tp78
as(S'oem'
p79
S'shop'
p80
tp81
(lp82
(I40
I1
F0.125
S'profile'
p83
I0
tp84
as(S'charging'
p85
S'port'
p86
tp87
(lp88
(I65
I0
F-0.625
S'bad'
p89
I1
tp90
as(S'predictive'
p91
S'texting'
p92
tp93
(lp94
(I58
I22
F-0.75
S'unable'
p95
I0
tp96
a(I58
I22
F-0.375
S'manual'
p97
I0
tp98
as(S'voice'
p99
S'mail'
p100
tp101
(lp102
(I45
I16
I0
S'german'
p103
I0
tp104
as(S'hold'
p105
S'a'
p106
S'charge'
p107
tp108
(lp109
(I10
I10
F-0.5
S'long'
p110
I0
tp111
a(I13
I14
F-0.5
S'longer'
p112
I0
tp113
a(I47
I9
F-0.5
S'long'
p114
I0
tp115
a(I47
I9
I0
S'more'
p116
I0
tp117
a(I58
I16
F-0.5
S'long'
p118
I0
tp119
as(S'seller'
p120
tp121
(lp122
(I20
I13
F0.25
S'professional'
p123
I19
tp124
a(I21
I0
F0.5
S'willing'
p125
I19
tp126
a(I21
I48
I0
S'such'
p127
I19
tp128
a(I23
I0
I0
S'attached'
p129
I19
tp130
a(I23
I0
F0.125
S'first'
p131
I19
tp132
a(I23
I0
I0
S'e-mail'
p133
I19
tp134
a(I45
I11
F-0.75
S'unable'
p135
I19
tp136
a(I51
I2
I0
S'different'
p137
I19
tp138
a(I51
I2
F-0.5
S'sure'
p139
I19
tp140
a(I56
I6
F1.0
S'good'
p141
I19
tp142
a(I56
I7
F0.25
S'responsive'
p143
I19
tp144
as(S'weeks'
p145
tp146
(lp147
(I11
I53
F0.375
S'working'
p148
I18
tp149
a(I11
I55
F-0.5
S'longer'
p150
I18
tp151
a(I57
I2
I0
S'few'
p152
I18
tp153
a(I62
I2
I0
S'few'
p154
I18
tp155
a(I62
I2
I0
S'later'
p156
I18
tp157
a(I63
I13
I0
S'later'
p158
I18
tp159
as(S'razor'
p160
tp161
(lp162
(I1
I7
F0.375
S'new'
p163
I0
tp164
a(I6
I11
F0.25
S'original'
p165
I0
tp166
a(I6
I12
I0
S'old'
p167
I0
tp168
a(I6
I33
F0.5
S'second'
p169
I0
tp170
a(I8
I0
F0.25
S'original'
p171
I0
tp172
a(I16
I12
I0
S'real'
p173
I0
tp174
a(I21
I24
I0
S'more'
p175
I0
tp176
as(S'replacement'
p177
tp178
(lp179
(I8
I6
F0.375
S'new'
p180
I13
tp181
as(S'refund'
p182
tp183
(lp184
(I21
I0
I0
S'full'
p185
I8
tp186
a(I21
I16
F0.875
S'lucky'
p187
I8
tp188
a(I45
I55
F-0.25
S'late'
p189
I8
tp190
a(I45
I58
F-0.25
S'late'
p191
I8
tp192
as(S'first'
p193
S'time'
p194
tp195
(lp196
(I5
I1
F0.125
S'first'
p197
I10
tp198
a(I9
I0
F0.125
S'first'
p199
I10
tp200
a(I13
I22
F0.125
S'first'
p201
I10
tp202
a(I16
I18
F0.125
S'first'
p203
I10
tp204
a(I16
I19
F0.125
S'first'
p205
I10
tp206
a(I50
I7
F0.125
S'first'
p207
I10
tp208
a(I51
I78
F0.125
S'last'
p209
I10
tp210
as(S'sim'
p211
S'card'
p212
tp213
(lp214
(I8
I1
I0
S'reinstall'
p215
I0
tp216
a(I16
I2
F0.375
S'new'
p217
I0
tp218
a(I20
I51
I0
S'switched'
p219
I0
tp220
a(I20
I53
F-0.5
S'sure'
p221
I0
tp222
a(I20
I53
F-0.125
S'mine'
p223
I0
tp224
a(I21
I64
I0
S'local'
p225
I0
tp226
a(I27
I37
I0
S'old'
p227
I0
tp228
a(I38
I12
F0.375
S'new'
p229
I0
tp230
as(g106
S'us'
p231
S'version'
p232
tp233
(lp234
(I43
I1
I0
g36
I0
tp235
a(I46
I101
F-0.5
g38
I0
tp236
a(I43
I1
I0
g36
I0
tp237
a(I46
I101
F-0.5
g38
I0
tp238
as(S'dial'
p239
S'assignments'
p240
tp241
(lp242
(I51
I68
I0
S'different'
p243
I0
tp244
a(I51
I68
F-0.375
S'manual'
p245
I0
tp246
as(S'black'
p247
tp248
(lp249
(I27
I7
F0.5
S'flat'
p250
I19
tp251
a(I46
I86
F0.5
S'flat'
p252
I19
tp253
as(S'digital'
p254
S'camera'
p255
tp256
(lp257
(I47
I10
F0.125
S'digital'
p258
I1
tp259
a(I47
I11
F0.125
S'digital'
p260
I1
tp261
as(S'warranty'
p262
tp263
(lp264
(I1
I7
F-0.375
S'black'
p265
I2
tp266
a(I21
I15
F0.875
S'lucky'
p267
I2
tp268
a(I32
I1
F0.5
S'told'
p269
I2
tp270
a(I51
I28
I0
S'full'
p271
I2
tp272
a(I52
I51
F-0.625
S'sorry'
p273
I2
tp274
as(S'motorola'
p275
S'razr'
p276
S'v3'
p277
tp278
(lp279
(I7
I13
F0.25
S'original'
p280
I0
tp281
a(I44
I3
F-0.375
S'black'
p282
I0
tp283
a(I45
I63
F0.375
S'new'
p284
I0
tp285
a(I46
I96
F-0.25
S'past'
p286
I0
tp287
a(I46
I99
F-0.375
S'black'
p288
I0
tp289
a(I16
I20
I0
S'old'
p290
I0
tp291
a(I20
I63
F0.375
S'new'
p292
I0
tp293
a(I23
I0
F0.375
S'new'
p294
I0
tp295
a(I23
I0
I0
S'old'
p296
I0
tp297
a(I45
I44
F0.25
S'original'
p298
I0
tp299
a(I55
I12
I0
S'third'
p300
I0
tp301
a(I5
I3
F0.25
S'original'
p302
I0
tp303
a(I7
I13
F0.25
g280
I0
tp304
a(I20
I53
I0
S'old'
p305
I0
tp306
a(I21
I66
F0.25
S'original'
p307
I0
tp308
a(I26
I11
I0
S'same'
p309
I0
tp310
a(I26
I11
F0.25
S'original'
p311
I0
tp312
a(I27
I55
F0.25
S'original'
p313
I0
tp314
a(I28
I37
I0
S'old'
p315
I0
tp316
a(I34
I33
I0
S'old'
p317
I0
tp318
a(I44
I0
F0.25
S'original'
p319
I0
tp320
a(I44
I3
F-0.375
g282
I0
tp321
a(I45
I63
F0.375
g284
I0
tp322
a(I46
I96
F-0.25
g286
I0
tp323
a(I46
I99
F-0.375
g288
I0
tp324
a(I52
I25
F0.375
S'new'
p325
I0
tp326
a(I5
I10
I0
S'old'
p327
I0
tp328
a(I6
I2
I0
S'third'
p329
I0
tp330
a(I6
I26
F0.125
S'first'
p331
I0
tp332
a(I8
I4
F-0.5
S'unavailable'
p333
I0
tp334
a(I8
I4
F0.875
S'happy'
p335
I0
tp336
a(I10
I9
F0.875
S'happy'
p337
I0
tp338
a(I13
I0
F0.25
S'original'
p339
I0
tp340
a(I16
I20
I0
g290
I0
tp341
a(I21
I82
F0.5
S'second'
p342
I0
tp343
a(I23
I42
F0.125
S'last'
p344
I0
tp345
a(I27
I0
F0.375
S'new'
p346
I0
tp347
a(I27
I55
F0.25
g313
I0
tp348
a(I28
I36
I0
S'old'
p349
I0
tp350
a(I28
I37
I0
g315
I0
tp351
a(I29
I0
I0
S'old'
p352
I0
tp353
a(I34
I5
I0
S'old'
p354
I0
tp355
a(I34
I26
I0
S'third'
p356
I0
tp357
a(I45
I44
F0.25
g298
I0
tp358
a(I46
I6
F-0.625
S'other'
p359
I0
tp360
a(I46
I13
F-0.625
S'other'
p361
I0
tp362
a(I52
I22
F0.125
S'first'
p363
I0
tp364
a(I52
I51
F-0.375
S'black'
p365
I0
tp366
a(I52
I59
F-0.75
S'difficult'
p367
I0
tp368
a(I52
I59
F0.375
S'new'
p369
I0
tp370
a(I52
I59
F-0.375
S'manual'
p371
I0
tp372
a(I54
I6
F0.125
S'solid'
p373
I0
tp374
a(I54
I6
F0.25
S'original'
p375
I0
tp376
a(I55
I12
I0
g300
I0
tp377
a(I56
I0
F0.125
S'able'
p378
I0
tp379
a(I56
I0
I0
S'old'
p380
I0
tp381
a(I56
I5
F0.875
S'lucky'
p382
I0
tp383
a(I56
I5
F0.125
S'first'
p384
I0
tp385
a(I58
I3
I0
S'great'
p386
I0
tp387
a(I59
I0
F0.25
S'original'
p388
I0
tp389
a(I59
I0
F1.0
S'better'
p390
I0
tp391
a(I60
I0
F0.25
S'original'
p392
I0
tp393
a(I64
I6
F0.5
S'true'
p394
I0
tp395
a(I64
I8
I0
S'old'
p396
I0
tp397
a(I1
I5
I0
S'earlier'
p398
I0
tp399
a(I5
I3
F0.25
g302
I0
tp400
a(I7
I13
F0.25
g280
I0
tp401
a(I20
I53
I0
g305
I0
tp402
a(I21
I9
I0
S'third'
p403
I0
tp404
a(I21
I20
F-0.625
S'bad'
p405
I0
tp406
a(I21
I66
F0.25
g307
I0
tp407
a(I26
I4
F0.5
S'second'
p408
I0
tp409
a(I26
I11
I0
g309
I0
tp410
a(I26
I11
F0.25
g311
I0
tp411
a(I26
I25
I0
S'old'
p412
I0
tp413
a(I34
I33
I0
g317
I0
tp414
a(I44
I0
F0.25
g319
I0
tp415
a(I44
I3
F-0.375
g282
I0
tp416
a(I45
I63
F0.375
g284
I0
tp417
a(I46
I96
F-0.25
g286
I0
tp418
a(I46
I99
F-0.375
g288
I0
tp419
a(I52
I25
F0.375
g325
I0
tp420
a(I55
I10
I0
S'same'
p421
I0
tp422
as(g106
S'new'
p423
S'battery'
p424
tp425
(lp426
(I1
I8
F0.375
S'new'
p427
I1
tp428
a(I20
I51
F0.375
S'new'
p429
I1
tp430
a(I20
I52
F0.375
S'new'
p431
I1
tp432
a(I21
I51
F0.375
S'new'
p433
I1
tp434
a(I23
I23
F0.375
S'new'
p435
I1
tp436
a(I27
I19
F0.375
S'new'
p437
I1
tp438
a(I27
I51
F0.375
S'new'
p439
I1
tp440
a(I43
I6
F0.375
S'new'
p441
I1
tp442
a(I47
I2
F0.375
S'new'
p443
I1
tp444
a(I1
I8
F0.375
g427
I1
tp445
a(I20
I51
F0.375
g429
I1
tp446
a(I20
I52
F0.375
g431
I1
tp447
a(I21
I51
F0.375
g433
I1
tp448
a(I23
I23
F0.375
g435
I1
tp449
a(I27
I19
F0.375
g437
I1
tp450
a(I27
I51
F0.375
g439
I1
tp451
a(I43
I6
F0.375
g441
I1
tp452
a(I47
I2
F0.375
g443
I1
tp453
a(I1
I8
F0.375
g427
I15
tp454
a(I7
I10
F-0.25
S'low'
p455
I15
tp456
a(I7
I28
F1.0
S'good'
p457
I15
tp458
a(I13
I15
F-0.25
S'disappointing'
p459
I15
tp460
a(I18
I4
F0.125
S'first'
p461
I15
tp462
a(I20
I4
F-0.125
S'slow'
p463
I15
tp464
a(I20
I51
F0.375
g429
I15
tp465
a(I20
I52
F0.375
g431
I15
tp466
a(I21
I32
I0
S'ancient'
p467
I15
tp468
a(I21
I51
F0.375
g433
I15
tp469
a(I21
I69
F-0.5
S'power'
p470
I15
tp471
a(I23
I23
F0.375
g435
I15
tp472
a(I23
I35
F-0.25
S'low'
p473
I15
tp474
a(I23
I40
F-0.25
S'low'
p475
I15
tp476
a(I26
I29
F1.0
S'good'
p477
I15
tp478
a(I27
I19
F0.375
g437
I15
tp479
a(I27
I51
F0.375
g439
I15
tp480
a(I28
I1
F-0.75
S'invalid'
p481
I15
tp482
a(I43
I4
F-0.5
g11
I15
tp483
a(I43
I6
F0.375
g441
I15
tp484
a(I44
I7
F-0.5
S'sudden'
p485
I15
tp486
a(I44
I7
F-0.25
S'low'
p487
I15
tp488
a(I45
I43
F0.125
S'fat'
p489
I15
tp490
a(I46
I75
F-0.625
S'other'
p491
I15
tp492
a(I46
I76
F-0.625
S'bad'
p493
I15
tp494
a(I46
I76
F0.25
S'original'
p495
I15
tp496
a(I46
I80
F-0.5
S'less'
p497
I15
tp498
a(I46
I80
F1.0
S'good'
p499
I15
tp500
a(I47
I2
F0.375
g443
I15
tp501
a(I47
I70
F-0.25
S'low'
p502
I15
tp503
a(I50
I28
I0
S'same'
p504
I15
tp505
a(I52
I3
F-0.625
S'bad'
p506
I15
tp507
a(I52
I5
F0.5
S'second'
p508
I15
tp509
a(I65
I1
F-0.625
S'useless'
p510
I15
tp511
as(S'international'
p512
S'version'
p513
tp514
(lp515
(I46
I101
F-0.5
g38
I0
tp516
a(I60
I12
F-0.5
g40
I0
tp517
as(S'customer'
p518
S'service'
p519
tp520
(lp521
(I26
I6
F-0.625
S'bad'
p522
I3
tp523
a(I52
I40
F0.5
S'loyal'
p524
I3
tp525
a(I53
I6
F-0.625
S'bad'
p526
I3
tp527
a(I24
I5
I0
S'great'
p528
I16
tp529
a(I26
I6
F-0.625
g522
I16
tp530
a(I26
I9
I0
S'great'
p531
I16
tp532
a(I47
I12
I0
S'optional'
p533
I16
tp534
a(I52
I37
F1.0
S'good'
p535
I16
tp536
a(I53
I6
F-0.625
g526
I16
tp537
a(I63
I7
F0.5
S'compatible'
p538
I16
tp539
a(I46
I31
F0.875
S'happy'
p540
I11
tp541
a(I51
I41
F-0.375
S'small'
p542
I11
tp543
a(I51
I65
F-0.875
S'unhappy'
p544
I11
tp545
a(I52
I40
F0.5
g524
I11
tp546
as(S'volume'
p547
tp548
(lp549
(I9
I8
F-0.25
S'low'
p550
I6
tp551
a(I27
I8
F-0.25
S'low'
p552
I6
tp553
a(I27
I8
F-0.875
S'hard'
p554
I6
tp555
a(I28
I43
I0
S'adequate'
p556
I6
tp557
a(I28
I43
I0
S'great'
p558
I6
tp559
as(S'amazon'
p560
tp561
(lp562
(I1
I4
I0
S'quick'
p563
I13
tp564
a(I9
I0
F0.625
S'kind'
p565
I13
tp566
a(I9
I0
F-0.5
S'worried'
p567
I13
tp568
a(I10
I14
F1.0
S'good'
p569
I13
tp570
a(I11
I51
I0
S'different'
p571
I13
tp572
a(I44
I9
I0
S'great'
p573
I13
tp574
a(I47
I57
F0.375
S'available'
p575
I13
tp576
a(I51
I9
I0
S'such'
p577
I13
tp578
a(I52
I17
F-0.625
S'sorry'
p579
I13
tp580
a(I52
I40
F-0.875
S'unhappy'
p581
I13
tp582
a(I52
I54
F-0.5
S'sure'
p583
I13
tp584
as(S'flip'
p585
tp586
(lp587
(I28
I13
F1.0
S'best'
p588
I4
tp589
a(I46
I3
F-0.25
S'inexpensive'
p590
I4
tp591
as(S'old'
p592
S'razr'
p593
tp594
(lp595
(I5
I10
I0
g327
I0
tp596
a(I16
I20
I0
g290
I0
tp597
a(I28
I36
I0
g349
I0
tp598
a(I28
I37
I0
g315
I0
tp599
a(I29
I0
I0
g352
I0
tp600
a(I34
I5
I0
g354
I0
tp601
a(I34
I26
I0
g356
I0
tp602
a(I54
I6
F0.125
g373
I0
tp603
a(I54
I6
F0.25
g375
I0
tp604
a(I56
I0
F0.125
g378
I0
tp605
a(I56
I0
I0
g380
I0
tp606
a(I64
I8
I0
g396
I0
tp607
as(S'calls'
p608
tp609
(lp610
(I11
I45
F0.25
S'recent'
p611
I0
tp612
a(I13
I14
F-0.75
S'short'
p613
I0
tp614
a(I22
I0
F1.0
S'good'
p615
I0
tp616
a(I23
I19
F0.25
S'recent'
p617
I0
tp618
a(I23
I48
F0.5
S'possible'
p619
I0
tp620
a(I23
I48
F0.75
S'receive'
p621
I0
tp622
a(I44
I9
F-0.5
S'vibrate'
p623
I0
tp624
a(I45
I30
F0.125
S'able'
p625
I0
tp626
a(I52
I38
F-0.75
S'unable'
p627
I0
tp628
a(I58
I18
F-0.25
S'dropped'
p629
I0
tp630
as.