(dp0
(S'back'
p1
S'cover'
p2
tp3
(lp4
(I3
I43
F-0.5
S'sure'
p5
I2
tp6
as(S'battery'
p7
S'life'
p8
tp9
(lp10
(I4
I60
F1.0
S'good'
p11
I1
tp12
a(I5
I24
F0.25
S'bigger'
p13
I1
tp14
a(I5
I24
F1.0
S'better'
p15
I1
tp16
a(I7
I84
F-0.625
S'average'
p17
I1
tp18
a(I4
I60
F1.0
g11
I19
tp19
a(I7
I84
F-0.625
g17
I19
tp20
a(I0
I15
F-0.5
S'sure'
p21
I15
tp22
a(I5
I24
F0.25
g13
I15
tp23
a(I5
I24
F1.0
g15
I15
tp24
a(I8
I22
I0
S'more'
p25
I15
tp26
as(S'keyboard'
p27
tp28
(lp29
(I0
I221
F1.0
S'good'
p30
I2
tp31
a(I1
I8
F0.875
S'nice'
p32
I2
tp33
a(I1
I8
F0.625
S'easy'
p34
I2
tp35
a(I4
I19
I0
S'full'
p36
I2
tp37
a(I4
I62
F0.625
S'easy'
p38
I2
tp39
a(I8
I62
F-0.375
S'smaller'
p40
I2
tp41
a(I8
I62
F-0.5
S'less'
p42
I2
tp43
a(I8
I62
F-0.75
S'comfortable'
p44
I2
tp45
as(S'right'
p46
S'away'
p47
tp48
(lp49
(I0
I62
F0.625
S'right'
p50
I7
tp51
as(S'text'
p52
tp53
(lp54
(I0
I130
I0
S'own'
p55
I18
tp56
a(I0
I154
F-0.375
S'small'
p57
I18
tp58
as(S'tmobile'
p59
tp60
(lp61
(I0
I103
F0.375
S'much'
p62
I0
tp63
a(I0
I222
I0
S'specific'
p64
I0
tp65
a(I8
I13
F0.375
S'new'
p66
I0
tp67
as(S'trackball'
p68
tp69
(lp70
(I6
I54
F-0.375
S'black'
p71
I0
tp72
as(S'camera'
p73
tp74
(lp75
(I0
I41
F1.0
S'good'
p76
I1
tp77
a(I0
I87
I0
S'great'
p78
I1
tp79
a(I0
I164
I0
S'normal'
p80
I1
tp81
a(I3
I41
F-0.5
S'longer'
p82
I1
tp83
a(I5
I17
F1.0
S'best'
p84
I1
tp85
a(I7
I68
I0
S'great'
p86
I1
tp87
as(S'auto'
p88
S'focus'
p89
tp90
(lp91
(I6
I33
F0.875
S'nice'
p92
I0
tp93
as(S'iphone'
p94
tp95
(lp96
(I0
I91
F0.125
S'able'
p97
I1
tp98
a(I0
I94
I0
S'fast'
p99
I1
tp100
a(I0
I112
F-0.5
S'less'
p101
I1
tp102
a(I0
I113
F0.125
S'first'
p103
I1
tp104
a(I0
I221
F-0.75
S'unable'
p105
I1
tp106
a(I1
I24
I0
S'great'
p107
I1
tp108
a(I5
I11
F-0.375
S'smaller'
p109
I1
tp110
a(I5
I19
F-0.25
S'rest'
p111
I1
tp112
a(I6
I21
F0.375
S'new'
p113
I1
tp114
a(I7
I74
F0.375
S'much'
p115
I1
tp116
a(I8
I8
I0
S'next'
p117
I1
tp118
as(S'internet'
p119
tp120
(lp121
(I0
I217
F-0.125
S'mine'
p122
I6
tp123
a(I4
I106
F0.625
S'easy'
p124
I6
tp125
a(I6
I64
I0
S'monthly'
p126
I6
tp127
a(I7
I51
I0
S'different'
p128
I6
tp129
a(I8
I100
I0
S'standard'
p130
I6
tp131
as(S't'
p132
S'mobile'
p133
tp134
(lp135
(I5
I20
F0.375
S'complete'
p136
I0
tp137
a(I5
I20
F0.375
g136
I0
tp138
as(S'button'
p139
tp140
(lp141
(I0
I159
F-0.375
S'top'
p142
I19
tp143
a(I4
I101
F0.5
S'touch'
p144
I19
tp145
a(I7
I87
F0.5
S'second'
p146
I19
tp147
as(S'curve'
p148
tp149
(lp150
(I0
I10
F0.875
S'music'
p151
I8
tp152
a(I0
I35
F0.25
S'original'
p153
I8
tp154
a(I0
I92
I0
S'great'
p155
I8
tp156
a(I0
I115
I0
S'more'
p157
I8
tp158
a(I0
I115
F0.25
S'professional'
p159
I8
tp160
a(I0
I148
I0
S'old'
p161
I8
tp162
a(I0
I164
I0
S'old'
p163
I8
tp164
a(I1
I3
F0.375
S'new'
p165
I8
tp166
a(I1
I5
F0.25
S'original'
p167
I8
tp168
a(I1
I5
F1.0
S'better'
p169
I8
tp170
a(I1
I9
F0.375
S'loud'
p171
I8
tp172
a(I1
I9
I0
S'old'
p173
I8
tp174
a(I1
I19
I0
S'old'
p175
I8
tp176
a(I3
I49
F0.625
S'perfect'
p177
I8
tp178
a(I4
I34
I0
S'earlier'
p179
I8
tp180
a(I6
I40
F-0.25
S'flatter'
p181
I8
tp182
a(I6
I40
F-0.625
S'lighter'
p183
I8
tp184
a(I6
I40
I0
S'older'
p185
I8
tp186
a(I6
I60
I0
S'old'
p187
I8
tp188
a(I6
I60
F0.125
S'first'
p189
I8
tp190
as(S'contract'
p191
tp192
(lp193
(I0
I139
F-0.625
S'other'
p194
I0
tp195
a(I6
I11
I0
S'active'
p196
I0
tp197
a(I6
I14
F-0.5
S'less'
p198
I0
tp199
as(S'weeks'
p200
tp201
(lp202
(I0
I217
I0
S'few'
p203
I18
tp204
a(I0
I217
I0
S'old'
p205
I18
tp206
a(I4
I1
I0
S'few'
p207
I18
tp208
a(I4
I10
I0
S'few'
p209
I18
tp210
as(S'browser'
p211
tp212
(lp213
(I0
I89
I0
S'great'
p214
I0
tp215
a(I7
I52
I0
S'different'
p216
I0
tp217
as(S'blackberry'
p218
tp219
(lp220
(I0
I215
I0
S'more'
p221
I1
tp222
a(I2
I3
F0.125
S'first'
p223
I1
tp224
a(I5
I1
F-0.625
S'quite'
p225
I1
tp226
a(I5
I1
F0.5
S'true'
p227
I1
tp228
a(I6
I24
F1.0
S'good'
p229
I1
tp230
a(I8
I73
F-0.125
S'overall'
p231
I1
tp232
a(I8
I111
F-0.125
S'overall'
p233
I1
tp234
a(I8
I111
F1.0
S'best'
p235
I1
tp236
as(S'data'
p237
tp238
(lp239
(I0
I103
I0
S'faster'
p240
I13
tp241
as(S'much'
p242
S'better'
p243
tp244
(lp245
(I0
I46
F0.375
S'much'
p246
I9
tp247
a(I4
I50
F0.375
S'much'
p248
I9
tp249
a(I4
I51
F0.375
S'much'
p250
I9
tp251
as(S'touch'
p252
S'screens'
p253
tp254
(lp255
(I0
I113
F0.5
S'touch'
p256
I0
tp257
a(I8
I3
F0.5
S'touch'
p258
I0
tp259
as(S'customer'
p260
S'service'
p261
tp262
(lp263
(I0
I21
F1.0
S'good'
p264
I3
tp265
a(I6
I65
F1.0
S'best'
p266
I3
tp267
a(I8
I10
F-0.625
S'useless'
p268
I3
tp269
a(I0
I220
I0
S'monthly'
p270
I16
tp271
a(I0
I220
F0.375
S'newer'
p272
I16
tp273
a(I8
I10
F-0.625
g268
I16
tp274
a(I8
I50
I0
S'great'
p275
I16
tp276
as(S'bold'
p277
tp278
(lp279
(I0
I60
F-0.75
S'comfortable'
p280
I1
tp281
a(I0
I60
F-0.125
S'blackberry'
p282
I1
tp283
as(S'memory'
p284
S'stick'
p285
tp286
(lp287
(I6
I108
I0
S'cable'
p288
I0
tp289
a(I0
I131
I0
S'full'
p290
I5
tp291
a(I2
I6
I0
S'more'
p292
I5
tp293
a(I2
I6
F-0.625
S'free'
p294
I5
tp295
a(I6
I28
I0
S'internal'
p296
I5
tp297
as(S'wifi'
p298
tp299
(lp300
(I0
I36
I0
S'great'
p301
I0
tp302
a(I0
I110
I0
S'great'
p303
I0
tp304
a(I4
I68
F0.875
S'nice'
p305
I0
tp306
as(S'email'
p307
tp308
(lp309
(I4
I69
F0.625
S'convenient'
p310
I5
tp311
as(S'apps'
p312
tp313
(lp314
(I0
I10
F0.25
S'lovely'
p315
I0
tp316
a(I1
I34
I0
S'useful'
p317
I0
tp318
a(I3
I51
F1.0
S'best'
p319
I0
tp320
a(I3
I56
F-0.25
S'ready'
p321
I0
tp322
a(I4
I108
F-0.625
S'free'
p323
I0
tp324
a(I4
I110
F-0.625
S'free'
p325
I0
tp326
a(I4
I110
F-0.125
S'foreign'
p327
I0
tp328
a(I8
I97
I0
S'cool'
p329
I0
tp330
as(S'dropped'
p331
S'calls'
p332
tp333
(lp334
(I3
I38
F-0.25
S'dropped'
p335
I0
tp336
a(I1
I32
F-0.25
S'handle'
p337
I0
tp338
a(I3
I38
F-0.25
g335
I0
tp339
a(I4
I87
F0.75
S'receive'
p340
I0
tp341
a(I4
I89
I0
S'most'
p342
I0
tp343
a(I5
I38
F-0.5
S'answer'
p344
I0
tp345
as(S'amazon'
p346
tp347
(lp348
(I0
I57
F0.125
S'last'
p349
I13
tp350
a(I0
I70
F0.125
S'first'
p351
I13
tp352
a(I0
I244
I0
S'good-bye'
p353
I13
tp354
a(I0
I244
I0
S'good-bye'
p355
I13
tp356
a(I6
I16
F0.5
S'told'
p357
I13
tp358
as(S'customer'
p359
S'support'
p360
tp361
(lp362
(I6
I13
F0.125
S'first'
p363
I0
tp364
a(I6
I17
F1.0
S'better'
p365
I0
tp366
a(I0
I21
F1.0
g264
I11
tp367
a(I6
I13
F0.125
g363
I11
tp368
a(I6
I17
F1.0
g365
I11
tp369
a(I6
I65
F1.0
g266
I11
tp370
as.