(dp0
(S'model'
p1
tp2
(lp3
(I2
I2
F0.375
S'new'
p4
tp5
a(I8
I0
F0.125
S'first'
p6
tp7
a(I8
I0
F0.375
S'new'
p8
tp9
a(I8
I3
I0
S'same'
p10
tp11
a(I75
I2
I0
S'current'
p12
tp13
a(I76
I0
I0
S'european'
p14
tp15
a(I76
I0
F0.125
S'first'
p16
tp17
a(I108
I1
I0
S'european'
p18
tp19
a(I153
I10
I0
S'older'
p20
tp21
as(S'blue'
p22
tp23
(lp24
(I72
I1
I0
S'metallic'
p25
tp26
as(S'timely'
p27
S'manner'
p28
tp29
(lp30
(I71
I2
I0
S'timely'
p31
tp32
a(I132
I0
I0
S'timely'
p33
tp34
as(S'purchase'
p35
tp36
(lp37
(I157
I4
F-0.625
S'glad'
p38
tp39
as(S'weeks'
p40
tp41
(lp42
(I72
I1
I0
S'caribbean'
p43
tp44
a(I113
I1
I0
S'few'
p45
tp46
as(S'u'
p47
S's'
p48
S'version'
p49
tp50
(lp51
(I8
I1
I0
S'look-alike'
p52
tp53
a(I8
I1
F-0.5
S'international'
p54
tp55
a(I8
I3
F0.375
S'new'
p56
tp57
a(I27
I1
F-0.5
S'sure'
p58
tp59
a(I129
I2
F0.625
S'correct'
p60
tp61
a(I146
I2
I0
S'european'
p62
tp63
as(S'money'
p64
tp65
(lp66
(I7
I2
F0.75
S'worth'
p67
tp68
as(S'card'
p69
tp70
(lp71
(I93
I0
I0
S'sd'
p72
tp73
as(S'price'
p74
tp75
(lp76
(I8
I0
I0
S'full'
p77
tp78
a(I46
I0
I0
S'great'
p79
tp80
a(I85
I3
I0
S'great'
p81
tp82
as(S'customer'
p83
tp84
(lp85
(I27
I0
I0
S'great'
p86
tp87
as(S'service'
p88
tp89
(lp90
(I24
I5
F0.5
S'polite'
p91
tp92
a(I38
I1
F1.0
S'good'
p93
tp94
a(I43
I11
I0
S'same'
p95
tp96
a(I43
I11
F1.0
S'good'
p97
tp98
a(I51
I3
I0
S'great'
p99
tp100
a(I67
I2
F0.125
S'renewal'
p101
tp102
a(I72
I4
F-0.125
S'overall'
p103
tp104
a(I72
I4
F0.875
S'happy'
p105
tp106
a(I118
I1
F1.0
S'good'
p107
tp108
a(I118
I1
I0
S'supplier'
p109
tp110
as(S'everything'
p111
tp112
(lp113
(I18
I1
I0
S'english'
p114
tp115
a(I82
I3
F1.0
S'good'
p116
tp117
a(I133
I2
F0.375
S'new'
p118
tp119
as(S'back'
p120
tp121
(lp122
(I143
I1
F0.375
S'extra'
p123
tp124
a(I146
I7
F-0.75
S'impossible'
p125
tp126
a(I149
I1
I0
S'blue'
p127
tp128
a(I149
I1
F-0.125
S'violet'
p129
tp130
as(S'version'
p131
tp132
(lp133
(I8
I1
I0
g52
tp134
a(I8
I1
F-0.5
g54
tp135
a(I8
I3
F0.375
g56
tp136
a(I27
I1
F-0.5
g58
tp137
a(I47
I3
F-0.5
S'international'
p138
tp139
a(I129
I2
F0.625
g60
tp140
a(I146
I2
I0
g62
tp141
as(S'years'
p142
tp143
(lp144
(I6
I1
I0
S'third'
p145
tp146
a(I64
I0
I0
S'many'
p147
tp148
a(I69
I2
I0
S'old'
p149
tp150
a(I73
I2
I0
S'many'
p151
tp152
a(I75
I2
I0
S'older'
p153
tp154
a(I161
I3
F0.375
S'new'
p155
tp156
as(S'fine'
p157
tp158
(lp159
(I21
I1
F0.125
S'received'
p160
tp161
a(I143
I2
I0
S'jan'
p162
tp163
a(I161
I5
F-0.5
S'sudden'
p164
tp165
as(S'product'
p166
tp167
(lp168
(I24
I4
F0.375
S'confident'
p169
tp170
a(I112
I1
F0.375
S'new'
p171
tp172
a(I169
I0
I0
S'great'
p173
tp174
as(S'mobile'
p175
tp176
(lp177
(I36
I0
I0
S'great'
p178
tp179
as(S'u.s.'
p180
S'version'
p181
tp182
(lp183
(I8
I3
F0.375
g56
tp184
as(S'cover'
p185
tp186
(lp187
(I104
I0
F0.125
S'first'
p188
tp189
a(I133
I1
F0.375
S'new'
p190
tp191
a(I150
I0
F0.125
S'charger'
p192
tp193
as(S'sim'
p194
S'cards'
p195
tp196
(lp197
(I21
I0
F-0.125
S'foreign'
p198
tp199
as(S'send'
p200
S't'
p201
S'back'
p202
tp203
(lp204
(I146
I7
F-0.75
g125
tp205
as(S'seller'
p206
tp207
(lp208
(I42
I0
I0
S'such'
p209
tp210
a(I42
I0
F1.0
S'good'
p211
tp212
a(I82
I7
F-0.125
S'overall'
p213
tp214
a(I82
I7
F0.875
S'happy'
p215
tp216
as(S'month'
p217
tp218
(lp219
(I71
I1
F0.125
S'last'
p220
tp221
a(I71
I1
F0.125
S'last'
p222
tp223
a(I82
I3
I0
S'more'
p224
tp225
a(I115
I5
F0.375
S'extra'
p226
tp227
a(I143
I5
I0
S'old'
p228
tp229
a(I153
I0
I0
S'old'
p230
tp231
as(S'color'
p232
tp233
(lp234
(I4
I0
I0
S'different'
p235
tp236
a(I53
I13
I0
S'normal'
p237
tp238
a(I53
I13
F0.375
S'new'
p239
tp240
a(I77
I2
I0
S'multiple'
p241
tp242
a(I104
I0
I0
S'different'
p243
tp244
a(I109
I0
I0
S'different'
p245
tp246
a(I129
I8
F0.875
S'nice'
p247
tp248
a(I169
I1
I0
S'great'
p249
tp250
as(S'works'
p251
tp252
(lp253
(I65
I3
I0
S'great'
p254
tp255
a(I133
I9
F-0.25
S'cheaper'
p256
tp257
a(I133
I9
F0.125
S'charger'
p258
tp259
a(I141
I4
I0
S'great'
p260
tp261
as(S'razor'
p262
tp263
(lp264
(I60
I0
F0.125
S'able'
p265
tp266
as(S'battery'
p267
S'cover'
p268
tp269
(lp270
(I133
I2
F0.375
S'new'
p271
tp272
a(I150
I0
F0.125
g192
tp273
as(S'us'
p274
S'version'
p275
tp276
(lp277
(I8
I3
F0.375
g56
tp278
a(I27
I1
F-0.5
g58
tp279
a(I129
I2
F0.625
g60
tp280
as(S'motorola'
p281
tp282
(lp283
(I24
I2
F0.375
S'new'
p284
tp285
a(I73
I4
F0.25
S'original'
p286
tp287
a(I95
I2
F-0.625
S'green'
p288
tp289
a(I134
I3
F0.375
S'new'
p290
tp291
a(I134
I3
F0.25
S'original'
p292
tp293
a(I137
I0
I0
S'different'
p294
tp295
a(I143
I8
F0.375
S'new'
p296
tp297
as(S'order'
p298
tp299
(lp300
(I121
I3
F0.375
S'new'
p301
tp302
as(S'battery'
p303
tp304
(lp305
(I16
I0
F-0.75
S'dead'
p306
tp307
a(I44
I0
F0.375
S'new'
p308
tp309
a(I48
I1
I0
S'different'
p310
tp311
a(I72
I1
F-0.75
S'invalid'
p312
tp313
a(I81
I1
F-0.75
S'dead'
p314
tp315
a(I82
I6
F1.0
S'good'
p316
tp317
a(I112
I2
F0.375
S'new'
p318
tp319
a(I118
I2
F-0.5
S'long'
p320
tp321
a(I121
I2
F-0.75
S'wrong'
p322
tp323
a(I122
I0
F-0.667
S'incompatible'
p324
tp325
a(I131
I1
F-0.75
S'dead'
p326
tp327
a(I133
I2
F0.375
g271
tp328
a(I159
I2
F0.375
S'new'
p329
tp330
as(S'razr'
p331
S'v3'
p332
tp333
(lp334
(I66
I0
F0.375
S'new'
p335
tp336
a(I73
I0
I0
S'blue'
p337
tp338
as(S'motorola'
p339
S'razr'
p340
tp341
(lp342
(I107
I0
I0
S'old'
p343
tp344
a(I137
I0
I0
g294
tp345
a(I143
I8
F0.375
g296
tp346
as(S'replacement'
p347
tp348
(lp349
(I76
I4
F0.5
S'eligible'
p350
tp351
a(I76
I6
F0.25
S'original'
p352
tp353
a(I117
I0
I0
S'great'
p354
tp355
as(S'cell'
p356
tp357
(lp358
(I20
I0
F0.375
S'new'
p359
tp360
a(I35
I1
I0
S'basic'
p361
tp362
a(I87
I2
F0.875
S'happy'
p363
tp364
a(I126
I0
I0
S'carrier'
p365
tp366
a(I157
I5
F0.125
S'first'
p367
tp368
as(S'calls'
p369
tp370
(lp371
(I104
I0
F0.125
S'first'
p372
tp373
a(I125
I2
I0
S'many'
p374
tp375
as(S'sim'
p376
S'card'
p377
tp378
(lp379
(I17
I0
F0.75
S'fit'
p380
tp381
a(I21
I0
F-0.125
g198
tp382
as(S'charge'
p383
tp384
(lp385
(I41
I9
I0
S'more'
p386
tp387
a(I159
I2
F-0.75
S'unreliable'
p388
tp389
as(S'warranty'
p390
tp391
(lp392
(I43
I1
F-0.625
S'bad'
p393
tp394
a(I129
I9
I0
S'real'
p395
tp396
a(I143
I5
F-0.75
S'dead'
p397
tp398
a(I153
I1
F-0.625
S'bad'
p399
tp400
as(S'military'
p401
S'time'
p402
tp403
(lp404
(I11
I1
I0
S'military'
p405
tp406
a(I11
I1
I0
S'standard'
p407
tp408
a(I11
I1
I0
S'central'
p409
tp410
a(I103
I1
I0
S'military'
p411
tp412
a(I167
I3
I0
S'military'
p413
tp414
as(S'refund'
p415
tp416
(lp417
(I16
I1
F0.5
S'possible'
p418
tp419
a(I152
I1
F0.75
S'receive'
p420
tp421
as(S'company'
p422
tp423
(lp424
(I37
I5
I0
S'great'
p425
tp426
a(I40
I6
F0.875
S'reputable'
p427
tp428
a(I50
I3
I0
S'least'
p429
tp430
as(S'time'
p431
tp432
(lp433
(I2
I1
F-0.5
S'long'
p434
tp435
a(I7
I3
I0
S'next'
p436
tp437
a(I11
I1
I0
g405
tp438
a(I11
I1
I0
g407
tp439
a(I11
I1
I0
g409
tp440
a(I38
I1
F0.125
S'first'
p441
tp442
a(I73
I2
F0.125
S'able'
p443
tp444
a(I103
I1
I0
g411
tp445
a(I133
I12
I0
S'overseas'
p446
tp447
a(I133
I12
F0.125
S'first'
p448
tp449
a(I148
I0
F0.125
S'amazon'
p450
tp451
a(I148
I0
F0.125
S'first'
p452
tp453
a(I167
I3
I0
g413
tp454
as(S'n'
p455
S'box'
p456
tp457
(lp458
(I17
I3
F0.375
S'new'
p459
tp460
a(I54
I3
F-0.25
S'loose'
p461
tp462
a(I54
I4
F-0.25
S'loose'
p463
tp464
a(I60
I1
F0.375
S'new'
p465
tp466
a(I60
I1
F0.125
S'charger'
p467
tp468
a(I63
I1
I0
S'big'
p469
tp470
as(S'motorola'
p471
S'razr'
p472
S'v3'
p473
tp474
(lp475
(I66
I0
F0.375
g335
tp476
a(I143
I8
F0.375
g296
tp477
as(S'charger'
p478
tp479
(lp480
(I44
I0
I0
S'hot'
p481
tp482
a(I66
I0
I0
S'old'
p483
tp484
a(I76
I1
I0
S'european'
p485
tp486
a(I82
I7
F-0.375
S'manual'
p487
tp488
a(I103
I0
I0
S'european'
p489
tp490
a(I144
I3
F0.375
S'new'
p491
tp492
a(I167
I0
I0
S'european'
p493
tp494
a(I167
I2
I0
S'european'
p495
tp496
a(I167
I5
F0.375
S'new'
p497
tp498
as(S'experience'
p499
tp500
(lp501
(I24
I4
F-0.625
S'bad'
p502
tp503
a(I47
I5
I0
S'same'
p504
tp505
a(I47
I5
F-0.875
S'negative'
p506
tp507
a(I123
I4
F-0.125
S'overall'
p508
tp509
a(I123
I4
F1.0
S'better'
p510
tp511
a(I167
I6
F0.125
S'first'
p512
tp513
a(I167
I6
F-0.625
S'bad'
p514
tp515
as(S'screen'
p516
tp517
(lp518
(I94
I1
F0.25
S'refurbished'
p519
tp520
a(I114
I2
F-0.625
S'unclear'
p521
tp522
a(I116
I1
F-0.375
S'black'
p523
tp524
as(S'customer'
p525
S'service'
p526
tp527
(lp528
(I24
I5
F0.5
g91
tp529
a(I27
I0
I0
g86
tp530
as(S'razr'
p531
tp532
(lp533
(I3
I2
F0.75
S'classic'
p534
tp535
a(I17
I0
I0
S'old'
p536
tp537
a(I17
I3
I0
S'opt'
p538
tp539
a(I19
I2
F0.25
S'used'
p540
tp541
a(I37
I4
I0
S'more'
p542
tp543
a(I37
I4
F0.875
S'happy'
p544
tp545
a(I37
I4
I0
S'old'
p546
tp547
a(I64
I1
F0.375
S'new'
p548
tp549
a(I67
I6
I0
S'high'
p550
tp551
a(I71
I0
I0
S'many'
p552
tp553
a(I73
I0
I0
g337
tp554
a(I85
I7
I0
S'old'
p555
tp556
a(I100
I0
I0
S'few'
p557
tp558
a(I107
I0
I0
g343
tp559
a(I111
I0
I0
S'old'
p560
tp561
a(I134
I2
F0.375
S'new'
p562
tp563
a(I139
I0
F-0.625
S'other'
p564
tp565
a(I141
I0
F0.125
S'last'
p566
tp567
as(S'days'
p568
tp569
(lp570
(I32
I1
I0
S'few'
p571
tp572
as(S'old'
p573
S'razr'
p574
tp575
(lp576
(I17
I0
I0
g536
tp577
a(I37
I4
I0
g542
tp578
a(I37
I4
F0.875
g544
tp579
a(I37
I4
I0
g546
tp580
a(I85
I7
I0
g555
tp581
a(I107
I0
I0
g343
tp582
a(I111
I0
I0
g560
tp583
as.