(dp0
(S'and'
p1
S'touch'
p2
S'screen'
p3
tp4
(lp5
(I0
I17
F0.5
S'touch'
p6
I0
tp7
a(I0
I25
F0.875
S'nice'
p8
I0
tp9
a(I0
I61
F0.5
S'touch'
p10
I0
tp11
a(I0
I81
F0.5
S'touch'
p12
I0
tp13
a(I3
I3
F0.5
S'touch'
p14
I0
tp15
a(I3
I42
F0.5
S'touch'
p16
I0
tp17
a(I3
I42
F0.625
S'easier'
p18
I0
tp19
a(I3
I42
I0
S'sensitive'
p20
I0
tp21
a(I4
I21
F0.5
S'touch'
p22
I0
tp23
a(I6
I21
F0.5
S'touch'
p24
I0
tp25
a(I6
I25
I0
S'standard'
p26
I0
tp27
a(I7
I2
F-0.75
S'unresponsive'
p28
I0
tp29
a(I8
I2
F-0.875
S'awful'
p30
I0
tp31
a(I9
I53
F0.5
S'touch'
p32
I0
tp33
a(I9
I53
F0.25
S'responsive'
p34
I0
tp35
a(I9
I74
F0.5
S'touch'
p36
I0
tp37
a(I10
I29
F0.5
S'touch'
p38
I0
tp39
a(I17
I3
F0.5
S'touch'
p40
I0
tp41
a(I19
I10
F0.5
S'touch'
p42
I0
tp43
a(I20
I1
F0.5
S'touch'
p44
I0
tp45
a(I22
I1
F0.5
S'touch'
p46
I0
tp47
a(I26
I28
F0.5
S'touch'
p48
I0
tp49
a(I26
I63
F0.125
S'first'
p50
I0
tp51
a(I29
I10
F-0.75
S'bright'
p52
I0
tp53
a(I29
I10
F0.625
S'easy'
p54
I0
tp55
a(I29
I42
I0
S'full'
p56
I0
tp57
a(I29
I42
F0.125
S'key'
p58
I0
tp59
a(I33
I29
I0
S'sensitive'
p60
I0
tp61
a(I33
I29
F-0.75
S'little'
p62
I0
tp63
a(I36
I30
F-0.625
S'other'
p64
I0
tp65
a(I40
I12
F0.5
S'touch'
p66
I0
tp67
a(I40
I35
F-0.25
S'modern'
p68
I0
tp69
a(I44
I52
F0.5
S'touch'
p70
I0
tp71
a(I44
I52
I0
S'full'
p72
I0
tp73
a(I44
I52
F0.125
S'key'
p74
I0
tp75
as(S'functions'
p76
tp77
(lp78
(I0
I99
F0.125
S'first'
p79
I4
tp80
a(I0
I99
F0.25
S'familiar'
p81
I4
tp82
a(I9
I15
I0
S'fundamental'
p83
I4
tp84
a(I9
I47
I0
S'more'
p85
I4
tp86
a(I10
I110
I0
S'many'
p87
I4
tp88
a(I27
I8
F-0.625
S'natural'
p89
I4
tp90
a(I28
I27
F-0.75
S'impossible'
p91
I4
tp92
a(I34
I1
I0
S'same'
p93
I4
tp94
a(I36
I46
F-0.625
S'other'
p95
I4
tp96
a(I36
I46
I0
S'anymore'
p97
I4
tp98
a(I37
I9
I0
S'basic'
p99
I4
tp100
as(S'right'
p101
S'away'
p102
tp103
(lp104
(I45
I36
F-0.125
S'slow'
p105
I7
tp106
a(I45
I36
F0.625
S'right'
p107
I7
tp108
as(S'settings'
p109
tp110
(lp111
(I18
I17
F0.625
S'easy'
p112
I1
tp113
a(I30
I7
F0.625
S'easy'
p114
I1
tp115
a(I43
I71
F0.375
S'new'
p116
I1
tp117
as(S'service'
p118
tp119
(lp120
(I29
I73
F-0.625
S'other'
p121
I16
tp122
as(S'a'
p123
S'screen'
p124
S'protector'
p125
tp126
(lp127
(I0
I114
F0.375
S'extra'
p128
I1
tp129
a(I9
I53
F0.5
g32
I1
tp130
a(I9
I53
F0.25
g34
I1
tp131
a(I10
I65
F0.875
S'nice'
p132
I1
tp133
a(I18
I14
F0.5
S'touch'
p134
I1
tp135
a(I18
I14
F-0.75
S'insensitive'
p136
I1
tp137
a(I24
I13
I0
S'sensitive'
p138
I1
tp139
a(I24
I13
F0.5
S'touch'
p140
I1
tp141
a(I0
I114
F0.375
g128
I4
tp142
a(I9
I53
F0.5
g32
I4
tp143
a(I9
I53
F0.25
g34
I4
tp144
a(I10
I65
F0.875
g132
I4
tp145
a(I18
I14
F0.5
g134
I4
tp146
a(I18
I14
F-0.75
g136
I4
tp147
a(I24
I13
I0
g138
I4
tp148
a(I24
I13
F0.5
g140
I4
tp149
as(S'camera'
p150
tp151
(lp152
(I1
I34
F1.0
S'good'
p153
I1
tp154
a(I3
I35
F-0.875
S'awful'
p155
I1
tp156
a(I9
I39
F1.0
S'best'
p157
I1
tp158
a(I9
I76
F1.0
S'good'
p159
I1
tp160
a(I9
I76
F-0.5
S'regular'
p161
I1
tp162
a(I10
I29
I0
S'great'
p163
I1
tp164
a(I11
I1
F1.0
S'good'
p165
I1
tp166
a(I15
I6
I0
S'great'
p167
I1
tp168
a(I17
I10
F0.25
S'sharp'
p169
I1
tp170
a(I19
I7
F0.875
S'nice'
p171
I1
tp172
a(I26
I53
I0
S'great'
p173
I1
tp174
a(I37
I7
I0
S'great'
p175
I1
tp176
a(I43
I12
F0.125
S'able'
p177
I1
tp178
a(I44
I1
F1.0
S'better'
p179
I1
tp180
as(S'battery'
p181
S'life'
p182
tp183
(lp184
(I2
I9
F1.0
S'good'
p185
I1
tp186
a(I10
I32
I0
S'great'
p187
I1
tp188
a(I19
I15
F-0.75
S'short'
p189
I1
tp190
a(I19
I21
F1.0
S'good'
p191
I1
tp192
a(I23
I14
F0.875
S'nice'
p193
I1
tp194
a(I24
I14
F1.0
S'good'
p195
I1
tp196
a(I27
I12
F0.125
S'impressive'
p197
I1
tp198
a(I28
I38
F0.375
S'new'
p199
I1
tp200
a(I29
I44
F-0.625
S'average'
p201
I1
tp202
a(I32
I9
F0.125
S'first'
p203
I1
tp204
a(I32
I9
I0
S'more'
p205
I1
tp206
a(I39
I76
I0
S'great'
p207
I1
tp208
a(I41
I15
F1.0
S'good'
p209
I1
tp210
a(I44
I44
F-0.625
S'average'
p211
I1
tp212
a(I45
I26
F1.0
S'good'
p213
I1
tp214
a(I5
I7
F-0.375
S'daily'
p215
I19
tp216
a(I10
I32
I0
g187
I19
tp217
a(I19
I21
F1.0
g191
I19
tp218
a(I24
I14
F1.0
g195
I19
tp219
a(I27
I12
F0.125
g197
I19
tp220
a(I29
I44
F-0.625
g201
I19
tp221
a(I30
I56
F-0.875
S'unhappy'
p222
I19
tp223
a(I32
I9
I0
g205
I19
tp224
a(I39
I76
I0
g207
I19
tp225
a(I40
I38
F1.0
S'better'
p226
I19
tp227
a(I44
I44
F-0.625
g211
I19
tp228
a(I1
I51
F-0.25
S'low'
p229
I15
tp230
a(I2
I9
F1.0
g185
I15
tp231
a(I3
I37
F0.125
S'last'
p232
I15
tp233
a(I5
I6
F1.0
S'good'
p234
I15
tp235
a(I12
I52
I0
S'very'
p236
I15
tp237
a(I12
I52
F-0.5
S'poor'
p238
I15
tp239
a(I17
I6
I0
S'old'
p240
I15
tp241
a(I19
I15
F-0.75
g189
I15
tp242
a(I23
I14
F0.875
g193
I15
tp243
a(I28
I38
F0.375
g199
I15
tp244
a(I29
I59
F-0.5
S'poor'
p245
I15
tp246
a(I29
I59
F0.25
S'main'
p247
I15
tp248
a(I30
I65
F1.0
S'good'
p249
I15
tp250
a(I30
I65
F0.375
S'new'
p251
I15
tp252
a(I32
I9
F0.125
g203
I15
tp253
a(I32
I10
F1.0
S'better'
p254
I15
tp255
a(I40
I24
F0.375
S'new'
p256
I15
tp257
a(I40
I28
F0.375
S'new'
p258
I15
tp259
a(I41
I2
F0.125
S'first'
p260
I15
tp261
a(I41
I2
F0.125
S'last'
p262
I15
tp263
a(I41
I3
F-0.75
S'dead'
p264
I15
tp265
a(I41
I9
F0.125
S'last'
p266
I15
tp267
a(I41
I15
F1.0
g209
I15
tp268
a(I41
I25
F0.125
S'last'
p269
I15
tp270
a(I45
I26
F1.0
g213
I15
tp271
as(S'qwerty'
p272
S'keyboard'
p273
tp274
(lp275
(I1
I36
I0
S'full'
p276
I0
tp277
a(I3
I61
F-0.875
S'hard'
p278
I0
tp279
a(I9
I22
I0
S'full'
p280
I0
tp281
a(I36
I59
F-0.375
S'small'
p282
I0
tp283
a(I38
I8
I0
S'great'
p284
I0
tp285
a(I45
I16
F0.75
S'due'
p286
I0
tp287
a(I45
I16
F-0.375
S'small'
p288
I0
tp289
a(I0
I12
I0
S'full'
p290
I2
tp291
a(I3
I61
F-0.875
g278
I2
tp292
a(I25
I1
I0
S'full'
p293
I2
tp294
a(I25
I1
F-0.375
S'small'
p295
I2
tp296
a(I31
I5
F1.0
S'better'
p297
I2
tp298
a(I38
I8
I0
g284
I2
tp299
a(I44
I56
I0
S'full'
p300
I2
tp301
a(I45
I16
F0.75
g286
I2
tp302
a(I45
I16
F-0.375
g288
I2
tp303
as(S'iphone'
p304
tp305
(lp306
(I0
I21
I0
S'slower'
p307
I1
tp308
a(I4
I6
F0.625
S'easier'
p309
I1
tp310
a(I6
I25
F0.25
S'responsive'
p311
I1
tp312
a(I23
I16
I0
S'slower'
p313
I1
tp314
a(I25
I2
I0
S'fast'
p315
I1
tp316
a(I33
I0
I0
S'great'
p317
I1
tp318
as(g123
S'touch'
p319
S'screen'
p320
tp321
(lp322
(I0
I6
F0.5
S'touch'
p323
I0
tp324
a(I0
I6
I0
S'numeral'
p325
I0
tp326
a(I0
I17
F0.5
g6
I0
tp327
a(I0
I25
F0.875
g8
I0
tp328
a(I0
I61
F0.5
g10
I0
tp329
a(I0
I81
F0.5
g12
I0
tp330
a(I0
I121
I0
S'sensitive'
p331
I0
tp332
a(I1
I54
F0.5
S'touch'
p333
I0
tp334
a(I3
I3
F0.5
g14
I0
tp335
a(I3
I42
F0.5
g16
I0
tp336
a(I3
I42
F0.625
g18
I0
tp337
a(I3
I42
I0
g20
I0
tp338
a(I3
I112
F0.5
S'touch'
p339
I0
tp340
a(I3
I114
F0.5
S'touch'
p341
I0
tp342
a(I4
I18
F0.5
S'touch'
p343
I0
tp344
a(I4
I21
F0.5
g22
I0
tp345
a(I6
I19
F0.5
S'touch'
p346
I0
tp347
a(I6
I21
F0.5
g24
I0
tp348
a(I6
I25
I0
g26
I0
tp349
a(I7
I2
F-0.75
g28
I0
tp350
a(I7
I7
F0.5
S'touch'
p351
I0
tp352
a(I8
I2
F-0.875
g30
I0
tp353
a(I9
I53
F0.5
g32
I0
tp354
a(I9
I53
F0.25
g34
I0
tp355
a(I9
I58
F0.875
S'nice'
p356
I0
tp357
a(I9
I74
F0.5
g36
I0
tp358
a(I10
I29
F0.5
g38
I0
tp359
a(I10
I62
F0.5
S'touch'
p360
I0
tp361
a(I12
I31
F0.125
S'first'
p362
I0
tp363
a(I17
I3
F0.5
g40
I0
tp364
a(I17
I10
F0.5
S'touch'
p365
I0
tp366
a(I17
I10
F0.125
S'spectacular'
p367
I0
tp368
a(I17
I10
I0
S'fast'
p369
I0
tp370
a(I18
I14
F0.5
g134
I0
tp371
a(I18
I14
F-0.75
g136
I0
tp372
a(I19
I10
F0.5
g42
I0
tp373
a(I20
I1
F0.5
g44
I0
tp374
a(I22
I1
F0.5
g46
I0
tp375
a(I22
I3
F0.5
S'touch'
p376
I0
tp377
a(I24
I13
I0
g138
I0
tp378
a(I24
I13
F0.5
g140
I0
tp379
a(I26
I28
F0.5
g48
I0
tp380
a(I26
I63
F0.125
g50
I0
tp381
a(I27
I1
F0.125
S'skeptic'
p382
I0
tp383
a(I27
I1
F0.5
S'touch'
p384
I0
tp385
a(I28
I13
I0
S'great'
p386
I0
tp387
a(I28
I16
F0.5
S'touch'
p388
I0
tp389
a(I29
I10
F-0.75
g52
I0
tp390
a(I29
I10
F0.625
g54
I0
tp391
a(I29
I22
F0.5
S'touch'
p392
I0
tp393
a(I29
I30
I0
S'great'
p394
I0
tp395
a(I29
I31
F0.5
S'touch'
p396
I0
tp397
a(I29
I42
I0
g56
I0
tp398
a(I29
I42
F0.125
g58
I0
tp399
a(I29
I92
F-0.125
S'slow'
p400
I0
tp401
a(I29
I93
F-0.75
S'inoperable'
p402
I0
tp403
a(I29
I96
F-0.625
S'other'
p404
I0
tp405
a(I29
I96
F0.5
S'touch'
p406
I0
tp407
a(I29
I96
F0.5
S'touch'
p408
I0
tp409
a(I30
I23
F-0.625
S'other'
p410
I0
tp411
a(I31
I8
F0.5
S'touch'
p412
I0
tp413
a(I32
I41
F0.5
S'touch'
p414
I0
tp415
a(I33
I23
F0.5
S'touch'
p416
I0
tp417
a(I33
I29
I0
g60
I0
tp418
a(I33
I29
F-0.75
g62
I0
tp419
a(I36
I11
F0.5
S'touch'
p420
I0
tp421
a(I36
I30
F-0.625
g64
I0
tp422
a(I40
I12
F0.5
g66
I0
tp423
a(I40
I35
F-0.25
g68
I0
tp424
a(I43
I24
F0.625
S'easy'
p425
I0
tp426
a(I44
I0
F0.5
S'touch'
p427
I0
tp428
a(I44
I52
F0.5
g70
I0
tp429
a(I44
I52
I0
g72
I0
tp430
a(I44
I52
F0.125
g74
I0
tp431
a(I45
I70
F0.25
S'responsive'
p432
I0
tp433
as(S'internet'
p434
tp435
(lp436
(I7
I29
F-0.375
S'manual'
p437
I6
tp438
a(I7
I29
F-0.5
S'unsuccessful'
p439
I6
tp440
a(I9
I5
F-0.75
S'unable'
p441
I6
tp442
a(I17
I3
I0
S'most'
p443
I6
tp444
a(I32
I11
F0.125
S'able'
p445
I6
tp446
a(I33
I44
F-0.5
S'sure'
p447
I6
tp448
a(I40
I34
F-0.375
S'manual'
p449
I6
tp450
a(I45
I42
F0.25
S'helpful'
p451
I6
tp452
a(I45
I42
F0.625
S'pleasant'
p453
I6
tp454
as(S'mobile'
p455
tp456
(lp457
(I11
I0
F1.0
S'good'
p458
I0
tp459
as(S'larger'
p460
S'hands'
p461
tp462
(lp463
(I10
I18
F-0.375
S'small'
p464
I0
tp465
a(I10
I18
F0.25
S'larger'
p466
I0
tp467
a(I31
I6
F0.25
S'larger'
p468
I0
tp469
a(I40
I13
F0.25
S'larger'
p470
I0
tp471
as(S'stylus'
p472
tp473
(lp474
(I7
I2
F-0.75
S'difficult'
p475
I7
tp476
a(I26
I40
F0.625
S'necessary'
p477
I7
tp478
a(I32
I40
F-0.75
S'wrong'
p479
I7
tp480
as(S'touchscreen'
p481
tp482
(lp483
(I3
I93
F-0.125
S'slow'
p484
I0
tp485
a(I4
I8
I0
S'more'
p486
I0
tp487
a(I9
I18
I0
S'resistive'
p488
I0
tp489
a(I9
I18
I0
S'capacitive'
p490
I0
tp491
a(I43
I1
I0
S'capacitive'
p492
I0
tp493
as(S'music'
p494
S'player'
p495
tp496
(lp497
(I10
I19
F0.875
S'music'
p498
I0
tp499
a(I10
I29
F0.875
S'music'
p500
I0
tp501
a(I12
I3
F1.0
S'good'
p502
I0
tp503
a(I34
I25
F0.875
S'music'
p504
I0
tp505
a(I37
I7
F0.875
S'music'
p506
I0
tp507
a(I37
I7
F1.0
S'good'
p508
I0
tp509
a(I10
I19
F0.875
g498
I6
tp510
a(I10
I29
F0.875
g500
I6
tp511
a(I34
I25
F0.875
g504
I6
tp512
a(I37
I7
F0.875
g506
I6
tp513
a(I37
I7
F1.0
g508
I6
tp514
a(I6
I21
F-0.625
S'bad'
p515
I0
tp516
a(I6
I22
F-0.625
S'bad'
p517
I0
tp518
a(I12
I3
F1.0
g502
I0
tp519
as(S'touch'
p520
S'screen'
p521
S'works'
p522
tp523
(lp524
(I26
I34
I0
S'great'
p525
I0
tp526
a(I38
I1
F1.0
S'good'
p527
I0
tp528
a(I0
I6
F0.5
g323
I2
tp529
a(I0
I6
I0
g325
I2
tp530
a(I0
I17
F0.5
g6
I2
tp531
a(I0
I25
F0.875
g8
I2
tp532
a(I0
I61
F0.5
g10
I2
tp533
a(I0
I81
F0.5
g12
I2
tp534
a(I0
I121
I0
g331
I2
tp535
a(I1
I54
F0.5
g333
I2
tp536
a(I3
I3
F0.5
g14
I2
tp537
a(I3
I42
F0.5
g16
I2
tp538
a(I3
I42
F0.625
g18
I2
tp539
a(I3
I42
I0
g20
I2
tp540
a(I3
I112
F0.5
g339
I2
tp541
a(I3
I114
F0.5
g341
I2
tp542
a(I4
I18
F0.5
g343
I2
tp543
a(I4
I21
F0.5
g22
I2
tp544
a(I6
I19
F0.5
g346
I2
tp545
a(I6
I21
F0.5
g24
I2
tp546
a(I6
I25
I0
g26
I2
tp547
a(I7
I2
F-0.75
g28
I2
tp548
a(I7
I7
F0.5
g351
I2
tp549
a(I8
I2
F-0.875
g30
I2
tp550
a(I9
I53
F0.5
g32
I2
tp551
a(I9
I53
F0.25
g34
I2
tp552
a(I9
I58
F0.875
g356
I2
tp553
a(I9
I74
F0.5
g36
I2
tp554
a(I10
I29
F0.5
g38
I2
tp555
a(I10
I62
F0.5
g360
I2
tp556
a(I12
I31
F0.125
g362
I2
tp557
a(I17
I3
F0.5
g40
I2
tp558
a(I17
I10
F0.5
g365
I2
tp559
a(I17
I10
F0.125
g367
I2
tp560
a(I17
I10
I0
g369
I2
tp561
a(I18
I14
F0.5
g134
I2
tp562
a(I18
I14
F-0.75
g136
I2
tp563
a(I19
I10
F0.5
g42
I2
tp564
a(I20
I1
F0.5
g44
I2
tp565
a(I22
I1
F0.5
g46
I2
tp566
a(I22
I3
F0.5
g376
I2
tp567
a(I24
I13
I0
g138
I2
tp568
a(I24
I13
F0.5
g140
I2
tp569
a(I26
I28
F0.5
g48
I2
tp570
a(I26
I63
F0.125
g50
I2
tp571
a(I27
I1
F0.125
g382
I2
tp572
a(I27
I1
F0.5
g384
I2
tp573
a(I28
I13
I0
g386
I2
tp574
a(I28
I16
F0.5
g388
I2
tp575
a(I29
I10
F-0.75
g52
I2
tp576
a(I29
I10
F0.625
g54
I2
tp577
a(I29
I22
F0.5
g392
I2
tp578
a(I29
I30
I0
g394
I2
tp579
a(I29
I31
F0.5
g396
I2
tp580
a(I29
I42
I0
g56
I2
tp581
a(I29
I42
F0.125
g58
I2
tp582
a(I29
I92
F-0.125
g400
I2
tp583
a(I29
I93
F-0.75
g402
I2
tp584
a(I29
I96
F-0.625
g404
I2
tp585
a(I29
I96
F0.5
g406
I2
tp586
a(I29
I96
F0.5
g408
I2
tp587
a(I30
I21
F0.5
S'touch'
p588
I2
tp589
a(I30
I23
F-0.625
g410
I2
tp590
a(I31
I8
F0.5
g412
I2
tp591
a(I32
I41
F0.5
g414
I2
tp592
a(I33
I23
F0.5
g416
I2
tp593
a(I33
I29
I0
g60
I2
tp594
a(I33
I29
F-0.75
g62
I2
tp595
a(I36
I11
F0.5
g420
I2
tp596
a(I36
I30
F-0.625
g64
I2
tp597
a(I40
I12
F0.5
g66
I2
tp598
a(I40
I35
F-0.25
g68
I2
tp599
a(I43
I24
F0.625
g425
I2
tp600
a(I44
I0
F0.5
g427
I2
tp601
a(I44
I52
F0.5
g70
I2
tp602
a(I44
I52
I0
g72
I2
tp603
a(I44
I52
F0.125
g74
I2
tp604
a(I45
I70
F0.25
g432
I2
tp605
as(S'sound'
p606
tp607
(lp608
(I7
I5
F-0.75
S'uncomfortable'
p609
I7
tp610
a(I10
I3
F1.0
S'good'
p611
I7
tp612
a(I18
I2
I0
S'external'
p613
I7
tp614
a(I36
I43
F1.0
S'good'
p615
I7
tp616
a(I36
I102
F0.625
S'decent'
p617
I7
tp618
a(I43
I62
F1.0
S'good'
p619
I7
tp620
a(I44
I3
F1.0
S'good'
p621
I7
tp622
as(S'lg'
p623
S'kp500'
p624
tp625
(lp626
(I0
I92
F0.375
S'available'
p627
I0
tp628
a(I9
I17
I0
S'adequate'
p629
I0
tp630
a(I10
I47
F-0.75
S'damaged'
p631
I0
tp632
a(I34
I15
I0
S'website'
p633
I0
tp634
a(I45
I1
I0
S'curious'
p635
I0
tp636
a(I0
I92
F0.375
g627
I0
tp637
a(I9
I17
I0
g629
I0
tp638
a(I19
I0
I0
S'ky'
p639
I0
tp640
a(I45
I1
I0
g635
I0
tp641
as(S'sim'
p642
S'card'
p643
tp644
(lp645
(I3
I86
I0
S'different'
p646
I0
tp647
a(I12
I20
F-0.25
S'inserted'
p648
I0
tp649
a(I12
I24
F-0.5
S'try'
p650
I0
tp651
a(I26
I32
I0
S'local'
p652
I0
tp653
a(I29
I6
F0.625
S'removable'
p654
I0
tp655
a(I43
I16
I0
S'old'
p656
I0
tp657
a(I43
I16
F0.375
S'new'
p658
I0
tp659
a(I44
I12
I0
S'local'
p660
I0
tp661
as(S'instruction'
p662
S'book'
p663
tp664
(lp665
(I7
I20
F0.625
S'polish'
p666
I3
tp667
a(I26
I23
F-0.5
S'weak'
p668
I3
tp669
a(I34
I15
I0
S'only'
p670
I3
tp671
a(I34
I15
F-0.875
S'negative'
p672
I3
tp673
as(S'text'
p674
S'messages'
p675
tp676
(lp677
(I10
I98
I0
S'text'
p678
I0
tp679
a(I36
I56
I0
S'text'
p680
I0
tp681
a(I6
I18
F0.875
S'music'
p682
I18
tp683
a(I7
I4
F0.125
S'able'
p684
I18
tp685
a(I45
I73
F0.75
S'receive'
p686
I18
tp687
a(I10
I98
I0
g678
I1
tp688
a(I36
I56
I0
g680
I1
tp689
a(I41
I13
F0.5
S'compatible'
p690
I1
tp691
as(S'quad'
p692
S'band'
p693
tp694
(lp695
(I3
I41
F0.875
S'nice'
p696
I0
tp697
as(S'speed'
p698
S'dial'
p699
tp700
(lp701
(I45
I13
I-100
S'notepad.-speed'
p702
I0
tp703
as(S'texting'
p704
tp705
(lp706
(I1
I40
F0.25
S'helpful'
p707
I0
tp708
a(I18
I15
I0
S'great'
p709
I0
tp710
a(I40
I13
F0.5
S'possible'
p711
I0
tp712
as(S'amazon'
p713
tp714
(lp715
(I3
I47
F-0.625
S'unusual'
p716
I13
tp717
a(I5
I2
I0
S'different'
p718
I13
tp719
a(I10
I57
F-0.5
S'sure'
p720
I13
tp721
a(I14
I2
I0
S'site'
p722
I13
tp723
a(I39
I69
F-0.5
S'regular'
p724
I13
tp725
a(I41
I6
F1.0
S'good'
p726
I13
tp727
a(I45
I39
F-0.625
S'free'
p728
I13
tp729
as(S'lg'
p730
S'cookie'
p731
tp732
(lp733
(I3
I115
F0.125
S'practical'
p734
I0
tp735
a(I10
I47
F-0.75
g631
I0
tp736
a(I10
I50
I0
S'old'
p737
I0
tp738
a(I0
I74
I0
S'great'
p739
I11
tp740
a(I0
I74
F-0.375
S'smaller'
p741
I11
tp742
a(I0
I74
F-0.625
S'lighter'
p743
I11
tp744
a(I3
I115
F0.125
g734
I11
tp745
a(I5
I29
F0.875
S'happy'
p746
I11
tp747
a(I40
I23
F0.125
S'first'
p748
I11
tp749
as.