(dp0
(S'black'
p1
S'berry'
p2
tp3
(lp4
(I4
I24
F-0.375
S'black'
p5
I0
tp6
a(I32
I94
F-0.625
S'other'
p7
I0
tp8
as(S'battery'
p9
tp10
(lp11
(I4
I7
F-0.75
S'dead'
p12
I15
tp13
a(I5
I4
I0
S'old'
p14
I15
tp15
a(I9
I5
F-0.875
S'hard'
p16
I15
tp17
a(I9
I5
F-0.5
S'open'
p18
I15
tp19
a(I9
I29
F-0.75
S'difficult'
p20
I15
tp21
a(I17
I10
F1.0
S'good'
p22
I15
tp23
a(I29
I0
I0
S'same'
p24
I15
tp25
a(I30
I3
F0.75
S'thought'
p26
I15
tp27
a(I30
I3
F-0.25
S'low'
p28
I15
tp29
a(I32
I51
F0.25
S'original'
p30
I15
tp31
as(S'customer'
p32
S'service'
p33
tp34
(lp35
(I32
I1
F-0.625
S'bad'
p36
I3
tp37
a(I32
I42
F1.0
S'good'
p38
I16
tp39
as(S'100'
p40
S'%'
p41
tp42
(lp43
(I32
I24
F0.625
S'responsible'
p44
I0
tp45
as(S'blackberry'
p46
S'pearl'
p47
tp48
(lp49
(I12
I14
F0.875
S'happy'
p50
I0
tp51
a(I4
I0
F0.375
S'new'
p52
I1
tp53
a(I4
I8
F0.25
S'original'
p54
I1
tp55
a(I12
I2
F0.125
S'first'
p56
I1
tp57
a(I12
I14
F0.875
g50
I1
tp58
a(I15
I5
F-0.5
S'regular'
p59
I1
tp60
a(I17
I10
F1.0
S'good'
p61
I1
tp62
a(I18
I16
F0.25
S'unlocked'
p63
I1
tp64
a(I32
I9
F0.5
S'told'
p65
I1
tp66
a(I32
I9
F-0.625
S'other'
p67
I1
tp68
as(S'amazon'
p69
tp70
(lp71
(I9
I26
I0
S'great'
p72
I13
tp73
a(I37
I2
F1.0
S'better'
p74
I13
tp75
as.