(dp0
(S'seller'
p1
tp2
(lp3
(I1
I11
F0.125
S'able'
p4
I19
tp5
a(I16
I4
F-0.625
S'other'
p6
I19
tp7
a(I27
I10
I0
S'such'
p8
I19
tp9
as(S'customer'
p10
S'service'
p11
tp12
(lp13
(I21
I5
I0
S'great'
p14
I3
tp15
as(S'iphone'
p16
tp17
(lp18
(I3
I12
F0.625
S'aware'
p19
I1
tp20
a(I3
I12
F0.125
S'able'
p21
I1
tp22
a(I12
I1
F-0.5
S'sure'
p23
I1
tp24
a(I12
I3
F-0.25
S'white'
p25
I1
tp26
a(I17
I4
F1.0
S'good'
p27
I1
tp28
a(I17
I5
F0.625
S'necessary'
p29
I1
tp30
a(I17
I6
F-0.625
S'bad'
p31
I1
tp32
a(I21
I17
I0
S'particular'
p33
I1
tp34
a(I22
I1
F0.125
S'first'
p35
I1
tp36
a(I22
I2
F0.5
S'second'
p37
I1
tp38
a(I23
I7
F0.375
S'much'
p39
I1
tp40
a(I23
I7
F0.375
S'new'
p41
I1
tp42
a(I30
I3
F0.125
S'able'
p43
I1
tp44
as(S'apple'
p45
tp46
(lp47
(I23
I4
F-0.25
S'past'
p48
I4
tp49
as.