(dp0
(S'apple'
p1
S'store'
p2
tp3
(lp4
(I20
I1
I0
S'apple'
p5
tp6
a(I142
I0
I0
S'apple'
p7
tp8
a(I303
I2
I0
S'apple'
p9
tp10
a(I376
I3
I0
S'local'
p11
tp12
a(I376
I3
I0
S'orange'
p13
tp14
a(I376
I5
I0
S'technician'
p15
tp16
a(I380
I6
I0
S'apple'
p17
tp18
a(I404
I5
F-0.375
S'nearest'
p19
tp20
a(I540
I3
F-0.375
S'nearest'
p21
tp22
as(S'problem'
p23
tp24
(lp25
(I103
I3
F-0.5
S'sure'
p26
tp27
a(I161
I0
I0
S'big'
p28
tp29
a(I169
I0
I0
S'same'
p30
tp31
a(I187
I0
I0
S'only'
p32
tp33
a(I197
I1
F0.5
S'willing'
p34
tp35
a(I284
I1
I0
S'such'
p36
tp37
a(I362
I1
F0.125
S'first'
p38
tp39
a(I365
I1
I0
S'only'
p40
tp41
a(I365
I1
F0.625
S'easy'
p42
tp43
a(I438
I1
I0
S'only'
p44
tp45
a(I468
I4
F-0.75
S'difficult'
p46
tp47
as(S'thanks'
p48
tp49
(lp50
(I50
I0
I0
S'least'
p51
tp52
a(I115
I0
I0
S'many'
p53
tp54
a(I202
I0
F1.0
S'good'
p55
tp56
a(I435
I1
F0.375
S'honest'
p57
tp58
as(S'purchase'
p59
tp60
(lp61
(I46
I2
F-0.625
S'bad'
p62
tp63
a(I177
I6
F-0.889
S'unfortunate'
p64
tp65
a(I209
I4
F-0.125
S'overall'
p66
tp67
a(I241
I0
I0
S'great'
p68
tp69
a(I267
I4
F0.875
S'happy'
p70
tp71
a(I273
I1
F0.5
S'satisfied'
p72
tp73
a(I285
I1
I0
S'next'
p74
tp75
a(I356
I0
F0.125
S'last'
p76
tp77
a(I388
I0
F0.875
S'happy'
p78
tp79
a(I389
I1
F-0.625
S'glad'
p80
tp81
a(I467
I4
F0.875
S'happy'
p82
tp83
a(I467
I4
F0.875
S'happier'
p84
tp85
a(I492
I0
F0.625
S'major'
p86
tp87
a(I517
I0
F-0.625
S'bad'
p88
tp89
a(I520
I0
F0.125
S'solid'
p90
tp91
a(I535
I1
F-0.875
S'worst'
p92
tp93
as(S'return'
p94
S'policy'
p95
tp96
(lp97
(I440
I2
F0.625
S'convenient'
p98
tp99
as(S'money'
p100
tp101
(lp102
(I1
I1
F0.375
S'extra'
p103
tp104
a(I1
I2
I0
S'own'
p105
tp106
a(I194
I2
I0
S'earlier'
p107
tp108
a(I301
I3
I0
S'more'
p109
tp110
a(I366
I1
F0.5
S'expensive'
p111
tp112
a(I452
I1
F0.125
S'able'
p113
tp114
as(S'card'
p115
tp116
(lp117
(I96
I2
F-0.25
S'ready'
p118
tp119
a(I153
I2
F-0.25
S'ready'
p120
tp121
as(S'bought'
p122
tp123
(lp124
(I130
I3
F0.125
S'first'
p125
tp126
as(S'company'
p127
tp128
(lp129
(I8
I3
F0.25
S'unlocked'
p130
tp131
a(I42
I5
F1.0
S'good'
p132
tp133
a(I43
I2
F0.375
S'new'
p134
tp135
a(I45
I0
F-0.125
S'front'
p136
tp137
a(I45
I0
I0
S'same'
p138
tp139
a(I307
I1
I0
S'old'
p140
tp141
a(I361
I4
I0
S'same'
p142
tp143
as(S'sim'
p144
S'card'
p145
S'tray'
p146
tp147
(lp148
(I306
I0
F0.125
S'first'
p149
tp150
as(S'service'
p151
tp152
(lp153
(I54
I0
I0
S'great'
p154
tp155
a(I109
I2
I0
S'same'
p156
tp157
a(I135
I7
F1.0
S'good'
p158
tp159
a(I155
I0
F1.0
S'good'
p160
tp161
a(I155
I0
F1.0
S'good'
p162
tp163
a(I212
I0
F1.0
S'good'
p164
tp165
a(I256
I1
I0
S'current'
p166
tp167
a(I285
I0
I0
S'great'
p168
tp169
a(I345
I0
F-0.625
S'bad'
p170
tp171
a(I367
I2
F0.25
S'helpful'
p172
tp173
a(I376
I7
F0.125
S'further'
p174
tp175
a(I407
I3
F1.0
S'good'
p176
tp177
a(I436
I3
F1.0
S'good'
p178
tp179
a(I466
I2
I0
S'great'
p180
tp181
as(S'everything'
p182
tp183
(lp184
(I55
I5
F0.5
S'functional'
p185
tp186
a(I162
I1
I0
S'great'
p187
tp188
a(I210
I0
F-0.5
S'unlimited'
p189
tp190
a(I246
I0
I0
S'great'
p191
tp192
a(I330
I0
F0.625
S'perfect'
p193
tp194
a(I339
I0
F1.0
S'good'
p195
tp196
a(I344
I1
F-0.625
S'other'
p197
tp198
a(I344
I1
F0.625
S'perfect'
p199
tp200
a(I345
I1
F-0.625
S'bad'
p201
tp202
as(S'problems'
p203
tp204
(lp205
(I12
I0
I0
S'few'
p206
tp207
a(I12
I0
I0
S'different'
p208
tp209
a(I30
I2
I0
S'same'
p210
tp211
a(I174
I1
F-0.25
S'ready'
p212
tp213
a(I376
I3
F-0.75
S'minor'
p214
tp215
as(S'hp'
p216
S'electronics'
p217
tp218
(lp219
(I224
I7
F-0.625
S'other'
p220
tp221
as(S'update'
p222
tp223
(lp224
(I188
I0
F-0.875
S'load'
p225
tp226
a(I394
I4
F0.125
S'first'
p227
tp228
a(I435
I1
F0.125
S'able'
p229
tp230
as(S'straight'
p231
S'talk'
p232
tp233
(lp234
(I18
I4
F0.625
S'straight'
p235
tp236
a(I470
I2
F0.625
S'straight'
p237
tp238
a(I470
I2
F0.625
S'straight'
p239
tp240
a(I470
I6
F0.625
S'straight'
p241
tp242
as(S'fine'
p243
tp244
(lp245
(I139
I1
F0.125
S'first'
p246
tp247
a(I447
I1
F-0.5
S'long'
p248
tp249
a(I513
I1
F-0.625
S'other'
p250
tp251
as(S'recommend'
p252
tp253
(lp254
(I70
I0
F0.25
S'original'
p255
tp256
a(I70
I0
F0.75
S'classic'
p257
tp258
as(S'product'
p259
tp260
(lp261
(I50
I0
F0.375
S'new'
p262
tp263
a(I90
I0
F0.375
S'available'
p264
tp265
a(I95
I1
F-0.625
S'bad'
p266
tp267
a(I119
I0
F0.875
S'nice'
p268
tp269
a(I124
I0
I0
S'very'
p270
tp271
a(I124
I0
F1.0
S'good'
p272
tp273
a(I148
I1
F-0.625
S'other'
p274
tp275
a(I211
I0
I0
S'old'
p276
tp277
a(I236
I0
F0.875
S'happy'
p278
tp279
a(I236
I1
I0
S'more'
p280
tp281
a(I236
I2
F0.875
S'happy'
p282
tp283
a(I267
I3
I0
S'exact'
p284
tp285
a(I298
I0
I0
S'great'
p286
tp287
a(I303
I5
F0.375
S'new'
p288
tp289
a(I310
I0
I0
S'great'
p290
tp291
a(I325
I0
I0
S'great'
p292
tp293
a(I387
I4
F1.0
S'better'
p294
tp295
a(I401
I0
F-0.625
S'bad'
p296
tp297
a(I405
I1
F0.375
S'new'
p298
tp299
a(I405
I1
F0.625
S'add'
p300
tp301
a(I407
I4
F1.0
S'good'
p302
tp303
a(I457
I0
F0.875
S'happy'
p304
tp305
a(I463
I1
I0
S'different'
p306
tp307
a(I463
I1
F0.125
S'supplied'
p308
tp309
a(I478
I0
F1.0
S'good'
p310
tp311
a(I478
I0
I0
S'economic'
p312
tp313
a(I480
I0
I0
S'apple'
p314
tp315
a(I511
I4
F1.0
S'good'
p316
tp317
a(I511
I4
F-0.125
S'overall'
p318
tp319
a(I523
I1
F0.5
S'accurate'
p320
tp321
a(I534
I0
F0.875
S'happy'
p322
tp323
a(I541
I2
F0.375
S'new'
p324
tp325
a(I541
I3
I0
S'next'
p326
tp327
as(S'able'
p328
S'to'
p329
S'update'
p330
tp331
(lp332
(I435
I1
F0.125
g229
tp333
as(S'dont'
p334
tp335
(lp336
(I108
I4
F0.5
S'careful'
p337
tp338
a(I299
I0
F0.875
S'music'
p339
tp340
as(S'return'
p341
tp342
(lp343
(I23
I2
F1.0
S'better'
p344
tp345
a(I43
I9
F-0.5
S'international'
p346
tp347
as(S'apple'
p348
tp349
(lp350
(I43
I2
F0.25
S'original'
p351
tp352
a(I97
I4
F0.125
S'further'
p353
tp354
a(I134
I1
F0.125
S'usual'
p355
tp356
a(I211
I3
I0
S'old'
p357
tp358
a(I236
I0
F0.375
S'new'
p359
tp360
a(I244
I0
F0.25
S'refurbish'
p361
tp362
a(I271
I0
I0
S'more'
p363
tp364
a(I297
I3
F0.125
S'first'
p365
tp366
a(I372
I0
F-0.25
S'disappointed'
p367
tp368
a(I376
I3
I0
g11
tp369
a(I376
I3
I0
g13
tp370
a(I386
I1
F1.0
S'good'
p371
tp372
a(I404
I5
F-0.375
g19
tp373
a(I466
I1
F0.5
S'trustworthy'
p374
tp375
a(I480
I5
I0
S'most'
p376
tp377
a(I540
I3
F-0.375
g21
tp378
as(S'to'
p379
S'apple'
p380
S'store'
p381
tp382
(lp383
(I20
I1
I0
g5
tp384
a(I142
I0
I0
g7
tp385
a(I303
I2
I0
g9
tp386
a(I376
I3
I0
g11
tp387
a(I376
I3
I0
g13
tp388
a(I376
I5
I0
g15
tp389
a(I380
I6
I0
g17
tp390
a(I404
I5
F-0.375
g19
tp391
a(I540
I3
F-0.375
g21
tp392
as(S'price'
p393
tp394
(lp395
(I52
I0
F0.625
S'easy'
p396
tp397
a(I52
I0
F1.0
S'good'
p398
tp399
a(I129
I0
F0.875
S'nice'
p400
tp401
a(I207
I0
F1.0
S'good'
p402
tp403
a(I275
I1
I0
S'useful'
p404
tp405
a(I275
I1
F1.0
S'good'
p406
tp407
a(I308
I1
I0
S'great'
p408
tp409
a(I346
I4
F-0.625
S'bad'
p410
tp411
a(I391
I2
I0
S'great'
p412
tp413
a(I467
I0
F-0.25
S'low'
p414
tp415
a(I492
I6
F0.625
S'fair'
p416
tp417
a(I512
I0
I0
S'same'
p418
tp419
a(I512
I0
F-0.25
S'low'
p420
tp421
a(I542
I1
F0.5
S'reasonable'
p422
tp423
as(S'work'
p424
tp425
(lp426
(I269
I0
F0.25
S'suppose'
p427
tp428
a(I292
I8
I0
S'same'
p429
tp430
a(I292
I8
F0.5
S'ethic'
p431
tp432
a(I319
I0
I0
S'real'
p433
tp434
a(I319
I0
F-0.875
S'hard'
p435
tp436
a(I468
I6
I0
S'more'
p437
tp438
as(S'buying'
p439
tp440
(lp441
(I286
I1
F0.75
S'worth'
p442
tp443
as(S'download'
p444
tp445
(lp446
(I529
I1
F0.125
S'able'
p447
tp448
as(S'seller'
p449
tp450
(lp451
(I104
I0
F1.0
S'good'
p452
tp453
a(I135
I7
F1.0
S'good'
p454
tp455
a(I135
I7
F-0.625
S'bad'
p456
tp457
a(I162
I3
F0.5
S'thankful'
p458
tp459
a(I264
I1
F1.0
S'good'
p460
tp461
a(I313
I4
I0
S'many'
p462
tp463
a(I368
I0
F1.0
S'good'
p464
tp465
a(I457
I0
F-0.875
S'unhappy'
p466
tp467
a(I469
I2
F0.5
S'told'
p468
tp469
a(I480
I9
I0
S'fly-by-night'
p470
tp471
a(I497
I2
F1.0
S'good'
p472
tp473
as(S'days'
p474
S'of'
p475
S'use'
p476
tp477
(lp478
(I128
I2
F-0.625
S'useless'
p479
tp480
as(S'works'
p481
tp482
(lp483
(I2
I0
I0
S'great'
p484
tp485
a(I58
I0
I0
S'great'
p486
tp487
a(I91
I2
I0
S'great'
p488
tp489
a(I121
I0
I0
S'great'
p490
tp491
a(I205
I0
I0
S'great'
p492
tp493
a(I241
I2
I0
S'great'
p494
tp495
a(I336
I0
F-0.625
S'free'
p496
tp497
a(I336
I0
I0
S'great'
p498
tp499
a(I337
I1
F0.375
S'new'
p500
tp501
as(S'thank'
p502
tp503
(lp504
(I545
I2
F0.5
S'manner'
p505
tp506
as(S'order'
p507
tp508
(lp509
(I131
I1
F0.75
S'due'
p510
tp511
a(I299
I0
I0
S'angry'
p512
tp513
a(I411
I4
F0.125
S'able'
p514
tp515
a(I539
I3
F0.5
S'careful'
p516
tp517
as(S'battery'
p518
tp519
(lp520
(I7
I5
F0.125
S'first'
p521
tp522
a(I17
I1
F-0.25
S'low'
p523
tp524
a(I17
I1
F-0.375
S'red'
p525
tp526
a(I73
I0
F-0.25
S'low'
p527
tp528
a(I128
I2
I0
S'great'
p529
tp530
a(I158
I0
I0
S'great'
p531
tp532
a(I164
I0
F0.125
S'able'
p533
tp534
a(I164
I0
I0
S'real'
p535
tp536
a(I206
I7
F0.5
S'accurate'
p537
tp538
a(I286
I0
F-0.625
S'bad'
p539
tp540
a(I311
I0
F0.5
S'second'
p541
tp542
a(I340
I2
F-0.5
S'long'
p543
tp544
a(I340
I2
F0.125
S'last'
p545
tp546
a(I340
I3
F0.125
S'last'
p547
tp548
a(I397
I1
F0.375
S'new'
p549
tp550
a(I405
I0
F0.125
S'last'
p551
tp552
a(I444
I0
F-0.75
S'dead'
p553
tp554
a(I460
I0
I0
S'fast'
p555
tp556
a(I460
I0
F-0.75
S'difficult'
p557
tp558
a(I468
I5
F-0.375
S'daily'
p559
tp560
a(I537
I0
F0.125
S'charger'
p561
tp562
a(I555
I1
F0.375
S'new'
p563
tp564
as(S'store'
p565
tp566
(lp567
(I20
I1
I0
g5
tp568
a(I142
I0
I0
g7
tp569
a(I213
I3
F0.5
S'told'
p570
tp571
a(I223
I4
F0.125
S'able'
p572
tp573
a(I303
I2
I0
g9
tp574
a(I376
I5
I0
g15
tp575
a(I380
I6
I0
g17
tp576
as(S'good'
p577
S'condition'
p578
tp579
(lp580
(I52
I0
I0
S'same'
p581
tp582
a(I85
I0
F1.0
S'good'
p583
tp584
a(I87
I0
F1.0
S'good'
p585
tp586
a(I146
I0
I0
S'great'
p587
tp588
a(I209
I3
F1.0
S'good'
p589
tp590
a(I223
I0
F1.0
S'good'
p591
tp592
a(I225
I0
F1.0
S'good'
p593
tp594
a(I225
I0
I0
S'advertized'
p595
tp596
a(I268
I3
F1.0
S'good'
p597
tp598
a(I268
I3
F0.625
S'fair'
p599
tp600
a(I361
I2
F1.0
S'good'
p601
tp602
a(I465
I0
F1.0
S'good'
p603
tp604
a(I511
I2
F1.0
S'good'
p605
tp606
a(I531
I2
F1.0
S'good'
p607
tp608
as(S'software'
p609
tp610
(lp611
(I176
I7
F0.375
S'new'
p612
tp613
a(I188
I0
I0
S'old'
p614
tp615
a(I286
I0
F0.75
S'due'
p616
tp617
a(I431
I4
I0
S'update'
p618
tp619
a(I447
I1
I0
S'update'
p620
tp621
a(I489
I2
I0
S'latest'
p622
tp623
a(I529
I1
I0
S'old'
p624
tp625
as(S'hold'
p626
S'a'
p627
S'charge'
p628
tp629
(lp630
(I323
I2
I0
S'more'
p631
tp632
as(S'download'
p633
S'any'
p634
S'apps'
p635
tp636
(lp637
(I204
I0
F0.125
S'able'
p638
tp639
a(I529
I1
F0.125
g447
tp640
as(S'never'
p641
tp642
(lp643
(I45
I0
F-0.625
S'other'
p644
tp645
as(S'first'
p646
S'time'
p647
tp648
(lp649
(I81
I0
F0.125
S'last'
p650
tp651
a(I107
I0
F0.125
S'first'
p652
tp653
a(I159
I0
F0.875
S'happy'
p654
tp655
a(I224
I0
F0.125
S'first'
p656
tp657
a(I224
I0
F0.125
S'last'
p658
tp659
a(I253
I1
F0.125
S'first'
p660
tp661
a(I258
I0
F0.125
S'first'
p662
tp663
a(I271
I0
F0.125
S'first'
p664
tp665
a(I335
I1
F0.125
S'first'
p666
tp667
a(I407
I4
F0.125
S'first'
p668
tp669
a(I427
I0
F0.125
S'first'
p670
tp671
a(I437
I0
F0.125
S'first'
p672
tp673
as(S'sim'
p674
S'card'
p675
tp676
(lp677
(I41
I1
F0.125
S'charger'
p678
tp679
a(I41
I1
F-0.75
S'unable'
p680
tp681
a(I79
I0
F-0.5
S'international'
p682
tp683
a(I96
I2
F-0.25
g118
tp684
a(I153
I2
F-0.25
g120
tp685
a(I226
I1
I0
S'local'
p686
tp687
a(I306
I0
F0.125
g149
tp688
a(I342
I5
F0.625
S'easy'
p689
tp690
as(S'charge'
p691
tp692
(lp693
(I97
I0
I0
S'full'
p694
tp695
a(I323
I2
I0
g631
tp696
a(I413
I2
I0
S'only'
p697
tp698
a(I413
I2
F-0.875
S'negative'
p699
tp700
a(I448
I1
F-0.125
S'slow'
p701
tp702
as(S'serial'
p703
S'number'
p704
tp705
(lp706
(I97
I2
I0
S'apple'
p707
tp708
a(I97
I2
I0
S'serial'
p709
tp710
a(I249
I2
I0
S'serial'
p711
tp712
a(I249
I8
I0
S'serial'
p713
tp714
a(I303
I2
I0
S'serial'
p715
tp716
as(S'nothing'
p717
tp718
(lp719
(I162
I1
F0.625
S'major'
p720
tp721
a(I328
I3
F0.5
S'possible'
p722
tp723
a(I374
I0
F-0.75
S'wrong'
p724
tp725
as(S'waste'
p726
S'of'
p727
S'money'
p728
tp729
(lp730
(I126
I3
I0
S'total'
p731
tp732
a(I465
I6
I0
S'total'
p733
tp734
a(I489
I2
F0.375
S'complete'
p735
tp736
as(S'tried'
p737
S'to'
p738
S'update'
p739
tp740
(lp741
(I435
I1
F0.125
g229
tp742
as(S'after'
p743
S'3'
p744
S'months'
p745
tp746
(lp747
(I194
I0
F-0.875
S'trouble'
p748
tp749
as(S'refund'
p750
tp751
(lp752
(I3
I5
I0
S'full'
p753
tp754
a(I285
I0
F0.875
S'nice'
p755
tp756
a(I285
I0
I0
S'quick'
p757
tp758
a(I376
I8
I0
S'full'
p759
tp760
a(I411
I4
I0
S'full'
p761
tp762
a(I532
I2
I0
S'full'
p763
tp764
as(S'brand'
p765
tp766
(lp767
(I43
I1
F0.375
S'new'
p768
tp769
a(I55
I1
F0.375
S'new'
p770
tp771
a(I102
I1
F0.375
S'new'
p772
tp773
a(I194
I2
F0.375
S'new'
p774
tp775
a(I207
I1
F0.375
S'new'
p776
tp777
a(I267
I3
F0.375
S'new'
p778
tp779
a(I272
I1
F0.375
S'new'
p780
tp781
a(I310
I0
F0.375
S'new'
p782
tp783
a(I321
I0
F0.375
S'new'
p784
tp785
a(I355
I4
F0.375
S'new'
p786
tp787
a(I374
I0
F0.375
S'new'
p788
tp789
a(I415
I1
F0.375
S'new'
p790
tp791
a(I456
I2
F0.375
S'new'
p792
tp793
a(I463
I0
F0.375
S'new'
p794
tp795
a(I492
I3
F0.375
S'new'
p796
tp797
a(I525
I0
F0.375
S'new'
p798
tp799
a(I527
I2
F0.25
S'refurbished'
p800
tp801
a(I527
I2
F0.375
S'new'
p802
tp803
a(I555
I0
F0.375
S'new'
p804
tp805
as(S'time'
p806
tp807
(lp808
(I10
I0
I0
S'next'
p809
tp810
a(I36
I4
F0.75
S'worth'
p811
tp812
a(I55
I0
I0
S'great'
p813
tp814
a(I81
I0
F0.125
g650
tp815
a(I86
I0
F1.0
S'good'
p816
tp817
a(I86
I0
I0
S'arrive'
p818
tp819
a(I107
I0
F0.125
g652
tp820
a(I154
I0
F0.5
S'second'
p821
tp822
a(I156
I0
F0.375
S'much'
p823
tp824
a(I159
I0
F0.875
g654
tp825
a(I196
I0
F0.125
S'last'
p826
tp827
a(I221
I0
F0.625
S'correct'
p828
tp829
a(I224
I0
F0.125
g656
tp830
a(I224
I0
F0.125
g658
tp831
a(I242
I0
I0
S'great'
p832
tp833
a(I253
I1
F0.125
g660
tp834
a(I257
I4
F0.5
S'reasonable'
p835
tp836
a(I258
I0
F0.125
g662
tp837
a(I271
I0
F0.125
g664
tp838
a(I288
I1
F1.0
S'good'
p839
tp840
a(I289
I0
F-0.5
S'poor'
p841
tp842
a(I297
I2
F-0.5
S'long'
p843
tp844
a(I301
I2
I0
S'most'
p845
tp846
a(I335
I1
F0.125
g666
tp847
a(I362
I2
F0.5
S'second'
p848
tp849
a(I380
I6
I0
S'third'
p850
tp851
a(I383
I0
F-0.875
S'hard'
p852
tp853
a(I407
I4
F0.125
g668
tp854
a(I408
I12
F-0.875
S'trouble'
p855
tp856
a(I427
I0
F0.125
g670
tp857
a(I437
I0
F0.125
g672
tp858
a(I444
I1
I0
S'same'
p859
tp860
a(I465
I4
F-0.75
S'difficult'
p861
tp862
a(I532
I0
I0
S'most'
p863
tp864
a(I542
I2
I0
S'next'
p865
tp866
a(I542
I2
I0
S'latest'
p867
tp868
a(I548
I2
I0
S'next'
p869
tp870
as(S'n'
p871
S'great'
p872
S'condition'
p873
tp874
(lp875
(I146
I0
I0
g587
tp876
a(I172
I1
I0
S'great'
p877
tp878
a(I208
I0
I0
S'fast'
p879
tp880
a(I208
I0
I0
S'great'
p881
tp882
a(I305
I0
I0
S'great'
p883
tp884
a(I386
I0
I0
S'great'
p885
tp886
as(S'condition'
p887
tp888
(lp889
(I52
I0
I0
g581
tp890
a(I85
I0
F1.0
g583
tp891
a(I87
I0
F1.0
g585
tp892
a(I146
I0
I0
g587
tp893
a(I172
I1
I0
g877
tp894
a(I174
I2
F0.5
S'satisfied'
p895
tp896
a(I208
I0
I0
g879
tp897
a(I208
I0
I0
g881
tp898
a(I209
I3
F1.0
g589
tp899
a(I223
I0
F1.0
g591
tp900
a(I225
I0
F1.0
g593
tp901
a(I225
I0
I0
g595
tp902
a(I253
I0
F-0.625
S'bad'
p903
tp904
a(I268
I2
F1.0
S'better'
p905
tp906
a(I268
I3
F1.0
g597
tp907
a(I268
I3
F0.625
g599
tp908
a(I305
I0
I0
g883
tp909
a(I313
I0
F-0.5
S'poor'
p910
tp911
a(I335
I0
F-0.625
S'bad'
p912
tp913
a(I361
I2
F1.0
g601
tp914
a(I378
I9
F0.375
S'new'
p915
tp916
a(I384
I2
F0.875
S'nice'
p917
tp918
a(I386
I0
I0
g885
tp919
a(I428
I0
F0.375
S'new'
p920
tp921
a(I432
I1
F0.375
S'new'
p922
tp923
a(I465
I0
F1.0
g603
tp924
a(I477
I0
F-0.625
S'bad'
p925
tp926
a(I477
I1
F-0.5
S'poor'
p927
tp928
a(I506
I4
F1.0
S'better'
p929
tp930
a(I506
I4
I0
S'physical'
p931
tp932
a(I511
I2
F1.0
g605
tp933
a(I531
I2
F1.0
g607
tp934
as(S'charger'
p935
tp936
(lp937
(I177
I3
F0.375
S'new'
p938
tp939
a(I432
I1
F0.375
S'new'
p940
tp941
a(I453
I3
I0
S'later'
p942
tp943
a(I453
I3
I0
S'local'
p944
tp945
a(I464
I1
F0.375
S'new'
p946
tp947
as(g627
S'sim'
p948
S'card'
p949
tp950
(lp951
(I41
I1
F0.125
g678
tp952
a(I41
I1
F-0.75
g680
tp953
a(I79
I0
F-0.5
g682
tp954
a(I96
I2
F-0.25
g118
tp955
a(I153
I2
F-0.25
g120
tp956
a(I226
I1
I0
g686
tp957
a(I306
I0
F0.125
g149
tp958
a(I342
I5
F0.625
g689
tp959
as(S'screen'
p960
tp961
(lp962
(I2
I2
F-0.375
S'small'
p963
tp964
a(I27
I0
F0.5
S'touch'
p965
tp966
a(I56
I0
I0
S'useful'
p967
tp968
a(I74
I0
F-0.625
S'inactive'
p969
tp970
a(I130
I0
F-0.625
S'bad'
p971
tp972
a(I130
I0
F-0.375
S'top'
p973
tp974
a(I130
I0
F-0.625
S'bad'
p975
tp976
a(I136
I3
F-0.375
S'small'
p977
tp978
a(I162
I1
I0
S'few'
p979
tp980
a(I183
I0
F1.0
S'good'
p981
tp982
a(I194
I0
F0.125
S'first'
p983
tp984
a(I200
I4
F-0.375
S'black'
p985
tp986
a(I268
I1
F1.0
S'good'
p987
tp988
a(I279
I1
F-0.375
S'story'
p989
tp990
a(I279
I1
F-0.75
S'short'
p991
tp992
a(I291
I2
F0.5
S'touch'
p993
tp994
a(I340
I1
F0.5
S'touch'
p995
tp996
a(I340
I9
F0.5
S'touch'
p997
tp998
a(I347
I1
I0
S'thd'
p999
tp1000
a(I376
I2
F0.25
S'main'
p1001
tp1002
a(I380
I1
I0
S'english'
p1003
tp1004
a(I442
I0
F-0.25
S'white'
p1005
tp1006
a(I509
I0
F0.5
S'touch'
p1007
tp1008
as(S'happy'
p1009
S'with'
p1010
S'product'
p1011
tp1012
(lp1013
(I211
I0
I0
g276
tp1014
a(I236
I0
F0.875
g278
tp1015
a(I236
I2
F0.875
g282
tp1016
a(I457
I0
F0.875
g304
tp1017
a(I534
I0
F0.875
g322
tp1018
as(S'months'
p1019
tp1020
(lp1021
(I19
I3
I0
S'few'
p1022
tp1023
a(I42
I1
I0
S'few'
p1024
tp1025
a(I136
I1
I0
S'android'
p1026
tp1027
a(I136
I1
I0
S'later'
p1028
tp1029
a(I143
I1
I0
S'few'
p1030
tp1031
a(I194
I0
F-0.875
g748
tp1032
a(I200
I3
I0
S'later'
p1033
tp1034
a(I321
I4
F-0.25
S'past'
p1035
tp1036
as(S'working'
p1037
tp1038
(lp1039
(I403
I0
I0
S'great'
p1040
tp1041
a(I452
I1
F-0.5
S'poor'
p1042
tp1043
as(S'apps'
p1044
tp1045
(lp1046
(I11
I2
F-0.375
S'top'
p1047
tp1048
a(I11
I2
F-0.125
S'slow'
p1049
tp1050
a(I11
I2
F-0.25
S'modern'
p1051
tp1052
a(I17
I1
I0
S'few'
p1053
tp1054
a(I18
I0
F0.625
S'kind'
p1055
tp1056
a(I18
I0
F-0.25
S'disappointing'
p1057
tp1058
a(I19
I2
I0
S'many'
p1059
tp1060
a(I23
I0
F0.875
S'music'
p1061
tp1062
a(I60
I2
F1.0
S'good'
p1063
tp1064
a(I129
I2
F0.375
S'new'
p1065
tp1066
a(I134
I0
F0.375
S'available'
p1067
tp1068
a(I138
I1
F0.5
S'compatible'
p1069
tp1070
a(I140
I1
I0
S'many'
p1071
tp1072
a(I157
I1
F-0.25
S'disappointing'
p1073
tp1074
a(I159
I2
I0
S'great'
p1075
tp1076
a(I175
I0
F0.75
S'due'
p1077
tp1078
a(I195
I1
F-0.625
S'useless'
p1079
tp1080
a(I204
I0
F0.125
g638
tp1081
a(I223
I1
I0
S'great'
p1082
tp1083
a(I231
I0
F-0.5
S'certain'
p1084
tp1085
a(I246
I0
I0
S'most'
p1086
tp1087
a(I265
I0
F-0.125
S'slow'
p1088
tp1089
a(I271
I0
F1.0
S'good'
p1090
tp1091
a(I337
I3
F0.375
S'available'
p1092
tp1093
a(I340
I2
F0.125
S'able'
p1094
tp1095
a(I340
I5
F0.125
S'able'
p1096
tp1097
a(I340
I7
F-0.375
S'simple'
p1098
tp1099
a(I346
I2
I0
S'most'
p1100
tp1101
a(I388
I1
I0
S'most'
p1102
tp1103
a(I395
I2
I0
S'many'
p1104
tp1105
a(I395
I2
F0.125
S'able'
p1106
tp1107
a(I395
I2
F0.5
S'compatible'
p1108
tp1109
a(I414
I6
I0
S'few'
p1110
tp1111
a(I414
I6
F0.375
S'available'
p1112
tp1113
a(I424
I0
F-0.75
S'unable'
p1114
tp1115
a(I493
I0
I0
S'more'
p1116
tp1117
a(I504
I0
I0
S'update'
p1118
tp1119
a(I504
I0
F0.375
S'new'
p1120
tp1121
a(I504
I0
F-0.125
S'slow'
p1122
tp1123
a(I506
I6
I0
S'few'
p1124
tp1125
a(I506
I6
F0.875
S'music'
p1126
tp1127
a(I516
I0
F0.375
S'new'
p1128
tp1129
a(I516
I2
F0.375
S'new'
p1130
tp1131
a(I538
I0
F-0.75
S'unable'
p1132
tp1133
as(S'days'
p1134
tp1135
(lp1136
(I38
I0
I0
S'few'
p1137
tp1138
a(I99
I4
I0
S'next'
p1139
tp1140
a(I104
I0
I0
S'later'
p1141
tp1142
a(I108
I2
F-0.125
S'slow'
p1143
tp1144
a(I108
I2
I0
S'few'
p1145
tp1146
a(I108
I2
I0
S'slower'
p1147
tp1148
a(I108
I2
I0
S'slower'
p1149
tp1150
a(I129
I0
F-0.25
S'past'
p1151
tp1152
a(I129
I0
I0
S'few'
p1153
tp1154
a(I143
I0
I0
S'few'
p1155
tp1156
a(I244
I1
I0
S'more'
p1157
tp1158
a(I281
I0
I0
S'few'
p1159
tp1160
a(I296
I0
F0.375
S'new'
p1161
tp1162
a(I342
I8
F-0.75
S'short'
p1163
tp1164
a(I342
I8
I0
S'few'
p1165
tp1166
a(I357
I6
F-0.25
S'past'
p1167
tp1168
a(I470
I0
F0.125
S'first'
p1169
tp1170
a(I480
I3
I0
S'later'
p1171
tp1172
a(I503
I2
I0
S'next'
p1173
tp1174
as(S'worst'
p1175
S'experience'
p1176
tp1177
(lp1178
(I535
I0
F-0.875
S'worst'
p1179
tp1180
as(g871
S'good'
p1181
S'condition'
p1182
tp1183
(lp1184
(I52
I0
I0
g581
tp1185
a(I85
I0
F1.0
g583
tp1186
a(I87
I0
F1.0
g585
tp1187
a(I146
I0
I0
g587
tp1188
a(I209
I3
F1.0
g589
tp1189
a(I223
I0
F1.0
g591
tp1190
a(I225
I0
F1.0
g593
tp1191
a(I225
I0
I0
g595
tp1192
a(I268
I3
F1.0
g597
tp1193
a(I268
I3
F0.625
g599
tp1194
a(I361
I2
F1.0
g601
tp1195
a(I465
I0
F1.0
g603
tp1196
a(I511
I2
F1.0
g605
tp1197
a(I531
I2
F1.0
g607
tp1198
as.