(dp0
(S'model'
p1
tp2
(lp3
(I11
I0
I0
S'great'
p4
tp5
a(I11
I0
I0
S'great'
p6
tp7
a(I33
I2
F0.375
S'new'
p8
tp9
a(I39
I0
I0
S'same'
p10
tp11
a(I110
I0
F0.375
S'newer'
p12
tp13
a(I167
I1
I0
S'same'
p14
tp15
as(S'battery'
p16
S'life'
p17
tp18
(lp19
(I41
I0
F-0.5
S'long'
p20
tp21
a(I41
I0
F-0.625
S'average'
p22
tp23
a(I90
I0
F0.5
S'satisfactory'
p24
tp25
a(I112
I2
F0.375
S'reliable'
p26
tp27
a(I112
I2
F-0.5
S'long'
p28
tp29
a(I112
I2
F0.625
S'convenient'
p30
tp31
a(I169
I0
F1.0
S'better'
p32
tp33
as(S'purchase'
p34
tp35
(lp36
(I32
I3
F0.5
S'reasonable'
p37
tp38
a(I75
I2
F0.5
S'reasonable'
p39
tp40
a(I112
I4
F0.625
S'easy'
p41
tp42
a(I142
I7
F-0.875
S'regret'
p43
tp44
a(I142
I7
F-0.75
S'sad'
p45
tp46
a(I159
I4
F-0.625
S'sorry'
p47
tp48
a(I234
I3
F-0.625
S'bad'
p49
tp50
as(S'year'
p51
tp52
(lp53
(I32
I1
I0
S'old'
p54
tp55
a(I33
I2
F0.875
S'happy'
p56
tp57
a(I75
I1
I0
S'old'
p58
tp59
a(I96
I0
I0
S'old'
p60
tp61
a(I98
I0
F0.125
S'last'
p62
tp63
a(I190
I0
I0
S'old'
p64
tp65
a(I190
I0
F-0.25
S'past'
p66
tp67
as(S'ring'
p68
S'tones'
p69
tp70
(lp71
(I123
I4
I0
S'own'
p72
tp73
a(I165
I2
F1.0
S'good'
p74
tp75
as(S'motorola'
p76
tp77
(lp78
(I52
I3
F-0.75
S'unable'
p79
tp80
a(I140
I1
F0.375
S'new'
p81
tp82
a(I172
I2
F0.5
S'true'
p83
tp84
a(I172
I3
F0.25
S'original'
p85
tp86
a(I172
I6
I0
S'old'
p87
tp88
a(I172
I6
F-0.625
S'bad'
p89
tp90
a(I195
I0
F0.375
S'new'
p91
tp92
a(I196
I5
F0.25
S'original'
p93
tp94
as(S'came'
p95
tp96
(lp97
(I44
I0
F-0.5
S'open'
p98
tp99
a(I44
I0
F0.125
S'charger'
p100
tp101
a(I105
I2
F0.5
S'seal'
p102
tp103
as(S'screen'
p104
tp105
(lp106
(I1
I4
F0.375
S'new'
p107
tp108
a(I17
I1
I0
S'large'
p109
tp110
a(I56
I1
F-0.375
S'black'
p111
tp112
a(I82
I3
F-0.75
S'impossible'
p113
tp114
a(I189
I1
F-0.375
S'small'
p115
tp116
a(I195
I3
F-0.75
S'dirty'
p117
tp118
as(S'service'
p119
tp120
(lp121
(I33
I1
F-0.625
S'unpredictable'
p122
tp123
a(I43
I0
I0
S'great'
p124
tp125
as(S'works'
p126
tp127
(lp128
(I89
I0
I0
S'great'
p129
tp130
a(I112
I2
I0
S'old'
p131
tp132
a(I152
I0
I0
S'great'
p133
tp134
a(I181
I1
I0
S'most'
p135
tp136
as(S'voice'
p137
S'dial'
p138
tp139
(lp140
(I129
I0
I0
S'dial'
p141
tp142
a(I129
I0
I0
S'dial'
p143
tp144
as(S'vendor'
p145
tp146
(lp147
(I40
I1
F0.25
S'responsive'
p148
tp149
a(I99
I1
I0
S'email'
p150
tp151
a(I101
I3
I0
S'different'
p152
tp153
as(S'company'
p154
tp155
(lp156
(I4
I2
F-0.75
S'impossible'
p157
tp158
as(S'version'
p159
tp160
(lp161
(I59
I0
F-0.25
S'cheaper'
p162
tp163
a(I87
I5
F0.25
S'original'
p164
tp165
a(I87
I5
F-0.375
S'manual'
p166
tp167
a(I104
I1
I0
S'same'
p168
tp169
a(I119
I2
F1.0
S'good'
p170
tp171
a(I189
I0
F0.375
S'newer'
p172
tp173
as(S'years'
p174
tp175
(lp176
(I37
I1
F0.125
S'first'
p177
tp178
a(I61
I0
F0.25
S'used'
p179
tp180
a(I71
I0
I0
S'few'
p181
tp182
a(I79
I1
F0.125
S'last'
p183
tp184
a(I109
I0
I0
S'old'
p185
tp186
a(I136
I1
I0
S'lasted'
p187
tp188
as(S'1'
p189
S'year'
p190
tp191
(lp192
(I190
I0
I0
g64
tp193
a(I190
I0
F-0.25
g66
tp194
as(S'reception'
p195
tp196
(lp197
(I32
I1
F0.5
S'reasonable'
p198
tp199
a(I75
I1
F0.5
S'reasonable'
p200
tp201
a(I87
I9
I0
S'minimal'
p202
tp203
a(I117
I0
F-0.5
S'weak'
p204
tp205
a(I128
I1
F-0.75
S'difficult'
p206
tp207
a(I142
I0
F1.0
S'best'
p208
tp209
a(I142
I2
F1.0
S'best'
p210
tp211
a(I162
I1
F-0.375
S'small'
p212
tp213
a(I162
I1
F1.0
S'good'
p214
tp215
a(I175
I1
F1.0
S'good'
p216
tp217
a(I231
I1
I0
S'italian'
p218
tp219
a(I231
I1
F1.0
S'good'
p220
tp221
as(S'fine'
p222
tp223
(lp224
(I2
I0
F0.375
S'new'
p225
tp226
a(I85
I0
F0.375
S'new'
p227
tp228
a(I163
I3
F-0.5
S'sure'
p229
tp230
as(S'product'
p231
tp232
(lp233
(I48
I0
F0.375
S'new'
p234
tp235
a(I97
I3
F1.0
S'good'
p236
tp237
a(I115
I3
F1.0
S'good'
p238
tp239
a(I115
I4
F1.0
S'good'
p240
tp241
a(I193
I0
F0.5
S'satisfactory'
p242
tp243
as(S'return'
p244
tp245
(lp246
(I3
I0
F0.5
S'possible'
p247
tp248
a(I180
I1
F0.5
S'second'
p249
tp250
as(S'features'
p251
tp252
(lp253
(I139
I1
I0
S'same'
p254
tp255
a(I139
I1
F0.25
S'original'
p256
tp257
a(I165
I3
I0
S'great'
p258
tp259
a(I168
I1
I0
S'different'
p260
tp261
a(I168
I1
I0
S'earlier'
p262
tp263
a(I173
I3
I0
S'few'
p264
tp265
a(I235
I5
F0.25
S'familiar'
p266
tp267
as(S'cover'
p268
tp269
(lp270
(I86
I3
I0
S'plastic'
p271
tp272
a(I99
I17
F0.5
S'second'
p273
tp274
a(I99
I17
F-0.75
S'short'
p275
tp276
a(I194
I0
I0
S'rear'
p277
tp278
as(S'razr'
p279
tp280
(lp281
(I16
I3
F0.875
S'happy'
p282
tp283
a(I27
I7
F-0.625
S'other'
p284
tp285
a(I33
I16
F0.375
S'new'
p286
tp287
a(I37
I2
F0.125
S'first'
p288
tp289
a(I42
I0
I0
S'old'
p290
tp291
a(I59
I0
F0.25
S'original'
p292
tp293
a(I67
I0
I0
S'old'
p294
tp295
a(I67
I1
F0.375
S'new'
p296
tp297
a(I67
I7
F-0.625
S'glad'
p298
tp299
a(I87
I4
I0
S'same'
p300
tp301
a(I87
I4
F0.25
S'original'
p302
tp303
a(I87
I7
F0.25
S'original'
p304
tp305
a(I95
I2
I0
S'old'
p306
tp307
a(I95
I2
F0.375
S'new'
p308
tp309
a(I112
I0
I0
S'february'
p310
tp311
a(I136
I0
I0
S'third'
p312
tp313
a(I166
I0
F1.0
S'better'
p314
tp315
a(I166
I0
I0
S'blue'
p316
tp317
a(I181
I0
F0.875
S'nice'
p318
tp319
a(I188
I0
I0
S'old'
p320
tp321
a(I199
I0
F0.375
S'new'
p322
tp323
a(I202
I0
I0
S'different'
p324
tp325
a(I223
I1
I0
S'cherished'
p326
tp327
a(I231
I1
I0
S'old'
p328
tp329
a(I232
I0
F0.25
S'familiar'
p330
tp331
a(I232
I3
F0.375
S'new'
p332
tp333
a(I232
I4
F0.875
S'happy'
p334
tp335
a(I234
I0
F-0.75
S'wrong'
p336
tp337
as(S'sd'
p338
S'card'
p339
tp340
(lp341
(I11
I0
F0.125
S'capable'
p342
tp343
as(S'call'
p344
tp345
(lp346
(I151
I12
F-0.75
S'single'
p347
tp348
a(I151
I12
F-0.25
S'dropped'
p349
tp350
as(S'razr'
p351
S'v3'
p352
tp353
(lp354
(I30
I1
F0.625
S'easiest'
p355
tp356
a(I67
I0
I0
g294
tp357
a(I95
I1
F0.625
S'perfect'
p358
tp359
a(I180
I0
F0.5
S'compatible'
p360
tp361
a(I234
I0
F-0.75
g336
tp362
as(S'seller'
p363
tp364
(lp365
(I11
I1
F0.375
S'disreputable'
p366
tp367
a(I27
I7
I0
S'truthful'
p368
tp369
a(I52
I0
F-0.5
S'actual'
p370
tp371
a(I83
I3
F0.125
S'last'
p372
tp373
a(I99
I1
I0
S'subsequent'
p374
tp375
a(I136
I3
F0.625
S'easy'
p376
tp377
as(S'weeks'
p378
tp379
(lp380
(I51
I1
I0
S'later'
p381
tp382
a(I83
I2
I0
S'later'
p383
tp384
a(I106
I1
I0
S'later'
p385
tp386
as(S'voice'
p387
tp388
(lp389
(I32
I2
F0.625
S'necessary'
p390
tp391
a(I32
I2
F-0.5
S'poor'
p392
tp393
a(I105
I4
F1.0
S'good'
p394
tp395
a(I129
I0
I0
g141
tp396
a(I129
I0
I0
g143
tp397
a(I219
I1
F0.5
S'clear'
p398
tp399
as(S'razor'
p400
tp401
(lp402
(I109
I0
I0
S'old'
p403
tp404
a(I213
I3
F-0.625
S'lighter'
p405
tp406
a(I213
I3
I0
S'old'
p407
tp408
a(I213
I3
I0
S'plastic'
p409
tp410
as(S'us'
p411
S'version'
p412
tp413
(lp414
(I104
I1
I0
g168
tp415
a(I119
I2
F1.0
g170
tp416
a(I189
I0
F0.375
g172
tp417
as(S'u'
p418
S's'
p419
S'version'
p420
tp421
(lp422
(I59
I0
F-0.25
g162
tp423
a(I87
I5
F0.25
g164
tp424
a(I87
I5
F-0.375
g166
tp425
a(I104
I1
I0
g168
tp426
a(I119
I2
F1.0
g170
tp427
a(I189
I0
F0.375
g172
tp428
as(S'battery'
p429
tp430
(lp431
(I4
I1
F-0.5
S'less'
p432
tp433
a(I11
I0
F-0.75
S'dead'
p434
tp435
a(I13
I0
F0.375
S'new'
p436
tp437
a(I13
I0
F-0.5
S'sure'
p438
tp439
a(I19
I0
F0.125
S'last'
p440
tp441
a(I80
I1
F0.125
S'first'
p442
tp443
a(I98
I0
F1.0
S'good'
p444
tp445
a(I112
I2
F0.375
g26
tp446
a(I112
I2
F-0.5
g28
tp447
a(I116
I0
F0.125
S'able'
p448
tp449
a(I164
I3
F0.375
S'extra'
p450
tp451
a(I169
I0
F1.0
g32
tp452
a(I174
I0
F0.125
S'last'
p453
tp454
a(I183
I1
I0
S'charged'
p455
tp456
a(I183
I2
F-0.625
S'free'
p457
tp458
a(I195
I5
F-0.875
S'bother'
p459
tp460
as(S'went'
p461
S'black'
p462
tp463
(lp464
(I67
I0
F-0.25
S'ready'
p465
tp466
as(S'motorola'
p467
S'razr'
p468
tp469
(lp470
(I112
I0
I0
g310
tp471
a(I140
I1
F0.375
g81
tp472
a(I195
I0
F0.375
g91
tp473
as(S'replacement'
p474
tp475
(lp476
(I29
I0
I0
S'identical'
p477
tp478
a(I106
I1
F-0.75
S'dead'
p479
tp480
as(S'cell'
p481
tp482
(lp483
(I7
I1
I0
S'basic'
p484
tp485
a(I19
I5
F-0.625
S'other'
p486
tp487
a(I32
I3
F-0.625
S'other'
p488
tp489
a(I83
I0
F0.375
S'new'
p490
tp491
a(I132
I0
I0
S'great'
p492
tp493
a(I147
I0
F0.375
S'new'
p494
tp495
a(I151
I12
F-0.625
S'other'
p496
tp497
a(I223
I8
F0.375
S'new'
p498
tp499
as(S'calls'
p500
tp501
(lp502
(I10
I1
F-0.125
S'minimum'
p503
tp504
a(I33
I7
F-0.625
S'average'
p505
tp506
a(I33
I14
I0
S'multiple'
p507
tp508
a(I33
I15
F-0.5
S'unavailable'
p509
tp510
a(I77
I1
F0.625
S'easier'
p511
tp512
a(I77
I1
F-0.25
S'past'
p513
tp514
a(I117
I0
F-0.75
S'unable'
p515
tp516
a(I207
I1
I0
S'great'
p517
tp518
as(S'thing'
p519
tp520
(lp521
(I19
I4
I0
S'only'
p522
tp523
a(I19
I4
F-0.875
S'negative'
p524
tp525
a(I56
I4
I0
S'funny'
p526
tp527
a(I93
I2
I0
S'coolest'
p528
tp529
a(I140
I5
I0
S'same'
p530
tp531
a(I150
I4
I0
S'only'
p532
tp533
a(I150
I4
F-0.125
S'mine'
p534
tp535
a(I150
I4
I0
S'old'
p536
tp537
as(S'sim'
p538
S'card'
p539
tp540
(lp541
(I11
I0
F0.125
g342
tp542
a(I225
I4
F0.375
S'new'
p543
tp544
as(S'charge'
p545
tp546
(lp547
(I10
I1
I0
S'more'
p548
tp549
a(I80
I1
I0
S'full'
p550
tp551
a(I90
I0
F-0.5
S'less'
p552
tp553
a(I153
I0
I0
S'full'
p554
tp555
as(S'warranty'
p556
tp557
(lp558
(I106
I2
I0
S'local'
p559
tp560
a(I106
I2
F0.25
S'professional'
p561
tp562
as(S'speaker'
p563
tp564
(lp565
(I11
I0
F0.625
S'fair'
p566
tp567
a(I84
I1
F0.75
S'ear'
p568
tp569
a(I147
I0
F1.0
S'good'
p570
tp571
as(S'refund'
p572
tp573
(lp574
(I76
I3
I0
S'full'
p575
tp576
as(S'price'
p577
tp578
(lp579
(I0
I0
F1.0
S'good'
p580
tp581
a(I19
I6
I0
S'great'
p582
tp583
a(I23
I0
F0.5
S'reasonable'
p584
tp585
a(I44
I0
F0.5
S'reasonable'
p586
tp587
a(I50
I3
F1.0
S'good'
p588
tp589
a(I115
I3
F-0.5
S'less'
p590
tp591
a(I115
I3
I0
S'retailer'
p592
tp593
a(I128
I2
F1.0
S'good'
p594
tp595
a(I147
I3
F1.0
S'best'
p596
tp597
a(I167
I0
I0
S'great'
p598
tp599
as(S'time'
p600
tp601
(lp602
(I9
I1
F1.0
S'better'
p603
tp604
a(I12
I0
F-0.625
S'other'
p605
tp606
a(I33
I15
F-0.25
S'embarrassing'
p607
tp608
a(I58
I0
I0
S'european'
p609
tp610
a(I62
I0
F0.375
S'new'
p611
tp612
a(I62
I0
I0
S'packaged'
p613
tp614
a(I77
I2
I0
S'same'
p615
tp616
a(I87
I3
F-0.75
S'difficult'
p617
tp618
a(I87
I11
I0
S'only'
p619
tp620
a(I144
I2
I0
S'different'
p621
tp622
a(I146
I0
F-0.5
S'long'
p623
tp624
a(I149
I0
F-0.875
S'hard'
p625
tp626
a(I168
I4
I0
S'real'
p627
tp628
a(I179
I0
F1.0
S'good'
p629
tp630
a(I204
I1
I0
S'big'
p631
tp632
a(I206
I3
F0.125
S'charger'
p633
tp634
a(I223
I3
F0.125
S'first'
p635
tp636
as(S'quality'
p637
tp638
(lp639
(I33
I1
F-0.875
S'awful'
p640
tp641
a(I39
I0
F-0.875
S'worst'
p642
tp643
a(I48
I0
F0.375
S'new'
p644
tp645
a(I82
I4
I0
S'great'
p646
tp647
a(I87
I8
I0
S'same'
p648
tp649
a(I87
I13
F0.25
S'original'
p650
tp651
a(I97
I1
F-0.875
S'awful'
p652
tp653
a(I196
I6
I0
S'high'
p654
tp655
as(S'card'
p656
tp657
(lp658
(I11
I0
F0.125
g342
tp659
a(I187
I2
F0.375
S'extra'
p660
tp661
as(S'charger'
p662
tp663
(lp664
(I100
I2
I0
S'old'
p665
tp666
a(I233
I3
F-0.625
S'other'
p667
tp668
as(S'motorola'
p669
S'razr'
p670
S'v3'
p671
tp672
(lp673
(I140
I1
F0.375
g81
tp674
a(I180
I0
F0.5
g360
tp675
a(I195
I0
F0.375
g91
tp676
as(S'customer'
p677
S'service'
p678
tp679
(lp680
(I43
I0
I0
g124
tp681
a(I71
I12
I0
S'different'
p682
tp683
a(I79
I4
F1.0
S'good'
p684
tp685
as(S'hours'
p686
tp687
(lp688
(I142
I4
F-0.625
S'average'
p689
tp690
a(I196
I3
I0
S'few'
p691
tp692
as(S'work'
p693
tp694
(lp695
(I31
I0
F1.0
S'good'
p696
tp697
as(S'days'
p698
tp699
(lp700
(I36
I0
I0
S'few'
p701
tp702
as.