(dp0
(S'bluetooth'
p1
tp2
(lp3
(I5
I92
F0.625
S'collapsible'
p4
I3
tp5
as(S'nokia'
p6
S'n82'
p7
tp8
(lp9
(I1
I19
F-0.125
S'overall'
p10
I0
tp11
a(I1
I30
F-0.625
S'light'
p12
I0
tp13
a(I5
I7
F0.375
S'new'
p14
I0
tp15
a(I0
I9
I0
S'many'
p16
I0
tp17
a(I1
I19
F-0.125
g10
I0
tp18
a(I1
I22
I0
S'big'
p19
I0
tp20
a(I1
I22
I0
S'old'
p21
I0
tp22
a(I1
I30
F-0.625
g12
I0
tp23
a(I2
I34
I0
S'site'
p24
I0
tp25
a(I3
I37
F-0.625
S'free'
p26
I0
tp27
a(I5
I7
F0.375
g14
I0
tp28
a(I5
I9
I0
S'old'
p29
I0
tp30
a(I5
I11
F0.25
S'sharp'
p31
I0
tp32
as(S'iphone'
p33
tp34
(lp35
(I2
I9
F0.625
S'easier'
p36
I1
tp37
as(S'sound'
p38
tp39
(lp40
(I5
I130
F1.0
S'good'
p41
I7
tp42
a(I5
I133
F0.25
S'stellar'
p43
I7
tp44
as(S'battery'
p45
S'life'
p46
tp47
(lp48
(I0
I2
I0
S'great'
p49
I1
tp50
a(I5
I11
F-0.75
S'short'
p51
I1
tp52
a(I5
I229
I0
S'least'
p53
I1
tp54
a(I5
I0
F-0.5
S'weak'
p55
I15
tp56
a(I5
I5
I0
S'great'
p57
I15
tp58
a(I5
I11
F-0.75
g51
I15
tp59
a(I5
I12
I0
S'quick'
p60
I15
tp61
a(I5
I229
I0
g53
I15
tp62
as(S'data'
p63
tp64
(lp65
(I3
I37
I0
S'cellular'
p66
I13
tp67
a(I3
I39
I0
S'cellular'
p68
I13
tp69
a(I3
I54
F1.0
S'good'
p70
I13
tp71
as(S'xenon'
p72
tp73
(lp74
(I2
I28
F0.25
S'powerful'
p75
I0
tp76
a(I5
I79
F-0.75
S'bright'
p77
I0
tp78
as(S'much'
p79
S'better'
p80
tp81
(lp82
(I5
I205
F0.375
S'much'
p83
I9
tp84
a(I5
I227
F0.375
S'much'
p85
I9
tp86
a(I8
I71
F0.375
S'much'
p87
I9
tp88
as(S'lens'
p89
tp90
(lp91
(I3
I24
F-0.5
S'open'
p92
I2
tp93
a(I3
I24
F0.125
S'protective'
p94
I2
tp95
a(I3
I32
I0
S'close'
p96
I2
tp97
a(I3
I32
I0
S'reopen'
p98
I2
tp99
as(S'service'
p100
tp101
(lp102
(I5
I224
I0
S'great'
p103
I16
tp104
as(S'player'
p105
tp106
(lp107
(I1
I7
F-0.125
S'slow'
p108
I6
tp109
as(S'amazon'
p110
tp111
(lp112
(I5
I33
F-0.25
S'cheapest'
p113
I13
tp114
a(I5
I230
F-0.375
S'black'
p115
I13
tp116
as(S'wifi'
p117
tp118
(lp119
(I3
I11
F0.375
S'much'
p120
I0
tp121
a(I8
I75
F0.625
S'easy'
p122
I0
tp123
as(S'mobile'
p124
tp125
(lp126
(I5
I183
F0.375
S'much'
p127
I0
tp128
a(I5
I183
F-0.625
S'conventional'
p129
I0
tp130
as(S'camera'
p131
tp132
(lp133
(I0
I22
F1.0
S'good'
p134
I1
tp135
a(I0
I24
I-100
S'carry-on'
p136
I1
tp137
a(I0
I41
I0
S'great'
p138
I1
tp139
a(I1
I0
F1.0
S'best'
p140
I1
tp141
a(I1
I32
F-0.5
S'regular'
p142
I1
tp143
a(I2
I2
F1.0
S'best'
p144
I1
tp145
a(I3
I12
F1.0
S'better'
p146
I1
tp147
a(I3
I25
I0
S'next'
p148
I1
tp149
a(I3
I56
F1.0
S'best'
p150
I1
tp151
a(I5
I81
F-0.5
S'actual'
p152
I1
tp153
a(I5
I171
I0
S'great'
p154
I1
tp155
a(I5
I180
F0.625
S'accessible'
p156
I1
tp157
a(I5
I180
F0.625
S'accessible'
p158
I1
tp159
a(I5
I215
F-0.125
S'accidental'
p160
I1
tp161
a(I6
I0
F1.0
S'best'
p162
I1
tp163
a(I8
I38
F1.0
S'best'
p164
I1
tp165
a(I8
I53
F1.0
S'good'
p166
I1
tp167
a(I8
I74
F0.125
S'impressive'
p168
I1
tp169
a(I8
I95
I0
S'great'
p170
I1
tp171
as(S'touch'
p172
S'screen'
p173
tp174
(lp175
(I1
I14
F0.5
S'touch'
p176
I2
tp177
a(I5
I146
F0.5
S'touch'
p178
I2
tp179
a(I5
I183
F0.5
S'touch'
p180
I2
tp181
a(I5
I183
F0.5
S'touch'
p182
I2
tp183
as(S'maps'
p184
tp185
(lp186
(I5
I99
F-0.625
S'free'
p187
I5
tp188
as(S'music'
p189
tp190
(lp191
(I2
I28
I0
S'great'
p192
I0
tp193
a(I5
I60
I0
S'great'
p194
I0
tp195
a(I5
I155
F1.0
S'good'
p196
I0
tp197
as.