(dp0
(S'battery'
p1
S'life'
p2
tp3
(lp4
(I0
I10
F-0.625
S'average'
p5
I1
tp6
a(I2
I10
F1.0
S'good'
p7
I1
tp8
a(I10
I43
F-0.75
S'short'
p9
I1
tp10
a(I13
I106
F-0.75
S'short'
p11
I1
tp12
a(I2
I10
F1.0
g7
I15
tp13
a(I6
I108
F1.0
S'good'
p14
I15
tp15
a(I7
I50
F0.25
S'portable'
p16
I15
tp17
a(I7
I51
F0.375
S'extra'
p18
I15
tp19
a(I13
I68
I0
S'same'
p20
I15
tp21
as(S'keyboard'
p22
tp23
(lp24
(I4
I31
F-0.625
S'bad'
p25
I2
tp26
a(I6
I6
F-0.375
S'small'
p27
I2
tp28
a(I6
I6
F-0.75
S'uncomfortable'
p29
I2
tp30
a(I9
I86
I0
S'standard'
p31
I2
tp32
as(S'call'
p33
S'quality'
p34
tp35
(lp36
(I2
I37
F-0.625
S'bad'
p37
I0
tp38
a(I7
I16
F1.0
S'good'
p39
I0
tp40
a(I9
I18
F1.0
S'good'
p41
I0
tp42
a(I9
I79
F1.0
S'good'
p43
I0
tp44
as(S'k'
p45
S'a'
p46
S'n95'
p47
tp48
(lp49
(I4
I46
F0.625
S'kind'
p50
I0
tp51
a(I6
I100
F0.875
S'music'
p52
I0
tp53
a(I7
I61
F0.625
S'kind'
p54
I0
tp55
a(I9
I99
I0
S'more'
p56
I0
tp57
a(I9
I99
I0
S'dated'
p58
I0
tp59
a(I10
I27
I0
S'same'
p60
I0
tp61
a(I10
I38
F0.25
S'original'
p62
I0
tp63
a(I10
I98
F-0.625
S'absent'
p64
I0
tp65
a(I13
I24
F0.25
S'original'
p66
I0
tp67
as(S'camera'
p68
tp69
(lp70
(I2
I10
F0.625
S'acceptable'
p71
I1
tp72
a(I6
I45
I0
S'mobile'
p73
I1
tp74
a(I6
I55
F0.625
S'noticeable'
p75
I1
tp76
a(I6
I80
I0
S'most'
p77
I1
tp78
a(I6
I90
F0.125
S'digital'
p79
I1
tp80
a(I6
I102
F-0.75
S'wrong'
p81
I1
tp82
a(I7
I11
F0.25
S'main'
p83
I1
tp84
a(I9
I75
F1.0
S'good'
p85
I1
tp86
a(I9
I75
F0.125
S'digital'
p87
I1
tp88
a(I10
I82
I0
S'only'
p89
I1
tp90
a(I10
I111
F1.0
S'better'
p91
I1
tp92
a(I13
I5
F1.0
S'best'
p93
I1
tp94
a(I13
I61
F0.125
S'digital'
p95
I1
tp96
as(S'bluetooth'
p97
tp98
(lp99
(I7
I22
F-0.625
S'other'
p100
I3
tp101
a(I10
I96
I0
S'external'
p102
I3
tp103
a(I13
I98
F0.25
S'portable'
p104
I3
tp105
a(I13
I130
F-0.375
S'small'
p106
I3
tp107
as(S'iphone'
p108
tp109
(lp110
(I4
I8
F0.375
S'new'
p111
I1
tp112
a(I6
I16
I0
S'same'
p113
I1
tp114
a(I6
I96
F-0.625
S'free'
p115
I1
tp116
a(I7
I118
F0.375
S'available'
p117
I1
tp118
a(I10
I34
I0
S'own'
p119
I1
tp120
a(I10
I80
F0.375
S'available'
p121
I1
tp122
a(I10
I81
F-0.75
S'short'
p123
I1
tp124
a(I13
I108
F0.5
S'functional'
p125
I1
tp126
as(S'a.'
p127
S'k.'
p128
tp129
(lp130
(I10
I30
I-100
S'imap-idle'
p131
I0
tp132
as(S'memory'
p133
tp134
(lp135
(I4
I46
F-0.25
S'lower'
p136
I5
tp137
a(I13
I9
I0
S'more'
p138
I5
tp139
a(I13
I9
F0.125
S'enough'
p140
I5
tp141
as(S'flash'
p142
tp143
(lp144
(I7
I13
F-0.75
S'bright'
p145
I2
tp146
a(I10
I47
I0
S'internal'
p147
I2
tp148
as(S'applications'
p149
tp150
(lp151
(I6
I26
F0.875
S'nice'
p152
I3
tp153
a(I10
I21
F0.125
S'native'
p154
I3
tp155
a(I10
I24
F-0.625
S'other'
p156
I3
tp157
a(I10
I43
F-0.5
S'open'
p158
I3
tp159
a(I10
I64
I0
S'most'
p160
I3
tp161
a(I10
I95
F0.125
S'native'
p162
I3
tp163
a(I10
I98
I0
S'few'
p164
I3
tp165
a(I10
I126
I0
S'many'
p166
I3
tp167
a(I10
I148
F0.125
S'practical'
p168
I3
tp169
a(I10
I148
F0.5
S'compatible'
p170
I3
tp171
a(I13
I106
I0
S'many'
p172
I3
tp173
a(I13
I106
I0
S'only'
p174
I3
tp175
as(S'music'
p176
S'player'
p177
tp178
(lp179
(I6
I35
F0.875
S'music'
p180
I0
tp181
a(I6
I35
I0
S'great'
p182
I0
tp183
a(I7
I25
F0.5
S'primary'
p184
I0
tp185
a(I9
I96
F0.875
S'music'
p186
I0
tp187
a(I9
I96
I0
S'great'
p188
I0
tp189
a(I6
I35
F0.875
g180
I6
tp190
a(I6
I35
I0
g182
I6
tp191
a(I6
I36
I0
S'real'
p192
I6
tp193
a(I7
I27
F-0.625
S'other'
p194
I6
tp195
a(I7
I27
I0
S'great'
p196
I6
tp197
a(I9
I96
F0.875
g186
I6
tp198
a(I9
I96
I0
g188
I6
tp199
a(I13
I126
F0.125
S'usual'
p200
I6
tp201
a(I13
I126
I0
S'real'
p202
I6
tp203
a(I7
I25
F0.5
g184
I0
tp204
as(S'sound'
p205
tp206
(lp207
(I6
I138
I0
S'own'
p208
I7
tp209
as(S'nokia'
p210
tp211
(lp212
(I6
I52
I0
S'next'
p213
I0
tp214
a(I6
I106
F0.25
S'powerful'
p215
I0
tp216
a(I8
I5
I0
S'later'
p217
I0
tp218
a(I9
I2
F0.5
S'told'
p219
I0
tp220
a(I10
I113
F-0.625
S'other'
p221
I0
tp222
a(I11
I0
F1.0
S'best'
p223
I0
tp224
a(I12
I0
F0.875
S'happy'
p225
I0
tp226
a(I13
I108
I0
S'more'
p227
I0
tp228
as(g46
S'us'
p229
S'version'
p230
tp231
(lp232
(I7
I5
F-0.5
S'international'
p233
I0
tp234
a(I10
I114
I0
S'only'
p235
I0
tp236
a(I10
I114
F0.375
S'available'
p237
I0
tp238
a(I7
I5
F-0.5
g233
I0
tp239
a(I10
I114
I0
g235
I0
tp240
a(I10
I114
F0.375
g237
I0
tp241
as(S'earphone'
p242
S'speaker'
p243
tp244
(lp245
(I9
I89
F0.75
S'due'
p246
I0
tp247
a(I2
I10
F0.375
S'loud'
p248
I8
tp249
a(I2
I21
F-0.5
S'regular'
p250
I8
tp251
a(I7
I115
F1.0
S'good'
p252
I8
tp253
as(S'internet'
p254
tp255
(lp256
(I7
I44
F0.5
S'touch'
p257
I6
tp258
a(I10
I75
F0.375
S'enable'
p259
I6
tp260
as(S'wifi'
p261
tp262
(lp263
(I0
I2
I0
S'e-mail'
p264
I0
tp265
a(I7
I57
I0
S'own'
p266
I0
tp267
a(I13
I84
F-0.625
S'other'
p268
I0
tp269
as(S'videos'
p270
tp271
(lp272
(I4
I32
I0
S'incredible'
p273
I8
tp274
as(S'amazon'
p275
tp276
(lp277
(I6
I57
I0
S'great'
p278
I13
tp279
as(S'google'
p280
S'maps'
p281
tp282
(lp283
(I7
I117
F-0.25
S'google'
p284
I1
tp285
a(I9
I48
F-0.25
S'google'
p286
I1
tp287
a(I7
I117
F-0.25
g284
I5
tp288
a(I9
I48
F-0.25
g286
I5
tp289
as(S'voice'
p290
S'navigation'
p291
tp292
(lp293
(I4
I29
F-0.625
S'free'
p294
I0
tp295
a(I10
I8
I0
S'optional'
p296
I0
tp297
a(I0
I3
F1.0
S'good'
p298
I4
tp299
a(I7
I115
I0
S'great'
p300
I4
tp301
a(I10
I8
I0
g296
I4
tp302
as.