(dp0
(S'something'
p1
tp2
(lp3
(I5
I22
F0.125
S'first'
p4
tp5
a(I18
I9
F-0.375
S'top'
p6
tp7
a(I18
I9
I0
S'great'
p8
tp9
a(I75
I10
F0.625
S'major'
p10
tp11
a(I126
I4
F0.375
S'new'
p12
tp13
a(I144
I9
I0
S'great'
p14
tp15
a(I145
I6
F1.0
S'good'
p16
tp17
a(I146
I7
I0
S'most'
p18
tp19
a(I155
I11
F0.375
S'new'
p20
tp21
a(I157
I7
I0
S'useful'
p22
tp23
a(I174
I83
I0
S'funny'
p24
tp25
a(I174
I83
I0
S'assign'
p26
tp27
as(S'keyboard'
p28
tp29
(lp30
(I5
I31
I0
S'different'
p31
tp32
a(I5
I32
I0
S'full'
p33
tp34
a(I5
I32
I0
S'old'
p35
tp36
a(I5
I42
I0
S'efficient'
p37
tp38
a(I12
I3
I0
S'more'
p39
tp40
a(I12
I3
F0.25
S'responsive'
p41
tp42
a(I16
I1
F-0.125
S'slow'
p43
tp44
a(I22
I9
F0.5
S'bold'
p45
tp46
a(I33
I3
I0
S'such'
p47
tp48
a(I33
I6
I0
S'generate'
p49
tp50
a(I33
I6
I0
S'few'
p51
tp52
a(I47
I11
I0
S'full'
p53
tp54
a(I47
I14
I0
S'physical'
p55
tp56
a(I48
I3
I0
S'horizontal'
p57
tp58
a(I56
I17
I0
S'physical'
p59
tp60
a(I73
I16
F-0.5
S'regular'
p61
tp62
a(I73
I20
F0.375
S'allow'
p63
tp64
a(I77
I3
F-0.125
S'slow'
p65
tp66
a(I77
I4
F0.5
S'careful'
p67
tp68
a(I81
I4
F-0.5
S'regular'
p69
tp70
a(I81
I4
F0.625
S'easier'
p71
tp72
a(I101
I20
F0.625
S'superior'
p73
tp74
a(I103
I5
F-0.125
S'slow'
p75
tp76
a(I104
I3
I0
S'full'
p77
tp78
a(I117
I46
I0
S'physical'
p79
tp80
a(I117
I46
F0.375
S'confident'
p81
tp82
a(I126
I37
I0
S'full'
p83
tp84
a(I126
I37
F0.625
S'necessary'
p85
tp86
a(I126
I118
F0.5
S'functional'
p87
tp88
a(I126
I118
F1.0
S'better'
p89
tp90
a(I142
I15
I0
S'full'
p91
tp92
a(I144
I3
F-0.625
S'nearby'
p93
tp94
a(I144
I3
F0.125
S'key'
p95
tp96
a(I144
I6
I0
S'real'
p97
tp98
a(I155
I12
F1.0
S'good'
p99
tp100
a(I156
I12
I0
S'full'
p101
tp102
a(I165
I3
I0
S'faster'
p103
tp104
a(I168
I19
I0
S'only'
p105
tp106
a(I170
I1
F-0.75
S'tough'
p107
tp108
as(S'rim'
p109
S'and'
p110
S'verizon'
p111
tp112
(lp113
(I20
I12
I0
S'rim'
p114
tp115
a(I113
I3
F-0.625
S'bad'
p116
tp117
a(I113
I3
I0
S'rim'
p118
tp119
as(S'nice'
p120
tp121
(lp122
(I54
I83
F0.125
S'able'
p123
tp124
a(I125
I3
I0
S'real'
p125
tp126
as(S'f'
p127
S'are'
p128
S'using'
p129
tp130
(lp131
(I18
I53
I0
S'most'
p132
tp133
as(S'touch'
p134
tp135
(lp136
(I0
I3
F0.5
S'true'
p137
tp138
a(I2
I16
F-0.5
S'less'
p139
tp140
a(I33
I1
I0
S'large'
p141
tp142
a(I79
I1
F0.5
S'true'
p143
tp144
a(I114
I9
I0
S'capacitive'
p145
tp146
a(I134
I10
F-0.375
S'simple'
p147
tp148
a(I155
I3
I0
S'old'
p149
tp150
as(S'operating'
p151
S'system'
p152
tp153
(lp154
(I30
I4
I0
S'stable'
p155
tp156
a(I30
I4
F0.75
S'due'
p157
tp158
a(I30
I4
F0.25
S'consistent'
p159
tp160
a(I110
I0
F1.0
S'good'
p161
tp162
a(I117
I51
F0.25
S'original'
p163
tp164
a(I129
I12
F-0.75
S'difficult'
p165
tp166
a(I129
I17
F0.375
S'available'
p167
tp168
a(I146
I2
F1.0
S'better'
p169
tp170
a(I156
I37
F-0.125
S'slow'
p171
tp172
as(S'quality'
p173
tp174
(lp175
(I2
I19
F1.0
S'good'
p176
tp177
a(I18
I21
I0
S'same'
p178
tp179
a(I18
I26
I0
S'great'
p180
tp181
a(I18
I71
F0.875
S'happiest'
p182
tp183
a(I28
I1
I0
S'same'
p184
tp185
a(I28
I1
F-0.625
S'other'
p186
tp187
a(I33
I3
I0
S'traditional'
p188
tp189
a(I36
I2
F1.0
S'good'
p190
tp191
a(I37
I6
I0
S'general'
p192
tp193
a(I37
I6
F0.375
S'much'
p194
tp195
a(I46
I11
F-0.375
S'weekly'
p196
tp197
a(I46
I13
I0
S'high'
p198
tp199
a(I126
I114
I0
S'great'
p200
tp201
a(I126
I123
F-0.5
S'poor'
p202
tp203
a(I130
I14
F1.0
S'good'
p204
tp205
a(I130
I19
F1.0
S'good'
p206
tp207
a(I146
I5
F1.0
S'good'
p208
tp209
a(I174
I54
F1.0
S'best'
p210
tp211
as(S'touchscreen'
p212
tp213
(lp214
(I2
I45
I0
S'same'
p215
tp216
a(I58
I18
F-0.625
S'other'
p217
tp218
a(I94
I4
I0
S'real'
p219
tp220
a(I94
I4
F0.625
S'easy'
p221
tp222
a(I130
I1
F0.125
S'first'
p223
tp224
a(I130
I7
I0
S'general'
p225
tp226
a(I132
I31
F-0.875
S'worst'
p227
tp228
a(I148
I7
F-0.625
S'other'
p229
tp230
a(I162
I11
F0.5
S'strong'
p231
tp232
as(S'menu'
p233
tp234
(lp235
(I5
I35
F0.125
S'key'
p236
tp237
a(I20
I27
F0.25
S'main'
p238
tp239
a(I55
I12
I0
S'contextual'
p240
tp241
a(I86
I1
F0.125
S'first'
p242
tp243
a(I126
I92
I0
S'physical'
p244
tp245
a(I126
I95
F0.625
S'easy'
p246
tp247
a(I144
I5
F-0.375
S'top'
p248
tp249
a(I168
I26
F0.25
S'main'
p250
tp251
a(I172
I6
F0.25
S'main'
p252
tp253
a(I174
I80
F0.625
S'hold'
p254
tp255
as(S'software'
p256
S'update'
p257
tp258
(lp259
(I0
I6
F0.375
S'new'
p260
tp261
a(I2
I60
F-0.125
S'slow'
p262
tp263
a(I5
I23
I0
S'firmware'
p264
tp265
a(I52
I2
F0.375
S'new'
p266
tp267
a(I54
I7
I0
S'latest'
p268
tp269
a(I56
I5
F0.5
S'reasonable'
p270
tp271
a(I103
I6
I0
S'latest'
p272
tp273
a(I106
I7
F-0.125
S'slow'
p274
tp275
a(I106
I10
F0.5
S'strong'
p276
tp277
a(I109
I4
F0.375
S'new'
p278
tp279
a(I109
I4
I0
S'same'
p280
tp281
a(I117
I63
F0.375
S'new'
p282
tp283
a(I117
I63
F0.75
S'due'
p284
tp285
a(I132
I1
F0.625
S'necessary'
p286
tp287
a(I148
I12
F-0.75
S'likely'
p288
tp289
a(I148
I12
F1.0
S'better'
p290
tp291
a(I156
I20
F0.25
S'recent'
p292
tp293
a(I174
I64
F0.375
S'new'
p294
tp295
as(S'verizon'
p296
tp297
(lp298
(I5
I3
I0
S'corporate'
p299
tp300
a(I11
I23
F0.5
S'loyal'
p301
tp302
a(I12
I11
I0
S'great'
p303
tp304
a(I12
I11
F0.375
S'reliable'
p305
tp306
a(I13
I2
F0.375
S'forcing'
p307
tp308
a(I20
I12
I0
g114
tp309
a(I41
I5
F-0.625
S'bad'
p310
tp311
a(I52
I12
I0
S'cool'
p312
tp313
a(I55
I16
F0.75
S'worth'
p314
tp315
a(I55
I16
F0.125
S'able'
p316
tp317
a(I62
I1
F0.875
S'happy'
p318
tp319
a(I75
I7
F-0.75
S'short'
p320
tp321
a(I76
I4
I0
S'stable'
p322
tp323
a(I110
I0
I0
S'latest'
p324
tp325
a(I111
I4
F0.375
S'available'
p326
tp327
a(I113
I3
F-0.625
g116
tp328
a(I113
I3
I0
g118
tp329
a(I118
I1
I0
S'february'
p330
tp331
a(I124
I6
I0
S'own'
p332
tp333
a(I126
I70
F-0.625
S'bad'
p334
tp335
a(I128
I0
I0
S'website'
p336
tp337
a(I144
I0
F-0.75
S'short'
p338
tp339
a(I145
I8
I0
S'rim'
p340
tp341
a(I150
I25
I0
S'local'
p342
tp343
a(I156
I40
F0.5
S'overpriced'
p344
tp345
a(I157
I2
I0
S'local'
p346
tp347
a(I157
I12
I0
S'local'
p348
tp349
a(I172
I0
F-0.75
S'short'
p350
tp351
a(I172
I0
F0.25
S'sweet'
p352
tp353
a(I174
I8
I0
S'old'
p354
tp355
a(I174
I12
I0
S'local'
p356
tp357
a(I174
I62
F-0.75
S'short'
p358
tp359
a(I174
I74
I0
S'update'
p360
tp361
as(S'applications'
p362
tp363
(lp364
(I5
I51
F-0.75
S'little'
p365
tp366
a(I5
I51
F0.375
S'new'
p367
tp368
a(I18
I25
F-0.5
S'open'
p369
tp370
a(I18
I28
F0.375
S'available'
p371
tp372
a(I28
I1
F1.0
S'good'
p373
tp374
a(I28
I1
I0
S'many'
p375
tp376
a(I29
I5
I0
S'few'
p377
tp378
a(I54
I17
I0
S'many'
p379
tp380
a(I54
I41
I0
S'close'
p381
tp382
a(I54
I47
F-0.5
S'sure'
p383
tp384
a(I54
I49
F0.5
S'careful'
p385
tp386
a(I60
I3
F0.375
S'available'
p387
tp388
a(I65
I1
F-0.125
S'slow'
p389
tp390
a(I97
I3
F-0.125
S'slow'
p391
tp392
a(I97
I3
F-0.125
S'slow'
p393
tp394
a(I104
I2
F0.625
S'easy'
p395
tp396
a(I104
I2
I0
S'organizational'
p397
tp398
a(I156
I30
F0.125
S'popular'
p399
tp400
a(I162
I6
I0
S'close'
p401
tp402
a(I168
I25
I0
S'many'
p403
tp404
as(g127
S'want'
p405
tp406
(lp407
(I75
I24
F-0.875
S'negative'
p408
tp409
as(S'windows'
p410
S'xp'
p411
tp412
(lp413
(I18
I36
I0
S'explorer'
p414
tp415
a(I114
I11
I0
S'explorer'
p416
tp417
a(I174
I26
F0.125
S'able'
p418
tp419
as(S'of'
p420
S'touch'
p421
S'screen'
p422
tp423
(lp424
(I5
I32
F0.5
S'touch'
p425
tp426
a(I5
I32
I0
S'entire'
p427
tp428
a(I9
I7
F0.5
S'touch'
p429
tp430
a(I9
I7
I0
S'sensitive'
p431
tp432
a(I12
I7
F0.5
S'touch'
p433
tp434
a(I31
I3
I0
S'fast'
p435
tp436
a(I31
I3
F0.5
S'touch'
p437
tp438
a(I33
I3
F0.5
S'touch'
p439
tp440
a(I44
I2
F0.5
S'touch'
p441
tp442
a(I45
I7
F0.5
S'touch'
p443
tp444
a(I51
I5
F0.5
S'touch'
p445
tp446
a(I64
I12
F0.5
S'touch'
p447
tp448
a(I69
I2
F0.5
S'touch'
p449
tp450
a(I69
I7
F0.5
S'touch'
p451
tp452
a(I69
I9
F0.5
S'touch'
p453
tp454
a(I69
I9
F0.5
S'touch'
p455
tp456
a(I70
I6
I0
S'sensitive'
p457
tp458
a(I70
I6
F-0.375
S'smooth'
p459
tp460
a(I87
I6
F0.5
S'touch'
p461
tp462
a(I110
I6
F0.5
S'touch'
p463
tp464
a(I114
I9
I0
S'3d'
p465
tp466
a(I114
I9
I0
g145
tp467
a(I118
I2
F0.5
S'touch'
p468
tp469
a(I123
I23
F0.5
S'touch'
p470
tp471
a(I126
I43
F0.5
S'touch'
p472
tp473
a(I141
I2
F0.5
S'touch'
p474
tp475
a(I148
I4
F0.5
S'touch'
p476
tp477
a(I148
I4
F0.5
S'touch'
p478
tp479
a(I148
I7
F0.5
S'touch'
p480
tp481
a(I148
I7
F0.5
S'touch'
p482
tp483
a(I151
I2
F0.5
S'touch'
p484
tp485
a(I155
I3
I0
g149
tp486
a(I158
I0
F0.5
S'touch'
p487
tp488
a(I178
I8
F0.5
S'touch'
p489
tp490
as(S'want'
p491
tp492
(lp493
(I75
I24
F-0.875
g408
tp494
as(S'ever'
p495
tp496
(lp497
(I46
I15
I0
S'song'
p498
tp499
as(S'blackberry'
p500
tp501
(lp502
(I2
I24
F0.125
S'usual'
p503
tp504
a(I5
I1
F0.375
S'available'
p505
tp506
a(I5
I15
F-0.625
S'other'
p507
tp508
a(I5
I17
I0
S'old'
p509
tp510
a(I5
I21
F0.125
S'first'
p511
tp512
a(I5
I31
I0
S'traditional'
p513
tp514
a(I5
I34
F0.25
S'effective'
p515
tp516
a(I5
I58
I0
S'great'
p517
tp518
a(I5
I58
F-0.625
S'other'
p519
tp520
a(I5
I67
F0.125
S'first'
p521
tp522
a(I5
I83
F-0.625
S'sometime'
p523
tp524
a(I13
I2
I0
S'promising'
p525
tp526
a(I14
I1
F-0.5
S'regular'
p527
tp528
a(I18
I33
I0
S'own'
p529
tp530
a(I19
I7
F-0.625
S'other'
p531
tp532
a(I20
I0
F0.375
S'new'
p533
tp534
a(I20
I30
I0
S'most'
p535
tp536
a(I23
I2
F0.375
S'newest'
p537
tp538
a(I24
I3
F0.625
S'necessary'
p539
tp540
a(I25
I9
F0.375
S'available'
p541
tp542
a(I25
I12
I0
S'traditional'
p543
tp544
a(I28
I1
F0.125
S'first'
p545
tp546
a(I33
I4
I0
S'abreast'
p547
tp548
a(I39
I9
F-0.625
S'other'
p549
tp550
a(I39
I9
F-0.625
S'other'
p551
tp552
a(I52
I18
F0.125
S'first'
p553
tp554
a(I52
I18
F0.125
S'last'
p555
tp556
a(I56
I14
F0.875
S'nice'
p557
tp558
a(I57
I1
F0.375
S'new'
p559
tp560
a(I58
I0
F0.125
S'first'
p561
tp562
a(I58
I0
F0.125
S'first'
p563
tp564
a(I70
I5
F0.125
S'first'
p565
tp566
a(I75
I45
I0
S'standard'
p567
tp568
a(I76
I2
F0.375
S'new'
p569
tp570
a(I76
I18
F0.5
S'comparable'
p571
tp572
a(I77
I1
F0.125
S'first'
p573
tp574
a(I78
I0
I0
S'particular'
p575
tp576
a(I96
I7
F-0.5
S'sure'
p577
tp578
a(I107
I2
F0.25
S'familiar'
p579
tp580
a(I113
I5
F0.375
S'new'
p581
tp582
a(I117
I25
F0.125
S'first'
p583
tp584
a(I126
I0
F0.375
S'new'
p585
tp586
a(I126
I14
F0.375
S'new'
p587
tp588
a(I126
I14
F0.375
S'new'
p589
tp590
a(I126
I23
F0.375
S'new'
p591
tp592
a(I126
I33
F0.125
S'native'
p593
tp594
a(I126
I36
I0
S'many'
p595
tp596
a(I130
I1
F0.125
S'first'
p597
tp598
a(I130
I2
F-0.625
S'other'
p599
tp600
a(I132
I28
I0
S'special'
p601
tp602
a(I132
I28
F-0.625
S'push'
p603
tp604
a(I132
I28
I0
S'e-mail'
p605
tp606
a(I156
I38
I0
S'adequate'
p607
tp608
a(I159
I5
I0
S'different'
p609
tp610
a(I159
I5
F1.0
S'better'
p611
tp612
a(I159
I5
I0
S'different'
p613
tp614
a(I169
I10
F0.125
S'last'
p615
tp616
a(I176
I2
F0.125
S'capable'
p617
tp618
a(I177
I0
F0.125
S'first'
p619
tp620
as(S'software'
p621
tp622
(lp623
(I0
I6
F0.375
g260
tp624
a(I2
I60
F-0.125
g262
tp625
a(I3
I2
F0.375
S'available'
p626
tp627
a(I15
I3
F0.875
S'important'
p628
tp629
a(I18
I23
I0
S'special'
p630
tp631
a(I19
I21
I0
S'old'
p632
tp633
a(I46
I8
F1.0
S'good'
p634
tp635
a(I46
I8
F1.0
S'good'
p636
tp637
a(I52
I2
F0.375
g266
tp638
a(I52
I3
I0
S'only'
p639
tp640
a(I54
I7
I0
g268
tp641
a(I56
I5
F0.5
g270
tp642
a(I75
I14
F-0.125
S'slow'
p643
tp644
a(I75
I43
I0
S'multiple'
p645
tp646
a(I76
I5
F-0.75
S'unreliable'
p647
tp648
a(I76
I7
F0.125
S'able'
p649
tp650
a(I76
I7
F-0.5
S'regular'
p651
tp652
a(I76
I7
F0.125
S'first'
p653
tp654
a(I80
I4
F0.25
S'medical'
p655
tp656
a(I81
I4
I0
S'same'
p657
tp658
a(I106
I7
F-0.125
g274
tp659
a(I106
I10
F0.5
g276
tp660
a(I109
I4
F0.375
g278
tp661
a(I109
I4
I0
g280
tp662
a(I117
I63
F0.375
g282
tp663
a(I126
I103
I0
S'latest'
p664
tp665
a(I132
I1
F0.625
g286
tp666
a(I133
I3
I0
S'latest'
p667
tp668
a(I148
I12
F-0.75
g288
tp669
a(I148
I12
F1.0
g290
tp670
a(I156
I12
F0.25
S'recent'
p671
tp672
a(I156
I20
F0.25
g292
tp673
a(I167
I8
I0
S'faster'
p674
tp675
a(I174
I26
F-0.625
S'sorry'
p676
tp677
a(I174
I64
F0.375
g294
tp678
a(I174
I97
I0
S'latest'
p679
tp680
as(S'takes'
p681
tp682
(lp683
(I31
I18
I0
S'great'
p684
tp685
as(g127
S'are'
p686
S'looking'
p687
tp688
(lp689
(I99
I11
I0
S'great'
p690
tp691
as(S'monthly'
p692
S'fee'
p693
tp694
(lp695
(I5
I53
I0
S'monthly'
p696
tp697
a(I18
I64
I0
S'monthly'
p698
tp699
a(I18
I64
F-0.25
S'higher'
p700
tp701
a(I18
I64
F-0.5
S'less'
p702
tp703
a(I54
I88
I0
S'monthly'
p704
tp705
as(S'storm'
p706
tp707
(lp708
(I2
I10
F-0.75
S'comfortable'
p709
tp710
a(I2
I17
F0.625
S'easier'
p711
tp712
a(I2
I22
F1.0
S'good'
p713
tp714
a(I2
I24
I0
S'useful'
p715
tp716
a(I2
I24
F1.0
S'good'
p717
tp718
a(I2
I35
I0
S'more'
p719
tp720
a(I2
I56
F-0.375
S'simple'
p721
tp722
a(I4
I1
F0.625
S'easier'
p723
tp724
a(I4
I1
F0.625
S'easier'
p725
tp726
a(I5
I80
F0.625
S'decent'
p727
tp728
a(I10
I2
F0.25
S'original'
p729
tp730
a(I10
I2
F0.25
S'original'
p731
tp732
a(I18
I36
F-0.125
S'blackberry'
p733
tp734
a(I18
I64
F0.125
S'capable'
p735
tp736
a(I19
I2
I0
S'own'
p737
tp738
a(I24
I2
I0
S'thick'
p739
tp740
a(I24
I2
F-0.5
S'heavy'
p741
tp742
a(I26
I14
F-0.5
S'certain'
p743
tp744
a(I30
I13
F1.0
S'best'
p745
tp746
a(I33
I1
F0.625
S'superior'
p747
tp748
a(I37
I13
F1.0
S'best'
p749
tp750
a(I41
I0
F0.125
S'last'
p751
tp752
a(I43
I2
F0.625
S'superior'
p753
tp754
a(I54
I3
F1.0
S'good'
p755
tp756
a(I54
I19
F0.875
S'nice'
p757
tp758
a(I60
I1
F0.625
S'easier'
p759
tp760
a(I64
I3
F0.625
S'easy'
p761
tp762
a(I71
I11
I0
S'more'
p763
tp764
a(I71
I11
F0.5
S'satisfied'
p765
tp766
a(I76
I2
F0.625
S'easy'
p767
tp768
a(I76
I3
I0
S'stable'
p769
tp770
a(I76
I3
F0.375
S'reliable'
p771
tp772
a(I78
I0
I0
S'term'
p773
tp774
a(I78
I2
I0
S'least'
p775
tp776
a(I82
I2
F-0.25
S'potential'
p777
tp778
a(I82
I2
I0
S'such'
p779
tp780
a(I96
I13
I0
S'more'
p781
tp782
a(I96
I13
I0
S'more'
p783
tp784
a(I101
I20
F1.0
S'better'
p785
tp786
a(I104
I0
I0
S'february'
p787
tp788
a(I107
I4
F0.625
S'easy'
p789
tp790
a(I110
I5
F0.625
S'decent'
p791
tp792
a(I117
I28
I0
S'even'
p793
tp794
a(I117
I28
F0.625
S'easy'
p795
tp796
a(I117
I45
F0.625
S'easier'
p797
tp798
a(I117
I56
I0
S'mechanical'
p799
tp800
a(I117
I67
F-0.375
S'unacceptable'
p801
tp802
a(I118
I0
F0.125
S'first'
p803
tp804
a(I118
I1
F0.375
S'new'
p805
tp806
a(I126
I17
F-0.25
S'ready'
p807
tp808
a(I126
I48
F0.5
S'functional'
p809
tp810
a(I126
I87
F0.125
S'able'
p811
tp812
a(I127
I1
F-0.125
S'slow'
p813
tp814
a(I132
I0
F0.125
S'first'
p815
tp816
a(I133
I29
I0
S'funny'
p817
tp818
a(I134
I10
I0
S'great'
p819
tp820
a(I135
I0
I0
S'great'
p821
tp822
a(I141
I5
F-0.875
S'worst'
p823
tp824
a(I142
I24
F0.125
S'typical'
p825
tp826
a(I155
I15
I0
S'next'
p827
tp828
a(I156
I18
F0.625
S'accessible'
p829
tp830
a(I156
I23
F-0.75
S'short'
p831
tp832
a(I156
I26
I0
S'least'
p833
tp834
a(I156
I34
I0
S'entire'
p835
tp836
a(I156
I53
F-0.125
S'blackberry'
p837
tp838
a(I162
I0
F1.0
S'best'
p839
tp840
a(I162
I10
I0
S'full'
p841
tp842
a(I162
I10
F-0.25
S'potential'
p843
tp844
a(I174
I6
F0.125
S'impressive'
p845
tp846
a(I174
I29
F0.5
S'clear'
p847
tp848
a(I174
I32
F0.375
S'available'
p849
tp850
a(I174
I32
F0.125
S'able'
p851
tp852
a(I174
I42
I0
S'faster'
p853
tp854
a(I174
I43
I0
S'fast'
p855
tp856
a(I174
I85
F-0.125
S'slow'
p857
tp858
a(I174
I94
F1.0
S'good'
p859
tp860
a(I174
I108
F0.125
S'able'
p861
tp862
a(I174
I146
I0
S'traditional'
p863
tp864
a(I174
I146
I0
S'update'
p865
tp866
a(I174
I146
I0
S'inconsistent'
p867
tp868
a(I174
I154
I0
S'update'
p869
tp870
a(I174
I166
I0
S'e-mail'
p871
tp872
a(I174
I171
I0
S'berry'
p873
tp874
as(S'every'
p875
tp876
(lp877
(I104
I3
F0.75
S'worth'
p878
tp879
a(I117
I1
F0.375
S'new'
p880
tp881
as(S'times'
p882
tp883
(lp884
(I2
I10
I0
S'many'
p885
tp886
a(I2
I10
F0.875
S'important'
p887
tp888
a(I5
I27
F0.625
S'necessary'
p889
tp890
a(I20
I14
F0.375
S'decipher'
p891
tp892
a(I54
I73
F-0.5
S'certain'
p893
tp894
a(I63
I6
I0
S'critical'
p895
tp896
a(I75
I14
F-0.625
S'other'
p897
tp898
a(I76
I17
F0.875
S'nice'
p899
tp900
a(I92
I3
I0
S'few'
p901
tp902
a(I96
I10
I0
S'many'
p903
tp904
a(I97
I5
F-0.5
S'long'
p905
tp906
a(I97
I15
I0
S'many'
p907
tp908
a(I99
I9
F1.0
S'better'
p909
tp910
a(I122
I2
I0
S'own'
p911
tp912
a(I122
I2
I0
S'many'
p913
tp914
a(I126
I5
I0
S'many'
p915
tp916
a(I129
I20
I0
S'least'
p917
tp918
a(I130
I6
I0
S'few'
p919
tp920
a(I134
I5
F0.5
S'odd'
p921
tp922
a(I141
I5
F0.75
S'worth'
p923
tp924
a(I143
I6
F-0.5
S'longer'
p925
tp926
as(S'problem'
p927
tp928
(lp929
(I18
I16
I0
S'most'
p930
tp931
a(I28
I1
F-0.5
S'long'
p932
tp933
a(I50
I15
F-0.5
S'aside'
p934
tp935
a(I50
I15
F0.625
S'major'
p936
tp937
a(I54
I16
I0
S'only'
p938
tp939
a(I76
I12
I0
S'only'
p940
tp941
a(I117
I54
F0.625
S'aware'
p942
tp943
a(I124
I3
I0
S'same'
p944
tp945
a(I129
I16
F0.25
S'biggest'
p946
tp947
a(I129
I20
F0.25
S'main'
p948
tp949
a(I140
I18
F0.5
S'possible'
p950
tp951
a(I144
I3
F-0.75
S'impossible'
p952
tp953
a(I156
I24
I0
S'fundamental'
p954
tp955
a(I156
I37
F0.25
S'bigger'
p956
tp957
as(S'on'
p958
S'screen'
p959
S'keyboard'
p960
tp961
(lp962
(I5
I32
I0
g33
tp963
a(I5
I32
I0
g35
tp964
a(I5
I32
F0.5
g425
tp965
a(I5
I32
I0
g427
tp966
a(I16
I1
F-0.125
g43
tp967
a(I16
I1
F0.875
S'nice'
p968
tp969
a(I22
I9
F0.5
g45
tp970
a(I33
I3
I0
g47
tp971
a(I33
I3
F0.5
g439
tp972
a(I56
I3
I0
S'big'
p973
tp974
a(I77
I3
F-0.125
g65
tp975
a(I104
I3
I0
g77
tp976
a(I108
I2
I0
S'great'
p977
tp978
a(I114
I9
I0
g465
tp979
a(I126
I35
F-0.375
S'small'
p980
tp981
a(I148
I7
F0.5
g480
tp982
a(I148
I7
F0.5
g482
tp983
a(I155
I12
F1.0
g99
tp984
a(I156
I12
I0
g101
tp985
a(I156
I12
F0.25
S'responsive'
p986
tp987
as(S'email'
p988
tp989
(lp990
(I2
I52
I0
S'mobile'
p991
tp992
a(I5
I6
F-0.625
S'push'
p993
tp994
a(I20
I39
I0
S'full'
p995
tp996
a(I28
I1
I0
S'great'
p997
tp998
a(I58
I9
I0
S'most'
p999
tp1000
a(I58
I9
F-0.625
S'other'
p1001
tp1002
a(I58
I13
I0
S'full'
p1003
tp1004
a(I71
I9
F0.5
S'compatible'
p1005
tp1006
a(I72
I3
F1.0
S'good'
p1007
tp1008
a(I75
I39
I0
S'initial'
p1009
tp1010
a(I75
I39
F0.375
S'interesting'
p1011
tp1012
a(I75
I40
F0.375
S'much'
p1013
tp1014
a(I106
I9
I0
S'instant'
p1015
tp1016
a(I114
I10
F0.5
S'true'
p1017
tp1018
a(I114
I10
F-0.25
S'lean'
p1019
tp1020
a(I116
I3
F0.25
S'original'
p1021
tp1022
a(I117
I32
F-0.375
S'simple'
p1023
tp1024
a(I126
I48
F-0.375
S'serious'
p1025
tp1026
a(I126
I60
F0.625
S'easy'
p1027
tp1028
a(I126
I61
F0.5
S'personal'
p1029
tp1030
a(I128
I6
F0.125
S'first'
p1031
tp1032
a(I180
I22
F0.625
S'easy'
p1033
tp1034
as(S'visual'
p1035
S'voice'
p1036
S'mail'
p1037
tp1038
(lp1039
(I31
I17
I0
S'visual'
p1040
tp1041
a(I31
I17
F0.125
S'able'
p1042
tp1043
a(I92
I11
I0
S'visual'
p1044
tp1045
a(I93
I1
I0
S'visual'
p1046
tp1047
a(I126
I64
I0
S'visual'
p1048
tp1049
a(I126
I67
I0
S'visual'
p1050
tp1051
a(I132
I23
I0
S'visual'
p1052
tp1053
a(I132
I23
I0
S'great'
p1054
tp1055
a(I134
I5
I0
S'visual'
p1056
tp1057
a(I174
I132
I0
S'visual'
p1058
tp1059
as(S'text'
p1060
tp1061
(lp1062
(I5
I19
F0.625
S'easy'
p1063
tp1064
a(I5
I33
F-0.375
S'small'
p1065
tp1066
a(I18
I68
I0
S'fast'
p1067
tp1068
a(I123
I7
F-0.625
S'other'
p1069
tp1070
a(I126
I38
F0.375
S'reliable'
p1071
tp1072
a(I126
I41
F1.0
S'best'
p1073
tp1074
a(I133
I9
F-0.75
S'impossible'
p1075
tp1076
a(I156
I10
F0.625
S'easy'
p1077
tp1078
a(I174
I161
I0
S'internet'
p1079
tp1080
a(I174
I172
F0.375
S'copy'
p1081
tp1082
a(I174
I172
F0.625
S'hold'
p1083
tp1084
as(S'micro'
p1085
S'sd'
p1086
tp1087
(lp1088
(I129
I12
I0
S'gig'
p1089
tp1090
a(I151
I2
I0
S'gig'
p1091
tp1092
as(S'application'
p1093
tp1094
(lp1095
(I38
I25
I0
S'close'
p1096
tp1097
a(I54
I25
F-1.0
S'dog'
p1098
tp1099
a(I54
I25
F-0.125
S'slow'
p1100
tp1101
a(I54
I81
F-0.875
S'hard'
p1102
tp1103
a(I54
I81
F-0.625
S'free'
p1104
tp1105
a(I54
I81
I0
S'official'
p1106
tp1107
a(I75
I38
I0
S'many'
p1108
tp1109
a(I75
I44
I0
S'large'
p1110
tp1111
a(I126
I91
I0
S'different'
p1112
tp1113
as(S'getting'
p1114
tp1115
(lp1116
(I130
I7
F-0.75
S'little'
p1117
tp1118
as(S'going'
p1119
tp1120
(lp1121
(I52
I18
I0
S'rim'
p1122
tp1123
as(S'piece'
p1124
S'of'
p1125
S'crap'
p1126
tp1127
(lp1128
(I27
I0
F0.25
S'biggest'
p1129
tp1130
a(I131
I5
I0
S'quick'
p1131
tp1132
a(I180
I6
F0.25
S'biggest'
p1133
tp1134
as(S'a'
p1135
S'two'
p1136
S'hour'
p1137
tp1138
(lp1139
(I174
I124
F-0.625
S'glad'
p1140
tp1141
as(S'progress'
p1142
S'bar'
p1143
tp1144
(lp1145
(I174
I103
F-0.375
S'top'
p1146
tp1147
as(S'blackberry'
p1148
S'storm'
p1149
tp1150
(lp1151
(I2
I10
F-0.75
g709
tp1152
a(I2
I24
F0.125
g503
tp1153
a(I2
I24
I0
g715
tp1154
a(I2
I24
F1.0
g717
tp1155
a(I5
I31
I0
g513
tp1156
a(I5
I58
I0
g517
tp1157
a(I5
I58
F-0.625
g519
tp1158
a(I13
I2
I0
g525
tp1159
a(I18
I36
F-0.125
g733
tp1160
a(I18
I64
F0.125
g735
tp1161
a(I26
I14
F-0.5
g743
tp1162
a(I28
I1
F0.125
g545
tp1163
a(I41
I0
F0.125
g751
tp1164
a(I43
I2
F0.625
g753
tp1165
a(I54
I3
F1.0
g755
tp1166
a(I56
I14
F0.875
g557
tp1167
a(I58
I0
F0.125
g561
tp1168
a(I58
I0
F0.125
g563
tp1169
a(I76
I2
F0.375
g569
tp1170
a(I76
I2
F0.625
g767
tp1171
a(I76
I3
I0
g769
tp1172
a(I76
I3
F0.375
g771
tp1173
a(I78
I0
I0
g773
tp1174
a(I78
I0
I0
g575
tp1175
a(I104
I0
I0
g787
tp1176
a(I107
I2
F0.25
g579
tp1177
a(I113
I5
F0.375
g581
tp1178
a(I126
I0
F0.375
g585
tp1179
a(I126
I14
F0.375
g587
tp1180
a(I126
I14
F0.375
g589
tp1181
a(I126
I17
F-0.25
g807
tp1182
a(I126
I23
F0.375
g591
tp1183
a(I126
I48
F0.5
g809
tp1184
a(I132
I0
F0.125
g815
tp1185
a(I156
I38
I0
g607
tp1186
a(I156
I53
F-0.125
g837
tp1187
as(S'make'
p1188
g1135
S'call'
p1189
tp1190
(lp1191
(I88
I6
F-0.625
S'other'
p1192
tp1193
as(S'right'
p1194
tp1195
(lp1196
(I4
I2
F0.5
S'true'
p1197
tp1198
a(I5
I34
F0.75
S'due'
p1199
tp1200
a(I174
I23
I0
S'own'
p1201
tp1202
a(I174
I40
F-0.75
S'likely'
p1203
tp1204
a(I174
I75
F-0.375
S'top'
p1205
tp1206
a(I174
I132
F-0.125
S'delete'
p1207
tp1208
a(I175
I0
F0.125
S'radical'
p1209
tp1210
as(S'things'
p1211
tp1212
(lp1213
(I2
I1
F0.875
S'important'
p1214
tp1215
a(I5
I18
F1.0
S'better'
p1216
tp1217
a(I5
I45
I0
S'few'
p1218
tp1219
a(I12
I10
F-0.625
S'bad'
p1220
tp1221
a(I18
I2
I0
S'great'
p1222
tp1223
a(I26
I4
F-0.375
S'simple'
p1224
tp1225
a(I31
I14
I0
S'current'
p1226
tp1227
a(I38
I52
I0
S'basic'
p1228
tp1229
a(I38
I52
I0
S'such'
p1230
tp1231
a(I38
I56
I0
S'same'
p1232
tp1233
a(I54
I4
I0
S'same'
p1234
tp1235
a(I54
I47
F-0.875
S'nasty'
p1236
tp1237
a(I62
I17
F0.125
S'enough'
p1238
tp1239
a(I62
I17
I0
S'great'
p1240
tp1241
a(I64
I0
F1.0
S'good'
p1242
tp1243
a(I64
I0
F-0.625
S'bad'
p1244
tp1245
a(I72
I5
F-0.375
S'simple'
p1246
tp1247
a(I75
I34
F-0.375
S'daily'
p1248
tp1249
a(I126
I103
F-0.875
S'worst'
p1250
tp1251
a(I126
I120
F-0.75
S'short'
p1252
tp1253
a(I133
I24
F-0.75
S'wrong'
p1254
tp1255
a(I137
I1
I0
S'incredible'
p1256
tp1257
a(I139
I2
I0
S'different'
p1258
tp1259
a(I140
I23
I0
S'big'
p1260
tp1261
a(I148
I6
F-0.375
S'simplest'
p1262
tp1263
a(I156
I52
F-0.75
S'little'
p1264
tp1265
as(S'features'
p1266
tp1267
(lp1268
(I0
I5
F0.125
S'impressive'
p1269
tp1270
a(I2
I3
F-0.75
S'secondary'
p1271
tp1272
a(I14
I7
F-0.375
S'simple'
p1273
tp1274
a(I18
I19
I0
S'many'
p1275
tp1276
a(I22
I4
F-0.625
S'other'
p1277
tp1278
a(I22
I4
F-0.75
S'secondary'
p1279
tp1280
a(I25
I6
I0
S'useful'
p1281
tp1282
a(I37
I5
F0.375
S'new'
p1283
tp1284
a(I37
I7
I0
S'great'
p1285
tp1286
a(I44
I20
F0.875
S'nice'
p1287
tp1288
a(I70
I8
I0
S'real'
p1289
tp1290
a(I75
I4
F-0.625
S'other'
p1291
tp1292
a(I75
I4
I0
S'general'
p1293
tp1294
a(I77
I2
F-0.625
S'other'
p1295
tp1296
a(I81
I2
I0
S'many'
p1297
tp1298
a(I86
I1
I0
S'many'
p1299
tp1300
a(I93
I2
I0
S'great'
p1301
tp1302
a(I96
I1
I0
S'most'
p1303
tp1304
a(I117
I30
F-0.625
S'other'
p1305
tp1306
a(I123
I17
I0
S'many'
p1307
tp1308
a(I126
I5
I0
S'few'
p1309
tp1310
a(I126
I5
F0.375
S'new'
p1311
tp1312
a(I156
I19
I0
S'extensive'
p1313
tp1314
a(I156
I44
F0.875
S'nice'
p1315
tp1316
a(I168
I13
F1.0
S'best'
p1317
tp1318
a(I172
I5
I0
S'old'
p1319
tp1320
a(I172
I5
F0.375
S'new'
p1321
tp1322
a(I174
I30
F1.0
S'good'
p1323
tp1324
a(I174
I58
F0.375
S'much'
p1325
tp1326
a(I174
I58
F0.625
S'easier'
p1327
tp1328
a(I174
I58
F0.875
S'nice'
p1329
tp1330
a(I174
I58
F-0.75
S'little'
p1331
tp1332
as(S'business'
p1333
tp1334
(lp1335
(I28
I1
F1.0
S'best'
p1336
tp1337
a(I28
I3
F1.0
S'good'
p1338
tp1339
a(I110
I2
F0.5
S'personal'
p1340
tp1341
a(I126
I8
F-0.375
S'serious'
p1342
tp1343
a(I126
I10
F0.375
S'new'
p1344
tp1345
a(I174
I144
I0
S'more'
p1346
tp1347
a(I180
I0
F-0.25
S'ready'
p1348
tp1349
a(I180
I5
F0.375
S'reliable'
p1350
tp1351
a(I180
I11
F-0.375
S'unacceptable'
p1352
tp1353
as(S'curve'
p1354
tp1355
(lp1356
(I28
I1
F0.5
S'bold'
p1357
tp1358
a(I31
I2
I0
S'fast'
p1359
tp1360
a(I33
I1
F0.75
S'due'
p1361
tp1362
a(I33
I5
F0.375
S'much'
p1363
tp1364
a(I38
I9
F-0.75
S'likely'
p1365
tp1366
a(I101
I15
F-0.5
S'less'
p1367
tp1368
a(I121
I5
F0.375
S'new'
p1369
tp1370
a(I121
I5
F1.0
S'better'
p1371
tp1372
a(I122
I12
F0.625
S'easier'
p1373
tp1374
a(I148
I5
I0
S'old'
p1375
tp1376
a(I166
I4
F0.5
S'bold'
p1377
tp1378
as(S'high'
p1379
S'score'
p1380
tp1381
(lp1382
(I126
I79
I0
S'high'
p1383
tp1384
a(I126
I80
F0.375
S'new'
p1385
tp1386
as(S'video'
p1387
tp1388
(lp1389
(I28
I1
F-0.125
S'ultimate'
p1390
tp1391
a(I55
I5
F0.875
S'music'
p1392
tp1393
a(I76
I12
I0
S'least'
p1394
tp1395
a(I163
I2
F0.875
S'music'
p1396
tp1397
a(I163
I2
I0
S'great'
p1398
tp1399
a(I170
I0
F1.0
S'good'
p1400
tp1401
as(S'voice'
p1402
tp1403
(lp1404
(I31
I17
I0
g1040
tp1405
a(I72
I3
F1.0
S'better'
p1406
tp1407
a(I72
I3
F-0.625
S'other'
p1408
tp1409
a(I92
I11
I0
g1044
tp1410
a(I93
I1
I0
g1046
tp1411
a(I126
I51
F1.0
S'best'
p1412
tp1413
a(I126
I54
F-0.5
S'weak'
p1414
tp1415
a(I126
I64
I0
g1048
tp1416
a(I126
I67
I0
g1050
tp1417
a(I132
I23
I0
g1052
tp1418
a(I134
I5
I0
g1056
tp1419
a(I148
I13
F-0.375
S'top'
p1420
tp1421
a(I148
I13
F-0.5
S'regular'
p1422
tp1423
a(I174
I131
F-0.5
S'longer'
p1424
tp1425
a(I174
I131
I0
S'dial'
p1426
tp1427
a(I174
I132
I0
g1058
tp1428
a(I174
I134
I0
S'update'
p1429
tp1430
as(S'on'
p1431
S'touch'
p1432
S'screen'
p1433
tp1434
(lp1435
(I0
I3
F0.5
g137
tp1436
a(I2
I16
F-0.5
g139
tp1437
a(I5
I32
F0.5
g425
tp1438
a(I5
I32
I0
g427
tp1439
a(I5
I47
F0.5
S'touch'
p1440
tp1441
a(I7
I1
F0.5
S'touch'
p1442
tp1443
a(I9
I7
F0.5
g429
tp1444
a(I9
I7
I0
g431
tp1445
a(I12
I7
F0.5
g433
tp1446
a(I16
I1
F0.875
g968
tp1447
a(I25
I13
F0.5
S'touch'
p1448
tp1449
a(I31
I3
I0
g435
tp1450
a(I31
I3
F0.5
g437
tp1451
a(I33
I1
I0
g141
tp1452
a(I33
I3
F0.5
g439
tp1453
a(I45
I7
F0.5
g443
tp1454
a(I51
I5
F0.5
g445
tp1455
a(I54
I11
I0
S'plastic'
p1456
tp1457
a(I56
I3
I0
g973
tp1458
a(I56
I19
F0.5
S'touch'
p1459
tp1460
a(I62
I23
F0.5
S'touch'
p1461
tp1462
a(I62
I23
F-0.5
S'regular'
p1463
tp1464
a(I62
I23
F0.125
S'key'
p1465
tp1466
a(I64
I8
F0.5
S'touch'
p1467
tp1468
a(I64
I11
F0.5
S'touch'
p1469
tp1470
a(I69
I7
F0.5
g451
tp1471
a(I69
I9
F0.5
g453
tp1472
a(I69
I9
F0.5
g455
tp1473
a(I87
I6
F0.5
g461
tp1474
a(I94
I5
F0.5
S'touch'
p1475
tp1476
a(I96
I7
F0.5
S'touch'
p1477
tp1478
a(I101
I8
F0.5
S'touch'
p1479
tp1480
a(I110
I6
F0.5
g463
tp1481
a(I114
I9
I0
g465
tp1482
a(I114
I9
I0
g145
tp1483
a(I118
I2
F0.5
g468
tp1484
a(I123
I23
F0.5
g470
tp1485
a(I126
I35
F-0.375
g980
tp1486
a(I126
I43
F0.5
g472
tp1487
a(I129
I12
F0.5
S'touch'
p1488
tp1489
a(I141
I2
F0.5
g474
tp1490
a(I148
I4
F0.5
g476
tp1491
a(I148
I4
F0.5
g478
tp1492
a(I148
I7
F0.5
g480
tp1493
a(I148
I7
F0.5
g482
tp1494
a(I151
I2
F0.5
g484
tp1495
a(I155
I3
I0
g149
tp1496
a(I158
I0
F0.5
g487
tp1497
a(I178
I8
F0.5
g489
tp1498
as(S'to'
p1499
S'go'
p1500
S'back'
p1501
tp1502
(lp1503
(I54
I39
F-0.5
S'press'
p1504
tp1505
as(S'network'
p1506
tp1507
(lp1508
(I5
I63
I0
S'fastest'
p1509
tp1510
a(I5
I71
I0
S'great'
p1511
tp1512
a(I19
I5
F-0.375
S'top'
p1513
tp1514
a(I19
I16
I0
S'wide'
p1515
tp1516
a(I19
I18
I0
S'great'
p1517
tp1518
a(I37
I6
F1.0
S'best'
p1519
tp1520
a(I69
I0
F0.75
S'due'
p1521
tp1522
a(I106
I5
F0.625
S'perfect'
p1523
tp1524
a(I110
I2
I0
S'many'
p1525
tp1526
a(I110
I2
I0
S'different'
p1527
tp1528
a(I110
I2
I0
S'social'
p1529
tp1530
a(I132
I15
F1.0
S'good'
p1531
tp1532
a(I134
I4
F1.0
S'best'
p1533
tp1534
a(I168
I8
F1.0
S'best'
p1535
tp1536
as(S'thing'
p1537
tp1538
(lp1539
(I2
I10
F0.5
S'whole'
p1540
tp1541
a(I2
I15
F0.375
S'interesting'
p1542
tp1543
a(I4
I3
F1.0
S'best'
p1544
tp1545
a(I4
I7
F1.0
S'good'
p1546
tp1547
a(I5
I11
I0
S'great'
p1548
tp1549
a(I5
I22
I0
S'rim'
p1550
tp1551
a(I15
I10
I0
S'more'
p1552
tp1553
a(I15
I19
I0
S'same'
p1554
tp1555
a(I15
I19
F0.875
S'nice'
p1556
tp1557
a(I15
I19
F0.5
S'elegant'
p1558
tp1559
a(I18
I43
I0
S'only'
p1560
tp1561
a(I20
I17
F0.125
S'first'
p1562
tp1563
a(I23
I3
F0.125
S'first'
p1564
tp1565
a(I30
I10
I0
S'only'
p1566
tp1567
a(I44
I9
F-0.625
S'other'
p1568
tp1569
a(I47
I13
I0
S'least'
p1570
tp1571
a(I56
I15
F0.375
S'new'
p1572
tp1573
a(I62
I24
I0
S'hot'
p1574
tp1575
a(I75
I43
F0.375
S'strangest'
p1576
tp1577
a(I76
I9
I0
S'great'
p1578
tp1579
a(I76
I20
I0
S'old'
p1580
tp1581
a(I82
I5
I0
S'same'
p1582
tp1583
a(I88
I2
F-0.625
S'bad'
p1584
tp1585
a(I88
I8
F1.0
S'good'
p1586
tp1587
a(I88
I9
F1.0
S'good'
p1588
tp1589
a(I90
I18
I0
S'only'
p1590
tp1591
a(I92
I11
F0.5
S'careful'
p1592
tp1593
a(I92
I11
F-0.5
S'sure'
p1594
tp1595
a(I99
I10
F-0.5
S'less'
p1596
tp1597
a(I102
I1
I0
S'slowest'
p1598
tp1599
a(I125
I4
I0
S'only'
p1600
tp1601
a(I125
I4
F1.0
S'good'
p1602
tp1603
a(I126
I80
F0.875
S'music'
p1604
tp1605
a(I130
I12
F-0.75
S'wrong'
p1606
tp1607
a(I134
I7
I0
S'great'
p1608
tp1609
a(I139
I2
I0
S'same'
p1610
tp1611
a(I140
I29
I0
S'same'
p1612
tp1613
a(I141
I22
I0
S'postal'
p1614
tp1615
a(I142
I2
F0.375
S'similar'
p1616
tp1617
a(I146
I4
F1.0
S'best'
p1618
tp1619
a(I146
I8
I0
S'coolest'
p1620
tp1621
a(I146
I8
I0
S'yeah'
p1622
tp1623
a(I163
I2
F0.875
S'important'
p1624
tp1625
a(I174
I88
F1.0
S'good'
p1626
tp1627
a(I174
I138
F-0.625
S'other'
p1628
tp1629
a(I174
I166
F-0.75
S'sad'
p1630
tp1631
a(I178
I10
I0
S'only'
p1632
tp1633
a(I178
I10
F-0.875
S'negative'
p1634
tp1635
a(I183
I1
I0
S'only'
p1636
tp1637
as(S'click'
p1638
tp1639
(lp1640
(I38
I20
F0.125
S'key'
p1641
tp1642
a(I114
I9
I0
S'tactile'
p1643
tp1644
a(I134
I10
I0
S'tactile'
p1645
tp1646
a(I155
I1
F-0.125
S'slow'
p1647
tp1648
as(S'portrait'
p1649
S'to'
p1650
S'landscape'
p1651
tp1652
(lp1653
(I5
I32
I0
S'active'
p1654
tp1655
a(I75
I17
I0
S'portrait'
p1656
tp1657
as(S'micro'
p1658
S'sd'
p1659
S'card'
p1660
tp1661
(lp1662
(I129
I12
I0
g1089
tp1663
as(S'make'
p1664
tp1665
(lp1666
(I88
I6
F-0.625
g1192
tp1667
as(S'work'
p1668
tp1669
(lp1670
(I37
I4
I0
S'organizational'
p1671
tp1672
a(I60
I4
I0
S'same'
p1673
tp1674
a(I75
I33
I0
S'multiple'
p1675
tp1676
a(I126
I11
I0
S'more'
p1677
tp1678
as(S'battery'
p1679
S'life'
p1680
tp1681
(lp1682
(I5
I82
F0.625
S'decent'
p1683
tp1684
a(I5
I82
F0.625
S'removable'
p1685
tp1686
a(I7
I1
F-0.5
S'poor'
p1687
tp1688
a(I19
I11
F0.625
S'removable'
p1689
tp1690
a(I180
I28
F-0.625
S'average'
p1691
tp1692
as(S'to'
p1693
S'verizon'
p1694
S'store'
p1695
tp1696
(lp1697
(I113
I3
F-0.625
g116
tp1698
a(I113
I3
I0
g118
tp1699
a(I144
I0
F-0.75
g338
tp1700
a(I150
I25
I0
g342
tp1701
a(I150
I25
F0.25
S'helpful'
p1702
tp1703
a(I157
I2
I0
g346
tp1704
a(I157
I12
I0
g348
tp1705
a(I174
I12
I0
g356
tp1706
as(S'silicon'
p1707
S'case'
p1708
tp1709
(lp1710
(I75
I27
F-0.5
S'flimsy'
p1711
tp1712
as(S'new'
p1713
S'blackberry'
p1714
S'storm'
p1715
tp1716
(lp1717
(I28
I1
F0.125
g545
tp1718
a(I76
I2
F0.375
g569
tp1719
a(I76
I2
F0.625
g767
tp1720
a(I78
I0
I0
g773
tp1721
a(I78
I0
I0
g575
tp1722
a(I113
I5
F0.375
g581
tp1723
a(I126
I0
F0.375
g585
tp1724
a(I126
I14
F0.375
g587
tp1725
a(I126
I14
F0.375
g589
tp1726
a(I126
I23
F0.375
g591
tp1727
as(S'back'
p1728
tp1729
(lp1730
(I54
I39
F-0.5
g1504
tp1731
a(I174
I96
F-0.125
S'mine'
p1732
tp1733
a(I174
I96
F0.25
S'original'
p1734
tp1735
a(I174
I96
I0
S'update'
p1736
tp1737
as(g1135
S'touch'
p1738
S'screen'
p1739
tp1740
(lp1741
(I0
I3
F0.5
g137
tp1742
a(I2
I16
F-0.5
g139
tp1743
a(I5
I32
F0.5
g425
tp1744
a(I5
I32
I0
g427
tp1745
a(I5
I47
F0.5
g1440
tp1746
a(I7
I1
F0.5
g1442
tp1747
a(I9
I7
F0.5
g429
tp1748
a(I9
I7
I0
g431
tp1749
a(I12
I7
F0.5
g433
tp1750
a(I16
I1
F0.875
g968
tp1751
a(I24
I1
F0.5
S'touch'
p1752
tp1753
a(I25
I13
F0.5
g1448
tp1754
a(I31
I3
I0
g435
tp1755
a(I31
I3
F0.5
g437
tp1756
a(I33
I1
I0
g141
tp1757
a(I33
I3
F0.5
g439
tp1758
a(I44
I2
F0.5
g441
tp1759
a(I44
I17
I0
S'user'
p1760
tp1761
a(I45
I7
F0.5
g443
tp1762
a(I51
I5
F0.5
g445
tp1763
a(I54
I11
I0
g1456
tp1764
a(I56
I3
I0
g973
tp1765
a(I56
I19
F0.5
g1459
tp1766
a(I62
I23
F0.5
g1461
tp1767
a(I62
I23
F-0.5
g1463
tp1768
a(I62
I23
F0.125
g1465
tp1769
a(I64
I8
F0.5
g1467
tp1770
a(I64
I11
F0.5
g1469
tp1771
a(I64
I12
F0.5
g447
tp1772
a(I69
I2
F0.5
g449
tp1773
a(I69
I7
F0.5
g451
tp1774
a(I69
I9
F0.5
g453
tp1775
a(I69
I9
F0.5
g455
tp1776
a(I70
I6
I0
g457
tp1777
a(I70
I6
F-0.375
g459
tp1778
a(I71
I7
F1.0
S'better'
p1779
tp1780
a(I71
I7
F0.5
S'touch'
p1781
tp1782
a(I87
I6
F0.5
g461
tp1783
a(I94
I5
F0.5
g1475
tp1784
a(I96
I7
F0.5
g1477
tp1785
a(I101
I8
F0.5
g1479
tp1786
a(I110
I6
F0.5
g463
tp1787
a(I114
I9
I0
g465
tp1788
a(I114
I9
I0
g145
tp1789
a(I118
I2
F0.5
g468
tp1790
a(I123
I23
F0.5
g470
tp1791
a(I126
I35
F-0.375
g980
tp1792
a(I126
I43
F0.5
g472
tp1793
a(I129
I12
F0.5
g1488
tp1794
a(I141
I2
F0.5
g474
tp1795
a(I148
I4
F0.5
g476
tp1796
a(I148
I4
F0.5
g478
tp1797
a(I148
I7
F0.5
g480
tp1798
a(I148
I7
F0.5
g482
tp1799
a(I151
I2
F0.5
g484
tp1800
a(I155
I3
I0
g149
tp1801
a(I158
I0
F0.5
g487
tp1802
a(I165
I2
F0.5
S'touch'
p1803
tp1804
a(I178
I8
F0.5
g489
tp1805
as(S'third'
p1806
S'party'
p1807
tp1808
(lp1809
(I47
I4
I0
S'third'
p1810
tp1811
a(I180
I3
I0
S'third'
p1812
tp1813
as(S'music'
p1814
tp1815
(lp1816
(I46
I15
F1.0
S'best'
p1817
tp1818
a(I156
I40
I0
S'own'
p1819
tp1820
as(S'two'
p1821
S'hour'
p1822
S'call'
p1823
tp1824
(lp1825
(I174
I49
F0.125
S'last'
p1826
tp1827
a(I174
I126
F0.125
S'last'
p1828
tp1829
as(S'user'
p1830
tp1831
(lp1832
(I2
I0
F-0.125
S'blackberry'
p1833
tp1834
a(I11
I12
F-0.5
S'poor'
p1835
tp1836
a(I54
I24
F-0.625
S'average'
p1837
tp1838
a(I75
I1
F0.375
S'new'
p1839
tp1840
a(I75
I8
F0.375
S'new'
p1841
tp1842
a(I75
I8
F-0.5
S'less'
p1843
tp1844
a(I97
I5
I0
S'most'
p1845
tp1846
a(I157
I0
F0.375
S'new'
p1847
tp1848
a(I157
I0
F-0.5
S'long'
p1849
tp1850
as(S'battery'
p1851
tp1852
(lp1853
(I5
I82
F0.625
g1685
tp1854
a(I7
I1
F-0.5
g1687
tp1855
a(I19
I11
F0.625
g1689
tp1856
a(I156
I18
F0.625
S'removable'
p1857
tp1858
a(I174
I48
F0.375
S'extra'
p1859
tp1860
a(I174
I50
F0.25
S'used'
p1861
tp1862
a(I174
I126
F-0.5
S'sure'
p1863
tp1864
a(I180
I28
F-0.625
g1691
tp1865
as(S'e'
p1866
S'mail'
p1867
tp1868
(lp1869
(I31
I17
F0.125
g1042
tp1870
a(I54
I73
F-0.5
S'less'
p1871
tp1872
a(I116
I0
F0.375
S'new'
p1873
tp1874
a(I132
I23
I0
g1054
tp1875
as(S'calls'
p1876
tp1877
(lp1878
(I11
I15
F-0.5
S'less'
p1879
tp1880
a(I31
I2
F-0.25
S'dropped'
p1881
tp1882
a(I38
I35
F1.0
S'good'
p1883
tp1884
a(I54
I51
F-0.125
S'accidental'
p1885
tp1886
a(I60
I3
F-0.25
S'dropped'
p1887
tp1888
a(I70
I3
F-0.25
S'dropped'
p1889
tp1890
a(I85
I1
F-0.625
S'free'
p1891
tp1892
a(I116
I10
F0.125
S'able'
p1893
tp1894
a(I126
I51
I0
S'fewest'
p1895
tp1896
a(I143
I3
F-0.625
S'average'
p1897
tp1898
a(I174
I27
F-0.25
S'dropped'
p1899
tp1900
a(I174
I28
F0.75
S'receive'
p1901
tp1902
as(S'ount'
p1903
S'of'
p1904
S'time'
p1905
tp1906
(lp1907
(I75
I12
F0.125
S'first'
p1908
tp1909
as(S'update'
p1910
tp1911
(lp1912
(I5
I23
I0
g264
tp1913
a(I103
I6
I0
g272
tp1914
a(I117
I63
F0.75
g284
tp1915
as(S'press'
p1916
tp1917
(lp1918
(I5
I9
F0.125
S'solid'
p1919
tp1920
a(I38
I23
I0
S'soft'
p1921
tp1922
a(I92
I11
F0.125
S'key'
p1923
tp1924
a(I101
I13
F0.375
S'register'
p1925
tp1926
a(I101
I13
F-0.875
S'hard'
p1927
tp1928
as(S'time'
p1929
tp1930
(lp1931
(I2
I0
F-0.5
S'long'
p1932
tp1933
a(I3
I1
F-0.125
S'slow'
p1934
tp1935
a(I15
I5
I0
S'pic'
p1936
tp1937
a(I18
I4
F-0.875
S'hard'
p1938
tp1939
a(I19
I4
I0
S'entire'
p1940
tp1941
a(I19
I15
F1.0
S'better'
p1942
tp1943
a(I26
I6
F-0.125
S'slow'
p1944
tp1945
a(I34
I0
F-0.5
S'long'
p1946
tp1947
a(I37
I12
F-0.5
S'long'
p1948
tp1949
a(I38
I49
F0.125
S'first'
p1950
tp1951
a(I41
I4
F-0.125
S'slow'
p1952
tp1953
a(I50
I28
F0.375
S'prime'
p1954
tp1955
a(I57
I1
F0.125
S'first'
p1956
tp1957
a(I75
I12
F0.125
g1908
tp1958
a(I75
I24
F0.375
S'much'
p1959
tp1960
a(I75
I38
I0
S'minimal'
p1961
tp1962
a(I96
I6
I0
S'valuable'
p1963
tp1964
a(I97
I5
I0
S'same'
p1965
tp1966
a(I99
I11
F0.375
S'prime'
p1967
tp1968
a(I109
I1
F0.125
S'first'
p1969
tp1970
a(I122
I8
I0
S'more'
p1971
tp1972
a(I122
I9
I0
S'more'
p1973
tp1974
a(I123
I5
F-0.375
S'crazy'
p1975
tp1976
a(I123
I19
F0.625
S'perfect'
p1977
tp1978
a(I123
I23
F1.0
S'best'
p1979
tp1980
a(I125
I12
F-0.125
S'slow'
p1981
tp1982
a(I126
I10
I0
S'most'
p1983
tp1984
a(I126
I44
F1.0
S'better'
p1985
tp1986
a(I126
I44
F0.125
S'first'
p1987
tp1988
a(I126
I111
I0
S'third'
p1989
tp1990
a(I130
I5
F0.125
S'first'
p1991
tp1992
a(I133
I4
F-0.875
S'hard'
p1993
tp1994
a(I157
I10
I0
S'only'
p1995
tp1996
a(I162
I11
F1.0
S'better'
p1997
tp1998
a(I163
I2
F0.75
S'worth'
p1999
tp2000
a(I168
I9
F-0.5
S'long'
p2001
tp2002
a(I174
I115
I0
S'total'
p2003
tp2004
a(I174
I124
I0
S'total'
p2005
tp2006
a(I174
I161
I0
S'most'
p2007
tp2008
a(I174
I166
F-0.875
S'hard'
p2009
tp2010
a(I176
I4
I0
S'more'
p2011
tp2012
a(I180
I20
F0.375
S'extra'
p2013
tp2014
as(S're'
p2015
S'are'
p2016
S'times'
p2017
tp2018
(lp2019
(I2
I10
I0
g885
tp2020
a(I2
I10
F0.875
g887
tp2021
a(I75
I14
F-0.625
g897
tp2022
a(I76
I17
F0.875
g899
tp2023
a(I92
I3
I0
g901
tp2024
a(I97
I15
I0
g907
tp2025
a(I134
I5
F0.5
g921
tp2026
as(S'touch'
p2027
S'screen'
p2028
tp2029
(lp2030
(I0
I3
F0.5
g137
tp2031
a(I2
I16
F-0.5
g139
tp2032
a(I5
I32
F0.5
g425
tp2033
a(I5
I32
I0
g427
tp2034
a(I5
I47
F0.5
g1440
tp2035
a(I7
I1
F0.5
g1442
tp2036
a(I9
I7
F0.5
g429
tp2037
a(I9
I7
I0
g431
tp2038
a(I12
I7
F0.5
g433
tp2039
a(I16
I1
F0.875
g968
tp2040
a(I24
I1
F0.5
g1752
tp2041
a(I25
I13
F0.5
g1448
tp2042
a(I31
I3
I0
g435
tp2043
a(I31
I3
F0.5
g437
tp2044
a(I33
I1
I0
g141
tp2045
a(I33
I3
F0.5
g439
tp2046
a(I44
I2
F0.5
g441
tp2047
a(I44
I17
I0
g1760
tp2048
a(I45
I7
F0.5
g443
tp2049
a(I51
I5
F0.5
g445
tp2050
a(I54
I11
I0
g1456
tp2051
a(I56
I3
I0
g973
tp2052
a(I56
I19
F0.5
g1459
tp2053
a(I62
I23
F0.5
g1461
tp2054
a(I62
I23
F-0.5
g1463
tp2055
a(I62
I23
F0.125
g1465
tp2056
a(I64
I8
F0.5
g1467
tp2057
a(I64
I11
F0.5
g1469
tp2058
a(I64
I12
F0.5
g447
tp2059
a(I69
I2
F0.5
g449
tp2060
a(I69
I7
F0.5
g451
tp2061
a(I69
I9
F0.5
g453
tp2062
a(I69
I9
F0.5
g455
tp2063
a(I70
I6
I0
g457
tp2064
a(I70
I6
F-0.375
g459
tp2065
a(I71
I7
F1.0
g1779
tp2066
a(I71
I7
F0.5
g1781
tp2067
a(I87
I6
F0.5
g461
tp2068
a(I94
I5
F0.5
g1475
tp2069
a(I96
I7
F0.5
g1477
tp2070
a(I101
I8
F0.5
g1479
tp2071
a(I110
I6
F0.5
g463
tp2072
a(I114
I9
I0
g465
tp2073
a(I114
I9
I0
g145
tp2074
a(I118
I2
F0.5
g468
tp2075
a(I123
I23
F0.5
g470
tp2076
a(I126
I35
F-0.375
g980
tp2077
a(I126
I43
F0.5
g472
tp2078
a(I129
I12
F0.5
g1488
tp2079
a(I141
I2
F0.5
g474
tp2080
a(I148
I4
F0.5
g476
tp2081
a(I148
I4
F0.5
g478
tp2082
a(I148
I7
F0.5
g480
tp2083
a(I148
I7
F0.5
g482
tp2084
a(I151
I2
F0.5
g484
tp2085
a(I155
I3
I0
g149
tp2086
a(I158
I0
F0.5
g487
tp2087
a(I165
I2
F0.5
g1803
tp2088
a(I178
I8
F0.5
g489
tp2089
as(S'ring'
p2090
S'tones'
p2091
tp2092
(lp2093
(I28
I1
I0
S'own'
p2094
tp2095
a(I174
I84
I0
S'individual'
p2096
tp2097
as(S'want'
p2098
S'to'
p2099
S'go'
p2100
tp2101
(lp2102
(I88
I7
F0.125
S'first'
p2103
tp2104
as(S'screen'
p2105
tp2106
(lp2107
(I2
I7
F-0.875
S'awful'
p2108
tp2109
a(I5
I20
F-0.5
S'actual'
p2110
tp2111
a(I5
I32
F0.5
g425
tp2112
a(I5
I32
I0
g427
tp2113
a(I5
I47
F0.5
g1440
tp2114
a(I5
I59
F0.375
S'much'
p2115
tp2116
a(I5
I59
F-0.25
S'higher'
p2117
tp2118
a(I7
I1
F0.5
g1442
tp2119
a(I9
I7
F0.5
g429
tp2120
a(I9
I7
I0
g431
tp2121
a(I12
I7
F0.5
g433
tp2122
a(I16
I1
F0.875
g968
tp2123
a(I18
I61
F-0.375
S'simple'
p2124
tp2125
a(I21
I3
I0
S'phenomenal'
p2126
tp2127
a(I22
I7
I0
S'big'
p2128
tp2129
a(I23
I3
F-0.75
S'bright'
p2130
tp2131
a(I23
I7
I0
S'large'
p2132
tp2133
a(I24
I1
F0.5
g1752
tp2134
a(I25
I13
F0.5
g1448
tp2135
a(I27
I1
F-0.125
S'slow'
p2136
tp2137
a(I31
I3
I0
g435
tp2138
a(I31
I3
F0.5
g437
tp2139
a(I33
I3
F0.5
g439
tp2140
a(I36
I7
F-0.75
S'bright'
p2141
tp2142
a(I44
I2
F0.5
g441
tp2143
a(I44
I17
I0
g1760
tp2144
a(I45
I7
F0.5
g443
tp2145
a(I50
I3
F-0.75
S'single'
p2146
tp2147
a(I51
I5
F0.5
g445
tp2148
a(I54
I11
I0
g1456
tp2149
a(I54
I34
I0
S'tactile'
p2150
tp2151
a(I56
I3
I0
g973
tp2152
a(I56
I16
F-0.5
S'sure'
p2153
tp2154
a(I56
I19
F0.5
g1459
tp2155
a(I62
I23
F0.5
g1461
tp2156
a(I62
I23
F-0.5
g1463
tp2157
a(I62
I23
F0.125
g1465
tp2158
a(I64
I8
F0.5
g1467
tp2159
a(I64
I11
F0.5
g1469
tp2160
a(I64
I12
F0.5
g447
tp2161
a(I69
I2
F0.5
g449
tp2162
a(I69
I7
F0.5
g451
tp2163
a(I69
I9
F0.5
g453
tp2164
a(I69
I9
F0.5
g455
tp2165
a(I70
I6
I0
g457
tp2166
a(I70
I6
F-0.375
g459
tp2167
a(I71
I6
F0.25
S'larger'
p2168
tp2169
a(I71
I6
I0
S'crystal'
p2170
tp2171
a(I71
I6
F0.5
S'clear'
p2172
tp2173
a(I71
I7
F1.0
g1779
tp2174
a(I71
I7
F0.5
g1781
tp2175
a(I75
I22
F-0.125
S'mine'
p2176
tp2177
a(I75
I23
I0
S'general'
p2178
tp2179
a(I75
I23
F0.875
S'nice'
p2180
tp2181
a(I87
I6
F0.5
g461
tp2182
a(I94
I5
F0.5
g1475
tp2183
a(I94
I10
F0.25
S'bigger'
p2184
tp2185
a(I96
I7
F0.5
g1477
tp2186
a(I101
I8
F0.5
g1479
tp2187
a(I108
I2
I0
g977
tp2188
a(I110
I6
F0.5
g463
tp2189
a(I114
I9
I0
g465
tp2190
a(I116
I7
F-0.25
S'white'
p2191
tp2192
a(I117
I66
F-0.75
S'little'
p2193
tp2194
a(I118
I2
F0.5
g468
tp2195
a(I123
I4
F0.5
S'second'
p2196
tp2197
a(I123
I15
F-0.375
S'smooth'
p2198
tp2199
a(I123
I23
F0.5
g470
tp2200
a(I125
I3
F0.75
S'beautiful'
p2201
tp2202
a(I126
I31
F0.125
S'colorful'
p2203
tp2204
a(I126
I34
F0.75
S'beautiful'
p2205
tp2206
a(I126
I34
F0.125
S'colorful'
p2207
tp2208
a(I126
I35
F-0.375
g980
tp2209
a(I126
I43
F0.5
g472
tp2210
a(I129
I5
F0.125
S'colorful'
p2211
tp2212
a(I129
I12
F0.5
g1488
tp2213
a(I130
I11
F0.25
S'sharp'
p2214
tp2215
a(I141
I2
F0.5
g474
tp2216
a(I148
I4
F0.5
g476
tp2217
a(I148
I4
F0.5
g478
tp2218
a(I148
I5
F0.5
S'clear'
p2219
tp2220
a(I148
I7
F0.5
g480
tp2221
a(I148
I7
F0.5
g482
tp2222
a(I151
I2
F0.5
g484
tp2223
a(I156
I12
F0.25
g986
tp2224
a(I157
I5
F-0.75
S'bright'
p2225
tp2226
a(I158
I0
F0.5
g487
tp2227
a(I165
I2
F0.5
g1803
tp2228
a(I168
I12
F-0.375
S'black'
p2229
tp2230
a(I174
I3
I0
S'traditional'
p2231
tp2232
a(I174
I11
F0.25
S'sharp'
p2233
tp2234
a(I178
I8
F0.5
g489
tp2235
a(I180
I26
F0.625
S'easy'
p2236
tp2237
a(I180
I28
F0.25
S'larger'
p2238
tp2239
as(g1135
S'learning'
p2240
S'curve'
p2241
tp2242
(lp2243
(I142
I10
I0
S'high'
p2244
tp2245
as(S'camera'
p2246
tp2247
(lp2248
(I5
I74
F1.0
S'best'
p2249
tp2250
a(I12
I3
I0
S'faster'
p2251
tp2252
a(I15
I4
F-0.875
S'awful'
p2253
tp2254
a(I17
I4
F-0.125
S'slow'
p2255
tp2256
a(I18
I26
F0.25
S'sharp'
p2257
tp2258
a(I18
I26
F0.125
S'spectacular'
p2259
tp2260
a(I18
I44
F-0.25
S'lower'
p2261
tp2262
a(I28
I1
I0
S'great'
p2263
tp2264
a(I38
I39
F0.25
S'stellar'
p2265
tp2266
a(I42
I2
F1.0
S'best'
p2267
tp2268
a(I54
I2
F0.875
S'nice'
p2269
tp2270
a(I94
I11
F0.625
S'easy'
p2271
tp2272
a(I96
I3
F1.0
S'good'
p2273
tp2274
a(I111
I1
F-0.125
S'slow'
p2275
tp2276
a(I114
I9
F0.125
S'digital'
p2277
tp2278
a(I126
I109
I0
S'same'
p2279
tp2280
a(I141
I15
I0
S'text'
p2281
tp2282
a(I155
I15
F-0.125
S'slow'
p2283
tp2284
a(I170
I0
F-0.625
S'bad'
p2285
tp2286
a(I174
I55
F-0.625
S'other'
p2287
tp2288
a(I174
I128
F-0.625
S'other'
p2289
tp2290
a(I178
I8
F0.125
S'digital'
p2291
tp2292
as(S'using'
p2293
tp2294
(lp2295
(I18
I53
I0
g132
tp2296
as(S'research'
p2297
S'n'
p2298
S'motion'
p2299
tp2300
(lp2301
(I174
I102
F-0.5
S'sure'
p2302
tp2303
as(S'people'
p2304
tp2305
(lp2306
(I5
I4
F-0.625
S'other'
p2307
tp2308
a(I5
I48
F0.625
S'easy'
p2309
tp2310
a(I15
I17
I0
S'least'
p2311
tp2312
a(I15
I17
I0
S'few'
p2313
tp2314
a(I18
I33
I0
S'own'
p2315
tp2316
a(I38
I5
I0
S'many'
p2317
tp2318
a(I54
I60
F-0.625
S'bad'
p2319
tp2320
a(I54
I60
F-0.625
S'want'
p2321
tp2322
a(I55
I15
F1.0
S'best'
p2323
tp2324
a(I76
I18
F-0.75
S'tough'
p2325
tp2326
a(I76
I19
I0
S'most'
p2327
tp2328
a(I79
I4
F0.125
S'plenty'
p2329
tp2330
a(I101
I3
F-0.75
S'have'
p2331
tp2332
a(I111
I2
F0.125
S'able'
p2333
tp2334
a(I120
I1
F0.5
S'true'
p2335
tp2336
a(I125
I18
I0
S'many'
p2337
tp2338
a(I125
I18
F0.875
S'happy'
p2339
tp2340
a(I131
I7
F0.5
S'clear'
p2341
tp2342
a(I142
I23
I0
S'normal'
p2343
tp2344
a(I150
I28
I0
S'many'
p2345
tp2346
a(I156
I11
I0
S'many'
p2347
tp2348
a(I173
I5
I0
S'many'
p2349
tp2350
a(I178
I8
F-0.75
S'hate'
p2351
tp2352
a(I180
I12
I0
S'many'
p2353
tp2354
as(S'feature'
p2355
tp2356
(lp2357
(I2
I48
F0.875
S'nice'
p2358
tp2359
a(I5
I82
F0.875
S'nice'
p2360
tp2361
a(I19
I11
F-0.625
S'bad'
p2362
tp2363
a(I19
I12
I0
S'different'
p2364
tp2365
a(I46
I11
F0.375
S'new'
p2366
tp2367
a(I53
I8
F0.5
S'functional'
p2368
tp2369
a(I54
I88
I0
S'e-mail'
p2370
tp2371
a(I64
I6
F0.25
S'main'
p2372
tp2373
a(I116
I0
F1.0
S'good'
p2374
tp2375
a(I129
I15
I0
S'useful'
p2376
tp2377
a(I132
I6
F-0.875
S'trouble'
p2378
tp2379
a(I148
I4
F0.875
S'important'
p2380
tp2381
a(I151
I7
I0
S'great'
p2382
tp2383
a(I156
I15
I0
S'useful'
p2384
tp2385
a(I180
I24
F0.875
S'nice'
p2386
tp2387
as(S'works'
p2388
tp2389
(lp2390
(I26
I6
F1.0
S'best'
p2391
tp2392
a(I30
I9
I0
S'cool'
p2393
tp2394
a(I36
I0
I0
S'great'
p2395
tp2396
a(I42
I0
I0
S'great'
p2397
tp2398
a(I42
I2
F0.875
S'happy'
p2399
tp2400
a(I42
I2
F-0.125
S'mine'
p2401
tp2402
a(I46
I13
I0
S'great'
p2403
tp2404
a(I117
I34
I0
S'great'
p2405
tp2406
a(I157
I5
I0
S'update'
p2407
tp2408
a(I177
I3
F0.125
S'practical'
p2409
tp2410
as(S'type'
p2411
tp2412
(lp2413
(I18
I3
F0.125
S'electrical'
p2414
tp2415
a(I22
I1
F-0.75
S'difficult'
p2416
tp2417
a(I22
I8
F0.625
S'easiest'
p2418
tp2419
a(I38
I19
F0.875
S'important'
p2420
tp2421
a(I38
I19
F0.5
S'touch'
p2422
tp2423
a(I73
I16
F-0.5
S'longer'
p2424
tp2425
a(I79
I9
I0
S'e-mail'
p2426
tp2427
as(S'contact'
p2428
S'lists'
p2429
tp2430
(lp2431
(I75
I9
I0
S'multiple'
p2432
tp2433
as(S'browser'
p2434
tp2435
(lp2436
(I18
I17
I0
S'full'
p2437
tp2438
a(I25
I10
F1.0
S'good'
p2439
tp2440
a(I25
I10
I0
S'android'
p2441
tp2442
a(I25
I11
F1.0
S'good'
p2443
tp2444
a(I31
I19
F0.125
S'able'
p2445
tp2446
a(I63
I6
F0.875
S'nice'
p2447
tp2448
a(I75
I34
F0.375
S'new'
p2449
tp2450
a(I92
I9
F-0.125
S'slow'
p2451
tp2452
a(I104
I2
I0
S'internet'
p2453
tp2454
a(I126
I33
I0
S'full'
p2455
tp2456
a(I132
I24
F1.0
S'good'
p2457
tp2458
a(I155
I15
F-0.625
S'bad'
p2459
tp2460
as(S'better'
p2461
tp2462
(lp2463
(I12
I7
F0.375
S'much'
p2464
tp2465
a(I30
I7
F0.375
S'much'
p2466
tp2467
a(I30
I7
F0.625
S'easier'
p2468
tp2469
a(I76
I15
F0.375
S'much'
p2470
tp2471
a(I80
I11
F1.0
S'better'
p2472
tp2473
a(I87
I1
F0.375
S'much'
p2474
tp2475
a(I101
I20
I0
S'e-mail'
p2476
tp2477
a(I132
I24
F0.375
S'much'
p2478
tp2479
a(I148
I5
F0.375
S'much'
p2480
tp2481
a(I174
I1
F0.375
S'much'
p2482
tp2483
as(S'device'
p2484
tp2485
(lp2486
(I2
I20
F1.0
S'best'
p2487
tp2488
a(I2
I20
I0
S'rim'
p2489
tp2490
a(I2
I66
I0
S'great'
p2491
tp2492
a(I5
I22
F0.125
S'first'
p2493
tp2494
a(I15
I19
F-0.625
S'clean'
p2495
tp2496
a(I18
I10
I0
S'appear'
p2497
tp2498
a(I20
I22
I0
S'more'
p2499
tp2500
a(I20
I40
I0
S'rim'
p2501
tp2502
a(I21
I2
F1.0
S'good'
p2503
tp2504
a(I38
I9
F0.75
S'lauded'
p2505
tp2506
a(I46
I18
F0.25
S'powerful'
p2507
tp2508
a(I51
I4
I0
S'quick'
p2509
tp2510
a(I51
I5
I0
S'such'
p2511
tp2512
a(I58
I7
I0
S'entire'
p2513
tp2514
a(I63
I7
F0.25
S'portable'
p2515
tp2516
a(I66
I5
I0
S'great'
p2517
tp2518
a(I75
I27
F0.5
S'touch'
p2519
tp2520
a(I75
I38
F0.375
S'new'
p2521
tp2522
a(I75
I43
F0.875
S'happy'
p2523
tp2524
a(I75
I43
I0
S'general'
p2525
tp2526
a(I88
I0
F1.0
S'best'
p2527
tp2528
a(I88
I3
I0
S'phenomenal'
p2529
tp2530
a(I97
I5
I0
S'many'
p2531
tp2532
a(I97
I17
F-0.5
S'sure'
p2533
tp2534
a(I126
I31
F-0.375
S'small'
p2535
tp2536
a(I126
I34
I0
S'mobile'
p2537
tp2538
a(I128
I17
F1.0
S'best'
p2539
tp2540
a(I128
I17
I0
S'mobile'
p2541
tp2542
a(I130
I10
I0
S'more'
p2543
tp2544
a(I130
I10
F1.0
S'better'
p2545
tp2546
a(I130
I10
I0
S'more'
p2547
tp2548
a(I130
I10
F0.5
S'accurate'
p2549
tp2550
a(I130
I20
I0
S'efficient'
p2551
tp2552
a(I156
I33
I0
S'least'
p2553
tp2554
as(S'call'
p2555
tp2556
(lp2557
(I2
I21
F-0.875
S'awful'
p2558
tp2559
a(I11
I16
F0.125
S'last'
p2560
tp2561
a(I51
I5
F1.0
S'good'
p2562
tp2563
a(I63
I2
F-0.75
S'impossible'
p2564
tp2565
a(I131
I5
F0.5
S'personal'
p2566
tp2567
a(I168
I3
I0
S'great'
p2568
tp2569
a(I174
I27
I0
S'great'
p2570
tp2571
a(I174
I49
F0.125
g1826
tp2572
a(I174
I88
F0.875
S'important'
p2573
tp2574
a(I174
I89
F-0.625
S'green'
p2575
tp2576
a(I174
I90
F-0.625
S'green'
p2577
tp2578
a(I174
I126
F0.125
g1828
tp2579
a(I180
I11
F-0.75
S'impossible'
p2580
tp2581
a(I180
I11
F-0.5
S'ignore'
p2582
tp2583
as(S'much'
p2584
S'better'
p2585
tp2586
(lp2587
(I12
I7
F0.375
g2464
tp2588
a(I30
I7
F0.375
g2466
tp2589
a(I30
I7
F0.625
g2468
tp2590
a(I76
I15
F0.375
g2470
tp2591
a(I87
I1
F0.375
g2474
tp2592
a(I132
I24
F0.375
g2478
tp2593
a(I148
I5
F0.375
g2480
tp2594
a(I174
I1
F0.375
g2482
tp2595
as(S'typing'
p2596
tp2597
(lp2598
(I15
I13
F0.875
S'nice'
p2599
tp2600
a(I15
I13
F0.25
S'responsive'
p2601
tp2602
a(I17
I3
F1.0
S'best'
p2603
tp2604
a(I51
I1
F-0.75
S'impossible'
p2605
tp2606
a(I65
I3
I0
S'quick'
p2607
tp2608
a(I99
I3
F-0.5
S'ordinary'
p2609
tp2610
a(I130
I19
I0
S'extensive'
p2611
tp2612
a(I130
I20
I0
S'extensive'
p2613
tp2614
a(I130
I20
F0.375
S'much'
p2615
tp2616
a(I141
I15
I0
S'many'
p2617
tp2618
as(S'memory'
p2619
tp2620
(lp2621
(I13
I4
F-0.625
S'free'
p2622
tp2623
a(I62
I9
I0
S'full'
p2624
tp2625
a(I64
I11
I0
S'internal'
p2626
tp2627
a(I68
I4
F0.375
S'available'
p2628
tp2629
a(I68
I4
F0.75
S'due'
p2630
tp2631
a(I97
I3
F-0.5
S'poor'
p2632
tp2633
a(I128
I11
I0
S'more'
p2634
tp2635
a(I140
I15
F-0.625
S'free'
p2636
tp2637
a(I156
I29
F0.375
S'available'
p2638
tp2639
a(I174
I53
I0
S'own'
p2640
tp2641
a(I174
I111
F0.25
S'main'
p2642
tp2643
as(S'3rd'
p2644
S'party'
p2645
tp2646
(lp2647
(I86
I2
I0
S'many'
p2648
tp2649
as(S'apps'
p2650
tp2651
(lp2652
(I10
I7
I0
S'most'
p2653
tp2654
a(I12
I9
I0
S'same'
p2655
tp2656
a(I19
I13
F0.375
S'available'
p2657
tp2658
a(I25
I7
I0
S'many'
p2659
tp2660
a(I25
I8
F0.375
S'available'
p2661
tp2662
a(I38
I9
I0
S'identical'
p2663
tp2664
a(I47
I2
F-0.625
S'bad'
p2665
tp2666
a(I54
I32
I0
S'old'
p2667
tp2668
a(I56
I15
F0.375
S'new'
p2669
tp2670
a(I56
I15
F-0.375
S'daily'
p2671
tp2672
a(I76
I17
I0
S'more'
p2673
tp2674
a(I76
I18
F0.625
S'decent'
p2675
tp2676
a(I90
I8
I0
S'many'
p2677
tp2678
a(I90
I8
F-0.625
S'free'
p2679
tp2680
a(I90
I8
F0.375
S'available'
p2681
tp2682
a(I98
I3
I0
S'many'
p2683
tp2684
a(I126
I117
F0.125
S'solid'
p2685
tp2686
a(I130
I21
F-0.625
S'other'
p2687
tp2688
a(I148
I10
I0
S'along'
p2689
tp2690
a(I152
I6
F0.625
S'easy'
p2691
tp2692
a(I156
I27
I0
S'few'
p2693
tp2694
a(I156
I36
I0
S'many'
p2695
tp2696
a(I156
I36
F0.375
S'available'
p2697
tp2698
a(I176
I6
F0.375
S'new'
p2699
tp2700
as(S'mail'
p2701
tp2702
(lp2703
(I31
I17
F0.125
g1042
tp2704
a(I54
I73
F-0.5
g1871
tp2705
a(I116
I0
F0.375
g1873
tp2706
a(I132
I23
I0
g1054
tp2707
as.