(dp0
(S'quad'
p1
S'band'
p2
tp3
(lp4
(I0
I76
I0
S'basic'
p5
I0
tp6
a(I4
I27
F-0.375
S'simple'
p7
I0
tp8
a(I4
I27
F1.0
S'good'
p9
I0
tp10
as(S'bluetooth'
p11
tp12
(lp13
(I0
I117
I0
S'external'
p14
I3
tp15
a(I0
I140
I0
S'needed'
p16
I3
tp17
a(I1
I23
F1.0
S'good'
p18
I3
tp19
a(I6
I26
F1.0
S'better'
p20
I3
tp21
as(S'good'
p22
S'reception'
p23
tp24
(lp25
(I0
I15
F1.0
S'good'
p26
I0
tp27
a(I0
I70
F1.0
S'good'
p28
I0
tp29
a(I1
I53
F0.625
S'easy'
p30
I0
tp31
a(I1
I53
F1.0
S'good'
p32
I0
tp33
a(I1
I68
F0.5
S'clear'
p34
I0
tp35
a(I1
I74
I0
S'great'
p36
I0
tp37
a(I5
I27
F1.0
S'good'
p38
I0
tp39
a(I6
I1
F1.0
S'good'
p40
I0
tp41
a(I6
I5
I0
S'great'
p42
I0
tp43
a(I6
I20
F1.0
S'good'
p44
I0
tp45
a(I0
I15
F1.0
g26
I0
tp46
a(I0
I27
I0
S'great'
p47
I0
tp48
a(I0
I30
I0
S'great'
p49
I0
tp50
a(I0
I70
F1.0
g28
I0
tp51
a(I1
I53
F0.625
g30
I0
tp52
a(I1
I53
F1.0
g32
I0
tp53
a(I1
I61
I0
S'great'
p54
I0
tp55
a(I1
I61
I0
S'sturdy'
p56
I0
tp57
a(I1
I61
F0.875
S'happy'
p58
I0
tp59
a(I1
I68
F0.5
g34
I0
tp60
a(I1
I74
I0
g36
I0
tp61
a(I5
I27
F1.0
g38
I0
tp62
a(I6
I1
F1.0
g40
I0
tp63
a(I6
I5
I0
g42
I0
tp64
a(I6
I20
F1.0
g44
I0
tp65
as(S'sound'
p66
S'quality'
p67
tp68
(lp69
(I0
I42
F1.0
S'good'
p70
I0
tp71
a(I0
I67
I0
S'great'
p72
I0
tp73
a(I1
I22
F1.0
S'good'
p74
I0
tp75
a(I1
I74
F0.875
S'important'
p76
I0
tp77
a(I1
I74
F1.0
S'good'
p78
I0
tp79
a(I4
I31
I0
S'great'
p80
I0
tp81
a(I0
I15
F0.5
S'clear'
p82
I7
tp83
a(I0
I148
F0.375
S'loud'
p84
I7
tp85
a(I2
I5
F1.0
S'good'
p86
I7
tp87
a(I3
I9
F1.0
S'good'
p88
I7
tp89
a(I4
I31
I0
g80
I7
tp90
as(S'calls'
p91
tp92
(lp93
(I0
I9
F-0.625
S'free'
p94
I0
tp95
a(I4
I10
F0.125
S'able'
p96
I0
tp97
a(I4
I23
F0.5
S'clear'
p98
I0
tp99
as(S'sim'
p100
S'card'
p101
tp102
(lp103
(I0
I1
I0
S'old'
p104
I0
tp105
a(I0
I32
I0
S'local'
p106
I0
tp107
a(I0
I62
F0.25
S'used'
p108
I0
tp109
a(I1
I40
I0
S'great'
p110
I0
tp111
a(I1
I42
I0
S'local'
p112
I0
tp113
a(I6
I44
I0
S'different'
p114
I0
tp115
as(S'good'
p116
S'battery'
p117
S'life'
p118
tp119
(lp120
(I0
I16
F1.0
S'good'
p121
I0
tp122
a(I0
I69
F1.0
S'good'
p123
I0
tp124
a(I0
I77
F1.0
S'good'
p125
I0
tp126
a(I0
I80
F1.0
S'good'
p127
I0
tp128
a(I1
I23
F1.0
S'good'
p129
I0
tp130
a(I1
I68
F1.0
S'good'
p131
I0
tp132
a(I3
I9
F1.0
S'good'
p133
I0
tp134
a(I6
I5
F1.0
S'good'
p135
I0
tp136
a(I6
I20
F-0.5
S'long'
p137
I0
tp138
a(I0
I77
F1.0
g125
I0
tp139
a(I1
I68
F1.0
g131
I0
tp140
a(I3
I9
F1.0
g133
I0
tp141
a(I6
I5
F1.0
g135
I0
tp142
a(I6
I20
F-0.5
g137
I0
tp143
a(I0
I16
F1.0
g121
I1
tp144
a(I0
I69
F1.0
g123
I1
tp145
a(I0
I77
F1.0
g125
I1
tp146
a(I0
I80
F1.0
g127
I1
tp147
a(I0
I116
I0
S'phenomenal'
p148
I1
tp149
a(I0
I129
F-0.5
S'long'
p150
I1
tp151
a(I1
I23
F1.0
g129
I1
tp152
a(I1
I68
F1.0
g131
I1
tp153
a(I3
I9
F1.0
g133
I1
tp154
a(I6
I5
F1.0
g135
I1
tp155
a(I6
I20
F-0.5
g137
I1
tp156
a(I6
I41
F0.625
S'easy'
p157
I1
tp158
a(I0
I16
F1.0
g121
I19
tp159
a(I0
I69
F1.0
g123
I19
tp160
a(I0
I80
F1.0
g127
I19
tp161
a(I0
I116
I0
g148
I19
tp162
a(I1
I23
F1.0
g129
I19
tp163
a(I5
I27
I0
S'basic'
p164
I19
tp165
a(I0
I77
F1.0
g125
I15
tp166
a(I0
I129
F-0.5
g150
I15
tp167
a(I1
I57
I0
S're-starting'
p168
I15
tp169
a(I1
I68
F1.0
g131
I15
tp170
a(I3
I9
F1.0
g133
I15
tp171
a(I6
I5
F1.0
g135
I15
tp172
a(I6
I20
F-0.5
g137
I15
tp173
a(I6
I41
F0.625
g157
I15
tp174
as(S'few'
p175
S'days'
p176
tp177
(lp178
(I0
I114
I0
S'few'
p179
I10
tp180
a(I0
I120
I0
S'few'
p181
I10
tp182
a(I0
I120
I0
S'later'
p183
I10
tp184
a(I1
I70
I0
S'few'
p185
I10
tp186
a(I1
I70
I0
S'later'
p187
I10
tp188
as(S'speaker'
p189
tp190
(lp191
(I0
I20
F-0.625
S'bad'
p192
I8
tp193
a(I6
I16
F1.0
S'good'
p194
I8
tp195
as(S'camera'
p196
tp197
(lp198
(I0
I133
F1.0
S'good'
p199
I1
tp200
a(I1
I73
I0
S'real'
p201
I1
tp202
as(S'text'
p203
S'messages'
p204
tp205
(lp206
(I1
I13
F0.75
S'receive'
p207
I0
tp208
a(I1
I35
F0.75
S'receive'
p209
I0
tp210
a(I1
I13
F0.75
g207
I18
tp211
a(I1
I35
F0.75
g209
I18
tp212
as.