(dp0
(S'text'
p1
S'message'
p2
tp3
(lp4
(I18
I9
I0
S'few'
p5
tp6
as(S'problem'
p7
tp8
(lp9
(I1
I14
F0.625
S'major'
p10
tp11
a(I1
I14
I0
S'more'
p12
tp13
a(I1
I14
F-0.75
S'likely'
p14
tp15
a(I73
I8
F-0.625
S'bad'
p16
tp17
a(I73
I10
I0
S'real'
p18
tp19
a(I114
I1
F0.25
S'biggest'
p20
tp21
a(I147
I2
I0
S'old'
p22
tp23
as(S'something'
p24
tp25
(lp26
(I1
I11
F-0.625
S'want'
p27
tp28
a(I22
I10
F-0.125
S'complicated'
p29
tp30
a(I73
I3
F0.125
S'able'
p31
tp32
a(I141
I4
F-0.75
S'tough'
p33
tp34
as(S'battery'
p35
S'life'
p36
tp37
(lp38
(I73
I9
F-0.25
S'low'
p39
tp40
a(I74
I7
F1.0
S'good'
p41
tp42
a(I74
I7
F1.0
S'best'
p43
tp44
a(I129
I2
F0.5
S'second'
p45
tp46
a(I129
I2
F0.25
S'original'
p47
tp48
a(I129
I2
F0.375
S'much'
p49
tp50
a(I129
I2
F0.375
S'new'
p51
tp52
a(I154
I2
F1.0
S'good'
p53
tp54
as(S'purchase'
p55
tp56
(lp57
(I128
I3
F0.5
S'told'
p58
tp59
as(S'require'
p60
S'a'
p61
S'data'
p62
tp63
(lp64
(I42
I13
F-0.25
S'higher'
p65
tp66
a(I73
I0
F-0.75
S'stupid'
p67
tp68
as(S'year'
p69
tp70
(lp71
(I22
I10
I0
S'old'
p72
tp73
a(I28
I3
I0
S'old'
p74
tp75
a(I63
I3
F-0.5
S'less'
p76
tp77
a(I68
I1
F-0.25
S'past'
p78
tp79
a(I121
I1
I0
S'old'
p80
tp81
a(I132
I0
I0
S'old'
p82
tp83
a(I140
I0
I0
S'current'
p84
tp85
a(I140
I0
I0
S'old'
p86
tp87
as(S'money'
p88
tp89
(lp90
(I1
I3
F0.375
S'extra'
p91
tp92
a(I39
I7
F-0.5
S'less'
p93
tp94
a(I52
I3
F1.0
S'good'
p95
tp96
a(I52
I3
F0.125
S'able'
p97
tp98
a(I119
I4
F0.75
S'worth'
p99
tp100
a(I144
I0
I0
S'old'
p101
tp102
a(I144
I0
F0.75
S'worth'
p103
tp104
as(S'nice'
p105
tp106
(lp107
(I121
I0
I0
S'basic'
p108
tp109
as(S'screen'
p110
tp111
(lp112
(I12
I0
I0
S'more'
p113
tp114
a(I14
I3
F0.625
S'kind'
p115
tp116
a(I14
I3
I0
S'leary'
p117
tp118
a(I14
I3
F0.5
S'touch'
p119
tp120
a(I14
I8
F0.5
S'touch'
p121
tp122
a(I19
I3
F0.5
S'touch'
p123
tp124
a(I22
I3
F0.5
S'clear'
p125
tp126
a(I41
I17
F0.5
S'touch'
p127
tp128
a(I47
I1
F0.5
S'touch'
p129
tp130
a(I47
I1
F-0.875
S'hard'
p131
tp132
a(I47
I1
I0
S'basic'
p133
tp134
a(I54
I0
F0.375
S'new'
p135
tp136
a(I58
I3
F0.5
S'touch'
p137
tp138
a(I65
I1
F0.5
S'touch'
p139
tp140
a(I74
I0
F0.5
S'touch'
p141
tp142
a(I74
I1
F0.5
S'touch'
p143
tp144
a(I85
I3
F0.5
S'touch'
p145
tp146
a(I85
I14
F0.625
S'easy'
p147
tp148
a(I96
I3
F0.5
S'touch'
p149
tp150
a(I98
I1
F-0.625
S'light'
p151
tp152
a(I102
I1
I0
S'real'
p153
tp154
a(I105
I0
F0.5
S'touch'
p155
tp156
a(I105
I3
F0.5
S'touch'
p157
tp158
a(I105
I9
F0.5
S'touch'
p159
tp160
a(I108
I3
F0.5
S'touch'
p161
tp162
a(I113
I0
F-0.75
S'wrong'
p163
tp164
a(I113
I0
F0.125
S'key'
p165
tp166
a(I113
I0
F0.5
S'touch'
p167
tp168
a(I114
I3
F-0.625
S'clean'
p169
tp170
a(I115
I3
F0.5
S'susceptible'
p171
tp172
a(I117
I1
F-0.375
S'black'
p173
tp174
a(I119
I1
F0.5
S'touch'
p175
tp176
a(I119
I5
I0
S'big'
p177
tp178
a(I120
I0
F0.5
S'clear'
p179
tp180
a(I120
I0
F0.625
S'easy'
p181
tp182
a(I133
I0
F-0.375
S'small'
p183
tp184
a(I135
I1
F0.5
S'clear'
p185
tp186
a(I140
I5
F-0.75
S'bright'
p187
tp188
a(I140
I5
F0.625
S'easy'
p189
tp190
a(I140
I11
F0.875
S'nice'
p191
tp192
a(I143
I1
I0
S'weird'
p193
tp194
a(I143
I2
F-0.375
S'black'
p195
tp196
a(I154
I1
F0.5
S'touch'
p197
tp198
a(I154
I2
F0.125
S'outside'
p199
tp200
a(I154
I2
F0.5
S'touch'
p201
tp202
a(I158
I5
F0.5
S'whole'
p203
tp204
as(S'longer'
p205
tp206
(lp207
(I79
I1
F-0.25
S'disappointed'
p208
tp209
a(I96
I4
F0.375
S'available'
p210
tp211
a(I129
I2
F0.125
S'last'
p212
tp213
as(S'customer'
p214
tp215
(lp216
(I111
I1
F-0.25
S'disappointed'
p217
tp218
as(S'company'
p219
tp220
(lp221
(I94
I8
I0
S'more'
p222
tp223
a(I154
I2
F0.625
S'fair'
p224
tp225
a(I154
I2
F0.625
S'easy'
p226
tp227
as(S'service'
p228
tp229
(lp230
(I104
I4
F0.875
S'happy'
p231
tp232
a(I116
I3
F0.875
S'nice'
p233
tp234
as(S'keyboard'
p235
tp236
(lp237
(I85
I14
I0
S'standard'
p238
tp239
a(I92
I2
F0.625
S'easy'
p240
tp241
a(I92
I6
F-0.5
S'regular'
p242
tp243
a(I109
I0
I0
S'touchscreen'
p244
tp245
a(I119
I6
F0.5
S'touch'
p246
tp247
as(S'problems'
p248
tp249
(lp250
(I25
I2
F0.375
S'new'
p251
tp252
a(I73
I6
F-0.5
S'actual'
p253
tp254
a(I74
I8
I0
S'same'
p255
tp256
a(I102
I4
I0
S'same'
p257
tp258
a(I136
I1
F0.125
S'able'
p259
tp260
a(I136
I1
I0
S'more'
p261
tp262
as(g61
S'text'
p263
S'message'
p264
tp265
(lp266
(I18
I9
I0
g5
tp267
as(S'touch'
p268
tp269
(lp270
(I3
I2
F-0.625
S'light'
p271
tp272
a(I8
I4
I0
S'older'
p273
tp274
a(I8
I4
I0
S'resistive'
p275
tp276
a(I51
I3
F0.875
S'nice'
p277
tp278
a(I60
I0
I0
S'great'
p279
tp280
a(I60
I0
F0.125
S'first'
p281
tp282
a(I81
I0
I0
S'great'
p283
tp284
a(I85
I14
F1.0
S'good'
p285
tp286
a(I92
I5
F0.125
S'first'
p287
tp288
a(I105
I5
F0.375
S'early'
p289
tp290
a(I105
I5
I0
S'resistive'
p291
tp292
a(I110
I3
F-0.75
S'difficult'
p293
tp294
a(I120
I1
F0.875
S'nice'
p295
tp296
a(I140
I14
I0
S'resistive'
p297
tp298
a(I140
I14
I0
S'capacitive'
p299
tp300
as(S'camera'
p301
tp302
(lp303
(I13
I0
I0
S'great'
p304
tp305
a(I19
I2
F1.0
S'good'
p306
tp307
a(I42
I6
F1.0
S'good'
p308
tp309
a(I73
I2
F1.0
S'best'
p310
tp311
a(I73
I2
F0.625
S'manageable'
p312
tp313
a(I85
I14
F0.625
S'easy'
p314
tp315
as(S'years'
p316
tp317
(lp318
(I1
I18
I0
S'few'
p319
tp320
a(I66
I0
I0
S'great'
p321
tp322
a(I70
I0
F-0.125
S'mine'
p323
tp324
a(I76
I1
I0
S'few'
p325
tp326
a(I84
I0
I0
S'few'
p327
tp328
a(I103
I3
F-0.5
S'long'
p329
tp330
a(I119
I2
F-0.125
S'mine'
p331
tp332
as(S'message'
p333
tp334
(lp335
(I78
I2
F-0.125
S'slow'
p336
tp337
as(S'need'
p338
tp339
(lp340
(I14
I11
I0
S'great'
p341
tp342
as(g61
S'touch'
p343
S'screen'
p344
tp345
(lp346
(I3
I2
F-0.625
g271
tp347
a(I8
I4
I0
g273
tp348
a(I8
I4
I0
g275
tp349
a(I12
I0
I0
g113
tp350
a(I14
I3
F0.625
g115
tp351
a(I14
I3
I0
g117
tp352
a(I14
I3
F0.5
g119
tp353
a(I14
I8
F0.5
g121
tp354
a(I19
I3
F0.5
g123
tp355
a(I41
I17
F0.5
g127
tp356
a(I47
I1
F0.5
g129
tp357
a(I47
I1
F-0.875
g131
tp358
a(I47
I1
I0
g133
tp359
a(I51
I3
F0.875
g277
tp360
a(I58
I3
F0.5
g137
tp361
a(I60
I0
I0
g279
tp362
a(I60
I0
F0.125
g281
tp363
a(I65
I1
F0.5
g139
tp364
a(I74
I0
F0.5
g141
tp365
a(I74
I1
F0.5
g143
tp366
a(I81
I0
I0
g283
tp367
a(I85
I3
F0.5
g145
tp368
a(I85
I14
F0.625
g147
tp369
a(I85
I14
F1.0
g285
tp370
a(I96
I3
F0.5
g149
tp371
a(I102
I1
I0
g153
tp372
a(I105
I0
F0.5
g155
tp373
a(I105
I3
F0.5
g157
tp374
a(I105
I5
F0.375
g289
tp375
a(I105
I5
I0
g291
tp376
a(I105
I9
F0.5
g159
tp377
a(I108
I3
F0.5
g161
tp378
a(I110
I3
F-0.75
g293
tp379
a(I113
I0
F-0.75
g163
tp380
a(I113
I0
F0.125
g165
tp381
a(I113
I0
F0.5
g167
tp382
a(I119
I1
F0.5
g175
tp383
a(I154
I1
F0.5
g197
tp384
a(I154
I2
F0.125
g199
tp385
a(I154
I2
F0.5
g201
tp386
as(S'without'
p387
g61
S'data'
p388
tp389
(lp390
(I83
I4
I0
S'touchscreen'
p391
tp392
a(I103
I0
F0.5
S'possible'
p393
tp394
as(S'quality'
p395
tp396
(lp397
(I14
I10
F1.0
S'good'
p398
tp399
a(I78
I3
I0
S'great'
p400
tp401
a(I94
I9
I0
S'high'
p402
tp403
a(I140
I8
F-0.625
S'average'
p404
tp405
a(I154
I2
F0.125
S'impressive'
p406
tp407
a(I154
I2
F1.0
S'good'
p408
tp409
as(S'touchscreen'
p410
tp411
(lp412
(I63
I0
F-0.75
S'minor'
p413
tp414
a(I139
I3
I0
S'great'
p415
tp416
as(g61
S'data'
p417
S'package'
p418
tp419
(lp420
(I132
I1
I0
S'text'
p421
tp422
a(I145
I1
I0
S'monthly'
p423
tp424
as(S'2'
p425
S'years'
p426
tp427
(lp428
(I66
I0
I0
g321
tp429
a(I103
I3
F-0.5
g329
tp430
as(S'features'
p431
tp432
(lp433
(I42
I4
I0
S'internet'
p434
tp435
a(I89
I4
F1.0
S'good'
p436
tp437
a(I123
I0
F0.875
S'nice'
p438
tp439
a(I130
I0
I0
S'adequate'
p440
tp441
a(I130
I0
F0.625
S'easy'
p442
tp443
a(I130
I0
F1.0
S'good'
p444
tp445
as(S'times'
p446
tp447
(lp448
(I21
I1
F-0.25
S'dropped'
p449
tp450
a(I30
I2
I0
S'many'
p451
tp452
a(I41
I13
I0
S'many'
p453
tp454
a(I68
I1
I0
S'many'
p455
tp456
a(I70
I0
I0
S'many'
p457
tp458
as(S'verizon'
p459
tp460
(lp461
(I1
I4
I0
S'least'
p462
tp463
a(I14
I6
F0.5
S'told'
p464
tp465
a(I14
I7
F0.25
S'original'
p466
tp467
a(I28
I2
F0.5
S'possible'
p468
tp469
a(I63
I0
F0.125
S'first'
p470
tp471
a(I92
I9
I0
S'different'
p472
tp473
a(I105
I4
F0.5
S'willing'
p474
tp475
a(I119
I4
I0
S'website'
p476
tp477
a(I128
I2
I0
S'website'
p478
tp479
as(S'data'
p480
S'package'
p481
tp482
(lp483
(I132
I1
I0
g421
tp484
a(I145
I1
I0
g423
tp485
as(S'feature'
p486
tp487
(lp488
(I1
I4
I0
S'few'
p489
tp490
a(I51
I2
I0
S'cool'
p491
tp492
a(I73
I5
F0.625
S'easy'
p493
tp494
a(I154
I2
I0
S'great'
p495
tp496
as(S'contract'
p497
tp498
(lp499
(I1
I1
F0.125
S'renewal'
p500
tp501
a(I28
I3
F0.625
S'necessary'
p502
tp503
a(I99
I0
F0.375
S'new'
p504
tp505
as(S'touch'
p506
S'screen'
p507
S'works'
p508
tp509
(lp510
(I14
I8
F0.5
g121
tp511
a(I14
I8
I0
S'great'
p512
tp513
a(I43
I2
I0
S'great'
p514
tp515
a(I51
I3
F0.875
g277
tp516
a(I113
I0
F-0.75
g163
tp517
a(I113
I0
F0.125
g165
tp518
a(I113
I0
F0.5
g167
tp519
as(S'plan'
p520
tp521
(lp522
(I14
I6
I0
S'current'
p523
tp524
a(I21
I1
F-0.625
S'glad'
p525
tp526
a(I36
I0
I0
S'basic'
p527
tp528
a(I53
I1
F1.0
S'best'
p529
tp530
a(I105
I9
F-0.625
S'want'
p531
tp532
a(I109
I0
F0.625
S'easier'
p533
tp534
as(S'case'
p535
tp536
(lp537
(I89
I2
F-0.875
S'hard'
p538
tp539
as(S'works'
p540
tp541
(lp542
(I14
I8
I0
g512
tp543
a(I43
I2
I0
g514
tp544
as(S'battery'
p545
tp546
(lp547
(I17
I1
F1.0
S'good'
p548
tp549
a(I17
I4
I0
S'old'
p550
tp551
a(I34
I1
F0.375
S'new'
p552
tp553
a(I34
I1
I0
S'mere'
p554
tp555
a(I41
I12
F1.0
S'good'
p556
tp557
a(I45
I3
I0
S'full'
p558
tp559
a(I56
I9
F0.25
S'original'
p560
tp561
a(I73
I9
F-0.25
g39
tp562
a(I74
I7
F1.0
g41
tp563
a(I79
I1
F0.125
S'last'
p564
tp565
a(I92
I2
I0
S'great'
p566
tp567
a(I97
I0
F-0.625
S'removing'
p568
tp569
a(I100
I0
F-0.625
S'bad'
p570
tp571
a(I129
I2
F0.5
g45
tp572
a(I129
I2
F0.25
g47
tp573
a(I156
I0
F0.375
S'new'
p574
tp575
as(S'brand'
p576
tp577
(lp578
(I25
I0
F0.375
S'new'
p579
tp580
a(I54
I3
F0.375
S'new'
p581
tp582
a(I55
I0
F0.375
S'new'
p583
tp584
a(I55
I0
F0.375
S'new'
p585
tp586
a(I79
I1
F0.375
S'new'
p587
tp588
a(I80
I0
F0.375
S'new'
p589
tp590
a(I80
I0
F0.625
S'easy'
p591
tp592
a(I91
I5
F0.375
S'new'
p593
tp594
a(I111
I0
F0.375
S'new'
p595
tp596
as(S'smart'
p597
tp598
(lp599
(I8
I3
F0.375
S'newer'
p600
tp601
a(I8
I4
F0.5
S'expensive'
p602
tp603
a(I16
I0
F0.125
S'first'
p604
tp605
a(I48
I1
F-0.5
S'wished'
p606
tp607
a(I154
I0
I0
S'traditional'
p608
tp609
as(S'daughter'
p610
tp611
(lp612
(I38
I0
F0.125
S'last'
p613
tp614
a(I39
I10
I0
S'user'
p615
tp616
a(I99
I0
I0
S'adequate'
p617
tp618
a(I110
I0
F0.125
S'last'
p619
tp620
a(I151
I0
I0
S'great'
p621
tp622
as(S'seller'
p623
tp624
(lp625
(I25
I2
F0.375
S'new'
p626
tp627
a(I158
I0
I0
S'great'
p628
tp629
as(S'cell'
p630
tp631
(lp632
(I16
I0
F0.375
S'much'
p633
tp634
a(I28
I9
F0.25
S'favorite'
p635
tp636
a(I68
I1
I0
S'different'
p637
tp638
a(I73
I1
F0.625
S'easy'
p639
tp640
a(I73
I1
I0
S'great'
p641
tp642
a(I94
I1
F0.25
S'used'
p643
tp644
a(I140
I11
I0
S'standard'
p645
tp646
a(I140
I16
F0.625
S'convenient'
p647
tp648
as(S'without'
p649
S'data'
p650
S'plan'
p651
tp652
(lp653
(I53
I1
F1.0
g529
tp654
a(I83
I4
I0
g391
tp655
a(I103
I0
F0.5
g393
tp656
as(S'calls'
p657
tp658
(lp659
(I14
I9
F0.625
S'easy'
p660
tp661
a(I54
I2
I0
S'forth'
p662
tp663
a(I83
I2
I0
S'few'
p664
tp665
as(S'thing'
p666
tp667
(lp668
(I17
I3
F1.0
S'good'
p669
tp670
a(I20
I4
I0
S'only'
p671
tp672
a(I20
I4
F1.0
S'good'
p673
tp674
a(I22
I7
F-0.75
S'stupid'
p675
tp676
a(I22
I7
F-0.25
S'ready'
p677
tp678
a(I56
I0
F-0.25
S'late'
p679
tp680
a(I73
I0
F0.625
S'convenient'
p681
tp682
a(I114
I12
I0
S'only'
p683
tp684
a(I114
I12
F1.0
S'good'
p685
tp686
as(S'texting'
p687
tp688
(lp689
(I22
I4
I0
S'continual'
p690
tp691
a(I22
I5
I0
S'great'
p692
tp693
as(S'lg'
p694
S'dare'
p695
tp696
(lp697
(I9
I0
F1.0
S'good'
p698
tp699
a(I17
I3
I0
S'old'
p700
tp701
a(I70
I0
F0.375
S'new'
p702
tp703
a(I73
I0
F-0.125
S'overall'
p704
tp705
a(I91
I2
I0
S'old'
p706
tp707
as(S'for'
p708
g425
S'years'
p709
tp710
(lp711
(I66
I0
I0
g321
tp712
a(I103
I3
F-0.5
g329
tp713
as(S'call'
p714
tp715
(lp716
(I42
I10
F-0.25
S'dropped'
p717
tp718
as(S'refund'
p719
tp720
(lp721
(I13
I2
I0
S'immediate'
p722
tp723
as(S'price'
p724
tp725
(lp726
(I2
I0
I0
S'same'
p727
tp728
a(I14
I6
I0
S'same'
p729
tp730
a(I40
I1
F1.0
S'good'
p731
tp732
a(I76
I4
F1.0
S'good'
p733
tp734
a(I102
I5
F1.0
S'good'
p735
tp736
a(I151
I1
I0
S'great'
p737
tp738
as(S'time'
p739
tp740
(lp741
(I12
I0
I0
S'waste'
p742
tp743
a(I22
I0
F1.0
S'good'
p744
tp745
a(I28
I7
I0
S'most'
p746
tp747
a(I39
I10
F0.5
S'whole'
p748
tp749
a(I39
I10
F0.625
S'pleasant'
p750
tp751
a(I41
I14
F0.5
S'whole'
p752
tp753
a(I42
I13
F-0.5
S'long'
p754
tp755
a(I45
I3
I0
S'own'
p756
tp757
a(I54
I6
I0
S'many'
p758
tp759
a(I67
I1
F-0.5
S'long'
p760
tp761
a(I115
I7
F-0.875
S'hard'
p762
tp763
as(S'data'
p764
tp765
(lp766
(I42
I13
F-0.25
g65
tp767
a(I65
I1
F-0.625
S'free'
p768
tp769
a(I73
I0
F-0.75
g67
tp770
a(I83
I4
I0
g391
tp771
a(I103
I0
F0.5
g393
tp772
a(I145
I1
I0
g423
tp773
as(g61
S'data'
p774
S'plan'
p775
tp776
(lp777
(I21
I1
F-0.625
g525
tp778
a(I42
I13
F-0.25
g65
tp779
a(I53
I1
F1.0
g529
tp780
a(I73
I0
F-0.75
g67
tp781
a(I83
I4
I0
g391
tp782
a(I103
I0
F0.5
g393
tp783
a(I105
I9
F-0.625
g531
tp784
a(I109
I0
F0.625
g533
tp785
as(S'dare'
p786
tp787
(lp788
(I1
I2
I0
S'adamant'
p789
tp790
a(I9
I0
F1.0
g698
tp791
a(I18
I5
F0.375
S'new'
p792
tp793
a(I37
I1
F0.5
S'expensive'
p794
tp795
a(I42
I5
F0.5
S'clear'
p796
tp797
a(I42
I5
F0.375
S'loud'
p798
tp799
a(I63
I1
F0.375
S'new'
p800
tp801
a(I73
I11
I0
S'efficient'
p802
tp803
as(S'send'
p804
tp805
(lp806
(I46
I1
F-0.5
S'less'
p807
tp808
as(S'data'
p809
S'plan'
p810
tp811
(lp812
(I21
I1
F-0.625
g525
tp813
a(I42
I13
F-0.25
g65
tp814
a(I53
I1
F1.0
g529
tp815
a(I73
I0
F-0.75
g67
tp816
a(I83
I4
I0
g391
tp817
a(I103
I0
F0.5
g393
tp818
a(I105
I9
F-0.625
g531
tp819
a(I109
I0
F0.625
g533
tp820
as(S'review'
p821
tp822
(lp823
(I142
I2
F-0.625
S'bad'
p824
tp825
as(S'called'
p826
S'verizon'
p827
tp828
(lp829
(I128
I2
I0
g478
tp830
as(S'months'
p831
tp832
(lp833
(I91
I3
I0
S'later'
p834
tp835
a(I110
I1
I0
S'few'
p836
tp837
a(I123
I1
I0
S'few'
p838
tp839
a(I132
I0
I0
S'many'
p840
tp841
a(I150
I1
I0
S'few'
p842
tp843
as(S'no'
p844
S'data'
p845
S'plan'
p846
tp847
(lp848
(I21
I1
F-0.625
g525
tp849
a(I73
I0
F-0.75
g67
tp850
a(I83
I4
I0
g391
tp851
a(I103
I0
F0.5
g393
tp852
as(S'package'
p853
tp854
(lp855
(I132
I1
I0
g421
tp856
as(S'seems'
p857
tp858
(lp859
(I22
I3
F1.0
S'good'
p860
tp861
as(S'days'
p862
tp863
(lp864
(I41
I12
I0
S'few'
p865
tp866
a(I91
I6
I0
S'later'
p867
tp868
a(I108
I5
I0
S'few'
p869
tp870
a(I117
I1
I0
S'later'
p871
tp872
as(S'touch'
p873
S'screen'
p874
tp875
(lp876
(I3
I2
F-0.625
g271
tp877
a(I8
I4
I0
g273
tp878
a(I8
I4
I0
g275
tp879
a(I12
I0
I0
g113
tp880
a(I14
I3
F0.625
g115
tp881
a(I14
I3
I0
g117
tp882
a(I14
I3
F0.5
g119
tp883
a(I14
I8
F0.5
g121
tp884
a(I19
I3
F0.5
g123
tp885
a(I41
I17
F0.5
g127
tp886
a(I47
I1
F0.5
g129
tp887
a(I47
I1
F-0.875
g131
tp888
a(I47
I1
I0
g133
tp889
a(I51
I3
F0.875
g277
tp890
a(I58
I3
F0.5
g137
tp891
a(I60
I0
I0
g279
tp892
a(I60
I0
F0.125
g281
tp893
a(I65
I1
F0.5
g139
tp894
a(I74
I0
F0.5
g141
tp895
a(I74
I1
F0.5
g143
tp896
a(I81
I0
I0
g283
tp897
a(I85
I3
F0.5
g145
tp898
a(I85
I14
F0.625
g147
tp899
a(I85
I14
F1.0
g285
tp900
a(I96
I3
F0.5
g149
tp901
a(I102
I1
I0
g153
tp902
a(I105
I0
F0.5
g155
tp903
a(I105
I3
F0.5
g157
tp904
a(I105
I5
F0.375
g289
tp905
a(I105
I5
I0
g291
tp906
a(I105
I9
F0.5
g159
tp907
a(I108
I3
F0.5
g161
tp908
a(I110
I3
F-0.75
g293
tp909
a(I113
I0
F-0.75
g163
tp910
a(I113
I0
F0.125
g165
tp911
a(I113
I0
F0.5
g167
tp912
a(I119
I1
F0.5
g175
tp913
a(I154
I1
F0.5
g197
tp914
a(I154
I2
F0.125
g199
tp915
a(I154
I2
F0.5
g201
tp916
as(S'text'
p917
tp918
(lp919
(I18
I9
I0
g5
tp920
as.