(dp0
(S'battery'
p1
S'life'
p2
tp3
(lp4
(I8
I33
F-0.625
S'average'
p5
I1
tp6
a(I14
I20
F0.5
S'satisfactory'
p7
I1
tp8
a(I19
I14
F0.375
S'reliable'
p9
I1
tp10
a(I19
I14
F-0.5
S'long'
p11
I1
tp12
a(I19
I14
F0.625
S'convenient'
p13
I1
tp14
a(I30
I27
F1.0
S'better'
p15
I1
tp16
a(I2
I3
F-0.5
S'less'
p17
I15
tp18
a(I4
I9
F0.25
S'bigger'
p19
I15
tp20
a(I4
I10
F-0.75
S'dead'
p21
I15
tp22
a(I4
I16
F0.375
S'new'
p23
I15
tp24
a(I4
I16
F-0.5
S'sure'
p25
I15
tp26
a(I5
I13
F0.125
S'last'
p27
I15
tp28
a(I13
I52
F0.125
S'first'
p29
I15
tp30
a(I16
I0
F1.0
S'good'
p31
I15
tp32
a(I19
I14
F0.375
g9
I15
tp33
a(I19
I14
F-0.5
g11
I15
tp34
a(I19
I34
F0.125
S'able'
p35
I15
tp36
a(I30
I9
F0.375
S'extra'
p37
I15
tp38
a(I30
I27
F1.0
g15
I15
tp39
a(I31
I21
F0.125
S'last'
p40
I15
tp41
a(I33
I15
I0
S'charged'
p42
I15
tp43
a(I33
I16
F-0.625
S'free'
p44
I15
tp45
a(I38
I19
F-0.875
S'bother'
p46
I15
tp47
as(S'ring'
p48
S'tones'
p49
tp50
(lp51
(I20
I22
I0
S'own'
p52
I0
tp53
a(I30
I13
F1.0
S'good'
p54
I0
tp55
as(S'u'
p56
S's'
p57
S'version'
p58
tp59
(lp60
(I11
I25
F-0.25
S'cheaper'
p61
I0
tp62
a(I14
I5
F0.25
S'original'
p63
I0
tp64
a(I14
I5
F-0.375
S'manual'
p65
I0
tp66
a(I20
I7
F1.0
S'good'
p67
I0
tp68
a(I35
I9
F0.375
S'newer'
p69
I0
tp70
as(S'voice'
p71
S'dial'
p72
tp73
(lp74
(I21
I7
I0
S'dial'
p75
I0
tp76
a(I21
I7
I0
S'dial'
p77
I0
tp78
a(I7
I10
F0.625
S'necessary'
p79
I4
tp80
a(I7
I10
F-0.5
S'poor'
p81
I4
tp82
a(I21
I7
I0
g75
I4
tp83
a(I21
I7
I0
g77
I4
tp84
a(I42
I1
F0.5
S'clear'
p85
I4
tp86
as(S'reception'
p87
tp88
(lp89
(I7
I8
F0.5
S'reasonable'
p90
I0
tp91
a(I13
I35
F0.5
S'reasonable'
p92
I0
tp93
a(I14
I10
I0
S'minimal'
p94
I0
tp95
a(I19
I36
F-0.5
S'weak'
p96
I0
tp97
a(I21
I5
F-0.75
S'difficult'
p98
I0
tp99
a(I25
I14
F1.0
S'best'
p100
I0
tp101
a(I25
I16
F1.0
S'best'
p102
I0
tp103
a(I29
I11
F-0.375
S'small'
p104
I0
tp105
a(I29
I11
F1.0
S'good'
p106
I0
tp107
a(I31
I24
F1.0
S'good'
p108
I0
tp109
as(S'vendor'
p110
tp111
(lp112
(I8
I29
F0.25
S'responsive'
p113
I5
tp114
a(I17
I1
I0
S'email'
p115
I5
tp116
a(I17
I41
I0
S'different'
p117
I5
tp118
as(S'sd'
p119
S'card'
p120
tp121
(lp122
(I4
I9
F0.125
S'capable'
p123
I0
tp124
as(S'speaker'
p125
tp126
(lp127
(I4
I9
F0.625
S'fair'
p128
I8
tp129
a(I13
I67
F0.75
S'ear'
p130
I8
tp131
a(I25
I40
F1.0
S'good'
p132
I8
tp133
as(S'razr'
p134
S'v3'
p135
tp136
(lp137
(I7
I5
F0.625
S'easiest'
p138
I0
tp139
a(I12
I0
I0
S'old'
p140
I0
tp141
a(I15
I11
F0.625
S'perfect'
p142
I0
tp143
a(I42
I72
F-0.75
S'wrong'
p144
I0
tp145
a(I5
I3
F0.875
S'happy'
p146
I0
tp147
a(I6
I25
F-0.625
S'other'
p148
I0
tp149
a(I8
I20
F0.125
S'first'
p150
I0
tp151
a(I8
I34
I0
S'old'
p152
I0
tp153
a(I11
I25
F0.25
S'original'
p154
I0
tp155
a(I12
I0
I0
g140
I0
tp156
a(I12
I1
F0.375
S'new'
p157
I0
tp158
a(I12
I8
F-0.125
S'overall'
p159
I0
tp160
a(I12
I8
F-0.625
S'glad'
p161
I0
tp162
a(I14
I4
I0
S'same'
p163
I0
tp164
a(I14
I4
F0.25
S'original'
p165
I0
tp166
a(I14
I8
F0.25
S'original'
p167
I0
tp168
a(I15
I13
I0
S'old'
p169
I0
tp170
a(I15
I13
F0.375
S'new'
p171
I0
tp172
a(I24
I3
I0
S'third'
p173
I0
tp174
a(I30
I15
F1.0
S'better'
p175
I0
tp176
a(I30
I15
I0
S'blue'
p177
I0
tp178
a(I33
I5
F0.875
S'nice'
p179
I0
tp180
a(I35
I5
I0
S'old'
p181
I0
tp182
a(I39
I4
F0.375
S'new'
p183
I0
tp184
a(I39
I14
I0
S'different'
p185
I0
tp186
a(I42
I18
I0
S'cherished'
p187
I0
tp188
a(I42
I60
F0.25
S'familiar'
p189
I0
tp190
a(I42
I63
F0.375
S'new'
p191
I0
tp192
a(I42
I64
F0.875
S'happy'
p193
I0
tp194
a(I42
I72
F-0.75
g144
I0
tp195
as(S'seller'
p196
tp197
(lp198
(I4
I12
I0
S'most'
p199
I19
tp200
a(I6
I25
I0
S'truthful'
p201
I19
tp202
a(I10
I17
F-0.5
S'actual'
p203
I19
tp204
a(I13
I65
F0.125
S'last'
p205
I19
tp206
a(I17
I1
I0
S'subsequent'
p207
I19
tp208
as(S'weeks'
p209
tp210
(lp211
(I10
I15
I0
S'later'
p212
I18
tp213
a(I13
I64
I0
S'later'
p214
I18
tp215
a(I18
I16
I0
S'later'
p216
I18
tp217
as(S'razor'
p218
tp219
(lp220
(I41
I6
F-0.625
S'lighter'
p221
I0
tp222
a(I41
I6
I0
S'old'
p223
I0
tp224
a(I41
I6
I0
S'plastic'
p225
I0
tp226
as(S'us'
p227
S'version'
p228
tp229
(lp230
(I18
I7
I0
S'same'
p231
I0
tp232
a(I20
I7
F1.0
g67
I0
tp233
a(I35
I9
F0.375
g69
I0
tp234
as(S'motorola'
p235
S'razr'
p236
tp237
(lp238
(I25
I3
F0.375
S'new'
p239
I0
tp240
a(I38
I14
F0.375
S'new'
p241
I0
tp242
a(I10
I20
F-0.75
S'unable'
p243
I0
tp244
a(I25
I3
F0.375
g239
I0
tp245
a(I31
I8
F0.5
S'true'
p246
I0
tp247
a(I31
I9
F0.25
S'original'
p248
I0
tp249
a(I31
I13
F-0.625
S'bad'
p250
I0
tp251
a(I38
I14
F0.375
g241
I0
tp252
a(I38
I27
F0.25
S'original'
p253
I0
tp254
as(S'replacement'
p255
tp256
(lp257
(I7
I0
I0
S'identical'
p258
I13
tp259
a(I18
I16
F-0.75
S'dead'
p260
I13
tp261
as(S'warranty'
p262
tp263
(lp264
(I18
I17
I0
S'local'
p265
I2
tp266
a(I18
I17
F0.25
S'professional'
p267
I2
tp268
as(S'calls'
p269
tp270
(lp271
(I4
I5
F-0.125
S'minimum'
p272
I0
tp273
a(I7
I24
F-0.625
S'average'
p274
I0
tp275
a(I7
I32
I0
S'multiple'
p276
I0
tp277
a(I7
I33
F-0.5
S'unavailable'
p278
I0
tp279
a(I13
I43
F0.625
S'easier'
p280
I0
tp281
a(I13
I43
F-0.25
S'past'
p282
I0
tp283
a(I19
I36
F-0.75
S'unable'
p284
I0
tp285
a(I40
I12
I0
S'great'
p286
I0
tp287
as(S'sim'
p288
S'card'
p289
tp290
(lp291
(I42
I33
F0.375
S'new'
p292
I0
tp293
as(S'went'
p294
S'black'
p295
tp296
(lp297
(I12
I0
F-0.25
S'ready'
p298
I0
tp299
as(S'refund'
p300
tp301
(lp302
(I13
I40
I0
S'full'
p303
I8
tp304
as(S'1'
p305
S'year'
p306
tp307
(lp308
(I35
I12
I0
S'old'
p309
I10
tp310
a(I35
I12
F-0.25
S'past'
p311
I10
tp312
as(S'customer'
p313
S'service'
p314
tp315
(lp316
(I8
I34
I0
S'great'
p317
I3
tp318
a(I13
I20
I0
S'different'
p319
I3
tp320
a(I7
I17
F-0.625
S'unpredictable'
p321
I16
tp322
a(I8
I34
I0
g317
I16
tp323
as(S'amazon'
p324
tp325
(lp326
(I10
I24
F0.75
S'wonder'
p327
I13
tp328
a(I34
I4
F-0.25
S'late'
p329
I13
tp330
a(I34
I4
F0.125
S'last'
p331
I13
tp332
a(I42
I17
F0.375
S'new'
p333
I13
tp334
as.