(dp0
(S'keyboard'
p1
tp2
(lp3
(I4
I1
F0.625
S'perfect'
p4
tp5
a(I10
I64
F-0.375
S'small'
p6
tp7
a(I12
I3
F0.875
S'nice'
p8
tp9
a(I12
I3
I0
S'soft'
p10
tp11
a(I13
I2
F0.625
S'easy'
p12
tp13
a(I15
I13
F-0.5
S'miss'
p14
tp15
a(I15
I13
I0
S'old'
p16
tp17
a(I44
I11
F0.5
S'true'
p18
tp19
a(I50
I6
F0.625
S'easy'
p20
tp21
a(I57
I2
F-0.875
S'hard'
p22
tp23
a(I57
I2
F0.75
S'due'
p24
tp25
a(I57
I2
F-0.375
S'small'
p26
tp27
a(I59
I8
F-0.375
S'small'
p28
tp29
a(I60
I0
I0
S'compact'
p30
tp31
a(I64
I6
F0.875
S'nice'
p32
tp33
a(I67
I3
I0
S'full'
p34
tp35
a(I85
I1
F-0.375
S'small'
p36
tp37
a(I97
I9
F0.625
S'easy'
p38
tp39
a(I97
I28
F0.375
S'new'
p40
tp41
a(I97
I28
I0
S'full'
p42
tp43
a(I98
I2
F-0.75
S'comfortable'
p44
tp45
a(I143
I4
F1.0
S'best'
p46
tp47
a(I158
I6
F0.125
S'far'
p48
tp49
a(I159
I3
F-0.375
S'small'
p50
tp51
a(I162
I7
I0
S'great'
p52
tp53
a(I172
I1
F0.875
S'nice'
p54
tp55
a(I193
I11
F0.25
S'helpful'
p56
tp57
a(I193
I11
F-0.75
S'bright'
p58
tp59
a(I203
I10
I0
S'real'
p60
tp61
a(I203
I10
I0
S'physical'
p62
tp63
a(I207
I1
F-0.25
S'white'
p64
tp65
a(I207
I1
I0
S'more'
p66
tp67
a(I211
I17
F-0.25
S'loose'
p68
tp69
a(I211
I20
I0
S'slippy'
p70
tp71
a(I217
I6
F-0.375
S'small'
p72
tp73
a(I232
I3
F-0.75
S'comfortable'
p74
tp75
a(I238
I8
F0.625
S'easy'
p76
tp77
a(I269
I0
I0
S'real'
p78
tp79
a(I270
I1
I0
S'real'
p80
tp81
a(I270
I12
I0
S'real'
p82
tp83
a(I275
I0
I0
S'full'
p84
tp85
a(I308
I15
F-0.25
S'white'
p86
tp87
a(I310
I3
I0
S'full'
p88
tp89
a(I326
I6
F-0.375
S'small'
p90
tp91
a(I330
I3
F-0.375
S'smaller'
p92
tp93
a(I331
I18
F0.625
S'easy'
p94
tp95
a(I337
I6
I0
S'useful'
p96
tp97
a(I348
I3
I0
S'full'
p98
tp99
a(I348
I22
F-0.375
S'smaller'
p100
tp101
a(I348
I22
F1.0
S'better'
p102
tp103
a(I350
I6
F0.625
S'easy'
p104
tp105
a(I351
I3
I0
S'full'
p106
tp107
a(I351
I5
I0
S'full'
p108
tp109
a(I352
I5
F-0.375
S'smaller'
p110
tp111
a(I354
I10
I0
S'third'
p112
tp113
a(I354
I10
F-0.375
S'small'
p114
tp115
a(I358
I1
F1.0
S'good'
p116
tp117
a(I372
I2
F-0.375
S'small'
p118
tp119
a(I386
I2
F0.625
S'convenient'
p120
tp121
a(I403
I5
I0
S'dial'
p122
tp123
a(I413
I2
I0
S'great'
p124
tp125
a(I413
I2
F0.625
S'easy'
p126
tp127
a(I419
I8
I0
S'physical'
p128
tp129
a(I427
I10
F0.625
S'easy'
p130
tp131
a(I429
I1
F0.375
S'tight'
p132
tp133
a(I438
I6
F-0.5
S'regular'
p134
tp135
a(I465
I2
I0
S'soft'
p136
tp137
a(I466
I2
F0.125
S'solid'
p138
tp139
a(I466
I2
I0
S'great'
p140
tp141
a(I474
I3
I0
S'soft'
p142
tp143
a(I474
I10
F0.25
S'responsive'
p144
tp145
a(I479
I3
F0.625
S'easy'
p146
tp147
a(I481
I9
F0.625
S'accessible'
p148
tp149
a(I538
I10
I0
S'full'
p150
tp151
as(S'right'
p152
tp153
(lp154
(I10
I43
I0
S'great'
p155
tp156
a(I155
I3
F0.375
S'upper'
p157
tp158
a(I270
I11
F0.375
S'available'
p159
tp160
as(S'nice'
p161
tp162
(lp163
(I174
I12
F0.5
S'clear'
p164
tp165
a(I382
I3
I0
S'few'
p166
tp167
a(I479
I14
I0
S'real'
p168
tp169
as(S'3'
p170
S'2'
p171
S'mp'
p172
tp173
(lp174
(I534
I5
I0
S'great'
p175
tp176
as(S'call'
p177
S'quality'
p178
tp179
(lp180
(I33
I3
F1.0
S'good'
p181
tp182
a(I48
I0
F1.0
S'good'
p183
tp184
a(I100
I14
F1.0
S'best'
p185
tp186
a(I110
I4
I0
S'great'
p187
tp188
a(I125
I11
F0.125
S'last'
p189
tp190
a(I125
I11
I0
S'least'
p191
tp192
a(I125
I11
I0
S'great'
p193
tp194
a(I182
I5
F1.0
S'good'
p195
tp196
a(I193
I46
F0.5
S'clear'
p197
tp198
a(I193
I46
I0
S'most'
p199
tp200
a(I193
I49
F1.0
S'good'
p201
tp202
a(I238
I8
I0
S'great'
p203
tp204
a(I246
I1
F0.875
S'nice'
p205
tp206
a(I246
I1
F0.125
S'solid'
p207
tp208
a(I263
I4
F1.0
S'good'
p209
tp210
a(I270
I14
I0
S'great'
p211
tp212
a(I308
I10
F1.0
S'best'
p213
tp214
a(I336
I1
I0
S'great'
p215
tp216
a(I357
I6
F0.875
S'nice'
p217
tp218
a(I366
I13
F-0.75
S'worse'
p219
tp220
a(I374
I15
I0
S'great'
p221
tp222
a(I382
I3
I0
S'signal'
p223
tp224
a(I396
I0
F0.125
S'impressive'
p225
tp226
a(I417
I29
I0
S'great'
p227
tp228
a(I419
I0
I0
S'great'
p229
tp230
a(I515
I2
F0.25
S'responsive'
p231
tp232
a(I515
I2
F1.0
S'good'
p233
tp234
a(I518
I0
F0.5
S'bold'
p235
tp236
a(I530
I1
I0
S'same'
p237
tp238
a(I538
I3
I0
S'great'
p239
tp240
as(S'full'
p241
S'qwerty'
p242
S'keyboard'
p243
tp244
(lp245
(I112
I2
I0
S'full'
p246
tp247
a(I117
I16
I0
S'full'
p248
tp249
a(I127
I24
I0
S'full'
p250
tp251
a(I313
I1
I0
S'full'
p252
tp253
a(I323
I24
I0
S'real'
p254
tp255
a(I350
I6
F0.625
g104
tp256
a(I422
I29
I0
S'full'
p257
tp258
a(I435
I7
I0
S'full'
p259
tp260
a(I530
I0
I0
S'full'
p261
tp262
as(S'version'
p263
tp264
(lp265
(I12
I5
F0.375
S'new'
p266
tp267
a(I29
I10
F-0.5
S'sure'
p268
tp269
a(I50
I16
I0
S'current'
p270
tp271
a(I56
I12
F-0.25
S'white'
p272
tp273
a(I128
I19
F-0.25
S'cheaper'
p274
tp275
a(I153
I5
I0
S'plastic'
p276
tp277
a(I158
I5
F-0.25
S'white'
p278
tp279
a(I183
I8
F-0.25
S'white'
p280
tp281
a(I244
I3
I0
S'minimal'
p282
tp283
a(I270
I9
F0.375
S'newest'
p284
tp285
a(I270
I24
I0
S'later'
p286
tp287
a(I283
I2
I0
S'european'
p288
tp289
a(I310
I7
F0.25
S'unlocked'
p290
tp291
a(I329
I3
F-0.25
S'cheaper'
p292
tp293
a(I422
I7
F0.25
S'original'
p294
tp295
a(I422
I52
I0
S'european'
p296
tp297
a(I422
I54
I0
S'european'
p298
tp299
a(I435
I3
I0
S'plastic'
p300
tp301
a(I435
I3
F0.375
S'new'
p302
tp303
a(I501
I11
F0.375
S'new'
p304
tp305
a(I501
I11
I0
S'older'
p306
tp307
a(I529
I10
F-0.5
S'international'
p308
tp309
as(S'qwerty'
p310
S'keyboard'
p311
tp312
(lp313
(I11
I11
I0
S'physical'
p314
tp315
a(I58
I5
F1.0
S'better'
p316
tp317
a(I60
I0
I0
g30
tp318
a(I112
I2
I0
g246
tp319
a(I117
I16
I0
g248
tp320
a(I127
I24
I0
g250
tp321
a(I232
I3
F-0.75
g74
tp322
a(I313
I1
I0
g252
tp323
a(I323
I24
I0
g254
tp324
a(I350
I6
F0.625
g104
tp325
a(I358
I1
F1.0
g116
tp326
a(I422
I29
I0
g257
tp327
a(I435
I7
I0
g259
tp328
a(I481
I9
F0.625
g148
tp329
a(I530
I0
I0
g261
tp330
as(S'quality'
p331
tp332
(lp333
(I3
I6
I0
S'high'
p334
tp335
a(I14
I7
F0.875
S'important'
p336
tp337
a(I27
I0
I0
S'high'
p338
tp339
a(I27
I0
I0
S'high'
p340
tp341
a(I33
I3
F1.0
g181
tp342
a(I48
I0
F1.0
g183
tp343
a(I65
I2
F1.0
S'good'
p344
tp345
a(I66
I2
F-0.375
S'top'
p346
tp347
a(I70
I2
F0.625
S'superior'
p348
tp349
a(I80
I4
I0
S'signal'
p350
tp351
a(I80
I4
F1.0
S'good'
p352
tp353
a(I99
I5
I0
S'great'
p354
tp355
a(I100
I14
F1.0
g185
tp356
a(I110
I4
I0
g187
tp357
a(I125
I11
I0
g193
tp358
a(I141
I4
F1.0
S'best'
p359
tp360
a(I149
I2
F1.0
S'good'
p361
tp362
a(I174
I0
F-0.375
S'lie'
p363
tp364
a(I182
I5
F1.0
g195
tp365
a(I188
I8
I0
S'high'
p366
tp367
a(I193
I46
I0
g199
tp368
a(I263
I4
F1.0
g209
tp369
a(I266
I1
I0
S'high'
p370
tp371
a(I270
I14
I0
g211
tp372
a(I270
I20
F1.0
S'better'
p373
tp374
a(I298
I6
I0
S'great'
p375
tp376
a(I305
I2
F1.0
S'good'
p377
tp378
a(I305
I2
I0
S'least'
p379
tp380
a(I308
I10
F1.0
g213
tp381
a(I308
I12
F0.875
S'music'
p382
tp383
a(I312
I3
F1.0
S'best'
p384
tp385
a(I312
I3
F1.0
S'good'
p386
tp387
a(I331
I11
F0.125
S'impressive'
p388
tp389
a(I331
I17
F1.0
S'good'
p390
tp391
a(I332
I7
F1.0
S'good'
p392
tp393
a(I337
I4
F0.125
S'solid'
p394
tp395
a(I337
I4
I0
S'high'
p396
tp397
a(I341
I0
I0
S'pic'
p398
tp399
a(I348
I7
I0
S'great'
p400
tp401
a(I357
I6
F0.875
g217
tp402
a(I366
I13
F-0.75
g219
tp403
a(I374
I15
I0
g221
tp404
a(I382
I3
I0
g223
tp405
a(I413
I2
F-0.625
S'bad'
p406
tp407
a(I417
I8
F0.75
S'fit'
p408
tp409
a(I417
I30
F0.75
S'receive'
p410
tp411
a(I417
I30
F0.25
S'stellar'
p412
tp413
a(I422
I22
F1.0
S'good'
p414
tp415
a(I427
I3
I0
S'great'
p416
tp417
a(I437
I7
I0
S'high'
p418
tp419
a(I451
I11
F1.0
S'good'
p420
tp421
a(I454
I0
F0.25
S'powerful'
p422
tp423
a(I454
I0
I0
S'high'
p424
tp425
a(I454
I7
F0.25
S'powerful'
p426
tp427
a(I454
I7
I0
S'useful'
p428
tp429
a(I455
I1
I0
S'high'
p430
tp431
a(I458
I1
I0
S'user'
p432
tp433
a(I462
I0
I0
S'high'
p434
tp435
a(I482
I1
F1.0
S'good'
p436
tp437
a(I499
I2
F0.625
S'superior'
p438
tp439
a(I513
I9
F1.0
S'good'
p440
tp441
a(I515
I2
F1.0
g233
tp442
a(I518
I0
F0.5
g235
tp443
a(I530
I1
I0
g237
tp444
a(I538
I3
I0
g239
tp445
as(S'applications'
p446
tp447
(lp448
(I31
I2
F-0.625
S'free'
p449
tp450
a(I69
I0
F0.375
S'much'
p451
tp452
a(I100
I4
I0
S'many'
p453
tp454
a(I100
I4
I0
S'great'
p455
tp456
a(I100
I10
F0.875
S'nice'
p457
tp458
a(I127
I18
F-0.625
S'other'
p459
tp460
a(I127
I18
F-0.625
S'free'
p461
tp462
a(I127
I19
F0.375
S'available'
p463
tp464
a(I127
I19
F-0.625
S'free'
p465
tp466
a(I155
I15
F0.375
S'available'
p467
tp468
a(I159
I0
I0
S'great'
p469
tp470
a(I166
I9
I0
S'multiple'
p471
tp472
a(I166
I9
F-0.5
S'open'
p473
tp474
a(I166
I9
F0.625
S'easy'
p475
tp476
a(I169
I4
F-0.625
S'other'
p477
tp478
a(I182
I13
F0.375
S'available'
p479
tp480
a(I183
I16
F0.375
S'available'
p481
tp482
a(I190
I0
I0
S'many'
p483
tp484
a(I221
I3
F0.375
S'available'
p485
tp486
a(I228
I7
F0.375
S'available'
p487
tp488
a(I232
I6
F0.375
S'available'
p489
tp490
a(I328
I2
I0
S'many'
p491
tp492
a(I328
I2
F-0.5
S'open'
p493
tp494
a(I335
I1
I0
S'many'
p495
tp496
a(I340
I9
F-0.5
S'open'
p497
tp498
a(I348
I18
F0.25
S'mature'
p499
tp500
a(I353
I6
F0.125
S'popular'
p501
tp502
a(I353
I6
F0.375
S'available'
p503
tp504
a(I359
I47
I0
S'multiple'
p505
tp506
a(I422
I4
I0
S'many'
p507
tp508
a(I530
I0
I0
S'useful'
p509
tp510
as(S'time'
p511
S'to'
p512
S'get'
p513
tp514
(lp515
(I15
I39
F-0.75
S'single'
p516
tp517
a(I99
I1
F-0.75
S'dirty'
p518
tp519
a(I155
I29
F0.125
S'first'
p520
tp521
a(I219
I3
F0.125
S'first'
p522
tp523
as(S'ever'
p524
tp525
(lp526
(I153
I3
I0
S'great'
p527
tp528
a(I220
I2
F0.125
S'first'
p529
tp530
a(I457
I1
F0.125
S'first'
p531
tp532
as(S'excellent'
p533
tp534
(lp535
(I4
I2
I0
S'third'
p536
tp537
a(I44
I31
F1.0
S'good'
p538
tp539
a(I66
I25
I0
S'many'
p540
tp541
a(I300
I17
I0
S'fast'
p542
tp543
a(I419
I15
F-0.625
S'free'
p544
tp545
as(S'and'
p546
S'battery'
p547
S'life'
p548
tp549
(lp550
(I11
I3
I0
S'most'
p551
tp552
a(I17
I7
F0.375
S'standby'
p553
tp554
a(I39
I1
F0.5
S'strong'
p555
tp556
a(I56
I2
I0
S'great'
p557
tp558
a(I63
I1
F-0.25
S'thin'
p559
tp560
a(I76
I5
I0
S'great'
p561
tp562
a(I76
I5
F1.0
S'best'
p563
tp564
a(I79
I1
F-0.5
S'long'
p565
tp566
a(I85
I1
F0.625
S'replaceable'
p567
tp568
a(I85
I1
I0
S'great'
p569
tp570
a(I99
I5
I0
S'great'
p571
tp572
a(I104
I14
F-0.5
S'longer'
p573
tp574
a(I126
I22
F1.0
S'good'
p575
tp576
a(I127
I20
F1.0
S'good'
p577
tp578
a(I127
I20
I0
S'least'
p579
tp580
a(I158
I4
I0
S'great'
p581
tp582
a(I176
I1
I0
S'great'
p583
tp584
a(I217
I1
F0.5
S'strong'
p585
tp586
a(I233
I7
F0.625
S'easy'
p587
tp588
a(I233
I7
F1.0
S'good'
p589
tp590
a(I263
I2
I0
S'phenomenal'
p591
tp592
a(I263
I2
I0
S'standard'
p593
tp594
a(I263
I2
F0.375
S'extended'
p595
tp596
a(I270
I2
F-0.625
S'bad'
p597
tp598
a(I295
I2
I0
S'great'
p599
tp600
a(I300
I16
F1.0
S'better'
p601
tp602
a(I300
I17
F-0.5
S'long'
p603
tp604
a(I320
I0
I0
S'great'
p605
tp606
a(I353
I17
I0
S'great'
p607
tp608
a(I407
I2
I0
S'fast'
p609
tp610
a(I422
I4
F-0.625
S'average'
p611
tp612
a(I435
I3
F1.0
S'good'
p613
tp614
a(I524
I2
F1.0
S'good'
p615
tp616
as(S'software'
p617
tp618
(lp619
(I14
I32
I0
S'effortless'
p620
tp621
a(I15
I23
I0
S'great'
p622
tp623
a(I58
I5
F1.0
S'good'
p624
tp625
a(I60
I0
F-0.625
S'free'
p626
tp627
a(I104
I14
F0.625
S'necessary'
p628
tp629
a(I104
I14
F0.375
S'extra'
p630
tp631
a(I104
I14
F-0.375
S'top'
p632
tp633
a(I126
I2
I0
S'such'
p634
tp635
a(I126
I5
I0
S'symptomatic'
p636
tp637
a(I126
I5
I0
S'many'
p638
tp639
a(I126
I5
F-0.625
S'other'
p640
tp641
a(I126
I9
F0.25
S'related'
p642
tp643
a(I132
I0
F-0.625
S'free'
p644
tp645
a(I162
I10
F1.0
S'better'
p646
tp647
a(I167
I1
F-0.5
S'poor'
p648
tp649
a(I174
I6
F-0.125
S'overall'
p650
tp651
a(I176
I2
F1.0
S'best'
p652
tp653
a(I176
I2
I0
S'most'
p654
tp655
a(I176
I2
F0.125
S'practical'
p656
tp657
a(I215
I15
F0.375
S'complete'
p658
tp659
a(I248
I7
I0
S'different'
p660
tp661
a(I270
I20
I0
S'latest'
p662
tp663
a(I295
I2
F0.375
S'available'
p664
tp665
a(I321
I4
F0.375
S'available'
p666
tp667
a(I348
I18
I0
S'great'
p668
tp669
a(I359
I1
I0
S'big'
p670
tp671
a(I359
I1
F-0.375
S'small'
p672
tp673
a(I359
I29
I0
S'same'
p674
tp675
a(I394
I1
I0
S'great'
p676
tp677
a(I394
I1
F0.375
S'available'
p678
tp679
a(I401
I6
F-0.625
S'other'
p680
tp681
a(I403
I17
F0.25
S'professional'
p682
tp683
a(I413
I0
F0.875
S'nice'
p684
tp685
a(I413
I0
F0.625
S'easy'
p686
tp687
a(I422
I8
F0.375
S'new'
p688
tp689
a(I425
I3
F-0.625
S'bad'
p690
tp691
a(I437
I6
F-0.5
S'poor'
p692
tp693
a(I469
I9
F-0.375
S'simple'
p694
tp695
a(I503
I6
F-0.75
S'unable'
p696
tp697
a(I522
I1
I0
S'special'
p698
tp699
a(I525
I32
I0
S'special'
p700
tp701
as(S'nokia'
p702
tp703
(lp704
(I14
I42
F0.625
S'necessary'
p705
tp706
a(I22
I3
F0.375
S'available'
p707
tp708
a(I44
I44
F1.0
S'best'
p709
tp710
a(I49
I4
I0
S'more'
p711
tp712
a(I49
I4
F0.875
S'happy'
p713
tp714
a(I50
I16
F0.125
S'able'
p715
tp716
a(I70
I7
I0
S'pouch'
p717
tp718
a(I77
I3
I0
S'cable'
p719
tp720
a(I97
I0
F0.125
S'first'
p721
tp722
a(I97
I0
F0.375
S'honest'
p723
tp724
a(I97
I18
F-0.625
S'other'
p725
tp726
a(I99
I6
F-0.75
S'wrong'
p727
tp728
a(I116
I1
F1.0
S'best'
p729
tp730
a(I126
I0
F0.125
S'first'
p731
tp732
a(I126
I18
I0
S'faster'
p733
tp734
a(I126
I21
I0
S'slower'
p735
tp736
a(I127
I18
I0
S'own'
p737
tp738
a(I136
I0
F0.375
S'new'
p739
tp740
a(I146
I36
F0.875
S'important'
p741
tp742
a(I153
I3
F-0.875
S'trouble'
p743
tp744
a(I155
I1
F0.625
S'safe'
p745
tp746
a(I155
I21
F0.125
S'impressive'
p747
tp748
a(I167
I1
F0.375
S'new'
p749
tp750
a(I175
I2
F0.125
S'usual'
p751
tp752
a(I176
I0
F1.0
S'best'
p753
tp754
a(I176
I2
I0
S'ir'
p755
tp756
a(I176
I2
F0.375
S'mean'
p757
tp758
a(I197
I0
I0
S'big'
p759
tp760
a(I198
I5
F0.375
S'feel'
p761
tp762
a(I200
I11
F-0.125
S'overall'
p763
tp764
a(I202
I0
F0.25
S'original'
p765
tp766
a(I202
I3
F0.25
S'original'
p767
tp768
a(I203
I9
F1.0
S'best'
p769
tp770
a(I204
I4
F1.0
S'best'
p771
tp772
a(I207
I4
F-0.625
S'other'
p773
tp774
a(I216
I0
F0.875
S'happy'
p775
tp776
a(I245
I1
F-0.375
S'serious'
p777
tp778
a(I256
I9
F-0.625
S'other'
p779
tp780
a(I256
I14
I0
S'wide'
p781
tp782
a(I256
I14
I0
S'big'
p783
tp784
a(I270
I0
F0.125
S'first'
p785
tp786
a(I273
I0
F0.125
S'first'
p787
tp788
a(I283
I1
I0
S'big'
p789
tp790
a(I295
I3
I0
S'least'
p791
tp792
a(I295
I3
F0.375
S'follow'
p793
tp794
a(I295
I3
F-0.625
S'other'
p795
tp796
a(I305
I3
I0
S'great'
p797
tp798
a(I305
I16
F0.375
S'new'
p799
tp800
a(I311
I2
F0.75
S'due'
p801
tp802
a(I319
I10
F-0.625
S'other'
p803
tp804
a(I329
I2
F1.0
S'best'
p805
tp806
a(I330
I2
I0
S'weird'
p807
tp808
a(I332
I11
F-0.625
S'glad'
p809
tp810
a(I359
I29
F-0.625
S'other'
p811
tp812
a(I371
I3
F0.375
S'new'
p813
tp814
a(I373
I8
F-0.625
S'free'
p815
tp816
a(I375
I0
F0.25
S'original'
p817
tp818
a(I382
I3
F0.75
S'wonder'
p819
tp820
a(I384
I0
F1.0
S'best'
p821
tp822
a(I389
I0
I0
S'third'
p823
tp824
a(I391
I0
F0.375
S'new'
p825
tp826
a(I403
I15
F1.0
S'best'
p827
tp828
a(I410
I1
F0.25
S'original'
p829
tp830
a(I410
I2
F0.25
S'original'
p831
tp832
a(I412
I21
F-0.625
S'other'
p833
tp834
a(I420
I4
I0
S'such'
p835
tp836
a(I422
I8
I0
S'great'
p837
tp838
a(I423
I3
I0
S'local'
p839
tp840
a(I425
I6
F0.125
S'native'
p841
tp842
a(I445
I0
I0
S'great'
p843
tp844
a(I467
I2
I0
S'more'
p845
tp846
a(I528
I3
I0
S'great'
p847
tp848
a(I529
I21
I0
S'website'
p849
tp850
as(S'sim'
p851
S'card'
p852
tp853
(lp854
(I17
I1
F-0.375
S'simple'
p855
tp856
a(I37
I7
F0.375
S'new'
p857
tp858
a(I108
I4
I0
S'local'
p859
tp860
a(I275
I4
F0.375
S'follow'
p861
tp862
a(I299
I4
I0
S'brazilian'
p863
tp864
a(I311
I5
F1.0
S'good'
p865
tp866
a(I435
I7
I0
S'old'
p867
tp868
a(I469
I16
F-0.625
S'free'
p869
tp870
as(S'n'
p871
S'r'
p872
S'hand'
p873
tp874
(lp875
(I70
I6
I0
S'substantial'
p876
tp877
a(I218
I2
F-0.625
S'other'
p878
tp879
a(I229
I6
F0.125
S'solid'
p880
tp881
a(I240
I2
F0.5
S'grateful'
p882
tp883
a(I265
I1
F0.25
S'professional'
p884
tp885
a(I473
I5
F-0.25
S'loose'
p886
tp887
a(I480
I1
I0
S'same'
p888
tp889
as(S'made'
p890
g871
S'finland'
p891
tp892
(lp893
(I350
I1
F0.25
S'original'
p894
tp895
as(S'blackberry'
p896
tp897
(lp898
(I46
I0
F-0.25
S'higher'
p899
tp900
a(I91
I13
I0
S'more'
p901
tp902
a(I112
I19
F-0.25
S'cheaper'
p903
tp904
a(I112
I21
F0.375
S'new'
p905
tp906
a(I160
I1
F0.625
S'sexier'
p907
tp908
a(I166
I13
F0.25
S'familiar'
p909
tp910
a(I200
I1
F-0.125
S'former'
p911
tp912
a(I217
I8
F0.5
S'strong'
p913
tp914
a(I217
I8
F0.625
S'respectful'
p915
tp916
a(I273
I1
F-0.25
S'cheaper'
p917
tp918
a(I275
I10
F0.625
S'superior'
p919
tp920
a(I308
I9
F1.0
S'better'
p921
tp922
a(I323
I5
F0.375
S'much'
p923
tp924
a(I323
I5
I0
S'old'
p925
tp926
a(I451
I15
F1.0
S'better'
p927
tp928
a(I489
I18
I0
S'next'
p929
tp930
a(I502
I3
F0.5
S'stylish'
p931
tp932
a(I538
I10
F-0.5
S'less'
p933
tp934
as(S'quad'
p935
S'band'
p936
tp937
(lp938
(I383
I1
I0
S'quad'
p939
tp940
a(I529
I16
I0
S'quad'
p941
tp942
as(S'with'
p943
S'nokia'
p944
S'e71'
p945
tp946
(lp947
(I21
I0
F0.5
S'expensive'
p948
tp949
a(I33
I1
F0.125
S'essential'
p950
tp951
a(I70
I7
I0
g717
tp952
a(I70
I7
I0
S'most'
p953
tp954
a(I104
I14
F-0.125
S'overall'
p955
tp956
a(I126
I0
F0.125
g731
tp957
a(I153
I3
F-0.875
g743
tp958
a(I216
I0
F0.875
g775
tp959
a(I353
I3
F1.0
S'best'
p960
tp961
a(I371
I3
F0.375
g813
tp962
a(I392
I3
F-0.375
S'smaller'
p963
tp964
a(I518
I0
F0.625
S'easiest'
p965
tp966
a(I518
I0
I0
S'faster'
p967
tp968
a(I518
I0
F0.625
S'easier'
p969
tp970
a(I518
I9
F0.625
S'easiest'
p971
tp972
a(I525
I13
F-0.625
S'free'
p973
tp974
a(I530
I1
F0.75
S'classic'
p975
tp976
a(I530
I1
I0
S'update'
p977
tp978
as(S'wi'
p979
S'fi'
p980
tp981
(lp982
(I96
I0
F1.0
S'good'
p983
tp984
as(S'smartphone'
p985
tp986
(lp987
(I10
I59
I0
S'sturdier'
p988
tp989
a(I10
I59
F-0.625
S'other'
p990
tp991
a(I68
I3
F-0.25
S'thinnest'
p992
tp993
a(I70
I0
F-0.375
S'small'
p994
tp995
a(I70
I0
I0
S'useful'
p996
tp997
a(I73
I0
F1.0
S'best'
p998
tp999
a(I97
I28
F-0.625
S'bad'
p1000
tp1001
a(I97
I28
I0
S'great'
p1002
tp1003
a(I112
I8
F0.125
S'first'
p1004
tp1005
a(I125
I12
F-0.125
S'overall'
p1006
tp1007
a(I146
I0
F0.125
S'first'
p1008
tp1009
a(I159
I0
F0.125
S'first'
p1010
tp1011
a(I159
I0
F0.875
S'happy'
p1012
tp1013
a(I192
I1
I0
S'general'
p1014
tp1015
a(I193
I43
F0.5
S'expensive'
p1016
tp1017
a(I208
I0
F0.125
S'first'
p1018
tp1019
a(I221
I4
I0
S'great'
p1020
tp1021
a(I221
I4
F0.5
S'functional'
p1022
tp1023
a(I230
I1
F1.0
S'good'
p1024
tp1025
a(I230
I1
F0.125
S'first'
p1026
tp1027
a(I233
I4
F-0.625
S'other'
p1028
tp1029
a(I239
I1
F1.0
S'best'
p1030
tp1031
a(I245
I1
I0
S'great'
p1032
tp1033
a(I265
I0
F1.0
S'best'
p1034
tp1035
a(I265
I0
F0.375
S'available'
p1036
tp1037
a(I265
I11
F1.0
S'best'
p1038
tp1039
a(I265
I11
F1.0
S'good'
p1040
tp1041
a(I265
I11
F0.375
S'available'
p1042
tp1043
a(I311
I10
I0
S'great'
p1044
tp1045
a(I336
I1
F0.125
S'skeptic'
p1046
tp1047
a(I348
I2
F0.125
S'first'
p1048
tp1049
a(I353
I3
F-0.625
S'other'
p1050
tp1051
a(I353
I15
F-0.5
S'less'
p1052
tp1053
a(I355
I0
F1.0
S'best'
p1054
tp1055
a(I355
I2
F-0.625
S'lightest'
p1056
tp1057
a(I355
I2
F-0.25
S'thinnest'
p1058
tp1059
a(I357
I12
F0.875
S'nice'
p1060
tp1061
a(I381
I2
F0.125
S'first'
p1062
tp1063
a(I427
I2
F0.125
S'first'
p1064
tp1065
a(I448
I0
F1.0
S'best'
p1066
tp1067
a(I456
I1
F-0.625
S'other'
p1068
tp1069
a(I456
I1
F0.875
S'happier'
p1070
tp1071
a(I456
I1
F-0.625
S'other'
p1072
tp1073
a(I511
I0
F1.0
S'best'
p1074
tp1075
a(I532
I1
F0.5
S'functional'
p1076
tp1077
as(S'card'
p1078
tp1079
(lp1080
(I15
I36
I0
S'included'
p1081
tp1082
a(I15
I37
F-0.625
S'free'
p1083
tp1084
a(I100
I14
F0.875
S'music'
p1085
tp1086
a(I170
I7
I0
S'hot'
p1087
tp1088
a(I275
I4
F0.375
g861
tp1089
a(I311
I5
F1.0
g865
tp1090
a(I334
I3
F0.375
S'reliable'
p1091
tp1092
a(I403
I10
I0
S'even'
p1093
tp1094
as(S'love'
p1095
tp1096
(lp1097
(I241
I1
F0.625
S'easy'
p1098
tp1099
as(S'unlimited'
p1100
S'data'
p1101
S'plan'
p1102
tp1103
(lp1104
(I391
I12
I0
S'current'
p1105
tp1106
a(I435
I7
F-0.25
S'inexpensive'
p1107
tp1108
a(I435
I7
I0
S'active'
p1109
tp1110
as(S'wifi'
p1111
tp1112
(lp1113
(I35
I1
F0.375
S'available'
p1114
tp1115
a(I55
I0
I0
S'great'
p1116
tp1117
a(I55
I0
I0
S'internet'
p1118
tp1119
a(I88
I2
F-0.625
S'free'
p1120
tp1121
a(I94
I3
F1.0
S'good'
p1122
tp1123
a(I111
I3
F-0.625
S'free'
p1124
tp1125
a(I146
I23
F0.875
S'important'
p1126
tp1127
a(I193
I49
F0.125
S'capable'
p1128
tp1129
a(I211
I14
F0.875
S'nice'
p1130
tp1131
a(I298
I9
I0
S'more'
p1132
tp1133
a(I305
I3
F-0.5
S'heavy'
p1134
tp1135
a(I325
I15
F0.375
S'available'
p1136
tp1137
a(I332
I3
F-0.625
S'unreal'
p1138
tp1139
a(I348
I10
F1.0
S'good'
p1140
tp1141
a(I353
I17
F-0.625
S'free'
p1142
tp1143
a(I363
I3
F0.875
S'nice'
p1144
tp1145
a(I391
I14
F-0.625
S'other'
p1146
tp1147
a(I512
I3
I0
S'great'
p1148
tp1149
as(S'fast'
p1150
tp1151
(lp1152
(I126
I9
F-0.625
S'impractical'
p1153
tp1154
as(S'problem'
p1155
tp1156
(lp1157
(I10
I64
F0.125
S'first'
p1158
tp1159
a(I15
I38
F-0.375
S'small'
p1160
tp1161
a(I20
I0
I0
S'only'
p1162
tp1163
a(I178
I1
F0.25
S'main'
p1164
tp1165
a(I178
I4
F-0.375
S'small'
p1166
tp1167
a(I178
I6
F-0.625
S'bad'
p1168
tp1169
a(I188
I58
F-0.75
S'minor'
p1170
tp1171
a(I236
I4
F-0.625
S'other'
p1172
tp1173
a(I270
I2
I0
S'real'
p1174
tp1175
a(I408
I3
F0.25
S'main'
p1176
tp1177
a(I409
I0
I0
S'real'
p1178
tp1179
a(I416
I12
I0
S'only'
p1180
tp1181
a(I416
I12
F-0.625
S'other'
p1182
tp1183
a(I436
I0
F-0.5
S'less'
p1184
tp1185
a(I459
I2
F-0.625
S'other'
p1186
tp1187
a(I463
I2
I0
S'same'
p1188
tp1189
a(I468
I2
I0
S'same'
p1190
tp1191
a(I470
I1
F0.125
S'tolerable'
p1192
tp1193
a(I539
I8
F-0.625
S'sporadic'
p1194
tp1195
a(I539
I8
F0.125
S'tolerable'
p1196
tp1197
a(I539
I10
I0
S'common'
p1198
tp1199
as(S'f'
p1200
S'are'
p1201
S'looking'
p1202
tp1203
(lp1204
(I66
I29
I0
S'many'
p1205
tp1206
a(I66
I29
F0.25
S'professional'
p1207
tp1208
a(I382
I8
F1.0
S'good'
p1209
tp1210
as(S'email'
p1211
tp1212
(lp1213
(I14
I22
F0.375
S'new'
p1214
tp1215
a(I55
I0
F-0.25
S'google'
p1216
tp1217
a(I66
I23
F-0.625
S'free'
p1218
tp1219
a(I66
I25
F0.375
S'much'
p1220
tp1221
a(I104
I6
I0
S'multiple'
p1222
tp1223
a(I104
I14
I0
S'great'
p1224
tp1225
a(I104
I14
I0
S'real'
p1226
tp1227
a(I155
I45
F-0.25
S'potential'
p1228
tp1229
a(I199
I1
I0
S'slower'
p1230
tp1231
a(I200
I7
I0
S'quick'
p1232
tp1233
a(I282
I1
F-0.625
S'push'
p1234
tp1235
a(I282
I1
F-0.625
S'push'
p1236
tp1237
a(I287
I1
F0.625
S'easy'
p1238
tp1239
a(I291
I13
I0
S'mobile'
p1240
tp1241
a(I291
I14
F-0.625
S'push'
p1242
tp1243
a(I291
I15
F0.125
S'native'
p1244
tp1245
a(I291
I15
F0.375
S'new'
p1246
tp1247
a(I291
I19
I0
S'entire'
p1248
tp1249
a(I291
I22
F0.125
S'native'
p1250
tp1251
a(I311
I8
F0.625
S'easy'
p1252
tp1253
a(I323
I10
I0
S'corporate'
p1254
tp1255
a(I359
I6
F-0.5
S'separate'
p1256
tp1257
a(I368
I2
F0.625
S'easy'
p1258
tp1259
a(I374
I3
F-0.625
S'push'
p1260
tp1261
a(I374
I3
F0.375
S'new'
p1262
tp1263
a(I382
I8
F-0.625
S'light'
p1264
tp1265
a(I382
I9
F-0.5
S'heavy'
p1266
tp1267
a(I405
I2
F1.0
S'better'
p1268
tp1269
a(I425
I9
F0.125
S'native'
p1270
tp1271
a(I474
I8
I0
S'great'
p1272
tp1273
a(I474
I9
F-0.625
S'push'
p1274
tp1275
a(I515
I11
I0
S'final'
p1276
tp1277
a(I525
I18
F-0.625
S'want'
p1278
tp1279
a(I538
I13
F-0.625
S'push'
p1280
tp1281
as(S'price'
p1282
tp1283
(lp1284
(I7
I10
I0
S'latest'
p1285
tp1286
a(I7
I10
F-0.25
S'lowest'
p1287
tp1288
a(I10
I86
I0
S'full'
p1289
tp1290
a(I13
I21
F0.5
S'expensive'
p1291
tp1292
a(I83
I7
I0
S'great'
p1293
tp1294
a(I86
I4
I0
S'great'
p1295
tp1296
a(I86
I5
F1.0
S'good'
p1297
tp1298
a(I105
I5
F-0.25
S'cheapest'
p1299
tp1300
a(I108
I11
I0
S'great'
p1301
tp1302
a(I151
I0
F1.0
S'good'
p1303
tp1304
a(I156
I1
F0.625
S'easy'
p1305
tp1306
a(I168
I0
I0
S'great'
p1307
tp1308
a(I170
I16
F-0.25
S'low'
p1309
tp1310
a(I231
I0
F0.375
S'significant'
p1311
tp1312
a(I256
I9
I0
S'same'
p1313
tp1314
a(I266
I6
I0
S'handy'
p1315
tp1316
a(I266
I6
F0.5
S'reasonable'
p1317
tp1318
a(I271
I0
F1.0
S'good'
p1319
tp1320
a(I295
I4
F-0.375
S'smaller'
p1321
tp1322
a(I295
I4
F-0.625
S'lighter'
p1323
tp1324
a(I329
I0
F1.0
S'good'
p1325
tp1326
a(I329
I4
F0.125
S'enough'
p1327
tp1328
a(I329
I9
F-0.25
S'lower'
p1329
tp1330
a(I329
I11
F-0.625
S'free'
p1331
tp1332
a(I357
I12
F0.875
S'nice'
p1333
tp1334
a(I393
I6
I0
S'great'
p1335
tp1336
a(I404
I1
F1.0
S'good'
p1337
tp1338
a(I413
I1
F0.5
S'reasonable'
p1339
tp1340
a(I422
I57
I0
S'alleged'
p1341
tp1342
a(I422
I57
I0
S'discounted'
p1343
tp1344
a(I431
I4
I0
S'great'
p1345
tp1346
a(I437
I18
F-0.5
S'less'
p1347
tp1348
a(I440
I0
F0.5
S'reasonable'
p1349
tp1350
a(I447
I0
I0
S'total'
p1351
tp1352
a(I480
I3
I0
S'great'
p1353
tp1354
a(I508
I0
F-0.25
S'low'
p1355
tp1356
a(I512
I1
F-0.25
S'lowest'
p1357
tp1358
as(S'service'
p1359
tp1360
(lp1361
(I104
I6
F0.375
S'new'
p1362
tp1363
a(I127
I13
F-0.625
S'free'
p1364
tp1365
a(I128
I5
I0
S'internet'
p1366
tp1367
a(I128
I5
I0
S'satellite'
p1368
tp1369
a(I215
I11
I0
S'local'
p1370
tp1371
a(I319
I4
F1.0
S'good'
p1372
tp1373
a(I346
I6
I0
S'cellular'
p1374
tp1375
a(I366
I3
I0
S'full'
p1376
tp1377
a(I368
I6
F-0.625
S'free'
p1378
tp1379
a(I457
I2
I0
S'great'
p1380
tp1381
a(I529
I14
F-0.625
S'other'
p1382
tp1383
as(S'maps'
p1384
tp1385
(lp1386
(I11
I6
F-0.25
S'google'
p1387
tp1388
a(I11
I6
I0
S'great'
p1389
tp1390
a(I11
I7
F-0.25
S'google'
p1391
tp1392
a(I11
I20
F-0.25
S'google'
p1393
tp1394
a(I14
I24
F-0.25
S'google'
p1395
tp1396
a(I14
I29
F-0.25
S'google'
p1397
tp1398
a(I21
I0
F0.125
S'able'
p1399
tp1400
a(I31
I11
F-0.25
S'google'
p1401
tp1402
a(I31
I12
F0.125
S'first'
p1403
tp1404
a(I31
I13
I0
S'later'
p1405
tp1406
a(I31
I13
F-0.25
S'google'
p1407
tp1408
a(I32
I3
F-0.25
S'google'
p1409
tp1410
a(I40
I2
F-0.25
S'google'
p1411
tp1412
a(I44
I10
F-0.25
S'google'
p1413
tp1414
a(I50
I2
F-0.625
S'free'
p1415
tp1416
a(I50
I17
I0
S'more'
p1417
tp1418
a(I82
I6
F-0.25
S'google'
p1419
tp1420
a(I100
I24
F-0.25
S'google'
p1421
tp1422
a(I110
I4
F-0.25
S'google'
p1423
tp1424
a(I127
I19
F-0.25
S'google'
p1425
tp1426
a(I143
I2
F-0.25
S'google'
p1427
tp1428
a(I168
I0
F-0.25
S'google'
p1429
tp1430
a(I211
I10
I0
S'great'
p1431
tp1432
a(I216
I3
F-0.25
S'google'
p1433
tp1434
a(I221
I3
F-0.25
S'google'
p1435
tp1436
a(I223
I8
F-0.25
S'google'
p1437
tp1438
a(I291
I23
F-0.5
S'open'
p1439
tp1440
a(I325
I11
F-0.625
S'free'
p1441
tp1442
a(I336
I3
F-0.25
S'google'
p1443
tp1444
a(I373
I8
F-0.625
S'free'
p1445
tp1446
a(I382
I3
F-0.25
S'google'
p1447
tp1448
a(I382
I3
I0
S'quick'
p1449
tp1450
a(I403
I13
F-0.25
S'google'
p1451
tp1452
a(I403
I15
F-0.25
S'google'
p1453
tp1454
a(I419
I17
F0.125
S'able'
p1455
tp1456
as(S'dead'
p1457
S'spots'
p1458
tp1459
(lp1460
(I155
I12
F-0.75
S'dead'
p1461
tp1462
a(I155
I12
F-0.75
S'dead'
p1463
tp1464
a(I155
I13
F-0.75
S'dead'
p1465
tp1466
as(S'need'
p1467
tp1468
(lp1469
(I100
I12
F0.5
S'primary'
p1470
tp1471
a(I104
I14
I0
S'stable'
p1472
tp1473
a(I340
I3
F0.625
S'positive'
p1474
tp1475
a(I522
I1
F-0.75
S'impossible'
p1476
tp1477
a(I522
I1
F-0.875
S'hard'
p1478
tp1479
as(S'sony'
p1480
S'ericsson'
p1481
tp1482
(lp1483
(I328
I11
I0
S'such'
p1484
tp1485
a(I460
I1
I0
S'own'
p1486
tp1487
as(g171
S'mp'
p1488
S'camera'
p1489
tp1490
(lp1491
(I354
I9
F0.5
S'second'
p1492
tp1493
a(I357
I12
F0.875
S'nice'
p1494
tp1495
a(I357
I12
F0.875
S'important'
p1496
tp1497
a(I357
I12
F0.875
S'important'
p1498
tp1499
a(I357
I12
I0
S'se'
p1500
tp1501
a(I406
I1
F1.0
S'better'
p1502
tp1503
a(I534
I5
I0
g175
tp1504
as(S'build'
p1505
S'quality'
p1506
tp1507
(lp1508
(I3
I6
I0
g334
tp1509
a(I36
I0
F-0.125
S'overall'
p1510
tp1511
a(I66
I2
F-0.375
g346
tp1512
a(I155
I2
F0.125
S'solid'
p1513
tp1514
a(I323
I26
F0.875
S'nice'
p1515
tp1516
a(I332
I7
F1.0
g392
tp1517
a(I348
I7
I0
g400
tp1518
a(I382
I3
I0
g223
tp1519
a(I412
I8
F1.0
S'best'
p1520
tp1521
a(I417
I8
I0
S'incredible'
p1522
tp1523
a(I417
I8
F0.75
g408
tp1524
a(I437
I7
I0
g418
tp1525
a(I530
I1
I0
g237
tp1526
as(S'google'
p1527
tp1528
(lp1529
(I0
I0
F-0.625
S'free'
p1530
tp1531
a(I35
I2
F1.0
S'best'
p1532
tp1533
a(I155
I49
F0.375
S'new'
p1534
tp1535
a(I211
I10
F-0.625
S'free'
p1536
tp1537
a(I381
I9
F0.25
S'sweet'
p1538
tp1539
as(S'things'
p1540
tp1541
(lp1542
(I37
I3
I0
S'many'
p1543
tp1544
a(I37
I3
F-0.625
S'other'
p1545
tp1546
a(I37
I3
F0.375
S'new'
p1547
tp1548
a(I54
I3
I0
S'such'
p1549
tp1550
a(I54
I4
I0
S'basic'
p1551
tp1552
a(I58
I5
I0
S'quicker'
p1553
tp1554
a(I76
I1
I0
S'real'
p1555
tp1556
a(I81
I3
I0
S'few'
p1557
tp1558
a(I90
I5
I0
S'many'
p1559
tp1560
a(I102
I3
F0.5
S'personal'
p1561
tp1562
a(I126
I6
F-0.375
S'simple'
p1563
tp1564
a(I127
I4
I0
S'many'
p1565
tp1566
a(I127
I4
F1.0
S'best'
p1567
tp1568
a(I146
I57
I0
S'many'
p1569
tp1570
a(I183
I2
F0.25
S'main'
p1571
tp1572
a(I188
I22
F-0.75
S'little'
p1573
tp1574
a(I193
I36
I0
S'most'
p1575
tp1576
a(I193
I48
F0.875
S'nice'
p1577
tp1578
a(I205
I4
F-0.25
S'late'
p1579
tp1580
a(I205
I4
F0.375
S'new'
p1581
tp1582
a(I251
I1
F-0.125
S'mine'
p1583
tp1584
a(I251
I1
F-0.625
S'bad'
p1585
tp1586
a(I303
I0
I0
S'cellular'
p1587
tp1588
a(I303
I0
F0.375
S'complete'
p1589
tp1590
a(I303
I0
I0
S'many'
p1591
tp1592
a(I319
I6
F0.375
S'appreciate'
p1593
tp1594
a(I319
I6
F-0.625
S'other'
p1595
tp1596
a(I327
I1
I0
S'many'
p1597
tp1598
a(I336
I0
I0
S'many'
p1599
tp1600
a(I351
I3
F1.0
S'best'
p1601
tp1602
a(I382
I3
I0
S'many'
p1603
tp1604
a(I396
I4
I0
S'such'
p1605
tp1606
a(I416
I7
I0
S'many'
p1607
tp1608
a(I416
I7
I0
S'least'
p1609
tp1610
a(I481
I0
F0.375
S'much'
p1611
tp1612
a(I481
I0
F0.625
S'positive'
p1613
tp1614
a(I519
I3
F-0.25
S'disappointed'
p1615
tp1616
a(I519
I3
I0
S'great'
p1617
tp1618
a(I522
I0
F1.0
S'good'
p1619
tp1620
as(S'features'
p1621
tp1622
(lp1623
(I10
I59
F-0.375
S'small'
p1624
tp1625
a(I11
I20
F0.125
S'able'
p1626
tp1627
a(I15
I7
I0
S'many'
p1628
tp1629
a(I38
I2
I0
S'many'
p1630
tp1631
a(I38
I2
F0.5
S'possible'
p1632
tp1633
a(I38
I3
F-0.625
S'other'
p1634
tp1635
a(I44
I15
I0
S'great'
p1636
tp1637
a(I45
I17
I0
S'great'
p1638
tp1639
a(I50
I1
F0.125
S'usual'
p1640
tp1641
a(I50
I9
I0
S'many'
p1642
tp1643
a(I66
I2
I0
S'more'
p1644
tp1645
a(I70
I12
F0.25
S'favorite'
p1646
tp1647
a(I128
I11
F-0.625
S'other'
p1648
tp1649
a(I146
I2
F-0.375
S'crazy'
p1650
tp1651
a(I146
I2
F0.625
S'easy'
p1652
tp1653
a(I151
I0
I0
S'great'
p1654
tp1655
a(I155
I33
F-0.5
S'certain'
p1656
tp1657
a(I190
I0
I0
S'great'
p1658
tp1659
a(I228
I8
I0
S'great'
p1660
tp1661
a(I237
I3
I0
S'most'
p1662
tp1663
a(I252
I3
I0
S'great'
p1664
tp1665
a(I253
I1
I0
S'such'
p1666
tp1667
a(I262
I2
F-0.625
S'other'
p1668
tp1669
a(I273
I1
I0
S'same'
p1670
tp1671
a(I319
I6
I0
S'special'
p1672
tp1673
a(I322
I1
F0.375
S'new'
p1674
tp1675
a(I326
I4
I0
S'great'
p1676
tp1677
a(I334
I4
F1.0
S'best'
p1678
tp1679
a(I338
I4
F1.0
S'good'
p1680
tp1681
a(I338
I7
F-0.125
S'ensemble'
p1682
tp1683
a(I343
I1
F-0.625
S'want'
p1684
tp1685
a(I348
I5
I0
S'many'
p1686
tp1687
a(I353
I19
I0
S'great'
p1688
tp1689
a(I358
I11
F-0.625
S'other'
p1690
tp1691
a(I358
I11
I0
S'common'
p1692
tp1693
a(I360
I14
F0.375
S'new'
p1694
tp1695
a(I361
I0
I0
S'great'
p1696
tp1697
a(I365
I1
F0.375
S'available'
p1698
tp1699
a(I387
I1
I0
S'many'
p1700
tp1701
a(I387
I1
I0
S'great'
p1702
tp1703
a(I393
I2
I0
S'many'
p1704
tp1705
a(I403
I6
F0.5
S'advanced'
p1706
tp1707
a(I406
I1
I0
S'same'
p1708
tp1709
a(I422
I8
F0.375
S'new'
p1710
tp1711
a(I422
I46
I0
S'many'
p1712
tp1713
a(I427
I2
F0.5
S'advanced'
p1714
tp1715
a(I430
I3
I0
S'many'
p1716
tp1717
a(I430
I3
I0
S'same'
p1718
tp1719
a(I437
I11
F-0.625
S'other'
p1720
tp1721
a(I437
I11
I0
S'great'
p1722
tp1723
a(I454
I4
I0
S'many'
p1724
tp1725
a(I469
I5
F0.25
S'favorite'
p1726
tp1727
a(I474
I12
I0
S'many'
p1728
tp1729
a(I474
I12
F-0.625
S'other'
p1730
tp1731
a(I474
I12
I0
S'great'
p1732
tp1733
a(I477
I2
F1.0
S'best'
p1734
tp1735
a(I477
I6
F1.0
S'best'
p1736
tp1737
a(I491
I1
F-0.25
S'thin'
p1738
tp1739
a(I494
I3
F-0.25
S'thin'
p1740
tp1741
a(I507
I1
F0.5
S'satisfactory'
p1742
tp1743
a(I509
I0
I0
S'great'
p1744
tp1745
a(I524
I1
I0
S'basic'
p1746
tp1747
as(S'business'
p1748
tp1749
(lp1750
(I56
I16
F-0.625
S'other'
p1751
tp1752
a(I56
I16
F0.625
S'perfect'
p1753
tp1754
a(I56
I16
I0
S'such'
p1755
tp1756
a(I58
I5
F0.875
S'music'
p1757
tp1758
a(I66
I7
F-0.375
S'serious'
p1759
tp1760
a(I217
I0
F0.125
S'solid'
p1761
tp1762
a(I221
I3
F0.5
S'personal'
p1763
tp1764
a(I229
I0
F0.125
S'solid'
p1765
tp1766
a(I229
I2
I0
S'full'
p1767
tp1768
a(I229
I20
F-0.625
S'other'
p1769
tp1770
a(I229
I21
F0.625
S'sexy'
p1771
tp1772
a(I230
I4
F-0.625
S'bad'
p1773
tp1774
a(I257
I13
F0.625
S'sophisticated'
p1775
tp1776
a(I329
I1
F0.625
S'easy'
p1777
tp1778
a(I385
I0
F1.0
S'best'
p1779
tp1780
a(I398
I0
I0
S'many'
p1781
tp1782
a(I474
I2
F1.0
S'best'
p1783
tp1784
a(I520
I2
F0.25
S'professional'
p1785
tp1786
as(S'years'
p1787
tp1788
(lp1789
(I68
I3
I0
S'many'
p1790
tp1791
a(I68
I3
I0
S'many'
p1792
tp1793
a(I89
I1
I0
S'few'
p1794
tp1795
a(I113
I3
F-0.25
S'past'
p1796
tp1797
a(I130
I0
I0
S'few'
p1798
tp1799
a(I134
I0
F-0.25
S'past'
p1800
tp1801
a(I145
I0
I0
S'old'
p1802
tp1803
a(I159
I0
I0
S'old'
p1804
tp1805
a(I204
I4
I0
S'cellular'
p1806
tp1807
a(I231
I0
I0
S'great'
p1808
tp1809
a(I248
I0
F0.125
S'last'
p1810
tp1811
a(I317
I16
I0
S'few'
p1812
tp1813
a(I339
I2
I0
S'old'
p1814
tp1815
a(I374
I37
I0
S'old'
p1816
tp1817
a(I385
I4
F-0.375
S'wear'
p1818
tp1819
a(I385
I4
F-0.25
S'tear'
p1820
tp1821
a(I417
I5
F0.125
S'last'
p1822
tp1823
a(I422
I56
I0
S'next'
p1824
tp1825
a(I432
I1
I0
S'old'
p1826
tp1827
a(I437
I2
F-0.25
S'past'
p1828
tp1829
a(I446
I1
F0.125
S'last'
p1830
tp1831
a(I499
I0
I0
S'old'
p1832
tp1833
a(I513
I1
I0
S'more'
p1834
tp1835
a(I513
I19
I0
S'old'
p1836
tp1837
a(I513
I19
I0
S'more'
p1838
tp1839
as(S'built'
p1840
g871
S'gps'
p1841
tp1842
(lp1843
(I100
I23
I0
S'great'
p1844
tp1845
as(S'video'
p1846
tp1847
(lp1848
(I11
I16
F-0.375
S'manual'
p1849
tp1850
a(I30
I1
F0.625
S'easy'
p1851
tp1852
a(I200
I5
F0.875
S'music'
p1853
tp1854
a(I211
I12
F-0.875
S'trouble'
p1855
tp1856
a(I221
I3
F-0.625
S'free'
p1857
tp1858
a(I226
I4
F1.0
S'good'
p1859
tp1860
a(I257
I14
F-0.125
S'slow'
p1861
tp1862
a(I422
I49
F0.5
S'personal'
p1863
tp1864
a(I477
I4
F0.875
S'music'
p1865
tp1866
a(I481
I15
F1.0
S'good'
p1867
tp1868
as(S'a'
p1869
S'long'
p1870
S'time'
p1871
tp1872
(lp1873
(I155
I1
I0
S'such'
p1874
tp1875
a(I155
I1
F-0.5
S'long'
p1876
tp1877
a(I182
I0
F-0.5
S'long'
p1878
tp1879
a(I218
I1
I0
S'same'
p1880
tp1881
a(I230
I1
F-0.5
S'long'
p1882
tp1883
a(I244
I0
F-0.5
S'long'
p1884
tp1885
a(I354
I8
F-0.5
S'long'
p1886
tp1887
a(I448
I6
F-0.5
S'long'
p1888
tp1889
a(I467
I0
F-0.5
S'long'
p1890
tp1891
as(S'operating'
p1892
S'system'
p1893
tp1894
(lp1895
(I3
I11
I0
S'entire'
p1896
tp1897
a(I56
I4
F0.625
S'easy'
p1898
tp1899
a(I80
I4
I0
S'stable'
p1900
tp1901
a(I112
I1
F0.625
S'easy'
p1902
tp1903
a(I117
I13
F0.375
S'much'
p1904
tp1905
a(I246
I2
F-0.875
S'awful'
p1906
tp1907
a(I305
I5
F0.125
S'popular'
p1908
tp1909
a(I417
I31
I0
S'stable'
p1910
tp1911
a(I456
I1
I0
S'stable'
p1912
tp1913
as(S'voice'
p1914
tp1915
(lp1916
(I14
I40
I0
S'own'
p1917
tp1918
a(I20
I0
F-0.625
S'free'
p1919
tp1920
a(I39
I3
F0.5
S'clear'
p1921
tp1922
a(I41
I3
F-0.25
S'google'
p1923
tp1924
a(I70
I0
F1.0
S'good'
p1925
tp1926
a(I72
I7
F0.5
S'accurate'
p1927
tp1928
a(I72
I7
I0
S'dial'
p1929
tp1930
a(I72
I8
I0
S'robotic'
p1931
tp1932
a(I97
I23
I0
S'great'
p1933
tp1934
a(I97
I23
F-0.625
S'free'
p1935
tp1936
a(I193
I57
I0
S'great'
p1937
tp1938
a(I241
I14
F0.5
S'clear'
p1939
tp1940
a(I291
I30
F-0.5
S'sure'
p1941
tp1942
a(I327
I11
F0.625
S'easy'
p1943
tp1944
a(I337
I3
F-0.5
S'regular'
p1945
tp1946
a(I353
I10
I0
S'large'
p1947
tp1948
a(I353
I17
F-0.25
S'google'
p1949
tp1950
a(I391
I20
F0.5
S'clear'
p1951
tp1952
a(I419
I28
F-0.25
S'google'
p1953
tp1954
a(I419
I30
F0.125
S'able'
p1955
tp1956
a(I419
I30
F-0.25
S'google'
p1957
tp1958
a(I498
I0
F-0.625
S'free'
p1959
tp1960
a(I500
I6
F0.5
S'clear'
p1961
tp1962
as(S'to'
p1963
S'home'
p1964
S'screen'
p1965
tp1966
(lp1967
(I155
I25
I0
S'such'
p1968
tp1969
a(I217
I4
F0.25
S'main'
p1970
tp1971
a(I270
I11
F0.625
S'convenient'
p1972
tp1973
as(S'network'
p1974
tp1975
(lp1976
(I14
I5
I0
S'least'
p1977
tp1978
a(I14
I5
F0.375
S'reliable'
p1979
tp1980
a(I70
I2
F0.125
S'able'
p1981
tp1982
a(I80
I2
I0
S'great'
p1983
tp1984
a(I130
I3
I0
S'continental'
p1985
tp1986
a(I215
I14
F-0.5
S'sure'
p1987
tp1988
a(I219
I16
I0
S'same'
p1989
tp1990
a(I224
I2
F0.5
S'desirable'
p1991
tp1992
a(I270
I14
F0.75
S'due'
p1993
tp1994
a(I298
I8
F-0.125
S'present'
p1995
tp1996
a(I325
I13
I0
S'faster'
p1997
tp1998
a(I331
I14
F0.625
S'easy'
p1999
tp2000
a(I331
I14
F0.625
S'easy'
p2001
tp2002
a(I374
I15
I0
S'only'
p2003
tp2004
a(I386
I2
F0.625
S'easy'
p2005
tp2006
a(I403
I16
I0
S'cellular'
p2007
tp2008
a(I417
I3
F0.75
S'due'
p2009
tp2010
a(I454
I6
F0.5
S'functional'
p2011
tp2012
a(I525
I18
I0
S'cellular'
p2013
tp2014
a(I529
I20
I0
S'local'
p2015
tp2016
as(S'thing'
p2017
tp2018
(lp2019
(I10
I52
F-0.625
S'bad'
p2020
tp2021
a(I15
I27
F0.875
S'important'
p2022
tp2023
a(I32
I9
F1.0
S'good'
p2024
tp2025
a(I32
I9
F0.625
S'easy'
p2026
tp2027
a(I67
I2
I0
S'next'
p2028
tp2029
a(I67
I2
F1.0
S'best'
p2030
tp2031
a(I81
I4
F-0.625
S'bad'
p2032
tp2033
a(I87
I3
I0
S'only'
p2034
tp2035
a(I91
I13
F-0.625
S'other'
p2036
tp2037
a(I91
I13
F1.0
S'good'
p2038
tp2039
a(I93
I0
F-0.625
S'bad'
p2040
tp2041
a(I98
I4
F1.0
S'best'
p2042
tp2043
a(I101
I11
I0
S'only'
p2044
tp2045
a(I121
I0
F1.0
S'good'
p2046
tp2047
a(I121
I0
I0
S'only'
p2048
tp2049
a(I134
I2
I0
S'only'
p2050
tp2051
a(I135
I3
I0
S'next'
p2052
tp2053
a(I135
I4
F-0.375
S'small'
p2054
tp2055
a(I135
I5
F1.0
S'best'
p2056
tp2057
a(I146
I15
F-0.75
S'little'
p2058
tp2059
a(I146
I19
I0
S'same'
p2060
tp2061
a(I146
I19
F-0.375
S'black'
p2062
tp2063
a(I146
I19
F-0.25
S'cheaper'
p2064
tp2065
a(I149
I3
I0
S'only'
p2066
tp2067
a(I149
I3
F-0.875
S'negative'
p2068
tp2069
a(I155
I9
F1.0
S'good'
p2070
tp2071
a(I155
I22
I0
S'same'
p2072
tp2073
a(I156
I1
I0
S'next'
p2074
tp2075
a(I156
I1
F1.0
S'best'
p2076
tp2077
a(I157
I0
F1.0
S'best'
p2078
tp2079
a(I175
I2
I0
S'only'
p2080
tp2081
a(I188
I51
F1.0
S'good'
p2082
tp2083
a(I188
I58
F1.0
S'good'
p2084
tp2085
a(I188
I58
F-0.625
S'bad'
p2086
tp2087
a(I198
I3
I0
S'only'
p2088
tp2089
a(I218
I2
I0
S'only'
p2090
tp2091
a(I226
I2
F-0.75
S'unable'
p2092
tp2093
a(I226
I2
F0.125
S'last'
p2094
tp2095
a(I231
I0
I0
S'only'
p2096
tp2097
a(I240
I4
F-0.625
S'bad'
p2098
tp2099
a(I250
I5
F-0.625
S'bad'
p2100
tp2101
a(I265
I5
I0
S'great'
p2102
tp2103
a(I292
I0
F-0.25
S'thin'
p2104
tp2105
a(I301
I0
I0
S'most'
p2106
tp2107
a(I303
I0
F-0.625
S'bad'
p2108
tp2109
a(I305
I0
F0.5
S'clear'
p2110
tp2111
a(I305
I0
F0.375
S'loud'
p2112
tp2113
a(I325
I3
F-0.625
S'bad'
p2114
tp2115
a(I331
I12
I0
S'real'
p2116
tp2117
a(I351
I1
F-0.625
S'bad'
p2118
tp2119
a(I351
I4
I0
S'only'
p2120
tp2121
a(I351
I4
F-0.75
S'hate'
p2122
tp2123
a(I359
I27
I0
S'same'
p2124
tp2125
a(I359
I33
F0.125
S'first'
p2126
tp2127
a(I379
I2
I0
S'only'
p2128
tp2129
a(I416
I1
I0
S'closest'
p2130
tp2131
a(I426
I4
I0
S'only'
p2132
tp2133
a(I426
I4
F0.625
S'positive'
p2134
tp2135
a(I446
I6
F-0.25
S'plug'
p2136
tp2137
a(I474
I5
F0.125
S'first'
p2138
tp2139
a(I480
I2
F1.0
S'good'
p2140
tp2141
a(I482
I3
I0
S'only'
p2142
tp2143
a(I488
I1
I0
S'only'
p2144
tp2145
a(I535
I2
F-0.75
S'painful'
p2146
tp2147
as(S'mail'
p2148
S'for'
p2149
S'exchange'
p2150
tp2151
(lp2152
(I132
I0
F0.625
S'easy'
p2153
tp2154
a(I221
I3
F0.375
S'available'
p2155
tp2156
a(I270
I2
I0
S'next'
p2157
tp2158
a(I291
I22
I0
S'great'
p2159
tp2160
a(I323
I10
F-0.625
S'bad'
p2161
tp2162
a(I323
I10
F-0.75
S'difficult'
p2163
tp2164
a(I419
I37
F0.125
S'able'
p2165
tp2166
as(S'purple'
p2167
S'tint'
p2168
tp2169
(lp2170
(I305
I11
F1.0
S'good'
p2171
tp2172
as(S'data'
p2173
tp2174
(lp2175
(I35
I1
F-0.125
S'minimum'
p2176
tp2177
a(I77
I4
I0
S'cable'
p2178
tp2179
a(I79
I1
I0
S'cable'
p2180
tp2181
a(I127
I10
F-0.5
S'sure'
p2182
tp2183
a(I155
I21
F-0.625
S'other'
p2184
tp2185
a(I193
I39
F0.125
S'appropriate'
p2186
tp2187
a(I199
I0
F-0.5
S'separate'
p2188
tp2189
a(I199
I13
F-0.5
S'heavy'
p2190
tp2191
a(I270
I2
I0
S'corporate'
p2192
tp2193
a(I270
I2
F-0.125
S'blackberry'
p2194
tp2195
a(I275
I7
F-0.5
S'sure'
p2196
tp2197
a(I275
I7
I0
S'basic'
p2198
tp2199
a(I398
I2
F-0.625
S'other'
p2200
tp2201
a(I435
I7
F-0.25
g1107
tp2202
a(I508
I0
F0.375
S'much'
p2203
tp2204
a(I523
I4
I0
S'big'
p2205
tp2206
a(I523
I4
I0
S'monthly'
p2207
tp2208
a(I525
I3
F0.5
S'expensive'
p2209
tp2210
a(I525
I16
I0
S'cellular'
p2211
tp2212
as(g1869
S'data'
p2213
S'plan'
p2214
tp2215
(lp2216
(I10
I53
F0.5
S'willing'
p2217
tp2218
a(I35
I1
F-0.125
g2176
tp2219
a(I127
I10
F-0.5
g2182
tp2220
a(I193
I39
F0.125
g2186
tp2221
a(I270
I2
I0
g2192
tp2222
a(I270
I2
F-0.125
g2194
tp2223
a(I275
I7
F-0.5
g2196
tp2224
a(I275
I7
I0
g2198
tp2225
a(I391
I12
I0
g1105
tp2226
a(I435
I7
F-0.25
g1107
tp2227
a(I435
I7
I0
g1109
tp2228
a(I508
I0
F0.375
g2203
tp2229
a(I525
I3
F0.5
g2209
tp2230
as(S'micro'
p2231
S'sd'
p2232
S'card'
p2233
tp2234
(lp2235
(I15
I36
I0
g1081
tp2236
a(I100
I14
F0.875
g1085
tp2237
a(I127
I20
F0.125
S'memory'
p2238
tp2239
a(I270
I15
F0.125
S'able'
p2240
tp2241
a(I321
I16
I0
S'many'
p2242
tp2243
a(I417
I36
I0
S'gig'
p2244
tp2245
as(S'make'
p2246
tp2247
(lp2248
(I247
I5
I0
S'many'
p2249
tp2250
as(S'symbian'
p2251
tp2252
(lp2253
(I70
I10
F0.625
S'acceptable'
p2254
tp2255
a(I422
I22
I0
S'great'
p2256
tp2257
a(I479
I8
I0
S'many'
p2258
tp2259
a(I479
I8
F1.0
S'good'
p2260
tp2261
a(I479
I8
F-0.625
S'free'
p2262
tp2263
as(S'work'
p2264
tp2265
(lp2266
(I97
I5
F-0.625
S'other'
p2267
tp2268
a(I102
I1
I0
S'most'
p2269
tp2270
a(I102
I3
I0
S'forth'
p2271
tp2272
a(I186
I2
F1.0
S'good'
p2273
tp2274
a(I194
I0
F0.25
S'used'
p2275
tp2276
a(I301
I1
F0.125
S'able'
p2277
tp2278
a(I417
I33
F0.625
S'easy'
p2279
tp2280
a(I442
I0
F1.0
S'good'
p2281
tp2282
as(S'google'
p2283
S'maps'
p2284
tp2285
(lp2286
(I0
I0
F-0.625
g1530
tp2287
a(I11
I6
F-0.25
g1387
tp2288
a(I11
I6
I0
g1389
tp2289
a(I11
I7
F-0.25
g1391
tp2290
a(I11
I20
F-0.25
g1393
tp2291
a(I14
I24
F-0.25
g1395
tp2292
a(I14
I29
F-0.25
g1397
tp2293
a(I31
I11
F-0.25
g1401
tp2294
a(I31
I13
I0
g1405
tp2295
a(I31
I13
F-0.25
g1407
tp2296
a(I32
I3
F-0.25
g1409
tp2297
a(I35
I2
F1.0
g1532
tp2298
a(I40
I2
F-0.25
g1411
tp2299
a(I44
I10
F-0.25
g1413
tp2300
a(I82
I6
F-0.25
g1419
tp2301
a(I100
I24
F-0.25
g1421
tp2302
a(I110
I4
F-0.25
g1423
tp2303
a(I127
I19
F-0.25
g1425
tp2304
a(I143
I2
F-0.25
g1427
tp2305
a(I168
I0
F-0.25
g1429
tp2306
a(I211
I10
F-0.625
g1536
tp2307
a(I211
I10
I0
g1431
tp2308
a(I216
I3
F-0.25
g1433
tp2309
a(I221
I3
F-0.25
g1435
tp2310
a(I223
I8
F-0.25
g1437
tp2311
a(I291
I23
F-0.5
g1439
tp2312
a(I336
I3
F-0.25
g1443
tp2313
a(I381
I9
F0.25
g1538
tp2314
a(I382
I3
F-0.25
g1447
tp2315
a(I382
I3
I0
g1449
tp2316
a(I403
I13
F-0.25
g1451
tp2317
a(I403
I15
F-0.25
g1453
tp2318
a(I419
I17
F0.125
g1455
tp2319
as(S'battery'
p2320
S'life'
p2321
tp2322
(lp2323
(I11
I3
I0
g551
tp2324
a(I17
I7
F0.375
g553
tp2325
a(I25
I2
F-0.75
S'short'
p2326
tp2327
a(I39
I1
F0.5
g555
tp2328
a(I44
I17
F0.625
S'pleasant'
p2329
tp2330
a(I56
I2
I0
g557
tp2331
a(I63
I1
F-0.25
g559
tp2332
a(I76
I5
I0
g561
tp2333
a(I76
I5
F1.0
g563
tp2334
a(I79
I1
F-0.5
g565
tp2335
a(I85
I1
F0.625
g567
tp2336
a(I85
I1
I0
g569
tp2337
a(I87
I1
I0
S'great'
p2338
tp2339
a(I99
I5
I0
g571
tp2340
a(I104
I14
F-0.5
g573
tp2341
a(I126
I22
F1.0
g575
tp2342
a(I127
I20
F1.0
g577
tp2343
a(I127
I20
I0
g579
tp2344
a(I158
I4
I0
g581
tp2345
a(I176
I1
I0
g583
tp2346
a(I188
I26
F-0.5
S'long'
p2347
tp2348
a(I217
I1
F0.5
g585
tp2349
a(I233
I7
F0.625
g587
tp2350
a(I233
I7
F1.0
g589
tp2351
a(I263
I2
I0
g591
tp2352
a(I263
I2
I0
g593
tp2353
a(I263
I2
F0.375
g595
tp2354
a(I270
I2
F-0.625
g597
tp2355
a(I295
I2
I0
g599
tp2356
a(I300
I16
F1.0
g601
tp2357
a(I300
I17
F-0.5
g603
tp2358
a(I320
I0
I0
g605
tp2359
a(I353
I17
I0
g607
tp2360
a(I363
I10
F0.125
S'last'
p2361
tp2362
a(I407
I2
I0
g609
tp2363
a(I412
I2
F1.0
S'good'
p2364
tp2365
a(I422
I4
F-0.625
g611
tp2366
a(I435
I3
F1.0
g613
tp2367
a(I487
I0
I0
S'internet'
p2368
tp2369
a(I500
I10
F-0.875
S'negative'
p2370
tp2371
a(I518
I12
I0
S'great'
p2372
tp2373
a(I524
I2
F1.0
g615
tp2374
as(S'made'
p2375
tp2376
(lp2377
(I195
I5
I0
S'taiwan'
p2378
tp2379
as(S'an'
p2380
S'unlimited'
p2381
S'data'
p2382
tp2383
(lp2384
(I435
I7
F-0.25
g1107
tp2385
as(S'back'
p2386
tp2387
(lp2388
(I327
I24
F-0.625
S'clean'
p2389
tp2390
as(g1869
S'touch'
p2391
S'screen'
p2392
tp2393
(lp2394
(I4
I3
F-0.375
S'small'
p2395
tp2396
a(I4
I3
F0.5
S'touch'
p2397
tp2398
a(I7
I6
F0.5
S'touch'
p2399
tp2400
a(I58
I5
F-0.375
S'small'
p2401
tp2402
a(I58
I5
I0
S'big'
p2403
tp2404
a(I58
I5
F-0.375
S'double'
p2405
tp2406
a(I64
I7
F0.5
S'touch'
p2407
tp2408
a(I84
I4
F0.5
S'touch'
p2409
tp2410
a(I85
I5
F0.5
S'touch'
p2411
tp2412
a(I98
I5
F0.25
S'main'
p2413
tp2414
a(I98
I5
F-0.75
S'single'
p2415
tp2416
a(I126
I17
F0.5
S'touch'
p2417
tp2418
a(I141
I1
F0.5
S'touch'
p2419
tp2420
a(I188
I8
I0
S'big'
p2421
tp2422
a(I197
I3
F0.25
S'bigger'
p2423
tp2424
a(I197
I3
F0.125
S'capable'
p2425
tp2426
a(I256
I7
F-0.5
S'touched'
p2427
tp2428
a(I256
I7
I0
S'wide'
p2429
tp2430
a(I257
I3
F0.5
S'touch'
p2431
tp2432
a(I300
I14
F0.5
S'touch'
p2433
tp2434
a(I308
I11
F0.5
S'touch'
p2435
tp2436
a(I325
I16
F0.5
S'touch'
p2437
tp2438
a(I337
I6
F0.5
S'touch'
p2439
tp2440
a(I338
I6
I0
S'wide'
p2441
tp2442
a(I353
I13
F0.5
S'touch'
p2443
tp2444
a(I434
I0
F0.5
S'touch'
p2445
tp2446
a(I444
I1
I0
S'big'
p2447
tp2448
a(I479
I5
F-0.375
S'small'
p2449
tp2450
a(I518
I13
F0.5
S'touch'
p2451
tp2452
as(S'blue'
p2453
S'tooth'
p2454
tp2455
(lp2456
(I205
I5
I0
S'blue'
p2457
tp2458
a(I237
I7
I0
S'blue'
p2459
tp2460
a(I237
I16
I0
S'blue'
p2461
tp2462
a(I237
I16
I0
S'blue'
p2463
tp2464
a(I293
I10
I0
S'blue'
p2465
tp2466
a(I489
I3
I0
S'blue'
p2467
tp2468
as(S'life'
p2469
tp2470
(lp2471
(I11
I3
I0
g551
tp2472
a(I17
I7
F0.375
g553
tp2473
a(I39
I1
F0.5
g555
tp2474
a(I44
I17
F0.625
g2329
tp2475
a(I70
I12
F0.5
S'personal'
p2476
tp2477
a(I76
I5
I0
g561
tp2478
a(I76
I5
F1.0
g563
tp2479
a(I85
I1
I0
g569
tp2480
a(I99
I5
I0
g571
tp2481
a(I126
I22
F1.0
g575
tp2482
a(I127
I20
I0
g579
tp2483
a(I155
I1
F-0.375
S'daily'
p2484
tp2485
a(I158
I4
I0
g581
tp2486
a(I233
I7
F1.0
g589
tp2487
a(I244
I3
F0.625
S'easier'
p2488
tp2489
a(I263
I2
I0
g591
tp2490
a(I270
I2
F-0.625
g597
tp2491
a(I274
I2
I0
S'useful'
p2492
tp2493
a(I274
I2
F0.5
S'personal'
p2494
tp2495
a(I353
I17
I0
g607
tp2496
a(I353
I18
F1.0
S'good'
p2497
tp2498
a(I407
I2
I0
g609
tp2499
a(I412
I2
F1.0
g2364
tp2500
a(I435
I3
F1.0
g613
tp2501
a(I500
I10
F-0.875
g2370
tp2502
as(S'nokia'
p2503
S'e71'
p2504
tp2505
(lp2506
(I21
I0
F0.5
g948
tp2507
a(I33
I1
F0.125
g950
tp2508
a(I70
I7
I0
g717
tp2509
a(I70
I7
I0
g953
tp2510
a(I104
I14
F-0.125
g955
tp2511
a(I104
I16
F-0.25
S'ready'
p2512
tp2513
a(I126
I0
F0.125
g731
tp2514
a(I136
I0
F0.375
g739
tp2515
a(I149
I4
F-0.625
S'other'
p2516
tp2517
a(I153
I3
F-0.875
g743
tp2518
a(I155
I1
F0.625
g745
tp2519
a(I155
I8
F0.875
S'happy'
p2520
tp2521
a(I179
I1
F-0.125
S'overall'
p2522
tp2523
a(I191
I0
I0
S'few'
p2524
tp2525
a(I216
I0
F0.875
g775
tp2526
a(I252
I2
I0
S'full'
p2527
tp2528
a(I270
I0
F0.125
g785
tp2529
a(I270
I2
F0.875
S'happy'
p2530
tp2531
a(I273
I3
F0.625
S'easy'
p2532
tp2533
a(I273
I3
F-0.375
S'simple'
p2534
tp2535
a(I315
I0
F0.375
S'new'
p2536
tp2537
a(I348
I2
F-0.625
S'other'
p2538
tp2539
a(I353
I3
F1.0
g960
tp2540
a(I371
I3
F0.375
g813
tp2541
a(I375
I0
F0.25
g817
tp2542
a(I392
I3
F-0.375
g963
tp2543
a(I403
I15
F1.0
g827
tp2544
a(I438
I8
F0.625
S'easier'
p2545
tp2546
a(I518
I0
F0.625
g965
tp2547
a(I518
I0
I0
g967
tp2548
a(I518
I0
F0.625
g969
tp2549
a(I518
I9
F0.625
g971
tp2550
a(I525
I13
F-0.625
g973
tp2551
a(I530
I1
F0.75
g975
tp2552
a(I530
I1
I0
g977
tp2553
a(I533
I4
F0.5
S'expensive'
p2554
tp2555
as(S'qwerty'
p2556
tp2557
(lp2558
(I7
I7
I0
S'useful'
p2559
tp2560
a(I11
I11
I0
g314
tp2561
a(I58
I5
F1.0
g316
tp2562
a(I112
I2
I0
g246
tp2563
a(I117
I16
I0
g248
tp2564
a(I127
I24
I0
g250
tp2565
a(I146
I54
I0
S'full'
p2566
tp2567
a(I155
I2
I0
S'tactile'
p2568
tp2569
a(I155
I5
F-0.625
S'other'
p2570
tp2571
a(I155
I9
F0.25
S'familiar'
p2572
tp2573
a(I223
I4
I0
S'full'
p2574
tp2575
a(I291
I8
F0.25
S'responsive'
p2576
tp2577
a(I291
I8
F1.0
S'good'
p2578
tp2579
a(I291
I8
I0
S'sized'
p2580
tp2581
a(I313
I1
I0
g252
tp2582
a(I323
I24
I0
g254
tp2583
a(I324
I0
F1.0
S'good'
p2584
tp2585
a(I338
I2
F-0.375
S'smooth'
p2586
tp2587
a(I365
I2
F-0.375
S'small'
p2588
tp2589
a(I365
I2
F-0.25
S'cramped'
p2590
tp2591
a(I395
I1
F0.25
S'unlocked'
p2592
tp2593
a(I422
I29
I0
g257
tp2594
a(I435
I7
I0
g259
tp2595
a(I483
I1
F0.625
S'easy'
p2596
tp2597
a(I502
I3
I0
S'full'
p2598
tp2599
a(I530
I0
I0
g261
tp2600
as(S'call'
p2601
tp2602
(lp2603
(I45
I11
F0.5
S'second'
p2604
tp2605
a(I45
I19
F1.0
S'better'
p2606
tp2607
a(I72
I11
F-0.125
S'traffic'
p2608
tp2609
a(I125
I11
F0.125
g189
tp2610
a(I125
I11
I0
g191
tp2611
a(I193
I46
F0.5
g197
tp2612
a(I193
I49
F1.0
g201
tp2613
a(I208
I5
F0.125
S'able'
p2614
tp2615
a(I208
I5
F0.125
S'able'
p2616
tp2617
a(I215
I12
I0
S'least'
p2618
tp2619
a(I238
I8
I0
g203
tp2620
a(I246
I1
F0.875
g205
tp2621
a(I246
I1
F0.125
g207
tp2622
a(I251
I3
F-0.75
S'single'
p2623
tp2624
a(I336
I1
I0
g215
tp2625
a(I374
I6
F0.5
S'advanced'
p2626
tp2627
a(I374
I9
F0.5
S'advanced'
p2628
tp2629
a(I396
I0
F0.125
g225
tp2630
a(I417
I29
I0
g227
tp2631
a(I419
I0
I0
g229
tp2632
a(I422
I46
F0.625
S'convenient'
p2633
tp2634
a(I515
I2
F0.25
g231
tp2635
as(S'plan'
p2636
tp2637
(lp2638
(I10
I53
F0.5
g2217
tp2639
a(I17
I1
F-0.25
S'lowest'
p2640
tp2641
a(I55
I1
F0.5
S'expensive'
p2642
tp2643
a(I88
I2
I0
S'cool'
p2644
tp2645
a(I391
I12
I0
g1105
tp2646
a(I435
I7
I0
g1109
tp2647
a(I451
I7
I0
S'current'
p2648
tp2649
as(g871
g872
S'pocket'
p2650
tp2651
(lp2652
(I10
I77
F-0.75
S'difficult'
p2653
tp2654
a(I47
I5
F-0.125
S'pant'
p2655
tp2656
a(I47
I5
I0
S'great'
p2657
tp2658
a(I112
I5
F0.625
S'easier'
p2659
tp2660
a(I112
I5
I0
S'more'
p2661
tp2662
a(I126
I2
I0
S'very'
p2663
tp2664
a(I126
I2
F0.125
S'popular'
p2665
tp2666
a(I217
I7
I0
S'pouch'
p2667
tp2668
a(I422
I46
F-0.125
S'pant'
p2669
tp2670
as(S'great'
p2671
tp2672
(lp2673
(I97
I17
F0.875
S'music'
p2674
tp2675
as(S'battery'
p2676
tp2677
(lp2678
(I10
I30
I0
S'large'
p2679
tp2680
a(I15
I21
F0.625
S'replaceable'
p2681
tp2682
a(I25
I2
F-0.75
g2326
tp2683
a(I56
I2
I0
g557
tp2684
a(I63
I1
F-0.25
g559
tp2685
a(I79
I1
F-0.5
g565
tp2686
a(I85
I1
F0.625
g567
tp2687
a(I87
I1
I0
g2338
tp2688
a(I97
I24
F0.125
S'last'
p2689
tp2690
a(I101
I1
I0
S'more'
p2691
tp2692
a(I104
I14
F-0.5
g573
tp2693
a(I126
I24
F1.0
S'good'
p2694
tp2695
a(I126
I24
I0
S'keyboard'
p2696
tp2697
a(I127
I20
F1.0
g577
tp2698
a(I176
I1
I0
g583
tp2699
a(I188
I26
F-0.5
g2347
tp2700
a(I217
I1
F0.5
g585
tp2701
a(I219
I18
F0.5
S'expensive'
p2702
tp2703
a(I229
I4
I0
S'entire'
p2704
tp2705
a(I233
I7
F0.625
g587
tp2706
a(I242
I1
F1.0
S'good'
p2707
tp2708
a(I263
I2
I0
g593
tp2709
a(I263
I2
F0.375
g595
tp2710
a(I295
I2
I0
g599
tp2711
a(I300
I16
F1.0
g601
tp2712
a(I300
I17
F-0.5
g603
tp2713
a(I313
I2
F1.0
S'good'
p2714
tp2715
a(I320
I0
I0
g605
tp2716
a(I329
I1
F1.0
S'good'
p2717
tp2718
a(I363
I10
F0.125
g2361
tp2719
a(I422
I4
F-0.625
g611
tp2720
a(I422
I15
F0.375
S'new'
p2721
tp2722
a(I436
I1
F0.375
S'new'
p2723
tp2724
a(I446
I7
F-0.625
S'bad'
p2725
tp2726
a(I483
I0
F-0.5
S'poor'
p2727
tp2728
a(I487
I0
I0
g2368
tp2729
a(I518
I12
I0
g2372
tp2730
a(I524
I2
F1.0
g615
tp2731
as(S'cell'
p2732
tp2733
(lp2734
(I37
I4
I0
S'real'
p2735
tp2736
a(I37
I8
F1.0
S'good'
p2737
tp2738
a(I83
I1
I0
S'old'
p2739
tp2740
a(I111
I6
F-0.125
S'overall'
p2741
tp2742
a(I125
I11
F0.75
S'due'
p2743
tp2744
a(I125
I11
F-0.25
S'low'
p2745
tp2746
a(I125
I11
I0
S'signal'
p2747
tp2748
a(I131
I1
F1.0
S'best'
p2749
tp2750
a(I172
I0
F1.0
S'best'
p2751
tp2752
a(I185
I0
F1.0
S'best'
p2753
tp2754
a(I196
I0
I0
S'high'
p2755
tp2756
a(I236
I0
F1.0
S'good'
p2757
tp2758
a(I249
I0
F-0.5
S'heavy'
p2759
tp2760
a(I253
I0
I0
S'great'
p2761
tp2762
a(I263
I2
F-0.625
S'moderate'
p2763
tp2764
a(I272
I0
F1.0
S'best'
p2765
tp2766
a(I298
I8
F0.5
S'expensive'
p2767
tp2768
a(I347
I1
F1.0
S'good'
p2769
tp2770
a(I398
I0
F0.875
S'nice'
p2771
tp2772
a(I422
I57
F0.125
S'first'
p2773
tp2774
a(I451
I17
F-0.5
S'heavy'
p2775
tp2776
a(I452
I0
I0
S'big'
p2777
tp2778
a(I458
I0
F1.0
S'best'
p2779
tp2780
a(I498
I0
F0.5
S'second'
p2781
tp2782
a(I498
I0
I0
S'latest'
p2783
tp2784
a(I501
I0
F1.0
S'best'
p2785
tp2786
a(I506
I0
F1.0
S'best'
p2787
tp2788
a(I506
I0
F1.0
S'best'
p2789
tp2790
a(I518
I5
F-0.5
S'regular'
p2791
tp2792
as(S'calls'
p2793
tp2794
(lp2795
(I37
I4
I0
S'such'
p2796
tp2797
a(I47
I1
I0
S'few'
p2798
tp2799
a(I47
I1
F-0.25
S'dropped'
p2800
tp2801
a(I47
I2
F-0.625
S'bad'
p2802
tp2803
a(I47
I2
F-0.25
S'dropped'
p2804
tp2805
a(I127
I20
F-0.5
S'international'
p2806
tp2807
a(I155
I12
F-0.25
S'dropped'
p2808
tp2809
a(I193
I32
I0
S'great'
p2810
tp2811
a(I233
I20
F0.5
S'clear'
p2812
tp2813
a(I260
I4
I0
S'most'
p2814
tp2815
a(I346
I1
F-0.25
S'higher'
p2816
tp2817
a(I359
I42
I0
S'fewer'
p2818
tp2819
a(I366
I14
I0
S'few'
p2820
tp2821
a(I366
I14
F-0.25
S'dropped'
p2822
tp2823
a(I387
I10
I0
S'great'
p2824
tp2825
a(I391
I12
F0.5
S'clear'
p2826
tp2827
a(I429
I0
F-0.5
S'international'
p2828
tp2829
a(I534
I14
F0.375
S'reliable'
p2830
tp2831
as(S'able'
p2832
S'to'
p2833
S'use'
p2834
tp2835
(lp2836
(I29
I5
F-0.75
S'little'
p2837
tp2838
a(I82
I12
F-0.375
S'simple'
p2839
tp2840
a(I228
I9
F0.5
S'personal'
p2841
tp2842
a(I265
I4
F-0.5
S'heavy'
p2843
tp2844
a(I265
I4
F1.0
S'good'
p2845
tp2846
as(S'easy'
p2847
tp2848
(lp2849
(I18
I5
F0.375
S'reliable'
p2850
tp2851
as(S'time'
p2852
tp2853
(lp2854
(I4
I3
I0
S'same'
p2855
tp2856
a(I10
I64
I0
S'break-in'
p2857
tp2858
a(I15
I25
F0.125
S'first'
p2859
tp2860
a(I15
I28
F0.125
S'first'
p2861
tp2862
a(I15
I39
F-0.75
g516
tp2863
a(I26
I1
I0
S'real'
p2864
tp2865
a(I53
I0
F-0.25
S'low'
p2866
tp2867
a(I53
I0
F-0.25
S'intensive'
p2868
tp2869
a(I56
I6
F0.125
S'first'
p2870
tp2871
a(I64
I6
F0.125
S'first'
p2872
tp2873
a(I82
I11
F0.5
S'second'
p2874
tp2875
a(I89
I2
F-0.375
S'manual'
p2876
tp2877
a(I91
I4
F-0.75
S'single'
p2878
tp2879
a(I92
I4
F0.125
S'first'
p2880
tp2881
a(I98
I3
F0.125
S'last'
p2882
tp2883
a(I99
I1
F-0.75
g518
tp2884
a(I99
I2
F0.25
S'bigger'
p2885
tp2886
a(I102
I2
F-0.875
S'hard'
p2887
tp2888
a(I114
I0
F-0.875
S'unhappy'
p2889
tp2890
a(I117
I7
F0.5
S'whole'
p2891
tp2892
a(I128
I9
F-0.75
S'difficult'
p2893
tp2894
a(I129
I3
F-0.875
S'hard'
p2895
tp2896
a(I146
I6
F0.375
S'busy'
p2897
tp2898
a(I146
I26
I0
S'same'
p2899
tp2900
a(I155
I1
I0
g1874
tp2901
a(I155
I1
F-0.5
g1876
tp2902
a(I155
I29
F0.125
g520
tp2903
a(I155
I44
F0.125
S'first'
p2904
tp2905
a(I157
I0
I0
S'few'
p2906
tp2907
a(I168
I0
F0.125
S'first'
p2908
tp2909
a(I170
I6
F0.125
S'last'
p2910
tp2911
a(I182
I0
F-0.5
g1878
tp2912
a(I188
I56
I0
S'same'
p2913
tp2914
a(I215
I16
I0
S'more'
p2915
tp2916
a(I218
I1
I0
g1880
tp2917
a(I219
I3
F0.125
g522
tp2918
a(I219
I4
F0.375
S'mean'
p2919
tp2920
a(I230
I1
F-0.5
g1882
tp2921
a(I244
I0
F-0.5
g1884
tp2922
a(I280
I3
F-0.75
S'single'
p2923
tp2924
a(I296
I2
F-0.875
S'hard'
p2925
tp2926
a(I319
I1
F0.5
S'accurate'
p2927
tp2928
a(I354
I8
F-0.5
g1886
tp2929
a(I366
I0
F1.0
S'better'
p2930
tp2931
a(I366
I25
F0.5
S'whole'
p2932
tp2933
a(I422
I11
I0
S'considerable'
p2934
tp2935
a(I425
I7
F0.125
S'first'
p2936
tp2937
a(I429
I0
F0.125
S'first'
p2938
tp2939
a(I430
I0
F-0.875
S'hard'
p2940
tp2941
a(I448
I6
F-0.5
g1888
tp2942
a(I467
I0
F-0.5
g1890
tp2943
a(I500
I11
F0.5
S'second'
p2944
tp2945
a(I501
I11
I0
S'entire'
p2946
tp2947
a(I509
I0
I0
S'same'
p2948
tp2949
a(I512
I10
I0
S'minimal'
p2950
tp2951
a(I513
I5
I0
S'same'
p2952
tp2953
a(I530
I1
F0.125
S'first'
p2954
tp2955
a(I538
I0
I0
S'most'
p2956
tp2957
as(S'find'
p2958
tp2959
(lp2960
(I24
I0
I0
S'great'
p2961
tp2962
as(S'support'
p2963
tp2964
(lp2965
(I10
I85
I0
S'least'
p2966
tp2967
a(I10
I85
F1.0
S'better'
p2968
tp2969
a(I126
I3
I0
S'great'
p2970
tp2971
a(I259
I0
F-0.875
S'worst'
p2972
tp2973
a(I270
I2
F-0.25
S'late'
p2974
tp2975
a(I270
I19
I0
S'great'
p2976
tp2977
as(S'touch'
p2978
S'screen'
p2979
tp2980
(lp2981
(I4
I3
F-0.375
g2395
tp2982
a(I4
I3
F0.5
g2397
tp2983
a(I7
I6
F0.5
g2399
tp2984
a(I58
I5
F-0.375
g2401
tp2985
a(I58
I5
I0
g2403
tp2986
a(I58
I5
F-0.375
g2405
tp2987
a(I64
I7
F0.5
g2407
tp2988
a(I84
I4
F0.5
g2409
tp2989
a(I85
I5
F0.5
g2411
tp2990
a(I98
I5
F0.25
g2413
tp2991
a(I98
I5
F-0.75
g2415
tp2992
a(I126
I17
F0.5
g2417
tp2993
a(I141
I1
F0.5
g2419
tp2994
a(I188
I8
I0
g2421
tp2995
a(I197
I3
F0.25
g2423
tp2996
a(I197
I3
F0.125
g2425
tp2997
a(I256
I7
F-0.5
g2427
tp2998
a(I256
I7
I0
g2429
tp2999
a(I257
I3
F0.5
g2431
tp3000
a(I300
I14
F0.5
g2433
tp3001
a(I308
I11
F0.5
g2435
tp3002
a(I325
I16
F0.5
g2437
tp3003
a(I337
I6
F0.5
g2439
tp3004
a(I338
I6
I0
g2441
tp3005
a(I353
I13
F0.5
g2443
tp3006
a(I420
I2
F0.5
S'touch'
p3007
tp3008
a(I434
I0
F0.5
g2445
tp3009
a(I444
I1
I0
g2447
tp3010
a(I479
I5
F-0.375
g2449
tp3011
a(I518
I13
F0.5
g2451
tp3012
as(S'little'
p3013
tp3014
(lp3015
(I270
I12
F-0.25
S'thin'
p3016
tp3017
as(S'user'
p3018
tp3019
(lp3020
(I0
I0
I0
S'great'
p3021
tp3022
a(I18
I0
I0
S'more'
p3023
tp3024
a(I98
I5
F-0.5
S'heavy'
p3025
tp3026
a(I127
I12
I0
S'enter'
p3027
tp3028
a(I155
I15
I0
S'great'
p3029
tp3030
a(I162
I2
I0
S'entire'
p3031
tp3032
a(I197
I1
F-0.125
S'empower'
p3033
tp3034
a(I348
I18
I0
S'stable'
p3035
tp3036
a(I348
I18
I0
S'large'
p3037
tp3038
a(I417
I14
I0
S'real'
p3039
tp3040
a(I425
I1
F0.5
S'advanced'
p3041
tp3042
a(I425
I5
I0
S'entire'
p3043
tp3044
a(I451
I4
F0.5
S'personal'
p3045
tp3046
a(I466
I1
F-0.75
S'wrong'
p3047
tp3048
as(S'screen'
p3049
tp3050
(lp3051
(I4
I3
F-0.375
g2395
tp3052
a(I4
I3
F0.5
g2397
tp3053
a(I7
I6
F0.5
g2399
tp3054
a(I10
I32
F-0.75
S'brightest'
p3055
tp3056
a(I10
I67
F-0.75
S'bright'
p3057
tp3058
a(I10
I67
F0.25
S'sharp'
p3059
tp3060
a(I14
I39
F0.375
S'standby'
p3061
tp3062
a(I15
I6
F0.25
S'bigger'
p3063
tp3064
a(I43
I2
F-0.375
S'smaller'
p3065
tp3066
a(I58
I4
F-0.375
S'small'
p3067
tp3068
a(I58
I5
F-0.375
g2401
tp3069
a(I58
I5
I0
g2403
tp3070
a(I58
I5
F-0.375
g2405
tp3071
a(I64
I7
F0.5
g2407
tp3072
a(I66
I12
I0
S'big'
p3073
tp3074
a(I66
I12
F1.0
S'best'
p3075
tp3076
a(I66
I12
F-0.375
S'small'
p3077
tp3078
a(I66
I13
I0
S'same'
p3079
tp3080
a(I84
I4
F0.5
g2409
tp3081
a(I85
I5
F0.5
g2411
tp3082
a(I94
I3
F0.5
S'clear'
p3083
tp3084
a(I98
I5
F0.25
g2413
tp3085
a(I101
I11
F0.25
S'bigger'
p3086
tp3087
a(I112
I2
I0
S'large'
p3088
tp3089
a(I112
I2
F-0.375
S'small'
p3090
tp3091
a(I126
I17
F0.5
g2417
tp3092
a(I141
I1
F0.5
g2419
tp3093
a(I146
I4
F-0.375
S'small'
p3094
tp3095
a(I155
I25
I0
g1968
tp3096
a(I158
I4
F-0.375
S'smaller'
p3097
tp3098
a(I158
I4
I0
S'large'
p3099
tp3100
a(I162
I7
I0
S'great'
p3101
tp3102
a(I166
I5
I0
S'great'
p3103
tp3104
a(I166
I7
I0
S'cool'
p3105
tp3106
a(I182
I12
F-0.75
S'bright'
p3107
tp3108
a(I188
I8
I0
g2421
tp3109
a(I193
I36
I0
S'big'
p3110
tp3111
a(I198
I2
I0
S'quick'
p3112
tp3113
a(I198
I2
I0
S'quick'
p3114
tp3115
a(I211
I6
I0
S'large'
p3116
tp3117
a(I211
I8
F1.0
S'good'
p3118
tp3119
a(I217
I4
F0.25
g1970
tp3120
a(I223
I16
I0
S'full'
p3121
tp3122
a(I236
I4
F-0.375
S'black'
p3123
tp3124
a(I237
I4
F0.25
S'main'
p3125
tp3126
a(I256
I7
F-0.5
g2427
tp3127
a(I256
I7
I0
g2429
tp3128
a(I256
I9
I0
S'wider'
p3129
tp3130
a(I257
I3
F0.5
g2431
tp3131
a(I257
I12
F0.125
S'protective'
p3132
tp3133
a(I265
I2
F1.0
S'good'
p3134
tp3135
a(I270
I11
F0.625
g1972
tp3136
a(I300
I14
F0.5
g2433
tp3137
a(I308
I11
F0.5
g2435
tp3138
a(I308
I13
F-0.375
S'smaller'
p3139
tp3140
a(I323
I13
I0
S'wide'
p3141
tp3142
a(I325
I16
F0.5
g2437
tp3143
a(I328
I7
I0
S'full'
p3144
tp3145
a(I337
I6
F0.5
g2439
tp3146
a(I338
I5
F-0.625
S'other'
p3147
tp3148
a(I353
I13
F0.5
g2443
tp3149
a(I358
I11
I0
S'same'
p3150
tp3151
a(I381
I6
I0
S'limited'
p3152
tp3153
a(I391
I4
F0.625
S'easy'
p3154
tp3155
a(I401
I0
F0.5
S'clear'
p3156
tp3157
a(I402
I5
F0.25
S'bigger'
p3158
tp3159
a(I411
I2
I0
S'great'
p3160
tp3161
a(I413
I4
F0.25
S'main'
p3162
tp3163
a(I417
I21
F0.625
S'easy'
p3164
tp3165
a(I420
I2
F0.5
g3007
tp3166
a(I420
I5
F0.5
S'clear'
p3167
tp3168
a(I422
I26
F-0.375
S'small'
p3169
tp3170
a(I434
I0
F0.5
g2445
tp3171
a(I441
I3
F-0.375
S'small'
p3172
tp3173
a(I444
I1
I0
g2447
tp3174
a(I448
I4
F0.5
S'clear'
p3175
tp3176
a(I463
I2
F0.25
S'main'
p3177
tp3178
a(I469
I2
F0.625
S'easy'
p3179
tp3180
a(I474
I2
I0
S'big'
p3181
tp3182
a(I477
I3
F0.25
S'sharp'
p3183
tp3184
a(I479
I5
F-0.375
g2449
tp3185
a(I479
I6
F-0.375
S'small'
p3186
tp3187
a(I518
I13
F0.5
g2451
tp3188
a(I525
I26
F-0.375
S'smaller'
p3189
tp3190
as(S'nokia'
p3191
S'pc'
p3192
S'suite'
p3193
tp3194
(lp3195
(I153
I3
F-0.875
g743
tp3196
a(I153
I3
F0.125
S'first'
p3197
tp3198
a(I305
I0
F0.25
S'powerful'
p3199
tp3200
a(I382
I3
F0.75
g819
tp3201
a(I480
I3
F-0.375
S'smooth'
p3202
tp3203
as(S'everything'
p3204
tp3205
(lp3206
(I50
I18
F0.125
S'able'
p3207
tp3208
a(I142
I2
F-0.25
S'google'
p3209
tp3210
a(I146
I20
I0
S'sprint'
p3211
tp3212
a(I148
I3
I0
S'great'
p3213
tp3214
a(I181
I0
I0
S'great'
p3215
tp3216
a(I228
I9
F0.125
S'able'
p3217
tp3218
a(I229
I1
I0
S'mobile'
p3219
tp3220
a(I229
I1
F0.25
S'professional'
p3221
tp3222
a(I258
I1
I0
S'more'
p3223
tp3224
a(I266
I3
F1.0
S'good'
p3225
tp3226
a(I292
I0
I0
S'proportionate'
p3227
tp3228
a(I325
I7
F0.625
S'necessary'
p3229
tp3230
a(I359
I40
F-0.75
S'wrong'
p3231
tp3232
a(I391
I5
F0.625
S'easy'
p3233
tp3234
a(I400
I1
F1.0
S'good'
p3235
tp3236
a(I451
I14
F0.375
S'much'
p3237
tp3238
a(I460
I2
F0.625
S'easy'
p3239
tp3240
as(S'camera'
p3241
tp3242
(lp3243
(I10
I85
F1.0
S'better'
p3244
tp3245
a(I15
I44
F1.0
S'good'
p3246
tp3247
a(I26
I4
F1.0
S'good'
p3248
tp3249
a(I30
I1
I0
S'great'
p3250
tp3251
a(I32
I6
F0.625
S'easy'
p3252
tp3253
a(I44
I27
F1.0
S'good'
p3254
tp3255
a(I44
I30
F0.125
S'digital'
p3256
tp3257
a(I47
I10
F1.0
S'good'
p3258
tp3259
a(I62
I1
I0
S'great'
p3260
tp3261
a(I66
I27
I0
S'great'
p3262
tp3263
a(I97
I16
F0.5
S'clear'
p3264
tp3265
a(I102
I3
I0
S'great'
p3266
tp3267
a(I110
I9
F0.125
S'digital'
p3268
tp3269
a(I117
I10
F1.0
S'good'
p3270
tp3271
a(I154
I1
F1.0
S'better'
p3272
tp3273
a(I155
I34
F0.125
S'tolerable'
p3274
tp3275
a(I162
I6
F1.0
S'good'
p3276
tp3277
a(I183
I19
F0.875
S'music'
p3278
tp3279
a(I198
I4
F1.0
S'good'
p3280
tp3281
a(I198
I4
I0
S'pic'
p3282
tp3283
a(I257
I6
F-0.25
S'disappointing'
p3284
tp3285
a(I262
I0
F-0.875
S'awful'
p3286
tp3287
a(I262
I1
F0.375
S'available'
p3288
tp3289
a(I265
I10
F1.0
S'good'
p3290
tp3291
a(I284
I6
F0.625
S'acceptable'
p3292
tp3293
a(I295
I5
F-0.5
S'poor'
p3294
tp3295
a(I295
I6
F1.0
S'good'
p3296
tp3297
a(I318
I1
I0
S'great'
p3298
tp3299
a(I323
I16
I0
S'adequate'
p3300
tp3301
a(I329
I1
F0.625
S'cover'
p3302
tp3303
a(I329
I1
F0.875
S'nice'
p3304
tp3305
a(I331
I15
F0.625
S'decent'
p3306
tp3307
a(I348
I29
F0.5
S'so-so'
p3308
tp3309
a(I348
I30
F0.875
S'important'
p3310
tp3311
a(I354
I9
F0.5
g1492
tp3312
a(I357
I12
F0.875
g1494
tp3313
a(I357
I12
F0.875
g1496
tp3314
a(I357
I12
F0.875
g1498
tp3315
a(I357
I12
I0
g1500
tp3316
a(I374
I33
I0
S'great'
p3317
tp3318
a(I380
I0
I0
S'great'
p3319
tp3320
a(I383
I0
F-0.5
S'less'
p3321
tp3322
a(I383
I0
F0.25
S'stellar'
p3323
tp3324
a(I383
I2
F-0.25
S'low'
p3325
tp3326
a(I383
I2
F-0.625
S'light'
p3327
tp3328
a(I390
I0
F0.625
S'perfect'
p3329
tp3330
a(I391
I18
F0.625
S'easy'
p3331
tp3332
a(I393
I5
I0
S'great'
p3333
tp3334
a(I397
I1
F-0.625
S'bad'
p3335
tp3336
a(I398
I0
F1.0
S'good'
p3337
tp3338
a(I402
I12
F1.0
S'better'
p3339
tp3340
a(I406
I1
F1.0
g1502
tp3341
a(I408
I1
I0
S'great'
p3342
tp3343
a(I420
I5
F-0.25
S'thin'
p3344
tp3345
a(I420
I5
F0.75
S'beautiful'
p3346
tp3347
a(I427
I6
F1.0
S'good'
p3348
tp3349
a(I429
I2
I0
S'great'
p3350
tp3351
a(I439
I0
F1.0
S'good'
p3352
tp3353
a(I446
I9
F0.125
S'digital'
p3354
tp3355
a(I451
I9
F1.0
S'good'
p3356
tp3357
a(I463
I0
F-0.25
S'low'
p3358
tp3359
a(I463
I0
F-0.625
S'light'
p3360
tp3361
a(I487
I0
F1.0
S'good'
p3362
tp3363
a(I497
I0
I0
S'fare'
p3364
tp3365
a(I500
I7
F0.875
S'nice'
p3366
tp3367
a(I513
I8
F1.0
S'good'
p3368
tp3369
a(I530
I1
F-0.375
S'daily'
p3370
tp3371
as(S'using'
p3372
tp3373
(lp3374
(I346
I6
F-0.625
S'free'
p3375
tp3376
a(I382
I4
F0.625
S'major'
p3377
tp3378
as(S'bluetooth'
p3379
tp3380
(lp3381
(I10
I81
F-0.625
S'other'
p3382
tp3383
a(I10
I81
F-0.625
S'other'
p3384
tp3385
a(I50
I8
F-0.625
S'other'
p3386
tp3387
a(I155
I24
I0
S'automatic'
p3388
tp3389
a(I216
I4
I0
S'full'
p3390
tp3391
a(I238
I5
I0
S'incredible'
p3392
tp3393
a(I395
I12
F-0.5
S'less'
p3394
tp3395
a(I412
I19
I0
S'podcast'
p3396
tp3397
a(I435
I3
F-0.375
S'unacceptable'
p3398
tp3399
a(I513
I16
F-0.625
S'glad'
p3400
tp3401
as(S'take'
p3402
tp3403
(lp3404
(I359
I39
F0.125
S'first'
p3405
tp3406
a(I359
I39
F-0.75
S'wrong'
p3407
tp3408
as(S'mobile'
p3409
tp3410
(lp3411
(I66
I20
F-0.25
S'google'
p3412
tp3413
a(I295
I2
I0
S'great'
p3414
tp3415
as(S'feature'
p3416
tp3417
(lp3418
(I2
I5
F0.375
S'available'
p3419
tp3420
a(I2
I5
F0.875
S'nice'
p3421
tp3422
a(I2
I6
I0
S'great'
p3423
tp3424
a(I3
I2
I0
S'rich'
p3425
tp3426
a(I14
I44
F1.0
S'best'
p3427
tp3428
a(I26
I4
F1.0
S'good'
p3429
tp3430
a(I70
I10
F0.875
S'important'
p3431
tp3432
a(I82
I5
F0.375
S'available'
p3433
tp3434
a(I102
I3
F-0.25
S'disappointing'
p3435
tp3436
a(I173
I0
I0
S'connect'
p3437
tp3438
a(I200
I8
I0
S'such'
p3439
tp3440
a(I237
I16
F0.625
S'easy'
p3441
tp3442
a(I257
I6
F0.875
S'nice'
p3443
tp3444
a(I295
I7
F1.0
S'better'
p3445
tp3446
a(I310
I5
F0.875
S'nice'
p3447
tp3448
a(I323
I6
F1.0
S'best'
p3449
tp3450
a(I328
I3
I0
S'cool'
p3451
tp3452
a(I353
I11
I0
S'great'
p3453
tp3454
a(I353
I13
I0
S'great'
p3455
tp3456
a(I419
I34
F1.0
S'best'
p3457
tp3458
a(I429
I0
F-0.75
S'single'
p3459
tp3460
a(I438
I3
I0
S'great'
p3461
tp3462
a(I438
I3
F0.125
S'able'
p3463
tp3464
a(I469
I1
F0.25
S'powerful'
p3465
tp3466
a(I481
I4
F1.0
S'best'
p3467
tp3468
as(S'works'
p3469
tp3470
(lp3471
(I11
I16
F-0.125
S'overall'
p3472
tp3473
a(I14
I9
I0
S'dictionary'
p3474
tp3475
a(I14
I9
I0
S'great'
p3476
tp3477
a(I84
I2
F0.625
S'easy'
p3478
tp3479
a(I94
I3
I0
S'great'
p3480
tp3481
a(I97
I13
F0.625
S'easy'
p3482
tp3483
a(I139
I0
I0
S'great'
p3484
tp3485
a(I171
I0
I0
S'great'
p3486
tp3487
a(I207
I4
I0
S'same'
p3488
tp3489
a(I232
I5
I0
S'great'
p3490
tp3491
a(I256
I9
I0
S'same'
p3492
tp3493
a(I258
I5
I0
S'great'
p3494
tp3495
a(I258
I5
F0.625
S'easy'
p3496
tp3497
a(I258
I7
I0
S'e-mail'
p3498
tp3499
a(I266
I3
F1.0
S'good'
p3500
tp3501
a(I291
I12
I0
S'great'
p3502
tp3503
a(I320
I0
I0
S'great'
p3504
tp3505
a(I325
I16
I0
S'great'
p3506
tp3507
a(I330
I1
I0
S'faster'
p3508
tp3509
a(I352
I6
I0
S'great'
p3510
tp3511
a(I354
I3
F0.625
S'easy'
p3512
tp3513
a(I358
I1
I0
S'even'
p3514
tp3515
a(I381
I12
I0
S'great'
p3516
tp3517
a(I408
I1
I0
S'useful'
p3518
tp3519
a(I417
I28
I0
S'great'
p3520
tp3521
a(I450
I0
I0
S'great'
p3522
tp3523
a(I459
I2
F-0.25
S'white'
p3524
tp3525
a(I460
I2
F1.0
S'better'
p3526
tp3527
a(I477
I2
F0.25
S'unlocked'
p3528
tp3529
a(I477
I2
I0
S'great'
p3530
tp3531
a(I506
I0
I0
S'great'
p3532
tp3533
a(I538
I5
I0
S'great'
p3534
tp3535
as(S'think'
p3536
tp3537
(lp3538
(I422
I10
I0
S'only'
p3539
tp3540
as(S'browser'
p3541
tp3542
(lp3543
(I14
I12
F-0.5
S'separate'
p3544
tp3545
a(I14
I12
F1.0
S'good'
p3546
tp3547
a(I44
I16
F0.25
S'sweet'
p3548
tp3549
a(I46
I2
I0
S'great'
p3550
tp3551
a(I123
I5
F-0.5
S'open'
p3552
tp3553
a(I127
I18
F1.0
S'good'
p3554
tp3555
a(I169
I2
F-0.5
S'open'
p3556
tp3557
a(I280
I12
F1.0
S'best'
p3558
tp3559
a(I348
I13
F0.125
S'native'
p3560
tp3561
a(I348
I13
I0
S'mobile'
p3562
tp3563
a(I357
I8
F0.875
S'nice'
p3564
tp3565
a(I374
I12
F1.0
S'good'
p3566
tp3567
a(I395
I10
F0.125
S'supplied'
p3568
tp3569
a(I515
I3
F1.0
S'good'
p3570
tp3571
as(S'better'
p3572
tp3573
(lp3574
(I14
I5
F0.375
S'much'
p3575
tp3576
a(I58
I6
F0.375
S'much'
p3577
tp3578
a(I71
I0
F0.375
S'much'
p3579
tp3580
a(I126
I11
F0.375
S'much'
p3581
tp3582
a(I262
I1
F0.375
S'much'
p3583
tp3584
a(I265
I2
I0
S'keyboard'
p3585
tp3586
a(I265
I2
I0
S'most'
p3587
tp3588
a(I272
I0
F0.375
S'much'
p3589
tp3590
a(I276
I5
I0
S'mobile'
p3591
tp3592
a(I337
I6
F0.375
S'much'
p3593
tp3594
a(I340
I6
F0.375
S'much'
p3595
tp3596
a(I347
I0
F0.375
S'much'
p3597
tp3598
a(I392
I4
F0.375
S'much'
p3599
tp3600
as(S'5mm'
p3601
S'headphone'
p3602
S'jack'
p3603
tp3604
(lp3605
(I44
I36
F0.5
S'careful'
p3606
tp3607
a(I130
I4
I0
S'standard'
p3608
tp3609
a(I130
I4
F0.125
S'able'
p3610
tp3611
a(I203
I5
I0
S'standard'
p3612
tp3613
as(S'device'
p3614
tp3615
(lp3616
(I11
I25
I0
S'net'
p3617
tp3618
a(I11
I25
I0
S'mobile'
p3619
tp3620
a(I15
I24
F0.75
S'beautiful'
p3621
tp3622
a(I15
I28
I0
S'firmware'
p3623
tp3624
a(I55
I0
I0
S'android'
p3625
tp3626
a(I55
I0
F0.375
S'early'
p3627
tp3628
a(I80
I7
F0.125
S'solid'
p3629
tp3630
a(I100
I10
I0
S'basic'
p3631
tp3632
a(I100
I11
F0.25
S'powerful'
p3633
tp3634
a(I111
I6
F-0.375
S'simple'
p3635
tp3636
a(I155
I1
F-0.125
S'mine'
p3637
tp3638
a(I155
I5
F-0.625
S'light'
p3639
tp3640
a(I155
I5
F0.25
S'portable'
p3641
tp3642
a(I197
I1
F0.5
S'possible'
p3643
tp3644
a(I228
I5
F0.125
S'impressive'
p3645
tp3646
a(I232
I7
I0
S'next'
p3647
tp3648
a(I241
I3
F0.125
S'solid'
p3649
tp3650
a(I241
I9
I0
S'great'
p3651
tp3652
a(I275
I2
F0.75
S'beautiful'
p3653
tp3654
a(I325
I14
I0
S'slower'
p3655
tp3656
a(I353
I19
I0
S'many'
p3657
tp3658
a(I354
I11
F0.75
S'beautiful'
p3659
tp3660
a(I357
I11
F0.5
S'compatible'
p3661
tp3662
a(I359
I11
F-0.125
S'complex'
p3663
tp3664
a(I374
I21
I0
S'own'
p3665
tp3666
a(I398
I3
F0.5
S'strong'
p3667
tp3668
a(I422
I7
I0
S'great'
p3669
tp3670
a(I422
I11
F0.875
S'attractive'
p3671
tp3672
a(I422
I20
I0
S'full'
p3673
tp3674
a(I429
I0
I0
S'great'
p3675
tp3676
a(I479
I0
F0.625
S'perfect'
p3677
tp3678
a(I479
I0
I0
S'net'
p3679
tp3680
a(I479
I3
F-0.625
S'other'
p3681
tp3682
a(I512
I2
I0
S'more'
p3683
tp3684
a(I513
I5
I0
S'only'
p3685
tp3686
a(I519
I3
I0
S'great'
p3687
tp3688
a(I538
I2
F0.75
S'beautiful'
p3689
tp3690
as(S'music'
p3691
tp3692
(lp3693
(I45
I8
I0
S'different'
p3694
tp3695
a(I223
I7
F0.125
S'dedicated'
p3696
tp3697
a(I270
I17
F0.375
S'available'
p3698
tp3699
a(I312
I4
F1.0
S'good'
p3700
tp3701
a(I348
I25
I0
S'least'
p3702
tp3703
a(I422
I21
F0.25
S'favorite'
p3704
tp3705
as(S'easy'
p3706
S'to'
p3707
S'use'
p3708
tp3709
(lp3710
(I70
I11
F0.625
S'easy'
p3711
tp3712
a(I126
I24
I0
S'mobile'
p3713
tp3714
a(I126
I24
I0
S'more'
p3715
tp3716
a(I193
I22
F-0.625
S'light'
p3717
tp3718
as(S'much'
p3719
S'better'
p3720
tp3721
(lp3722
(I14
I5
F0.375
g3575
tp3723
a(I58
I6
F0.375
g3577
tp3724
a(I71
I0
F0.375
g3579
tp3725
a(I126
I11
F0.375
g3581
tp3726
a(I262
I1
F0.375
g3583
tp3727
a(I272
I0
F0.375
g3589
tp3728
a(I337
I6
F0.375
g3593
tp3729
a(I340
I6
F0.375
g3595
tp3730
a(I347
I0
F0.375
g3597
tp3731
a(I392
I4
F0.375
g3599
tp3732
as(S'north'
p3733
S'american'
p3734
tp3735
(lp3736
(I11
I21
I0
S'north'
p3737
tp3738
a(I104
I16
I0
S'north'
p3739
tp3740
a(I155
I2
I0
S'north'
p3741
tp3742
a(I215
I9
I0
S'north'
p3743
tp3744
a(I323
I7
I0
S'north'
p3745
tp3746
a(I515
I13
I0
S'north'
p3747
tp3748
as(S'data'
p3749
S'plan'
p3750
tp3751
(lp3752
(I10
I53
F0.5
g2217
tp3753
a(I35
I1
F-0.125
g2176
tp3754
a(I127
I10
F-0.5
g2182
tp3755
a(I193
I39
F0.125
g2186
tp3756
a(I270
I2
I0
g2192
tp3757
a(I270
I2
F-0.125
g2194
tp3758
a(I275
I7
F-0.5
g2196
tp3759
a(I275
I7
I0
g2198
tp3760
a(I391
I12
I0
g1105
tp3761
a(I435
I7
F-0.25
g1107
tp3762
a(I435
I7
I0
g1109
tp3763
a(I508
I0
F0.375
g2203
tp3764
a(I525
I3
F0.5
g2209
tp3765
as(S'looking'
p3766
tp3767
(lp3768
(I24
I0
F1.0
S'good'
p3769
tp3770
a(I24
I0
F0.625
S'easy'
p3771
tp3772
a(I39
I10
I0
S'great'
p3773
tp3774
a(I66
I29
I0
g1205
tp3775
a(I66
I29
F0.25
g1207
tp3776
a(I117
I11
F1.0
S'good'
p3777
tp3778
a(I155
I43
F0.25
S'professional'
p3779
tp3780
a(I336
I7
F0.875
S'nice'
p3781
tp3782
a(I336
I7
F-0.25
S'inexpensive'
p3783
tp3784
a(I382
I8
F1.0
g1209
tp3785
a(I496
I1
F1.0
S'good'
p3786
tp3787
a(I496
I1
F1.0
S'best'
p3788
tp3789
a(I496
I1
F0.625
S'finish'
p3790
tp3791
as(S'apps'
p3792
tp3793
(lp3794
(I10
I15
I0
S'few'
p3795
tp3796
a(I10
I15
F0.375
S'available'
p3797
tp3798
a(I10
I16
I0
S'most'
p3799
tp3800
a(I10
I85
F1.0
S'better'
p3801
tp3802
a(I12
I5
I0
S'few'
p3803
tp3804
a(I13
I17
F1.0
S'good'
p3805
tp3806
a(I15
I27
F-0.625
S'other'
p3807
tp3808
a(I15
I43
F-0.625
S'other'
p3809
tp3810
a(I32
I8
F0.625
S'easy'
p3811
tp3812
a(I32
I9
I0
S'many'
p3813
tp3814
a(I32
I9
F-0.75
S'frivolous'
p3815
tp3816
a(I39
I7
F-0.625
S'free'
p3817
tp3818
a(I39
I7
I0
S'net'
p3819
tp3820
a(I58
I8
F-0.25
S'cheaper'
p3821
tp3822
a(I97
I18
F-0.5
S'poor'
p3823
tp3824
a(I117
I14
I0
S'many'
p3825
tp3826
a(I146
I50
F0.125
S'able'
p3827
tp3828
a(I146
I50
I0
S'android'
p3829
tp3830
a(I155
I2
I0
S'useful'
p3831
tp3832
a(I155
I30
F-0.5
S'open'
p3833
tp3834
a(I160
I2
I0
S'many'
p3835
tp3836
a(I183
I11
I0
S'more'
p3837
tp3838
a(I183
I11
F-0.625
S'free'
p3839
tp3840
a(I208
I1
F0.375
S'available'
p3841
tp3842
a(I208
I5
I0
S'signal'
p3843
tp3844
a(I208
I5
F0.125
S'practical'
p3845
tp3846
a(I226
I9
F1.0
S'best'
p3847
tp3848
a(I291
I6
F-0.625
S'free'
p3849
tp3850
a(I321
I21
I0
S'many'
p3851
tp3852
a(I321
I21
F0.375
S'available'
p3853
tp3854
a(I351
I1
F-0.125
S'cant'
p3855
tp3856
a(I351
I2
I0
S'many'
p3857
tp3858
a(I353
I7
I0
S'many'
p3859
tp3860
a(I359
I4
F1.0
S'good'
p3861
tp3862
a(I373
I3
I0
S'cool'
p3863
tp3864
a(I374
I2
I0
S'many'
p3865
tp3866
a(I382
I5
F0.25
S'original'
p3867
tp3868
a(I391
I6
I0
S'most'
p3869
tp3870
a(I391
I7
I0
S'many'
p3871
tp3872
a(I393
I6
I0
S'wish'
p3873
tp3874
a(I393
I6
I0
S'more'
p3875
tp3876
a(I393
I6
F-0.625
S'free'
p3877
tp3878
a(I393
I6
F0.375
S'similar'
p3879
tp3880
a(I412
I20
F0.375
S'available'
p3881
tp3882
a(I419
I35
I0
S'more'
p3883
tp3884
a(I479
I14
F1.0
S'good'
p3885
tp3886
a(I515
I10
I0
S'special'
p3887
tp3888
as(S'days'
p3889
tp3890
(lp3891
(I10
I48
I0
S'next'
p3892
tp3893
a(I10
I64
I0
S'few'
p3894
tp3895
a(I11
I18
F0.625
S'easy'
p3896
tp3897
a(I14
I37
F0.5
S'whole'
p3898
tp3899
a(I14
I44
F-0.125
S'mine'
p3900
tp3901
a(I15
I19
I0
S'few'
p3902
tp3903
a(I39
I5
I0
S'few'
p3904
tp3905
a(I44
I19
F0.125
S'charger'
p3906
tp3907
a(I50
I11
F0.125
S'solid'
p3908
tp3909
a(I71
I0
F1.0
S'best'
p3910
tp3911
a(I72
I0
F-0.375
S'manual'
p3912
tp3913
a(I86
I3
I0
S'next'
p3914
tp3915
a(I114
I0
F-0.75
S'cold'
p3916
tp3917
a(I126
I22
I0
S'full'
p3918
tp3919
a(I127
I27
F1.0
S'better'
p3920
tp3921
a(I179
I1
F-0.5
S'less'
p3922
tp3923
a(I217
I3
F0.125
S'solid'
p3924
tp3925
a(I236
I2
I0
S'least'
p3926
tp3927
a(I329
I7
F0.125
S'typical'
p3928
tp3929
a(I329
I11
I0
S'few'
p3930
tp3931
a(I334
I0
I0
S'few'
p3932
tp3933
a(I355
I1
I0
S'few'
p3934
tp3935
a(I366
I12
I0
S'next'
p3936
tp3937
a(I366
I12
I0
S'few'
p3938
tp3939
a(I366
I13
I0
S'next'
p3940
tp3941
a(I366
I13
I0
S'few'
p3942
tp3943
a(I366
I17
I0
S'later'
p3944
tp3945
a(I417
I23
I0
S'few'
p3946
tp3947
a(I435
I7
F0.75
S'worth'
p3948
tp3949
a(I465
I0
I0
S'few'
p3950
tp3951
a(I473
I3
F-0.75
S'dry'
p3952
tp3953
a(I473
I3
I0
S'few'
p3954
tp3955
as(S'mail'
p3956
tp3957
(lp3958
(I269
I0
F-0.5
S'complaint'
p3959
tp3960
a(I320
I0
F-0.625
S'push'
p3961
tp3962
a(I425
I16
F0.875
S'important'
p3963
tp3964
a(I479
I8
F-0.25
S'google'
p3965
tp3966
a(I534
I8
F-0.625
S'other'
p3967
tp3968
as.