(dp0
(S'on'
p1
S'screen'
p2
S'keyboard'
p3
tp4
(lp5
(I0
I177
I0
S'old'
p6
I0
tp7
a(I0
I177
F0.5
S'touch'
p8
I0
tp9
a(I0
I177
I0
S'entire'
p10
I0
tp11
a(I2
I77
F-0.125
S'slow'
p12
I0
tp13
a(I2
I77
F0.875
S'nice'
p14
I0
tp15
a(I7
I315
I0
S'big'
p16
I0
tp17
a(I8
I438
I0
S'full'
p18
I0
tp19
a(I8
I493
F-0.125
S'super'
p20
I0
tp21
a(I8
I493
F0.25
S'sharp'
p22
I0
tp23
a(I15
I12
F0.5
S'touch'
p24
I0
tp25
a(I15
I12
F0.5
S'touch'
p26
I0
tp27
a(I16
I93
F1.0
S'good'
p28
I0
tp29
a(I0
I175
I0
S'different'
p30
I2
tp31
a(I0
I176
I0
S'full'
p32
I2
tp33
a(I0
I177
I0
g6
I2
tp34
a(I0
I191
I0
S'efficient'
p35
I2
tp36
a(I0
I192
F0.375
S'new'
p37
I2
tp38
a(I2
I3
I0
S'more'
p39
I2
tp40
a(I2
I3
F0.25
S'responsive'
p41
I2
tp42
a(I2
I77
F-0.125
g12
I2
tp43
a(I5
I4
I0
S'such'
p44
I2
tp45
a(I5
I9
I0
S'generate'
p46
I2
tp47
a(I5
I9
I0
S'few'
p48
I2
tp49
a(I7
I56
I0
S'full'
p50
I2
tp51
a(I7
I60
I0
S'physical'
p52
I2
tp53
a(I7
I69
I0
S'horizontal'
p54
I2
tp55
a(I7
I329
I0
S'physical'
p56
I2
tp57
a(I8
I25
F-0.5
S'regular'
p58
I2
tp59
a(I8
I30
F0.375
S'allow'
p60
I2
tp61
a(I8
I159
F-0.125
S'slow'
p62
I2
tp63
a(I8
I160
F0.5
S'careful'
p64
I2
tp65
a(I8
I208
F-0.5
S'regular'
p66
I2
tp67
a(I8
I208
F0.625
S'easier'
p68
I2
tp69
a(I8
I417
F0.625
S'superior'
p70
I2
tp71
a(I8
I428
F-0.125
S'slow'
p72
I2
tp73
a(I8
I438
I0
g18
I2
tp74
a(I10
I74
I0
S'physical'
p75
I2
tp76
a(I10
I74
F0.375
S'confident'
p77
I2
tp78
a(I12
I50
I0
S'full'
p79
I2
tp80
a(I12
I50
F0.625
S'necessary'
p81
I2
tp82
a(I12
I146
F0.5
S'functional'
p83
I2
tp84
a(I12
I146
F1.0
S'better'
p85
I2
tp86
a(I14
I316
I0
S'full'
p87
I2
tp88
a(I14
I337
F-0.625
S'nearby'
p89
I2
tp90
a(I14
I337
F0.125
S'key'
p91
I2
tp92
a(I14
I340
I0
S'real'
p93
I2
tp94
a(I16
I93
F1.0
g28
I2
tp95
a(I16
I115
I0
S'full'
p96
I2
tp97
a(I16
I115
I0
S'horizontal'
p98
I2
tp99
a(I18
I3
I0
S'faster'
p100
I2
tp101
a(I18
I46
I0
S'only'
p102
I2
tp103
as(S'battery'
p104
S'life'
p105
tp106
(lp107
(I0
I246
F0.625
S'decent'
p108
I1
tp109
a(I3
I124
F0.625
S'removable'
p110
I1
tp111
a(I18
I240
F1.0
S'good'
p112
I1
tp113
a(I20
I53
F-0.625
S'average'
p114
I1
tp115
a(I0
I247
F0.625
S'removable'
p116
I15
tp117
a(I3
I124
F0.625
g110
I15
tp118
a(I7
I353
F-0.75
S'dead'
p119
I15
tp120
a(I7
I427
I0
S'hot'
p121
I15
tp122
a(I16
I122
F0.625
S'removable'
p123
I15
tp124
a(I18
I181
F0.375
S'extra'
p125
I15
tp126
a(I18
I184
F0.25
S'used'
p127
I15
tp128
a(I18
I303
F-0.5
S'sure'
p129
I15
tp130
a(I20
I53
F-0.625
g114
I15
tp131
as(S'email'
p132
tp133
(lp134
(I0
I83
F0.25
S'stellar'
p135
I5
tp136
a(I0
I141
F-0.625
S'push'
p137
I5
tp138
a(I3
I185
I0
S'full'
p139
I5
tp140
a(I3
I282
I0
S'great'
p141
I5
tp142
a(I7
I346
I0
S'most'
p143
I5
tp144
a(I7
I346
F-0.625
S'other'
p145
I5
tp146
a(I7
I350
I0
S'full'
p147
I5
tp148
a(I7
I563
F0.5
S'compatible'
p149
I5
tp150
a(I8
I116
I0
S'initial'
p151
I5
tp152
a(I8
I116
F0.375
S'interesting'
p153
I5
tp154
a(I8
I117
F0.375
S'much'
p155
I5
tp156
a(I8
I473
I0
S'instant'
p157
I5
tp158
a(I9
I19
F0.5
S'true'
p159
I5
tp160
a(I9
I19
F-0.25
S'lean'
p161
I5
tp162
a(I10
I6
F0.25
S'original'
p163
I5
tp164
a(I10
I58
F-0.375
S'simple'
p165
I5
tp166
a(I12
I62
F-0.375
S'serious'
p167
I5
tp168
a(I12
I77
F0.625
S'easy'
p169
I5
tp170
a(I12
I78
F0.5
S'personal'
p171
I5
tp172
as(S'ring'
p173
S'tones'
p174
tp175
(lp176
(I3
I282
I0
S'own'
p177
I0
tp178
a(I18
I233
I0
S'individual'
p179
I0
tp180
as(S'visual'
p181
S'voice'
p182
S'mail'
p183
tp184
(lp185
(I3
I337
I0
S'visual'
p186
I0
tp187
a(I3
I337
F0.125
S'able'
p188
I0
tp189
a(I8
I301
F1.0
S'good'
p190
I0
tp191
a(I8
I301
I0
S'visual'
p192
I0
tp193
a(I8
I306
I0
S'visual'
p194
I0
tp195
a(I12
I81
I0
S'visual'
p196
I0
tp197
a(I12
I84
I0
S'visual'
p198
I0
tp199
a(I14
I113
I0
S'great'
p200
I0
tp201
a(I14
I173
I0
S'visual'
p202
I0
tp203
a(I18
I313
I0
S'visual'
p204
I0
tp205
a(I3
I337
I0
g186
I0
tp206
a(I3
I337
F0.125
g188
I0
tp207
a(I8
I301
F1.0
g190
I0
tp208
a(I8
I301
I0
g192
I0
tp209
a(I8
I306
I0
g194
I0
tp210
a(I12
I81
I0
g196
I0
tp211
a(I12
I84
I0
g198
I0
tp212
a(I14
I113
I0
g200
I0
tp213
a(I14
I173
I0
g202
I0
tp214
a(I15
I19
F-0.375
S'top'
p215
I0
tp216
a(I15
I19
F-0.5
S'regular'
p217
I0
tp218
a(I18
I312
F-0.5
S'longer'
p219
I0
tp220
a(I18
I312
I0
S'dial'
p221
I0
tp222
a(I18
I313
I0
g204
I0
tp223
a(I3
I337
I0
g186
I4
tp224
a(I7
I575
F1.0
S'better'
p225
I4
tp226
a(I8
I301
F1.0
g190
I4
tp227
a(I8
I301
I0
g192
I4
tp228
a(I8
I306
I0
g194
I4
tp229
a(I12
I67
F1.0
S'best'
p230
I4
tp231
a(I12
I71
F-0.5
S'weak'
p232
I4
tp233
a(I12
I81
I0
g196
I4
tp234
a(I12
I84
I0
g198
I4
tp235
a(I14
I173
I0
g202
I4
tp236
a(I15
I19
F-0.375
g215
I4
tp237
a(I15
I19
F-0.5
g217
I4
tp238
a(I18
I312
F-0.5
g219
I4
tp239
a(I18
I312
I0
g221
I4
tp240
a(I18
I313
I0
g204
I4
tp241
a(I3
I337
F0.125
g188
I13
tp242
a(I7
I263
F-0.5
S'less'
p243
I13
tp244
a(I10
I3
F0.375
S'new'
p245
I13
tp246
a(I14
I113
I0
g200
I13
tp247
as(S'text'
p248
tp249
(lp250
(I0
I158
F0.625
S'easy'
p251
I18
tp252
a(I0
I179
F-0.375
S'small'
p253
I18
tp254
a(I3
I106
I0
S'fast'
p255
I18
tp256
a(I11
I31
F-0.625
S'other'
p257
I18
tp258
a(I12
I51
F0.375
S'reliable'
p259
I18
tp260
a(I12
I55
F1.0
S'best'
p261
I18
tp262
a(I14
I138
F-0.75
S'impossible'
p263
I18
tp264
a(I16
I113
F0.625
S'easy'
p265
I18
tp266
a(I18
I366
F0.625
S'hold'
p267
I18
tp268
as(S'micro'
p269
S'sd'
p270
S'card'
p271
tp272
(lp273
(I14
I33
I0
S'gig'
p274
I0
tp275
a(I14
I33
I0
g274
I0
tp276
a(I16
I42
I0
S'gig'
p277
I0
tp278
as(S'silicon'
p279
S'case'
p280
tp281
(lp282
(I8
I100
F-0.5
S'flimsy'
p283
I0
tp284
as(S'application'
p285
tp286
(lp287
(I3
I251
F0.375
S'new'
p288
I7
tp289
a(I6
I85
I0
S'close'
p290
I7
tp291
a(I7
I207
F-1.0
S'dog'
p292
I7
tp293
a(I7
I207
F-0.125
S'slow'
p294
I7
tp295
a(I7
I272
I0
S'official'
p296
I7
tp297
a(I8
I115
I0
S'many'
p298
I7
tp299
a(I8
I123
I0
S'large'
p300
I7
tp301
a(I12
I114
I0
S'different'
p302
I7
tp303
as(S'a'
p304
S'learning'
p305
S'curve'
p306
tp307
(lp308
(I14
I310
I0
S'high'
p309
I1
tp310
a(I3
I318
I0
S'fast'
p311
I8
tp312
a(I5
I7
F0.375
S'much'
p313
I8
tp314
a(I8
I411
F-0.5
S'less'
p315
I8
tp316
a(I11
I10
F0.375
S'new'
p317
I8
tp318
a(I11
I10
F1.0
S'better'
p319
I8
tp320
a(I11
I23
F0.625
S'easier'
p321
I8
tp322
a(I15
I9
I0
S'old'
p323
I8
tp324
a(I18
I11
F0.5
S'bold'
p325
I8
tp326
as(S'camera'
p327
tp328
(lp329
(I0
I238
F1.0
S'best'
p330
I1
tp331
a(I2
I3
I0
S'faster'
p332
I1
tp333
a(I2
I52
F-0.875
S'awful'
p334
I1
tp335
a(I3
I54
F0.25
S'sharp'
p336
I1
tp337
a(I3
I54
F0.125
S'spectacular'
p338
I1
tp339
a(I3
I77
F-0.25
S'lower'
p340
I1
tp341
a(I3
I282
I0
S'great'
p342
I1
tp343
a(I6
I101
F0.25
S'stellar'
p344
I1
tp345
a(I6
I164
F1.0
S'best'
p346
I1
tp347
a(I7
I176
F0.875
S'nice'
p348
I1
tp349
a(I8
I321
F0.625
S'easy'
p350
I1
tp351
a(I8
I331
F1.0
S'good'
p352
I1
tp353
a(I8
I521
F-0.125
S'slow'
p354
I1
tp355
a(I9
I14
F0.125
S'digital'
p356
I1
tp357
a(I16
I98
F-0.125
S'slow'
p358
I1
tp359
a(I18
I191
F-0.625
S'other'
p360
I1
tp361
a(I18
I193
F1.0
S'good'
p362
I1
tp363
a(I18
I193
F-0.5
S'regular'
p364
I1
tp365
a(I18
I307
F-0.625
S'other'
p366
I1
tp367
a(I19
I25
F0.125
S'digital'
p368
I1
tp369
as(S'get'
p370
S'an'
p371
S'iphone'
p372
tp373
(lp374
(I7
I15
F1.0
S'good'
p375
I0
tp376
a(I8
I416
F0.75
S'consider'
p377
I0
tp378
a(I16
I171
I0
S'awhile'
p379
I0
tp380
a(I0
I32
I0
S'same'
p381
I1
tp382
a(I3
I27
F0.375
S'new'
p383
I1
tp384
a(I3
I38
F-0.5
S'sure'
p385
I1
tp386
a(I3
I105
F-0.25
S'higher'
p387
I1
tp388
a(I3
I149
F-0.5
S'heavy'
p389
I1
tp390
a(I3
I149
F-0.5
S'heavy'
p391
I1
tp392
a(I3
I191
F-0.75
S'hate'
p393
I1
tp394
a(I3
I233
F-0.625
S'lighter'
p395
I1
tp396
a(I5
I9
F-0.625
S'joyous'
p397
I1
tp398
a(I6
I1
F0.875
S'happy'
p399
I1
tp400
a(I6
I1
I-100
S'w/verizon'
p401
I1
tp402
a(I6
I146
F1.0
S'best'
p403
I1
tp404
a(I6
I146
F1.0
S'best'
p405
I1
tp406
a(I7
I15
F1.0
g375
I1
tp407
a(I7
I75
I0
S'different'
p408
I1
tp409
a(I7
I77
F0.125
S'first'
p410
I1
tp411
a(I7
I300
F-0.625
S'unlike'
p412
I1
tp413
a(I7
I332
F0.375
S'early'
p414
I1
tp415
a(I7
I374
F0.625
S'convenient'
p416
I1
tp417
a(I7
I378
F0.375
S'available'
p418
I1
tp419
a(I7
I389
F-0.75
S'comfortable'
p420
I1
tp421
a(I7
I389
F-0.125
S'blackberry'
p422
I1
tp423
a(I7
I535
F0.5
S'true'
p424
I1
tp425
a(I7
I544
I-100
S'final-breakdown'
p426
I1
tp427
a(I7
I544
I0
S'real'
p428
I1
tp429
a(I7
I588
F1.0
S'better'
p430
I1
tp431
a(I8
I150
F-0.75
S'worse'
p432
I1
tp433
a(I8
I173
F1.0
S'good'
p434
I1
tp435
a(I8
I328
F1.0
S'best'
p436
I1
tp437
a(I8
I397
I0
S'most'
p438
I1
tp439
a(I8
I416
F0.75
g377
I1
tp440
a(I8
I506
F1.0
S'better'
p441
I1
tp442
a(I8
I508
F0.375
S'new'
p443
I1
tp444
a(I11
I40
I0
S'fluid'
p445
I1
tp446
a(I12
I53
I0
S'very'
p447
I1
tp448
a(I16
I166
F-0.125
S'overall'
p449
I1
tp450
a(I16
I166
I0
S'faster'
p451
I1
tp452
a(I16
I166
F0.625
S'easier'
p453
I1
tp454
a(I16
I166
F-0.5
S'fun'
p455
I1
tp456
a(I16
I171
I0
g379
I1
tp457
a(I16
I173
I0
S'own'
p458
I1
tp459
a(I16
I198
I0
S'own'
p460
I1
tp461
a(I16
I198
F-0.625
S'want'
p462
I1
tp463
a(I18
I81
I0
S'wish'
p464
I1
tp465
a(I18
I134
I0
S'big'
p466
I1
tp467
a(I18
I140
F0.25
S'dim'
p468
I1
tp469
a(I18
I326
I0
S'faster'
p470
I1
tp471
as(S'piece'
p472
S'of'
p473
S'crap'
p474
tp475
(lp476
(I3
I272
F0.25
S'biggest'
p477
I0
tp478
a(I14
I87
I0
S'quick'
p479
I0
tp480
a(I20
I9
F0.25
S'biggest'
p481
I0
tp482
as(S'operating'
p483
S'system'
p484
tp485
(lp486
(I3
I304
I0
S'stable'
p487
I2
tp488
a(I3
I304
F0.75
S'due'
p489
I2
tp490
a(I3
I304
F0.25
S'consistent'
p491
I2
tp492
a(I8
I511
F1.0
S'good'
p493
I2
tp494
a(I10
I80
F0.25
S'original'
p495
I2
tp496
a(I14
I34
F-0.75
S'difficult'
p497
I2
tp498
a(I14
I39
F0.375
S'available'
p499
I2
tp500
a(I14
I355
F1.0
S'better'
p501
I2
tp502
a(I16
I146
F-0.125
S'slow'
p503
I2
tp504
as(g304
S'touch'
p505
S'screen'
p506
tp507
(lp508
(I0
I3
F0.5
S'true'
p509
I0
tp510
a(I0
I39
F-0.5
S'less'
p511
I0
tp512
a(I0
I177
F0.5
g8
I0
tp513
a(I0
I177
I0
g10
I0
tp514
a(I0
I183
F0.5
S'touch'
p515
I0
tp516
a(I0
I197
F0.5
S'touch'
p517
I0
tp518
a(I1
I2
F0.5
S'touch'
p519
I0
tp520
a(I1
I20
F0.5
S'touch'
p521
I0
tp522
a(I1
I20
I0
S'sensitive'
p523
I0
tp524
a(I2
I10
F0.5
S'touch'
p525
I0
tp526
a(I2
I77
F0.875
g14
I0
tp527
a(I3
I227
F0.5
S'touch'
p528
I0
tp529
a(I3
I253
F0.5
S'touch'
p530
I0
tp531
a(I3
I319
I0
S'fast'
p532
I0
tp533
a(I3
I319
F0.5
S'touch'
p534
I0
tp535
a(I5
I1
I0
S'large'
p536
I0
tp537
a(I5
I5
F0.5
S'touch'
p538
I0
tp539
a(I6
I173
F0.5
S'touch'
p540
I0
tp541
a(I6
I188
I0
S'user'
p542
I0
tp543
a(I7
I12
F0.5
S'touch'
p544
I0
tp545
a(I7
I132
F0.5
S'touch'
p546
I0
tp547
a(I7
I188
I0
S'plastic'
p548
I0
tp549
a(I7
I315
I0
g16
I0
tp550
a(I7
I331
F0.5
S'touch'
p551
I0
tp552
a(I7
I425
F0.5
S'touch'
p553
I0
tp554
a(I7
I425
F-0.5
S'regular'
p555
I0
tp556
a(I7
I425
F0.125
S'key'
p557
I0
tp558
a(I7
I462
F0.5
S'touch'
p559
I0
tp560
a(I7
I465
F0.5
S'touch'
p561
I0
tp562
a(I7
I472
F0.5
S'touch'
p563
I0
tp564
a(I7
I474
F0.5
S'touch'
p565
I0
tp566
a(I7
I517
F0.5
S'touch'
p567
I0
tp568
a(I7
I523
F0.5
S'touch'
p569
I0
tp570
a(I7
I525
F0.5
S'touch'
p571
I0
tp572
a(I7
I526
F0.5
S'touch'
p573
I0
tp574
a(I7
I541
I0
S'sensitive'
p575
I0
tp576
a(I7
I541
F-0.375
S'smooth'
p577
I0
tp578
a(I7
I561
F1.0
S'better'
p579
I0
tp580
a(I7
I561
F0.5
S'touch'
p581
I0
tp582
a(I8
I238
F0.5
S'touch'
p583
I0
tp584
a(I8
I313
F0.5
S'touch'
p585
I0
tp586
a(I8
I336
F0.5
S'touch'
p587
I0
tp588
a(I8
I403
F0.5
S'touch'
p589
I0
tp590
a(I8
I519
F0.5
S'touch'
p591
I0
tp592
a(I9
I13
I0
S'3d'
p593
I0
tp594
a(I9
I13
I0
S'capacitive'
p595
I0
tp596
a(I10
I100
F0.5
S'touch'
p597
I0
tp598
a(I11
I51
F0.5
S'touch'
p599
I0
tp600
a(I12
I57
F0.5
S'touch'
p601
I0
tp602
a(I14
I34
F0.5
S'touch'
p603
I0
tp604
a(I14
I242
F0.5
S'touch'
p605
I0
tp606
a(I14
I265
F0.5
S'touch'
p607
I0
tp608
a(I15
I8
F0.5
S'touch'
p609
I0
tp610
a(I15
I8
F0.5
S'touch'
p611
I0
tp612
a(I15
I12
F0.5
g24
I0
tp613
a(I15
I12
F0.5
g26
I0
tp614
a(I16
I42
F0.5
S'touch'
p615
I0
tp616
a(I16
I83
I0
S'old'
p617
I0
tp618
a(I16
I91
F0.5
S'touch'
p619
I0
tp620
a(I16
I201
F0.5
S'touch'
p621
I0
tp622
a(I18
I2
F0.5
S'touch'
p623
I0
tp624
a(I19
I25
F0.5
S'touch'
p625
I0
tp626
as(S'ring'
p627
S'tone'
p628
tp629
(lp630
(I3
I282
I0
g177
I0
tp631
a(I18
I233
I0
g179
I0
tp632
as(S'blackberry'
p633
S'storm'
p634
tp635
(lp636
(I0
I32
F-0.75
S'comfortable'
p637
I0
tp638
a(I0
I49
F0.125
S'usual'
p639
I0
tp640
a(I0
I49
I0
S'useful'
p641
I0
tp642
a(I0
I49
F1.0
S'good'
p643
I0
tp644
a(I0
I72
F-0.125
S'overall'
p645
I0
tp646
a(I0
I106
F0.875
S'important'
p647
I0
tp648
a(I0
I175
I0
S'traditional'
p649
I0
tp650
a(I0
I215
F-0.625
S'other'
p651
I0
tp652
a(I2
I19
I0
S'promising'
p653
I0
tp654
a(I3
I271
F-0.5
S'certain'
p655
I0
tp656
a(I6
I152
F0.125
S'last'
p657
I0
tp658
a(I6
I169
F0.625
S'superior'
p659
I0
tp660
a(I7
I177
F1.0
S'good'
p661
I0
tp662
a(I7
I326
F0.875
S'nice'
p663
I0
tp664
a(I7
I336
F0.125
S'first'
p665
I0
tp666
a(I8
I134
F0.375
S'new'
p667
I0
tp668
a(I8
I134
F0.625
S'easy'
p669
I0
tp670
a(I8
I135
I0
S'stable'
p671
I0
tp672
a(I8
I135
F0.375
S'reliable'
p673
I0
tp674
a(I8
I163
I0
S'term'
p675
I0
tp676
a(I8
I163
I0
S'particular'
p677
I0
tp678
a(I8
I480
F0.25
S'familiar'
p679
I0
tp680
a(I8
I540
F0.375
S'new'
p681
I0
tp682
a(I12
I1
F0.375
S'new'
p683
I0
tp684
a(I12
I18
F0.375
S'new'
p685
I0
tp686
a(I12
I18
F0.375
S'available'
p687
I0
tp688
a(I12
I30
F0.375
S'new'
p689
I0
tp690
a(I12
I62
F0.5
S'functional'
p691
I0
tp692
a(I14
I90
F0.125
S'first'
p693
I0
tp694
a(I18
I220
I0
S'interactive'
p695
I0
tp696
a(I0
I32
F-0.75
g637
I0
tp697
a(I0
I46
F1.0
S'good'
p698
I0
tp699
a(I0
I49
I0
g641
I0
tp700
a(I0
I49
F1.0
g643
I0
tp701
a(I0
I65
I0
S'more'
p702
I0
tp703
a(I0
I72
F-0.125
g645
I0
tp704
a(I0
I92
F-0.375
S'simple'
p705
I0
tp706
a(I0
I120
F0.625
S'easier'
p707
I0
tp708
a(I0
I120
F0.625
S'easier'
p709
I0
tp710
a(I0
I244
F0.625
S'decent'
p711
I0
tp712
a(I1
I26
F0.25
S'original'
p713
I0
tp714
a(I1
I26
F0.25
S'original'
p715
I0
tp716
a(I3
I112
I0
S'own'
p717
I0
tp718
a(I3
I228
I0
S'thick'
p719
I0
tp720
a(I3
I228
F-0.5
S'heavy'
p721
I0
tp722
a(I3
I271
F-0.5
g655
I0
tp723
a(I3
I313
F1.0
S'best'
p724
I0
tp725
a(I5
I1
F0.625
S'superior'
p726
I0
tp727
a(I5
I2
F0.625
S'superior'
p728
I0
tp729
a(I6
I152
F0.125
g657
I0
tp730
a(I6
I169
F0.625
g659
I0
tp731
a(I7
I51
F0.875
S'nice'
p732
I0
tp733
a(I7
I94
F1.0
S'better'
p734
I0
tp735
a(I7
I177
F1.0
g661
I0
tp736
a(I7
I198
F0.875
S'nice'
p737
I0
tp738
a(I7
I373
F0.625
S'easier'
p739
I0
tp740
a(I7
I455
F0.625
S'easy'
p741
I0
tp742
a(I7
I565
I0
S'more'
p743
I0
tp744
a(I7
I565
F0.5
S'satisfied'
p745
I0
tp746
a(I8
I134
F0.625
g669
I0
tp747
a(I8
I135
I0
g671
I0
tp748
a(I8
I135
F0.375
g673
I0
tp749
a(I8
I163
I0
g675
I0
tp750
a(I8
I165
I0
S'least'
p751
I0
tp752
a(I8
I213
F-0.25
S'potential'
p753
I0
tp754
a(I8
I213
I0
S'such'
p755
I0
tp756
a(I8
I344
I0
S'more'
p757
I0
tp758
a(I8
I344
I0
S'more'
p759
I0
tp760
a(I8
I399
F-0.75
S'dark'
p761
I0
tp762
a(I8
I417
F1.0
S'better'
p763
I0
tp764
a(I8
I448
I0
S'harsh'
p765
I0
tp766
a(I8
I482
F0.625
S'easy'
p767
I0
tp768
a(I8
I517
F0.625
S'decent'
p769
I0
tp770
a(I10
I53
I0
S'even'
p771
I0
tp772
a(I10
I53
F0.625
S'easy'
p773
I0
tp774
a(I10
I73
F0.625
S'easier'
p775
I0
tp776
a(I10
I85
I0
S'mechanical'
p777
I0
tp778
a(I10
I97
F-0.375
S'unacceptable'
p779
I0
tp780
a(I10
I98
F0.125
S'first'
p781
I0
tp782
a(I10
I99
F0.375
S'new'
p783
I0
tp784
a(I12
I18
F0.375
g687
I0
tp785
a(I12
I62
F0.5
g691
I0
tp786
a(I12
I109
F0.125
S'able'
p787
I0
tp788
a(I13
I1
F-0.125
S'slow'
p789
I0
tp790
a(I14
I90
F0.125
g693
I0
tp791
a(I14
I163
I0
S'funny'
p792
I0
tp793
a(I14
I182
I0
S'great'
p794
I0
tp795
a(I14
I183
I0
S'great'
p796
I0
tp797
a(I14
I269
F-0.875
S'worst'
p798
I0
tp799
a(I14
I325
F0.125
S'typical'
p800
I0
tp801
a(I16
I97
I0
S'next'
p802
I0
tp803
a(I16
I123
F0.625
S'accessible'
p804
I0
tp805
a(I16
I130
F-0.75
S'short'
p806
I0
tp807
a(I16
I133
I0
S'least'
p808
I0
tp809
a(I16
I143
I0
S'entire'
p810
I0
tp811
a(I16
I147
F-0.125
S'overall'
p812
I0
tp813
a(I16
I158
F-0.625
S'other'
p814
I0
tp815
a(I16
I223
F1.0
S'best'
p816
I0
tp817
a(I16
I236
I0
S'full'
p818
I0
tp819
a(I16
I236
F-0.25
S'potential'
p820
I0
tp821
a(I18
I122
F0.125
S'impressive'
p822
I0
tp823
a(I18
I154
F0.5
S'clear'
p824
I0
tp825
a(I18
I157
F0.375
S'available'
p826
I0
tp827
a(I18
I157
F0.125
S'able'
p828
I0
tp829
a(I18
I174
I0
S'fast'
p830
I0
tp831
a(I18
I220
I0
g695
I0
tp832
a(I18
I235
F-0.125
S'slow'
p833
I0
tp834
a(I18
I278
F0.125
S'able'
p835
I0
tp836
a(I18
I335
I0
S'inconsistent'
p837
I0
tp838
a(I18
I359
I0
S'e-mail'
p839
I0
tp840
a(I0
I49
F0.125
g639
I1
tp841
a(I0
I106
F0.875
g647
I1
tp842
a(I0
I133
F0.375
S'available'
p843
I1
tp844
a(I0
I152
F-0.625
S'other'
p845
I1
tp846
a(I0
I154
I0
S'old'
p847
I1
tp848
a(I0
I161
F0.125
S'first'
p849
I1
tp850
a(I0
I175
I0
g649
I1
tp851
a(I0
I180
F0.25
S'effective'
p852
I1
tp853
a(I0
I214
I0
S'great'
p854
I1
tp855
a(I0
I215
F-0.625
g651
I1
tp856
a(I0
I228
F0.125
S'first'
p857
I1
tp858
a(I1
I1
F0.875
S'reputable'
p859
I1
tp860
a(I2
I19
I0
g653
I1
tp861
a(I2
I28
F-0.5
S'regular'
p862
I1
tp863
a(I3
I63
I0
S'own'
p864
I1
tp865
a(I3
I119
F-0.625
S'other'
p866
I1
tp867
a(I3
I143
F0.375
S'new'
p868
I1
tp869
a(I3
I175
I0
S'most'
p870
I1
tp871
a(I3
I212
F0.375
S'newest'
p872
I1
tp873
a(I3
I229
F0.625
S'necessary'
p874
I1
tp875
a(I3
I245
F0.375
S'available'
p876
I1
tp877
a(I3
I252
I0
S'traditional'
p878
I1
tp879
a(I3
I282
F0.125
S'first'
p880
I1
tp881
a(I5
I6
I0
S'abreast'
p882
I1
tp883
a(I6
I40
I0
S'more'
p884
I1
tp885
a(I6
I141
F-0.625
S'other'
p886
I1
tp887
a(I6
I143
F-0.625
S'other'
p888
I1
tp889
a(I7
I160
F0.125
S'first'
p890
I1
tp891
a(I7
I160
F0.125
S'last'
p892
I1
tp893
a(I7
I326
F0.875
g663
I1
tp894
a(I7
I333
F0.375
S'new'
p895
I1
tp896
a(I7
I336
F0.125
g665
I1
tp897
a(I7
I434
F-0.625
S'sorry'
p898
I1
tp899
a(I7
I540
F0.125
S'first'
p900
I1
tp901
a(I8
I125
I0
S'standard'
p902
I1
tp903
a(I8
I134
F0.375
g667
I1
tp904
a(I8
I150
F0.5
S'comparable'
p905
I1
tp906
a(I8
I156
F0.125
S'first'
p907
I1
tp908
a(I8
I163
I0
g677
I1
tp909
a(I8
I336
F-0.5
S'sure'
p910
I1
tp911
a(I8
I480
F0.25
g679
I1
tp912
a(I8
I540
F0.375
g681
I1
tp913
a(I10
I50
F0.125
S'first'
p914
I1
tp915
a(I12
I1
F0.375
g683
I1
tp916
a(I12
I17
F0.375
S'new'
p917
I1
tp918
a(I12
I18
F0.375
g685
I1
tp919
a(I12
I30
F0.375
g689
I1
tp920
a(I12
I44
F0.125
S'native'
p921
I1
tp922
a(I12
I49
I0
S'many'
p923
I1
tp924
a(I14
I56
F0.125
S'first'
p925
I1
tp926
a(I14
I57
F-0.625
S'other'
p927
I1
tp928
a(I14
I118
I0
S'special'
p929
I1
tp930
a(I14
I118
F-0.625
S'push'
p931
I1
tp932
a(I14
I118
I0
S'e-mail'
p933
I1
tp934
a(I16
I148
I0
S'adequate'
p935
I1
tp936
a(I16
I213
I0
S'different'
p937
I1
tp938
a(I16
I213
F1.0
S'better'
p939
I1
tp940
a(I16
I213
I0
S'different'
p941
I1
tp942
a(I18
I73
F0.125
S'last'
p943
I1
tp944
a(I19
I5
F0.125
S'capable'
p945
I1
tp946
a(I19
I12
F0.125
S'first'
p947
I1
tp948
as(S'touchscreen'
p949
tp950
(lp951
(I0
I79
I0
S'same'
p952
I0
tp953
a(I7
I356
F-0.625
S'other'
p954
I0
tp955
a(I8
I312
I0
S'real'
p956
I0
tp957
a(I8
I312
F0.625
S'easy'
p958
I0
tp959
a(I14
I56
F0.125
S'first'
p960
I0
tp961
a(I14
I64
I0
S'general'
p962
I0
tp963
a(I14
I122
F-0.875
S'worst'
p964
I0
tp965
a(I15
I12
F-0.625
S'other'
p966
I0
tp967
a(I16
I237
F0.5
S'strong'
p968
I0
tp969
as(S'menu'
p970
tp971
(lp972
(I3
I172
F0.25
S'main'
p973
I2
tp974
a(I7
I304
I0
S'contextual'
p975
I2
tp976
a(I8
I230
F0.125
S'first'
p977
I2
tp978
a(I12
I115
I0
S'physical'
p979
I2
tp980
a(I12
I118
F0.625
S'easy'
p981
I2
tp982
a(I14
I339
F-0.375
S'top'
p983
I2
tp984
a(I18
I59
F0.25
S'main'
p985
I2
tp986
a(I18
I89
F0.25
S'main'
p987
I2
tp988
a(I18
I226
F0.625
S'hold'
p989
I2
tp990
as(S'button'
p991
tp992
(lp993
(I0
I145
I0
S'large'
p994
I19
tp995
a(I0
I178
F-0.25
S'giant'
p996
I19
tp997
a(I2
I36
F0.75
S'ear'
p998
I19
tp999
a(I3
I80
I0
S'visual'
p1000
I19
tp1001
a(I3
I123
F-0.125
S'accidental'
p1002
I19
tp1003
a(I6
I82
F-0.75
S'single'
p1004
I19
tp1005
a(I7
I54
I0
S'more'
p1006
I19
tp1007
a(I7
I54
F-0.125
S'accidental'
p1008
I19
tp1009
a(I7
I210
I0
S'physical'
p1010
I19
tp1011
a(I7
I219
F-0.75
S'single'
p1012
I19
tp1013
a(I7
I236
I-100
S'upper-left'
p1014
I19
tp1015
a(I7
I287
I0
S'physical'
p1016
I19
tp1017
a(I8
I68
F-0.125
S'refresh'
p1018
I19
tp1019
a(I10
I37
F-0.625
S'green'
p1020
I19
tp1021
a(I10
I90
I-100
S"'close"
p1022
I19
tp1023
a(I12
I125
F-0.375
S'top'
p1024
I19
tp1025
a(I14
I60
F0.125
S'first'
p1026
I19
tp1027
a(I14
I80
I0
S'full'
p1028
I19
tp1029
a(I16
I90
I0
S'many'
p1030
I19
tp1031
a(I16
I159
I-100
S'top-lock'
p1032
I19
tp1033
a(I18
I244
F0.25
S'main'
p1034
I19
tp1035
a(I20
I49
F-0.5
S'sure'
p1036
I19
tp1037
a(I20
I49
F0.875
S'nice'
p1038
I19
tp1039
as(S'slow'
p1040
tp1041
(lp1042
(I14
I224
I-100
S'rim/verizon'
p1043
I17
tp1044
as(S'verizon'
p1045
tp1046
(lp1047
(I0
I136
I0
S'corporate'
p1048
I0
tp1049
a(I1
I63
F0.5
S'loyal'
p1050
I0
tp1051
a(I2
I16
I0
S'great'
p1052
I0
tp1053
a(I2
I16
F0.375
S'reliable'
p1054
I0
tp1055
a(I2
I20
F0.375
S'forcing'
p1056
I0
tp1057
a(I3
I192
F-0.75
S'hate'
p1058
I0
tp1059
a(I6
I50
I0
S'official'
p1060
I0
tp1061
a(I6
I157
F-0.625
S'bad'
p1062
I0
tp1063
a(I7
I153
I0
S'cool'
p1064
I0
tp1065
a(I7
I311
F0.75
S'worth'
p1066
I0
tp1067
a(I7
I311
F0.125
S'able'
p1068
I0
tp1069
a(I7
I394
F0.875
S'happy'
p1070
I0
tp1071
a(I8
I136
I0
S'stable'
p1072
I0
tp1073
a(I8
I511
I0
S'latest'
p1074
I0
tp1075
a(I8
I524
F0.375
S'available'
p1076
I0
tp1077
a(I11
I60
I0
S'own'
p1078
I0
tp1079
a(I12
I69
F0.75
S'consider'
p1080
I0
tp1081
a(I12
I88
F-0.625
S'bad'
p1082
I0
tp1083
a(I14
I0
I0
S'website'
p1084
I0
tp1085
a(I14
I334
F-0.75
S'short'
p1086
I0
tp1087
a(I16
I33
I0
S'local'
p1088
I0
tp1089
a(I16
I150
F0.5
S'overpriced'
p1090
I0
tp1091
a(I16
I179
I0
S'local'
p1092
I0
tp1093
a(I16
I194
I0
S'local'
p1094
I0
tp1095
a(I18
I83
F-0.75
S'short'
p1096
I0
tp1097
a(I18
I83
F0.25
S'sweet'
p1098
I0
tp1099
a(I18
I98
I0
S'blue'
p1100
I0
tp1101
a(I18
I131
I0
S'local'
p1102
I0
tp1103
as(S'applications'
p1104
tp1105
(lp1106
(I0
I203
F0.375
S'new'
p1107
I3
tp1108
a(I3
I49
F-0.5
S'open'
p1109
I3
tp1110
a(I3
I49
I0
S'closing'
p1111
I3
tp1112
a(I3
I57
F0.375
S'available'
p1113
I3
tp1114
a(I3
I282
F1.0
S'good'
p1115
I3
tp1116
a(I3
I283
I0
S'many'
p1117
I3
tp1118
a(I3
I292
I0
S'few'
p1119
I3
tp1120
a(I7
I195
I0
S'many'
p1121
I3
tp1122
a(I7
I233
F-0.5
S'sure'
p1123
I3
tp1124
a(I7
I235
F0.5
S'careful'
p1125
I3
tp1126
a(I7
I378
F0.375
S'available'
p1127
I3
tp1128
a(I7
I379
I0
S'standard'
p1129
I3
tp1130
a(I7
I477
F-0.125
S'slow'
p1131
I3
tp1132
a(I8
I349
F-0.125
S'slow'
p1133
I3
tp1134
a(I8
I437
F0.625
S'easy'
p1135
I3
tp1136
a(I8
I437
I0
S'organizational'
p1137
I3
tp1138
a(I16
I137
F0.125
S'popular'
p1139
I3
tp1140
a(I16
I230
I0
S'close'
p1141
I3
tp1142
a(I18
I58
I0
S'many'
p1143
I3
tp1144
as(S'better'
p1145
S'than'
p1146
S'iphone'
p1147
tp1148
(lp1149
(I7
I300
F-0.625
g412
I0
tp1150
a(I7
I588
F1.0
g430
I0
tp1151
a(I15
I9
F0.375
S'much'
p1152
I0
tp1153
as(S'high'
p1154
S'score'
p1155
tp1156
(lp1157
(I12
I97
I0
S'high'
p1158
I0
tp1159
a(I12
I99
F0.375
S'new'
p1160
I0
tp1161
as(S'music'
p1162
tp1163
(lp1164
(I7
I37
F1.0
S'best'
p1165
I0
tp1166
a(I16
I150
I0
S'own'
p1167
I0
tp1168
as(g304
S'software'
p1169
S'update'
p1170
tp1171
(lp1172
(I0
I11
F0.5
S'told'
p1173
I0
tp1174
a(I0
I11
F0.375
S'new'
p1175
I0
tp1176
a(I2
I13
I0
S'few'
p1177
I0
tp1178
a(I7
I142
F0.375
S'new'
p1179
I0
tp1180
a(I7
I182
I0
S'latest'
p1181
I0
tp1182
a(I7
I317
F0.5
S'reasonable'
p1183
I0
tp1184
a(I8
I429
I0
S'latest'
p1185
I0
tp1186
a(I8
I475
F0.5
S'strong'
p1187
I0
tp1188
a(I8
I505
F0.375
S'new'
p1189
I0
tp1190
a(I8
I505
I0
S'same'
p1191
I0
tp1192
a(I10
I92
F0.375
S'new'
p1193
I0
tp1194
a(I10
I92
F0.75
S'due'
p1195
I0
tp1196
a(I14
I91
F0.625
S'necessary'
p1197
I0
tp1198
a(I15
I18
F-0.75
S'likely'
p1199
I0
tp1200
a(I15
I18
F1.0
S'better'
p1201
I0
tp1202
a(I16
I126
F0.25
S'recent'
p1203
I0
tp1204
a(I18
I204
F0.375
S'new'
p1205
I0
tp1206
as(S'of'
p1207
S'touch'
p1208
S'screen'
p1209
tp1210
(lp1211
(I0
I110
F0.5
S'touch'
p1212
I0
tp1213
a(I0
I177
F0.5
g8
I0
tp1214
a(I0
I177
I0
g10
I0
tp1215
a(I0
I183
F0.5
g515
I0
tp1216
a(I3
I319
I0
g532
I0
tp1217
a(I3
I319
F0.5
g534
I0
tp1218
a(I5
I5
F0.5
g538
I0
tp1219
a(I6
I173
F0.5
g540
I0
tp1220
a(I7
I12
F0.5
g544
I0
tp1221
a(I7
I132
F0.5
g546
I0
tp1222
a(I7
I474
F0.5
g565
I0
tp1223
a(I7
I517
F0.5
g567
I0
tp1224
a(I7
I523
F0.5
g569
I0
tp1225
a(I7
I525
F0.5
g571
I0
tp1226
a(I7
I541
I0
g575
I0
tp1227
a(I7
I541
F-0.375
g577
I0
tp1228
a(I8
I238
F0.5
g583
I0
tp1229
a(I8
I519
F0.5
g591
I0
tp1230
a(I10
I100
F0.5
g597
I0
tp1231
a(I11
I51
F0.5
g599
I0
tp1232
a(I12
I57
F0.5
g601
I0
tp1233
a(I14
I242
F0.5
g605
I0
tp1234
a(I14
I265
F0.5
g607
I0
tp1235
a(I15
I12
F0.5
g24
I0
tp1236
a(I15
I12
F0.5
g26
I0
tp1237
a(I16
I83
I0
g617
I0
tp1238
a(I16
I201
F0.5
g621
I0
tp1239
as(S'typing'
p1240
tp1241
(lp1242
(I2
I65
F0.875
S'nice'
p1243
I3
tp1244
a(I2
I65
F0.25
S'responsive'
p1245
I3
tp1246
a(I3
I5
F1.0
S'best'
p1247
I3
tp1248
a(I7
I480
I0
S'quick'
p1249
I3
tp1250
a(I8
I378
F-0.5
S'ordinary'
p1251
I3
tp1252
a(I14
I79
I0
S'extensive'
p1253
I3
tp1254
a(I14
I80
I0
S'extensive'
p1255
I3
tp1256
a(I14
I80
F0.375
S'much'
p1257
I3
tp1258
a(I14
I286
I0
S'text'
p1259
I3
tp1260
as(S'on'
p1261
S'touch'
p1262
S'screen'
p1263
tp1264
(lp1265
(I0
I39
F-0.5
g511
I0
tp1266
a(I0
I110
F0.5
g1212
I0
tp1267
a(I0
I177
F0.5
g8
I0
tp1268
a(I0
I177
I0
g10
I0
tp1269
a(I0
I197
F0.5
g517
I0
tp1270
a(I1
I2
F0.5
g519
I0
tp1271
a(I1
I20
F0.5
g521
I0
tp1272
a(I1
I20
I0
g523
I0
tp1273
a(I2
I10
F0.5
g525
I0
tp1274
a(I2
I77
F0.875
g14
I0
tp1275
a(I3
I253
F0.5
g530
I0
tp1276
a(I3
I319
I0
g532
I0
tp1277
a(I3
I319
F0.5
g534
I0
tp1278
a(I5
I1
I0
g536
I0
tp1279
a(I5
I5
F0.5
g538
I0
tp1280
a(I7
I12
F0.5
g544
I0
tp1281
a(I7
I132
F0.5
g546
I0
tp1282
a(I7
I315
I0
g16
I0
tp1283
a(I7
I331
F0.5
g551
I0
tp1284
a(I7
I425
F0.5
g553
I0
tp1285
a(I7
I425
F-0.5
g555
I0
tp1286
a(I7
I425
F0.125
g557
I0
tp1287
a(I7
I465
F0.5
g561
I0
tp1288
a(I7
I472
F0.5
g563
I0
tp1289
a(I7
I523
F0.5
g569
I0
tp1290
a(I7
I525
F0.5
g571
I0
tp1291
a(I7
I526
F0.5
g573
I0
tp1292
a(I8
I238
F0.5
g583
I0
tp1293
a(I8
I313
F0.5
g585
I0
tp1294
a(I8
I336
F0.5
g587
I0
tp1295
a(I8
I403
F0.5
g589
I0
tp1296
a(I8
I519
F0.5
g591
I0
tp1297
a(I9
I13
I0
g593
I0
tp1298
a(I9
I13
I0
g595
I0
tp1299
a(I10
I100
F0.5
g597
I0
tp1300
a(I11
I51
F0.5
g599
I0
tp1301
a(I12
I57
F0.5
g601
I0
tp1302
a(I14
I34
F0.5
g603
I0
tp1303
a(I14
I242
F0.5
g605
I0
tp1304
a(I14
I265
F0.5
g607
I0
tp1305
a(I15
I8
F0.5
g609
I0
tp1306
a(I15
I8
F0.5
g611
I0
tp1307
a(I15
I12
F0.5
g24
I0
tp1308
a(I15
I12
F0.5
g26
I0
tp1309
a(I16
I42
F0.5
g615
I0
tp1310
a(I16
I83
I0
g617
I0
tp1311
a(I16
I201
F0.5
g621
I0
tp1312
a(I19
I25
F0.5
g625
I0
tp1313
a(I0
I3
F0.5
g509
I2
tp1314
a(I0
I39
F-0.5
g511
I2
tp1315
a(I0
I110
F0.5
g1212
I2
tp1316
a(I0
I177
F0.5
g8
I2
tp1317
a(I0
I177
I0
g10
I2
tp1318
a(I0
I183
F0.5
g515
I2
tp1319
a(I0
I197
F0.5
g517
I2
tp1320
a(I1
I2
F0.5
g519
I2
tp1321
a(I1
I20
F0.5
g521
I2
tp1322
a(I1
I20
I0
g523
I2
tp1323
a(I2
I10
F0.5
g525
I2
tp1324
a(I2
I77
F0.875
g14
I2
tp1325
a(I3
I227
F0.5
g528
I2
tp1326
a(I3
I253
F0.5
g530
I2
tp1327
a(I3
I319
I0
g532
I2
tp1328
a(I3
I319
F0.5
g534
I2
tp1329
a(I5
I1
I0
g536
I2
tp1330
a(I5
I5
F0.5
g538
I2
tp1331
a(I6
I173
F0.5
g540
I2
tp1332
a(I6
I188
I0
g542
I2
tp1333
a(I7
I12
F0.5
g544
I2
tp1334
a(I7
I132
F0.5
g546
I2
tp1335
a(I7
I188
I0
g548
I2
tp1336
a(I7
I315
I0
g16
I2
tp1337
a(I7
I331
F0.5
g551
I2
tp1338
a(I7
I425
F0.5
g553
I2
tp1339
a(I7
I425
F-0.5
g555
I2
tp1340
a(I7
I425
F0.125
g557
I2
tp1341
a(I7
I462
F0.5
g559
I2
tp1342
a(I7
I465
F0.5
g561
I2
tp1343
a(I7
I472
F0.5
g563
I2
tp1344
a(I7
I474
F0.5
g565
I2
tp1345
a(I7
I517
F0.5
g567
I2
tp1346
a(I7
I523
F0.5
g569
I2
tp1347
a(I7
I525
F0.5
g571
I2
tp1348
a(I7
I526
F0.5
g573
I2
tp1349
a(I7
I541
I0
g575
I2
tp1350
a(I7
I541
F-0.375
g577
I2
tp1351
a(I7
I561
F1.0
g579
I2
tp1352
a(I7
I561
F0.5
g581
I2
tp1353
a(I8
I238
F0.5
g583
I2
tp1354
a(I8
I313
F0.5
g585
I2
tp1355
a(I8
I336
F0.5
g587
I2
tp1356
a(I8
I403
F0.5
g589
I2
tp1357
a(I8
I519
F0.5
g591
I2
tp1358
a(I9
I13
I0
g593
I2
tp1359
a(I9
I13
I0
g595
I2
tp1360
a(I10
I100
F0.5
g597
I2
tp1361
a(I11
I51
F0.5
g599
I2
tp1362
a(I12
I57
F0.5
g601
I2
tp1363
a(I14
I34
F0.5
g603
I2
tp1364
a(I14
I242
F0.5
g605
I2
tp1365
a(I14
I265
F0.5
g607
I2
tp1366
a(I15
I8
F0.5
g609
I2
tp1367
a(I15
I8
F0.5
g611
I2
tp1368
a(I15
I12
F0.5
g24
I2
tp1369
a(I15
I12
F0.5
g26
I2
tp1370
a(I16
I42
F0.5
g615
I2
tp1371
a(I16
I83
I0
g617
I2
tp1372
a(I16
I91
F0.5
g619
I2
tp1373
a(I16
I201
F0.5
g621
I2
tp1374
a(I18
I2
F0.5
g623
I2
tp1375
a(I19
I25
F0.5
g625
I2
tp1376
as(g304
S'big'
p1377
S'deal'
p1378
tp1379
(lp1380
(I3
I131
I0
S'big'
p1381
I7
tp1382
a(I6
I129
I0
S'big'
p1383
I7
tp1384
a(I6
I134
I0
S'big'
p1385
I7
tp1386
a(I6
I157
I0
S'big'
p1387
I7
tp1388
a(I7
I542
I0
S'big'
p1389
I7
tp1390
a(I7
I557
I0
S'big'
p1391
I7
tp1392
a(I14
I62
I0
S'big'
p1393
I7
tp1394
a(I14
I148
I0
S'big'
p1395
I7
tp1396
a(I20
I8
I0
S'big'
p1397
I7
tp1398
as(S'monthly'
p1399
S'fee'
p1400
tp1401
(lp1402
(I0
I205
I0
S'monthly'
p1403
I0
tp1404
a(I3
I101
I0
S'monthly'
p1405
I0
tp1406
a(I3
I101
F-0.25
S'higher'
p1407
I0
tp1408
a(I3
I101
F-0.5
S'less'
p1409
I0
tp1410
a(I3
I101
I0
S'monthly'
p1411
I0
tp1412
a(I7
I283
I0
S'monthly'
p1413
I0
tp1414
as(S'browser'
p1415
tp1416
(lp1417
(I3
I36
I0
S'full'
p1418
I0
tp1419
a(I3
I248
F1.0
S'good'
p1420
I0
tp1421
a(I3
I249
F1.0
S'good'
p1422
I0
tp1423
a(I3
I339
F0.125
S'able'
p1424
I0
tp1425
a(I7
I445
F0.875
S'nice'
p1426
I0
tp1427
a(I7
I577
F1.0
S'good'
p1428
I0
tp1429
a(I8
I108
F0.375
S'new'
p1430
I0
tp1431
a(I8
I461
I-100
S'once-but'
p1432
I0
tp1433
a(I12
I44
I0
S'full'
p1434
I0
tp1435
a(I14
I114
F1.0
S'good'
p1436
I0
tp1437
a(I14
I254
I0
S'faster'
p1438
I0
tp1439
a(I16
I98
F-0.625
S'bad'
p1440
I0
tp1441
as(S'business'
p1442
tp1443
(lp1444
(I3
I280
F1.0
S'best'
p1445
I9
tp1446
a(I3
I286
F1.0
S'good'
p1447
I9
tp1448
a(I8
I513
F0.5
S'personal'
p1449
I9
tp1450
a(I12
I11
F-0.375
S'serious'
p1451
I9
tp1452
a(I12
I13
F0.375
S'new'
p1453
I9
tp1454
a(I18
I332
I0
S'more'
p1455
I9
tp1456
a(I20
I2
F-0.25
S'ready'
p1457
I9
tp1458
a(I20
I7
F0.375
S'reliable'
p1459
I9
tp1460
a(I20
I16
F-0.375
S'unacceptable'
p1461
I9
tp1462
as(S'network'
p1463
tp1464
(lp1465
(I0
I224
I0
S'fastest'
p1466
I0
tp1467
a(I0
I233
I0
S'great'
p1468
I0
tp1469
a(I3
I117
F-0.375
S'top'
p1470
I0
tp1471
a(I3
I131
I0
S'wide'
p1472
I0
tp1473
a(I3
I134
I0
S'great'
p1474
I0
tp1475
a(I6
I45
F1.0
S'best'
p1476
I0
tp1477
a(I7
I514
F0.75
S'due'
p1478
I0
tp1479
a(I8
I464
F0.625
S'perfect'
p1480
I0
tp1481
a(I8
I513
I0
S'many'
p1482
I0
tp1483
a(I8
I513
I0
S'different'
p1484
I0
tp1485
a(I8
I513
I0
S'social'
p1486
I0
tp1487
a(I14
I105
F1.0
S'good'
p1488
I0
tp1489
a(I14
I171
F1.0
S'best'
p1490
I0
tp1491
a(I16
I172
F1.0
S'good'
p1492
I0
tp1493
a(I18
I33
F1.0
S'best'
p1494
I0
tp1495
as(S'e'
p1496
S'mail'
p1497
tp1498
(lp1499
(I3
I337
F0.125
g188
I2
tp1500
a(I7
I263
F-0.5
g243
I2
tp1501
a(I10
I3
F0.375
g245
I2
tp1502
a(I14
I113
I0
g200
I2
tp1503
as(S'media'
p1504
S'player'
p1505
tp1506
(lp1507
(I0
I63
F-0.625
S'other'
p1508
I0
tp1509
a(I1
I34
F0.625
S'fair'
p1510
I0
tp1511
a(I6
I102
F-0.125
S'ultimate'
p1512
I0
tp1513
a(I6
I163
F-0.125
S'mine'
p1514
I0
tp1515
a(I16
I149
F0.875
S'music'
p1516
I0
tp1517
a(I20
I28
F-0.75
S'difficult'
p1518
I0
tp1519
as(S'amount'
p1520
S'of'
p1521
S'time'
p1522
tp1523
(lp1524
(I7
I422
F-0.75
S'short'
p1525
I3
tp1526
as(S'interface'
p1527
tp1528
(lp1529
(I0
I38
F0.625
S'easy'
p1530
I1
tp1531
a(I3
I18
I-100
S'click-touch'
p1532
I1
tp1533
a(I3
I19
F0.5
S'distinguish'
p1534
I1
tp1535
a(I3
I93
F0.5
S'obvious'
p1536
I1
tp1537
a(I3
I93
I0
S'least'
p1538
I1
tp1539
a(I3
I96
F0.5
S'elegant'
p1540
I1
tp1541
a(I3
I103
F0.5
S'elegant'
p1542
I1
tp1543
a(I6
I132
I0
S'faster'
p1544
I1
tp1545
a(I7
I585
I0
S'close'
p1546
I1
tp1547
a(I8
I80
F0.375
S'new'
p1548
I1
tp1549
a(I8
I110
F0.75
S'beautiful'
p1550
I1
tp1551
a(I8
I114
F1.0
S'better'
p1552
I1
tp1553
a(I8
I114
I0
S'mobile'
p1554
I1
tp1555
a(I10
I60
F-0.375
S'simple'
p1556
I1
tp1557
a(I14
I201
F0.75
S'beautiful'
p1558
I1
tp1559
a(I14
I288
F-0.625
S'bad'
p1560
I1
tp1561
as(S'for'
p1562
S'one'
p1563
S'thing'
p1564
tp1565
(lp1566
(I0
I32
F0.5
S'whole'
p1567
I0
tp1568
a(I0
I148
I0
S'great'
p1569
I0
tp1570
a(I8
I122
F0.375
S'strangest'
p1571
I0
tp1572
a(I8
I216
I0
S'same'
p1573
I0
tp1574
a(I16
I240
F0.875
S'important'
p1575
I0
tp1576
a(I18
I325
F-0.625
S'other'
p1577
I0
tp1578
as(S'an'
p1579
S'ipod'
p1580
S'touch'
p1581
tp1582
(lp1583
(I3
I317
I0
S'different'
p1584
I0
tp1585
a(I6
I71
I0
S'own'
p1586
I0
tp1587
a(I7
I182
I0
S'own'
p1588
I0
tp1589
a(I19
I25
I0
S'more'
p1590
I0
tp1591
a(I3
I317
I0
g1584
I0
tp1592
a(I6
I71
I0
g1586
I0
tp1593
a(I7
I182
I0
g1588
I0
tp1594
a(I19
I25
I0
g1590
I0
tp1595
as(S'much'
p1596
S'better'
p1597
tp1598
(lp1599
(I2
I10
F0.375
S'much'
p1600
I9
tp1601
a(I3
I307
F0.375
S'much'
p1602
I9
tp1603
a(I3
I307
F0.625
S'easier'
p1604
I9
tp1605
a(I8
I147
F0.375
S'much'
p1606
I9
tp1607
a(I8
I233
F0.375
S'much'
p1608
I9
tp1609
a(I14
I114
F0.375
S'much'
p1610
I9
tp1611
a(I15
I9
F0.375
g1152
I9
tp1612
a(I18
I114
F0.375
S'much'
p1613
I9
tp1614
as(S'click'
p1615
tp1616
(lp1617
(I6
I79
F0.125
S'key'
p1618
I6
tp1619
a(I14
I182
I0
S'tactile'
p1620
I6
tp1621
a(I16
I81
F-0.125
S'slow'
p1622
I6
tp1623
as(S'portrait'
p1624
S'to'
p1625
S'landscape'
p1626
tp1627
(lp1628
(I0
I176
I0
S'active'
p1629
I0
tp1630
a(I8
I88
I0
S'portrait'
p1631
I0
tp1632
as(S'takes'
p1633
tp1634
(lp1635
(I3
I338
I0
S'great'
p1636
I19
tp1637
as(S'internet'
p1638
tp1639
(lp1640
(I2
I17
F0.125
S'able'
p1641
I6
tp1642
a(I3
I296
I0
S'e-mail'
p1643
I6
tp1644
a(I3
I296
I0
S'basic'
p1645
I6
tp1646
a(I6
I24
I0
S'fast'
p1647
I6
tp1648
a(I6
I168
I0
S'faster'
p1649
I6
tp1650
a(I6
I189
F0.375
S'honest'
p1651
I6
tp1652
a(I8
I127
F-0.875
S'negative'
p1653
I6
tp1654
a(I8
I428
F-0.125
S'slow'
p1655
I6
tp1656
a(I8
I437
I0
S'fast'
p1657
I6
tp1658
a(I12
I142
I0
S'mobile'
p1659
I6
tp1660
a(I14
I14
F0.625
S'kind'
p1661
I6
tp1662
a(I14
I60
F0.625
S'easy'
p1663
I6
tp1664
a(I15
I8
I-100
S'not.-decent'
p1665
I6
tp1666
as(S'3rd'
p1667
S'party'
p1668
tp1669
(lp1670
(I8
I231
I0
S'many'
p1671
I0
tp1672
as(S'progress'
p1673
S'bar'
p1674
tp1675
(lp1676
(I18
I273
F-0.375
S'top'
p1677
I0
tp1678
as(S'apps'
p1679
tp1680
(lp1681
(I1
I32
I0
S'most'
p1682
I0
tp1683
a(I2
I13
I0
S'same'
p1684
I0
tp1685
a(I3
I128
F0.375
S'available'
p1686
I0
tp1687
a(I3
I243
I0
S'many'
p1688
I0
tp1689
a(I3
I244
F0.375
S'available'
p1690
I0
tp1691
a(I6
I66
I0
S'identical'
p1692
I0
tp1693
a(I7
I45
F-0.625
S'bad'
p1694
I0
tp1695
a(I7
I216
I0
S'old'
p1696
I0
tp1697
a(I7
I327
F0.375
S'new'
p1698
I0
tp1699
a(I7
I327
F-0.375
S'daily'
p1700
I0
tp1701
a(I7
I512
I0
S'more'
p1702
I0
tp1703
a(I8
I149
I0
S'more'
p1704
I0
tp1705
a(I8
I150
F0.625
S'decent'
p1706
I0
tp1707
a(I8
I268
I0
S'many'
p1708
I0
tp1709
a(I8
I268
F-0.625
S'free'
p1710
I0
tp1711
a(I8
I268
F0.375
S'available'
p1712
I0
tp1713
a(I8
I372
I0
S'many'
p1714
I0
tp1715
a(I12
I145
F0.125
S'solid'
p1716
I0
tp1717
a(I14
I81
F-0.625
S'other'
p1718
I0
tp1719
a(I15
I15
I0
S'along'
p1720
I0
tp1721
a(I16
I61
F0.625
S'easy'
p1722
I0
tp1723
a(I16
I134
I0
S'few'
p1724
I0
tp1725
a(I16
I145
I0
S'many'
p1726
I0
tp1727
a(I16
I145
F0.375
S'available'
p1728
I0
tp1729
a(I19
I9
F0.375
S'new'
p1730
I0
tp1731
as(S'new'
p1732
S'software'
p1733
S'update'
p1734
tp1735
(lp1736
(I0
I11
F0.5
g1173
I0
tp1737
a(I0
I11
F0.375
g1175
I0
tp1738
a(I7
I142
F0.375
g1179
I0
tp1739
a(I8
I505
F0.375
g1189
I0
tp1740
a(I8
I505
I0
g1191
I0
tp1741
a(I10
I92
F0.375
g1193
I0
tp1742
a(I10
I92
F0.75
g1195
I0
tp1743
a(I18
I204
F0.375
g1205
I0
tp1744
a(I0
I11
F0.5
g1173
I0
tp1745
a(I0
I11
F0.375
g1175
I0
tp1746
a(I2
I13
I0
g1177
I0
tp1747
a(I7
I142
F0.375
g1179
I0
tp1748
a(I7
I182
I0
g1181
I0
tp1749
a(I7
I317
F0.5
g1183
I0
tp1750
a(I8
I429
I0
g1185
I0
tp1751
a(I8
I475
F0.5
g1187
I0
tp1752
a(I8
I505
F0.375
g1189
I0
tp1753
a(I8
I505
I0
g1191
I0
tp1754
a(I10
I92
F0.375
g1193
I0
tp1755
a(I10
I92
F0.75
g1195
I0
tp1756
a(I14
I91
F0.625
g1197
I0
tp1757
a(I15
I18
F-0.75
g1199
I0
tp1758
a(I15
I18
F1.0
g1201
I0
tp1759
a(I16
I126
F0.25
g1203
I0
tp1760
a(I18
I204
F0.375
g1205
I0
tp1761
as(S'calls'
p1762
tp1763
(lp1764
(I1
I55
F-0.5
S'less'
p1765
I0
tp1766
a(I3
I317
F-0.25
S'dropped'
p1767
I0
tp1768
a(I6
I96
F1.0
S'good'
p1769
I0
tp1770
a(I7
I238
F-0.125
S'accidental'
p1771
I0
tp1772
a(I7
I376
F-0.25
S'dropped'
p1773
I0
tp1774
a(I7
I538
F-0.25
S'dropped'
p1775
I0
tp1776
a(I8
I228
F-0.625
S'free'
p1777
I0
tp1778
a(I10
I18
F0.125
S'able'
p1779
I0
tp1780
a(I12
I67
I0
S'fewest'
p1781
I0
tp1782
a(I14
I142
F-0.25
S'dropped'
p1783
I0
tp1784
a(I14
I330
F-0.625
S'average'
p1785
I0
tp1786
a(I18
I152
F-0.25
S'dropped'
p1787
I0
tp1788
a(I18
I153
F0.75
S'receive'
p1789
I0
tp1790
as.