(dp0
(S'works'
p1
S'fine'
p2
tp3
(lp4
(I119
I0
F0.375
S'new'
p5
tp6
as(S'problem'
p7
tp8
(lp9
(I45
I2
I0
S'only'
p10
tp11
a(I65
I0
I0
S'only'
p12
tp13
a(I130
I0
F0.25
S'main'
p14
tp15
a(I144
I6
F-0.125
S'mine'
p16
tp17
a(I205
I5
I0
S'same'
p18
tp19
a(I243
I4
F0.25
S'bigger'
p20
tp21
a(I255
I2
I0
S'great'
p22
tp23
a(I284
I4
I0
S'same'
p24
tp25
a(I299
I6
I0
S'same'
p26
tp27
a(I300
I3
I0
S'italian'
p28
tp29
as(S'battery'
p30
S'life'
p31
tp32
(lp33
(I12
I0
F1.0
S'good'
p34
tp35
a(I15
I2
F-0.5
S'poor'
p36
tp37
a(I109
I1
I0
S'great'
p38
tp39
a(I198
I4
F-0.5
S'poor'
p40
tp41
a(I268
I0
F-0.75
S'short'
p42
tp43
as(S'purchase'
p44
tp45
(lp46
(I38
I0
F0.625
S'major'
p47
tp48
a(I122
I0
F1.0
S'best'
p49
tp50
a(I156
I1
F0.875
S'happy'
p51
tp52
a(I165
I2
F-0.875
S'unhappy'
p53
tp54
a(I200
I9
F-0.25
S'disappointed'
p55
tp56
as(S'customer'
p57
S'service'
p58
tp59
(lp60
(I126
I1
F-0.625
S'bad'
p61
tp62
a(I275
I1
F0.25
S'helpful'
p63
tp64
a(I285
I3
F0.5
S'loyal'
p65
tp66
a(I294
I4
F-0.625
S'bad'
p67
tp68
as(S'cheap'
p69
tp70
(lp71
(I77
I4
F0.625
S'finish'
p72
tp73
a(I97
I1
F1.0
S'good'
p74
tp75
a(I221
I0
F1.0
S'good'
p76
tp77
a(I234
I5
F-0.5
S'breakable'
p78
tp79
as(S'motorola'
p80
tp81
(lp82
(I5
I0
I0
S'earlier'
p83
tp84
a(I15
I1
F0.25
S'original'
p85
tp86
a(I31
I0
F0.25
S'original'
p87
tp88
a(I54
I1
I0
S'same'
p89
tp90
a(I96
I8
I0
S'old'
p91
tp92
a(I102
I0
I0
S'third'
p93
tp94
a(I102
I10
F-0.625
S'bad'
p95
tp96
a(I107
I0
F0.25
S'original'
p97
tp98
a(I125
I1
F0.5
S'second'
p99
tp100
a(I127
I2
I0
S'same'
p101
tp102
a(I127
I2
F0.25
S'original'
p103
tp104
a(I130
I2
I0
S'old'
p105
tp106
a(I147
I0
F-0.375
S'stop'
p107
tp108
a(I176
I0
I0
S'old'
p109
tp110
a(I204
I0
F0.25
S'original'
p111
tp112
a(I205
I0
F-0.375
S'black'
p113
tp114
a(I220
I0
F0.375
S'new'
p115
tp116
a(I233
I0
F-0.25
S'past'
p117
tp118
a(I233
I1
F-0.375
S'black'
p119
tp120
a(I284
I0
F0.375
S'new'
p121
tp122
a(I304
I2
I0
S'same'
p123
tp124
as(S'came'
p125
tp126
(lp127
(I119
I1
I0
S'chinese'
p128
tp129
as(S'text'
p130
tp131
(lp132
(I115
I30
F-0.5
S'regular'
p133
tp134
a(I317
I8
F-0.375
S'simple'
p135
tp136
as(S'card'
p137
tp138
(lp139
(I35
I1
I0
S'reinstall'
p140
tp141
a(I96
I8
F-0.125
S'mine'
p142
tp143
a(I184
I0
F-0.875
S'hard'
p144
tp145
as(S'bought'
p146
tp147
(lp148
(I169
I1
F0.375
S'new'
p149
tp150
a(I188
I0
F0.375
S'new'
p151
tp152
as(S'screen'
p153
tp154
(lp155
(I71
I8
I0
S'blue'
p156
tp157
a(I157
I1
F-0.375
S'black'
p158
tp159
a(I157
I1
F-0.75
S'dead'
p160
tp161
a(I188
I0
F-0.875
S'unhappy'
p162
tp163
a(I278
I1
F0.5
S'touch'
p164
tp165
a(I336
I1
F0.375
S'interior'
p166
tp167
a(I349
I2
F-0.5
S'breakable'
p168
tp169
a(I350
I2
F-0.25
S'loose'
p170
tp171
as(S'one'
p172
S'day'
p173
tp174
(lp175
(I75
I0
I0
S'third'
p176
tp177
a(I76
I0
F0.125
S'first'
p178
tp179
a(I93
I3
F-0.5
S'sure'
p180
tp181
a(I102
I3
I0
S'lasted'
p182
tp183
a(I104
I1
F-0.5
S'less'
p184
tp185
a(I108
I0
F1.0
S'good'
p186
tp187
a(I127
I3
I0
S'third'
p188
tp189
a(I143
I1
F-0.75
S'single'
p190
tp191
a(I160
I2
F0.125
S'last'
p192
tp193
a(I286
I3
F-0.25
S'past'
p194
tp195
as(S'service'
p196
tp197
(lp198
(I33
I2
I0
S'only'
p199
tp200
a(I117
I0
I0
S'great'
p201
tp202
a(I126
I1
F-0.625
g61
tp203
a(I127
I0
I0
S'great'
p204
tp205
a(I237
I6
I0
S'optional'
p206
tp207
a(I285
I1
F1.0
S'good'
p208
tp209
a(I294
I4
F-0.625
g67
tp210
a(I308
I0
F-0.25
S'ready'
p211
tp212
a(I332
I3
F0.5
S'compatible'
p213
tp214
as(S'problems'
p215
tp216
(lp217
(I16
I3
I0
S'same'
p218
tp219
a(I74
I0
I0
S'few'
p220
tp221
a(I144
I1
I0
S'few'
p222
tp223
a(I195
I2
I0
S'same'
p224
tp225
a(I299
I4
I0
S'many'
p226
tp227
as(S'getting'
p228
tp229
(lp230
(I165
I4
F-0.75
S'likely'
p231
tp232
a(I255
I1
F-0.875
S'trouble'
p233
tp234
a(I288
I1
F-0.875
S'trouble'
p235
tp236
as(S'back'
p237
tp238
(lp239
(I81
I0
I0
S'many'
p240
tp241
a(I229
I6
F0.875
S'important'
p242
tp243
a(I265
I0
I0
S'forth'
p244
tp245
as(S'version'
p246
tp247
(lp248
(I28
I4
I0
S'old'
p249
tp250
a(I90
I3
I0
S'older'
p251
tp252
a(I119
I1
F-0.125
S'foreign'
p253
tp254
a(I119
I1
I0
S'english'
p255
tp256
a(I170
I0
I0
S'same'
p257
tp258
a(I197
I0
I0
S'american'
p259
tp260
a(I198
I1
I0
S'european'
p261
tp262
a(I233
I0
F-0.5
S'international'
p263
tp264
a(I233
I3
F-0.5
S'international'
p265
tp266
a(I233
I3
F-0.5
S'international'
p267
tp268
a(I323
I0
F-0.5
S'international'
p269
tp270
a(I330
I4
I0
S'latest'
p271
tp272
a(I347
I0
F-0.5
S'international'
p273
tp274
a(I347
I1
F-0.5
S'international'
p275
tp276
a(I347
I1
F-0.5
S'international'
p277
tp278
as(S'oem'
p279
S'shop'
p280
tp281
(lp282
(I191
I1
F0.125
S'profile'
p283
tp284
as(S'charging'
p285
S'port'
p286
tp287
(lp288
(I345
I0
F-0.625
S'bad'
p289
tp290
as(S'years'
p291
tp292
(lp293
(I16
I0
I0
S'old'
p294
tp295
a(I27
I1
F0.125
S'first'
p296
tp297
a(I33
I2
I0
S'many'
p298
tp299
a(I69
I4
I0
S'standard'
p300
tp301
a(I102
I3
F0.5
S'second'
p302
tp303
a(I102
I3
I0
S'lasted'
p304
tp305
a(I102
I3
F0.25
S'recent'
p306
tp307
a(I149
I0
I0
S'few'
p308
tp309
a(I156
I0
I0
S'many'
p310
tp311
a(I202
I0
I0
S'old'
p312
tp313
a(I245
I0
I0
S'great'
p314
tp315
as(S'ring'
p316
S'tones'
p317
tp318
(lp319
(I212
I4
F-0.75
S'unable'
p320
tp321
a(I257
I1
I0
S'big'
p322
tp323
as(S'refund'
p324
tp325
(lp326
(I99
I0
I0
S'full'
p327
tp328
a(I218
I4
F-0.25
S'late'
p329
tp330
a(I218
I7
F-0.25
S'late'
p331
tp332
as(S'predictive'
p333
S'texting'
p334
tp335
(lp336
(I317
I6
F-0.75
S'unable'
p337
tp338
a(I317
I6
F-0.375
S'manual'
p339
tp340
as(S'picture'
p341
S'messages'
p342
tp343
(lp344
(I220
I0
F-0.5
S'open'
p345
tp346
as(S'quality'
p347
tp348
(lp349
(I15
I0
F-0.5
S'poor'
p350
tp351
a(I28
I3
I0
S'old'
p352
tp353
a(I102
I10
I0
S'such'
p354
tp355
a(I102
I10
F-0.25
S'low'
p356
tp357
a(I109
I1
F-0.5
S'poor'
p358
tp359
a(I144
I2
F0.125
S'equal'
p360
tp361
a(I210
I3
F1.0
S'best'
p362
tp363
a(I229
I6
F-0.5
S'less'
p364
tp365
a(I237
I3
F1.0
S'good'
p366
tp367
a(I244
I3
I0
S'great'
p368
tp369
a(I244
I4
F0.5
S'clear'
p370
tp371
a(I244
I4
F1.0
S'good'
p372
tp373
a(I248
I3
F-0.5
S'poor'
p374
tp375
a(I285
I3
F-0.25
S'low'
p376
tp377
a(I303
I0
F-0.875
S'awful'
p378
tp379
as(S'product'
p380
tp381
(lp382
(I5
I1
I0
S'more'
p383
tp384
a(I73
I0
F0.375
S'new'
p385
tp386
a(I73
I1
F0.375
S'new'
p387
tp388
a(I104
I5
F0.875
S'happy'
p389
tp390
a(I108
I2
F-0.25
S'disappointing'
p391
tp392
a(I149
I5
I0
S'particular'
p393
tp394
a(I194
I2
F-0.5
S'sure'
p395
tp396
a(I194
I2
I0
S'great'
p397
tp398
a(I218
I3
F0.125
S'first'
p399
tp400
a(I270
I3
F-0.75
S'sad'
p401
tp402
a(I276
I5
F0.25
S'used'
p403
tp404
a(I320
I3
F1.0
S'good'
p405
tp406
a(I327
I0
I0
S'old'
p407
tp408
as(S'right'
p409
tp410
(lp411
(I212
I0
F0.375
S'new'
p412
tp413
as(S'return'
p414
tp415
(lp416
(I8
I7
F-0.25
S'past'
p417
tp418
a(I348
I2
F-0.75
S'likely'
p419
tp420
as(S'volume'
p421
tp422
(lp423
(I134
I3
F-0.25
S'low'
p424
tp425
a(I134
I3
F-0.875
S'hard'
p426
tp427
a(I148
I2
I0
S'adequate'
p428
tp429
a(I148
I2
I0
S'great'
p430
tp431
as(S'big'
p432
S'deal'
p433
tp434
(lp435
(I139
I14
I0
S'big'
p436
tp437
a(I243
I2
I0
S'big'
p438
tp439
a(I263
I3
I0
S'big'
p440
tp441
a(I263
I3
I0
S'only'
p442
tp443
as(S'cover'
p444
tp445
(lp446
(I130
I2
I0
S'rear'
p447
tp448
as(S'hold'
p449
S'a'
p450
S'charge'
p451
tp452
(lp453
(I44
I1
F-0.5
S'long'
p454
tp455
a(I70
I1
F-0.5
S'longer'
p456
tp457
a(I237
I4
F-0.5
S'long'
p458
tp459
a(I237
I4
I0
S'more'
p460
tp461
a(I317
I0
F-0.5
S'long'
p462
tp463
as(S'work'
p464
tp465
(lp466
(I30
I2
I0
S'great'
p467
tp468
as(S'new'
p469
S'battery'
p470
tp471
(lp472
(I6
I1
F0.375
S'new'
p473
tp474
a(I96
I6
F0.375
S'new'
p475
tp476
a(I96
I7
F0.375
S'new'
p477
tp478
a(I106
I5
F0.375
S'new'
p479
tp480
a(I115
I22
F0.375
S'new'
p481
tp482
a(I136
I6
F0.375
S'new'
p483
tp484
a(I139
I18
F0.375
S'new'
p485
tp486
a(I198
I6
F0.375
S'new'
p487
tp488
a(I236
I2
F0.375
S'new'
p489
tp490
as(S'black'
p491
tp492
(lp493
(I134
I2
F0.5
S'flat'
p494
tp495
a(I229
I30
F0.5
S'flat'
p496
tp497
as(S'razr'
p498
S'v3'
p499
tp500
(lp501
(I78
I2
I0
S'old'
p502
tp503
a(I98
I0
F0.375
S'new'
p504
tp505
a(I115
I0
F0.375
S'new'
p506
tp507
a(I115
I0
I0
S'old'
p508
tp509
a(I215
I4
F0.25
S'original'
p510
tp511
a(I304
I2
I0
S'third'
p512
tp513
as(S'send'
p514
S't'
p515
S'back'
p516
tp517
(lp518
(I265
I0
I0
g244
tp519
as(S'seller'
p520
tp521
(lp522
(I90
I1
F0.25
S'professional'
p523
tp524
a(I99
I0
F0.5
S'willing'
p525
tp526
a(I106
I3
I0
S'such'
p527
tp528
a(I115
I0
F0.125
S'first'
p529
tp530
a(I115
I0
I0
S'e-mail'
p531
tp532
a(I209
I4
F-0.75
S'unable'
p533
tp534
a(I263
I0
I0
S'different'
p535
tp536
a(I263
I0
F-0.5
S'sure'
p537
tp538
a(I307
I6
F1.0
S'good'
p539
tp540
a(I307
I7
F0.25
S'responsive'
p541
tp542
as(S'weeks'
p543
tp544
(lp545
(I63
I0
I0
S'few'
p546
tp547
a(I64
I4
F0.375
S'working'
p548
tp549
a(I64
I5
F0.125
S'last'
p550
tp551
a(I311
I1
I0
S'few'
p552
tp553
a(I328
I2
I0
S'few'
p554
tp555
a(I328
I2
I0
S'later'
p556
tp557
a(I333
I1
I0
S'later'
p558
tp559
as(S'original'
p560
S'motorola'
p561
S'razr'
p562
tp563
(lp564
(I15
I1
F0.25
g85
tp565
a(I31
I0
F0.25
g87
tp566
a(I107
I0
F0.25
g97
tp567
a(I127
I2
I0
g101
tp568
a(I127
I2
F0.25
g103
tp569
a(I139
I21
F0.25
S'original'
p570
tp571
a(I204
I0
F0.25
g111
tp572
as(S'customer'
p573
tp574
(lp575
(I45
I3
F0.5
S'drive'
p576
tp577
a(I228
I2
F0.875
S'happy'
p578
tp579
a(I271
I13
F-0.375
S'small'
p580
tp581
a(I275
I1
F0.25
g63
tp582
a(I285
I3
F0.5
g65
tp583
as(S'works'
p584
tp585
(lp586
(I1
I1
I0
S'quicker'
p587
tp588
a(I16
I2
F0.375
S'new'
p589
tp590
a(I16
I2
I0
S'great'
p591
tp592
a(I26
I2
F1.0
S'good'
p593
tp594
a(I119
I0
F0.375
g5
tp595
a(I163
I3
I0
S'great'
p596
tp597
a(I232
I1
I0
S'great'
p598
tp599
a(I255
I3
I0
S'great'
p600
tp601
as(S'razor'
p602
tp603
(lp604
(I6
I0
F0.375
S'new'
p605
tp606
a(I22
I0
F0.25
S'original'
p607
tp608
a(I22
I1
I0
S'old'
p609
tp610
a(I27
I0
F0.5
S'second'
p611
tp612
a(I35
I0
F0.25
S'original'
p613
tp614
a(I77
I2
I0
S'real'
p615
tp616
a(I102
I13
I0
S'more'
p617
tp618
as(S'us'
p619
S'version'
p620
tp621
(lp622
(I197
I0
I0
g259
tp623
a(I198
I1
I0
g261
tp624
a(I233
I3
F-0.5
g265
tp625
a(I233
I3
F-0.5
g267
tp626
as(S'u'
p627
S's'
p628
S'version'
p629
tp630
(lp631
(I90
I3
I0
g251
tp632
a(I119
I1
F-0.125
g253
tp633
a(I119
I1
I0
g255
tp634
a(I170
I0
I0
g257
tp635
a(I197
I0
I0
g259
tp636
a(I198
I1
I0
g261
tp637
a(I233
I0
F-0.5
g263
tp638
a(I233
I3
F-0.5
g265
tp639
a(I233
I3
F-0.5
g267
tp640
a(I323
I0
F-0.5
g269
tp641
a(I330
I4
I0
g271
tp642
a(I347
I0
F-0.5
g273
tp643
a(I347
I1
F-0.5
g275
tp644
a(I347
I1
F-0.5
g277
tp645
as(S'battery'
p646
tp647
(lp648
(I6
I1
F0.375
g473
tp649
a(I29
I3
F-0.25
S'low'
p650
tp651
a(I34
I0
F1.0
S'good'
p652
tp653
a(I70
I2
F-0.25
S'disappointing'
p654
tp655
a(I87
I0
F-0.125
S'slow'
p656
tp657
a(I96
I6
F0.375
g475
tp658
a(I96
I7
F0.375
g477
tp659
a(I104
I2
I0
S'ancient'
p660
tp661
a(I106
I5
F0.375
g479
tp662
a(I108
I0
F-0.5
S'power'
p663
tp664
a(I115
I22
F0.375
g481
tp665
a(I115
I32
F-0.25
S'low'
p666
tp667
a(I115
I37
F-0.25
S'low'
p668
tp669
a(I136
I6
F0.375
g483
tp670
a(I139
I18
F0.375
g485
tp671
a(I143
I1
F-0.75
S'invalid'
p672
tp673
a(I198
I4
F-0.5
g40
tp674
a(I198
I6
F0.375
g487
tp675
a(I205
I4
F-0.5
S'sudden'
p676
tp677
a(I205
I4
F-0.25
S'low'
p678
tp679
a(I215
I3
F0.125
S'fat'
p680
tp681
a(I229
I25
F-0.625
S'other'
p682
tp683
a(I229
I25
F-0.625
S'bad'
p684
tp685
a(I229
I25
F0.25
S'original'
p686
tp687
a(I229
I27
F-0.5
S'less'
p688
tp689
a(I236
I2
F0.375
g489
tp690
a(I247
I2
F-0.25
S'low'
p691
tp692
a(I262
I12
I0
S'same'
p693
tp694
a(I281
I1
F0.5
S'second'
p695
tp696
a(I345
I1
F-0.625
S'useless'
p697
tp698
as(S'store'
p699
tp700
(lp701
(I10
I0
I0
S'cellular'
p702
tp703
as(S'money'
p704
tp705
(lp706
(I165
I6
I0
S'more'
p707
tp708
a(I165
I6
F0.625
S'right'
p709
tp710
a(I211
I3
F-0.5
S'long'
p711
tp712
a(I250
I3
F0.625
S'easy'
p713
tp714
a(I303
I3
F0.75
S'worth'
p715
tp716
as(S'motorola'
p717
S'razr'
p718
tp719
(lp720
(I15
I1
F0.25
g85
tp721
a(I31
I0
F0.25
g87
tp722
a(I54
I1
I0
g89
tp723
a(I96
I8
I0
g91
tp724
a(I107
I0
F0.25
g97
tp725
a(I127
I2
I0
g101
tp726
a(I127
I2
F0.25
g103
tp727
a(I139
I21
F0.25
g570
tp728
a(I147
I0
F-0.375
g107
tp729
a(I147
I4
I0
S'old'
p730
tp731
a(I176
I0
I0
g109
tp732
a(I204
I0
F0.25
g111
tp733
a(I205
I0
F-0.375
g113
tp734
a(I220
I0
F0.375
g115
tp735
a(I233
I0
F-0.25
g117
tp736
a(I233
I1
F-0.375
g119
tp737
a(I284
I0
F0.375
g121
tp738
a(I304
I2
I0
g123
tp739
a(I304
I2
I0
g512
tp740
as(S'replacement'
p741
tp742
(lp743
(I37
I2
F0.375
S'new'
p744
tp745
as(S'cell'
p746
tp747
(lp748
(I56
I3
F0.5
S'told'
p749
tp750
a(I78
I3
F-0.625
S'other'
p751
tp752
a(I78
I3
F0.5
S'satisfied'
p753
tp754
a(I79
I0
F1.0
S'good'
p755
tp756
a(I153
I0
F-0.625
S'bad'
p757
tp758
a(I242
I1
F0.5
S'compatible'
p759
tp760
a(I244
I2
I0
S'sensitive'
p761
tp762
a(I244
I2
F-0.625
S'other'
p763
tp764
a(I244
I2
F-0.5
S'weak'
p765
tp766
a(I263
I6
F0.25
S'unlocked'
p767
tp768
a(I269
I0
I0
S'different'
p769
tp770
a(I284
I0
F0.25
S'refurbished'
p771
tp772
as(S'never'
p773
tp774
(lp775
(I263
I3
F-0.75
S'likely'
p776
tp777
as(S'calls'
p778
tp779
(lp780
(I8
I6
F-0.375
S'daily'
p781
tp782
a(I62
I0
F0.25
S'recent'
p783
tp784
a(I70
I1
F-0.75
S'short'
p785
tp786
a(I114
I0
F1.0
S'good'
p787
tp788
a(I115
I19
F0.25
S'recent'
p789
tp790
a(I115
I43
F0.5
S'possible'
p791
tp792
a(I115
I43
F0.75
S'receive'
p793
tp794
a(I206
I0
F-0.5
S'vibrate'
p795
tp796
a(I212
I4
F0.125
S'able'
p797
tp798
a(I285
I2
F-0.75
S'unable'
p799
tp800
a(I317
I2
F-0.25
S'dropped'
p801
tp802
as(S'thing'
p803
tp804
(lp805
(I9
I0
I0
S'only'
p806
tp807
a(I78
I2
F1.0
S'good'
p808
tp809
a(I96
I9
I0
S'only'
p810
tp811
a(I115
I26
I0
S'same'
p812
tp813
a(I147
I4
F1.0
S'good'
p814
tp815
a(I227
I8
I0
S'only'
p816
tp817
a(I227
I8
F0.625
S'positive'
p818
tp819
a(I229
I29
I0
S'only'
p820
tp821
a(I229
I29
F1.0
S'good'
p822
tp823
a(I271
I8
I0
S'same'
p824
tp825
a(I286
I4
F0.125
S'last'
p826
tp827
a(I319
I0
F0.125
S'first'
p828
tp829
a(I319
I0
F0.5
S'second'
p830
tp831
a(I319
I0
F-0.375
S'unacceptable'
p832
tp833
a(I327
I0
I0
S'same'
p834
tp835
a(I328
I5
F-0.75
S'wrong'
p836
tp837
as(S'sim'
p838
S'card'
p839
tp840
(lp841
(I35
I1
I0
g140
tp842
a(I76
I2
F0.375
S'new'
p843
tp844
a(I96
I8
F-0.5
S'sure'
p845
tp846
a(I96
I8
F-0.125
g142
tp847
a(I106
I15
I0
S'local'
p848
tp849
a(I139
I6
I0
S'old'
p850
tp851
a(I187
I3
F0.375
S'new'
p852
tp853
as(S'charge'
p854
tp855
(lp856
(I29
I3
F0.375
S'complete'
p857
tp858
a(I44
I1
F-0.5
g454
tp859
a(I70
I1
F-0.5
g456
tp860
a(I115
I4
F0.375
S'complete'
p861
tp862
a(I120
I0
F0.375
S'complete'
p863
tp864
a(I143
I1
F0.125
S'last'
p865
tp866
a(I237
I4
F-0.5
g458
tp867
a(I237
I4
I0
g460
tp868
a(I247
I3
F0.375
S'complete'
p869
tp870
a(I247
I5
F0.375
S'complete'
p871
tp872
a(I317
I0
F-0.5
g462
tp873
as(S'however'
p874
tp875
(lp876
(I256
I1
I0
S'same'
p877
tp878
as(g450
S'us'
p879
S'version'
p880
tp881
(lp882
(I197
I0
I0
g259
tp883
a(I198
I1
I0
g261
tp884
a(I233
I3
F-0.5
g265
tp885
a(I233
I3
F-0.5
g267
tp886
as(S'flip'
p887
tp888
(lp889
(I145
I1
F1.0
S'best'
p890
tp891
a(I225
I0
F-0.25
S'inexpensive'
p892
tp893
as(S'call'
p894
tp895
(lp896
(I76
I6
F-0.5
S'vibrate'
p897
tp898
a(I292
I5
I0
S'third'
p899
tp900
a(I292
I5
I0
S'dial'
p901
tp902
as(S'digital'
p903
S'camera'
p904
tp905
(lp906
(I237
I5
F0.125
S'digital'
p907
tp908
a(I237
I6
F0.125
S'digital'
p909
tp910
as(S'warranty'
p911
tp912
(lp913
(I6
I0
F-0.375
S'black'
p914
tp915
a(I102
I6
F0.875
S'lucky'
p916
tp917
a(I160
I1
F0.5
S'told'
p918
tp919
a(I236
I4
F1.0
S'best'
p920
tp921
a(I271
I0
I0
S'full'
p922
tp923
a(I287
I0
F-0.625
S'sorry'
p924
tp925
as(S'company'
p926
tp927
(lp928
(I95
I2
I0
S'quick'
p929
tp930
a(I115
I49
F1.0
S'good'
p931
tp932
a(I165
I10
F0.375
S'new'
p933
tp934
a(I282
I3
F1.0
S'good'
p935
tp936
a(I292
I4
I0
S'different'
p937
tp938
as(S'time'
p939
tp940
(lp941
(I9
I5
I0
S'third'
p942
tp943
a(I14
I0
F0.5
S'second'
p944
tp945
a(I14
I1
F0.125
S'first'
p946
tp947
a(I38
I0
F0.125
S'first'
p948
tp949
a(I38
I1
F-0.5
S'long'
p950
tp951
a(I53
I2
F-0.875
S'hard'
p952
tp953
a(I65
I0
F1.0
S'good'
p954
tp955
a(I71
I6
F0.125
S'first'
p956
tp957
a(I77
I5
F0.75
S'worth'
p958
tp959
a(I78
I0
F0.125
S'first'
p960
tp961
a(I78
I1
F0.125
S'first'
p962
tp963
a(I126
I1
F0.25
S'sweet'
p964
tp965
a(I186
I1
F-0.5
S'long'
p966
tp967
a(I196
I2
F-0.5
S'long'
p968
tp969
a(I208
I0
I0
S'fourth'
p970
tp971
a(I228
I1
I0
S'spanish'
p972
tp973
a(I228
I1
I0
S'military'
p974
tp975
a(I229
I8
I0
S'more'
p976
tp977
a(I234
I2
F0.125
S'first'
p978
tp979
a(I253
I0
I0
S'big'
p980
tp981
a(I262
I1
F0.125
S'first'
p982
tp983
a(I274
I1
F0.125
S'last'
p984
tp985
a(I277
I3
F0.125
S'last'
p986
tp987
a(I302
I4
F-0.625
S'other'
p988
tp989
a(I317
I5
I0
S'many'
p990
tp991
a(I324
I0
I0
S'same'
p992
tp993
a(I343
I1
F-0.875
S'hard'
p994
tp995
as(g450
S'new'
p996
S'battery'
p997
tp998
(lp999
(I6
I1
F0.375
g473
tp1000
a(I96
I6
F0.375
g475
tp1001
a(I96
I7
F0.375
g477
tp1002
a(I106
I5
F0.375
g479
tp1003
a(I115
I22
F0.375
g481
tp1004
a(I136
I6
F0.375
g483
tp1005
a(I139
I18
F0.375
g485
tp1006
a(I198
I6
F0.375
g487
tp1007
a(I236
I2
F0.375
g489
tp1008
as(S'motorola'
p1009
S'razr'
p1010
S'v3'
p1011
tp1012
(lp1013
(I31
I0
F0.25
g87
tp1014
a(I147
I0
F-0.375
g107
tp1015
a(I176
I0
I0
g109
tp1016
a(I205
I0
F-0.375
g113
tp1017
a(I220
I0
F0.375
g115
tp1018
a(I233
I0
F-0.25
g117
tp1019
a(I233
I1
F-0.375
g119
tp1020
a(I304
I2
I0
g123
tp1021
a(I304
I2
I0
g512
tp1022
as(S'charger'
p1023
tp1024
(lp1025
(I38
I2
F0.375
S'new'
p1026
tp1027
a(I252
I1
F-0.625
S'wall'
p1028
tp1029
a(I284
I1
I0
S'attached'
p1030
tp1031
a(I289
I1
F0.375
S'new'
p1032
tp1033
a(I289
I1
F0.25
S'original'
p1034
tp1035
a(I324
I2
F0.375
S'new'
p1036
tp1037
as(S'review'
p1038
tp1039
(lp1040
(I24
I0
F0.875
S'important'
p1041
tp1042
a(I27
I0
I0
S'great'
p1043
tp1044
a(I147
I4
F-0.625
S'bad'
p1045
tp1046
a(I185
I1
F-0.875
S'negative'
p1047
tp1048
a(I262
I0
F0.125
S'first'
p1049
tp1050
a(I350
I5
F-0.625
S'bad'
p1051
tp1052
as(S'hours'
p1053
tp1054
(lp1055
(I115
I28
I0
S'full'
p1056
tp1057
a(I115
I32
I0
S'later'
p1058
tp1059
a(I157
I2
I0
S'few'
p1060
tp1061
a(I174
I0
F1.0
S'better'
p1062
tp1063
as(S'razr'
p1064
tp1065
(lp1066
(I16
I0
I0
S'old'
p1067
tp1068
a(I19
I2
I0
S'third'
p1069
tp1070
a(I25
I1
F0.125
S'first'
p1071
tp1072
a(I44
I0
F0.875
S'happy'
p1073
tp1074
a(I69
I0
F0.25
S'original'
p1075
tp1076
a(I78
I2
I0
g502
tp1077
a(I111
I0
F0.5
S'second'
p1078
tp1079
a(I115
I39
F0.125
S'last'
p1080
tp1081
a(I133
I0
F0.375
S'new'
p1082
tp1083
a(I139
I21
F0.25
g570
tp1084
a(I147
I3
I0
S'old'
p1085
tp1086
a(I147
I4
I0
g730
tp1087
a(I152
I0
I0
S'old'
p1088
tp1089
a(I169
I0
I0
S'old'
p1090
tp1091
a(I174
I0
I0
S'third'
p1092
tp1093
a(I215
I4
F0.25
g510
tp1094
a(I226
I0
F-0.625
S'other'
p1095
tp1096
a(I227
I1
F-0.625
S'other'
p1097
tp1098
a(I283
I1
F0.125
S'first'
p1099
tp1100
a(I287
I0
F-0.375
S'black'
p1101
tp1102
a(I289
I0
F-0.75
S'difficult'
p1103
tp1104
a(I289
I0
F0.375
S'new'
p1105
tp1106
a(I289
I0
F-0.375
S'manual'
p1107
tp1108
a(I298
I0
F0.125
S'solid'
p1109
tp1110
a(I298
I0
F0.25
S'original'
p1111
tp1112
a(I304
I2
I0
g512
tp1113
a(I307
I0
F0.125
S'able'
p1114
tp1115
a(I307
I0
I0
S'old'
p1116
tp1117
a(I307
I5
F0.875
S'lucky'
p1118
tp1119
a(I307
I5
F0.125
S'first'
p1120
tp1121
a(I313
I1
I0
S'great'
p1122
tp1123
a(I319
I0
F0.25
S'original'
p1124
tp1125
a(I319
I0
F1.0
S'better'
p1126
tp1127
a(I320
I0
F0.25
S'original'
p1128
tp1129
a(I336
I0
F0.5
S'true'
p1130
tp1131
a(I336
I2
I0
S'old'
p1132
tp1133
as(S'days'
p1134
tp1135
(lp1136
(I27
I2
F1.0
S'good'
p1137
tp1138
a(I96
I5
F0.375
S'new'
p1139
tp1140
a(I110
I1
I0
S'few'
p1141
tp1142
a(I211
I2
F-0.25
S'late'
p1143
tp1144
a(I271
I6
I0
S'few'
p1145
tp1146
a(I271
I6
I0
S'later'
p1147
tp1148
a(I271
I8
I0
S'few'
p1149
tp1150
a(I281
I1
F-0.625
S'bad'
p1151
tp1152
a(I303
I2
F0.5
S'expensive'
p1153
tp1154
a(I306
I2
I0
S'more'
p1155
tp1156
a(I312
I1
F0.125
S'first'
p1157
tp1158
a(I312
I1
I0
S'few'
p1159
tp1160
as(S'old'
p1161
S'razr'
p1162
tp1163
(lp1164
(I16
I0
I0
g1067
tp1165
a(I78
I2
I0
g502
tp1166
a(I147
I3
I0
g1085
tp1167
a(I147
I4
I0
g730
tp1168
a(I152
I0
I0
g1088
tp1169
a(I169
I0
I0
g1090
tp1170
a(I174
I0
I0
g1092
tp1171
a(I298
I0
F0.125
g1109
tp1172
a(I298
I0
F0.25
g1111
tp1173
a(I304
I2
I0
g512
tp1174
a(I307
I0
F0.125
g1114
tp1175
a(I307
I0
I0
g1116
tp1176
a(I336
I2
I0
g1132
tp1177
as.