(dp0
(S'mobile'
p1
tp2
(lp3
(I347
I0
I0
S'great'
p4
tp5
as(S'great'
p6
S'call'
p7
S'quality'
p8
tp9
(lp10
(I2
I6
I0
S'great'
p11
tp12
a(I198
I3
I0
S'crystal'
p13
tp14
a(I198
I3
F0.5
S'clear'
p15
tp16
a(I206
I20
I0
S'great'
p17
tp18
a(I220
I2
I0
S'great'
p19
tp20
a(I272
I10
I0
S'great'
p21
tp22
a(I303
I10
I0
S'great'
p23
tp24
as(S'keyboard'
p25
tp26
(lp27
(I19
I14
I0
S'physical'
p28
tp29
a(I94
I27
I0
S'large'
p30
tp31
a(I105
I31
I0
S'full'
p32
tp33
a(I122
I2
I0
S'real'
p34
tp35
a(I140
I5
F-0.375
S'black'
p36
tp37
a(I146
I4
I0
S'great'
p38
tp39
a(I161
I7
F0.625
S'easy'
p40
tp41
a(I161
I8
F0.5
S'touch'
p42
tp43
a(I185
I3
I0
S'full'
p44
tp45
a(I198
I4
I0
S'old'
p46
tp47
a(I223
I3
F0.625
S'easy'
p48
tp49
a(I294
I17
I0
S'full'
p50
tp51
a(I294
I17
F0.125
S'digital'
p52
tp53
a(I294
I17
F0.625
S'easy'
p54
tp55
a(I310
I0
I0
S'full'
p56
tp57
as(S'want'
p58
S'to'
p59
S'use'
p60
tp61
(lp62
(I167
I9
F-0.5
S'regular'
p63
tp64
a(I181
I0
F-0.75
S'little'
p65
tp66
as(S'u'
p67
S's'
p68
S'version'
p69
tp70
(lp71
(I22
I5
I0
S'older'
p72
tp73
a(I101
I11
F0.375
S'new'
p74
tp75
a(I101
I11
F0.375
S'new'
p76
tp77
a(I101
I11
F-0.5
S'heavy'
p78
tp79
a(I154
I2
I0
S'same'
p80
tp81
a(I198
I27
I0
S'least'
p82
tp83
a(I229
I0
F0.25
S'developed'
p84
tp85
a(I278
I4
I0
S'american'
p86
tp87
a(I294
I46
F0.375
S'newest'
p88
tp89
as(S'comes'
p90
tp91
(lp92
(I62
I0
I0
S'handset'
p93
tp94
as(S'nice'
p95
tp96
(lp97
(I11
I3
I0
S'big'
p98
tp99
a(I105
I30
F-0.625
S'other'
p100
tp101
as(S'call'
p102
S'quality'
p103
tp104
(lp105
(I2
I6
I0
g11
tp106
a(I77
I3
F0.5
S'clear'
p107
tp108
a(I182
I3
F0.5
S'clear'
p109
tp110
a(I198
I3
I0
g13
tp111
a(I198
I3
F0.5
g15
tp112
a(I206
I20
I0
g17
tp113
a(I220
I2
I0
g19
tp114
a(I272
I10
I0
g21
tp115
a(I297
I14
F1.0
S'good'
p116
tp117
a(I303
I10
I0
g23
tp118
as(S'touch'
p119
tp120
(lp121
(I2
I11
F-0.625
S'other'
p122
tp123
a(I14
I1
F1.0
S'good'
p124
tp125
a(I16
I9
I0
S'resistive'
p126
tp127
a(I34
I1
I0
S'resistive'
p128
tp129
a(I62
I6
F-0.75
S'single'
p130
tp131
a(I92
I0
F1.0
S'best'
p132
tp133
a(I111
I5
F1.0
S'good'
p134
tp135
a(I147
I2
F0.625
S'easier'
p136
tp137
a(I160
I1
F-0.625
S'other'
p138
tp139
a(I172
I3
I0
S'resistive'
p140
tp141
a(I172
I3
F0.5
S'desirable'
p142
tp143
a(I172
I14
F0.625
S'interested'
p144
tp145
a(I182
I20
F-0.75
S'single'
p146
tp147
a(I182
I20
F-0.375
S'double'
p148
tp149
a(I202
I0
F1.0
S'good'
p150
tp151
a(I202
I0
F1.0
S'best'
p152
tp153
a(I206
I21
I0
S'resistive'
p154
tp155
a(I223
I1
F0.125
S'first'
p156
tp157
a(I223
I7
I0
S'capacitive'
p158
tp159
a(I231
I11
I0
S'resistive'
p160
tp161
a(I231
I11
I0
S'resistive'
p162
tp163
a(I243
I3
I0
S'fifth'
p164
tp165
a(I245
I3
F0.25
S'responsive'
p166
tp167
a(I254
I1
F0.125
S'first'
p168
tp169
a(I301
I6
F-0.625
S'other'
p170
tp171
a(I302
I6
F0.875
S'nice'
p172
tp173
a(I302
I6
F-0.625
S'other'
p174
tp175
a(I302
I6
F0.5
S'expensive'
p176
tp177
a(I303
I13
F0.625
S'easy'
p178
tp179
a(I307
I31
F0.125
S'key'
p180
tp181
a(I307
I31
I0
S'different'
p182
tp183
a(I317
I2
I0
S'most'
p184
tp185
a(I317
I2
F0.25
S'responsive'
p186
tp187
as(S'battery'
p188
S'life'
p189
tp190
(lp191
(I22
I1
F-0.625
S'other'
p192
tp193
a(I61
I2
F1.0
S'good'
p194
tp195
a(I65
I1
F1.0
S'best'
p196
tp197
a(I79
I6
I0
S'least'
p198
tp199
a(I79
I6
F1.0
S'good'
p200
tp201
a(I79
I6
F1.0
S'better'
p202
tp203
a(I94
I22
I0
S'same'
p204
tp205
a(I111
I5
I0
S'great'
p206
tp207
a(I120
I4
I0
S'great'
p208
tp209
a(I121
I32
F1.0
S'best'
p210
tp211
a(I122
I0
F-0.625
S'clean'
p212
tp213
a(I139
I1
F-0.5
S'poor'
p214
tp215
a(I139
I1
F-0.125
S'overall'
p216
tp217
a(I164
I1
F-0.5
S'long'
p218
tp219
a(I176
I3
F-0.5
S'poor'
p220
tp221
a(I176
I3
F-0.625
S'unpredictable'
p222
tp223
a(I187
I4
F-0.5
S'longer'
p224
tp225
a(I195
I13
F0.875
S'music'
p226
tp227
a(I195
I13
F-0.5
S'poor'
p228
tp229
a(I197
I12
F1.0
S'good'
p230
tp231
a(I223
I25
F1.0
S'good'
p232
tp233
a(I227
I2
F-0.25
S'low'
p234
tp235
a(I236
I4
I0
S'great'
p236
tp237
a(I243
I6
F0.875
S'important'
p238
tp239
a(I243
I6
I0
S'least'
p240
tp241
a(I243
I6
I0
S'great'
p242
tp243
a(I263
I0
F-0.75
S'short'
p244
tp245
a(I263
I30
F-0.375
S'disable'
p246
tp247
a(I268
I10
F1.0
S'good'
p248
tp249
a(I269
I3
F1.0
S'good'
p250
tp251
a(I287
I1
F1.0
S'best'
p252
tp253
a(I291
I1
F1.0
S'good'
p254
tp255
a(I294
I15
I0
S'great'
p256
tp257
a(I297
I2
F1.0
S'good'
p258
tp259
a(I303
I6
F1.0
S'good'
p260
tp261
as(S'costa'
p262
S'rica'
p263
tp264
(lp265
(I78
I2
I0
S'rural'
p266
tp267
as(S'quality'
p268
tp269
(lp270
(I21
I0
F1.0
S'better'
p271
tp272
a(I40
I0
F1.0
S'good'
p273
tp274
a(I53
I2
F-0.625
S'bad'
p275
tp276
a(I53
I2
I0
S'most'
p277
tp278
a(I55
I3
F1.0
S'good'
p279
tp280
a(I62
I24
I0
S'high'
p281
tp282
a(I64
I2
F1.0
S'good'
p283
tp284
a(I77
I3
F0.5
g107
tp285
a(I77
I5
F1.0
S'good'
p286
tp287
a(I83
I2
I0
S'great'
p288
tp289
a(I100
I5
F1.0
S'best'
p290
tp291
a(I128
I2
F0.875
S'music'
p292
tp293
a(I145
I1
F1.0
S'good'
p294
tp295
a(I145
I3
F1.0
S'good'
p296
tp297
a(I167
I4
I0
S'great'
p298
tp299
a(I182
I3
F0.5
g109
tp300
a(I198
I3
I0
g13
tp301
a(I198
I3
F0.5
g15
tp302
a(I221
I7
F-0.75
S'bright'
p303
tp304
a(I221
I7
F0.75
S'beautiful'
p305
tp306
a(I223
I16
F-0.25
S'low'
p307
tp308
a(I223
I16
F-0.625
S'light'
p309
tp310
a(I230
I2
F1.0
S'best'
p311
tp312
a(I232
I3
F1.0
S'good'
p313
tp314
a(I232
I3
F0.5
S'clear'
p315
tp316
a(I232
I7
F1.0
S'good'
p317
tp318
a(I232
I8
F-0.5
S'poor'
p319
tp320
a(I234
I7
I0
S'more'
p321
tp322
a(I234
I7
F0.5
S'functional'
p323
tp324
a(I234
I7
F1.0
S'better'
p325
tp326
a(I239
I4
I0
S'crystal'
p327
tp328
a(I239
I4
F0.5
S'clear'
p329
tp330
a(I239
I11
F1.0
S'better'
p331
tp332
a(I243
I2
F1.0
S'better'
p333
tp334
a(I254
I4
F0.875
S'music'
p335
tp336
a(I269
I5
F1.0
S'good'
p337
tp338
a(I278
I28
F1.0
S'good'
p339
tp340
a(I297
I14
F1.0
g116
tp341
a(I303
I10
I0
g23
tp342
a(I336
I11
I0
S'great'
p343
tp344
a(I339
I14
F-0.625
S'surprising'
p345
tp346
a(I344
I3
I0
S'high'
p347
tp348
as(S'touchscreen'
p349
tp350
(lp351
(I22
I1
F0.25
S'responsive'
p352
tp353
a(I33
I0
F1.0
S'good'
p354
tp355
a(I33
I5
F0.125
S'first'
p356
tp357
a(I37
I0
F0.875
S'nice'
p358
tp359
a(I40
I1
F-0.25
S'cheapest'
p360
tp361
a(I65
I2
F0.75
S'beautiful'
p362
tp363
a(I121
I8
F0.25
S'responsive'
p364
tp365
a(I121
I11
F0.625
S'responsible'
p366
tp367
a(I121
I11
I0
S'resistive'
p368
tp369
a(I127
I7
F-0.375
S'simple'
p370
tp371
a(I127
I7
F-0.375
S'small'
p372
tp373
a(I158
I8
F0.25
S'responsive'
p374
tp375
a(I182
I8
F0.75
S'due'
p376
tp377
a(I182
I22
F-0.5
S'sure'
p378
tp379
a(I208
I0
I0
S'resistive'
p380
tp381
a(I213
I0
I0
S'great'
p382
tp383
a(I234
I2
F-0.625
S'other'
p384
tp385
a(I290
I0
F0.125
S'first'
p386
tp387
a(I290
I0
I0
S'mobile'
p388
tp389
a(I325
I1
I0
S'close'
p390
tp391
a(I334
I0
F0.125
S'first'
p392
tp393
as(S'from'
p394
S'ovi'
p395
S'store'
p396
tp397
(lp398
(I261
I1
I0
S'e-mail'
p399
tp400
a(I294
I44
I0
S'fast'
p401
tp402
a(I294
I44
F-0.5
S'open'
p403
tp404
as(S'applications'
p405
tp406
(lp407
(I2
I8
F0.375
S'available'
p408
tp409
a(I5
I5
I0
S'most'
p410
tp411
a(I5
I5
F0.375
S'available'
p412
tp413
a(I10
I4
I0
S'many'
p414
tp415
a(I17
I0
F0.375
S'available'
p416
tp417
a(I22
I1
F0.375
S'much'
p418
tp419
a(I33
I11
F1.0
S'good'
p420
tp421
a(I59
I21
F-0.625
S'other'
p422
tp423
a(I61
I8
I0
S'few'
p424
tp425
a(I61
I30
I0
S'add-on'
p426
tp427
a(I62
I40
F0.625
S'convenient'
p428
tp429
a(I64
I3
I0
S'many'
p430
tp431
a(I65
I18
F0.625
S'easy'
p432
tp433
a(I76
I12
I0
S'many'
p434
tp435
a(I110
I19
F0.625
S'easy'
p436
tp437
a(I138
I1
I0
S'great'
p438
tp439
a(I149
I1
F-0.5
S'open'
p440
tp441
a(I158
I1
I0
S'most'
p442
tp443
a(I158
I3
I0
S'great'
p444
tp445
a(I160
I6
I0
S'few'
p446
tp447
a(I160
I6
F0.5
S'compatible'
p448
tp449
a(I198
I4
F-0.625
S'free'
p450
tp451
a(I198
I4
F0.375
S'available'
p452
tp453
a(I205
I3
F-0.5
S'open'
p454
tp455
a(I254
I6
I0
S'useful'
p456
tp457
a(I261
I1
I0
S'many'
p458
tp459
a(I293
I1
I0
S'many'
p460
tp461
a(I297
I7
I0
S'more'
p462
tp463
a(I309
I9
I0
S'few'
p464
tp465
a(I318
I1
F0.375
S'new'
p466
tp467
a(I346
I3
I0
S'coolest'
p468
tp469
a(I346
I3
I0
S'such'
p470
tp471
as(S'like'
p472
S'touch'
p473
S'screen'
p474
tp475
(lp476
(I1
I1
F0.5
S'touch'
p477
tp478
a(I1
I5
F0.5
S'touch'
p479
tp480
a(I28
I13
F1.0
S'better'
p481
tp482
a(I49
I0
F0.5
S'touch'
p483
tp484
a(I55
I0
F0.5
S'touch'
p485
tp486
a(I59
I39
F0.5
S'touch'
p487
tp488
a(I64
I3
F0.5
S'touch'
p489
tp490
a(I75
I0
I0
S'big'
p491
tp492
a(I75
I0
F0.875
S'nice'
p493
tp494
a(I75
I0
I0
S'vertical'
p495
tp496
a(I75
I2
F0.5
S'touch'
p497
tp498
a(I75
I2
F0.125
S'protective'
p499
tp500
a(I75
I2
I0
S'plastic'
p501
tp502
a(I88
I2
F0.5
S'touch'
p503
tp504
a(I95
I9
F0.5
S'touch'
p505
tp506
a(I95
I9
F1.0
S'good'
p507
tp508
a(I105
I1
F0.5
S'touch'
p509
tp510
a(I105
I5
F0.5
S'touch'
p511
tp512
a(I176
I0
F0.5
S'touch'
p513
tp514
a(I231
I11
I0
g160
tp515
a(I231
I11
F0.5
S'touch'
p516
tp517
a(I231
I11
I0
g162
tp518
a(I232
I0
F0.5
S'touch'
p519
tp520
a(I232
I0
F1.0
S'good'
p521
tp522
a(I243
I12
F0.5
S'touch'
p523
tp524
a(I256
I1
F0.5
S'touch'
p525
tp526
a(I262
I0
F0.5
S'touch'
p527
tp528
a(I266
I0
F0.5
S'touch'
p529
tp530
a(I283
I0
F0.5
S'touch'
p531
tp532
a(I283
I0
F0.5
S'touch'
p533
tp534
a(I302
I6
F0.875
g172
tp535
a(I302
I6
F-0.625
g174
tp536
a(I302
I6
F0.5
g176
tp537
a(I307
I32
F0.5
S'primary'
p538
tp539
a(I307
I75
F0.5
S'touch'
p540
tp541
a(I311
I1
F0.5
S'touch'
p542
tp543
a(I343
I2
F0.5
S'touch'
p544
tp545
as(S'on'
p546
S'home'
p547
S'screen'
p548
tp549
(lp550
(I154
I2
F-0.625
S'other'
p551
tp552
as(S'sound'
p553
tp554
(lp555
(I1
I2
F0.625
S'superior'
p556
tp557
a(I28
I13
F0.5
S'clear'
p558
tp559
a(I52
I0
F1.0
S'good'
p560
tp561
a(I53
I1
F0.5
S'clear'
p562
tp563
a(I63
I2
F-0.375
S'small'
p564
tp565
a(I66
I4
F1.0
S'better'
p566
tp567
a(I73
I0
I0
S'great'
p568
tp569
a(I77
I2
F1.0
S'good'
p570
tp571
a(I86
I2
F1.0
S'good'
p572
tp573
a(I86
I2
F-0.625
S'bad'
p574
tp575
a(I90
I1
I0
S'great'
p576
tp577
a(I94
I31
F1.0
S'best'
p578
tp579
a(I95
I3
F0.5
S'clear'
p580
tp581
a(I105
I2
F0.625
S'superior'
p582
tp583
a(I105
I31
I0
S'great'
p584
tp585
a(I107
I20
F-0.75
S'sufficient'
p586
tp587
a(I122
I0
F0.5
S'live'
p588
tp589
a(I134
I1
F1.0
S'good'
p590
tp591
a(I136
I7
F1.0
S'good'
p592
tp593
a(I144
I7
F1.0
S'better'
p594
tp595
a(I221
I8
I0
S'great'
p596
tp597
a(I234
I20
F1.0
S'best'
p598
tp599
a(I250
I0
F-0.875
S'worst'
p600
tp601
a(I252
I6
I0
S'great'
p602
tp603
a(I256
I1
F1.0
S'good'
p604
tp605
a(I268
I10
F-0.625
S'moderate'
p606
tp607
a(I268
I10
I0
S'great'
p608
tp609
a(I287
I7
F0.5
S'clear'
p610
tp611
a(I287
I7
F0.375
S'loud'
p612
tp613
a(I287
I8
I0
S'great'
p614
tp615
a(I307
I44
F-0.125
S'overall'
p616
tp617
a(I309
I3
I0
S'great'
p618
tp619
a(I329
I1
I0
S'great'
p620
tp621
a(I351
I6
F0.5
S'clear'
p622
tp623
as(S'excellent'
p624
tp625
(lp626
(I195
I11
F-0.25
S'low'
p627
tp628
as(S'learning'
p629
S'curve'
p630
tp631
(lp632
(I94
I5
F-0.625
S'bad'
p633
tp634
a(I208
I0
F-0.75
S'short'
p635
tp636
a(I224
I4
I0
S'dial'
p637
tp638
a(I259
I6
F1.0
S'better'
p639
tp640
a(I259
I6
F0.5
S'touch'
p641
tp642
a(I307
I75
F0.125
S'solid'
p643
tp644
as(S'store'
p645
tp646
(lp647
(I45
I1
F0.75
S'worth'
p648
tp649
a(I76
I12
F0.625
S'easy'
p650
tp651
a(I197
I19
F0.375
S'much'
p652
tp653
a(I222
I1
F-0.25
S'google'
p654
tp655
a(I237
I13
F0.875
S'music'
p656
tp657
a(I259
I18
F0.375
S'available'
p658
tp659
a(I261
I1
I0
g399
tp660
a(I294
I44
I0
g401
tp661
a(I294
I44
F-0.5
g403
tp662
a(I309
I5
F1.0
S'better'
p663
tp664
a(I342
I7
F-0.625
S'free'
p665
tp666
as(S'software'
p667
tp668
(lp669
(I1
I0
F-0.625
S'free'
p670
tp671
a(I1
I1
F0.375
S'available'
p672
tp673
a(I1
I2
F0.375
S'available'
p674
tp675
a(I6
I3
F0.25
S'recent'
p676
tp677
a(I26
I4
F0.625
S'easy'
p678
tp679
a(I76
I21
F0.625
S'easy'
p680
tp681
a(I80
I10
F0.625
S'major'
p682
tp683
a(I105
I0
F-0.625
S'free'
p684
tp685
a(I105
I1
F0.375
S'available'
p686
tp687
a(I105
I2
F0.375
S'available'
p688
tp689
a(I111
I5
F1.0
S'good'
p690
tp691
a(I115
I6
I0
S'such'
p692
tp693
a(I128
I3
F0.625
S'easy'
p694
tp695
a(I154
I1
I0
S'different'
p696
tp697
a(I154
I1
F0.375
S'similar'
p698
tp699
a(I173
I0
I0
S'latest'
p700
tp701
a(I180
I2
F-0.625
S'free'
p702
tp703
a(I197
I10
I0
S'kinetic'
p704
tp705
a(I198
I4
F-0.625
S'other'
p706
tp707
a(I198
I26
I0
S'latest'
p708
tp709
a(I206
I14
F1.0
S'better'
p710
tp711
a(I217
I0
F-0.125
S'overall'
p712
tp713
a(I217
I0
I0
S'user'
p714
tp715
a(I263
I31
I0
S'many'
p716
tp717
a(I272
I22
F0.375
S'new'
p718
tp719
a(I272
I24
F0.375
S'new'
p720
tp721
a(I282
I4
I0
S'critical'
p722
tp723
as(S'nokia'
p724
tp725
(lp726
(I1
I0
F-0.25
S'past'
p727
tp728
a(I1
I0
F1.0
S'best'
p729
tp730
a(I7
I5
I0
S'great'
p731
tp732
a(I16
I4
F-0.625
S'free'
p733
tp734
a(I29
I3
F-0.625
S'sorry'
p735
tp736
a(I31
I8
I0
S'big'
p737
tp738
a(I31
I8
F0.5
S'respectable'
p739
tp740
a(I32
I3
F0.5
S'willing'
p741
tp742
a(I36
I0
F-0.625
S'free'
p743
tp744
a(I42
I6
I0
S'great'
p745
tp746
a(I43
I2
F-0.625
S'other'
p747
tp748
a(I65
I6
F-0.625
S'other'
p749
tp750
a(I69
I1
F0.375
S'much'
p751
tp752
a(I75
I2
F0.125
S'last'
p753
tp754
a(I75
I2
F0.375
S'much'
p755
tp756
a(I76
I23
F0.375
S'much'
p757
tp758
a(I76
I23
F0.5
S'true'
p759
tp760
a(I88
I12
F1.0
S'better'
p761
tp762
a(I93
I16
F0.5
S'expensive'
p763
tp764
a(I97
I2
F0.25
S'unlocked'
p765
tp766
a(I105
I0
F-0.25
S'past'
p767
tp768
a(I105
I0
F1.0
S'best'
p769
tp770
a(I105
I8
F1.0
S'best'
p771
tp772
a(I107
I6
F0.125
S'first'
p773
tp774
a(I107
I6
F0.125
S'last'
p775
tp776
a(I107
I15
I0
S'different'
p777
tp778
a(I108
I23
F0.875
S'happier'
p779
tp780
a(I108
I23
F0.125
S'first'
p781
tp782
a(I110
I26
F-0.25
S'potential'
p783
tp784
a(I111
I5
F-0.875
S'nasty'
p785
tp786
a(I111
I11
F0.875
S'happier'
p787
tp788
a(I115
I10
F0.125
S'last'
p789
tp790
a(I115
I15
I0
S'local'
p791
tp792
a(I118
I0
F-0.75
S'little'
p793
tp794
a(I123
I1
F0.125
S'first'
p795
tp796
a(I123
I1
F-0.25
S'direct'
p797
tp798
a(I124
I2
F0.875
S'music'
p799
tp800
a(I127
I6
I0
S'close'
p801
tp802
a(I131
I20
F1.0
S'good'
p803
tp804
a(I139
I1
F-0.5
S'poor'
p805
tp806
a(I156
I0
F-0.5
S'sure'
p807
tp808
a(I158
I1
F-0.625
S'free'
p809
tp810
a(I161
I24
F0.625
S'kind'
p811
tp812
a(I198
I4
I0
S'old'
p813
tp814
a(I198
I4
I0
S'old'
p815
tp816
a(I198
I6
F0.25
S'original'
p817
tp818
a(I198
I24
F0.625
S'convenient'
p819
tp820
a(I198
I24
I0
S'old'
p821
tp822
a(I205
I0
F0.25
S'original'
p823
tp824
a(I209
I31
F0.125
S'last'
p825
tp826
a(I209
I33
I0
S'big'
p827
tp828
a(I213
I3
F0.125
S'first'
p829
tp830
a(I215
I0
I0
S'old'
p831
tp832
a(I215
I0
I0
S'old'
p833
tp834
a(I215
I0
I0
S'old'
p835
tp836
a(I220
I12
F0.125
S'last'
p837
tp838
a(I222
I1
F-0.625
S'other'
p839
tp840
a(I222
I1
I0
S'young'
p841
tp842
a(I234
I13
I0
S'old'
p843
tp844
a(I256
I0
F0.875
S'happy'
p845
tp846
a(I263
I1
F0.375
S'much'
p847
tp848
a(I263
I13
F0.125
S'usual'
p849
tp850
a(I263
I26
F0.125
S'first'
p851
tp852
a(I270
I1
I0
S'old'
p853
tp854
a(I278
I18
F-0.625
S'other'
p855
tp856
a(I278
I18
F-0.625
S'other'
p857
tp858
a(I279
I2
F-0.25
S'past'
p859
tp860
a(I284
I3
I0
S'sturdy'
p861
tp862
a(I287
I0
I0
S'big'
p863
tp864
a(I294
I5
I0
S'close'
p865
tp866
a(I294
I27
F0.875
S'nice'
p867
tp868
a(I294
I33
F-0.625
S'bad'
p869
tp870
a(I299
I3
I0
S'proprietary'
p871
tp872
a(I303
I1
F0.125
S'first'
p873
tp874
a(I307
I42
F0.875
S'nice'
p875
tp876
a(I307
I81
F-0.25
S'direct'
p877
tp878
a(I307
I81
F0.75
S'wonder'
p879
tp880
a(I315
I2
F-0.125
S'overall'
p881
tp882
a(I315
I2
F1.0
S'best'
p883
tp884
a(I317
I1
F0.625
S'easy'
p885
tp886
a(I319
I3
I0
S'old'
p887
tp888
as(S'sim'
p889
S'card'
p890
tp891
(lp892
(I22
I1
F0.125
S'able'
p893
tp894
a(I22
I1
I0
S'full'
p895
tp896
a(I77
I1
F0.125
S'able'
p897
tp898
a(I186
I1
F0.125
S'able'
p899
tp900
a(I225
I1
I0
S'old'
p901
tp902
a(I278
I19
I0
S'local'
p903
tp904
a(I278
I41
I0
S'local'
p905
tp906
as(S'sometimes'
p907
tp908
(lp909
(I215
I3
I0
S'sensitive'
p910
tp911
a(I259
I7
I0
S'quick'
p912
tp913
as(S'easy'
p914
S'to'
p915
S'use'
p916
tp917
(lp918
(I49
I0
F0.625
S'easy'
p919
tp920
a(I268
I10
I0
S'minimal'
p921
tp922
as(S'n'
p923
S'low'
p924
S'light'
p925
tp926
(lp927
(I203
I17
F-0.25
S'low'
p928
tp929
a(I239
I13
F-0.25
S'low'
p930
tp931
a(I286
I7
F-0.75
S'bright'
p932
tp933
as(S'card'
p934
tp935
(lp936
(I1
I1
I0
S'sd'
p937
tp938
a(I22
I1
F0.125
g893
tp939
a(I22
I1
I0
g895
tp940
a(I60
I1
F0.875
S'nice'
p941
tp942
a(I64
I16
F-0.75
S'difficult'
p943
tp944
a(I105
I1
I0
S'sd'
p945
tp946
a(I144
I0
F-0.375
S'likable'
p947
tp948
a(I190
I3
F0.25
S'larger'
p949
tp950
a(I190
I3
F-0.5
S'sure'
p951
tp952
a(I193
I4
F0.625
S'perfect'
p953
tp954
a(I225
I1
I0
g901
tp955
a(I246
I0
I0
S'stead'
p956
tp957
a(I249
I9
I0
S'sd'
p958
tp959
a(I279
I0
I0
S'gig'
p960
tp961
a(I282
I4
F0.625
S'easy'
p962
tp963
a(I286
I2
I0
S'external'
p964
tp965
a(I310
I2
I0
S'such'
p966
tp967
as(S'love'
p968
tp969
(lp970
(I121
I15
I0
S'cable'
p971
tp972
as(S'unlimited'
p973
S'data'
p974
S'plan'
p975
tp976
(lp977
(I76
I2
F-0.5
S'unlimited'
p978
tp979
a(I76
I4
F-0.5
S'unlimited'
p980
tp981
a(I76
I9
F-0.5
S'unlimited'
p982
tp983
a(I108
I18
F-0.125
S'minimum'
p984
tp985
a(I108
I18
F-0.5
S'unlimited'
p986
tp987
a(I264
I25
F-0.5
S'unlimited'
p988
tp989
as(S'wifi'
p990
tp991
(lp992
(I7
I8
F-0.625
S'other'
p993
tp994
a(I144
I0
F1.0
S'good'
p995
tp996
a(I197
I15
F-0.625
S'bad'
p997
tp998
a(I197
I15
F-0.875
S'hard'
p999
tp1000
a(I203
I5
I0
S'close'
p1001
tp1002
a(I226
I0
F-0.625
S'free'
p1003
tp1004
a(I249
I1
I0
S'cellular'
p1005
tp1006
a(I268
I10
F0.625
S'acceptable'
p1007
tp1008
a(I268
I11
F-0.25
S'cheapest'
p1009
tp1010
a(I268
I11
I0
S'great'
p1011
tp1012
a(I268
I12
I0
S'great'
p1013
tp1014
a(I278
I20
F0.125
S'essential'
p1015
tp1016
a(I278
I27
F-0.625
S'free'
p1017
tp1018
a(I288
I0
F0.625
S'easy'
p1019
tp1020
as(S'videos'
p1021
tp1022
(lp1023
(I62
I2
F0.875
S'music'
p1024
tp1025
a(I62
I30
F-0.5
S'sure'
p1026
tp1027
a(I146
I11
F0.375
S'content'
p1028
tp1029
a(I221
I16
F0.875
S'music'
p1030
tp1031
a(I231
I4
F-0.625
S'shot'
p1032
tp1033
a(I231
I4
I0
S'few'
p1034
tp1035
a(I345
I1
F0.875
S'music'
p1036
tp1037
as(S'sound'
p1038
S'quality'
p1039
tp1040
(lp1041
(I1
I2
F0.625
g556
tp1042
a(I52
I0
F1.0
g560
tp1043
a(I77
I3
F0.5
g107
tp1044
a(I86
I2
F1.0
g572
tp1045
a(I86
I2
F-0.625
g574
tp1046
a(I105
I2
F0.625
g582
tp1047
a(I128
I2
F0.875
g292
tp1048
a(I134
I1
F1.0
g590
tp1049
a(I136
I7
F1.0
g592
tp1050
a(I144
I7
F1.0
g594
tp1051
a(I145
I3
F1.0
g296
tp1052
a(I221
I8
I0
g596
tp1053
a(I223
I16
F-0.25
g307
tp1054
a(I223
I16
F-0.625
g309
tp1055
a(I239
I4
I0
g327
tp1056
a(I239
I4
F0.5
g329
tp1057
a(I307
I44
F-0.125
g616
tp1058
a(I309
I3
I0
g618
tp1059
as(S'times'
p1060
tp1061
(lp1062
(I1
I0
I0
S'more'
p1063
tp1064
a(I22
I9
I0
S'few'
p1065
tp1066
a(I59
I11
I0
S'many'
p1067
tp1068
a(I72
I1
I0
S'few'
p1069
tp1070
a(I81
I10
I0
S'many'
p1071
tp1072
a(I88
I6
I0
S'many'
p1073
tp1074
a(I94
I36
I0
S'most'
p1075
tp1076
a(I96
I0
I0
S'many'
p1077
tp1078
a(I102
I10
I0
S'most'
p1079
tp1080
a(I105
I0
I0
S'more'
p1081
tp1082
a(I130
I0
I0
S'write'
p1083
tp1084
a(I144
I7
I0
S'teller'
p1085
tp1086
a(I177
I0
F-0.625
S'bad'
p1087
tp1088
a(I184
I11
F-0.625
S'other'
p1089
tp1090
a(I184
I11
I0
S'real'
p1091
tp1092
a(I184
I11
F-0.875
S'hard'
p1093
tp1094
a(I191
I2
I0
S'few'
p1095
tp1096
a(I191
I2
F1.0
S'good'
p1097
tp1098
a(I198
I12
F0.125
S'able'
p1099
tp1100
a(I198
I24
I0
S'few'
p1101
tp1102
a(I207
I3
I0
S'many'
p1103
tp1104
a(I255
I1
F-0.625
S'other'
p1105
tp1106
a(I255
I3
F0.25
S'suppose'
p1107
tp1108
a(I255
I3
F-0.625
S'other'
p1109
tp1110
a(I255
I3
F-0.625
S'other'
p1111
tp1112
a(I285
I6
F0.25
S'responsive'
p1113
tp1114
as(S'problem'
p1115
tp1116
(lp1117
(I59
I5
F0.5
S'second'
p1118
tp1119
a(I59
I28
I0
S'only'
p1120
tp1121
a(I59
I33
I0
S'only'
p1122
tp1123
a(I59
I33
F-0.625
S'other'
p1124
tp1125
a(I60
I3
F1.0
S'good'
p1126
tp1127
a(I60
I3
F0.25
S'main'
p1128
tp1129
a(I81
I14
F-0.625
S'bad'
p1130
tp1131
a(I85
I15
I0
S'only'
p1132
tp1133
a(I88
I11
I0
S'same'
p1134
tp1135
a(I103
I24
I0
S'same'
p1136
tp1137
a(I107
I2
I0
S'same'
p1138
tp1139
a(I110
I19
I0
S'real'
p1140
tp1141
a(I164
I9
F0.125
S'able'
p1142
tp1143
a(I164
I9
F0.5
S'odd'
p1144
tp1145
a(I164
I12
F-0.125
S'behold'
p1146
tp1147
a(I164
I12
I0
S'same'
p1148
tp1149
a(I170
I0
F0.625
S'major'
p1150
tp1151
a(I177
I0
I0
S'common'
p1152
tp1153
a(I184
I10
F-0.625
S'other'
p1154
tp1155
a(I211
I4
F-0.625
S'other'
p1156
tp1157
a(I220
I5
F0.25
S'biggest'
p1158
tp1159
a(I223
I16
I0
S'common'
p1160
tp1161
a(I245
I2
I0
S'caribbean'
p1162
tp1163
a(I257
I11
I0
S'only'
p1164
tp1165
a(I257
I11
F-0.5
S'encounter'
p1166
tp1167
a(I266
I0
I0
S'only'
p1168
tp1169
a(I278
I7
I0
S'only'
p1170
tp1171
a(I284
I4
I0
S'same'
p1172
tp1173
a(I311
I2
F0.875
S'music'
p1174
tp1175
a(I314
I0
F-0.375
S'serious'
p1176
tp1177
a(I319
I3
I0
S'only'
p1178
tp1179
as(S'memory'
p1180
S'card'
p1181
tp1182
(lp1183
(I1
I1
I0
g937
tp1184
a(I22
I1
F0.125
g893
tp1185
a(I22
I1
I0
g895
tp1186
a(I64
I16
F-0.75
g943
tp1187
a(I105
I1
I0
g945
tp1188
a(I123
I17
I0
S'more'
p1189
tp1190
a(I123
I17
F0.125
S'enough'
p1191
tp1192
a(I144
I0
F-0.375
g947
tp1193
a(I159
I5
I0
S'great'
p1194
tp1195
a(I259
I22
I0
S'many'
p1196
tp1197
a(I282
I3
F0.125
S'able'
p1198
tp1199
a(I282
I4
F0.625
g962
tp1200
as(S'a'
p1201
S'reasonable'
p1202
S'price'
p1203
tp1204
(lp1205
(I34
I1
F0.5
S'reasonable'
p1206
tp1207
a(I125
I0
F0.5
S'reasonable'
p1208
tp1209
a(I207
I0
F0.5
S'reasonable'
p1210
tp1211
a(I223
I26
F0.5
S'reasonable'
p1212
tp1213
a(I278
I2
F0.5
S'reasonable'
p1214
tp1215
a(I278
I42
F0.5
S'reasonable'
p1216
tp1217
as(S'to'
p1218
S'16'
p1219
S'gb'
p1220
tp1221
(lp1222
(I1
I1
I0
S'more'
p1223
tp1224
a(I1
I1
F0.125
S'enough'
p1225
tp1226
a(I105
I1
I0
S'more'
p1227
tp1228
a(I105
I1
F0.125
S'enough'
p1229
tp1230
a(I278
I32
F-0.625
S'generous'
p1231
tp1232
a(I307
I51
I0
S'more'
p1233
tp1234
as(S'good'
p1235
tp1236
(lp1237
(I231
I2
F0.125
S'first'
p1238
tp1239
as(S'text'
p1240
tp1241
(lp1242
(I59
I21
F-0.25
S'white'
p1243
tp1244
a(I62
I40
F0.125
S'able'
p1245
tp1246
a(I100
I11
F0.375
S'available'
p1247
tp1248
a(I146
I4
I0
S'standard'
p1249
tp1250
a(I163
I8
I0
S'pic'
p1251
tp1252
a(I170
I3
F0.75
S'receive'
p1253
tp1254
a(I236
I1
F-0.625
S'rough'
p1255
tp1256
a(I307
I37
F0.5
S'clear'
p1257
tp1258
as(S'price'
p1259
tp1260
(lp1261
(I26
I0
F1.0
S'good'
p1262
tp1263
a(I34
I1
F0.5
g1206
tp1264
a(I66
I4
I0
S'same'
p1265
tp1266
a(I79
I10
F-0.375
S'near'
p1267
tp1268
a(I79
I10
F-0.25
S'low'
p1269
tp1270
a(I82
I1
F-0.25
S'low'
p1271
tp1272
a(I85
I3
I0
S'incredible'
p1273
tp1274
a(I125
I0
F0.5
g1208
tp1275
a(I139
I3
I0
S'same'
p1276
tp1277
a(I141
I0
I0
S'great'
p1278
tp1279
a(I145
I2
F-0.75
S'wrong'
p1280
tp1281
a(I155
I0
F-0.5
S'less'
p1282
tp1283
a(I182
I13
I0
S'current'
p1284
tp1285
a(I193
I0
F1.0
S'good'
p1286
tp1287
a(I200
I1
F-0.25
S'cheaper'
p1288
tp1289
a(I207
I0
F0.5
g1210
tp1290
a(I209
I29
F-0.5
S'less'
p1291
tp1292
a(I209
I29
I0
S'realistic'
p1293
tp1294
a(I209
I29
F0.5
S'willing'
p1295
tp1296
a(I213
I6
F1.0
S'good'
p1297
tp1298
a(I219
I0
F-0.25
S'lower'
p1299
tp1300
a(I219
I0
F-0.625
S'other'
p1301
tp1302
a(I219
I0
I0
S'competitive'
p1303
tp1304
a(I223
I26
F0.5
g1212
tp1305
a(I230
I2
I0
S'basement'
p1306
tp1307
a(I236
I6
F1.0
S'good'
p1308
tp1309
a(I246
I1
F0.5
S'careful'
p1310
tp1311
a(I246
I1
I0
S'same'
p1312
tp1313
a(I251
I0
F1.0
S'good'
p1314
tp1315
a(I272
I3
F1.0
S'good'
p1316
tp1317
a(I278
I2
F0.5
g1214
tp1318
a(I278
I42
F0.5
g1216
tp1319
a(I295
I0
I0
S'great'
p1320
tp1321
a(I301
I11
F-0.25
S'low'
p1322
tp1323
a(I316
I0
I0
S'high'
p1324
tp1325
a(I326
I2
I0
S'great'
p1326
tp1327
a(I339
I8
F0.75
S'fit'
p1328
tp1329
a(I351
I7
F0.75
S'worth'
p1330
tp1331
as(S'service'
p1332
tp1333
(lp1334
(I6
I3
F-0.5
S'poor'
p1335
tp1336
a(I12
I0
F0.875
S'important'
p1337
tp1338
a(I32
I3
F-0.625
S'useless'
p1339
tp1340
a(I115
I12
F-0.75
S'worse'
p1341
tp1342
a(I128
I18
F-0.5
S'sure'
p1343
tp1344
a(I194
I4
F0.125
S'able'
p1345
tp1346
a(I194
I4
F-0.25
S'low'
p1347
tp1348
a(I194
I4
F-0.125
S'behold'
p1349
tp1350
a(I194
I5
F0.125
S'plenty'
p1351
tp1352
a(I196
I3
F1.0
S'good'
p1353
tp1354
a(I237
I30
I0
S'cool'
p1355
tp1356
a(I237
I30
F0.375
S'new'
p1357
tp1358
a(I289
I6
F1.0
S'good'
p1359
tp1360
a(I302
I4
F-0.125
S'mine'
p1361
tp1362
as(S'maps'
p1363
tp1364
(lp1365
(I7
I1
F-0.625
S'free'
p1366
tp1367
a(I33
I9
F-0.25
S'google'
p1368
tp1369
a(I78
I1
F-0.25
S'google'
p1370
tp1371
a(I100
I3
F-0.25
S'google'
p1372
tp1373
a(I125
I8
I0
S'latest'
p1374
tp1375
a(I125
I8
F0.25
S'helpful'
p1376
tp1377
a(I131
I11
F-0.25
S'google'
p1378
tp1379
a(I144
I1
F-0.25
S'google'
p1380
tp1381
a(I144
I2
F-0.25
S'google'
p1382
tp1383
a(I201
I11
I0
S'latest'
p1384
tp1385
a(I203
I31
F-0.25
S'google'
p1386
tp1387
a(I208
I0
F-0.25
S'google'
p1388
tp1389
a(I252
I6
F-0.25
S'google'
p1390
tp1391
a(I286
I13
F-0.625
S'free'
p1392
tp1393
a(I286
I13
F1.0
S'good'
p1394
tp1395
as(S'need'
p1396
tp1397
(lp1398
(I1
I0
I0
S'more'
p1399
tp1400
a(I1
I0
I0
S'more'
p1401
tp1402
a(I105
I0
I0
S'more'
p1403
tp1404
a(I105
I0
I0
S'more'
p1405
tp1406
as(S'sony'
p1407
S'ericsson'
p1408
tp1409
(lp1410
(I62
I1
F-0.25
S'past'
p1411
tp1412
as(S'memory'
p1413
tp1414
(lp1415
(I22
I6
I0
S'full'
p1416
tp1417
a(I22
I6
I0
S'full'
p1418
tp1419
a(I49
I0
F1.0
S'good'
p1420
tp1421
a(I62
I23
I0
S'internal'
p1422
tp1423
a(I62
I26
F-0.25
S'precious'
p1424
tp1425
a(I85
I27
F-0.5
S'sure'
p1426
tp1427
a(I85
I27
I0
S'internal'
p1428
tp1429
a(I86
I2
F-0.5
S'poor'
p1430
tp1431
a(I95
I7
F0.625
S'easy'
p1432
tp1433
a(I107
I8
I0
S'large'
p1434
tp1435
a(I121
I8
I0
S'external'
p1436
tp1437
a(I123
I17
I0
g1189
tp1438
a(I123
I17
F0.125
g1191
tp1439
a(I159
I5
I0
g1194
tp1440
a(I259
I22
I0
g1196
tp1441
a(I282
I3
F0.125
g1198
tp1442
as(S'product'
p1443
tp1444
(lp1445
(I14
I0
I0
S'more'
p1446
tp1447
a(I77
I5
I0
S'great'
p1448
tp1449
a(I102
I22
F1.0
S'good'
p1450
tp1451
a(I159
I3
I0
S'great'
p1452
tp1453
a(I321
I0
F0.125
S'first'
p1454
tp1455
a(I321
I0
I0
S'electronic'
p1456
tp1457
a(I326
I2
I0
S'great'
p1458
tp1459
as(S'right'
p1460
tp1461
(lp1462
(I38
I0
F0.625
S'easy'
p1463
tp1464
a(I59
I10
F-0.375
S'top'
p1465
tp1466
a(I66
I1
F0.5
S'touch'
p1467
tp1468
a(I94
I17
F-0.375
S'top'
p1469
tp1470
a(I100
I3
I0
S'great'
p1471
tp1472
a(I161
I33
I0
S'rebate'
p1473
tp1474
a(I161
I33
F0.375
S'available'
p1475
tp1476
a(I221
I10
F-0.375
S'top'
p1477
tp1478
a(I307
I79
I0
S'own'
p1479
tp1480
as(S'features'
p1481
tp1482
(lp1483
(I1
I0
F0.375
S'available'
p1484
tp1485
a(I2
I10
F0.375
S'new'
p1486
tp1487
a(I2
I10
F-0.375
S'small'
p1488
tp1489
a(I37
I9
F1.0
S'good'
p1490
tp1491
a(I41
I0
I0
S'fullest'
p1492
tp1493
a(I53
I0
I0
S'great'
p1494
tp1495
a(I54
I2
I0
S'great'
p1496
tp1497
a(I58
I0
I0
S'competitive'
p1498
tp1499
a(I64
I3
I0
S'great'
p1500
tp1501
a(I66
I4
F0.875
S'nice'
p1502
tp1503
a(I76
I9
I0
S'same'
p1504
tp1505
a(I81
I14
F-0.625
S'other'
p1506
tp1507
a(I81
I15
F-0.625
S'other'
p1508
tp1509
a(I93
I11
I0
S'many'
p1510
tp1511
a(I93
I11
F0.5
S'advanced'
p1512
tp1513
a(I105
I0
F0.375
S'available'
p1514
tp1515
a(I108
I2
F1.0
S'best'
p1516
tp1517
a(I110
I31
I0
S'basic'
p1518
tp1519
a(I161
I28
I0
S'most'
p1520
tp1521
a(I161
I28
F-0.625
S'other'
p1522
tp1523
a(I161
I28
I0
S'same'
p1524
tp1525
a(I185
I5
I0
S'basic'
p1526
tp1527
a(I186
I5
F0.25
S'favorite'
p1528
tp1529
a(I194
I6
F-0.625
S'other'
p1530
tp1531
a(I219
I0
I0
S'more'
p1532
tp1533
a(I219
I0
F0.125
S'enough'
p1534
tp1535
a(I223
I14
F0.375
S'extra'
p1536
tp1537
a(I224
I3
I0
S'great'
p1538
tp1539
a(I228
I0
I0
S'many'
p1540
tp1541
a(I228
I0
I0
S'such'
p1542
tp1543
a(I234
I22
I0
S'more'
p1544
tp1545
a(I234
I22
I0
S'useful'
p1546
tp1547
a(I234
I22
F-0.625
S'other'
p1548
tp1549
a(I254
I3
F0.625
S'easy'
p1550
tp1551
a(I254
I3
I0
S'great'
p1552
tp1553
a(I262
I0
I0
S'great'
p1554
tp1555
a(I263
I25
I0
S'many'
p1556
tp1557
a(I264
I23
F-0.625
S'other'
p1558
tp1559
a(I264
I23
F-0.125
S'present'
p1560
tp1561
a(I266
I0
F0.875
S'nice'
p1562
tp1563
a(I269
I1
I0
S'cool'
p1564
tp1565
a(I278
I9
F0.875
S'nice'
p1566
tp1567
a(I284
I0
F0.875
S'nice'
p1568
tp1569
a(I297
I1
I0
S'great'
p1570
tp1571
a(I303
I18
I0
S'many'
p1572
tp1573
a(I307
I84
I0
S'update'
p1574
tp1575
a(I339
I20
F-0.125
S'present'
p1576
tp1577
as(S'well'
p1578
tp1579
(lp1580
(I249
I10
F-0.625
S'quite'
p1581
tp1582
as(S'top'
p1583
S'notch'
p1584
tp1585
(lp1586
(I120
I4
F-0.375
S'top'
p1587
tp1588
a(I234
I13
F-0.375
S'top'
p1589
tp1590
a(I234
I13
F-0.5
S'sure'
p1591
tp1592
a(I294
I18
F-0.375
S'top'
p1593
tp1594
a(I341
I1
F-0.375
S'top'
p1595
tp1596
as(S'built'
p1597
g923
S'gps'
p1598
tp1599
(lp1600
(I134
I1
F1.0
S'good'
p1601
tp1602
a(I161
I36
F-0.625
S'sorry'
p1603
tp1604
a(I231
I15
F-0.5
S'regular'
p1605
tp1606
as(S'video'
p1607
tp1608
(lp1609
(I55
I5
I0
S'cable'
p1610
tp1611
a(I73
I3
I0
S'great'
p1612
tp1613
a(I76
I21
F-0.625
S'bad'
p1614
tp1615
a(I111
I3
F1.0
S'good'
p1616
tp1617
a(I156
I1
F0.875
S'nice'
p1618
tp1619
a(I203
I13
F1.0
S'best'
p1620
tp1621
a(I203
I16
F0.875
S'nice'
p1622
tp1623
a(I239
I12
F0.5
S'true'
p1624
tp1625
a(I267
I15
F0.5
S'second'
p1626
tp1627
a(I278
I29
F0.25
S'sharp'
p1628
tp1629
a(I278
I29
F0.5
S'clear'
p1630
tp1631
a(I286
I10
F0.25
S'sharp'
p1632
tp1633
a(I294
I7
F1.0
S'good'
p1634
tp1635
a(I351
I6
F0.125
S'spectacular'
p1636
tp1637
as(g1201
S'long'
p1638
S'time'
p1639
tp1640
(lp1641
(I1
I0
I0
S'same'
p1642
tp1643
a(I1
I0
I0
S'same'
p1644
tp1645
a(I1
I0
I0
S'same'
p1646
tp1647
a(I66
I4
I0
S'same'
p1648
tp1649
a(I105
I0
I0
S'same'
p1650
tp1651
a(I105
I0
I0
S'same'
p1652
tp1653
a(I105
I0
I0
S'same'
p1654
tp1655
a(I110
I41
F-0.5
S'long'
p1656
tp1657
a(I144
I7
I0
S'spanish'
p1658
tp1659
a(I144
I7
F-0.75
S'short'
p1660
tp1661
a(I163
I1
F-0.5
S'long'
p1662
tp1663
a(I186
I9
F-0.5
S'long'
p1664
tp1665
a(I186
I12
F-0.5
S'long'
p1666
tp1667
a(I264
I0
F-0.5
S'long'
p1668
tp1669
a(I272
I23
F-0.5
S'long'
p1670
tp1671
a(I286
I12
F-0.5
S'long'
p1672
tp1673
a(I287
I1
F-0.5
S'long'
p1674
tp1675
as(S'language'
p1676
S'packs'
p1677
tp1678
(lp1679
(I115
I5
F0.375
S'available'
p1680
tp1681
as(S'eye'
p1682
S'candy'
p1683
tp1684
(lp1685
(I85
I19
I0
S'android'
p1686
tp1687
as(S'thing'
p1688
tp1689
(lp1690
(I16
I0
F0.125
S'first'
p1691
tp1692
a(I34
I2
I0
S'only'
p1693
tp1694
a(I53
I2
I0
S'only'
p1695
tp1696
a(I53
I2
F-0.625
S'dislike'
p1697
tp1698
a(I85
I11
F0.875
S'important'
p1699
tp1700
a(I94
I7
I0
S'same'
p1701
tp1702
a(I97
I5
I0
S'only'
p1703
tp1704
a(I112
I0
I0
S'only'
p1705
tp1706
a(I112
I0
F-0.75
S'sad'
p1707
tp1708
a(I121
I38
F-0.75
S'wrong'
p1709
tp1710
a(I123
I10
I0
S'only'
p1711
tp1712
a(I168
I0
I0
S'only'
p1713
tp1714
a(I184
I5
I0
S'only'
p1715
tp1716
a(I192
I10
F1.0
S'best'
p1717
tp1718
a(I192
I10
F0.25
S'unlocked'
p1719
tp1720
a(I197
I2
F0.875
S'important'
p1721
tp1722
a(I198
I17
F1.0
S'best'
p1723
tp1724
a(I209
I26
F1.0
S'good'
p1725
tp1726
a(I213
I5
I0
S'only'
p1727
tp1728
a(I213
I5
F-0.625
S'bad'
p1729
tp1730
a(I233
I2
I0
S'only'
p1731
tp1732
a(I233
I2
F-0.625
S'bad'
p1733
tp1734
a(I263
I6
F0.875
S'attractive'
p1735
tp1736
a(I269
I4
I0
S'only'
p1737
tp1738
a(I273
I1
F-0.625
S'rough'
p1739
tp1740
a(I273
I1
F-0.75
S'difficult'
p1741
tp1742
a(I278
I25
F0.125
S'first'
p1743
tp1744
a(I283
I0
F1.0
S'best'
p1745
tp1746
a(I283
I0
I0
S'only'
p1747
tp1748
a(I287
I9
I0
S'only'
p1749
tp1750
a(I294
I5
I0
S'such'
p1751
tp1752
a(I302
I5
F1.0
S'good'
p1753
tp1754
a(I302
I6
F1.0
S'good'
p1755
tp1756
a(I302
I6
F-0.625
S'bad'
p1757
tp1758
a(I312
I29
F0.375
S'strange'
p1759
tp1760
a(I319
I6
F1.0
S'good'
p1761
tp1762
a(I325
I6
I0
S'funny'
p1763
tp1764
a(I336
I30
I0
S'more'
p1765
tp1766
as(S'gb'
p1767
S'microsd'
p1768
S'card'
p1769
tp1770
(lp1771
(I193
I4
F0.625
g953
tp1772
a(I286
I2
I0
g964
tp1773
as(S'data'
p1774
tp1775
(lp1776
(I7
I8
F-0.375
S'small'
p1777
tp1778
a(I51
I1
I0
S'kilobyte'
p1779
tp1780
a(I76
I2
F-0.5
g978
tp1781
a(I76
I4
F-0.5
g980
tp1782
a(I76
I9
F-0.5
g982
tp1783
a(I95
I9
I0
S'monthly'
p1784
tp1785
a(I103
I8
F0.5
S'possible'
p1786
tp1787
a(I107
I25
I0
S'only'
p1788
tp1789
a(I107
I25
F-0.375
S'small'
p1790
tp1791
a(I108
I9
I0
S'monthly'
p1792
tp1793
a(I108
I11
F0.25
S'read'
p1794
tp1795
a(I108
I18
F-0.125
g984
tp1796
a(I108
I18
F-0.5
g986
tp1797
a(I108
I20
F0.5
S'possible'
p1798
tp1799
a(I118
I3
F0.5
S'added'
p1800
tp1801
a(I136
I1
I0
S'sensitive'
p1802
tp1803
a(I136
I1
F0.25
S'responsive'
p1804
tp1805
a(I144
I7
I0
S'cable'
p1806
tp1807
a(I192
I5
F-0.5
S'heavy'
p1808
tp1809
a(I193
I4
F0.875
S'music'
p1810
tp1811
a(I198
I4
F-0.625
S'free'
p1812
tp1813
a(I198
I6
I0
S'buggy'
p1814
tp1815
a(I225
I8
F-0.5
S'heavy'
p1816
tp1817
a(I232
I2
I0
S'monthly'
p1818
tp1819
a(I257
I11
I0
S'cable'
p1820
tp1821
a(I264
I7
I0
S'monthly'
p1822
tp1823
a(I264
I25
F-0.5
g988
tp1824
a(I278
I11
I0
S'active'
p1825
tp1826
a(I278
I19
F0.5
S'expensive'
p1827
tp1828
as(g1201
S'data'
p1829
S'plan'
p1830
tp1831
(lp1832
(I1
I1
I0
S'internet'
p1833
tp1834
a(I7
I2
F0.375
S'available'
p1835
tp1836
a(I7
I8
F-0.375
g1777
tp1837
a(I51
I1
I0
g1779
tp1838
a(I76
I2
F-0.5
g978
tp1839
a(I76
I4
F-0.5
g980
tp1840
a(I76
I9
F-0.5
g982
tp1841
a(I88
I2
I0
S'most'
p1842
tp1843
a(I95
I9
I0
g1784
tp1844
a(I105
I1
I0
S'internet'
p1845
tp1846
a(I108
I18
F-0.125
g984
tp1847
a(I108
I18
F-0.5
g986
tp1848
a(I118
I3
F0.5
g1800
tp1849
a(I192
I5
F-0.5
g1808
tp1850
a(I232
I2
I0
g1818
tp1851
a(I264
I7
I0
g1822
tp1852
a(I264
I25
F-0.5
g988
tp1853
a(I301
I2
F-0.625
S'other'
p1854
tp1855
as(S'micro'
p1856
S'sd'
p1857
S'card'
p1858
tp1859
(lp1860
(I193
I4
F0.625
g953
tp1861
a(I203
I36
F0.625
S'removable'
p1862
tp1863
a(I249
I9
I0
g958
tp1864
a(I279
I0
I0
g960
tp1865
a(I286
I2
I0
g964
tp1866
as(S'make'
p1867
tp1868
(lp1869
(I111
I4
F0.375
S'extra'
p1870
tp1871
a(I287
I8
F0.625
S'easy'
p1872
tp1873
as(S'symbian'
p1874
tp1875
(lp1876
(I75
I5
I0
S'same'
p1877
tp1878
a(I160
I4
F-0.125
S'future'
p1879
tp1880
a(I208
I0
F0.125
S'typical'
p1881
tp1882
a(I239
I18
I0
S'same'
p1883
tp1884
as(S'work'
p1885
tp1886
(lp1887
(I343
I5
F-0.75
S'minor'
p1888
tp1889
as(S'player'
p1890
tp1891
(lp1892
(I19
I4
F0.875
S'music'
p1893
tp1894
a(I19
I16
F-0.375
S'smaller'
p1895
tp1896
a(I33
I7
F0.875
S'music'
p1897
tp1898
a(I41
I0
F0.875
S'music'
p1899
tp1900
a(I59
I27
F0.875
S'nice'
p1901
tp1902
a(I61
I8
F0.875
S'music'
p1903
tp1904
a(I64
I17
I0
S'great'
p1905
tp1906
a(I90
I2
I0
S'real'
p1907
tp1908
a(I107
I19
F0.875
S'music'
p1909
tp1910
a(I116
I1
F0.875
S'music'
p1911
tp1912
a(I116
I1
I0
S'cable'
p1913
tp1914
a(I134
I1
F0.875
S'music'
p1915
tp1916
a(I144
I0
F-0.375
S'top'
p1917
tp1918
a(I169
I1
F0.875
S'music'
p1919
tp1920
a(I172
I3
I0
S'lightweight'
p1921
tp1922
a(I181
I3
F0.875
S'music'
p1923
tp1924
a(I182
I5
F1.0
S'good'
p1925
tp1926
a(I186
I5
F0.875
S'music'
p1927
tp1928
a(I213
I3
F0.875
S'music'
p1929
tp1930
a(I239
I7
F1.0
S'good'
p1931
tp1932
a(I278
I31
I0
S'real'
p1933
tp1934
a(I294
I10
F-0.625
S'clean'
p1935
tp1936
a(I294
I10
F0.5
S'clear'
p1937
tp1938
a(I342
I5
F1.0
S'good'
p1939
tp1940
as(S'turn'
p1941
tp1942
(lp1943
(I11
I5
I0
S'big'
p1944
tp1945
a(I16
I5
F-0.625
S'free'
p1946
tp1947
a(I105
I16
F-0.75
S'wrong'
p1948
tp1949
a(I309
I3
I0
S'big'
p1950
tp1951
as(S'and'
p1952
S'8'
p1953
S'gb'
p1954
tp1955
(lp1956
(I1
I1
I0
g1223
tp1957
a(I1
I1
F0.125
g1225
tp1958
a(I105
I1
I0
g1227
tp1959
a(I105
I1
F0.125
g1229
tp1960
a(I261
I2
F-0.625
S'free'
p1961
tp1962
as(S'an'
p1963
S'unlimited'
p1964
S'data'
p1965
tp1966
(lp1967
(I76
I2
F-0.5
g978
tp1968
a(I76
I4
F-0.5
g980
tp1969
a(I76
I9
F-0.5
g982
tp1970
a(I108
I18
F-0.125
g984
tp1971
a(I108
I18
F-0.5
g986
tp1972
a(I264
I25
F-0.5
g988
tp1973
as(g923
S'order'
p1974
tp1975
(lp1976
(I205
I13
F0.125
S'able'
p1977
tp1978
a(I231
I1
F-0.625
S'glad'
p1979
tp1980
as(S'back'
p1981
tp1982
(lp1983
(I94
I28
F0.625
S'easy'
p1984
tp1985
a(I209
I11
F0.75
S'classic'
p1986
tp1987
a(I263
I12
F0.5
S'whole'
p1988
tp1989
as(S'carl'
p1990
S'zeiss'
p1991
tp1992
(lp1993
(I252
I9
I0
S'great'
p1994
tp1995
as(g1201
S'touch'
p1996
S'screen'
p1997
tp1998
(lp1999
(I1
I1
F0.5
g477
tp2000
a(I1
I5
F0.5
g479
tp2001
a(I2
I11
F-0.625
g122
tp2002
a(I6
I3
F0.5
S'touch'
p2003
tp2004
a(I6
I3
F-0.75
S'unresponsive'
p2005
tp2006
a(I14
I1
F1.0
g124
tp2007
a(I15
I0
F-0.375
S'crazy'
p2008
tp2009
a(I15
I0
F0.5
S'touch'
p2010
tp2011
a(I16
I9
I0
g126
tp2012
a(I19
I17
F0.25
S'responsive'
p2013
tp2014
a(I25
I16
F1.0
S'good'
p2015
tp2016
a(I25
I16
F1.0
S'better'
p2017
tp2018
a(I28
I13
F1.0
g481
tp2019
a(I34
I1
I0
S'great'
p2020
tp2021
a(I34
I1
I0
g128
tp2022
a(I49
I0
F0.5
g483
tp2023
a(I55
I0
F0.5
g485
tp2024
a(I59
I0
F0.5
S'touch'
p2025
tp2026
a(I59
I31
F0.875
S'nice'
p2027
tp2028
a(I59
I39
F0.5
g487
tp2029
a(I62
I6
F-0.75
g130
tp2030
a(I63
I3
F0.875
S'nice'
p2031
tp2032
a(I64
I3
F0.5
g489
tp2033
a(I64
I7
F-0.625
S'bad'
p2034
tp2035
a(I66
I1
F0.375
S'working'
p2036
tp2037
a(I68
I3
F0.5
S'touch'
p2038
tp2039
a(I68
I3
I0
S'user'
p2040
tp2041
a(I75
I0
I0
g491
tp2042
a(I75
I0
F0.875
g493
tp2043
a(I75
I0
I0
g495
tp2044
a(I75
I2
F0.5
g497
tp2045
a(I75
I2
F0.125
g499
tp2046
a(I75
I2
I0
g501
tp2047
a(I75
I5
I0
S'same'
p2048
tp2049
a(I88
I2
F0.5
g503
tp2050
a(I92
I0
F1.0
g132
tp2051
a(I95
I9
F0.5
g505
tp2052
a(I95
I9
F1.0
g507
tp2053
a(I105
I1
F0.5
g509
tp2054
a(I105
I5
F0.5
g511
tp2055
a(I111
I5
F1.0
g134
tp2056
a(I111
I7
F0.25
S'bigger'
p2057
tp2058
a(I111
I7
F-0.375
S'smaller'
p2059
tp2060
a(I131
I13
F0.5
S'touch'
p2061
tp2062
a(I131
I13
I0
S'resistive'
p2063
tp2064
a(I147
I3
I0
S'full'
p2065
tp2066
a(I160
I1
F-0.625
g138
tp2067
a(I161
I27
F0.25
S'bigger'
p2068
tp2069
a(I167
I9
F0.5
S'touch'
p2070
tp2071
a(I172
I14
F0.625
g144
tp2072
a(I176
I0
F0.5
g513
tp2073
a(I176
I5
F0.5
S'touch'
p2074
tp2075
a(I198
I4
I0
S'great'
p2076
tp2077
a(I206
I21
I0
g154
tp2078
a(I207
I6
F0.5
S'touch'
p2079
tp2080
a(I223
I1
F0.5
S'touch'
p2081
tp2082
a(I223
I1
F0.125
g156
tp2083
a(I223
I7
I0
g158
tp2084
a(I231
I11
I0
g160
tp2085
a(I231
I11
F0.5
g516
tp2086
a(I231
I11
I0
g162
tp2087
a(I232
I0
F0.5
g519
tp2088
a(I232
I0
F1.0
g521
tp2089
a(I243
I3
I0
g164
tp2090
a(I243
I12
F0.5
g523
tp2091
a(I248
I1
F0.5
S'touch'
p2092
tp2093
a(I248
I1
F-0.875
S'hard'
p2094
tp2095
a(I248
I1
F-0.625
S'bad'
p2096
tp2097
a(I252
I6
F0.5
S'touch'
p2098
tp2099
a(I252
I8
F0.5
S'touch'
p2100
tp2101
a(I256
I1
F0.5
g525
tp2102
a(I262
I0
F0.5
g527
tp2103
a(I263
I17
F0.375
S'similar'
p2104
tp2105
a(I263
I17
F0.25
S'main'
p2106
tp2107
a(I263
I21
I0
S'fast'
p2108
tp2109
a(I266
I0
F0.5
g529
tp2110
a(I268
I5
I0
S'soft'
p2111
tp2112
a(I268
I5
I0
S'sensitive'
p2113
tp2114
a(I283
I0
F0.5
g531
tp2115
a(I283
I0
F0.5
g533
tp2116
a(I287
I0
F0.125
S'first'
p2117
tp2118
a(I294
I29
F0.25
S'responsive'
p2119
tp2120
a(I301
I6
F-0.625
g170
tp2121
a(I302
I6
F0.875
g172
tp2122
a(I302
I6
F-0.625
g174
tp2123
a(I302
I6
F0.5
g176
tp2124
a(I303
I13
F0.625
g178
tp2125
a(I307
I24
F0.25
S'responsive'
p2126
tp2127
a(I307
I31
F0.125
g180
tp2128
a(I307
I31
I0
g182
tp2129
a(I307
I32
F0.5
g538
tp2130
a(I307
I75
F0.5
g540
tp2131
a(I310
I0
F0.5
S'touch'
p2132
tp2133
a(I311
I1
F0.5
g542
tp2134
a(I317
I2
I0
g184
tp2135
a(I317
I2
F0.25
g186
tp2136
a(I319
I8
F0.5
S'touch'
p2137
tp2138
a(I330
I4
F0.5
S'touch'
p2139
tp2140
a(I343
I2
F0.5
g544
tp2141
as(S'life'
p2142
tp2143
(lp2144
(I61
I2
F1.0
g194
tp2145
a(I61
I19
F1.0
S'better'
p2146
tp2147
a(I79
I6
I0
g198
tp2148
a(I79
I6
F1.0
g200
tp2149
a(I79
I6
F1.0
g202
tp2150
a(I94
I22
I0
g204
tp2151
a(I120
I4
I0
g208
tp2152
a(I121
I32
F1.0
g210
tp2153
a(I122
I0
F-0.625
g212
tp2154
a(I139
I1
F-0.125
g216
tp2155
a(I153
I1
I0
S'real'
p2156
tp2157
a(I153
I1
F0.125
S'able'
p2158
tp2159
a(I176
I3
F-0.5
g220
tp2160
a(I176
I3
F-0.625
g222
tp2161
a(I187
I4
F-0.5
g224
tp2162
a(I197
I12
F1.0
g230
tp2163
a(I223
I25
F1.0
g232
tp2164
a(I243
I6
F0.875
g238
tp2165
a(I243
I6
I0
g240
tp2166
a(I243
I6
I0
g242
tp2167
a(I263
I30
F-0.375
g246
tp2168
a(I269
I3
F1.0
g250
tp2169
a(I294
I15
I0
g256
tp2170
a(I297
I2
F1.0
g258
tp2171
a(I303
I6
F1.0
g260
tp2172
as(S'firmware'
p2173
tp2174
(lp2175
(I2
I10
F-0.5
S'sure'
p2176
tp2177
a(I2
I10
I0
S'latest'
p2178
tp2179
a(I16
I7
I0
S'latest'
p2180
tp2181
a(I28
I12
I0
S'more'
p2182
tp2183
a(I94
I16
F0.375
S'new'
p2184
tp2185
a(I120
I5
F0.375
S'new'
p2186
tp2187
a(I178
I5
I0
S'latest'
p2188
tp2189
a(I190
I1
F0.375
S'new'
p2190
tp2191
a(I195
I11
F0.375
S'new'
p2192
tp2193
a(I206
I5
F0.125
S'first'
p2194
tp2195
a(I206
I9
I0
S'current'
p2196
tp2197
a(I223
I6
F0.375
S'early'
p2198
tp2199
a(I261
I1
I0
S'own'
p2200
tp2201
a(I282
I0
I0
S'latest'
p2202
tp2203
a(I288
I0
F0.375
S'new'
p2204
tp2205
a(I294
I33
F0.375
S'newest'
p2206
tp2207
a(I332
I2
I0
S'updated'
p2208
tp2209
as(S'asian'
p2210
S'languages'
p2211
tp2212
(lp2213
(I11
I3
I0
S'asian'
p2214
tp2215
a(I44
I1
I0
S'asian'
p2216
tp2217
a(I267
I17
I0
S'asian'
p2218
tp2219
as(S'call'
p2220
tp2221
(lp2222
(I2
I6
I0
g11
tp2223
a(I7
I8
F-0.625
S'free'
p2224
tp2225
a(I62
I26
I0
S'most'
p2226
tp2227
a(I75
I5
F-0.625
S'green'
p2228
tp2229
a(I124
I2
F0.5
S'possible'
p2230
tp2231
a(I156
I1
F1.0
S'good'
p2232
tp2233
a(I206
I20
I0
g17
tp2234
a(I220
I2
I0
g19
tp2235
a(I225
I3
F-0.75
S'single'
p2236
tp2237
a(I272
I10
I0
g21
tp2238
a(I285
I12
F0.125
S'able'
p2239
tp2240
a(I285
I12
F0.125
S'able'
p2241
tp2242
a(I303
I11
I0
S'reviewer'
p2243
tp2244
a(I336
I7
F0.875
S'music'
p2245
tp2246
as(S'user'
p2247
tp2248
(lp2249
(I2
I23
F0.625
S'changeable'
p2250
tp2251
a(I52
I1
I0
S'graphical'
p2252
tp2253
a(I106
I1
F-0.75
S'unresponsive'
p2254
tp2255
a(I131
I19
I0
S'basic'
p2256
tp2257
a(I186
I4
F-0.375
S'manual'
p2258
tp2259
a(I339
I2
F0.25
S'responsive'
p2260
tp2261
a(I339
I11
F0.125
S'typical'
p2262
tp2263
as(S'great'
p2264
tp2265
(lp2266
(I221
I18
F0.125
S'last'
p2267
tp2268
as(S'battery'
p2269
tp2270
(lp2271
(I22
I1
F-0.625
g192
tp2272
a(I25
I12
F1.0
S'good'
p2273
tp2274
a(I62
I31
F0.125
S'last'
p2275
tp2276
a(I65
I1
F1.0
g196
tp2277
a(I82
I3
F0.5
S'second'
p2278
tp2279
a(I104
I11
I0
S'plastic'
p2280
tp2281
a(I111
I5
I0
g206
tp2282
a(I113
I0
F0.125
S'last'
p2283
tp2284
a(I139
I1
F-0.5
g214
tp2285
a(I164
I1
F-0.5
g218
tp2286
a(I167
I10
F1.0
S'good'
p2287
tp2288
a(I195
I13
F0.875
g226
tp2289
a(I195
I13
F-0.5
g228
tp2290
a(I203
I24
F0.375
S'much'
p2291
tp2292
a(I213
I5
F-0.75
S'short'
p2293
tp2294
a(I227
I2
F-0.25
g234
tp2295
a(I232
I5
F0.125
S'last'
p2296
tp2297
a(I236
I4
I0
g236
tp2298
a(I242
I3
F-0.75
S'off'
p2299
tp2300
a(I263
I0
F-0.75
g244
tp2301
a(I264
I28
F1.0
S'good'
p2302
tp2303
a(I267
I4
F0.625
S'replaceable'
p2304
tp2305
a(I267
I4
F0.125
S'essential'
p2306
tp2307
a(I268
I10
F1.0
g248
tp2308
a(I287
I1
F1.0
g252
tp2309
a(I291
I1
F1.0
g254
tp2310
a(I307
I73
F0.5
S'strong'
p2311
tp2312
a(I328
I2
F0.125
S'last'
p2313
tp2314
a(I339
I13
F-0.5
S'sure'
p2315
tp2316
a(I343
I3
F1.0
S'best'
p2317
tp2318
as(S'cell'
p2319
tp2320
(lp2321
(I17
I0
F1.0
S'good'
p2322
tp2323
a(I53
I0
F1.0
S'good'
p2324
tp2325
a(I62
I22
F-0.5
S'worry'
p2326
tp2327
a(I81
I2
F-0.25
S'modern'
p2328
tp2329
a(I104
I2
F0.875
S'important'
p2330
tp2331
a(I108
I0
F1.0
S'best'
p2332
tp2333
a(I157
I0
I0
S'plastic'
p2334
tp2335
a(I175
I0
I0
S'great'
p2336
tp2337
a(I227
I6
F-0.375
S'avoid'
p2338
tp2339
a(I240
I19
F-0.625
S'other'
p2340
tp2341
a(I244
I6
F0.375
S'much'
p2342
tp2343
a(I249
I2
F-0.5
S'regular'
p2344
tp2345
a(I252
I10
I0
S'great'
p2346
tp2347
a(I253
I0
F0.375
S'new'
p2348
tp2349
a(I271
I0
F0.875
S'happy'
p2350
tp2351
a(I316
I3
I0
S'old'
p2352
tp2353
as(S'calls'
p2354
tp2355
(lp2356
(I66
I7
F0.875
S'music'
p2357
tp2358
a(I76
I11
F0.5
S'clear'
p2359
tp2360
a(I81
I14
I0
S'many'
p2361
tp2362
a(I81
I14
F0.875
S'important'
p2363
tp2364
a(I136
I6
I0
S'valuable'
p2365
tp2366
a(I161
I12
F1.0
S'good'
p2367
tp2368
a(I209
I2
I0
S'most'
p2369
tp2370
a(I255
I9
I0
S'many'
p2371
tp2372
a(I263
I31
F-0.5
S'regular'
p2373
tp2374
a(I303
I10
F0.625
S'easy'
p2375
tp2376
a(I339
I12
I0
S'few'
p2377
tp2378
a(I339
I12
F-0.375
S'daily'
p2379
tp2380
as(S'update'
p2381
tp2382
(lp2383
(I64
I9
F0.625
S'easy'
p2384
tp2385
a(I263
I0
I0
S'january'
p2386
tp2387
a(I307
I38
I0
S'latest'
p2388
tp2389
a(I307
I82
F0.875
S'lucky'
p2390
tp2391
a(I307
I82
F-0.625
S'free'
p2392
tp2393
as(S'haptic'
p2394
S'feedback'
p2395
tp2396
(lp2397
(I167
I3
I0
S'haptic'
p2398
tp2399
a(I167
I10
I0
S'haptic'
p2400
tp2401
a(I234
I11
I0
S'haptic'
p2402
tp2403
as(S'able'
p2404
S'to'
p2405
S'use'
p2406
tp2407
(lp2408
(I268
I10
I0
g921
tp2409
a(I339
I11
I0
S'such'
p2410
tp2411
a(I339
I11
F0.75
S'constant'
p2412
tp2413
a(I339
I11
F-0.625
S'unusual'
p2414
tp2415
as(S'want'
p2416
S'to'
p2417
S'pay'
p2418
tp2419
(lp2420
(I1
I5
I0
S'monthly'
p2421
tp2422
a(I105
I5
I0
S'monthly'
p2423
tp2424
as(S'time'
p2425
tp2426
(lp2427
(I1
I0
I0
g1642
tp2428
a(I1
I0
I0
g1644
tp2429
a(I1
I0
I0
g1646
tp2430
a(I11
I5
F-0.75
S'tough'
p2431
tp2432
a(I12
I0
I0
S'third'
p2433
tp2434
a(I16
I5
I0
S'real'
p2435
tp2436
a(I28
I13
F-0.875
S'hard'
p2437
tp2438
a(I31
I5
F0.125
S'able'
p2439
tp2440
a(I31
I6
F-0.75
S'single'
p2441
tp2442
a(I59
I15
I0
S'entire'
p2443
tp2444
a(I62
I11
I0
S'same'
p2445
tp2446
a(I62
I11
I0
S'such'
p2447
tp2448
a(I62
I17
I0
S'later'
p2449
tp2450
a(I65
I11
F-0.5
S'less'
p2451
tp2452
a(I66
I4
I0
g1648
tp2453
a(I75
I5
I0
S'big'
p2454
tp2455
a(I85
I4
F-0.875
S'hard'
p2456
tp2457
a(I93
I5
I0
S'same'
p2458
tp2459
a(I101
I7
I0
S'next'
p2460
tp2461
a(I105
I0
I0
g1650
tp2462
a(I105
I0
I0
g1652
tp2463
a(I105
I0
I0
g1654
tp2464
a(I110
I23
I0
S'substantial'
p2465
tp2466
a(I110
I32
F0.5
S'reasonable'
p2467
tp2468
a(I110
I41
F-0.5
g1656
tp2469
a(I115
I33
F0.5
S'second'
p2470
tp2471
a(I134
I5
I0
S'signal'
p2472
tp2473
a(I139
I0
F0.375
S'available'
p2474
tp2475
a(I144
I7
I0
g1658
tp2476
a(I144
I7
F-0.75
g1660
tp2477
a(I147
I3
I0
S'infant'
p2478
tp2479
a(I155
I0
F0.125
S'first'
p2480
tp2481
a(I160
I10
F1.0
S'better'
p2482
tp2483
a(I163
I1
F-0.5
g1662
tp2484
a(I167
I10
F0.375
S'much'
p2485
tp2486
a(I167
I10
I0
S'net'
p2487
tp2488
a(I172
I2
F0.625
S'aware'
p2489
tp2490
a(I182
I10
I0
S'most'
p2491
tp2492
a(I186
I9
F-0.5
g1664
tp2493
a(I186
I12
F-0.5
g1666
tp2494
a(I198
I4
I0
S'same'
p2495
tp2496
a(I198
I22
I0
S'very'
p2497
tp2498
a(I198
I22
F0.5
S'accurate'
p2499
tp2500
a(I202
I2
F0.875
S'important'
p2501
tp2502
a(I206
I4
F0.5
S'second'
p2503
tp2504
a(I206
I4
F0.125
S'first'
p2505
tp2506
a(I207
I4
I0
S'big'
p2507
tp2508
a(I209
I9
F-0.875
S'hard'
p2509
tp2510
a(I209
I22
F-0.875
S'hard'
p2511
tp2512
a(I227
I3
F0.125
S'last'
p2513
tp2514
a(I240
I10
F0.125
S'first'
p2515
tp2516
a(I263
I4
F-0.875
S'hard'
p2517
tp2518
a(I263
I4
F0.75
S'worth'
p2519
tp2520
a(I264
I0
F-0.5
g1668
tp2521
a(I272
I21
I0
S'more'
p2522
tp2523
a(I272
I23
F-0.5
g1670
tp2524
a(I286
I12
F-0.5
g1672
tp2525
a(I286
I14
I0
S'same'
p2526
tp2527
a(I287
I1
F-0.5
g1674
tp2528
a(I289
I0
F0.5
S'second'
p2529
tp2530
a(I297
I7
I0
S'same'
p2531
tp2532
a(I302
I4
F0.125
S'first'
p2533
tp2534
a(I302
I4
F-0.25
S'loose'
p2535
tp2536
a(I302
I4
F0.5
S'second'
p2537
tp2538
a(I307
I18
I0
S'e-mail'
p2539
tp2540
a(I307
I26
F0.375
S'much'
p2541
tp2542
a(I312
I15
F0.125
S'first'
p2543
tp2544
a(I318
I3
I0
S'same'
p2545
tp2546
a(I333
I2
F0.125
S'able'
p2547
tp2548
a(I336
I8
I0
S'dictionary'
p2549
tp2550
a(I337
I4
I0
S'most'
p2551
tp2552
as(S'find'
p2553
tp2554
(lp2555
(I282
I0
F-0.375
S'manual'
p2556
tp2557
as(S'no'
p2558
S'data'
p2559
S'plan'
p2560
tp2561
(lp2562
(I1
I1
I0
g1833
tp2563
a(I7
I2
F0.375
g1835
tp2564
a(I7
I8
F-0.375
g1777
tp2565
a(I76
I2
F-0.5
g978
tp2566
a(I76
I4
F-0.5
g980
tp2567
a(I76
I9
F-0.5
g982
tp2568
a(I95
I9
I0
g1784
tp2569
a(I105
I1
I0
g1845
tp2570
a(I108
I18
F-0.125
g984
tp2571
a(I108
I18
F-0.5
g986
tp2572
a(I192
I5
F-0.5
g1808
tp2573
a(I264
I7
I0
g1822
tp2574
a(I264
I25
F-0.5
g988
tp2575
as(S'support'
p2576
tp2577
(lp2578
(I170
I5
I0
S'tech'
p2579
tp2580
as(S'nokia'
p2581
S'5800'
p2582
S'xpressmusic'
p2583
tp2584
(lp2585
(I29
I3
F-0.625
g735
tp2586
a(I76
I23
F0.375
g757
tp2587
a(I76
I23
F0.5
g759
tp2588
a(I215
I0
I0
g831
tp2589
a(I215
I0
I0
g833
tp2590
a(I215
I0
I0
g835
tp2591
a(I256
I0
F0.875
g845
tp2592
a(I263
I1
F0.375
g847
tp2593
a(I270
I1
I0
g853
tp2594
a(I299
I3
I0
g871
tp2595
as(S'touch'
p2596
S'screen'
p2597
tp2598
(lp2599
(I1
I1
F0.5
g477
tp2600
a(I1
I5
F0.5
g479
tp2601
a(I2
I11
F-0.625
g122
tp2602
a(I6
I3
F0.5
g2003
tp2603
a(I6
I3
F-0.75
g2005
tp2604
a(I14
I1
F1.0
g124
tp2605
a(I15
I0
F-0.375
g2008
tp2606
a(I15
I0
F0.5
g2010
tp2607
a(I16
I9
I0
g126
tp2608
a(I19
I17
F0.25
g2013
tp2609
a(I25
I16
F1.0
g2015
tp2610
a(I25
I16
F1.0
g2017
tp2611
a(I28
I13
F1.0
g481
tp2612
a(I34
I1
I0
g2020
tp2613
a(I34
I1
I0
g128
tp2614
a(I49
I0
F0.5
g483
tp2615
a(I55
I0
F0.5
g485
tp2616
a(I59
I0
F0.5
g2025
tp2617
a(I59
I31
F0.875
g2027
tp2618
a(I59
I39
F0.5
g487
tp2619
a(I62
I6
F-0.75
g130
tp2620
a(I63
I3
F0.875
g2031
tp2621
a(I64
I3
F0.5
g489
tp2622
a(I64
I7
F-0.625
g2034
tp2623
a(I66
I1
F0.375
g2036
tp2624
a(I68
I3
F0.5
g2038
tp2625
a(I68
I3
I0
g2040
tp2626
a(I75
I0
I0
g491
tp2627
a(I75
I0
F0.875
g493
tp2628
a(I75
I0
I0
g495
tp2629
a(I75
I2
F0.5
g497
tp2630
a(I75
I2
F0.125
g499
tp2631
a(I75
I2
I0
g501
tp2632
a(I75
I5
I0
g2048
tp2633
a(I88
I2
F0.5
g503
tp2634
a(I92
I0
F1.0
g132
tp2635
a(I95
I9
F0.5
g505
tp2636
a(I95
I9
F1.0
g507
tp2637
a(I105
I1
F0.5
g509
tp2638
a(I105
I5
F0.5
g511
tp2639
a(I111
I5
F1.0
g134
tp2640
a(I111
I7
F0.25
g2057
tp2641
a(I111
I7
F-0.375
g2059
tp2642
a(I119
I4
F0.5
S'touch'
p2643
tp2644
a(I131
I13
F0.5
g2061
tp2645
a(I131
I13
I0
g2063
tp2646
a(I147
I3
I0
g2065
tp2647
a(I160
I1
F-0.625
g138
tp2648
a(I161
I27
F0.25
g2068
tp2649
a(I167
I9
F0.5
g2070
tp2650
a(I172
I14
F0.625
g144
tp2651
a(I176
I0
F0.5
g513
tp2652
a(I176
I5
F0.5
g2074
tp2653
a(I198
I4
I0
g2076
tp2654
a(I206
I21
I0
g154
tp2655
a(I207
I6
F0.5
g2079
tp2656
a(I223
I1
F0.5
g2081
tp2657
a(I223
I1
F0.125
g156
tp2658
a(I223
I7
I0
g158
tp2659
a(I231
I11
I0
g160
tp2660
a(I231
I11
F0.5
g516
tp2661
a(I231
I11
I0
g162
tp2662
a(I232
I0
F0.5
g519
tp2663
a(I232
I0
F1.0
g521
tp2664
a(I243
I3
I0
g164
tp2665
a(I243
I12
F0.5
g523
tp2666
a(I248
I1
F0.5
g2092
tp2667
a(I248
I1
F-0.875
g2094
tp2668
a(I248
I1
F-0.625
g2096
tp2669
a(I252
I6
F0.5
g2098
tp2670
a(I252
I8
F0.5
g2100
tp2671
a(I256
I1
F0.5
g525
tp2672
a(I262
I0
F0.5
g527
tp2673
a(I263
I17
F0.375
g2104
tp2674
a(I263
I17
F0.25
g2106
tp2675
a(I263
I21
I0
g2108
tp2676
a(I266
I0
F0.5
g529
tp2677
a(I268
I5
I0
g2111
tp2678
a(I268
I5
I0
g2113
tp2679
a(I283
I0
F0.5
g531
tp2680
a(I283
I0
F0.5
g533
tp2681
a(I285
I13
F0.5
S'touch'
p2682
tp2683
a(I287
I0
F0.125
g2117
tp2684
a(I294
I29
F0.25
g2119
tp2685
a(I301
I6
F-0.625
g170
tp2686
a(I302
I6
F0.875
g172
tp2687
a(I302
I6
F-0.625
g174
tp2688
a(I302
I6
F0.5
g176
tp2689
a(I303
I13
F0.625
g178
tp2690
a(I307
I24
F0.25
g2126
tp2691
a(I307
I31
F0.125
g180
tp2692
a(I307
I31
I0
g182
tp2693
a(I307
I32
F0.5
g538
tp2694
a(I307
I75
F0.5
g540
tp2695
a(I310
I0
F0.5
g2132
tp2696
a(I311
I1
F0.5
g542
tp2697
a(I317
I2
I0
g184
tp2698
a(I317
I2
F0.25
g186
tp2699
a(I319
I8
F0.5
g2137
tp2700
a(I330
I4
F0.5
g2139
tp2701
a(I343
I2
F0.5
g544
tp2702
as(S'everything'
p2703
tp2704
(lp2705
(I43
I1
F-0.125
S'overall'
p2706
tp2707
a(I59
I7
F-0.125
S'delete'
p2708
tp2709
a(I59
I9
F0.625
S'convenient'
p2710
tp2711
a(I123
I9
I0
S'more'
p2712
tp2713
a(I139
I1
F-0.125
S'slow'
p2714
tp2715
a(I173
I0
I0
S'great'
p2716
tp2717
a(I187
I1
F1.0
S'good'
p2718
tp2719
a(I200
I4
I0
S'great'
p2720
tp2721
a(I204
I1
F-0.625
S'free'
p2722
tp2723
a(I218
I3
I0
S'great'
p2724
tp2725
a(I321
I1
F0.5
S'functional'
p2726
tp2727
a(I321
I1
F0.625
S'easy'
p2728
tp2729
a(I321
I1
F-0.375
S'manual'
p2730
tp2731
a(I345
I0
F0.125
S'able'
p2732
tp2733
as(S'to'
p2734
S'remove'
p2735
S'battery'
p2736
tp2737
(lp2738
(I242
I3
F-0.75
g2299
tp2739
as(S'little'
p2740
tp2741
(lp2742
(I103
I2
F1.0
S'good'
p2743
tp2744
as(S's60'
p2745
S'5th'
p2746
S'edition'
p2747
tp2748
(lp2749
(I160
I5
F0.375
S'new'
p2750
tp2751
as(S'plan'
p2752
tp2753
(lp2754
(I1
I1
I0
g1833
tp2755
a(I7
I2
F0.375
g1835
tp2756
a(I88
I2
I0
g1842
tp2757
a(I105
I1
I0
g1845
tp2758
a(I301
I2
F-0.625
g1854
tp2759
a(I307
I8
F0.125
S'able'
p2760
tp2761
a(I318
I8
F0.5
S'expensive'
p2762
tp2763
as(S'screen'
p2764
tp2765
(lp2766
(I1
I1
F0.5
g477
tp2767
a(I1
I5
F0.5
g479
tp2768
a(I2
I21
I0
S'full'
p2769
tp2770
a(I6
I3
F0.5
g2003
tp2771
a(I6
I3
F-0.75
g2005
tp2772
a(I15
I0
F-0.375
g2008
tp2773
a(I15
I0
F0.5
g2010
tp2774
a(I19
I17
F0.25
g2013
tp2775
a(I25
I16
F1.0
g2015
tp2776
a(I25
I16
F1.0
g2017
tp2777
a(I28
I13
F1.0
g481
tp2778
a(I34
I1
I0
g2020
tp2779
a(I45
I0
F-0.75
S'bright'
p2780
tp2781
a(I45
I0
F0.875
S'nice'
p2782
tp2783
a(I49
I0
F0.5
g483
tp2784
a(I52
I0
F1.0
S'good'
p2785
tp2786
a(I53
I0
I0
S'large'
p2787
tp2788
a(I55
I0
F0.5
g485
tp2789
a(I59
I0
F0.5
g2025
tp2790
a(I59
I5
F-0.5
S'less'
p2791
tp2792
a(I59
I8
F0.25
S'main'
p2793
tp2794
a(I59
I21
F-0.375
S'black'
p2795
tp2796
a(I59
I25
I0
S'great'
p2797
tp2798
a(I59
I31
F0.875
g2027
tp2799
a(I59
I39
F0.5
g487
tp2800
a(I63
I3
F0.875
g2031
tp2801
a(I64
I3
F0.5
g489
tp2802
a(I64
I7
F-0.625
g2034
tp2803
a(I66
I1
F0.375
g2036
tp2804
a(I68
I3
F0.5
g2038
tp2805
a(I68
I3
I0
g2040
tp2806
a(I75
I0
I0
g491
tp2807
a(I75
I0
F0.875
g493
tp2808
a(I75
I0
I0
g495
tp2809
a(I75
I2
F0.5
g497
tp2810
a(I75
I2
F0.125
g499
tp2811
a(I75
I2
I0
g501
tp2812
a(I75
I5
I0
g2048
tp2813
a(I81
I7
I0
S'reappear'
p2814
tp2815
a(I88
I2
F0.5
g503
tp2816
a(I94
I17
F-0.375
S'top'
p2817
tp2818
a(I94
I20
I0
S'hair'
p2819
tp2820
a(I95
I9
F0.5
g505
tp2821
a(I95
I9
F1.0
g507
tp2822
a(I105
I1
F0.5
g509
tp2823
a(I105
I5
F0.5
g511
tp2824
a(I111
I7
F0.25
g2057
tp2825
a(I111
I7
F-0.375
g2059
tp2826
a(I117
I0
F1.0
S'good'
p2827
tp2828
a(I119
I4
F0.5
g2643
tp2829
a(I121
I34
I0
S'update'
p2830
tp2831
a(I131
I13
F0.5
g2061
tp2832
a(I131
I13
I0
g2063
tp2833
a(I147
I1
F0.875
S'nice'
p2834
tp2835
a(I147
I3
I0
g2065
tp2836
a(I160
I8
I0
S'high'
p2837
tp2838
a(I161
I27
F0.25
g2068
tp2839
a(I167
I9
F0.5
g2070
tp2840
a(I176
I0
F0.5
g513
tp2841
a(I176
I5
F0.5
g2074
tp2842
a(I196
I1
F0.5
S'functional'
p2843
tp2844
a(I198
I4
I0
g2076
tp2845
a(I202
I2
F0.25
S'responsive'
p2846
tp2847
a(I204
I1
F-0.25
S'ready'
p2848
tp2849
a(I207
I6
F0.5
g2079
tp2850
a(I209
I6
I0
S'resistive'
p2851
tp2852
a(I209
I6
F-0.625
S'bad'
p2853
tp2854
a(I213
I1
F0.75
S'beautiful'
p2855
tp2856
a(I215
I5
I0
S'vertical'
p2857
tp2858
a(I215
I5
I0
S'vertical'
p2859
tp2860
a(I220
I18
F0.25
S'larger'
p2861
tp2862
a(I223
I1
F0.5
g2081
tp2863
a(I223
I8
F0.625
S'easier'
p2864
tp2865
a(I223
I8
I0
S'capacitive'
p2866
tp2867
a(I223
I9
I0
S'resistive'
p2868
tp2869
a(I223
I12
I0
S'resistive'
p2870
tp2871
a(I223
I12
F-0.5
S'less'
p2872
tp2873
a(I223
I12
F-0.75
S'bright'
p2874
tp2875
a(I223
I12
F0.5
S'clear'
p2876
tp2877
a(I231
I11
F0.5
g516
tp2878
a(I232
I0
F0.5
g519
tp2879
a(I232
I0
F1.0
g521
tp2880
a(I240
I5
F0.25
S'biggest'
p2881
tp2882
a(I240
I5
F-0.25
S'cheapest'
p2883
tp2884
a(I243
I8
F0.25
S'main'
p2885
tp2886
a(I243
I12
F0.5
g523
tp2887
a(I245
I0
F-0.375
S'black'
p2888
tp2889
a(I248
I1
F0.5
g2092
tp2890
a(I248
I1
F-0.875
g2094
tp2891
a(I248
I1
F-0.625
g2096
tp2892
a(I252
I6
F0.5
g2098
tp2893
a(I252
I8
F0.5
g2100
tp2894
a(I256
I1
F0.5
g525
tp2895
a(I262
I0
F0.5
g527
tp2896
a(I263
I17
F0.375
g2104
tp2897
a(I263
I17
F0.25
g2106
tp2898
a(I263
I21
I0
g2108
tp2899
a(I266
I0
F0.5
g529
tp2900
a(I268
I5
I0
g2111
tp2901
a(I268
I5
I0
g2113
tp2902
a(I277
I3
F0.25
S'main'
p2903
tp2904
a(I283
I0
F0.5
g531
tp2905
a(I283
I0
F0.5
g533
tp2906
a(I285
I13
F0.5
g2682
tp2907
a(I286
I19
F0.625
S'find'
p2908
tp2909
a(I287
I0
F0.125
g2117
tp2910
a(I287
I8
F0.25
S'main'
p2911
tp2912
a(I294
I29
F0.25
g2119
tp2913
a(I297
I11
F0.25
S'bigger'
p2914
tp2915
a(I300
I3
F0.375
S'new'
p2916
tp2917
a(I300
I3
F-0.75
S'damaged'
p2918
tp2919
a(I302
I4
F-0.375
S'black'
p2920
tp2921
a(I306
I3
I0
S'big'
p2922
tp2923
a(I307
I24
F0.25
g2126
tp2924
a(I307
I25
I0
S'big'
p2925
tp2926
a(I307
I32
F0.5
g538
tp2927
a(I307
I75
F0.5
g540
tp2928
a(I308
I1
I0
S'great'
p2929
tp2930
a(I310
I0
F0.5
g2132
tp2931
a(I311
I1
F0.5
g542
tp2932
a(I319
I8
F0.5
g2137
tp2933
a(I324
I2
I0
S'initial'
p2934
tp2935
a(I330
I4
F0.5
g2139
tp2936
a(I339
I21
F-0.375
S'small'
p2937
tp2938
a(I343
I2
F0.5
g544
tp2939
as(S'ovi'
p2940
S'store'
p2941
tp2942
(lp2943
(I45
I1
F0.75
g648
tp2944
a(I76
I12
F0.625
g650
tp2945
a(I222
I1
F-0.25
g654
tp2946
a(I261
I1
I0
g399
tp2947
a(I294
I44
I0
g401
tp2948
a(I294
I44
F-0.5
g403
tp2949
a(I309
I5
F1.0
g663
tp2950
a(I342
I7
F-0.625
g665
tp2951
as(S'camera'
p2952
tp2953
(lp2954
(I1
I0
F0.375
S'extra'
p2955
tp2956
a(I9
I0
F1.0
S'good'
p2957
tp2958
a(I11
I3
F-0.625
S'bad'
p2959
tp2960
a(I34
I3
F-0.625
S'bad'
p2961
tp2962
a(I45
I2
F1.0
S'better'
p2963
tp2964
a(I55
I1
F1.0
S'good'
p2965
tp2966
a(I59
I25
F-0.625
S'other'
p2967
tp2968
a(I61
I28
F-0.375
S'simple'
p2969
tp2970
a(I62
I30
F-0.75
S'secondary'
p2971
tp2972
a(I64
I3
F1.0
S'good'
p2973
tp2974
a(I74
I0
F0.5
S'strong'
p2975
tp2976
a(I76
I9
F0.125
S'digital'
p2977
tp2978
a(I84
I5
F-0.5
S'sure'
p2979
tp2980
a(I103
I3
I0
S'great'
p2981
tp2982
a(I105
I0
F0.375
S'extra'
p2983
tp2984
a(I110
I13
F0.625
S'decent'
p2985
tp2986
a(I117
I0
F1.0
S'good'
p2987
tp2988
a(I121
I8
F-0.5
S'insane'
p2989
tp2990
a(I121
I25
F0.125
S'solid'
p2991
tp2992
a(I123
I16
I0
S'great'
p2993
tp2994
a(I142
I7
I0
S'great'
p2995
tp2996
a(I158
I7
F1.0
S'best'
p2997
tp2998
a(I158
I7
F-0.5
S'regular'
p2999
tp3000
a(I161
I18
F0.25
S'main'
p3001
tp3002
a(I164
I1
I0
S'great'
p3003
tp3004
a(I186
I8
F0.875
S'nice'
p3005
tp3006
a(I186
I8
F0.375
S'much'
p3007
tp3008
a(I197
I16
F-0.5
S'separate'
p3009
tp3010
a(I197
I16
F1.0
S'good'
p3011
tp3012
a(I202
I2
F1.0
S'better'
p3013
tp3014
a(I214
I1
F1.0
S'better'
p3015
tp3016
a(I223
I16
I0
S'most'
p3017
tp3018
a(I231
I4
I0
S'rear'
p3019
tp3020
a(I231
I5
F-0.75
S'difficult'
p3021
tp3022
a(I252
I6
I0
S'great'
p3023
tp3024
a(I263
I9
F-0.5
S'separate'
p3025
tp3026
a(I266
I0
F1.0
S'good'
p3027
tp3028
a(I267
I10
F1.0
S'better'
p3029
tp3030
a(I283
I0
F1.0
S'good'
p3031
tp3032
a(I294
I2
F1.0
S'better'
p3033
tp3034
a(I302
I4
F0.875
S'nice'
p3035
tp3036
a(I303
I16
I0
S'great'
p3037
tp3038
a(I303
I16
F1.0
S'good'
p3039
tp3040
a(I307
I56
F-0.625
S'bad'
p3041
tp3042
a(I309
I9
F1.0
S'good'
p3043
tp3044
a(I339
I13
F0.625
S'decent'
p3045
tp3046
a(I339
I16
F1.0
S'better'
p3047
tp3048
a(I342
I5
F-0.625
S'bad'
p3049
tp3050
a(I349
I0
F0.875
S'music'
p3051
tp3052
as(S'using'
p3053
tp3054
(lp3055
(I286
I3
F1.0
S'good'
p3056
tp3057
as(S'listen'
p3058
S'to'
p3059
S'music'
p3060
tp3061
(lp3062
(I198
I4
F0.875
S'music'
p3063
tp3064
as(S'to'
p3065
S'wireless'
p3066
S'network'
p3067
tp3068
(lp3069
(I176
I3
I0
S'internet'
p3070
tp3071
a(I209
I13
F0.375
S'much'
p3072
tp3073
as(S'people'
p3074
tp3075
(lp3076
(I42
I5
I0
S'fast'
p3077
tp3078
a(I42
I5
I0
S'younger'
p3079
tp3080
a(I59
I33
F-0.625
S'other'
p3081
tp3082
a(I59
I39
F-0.625
S'other'
p3083
tp3084
a(I76
I4
I0
S'many'
p3085
tp3086
a(I85
I8
F0.5
S'willing'
p3087
tp3088
a(I88
I13
I0
S'many'
p3089
tp3090
a(I94
I31
I0
S'most'
p3091
tp3092
a(I137
I0
I0
S'great'
p3093
tp3094
a(I137
I0
F-0.625
S'want'
p3095
tp3096
a(I163
I12
F-0.625
S'want'
p3097
tp3098
a(I167
I9
F-0.625
S'want'
p3099
tp3100
a(I205
I25
F-0.625
S'other'
p3101
tp3102
a(I206
I24
I0
S'great'
p3103
tp3104
a(I225
I10
F-0.625
S'other'
p3105
tp3106
a(I237
I27
I0
S'many'
p3107
tp3108
a(I249
I6
F-0.625
S'other'
p3109
tp3110
a(I259
I30
F-0.625
S'want'
p3111
tp3112
a(I263
I17
F0.25
S'favorite'
p3113
tp3114
a(I264
I21
I0
S'old'
p3115
tp3116
a(I307
I0
I0
S'most'
p3117
tp3118
a(I307
I54
F-0.625
S'other'
p3119
tp3120
as(S'feature'
p3121
tp3122
(lp3123
(I1
I1
F1.0
S'best'
p3124
tp3125
a(I33
I1
I0
S'great'
p3126
tp3127
a(I37
I5
I0
S'basic'
p3128
tp3129
a(I51
I1
I0
S'basic'
p3130
tp3131
a(I64
I11
F1.0
S'good'
p3132
tp3133
a(I64
I12
I0
S'great'
p3134
tp3135
a(I105
I1
F1.0
S'best'
p3136
tp3137
a(I137
I1
F0.875
S'music'
p3138
tp3139
a(I209
I13
I0
S'least'
p3140
tp3141
a(I215
I5
I0
S'vertical'
p3142
tp3143
a(I215
I5
I0
S'horizontal'
p3144
tp3145
a(I242
I11
F0.875
S'nice'
p3146
tp3147
a(I264
I17
F0.875
S'nice'
p3148
tp3149
a(I278
I18
F0.875
S'important'
p3150
tp3151
a(I294
I18
I0
S'cool'
p3152
tp3153
a(I309
I5
F0.875
S'music'
p3154
tp3155
as(S'music'
p3156
S'player'
p3157
tp3158
(lp3159
(I19
I4
F0.875
g1893
tp3160
a(I33
I7
F0.875
g1897
tp3161
a(I41
I0
F0.875
g1899
tp3162
a(I59
I27
F0.875
g1901
tp3163
a(I61
I8
F0.875
g1903
tp3164
a(I64
I17
I0
g1905
tp3165
a(I107
I19
F0.875
g1909
tp3166
a(I116
I1
F0.875
g1911
tp3167
a(I116
I1
I0
g1913
tp3168
a(I134
I1
F0.875
g1915
tp3169
a(I144
I0
F-0.375
g1917
tp3170
a(I169
I1
F0.875
g1919
tp3171
a(I172
I3
F1.0
S'good'
p3172
tp3173
a(I172
I3
I0
g1921
tp3174
a(I181
I3
F0.875
g1923
tp3175
a(I182
I5
F1.0
g1925
tp3176
a(I186
I5
F0.875
g1927
tp3177
a(I213
I3
F0.875
g1929
tp3178
a(I294
I10
F-0.625
g1935
tp3179
a(I294
I10
F0.5
g1937
tp3180
a(I342
I5
F1.0
g1939
tp3181
as(S'street'
p3182
S'names'
p3183
tp3184
(lp3185
(I198
I15
I0
S'english'
p3186
tp3187
as(S'works'
p3188
tp3189
(lp3190
(I25
I5
I0
S'great'
p3191
tp3192
a(I33
I9
I0
S'great'
p3193
tp3194
a(I61
I17
I0
S'most'
p3195
tp3196
a(I65
I4
F1.0
S'better'
p3197
tp3198
a(I75
I0
I0
S'great'
p3199
tp3200
a(I131
I11
I0
S'great'
p3201
tp3202
a(I136
I4
F1.0
S'better'
p3203
tp3204
a(I144
I3
I0
S'great'
p3205
tp3206
a(I147
I4
I0
S'great'
p3207
tp3208
a(I213
I4
I0
S'great'
p3209
tp3210
a(I222
I1
F1.0
S'best'
p3211
tp3212
a(I223
I1
F-0.75
S'little'
p3213
tp3214
a(I236
I7
F1.0
S'good'
p3215
tp3216
a(I243
I14
I0
S'faster'
p3217
tp3218
a(I243
I14
F1.0
S'better'
p3219
tp3220
a(I257
I6
I0
S'great'
p3221
tp3222
a(I294
I46
F0.125
S'able'
p3223
tp3224
a(I307
I9
I0
S'great'
p3225
tp3226
a(I311
I0
F1.0
S'best'
p3227
tp3228
as(S'8gb'
p3229
S'microsd'
p3230
S'card'
p3231
tp3232
(lp3233
(I193
I4
F0.625
g953
tp3234
as(S'browser'
p3235
tp3236
(lp3237
(I25
I9
F-0.625
S'other'
p3238
tp3239
a(I25
I9
I0
S'great'
p3240
tp3241
a(I33
I8
I0
S'full'
p3242
tp3243
a(I33
I8
I0
S'fledged'
p3244
tp3245
a(I51
I2
F0.25
S'main'
p3246
tp3247
a(I54
I4
F1.0
S'good'
p3248
tp3249
a(I54
I4
I0
S'fast'
p3250
tp3251
a(I85
I24
F0.625
S'easy'
p3252
tp3253
a(I85
I24
F0.25
S'helpful'
p3254
tp3255
a(I85
I24
F-0.625
S'clean'
p3256
tp3257
a(I94
I5
F-0.125
S'slow'
p3258
tp3259
a(I94
I11
I0
S'faster'
p3260
tp3261
a(I203
I28
F1.0
S'good'
p3262
tp3263
a(I255
I1
I0
S'close'
p3264
tp3265
as(S'can'
p3266
S'play'
p3267
S'music'
p3268
tp3269
(lp3270
(I172
I3
F1.0
g3172
tp3271
as(S'better'
p3272
tp3273
(lp3274
(I111
I7
F0.375
S'much'
p3275
tp3276
a(I144
I3
F-0.75
S'little'
p3277
tp3278
a(I144
I3
F0.125
S'outside'
p3279
tp3280
a(I343
I6
F0.375
S'much'
p3281
tp3282
as(S'tv'
p3283
S'out'
p3284
S'cable'
p3285
tp3286
(lp3287
(I208
I0
I0
S'cable'
p3288
tp3289
as(S'music'
p3290
tp3291
(lp3292
(I11
I2
F1.0
S'good'
p3293
tp3294
a(I11
I2
F0.625
S'easy'
p3295
tp3296
a(I19
I0
I0
S'great'
p3297
tp3298
a(I95
I3
I0
S'great'
p3299
tp3300
a(I107
I8
F0.625
S'perfect'
p3301
tp3302
a(I172
I3
F1.0
g3172
tp3303
a(I186
I7
F0.625
S'easy'
p3304
tp3305
a(I307
I52
F0.125
S'balanced'
p3306
tp3307
a(I325
I0
F1.0
S'good'
p3308
tp3309
a(I325
I6
I0
S'big'
p3310
tp3311
as(S'quad-band'
p3312
S'gsm'
p3313
tp3314
(lp3315
(I278
I1
F0.25
S'unlocked'
p3316
tp3317
as(S'turn'
p3318
S'by'
p3319
S'turn'
p3320
tp3321
(lp3322
(I16
I5
F-0.625
g1946
tp3323
as(S'data'
p3324
S'plan'
p3325
tp3326
(lp3327
(I1
I1
I0
g1833
tp3328
a(I7
I2
F0.375
g1835
tp3329
a(I7
I8
F-0.375
g1777
tp3330
a(I51
I1
I0
g1779
tp3331
a(I76
I2
F-0.5
g978
tp3332
a(I76
I4
F-0.5
g980
tp3333
a(I76
I9
F-0.5
g982
tp3334
a(I88
I2
I0
g1842
tp3335
a(I95
I9
I0
g1784
tp3336
a(I105
I1
I0
g1845
tp3337
a(I108
I18
F-0.125
g984
tp3338
a(I108
I18
F-0.5
g986
tp3339
a(I118
I3
F0.5
g1800
tp3340
a(I192
I5
F-0.5
g1808
tp3341
a(I232
I2
I0
g1818
tp3342
a(I264
I7
I0
g1822
tp3343
a(I264
I25
F-0.5
g988
tp3344
a(I301
I2
F-0.625
g1854
tp3345
as(S'looking'
p3346
tp3347
(lp3348
(I133
I0
F1.0
S'good'
p3349
tp3350
as(S'apps'
p3351
tp3352
(lp3353
(I19
I15
F0.5
S'obvious'
p3354
tp3355
a(I45
I2
I0
S'few'
p3356
tp3357
a(I45
I2
I0
S'most'
p3358
tp3359
a(I58
I6
I0
S'more'
p3360
tp3361
a(I61
I27
I0
S'many'
p3362
tp3363
a(I77
I1
I0
S'many'
p3364
tp3365
a(I77
I1
I0
S'useful'
p3366
tp3367
a(I77
I1
F0.375
S'available'
p3368
tp3369
a(I85
I21
F1.0
S'good'
p3370
tp3371
a(I85
I21
F-0.625
S'free'
p3372
tp3373
a(I85
I29
I0
S'useful'
p3374
tp3375
a(I85
I31
F0.875
S'nice'
p3376
tp3377
a(I93
I8
I0
S'many'
p3378
tp3379
a(I103
I7
I0
S'many'
p3380
tp3381
a(I103
I7
F0.5
S'desirable'
p3382
tp3383
a(I103
I7
I0
S'least'
p3384
tp3385
a(I103
I8
I0
S'more'
p3386
tp3387
a(I120
I3
I0
S'many'
p3388
tp3389
a(I121
I12
I0
S'more'
p3390
tp3391
a(I123
I19
I0
S'great'
p3392
tp3393
a(I146
I4
F-0.5
S'open'
p3394
tp3395
a(I146
I12
I0
S'alternate'
p3396
tp3397
a(I146
I12
I0
S'later'
p3398
tp3399
a(I151
I2
I0
S'many'
p3400
tp3401
a(I151
I2
I0
S'mobile'
p3402
tp3403
a(I151
I3
I0
S'user'
p3404
tp3405
a(I161
I14
I0
S'few'
p3406
tp3407
a(I163
I13
F0.375
S'new'
p3408
tp3409
a(I190
I4
F0.375
S'new'
p3410
tp3411
a(I207
I3
I0
S'online'
p3412
tp3413
a(I208
I0
F0.375
S'newer'
p3414
tp3415
a(I222
I1
I0
S'many'
p3416
tp3417
a(I222
I3
I0
S'basic'
p3418
tp3419
a(I222
I3
I0
S'great'
p3420
tp3421
a(I231
I11
F0.375
S'available'
p3422
tp3423
a(I237
I13
I0
S'few'
p3424
tp3425
a(I249
I13
I0
S'great'
p3426
tp3427
a(I252
I12
I0
S'useful'
p3428
tp3429
a(I259
I23
F0.875
S'music'
p3430
tp3431
a(I279
I1
F0.875
S'music'
p3432
tp3433
a(I279
I5
F0.875
S'music'
p3434
tp3435
a(I288
I1
F0.625
S'easy'
p3436
tp3437
a(I294
I18
I0
S'such'
p3438
tp3439
a(I294
I26
F0.375
S'available'
p3440
tp3441
a(I294
I44
F-0.625
S'free'
p3442
tp3443
a(I301
I10
F-0.25
S'google'
p3444
tp3445
a(I305
I2
F0.625
S'easy'
p3446
tp3447
a(I307
I16
F-0.625
S'free'
p3448
tp3449
a(I307
I66
F-0.5
S'sure'
p3450
tp3451
a(I307
I75
I0
S'useful'
p3452
tp3453
a(I308
I1
I0
S'many'
p3454
tp3455
a(I339
I5
F0.375
S'available'
p3456
tp3457
a(I342
I7
I0
S'many'
p3458
tp3459
as(S'days'
p3460
tp3461
(lp3462
(I19
I1
I0
S'few'
p3463
tp3464
a(I25
I12
F-0.625
S'lasting'
p3465
tp3466
a(I29
I4
I0
S'more'
p3467
tp3468
a(I68
I0
I0
S'few'
p3469
tp3470
a(I68
I0
F-0.5
S'sure'
p3471
tp3472
a(I110
I6
I0
S'later'
p3473
tp3474
a(I115
I25
I0
S'more'
p3475
tp3476
a(I120
I0
I0
S'few'
p3477
tp3478
a(I161
I0
I0
S'few'
p3479
tp3480
a(I164
I5
F1.0
S'good'
p3481
tp3482
a(I172
I6
F-0.625
S'other'
p3483
tp3484
a(I192
I3
F-0.5
S'certain'
p3485
tp3486
a(I201
I3
I0
S'few'
p3487
tp3488
a(I205
I18
F-0.625
S'light'
p3489
tp3490
a(I213
I6
I0
S'different'
p3491
tp3492
a(I217
I0
I0
S'few'
p3493
tp3494
a(I240
I8
F0.125
S'first'
p3495
tp3496
a(I255
I0
I0
S'few'
p3497
tp3498
a(I255
I8
I0
S'few'
p3499
tp3500
a(I269
I3
I0
S'more'
p3501
tp3502
a(I272
I32
I0
S'few'
p3503
tp3504
a(I339
I10
F0.125
S'first'
p3505
tp3506
a(I339
I10
I0
S'few'
p3507
tp3508
as.