(dp0
(S'service'
p1
tp2
(lp3
(I4
I2
F0.5
S'technical'
p4
tp5
a(I67
I5
F0.125
S'first'
p6
tp7
a(I104
I3
I0
S'great'
p8
tp9
a(I105
I1
F-0.25
S'disappointed'
p10
tp11
a(I126
I6
I0
S'great'
p12
tp13
as(S'problem'
p14
tp15
(lp16
(I2
I0
I0
S'same'
p17
tp18
a(I30
I8
F-0.75
S'unable'
p19
tp20
a(I67
I1
F0.625
S'correct'
p21
tp22
a(I121
I3
F0.625
S'major'
p23
tp24
a(I232
I0
F0.25
S'main'
p25
tp26
as(S'back'
p27
S'cover'
p28
tp29
(lp30
(I154
I2
F-0.25
S'loose'
p31
tp32
a(I163
I6
I0
S'only'
p33
tp34
a(I163
I6
F-0.875
S'negative'
p35
tp36
a(I255
I1
I0
S'own'
p37
tp38
a(I255
I1
F-0.25
S'loose'
p39
tp40
as(S'a'
p41
S'new'
p42
S'blackberry'
p43
tp44
(lp45
(I21
I0
F0.375
S'new'
p46
tp47
a(I32
I1
F0.375
S'new'
p48
tp49
a(I52
I1
F0.5
S'technical'
p50
tp51
a(I67
I0
F0.375
S'new'
p52
tp53
a(I162
I0
F0.375
S'new'
p54
tp55
a(I163
I2
F-0.625
S'free'
p56
tp57
a(I219
I0
F0.375
S'new'
p58
tp59
a(I219
I0
F0.25
S'original'
p60
tp61
a(I229
I5
F0.75
S'due'
p62
tp63
a(I258
I0
F0.375
S'new'
p64
tp65
a(I264
I0
F0.5
S'bold'
p66
tp67
as(S'purchase'
p68
tp69
(lp70
(I33
I6
F0.75
S'worth'
p71
tp72
a(I130
I6
I0
S'full'
p73
tp74
a(I164
I4
F0.75
S'worth'
p75
tp76
a(I220
I0
F-0.75
S'short'
p77
tp78
a(I220
I0
F0.125
S'first'
p79
tp80
as(S'trackball'
p81
tp82
(lp83
(I160
I0
I0
S'standard'
p84
tp85
as(S'problems'
p86
tp87
(lp88
(I67
I4
F0.375
S'similar'
p89
tp90
a(I91
I5
F-0.375
S'started'
p91
tp92
a(I183
I0
I0
S'such'
p93
tp94
a(I232
I0
F0.375
S'new'
p95
tp96
a(I254
I0
F-0.375
S'serious'
p97
tp98
a(I258
I0
I0
S'such'
p99
tp100
as(S'came'
p101
tp102
(lp103
(I153
I0
F-0.625
S'other'
p104
tp105
a(I153
I0
F-0.625
S'bad'
p106
tp107
as(S'money'
p108
tp109
(lp110
(I4
I2
I0
S'more'
p111
tp112
a(I58
I0
I0
S'coast'
p113
tp114
a(I170
I8
I0
S'more'
p115
tp116
a(I242
I8
F0.375
S'extra'
p117
tp118
a(I275
I0
F-0.5
S'less'
p119
tp120
a(I279
I1
F0.5
S'bold'
p121
tp122
as(S'brand'
p123
tp124
(lp125
(I5
I1
F0.375
S'new'
p126
tp127
a(I6
I0
F0.375
S'new'
p128
tp129
a(I13
I1
F0.375
S'new'
p130
tp131
a(I33
I0
F0.375
S'new'
p132
tp133
a(I33
I2
F0.375
S'new'
p134
tp135
a(I33
I3
F0.375
S'new'
p136
tp137
a(I37
I0
F0.375
S'new'
p138
tp139
a(I42
I2
F0.375
S'new'
p140
tp141
a(I104
I2
F0.375
S'new'
p142
tp143
a(I137
I0
F0.375
S'new'
p144
tp145
a(I138
I0
F0.375
S'new'
p146
tp147
a(I148
I1
F0.375
S'new'
p148
tp149
a(I156
I3
I0
S'cellular'
p150
tp151
a(I158
I0
F0.375
S'new'
p152
tp153
a(I161
I0
F0.375
S'new'
p154
tp155
a(I162
I3
F0.375
S'new'
p156
tp157
a(I177
I1
F0.375
S'new'
p158
tp159
a(I201
I2
F0.375
S'new'
p160
tp161
a(I232
I0
F0.375
S'new'
p162
tp163
a(I232
I0
F0.375
S'new'
p164
tp165
a(I279
I10
F0.375
S'new'
p166
tp167
a(I279
I11
F0.375
S'new'
p168
tp169
as(S'new'
p170
S'blackberry'
p171
S'bold'
p172
tp173
(lp174
(I21
I0
F0.375
g46
tp175
a(I21
I0
F0.25
S'used'
p176
tp177
a(I67
I0
F0.375
g52
tp178
a(I162
I0
F0.375
g54
tp179
a(I219
I0
F0.375
g58
tp180
a(I219
I0
F0.25
g60
tp181
a(I229
I5
F0.75
g62
tp182
a(I264
I0
F0.5
g66
tp183
as(S'cellphone'
p184
S'zone'
p185
tp186
(lp187
(I55
I3
F0.5
S'reasonable'
p188
tp189
as(S'working'
p190
tp191
(lp192
(I4
I0
I0
S'normal'
p193
tp194
as(S'everything'
p195
tp196
(lp197
(I68
I1
I0
S'more'
p198
tp199
a(I83
I9
F0.5
S'bold'
p200
tp201
a(I96
I4
F-0.625
S'other'
p202
tp203
a(I272
I0
F1.0
S'good'
p204
tp205
as(S'few'
p206
S'days'
p207
tp208
(lp209
(I8
I1
I0
S'few'
p210
tp211
a(I8
I8
I0
S'few'
p212
tp213
a(I91
I3
I0
S'few'
p214
tp215
a(I203
I1
I0
S'few'
p216
tp217
as(S'times'
p218
tp219
(lp220
(I164
I10
I0
S'few'
p221
tp222
a(I220
I0
F-0.625
S'light'
p223
tp224
a(I220
I0
I0
S'many'
p225
tp226
a(I220
I0
I0
S'many'
p227
tp228
a(I220
I0
F0.5
S'bought'
p229
tp230
as(S'back'
p231
tp232
(lp233
(I55
I3
I0
S'close'
p234
tp235
a(I163
I6
I0
g33
tp236
a(I163
I6
F-0.875
g35
tp237
a(I255
I1
I0
g37
tp238
as(S'nternational'
p239
S'version'
p240
tp241
(lp242
(I25
I0
F-0.5
S'international'
p243
tp244
a(I82
I1
F-0.5
S'international'
p245
tp246
a(I94
I0
F-0.5
S'international'
p247
tp248
a(I156
I0
F-0.5
S'international'
p249
tp250
a(I164
I2
F-0.5
S'international'
p251
tp252
a(I197
I0
F-0.5
S'international'
p253
tp254
a(I258
I3
F-0.5
S'international'
p255
tp256
a(I258
I6
F-0.5
S'international'
p257
tp258
as(S'version'
p259
tp260
(lp261
(I25
I0
F-0.5
g243
tp262
a(I33
I8
F0.125
S'popular'
p263
tp264
a(I82
I1
F-0.5
g245
tp265
a(I94
I0
F-0.5
g247
tp266
a(I121
I3
F-0.375
S'manual'
p267
tp268
a(I156
I0
F-0.5
g249
tp269
a(I164
I2
F-0.5
g251
tp270
a(I197
I0
F-0.5
g253
tp271
a(I258
I3
F-0.5
g255
tp272
a(I258
I6
F-0.5
g257
tp273
as(S'2'
p274
S'mp'
p275
S'camera'
p276
tp277
(lp278
(I18
I8
F1.0
S'good'
p279
tp280
a(I279
I8
F0.125
S'capable'
p281
tp282
as(S'el'
p283
S'tel'
p284
S'eacute'
p285
tp286
(lp287
(I102
I0
F-0.375
S'simple'
p288
tp289
as(S'quality'
p290
tp291
(lp292
(I72
I0
F-0.5
S'poor'
p293
tp294
a(I76
I0
F-0.5
S'poor'
p295
tp296
a(I81
I0
F-0.5
S'poor'
p297
tp298
a(I103
I0
F1.0
S'good'
p299
tp300
a(I240
I1
F-0.5
S'poor'
p301
tp302
as(S'recommend'
p303
tp304
(lp305
(I247
I0
F-0.375
S'serious'
p306
tp307
a(I247
I0
F0.625
S'responsible'
p308
tp309
a(I247
I0
F0.75
S'give'
p310
tp311
as(S'product'
p312
tp313
(lp314
(I9
I0
F0.375
S'new'
p315
tp316
a(I33
I1
I0
S'android'
p317
tp318
a(I45
I0
F-0.875
S'worst'
p319
tp320
a(I66
I0
F-0.875
S'inferior'
p321
tp322
a(I75
I0
I0
S'great'
p323
tp324
a(I80
I0
I0
S'very'
p325
tp326
a(I80
I0
F1.0
S'good'
p327
tp328
a(I103
I0
F1.0
S'good'
p329
tp330
a(I103
I0
F0.375
S'reliable'
p331
tp332
a(I119
I0
F-0.625
S'bad'
p333
tp334
a(I142
I0
F1.0
S'good'
p335
tp336
a(I150
I0
F1.0
S'good'
p337
tp338
a(I156
I2
F0.5
S'second'
p339
tp340
a(I164
I10
F0.125
S'usual'
p341
tp342
a(I180
I0
F0.375
S'new'
p343
tp344
a(I219
I0
F0.375
S'new'
p345
tp346
a(I234
I0
I0
S'very'
p347
tp348
a(I237
I0
F-0.75
S'unable'
p349
tp350
a(I240
I1
I0
S'more'
p351
tp352
a(I269
I0
F0.375
S'new'
p353
tp354
a(I269
I0
F0.375
S'new'
p355
tp356
a(I269
I0
I0
S'such'
p357
tp358
as(S'venezuela'
p359
tp360
(lp361
(I144
I0
F-0.75
S'sad'
p362
tp363
as(S'3rd'
p364
S'party'
p365
tp366
(lp367
(I276
I2
F1.0
S'best'
p368
tp369
as(S'se'
p370
S've'
p371
tp372
(lp373
(I279
I18
F-0.875
S'negative'
p374
tp375
as(S'return'
p376
tp377
(lp378
(I130
I5
I0
S'great'
p379
tp380
a(I277
I0
I0
S'caribbean'
p381
tp382
as(S'cover'
p383
tp384
(lp385
(I154
I2
F-0.25
g31
tp386
a(I163
I5
I0
S'plastic'
p387
tp388
a(I255
I1
F-0.25
g39
tp389
as(S'people'
p390
tp391
(lp392
(I28
I0
I0
S'useful'
p393
tp394
a(I170
I7
I0
S'angry'
p395
tp396
a(I274
I0
F0.375
S'new'
p397
tp398
as(S'work'
p399
tp400
(lp401
(I201
I0
F1.0
S'good'
p402
tp403
a(I229
I5
F-0.625
S'bad'
p404
tp405
as(S'new'
p406
S'battery'
p407
tp408
(lp409
(I9
I0
I0
S'generic'
p410
tp411
a(I33
I1
I0
S'generic'
p412
tp413
a(I54
I0
F0.25
S'bigger'
p414
tp415
a(I97
I0
F0.375
S'new'
p416
tp417
a(I157
I2
F0.375
S'new'
p418
tp419
a(I168
I3
F0.375
S'new'
p420
tp421
a(I173
I1
F0.375
S'new'
p422
tp423
a(I197
I2
F0.375
S'new'
p424
tp425
a(I197
I2
F0.5
S'possible'
p426
tp427
a(I222
I0
F0.375
S'new'
p428
tp429
a(I258
I0
F0.25
S'original'
p430
tp431
a(I269
I0
F0.125
S'last'
p432
tp433
as(S'black'
p434
tp435
(lp436
(I148
I2
F0.25
S'original'
p437
tp438
as(S'seller'
p439
tp440
(lp441
(I4
I2
I0
S'same'
p442
tp443
a(I236
I5
I0
S'site'
p444
tp445
as(S'company'
p446
tp447
(lp448
(I262
I2
F-0.625
S'bankrupt'
p449
tp450
as(S'new'
p451
S'blackberry'
p452
tp453
(lp454
(I21
I0
F0.375
g46
tp455
a(I32
I1
F0.375
g48
tp456
a(I52
I1
F0.5
g50
tp457
a(I67
I0
F0.375
g52
tp458
a(I162
I0
F0.375
g54
tp459
a(I163
I2
F-0.625
g56
tp460
a(I219
I0
F0.375
g58
tp461
a(I219
I0
F0.25
g60
tp462
a(I229
I5
F0.75
g62
tp463
a(I258
I0
F0.375
g64
tp464
a(I264
I0
F0.5
g66
tp465
as(S'works'
p466
tp467
(lp468
(I18
I7
I0
S'great'
p469
tp470
a(I34
I0
I0
S'more'
p471
tp472
a(I279
I6
I0
S'quick'
p473
tp474
as(S'slot'
p475
S'nternational'
p476
S'version'
p477
tp478
(lp479
(I25
I0
F-0.5
g243
tp480
a(I197
I0
F-0.5
g253
tp481
a(I258
I3
F-0.5
g255
tp482
a(I258
I6
F-0.5
g257
tp483
as(S'order'
p484
tp485
(lp486
(I121
I3
I0
S'mild'
p487
tp488
a(I126
I4
I0
S'earlier'
p489
tp490
a(I176
I6
I0
S'corporate'
p491
tp492
as(S'battery'
p493
tp494
(lp495
(I9
I0
I0
g410
tp496
a(I17
I0
F0.5
S'second'
p497
tp498
a(I17
I0
F1.0
S'good'
p499
tp500
a(I24
I5
F0.625
S'replaceable'
p501
tp502
a(I24
I7
F0.625
S'replaceable'
p503
tp504
a(I33
I1
I0
g412
tp505
a(I33
I5
I0
S'generic'
p506
tp507
a(I54
I0
F0.25
g414
tp508
a(I55
I0
F-0.75
S'wrong'
p509
tp510
a(I65
I1
F-0.375
S'black'
p511
tp512
a(I65
I1
I0
S'generic'
p513
tp514
a(I97
I0
F0.375
g416
tp515
a(I119
I0
F0.25
S'original'
p516
tp517
a(I157
I2
F0.375
g418
tp518
a(I165
I6
F0.25
S'original'
p519
tp520
a(I168
I3
F0.375
g420
tp521
a(I173
I1
F0.375
g422
tp522
a(I173
I2
F-0.625
S'other'
p523
tp524
a(I184
I0
F-0.75
S'wrong'
p525
tp526
a(I197
I2
F0.375
g424
tp527
a(I197
I2
F0.5
g426
tp528
a(I220
I0
F-0.75
S'damaged'
p529
tp530
a(I222
I0
F0.375
g428
tp531
a(I254
I0
I0
S'signal'
p532
tp533
a(I254
I0
F-0.5
S'poor'
p534
tp535
a(I258
I0
F0.25
g430
tp536
a(I269
I0
F0.125
g432
tp537
a(I276
I1
F-0.75
S'impossible'
p538
tp539
as(S'sent'
p540
tp541
(lp542
(I180
I0
F0.375
S'new'
p543
tp544
as(S'camera'
p545
tp546
(lp547
(I64
I0
F1.0
S'good'
p548
tp549
a(I83
I6
I0
S'more'
p550
tp551
a(I83
I6
F0.625
S'convenient'
p552
tp553
a(I83
I6
F0.125
S'digital'
p554
tp555
a(I83
I6
F0.125
S'digital'
p556
tp557
a(I149
I1
F1.0
S'good'
p558
tp559
a(I279
I8
F0.125
g281
tp560
as(S'software'
p561
tp562
(lp563
(I23
I0
I0
S'rim'
p564
tp565
a(I96
I8
F0.125
S'first'
p566
tp567
a(I96
I8
F0.75
S'due'
p568
tp569
a(I200
I1
I0
S'internet'
p570
tp571
a(I200
I1
F-0.625
S'bad'
p572
tp573
a(I203
I3
F-0.625
S'corrupt'
p574
tp575
a(I246
I0
F0.625
S'easy'
p576
tp577
a(I272
I0
F1.0
S'good'
p578
tp579
as(S'time'
p580
tp581
(lp582
(I58
I0
F0.125
S'last'
p583
tp584
a(I76
I0
F0.375
S'much'
p585
tp586
a(I105
I1
I0
S'high'
p587
tp588
a(I127
I0
I0
S'ample'
p589
tp590
a(I155
I2
F0.125
S'first'
p591
tp592
a(I165
I12
F0.125
S'last'
p593
tp594
a(I180
I0
F-0.25
S'disappointed'
p595
tp596
a(I206
I1
F0.125
S'first'
p597
tp598
a(I212
I0
F0.375
S'much'
p599
tp600
a(I251
I0
F-0.5
S'long'
p601
tp602
as(S'cell'
p603
tp604
(lp605
(I92
I2
F0.5
S'compatible'
p606
tp607
a(I162
I3
F-0.625
S'other'
p608
tp609
a(I164
I10
F-0.625
S'other'
p610
tp611
as(S'never'
p612
tp613
(lp614
(I119
I0
F0.25
S'original'
p615
tp616
as(S'blackberry'
p617
S'bold'
p618
tp619
(lp620
(I21
I0
F0.375
g46
tp621
a(I21
I0
F0.25
g176
tp622
a(I67
I0
F0.375
g52
tp623
a(I83
I5
I0
S'such'
p624
tp625
a(I160
I1
F-0.625
S'other'
p626
tp627
a(I162
I0
F0.375
g54
tp628
a(I219
I0
F0.375
g58
tp629
a(I219
I0
F0.25
g60
tp630
a(I229
I5
F0.75
g62
tp631
a(I239
I1
F0.625
S'perfect'
p632
tp633
a(I260
I0
F-0.125
S'blackberry'
p634
tp635
a(I264
I0
F0.5
g66
tp636
as(S'thing'
p637
tp638
(lp639
(I56
I1
I0
S'same'
p640
tp641
a(I92
I1
I0
S'only'
p642
tp643
a(I96
I6
F-0.125
S'trouble-shoot'
p644
tp645
a(I187
I0
I0
S'only'
p646
tp647
a(I187
I0
F1.0
S'good'
p648
tp649
a(I218
I1
I0
S'only'
p650
tp651
a(I279
I1
I0
S'only'
p652
tp653
a(I279
I1
F-0.625
S'other'
p654
tp655
a(I279
I23
F0.125
S'last'
p656
tp657
as(S'sim'
p658
S'card'
p659
tp660
(lp661
(I190
I1
F-0.625
S'other'
p662
tp663
a(I236
I2
F-0.5
S'open'
p664
tp665
a(I236
I2
F-0.625
S'other'
p666
tp667
a(I264
I0
F-0.625
S'free'
p668
tp669
as(S'charge'
p670
tp671
(lp672
(I15
I1
F-0.5
S'heavy'
p673
tp674
a(I17
I0
F0.125
S'last'
p675
tp676
a(I164
I8
F0.375
S'much'
p677
tp678
as(S'poor'
p679
S'quality'
p680
tp681
(lp682
(I72
I0
F-0.5
g293
tp683
a(I76
I0
F-0.5
g295
tp684
a(I81
I0
F-0.5
g297
tp685
a(I240
I1
F-0.5
g301
tp686
as(S'money'
p687
S'back'
p688
tp689
(lp690
(I58
I0
I0
g113
tp691
as(S'blackberry'
p692
tp693
(lp694
(I21
I0
F0.375
g46
tp695
a(I32
I1
F0.375
g48
tp696
a(I52
I1
F0.5
g50
tp697
a(I67
I0
F0.375
g52
tp698
a(I79
I7
F0.75
S'beautiful'
p699
tp700
a(I83
I3
F-0.375
S'small'
p701
tp702
a(I87
I0
F0.75
S'classic'
p703
tp704
a(I160
I0
I0
S'great'
p705
tp706
a(I160
I1
F-0.625
g626
tp707
a(I162
I0
F0.375
g54
tp708
a(I163
I2
F-0.625
g56
tp709
a(I165
I4
F0.25
S'original'
p710
tp711
a(I186
I0
F0.25
S'original'
p712
tp713
a(I208
I1
F1.0
S'best'
p714
tp715
a(I212
I20
I0
S'such'
p716
tp717
a(I219
I0
F0.375
g58
tp718
a(I219
I0
F0.25
g60
tp719
a(I229
I4
I0
S'old'
p720
tp721
a(I229
I5
F0.75
g62
tp722
a(I258
I0
F0.375
g64
tp723
a(I261
I5
F-0.5
S'afraid'
p724
tp725
a(I262
I0
I0
S'third'
p726
tp727
a(I262
I6
I0
S'rubbish'
p728
tp729
a(I264
I0
F0.5
g66
tp730
as(S'warranty'
p731
tp732
(lp733
(I67
I4
I0
S'full'
p734
tp735
as(S'tel'
p736
S'eacute'
p737
S'fono'
p738
tp739
(lp740
(I102
I0
F-0.375
g288
tp741
as(S'screen'
p742
tp743
(lp744
(I99
I4
F-0.75
S'bright'
p745
tp746
a(I146
I2
F-0.25
S'white'
p747
tp748
a(I208
I1
F-0.375
S'small'
p749
tp750
a(I269
I0
F-0.625
S'bad'
p751
tp752
as(S'black'
p753
S'berry'
p754
tp755
(lp756
(I0
I0
F-0.375
S'black'
p757
tp758
a(I58
I0
F-0.375
S'black'
p759
tp760
a(I148
I2
F0.25
g437
tp761
a(I194
I0
F-0.375
S'black'
p762
tp763
a(I257
I0
F-0.375
S'black'
p764
tp765
a(I270
I0
F-0.375
S'black'
p766
tp767
a(I270
I1
F-0.375
S'black'
p768
tp769
as(g41
S'new'
p770
S'battery'
p771
tp772
(lp773
(I9
I0
I0
g410
tp774
a(I33
I1
I0
g412
tp775
a(I54
I0
F0.25
g414
tp776
a(I97
I0
F0.375
g416
tp777
a(I157
I2
F0.375
g418
tp778
a(I168
I3
F0.375
g420
tp779
a(I173
I1
F0.375
g422
tp780
a(I197
I2
F0.375
g424
tp781
a(I197
I2
F0.5
g426
tp782
a(I222
I0
F0.375
g428
tp783
a(I258
I0
F0.25
g430
tp784
a(I269
I0
F0.125
g432
tp785
as(S'international'
p786
S'version'
p787
tp788
(lp789
(I25
I0
F-0.5
g243
tp790
a(I82
I1
F-0.5
g245
tp791
a(I94
I0
F-0.5
g247
tp792
a(I156
I0
F-0.5
g249
tp793
a(I164
I2
F-0.5
g251
tp794
a(I197
I0
F-0.5
g253
tp795
a(I258
I3
F-0.5
g255
tp796
a(I258
I6
F-0.5
g257
tp797
as(S'ball'
p798
tp799
(lp800
(I12
I0
F0.375
S'new'
p801
tp802
a(I33
I8
F1.0
S'best'
p803
tp804
as(S'charger'
p805
tp806
(lp807
(I52
I0
F-0.625
S'bad'
p808
tp809
a(I92
I1
F-0.75
S'wrong'
p810
tp811
a(I106
I0
F0.5
S'incomplete'
p812
tp813
a(I122
I0
I0
S'generic'
p814
tp815
a(I279
I14
I0
S'cable'
p816
tp817
as(g41
S'sim'
p818
S'card'
p819
tp820
(lp821
(I190
I1
F-0.625
g662
tp822
a(I236
I2
F-0.5
g664
tp823
a(I236
I2
F-0.625
g666
tp824
a(I264
I0
F-0.625
g668
tp825
as(S'data'
p826
S'plan'
p827
tp828
(lp829
(I264
I0
I0
S'many'
p830
tp831
as(S'make'
p832
tp833
(lp834
(I13
I1
I0
S'chinese'
p835
tp836
as(S'bold'
p837
tp838
(lp839
(I21
I0
F0.25
g176
tp840
a(I67
I4
F0.375
S'new'
p841
tp842
a(I83
I5
I0
g624
tp843
a(I239
I1
F0.625
g632
tp844
a(I239
I4
I0
S'high'
p845
tp846
a(I260
I0
F-0.125
g634
tp847
a(I270
I1
F0.625
S'perfect'
p848
tp849
as(S'months'
p850
tp851
(lp852
(I60
I0
F0.125
S'last'
p853
tp854
a(I91
I5
I0
S'later'
p855
tp856
a(I91
I5
F-0.625
S'other'
p857
tp858
a(I121
I0
F0.125
S'last'
p859
tp860
a(I139
I0
F-0.25
S'late'
p861
tp862
a(I193
I0
I0
S'own'
p863
tp864
a(I229
I1
F0.5
S'bold'
p865
tp866
as(S'tel'
p867
S'eacute'
p868
tp869
(lp870
(I102
I0
F-0.375
g288
tp871
as(S'days'
p872
tp873
(lp874
(I8
I1
I0
g210
tp875
a(I8
I8
I0
g212
tp876
a(I79
I7
I0
S'angry'
p877
tp878
a(I79
I7
I0
S'more'
p879
tp880
a(I91
I3
I0
g214
tp881
a(I203
I1
I0
g216
tp882
as(g274
S'mp'
p883
tp884
(lp885
(I18
I8
F1.0
g279
tp886
as(S'fast'
p887
tp888
(lp889
(I231
I1
F0.375
S'extra'
p890
tp891
as(S'mp'
p892
S'camera'
p893
tp894
(lp895
(I18
I8
F1.0
g279
tp896
a(I279
I8
F0.125
g281
tp897
as.