(dp0
(S'home'
p1
S'button'
p2
tp3
(lp4
(I26
I0
F-0.375
S'top'
p5
I0
tp6
a(I81
I0
F-0.875
S'hard'
p7
I0
tp8
a(I81
I1
F0.125
S'key'
p9
I0
tp10
a(I1
I21
F-0.375
S'top'
p11
I19
tp12
a(I26
I0
F-0.375
g5
I19
tp13
a(I81
I0
F-0.875
g7
I19
tp14
a(I100
I0
I0
S'glue'
p15
I19
tp16
a(I143
I0
F0.25
S'main'
p17
I19
tp18
as(S'thanks'
p19
tp20
(lp21
(I11
I10
I0
S'least'
p22
I12
tp23
a(I30
I0
I0
S'many'
p24
I12
tp25
a(I55
I59
F1.0
S'good'
p26
I12
tp27
a(I111
I9
F0.875
S'nice'
p28
I12
tp29
as(S'return'
p30
S'policy'
p31
tp32
(lp33
(I120
I61
F0.625
S'convenient'
p34
I0
tp35
as(S'straight'
p36
S'talk'
p37
tp38
(lp39
(I5
I13
F0.625
S'straight'
p40
I0
tp41
a(I128
I2
F0.625
S'straight'
p42
I0
tp43
a(I128
I2
F0.625
S'straight'
p44
I0
tp45
a(I128
I6
F0.625
S'straight'
p46
I0
tp47
as(S'dont'
p48
tp49
(lp50
(I27
I4
F0.5
S'careful'
p51
I16
tp52
as(S'apple'
p53
S'iphone'
p54
tp55
(lp56
(I29
I17
F0.375
S'new'
p57
I0
tp58
a(I48
I1
I0
S'technician'
p59
I0
tp60
a(I53
I8
I0
S'great'
p61
I0
tp62
a(I65
I5
F0.375
S'new'
p63
I0
tp64
a(I70
I6
I0
S'useful'
p65
I0
tp66
a(I119
I15
F-0.75
S'unable'
p67
I0
tp68
a(I119
I15
F-0.5
S'long'
p69
I0
tp70
a(I119
I15
I0
S'more'
p71
I0
tp72
a(I125
I6
F1.0
S'good'
p73
I0
tp74
a(I125
I6
F1.0
S'enjoy'
p75
I0
tp76
as(S'to'
p77
S'apple'
p78
S'store'
p79
tp80
(lp81
(I36
I0
I0
S'apple'
p82
I0
tp83
a(I108
I4
I0
S'local'
p84
I0
tp85
a(I108
I7
I0
S'technician'
p86
I0
tp87
a(I115
I9
F-0.375
S'nearest'
p88
I0
tp89
a(I151
I7
F-0.375
S'nearest'
p90
I0
tp91
a(I36
I0
I0
g82
I0
tp92
a(I108
I4
I0
g84
I0
tp93
a(I108
I7
I0
g86
I0
tp94
a(I115
I9
F-0.375
g88
I0
tp95
a(I151
I7
F-0.375
g90
I0
tp96
a(I10
I13
F0.25
S'original'
p97
I4
tp98
a(I33
I3
F0.125
S'usual'
p99
I4
tp100
a(I48
I1
I0
g59
I4
tp101
a(I58
I3
I0
S'old'
p102
I4
tp103
a(I65
I5
F0.375
g63
I4
tp104
a(I76
I4
I0
S'more'
p105
I4
tp106
a(I87
I4
F0.125
S'first'
p107
I4
tp108
a(I106
I0
F-0.25
S'disappointed'
p109
I4
tp110
a(I108
I4
I0
g84
I4
tp111
a(I108
I5
I0
S'orange'
p112
I4
tp113
a(I112
I1
F1.0
S'good'
p114
I4
tp115
a(I115
I9
F-0.375
g88
I4
tp116
a(I117
I4
I0
S'website'
p117
I4
tp118
a(I126
I8
F0.5
S'trustworthy'
p119
I4
tp120
a(I131
I16
I0
S'most'
p121
I4
tp122
a(I151
I7
F-0.375
g90
I4
tp123
as(S'iphones'
p124
tp125
(lp126
(I1
I4
F0.375
S'new'
p127
I0
tp128
a(I3
I1
F0.875
S'nice'
p129
I0
tp130
a(I3
I1
F-0.75
S'likely'
p131
I0
tp132
a(I10
I24
F0.375
S'new'
p133
I0
tp134
a(I31
I35
F0.375
S'new'
p135
I0
tp136
a(I31
I35
F1.0
S'best'
p137
I0
tp138
a(I51
I0
I0
S'history'
p139
I0
tp140
a(I120
I59
F0.375
S'new'
p141
I0
tp142
a(I135
I9
I0
S'many'
p143
I0
tp144
a(I135
I9
F-0.625
S'other'
p145
I0
tp146
a(I135
I19
I0
S'old'
p147
I0
tp148
a(I152
I27
F-0.125
S'mine'
p149
I0
tp150
as(S'seller'
p151
tp152
(lp153
(I26
I0
F1.0
S'good'
p154
I19
tp155
a(I43
I5
F0.5
S'thankful'
p156
I19
tp157
a(I75
I11
F1.0
S'good'
p158
I19
tp159
a(I87
I51
I0
S'many'
p160
I19
tp161
a(I105
I8
F1.0
S'good'
p162
I19
tp163
a(I124
I4
F-0.875
S'unhappy'
p164
I19
tp165
a(I127
I17
F0.5
S'told'
p166
I19
tp167
a(I127
I18
F0.5
S'careful'
p168
I19
tp169
a(I131
I22
I0
S'fly-by-night'
p170
I19
tp171
a(I138
I11
F1.0
S'good'
p172
I19
tp173
as(S'3'
p174
S'days'
p175
tp176
(lp177
(I26
I0
I0
S'later'
p178
I2
tp179
a(I86
I0
F0.375
S'new'
p180
I2
tp181
a(I103
I6
F-0.25
S'past'
p182
I2
tp183
a(I128
I0
F0.125
S'first'
p184
I2
tp185
a(I131
I28
F-0.25
S'past'
p186
I2
tp187
a(I140
I2
I0
S'next'
p188
I2
tp189
as(S'a'
p190
S'new'
p191
S'iphone'
p192
tp193
(lp194
(I29
I17
F0.375
g57
I0
tp195
a(I31
I26
F0.375
S'new'
p196
I0
tp197
a(I32
I31
F0.375
S'new'
p198
I0
tp199
a(I34
I16
F0.375
S'new'
p200
I0
tp201
a(I38
I6
F0.375
S'new'
p202
I0
tp203
a(I51
I2
F0.375
S'newer'
p204
I0
tp205
a(I55
I11
F0.375
S'new'
p206
I0
tp207
a(I70
I6
I0
g65
I0
tp208
a(I87
I21
F0.375
S'new'
p209
I0
tp210
a(I90
I6
F-0.625
S'other'
p211
I0
tp212
a(I91
I5
F0.375
S'new'
p213
I0
tp214
a(I97
I0
F0.375
S'new'
p215
I0
tp216
a(I112
I2
F0.25
S'refurbished'
p217
I0
tp218
a(I112
I26
F0.125
S'first'
p219
I0
tp220
a(I114
I0
F0.375
S'new'
p221
I0
tp222
a(I119
I21
F0.375
S'new'
p223
I0
tp224
a(I120
I59
F0.375
S'new'
p225
I0
tp226
a(I120
I61
F0.375
S'new'
p227
I0
tp228
a(I141
I38
F0.25
S'used'
p229
I0
tp230
a(I141
I38
F0.375
S'new'
p231
I0
tp232
a(I29
I17
F0.375
g57
I0
tp233
a(I31
I26
F0.375
g196
I0
tp234
a(I32
I31
F0.375
g198
I0
tp235
a(I34
I16
F0.375
g200
I0
tp236
a(I38
I6
F0.375
g202
I0
tp237
a(I51
I2
F0.375
g204
I0
tp238
a(I55
I11
F0.375
g206
I0
tp239
a(I70
I6
I0
g65
I0
tp240
a(I87
I21
F0.375
g209
I0
tp241
a(I90
I6
F-0.625
g211
I0
tp242
a(I91
I5
F0.375
g213
I0
tp243
a(I97
I0
F0.375
g215
I0
tp244
a(I112
I2
F0.25
g217
I0
tp245
a(I112
I26
F0.125
g219
I0
tp246
a(I114
I0
F0.375
g221
I0
tp247
a(I119
I21
F0.375
g223
I0
tp248
a(I120
I59
F0.375
g225
I0
tp249
a(I120
I61
F0.375
g227
I0
tp250
a(I141
I38
F0.25
g229
I0
tp251
a(I141
I38
F0.375
g231
I0
tp252
a(I1
I3
F0.375
S'extra'
p253
I1
tp254
a(I1
I3
F0.75
S'contrary'
p255
I1
tp256
a(I1
I3
F-0.625
S'other'
p257
I1
tp258
a(I13
I0
F1.0
S'good'
p259
I1
tp260
a(I19
I1
F-0.375
S'double'
p261
I1
tp262
a(I29
I17
F0.375
g57
I1
tp263
a(I30
I4
I0
S'slower'
p264
I1
tp265
a(I31
I11
F0.125
S'able'
p266
I1
tp267
a(I31
I22
F0.25
S'original'
p268
I1
tp269
a(I31
I26
F0.375
g196
I1
tp270
a(I32
I26
F0.5
S'personal'
p271
I1
tp272
a(I32
I31
F0.375
g198
I1
tp273
a(I34
I16
F0.375
g200
I1
tp274
a(I38
I6
F0.375
g202
I1
tp275
a(I42
I0
F0.125
S'first'
p276
I1
tp277
a(I42
I5
I-100
S'ehad'
p278
I1
tp279
a(I43
I1
F0.25
S'used'
p280
I1
tp281
a(I48
I15
F-0.875
S'bull'
p282
I1
tp283
a(I51
I2
F0.375
g204
I1
tp284
a(I53
I8
I0
g61
I1
tp285
a(I55
I11
F0.375
g206
I1
tp286
a(I55
I16
I0
S'most'
p287
I1
tp288
a(I55
I25
F0.625
S'bang'
p289
I1
tp290
a(I55
I25
F-0.25
S'higher'
p291
I1
tp292
a(I56
I10
F0.125
S'first'
p293
I1
tp294
a(I65
I3
F1.0
S'good'
p295
I1
tp296
a(I70
I6
I0
g65
I1
tp297
a(I75
I22
F0.5
S'expensive'
p298
I1
tp299
a(I78
I2
I0
S'older'
p300
I1
tp301
a(I81
I13
I0
S'only'
p302
I1
tp303
a(I85
I20
I-100
S'refurbished/reinstalled'
p304
I1
tp305
a(I87
I21
F0.375
g209
I1
tp306
a(I88
I1
F0.875
S'nice'
p307
I1
tp308
a(I90
I6
F-0.625
g211
I1
tp309
a(I91
I5
F0.375
g213
I1
tp310
a(I91
I10
I0
S'id'
p311
I1
tp312
a(I91
I16
F0.125
S'first'
p313
I1
tp314
a(I97
I0
F0.375
g215
I1
tp315
a(I98
I3
F1.0
S'good'
p316
I1
tp317
a(I112
I2
F0.25
g217
I1
tp318
a(I112
I23
I0
S'great'
p319
I1
tp320
a(I112
I26
F0.125
g219
I1
tp321
a(I114
I0
F0.375
g221
I1
tp322
a(I117
I19
F-0.375
S'small'
p323
I1
tp324
a(I117
I34
I-100
S'cali-wholesale'
p325
I1
tp326
a(I119
I15
F-0.75
g67
I1
tp327
a(I119
I15
F-0.5
g69
I1
tp328
a(I119
I15
I0
g71
I1
tp329
a(I119
I21
F0.375
g223
I1
tp330
a(I120
I59
F0.375
g225
I1
tp331
a(I120
I61
F0.375
g227
I1
tp332
a(I125
I6
F1.0
g73
I1
tp333
a(I125
I6
F1.0
g75
I1
tp334
a(I131
I4
F0.5
S'stale'
p335
I1
tp336
a(I141
I11
I0
S'least'
p337
I1
tp338
a(I141
I38
F0.25
g229
I1
tp339
a(I141
I38
F0.375
g231
I1
tp340
a(I146
I17
F1.0
S'good'
p341
I1
tp342
as(S'battery'
p343
tp344
(lp345
(I2
I5
F0.125
S'first'
p346
I15
tp347
a(I5
I4
F-0.25
S'low'
p348
I15
tp349
a(I5
I4
F-0.375
S'red'
p350
I15
tp351
a(I15
I2
F-0.25
S'low'
p352
I15
tp353
a(I29
I4
F-0.25
S'low'
p354
I15
tp355
a(I32
I2
I0
S'great'
p356
I15
tp357
a(I42
I3
I0
S'great'
p358
I15
tp359
a(I45
I0
F0.125
S'able'
p360
I15
tp361
a(I45
I0
I0
S'real'
p362
I15
tp363
a(I56
I16
F0.5
S'accurate'
p364
I15
tp365
a(I83
I2
F-0.625
S'bad'
p366
I15
tp367
a(I87
I43
F0.125
S'last'
p368
I15
tp369
a(I87
I45
F0.5
S'second'
p370
I15
tp371
a(I91
I28
F-0.25
S'low'
p372
I15
tp373
a(I96
I2
F-0.5
S'long'
p374
I15
tp375
a(I96
I2
F0.125
S'last'
p376
I15
tp377
a(I96
I3
F0.125
S'last'
p378
I15
tp379
a(I113
I22
F0.375
S'new'
p380
I15
tp381
a(I115
I13
F0.125
S'last'
p382
I15
tp383
a(I121
I2
F-0.75
S'dead'
p384
I15
tp385
a(I121
I6
F-0.25
S'ready'
p386
I15
tp387
a(I125
I5
I0
S'fast'
p388
I15
tp389
a(I125
I5
F-0.75
S'difficult'
p390
I15
tp391
a(I127
I11
F-0.375
S'daily'
p392
I15
tp393
a(I150
I2
F-0.25
S'low'
p394
I15
tp395
a(I150
I2
F0.125
S'charger'
p396
I15
tp397
a(I153
I8
F0.375
S'new'
p398
I15
tp399
as(S'slow'
p400
tp401
(lp402
(I32
I36
F-0.75
S'little'
p403
I17
tp404
as(S'hard'
p405
S'casing'
p406
tp407
(lp408
(I55
I34
F-0.875
S'hard'
p409
I0
tp410
a(I55
I43
F-0.875
S'hard'
p411
I0
tp412
a(I135
I8
F-0.875
S'hard'
p413
I0
tp414
as(S'good'
p415
S'condition'
p416
tp417
(lp418
(I11
I12
I0
S'same'
p419
I6
tp420
a(I19
I12
F1.0
S'good'
p421
I6
tp422
a(I20
I0
F1.0
S'good'
p423
I6
tp424
a(I37
I5
I0
S'great'
p425
I6
tp426
a(I57
I3
F1.0
S'good'
p427
I6
tp428
a(I60
I23
F1.0
S'good'
p429
I6
tp430
a(I61
I0
F1.0
S'good'
p431
I6
tp432
a(I61
I0
I0
S'advertized'
p433
I6
tp434
a(I75
I26
F1.0
S'good'
p435
I6
tp436
a(I75
I26
F0.625
S'fair'
p437
I6
tp438
a(I104
I6
F1.0
S'good'
p439
I6
tp440
a(I126
I0
F1.0
S'good'
p441
I6
tp442
a(I141
I32
F1.0
S'good'
p443
I6
tp444
a(I147
I2
F1.0
S'good'
p445
I6
tp446
as(S'download'
p447
S'any'
p448
S'apps'
p449
tp450
(lp451
(I56
I3
F0.125
S'able'
p452
I0
tp453
a(I146
I15
F0.125
S'able'
p454
I0
tp455
a(I146
I15
F0.125
g454
I1
tp456
a(I2
I29
F-0.125
S'slow'
p457
I0
tp458
a(I2
I29
F-0.25
S'modern'
p459
I0
tp460
a(I5
I7
F0.625
S'kind'
p461
I0
tp462
a(I5
I7
F-0.25
S'disappointing'
p463
I0
tp464
a(I5
I18
I0
S'many'
p465
I0
tp466
a(I5
I43
F0.875
S'music'
p467
I0
tp468
a(I11
I41
F1.0
S'good'
p469
I0
tp470
a(I32
I15
F0.375
S'new'
p471
I0
tp472
a(I33
I2
F0.375
S'available'
p473
I0
tp474
a(I34
I19
F0.5
S'compatible'
p475
I0
tp476
a(I35
I4
I0
S'many'
p477
I0
tp478
a(I42
I1
F-0.25
S'disappointing'
p479
I0
tp480
a(I42
I7
I0
S'great'
p481
I0
tp482
a(I49
I0
F0.75
S'due'
p483
I0
tp484
a(I55
I20
F-0.625
S'useless'
p485
I0
tp486
a(I56
I3
F0.125
g452
I0
tp487
a(I60
I24
I0
S'great'
p488
I0
tp489
a(I64
I2
F-0.5
S'certain'
p490
I0
tp491
a(I68
I3
I0
S'most'
p492
I0
tp493
a(I75
I13
F-0.125
S'slow'
p494
I0
tp495
a(I76
I4
F1.0
S'good'
p496
I0
tp497
a(I95
I3
F0.375
S'available'
p498
I0
tp499
a(I96
I2
F0.125
S'able'
p500
I0
tp501
a(I96
I5
F0.125
S'able'
p502
I0
tp503
a(I96
I7
F-0.375
S'simple'
p504
I0
tp505
a(I99
I3
I0
S'high'
p506
I0
tp507
a(I99
I3
I0
S'most'
p508
I0
tp509
a(I112
I9
I0
S'most'
p510
I0
tp511
a(I113
I17
I0
S'many'
p512
I0
tp513
a(I113
I18
F0.125
S'able'
p514
I0
tp515
a(I113
I18
F0.5
S'compatible'
p516
I0
tp517
a(I117
I44
I0
S'few'
p518
I0
tp519
a(I117
I44
F0.375
S'available'
p520
I0
tp521
a(I119
I24
F-0.75
S'unable'
p522
I0
tp523
a(I137
I7
I0
S'more'
p524
I0
tp525
a(I140
I8
I0
S'update'
p526
I0
tp527
a(I140
I8
F0.375
S'new'
p528
I0
tp529
a(I140
I8
F-0.125
S'slow'
p530
I0
tp531
a(I141
I8
I0
S'few'
p532
I0
tp533
a(I141
I8
F0.875
S'music'
p534
I0
tp535
a(I142
I1
F0.375
S'new'
p536
I0
tp537
a(I142
I4
F0.375
S'new'
p538
I0
tp539
a(I150
I2
F-0.75
S'unable'
p540
I0
tp541
as(S'first'
p542
S'time'
p543
tp544
(lp545
(I26
I10
F0.125
S'first'
p546
I10
tp547
a(I42
I5
F0.875
S'happy'
p548
I10
tp549
a(I60
I29
F0.125
S'first'
p550
I10
tp551
a(I60
I29
F0.125
S'last'
p552
I10
tp553
a(I72
I7
F0.125
S'first'
p554
I10
tp555
a(I73
I10
F0.125
S'first'
p556
I10
tp557
a(I76
I4
F0.125
S'first'
p558
I10
tp559
a(I94
I8
F0.125
S'first'
p560
I10
tp561
a(I116
I11
F0.125
S'first'
p562
I10
tp563
a(I120
I8
F0.125
S'first'
p564
I10
tp565
a(I120
I52
F0.125
S'first'
p566
I10
tp567
as(S'serial'
p568
S'number'
p569
tp570
(lp571
(I24
I12
I0
S'serial'
p572
I0
tp573
a(I70
I9
I0
S'serial'
p574
I0
tp575
a(I70
I15
I0
S'serial'
p576
I0
tp577
a(I87
I26
I0
S'serial'
p578
I0
tp579
as(S'waste'
p580
S'of'
p581
S'money'
p582
tp583
(lp584
(I31
I30
I0
S'total'
p585
I4
tp586
a(I126
I6
I0
S'total'
p587
I4
tp588
a(I135
I17
F0.375
S'complete'
p589
I4
tp590
as(S'refund'
p591
tp592
(lp593
(I1
I16
I0
S'full'
p594
I8
tp595
a(I15
I5
I0
S'full'
p596
I8
tp597
a(I83
I0
F0.875
S'nice'
p598
I8
tp599
a(I83
I0
I0
S'quick'
p600
I8
tp601
a(I108
I11
I0
S'full'
p602
I8
tp603
a(I117
I24
I0
S'full'
p604
I8
tp605
a(I147
I6
I0
S'full'
p606
I8
tp607
as(S'happy'
p608
S'with'
p609
S'product'
p610
tp611
(lp612
(I58
I0
I0
S'old'
p613
I1
tp614
a(I65
I5
F0.875
S'happy'
p615
I1
tp616
a(I65
I7
F0.875
S'happy'
p617
I1
tp618
a(I124
I4
F0.875
S'happy'
p619
I1
tp620
a(I148
I0
F0.875
S'happy'
p621
I1
tp622
as(g190
S'sim'
p623
S'card'
p624
tp625
(lp626
(I10
I1
F0.125
S'charger'
p627
I0
tp628
a(I10
I1
F-0.75
S'unable'
p629
I0
tp630
a(I17
I0
F-0.5
S'international'
p631
I0
tp632
a(I24
I8
F-0.25
S'ready'
p633
I0
tp634
a(I39
I10
F-0.25
S'ready'
p635
I0
tp636
a(I61
I3
I0
S'local'
p637
I0
tp638
a(I97
I5
F0.625
S'easy'
p639
I0
tp640
a(I10
I1
F0.125
g627
I0
tp641
a(I10
I1
F-0.75
g629
I0
tp642
a(I17
I0
F-0.5
g631
I0
tp643
a(I24
I8
F-0.25
g633
I0
tp644
a(I39
I10
F-0.25
g635
I0
tp645
a(I61
I3
I0
g637
I0
tp646
a(I97
I5
F0.625
g639
I0
tp647
as(S'customer'
p648
S'service'
p649
tp650
(lp651
(I105
I7
F0.5
S'strong'
p652
I3
tp653
a(I105
I7
F0.25
S'helpful'
p654
I3
tp655
a(I8
I40
I0
S'great'
p656
I16
tp657
a(I11
I19
I0
S'great'
p658
I16
tp659
a(I28
I2
I0
S'same'
p660
I16
tp661
a(I40
I0
F1.0
S'good'
p662
I16
tp663
a(I73
I3
I0
S'current'
p664
I16
tp665
a(I98
I3
F-0.625
S'bad'
p666
I16
tp667
a(I105
I7
F0.25
g654
I16
tp668
a(I108
I9
F0.125
S'further'
p669
I16
tp670
a(I116
I9
F1.0
S'good'
p671
I16
tp672
a(I120
I49
F1.0
S'good'
p673
I16
tp674
as(S'amazon'
p675
tp676
(lp677
(I1
I3
F0.75
S'worth'
p678
I13
tp679
a(I9
I16
I0
S'more'
p680
I13
tp681
a(I10
I22
F0.625
S'responsible'
p682
I13
tp683
a(I87
I18
F-0.625
S'other'
p684
I13
tp685
a(I87
I19
I0
S'great'
p686
I13
tp687
a(I87
I53
F0.5
S'told'
p688
I13
tp689
a(I102
I1
F0.75
S'due'
p690
I13
tp691
a(I120
I37
F0.375
S'new'
p692
I13
tp693
a(I140
I6
F-0.625
S'glad'
p694
I13
tp695
as(S'worst'
p696
S'experience'
p697
tp698
(lp699
(I149
I0
F-0.875
S'worst'
p700
I0
tp701
as.