(dp0
(S'keyboard'
p1
tp2
(lp3
(I1
I5
F-0.625
S'light'
p4
I2
tp5
a(I1
I5
F0.875
S'nice'
p6
I2
tp7
a(I1
I5
F0.625
S'easy'
p8
I2
tp9
a(I1
I16
I0
S'full'
p10
I2
tp11
a(I1
I21
F0.875
S'nice'
p12
I2
tp13
a(I3
I0
F-0.875
S'negative'
p14
I2
tp15
a(I3
I0
F-0.375
S'small'
p16
I2
tp17
a(I4
I8
F0.625
S'perfect'
p18
I2
tp19
a(I4
I41
F-0.875
S'nastiest'
p20
I2
tp21
a(I4
I41
F-0.75
S'little'
p22
I2
tp23
as(S'internet'
p24
tp25
(lp26
(I1
I29
F0.25
S'main'
p27
I6
tp28
a(I1
I31
I0
S'alternate'
p29
I6
tp30
as(S'battery'
p31
tp32
(lp33
(I4
I21
F-0.625
S'bad'
p34
I15
tp35
a(I4
I111
I0
S'own'
p36
I15
tp37
as(S'touch'
p38
S'screen'
p39
tp40
(lp41
(I0
I17
F0.5
S'touch'
p42
I2
tp43
a(I1
I21
I0
S'cool'
p44
I2
tp45
a(I1
I27
F0.375
S'interesting'
p46
I2
tp47
a(I1
I27
F0.5
S'touch'
p48
I2
tp49
a(I1
I35
F0.5
S'touch'
p50
I2
tp51
a(I1
I49
F0.375
S'new'
p52
I2
tp53
a(I4
I17
F0.5
S'touch'
p54
I2
tp55
a(I4
I30
F0.5
S'touch'
p56
I2
tp57
a(I4
I30
F0.25
S'responsive'
p58
I2
tp59
a(I4
I106
F-0.125
S'slow'
p60
I2
tp61
a(I4
I106
F-0.875
S'hard'
p62
I2
tp63
a(I4
I111
F-0.5
S'less'
p64
I2
tp65
a(I4
I111
F0.25
S'responsive'
p66
I2
tp67
a(I6
I17
F-0.875
S'hard'
p68
I2
tp69
a(I6
I17
F0.5
S'touch'
p70
I2
tp71
a(I10
I0
F-0.125
S'slow'
p72
I2
tp73
as(S'text'
p74
tp75
(lp76
(I1
I18
F0.625
S'acceptable'
p77
I18
tp78
a(I4
I6
F-0.25
S'google'
p79
I18
tp80
as.