(dp0
(S'battery'
p1
S'life'
p2
tp3
(lp4
(I0
I173
F-0.75
S'short'
p5
I1
tp6
a(I0
I236
F0.875
S'important'
p7
I1
tp8
a(I0
I236
F-0.5
S'long'
p9
I1
tp10
a(I1
I71
F-0.5
S'poor'
p11
I1
tp12
a(I1
I71
F-0.5
S'less'
p13
I1
tp14
a(I2
I54
F-0.75
S'unrealistic'
p15
I1
tp16
a(I2
I57
F0.375
S'new'
p17
I1
tp18
a(I4
I70
F-0.625
S'average'
p19
I1
tp20
a(I4
I193
F0.375
S'much'
p21
I1
tp22
a(I4
I193
F-0.875
S'awful'
p23
I1
tp24
a(I0
I236
F-0.5
g9
I19
tp25
a(I1
I23
F0.375
S'interesting'
p26
I19
tp27
a(I1
I23
I0
S'many'
p28
I19
tp29
a(I1
I71
F-0.5
g13
I19
tp30
a(I2
I54
F-0.75
g15
I19
tp31
a(I4
I70
F-0.625
g19
I19
tp32
a(I4
I193
F-0.875
g23
I19
tp33
a(I5
I36
F-0.375
S'daily'
p34
I19
tp35
a(I5
I205
F1.0
S'better'
p36
I19
tp37
a(I0
I53
I0
S'rear'
p38
I15
tp39
a(I0
I117
F-0.75
S'short'
p40
I15
tp41
a(I0
I117
F-0.25
S'low'
p42
I15
tp43
a(I0
I173
F-0.75
g5
I15
tp44
a(I0
I174
F0.375
S'extra'
p45
I15
tp46
a(I0
I205
F0.375
S'new'
p47
I15
tp48
a(I0
I236
F0.875
g7
I15
tp49
a(I1
I71
F-0.5
g11
I15
tp50
a(I2
I57
F0.375
g17
I15
tp51
a(I4
I193
F0.375
g21
I15
tp52
as(S'keyboard'
p53
tp54
(lp55
(I0
I78
I0
S'great'
p56
I2
tp57
a(I1
I1
I0
S'physical'
p58
I2
tp59
a(I1
I7
F1.0
S'good'
p60
I2
tp61
a(I1
I7
F1.0
S'best'
p62
I2
tp63
a(I2
I1
I0
S'great'
p64
I2
tp65
a(I2
I16
F0.375
S'similar'
p66
I2
tp67
a(I2
I16
F0.5
S'bold'
p68
I2
tp69
a(I4
I15
I0
S'identical'
p70
I2
tp71
a(I4
I15
I0
S'narrower'
p72
I2
tp73
a(I4
I132
F-0.125
S'slow'
p74
I2
tp75
a(I4
I145
F-0.375
S'smaller'
p76
I2
tp77
a(I5
I8
F-0.375
S'simple'
p78
I2
tp79
a(I5
I113
F-0.375
S'smaller'
p80
I2
tp81
a(I7
I47
I0
S'great'
p82
I2
tp83
as(S'email'
p84
tp85
(lp86
(I1
I21
F0.5
S'true'
p87
I5
tp88
a(I1
I22
I0
S'basic'
p89
I5
tp90
a(I1
I22
I0
S'adequate'
p91
I5
tp92
a(I1
I22
I0
S'basic'
p93
I5
tp94
a(I1
I31
I0
S'basic'
p95
I5
tp96
a(I2
I12
I0
S'corporate'
p97
I5
tp98
as(S'keys'
p99
tp100
(lp101
(I0
I53
F0.625
S'perfect'
p102
I9
tp103
a(I5
I43
F0.5
S'flat'
p104
I9
tp105
a(I5
I44
F-0.75
S'difficult'
p106
I9
tp107
a(I5
I71
F-0.375
S'small'
p108
I9
tp109
a(I5
I71
F-0.375
S'smooth'
p110
I9
tp111
a(I5
I147
F0.625
S'easy'
p112
I9
tp113
a(I7
I42
F-0.75
S'comfortable'
p114
I9
tp115
as(S'text'
p116
tp117
(lp118
(I1
I8
F0.625
S'easy'
p119
I18
tp120
as(S'tech'
p121
S'support'
p122
tp123
(lp124
(I0
I29
F0.5
S'technical'
p125
I1
tp126
as(S'trackball'
p127
tp128
(lp129
(I0
I194
F0.625
S'easier'
p130
I0
tp131
a(I4
I186
F-0.75
S'little'
p132
I0
tp133
a(I5
I184
F-0.125
S'mine'
p134
I0
tp135
a(I6
I5
F0.125
S'first'
p136
I0
tp137
a(I7
I12
F-0.5
S'long'
p138
I0
tp139
a(I7
I16
F0.375
S'significant'
p140
I0
tp141
as(S'call'
p142
S'quality'
p143
tp144
(lp145
(I0
I128
F0.5
S'clear'
p146
I0
tp147
as(S'service'
p148
tp149
(lp150
(I4
I62
F0.125
S'equal'
p151
I16
tp152
a(I5
I38
F1.0
S'best'
p153
I16
tp154
a(I5
I38
F0.375
S'available'
p155
I16
tp156
as(S'camera'
p157
tp158
(lp159
(I0
I226
I0
S'great'
p160
I1
tp161
a(I5
I158
F0.375
S'extra'
p162
I1
tp163
as(S'operating'
p164
S'system'
p165
tp166
(lp167
(I0
I100
I0
S'high'
p168
I2
tp169
as(S'iphone'
p170
tp171
(lp172
(I4
I54
F-0.375
S'near'
p173
I1
tp174
a(I5
I100
F0.375
S'much'
p175
I1
tp176
as(S'reception'
p177
tp178
(lp179
(I0
I36
F-0.5
S'poor'
p180
I0
tp181
a(I0
I136
F-0.625
S'sporadic'
p182
I0
tp183
a(I0
I151
F-0.5
S'poor'
p184
I0
tp185
a(I1
I106
F1.0
S'good'
p186
I0
tp187
a(I5
I75
F0.5
S'clear'
p188
I0
tp189
a(I5
I150
F0.5
S'clear'
p190
I0
tp191
as(S'internet'
p192
tp193
(lp194
(I0
I24
F-0.125
S'slow'
p195
I6
tp196
a(I1
I69
I0
S'e-mail'
p197
I6
tp198
a(I4
I39
F0.375
S'much'
p199
I6
tp200
a(I4
I39
F1.0
S'better'
p201
I6
tp202
as(S'voice'
p203
S'quality'
p204
tp205
(lp206
(I1
I37
F-0.875
S'negative'
p207
I0
tp208
a(I1
I46
F0.625
S'easy'
p209
I0
tp210
a(I3
I22
F1.0
S'good'
p211
I0
tp212
a(I7
I53
F-0.25
S'lowest'
p213
I0
tp214
a(I0
I189
F-0.875
S'hard'
p215
I4
tp216
a(I1
I37
F-0.875
g207
I4
tp217
a(I1
I46
F0.625
g209
I4
tp218
a(I7
I15
F0.375
S'unintelligible'
p219
I4
tp220
a(I7
I29
I0
S'female'
p221
I4
tp222
a(I7
I29
I0
S'male'
p223
I4
tp224
as(S'2'
p225
S'years'
p226
tp227
(lp228
(I0
I0
F-0.25
S'past'
p229
I3
tp230
a(I7
I33
F-0.25
S'past'
p231
I3
tp232
as(S'third'
p233
S'party'
p234
tp235
(lp236
(I1
I53
I0
S'third'
p237
I0
tp238
a(I1
I55
I0
S'many'
p239
I0
tp240
a(I1
I55
I0
S'third'
p241
I0
tp242
as(S'curve'
p243
tp244
(lp245
(I0
I12
F0.25
S'larger'
p246
I8
tp247
a(I0
I12
F-0.375
S'smaller'
p248
I8
tp249
a(I3
I8
F0.5
S'functional'
p250
I8
tp251
a(I3
I39
F0.375
S'steep'
p252
I8
tp253
a(I4
I14
F-0.25
S'cheaper'
p254
I8
tp255
a(I4
I14
F0.375
S'new'
p256
I8
tp257
a(I4
I120
I0
S'older'
p258
I8
tp259
a(I4
I147
I0
S'slower'
p260
I8
tp261
a(I4
I186
F0.375
S'new'
p262
I8
tp263
a(I4
I187
I0
S'old'
p264
I8
tp265
a(I5
I101
F-0.375
S'smaller'
p266
I8
tp267
a(I5
I105
F0.25
S'larger'
p268
I8
tp269
a(I7
I30
F-0.25
S'past'
p270
I8
tp271
as(S'battery'
p272
S'door'
p273
tp274
(lp275
(I0
I53
I0
g38
I0
tp276
a(I0
I204
F-0.25
S'loose'
p277
I0
tp278
a(I0
I204
F0.125
S'first'
p279
I0
tp280
a(I0
I205
F0.375
g47
I0
tp281
as(S'track'
p282
S'ball'
p283
tp284
(lp285
(I1
I92
F0.5
S'second'
p286
I0
tp287
a(I1
I92
F-0.25
S'loose'
p288
I0
tp289
a(I1
I127
I0
S'wish'
p290
I0
tp291
a(I3
I21
F0.125
S'supportive'
p292
I0
tp293
a(I4
I120
I0
S'quick'
p294
I0
tp295
a(I5
I20
F0.5
S'second'
p296
I0
tp297
a(I5
I73
F0.625
S'easy'
p298
I0
tp299
a(I1
I127
I0
g290
I7
tp300
a(I1
I92
F0.5
g286
I4
tp301
a(I1
I92
F-0.25
g288
I4
tp302
a(I3
I21
F0.125
g292
I4
tp303
a(I4
I120
I0
g294
I4
tp304
a(I5
I20
F0.5
g296
I4
tp305
a(I5
I73
F0.625
g298
I4
tp306
as(S'browser'
p307
tp308
(lp309
(I3
I38
I0
S'same'
p310
I0
tp311
a(I5
I130
F-0.125
S'slow'
p312
I0
tp313
a(I5
I162
F-0.5
S'sure'
p314
I0
tp315
as(S'network'
p316
tp317
(lp318
(I0
I138
F-0.125
S'slow'
p319
I0
tp320
a(I4
I151
F1.0
S'best'
p321
I0
tp322
a(I5
I137
F1.0
S'best'
p323
I0
tp324
a(I5
I139
F1.0
S'good'
p325
I0
tp326
as(S'calls'
p327
tp328
(lp329
(I0
I22
I0
S'few'
p330
I0
tp331
a(I0
I22
F-0.25
S'dropped'
p332
I0
tp333
a(I0
I168
F-0.25
S'dropped'
p334
I0
tp335
a(I5
I151
F-0.25
S'dropped'
p336
I0
tp337
as(S'optical'
p338
S'trackpad'
p339
tp340
(lp341
(I4
I14
F-0.5
S'wished'
p342
I0
tp343
a(I4
I14
I0
S'optical'
p344
I0
tp345
a(I4
I86
I0
S'optical'
p346
I0
tp347
a(I4
I121
F0.375
S'new'
p348
I0
tp349
a(I4
I121
I0
S'optical'
p350
I0
tp351
as(S'sound'
p352
S'quality'
p353
tp354
(lp355
(I4
I132
F-0.75
S'unresponsive'
p356
I0
tp357
a(I4
I132
F-0.5
S'poor'
p358
I0
tp359
a(I5
I38
F1.0
S'good'
p360
I0
tp361
a(I5
I77
F0.5
S'told'
p362
I0
tp363
a(I5
I77
F0.5
S'clear'
p364
I0
tp365
a(I5
I115
F1.0
S'better'
p366
I0
tp367
a(I5
I158
F1.0
S'good'
p368
I0
tp369
a(I1
I45
I0
S'more'
p370
I7
tp371
a(I4
I132
F-0.75
g356
I7
tp372
a(I5
I77
F0.5
g362
I7
tp373
a(I5
I115
F1.0
g366
I7
tp374
as(S'blackberry'
p375
S'tour'
p376
tp377
(lp378
(I0
I191
I0
S'third'
p379
I0
tp380
a(I5
I152
F-0.125
S'slow'
p381
I0
tp382
a(I5
I204
F-0.125
S'overall'
p383
I0
tp384
a(I0
I91
F0.5
S'compatible'
p385
I2
tp386
a(I0
I128
I0
S'faster'
p387
I2
tp388
a(I0
I142
I0
S'next'
p389
I2
tp390
a(I0
I201
F0.375
S'new'
p391
I2
tp392
a(I0
I201
F0.125
S'last'
p393
I2
tp394
a(I2
I41
F0.25
S'responsive'
p395
I2
tp396
a(I4
I19
F0.375
S'new'
p397
I2
tp398
a(I4
I90
I0
S'next'
p399
I2
tp400
a(I4
I93
F0.375
S'available'
p401
I2
tp402
a(I4
I162
F0.125
S'capable'
p403
I2
tp404
a(I4
I162
F0.375
S'appreciate'
p405
I2
tp406
a(I5
I104
F0.75
S'beautiful'
p407
I2
tp408
a(I5
I104
F0.5
S'functional'
p409
I2
tp410
a(I5
I152
F-0.125
g381
I2
tp411
a(I5
I183
I0
S'different'
p412
I2
tp413
a(I6
I31
F-0.5
S'sure'
p414
I2
tp415
a(I7
I15
F-0.5
S'relative'
p416
I2
tp417
a(I7
I35
I0
S'least'
p418
I2
tp419
a(I0
I18
F0.125
S'able'
p420
I1
tp421
a(I0
I75
I0
S'curious'
p422
I1
tp423
a(I0
I84
F0.375
S'new'
p424
I1
tp425
a(I0
I124
I0
S'great'
p426
I1
tp427
a(I0
I150
I0
S'great'
p428
I1
tp429
a(I0
I180
F0.125
S'first'
p430
I1
tp431
a(I0
I191
I0
g379
I1
tp432
a(I1
I21
F1.0
S'good'
p433
I1
tp434
a(I1
I29
F0.25
S'original'
p435
I1
tp436
a(I3
I10
F0.375
S'new'
p437
I1
tp438
a(I3
I38
F0.625
S'superior'
p439
I1
tp440
a(I3
I40
F0.25
S'helpful'
p441
I1
tp442
a(I4
I78
I0
S'many'
p443
I1
tp444
a(I4
I78
F-0.625
S'free'
p445
I1
tp446
a(I4
I91
F0.5
S'loyal'
p447
I1
tp448
a(I4
I98
I0
S'same'
p449
I1
tp450
a(I4
I126
F0.625
S'interested'
p451
I1
tp452
a(I4
I176
F-0.5
S'sure'
p453
I1
tp454
a(I4
I176
F-0.625
S'other'
p455
I1
tp456
a(I5
I43
F-0.75
S'comfortable'
p457
I1
tp458
a(I5
I43
I0
S'slower'
p459
I1
tp460
a(I5
I43
F0.125
S'last'
p461
I1
tp462
a(I5
I142
F0.125
S'first'
p463
I1
tp464
a(I5
I204
F-0.125
g383
I1
tp465
a(I5
I206
F0.125
S'first'
p466
I1
tp467
a(I6
I36
F0.25
S'favorite'
p468
I1
tp469
as(S'usb'
p470
S'port'
p471
tp472
(lp473
(I0
I230
F0.375
S'new'
p474
I0
tp475
a(I4
I57
I0
S'different'
p476
I0
tp477
as(S'verizon'
p478
S'wireless'
p479
tp480
(lp481
(I5
I169
I0
S'corporate'
p482
I0
tp483
a(I0
I132
I0
S'fast'
p484
I0
tp485
a(I0
I155
I0
S'close'
p486
I0
tp487
a(I4
I122
F0.375
S'reliable'
p488
I0
tp489
a(I4
I125
F0.375
S'much'
p490
I0
tp491
a(I7
I3
I0
S'tutorial'
p492
I0
tp493
a(I7
I11
F0.125
S'first'
p494
I0
tp495
as(S'bold'
p496
tp497
(lp498
(I4
I12
F0.375
S'available'
p499
I1
tp500
a(I4
I14
F0.375
S'new'
p501
I1
tp502
a(I4
I17
F0.25
S'original'
p503
I1
tp504
a(I4
I21
F0.25
S'original'
p505
I1
tp506
a(I4
I41
F0.75
S'wonder'
p507
I1
tp508
a(I4
I45
F0.25
S'original'
p509
I1
tp510
a(I4
I45
F1.0
S'better'
p511
I1
tp512
a(I4
I52
F0.25
S'larger'
p513
I1
tp514
a(I4
I53
F0.25
S'original'
p515
I1
tp516
a(I4
I120
F-0.125
S'former'
p517
I1
tp518
a(I5
I98
F0.75
S'beautiful'
p519
I1
tp520
a(I5
I112
F-0.75
S'brighter'
p521
I1
tp522
as(S'apps'
p523
tp524
(lp525
(I0
I89
I0
S'many'
p526
I0
tp527
a(I0
I89
I0
S'great'
p528
I0
tp529
a(I0
I89
F-0.625
S'free'
p530
I0
tp531
a(I0
I89
F-0.5
S'less'
p532
I0
tp533
a(I0
I90
I0
S'same'
p534
I0
tp535
a(I2
I7
I0
S'such'
p536
I0
tp537
a(I4
I163
I0
S'few'
p538
I0
tp539
a(I5
I8
F0.25
S'helpful'
p540
I0
tp541
a(I5
I8
I0
S'such'
p542
I0
tp543
as(S'palm'
p544
tp545
(lp546
(I1
I7
I0
S'keyboard'
p547
I1
tp548
a(I1
I13
F0.5
S'comparable'
p549
I1
tp550
as(S'touch'
p551
S'screen'
p552
tp553
(lp554
(I4
I6
F0.5
S'touch'
p555
I2
tp556
a(I5
I30
F0.5
S'touch'
p557
I2
tp558
as(S'treo'
p559
tp560
(lp561
(I0
I41
I0
S'same'
p562
I0
tp563
a(I0
I107
F0.875
S'happy'
p564
I0
tp565
as.