(dp0
(S'key'
p1
S'pad'
p2
tp3
(lp4
(I8
I13
F0.125
S'key'
p5
I0
tp6
a(I15
I51
F0.125
S'key'
p7
I0
tp8
a(I15
I51
F0.25
S'larger'
p9
I0
tp10
a(I16
I55
F0.125
S'key'
p11
I0
tp12
as(S'battery'
p13
S'life'
p14
tp15
(lp16
(I5
I22
F-0.625
S'other'
p17
I1
tp18
a(I14
I4
F1.0
S'good'
p19
I1
tp20
a(I14
I21
F-0.75
S'short'
p21
I1
tp22
a(I14
I21
F0.25
S'used'
p23
I1
tp24
a(I0
I5
F-0.25
S'low'
p25
I15
tp26
a(I2
I10
I0
S'full'
p27
I15
tp28
a(I2
I10
F-0.25
S'low'
p29
I15
tp30
a(I5
I18
F0.375
S'extended'
p31
I15
tp32
a(I5
I22
F-0.625
g17
I15
tp33
a(I6
I24
F-0.25
S'low'
p34
I15
tp35
a(I6
I24
I0
S'signal'
p36
I15
tp37
a(I7
I2
F0.125
S'last'
p38
I15
tp39
a(I14
I21
F-0.75
g21
I15
tp40
a(I14
I22
F-0.25
S'low'
p41
I15
tp42
a(I14
I23
F-0.75
S'dead'
p43
I15
tp44
as(S'motorola'
p45
tp46
(lp47
(I8
I12
F1.0
S'better'
p48
I0
tp49
a(I14
I12
F-0.375
S'simple'
p50
I0
tp51
a(I16
I16
F1.0
S'good'
p52
I0
tp53
as(S'text'
p54
tp55
(lp56
(I1
I8
I0
S'faster'
p57
I18
tp58
a(I1
I8
F-0.375
S'small'
p59
I18
tp60
a(I1
I8
F-0.875
S'hard'
p61
I18
tp62
a(I1
I33
F-0.5
S'open'
p63
I18
tp64
a(I5
I45
F1.0
S'better'
p65
I18
tp66
as(S'service'
p67
tp68
(lp69
(I0
I16
I0
S'questionable'
p70
I16
tp71
a(I4
I9
I0
S'internet'
p72
I16
tp73
a(I6
I1
F1.0
S'good'
p74
I16
tp75
a(I11
I7
I0
S'text'
p76
I16
tp77
as(S'samsung'
p78
tp79
(lp80
(I1
I15
F-0.75
S'little'
p81
I7
tp82
a(I14
I16
I0
S'next'
p83
I7
tp84
a(I14
I17
I0
S'next'
p85
I7
tp86
a(I14
I49
I0
S'cable'
p87
I7
tp88
a(I15
I82
F0.25
S'used'
p89
I7
tp90
as(S'minutes'
p91
S'for'
p92
S'life'
p93
tp94
(lp95
(I3
I14
F-0.375
S'double'
p96
I0
tp97
a(I8
I2
F-0.375
S'double'
p98
I0
tp99
a(I8
I2
F-0.375
S'top'
p100
I0
tp101
a(I14
I2
F-0.375
S'double'
p102
I0
tp103
a(I15
I3
F-0.375
S'double'
p104
I0
tp105
a(I15
I3
I0
S'more'
p106
I0
tp107
a(I15
I3
F-0.375
S'double'
p108
I0
tp109
a(I15
I3
F-0.625
S'free'
p110
I0
tp111
a(I15
I83
F-0.375
S'double'
p112
I0
tp113
a(I8
I2
F-0.375
g100
I19
tp114
a(I14
I4
F1.0
g19
I19
tp115
a(I14
I21
F0.25
g23
I19
tp116
a(I15
I3
I0
g106
I19
tp117
a(I15
I3
F-0.375
g108
I19
tp118
a(I15
I3
F-0.625
g110
I19
tp119
as(S'camera'
p120
tp121
(lp122
(I5
I25
F0.875
S'nice'
p123
I1
tp124
a(I8
I21
F0.5
S'clear'
p125
I1
tp126
a(I15
I55
I0
S'great'
p127
I1
tp128
as(S'browser'
p129
S'button'
p130
tp131
(lp132
(I14
I62
F0.625
S'easy'
p133
I0
tp134
a(I14
I62
I0
S'charged'
p135
I0
tp136
a(I9
I8
F-0.125
S'rip-off'
p137
I19
tp138
a(I14
I58
F0.75
S'due'
p139
I19
tp140
a(I14
I62
F0.625
g133
I19
tp141
a(I14
I62
I0
g135
I19
tp142
a(I17
I28
F-0.625
S'green'
p143
I19
tp144
as(S'bluetooth'
p145
tp146
(lp147
(I2
I4
I-100
S'x-fer'
p148
I3
tp149
a(I2
I4
I0
S'cable'
p150
I3
tp151
a(I10
I2
F-0.625
S'other'
p152
I3
tp153
as(S'reception'
p154
tp155
(lp156
(I9
I13
F-0.5
S'poor'
p157
I0
tp158
a(I11
I8
I0
S'great'
p159
I0
tp160
a(I16
I18
F-0.75
S'worse'
p161
I0
tp162
a(I16
I18
F0.125
S'first'
p163
I0
tp164
as(S'signal'
p165
tp166
(lp167
(I14
I64
F-0.625
S'other'
p168
I1
tp169
a(I14
I64
F-0.5
S'weak'
p170
I1
tp171
as(S'double'
p172
S'minutes'
p173
tp174
(lp175
(I3
I14
F-0.375
g96
I0
tp176
a(I7
I3
F-0.375
S'double'
p177
I0
tp178
a(I8
I2
F-0.375
g98
I0
tp179
a(I14
I2
F-0.375
g102
I0
tp180
a(I15
I3
F-0.375
g104
I0
tp181
a(I15
I83
F-0.375
g112
I0
tp182
a(I16
I59
F0.75
S'worth'
p183
I0
tp184
as(S'tracfone'
p185
tp186
(lp187
(I0
I0
I0
S'many'
p188
I0
tp189
a(I1
I11
F1.0
S'good'
p190
I0
tp191
a(I3
I53
F0.25
S'used'
p192
I0
tp193
a(I8
I17
F1.0
S'best'
p194
I0
tp195
a(I9
I35
I0
S'faithful'
p196
I0
tp197
a(I13
I3
F-0.25
S'cheapest'
p198
I0
tp199
a(I14
I48
I0
S'later'
p200
I0
tp201
a(I14
I71
F1.0
S'best'
p202
I0
tp203
a(I15
I17
I0
S'exclusive'
p204
I0
tp205
a(I15
I48
F0.625
S'easy'
p206
I0
tp207
a(I15
I78
I0
S'only'
p208
I0
tp209
a(I15
I78
F0.125
S'able'
p210
I0
tp211
a(I16
I31
F0.75
S'due'
p212
I0
tp213
a(I18
I31
F-0.75
S'unable'
p214
I0
tp215
as(S'soft'
p216
S'keys'
p217
tp218
(lp219
(I15
I36
I0
S'soft'
p220
I0
tp221
a(I15
I38
I0
S'soft'
p222
I0
tp223
a(I15
I43
I0
S'soft'
p224
I0
tp225
a(I15
I51
I0
S'soft'
p226
I0
tp227
as(S'browser'
p228
S'key'
p229
tp230
(lp231
(I17
I23
F0.625
S'easy'
p232
I0
tp233
a(I14
I9
F0.125
S'able'
p234
I0
tp235
a(I15
I31
I0
S'limited'
p236
I0
tp237
a(I17
I20
F-0.75
S'unable'
p238
I0
tp239
as(S't301g'
p240
tp241
(lp242
(I3
I5
F0.125
S'pair'
p243
I0
tp244
a(I5
I19
I0
S'older'
p245
I0
tp246
a(I16
I15
F-0.25
S'disappointed'
p247
I0
tp248
as(S'calls'
p249
tp250
(lp251
(I5
I13
F0.875
S'important'
p252
I0
tp253
a(I6
I16
F0.75
S'receive'
p254
I0
tp255
a(I10
I7
I0
S'few'
p256
I0
tp257
a(I10
I7
F0.5
S'clear'
p258
I0
tp259
a(I15
I14
I0
S'more'
p260
I0
tp261
as(S'sim'
p262
S'card'
p263
tp264
(lp265
(I2
I6
F0.375
S'new'
p266
I0
tp267
a(I6
I3
F0.375
S'new'
p268
I0
tp269
a(I10
I12
I0
S'own'
p270
I0
tp271
as(S'contact'
p272
S'list'
p273
tp274
(lp275
(I3
I6
F-0.75
S'unable'
p276
I0
tp277
as(S'sound'
p278
S'quality'
p279
tp280
(lp281
(I0
I4
I0
S'signal'
p282
I0
tp283
a(I3
I45
F1.0
S'good'
p284
I0
tp285
a(I3
I45
F1.0
S'good'
p286
I0
tp287
a(I8
I16
I0
S'total'
p288
I0
tp289
a(I15
I27
F0.5
S'clear'
p290
I0
tp291
as.