(dp0
(S'keyboard'
p1
tp2
(lp3
(I2
I3
F1.0
S'good'
p4
tp5
a(I10
I7
F-0.375
S'simple'
p6
tp7
a(I27
I1
F1.0
S'good'
p8
tp9
a(I54
I12
F1.0
S'good'
p10
tp11
a(I54
I16
F1.0
S'better'
p12
tp13
a(I54
I41
F1.0
S'good'
p14
tp15
a(I56
I10
F1.0
S'better'
p16
tp17
a(I58
I0
F0.625
S'easy'
p18
tp19
a(I71
I1
F1.0
S'good'
p20
tp21
a(I74
I2
I0
S'full'
p22
tp23
a(I107
I0
F0.25
S'responsive'
p24
tp25
a(I140
I2
F0.125
S'able'
p26
tp27
a(I140
I2
I0
S'close'
p28
tp29
a(I140
I8
I0
S'great'
p30
tp31
as(S'keys'
p32
tp33
(lp34
(I6
I8
F-0.375
S'smaller'
p35
tp36
a(I20
I49
F0.25
S'main'
p37
tp38
a(I54
I12
F0.25
S'larger'
p39
tp40
a(I67
I4
F-0.375
S'small'
p41
tp42
a(I88
I1
F-0.375
S'small'
p43
tp44
a(I88
I2
F0.5
S'flat'
p45
tp46
a(I96
I2
F0.25
S'bigger'
p47
tp48
a(I111
I7
F-0.125
S'directional'
p49
tp50
as(S'u'
p51
S's'
p52
S'version'
p53
tp54
(lp55
(I7
I0
F0.875
S'nice'
p56
tp57
a(I7
I0
I0
S'stable'
p58
tp59
a(I7
I35
I0
S'many'
p60
tp61
a(I16
I3
I0
S'american'
p62
tp63
a(I77
I2
I0
S'earlier'
p64
tp65
a(I77
I2
F-0.875
S'inferior'
p66
tp67
a(I84
I5
I0
S'latest'
p68
tp69
a(I110
I17
I0
S'full'
p70
tp71
a(I141
I3
F-0.5
S'international'
p72
tp73
as(S'nice'
p74
tp75
(lp76
(I7
I26
I0
S'real'
p77
tp78
a(I146
I5
I0
S'only'
p79
tp80
as(S'call'
p81
S'quality'
p82
tp83
(lp84
(I63
I20
F1.0
S'good'
p85
tp86
a(I97
I4
F1.0
S'good'
p87
tp88
a(I104
I1
F1.0
S'good'
p89
tp90
a(I127
I8
F1.0
S'good'
p91
tp92
a(I147
I8
I0
S'great'
p93
tp94
as(S'touch'
p95
tp96
(lp97
(I20
I106
F0.875
S'nice'
p98
tp99
a(I48
I9
F0.875
S'nice'
p100
tp101
a(I90
I11
F-0.625
S'light'
p102
tp103
a(I116
I1
F0.625
S'interested'
p104
tp105
as(S'version'
p106
tp107
(lp108
(I7
I0
F0.875
g56
tp109
a(I7
I0
I0
g58
tp110
a(I7
I35
I0
g60
tp111
a(I16
I3
I0
g62
tp112
a(I77
I2
I0
g64
tp113
a(I77
I2
F-0.875
g66
tp114
a(I84
I5
I0
g68
tp115
a(I110
I17
I0
g70
tp116
a(I141
I3
F-0.5
g72
tp117
as(S'qwerty'
p118
S'keyboard'
p119
tp120
(lp121
(I10
I7
F-0.375
g6
tp122
a(I58
I0
I0
S'full'
p123
tp124
a(I58
I0
F0.625
g18
tp125
a(I95
I7
I0
S'real'
p126
tp127
a(I134
I4
I0
S'full'
p128
tp129
a(I140
I1
F-0.625
S'other'
p130
tp131
a(I140
I2
F0.125
g26
tp132
a(I140
I2
I0
g28
tp133
as(S'quality'
p134
tp135
(lp136
(I0
I1
I0
S'questionable'
p137
tp138
a(I6
I51
F1.0
S'good'
p139
tp140
a(I13
I1
F1.0
S'good'
p141
tp142
a(I17
I6
I0
S'sturdy'
p143
tp144
a(I17
I22
F-0.625
S'bad'
p145
tp146
a(I17
I22
F1.0
S'good'
p147
tp148
a(I20
I17
F-0.625
S'light'
p149
tp150
a(I48
I17
I0
S'same'
p151
tp152
a(I56
I7
F-0.5
S'poor'
p153
tp154
a(I56
I8
I0
S'high'
p155
tp156
a(I60
I3
I0
S'same'
p157
tp158
a(I63
I20
F1.0
g85
tp159
a(I63
I37
F-0.75
S'short'
p160
tp161
a(I66
I14
F-0.5
S'poor'
p162
tp163
a(I94
I9
I0
S'great'
p164
tp165
a(I113
I0
F-0.5
S'poor'
p166
tp167
a(I120
I5
F-0.25
S'low'
p168
tp169
a(I127
I0
F0.25
S'main'
p170
tp171
a(I127
I8
F1.0
g91
tp172
a(I147
I8
I0
g93
tp173
a(I147
I16
I0
S'great'
p174
tp175
as(S'applications'
p176
tp177
(lp178
(I49
I3
I0
S'more'
p179
tp180
a(I64
I10
I0
S'active'
p181
tp182
a(I91
I8
I0
S'standard'
p183
tp184
a(I133
I14
F0.375
S'new'
p185
tp186
a(I135
I0
F0.125
S'first'
p187
tp188
a(I135
I0
I0
S'optical'
p189
tp190
a(I135
I0
F0.125
S'key'
p191
tp192
a(I141
I38
I0
S'close'
p193
tp194
a(I148
I6
F0.375
S'available'
p195
tp196
a(I148
I6
F0.375
S'significant'
p197
tp198
as(S'ever'
p199
tp200
(lp201
(I153
I8
I0
S'fore'
p202
tp203
as(S'learning'
p204
S'curve'
p205
tp206
(lp207
(I6
I12
I0
S'useful'
p208
tp209
as(S'cover'
p210
tp211
(lp212
(I60
I4
F-0.25
S'loose'
p213
tp214
a(I120
I2
F-0.25
S'loose'
p215
tp216
a(I120
I2
F0.625
S'okay'
p217
tp218
a(I135
I0
F-0.75
S'ill'
p219
tp220
a(I144
I1
F0.125
S'solid'
p221
tp222
as(S'software'
p223
tp224
(lp225
(I54
I39
I0
S'same'
p226
tp227
a(I54
I39
F0.375
S'similar'
p228
tp229
a(I64
I28
F0.375
S'enable'
p230
tp231
a(I72
I1
I0
S'stable'
p232
tp233
a(I105
I10
I0
S'great'
p234
tp235
a(I109
I2
I0
S'many'
p236
tp237
a(I110
I17
I0
S'useful'
p238
tp239
a(I110
I26
F-0.25
S'abundant'
p240
tp241
a(I113
I0
I0
S'great'
p242
tp243
as(S'nokia'
p244
tp245
(lp246
(I6
I51
F0.875
S'nice'
p247
tp248
a(I7
I3
F0.875
S'nice'
p249
tp250
a(I8
I0
F1.0
S'best'
p251
tp252
a(I20
I60
F0.5
S'functional'
p253
tp254
a(I23
I2
I0
S'user'
p255
tp256
a(I23
I2
F0.375
S'friendly'
p257
tp258
a(I24
I1
I0
S'attempt'
p259
tp260
a(I24
I1
I0
S'total'
p261
tp262
a(I25
I2
F0.125
S'last'
p263
tp264
a(I31
I1
F-0.625
S'bad'
p265
tp266
a(I31
I1
I0
S'third'
p267
tp268
a(I41
I30
F0.5
S'clear'
p269
tp270
a(I54
I11
F-0.75
S'brighter'
p271
tp272
a(I54
I28
F0.625
S'easy'
p273
tp274
a(I54
I37
F0.5
S'clear'
p275
tp276
a(I60
I0
I0
S'fourth'
p277
tp278
a(I63
I22
F1.0
S'good'
p279
tp280
a(I64
I9
F0.375
S'reliable'
p281
tp282
a(I64
I43
F0.5
S'functional'
p283
tp284
a(I66
I2
F-0.5
S'longer'
p285
tp286
a(I78
I4
I0
S'old'
p287
tp288
a(I81
I14
F0.5
S'second'
p289
tp290
a(I81
I23
F0.125
S'usual'
p291
tp292
a(I87
I6
F-0.375
S'robust'
p293
tp294
a(I91
I8
I0
S'least'
p295
tp296
a(I94
I32
F0.75
S'worth'
p297
tp298
a(I97
I1
F1.0
S'good'
p299
tp300
a(I106
I1
F0.125
S'first'
p301
tp302
a(I110
I9
F-0.375
S'small'
p303
tp304
a(I111
I13
I0
S'many'
p305
tp306
a(I118
I0
F-0.625
S'other'
p307
tp308
a(I120
I3
F0.5
S'come-on'
p309
tp310
a(I130
I5
F0.125
S'usual'
p311
tp312
a(I133
I0
I0
S'old'
p313
tp314
a(I137
I1
I0
S'faster'
p315
tp316
a(I140
I8
F0.375
S'new'
p317
tp318
a(I141
I18
F0.5
S'complimentary'
p319
tp320
a(I141
I27
F1.0
S'best'
p321
tp322
as(S'blackberry'
p323
tp324
(lp325
(I57
I10
I0
S'android'
p326
tp327
a(I60
I14
I0
S'least'
p328
tp329
a(I60
I14
F0.375
S'dependable'
p330
tp331
a(I63
I38
F0.5
S'functional'
p332
tp333
a(I63
I46
F-0.125
S'overall'
p334
tp335
a(I81
I29
F-0.5
S'miss'
p336
tp337
a(I81
I29
F-0.625
S'light'
p338
tp339
a(I87
I3
I0
S'rim'
p340
tp341
as(S'smartphone'
p342
tp343
(lp344
(I27
I1
F0.5
S'reasonable'
p345
tp346
a(I27
I1
F0.25
S'powerful'
p347
tp348
a(I48
I16
F-0.375
S'top'
p349
tp350
a(I70
I0
I0
S'old'
p351
tp352
a(I70
I0
I0
S'great'
p353
tp354
a(I89
I0
F0.125
S'first'
p355
tp356
a(I94
I3
F0.125
S'first'
p357
tp358
a(I96
I0
F0.625
S'easy'
p359
tp360
a(I110
I20
F0.5
S'expensive'
p361
tp362
a(I110
I21
F-0.25
S'cheaper'
p363
tp364
a(I141
I3
F0.125
S'first'
p365
tp366
a(I146
I8
I0
S'most'
p367
tp368
a(I146
I8
F-0.625
S'other'
p369
tp370
as(S'd'
p371
S'pad'
p372
tp373
(lp374
(I20
I78
I0
S'optical'
p375
tp376
a(I20
I78
F0.125
S'key'
p377
tp378
a(I33
I6
F0.625
S'easier'
p379
tp380
a(I48
I9
I0
S'optical'
p381
tp382
a(I56
I15
F0.25
S'original'
p383
tp384
a(I56
I15
F-0.125
S'directional'
p385
tp386
a(I63
I13
I0
S'optical'
p387
tp388
a(I63
I13
F0.5
S'functional'
p389
tp390
a(I64
I6
I0
S'optical'
p391
tp392
a(I81
I11
F-0.625
S'addictive'
p393
tp394
a(I110
I15
F0.5
S'touch'
p395
tp396
a(I120
I5
I0
S'optical'
p397
tp398
a(I120
I6
I0
S'optical'
p399
tp400
a(I135
I0
F0.125
S'key'
p401
tp402
as(S'wifi'
p403
tp404
(lp405
(I110
I29
F0.125
S'capable'
p406
tp407
a(I116
I10
F1.0
S'good'
p408
tp409
a(I147
I6
I0
S'great'
p410
tp411
a(I148
I5
I0
S'efficient'
p412
tp413
as(S'fast'
p414
tp415
(lp416
(I123
I8
I0
S'real'
p417
tp418
as(S'times'
p419
tp420
(lp421
(I17
I16
I0
S'more'
p422
tp423
a(I17
I16
F-0.75
S'sufficient'
p424
tp425
a(I17
I16
F1.0
S'good'
p426
tp427
a(I20
I73
F-0.625
S'other'
p428
tp429
a(I20
I80
I0
S'many'
p430
tp431
a(I20
I84
F-0.625
S'other'
p432
tp433
a(I20
I85
F-0.625
S'other'
p434
tp435
a(I20
I85
F-0.625
S'other'
p436
tp437
a(I20
I87
F-0.625
S'other'
p438
tp439
a(I41
I6
F-0.625
S'other'
p440
tp441
a(I54
I21
I0
S'more'
p442
tp443
a(I116
I14
F0.375
S'extended'
p444
tp445
a(I141
I39
F-0.625
S'other'
p446
tp447
a(I152
I1
I0
S'many'
p448
tp449
a(I152
I1
I0
S'many'
p450
tp451
a(I152
I1
I0
S'many'
p452
tp453
a(I152
I1
I0
S'many'
p454
tp455
a(I152
I1
I0
S'many'
p456
tp457
as(S'problem'
p458
tp459
(lp460
(I20
I88
I0
S'same'
p461
tp462
a(I54
I41
F0.25
S'main'
p463
tp464
a(I94
I23
F0.125
S'first'
p465
tp466
a(I130
I2
F0.625
S'major'
p467
tp468
a(I152
I1
I0
S'same'
p469
tp470
as(S'email'
p471
tp472
(lp473
(I10
I3
I0
S'quick'
p474
tp475
a(I19
I2
F0.625
S'major'
p476
tp477
a(I20
I61
F-0.625
S'other'
p478
tp479
a(I49
I3
I0
S'more'
p480
tp481
a(I81
I12
F1.0
S'best'
p482
tp483
a(I81
I26
F0.5
S'comparable'
p484
tp485
a(I83
I1
I0
S'great'
p486
tp487
a(I85
I0
F-0.625
S'other'
p488
tp489
a(I87
I4
F-0.625
S'push'
p490
tp491
a(I94
I19
I0
S'great'
p492
tp493
a(I95
I7
F0.875
S'nice'
p494
tp495
a(I105
I4
F-0.625
S'push'
p496
tp497
a(I110
I19
F0.75
S'worth'
p498
tp499
a(I153
I5
F0.375
S'new'
p500
tp501
as(S'working'
p502
tp503
(lp504
(I135
I0
I0
S'full'
p505
tp506
as(S'maps'
p507
tp508
(lp509
(I4
I3
F-0.25
S'google'
p510
tp511
a(I63
I40
F0.625
S'easy'
p512
tp513
a(I63
I40
I0
S'efficient'
p514
tp515
a(I105
I10
F-0.625
S'free'
p516
tp517
a(I114
I3
I0
S'great'
p518
tp519
a(I127
I8
F-0.25
S'google'
p520
tp521
as(S'need'
p522
tp523
(lp524
(I143
I1
I0
S'shatter'
p525
tp526
as(S'e71'
p527
S'and'
p528
S'e72'
p529
tp530
(lp531
(I19
I2
I0
S'standard'
p532
tp533
a(I19
I2
F0.125
S'enough'
p534
tp535
a(I48
I2
F-0.625
S'other'
p536
tp537
a(I54
I25
F0.375
S'similar'
p538
tp539
a(I56
I0
F0.375
S'new'
p540
tp541
a(I56
I12
I0
S'wider'
p542
tp543
a(I91
I7
I0
S'such'
p544
tp545
a(I110
I20
F0.25
S'unlocked'
p546
tp547
a(I113
I2
I0
S'same'
p548
tp549
as(S'build'
p550
S'quality'
p551
tp552
(lp553
(I17
I6
I0
g143
tp554
a(I20
I17
F-0.625
g149
tp555
a(I43
I5
I0
S'great'
p556
tp557
a(I94
I9
I0
g164
tp558
a(I113
I0
F-0.5
g166
tp559
a(I121
I0
I0
S'great'
p560
tp561
a(I144
I2
I0
S'e-mail'
p562
tp563
as(S'features'
p564
tp565
(lp566
(I7
I7
F0.125
S'key'
p567
tp568
a(I18
I0
F0.25
S'responsive'
p569
tp570
a(I27
I1
I0
S'same'
p571
tp572
a(I27
I1
F1.0
S'good'
p573
tp574
a(I43
I11
F1.0
S'best'
p575
tp576
a(I54
I13
F1.0
S'better'
p577
tp578
a(I55
I0
F1.0
S'good'
p579
tp580
a(I57
I4
F-0.25
S'google'
p581
tp582
a(I64
I43
F-0.625
S'other'
p583
tp584
a(I102
I0
I0
S'many'
p585
tp586
a(I102
I0
I0
S'useful'
p587
tp588
a(I136
I1
F-0.625
S'other'
p589
tp590
a(I136
I2
F-0.75
S'little'
p591
tp592
a(I141
I26
I0
S'many'
p593
tp594
a(I147
I14
I0
S'many'
p595
tp596
as(S'business'
p597
tp598
(lp599
(I7
I19
F0.5
S'personal'
p600
tp601
a(I56
I36
F-0.625
S'bad'
p602
tp603
a(I56
I36
F-0.375
S'unacceptable'
p604
tp605
a(I58
I0
F0.5
S'personal'
p606
tp607
a(I60
I11
I0
S'critical'
p608
tp609
a(I60
I11
I0
S'least'
p610
tp611
a(I60
I11
I0
S'online'
p612
tp613
a(I60
I12
F0.625
S'acceptable'
p614
tp615
a(I66
I12
F0.125
S'solid'
p616
tp617
a(I66
I12
F-0.5
S'international'
p618
tp619
a(I91
I7
F0.875
S'important'
p620
tp621
a(I91
I7
I0
S'useful'
p622
tp623
a(I108
I6
F1.0
S'good'
p624
tp625
a(I133
I18
I0
S'great'
p626
tp627
a(I136
I1
F-0.5
S'heavy'
p628
tp629
a(I136
I2
I0
S'full'
p630
tp631
a(I141
I60
I0
S'incredible'
p632
tp633
as(S'e72'
p634
S'n'
p635
tp636
(lp637
(I6
I23
F0.75
S'due'
p638
tp639
a(I6
I28
I0
S'faster'
p640
tp641
a(I19
I2
F0.125
g534
tp642
a(I54
I26
F0.25
S'larger'
p643
tp644
a(I54
I31
F1.0
S'good'
p645
tp646
a(I56
I0
F0.375
g540
tp647
a(I56
I12
I0
g542
tp648
a(I56
I45
F-0.125
S'overall'
p649
tp650
a(I57
I2
I0
S'great'
p651
tp652
a(I61
I4
I0
S'stable'
p653
tp654
a(I61
I4
F0.375
S'reliable'
p655
tp656
a(I61
I4
F0.125
S'enough'
p657
tp658
a(I64
I0
F0.125
S'first'
p659
tp660
a(I81
I1
F-0.375
S'beast'
p661
tp662
a(I90
I10
F0.375
S'much'
p663
tp664
a(I91
I7
I0
g544
tp665
a(I95
I1
F-0.25
S'thin'
p666
tp667
a(I97
I3
I0
S'many'
p668
tp669
a(I101
I4
F0.875
S'music'
p670
tp671
a(I113
I2
I0
g548
tp672
a(I120
I0
I0
S'anymore'
p673
tp674
a(I126
I4
F0.5
S'clear'
p675
tp676
a(I137
I1
F0.375
S'new'
p677
tp678
a(I140
I3
F0.625
S'perfect'
p679
tp680
a(I152
I0
F1.0
S'better'
p681
tp682
as(S'video'
p683
tp684
(lp685
(I56
I18
F-0.75
S'plain'
p686
tp687
as(S'operating'
p688
S'system'
p689
tp690
(lp691
(I71
I2
F-0.375
S'unstable'
p692
tp693
a(I80
I4
I0
S'general'
p694
tp695
as(S'upgrade'
p696
tp697
(lp698
(I43
I0
F-0.625
S'natural'
p699
tp700
a(I48
I0
I0
S'unbelievable'
p701
tp702
a(I56
I1
I0
S'only'
p703
tp704
a(I56
I44
F-0.625
S'free'
p705
tp706
a(I63
I0
F0.75
S'worth'
p707
tp708
a(I86
I2
F-0.125
S'overall'
p709
tp710
a(I86
I2
F0.875
S'happy'
p711
tp712
a(I108
I3
F0.5
S'second'
p713
tp714
a(I117
I3
F0.875
S'nice'
p715
tp716
a(I130
I1
F1.0
S'better'
p717
tp718
a(I134
I2
F0.75
S'worth'
p719
tp720
as(S'thing'
p721
tp722
(lp723
(I13
I4
F-0.625
S'bad'
p724
tp725
a(I16
I7
F0.125
S'first'
p726
tp727
a(I20
I64
I0
S'great'
p728
tp729
a(I20
I64
I0
S'big'
p730
tp731
a(I33
I6
I0
S'only'
p732
tp733
a(I38
I4
I0
S'only'
p734
tp735
a(I46
I1
I0
S'only'
p736
tp737
a(I64
I4
F-0.75
S'wrong'
p738
tp739
a(I64
I4
F-0.75
S'wrong'
p740
tp741
a(I93
I4
I0
S'only'
p742
tp743
a(I101
I1
I0
S'only'
p744
tp745
a(I101
I1
F1.0
S'good'
p746
tp747
a(I107
I1
I0
S'only'
p748
tp749
a(I121
I7
I0
S'only'
p750
tp751
a(I123
I11
F0.125
S'last'
p752
tp753
as(S'mail'
p754
S'for'
p755
S'exchange'
p756
tp757
(lp758
(I146
I8
F0.25
S'biggest'
p759
tp760
as(S'web'
p761
S'browser'
p762
tp763
(lp764
(I20
I87
F0.5
S'whole'
p765
tp766
a(I69
I1
F-0.75
S'worse'
p767
tp768
a(I80
I8
I0
S'most'
p769
tp770
as(g635
S'fact'
p771
tp772
(lp773
(I20
I60
F-0.125
S'cant'
p774
tp775
a(I114
I5
F-0.625
S'lighter'
p776
tp777
a(I114
I5
F0.75
S'due'
p778
tp779
as(S'couple'
p780
S'of'
p781
S'days'
p782
tp783
(lp784
(I94
I28
I0
S'later'
p785
tp786
a(I116
I13
I0
S'least'
p787
tp788
a(I133
I8
F-0.25
S'past'
p789
tp790
a(I133
I8
F0.125
S'impressive'
p791
tp792
as(S'better'
p793
tp794
(lp795
(I0
I8
F0.375
S'much'
p796
tp797
a(I0
I8
F0.25
S'original'
p798
tp799
a(I23
I6
F0.375
S'much'
p800
tp801
a(I91
I4
F0.375
S'much'
p802
tp803
a(I133
I11
F0.375
S'much'
p804
tp805
as(S'work'
p806
tp807
(lp808
(I16
I13
F0.25
S'professional'
p809
tp810
a(I16
I13
F0.5
S'ethic'
p811
tp812
a(I20
I65
I0
S'most'
p813
tp814
a(I65
I0
I0
S'mobile'
p815
tp816
a(I65
I0
I0
S'great'
p817
tp818
a(I104
I0
F1.0
S'good'
p819
tp820
a(I131
I7
F1.0
S'good'
p821
tp822
as(S'e'
p823
S'series'
p824
tp825
(lp826
(I33
I1
F0.125
S'first'
p827
tp828
as(S'battery'
p829
S'life'
p830
tp831
(lp832
(I6
I2
F1.0
S'better'
p833
tp834
a(I10
I4
I0
S'great'
p835
tp836
a(I27
I1
I0
S'great'
p837
tp838
a(I38
I3
I0
S'incredible'
p839
tp840
a(I71
I1
F-0.5
S'long'
p841
tp842
a(I74
I8
F1.0
S'good'
p843
tp844
a(I91
I3
F1.0
S'good'
p845
tp846
a(I95
I7
F-0.5
S'long'
p847
tp848
a(I105
I2
F0.125
S'first'
p849
tp850
a(I119
I1
F1.0
S'good'
p851
tp852
a(I134
I5
F-0.25
S'battery'
p853
tp854
a(I143
I7
I0
S'great'
p855
tp856
as(S'made'
p857
tp858
(lp859
(I11
I4
F-0.375
S'black'
p860
tp861
a(I131
I0
I0
S'european'
p862
tp863
as(S'faster'
p864
tp865
(lp866
(I48
I5
F0.375
S'much'
p867
tp868
a(I54
I43
F0.375
S'much'
p869
tp870
a(I131
I2
F0.375
S'much'
p871
tp872
as(S'problems'
p873
tp874
(lp875
(I3
I0
I0
S'many'
p876
tp877
a(I9
I0
F0.875
S'music'
p878
tp879
a(I40
I4
F-0.375
S'small'
p880
tp881
a(I47
I3
I0
S'more'
p882
tp883
a(I71
I10
F-0.5
S'continuous'
p884
tp885
a(I79
I0
F-0.625
S'other'
p886
tp887
a(I94
I6
I0
S'own'
p888
tp889
a(I94
I13
F-0.625
S'other'
p890
tp891
a(I94
I20
F-0.625
S'other'
p892
tp893
a(I141
I43
F0.5
S'technical'
p894
tp895
a(I153
I7
I0
S'more'
p896
tp897
as(S'back'
p898
tp899
(lp900
(I20
I95
F-0.125
S'mine'
p901
tp902
as(S'life'
p903
tp904
(lp905
(I10
I4
I0
g835
tp906
a(I38
I3
I0
g839
tp907
a(I71
I1
F-0.5
g841
tp908
a(I74
I8
F1.0
g843
tp909
a(I91
I3
F1.0
g845
tp910
a(I119
I1
F1.0
g851
tp911
a(I134
I5
F-0.25
g853
tp912
a(I143
I7
I0
g855
tp913
as(S'a'
p914
S'firmware'
p915
S'update'
p916
tp917
(lp918
(I20
I90
F0.375
S'new'
p919
tp920
a(I55
I2
I0
S'own'
p921
tp922
as(S'nokia'
p923
S'e71'
p924
tp925
(lp926
(I19
I2
I0
g532
tp927
a(I20
I60
F0.5
g253
tp928
a(I48
I2
F-0.625
g536
tp929
a(I74
I3
I0
S'same'
p930
tp931
a(I87
I6
F-0.375
g293
tp932
a(I91
I2
F0.375
S'reliable'
p933
tp934
a(I97
I1
F1.0
g299
tp935
a(I141
I27
F1.0
g321
tp936
as(S'firmware'
p937
tp938
(lp939
(I20
I90
F0.375
g919
tp940
a(I41
I5
I0
S'latest'
p941
tp942
a(I41
I5
F0.375
S'available'
p943
tp944
a(I41
I26
F0.375
S'newer'
p945
tp946
a(I43
I12
I0
S'lastest'
p947
tp948
a(I47
I3
I0
S'latest'
p949
tp950
a(I55
I2
I0
g921
tp951
a(I56
I4
F0.375
S'new'
p952
tp953
a(I105
I0
I0
S'substantial'
p954
tp955
a(I110
I6
I0
S'many'
p956
tp957
as(S'qwerty'
p958
tp959
(lp960
(I58
I0
I0
g123
tp961
a(I64
I1
I0
S'more'
p962
tp963
a(I64
I1
F-0.75
S'difficult'
p964
tp965
a(I95
I7
I0
g126
tp966
a(I134
I4
I0
g128
tp967
a(I140
I1
F-0.625
g130
tp968
as(S'music'
p969
tp970
(lp971
(I95
I5
F0.625
S'interested'
p972
tp973
as(S'user'
p974
tp975
(lp976
(I6
I21
F1.0
S'good'
p977
tp978
a(I20
I3
F-0.375
S'serious'
p979
tp980
a(I66
I10
F-0.375
S'manual'
p981
tp982
a(I78
I4
F0.875
S'happy'
p983
tp984
a(I110
I21
F0.375
S'new'
p985
tp986
a(I153
I14
F0.5
S'careful'
p987
tp988
as(g635
S'r'
p989
S'pocket'
p990
tp991
(lp992
(I56
I32
F0.125
S'first'
p993
tp994
a(I80
I2
F0.625
S'easy'
p995
tp996
as(S'battery'
p997
S'cover'
p998
tp999
(lp1000
(I49
I5
F-0.25
S'loose'
p1001
tp1002
a(I60
I4
F-0.25
g213
tp1003
a(I110
I27
I0
S'same'
p1004
tp1005
a(I120
I2
F-0.25
g215
tp1006
a(I120
I2
F0.625
g217
tp1007
a(I135
I0
F-0.75
g219
tp1008
a(I144
I1
F0.125
g221
tp1009
as(S'battery'
p1010
tp1011
(lp1012
(I6
I2
F1.0
g833
tp1013
a(I13
I4
F0.125
S'last'
p1014
tp1015
a(I16
I10
F0.125
S'last'
p1016
tp1017
a(I20
I17
I0
S'plastic'
p1018
tp1019
a(I27
I1
I0
g837
tp1020
a(I35
I0
I0
S'fast'
p1021
tp1022
a(I49
I5
F-0.25
g1001
tp1023
a(I95
I7
F-0.5
g847
tp1024
a(I105
I2
F0.125
g849
tp1025
a(I110
I27
I0
g1004
tp1026
as(S'contacts'
p1027
tp1028
(lp1029
(I16
I14
I0
S'same'
p1030
tp1031
as(S'nokia'
p1032
S'e72'
p1033
tp1034
(lp1035
(I19
I2
F0.125
g534
tp1036
a(I56
I45
F-0.125
g649
tp1037
a(I57
I2
I0
g651
tp1038
a(I61
I4
I0
g653
tp1039
a(I61
I4
F0.375
g655
tp1040
a(I61
I4
F0.125
g657
tp1041
a(I64
I0
F0.125
g659
tp1042
a(I81
I1
F-0.375
g661
tp1043
a(I81
I14
F0.5
g289
tp1044
a(I91
I7
I0
g544
tp1045
a(I110
I9
F-0.375
g303
tp1046
a(I113
I2
I0
g548
tp1047
a(I126
I4
F0.5
g675
tp1048
a(I137
I1
F0.375
g677
tp1049
a(I137
I1
I0
g315
tp1050
a(I152
I0
F1.0
g681
tp1051
as(S'time'
p1052
tp1053
(lp1054
(I6
I20
I0
S'most'
p1055
tp1056
a(I7
I2
F0.375
S'much'
p1057
tp1058
a(I7
I16
I0
S'same'
p1059
tp1060
a(I20
I83
I0
S'most'
p1061
tp1062
a(I35
I0
I0
S'same'
p1063
tp1064
a(I49
I8
I0
S'next'
p1065
tp1066
a(I58
I0
I0
S'same'
p1067
tp1068
a(I63
I1
F0.125
S'first'
p1069
tp1070
a(I75
I0
F-0.5
S'long'
p1071
tp1072
a(I88
I2
I0
S'same'
p1073
tp1074
a(I120
I0
F0.125
S'first'
p1075
tp1076
a(I126
I0
F-0.5
S'long'
p1077
tp1078
a(I137
I5
F0.125
S'first'
p1079
tp1080
as(S'find'
p1081
tp1082
(lp1083
(I10
I8
F0.625
S'easy'
p1084
tp1085
as(S'version'
p1086
S'with'
p1087
S'warranty'
p1088
tp1089
(lp1090
(I141
I3
F-0.5
g72
tp1091
as(S'navigation'
p1092
tp1093
(lp1094
(I93
I5
F1.0
S'good'
p1095
tp1096
as(S'little'
p1097
tp1098
(lp1099
(I94
I6
F1.0
S'good'
p1100
tp1101
as(S'track'
p1102
S'pad'
p1103
tp1104
(lp1105
(I33
I6
F0.625
g379
tp1106
a(I56
I13
F0.375
S'new'
p1107
tp1108
a(I81
I11
F-0.625
g393
tp1109
a(I120
I2
I0
S'optical'
p1110
tp1111
a(I120
I5
I0
S'optical'
p1112
tp1113
a(I120
I5
I0
g397
tp1114
a(I140
I9
F0.375
S'new'
p1115
tp1116
as(S'screen'
p1117
tp1118
(lp1119
(I0
I9
I0
S'own'
p1120
tp1121
a(I6
I6
F0.5
S'touch'
p1122
tp1123
a(I6
I23
F-0.375
S'smaller'
p1124
tp1125
a(I6
I30
F-0.75
S'bright'
p1126
tp1127
a(I6
I56
I0
S'great'
p1128
tp1129
a(I6
I56
F0.5
S'touch'
p1130
tp1131
a(I6
I56
F0.25
S'larger'
p1132
tp1133
a(I10
I2
F0.75
S'beautiful'
p1134
tp1135
a(I43
I5
I0
S'big'
p1136
tp1137
a(I43
I5
F0.5
S'touch'
p1138
tp1139
a(I80
I8
F0.375
S'content'
p1140
tp1141
a(I80
I8
F-0.75
S'difficult'
p1142
tp1143
a(I80
I8
F-0.75
S'impossible'
p1144
tp1145
a(I88
I5
F0.25
S'bigger'
p1146
tp1147
a(I90
I2
I0
S'same'
p1148
tp1149
a(I110
I24
F-0.375
S'smaller'
p1150
tp1151
a(I110
I24
F0.375
S'newer'
p1152
tp1153
a(I110
I24
F0.5
S'touch'
p1154
tp1155
a(I138
I0
F0.5
S'whole'
p1156
tp1157
a(I138
I0
F-0.25
S'white'
p1158
tp1159
as(S'outlook'
p1160
S'file'
p1161
tp1162
(lp1163
(I141
I48
F0.75
S'due'
p1164
tp1165
a(I141
I48
F-0.625
S'corrupted'
p1166
tp1167
a(I141
I62
F-0.625
S'corrupted'
p1168
tp1169
as(g914
S'learning'
p1170
S'curve'
p1171
tp1172
(lp1173
(I6
I12
I0
g208
tp1174
as(S'camera'
p1175
tp1176
(lp1177
(I5
I0
I0
S'great'
p1178
tp1179
a(I5
I0
F1.0
S'good'
p1180
tp1181
a(I7
I25
F0.75
S'sound'
p1182
tp1183
a(I17
I3
F1.0
S'good'
p1184
tp1185
a(I19
I2
I0
S'great'
p1186
tp1187
a(I33
I5
F0.875
S'nice'
p1188
tp1189
a(I54
I28
F1.0
S'good'
p1190
tp1191
a(I63
I41
F0.375
S'much'
p1192
tp1193
a(I77
I2
F1.0
S'better'
p1194
tp1195
a(I105
I10
F1.0
S'good'
p1196
tp1197
a(I107
I0
I0
S'great'
p1198
tp1199
a(I110
I26
F1.0
S'good'
p1200
tp1201
a(I110
I26
F0.125
S'equal'
p1202
tp1203
a(I116
I5
I0
S'more'
p1204
tp1205
a(I116
I5
F0.375
S'early'
p1206
tp1207
a(I116
I5
F0.125
S'digital'
p1208
tp1209
a(I141
I3
F-0.5
S'international'
p1210
tp1211
a(I143
I3
I0
S'great'
p1212
tp1213
a(I152
I1
I0
S'great'
p1214
tp1215
as(S'using'
p1216
tp1217
(lp1218
(I54
I29
F0.75
S'worth'
p1219
tp1220
as(S'compared'
p1221
S'to'
p1222
S'e71'
p1223
tp1224
(lp1225
(I56
I5
I0
S'metal'
p1226
tp1227
as(S'build'
p1228
tp1229
(lp1230
(I43
I5
I0
g556
tp1231
a(I121
I0
I0
g560
tp1232
a(I144
I2
I0
g562
tp1233
as(S'symbian'
p1234
tp1235
(lp1236
(I7
I35
F0.375
S'new'
p1237
tp1238
as(S'ovi'
p1239
S'maps'
p1240
tp1241
(lp1242
(I4
I3
F-0.25
g510
tp1243
a(I6
I15
F-0.625
S'free'
p1244
tp1245
a(I63
I40
F0.625
g512
tp1246
a(I63
I40
I0
g514
tp1247
a(I90
I8
F-0.625
S'free'
p1248
tp1249
a(I137
I1
F-0.625
S'free'
p1250
tp1251
as(S'people'
p1252
tp1253
(lp1254
(I4
I0
F-0.625
S'other'
p1255
tp1256
a(I7
I17
F-0.375
S'small'
p1257
tp1258
a(I20
I94
F0.875
S'lucky'
p1259
tp1260
a(I23
I5
I0
S'most'
p1261
tp1262
a(I54
I0
I0
S'many'
p1263
tp1264
a(I87
I5
F-0.5
S'sure'
p1265
tp1266
a(I110
I23
F-0.5
S'sure'
p1267
tp1268
a(I110
I23
I0
S'normal'
p1269
tp1270
a(I110
I28
F-0.5
S'less'
p1271
tp1272
a(I133
I6
I0
S'most'
p1273
tp1274
a(I141
I58
F0.5
S'true'
p1275
tp1276
a(I141
I58
I0
S'many'
p1277
tp1278
a(I141
I58
F-0.625
S'other'
p1279
tp1280
as(S'feature'
p1281
tp1282
(lp1283
(I7
I29
F0.875
S'nice'
p1284
tp1285
a(I16
I13
F-0.625
S'other'
p1286
tp1287
a(I16
I13
I0
S'great'
p1288
tp1289
a(I25
I0
I0
S'basic'
p1290
tp1291
a(I49
I7
I0
S'more'
p1292
tp1293
a(I55
I4
F-0.875
S'worst'
p1294
tp1295
a(I113
I1
F-0.25
S'loose'
p1296
tp1297
a(I121
I1
I0
S'full'
p1298
tp1299
a(I121
I5
F0.125
S'key'
p1300
tp1301
a(I123
I4
I0
S'different'
p1302
tp1303
as(S'works'
p1304
tp1305
(lp1306
(I14
I0
I0
S'great'
p1307
tp1308
a(I17
I19
I0
S'great'
p1309
tp1310
a(I56
I26
I0
S'great'
p1311
tp1312
a(I140
I7
I0
S'great'
p1313
tp1314
as(S'browser'
p1315
tp1316
(lp1317
(I69
I1
F-0.75
g767
tp1318
a(I80
I16
I0
S'internet'
p1319
tp1320
a(I146
I1
F-0.75
S'worse'
p1321
tp1322
as(S'lo'
p1323
S'recomiendo'
p1324
tp1325
(lp1326
(I76
I0
I0
S'tan'
p1327
tp1328
a(I76
I0
I0
S'genial'
p1329
tp1330
as(S'pc'
p1331
S'suite'
p1332
tp1333
(lp1334
(I147
I16
F0.625
S'easy'
p1335
tp1336
as(S'5'
p1337
S'mp'
p1338
S'camera'
p1339
tp1340
(lp1341
(I33
I5
F0.875
g1188
tp1342
a(I116
I5
I0
g1204
tp1343
a(I116
I5
F0.375
g1206
tp1344
a(I116
I5
F0.125
g1208
tp1345
a(I141
I3
F-0.5
g1210
tp1346
as(S'device'
p1347
tp1348
(lp1349
(I81
I9
F1.0
S'best'
p1350
tp1351
a(I81
I9
I0
S'mobile'
p1352
tp1353
a(I119
I0
F1.0
S'good'
p1354
tp1355
a(I121
I0
F0.125
S'solid'
p1356
tp1357
a(I151
I0
I0
S'mobile'
p1358
tp1359
a(I151
I0
F1.0
S'good'
p1360
tp1361
as(S'call'
p1362
tp1363
(lp1364
(I72
I2
F0.875
S'important'
p1365
tp1366
a(I72
I2
F-0.5
S'sure'
p1367
tp1368
a(I97
I4
F1.0
g87
tp1369
a(I104
I1
F1.0
g89
tp1370
as(S'made'
p1371
g635
S'china'
p1372
tp1373
(lp1374
(I20
I16
I0
S'spanish'
p1375
tp1376
as(S'much'
p1377
S'better'
p1378
tp1379
(lp1380
(I0
I8
F0.375
g796
tp1381
a(I0
I8
F0.25
g798
tp1382
a(I23
I6
F0.375
g800
tp1383
a(I91
I4
F0.375
g802
tp1384
a(I133
I11
F0.375
g804
tp1385
as(S'light'
p1386
tp1387
(lp1388
(I7
I25
F-0.375
S'red'
p1389
tp1390
a(I13
I4
F-0.75
S'bright'
p1391
tp1392
a(I63
I18
F-0.25
S'white'
p1393
tp1394
a(I63
I44
F1.0
S'good'
p1395
tp1396
a(I63
I45
F-0.25
S'low'
p1397
tp1398
as(S'space'
p1399
S'bar'
p1400
tp1401
(lp1402
(I101
I9
F-0.75
S'short'
p1403
tp1404
a(I110
I15
F-0.375
S'smaller'
p1405
tp1406
as(S'windows'
p1407
S'mobile'
p1408
tp1409
(lp1410
(I54
I40
I0
S'mobile'
p1411
tp1412
a(I56
I32
I0
S'mobile'
p1413
tp1414
a(I124
I0
I0
S'mobile'
p1415
tp1416
as(S'form'
p1417
S'factor'
p1418
tp1419
(lp1420
(I33
I2
F-0.625
S'other'
p1421
tp1422
a(I63
I8
F-0.25
S'thin'
p1423
tp1424
a(I63
I8
F0.625
S'easy'
p1425
tp1426
a(I111
I10
F0.375
S'much'
p1427
tp1428
as(S'apps'
p1429
tp1430
(lp1431
(I7
I33
I0
S'useful'
p1432
tp1433
a(I33
I10
F0.125
S'plenty'
p1434
tp1435
a(I57
I6
I0
S'many'
p1436
tp1437
a(I81
I28
I0
S'most'
p1438
tp1439
a(I83
I1
F-0.625
S'want'
p1440
tp1441
a(I95
I3
I0
S'many'
p1442
tp1443
a(I95
I6
I0
S'android'
p1444
tp1445
a(I116
I16
F-0.375
S'unstable'
p1446
tp1447
a(I133
I6
F0.625
S'accessible'
p1448
tp1449
as(S'days'
p1450
tp1451
(lp1452
(I7
I28
I0
S'full'
p1453
tp1454
a(I16
I8
I0
S'great'
p1455
tp1456
a(I20
I74
I0
S'few'
p1457
tp1458
a(I20
I105
F0.25
S'recent'
p1459
tp1460
a(I24
I2
I0
S'later'
p1461
tp1462
a(I56
I25
F0.125
S'able'
p1463
tp1464
a(I94
I28
I0
g785
tp1465
a(I133
I8
F0.125
g791
tp1466
a(I140
I0
I0
S'fastest'
p1467
tp1468
a(I143
I2
I0
S'few'
p1469
tp1470
a(I143
I2
I0
S'user'
p1471
tp1472
as.