(dp0
(S'blackberry'
p1
tp2
(lp3
(I1
I0
I0
S'real'
p4
I1
tp5
a(I1
I6
F0.5
S'second'
p6
I1
tp7
a(I3
I2
F0.875
S'happy'
p8
I1
tp9
a(I3
I2
F0.375
S'new'
p10
I1
tp11
a(I9
I5
I0
S'unblocked'
p12
I1
tp13
a(I19
I1
F-0.625
S'other'
p14
I1
tp15
a(I19
I1
F0.5
S'bold'
p16
I1
tp17
a(I19
I1
F-0.375
S'died'
p18
I1
tp19
as(S'bad'
p20
S'experience'
p21
tp22
(lp23
(I22
I9
F-0.625
S'bad'
p24
I0
tp25
a(I22
I18
F-0.625
S'bad'
p26
I0
tp27
a(I22
I18
F-0.625
S'bad'
p28
I0
tp29
as(S'venezuela'
p30
tp31
(lp32
(I22
I14
F-0.5
S'relative'
p33
I0
tp34
as(S'battery'
p35
tp36
(lp37
(I4
I1
F0.5
S'strong'
p38
I15
tp39
a(I7
I0
F0.375
S'new'
p40
I15
tp41
a(I10
I2
F0.25
S'original'
p42
I15
tp43
a(I10
I2
F0.125
S'last'
p44
I15
tp45
a(I12
I21
F0.125
S'able'
p46
I15
tp47
a(I22
I5
I0
S'charged'
p48
I15
tp49
a(I22
I5
F-0.625
S'useless'
p50
I15
tp51
a(I22
I25
F0.375
S'new'
p52
I15
tp53
a(I24
I64
F0.375
S'new'
p54
I15
tp55
as(S'amazon'
p56
tp57
(lp58
(I1
I6
F0.125
S'first'
p59
I13
tp60
a(I14
I0
F0.5
S'disrespectful'
p61
I13
tp62
as(S'telefono'
p63
tp64
(lp65
(I15
I5
I-100
S'8278562este'
p66
I0
tp67
as.