(dp0
(S'blackberry'
p1
tp2
(lp3
(I1
I8
F-0.375
S'top'
p4
I1
tp5
a(I1
I8
F0.125
S'usual'
p6
I1
tp7
a(I7
I43
F-0.625
S'other'
p8
I1
tp9
a(I7
I49
F-0.625
S'bad'
p10
I1
tp11
a(I8
I7
I0
S'blue'
p12
I1
tp13
as(S'battery'
p14
S'life'
p15
tp16
(lp17
(I4
I5
F1.0
S'good'
p18
I1
tp19
a(I4
I20
F-0.5
S'less'
p20
I1
tp21
a(I4
I20
F0.5
S'desirable'
p22
I1
tp23
a(I9
I45
I0
S'old'
p24
I15
tp25
as(S'usb'
p26
S'cable'
p27
tp28
(lp29
(I0
I4
F-0.375
S'manual'
p30
I2
tp31
a(I4
I41
I0
S'cable'
p32
I2
tp33
a(I7
I46
I0
S'cable'
p34
I2
tp35
a(I8
I7
I0
S'cable'
p36
I2
tp37
a(I9
I26
I0
S'cable'
p38
I2
tp39
a(I9
I27
I0
S'cable'
p40
I2
tp41
as(S'original'
p42
S'box'
p43
tp44
(lp45
(I7
I46
F0.25
S'original'
p46
I2
tp47
as(S'sim'
p48
S'card'
p49
tp50
(lp51
(I4
I1
I0
S'local'
p52
I0
tp53
as(S'flip'
p54
tp55
(lp56
(I4
I32
I0
S'few'
p57
I4
tp58
a(I5
I7
F0.25
S'familiar'
p59
I4
tp60
a(I9
I46
F0.625
S'interested'
p61
I4
tp62
as.