(dp0
(S'text'
p1
S'message'
p2
tp3
(lp4
(I6
I93
F0.625
S'easy'
p5
I0
tp6
a(I6
I94
F-0.5
S'long'
p7
I0
tp8
a(I6
I94
I0
S'multiple'
p9
I0
tp10
a(I6
I97
F0.375
S'available'
p11
I0
tp12
a(I6
I97
F0.375
S'new'
p13
I0
tp14
a(I6
I98
F0.375
S'new'
p15
I0
tp16
a(I10
I2
I0
S'text'
p17
I0
tp18
a(I13
I105
I0
S'forth'
p19
I0
tp20
a(I0
I11
I0
S'weird'
p21
I1
tp22
a(I6
I95
I0
S'total'
p23
I1
tp24
a(I7
I11
F0.375
S'new'
p25
I1
tp26
a(I10
I2
I0
g17
I1
tp27
a(I13
I105
I0
g19
I1
tp28
as(S'battery'
p29
S'life'
p30
tp31
(lp32
(I5
I1
F-0.625
S'bad'
p33
I1
tp34
a(I5
I23
I0
S'great'
p35
I1
tp36
a(I6
I33
F-0.25
S'disappointed'
p37
I1
tp38
a(I6
I84
F-0.625
S'bad'
p39
I1
tp40
a(I13
I77
F1.0
S'good'
p41
I1
tp42
a(I5
I1
F-0.625
g33
I19
tp43
a(I13
I77
F1.0
g41
I19
tp44
a(I0
I76
F-0.25
S'low'
p45
I15
tp46
a(I0
I110
F-0.625
S'bad'
p47
I15
tp48
a(I1
I2
F0.375
S'new'
p49
I15
tp50
a(I5
I23
I0
g35
I15
tp51
a(I6
I33
F-0.25
g37
I15
tp52
a(I6
I84
F-0.625
g39
I15
tp53
a(I7
I94
F0.25
S'original'
p54
I15
tp55
a(I13
I65
F-0.375
S'small'
p56
I15
tp57
as(S'sending'
p58
tp59
(lp60
(I0
I137
I0
S'most'
p61
I2
tp62
as(S'keys'
p63
tp64
(lp65
(I3
I2
F0.625
S'easy'
p66
I9
tp67
a(I3
I2
I0
S'big'
p68
I9
tp69
a(I13
I4
F-0.375
S'dust'
p70
I9
tp71
as(S't'
p72
S'store'
p73
tp74
(lp75
(I0
I148
I0
S'later'
p76
I11
tp77
as(S'one'
p78
S'day'
p79
tp80
(lp81
(I2
I9
I0
S'very'
p82
I1
tp83
a(I2
I9
F0.125
S'first'
p84
I1
tp85
a(I3
I4
I0
S'least'
p86
I1
tp87
a(I7
I64
F-0.5
S'less'
p88
I1
tp89
as(S'qwerty'
p90
S'keyboard'
p91
tp92
(lp93
(I6
I27
I0
S'great'
p94
I0
tp95
a(I7
I12
I0
S'full'
p96
I0
tp97
a(I11
I7
I0
S'large'
p98
I0
tp99
as(S'samsung'
p100
S'impression'
p101
tp102
(lp103
(I6
I43
F-0.375
S'static'
p104
I0
tp105
a(I1
I28
F0.375
S'similar'
p106
I7
tp107
a(I1
I44
I0
S'old'
p108
I7
tp109
a(I7
I30
F-0.875
S'hard'
p110
I7
tp111
a(I7
I67
I0
S'site'
p112
I7
tp113
a(I11
I4
F0.375
S'new'
p114
I7
tp115
a(I13
I97
F-0.75
S'comfortable'
p116
I7
tp117
a(I0
I0
F0.5
S'second'
p118
I4
tp119
a(I0
I23
F0.125
S'first'
p120
I4
tp121
a(I0
I127
F1.0
S'good'
p122
I4
tp123
a(I2
I11
F0.5
S'second'
p124
I4
tp125
a(I6
I43
F-0.375
g104
I4
tp126
a(I7
I43
F0.875
S'happy'
p127
I4
tp128
a(I13
I32
F0.125
S'first'
p129
I4
tp130
a(I13
I75
F1.0
S'good'
p131
I4
tp132
as(S'times'
p133
S'a'
p134
S'day'
p135
tp136
(lp137
(I0
I139
I0
S'least'
p138
I0
tp139
a(I7
I54
I0
S'few'
p140
I0
tp141
as(S'slide'
p142
S'out'
p143
S'keyboard'
p144
tp145
(lp146
(I0
I58
F-0.375
S'robust'
p147
I0
tp148
a(I8
I23
F-0.125
S'slow'
p149
I0
tp150
a(I13
I26
F0.875
S'nice'
p151
I0
tp152
a(I13
I26
F-0.125
S'overall'
p153
I0
tp154
a(I13
I106
F0.625
S'easy'
p155
I0
tp156
a(I0
I58
F-0.375
g147
I6
tp157
a(I0
I8
F-0.375
S'pull'
p158
I2
tp159
a(I2
I0
I0
S'full'
p160
I2
tp161
a(I3
I1
F0.875
S'nice'
p162
I2
tp163
a(I3
I1
F0.625
S'easy'
p164
I2
tp165
a(I6
I27
I0
g94
I2
tp166
a(I7
I10
I0
S'big'
p167
I2
tp168
a(I7
I13
I0
S'slower'
p169
I2
tp170
a(I8
I10
I0
S'physical'
p171
I2
tp172
a(I8
I23
F-0.125
g149
I2
tp173
a(I13
I26
F0.875
g151
I2
tp174
a(I13
I26
F-0.125
g153
I2
tp175
a(I13
I106
F0.625
g155
I2
tp176
as(S'text'
p177
S'messages'
p178
tp179
(lp180
(I6
I80
I0
S'few'
p181
I0
tp182
a(I6
I89
I0
S'text'
p183
I0
tp184
a(I6
I89
F0.375
S'new'
p185
I0
tp186
a(I6
I93
F0.625
g5
I0
tp187
a(I6
I94
F-0.5
g7
I0
tp188
a(I6
I94
I0
g9
I0
tp189
a(I6
I97
F-0.75
S'single'
p190
I0
tp191
a(I6
I97
F0.375
g11
I0
tp192
a(I6
I97
F0.375
g13
I0
tp193
a(I6
I97
F-0.125
S'delete'
p194
I0
tp195
a(I6
I97
I0
S'old'
p196
I0
tp197
a(I6
I98
I0
S'full'
p198
I0
tp199
a(I6
I98
F0.375
g15
I0
tp200
a(I6
I98
F-0.125
S'delete'
p201
I0
tp202
a(I6
I98
I0
S'old'
p203
I0
tp204
a(I6
I98
I0
S'old'
p205
I0
tp206
a(I0
I41
I0
S'many'
p207
I18
tp208
a(I6
I93
F0.625
g5
I18
tp209
a(I6
I94
F-0.5
g7
I18
tp210
a(I6
I94
I0
g9
I18
tp211
a(I6
I97
F0.375
g11
I18
tp212
a(I6
I97
F0.375
g13
I18
tp213
a(I6
I98
F0.375
g15
I18
tp214
a(I6
I108
F0.125
S'able'
p215
I18
tp216
a(I6
I80
I0
g181
I1
tp217
a(I6
I89
I0
g183
I1
tp218
a(I6
I89
F0.375
g185
I1
tp219
a(I6
I97
F-0.75
g190
I1
tp220
a(I6
I97
F-0.125
g194
I1
tp221
a(I6
I97
I0
g196
I1
tp222
a(I6
I98
I0
g198
I1
tp223
a(I6
I98
F-0.125
g201
I1
tp224
a(I6
I98
I0
g203
I1
tp225
a(I6
I98
I0
g205
I1
tp226
a(I6
I99
F-0.125
S'delete'
p227
I1
tp228
as(S'black'
p229
tp230
(lp231
(I6
I51
I0
S'big'
p232
I19
tp233
as(S'recent'
p234
S'calls'
p235
tp236
(lp237
(I2
I5
F0.25
S'recent'
p238
I0
tp239
a(I2
I6
F0.25
S'recent'
p240
I0
tp241
a(I2
I7
F0.25
S'recent'
p242
I0
tp243
a(I1
I1
I0
S'text'
p244
I0
tp245
a(I1
I9
I0
S'many'
p246
I0
tp247
a(I2
I5
F0.25
g238
I0
tp248
a(I2
I6
F0.25
g240
I0
tp249
a(I2
I7
F0.25
g242
I0
tp250
a(I7
I14
F0.5
S'clear'
p251
I0
tp252
as(S'data'
p253
S'plan'
p254
tp255
(lp256
(I7
I86
F-0.375
S'simple'
p257
I0
tp258
as(S'texting'
p259
tp260
(lp261
(I2
I0
I0
S'great'
p262
I0
tp263
as(S'touch'
p264
S'screen'
p265
tp266
(lp267
(I1
I16
F0.5
S'touch'
p268
I2
tp269
a(I1
I18
F0.5
S'touch'
p270
I2
tp271
a(I4
I2
F0.5
S'touch'
p272
I2
tp273
a(I6
I28
F0.5
S'touch'
p274
I2
tp275
a(I6
I50
F0.5
S'touch'
p276
I2
tp277
a(I6
I78
F0.5
S'touch'
p278
I2
tp279
a(I6
I93
F0.5
S'touch'
p280
I2
tp281
a(I7
I8
F0.25
S'responsive'
p282
I2
tp283
a(I7
I29
F0.5
S'touch'
p284
I2
tp285
a(I7
I52
F-0.625
S'other'
p286
I2
tp287
a(I8
I10
F0.25
S'responsive'
p288
I2
tp289
a(I11
I13
I0
S'faster'
p290
I2
tp291
a(I13
I48
F0.5
S'touch'
p292
I2
tp293
a(I13
I69
F0.5
S'touch'
p294
I2
tp295
a(I13
I106
F0.5
S'touch'
p296
I2
tp297
as.