(dp0
(S'problem'
p1
tp2
(lp3
(I21
I0
I0
S'same'
p4
tp5
a(I21
I0
F0.5
S'bold'
p6
tp7
a(I39
I12
F-0.375
S'simple'
p8
tp9
a(I81
I5
I0
S'same'
p10
tp11
a(I100
I2
I0
S'fast'
p12
tp13
a(I136
I8
I0
S'same'
p14
tp15
as(S'memory'
p16
S'card'
p17
tp18
(lp19
(I42
I1
I0
S'pouch'
p20
tp21
a(I42
I2
I0
S'pouch'
p22
tp23
a(I42
I2
F0.375
S'available'
p24
tp25
as(S'previous'
p26
S'bold'
p27
tp28
(lp29
(I122
I14
F-0.5
S'sure'
p30
tp31
as(S'battery'
p32
S'life'
p33
tp34
(lp35
(I7
I2
F1.0
S'good'
p36
tp37
a(I39
I6
F0.375
S'similar'
p38
tp39
a(I57
I25
F-0.625
S'bad'
p40
tp41
a(I103
I3
I0
S'same'
p42
tp43
as(S'purchase'
p44
tp45
(lp46
(I39
I2
F0.25
S'recent'
p47
tp48
a(I47
I5
F-0.375
S'smooth'
p49
tp50
as(S'el'
p51
S'celular'
p52
tp53
(lp54
(I155
I1
I0
S'cable'
p55
tp56
as(S'keyboard'
p57
tp58
(lp59
(I2
I0
F1.0
S'best'
p60
tp61
a(I50
I17
F0.375
S'much'
p62
tp63
a(I85
I3
F-0.375
S'smaller'
p64
tp65
as(S'google'
p66
tp67
(lp68
(I57
I35
F-0.125
S'overall'
p69
tp70
as(S'email'
p71
tp72
(lp73
(I8
I0
F0.5
S'personal'
p74
tp75
a(I8
I3
F0.5
S'personal'
p76
tp77
a(I56
I31
F0.375
S'dependable'
p78
tp79
a(I56
I31
F-0.5
S'international'
p80
tp81
a(I109
I6
F-0.625
S'other'
p82
tp83
as(S'que'
p84
S'el'
p85
tp86
(lp87
(I155
I1
I0
g55
tp88
as(S'3'
p89
S'days'
p90
tp91
(lp92
(I84
I4
I0
S'lasted'
p93
tp94
a(I86
I3
F1.0
S'good'
p95
tp96
a(I112
I0
F-0.5
S'less'
p97
tp98
as(S'track'
p99
S'pad'
p100
tp101
(lp102
(I35
I3
F0.375
S'new'
p103
tp104
a(I35
I4
F0.25
S'responsive'
p105
tp106
a(I48
I1
F0.625
S'square'
p107
tp108
a(I129
I2
F0.5
S'touch'
p109
tp110
a(I129
I2
F0.875
S'nice'
p111
tp112
as(S'da'
p113
S'ntilde'
p114
tp115
(lp116
(I72
I0
I0
S'se'
p117
tp118
as(S'screen'
p119
tp120
(lp121
(I2
I0
F0.5
S'clear'
p122
tp123
a(I2
I0
F-0.75
S'bright'
p124
tp125
a(I27
I10
F0.5
S'touch'
p126
tp127
a(I43
I0
F1.0
S'good'
p128
tp129
a(I56
I21
F-0.375
S'small'
p130
tp131
a(I62
I5
F-0.625
S'lighter'
p132
tp133
a(I62
I7
F1.0
S'best'
p134
tp135
a(I86
I1
F0.875
S'nice'
p136
tp137
a(I97
I1
I0
S'big'
p138
tp139
a(I105
I0
F-0.25
S'white'
p140
tp141
a(I109
I2
I0
S'big'
p142
tp143
a(I109
I2
F-0.375
S'small'
p144
tp145
a(I122
I5
I0
S'crisp'
p146
tp147
a(I122
I30
F0.5
S'bold'
p148
tp149
a(I122
I30
I0
S'big'
p150
tp151
a(I125
I3
I0
S'great'
p152
tp153
a(I125
I3
F1.0
S'better'
p154
tp155
a(I125
I3
F0.5
S'touch'
p156
tp157
a(I139
I4
F-0.75
S'difficult'
p158
tp159
a(I139
I13
F-0.75
S'difficult'
p160
tp161
a(I144
I3
I0
S'great'
p162
tp163
as(S'email'
p164
S'accounts'
p165
tp166
(lp167
(I109
I6
F-0.625
g82
tp168
as(S'service'
p169
tp170
(lp171
(I37
I4
I0
S'most'
p172
tp173
a(I83
I1
F1.0
S'good'
p174
tp175
a(I98
I0
I0
S'quick'
p176
tp177
a(I109
I7
F0.5
S'expensive'
p178
tp179
a(I109
I7
I0
S'great'
p180
tp181
as(S'problems'
p182
tp183
(lp184
(I111
I0
I0
S'hardware'
p185
tp186
a(I139
I0
I0
S'few'
p187
tp188
a(I139
I0
I0
S'critical'
p189
tp190
a(I139
I3
I0
S'same'
p191
tp192
as(S'touch'
p193
tp194
(lp195
(I17
I1
F0.375
S'new'
p196
tp197
as(S'camera'
p198
tp199
(lp200
(I43
I0
F1.0
S'good'
p201
tp202
a(I56
I17
F1.0
S'better'
p203
tp204
a(I56
I17
F1.0
S'good'
p205
tp206
a(I57
I20
I0
S'rim'
p207
tp208
a(I57
I24
F0.125
S'digital'
p209
tp210
a(I62
I9
F-0.75
S'likely'
p211
tp212
a(I62
I9
F1.0
S'good'
p213
tp214
as(S'desktop'
p215
S'manager'
p216
tp217
(lp218
(I120
I7
F-0.5
S'open'
p219
tp220
a(I120
I7
F0.375
S'new'
p221
tp222
as(S'better'
p223
tp224
(lp225
(I39
I3
F0.375
S'much'
p226
tp227
a(I54
I1
I0
S'faster'
p228
tp229
as(S'2gb'
p230
S'memory'
p231
tp232
(lp233
(I42
I1
I0
g20
tp234
as(S'take'
p235
tp236
(lp237
(I134
I0
F0.875
S'music'
p238
tp239
as(S'nternational'
p240
S'version'
p241
tp242
(lp243
(I3
I0
F-0.5
S'international'
p244
tp245
a(I25
I3
F-0.5
S'international'
p246
tp247
a(I25
I5
F-0.5
S'international'
p248
tp249
a(I31
I0
F-0.5
S'international'
p250
tp251
a(I130
I0
F0.5
S'bold'
p252
tp253
a(I130
I0
F-0.5
S'international'
p254
tp255
as(S'quality'
p256
tp257
(lp258
(I2
I0
F1.0
S'good'
p259
tp260
a(I2
I1
I0
S'signal'
p261
tp262
a(I10
I13
F0.75
S'due'
p263
tp264
a(I10
I16
F-0.25
S'higher'
p265
tp266
a(I18
I0
F-0.25
S'low'
p267
tp268
a(I47
I7
I0
S'high'
p269
tp270
a(I50
I5
F-0.875
S'inferior'
p271
tp272
a(I56
I12
F-0.875
S'worst'
p273
tp274
a(I144
I1
F0.125
S'spectacular'
p275
tp276
as(S'memory'
p277
tp278
(lp279
(I42
I1
I0
g20
tp280
as(S'life'
p281
tp282
(lp283
(I57
I25
F-0.625
g40
tp284
a(I103
I3
I0
g42
tp285
as(S'da'
p286
S'ntilde'
p287
S'o'
p288
tp289
(lp290
(I72
I0
I0
g117
tp291
as(S'9700'
p292
S'bold'
p293
tp294
(lp295
(I47
I0
F-0.125
S'blackberry'
p296
tp297
as(S'9700'
p298
S'smartphone'
p299
tp300
(lp301
(I0
I0
F0.125
S'first'
p302
tp303
a(I31
I0
F0.5
S'bold'
p304
tp305
a(I31
I0
F0.25
S'unlocked'
p306
tp307
as(S'things'
p308
tp309
(lp310
(I2
I0
F1.0
S'best'
p311
tp312
a(I28
I33
F-0.75
S'little'
p313
tp314
a(I47
I5
F-0.625
S'other'
p315
tp316
a(I47
I5
F0.875
S'important'
p317
tp318
a(I47
I16
F-0.625
S'other'
p319
tp320
a(I47
I16
F0.875
S'important'
p321
tp322
a(I57
I4
F0.5
S'bold'
p323
tp324
a(I57
I39
I0
S'different'
p325
tp326
a(I62
I3
F1.0
S'good'
p327
tp328
a(I62
I3
F0.5
S'bold'
p329
tp330
as(S'es'
p331
S'de'
p332
tp333
(lp334
(I72
I0
F0.5
S'compatible'
p335
tp336
a(I155
I1
F0.25
S'original'
p337
tp338
a(I155
I1
F0.25
S'original'
p339
tp340
as(S'trackball'
p341
tp342
(lp343
(I10
I13
F-0.625
S'bad'
p344
tp345
a(I10
I13
I0
S'old'
p346
tp347
a(I57
I10
F1.0
S'good'
p348
tp349
a(I57
I11
I0
S'great'
p350
tp351
a(I57
I15
F-0.125
S'former'
p352
tp353
a(I109
I3
F0.125
S'first'
p354
tp355
a(I109
I3
F0.375
S'new'
p356
tp357
a(I109
I3
I0
S'old'
p358
tp359
as(S'third'
p360
S'party'
p361
tp362
(lp363
(I25
I0
I0
S'third'
p364
tp365
a(I50
I14
I0
S'third'
p366
tp367
a(I50
I19
I0
S'third'
p368
tp369
as(S'using'
p370
tp371
(lp372
(I56
I4
F0.625
S'successful'
p373
tp374
as(S'less'
p375
tp376
(lp377
(I39
I3
F0.375
S'much'
p378
tp379
as(S'blackberry'
p380
S'os'
p381
tp382
(lp383
(I27
I7
I0
S'advocate'
p384
tp385
a(I47
I0
F-0.375
S'black'
p386
tp387
a(I57
I19
F0.375
S'new'
p388
tp389
a(I57
I24
F0.125
S'first'
p390
tp391
a(I57
I38
F0.375
S'new'
p392
tp393
a(I57
I38
F0.5
S'compatible'
p394
tp395
a(I62
I0
I0
S'current'
p396
tp397
a(I112
I0
F-0.375
S'black'
p398
tp399
a(I113
I0
F-0.375
S'black'
p400
tp401
a(I134
I0
F0.5
S'bold'
p402
tp403
as(S'touch'
p404
S'pad'
p405
tp406
(lp407
(I17
I1
F0.375
g196
tp408
a(I17
I1
F0.875
S'nice'
p409
tp410
a(I129
I2
F0.5
g109
tp411
a(I129
I2
F0.875
g111
tp412
as(S'user'
p413
tp414
(lp415
(I56
I25
I0
S'big'
p416
tp417
a(I56
I25
F0.375
S'audible'
p418
tp419
a(I62
I0
F0.875
S'happy'
p420
tp421
a(I62
I0
F0.875
S'happier'
p422
tp423
a(I62
I3
I0
S'more'
p424
tp425
as(S'excellent'
p426
tp427
(lp428
(I35
I1
I0
S'such'
p429
tp430
a(I35
I5
I0
S'rim'
p431
tp432
as(S'product'
p433
tp434
(lp435
(I103
I0
F0.5
S'bold'
p436
tp437
a(I103
I0
I0
S'great'
p438
tp439
a(I126
I0
F0.875
S'happy'
p440
tp441
a(I126
I0
F-0.25
S'defect'
p442
tp443
a(I126
I0
F-0.625
S'free'
p444
tp445
a(I149
I0
I0
S'great'
p446
tp447
a(I152
I0
F-0.636
S'genuine'
p448
tp449
as(S'battery'
p450
tp451
(lp452
(I7
I2
F1.0
g36
tp453
a(I39
I6
F0.375
g38
tp454
a(I50
I1
I0
S'plastic'
p455
tp456
a(I50
I1
F0.25
S'used'
p457
tp458
a(I86
I3
F0.125
S'last'
p459
tp460
a(I121
I1
F1.0
S'good'
p461
tp462
a(I122
I11
F1.0
S'best'
p463
tp464
as(S'browser'
p465
tp466
(lp467
(I10
I13
F-0.875
S'awful'
p468
tp469
a(I56
I24
I0
S'standard'
p470
tp471
a(I56
I24
F-0.625
S'bad'
p472
tp473
a(I62
I11
F1.0
S'good'
p474
tp475
a(I122
I45
F0.125
S'native'
p476
tp477
as(S'cell'
p478
tp479
(lp480
(I20
I2
I0
S'own'
p481
tp482
a(I25
I0
F-0.75
S'wrong'
p483
tp484
a(I25
I0
F-0.625
S'bad'
p485
tp486
a(I25
I0
F0.75
S'receive'
p487
tp488
a(I25
I0
F0.375
S'new'
p489
tp490
a(I29
I0
F1.0
S'good'
p491
tp492
a(I29
I0
F0.375
S'new'
p493
tp494
as(S'blackberry'
p495
S'bold'
p496
tp497
(lp498
(I2
I1
I0
S'next'
p499
tp500
a(I20
I14
F1.0
S'best'
p501
tp502
a(I35
I0
F0.5
S'bold'
p503
tp504
a(I40
I4
F-0.875
S'hard'
p505
tp506
a(I47
I0
F-0.125
g296
tp507
a(I57
I24
F0.125
S'first'
p508
tp509
a(I57
I24
F0.125
g390
tp510
a(I62
I3
F0.875
S'important'
p511
tp512
a(I62
I8
F1.0
S'good'
p513
tp514
a(I79
I0
I0
S'latest'
p515
tp516
a(I120
I5
I0
S'old'
p517
tp518
a(I134
I0
F0.5
g402
tp519
as(S'thing'
p520
tp521
(lp522
(I2
I0
I0
S'least'
p523
tp524
a(I2
I1
I0
S'great'
p525
tp526
a(I22
I0
I0
S'download'
p527
tp528
a(I43
I0
F-0.625
S'bad'
p529
tp530
a(I78
I0
I0
S'only'
p531
tp532
a(I78
I0
F-0.625
S'bad'
p533
tp534
a(I122
I4
F0.5
S'second'
p535
tp536
as(S'device'
p537
tp538
(lp539
(I2
I0
F1.0
S'good'
p540
tp541
a(I2
I1
I0
S'great'
p542
tp543
a(I10
I15
I0
S'internet'
p544
tp545
a(I39
I6
I0
S'same'
p546
tp547
a(I62
I7
F-0.625
S'lighter'
p548
tp549
a(I89
I2
F-0.75
S'little'
p550
tp551
a(I97
I1
F-0.375
S'small'
p552
tp553
a(I122
I10
F-0.25
S'disappointed'
p554
tp555
a(I122
I32
F-0.5
S'open'
p556
tp557
a(I122
I32
F0.5
S'whole'
p558
tp559
as(S'bold'
p560
S'9700'
p561
S'smartphone'
p562
tp563
(lp564
(I0
I0
F0.125
g302
tp565
a(I31
I0
F0.5
g304
tp566
a(I31
I0
F0.25
g306
tp567
a(I47
I0
F-0.125
g296
tp568
as(S'cable'
p569
S'usb'
p570
tp571
(lp572
(I47
I5
I0
S'cable'
p573
tp574
a(I155
I1
I0
S'cable'
p575
tp576
as(S'blackberry'
p577
tp578
(lp579
(I12
I4
F1.0
S'best'
p580
tp581
a(I20
I5
F0.375
S'seasoned'
p582
tp583
a(I20
I14
F1.0
g501
tp584
a(I27
I7
I0
g384
tp585
a(I35
I0
F0.5
g503
tp586
a(I40
I4
F-0.875
g505
tp587
a(I57
I19
F0.375
g388
tp588
a(I57
I24
F0.125
g390
tp589
a(I57
I38
F0.375
g392
tp590
a(I60
I0
F1.0
S'better'
p591
tp592
a(I62
I0
I0
g396
tp593
a(I62
I3
F0.875
g511
tp594
a(I62
I8
F1.0
g513
tp595
a(I79
I0
I0
g515
tp596
a(I86
I0
F0.125
S'first'
p597
tp598
a(I109
I5
I0
S'old'
p599
tp600
a(I116
I0
F0.125
S'last'
p601
tp602
a(I120
I5
I0
g517
tp603
a(I134
I0
F0.5
g402
tp604
a(I143
I3
F0.25
S'original'
p605
tp606
a(I153
I0
F1.0
S'best'
p607
tp608
as(S'trackpad'
p609
tp610
(lp611
(I57
I10
I0
S'great'
p612
tp613
a(I57
I14
F0.375
S'new'
p614
tp615
a(I122
I3
F0.125
S'first'
p616
tp617
a(I122
I3
F0.625
S'kind'
p618
tp619
a(I122
I3
F-0.625
S'unusual'
p620
tp621
a(I144
I2
F-0.375
S'small'
p622
tp623
a(I144
I2
F0.25
S'sharp'
p624
tp625
as(S'data'
p626
tp627
(lp628
(I8
I2
F0.375
S'available'
p629
tp630
a(I139
I0
I0
S'monthly'
p631
tp632
as(S'time'
p633
tp634
(lp635
(I10
I6
I0
S'normal'
p636
tp637
a(I16
I5
F0.625
S'aware'
p638
tp639
a(I16
I5
I0
S'next'
p640
tp641
a(I20
I16
F0.125
S'first'
p642
tp643
a(I28
I26
I0
S'same'
p644
tp645
a(I62
I10
F1.0
S'good'
p646
tp647
a(I62
I10
F-0.75
S'likely'
p648
tp649
a(I62
I10
F0.375
S'much'
p650
tp651
a(I62
I16
F0.125
S'able'
p652
tp653
a(I62
I16
I0
S'many'
p654
tp655
a(I111
I2
F-0.5
S'long'
p656
tp657
a(I122
I39
F0.375
S'mean'
p658
tp659
a(I122
I46
F-0.75
S'single'
p660
tp661
a(I135
I0
F0.125
S'first'
p662
tp663
as(S'usb'
p664
S'cable'
p665
tp666
(lp667
(I47
I5
I0
g573
tp668
a(I155
I1
I0
g575
tp669
as(S'international'
p670
S'version'
p671
tp672
(lp673
(I3
I0
F-0.5
g244
tp674
a(I25
I3
F-0.5
g246
tp675
a(I25
I5
F-0.5
g248
tp676
a(I31
I0
F-0.5
g250
tp677
a(I130
I0
F0.5
g252
tp678
a(I130
I0
F-0.5
g254
tp679
as(S'card'
p680
tp681
(lp682
(I42
I2
I0
g22
tp683
a(I42
I2
F0.375
g24
tp684
a(I73
I0
F0.25
S'original'
p685
tp686
a(I73
I0
F-0.375
S'manual'
p687
tp688
a(I120
I9
F1.0
S'good'
p689
tp690
as(S'data'
p691
S'plan'
p692
tp693
(lp694
(I8
I2
F0.375
g629
tp695
a(I129
I9
F0.75
S'worth'
p696
tp697
a(I139
I0
I0
g631
tp698
as(S'much'
p699
S'better'
p700
tp701
(lp702
(I39
I3
F0.375
g226
tp703
as(S'bold'
p704
tp705
(lp706
(I2
I1
I0
g499
tp707
a(I35
I1
F0.375
S'new'
p708
tp709
a(I35
I2
F0.375
S'new'
p710
tp711
a(I47
I0
F-0.125
g296
tp712
a(I57
I0
F-0.125
S'former'
p713
tp714
a(I57
I0
F0.375
S'new'
p715
tp716
a(I57
I24
F0.125
g508
tp717
a(I122
I4
I0
S'old'
p718
tp719
a(I122
I8
F-0.5
S'less'
p720
tp721
a(I122
I8
F0.25
S'original'
p722
tp723
a(I122
I14
F-0.5
g30
tp724
as(S'looking'
p725
tp726
(lp727
(I35
I7
I0
S'great'
p728
tp729
a(I99
I9
F0.625
S'sophisticated'
p730
tp731
as(S'months'
p732
tp733
(lp734
(I22
I0
F-0.125
S'mine'
p735
tp736
a(I27
I9
F-0.25
S'past'
p737
tp738
a(I27
I9
I0
S'few'
p739
tp740
a(I50
I0
F-0.25
S'tear'
p741
tp742
a(I136
I2
F0.125
S'first'
p743
tp744
as(S'apps'
p745
tp746
(lp747
(I28
I36
F0.375
S'available'
p748
tp749
a(I28
I36
F-0.625
S'free'
p750
tp751
a(I28
I37
I0
S'many'
p752
tp753
a(I40
I2
I0
S'many'
p754
tp755
a(I40
I2
I0
S'different'
p756
tp757
a(I40
I6
I0
S'many'
p758
tp759
a(I57
I26
F0.125
S'first'
p760
tp761
a(I57
I26
F-0.625
S'free'
p762
tp763
a(I154
I0
I0
S'great'
p764
tp765
as(S'blackberries'
p766
tp767
(lp768
(I23
I3
F-0.75
S'short'
p769
tp770
a(I56
I30
F-0.75
S'sick'
p771
tp772
a(I62
I2
I0
S'current'
p773
tp774
a(I62
I17
F1.0
S'best'
p775
tp776
as(S'days'
p777
tp778
(lp779
(I53
I4
I0
S'few'
p780
tp781
a(I84
I2
F0.5
S'bold'
p782
tp783
a(I84
I2
I0
S'third'
p784
tp785
a(I84
I2
F0.5
S'bold'
p786
tp787
a(I84
I4
I0
g93
tp788
a(I86
I3
F1.0
g95
tp789
a(I112
I0
F-0.5
g97
tp790
a(I135
I0
I0
S'few'
p791
tp792
a(I135
I0
I0
S'later'
p793
tp794
as(S'google'
p795
S'maps'
p796
tp797
(lp798
(I28
I29
F-0.25
S'google'
p799
tp800
a(I28
I31
F-0.25
S'google'
p801
tp802
a(I57
I26
F-0.625
S'other'
p803
tp804
a(I57
I26
F-0.25
S'google'
p805
tp806
a(I57
I35
F-0.125
g69
tp807
as(S'fast'
p808
tp809
(lp810
(I28
I24
I0
S'same'
p811
tp812
as.