(dp0
(S'and'
p1
S'microsd'
p2
S'slot'
p3
tp4
(lp5
(I128
I6
F0.625
S'easy'
p6
tp7
as(S'keyboard'
p8
tp9
(lp10
(I0
I1
F1.0
S'good'
p11
tp12
a(I28
I6
F0.5
S'functional'
p13
tp14
a(I35
I1
F0.625
S'easy'
p15
tp16
a(I44
I11
I0
S'soft'
p17
tp18
a(I53
I5
F0.625
S'easy'
p19
tp20
a(I53
I5
F1.0
S'good'
p21
tp22
a(I89
I18
I0
S'many'
p23
tp24
a(I91
I3
F0.625
S'easy'
p25
tp26
a(I91
I3
I0
S'full'
p27
tp28
a(I95
I3
F0.625
S'easy'
p29
tp30
a(I117
I4
I0
S'physical'
p31
tp32
a(I122
I3
I0
S'full'
p33
tp34
a(I127
I5
I0
S'full'
p35
tp36
a(I127
I5
F0.875
S'nice'
p37
tp38
a(I130
I2
F0.875
S'nice'
p39
tp40
a(I136
I0
F-0.75
S'comfortable'
p41
tp42
a(I148
I0
I0
S'full'
p43
tp44
a(I151
I0
I0
S'real'
p45
tp46
a(I151
I0
I0
S'physical'
p47
tp48
a(I151
I0
F-0.75
S'comfortable'
p49
tp50
a(I151
I0
F1.0
S'good'
p51
tp52
a(I163
I10
F0.875
S'music'
p53
tp54
a(I186
I2
I0
S'full'
p55
tp56
a(I186
I9
F-0.375
S'small'
p57
tp58
a(I203
I5
I0
S'large'
p59
tp60
a(I216
I2
I0
S'full'
p61
tp62
as(S'u'
p63
S's'
p64
S'version'
p65
tp66
(lp67
(I33
I7
I0
S'old'
p68
tp69
a(I33
I7
F0.375
S'new'
p70
tp71
a(I148
I5
F0.375
S'new'
p72
tp73
a(I184
I2
I0
S'mobile'
p74
tp75
a(I191
I16
I0
S'specific'
p76
tp77
as(S'call'
p78
S'quality'
p79
tp80
(lp81
(I28
I11
F0.5
S'clear'
p82
tp83
a(I28
I11
F-0.5
S'call'
p84
tp85
a(I28
I11
I0
S'great'
p86
tp87
a(I28
I16
F1.0
S'good'
p88
tp89
a(I28
I16
I0
S'few'
p90
tp91
a(I28
I16
F-0.25
S'dropped'
p92
tp93
a(I28
I33
I0
S'great'
p94
tp95
a(I54
I0
F-0.625
S'average'
p96
tp97
a(I57
I5
I0
S'great'
p98
tp99
a(I57
I5
I0
S'crystal'
p100
tp101
a(I57
I5
F0.5
S'clear'
p102
tp103
a(I59
I0
I0
S'great'
p104
tp105
a(I71
I4
F-0.5
S'poor'
p106
tp107
a(I71
I4
F-0.5
S'poor'
p108
tp109
a(I117
I5
F1.0
S'good'
p110
tp111
a(I151
I1
I0
S'high'
p112
tp113
a(I152
I9
I0
S'great'
p114
tp115
a(I155
I3
F0.25
S'stellar'
p116
tp117
a(I170
I15
I0
S'signal'
p118
tp119
a(I170
I15
F0.625
S'perfect'
p120
tp121
a(I175
I9
F-0.5
S'call'
p122
tp123
a(I216
I2
I0
S'great'
p124
tp125
as(S'full'
p126
S'qwerty'
p127
S'keyboard'
p128
tp129
(lp130
(I33
I4
I0
S'full'
p131
tp132
a(I64
I1
I0
S'full'
p133
tp134
as(S'years'
p135
tp136
(lp137
(I25
I1
I0
S'more'
p138
tp139
a(I36
I3
I0
S'old'
p140
tp141
a(I44
I10
F-0.625
S'light'
p142
tp143
a(I44
I10
F-0.625
S'light'
p144
tp145
a(I47
I0
F0.125
S'last'
p146
tp147
a(I58
I2
F0.5
S'strong'
p148
tp149
a(I58
I2
I0
S'many'
p150
tp151
a(I58
I2
F-0.875
S'hard'
p152
tp153
a(I114
I4
I0
S'few'
p154
tp155
a(I114
I4
F0.125
S'first'
p156
tp157
as(S'calendar'
p158
tp159
(lp160
(I47
I6
I0
S'e-mail'
p161
tp162
a(I89
I21
I0
S'local'
p163
tp164
as(S'quality'
p165
tp166
(lp167
(I28
I1
I0
S'high'
p168
tp169
a(I28
I11
F0.5
g82
tp170
a(I28
I11
F-0.5
g84
tp171
a(I28
I11
I0
g86
tp172
a(I28
I16
I0
g90
tp173
a(I28
I16
F-0.25
g92
tp174
a(I34
I21
F0.5
S'functional'
p175
tp176
a(I54
I0
F-0.625
g96
tp177
a(I57
I5
I0
g100
tp178
a(I57
I5
F0.5
g102
tp179
a(I67
I2
F0.5
S'reasonable'
p180
tp181
a(I71
I4
F-0.5
g106
tp182
a(I71
I4
F-0.5
g108
tp183
a(I98
I2
I0
S'high'
p184
tp185
a(I114
I2
I0
S'great'
p186
tp187
a(I117
I5
F1.0
g110
tp188
a(I133
I0
I0
S'great'
p189
tp190
a(I142
I2
F1.0
S'good'
p191
tp192
a(I142
I2
F1.0
S'good'
p193
tp194
a(I142
I4
F1.0
S'good'
p195
tp196
a(I151
I1
I0
g112
tp197
a(I152
I9
I0
g114
tp198
a(I155
I3
F0.25
g116
tp199
a(I168
I0
F1.0
S'good'
p200
tp201
a(I170
I15
I0
g118
tp202
a(I170
I15
F0.625
g120
tp203
a(I175
I9
F-0.5
g122
tp204
a(I176
I3
I0
S'great'
p205
tp206
a(I191
I7
F1.0
S'good'
p207
tp208
a(I216
I2
I0
g124
tp209
as(S'usb'
p210
S'cable'
p211
tp212
(lp213
(I107
I18
F0.625
S'necessary'
p214
tp215
a(I125
I32
I0
S'least'
p216
tp217
a(I157
I5
F-0.5
S'sure'
p218
tp219
a(I175
I7
I0
S'cable'
p220
tp221
as(S'applications'
p222
tp223
(lp224
(I8
I4
I0
S'most'
p225
tp226
a(I39
I6
I0
S'such'
p227
tp228
a(I67
I1
F0.5
S'compatible'
p229
tp230
a(I67
I2
F0.25
S'favourite'
p231
tp232
a(I87
I4
F1.0
S'best'
p233
tp234
a(I89
I18
F-0.5
S'open'
p235
tp236
a(I98
I9
F0.375
S'available'
p237
tp238
a(I99
I3
I0
S'few'
p239
tp240
a(I135
I1
I0
S'great'
p241
tp242
a(I151
I0
F-0.375
S'disable'
p243
tp244
as(S'sd'
p245
S'card'
p246
tp247
(lp248
(I60
I3
I0
S'sd'
p249
tp250
a(I212
I5
F0.375
S'much'
p251
tp252
a(I212
I5
I0
S'least'
p253
tp254
as(S'excellent'
p255
tp256
(lp257
(I28
I4
F1.0
S'good'
p258
tp259
a(I92
I5
F-0.125
S'overall'
p260
tp261
as(S'store'
p262
tp263
(lp264
(I33
I7
F0.625
S'accessible'
p265
tp266
a(I34
I11
F0.5
S'live'
p267
tp268
a(I117
I14
F0.625
S'easy'
p269
tp270
as(S'software'
p271
tp272
(lp273
(I0
I2
F0.625
S'easy'
p274
tp275
a(I11
I4
I0
S'latest'
p276
tp277
a(I102
I0
I0
S'great'
p278
tp279
a(I107
I4
I0
S'current'
p280
tp281
a(I107
I4
F-0.625
S'free'
p282
tp283
a(I163
I10
F-0.625
S'free'
p284
tp285
as(S'nokia'
p286
tp287
(lp288
(I4
I9
I0
S'many'
p289
tp290
a(I22
I5
F1.0
S'best'
p291
tp292
a(I28
I14
I0
S'few'
p293
tp294
a(I33
I12
I0
S'least'
p295
tp296
a(I34
I26
F1.0
S'good'
p297
tp298
a(I38
I6
F-0.625
S'bad'
p299
tp300
a(I45
I0
F0.875
S'happy'
p301
tp302
a(I47
I4
F0.125
S'able'
p303
tp304
a(I58
I8
I0
S'angelic'
p305
tp306
a(I58
I10
F0.75
S'beautiful'
p307
tp308
a(I64
I8
I0
S'website'
p309
tp310
a(I74
I3
F-0.625
S'other'
p311
tp312
a(I76
I8
F-0.625
S'free'
p313
tp314
a(I90
I1
F-0.625
S'want'
p315
tp316
a(I108
I15
F1.0
S'best'
p317
tp318
a(I120
I0
F-0.625
S'other'
p319
tp320
a(I122
I5
F0.5
S'loyal'
p321
tp322
a(I123
I0
I0
S'old'
p323
tp324
a(I156
I0
F0.875
S'happy'
p325
tp326
a(I163
I16
F-0.5
S'weak'
p327
tp328
a(I171
I8
I0
S'old'
p329
tp330
a(I171
I8
F-0.5
S'regular'
p331
tp332
a(I171
I9
I0
S'old'
p333
tp334
a(I187
I2
I0
S'big'
p335
tp336
a(I189
I0
F0.625
S'easy'
p337
tp338
a(I191
I13
I0
S'next'
p339
tp340
a(I198
I1
I0
S'rebate'
p341
tp342
as(S'microsd'
p343
S'slot'
p344
tp345
(lp346
(I128
I6
F0.625
g6
tp347
as(S'sim'
p348
S'card'
p349
tp350
(lp351
(I4
I38
F0.375
S'new'
p352
tp353
a(I11
I4
F0.875
S'music'
p354
tp355
a(I53
I11
I0
S'local'
p356
tp357
a(I113
I1
I0
S'great'
p358
tp359
a(I125
I35
F-0.125
S'slow'
p360
tp361
as(S'blackberry'
p362
tp363
(lp364
(I4
I1
F0.125
S'first'
p365
tp366
a(I9
I2
F0.875
S'happy'
p367
tp368
a(I9
I10
F0.125
S'able'
p369
tp370
a(I28
I0
I0
S'older'
p371
tp372
a(I34
I17
F1.0
S'good'
p373
tp374
a(I34
I20
F-0.625
S'bad'
p375
tp376
a(I125
I4
F0.25
S'powerful'
p377
tp378
a(I125
I19
F0.375
S'available'
p379
tp380
a(I170
I12
F-0.25
S'cheaper'
p381
tp382
a(I198
I2
I0
S'old'
p383
tp384
as(S'wi'
p385
S'fi'
p386
S'media'
p387
tp388
(lp389
(I137
I1
I0
S'basic'
p390
tp391
as(S'easy'
p392
S'to'
p393
S'use'
p394
tp395
(lp396
(I151
I1
I0
S'more'
p397
tp398
as(S'smartphone'
p399
tp400
(lp401
(I4
I38
F1.0
S'good'
p402
tp403
a(I8
I6
F0.375
S'no-brainer'
p404
tp405
a(I39
I0
I0
S'great'
p406
tp407
a(I40
I0
F0.125
S'first'
p408
tp409
a(I40
I2
F0.5
S'stylish'
p410
tp411
a(I80
I3
F-0.125
S'overall'
p412
tp413
a(I80
I3
I0
S'great'
p414
tp415
a(I125
I2
F0.25
S'unlocked'
p416
tp417
a(I144
I0
F0.125
S'first'
p418
tp419
a(I144
I1
F0.25
S'unlocked'
p420
tp421
a(I166
I0
F1.0
S'good'
p422
tp423
a(I205
I15
I0
S'great'
p424
tp425
a(I220
I3
F1.0
S'good'
p426
tp427
as(S'card'
p428
tp429
(lp430
(I11
I4
F0.875
g354
tp431
a(I53
I11
I0
g356
tp432
a(I60
I3
I0
g249
tp433
a(I80
I2
F-0.625
S'bad'
p434
tp435
a(I113
I1
I0
g358
tp436
a(I125
I35
F-0.125
g360
tp437
a(I212
I5
F0.375
g251
tp438
a(I212
I5
I0
g253
tp439
as(S'volume'
p440
tp441
(lp442
(I30
I13
F0.125
S'key'
p443
tp444
a(I33
I4
I0
S'great'
p445
tp446
a(I68
I9
F1.0
S'good'
p447
tp448
a(I171
I6
F0.125
S'dedicated'
p449
tp450
as(S'wifi'
p451
tp452
(lp453
(I11
I4
F-0.625
S'free'
p454
tp455
a(I56
I2
I0
S'great'
p456
tp457
a(I59
I4
F-0.625
S'free'
p458
tp459
a(I81
I1
F0.625
S'wanted'
p460
tp461
a(I97
I1
F1.0
S'good'
p462
tp463
a(I141
I3
F0.75
S'due'
p464
tp465
a(I149
I0
F0.125
S'key'
p466
tp467
a(I149
I0
F-0.375
S'small'
p468
tp469
a(I151
I0
F0.375
S'available'
p470
tp471
a(I154
I2
F-0.625
S'free'
p472
tp473
a(I175
I8
I0
S'fast'
p474
tp475
a(I191
I2
F0.375
S'available'
p476
tp477
a(I200
I0
F-0.75
S'unable'
p478
tp479
a(I216
I3
F1.0
S'good'
p480
tp481
as(S'problem'
p482
tp483
(lp484
(I114
I1
I0
S'only'
p485
tp486
a(I138
I3
F0.75
S'due'
p487
tp488
a(I143
I6
I0
S'only'
p489
tp490
a(I193
I3
I0
S'same'
p491
tp492
a(I222
I1
I0
S'only'
p493
tp494
as(S'email'
p495
tp496
(lp497
(I4
I29
I0
S'useful'
p498
tp499
a(I8
I5
I0
S'great'
p500
tp501
a(I28
I18
F0.625
S'superior'
p502
tp503
a(I33
I7
F0.5
S'whole'
p504
tp505
a(I39
I8
F0.625
S'easy'
p506
tp507
a(I53
I16
F-0.125
S'slow'
p508
tp509
a(I76
I8
I0
S'great'
p510
tp511
a(I89
I18
F0.375
S'new'
p512
tp513
a(I98
I9
F0.25
S'powerful'
p514
tp515
a(I107
I10
F0.75
S'receive'
p516
tp517
a(I163
I9
I0
S'internet'
p518
tp519
as(S'text'
p520
tp521
(lp522
(I99
I16
I0
S'minimal'
p523
tp524
a(I99
I16
F1.0
S'best'
p525
tp526
a(I125
I46
F0.375
S'extra'
p527
tp528
a(I163
I13
I0
S'threaded'
p529
tp530
a(I169
I1
F-0.5
S'heavy'
p531
tp532
as(S'price'
p533
tp534
(lp535
(I1
I1
F0.5
S'reasonable'
p536
tp537
a(I12
I0
F0.5
S'reasonable'
p538
tp539
a(I23
I0
I0
S'great'
p540
tp541
a(I37
I1
F0.5
S'reasonable'
p542
tp543
a(I67
I2
F0.5
S'reasonable'
p544
tp545
a(I78
I4
I0
S'great'
p546
tp547
a(I88
I0
I0
S'great'
p548
tp549
a(I98
I8
F1.0
S'good'
p550
tp551
a(I117
I4
F1.0
S'good'
p552
tp553
a(I125
I26
F-0.25
S'lower'
p554
tp555
a(I130
I1
I0
S'more'
p556
tp557
a(I130
I5
F-0.375
S'simple'
p558
tp559
a(I132
I9
I0
S'big'
p560
tp561
a(I137
I3
I0
S'unbelievable'
p562
tp563
a(I137
I13
F-0.5
S'sure'
p564
tp565
a(I148
I6
F1.0
S'good'
p566
tp567
a(I161
I0
F1.0
S'good'
p568
tp569
a(I176
I5
I0
S'great'
p570
tp571
as(S'like'
p572
tp573
(lp574
(I176
I0
F0.375
S'new'
p575
tp576
as(S'service'
p577
tp578
(lp579
(I27
I2
F1.0
S'good'
p580
tp581
a(I28
I24
F0.125
S'valid'
p582
tp583
a(I33
I5
F-0.625
S'free'
p584
tp585
a(I61
I0
F0.375
S'new'
p586
tp587
a(I197
I0
F-0.5
S'international'
p588
tp589
as(S'maps'
p590
tp591
(lp592
(I4
I19
F-0.25
S'google'
p593
tp594
a(I4
I19
F-0.25
S'google'
p595
tp596
a(I8
I5
F-0.25
S'google'
p597
tp598
a(I25
I8
F-0.25
S'google'
p599
tp600
a(I33
I8
F-0.625
S'free'
p601
tp602
a(I33
I10
F-0.25
S'google'
p603
tp604
a(I34
I17
F-0.25
S'google'
p605
tp606
a(I34
I17
I0
S'adequate'
p607
tp608
a(I47
I2
F-0.25
S'google'
p609
tp610
a(I89
I6
F-0.25
S'google'
p611
tp612
a(I89
I6
F-0.25
S'google'
p613
tp614
a(I89
I7
F-0.25
S'google'
p615
tp616
a(I99
I12
F-0.25
S'google'
p617
tp618
a(I101
I7
F-0.25
S'google'
p619
tp620
a(I151
I0
F-0.25
S'google'
p621
tp622
a(I171
I3
F-0.25
S'google'
p623
tp624
a(I171
I3
F0.75
S'worth'
p625
tp626
a(I171
I5
F-0.25
S'google'
p627
tp628
a(I200
I0
F-0.25
S'google'
p629
tp630
as(S'sync'
p631
tp632
(lp633
(I28
I13
I0
S'cable'
p634
tp635
a(I64
I8
F0.125
S'able'
p636
tp637
a(I92
I2
F-0.25
S'google'
p638
tp639
a(I125
I21
F0.375
S'reliable'
p640
tp641
a(I199
I4
F-0.875
S'worst'
p642
tp643
a(I203
I6
F0.125
S'able'
p644
tp645
as(S'2'
p646
S'mp'
p647
S'camera'
p648
tp649
(lp650
(I125
I29
F0.5
S'obvious'
p651
tp652
as(S'a'
p653
S'little'
p654
S'bit'
p655
tp656
(lp657
(I173
I1
I0
S'such'
p658
tp659
as(S'product'
p660
tp661
(lp662
(I16
I0
I0
S'great'
p663
tp664
a(I27
I2
F1.0
S'good'
p665
tp666
a(I63
I0
I0
S'great'
p667
tp668
a(I83
I1
F0.875
S'happy'
p669
tp670
a(I110
I0
F1.0
S'good'
p671
tp672
a(I115
I0
F1.0
S'good'
p673
tp674
a(I122
I9
F1.0
S'better'
p675
tp676
a(I124
I1
F0.875
S'happy'
p677
tp678
a(I124
I1
I0
S'rebate'
p679
tp680
a(I170
I6
F0.375
S'new'
p681
tp682
a(I178
I0
F0.625
S'easy'
p683
tp684
a(I178
I0
F1.0
S'good'
p685
tp686
a(I184
I0
I0
S'great'
p687
tp688
a(I219
I0
F1.0
S'good'
p689
tp690
a(I219
I1
I0
S'great'
p691
tp692
a(I220
I0
F1.0
S'good'
p693
tp694
as(S'setup'
p695
tp696
(lp697
(I89
I16
I0
S'initial'
p698
tp699
a(I125
I9
F0.625
S'easy'
p700
tp701
a(I125
I42
I0
S'write'
p702
tp703
as(S'features'
p704
tp705
(lp706
(I4
I4
I0
S'same'
p707
tp708
a(I5
I2
F-0.625
S'other'
p709
tp710
a(I14
I2
I0
S'great'
p711
tp712
a(I47
I6
F-0.625
S'other'
p713
tp714
a(I57
I4
I0
S'same'
p715
tp716
a(I59
I4
F-0.5
S'certain'
p717
tp718
a(I60
I1
I0
S'incredible'
p719
tp720
a(I60
I2
I0
S'many'
p721
tp722
a(I60
I4
F0.375
S'new'
p723
tp724
a(I67
I2
F0.625
S'easy'
p725
tp726
a(I71
I5
I0
S'great'
p727
tp728
a(I85
I1
I0
S'great'
p729
tp730
a(I88
I0
I0
S'many'
p731
tp732
a(I89
I13
I0
S'general'
p733
tp734
a(I89
I13
I0
S'many'
p735
tp736
a(I89
I13
I0
S'more'
p737
tp738
a(I117
I4
F1.0
S'good'
p739
tp740
a(I117
I5
I0
S'more'
p741
tp742
a(I132
I2
I0
S'many'
p743
tp744
a(I155
I3
F-0.625
S'other'
p745
tp746
a(I155
I3
I0
S'most'
p747
tp748
a(I160
I9
I0
S'full'
p749
tp750
a(I167
I1
F-0.625
S'other'
p751
tp752
a(I200
I1
I0
S'identical'
p753
tp754
a(I216
I1
I0
S'many'
p755
tp756
a(I222
I0
I0
S'great'
p757
tp758
as(S'messaging'
p759
tp760
(lp761
(I89
I2
I0
S'particular'
p762
tp763
a(I89
I2
F0.5
S'strong'
p764
tp765
a(I151
I0
I0
S'instant'
p766
tp767
a(I163
I10
I0
S'instant'
p768
tp769
as(S'nternet'
p770
S'radio'
p771
tp772
(lp773
(I1
I1
I0
S'internet'
p774
tp775
a(I11
I4
F0.875
S'nice'
p776
tp777
a(I209
I5
I0
S'internet'
p778
tp779
as(S'network'
p780
tp781
(lp782
(I68
I14
F-0.625
S'other'
p783
tp784
a(I171
I3
F-0.75
S'sufficient'
p785
tp786
a(I216
I0
I0
S'great'
p787
tp788
a(I225
I1
F0.875
S'happy'
p789
tp790
a(I225
I1
I0
S'blue'
p791
tp792
as(S'cable'
p793
tp794
(lp795
(I107
I18
F0.625
g214
tp796
a(I125
I32
I0
g216
tp797
a(I157
I5
F-0.5
g218
tp798
as(S'thing'
p799
tp800
(lp801
(I4
I38
I0
S'great'
p802
tp803
a(I21
I2
F-0.875
S'trouble'
p804
tp805
a(I47
I9
I0
S'big'
p806
tp807
a(I64
I11
F-0.625
S'other'
p808
tp809
a(I87
I8
I0
S'common'
p810
tp811
a(I107
I10
F-0.375
S'small'
p812
tp813
a(I108
I9
F0.875
S'important'
p814
tp815
a(I112
I7
I0
S'same'
p816
tp817
a(I173
I1
I0
S'only'
p818
tp819
a(I191
I13
F0.875
S'important'
p820
tp821
a(I191
I21
I0
S'more'
p822
tp823
a(I207
I2
F1.0
S'good'
p824
tp825
as(S'web'
p826
S'browser'
p827
tp828
(lp829
(I8
I5
F0.875
S'nice'
p830
tp831
a(I34
I13
I0
S'full'
p832
tp833
a(I54
I2
F-0.625
S'bad'
p834
tp835
a(I99
I2
F0.625
S'acceptable'
p836
tp837
a(I170
I30
F0.875
S'nice'
p838
tp839
a(I186
I12
I0
S'mobile'
p840
tp841
a(I186
I12
I0
S'site'
p842
tp843
as(S'data'
p844
tp845
(lp846
(I28
I24
I0
S'monthly'
p847
tp848
a(I28
I28
I0
S'efficient'
p849
tp850
a(I64
I9
I0
S'only'
p851
tp852
a(I99
I13
F-0.5
S'sure'
p853
tp854
a(I99
I13
F-0.875
S'stuck'
p855
tp856
a(I101
I3
F0.5
S'expensive'
p857
tp858
a(I107
I7
F0.125
S'first'
p859
tp860
a(I125
I19
F0.5
S'expensive'
p861
tp862
a(I137
I1
F-0.5
S'separate'
p863
tp864
a(I146
I0
I0
S'cable'
p865
tp866
a(I151
I1
I0
S'cable'
p867
tp868
a(I159
I2
I0
S'cable'
p869
tp870
a(I223
I13
F0.5
S'expensive'
p871
tp872
as(g653
S'data'
p873
S'plan'
p874
tp875
(lp876
(I5
I2
F0.125
S'able'
p877
tp878
a(I28
I24
I0
g847
tp879
a(I28
I28
I0
g849
tp880
a(I101
I3
F0.5
g857
tp881
a(I107
I7
F0.125
g859
tp882
a(I137
I1
F-0.5
g863
tp883
a(I223
I13
F0.5
g871
tp884
as(S'micro'
p885
S'sd'
p886
S'card'
p887
tp888
(lp889
(I60
I3
I0
g249
tp890
a(I212
I5
F0.375
g251
tp891
a(I212
I5
I0
g253
tp892
as(S'work'
p893
tp894
(lp895
(I213
I1
F1.0
S'good'
p896
tp897
as(S'player'
p898
tp899
(lp900
(I58
I6
I0
S'great'
p901
tp902
a(I107
I13
F0.875
S'nice'
p903
tp904
a(I117
I5
F0.875
S'music'
p905
tp906
a(I142
I4
I0
S'real'
p907
tp908
a(I144
I1
I0
S'real'
p909
tp910
a(I152
I6
F0.875
S'music'
p911
tp912
a(I163
I5
F0.875
S'music'
p913
tp914
as(S'google'
p915
S'maps'
p916
tp917
(lp918
(I4
I19
F-0.25
g593
tp919
a(I4
I19
F-0.25
g595
tp920
a(I8
I5
F-0.25
g597
tp921
a(I25
I8
F-0.25
g599
tp922
a(I33
I10
F-0.25
g603
tp923
a(I34
I17
F-0.25
g605
tp924
a(I34
I17
I0
g607
tp925
a(I47
I2
F-0.25
g609
tp926
a(I89
I6
F-0.25
g611
tp927
a(I89
I6
F-0.25
g613
tp928
a(I89
I7
F-0.25
g615
tp929
a(I99
I12
F-0.25
g617
tp930
a(I101
I7
F-0.25
g619
tp931
a(I151
I0
F-0.25
g621
tp932
a(I171
I3
F-0.25
g623
tp933
a(I171
I3
F0.75
g625
tp934
a(I171
I5
F-0.25
g627
tp935
a(I200
I0
F-0.25
g629
tp936
as(S'micro'
p937
S'usb'
p938
S'cable'
p939
tp940
(lp941
(I125
I32
I0
g216
tp942
a(I157
I5
F-0.5
g218
tp943
as(S'battery'
p944
S'life'
p945
tp946
(lp947
(I5
I1
I0
S'great'
p948
tp949
a(I28
I12
F1.0
S'good'
p950
tp951
a(I34
I4
I0
S'rural'
p952
tp953
a(I34
I4
F-0.625
S'other'
p954
tp955
a(I40
I1
F1.0
S'good'
p956
tp957
a(I40
I1
F-0.5
S'long'
p958
tp959
a(I76
I9
I0
S'great'
p960
tp961
a(I79
I0
I0
S'great'
p962
tp963
a(I79
I0
F1.0
S'best'
p964
tp965
a(I97
I1
F1.0
S'good'
p966
tp967
a(I101
I3
I0
S'incredible'
p968
tp969
a(I122
I3
I0
S'great'
p970
tp971
a(I125
I12
F1.0
S'good'
p972
tp973
a(I127
I5
F1.0
S'good'
p974
tp975
a(I136
I0
F0.25
S'powerful'
p976
tp977
a(I141
I4
F1.0
S'better'
p978
tp979
a(I142
I7
F1.0
S'good'
p980
tp981
a(I160
I9
I0
S'unbelievable'
p982
tp983
a(I163
I12
I0
S'great'
p984
tp985
a(I163
I19
F1.0
S'better'
p986
tp987
a(I189
I0
F1.0
S'best'
p988
tp989
a(I192
I6
I0
S'great'
p990
tp991
a(I192
I14
F0.125
S'above'
p992
tp993
as(g653
S'great'
p994
S'deal'
p995
tp996
(lp997
(I28
I32
I0
S'great'
p998
tp999
a(I31
I1
I0
S'great'
p1000
tp1001
a(I32
I2
I0
S'great'
p1002
tp1003
a(I71
I2
I0
S'great'
p1004
tp1005
a(I128
I10
I0
S'great'
p1006
tp1007
a(I132
I10
I0
S'great'
p1008
tp1009
a(I220
I3
I0
S'great'
p1010
tp1011
as(S'back'
p1012
tp1013
(lp1014
(I28
I1
F0.625
S'easy'
p1015
tp1016
as(g653
S'volume'
p1017
S'rocker'
p1018
tp1019
(lp1020
(I171
I6
F0.125
g449
tp1021
as(S'reception'
p1022
tp1023
(lp1024
(I10
I1
F1.0
S'good'
p1025
tp1026
a(I25
I10
F1.0
S'better'
p1027
tp1028
a(I25
I10
F-0.125
S'overall'
p1029
tp1030
a(I34
I2
F1.0
S'best'
p1031
tp1032
a(I34
I3
F1.0
S'best'
p1033
tp1034
a(I35
I0
I0
S'great'
p1035
tp1036
a(I39
I5
F1.0
S'good'
p1037
tp1038
a(I58
I6
I0
S'great'
p1039
tp1040
a(I59
I4
F0.375
S'much'
p1041
tp1042
a(I130
I2
F1.0
S'good'
p1043
tp1044
a(I184
I5
I0
S'great'
p1045
tp1046
as(S'fine'
p1047
tp1048
(lp1049
(I43
I2
F0.375
S'new'
p1050
tp1051
a(I112
I10
I0
S'most'
p1052
tp1053
a(I224
I3
I0
S'id'
p1054
tp1055
as(S'life'
p1056
tp1057
(lp1058
(I28
I12
F1.0
g950
tp1059
a(I34
I4
I0
g952
tp1060
a(I76
I9
I0
g960
tp1061
a(I79
I0
F1.0
g964
tp1062
a(I101
I3
I0
g968
tp1063
a(I125
I12
F1.0
g972
tp1064
a(I127
I5
F1.0
g974
tp1065
a(I136
I0
F0.25
g976
tp1066
a(I142
I7
F1.0
g980
tp1067
a(I163
I12
I0
g984
tp1068
as(S'found'
p1069
tp1070
(lp1071
(I195
I2
F0.625
S'correct'
p1072
tp1073
as(S'plan'
p1074
tp1075
(lp1076
(I5
I2
F0.125
g877
tp1077
a(I125
I38
F-0.5
S'international'
p1078
tp1079
as(S'great'
p1080
tp1081
(lp1082
(I6
I0
F-0.125
S'overall'
p1083
tp1084
as(S'battery'
p1085
tp1086
(lp1087
(I5
I1
I0
g948
tp1088
a(I34
I4
F-0.625
g954
tp1089
a(I34
I5
F0.125
S'last'
p1090
tp1091
a(I40
I1
F1.0
g956
tp1092
a(I40
I1
F-0.5
g958
tp1093
a(I53
I10
F0.875
S'nice'
p1094
tp1095
a(I66
I0
I0
S'great'
p1096
tp1097
a(I67
I2
F0.125
S'impressive'
p1098
tp1099
a(I79
I0
I0
g962
tp1100
a(I97
I1
F1.0
g966
tp1101
a(I122
I3
I0
g970
tp1102
a(I141
I4
F1.0
g978
tp1103
a(I160
I9
I0
g982
tp1104
a(I163
I19
F1.0
g986
tp1105
a(I173
I5
F-0.625
S'bad'
p1106
tp1107
a(I186
I10
I0
S'large'
p1108
tp1109
a(I189
I0
F1.0
g988
tp1110
a(I192
I6
I0
g990
tp1111
a(I192
I14
F0.125
g992
tp1112
as(S'smart'
p1113
tp1114
(lp1115
(I4
I0
F0.125
S'first'
p1116
tp1117
a(I23
I0
F1.0
S'good'
p1118
tp1119
a(I23
I4
F1.0
S'good'
p1120
tp1121
a(I49
I1
F0.625
S'easy'
p1122
tp1123
a(I87
I5
F0.125
S'first'
p1124
tp1125
a(I87
I15
F1.0
S'best'
p1126
tp1127
a(I87
I15
F0.125
S'first'
p1128
tp1129
a(I105
I0
F1.0
S'best'
p1130
tp1131
a(I132
I1
F0.125
S'first'
p1132
tp1133
a(I136
I0
F1.0
S'good'
p1134
tp1135
a(I143
I5
F0.25
S'unlocked'
p1136
tp1137
a(I177
I0
F-0.625
S'other'
p1138
tp1139
a(I213
I4
F1.0
S'best'
p1140
tp1141
as(S't'
p1142
S'works'
p1143
S'great'
p1144
tp1145
(lp1146
(I6
I0
F-0.125
g1083
tp1147
a(I34
I19
I0
S'great'
p1148
tp1149
a(I186
I15
I0
S'great'
p1150
tp1151
as(S'looking'
p1152
tp1153
(lp1154
(I53
I8
F0.875
S'nice'
p1155
tp1156
a(I166
I0
F0.875
S'nice'
p1157
tp1158
a(I166
I0
F-0.25
S'low'
p1159
tp1160
as(S'e'
p1161
S'mail'
p1162
tp1163
(lp1164
(I33
I5
I0
S'great'
p1165
tp1166
a(I33
I5
F0.375
S'similar'
p1167
tp1168
a(I33
I5
F0.375
S'new'
p1169
tp1170
a(I125
I15
F0.375
S'new'
p1171
tp1172
a(I205
I13
F0.375
S'new'
p1173
tp1174
as(S'nokia'
p1175
S'e63'
p1176
tp1177
(lp1178
(I3
I1
F-0.125
S'opposite'
p1179
tp1180
a(I25
I5
I0
S'faster'
p1181
tp1182
a(I38
I6
F-0.625
g299
tp1183
a(I45
I0
F0.875
g301
tp1184
a(I187
I2
I0
g335
tp1185
as(S'works'
p1186
S'great'
p1187
tp1188
(lp1189
(I6
I0
F-0.125
g1083
tp1190
a(I34
I19
I0
g1148
tp1191
a(I186
I15
I0
g1150
tp1192
as(S'time'
p1193
tp1194
(lp1195
(I30
I3
F0.125
S'first'
p1196
tp1197
a(I30
I3
F-0.875
S'hard'
p1198
tp1199
a(I30
I8
F-0.875
S'hard'
p1200
tp1201
a(I47
I5
F0.125
S'plenty'
p1202
tp1203
a(I57
I1
F0.125
S'first'
p1204
tp1205
a(I68
I11
F-0.75
S'single'
p1206
tp1207
a(I74
I0
F0.125
S'first'
p1208
tp1209
a(I87
I10
I0
S'more'
p1210
tp1211
a(I107
I26
F0.375
S'much'
p1212
tp1213
a(I117
I5
F1.0
S'better'
p1214
tp1215
a(I117
I5
F1.0
S'better'
p1216
tp1217
a(I125
I16
I0
S'most'
p1218
tp1219
a(I152
I6
I0
S'quick'
p1220
tp1221
a(I175
I7
I0
S'same'
p1222
tp1223
a(I186
I10
F-0.5
S'long'
p1224
tp1225
a(I186
I10
I0
S'operational'
p1226
tp1227
a(I191
I7
I0
S'most'
p1228
tp1229
a(I204
I3
F0.125
S'first'
p1230
tp1231
a(I208
I2
F-0.5
S'long'
p1232
tp1233
as(S'support'
p1234
tp1235
(lp1236
(I66
I5
F0.125
S'supportive'
p1237
tp1238
a(I95
I6
I0
S'tech'
p1239
tp1240
a(I98
I4
F-0.5
S'international'
p1241
tp1242
a(I98
I7
I0
S'full'
p1243
tp1244
a(I98
I7
I0
S'chinese'
p1245
tp1246
a(I98
I8
F-0.5
S'international'
p1247
tp1248
a(I98
I9
I0
S'asian'
p1249
tp1250
a(I101
I1
I0
S'tactile'
p1251
tp1252
as(S'mp'
p1253
S'camera'
p1254
tp1255
(lp1256
(I82
I1
F1.0
S'better'
p1257
tp1258
a(I125
I29
F0.5
g651
tp1259
a(I148
I2
I0
S'real'
p1260
tp1261
a(I189
I0
F1.0
S'better'
p1262
tp1263
as(S'to'
p1264
S'adjust'
p1265
S'volume'
p1266
tp1267
(lp1268
(I30
I13
F0.125
g443
tp1269
as(S'screen'
p1270
tp1271
(lp1272
(I10
I3
F0.5
S'clear'
p1273
tp1274
a(I28
I4
F-0.375
S'top'
p1275
tp1276
a(I28
I33
F0.625
S'superior'
p1277
tp1278
a(I37
I1
F0.5
S'touch'
p1279
tp1280
a(I53
I13
F-0.375
S'small'
p1281
tp1282
a(I53
I13
I0
S'downloading'
p1283
tp1284
a(I53
I13
F-0.125
S'slow'
p1285
tp1286
a(I53
I13
F-0.875
S'hard'
p1287
tp1288
a(I70
I0
F0.625
S'eager'
p1289
tp1290
a(I70
I0
F0.5
S'touch'
p1291
tp1292
a(I70
I0
F0.5
S'touch'
p1293
tp1294
a(I70
I0
F0.5
S'touch'
p1295
tp1296
a(I117
I3
F0.5
S'touch'
p1297
tp1298
a(I122
I3
I0
S'big'
p1299
tp1300
a(I144
I1
F0.25
S'main'
p1301
tp1302
a(I160
I9
F-0.375
S'small'
p1303
tp1304
a(I160
I9
I0
S'large'
p1305
tp1306
a(I160
I10
I0
S'large'
p1307
tp1308
a(I184
I2
F-0.375
S'smaller'
p1309
tp1310
a(I191
I20
F0.5
S'touch'
p1311
tp1312
a(I191
I20
F0.75
S'due'
p1313
tp1314
a(I199
I1
F-0.375
S'small'
p1315
tp1316
as(S'ovi'
p1317
S'store'
p1318
tp1319
(lp1320
(I33
I7
F0.625
g265
tp1321
a(I34
I11
F0.5
g267
tp1322
a(I117
I14
F0.625
g269
tp1323
as(S'camera'
p1324
tp1325
(lp1326
(I4
I33
I0
S'useful'
p1327
tp1328
a(I10
I2
F1.0
S'good'
p1329
tp1330
a(I42
I0
F-0.625
S'average'
p1331
tp1332
a(I82
I1
F1.0
g1257
tp1333
a(I107
I15
I0
S'great'
p1334
tp1335
a(I117
I15
I0
S'more'
p1336
tp1337
a(I117
I15
I0
S'great'
p1338
tp1339
a(I123
I1
F-0.625
S'clean'
p1340
tp1341
a(I125
I29
F0.5
g651
tp1342
a(I127
I3
F1.0
S'good'
p1343
tp1344
a(I148
I2
I0
g1260
tp1345
a(I155
I3
F0.125
S'digital'
p1346
tp1347
a(I166
I1
F1.0
S'good'
p1348
tp1349
a(I189
I0
F1.0
g1262
tp1350
a(I192
I4
I0
S'plastic'
p1351
tp1352
a(I205
I16
F-0.625
S'average'
p1353
tp1354
as(S'using'
p1355
tp1356
(lp1357
(I28
I19
F0.375
S'no-brainer'
p1358
tp1359
a(I99
I14
I0
S'most'
p1360
tp1361
a(I99
I14
F0.375
S'content'
p1362
tp1363
as(S'bluetooth'
p1364
tp1365
(lp1366
(I125
I21
I0
S'great'
p1367
tp1368
as(S'mobile'
p1369
tp1370
(lp1371
(I33
I10
F-0.25
S'google'
p1372
tp1373
as(S'feature'
p1374
tp1375
(lp1376
(I59
I2
F0.5
S'strong'
p1377
tp1378
a(I59
I4
I0
S'great'
p1379
tp1380
a(I67
I2
F-0.375
S'stopped'
p1381
tp1382
a(I67
I2
F-0.625
S'other'
p1383
tp1384
a(I102
I6
I0
S'such'
p1385
tp1386
a(I102
I6
I0
S'basic'
p1387
tp1388
a(I108
I14
I0
S'such'
p1389
tp1390
a(I108
I14
F0.375
S'complete'
p1391
tp1392
a(I125
I17
I0
S'great'
p1393
tp1394
a(I125
I41
I0
S'great'
p1395
tp1396
a(I125
I41
F0.625
S'easy'
p1397
tp1398
a(I127
I1
F0.875
S'nice'
p1399
tp1400
as(S'works'
p1401
tp1402
(lp1403
(I34
I19
I0
g1148
tp1404
a(I34
I24
I0
S'faster'
p1405
tp1406
a(I186
I15
I0
g1150
tp1407
as(S'browser'
p1408
tp1409
(lp1410
(I54
I2
F-0.625
g834
tp1411
a(I99
I2
F0.625
g836
tp1412
a(I191
I15
I0
S'blue'
p1413
tp1414
as(S'better'
p1415
tp1416
(lp1417
(I12
I0
I0
S'most'
p1418
tp1419
a(I22
I4
F0.375
S'much'
p1420
tp1421
a(I22
I4
F0.625
S'easy'
p1422
tp1423
a(I99
I18
F0.375
S'much'
p1424
tp1425
a(I151
I0
F-0.625
S'other'
p1426
tp1427
a(I151
I0
F0.375
S'much'
p1428
tp1429
as(S'media'
p1430
S'player'
p1431
tp1432
(lp1433
(I107
I13
F0.875
g903
tp1434
as(S'device'
p1435
tp1436
(lp1437
(I0
I0
F0.875
S'happy'
p1438
tp1439
a(I3
I1
F0.875
S'music'
p1440
tp1441
a(I38
I2
I0
S'electronic'
p1442
tp1443
a(I38
I9
F0.5
S'second'
p1444
tp1445
a(I53
I18
I0
S'more'
p1446
tp1447
a(I53
I18
I0
S'adequate'
p1448
tp1449
a(I160
I9
I0
S'slim'
p1450
tp1451
a(I184
I5
F1.0
S'good'
p1452
tp1453
a(I199
I0
F1.0
S'good'
p1454
tp1455
a(I199
I2
F0.875
S'happy'
p1456
tp1457
as(S'home'
p1458
tp1459
(lp1460
(I11
I4
I0
S'own'
p1461
tp1462
a(I89
I17
I0
S'such'
p1463
tp1464
a(I181
I4
F0.625
S'easy'
p1465
tp1466
as(S'call'
p1467
tp1468
(lp1469
(I28
I16
F1.0
g88
tp1470
a(I28
I33
I0
g94
tp1471
a(I57
I5
I0
g98
tp1472
a(I59
I0
I0
g104
tp1473
a(I87
I6
F0.125
S'first'
p1474
tp1475
a(I87
I6
F-0.25
S'dropped'
p1476
tp1477
a(I125
I38
F-0.5
S'international'
p1478
tp1479
a(I125
I38
F-0.5
S'long'
p1480
tp1481
a(I125
I38
F0.125
S'distant'
p1482
tp1483
a(I127
I4
I0
S'great'
p1484
tp1485
a(I186
I16
F1.0
S'better'
p1486
tp1487
as(S'much'
p1488
S'better'
p1489
tp1490
(lp1491
(I22
I4
F0.375
g1420
tp1492
a(I22
I4
F0.625
g1422
tp1493
a(I99
I18
F0.375
g1424
tp1494
a(I151
I0
F-0.625
g1426
tp1495
a(I151
I0
F0.375
g1428
tp1496
as(S'player'
p1497
S'and'
p1498
S'microsd'
p1499
tp1500
(lp1501
(I117
I5
F0.875
g905
tp1502
as(S'data'
p1503
S'plan'
p1504
tp1505
(lp1506
(I5
I2
F0.125
g877
tp1507
a(I28
I24
I0
g847
tp1508
a(I28
I28
I0
g849
tp1509
a(I101
I3
F0.5
g857
tp1510
a(I107
I7
F0.125
g859
tp1511
a(I137
I1
F-0.5
g863
tp1512
a(I223
I13
F0.5
g871
tp1513
as(S'apps'
p1514
tp1515
(lp1516
(I4
I9
I0
S'useful'
p1517
tp1518
a(I4
I28
I0
S'asian'
p1519
tp1520
a(I4
I28
I0
S'useful'
p1521
tp1522
a(I33
I7
F-0.625
S'free'
p1523
tp1524
a(I34
I21
F-0.625
S'free'
p1525
tp1526
a(I34
I21
F0.375
S'available'
p1527
tp1528
a(I101
I7
F1.0
S'good'
p1529
tp1530
a(I105
I5
I0
S'basic'
p1531
tp1532
a(I148
I4
F1.0
S'good'
p1533
tp1534
a(I148
I4
F-0.625
S'free'
p1535
tp1536
a(I158
I3
F-0.625
S'free'
p1537
tp1538
a(I163
I1
I0
S'basic'
p1539
tp1540
a(I166
I0
F0.375
S'available'
p1541
tp1542
a(I171
I3
F1.0
S'best'
p1543
tp1544
a(I194
I3
I0
S'close'
p1545
tp1546
a(I194
I3
I0
S'normal'
p1547
tp1548
a(I200
I0
F0.375
S'available'
p1549
tp1550
a(I205
I13
F0.375
S'available'
p1551
tp1552
as(S'days'
p1553
tp1554
(lp1555
(I59
I0
I0
S'few'
p1556
tp1557
a(I59
I0
F0.625
S'perfect'
p1558
tp1559
a(I69
I0
F0.125
S'last'
p1560
tp1561
a(I70
I0
I0
S'few'
p1562
tp1563
a(I70
I0
F-0.625
S'grumble'
p1564
tp1565
a(I97
I1
I0
S'great'
p1566
tp1567
a(I108
I9
I0
S'few'
p1568
tp1569
a(I112
I5
I0
S'later'
p1570
tp1571
a(I132
I0
I0
S'few'
p1572
tp1573
a(I143
I3
I0
S'few'
p1574
tp1575
a(I163
I13
F0.125
S'able'
p1576
tp1577
a(I186
I11
I0
S'least'
p1578
tp1579
a(I203
I2
I0
S'later'
p1580
tp1581
a(I205
I0
I0
S'few'
p1582
tp1583
a(I209
I0
I0
S'few'
p1584
tp1585
a(I223
I9
I0
S'few'
p1586
tp1587
as(S'mail'
p1588
tp1589
(lp1590
(I33
I5
F0.375
g1167
tp1591
a(I33
I5
F0.375
g1169
tp1592
a(I125
I15
F0.375
g1171
tp1593
a(I205
I13
F0.375
g1173
tp1594
as(S'calls'
p1595
tp1596
(lp1597
(I20
I0
I0
S'internet'
p1598
tp1599
a(I20
I4
F-0.5
S'regular'
p1600
tp1601
a(I38
I3
F-0.25
S'low'
p1602
tp1603
a(I38
I10
I0
S'more'
p1604
tp1605
a(I47
I9
F-0.5
S'poor'
p1606
tp1607
a(I53
I7
F-0.5
S'less'
p1608
tp1609
a(I108
I9
I0
S'few'
p1610
tp1611
a(I125
I28
F0.75
S'receive'
p1612
tp1613
a(I126
I0
F0.75
S'receive'
p1614
tp1615
a(I212
I4
I0
S'few'
p1616
tp1617
a(I212
I4
F-0.25
S'dropped'
p1618
tp1619
as.