(dp0
(S'seller'
p1
tp2
(lp3
(I4
I44
F-0.625
S'apologetic'
p4
I19
tp5
a(I10
I16
F-0.5
S'sure'
p6
I19
tp7
as(S'great'
p8
S'condition'
p9
tp10
(lp11
(I0
I2
I0
S'great'
p12
I7
tp13
a(I9
I15
I0
S'such'
p14
I7
tp15
a(I9
I15
I0
S'great'
p16
I7
tp17
a(I9
I15
F0.375
S'new'
p18
I7
tp19
a(I10
I41
I0
S'great'
p20
I7
tp21
as(S'non-smart'
p22
S'phones'
p23
tp24
(lp25
(I4
I51
I0
S'current'
p26
I0
tp27
a(I4
I52
F-0.625
S'bad'
p28
I0
tp29
a(I4
I77
F1.0
S'best'
p30
I0
tp31
a(I4
I77
F0.375
S'available'
p32
I0
tp33
as(S'battery'
p34
tp35
(lp36
(I3
I1
F0.125
S'charger'
p37
I15
tp38
a(I4
I28
F0.375
S'new'
p39
I15
tp40
a(I4
I37
F-0.75
S'dead'
p41
I15
tp42
a(I4
I78
F-0.5
S'long'
p43
I15
tp44
a(I5
I1
F0.125
S'last'
p45
I15
tp46
a(I5
I1
F-0.5
S'long'
p47
I15
tp48
a(I5
I3
F0.375
S'newer'
p49
I15
tp50
a(I5
I3
F0.125
S'last'
p51
I15
tp52
a(I7
I5
F0.375
S'new'
p53
I15
tp54
a(I9
I3
F1.0
S'good'
p55
I15
tp56
a(I10
I72
F0.5
S'carry'
p57
I15
tp58
a(I14
I8
F0.5
S'careful'
p59
I15
tp60
as(S'motorola'
p61
tp62
(lp63
(I4
I15
F-0.375
S'authorized'
p64
I0
tp65
a(I14
I5
F0.375
S'new'
p66
I0
tp67
as(S'non'
p68
S'smart'
p69
tp70
(lp71
(I4
I51
F0.375
S'new'
p72
I0
tp73
a(I4
I52
F0.25
S'profitable'
p74
I0
tp75
a(I10
I36
F0.25
S'sharp'
p76
I0
tp77
as(S'same'
p78
S'problem'
p79
tp80
(lp81
(I2
I45
I0
S'same'
p82
I1
tp83
a(I10
I18
I0
S'exact'
p84
I1
tp85
a(I10
I23
I0
S'exact'
p86
I1
tp87
as(S'razr'
p88
tp89
(lp90
(I2
I44
I0
S'current'
p91
I0
tp92
a(I11
I0
I0
S'old'
p93
I0
tp94
as(S'verizon'
p95
tp96
(lp97
(I2
I46
F0.125
S'first'
p98
I0
tp99
a(I4
I51
I0
S'old'
p100
I0
tp101
a(I4
I52
I0
S'intentional'
p102
I0
tp103
a(I4
I60
F1.0
S'better'
p104
I0
tp105
a(I6
I13
F0.5
S'compatible'
p106
I0
tp107
a(I9
I23
F-0.625
S'other'
p108
I0
tp109
a(I9
I24
F0.125
S'first'
p110
I0
tp111
a(I10
I35
F0.625
S'easy'
p112
I0
tp113
a(I10
I35
F-0.5
S'call'
p114
I0
tp115
a(I11
I8
I0
S'plate'
p116
I0
tp117
a(I11
I41
I0
S'local'
p118
I0
tp119
a(I11
I44
F0.5
S'technical'
p120
I0
tp121
as.