(dp0
(S'text'
p1
S'message'
p2
tp3
(lp4
(I2
I80
I0
S'quick'
p5
I0
tp6
a(I2
I127
I0
S'many'
p7
I0
tp8
a(I2
I136
F0.375
S'new'
p9
I0
tp10
a(I2
I137
F0.375
S'new'
p11
I0
tp12
a(I2
I139
I0
S'full'
p13
I0
tp14
a(I2
I139
I0
S'few'
p15
I0
tp16
a(I2
I227
F0.125
S'first'
p17
I0
tp18
a(I2
I358
F-0.75
S'difficult'
p19
I0
tp20
as(S'key'
p21
S'pad'
p22
tp23
(lp24
(I1
I38
F0.125
S'key'
p25
I0
tp26
a(I1
I90
F0.5
S'whole'
p27
I0
tp28
a(I1
I90
F0.125
S'key'
p29
I0
tp30
a(I5
I66
F0.125
S'key'
p31
I0
tp32
as(S'battery'
p33
S'life'
p34
tp35
(lp36
(I1
I37
F-0.75
S'short'
p37
I1
tp38
a(I1
I46
F-0.75
S'short'
p39
I1
tp40
a(I1
I46
F-0.25
S'low'
p41
I1
tp42
a(I1
I186
F-0.25
S'battery'
p43
I1
tp44
a(I2
I166
F1.0
S'good'
p45
I1
tp46
a(I2
I166
I0
S'least'
p47
I1
tp48
a(I2
I268
I0
S'great'
p49
I1
tp50
a(I2
I299
F1.0
S'good'
p51
I1
tp52
a(I2
I299
F0.625
S'easy'
p53
I1
tp54
a(I5
I15
F1.0
S'good'
p55
I1
tp56
a(I1
I186
F-0.25
g43
I19
tp57
a(I2
I166
F1.0
g45
I19
tp58
a(I2
I268
I0
g49
I19
tp59
a(I2
I299
F1.0
g51
I19
tp60
a(I2
I299
F0.625
g53
I19
tp61
a(I5
I15
F1.0
g55
I19
tp62
a(I1
I37
F-0.75
g37
I15
tp63
a(I1
I46
F-0.75
g39
I15
tp64
a(I1
I46
F-0.25
g41
I15
tp65
a(I1
I91
F0.125
S'last'
p66
I15
tp67
a(I2
I30
I0
S'table'
p68
I15
tp69
a(I2
I158
F-0.25
S'low'
p70
I15
tp71
a(I2
I158
F-0.125
S'mine'
p72
I15
tp73
a(I2
I166
I0
g47
I15
tp74
a(I2
I229
F-0.25
S'low'
p75
I15
tp76
a(I5
I20
F-0.625
S'bad'
p77
I15
tp78
as(S'seconds'
p79
tp80
(lp81
(I1
I33
F0.375
S'extra'
p82
I7
tp83
a(I1
I33
F-0.125
S'mine'
p84
I7
tp85
a(I1
I38
I0
S'few'
p86
I7
tp87
a(I2
I1
I0
S'such'
p88
I7
tp89
a(I2
I221
F0.125
S'last'
p90
I7
tp91
a(I5
I37
F-0.125
S'slow'
p92
I7
tp93
a(I5
I46
I0
S'fifty'
p94
I7
tp95
as(S'neon'
p96
tp97
(lp98
(I2
I2
I0
S'particular'
p99
I0
tp100
a(I2
I52
I0
S'great'
p101
I0
tp102
a(I2
I52
F0.125
S'first'
p103
I0
tp104
a(I2
I162
F-0.25
S'cheapest'
p105
I0
tp106
a(I2
I235
I0
S'old'
p107
I0
tp108
a(I2
I287
F0.375
S'new'
p109
I0
tp110
as(S'gophone'
p111
tp112
(lp113
(I0
I11
I0
S'more'
p114
I0
tp115
a(I1
I203
I0
S'most'
p116
I0
tp117
a(I3
I16
F1.0
S'good'
p118
I0
tp119
as(S'camera'
p120
tp121
(lp122
(I1
I24
I0
S'great'
p123
I1
tp124
a(I1
I25
F1.0
S'best'
p125
I1
tp126
as(S'a'
p127
S'touch'
p128
S'screen'
p129
tp130
(lp131
(I0
I28
F0.5
S'touch'
p132
I0
tp133
a(I0
I29
F0.5
S'touch'
p134
I0
tp135
a(I0
I31
F0.5
S'touch'
p136
I0
tp137
a(I0
I31
F0.5
S'touch'
p138
I0
tp139
a(I1
I13
F0.5
S'touch'
p140
I0
tp141
a(I1
I110
I0
S'limited'
p142
I0
tp143
a(I2
I132
I0
S'cool'
p144
I0
tp145
a(I2
I161
I0
S'only'
p146
I0
tp147
a(I2
I217
F0.5
S'touch'
p148
I0
tp149
a(I2
I271
F0.5
S'touch'
p150
I0
tp151
a(I2
I348
F0.5
S'touch'
p152
I0
tp153
a(I3
I28
F0.5
S'touch'
p154
I0
tp155
a(I4
I3
I0
S'full'
p156
I0
tp157
a(I5
I15
F0.5
S'touch'
p158
I0
tp159
a(I5
I54
F0.5
S'touch'
p160
I0
tp161
a(I0
I28
F0.5
g132
I2
tp162
a(I0
I29
F0.5
g134
I2
tp163
a(I0
I31
F0.5
g136
I2
tp164
a(I0
I31
F0.5
g138
I2
tp165
a(I1
I13
F0.5
g140
I2
tp166
a(I1
I110
I0
g142
I2
tp167
a(I2
I132
I0
g144
I2
tp168
a(I2
I161
I0
g146
I2
tp169
a(I2
I217
F0.5
g148
I2
tp170
a(I2
I271
F0.5
g150
I2
tp171
a(I2
I348
F0.5
g152
I2
tp172
a(I3
I28
F0.5
g154
I2
tp173
a(I4
I3
I0
g156
I2
tp174
a(I5
I15
F0.5
g158
I2
tp175
a(I5
I54
F0.5
g160
I2
tp176
as(S'memory'
p177
tp178
(lp179
(I0
I119
I0
S'full'
p180
I5
tp181
as(S'prepaid'
p182
tp183
(lp184
(I2
I224
F-0.5
S'separate'
p185
I0
tp186
a(I2
I232
F-0.5
S'separate'
p187
I0
tp188
a(I2
I233
I0
S'hand-me-down'
p189
I0
tp190
a(I5
I6
F0.25
S'sweet'
p191
I0
tp192
as(S'music'
p193
S'player'
p194
tp195
(lp196
(I0
I35
I0
S'song'
p197
I0
tp198
a(I0
I35
F-0.625
S'bad'
p199
I0
tp200
a(I2
I245
I0
S'useful'
p201
I0
tp202
a(I2
I246
F0.875
S'music'
p203
I0
tp204
a(I0
I35
F-0.625
g199
I6
tp205
a(I0
I77
I0
S'great'
p206
I6
tp207
a(I2
I167
F1.0
S'good'
p208
I6
tp209
a(I2
I245
I0
g201
I6
tp210
a(I2
I246
F0.875
g203
I6
tp211
a(I0
I35
I0
g197
I0
tp212
as(S'contract'
p213
tp214
(lp215
(I0
I98
F-0.25
S'cheaper'
p216
I0
tp217
a(I2
I232
F-0.625
S'bad'
p218
I0
tp219
as(S'account'
p220
tp221
(lp222
(I0
I55
I0
S'post-paid'
p223
I3
tp224
a(I0
I55
F0.375
S'new'
p225
I3
tp226
a(I0
I55
F0.75
S'receive'
p227
I3
tp228
as(S'calls'
p229
tp230
(lp231
(I2
I282
F-0.875
S'trouble'
p232
I0
tp233
as(S'sim'
p234
S'card'
p235
tp236
(lp237
(I0
I3
F-0.5
S'sure'
p238
I0
tp239
a(I0
I55
F0.375
S'new'
p240
I0
tp241
a(I1
I5
F0.5
S'second'
p242
I0
tp243
a(I1
I179
I0
S'old'
p244
I0
tp245
a(I2
I16
F-0.25
S'ready'
p246
I0
tp247
a(I3
I32
F0.375
S'extra'
p248
I0
tp249
a(I4
I19
I0
S'old'
p250
I0
tp251
as(S'number'
p252
S'pad'
p253
tp254
(lp255
(I2
I218
I0
S'physical'
p256
I0
tp257
as(S'text'
p258
S'messages'
p259
tp260
(lp261
(I0
I81
I0
S'text'
p262
I0
tp263
a(I2
I83
I0
S'text'
p264
I0
tp265
a(I2
I83
F-0.125
S'slow'
p266
I0
tp267
a(I2
I127
I0
g7
I0
tp268
a(I2
I139
I0
g13
I0
tp269
a(I2
I139
I0
g15
I0
tp270
a(I2
I358
F-0.75
g19
I0
tp271
a(I2
I358
F-0.125
S'delete'
p272
I0
tp273
a(I2
I127
I0
g7
I18
tp274
a(I2
I136
F0.375
g9
I18
tp275
a(I2
I137
F0.375
g11
I18
tp276
a(I2
I139
I0
g13
I18
tp277
a(I2
I139
I0
g15
I18
tp278
a(I2
I221
I0
S'forth'
p279
I18
tp280
a(I2
I358
F-0.75
g19
I18
tp281
a(I2
I410
F-0.5
S'open'
p282
I18
tp283
a(I0
I81
I0
g262
I1
tp284
a(I1
I74
I0
S'quicker'
p285
I1
tp286
a(I2
I83
I0
g264
I1
tp287
a(I2
I83
F-0.125
g266
I1
tp288
a(I2
I358
F-0.125
g272
I1
tp289
a(I5
I37
F0.875
S'important'
p290
I1
tp291
as(g127
S'qwerty'
p292
S'keyboard'
p293
tp294
(lp295
(I0
I15
F0.625
S'easier'
p296
I0
tp297
a(I0
I32
F0.625
S'perfect'
p298
I0
tp299
a(I3
I28
F0.875
S'nice'
p300
I0
tp301
a(I3
I28
I0
S'full'
p302
I0
tp303
a(I0
I15
F0.625
g296
I0
tp304
a(I0
I32
F0.625
g298
I0
tp305
a(I3
I28
F0.875
g300
I0
tp306
a(I3
I28
I0
g302
I0
tp307
a(I1
I86
I0
S'full'
p308
I0
tp309
a(I3
I28
F0.875
g300
I0
tp310
a(I3
I28
I0
g302
I0
tp311
a(I0
I10
F-0.375
S'smaller'
p312
I2
tp313
a(I0
I15
F0.625
g296
I2
tp314
a(I0
I32
F0.625
g298
I2
tp315
a(I1
I31
F-0.5
S'open'
p316
I2
tp317
a(I1
I57
F-0.125
S'delete'
p318
I2
tp319
a(I2
I57
F0.25
S'larger'
p320
I2
tp321
a(I2
I141
F0.625
S'easy'
p322
I2
tp323
a(I2
I161
F0.875
S'nice'
p324
I2
tp325
a(I2
I271
I0
S'full'
p326
I2
tp327
a(I3
I7
F0.5
S'functional'
p328
I2
tp329
a(I4
I21
I0
S'full'
p330
I2
tp331
a(I5
I51
F0.5
S'awkward'
p332
I2
tp333
a(I5
I60
F0.125
S'tolerable'
p334
I2
tp335
as(S'6'
p336
S'months'
p337
tp338
(lp339
(I1
I79
F0.375
S'new'
p340
I6
tp341
a(I1
I201
F0.875
S'happy'
p342
I6
tp343
as(S'general'
p344
S'web'
p345
tp346
(lp347
(I2
I303
I0
S'general'
p348
I0
tp349
a(I2
I317
I0
S'general'
p350
I0
tp351
a(I2
I318
I0
S'general'
p352
I0
tp353
as(S'internet'
p354
tp355
(lp356
(I2
I115
I0
S'only'
p357
I6
tp358
a(I2
I138
F-0.125
S'slow'
p359
I6
tp360
a(I2
I321
I0
S'full'
p361
I6
tp362
a(I2
I340
I0
S'fast'
p363
I6
tp364
a(I2
I388
F-0.125
S'slow'
p365
I6
tp366
as(S'texting'
p367
tp368
(lp369
(I1
I186
F-0.5
S'less'
p370
I0
tp371
a(I2
I298
I0
S'basic'
p372
I0
tp373
a(I3
I20
F1.0
S'good'
p374
I0
tp375
as(S'amazon'
p376
tp377
(lp378
(I2
I61
I0
S'only'
p379
I13
tp380
a(I2
I61
F-0.875
S'negative'
p381
I13
tp382
a(I2
I236
I0
S'old'
p383
I13
tp384
a(I2
I236
I-100
S'bonusairtime'
p385
I13
tp386
a(I2
I241
F0.5
S'second'
p387
I13
tp388
a(I2
I241
F-0.5
S'less'
p389
I13
tp390
a(I2
I241
F0.125
S'first'
p391
I13
tp392
a(I3
I4
F1.0
S'best'
p393
I13
tp394
as.