(dp0
(S'social'
p1
S'networking'
p2
tp3
(lp4
(I23
I53
I0
S'social'
p5
I0
tp6
a(I23
I53
F-0.375
S'top'
p7
I0
tp8
a(I28
I1
I0
S'social'
p9
I0
tp10
a(I28
I1
F0.625
S'easy'
p11
I0
tp12
as(S'e.'
p13
S'g.'
p14
tp15
(lp16
(I52
I49
F-0.375
S'small'
p17
I0
tp18
as(S'battery'
p19
S'life'
p20
tp21
(lp22
(I2
I47
I0
S'full'
p23
I1
tp24
a(I3
I125
F-0.75
S'short'
p25
I1
tp26
a(I4
I112
F1.0
S'better'
p27
I1
tp28
a(I5
I1
F1.0
S'better'
p29
I1
tp30
a(I6
I69
F0.625
S'decent'
p31
I1
tp32
a(I6
I175
F1.0
S'better'
p33
I1
tp34
a(I6
I175
F0.625
S'convenient'
p35
I1
tp36
a(I9
I30
F0.25
S'powerful'
p37
I1
tp38
a(I13
I0
F-0.375
S'smaller'
p39
I1
tp40
a(I17
I118
F1.0
S'good'
p41
I1
tp42
a(I21
I18
F-0.5
S'less'
p43
I1
tp44
a(I21
I20
F-0.375
S'smaller'
p45
I1
tp46
a(I22
I8
F-0.5
S'poor'
p47
I1
tp48
a(I23
I201
F-0.25
S'disappointing'
p49
I1
tp50
a(I27
I29
F-0.75
S'short'
p51
I1
tp52
a(I40
I44
F0.5
S'second'
p53
I1
tp54
a(I47
I51
F-0.875
S'awful'
p55
I1
tp56
a(I47
I55
F0.625
S'decent'
p57
I1
tp58
a(I47
I56
F-0.5
S'poor'
p59
I1
tp60
a(I47
I112
I0
S'more'
p61
I1
tp62
a(I47
I112
F0.5
S'reasonable'
p63
I1
tp64
a(I53
I53
I0
S'great'
p65
I1
tp66
a(I54
I5
F1.0
S'better'
p67
I1
tp68
a(I54
I24
F1.0
S'better'
p69
I1
tp70
a(I54
I32
F1.0
S'better'
p71
I1
tp72
a(I56
I7
F-0.75
S'short'
p73
I1
tp74
a(I59
I25
F-0.5
S'poor'
p75
I1
tp76
a(I61
I19
I0
S'wish'
p77
I1
tp78
a(I65
I85
F-0.5
S'long'
p79
I1
tp80
a(I65
I86
F-0.75
S'short'
p81
I1
tp82
a(I69
I94
F0.125
S'last'
p83
I1
tp84
a(I5
I1
F1.0
g29
I19
tp85
a(I6
I85
I0
S'most'
p86
I19
tp87
a(I6
I175
F1.0
g33
I19
tp88
a(I6
I175
F0.625
g35
I19
tp89
a(I17
I118
F1.0
g41
I19
tp90
a(I21
I18
F-0.5
g43
I19
tp91
a(I22
I8
F-0.5
g47
I19
tp92
a(I23
I201
F-0.25
g49
I19
tp93
a(I23
I210
F-0.625
S'free'
p94
I19
tp95
a(I33
I125
F-0.625
S'pushed'
p96
I19
tp97
a(I33
I125
F0.375
S'much'
p98
I19
tp99
a(I46
I37
F-0.625
S'bad'
p100
I19
tp101
a(I47
I51
F-0.875
g55
I19
tp102
a(I47
I112
I0
g61
I19
tp103
a(I47
I112
F0.5
g63
I19
tp104
a(I53
I53
I0
g65
I19
tp105
a(I54
I5
F1.0
g67
I19
tp106
a(I54
I24
F1.0
g69
I19
tp107
a(I69
I94
F0.125
g83
I19
tp108
a(I71
I72
F0.625
S'easier'
p109
I19
tp110
a(I71
I72
F-0.125
S'complicated'
p111
I19
tp112
a(I1
I80
I0
S'same'
p113
I15
tp114
a(I2
I47
I0
g23
I15
tp115
a(I3
I125
F-0.75
g25
I15
tp116
a(I4
I112
F1.0
g27
I15
tp117
a(I6
I69
F0.625
g31
I15
tp118
a(I6
I222
F-0.75
S'dead'
p119
I15
tp120
a(I6
I242
F0.125
S'last'
p121
I15
tp122
a(I6
I288
F0.125
S'last'
p123
I15
tp124
a(I6
I374
F0.25
S'bigger'
p125
I15
tp126
a(I9
I30
F0.25
g37
I15
tp127
a(I12
I9
F0.375
S'new'
p128
I15
tp129
a(I12
I9
F0.125
S'charger'
p130
I15
tp131
a(I12
I11
F-0.75
S'dead'
p132
I15
tp133
a(I12
I15
F0.375
S'extended'
p134
I15
tp135
a(I12
I16
F0.375
S'extended'
p136
I15
tp137
a(I12
I40
F1.0
S'good'
p138
I15
tp139
a(I13
I0
F-0.375
g39
I15
tp140
a(I17
I76
F-0.75
S'dead'
p141
I15
tp142
a(I21
I20
F-0.375
g45
I15
tp143
a(I24
I19
F0.25
S'powerful'
p144
I15
tp145
a(I27
I29
F-0.75
g51
I15
tp146
a(I32
I86
I0
S'identical'
p147
I15
tp148
a(I33
I4
F0.125
S'last'
p149
I15
tp150
a(I33
I129
I0
S'full'
p151
I15
tp152
a(I40
I44
F0.5
g53
I15
tp153
a(I47
I55
F0.625
g57
I15
tp154
a(I47
I56
F-0.5
g59
I15
tp155
a(I52
I232
F0.5
S'second'
p156
I15
tp157
a(I53
I59
F0.5
S'bought'
p158
I15
tp159
a(I54
I25
F0.875
S'music'
p160
I15
tp161
a(I54
I32
F1.0
g71
I15
tp162
a(I56
I7
F-0.75
g73
I15
tp163
a(I56
I29
F0.375
S'much'
p164
I15
tp165
a(I59
I25
F-0.5
g75
I15
tp166
a(I61
I19
I0
g77
I15
tp167
a(I61
I110
F0.625
S'removable'
p168
I15
tp169
a(I61
I141
F0.125
S'last'
p170
I15
tp171
a(I64
I28
F-0.25
S'tear'
p172
I15
tp173
a(I65
I36
F0.125
S'last'
p174
I15
tp175
a(I65
I36
F0.375
S'much'
p176
I15
tp177
a(I65
I85
F-0.5
g79
I15
tp178
a(I65
I86
F-0.75
g81
I15
tp179
a(I65
I90
I0
S'same'
p180
I15
tp181
as(S'kinetic'
p182
S'scrolling'
p183
tp184
(lp185
(I27
I47
I0
S'kinetic'
p186
I0
tp187
a(I33
I258
I0
S'kinetic'
p188
I0
tp189
a(I37
I46
I0
S'kinetic'
p190
I0
tp191
a(I50
I60
I0
S'kinetic'
p192
I0
tp193
a(I64
I52
I0
S'kinetic'
p194
I0
tp195
a(I64
I53
I0
S'kinetic'
p196
I0
tp197
a(I64
I53
F-0.625
S'other'
p198
I0
tp199
as(S'android'
p200
tp201
(lp202
(I7
I36
F-0.25
S'google'
p203
I0
tp204
a(I8
I38
F-0.75
S'short'
p205
I0
tp206
a(I8
I38
F0.625
S'easy'
p207
I0
tp208
a(I17
I13
I0
S'current'
p209
I0
tp210
a(I17
I16
F-0.375
S'smooth'
p211
I0
tp212
a(I17
I89
F0.25
S'unlocked'
p213
I0
tp214
a(I30
I13
I0
S'more'
p215
I0
tp216
a(I36
I133
F0.5
S'possible'
p217
I0
tp218
a(I40
I46
F-0.375
S'near'
p219
I0
tp220
a(I40
I46
I0
S'big'
p221
I0
tp222
a(I52
I227
F0.375
S'newer'
p223
I0
tp224
a(I61
I22
F0.5
S'comparable'
p225
I0
tp226
a(I71
I145
I0
S'many'
p227
I0
tp228
as(S'a'
p229
S'data'
p230
S'plan'
p231
tp232
(lp233
(I6
I231
F0.5
S'expensive'
p234
I0
tp235
a(I6
I231
F0.5
g234
I0
tp236
as(S'email'
p237
tp238
(lp239
(I11
I3
F1.0
S'best'
p240
I5
tp241
a(I13
I52
F0.375
S'new'
p242
I5
tp243
a(I13
I54
I0
S'instant'
p244
I5
tp245
a(I13
I54
F1.0
S'good'
p246
I5
tp247
a(I17
I17
I0
S'more'
p248
I5
tp249
a(I30
I77
I0
S'great'
p250
I5
tp251
a(I36
I165
F0.5
S'whole'
p252
I5
tp253
a(I37
I12
F-0.375
S'pull'
p254
I5
tp255
a(I37
I12
F0.875
S'nice'
p256
I5
tp257
a(I37
I12
F-0.625
S'push'
p258
I5
tp259
a(I47
I57
F-0.125
S'slow'
p260
I5
tp261
a(I47
I113
I0
S'faster'
p262
I5
tp263
a(I49
I2
I0
S'full'
p264
I5
tp265
a(I61
I22
F-0.125
S'overall'
p266
I5
tp267
a(I65
I56
F0.375
S'new'
p268
I5
tp269
a(I65
I59
F0.25
S'main'
p270
I5
tp271
a(I65
I59
F0.375
S'new'
p272
I5
tp273
a(I69
I76
F-0.125
S'delete'
p274
I5
tp275
as(S'mail'
p276
S'for'
p277
S'exchange'
p278
tp279
(lp280
(I37
I39
I0
S'included'
p281
I0
tp282
as(S'slide'
p283
S'out'
p284
S'keyboard'
p285
tp286
(lp287
(I17
I8
F-0.75
S'comfortable'
p288
I0
tp289
a(I30
I2
I0
S'full'
p290
I0
tp291
a(I30
I2
I0
S'great'
p292
I0
tp293
a(I1
I22
I0
S'general'
p294
I2
tp295
a(I1
I56
I0
S'full'
p296
I2
tp297
a(I1
I56
F1.0
S'good'
p298
I2
tp299
a(I2
I37
I0
S'physical'
p300
I2
tp301
a(I2
I37
F-0.375
S'small'
p302
I2
tp303
a(I2
I54
F0.875
S'nice'
p304
I2
tp305
a(I3
I131
F0.5
S'functional'
p306
I2
tp307
a(I3
I153
I0
S'physical'
p308
I2
tp309
a(I4
I87
F0.625
S'easy'
p310
I2
tp311
a(I6
I167
I0
S'physical'
p312
I2
tp313
a(I6
I167
I0
S'efficient'
p314
I2
tp315
a(I6
I327
F1.0
S'good'
p316
I2
tp317
a(I7
I94
F1.0
S'better'
p318
I2
tp319
a(I8
I14
F-0.375
S'small'
p320
I2
tp321
a(I8
I19
F-0.625
S'bad'
p322
I2
tp323
a(I8
I20
F-0.875
S'hard'
p324
I2
tp325
a(I8
I41
F0.125
S'able'
p326
I2
tp327
a(I8
I41
F-0.875
S'awful'
p328
I2
tp329
a(I9
I15
F1.0
S'good'
p330
I2
tp331
a(I12
I28
F-0.5
S'open'
p332
I2
tp333
a(I12
I47
I0
S'standard'
p334
I2
tp335
a(I13
I12
I0
S'physical'
p336
I2
tp337
a(I13
I60
I0
S'physical'
p338
I2
tp339
a(I13
I61
I0
S'physical'
p340
I2
tp341
a(I17
I8
F-0.75
g288
I2
tp342
a(I23
I62
I0
S'wide'
p343
I2
tp344
a(I23
I215
I0
S'physical'
p345
I2
tp346
a(I30
I2
I0
g292
I2
tp347
a(I32
I15
I0
S'physical'
p348
I2
tp349
a(I32
I15
I0
S'great'
p350
I2
tp351
a(I33
I12
F-0.375
S'simple'
p352
I2
tp353
a(I33
I12
F0.625
S'easy'
p354
I2
tp355
a(I36
I286
I0
S'great'
p356
I2
tp357
a(I37
I0
I0
S'great'
p358
I2
tp359
a(I40
I28
I0
S'physical'
p360
I2
tp361
a(I42
I14
F1.0
S'best'
p362
I2
tp363
a(I44
I73
F1.0
S'good'
p364
I2
tp365
a(I45
I41
F0.875
S'nice'
p366
I2
tp367
a(I47
I1
F-0.375
S'small'
p368
I2
tp369
a(I47
I1
I0
S'wide'
p370
I2
tp371
a(I52
I220
F0.125
S'first'
p372
I2
tp373
a(I54
I16
F1.0
S'better'
p374
I2
tp375
a(I57
I27
F0.375
S'much'
p376
I2
tp377
a(I57
I27
F0.5
S'possible'
p378
I2
tp379
a(I57
I33
F0.25
S'sharp'
p380
I2
tp381
a(I57
I33
I0
S'finger'
p382
I2
tp383
a(I60
I29
F-0.375
S'small'
p384
I2
tp385
a(I60
I44
I0
S'physical'
p386
I2
tp387
a(I63
I30
F0.125
S'essential'
p388
I2
tp389
a(I67
I34
F1.0
S'good'
p390
I2
tp391
a(I67
I35
I0
S'great'
p392
I2
tp393
a(I67
I65
I0
S'more'
p394
I2
tp395
a(I68
I2
I0
S'many'
p396
I2
tp397
a(I69
I55
F1.0
S'good'
p398
I2
tp399
a(I69
I57
I0
S'real'
p400
I2
tp401
a(I69
I58
F-0.5
S'miss'
p402
I2
tp403
as(S'rss'
p404
S'feeds'
p405
tp406
(lp407
(I7
I66
F1.0
S'best'
p408
I0
tp409
as(S'ovi'
p410
S'store'
p411
tp412
(lp413
(I1
I64
F0.5
S'compatible'
p414
I0
tp415
a(I7
I134
I0
S'own'
p416
I0
tp417
a(I33
I234
F0.75
S'due'
p418
I0
tp419
a(I67
I5
F-0.625
S'free'
p420
I0
tp421
a(I67
I6
I0
S'personalized'
p422
I0
tp423
as(S'e'
p424
S'mail'
p425
tp426
(lp427
(I6
I354
F-0.625
S'push'
p428
I2
tp429
a(I37
I39
I0
g281
I2
tp430
a(I37
I87
I0
S'same'
p431
I2
tp432
as(S'resistive'
p433
S'touch'
p434
S'screen'
p435
tp436
(lp437
(I1
I22
F0.875
S'nice'
p438
I0
tp439
a(I1
I77
I0
S'resistive'
p440
I0
tp441
a(I2
I35
F0.5
S'comparable'
p442
I0
tp443
a(I3
I35
I0
S'resistive'
p444
I0
tp445
a(I6
I182
F-0.375
S'smaller'
p446
I0
tp447
a(I6
I185
I0
S'resistive'
p448
I0
tp449
a(I6
I312
I0
S'resistive'
p450
I0
tp451
a(I6
I312
F-0.625
S'bad'
p452
I0
tp453
a(I23
I155
I0
S'resistive'
p454
I0
tp455
a(I23
I215
I0
S'resistive'
p456
I0
tp457
a(I32
I58
I0
S'resistive'
p458
I0
tp459
a(I32
I58
F0.625
S'easy'
p460
I0
tp461
a(I33
I101
F0.25
S'responsive'
p462
I0
tp463
a(I33
I101
I0
S'resistive'
p464
I0
tp465
a(I35
I3
I0
S'resistive'
p466
I0
tp467
a(I40
I60
F1.0
S'best'
p468
I0
tp469
a(I40
I60
I0
S'resistive'
p470
I0
tp471
a(I52
I213
I0
S'resistive'
p472
I0
tp473
a(I52
I213
I0
S'capacitive'
p474
I0
tp475
a(I58
I19
I0
S'resistive'
p476
I0
tp477
a(I69
I27
I0
S'resistive'
p478
I0
tp479
a(I69
I28
I0
S'resistive'
p480
I0
tp481
a(I69
I28
I0
S'capacitive'
p482
I0
tp483
a(I1
I22
F0.875
g438
I2
tp484
a(I1
I77
I0
g440
I2
tp485
a(I2
I35
F0.5
g442
I2
tp486
a(I3
I35
I0
g444
I2
tp487
a(I3
I160
I0
S'big'
p488
I2
tp489
a(I6
I22
I0
S'many'
p490
I2
tp491
a(I6
I182
F-0.375
g446
I2
tp492
a(I6
I185
I0
g448
I2
tp493
a(I6
I307
I0
S'capacitive'
p494
I2
tp495
a(I6
I312
I0
g450
I2
tp496
a(I6
I312
F-0.625
g452
I2
tp497
a(I11
I10
F0.5
S'touch'
p498
I2
tp499
a(I11
I22
F0.5
S'touch'
p500
I2
tp501
a(I17
I117
F0.5
S'touch'
p502
I2
tp503
a(I17
I117
F0.25
S'responsive'
p504
I2
tp505
a(I18
I2
F0.5
S'touch'
p506
I2
tp507
a(I23
I36
F0.5
S'touch'
p508
I2
tp509
a(I23
I100
F0.5
S'touch'
p510
I2
tp511
a(I23
I155
I0
g454
I2
tp512
a(I23
I215
I0
g456
I2
tp513
a(I27
I1
F0.25
S'responsive'
p514
I2
tp515
a(I29
I1
F0.5
S'touch'
p516
I2
tp517
a(I32
I37
I0
S'great'
p518
I2
tp519
a(I32
I37
F0.25
S'responsive'
p520
I2
tp521
a(I32
I58
I0
g458
I2
tp522
a(I32
I58
F0.625
g460
I2
tp523
a(I33
I101
F0.25
g462
I2
tp524
a(I33
I101
I0
g464
I2
tp525
a(I35
I3
I0
g466
I2
tp526
a(I36
I229
F0.5
S'touch'
p527
I2
tp528
a(I40
I24
F0.25
S'responsive'
p529
I2
tp530
a(I40
I60
F1.0
g468
I2
tp531
a(I40
I60
I0
g470
I2
tp532
a(I47
I2
F0.5
S'touch'
p533
I2
tp534
a(I47
I81
F0.5
S'touch'
p535
I2
tp536
a(I52
I213
I0
g472
I2
tp537
a(I52
I213
I0
g474
I2
tp538
a(I54
I2
F0.75
S'beautiful'
p539
I2
tp540
a(I54
I2
F0.25
S'responsive'
p541
I2
tp542
a(I54
I10
F0.5
S'touch'
p543
I2
tp544
a(I54
I14
F0.5
S'touch'
p545
I2
tp546
a(I56
I7
F0.5
S'touch'
p547
I2
tp548
a(I56
I23
I0
S'big'
p549
I2
tp550
a(I56
I55
F0.5
S'touch'
p551
I2
tp552
a(I58
I19
I0
g476
I2
tp553
a(I61
I43
F0.5
S'touch'
p554
I2
tp555
a(I61
I43
F0.125
S'first'
p556
I2
tp557
a(I63
I57
F0.5
S'touch'
p558
I2
tp559
a(I64
I92
F1.0
S'best'
p560
I2
tp561
a(I69
I27
I0
g478
I2
tp562
a(I69
I28
I0
g480
I2
tp563
a(I69
I28
I0
g482
I2
tp564
a(I71
I75
F0.5
S'touch'
p565
I2
tp566
a(I1
I22
F0.875
g438
I0
tp567
a(I2
I35
F0.5
g442
I0
tp568
a(I3
I35
I0
g444
I0
tp569
a(I6
I182
F-0.375
g446
I0
tp570
a(I6
I312
F-0.625
g452
I0
tp571
a(I13
I10
I0
S'resistive'
p572
I0
tp573
a(I13
I10
I0
S'capacitive'
p574
I0
tp575
a(I23
I215
I0
g456
I0
tp576
a(I30
I70
I0
S'resistive'
p577
I0
tp578
a(I32
I58
I0
g458
I0
tp579
a(I35
I2
I0
S'resistive'
p580
I0
tp581
a(I35
I3
I0
g466
I0
tp582
a(I44
I52
I0
S'resistive'
p583
I0
tp584
a(I52
I232
F1.0
S'good'
p585
I0
tp586
a(I54
I32
I0
S'capacitive'
p587
I0
tp588
a(I62
I96
I0
S'resistive'
p589
I0
tp590
a(I64
I16
I0
S'resistive'
p591
I0
tp592
a(I64
I41
F-0.75
S'painful'
p593
I0
tp594
a(I64
I42
I0
S'resistive'
p595
I0
tp596
a(I64
I42
I0
S'capacitive'
p597
I0
tp598
a(I64
I45
I0
S'resistive'
p599
I0
tp600
a(I64
I51
I0
S'resistive'
p601
I0
tp602
a(I64
I56
I0
S'resistive'
p603
I0
tp604
a(I65
I46
I0
S'resistive'
p605
I0
tp606
a(I69
I27
I0
g478
I0
tp607
a(I69
I28
I0
g482
I0
tp608
as(S'listen'
p609
S'to'
p610
S'music'
p611
tp612
(lp613
(I61
I15
F0.125
S'able'
p614
I0
tp615
a(I61
I15
I0
S'few'
p616
I0
tp617
a(I71
I12
F0.25
S'favorite'
p618
I0
tp619
a(I52
I106
F-0.375
S'static'
p620
I0
tp621
a(I61
I15
F0.125
g614
I0
tp622
a(I61
I15
I0
g616
I0
tp623
a(I66
I65
I0
S'great'
p624
I0
tp625
a(I67
I25
F1.0
S'good'
p626
I0
tp627
a(I71
I12
F0.25
g618
I0
tp628
a(I71
I63
I0
S'internet'
p629
I0
tp630
as(S'carl'
p631
S'zeiss'
p632
tp633
(lp634
(I33
I104
I0
S'same'
p635
I0
tp636
as(g229
S'little'
p637
S'bit'
p638
tp639
(lp640
(I6
I268
F-0.75
S'little'
p641
I9
tp642
a(I6
I268
F-0.75
S'painful'
p643
I9
tp644
a(I8
I0
I0
S'more'
p645
I9
tp646
a(I52
I159
I0
S'later'
p647
I9
tp648
a(I52
I159
F-0.75
S'little'
p649
I9
tp650
a(I68
I8
F0.375
S'braver'
p651
I9
tp652
a(I71
I88
F-0.75
S'little'
p653
I9
tp654
as(S'internet'
p655
tp656
(lp657
(I1
I83
I0
S'great'
p658
I6
tp659
a(I6
I71
F-0.75
S'unable'
p660
I6
tp661
a(I6
I71
I0
S'more'
p662
I6
tp663
a(I32
I27
F1.0
S'better'
p664
I6
tp665
a(I33
I43
F0.625
S'easy'
p666
I6
tp667
a(I36
I120
I0
S'great'
p668
I6
tp669
a(I43
I15
I0
S'connect'
p670
I6
tp671
a(I43
I29
I0
S'great'
p672
I6
tp673
a(I44
I70
I0
S'entire'
p674
I6
tp675
a(I44
I70
F0.375
S'available'
p676
I6
tp677
a(I60
I54
F0.5
S'accurate'
p678
I6
tp679
a(I60
I58
I-100
S'-full'
p680
I6
tp681
a(I60
I58
F1.0
S'best'
p682
I6
tp683
a(I62
I36
I0
S'full'
p684
I6
tp685
a(I68
I4
I0
S'fast'
p686
I6
tp687
as(S'google'
p688
tp689
(lp690
(I2
I32
F-0.625
S'unlike'
p691
I4
tp692
a(I6
I249
F0.125
S'able'
p693
I4
tp694
a(I6
I366
F0.125
S'native'
p695
I4
tp696
a(I13
I39
F-0.625
S'other'
p697
I4
tp698
a(I13
I61
I0
S'topic'
p699
I4
tp700
a(I44
I34
F0.125
S'native'
p701
I4
tp702
a(I44
I63
F-0.5
S'sure'
p703
I4
tp704
a(I45
I36
I0
S'great'
p705
I4
tp706
a(I53
I62
I0
S'official'
p707
I4
tp708
a(I65
I1
F-0.625
S'free'
p709
I4
tp710
as(S'ovi'
p711
S'maps'
p712
tp713
(lp714
(I6
I198
F-0.25
S'google'
p715
I0
tp716
a(I33
I139
I0
S'useful'
p717
I0
tp718
a(I33
I145
F0.375
S'available'
p719
I0
tp720
a(I33
I148
F-0.625
S'free'
p721
I0
tp722
a(I44
I33
I0
S'latest'
p723
I0
tp724
a(I6
I198
F-0.25
g715
I5
tp725
a(I17
I96
F-0.125
S'slow'
p726
I5
tp727
a(I23
I10
F-0.5
S'sure'
p728
I5
tp729
a(I33
I73
F1.0
S'good'
p730
I5
tp731
a(I33
I139
I0
g717
I5
tp732
a(I33
I145
F0.375
g719
I5
tp733
a(I33
I148
F-0.625
g721
I5
tp734
a(I44
I63
F-0.25
S'google'
p735
I5
tp736
a(I61
I97
F0.125
S'colorful'
p737
I5
tp738
a(I61
I97
F0.625
S'pleasant'
p739
I5
tp740
a(I67
I79
I0
S'mobile'
p741
I5
tp742
a(I67
I79
F-0.25
S'ready'
p743
I5
tp744
as(S'flash'
p745
tp746
(lp747
(I1
I14
I0
S'full'
p748
I2
tp749
a(I1
I55
I0
S'full'
p750
I2
tp751
a(I7
I4
I0
S'full'
p752
I2
tp753
a(I7
I5
I0
S'latest'
p754
I2
tp755
a(I9
I28
F-0.875
S'hard'
p756
I2
tp757
a(I12
I31
I0
S'full'
p758
I2
tp759
a(I23
I90
F1.0
S'good'
p760
I2
tp761
a(I23
I214
I0
S'full'
p762
I2
tp763
a(I24
I9
F0.375
S'available'
p764
I2
tp765
a(I30
I61
I0
S'great'
p766
I2
tp767
a(I32
I17
I0
S'full'
p768
I2
tp769
a(I33
I29
F1.0
S'good'
p770
I2
tp771
a(I33
I189
I0
S'many'
p772
I2
tp773
a(I33
I279
F0.875
S'nice'
p774
I2
tp775
a(I33
I279
I0
S'close'
p776
I2
tp777
a(I33
I279
F-0.25
S'object'
p778
I2
tp779
a(I36
I171
I0
S'full'
p780
I2
tp781
a(I47
I33
F0.625
S'add'
p782
I2
tp783
a(I47
I129
I0
S'full'
p784
I2
tp785
a(I52
I230
I0
S'wish'
p786
I2
tp787
a(I58
I8
F0.375
S'appreciate'
p788
I2
tp789
a(I61
I17
F0.375
S'new'
p790
I2
tp791
a(I66
I31
I0
S'latest'
p792
I2
tp793
a(I71
I142
I0
S'mimic'
p794
I2
tp795
as(S'applications'
p796
tp797
(lp798
(I1
I11
I0
S'many'
p799
I3
tp800
a(I3
I24
F0.375
S'available'
p801
I3
tp802
a(I3
I76
F0.375
S'complete'
p803
I3
tp804
a(I3
I85
I0
S'many'
p805
I3
tp806
a(I3
I85
F0.375
S'available'
p807
I3
tp808
a(I3
I139
I0
S'such'
p809
I3
tp810
a(I4
I30
I0
S'more'
p811
I3
tp812
a(I4
I30
F0.375
S'available'
p813
I3
tp814
a(I4
I102
I0
S'many'
p815
I3
tp816
a(I6
I90
I0
S'many'
p817
I3
tp818
a(I6
I108
F0.625
S'easy'
p819
I3
tp820
a(I7
I136
I0
S'mobile'
p821
I3
tp822
a(I11
I26
I0
S'many'
p823
I3
tp824
a(I13
I79
F0.375
S'available'
p825
I3
tp826
a(I23
I85
I0
S'many'
p827
I3
tp828
a(I23
I109
F-0.5
S'open'
p829
I3
tp830
a(I25
I26
I0
S'most'
p831
I3
tp832
a(I25
I39
I0
S'many'
p833
I3
tp834
a(I26
I1
F-0.625
S'free'
p835
I3
tp836
a(I29
I1
I0
S'different'
p837
I3
tp838
a(I33
I73
I0
S'funny'
p839
I3
tp840
a(I33
I73
F0.375
S'available'
p841
I3
tp842
a(I33
I81
F0.375
S'new'
p843
I3
tp844
a(I33
I217
F-0.5
S'open'
p845
I3
tp846
a(I33
I237
F0.375
S'available'
p847
I3
tp848
a(I36
I47
I0
S'internet'
p849
I3
tp850
a(I36
I184
F-0.5
S'open'
p851
I3
tp852
a(I37
I2
F0.375
S'new'
p853
I3
tp854
a(I37
I2
I0
S'great'
p855
I3
tp856
a(I44
I79
I0
S'multiple'
p857
I3
tp858
a(I44
I79
F-0.625
S'natural'
p859
I3
tp860
a(I48
I12
F0.375
S'available'
p861
I3
tp862
a(I51
I24
F0.375
S'available'
p863
I3
tp864
a(I51
I33
I0
S'own'
p865
I3
tp866
a(I52
I194
F0.375
S'new'
p867
I3
tp868
a(I52
I217
F0.5
S'recommended'
p869
I3
tp870
a(I52
I219
F-0.625
S'free'
p871
I3
tp872
a(I53
I36
F-0.5
S'open'
p873
I3
tp874
a(I54
I20
I0
S'internet'
p875
I3
tp876
a(I55
I20
I0
S'great'
p877
I3
tp878
a(I56
I65
F-0.636
S'genuine'
p879
I3
tp880
a(I60
I16
F1.0
S'good'
p881
I3
tp882
a(I60
I35
I0
S'many'
p883
I3
tp884
a(I60
I35
F0.5
S'possible'
p885
I3
tp886
a(I61
I12
I0
S'many'
p887
I3
tp888
a(I61
I12
F0.375
S'available'
p889
I3
tp890
a(I61
I56
F0.25
S'used'
p891
I3
tp892
a(I62
I18
I0
S'few'
p893
I3
tp894
a(I63
I1
I0
S'more'
p895
I3
tp896
a(I63
I5
I0
S'many'
p897
I3
tp898
a(I65
I38
I0
S'most'
p899
I3
tp900
a(I65
I38
F0.875
S'important'
p901
I3
tp902
a(I67
I5
F1.0
S'good'
p903
I3
tp904
a(I71
I25
I0
S'more'
p905
I3
tp906
as(S'maemo'
p907
tp908
(lp909
(I1
I64
F0.375
S'new'
p910
I0
tp911
a(I2
I79
I0
S'such'
p912
I0
tp913
a(I4
I10
I0
S'standard'
p914
I0
tp915
a(I4
I49
F0.5
S'awkward'
p916
I0
tp917
a(I7
I67
F0.125
S'last'
p918
I0
tp919
a(I7
I67
I0
S'least'
p920
I0
tp921
a(I12
I41
F0.5
S'compatible'
p922
I0
tp923
a(I12
I43
F0.375
S'working'
p924
I0
tp925
a(I13
I73
F0.25
S'responsive'
p926
I0
tp927
a(I23
I38
F-0.5
S'sure'
p928
I0
tp929
a(I23
I38
I0
S'many'
p930
I0
tp931
a(I32
I33
F0.375
S'new'
p932
I0
tp933
a(I32
I80
F0.625
S'adventurous'
p934
I0
tp935
a(I33
I150
F0.125
S'first'
p936
I0
tp937
a(I33
I228
F-0.125
S'future'
p938
I0
tp939
a(I33
I233
F0.5
S'strong'
p940
I0
tp941
a(I36
I59
I0
S'more'
p942
I0
tp943
a(I36
I293
I0
S'many'
p944
I0
tp945
a(I36
I293
I0
S'soft'
p946
I0
tp947
a(I44
I70
I-100
S"'apps"
p948
I0
tp949
a(I47
I7
F-0.5
S'open'
p950
I0
tp951
a(I52
I70
F0.5
S'obvious'
p952
I0
tp953
a(I52
I94
F0.25
S'familiar'
p954
I0
tp955
a(I52
I94
I0
S'least'
p956
I0
tp957
a(I52
I94
I0
S'expect'
p958
I0
tp959
a(I58
I6
I0
S'great'
p960
I0
tp961
a(I64
I74
I0
S'older'
p962
I0
tp963
a(I67
I98
I0
S'tutorial'
p964
I0
tp965
a(I69
I30
F0.5
S'incomplete'
p966
I0
tp967
a(I69
I85
I0
S'more'
p968
I0
tp969
a(I69
I85
F-0.25
S'google'
p970
I0
tp971
as(g229
S'nokia'
p972
S'fan'
p973
tp974
(lp975
(I6
I182
I0
S'fanatic'
p976
I0
tp977
a(I40
I4
I0
S'big'
p978
I0
tp979
a(I50
I0
F0.125
S'first'
p980
I0
tp981
a(I69
I125
I0
S'more'
p982
I0
tp983
a(I0
I0
F1.0
S'best'
p984
I0
tp985
a(I1
I63
I0
S'even'
p986
I0
tp987
a(I1
I73
F0.5
S'expensive'
p988
I0
tp989
a(I1
I73
F-0.25
S'potential'
p990
I0
tp991
a(I3
I49
F-0.5
S'less'
p992
I0
tp993
a(I4
I3
F-0.5
S'sure'
p994
I0
tp995
a(I4
I64
I0
S'many'
p996
I0
tp997
a(I4
I67
I0
S'most'
p998
I0
tp999
a(I4
I71
F-0.125
S'overall'
p1000
I0
tp1001
a(I4
I71
F1.0
S'good'
p1002
I0
tp1003
a(I4
I77
F0.375
S'new'
p1004
I0
tp1005
a(I4
I100
I0
S'local'
p1006
I0
tp1007
a(I4
I102
I0
S'site'
p1008
I0
tp1009
a(I6
I182
I0
g976
I0
tp1010
a(I6
I255
F0.375
S'new'
p1011
I0
tp1012
a(I6
I255
F-0.625
S'glad'
p1013
I0
tp1014
a(I6
I260
F1.0
S'best'
p1015
I0
tp1016
a(I7
I14
F1.0
S'good'
p1017
I0
tp1018
a(I7
I89
F-0.25
S'disappointing'
p1019
I0
tp1020
a(I7
I91
F-0.375
S'serious'
p1021
I0
tp1022
a(I8
I37
F-0.125
S'minimum'
p1023
I0
tp1024
a(I11
I14
F0.25
S'sent'
p1025
I0
tp1026
a(I17
I29
F-0.5
S'sure'
p1027
I0
tp1028
a(I23
I188
I0
S'old'
p1029
I0
tp1030
a(I23
I191
I0
S'old'
p1031
I0
tp1032
a(I25
I75
I0
S'own'
p1033
I0
tp1034
a(I27
I43
F0.75
S'beautiful'
p1035
I0
tp1036
a(I27
I48
F-0.375
S'standardized'
p1037
I0
tp1038
a(I32
I60
F0.125
S'first'
p1039
I0
tp1040
a(I32
I82
I0
S'current'
p1041
I0
tp1042
a(I36
I159
I0
S'old'
p1043
I0
tp1044
a(I36
I191
I0
S'more'
p1045
I0
tp1046
a(I37
I57
F0.625
S'easy'
p1047
I0
tp1048
a(I40
I43
I0
S'few'
p1049
I0
tp1050
a(I40
I43
F-0.625
S'other'
p1051
I0
tp1052
a(I40
I85
F1.0
S'best'
p1053
I0
tp1054
a(I41
I34
F-0.5
S'fix'
p1055
I0
tp1056
a(I41
I34
I0
S'speak'
p1057
I0
tp1058
a(I42
I4
F0.5
S'hopeful'
p1059
I0
tp1060
a(I42
I4
F-0.125
S'future'
p1061
I0
tp1062
a(I43
I34
F-0.375
S'simple'
p1063
I0
tp1064
a(I46
I4
F-0.5
S'sure'
p1065
I0
tp1066
a(I46
I27
F0.375
S'available'
p1067
I0
tp1068
a(I47
I35
F0.375
S'early'
p1069
I0
tp1070
a(I47
I109
I0
S'wish'
p1071
I0
tp1072
a(I47
I109
F1.0
S'best'
p1073
I0
tp1074
a(I48
I10
F1.0
S'better'
p1075
I0
tp1076
a(I49
I0
I0
S'fast'
p1077
I0
tp1078
a(I50
I0
F0.125
g980
I0
tp1079
a(I50
I34
I0
S'different'
p1080
I0
tp1081
a(I50
I40
I0
S'active'
p1082
I0
tp1083
a(I51
I34
F-0.625
S'glad'
p1084
I0
tp1085
a(I53
I65
F-0.625
S'other'
p1086
I0
tp1087
a(I56
I68
I0
S'old'
p1088
I0
tp1089
a(I56
I84
I0
S'next'
p1090
I0
tp1091
a(I57
I30
I0
S'great'
p1092
I0
tp1093
a(I57
I38
F1.0
S'better'
p1094
I0
tp1095
a(I61
I162
F-0.375
S'manual'
p1096
I0
tp1097
a(I62
I51
I0
S'such'
p1098
I0
tp1099
a(I63
I49
I0
S'more'
p1100
I0
tp1101
a(I63
I57
F0.375
S'honest'
p1102
I0
tp1103
a(I65
I107
I0
S'more'
p1104
I0
tp1105
a(I66
I69
F-0.625
S'other'
p1106
I0
tp1107
a(I67
I54
F1.0
S'best'
p1108
I0
tp1109
a(I67
I66
F1.0
S'best'
p1110
I0
tp1111
a(I68
I15
F0.375
S'new'
p1112
I0
tp1113
a(I71
I0
F0.375
S'new'
p1114
I0
tp1115
a(I71
I3
F-0.75
S'wrong'
p1116
I0
tp1117
a(I71
I74
I0
S'earlier'
p1118
I0
tp1119
a(I71
I91
I0
S'great'
p1120
I0
tp1121
a(I71
I105
F0.125
S'able'
p1122
I0
tp1123
a(I71
I115
F0.875
S'nice'
p1124
I0
tp1125
as(S'in'
p1126
S'fm'
p1127
S'transmitter'
p1128
tp1129
(lp1130
(I6
I104
F0.875
S'music'
p1131
I0
tp1132
a(I6
I196
F1.0
S'best'
p1133
I0
tp1134
a(I7
I58
F1.0
S'good'
p1135
I0
tp1136
a(I33
I153
I0
S'integrated'
p1137
I0
tp1138
a(I36
I188
I0
S'infrared'
p1139
I0
tp1140
a(I47
I25
F0.125
S'enough'
p1141
I0
tp1142
a(I6
I104
F0.875
g1131
I0
tp1143
a(I6
I196
F1.0
g1133
I0
tp1144
a(I7
I58
F1.0
g1135
I0
tp1145
a(I25
I57
I0
S'useful'
p1146
I0
tp1147
a(I33
I153
I0
g1137
I0
tp1148
a(I36
I188
I0
g1139
I0
tp1149
a(I47
I25
F0.125
g1141
I0
tp1150
as(g229
S'long'
p1151
S'time'
p1152
tp1153
(lp1154
(I1
I22
I0
S'same'
p1155
I12
tp1156
a(I1
I22
F-0.625
S'want'
p1157
I12
tp1158
a(I4
I7
F-0.5
S'long'
p1159
I12
tp1160
a(I11
I37
F-0.5
S'long'
p1161
I12
tp1162
a(I15
I6
F-0.5
S'long'
p1163
I12
tp1164
a(I15
I6
F-0.5
S'sure'
p1165
I12
tp1166
a(I29
I6
F-0.5
S'long'
p1167
I12
tp1168
a(I32
I94
F0.125
S'first'
p1169
I12
tp1170
a(I52
I156
F-0.5
S'long'
p1171
I12
tp1172
a(I52
I176
F-0.5
S'long'
p1173
I12
tp1174
a(I64
I63
F-0.5
S'long'
p1175
I12
tp1176
a(I65
I106
F-0.5
S'long'
p1177
I12
tp1178
a(I68
I18
F-0.5
S'long'
p1179
I12
tp1180
as(S'operating'
p1181
S'system'
p1182
tp1183
(lp1184
(I3
I141
I0
S'entire'
p1185
I2
tp1186
a(I12
I23
F-0.375
S'unstable'
p1187
I2
tp1188
a(I23
I135
I0
S'different'
p1189
I2
tp1190
a(I44
I56
F0.375
S'honest'
p1191
I2
tp1192
a(I44
I56
F0.5
S'accurate'
p1193
I2
tp1194
as(S'bluetooth'
p1195
tp1196
(lp1197
(I7
I49
F0.125
S'usual'
p1198
I3
tp1199
a(I7
I50
F1.0
S'good'
p1200
I3
tp1201
a(I23
I188
I0
S'same'
p1202
I3
tp1203
a(I52
I6
F0.5
S'possible'
p1204
I3
tp1205
a(I61
I78
F0.875
S'music'
p1206
I3
tp1207
as(S'open'
p1208
S'source'
p1209
tp1210
(lp1211
(I1
I22
F-0.5
S'open'
p1212
I0
tp1213
a(I2
I15
F-0.5
S'open'
p1214
I0
tp1215
a(I3
I159
F-0.5
S'open'
p1216
I0
tp1217
a(I4
I62
F-0.5
S'open'
p1218
I0
tp1219
a(I6
I259
I0
S'great'
p1220
I0
tp1221
a(I6
I259
F-0.5
S'open'
p1222
I0
tp1223
a(I7
I97
F-0.5
S'open'
p1224
I0
tp1225
a(I17
I9
F-0.5
S'open'
p1226
I0
tp1227
a(I24
I23
I0
S'great'
p1228
I0
tp1229
a(I24
I23
F-0.5
S'open'
p1230
I0
tp1231
a(I34
I9
F-0.5
S'open'
p1232
I0
tp1233
a(I40
I22
F-0.5
S'open'
p1234
I0
tp1235
a(I40
I33
F-0.5
S'open'
p1236
I0
tp1237
a(I40
I52
F-0.5
S'open'
p1238
I0
tp1239
a(I40
I53
F-0.5
S'open'
p1240
I0
tp1241
a(I44
I30
F-0.5
S'open'
p1242
I0
tp1243
a(I48
I53
F-0.5
S'open'
p1244
I0
tp1245
a(I48
I61
F0.75
S'due'
p1246
I0
tp1247
a(I48
I61
F-0.5
S'open'
p1248
I0
tp1249
a(I52
I204
F-0.5
S'open'
p1250
I0
tp1251
a(I53
I73
F-0.5
S'open'
p1252
I0
tp1253
a(I53
I73
I0
S'great'
p1254
I0
tp1255
a(I61
I18
F-0.5
S'certain'
p1256
I0
tp1257
a(I61
I18
F-0.5
S'open'
p1258
I0
tp1259
a(I67
I65
F-0.5
S'open'
p1260
I0
tp1261
a(I69
I65
F-0.5
S'open'
p1262
I0
tp1263
a(I69
I65
F0.375
S'meant'
p1264
I0
tp1265
a(I71
I76
F-0.5
S'open'
p1266
I0
tp1267
as(S'better'
p1268
S'than'
p1269
S'iphone'
p1270
tp1271
(lp1272
(I6
I285
F1.0
S'better'
p1273
I0
tp1274
a(I6
I285
I0
S'general'
p1275
I0
tp1276
a(I9
I10
F1.0
S'better'
p1277
I0
tp1278
a(I22
I8
F0.5
S'comparable'
p1279
I0
tp1280
a(I42
I17
F-0.75
S'stupid'
p1281
I0
tp1282
a(I60
I21
F1.0
S'better'
p1283
I0
tp1284
a(I61
I5
F-0.625
S'other'
p1285
I0
tp1286
a(I1
I47
F1.0
S'good'
p1287
I1
tp1288
a(I2
I74
F0.25
S'main'
p1289
I1
tp1290
a(I2
I74
I0
S'most'
p1291
I1
tp1292
a(I2
I74
F0.125
S'popular'
p1293
I1
tp1294
a(I3
I66
F0.5
S'whole'
p1295
I1
tp1296
a(I4
I24
F-0.75
S'worse'
p1297
I1
tp1298
a(I4
I62
F0.25
S'recent'
p1299
I1
tp1300
a(I6
I75
F0.625
S'decent'
p1301
I1
tp1302
a(I6
I82
I0
S'fluid'
p1303
I1
tp1304
a(I6
I285
F1.0
g1273
I1
tp1305
a(I6
I285
I0
g1275
I1
tp1306
a(I6
I303
I0
S'next'
p1307
I1
tp1308
a(I7
I140
F-0.625
S'other'
p1309
I1
tp1310
a(I9
I10
F1.0
g1277
I1
tp1311
a(I9
I18
F-0.5
S'vibrate'
p1312
I1
tp1313
a(I13
I10
F0.375
S'much'
p1314
I1
tp1315
a(I17
I109
F0.25
S'responsive'
p1316
I1
tp1317
a(I21
I17
F1.0
S'better'
p1318
I1
tp1319
a(I22
I8
F0.5
g1279
I1
tp1320
a(I23
I213
F0.125
S'equal'
p1321
I1
tp1322
a(I23
I215
I0
S'capacitive'
p1323
I1
tp1324
a(I27
I42
F0.375
S'much'
p1325
I1
tp1326
a(I27
I46
F0.125
S'magic'
p1327
I1
tp1328
a(I32
I87
F-0.625
S'useless'
p1329
I1
tp1330
a(I32
I87
F1.0
S'good'
p1331
I1
tp1332
a(I32
I87
F0.125
S'popular'
p1333
I1
tp1334
a(I34
I42
I0
S'user'
p1335
I1
tp1336
a(I36
I3
F-0.375
S'smaller'
p1337
I1
tp1338
a(I36
I215
I0
S'own'
p1339
I1
tp1340
a(I37
I85
F0.25
S'familiar'
p1341
I1
tp1342
a(I38
I1
I0
S'more'
p1343
I1
tp1344
a(I38
I2
I0
S'exact'
p1345
I1
tp1346
a(I39
I4
I0
S'such'
p1347
I1
tp1348
a(I41
I31
I0
S'cool'
p1349
I1
tp1350
a(I42
I17
F-0.75
g1281
I1
tp1351
a(I44
I3
I0
S'mobile'
p1352
I1
tp1353
a(I44
I70
I0
S'many'
p1354
I1
tp1355
a(I47
I104
F0.125
S'popular'
p1356
I1
tp1357
a(I48
I14
F-0.5
S'long'
p1358
I1
tp1359
a(I50
I105
I-100
S'phone-including'
p1360
I1
tp1361
a(I54
I8
F0.375
S'extra'
p1362
I1
tp1363
a(I60
I21
F1.0
g1283
I1
tp1364
a(I60
I42
I0
S'thick'
p1365
I1
tp1366
a(I61
I5
F-0.625
g1285
I1
tp1367
a(I63
I28
F0.375
S'available'
p1368
I1
tp1369
a(I68
I22
F1.0
S'good'
p1370
I1
tp1371
a(I69
I40
I0
S'such'
p1372
I1
tp1373
a(I71
I49
F-0.625
S'bad'
p1374
I1
tp1375
as(S'ease'
p1376
S'of'
p1377
S'use'
p1378
tp1379
(lp1380
(I7
I117
F-0.375
S'simple'
p1381
I1
tp1382
as(S'web'
p1383
S'browsing'
p1384
tp1385
(lp1386
(I6
I277
I0
S'same'
p1387
I0
tp1388
a(I9
I20
F0.875
S'music'
p1389
I0
tp1390
a(I12
I35
F1.0
S'best'
p1391
I0
tp1392
a(I12
I35
I0
S'mobile'
p1393
I0
tp1394
a(I17
I12
I0
S'same'
p1395
I0
tp1396
a(I40
I21
F0.875
S'music'
p1397
I0
tp1398
a(I54
I23
I0
S'more'
p1399
I0
tp1400
a(I54
I23
F0.5
S'advanced'
p1401
I0
tp1402
a(I56
I23
I0
S'great'
p1403
I0
tp1404
a(I69
I37
I0
S'mobile'
p1405
I0
tp1406
as(S'gon'
p1407
S'na'
p1408
tp1409
(lp1410
(I65
I90
F0.125
S'last'
p1411
I1
tp1412
as(S'in'
p1413
S'portrait'
p1414
S'mode'
p1415
tp1416
(lp1417
(I2
I33
I0
S'full'
p1418
I0
tp1419
a(I2
I33
F0.375
S'available'
p1420
I0
tp1421
a(I6
I198
F0.875
S'music'
p1422
I0
tp1423
a(I13
I64
I0
S'forth'
p1424
I0
tp1425
a(I36
I156
I0
S'such'
p1426
I0
tp1427
a(I2
I33
I0
g1418
I0
tp1428
a(I2
I33
F0.375
g1420
I0
tp1429
a(I6
I198
F0.875
g1422
I0
tp1430
a(I13
I64
I0
g1424
I0
tp1431
a(I33
I177
F0.375
S'available'
p1432
I0
tp1433
a(I36
I156
I0
g1426
I0
tp1434
as(S'skype'
p1435
S'video'
p1436
S'calls'
p1437
tp1438
(lp1439
(I7
I137
I0
S'mobile'
p1440
I0
tp1441
a(I1
I15
I0
S'full'
p1442
I0
tp1443
a(I7
I137
I0
g1440
I0
tp1444
a(I7
I148
F-0.25
S'google'
p1445
I0
tp1446
a(I27
I14
F0.25
S'sign'
p1447
I0
tp1448
a(I27
I18
F0.125
S'able'
p1449
I0
tp1450
a(I44
I91
F0.625
S'easy'
p1451
I0
tp1452
a(I47
I143
F0.625
S'easy'
p1453
I0
tp1454
a(I51
I25
I0
S'great'
p1455
I0
tp1456
a(I57
I3
F-0.25
S'inexpensive'
p1457
I0
tp1458
a(I58
I14
F0.375
S'available'
p1459
I0
tp1460
a(I65
I7
F-0.125
S'slow'
p1461
I0
tp1462
a(I65
I7
F-0.375
S'unstable'
p1463
I0
tp1464
a(I71
I86
I0
S'many'
p1465
I0
tp1466
a(I12
I8
F-0.625
S'free'
p1467
I0
tp1468
a(I17
I46
I-100
S'also.-stylus'
p1469
I0
tp1470
a(I23
I21
I0
S'many'
p1471
I0
tp1472
a(I37
I67
I0
S'frequent'
p1473
I0
tp1474
a(I47
I141
F-0.625
S'free'
p1475
I0
tp1476
a(I47
I141
F-0.5
S'international'
p1477
I0
tp1478
as(S'caller'
p1479
S'id'
p1480
tp1481
(lp1482
(I6
I78
F-0.25
S'intensive'
p1483
I0
tp1484
as(g229
S'mobile'
p1485
S'computer'
p1486
tp1487
(lp1488
(I2
I60
I0
S'mobile'
p1489
I0
tp1490
a(I2
I60
I0
S'least'
p1491
I0
tp1492
a(I4
I77
I0
S'mobile'
p1493
I0
tp1494
a(I6
I198
I0
S'mobile'
p1495
I0
tp1496
a(I6
I215
I0
S'mobile'
p1497
I0
tp1498
a(I13
I116
I0
S'great'
p1499
I0
tp1500
a(I17
I3
I0
S'mobile'
p1501
I0
tp1502
a(I20
I1
I0
S'mobile'
p1503
I0
tp1504
a(I24
I0
I0
S'mobile'
p1505
I0
tp1506
a(I25
I29
F0.5
S'true'
p1507
I0
tp1508
a(I27
I35
I0
S'mobile'
p1509
I0
tp1510
a(I47
I46
F0.5
S'true'
p1511
I0
tp1512
a(I53
I0
F0.25
S'powerful'
p1513
I0
tp1514
a(I53
I0
I0
S'mobile'
p1515
I0
tp1516
a(I64
I72
I0
S'mobile'
p1517
I0
tp1518
a(I67
I1
I0
S'mobile'
p1519
I0
tp1520
a(I67
I1
F0.25
S'portable'
p1521
I0
tp1522
a(I67
I78
F0.875
S'nice'
p1523
I0
tp1524
a(I69
I17
I0
S'mobile'
p1525
I0
tp1526
a(I2
I60
I0
g1489
I0
tp1527
a(I2
I60
I0
g1491
I0
tp1528
a(I4
I77
I0
g1493
I0
tp1529
a(I6
I198
I0
g1495
I0
tp1530
a(I6
I215
I0
g1497
I0
tp1531
a(I13
I116
I0
g1499
I0
tp1532
a(I17
I3
I0
g1501
I0
tp1533
a(I20
I1
I0
g1503
I0
tp1534
a(I24
I0
I0
g1505
I0
tp1535
a(I25
I29
F0.5
g1507
I0
tp1536
a(I27
I35
I0
g1509
I0
tp1537
a(I47
I46
F0.5
g1511
I0
tp1538
a(I53
I0
F0.25
g1513
I0
tp1539
a(I53
I0
I0
g1515
I0
tp1540
a(I64
I72
I0
g1517
I0
tp1541
a(I67
I1
I0
g1519
I0
tp1542
a(I67
I1
F0.25
g1521
I0
tp1543
a(I67
I78
F0.875
g1523
I0
tp1544
a(I69
I17
I0
g1525
I0
tp1545
a(I2
I52
I0
S'great'
p1546
I0
tp1547
a(I3
I64
I0
S'only'
p1548
I0
tp1549
a(I3
I64
F0.625
S'major'
p1550
I0
tp1551
a(I6
I220
F0.375
S'new'
p1552
I0
tp1553
a(I6
I227
F0.375
S'new'
p1554
I0
tp1555
a(I7
I146
I0
S'valuable'
p1556
I0
tp1557
a(I13
I116
I0
g1499
I0
tp1558
a(I23
I110
F0.5
S'true'
p1559
I0
tp1560
a(I23
I209
F-0.5
S'heavy'
p1561
I0
tp1562
a(I47
I46
F0.5
g1511
I0
tp1563
a(I67
I78
F0.875
g1523
I0
tp1564
as(S'5'
p1565
S'mp'
p1566
S'camera'
p1567
tp1568
(lp1569
(I1
I22
F1.0
S'better'
p1570
I0
tp1571
a(I2
I44
I0
S'great'
p1572
I0
tp1573
a(I26
I3
I0
S'great'
p1574
I0
tp1575
a(I33
I104
F0.25
S'main'
p1576
I0
tp1577
a(I65
I77
I0
S'great'
p1578
I0
tp1579
a(I69
I90
F1.0
S'good'
p1580
I0
tp1581
a(I1
I16
F1.0
S'good'
p1582
I1
tp1583
a(I1
I22
F1.0
g1570
I1
tp1584
a(I1
I34
F-0.5
S'poor'
p1585
I1
tp1586
a(I3
I153
I0
S'full'
p1587
I1
tp1588
a(I6
I100
F-0.625
S'other'
p1589
I1
tp1590
a(I6
I143
I0
S'great'
p1591
I1
tp1592
a(I6
I237
F1.0
S'better'
p1593
I1
tp1594
a(I7
I18
F-0.625
S'bad'
p1595
I1
tp1596
a(I23
I75
F-0.75
S'secondary'
p1597
I1
tp1598
a(I23
I216
I0
S'cool'
p1599
I1
tp1600
a(I25
I1
I0
S'great'
p1601
I1
tp1602
a(I26
I3
I0
g1574
I1
tp1603
a(I27
I31
F1.0
S'good'
p1604
I1
tp1605
a(I30
I17
I0
S'great'
p1606
I1
tp1607
a(I33
I27
F1.0
S'good'
p1608
I1
tp1609
a(I33
I88
F0.25
S'main'
p1610
I1
tp1611
a(I33
I104
F0.25
g1576
I1
tp1612
a(I36
I120
F1.0
S'good'
p1613
I1
tp1614
a(I36
I253
I0
S'great'
p1615
I1
tp1616
a(I37
I2
F0.5
S'expensive'
p1617
I1
tp1618
a(I37
I2
I0
S'great'
p1619
I1
tp1620
a(I42
I11
F1.0
S'good'
p1621
I1
tp1622
a(I44
I17
I0
S'real'
p1623
I1
tp1624
a(I47
I125
I0
S'great'
p1625
I1
tp1626
a(I50
I15
I0
S'great'
p1627
I1
tp1628
a(I52
I78
F0.125
S'digital'
p1629
I1
tp1630
a(I60
I53
F0.25
S'main'
p1631
I1
tp1632
a(I61
I82
F1.0
S'better'
p1633
I1
tp1634
a(I61
I82
F1.0
S'better'
p1635
I1
tp1636
a(I61
I122
F1.0
S'good'
p1637
I1
tp1638
a(I63
I13
I0
S'cool'
p1639
I1
tp1640
a(I63
I30
F1.0
S'good'
p1641
I1
tp1642
a(I65
I8
F-0.5
S'poor'
p1643
I1
tp1644
a(I65
I77
I0
g1578
I1
tp1645
a(I66
I22
I0
S'great'
p1646
I1
tp1647
a(I67
I59
F1.0
S'good'
p1648
I1
tp1649
a(I69
I90
F1.0
g1580
I1
tp1650
a(I69
I91
F0.125
S'dedicated'
p1651
I1
tp1652
a(I71
I22
F0.125
S'impressive'
p1653
I1
tp1654
a(I71
I97
F0.125
S'able'
p1655
I1
tp1656
as(S'contacts'
p1657
tp1658
(lp1659
(I7
I32
F-0.25
S'google'
p1660
I0
tp1661
a(I17
I25
F0.875
S'music'
p1662
I0
tp1663
a(I44
I77
I0
S'individual'
p1664
I0
tp1665
a(I47
I144
F-0.625
S'other'
p1666
I0
tp1667
a(I47
I145
I0
S'different'
p1668
I0
tp1669
a(I65
I62
I0
S'individual'
p1670
I0
tp1671
as(g229
S'great'
p1672
S'device'
p1673
tp1674
(lp1675
(I2
I57
I0
S'great'
p1676
I1
tp1677
a(I2
I80
I0
S'least'
p1678
I1
tp1679
a(I3
I52
I0
S'great'
p1680
I1
tp1681
a(I3
I56
F0.375
S'similar'
p1682
I1
tp1683
a(I6
I145
I0
S'great'
p1684
I1
tp1685
a(I6
I256
F1.0
S'best'
p1686
I1
tp1687
a(I23
I179
I0
S'great'
p1688
I1
tp1689
a(I32
I21
I0
S'great'
p1690
I1
tp1691
a(I40
I13
I0
S'great'
p1692
I1
tp1693
a(I43
I27
I0
S'great'
p1694
I1
tp1695
a(I45
I28
I0
S'great'
p1696
I1
tp1697
a(I45
I28
I0
S'cool'
p1698
I1
tp1699
a(I45
I28
I0
S'fast'
p1700
I1
tp1701
a(I61
I27
I0
S'great'
p1702
I1
tp1703
as(S'interface'
p1704
tp1705
(lp1706
(I1
I58
F0.875
S'nice'
p1707
I1
tp1708
a(I4
I10
I0
S'own'
p1709
I1
tp1710
a(I6
I21
F-0.125
S'slow'
p1711
I1
tp1712
a(I6
I51
F-0.75
S'crude'
p1713
I1
tp1714
a(I6
I78
I0
S'vertical'
p1715
I1
tp1716
a(I6
I79
F0.25
S'original'
p1717
I1
tp1718
a(I6
I79
F0.875
S'nice'
p1719
I1
tp1720
a(I13
I6
I0
S'fast'
p1721
I1
tp1722
a(I20
I6
I0
S'great'
p1723
I1
tp1724
a(I25
I18
F1.0
S'best'
p1725
I1
tp1726
a(I30
I15
I0
S'resistive'
p1727
I1
tp1728
a(I30
I77
I0
S'same'
p1729
I1
tp1730
a(I33
I46
F-0.375
S'simple'
p1731
I1
tp1732
a(I33
I58
F0.875
S'nice'
p1733
I1
tp1734
a(I33
I107
I0
S'same'
p1735
I1
tp1736
a(I33
I218
I0
S'quick'
p1737
I1
tp1738
a(I33
I218
F0.25
S'responsive'
p1739
I1
tp1740
a(I36
I166
F1.0
S'good'
p1741
I1
tp1742
a(I52
I10
I0
S'graphical'
p1743
I1
tp1744
a(I52
I38
F0.375
S'available'
p1745
I1
tp1746
a(I61
I148
I0
S'great'
p1747
I1
tp1748
a(I63
I22
I-100
S'command-line'
p1749
I1
tp1750
a(I65
I34
I0
S'different'
p1751
I1
tp1752
a(I65
I34
F0.125
S'usual'
p1753
I1
tp1754
a(I67
I17
F0.625
S'pleasant'
p1755
I1
tp1756
a(I71
I118
F0.25
S'powerful'
p1757
I1
tp1758
as(S'star'
p1759
S'trek'
p1760
tp1761
(lp1762
(I17
I68
I0
S'great'
p1763
I0
tp1764
a(I17
I68
I0
S'tutorial'
p1765
I0
tp1766
a(I17
I68
F-0.5
S'heavy'
p1767
I0
tp1768
a(I62
I33
F-0.625
S'free'
p1769
I0
tp1770
as(S'form'
p1771
S'factor'
p1772
tp1773
(lp1774
(I52
I79
F-0.25
S'thin'
p1775
I1
tp1776
as(S'web'
p1777
S'browser'
p1778
tp1779
(lp1780
(I4
I106
I0
S'full'
p1781
I0
tp1782
a(I4
I106
I0
S'fledged'
p1783
I0
tp1784
a(I12
I35
F1.0
g1391
I0
tp1785
a(I12
I35
I0
g1393
I0
tp1786
a(I23
I9
I0
S'great'
p1787
I0
tp1788
a(I23
I9
F0.625
S'easy'
p1789
I0
tp1790
a(I23
I9
I0
S'full'
p1791
I0
tp1792
a(I33
I180
F-0.125
S'overall'
p1793
I0
tp1794
a(I33
I181
I0
S'fast'
p1795
I0
tp1796
a(I33
I181
I0
S'full'
p1797
I0
tp1798
a(I37
I0
I0
S'useful'
p1799
I0
tp1800
a(I52
I202
F1.0
S'best'
p1801
I0
tp1802
a(I53
I1
I0
S'great'
p1803
I0
tp1804
a(I60
I65
F1.0
S'good'
p1805
I0
tp1806
a(I62
I1
I0
S'real'
p1807
I0
tp1808
a(I6
I81
F1.0
S'best'
p1809
I0
tp1810
a(I23
I9
F0.625
g1789
I0
tp1811
a(I23
I51
I0
S'more'
p1812
I0
tp1813
a(I30
I15
F-0.625
S'bad'
p1814
I0
tp1815
a(I33
I190
I0
S'closing'
p1816
I0
tp1817
a(I36
I17
F0.875
S'nice'
p1818
I0
tp1819
a(I37
I0
I0
g1799
I0
tp1820
a(I46
I14
I0
S'full'
p1821
I0
tp1822
a(I47
I151
F1.0
S'best'
p1823
I0
tp1824
a(I52
I46
F-0.5
S'open'
p1825
I0
tp1826
a(I53
I1
I0
g1803
I0
tp1827
a(I59
I42
I0
S'great'
p1828
I0
tp1829
a(I60
I65
F1.0
g1805
I0
tp1830
a(I61
I93
I0
S'first-rate'
p1831
I0
tp1832
a(I62
I42
F0.125
S'solid'
p1833
I0
tp1834
a(I63
I30
F0.5
S'functional'
p1835
I0
tp1836
a(I66
I21
F1.0
S'better'
p1837
I0
tp1838
a(I66
I29
I0
S'great'
p1839
I0
tp1840
a(I66
I71
I0
S'mobile'
p1841
I0
tp1842
a(I66
I72
I0
S'least'
p1843
I0
tp1844
a(I71
I26
F1.0
S'best'
p1845
I0
tp1846
as(S'fun'
p1847
S'to'
p1848
S'use'
p1849
tp1850
(lp1851
(I36
I188
F0.125
S'practical'
p1852
I0
tp1853
as(S'piece'
p1854
S'of'
p1855
S'hardware'
p1856
tp1857
(lp1858
(I50
I1
F0.125
S'impressive'
p1859
I2
tp1860
a(I66
I1
I0
S'great'
p1861
I2
tp1862
a(I66
I93
I0
S'futuristic'
p1863
I2
tp1864
a(I66
I113
I0
S'great'
p1865
I2
tp1866
as(S'smartphone'
p1867
tp1868
(lp1869
(I2
I40
F-0.625
S'other'
p1870
I0
tp1871
a(I2
I40
I0
S'more'
p1872
I0
tp1873
a(I3
I93
F0.125
S'typical'
p1874
I0
tp1875
a(I6
I91
F-0.625
S'other'
p1876
I0
tp1877
a(I6
I128
F1.0
S'best'
p1878
I0
tp1879
a(I6
I177
I0
S'most'
p1880
I0
tp1881
a(I18
I7
F0.375
S'reliable'
p1882
I0
tp1883
a(I23
I46
F0.375
S'seasoned'
p1884
I0
tp1885
a(I23
I50
F-0.625
S'other'
p1886
I0
tp1887
a(I25
I49
F-0.625
S'other'
p1888
I0
tp1889
a(I34
I42
I0
S'next'
p1890
I0
tp1891
a(I34
I42
F1.0
S'best'
p1892
I0
tp1893
a(I36
I68
F0.5
S'true'
p1894
I0
tp1895
a(I55
I3
F1.0
S'good'
p1896
I0
tp1897
a(I58
I8
I0
S'fastest'
p1898
I0
tp1899
a(I66
I53
F0.625
S'sophisticated'
p1900
I0
tp1901
a(I68
I0
F-0.75
S'difficult'
p1902
I0
tp1903
as(S'turn'
p1904
S'by'
p1905
S'turn'
p1906
tp1907
(lp1908
(I6
I352
F-0.625
S'free'
p1909
I0
tp1910
as(S'in'
p1911
S'landscape'
p1912
S'mode'
p1913
tp1914
(lp1915
(I36
I156
I0
g1426
I0
tp1916
as(S'wifi'
p1917
tp1918
(lp1919
(I3
I13
F-0.375
S'near'
p1920
I0
tp1921
a(I4
I47
I0
S'standard'
p1922
I0
tp1923
a(I7
I6
F1.0
S'good'
p1924
I0
tp1925
a(I40
I17
F-0.5
S'regular'
p1926
I0
tp1927
a(I43
I25
F-0.625
S'free'
p1928
I0
tp1929
a(I46
I35
I0
S'great'
p1930
I0
tp1931
a(I52
I13
F-0.375
S'disable'
p1932
I0
tp1933
a(I52
I102
F0.625
S'easy'
p1934
I0
tp1935
a(I52
I115
F-0.375
S'disable'
p1936
I0
tp1937
a(I53
I56
I0
S'same'
p1938
I0
tp1939
a(I57
I3
F1.0
S'good'
p1940
I0
tp1941
a(I65
I17
I0
S'active'
p1942
I0
tp1943
a(I67
I53
I-100
S'dataplan'
p1944
I0
tp1945
as(S'couple'
p1946
S'of'
p1947
S'weeks'
p1948
tp1949
(lp1950
(I4
I101
I0
S'next'
p1951
I2
tp1952
a(I61
I41
I0
S'non-issue'
p1953
I2
tp1954
as(S'apps'
p1955
tp1956
(lp1957
(I1
I17
I0
S'few'
p1958
I0
tp1959
a(I1
I17
F1.0
S'good'
p1960
I0
tp1961
a(I1
I22
I0
S'fast'
p1962
I0
tp1963
a(I1
I22
F-0.625
S'free'
p1964
I0
tp1965
a(I1
I62
I0
S'few'
p1966
I0
tp1967
a(I1
I62
I0
S'most'
p1968
I0
tp1969
a(I1
I62
F-0.75
S'stupid'
p1970
I0
tp1971
a(I1
I67
I0
S'many'
p1972
I0
tp1973
a(I1
I71
I0
S'useful'
p1974
I0
tp1975
a(I2
I4
F-0.5
S'open'
p1976
I0
tp1977
a(I2
I6
F-0.5
S'open'
p1978
I0
tp1979
a(I2
I31
F0.375
S'available'
p1980
I0
tp1981
a(I2
I55
I0
S'many'
p1982
I0
tp1983
a(I2
I55
I0
S'different'
p1984
I0
tp1985
a(I4
I49
F0.75
S'due'
p1986
I0
tp1987
a(I6
I108
I0
S'many'
p1988
I0
tp1989
a(I6
I108
F-0.5
S'open'
p1990
I0
tp1991
a(I6
I125
I0
S'more'
p1992
I0
tp1993
a(I6
I152
I0
S'least'
p1994
I0
tp1995
a(I6
I185
I0
S'many'
p1996
I0
tp1997
a(I6
I212
I0
S'write'
p1998
I0
tp1999
a(I6
I249
F-0.125
S'delete'
p2000
I0
tp2001
a(I6
I269
F0.375
S'much'
p2002
I0
tp2003
a(I7
I106
I0
S'few'
p2004
I0
tp2005
a(I7
I107
F0.375
S'available'
p2006
I0
tp2007
a(I7
I117
F0.625
S'sexy'
p2008
I0
tp2009
a(I8
I36
F0.5
S'functional'
p2010
I0
tp2011
a(I8
I37
I0
S'many'
p2012
I0
tp2013
a(I13
I10
F1.0
S'good'
p2014
I0
tp2015
a(I13
I10
F-0.625
S'free'
p2016
I0
tp2017
a(I13
I62
I0
S'more'
p2018
I0
tp2019
a(I17
I43
F0.5
S'expensive'
p2020
I0
tp2021
a(I17
I57
I0
S'more'
p2022
I0
tp2023
a(I23
I31
F0.375
S'available'
p2024
I0
tp2025
a(I23
I37
I0
S'many'
p2026
I0
tp2027
a(I23
I109
I0
S'more'
p2028
I0
tp2029
a(I27
I3
F0.5
S'sensible'
p2030
I0
tp2031
a(I27
I38
I0
S'many'
p2032
I0
tp2033
a(I27
I43
I0
S'few'
p2034
I0
tp2035
a(I30
I58
I0
S'many'
p2036
I0
tp2037
a(I30
I58
F0.375
S'available'
p2038
I0
tp2039
a(I32
I1
I0
S'most'
p2040
I0
tp2041
a(I32
I33
I0
S'very'
p2042
I0
tp2043
a(I32
I33
I0
S'minimal'
p2044
I0
tp2045
a(I32
I34
I0
S'basic'
p2046
I0
tp2047
a(I32
I77
I0
S'most'
p2048
I0
tp2049
a(I32
I78
F0.375
S'available'
p2050
I0
tp2051
a(I32
I79
F0.375
S'available'
p2052
I0
tp2053
a(I33
I6
I0
S'many'
p2054
I0
tp2055
a(I33
I6
F0.375
S'available'
p2056
I0
tp2057
a(I33
I7
I0
S'incredible'
p2058
I0
tp2059
a(I33
I7
F-0.625
S'free'
p2060
I0
tp2061
a(I33
I15
F1.0
S'good'
p2062
I0
tp2063
a(I33
I15
F-0.625
S'other'
p2064
I0
tp2065
a(I33
I201
I0
S'suite'
p2066
I0
tp2067
a(I34
I29
I0
S'cool'
p2068
I0
tp2069
a(I36
I14
F-0.75
S'little'
p2070
I0
tp2071
a(I36
I27
F-0.625
S'other'
p2072
I0
tp2073
a(I36
I40
I0
S'standard'
p2074
I0
tp2075
a(I36
I40
F0.625
S'easy'
p2076
I0
tp2077
a(I36
I187
I0
S'few'
p2078
I0
tp2079
a(I36
I223
I0
S'handy'
p2080
I0
tp2081
a(I37
I2
I0
S'different'
p2082
I0
tp2083
a(I37
I2
I0
S'different'
p2084
I0
tp2085
a(I37
I2
I0
S'useful'
p2086
I0
tp2087
a(I37
I84
F-0.5
S'long'
p2088
I0
tp2089
a(I37
I84
I0
S'great'
p2090
I0
tp2091
a(I40
I21
F0.375
S'new'
p2092
I0
tp2093
a(I46
I48
F0.75
S'give'
p2094
I0
tp2095
a(I47
I15
F-0.5
S'certain'
p2096
I0
tp2097
a(I47
I101
I0
S'many'
p2098
I0
tp2099
a(I47
I101
F0.375
S'available'
p2100
I0
tp2101
a(I47
I120
F-0.625
S'free'
p2102
I0
tp2103
a(I47
I154
I0
S'few'
p2104
I0
tp2105
a(I47
I154
F-0.5
S'unsatisfactory'
p2106
I0
tp2107
a(I48
I15
F0.375
S'available'
p2108
I0
tp2109
a(I48
I61
F0.375
S'available'
p2110
I0
tp2111
a(I52
I52
I0
S'great'
p2112
I0
tp2113
a(I53
I45
I0
S'more'
p2114
I0
tp2115
a(I53
I45
F-0.125
S'complex'
p2116
I0
tp2117
a(I56
I81
I0
S'many'
p2118
I0
tp2119
a(I60
I62
I0
S'few'
p2120
I0
tp2121
a(I60
I62
F0.875
S'important'
p2122
I0
tp2123
a(I62
I68
F0.375
S'new'
p2124
I0
tp2125
a(I63
I17
I0
S'many'
p2126
I0
tp2127
a(I64
I74
I0
S'most'
p2128
I0
tp2129
a(I66
I59
F0.375
S'extra'
p2130
I0
tp2131
a(I66
I63
F-0.625
S'free'
p2132
I0
tp2133
a(I67
I5
I0
S'few'
p2134
I0
tp2135
a(I68
I5
I0
S'many'
p2136
I0
tp2137
a(I68
I5
F-0.625
S'other'
p2138
I0
tp2139
a(I69
I89
I0
S'own'
p2140
I0
tp2141
a(I71
I115
I0
S'most'
p2142
I0
tp2143
as(S'nokia'
p2144
S'n900'
p2145
tp2146
(lp2147
(I0
I0
F1.0
g984
I0
tp2148
a(I4
I3
F-0.5
g994
I0
tp2149
a(I4
I76
F0.125
S'last'
p2150
I0
tp2151
a(I6
I385
I0
S'big'
p2152
I0
tp2153
a(I7
I9
F1.0
S'best'
p2154
I0
tp2155
a(I7
I14
F1.0
g1017
I0
tp2156
a(I13
I24
F0.375
S'room'
p2157
I0
tp2158
a(I13
I39
F0.5
S'personal'
p2159
I0
tp2160
a(I23
I208
F0.5
S'comparable'
p2161
I0
tp2162
a(I25
I38
F0.375
S'available'
p2163
I0
tp2164
a(I25
I75
I0
g1033
I0
tp2165
a(I27
I43
F0.75
g1035
I0
tp2166
a(I27
I48
F-0.375
g1037
I0
tp2167
a(I32
I82
I0
g1041
I0
tp2168
a(I37
I23
F1.0
S'better'
p2169
I0
tp2170
a(I37
I57
F0.625
g1047
I0
tp2171
a(I40
I43
I0
g1049
I0
tp2172
a(I40
I43
F-0.625
g1051
I0
tp2173
a(I46
I27
F0.375
g1067
I0
tp2174
a(I57
I30
I0
g1092
I0
tp2175
a(I67
I76
I0
S'great'
p2176
I0
tp2177
a(I71
I0
F0.375
g1114
I0
tp2178
a(I71
I0
F0.875
S'nice'
p2179
I0
tp2180
a(I1
I41
F0.5
S'greater'
p2181
I0
tp2182
a(I1
I41
F-0.25
S'potential'
p2183
I0
tp2184
a(I1
I46
F0.125
S'key'
p2185
I0
tp2186
a(I1
I46
F-0.875
S'hard'
p2187
I0
tp2188
a(I2
I34
F-0.25
S'potential'
p2189
I0
tp2190
a(I2
I50
I0
S'cool'
p2191
I0
tp2192
a(I2
I71
F0.5
S'functional'
p2193
I0
tp2194
a(I2
I79
I0
S'user'
p2195
I0
tp2196
a(I3
I56
F0.75
S'consider'
p2197
I0
tp2198
a(I3
I117
F0.5
S'grateful'
p2199
I0
tp2200
a(I3
I128
I0
S'large'
p2201
I0
tp2202
a(I3
I128
F-0.5
S'heavy'
p2203
I0
tp2204
a(I3
I137
F0.125
S'able'
p2205
I0
tp2206
a(I3
I145
F0.125
S'capable'
p2207
I0
tp2208
a(I4
I76
F0.125
g2150
I0
tp2209
a(I4
I94
F0.875
S'happy'
p2210
I0
tp2211
a(I6
I139
F-0.25
S'potential'
p2212
I0
tp2213
a(I6
I208
I0
S'vouch'
p2214
I0
tp2215
a(I6
I217
F-0.25
S'low'
p2216
I0
tp2217
a(I6
I269
F0.375
S'much'
p2218
I0
tp2219
a(I6
I385
I0
g2152
I0
tp2220
a(I7
I5
F0.125
S'able'
p2221
I0
tp2222
a(I7
I9
F1.0
g2154
I0
tp2223
a(I7
I26
I0
S'useful'
p2224
I0
tp2225
a(I7
I53
F1.0
S'good'
p2226
I0
tp2227
a(I7
I115
F0.5
S'possible'
p2228
I0
tp2229
a(I9
I43
I0
S'many'
p2230
I0
tp2231
a(I9
I54
F0.375
S'new'
p2232
I0
tp2233
a(I12
I44
F-0.125
S'super'
p2234
I0
tp2235
a(I12
I47
I0
S'same'
p2236
I0
tp2237
a(I13
I24
F0.375
g2157
I0
tp2238
a(I13
I39
F0.5
g2159
I0
tp2239
a(I13
I84
I0
S'own'
p2240
I0
tp2241
a(I17
I4
F0.125
S'solid'
p2242
I0
tp2243
a(I17
I4
F-0.75
S'comfortable'
p2244
I0
tp2245
a(I22
I5
F1.0
S'love'
p2246
I0
tp2247
a(I22
I5
F1.0
S'better'
p2248
I0
tp2249
a(I23
I54
F-0.375
S'simple'
p2250
I0
tp2251
a(I23
I96
F-0.125
S'overall'
p2252
I0
tp2253
a(I23
I96
F0.125
S'solid'
p2254
I0
tp2255
a(I23
I96
F-0.5
S'fun'
p2256
I0
tp2257
a(I23
I208
F0.5
g2161
I0
tp2258
a(I23
I238
F0.125
S'above'
p2259
I0
tp2260
a(I24
I15
F0.125
S'first'
p2261
I0
tp2262
a(I24
I22
F0.5
S'true'
p2263
I0
tp2264
a(I25
I38
F0.375
g2163
I0
tp2265
a(I30
I65
F-0.125
S'overall'
p2266
I0
tp2267
a(I32
I87
I0
S'more'
p2268
I0
tp2269
a(I33
I142
F-0.875
S'hard'
p2270
I0
tp2271
a(I33
I173
F0.25
S'main'
p2272
I0
tp2273
a(I33
I267
F0.875
S'happy'
p2274
I0
tp2275
a(I33
I286
I0
S'more'
p2276
I0
tp2277
a(I36
I75
F1.0
S'good'
p2278
I0
tp2279
a(I36
I78
F0.25
S'original'
p2280
I0
tp2281
a(I36
I198
I0
S'useful'
p2282
I0
tp2283
a(I37
I23
F1.0
g2169
I0
tp2284
a(I37
I35
F0.375
S'similar'
p2285
I0
tp2286
a(I37
I62
I0
S'great'
p2287
I0
tp2288
a(I37
I65
F-0.75
S'short'
p2289
I0
tp2290
a(I37
I73
F-0.125
S'overall'
p2291
I0
tp2292
a(I37
I80
I0
S'third'
p2293
I0
tp2294
a(I37
I82
I0
S'different'
p2295
I0
tp2296
a(I37
I82
F0.375
S'newer'
p2297
I0
tp2298
a(I37
I82
F0.375
S'much'
p2299
I0
tp2300
a(I37
I82
I0
S'stable'
p2301
I0
tp2302
a(I40
I33
F-0.625
S'free'
p2303
I0
tp2304
a(I44
I36
I0
S'curious'
p2305
I0
tp2306
a(I44
I60
I0
S'more'
p2307
I0
tp2308
a(I44
I66
F-0.125
S'overall'
p2309
I0
tp2310
a(I44
I66
F0.875
S'happy'
p2311
I0
tp2312
a(I44
I85
F0.375
S'available'
p2313
I0
tp2314
a(I47
I23
I0
S'very'
p2315
I0
tp2316
a(I47
I23
F0.5
S'second'
p2317
I0
tp2318
a(I48
I4
I0
S'earlier'
p2319
I0
tp2320
a(I50
I36
F0.625
S'sexy'
p2321
I0
tp2322
a(I50
I36
F-0.125
S'mine'
p2323
I0
tp2324
a(I50
I98
F-0.125
S'overall'
p2325
I0
tp2326
a(I52
I62
F0.125
S'enough'
p2327
I0
tp2328
a(I52
I63
F0.125
S'first'
p2329
I0
tp2330
a(I52
I67
F0.375
S'complete'
p2331
I0
tp2332
a(I52
I178
I0
S'great'
p2333
I0
tp2334
a(I53
I20
I0
S'different'
p2335
I0
tp2336
a(I54
I13
F0.625
S'superior'
p2337
I0
tp2338
a(I56
I74
F-0.875
S'stuck'
p2339
I0
tp2340
a(I61
I86
I0
S'android'
p2341
I0
tp2342
a(I61
I91
I0
S'quick'
p2343
I0
tp2344
a(I62
I30
F1.0
S'love'
p2345
I0
tp2346
a(I66
I19
I0
S'fast'
p2347
I0
tp2348
a(I67
I39
F0.125
S'able'
p2349
I0
tp2350
a(I67
I44
I0
S'few'
p2351
I0
tp2352
a(I67
I76
I0
g2176
I0
tp2353
a(I69
I41
I0
S'physical'
p2354
I0
tp2355
a(I69
I42
F0.125
S'solid'
p2356
I0
tp2357
a(I71
I0
F0.875
g2179
I0
tp2358
as(S'linux'
p2359
tp2360
(lp2361
(I2
I32
I0
S'full'
p2362
I0
tp2363
a(I2
I40
F-0.5
S'open'
p2364
I0
tp2365
a(I3
I82
I0
S'many'
p2366
I0
tp2367
a(I3
I82
I0
S'common'
p2368
I0
tp2369
a(I3
I145
I-100
S'fully-compiled'
p2370
I0
tp2371
a(I4
I49
I0
S'standard'
p2372
I0
tp2373
a(I4
I49
I0
S'full'
p2374
I0
tp2375
a(I6
I40
I0
S'latest'
p2376
I0
tp2377
a(I12
I46
F0.375
S'new'
p2378
I0
tp2379
a(I17
I66
I0
S'full'
p2380
I0
tp2381
a(I23
I133
F0.25
S'powerful'
p2382
I0
tp2383
a(I25
I14
I0
S'full'
p2384
I0
tp2385
a(I33
I240
F0.5
S'true'
p2386
I0
tp2387
a(I33
I247
I0
S'standard'
p2388
I0
tp2389
a(I37
I55
F-0.5
S'sure'
p2390
I0
tp2391
a(I43
I17
F0.25
S'familiar'
p2392
I0
tp2393
a(I46
I22
I0
S'mobile'
p2394
I0
tp2395
a(I47
I32
I0
S'same'
p2396
I0
tp2397
a(I52
I11
F0.125
S'practical'
p2398
I0
tp2399
a(I52
I99
I0
S'many'
p2400
I0
tp2401
a(I62
I86
I0
S'only'
p2402
I0
tp2403
a(I62
I86
I0
S'real'
p2404
I0
tp2405
a(I67
I84
F-0.625
S'unfamiliar'
p2406
I0
tp2407
a(I67
I88
F-0.5
S'open'
p2408
I0
tp2409
a(I67
I88
F-0.5
S'open'
p2410
I0
tp2411
a(I68
I9
I0
S'real'
p2412
I0
tp2413
a(I71
I38
F0.25
S'biggest'
p2414
I0
tp2415
as(S'media'
p2416
S'player'
p2417
tp2418
(lp2419
(I13
I81
F1.0
S'good'
p2420
I0
tp2421
a(I30
I62
F0.5
S'compatible'
p2422
I0
tp2423
a(I50
I7
I-100
S'most/all'
p2424
I0
tp2425
a(I53
I15
F-0.5
S'poor'
p2426
I0
tp2427
as.