(dp0
(S'memory'
p1
S'card'
p2
tp3
(lp4
(I13
I12
I0
S'internal'
p5
I0
tp6
as(S'battery'
p7
S'life'
p8
tp9
(lp10
(I9
I1
F1.0
S'good'
p11
I1
tp12
a(I10
I8
F-0.5
S'long'
p13
I1
tp14
a(I23
I32
F-0.5
S'long'
p15
I1
tp16
a(I0
I13
F-0.75
S'unable'
p17
I15
tp18
a(I7
I24
F-0.75
S'dead'
p19
I15
tp20
a(I10
I8
F-0.5
g13
I15
tp21
a(I12
I30
I0
S'generic'
p22
I15
tp23
a(I12
I47
F0.375
S'new'
p24
I15
tp25
a(I12
I76
F0.25
S'sent'
p26
I15
tp27
a(I12
I76
F-0.75
S'wrong'
p28
I15
tp29
a(I23
I32
F-0.5
g15
I15
tp30
as(S'smart'
p31
S'phones'
p32
tp33
(lp34
(I10
I13
I0
S'latest'
p35
I0
tp36
as(S'with'
p37
S'touch'
p38
S'screen'
p39
tp40
(lp41
(I7
I0
F0.5
S'touch'
p42
I0
tp43
a(I8
I23
F0.5
S'touch'
p44
I0
tp45
a(I10
I6
I0
S'full'
p46
I0
tp47
a(I23
I30
I0
S'full'
p48
I0
tp49
a(I25
I5
F0.5
S'touch'
p50
I0
tp51
a(I4
I1
I0
S'sensitive'
p52
I2
tp53
a(I4
I1
I0
S'sensitive'
p54
I2
tp55
a(I4
I1
F1.0
S'good'
p56
I2
tp57
a(I5
I2
F0.5
S'touch'
p58
I2
tp59
a(I5
I3
F0.5
S'odd'
p60
I2
tp61
a(I5
I3
I0
S'awhile'
p62
I2
tp63
a(I7
I0
F0.5
g42
I2
tp64
a(I8
I23
F0.5
g44
I2
tp65
a(I8
I30
F0.5
S'touch'
p66
I2
tp67
a(I8
I30
F0.625
S'easy'
p68
I2
tp69
a(I8
I34
F0.5
S'touch'
p70
I2
tp71
a(I8
I34
F-0.75
S'little'
p72
I2
tp73
a(I8
I34
F-0.875
S'hard'
p74
I2
tp75
a(I9
I4
F-0.375
S'top'
p76
I2
tp77
a(I9
I4
F-0.75
S'difficult'
p78
I2
tp79
a(I10
I6
I0
g46
I2
tp80
a(I12
I63
F0.5
S'touch'
p81
I2
tp82
a(I13
I10
F0.5
S'touch'
p83
I2
tp84
a(I16
I11
F0.125
S'first'
p85
I2
tp86
a(I19
I12
F0.5
S'touch'
p87
I2
tp88
a(I22
I7
F0.25
S'responsive'
p89
I2
tp90
a(I23
I30
I0
g48
I2
tp91
a(I25
I5
F0.5
g50
I2
tp92
as(S'sim'
p93
S'card'
p94
tp95
(lp96
(I8
I19
F0.625
S'aware'
p97
I0
tp98
a(I8
I19
F-0.5
S'regular'
p99
I0
tp100
a(I17
I6
F-0.75
S'off'
p101
I0
tp102
as(S'amazon'
p103
tp104
(lp105
(I8
I16
F1.0
S'good'
p106
I13
tp107
as(S'camera'
p108
tp109
(lp110
(I12
I78
I0
S'sensitive'
p111
I1
tp112
as.