(dp0
(S'seller'
p1
tp2
(lp3
(I3
I15
F0.875
S'happy'
p4
I19
tp5
a(I7
I3
F0.25
S'unlocked'
p6
I19
tp7
a(I15
I84
F0.625
S'fair'
p8
I19
tp9
a(I20
I13
F1.0
S'good'
p10
I19
tp11
a(I22
I8
F1.0
S'good'
p12
I19
tp13
as(S'warranty'
p14
tp15
(lp16
(I3
I8
I0
S'same'
p17
I2
tp18
as(S'great'
p19
S'shape'
p20
tp21
(lp22
(I4
I0
I0
S'great'
p23
I7
tp24
a(I5
I2
I0
S'great'
p25
I7
tp26
a(I15
I3
I0
S'great'
p27
I7
tp28
as(S'sim'
p29
S'card'
p30
tp31
(lp32
(I15
I37
I0
S'european'
p33
I0
tp34
a(I15
I39
I0
S'european'
p35
I0
tp36
a(I15
I39
F1.0
S'good'
p37
I0
tp38
a(I17
I3
I0
S'different'
p39
I0
tp40
a(I20
I5
I0
S'quick'
p41
I0
tp42
as(S'apple'
p43
tp44
(lp45
(I17
I15
I0
S'more'
p46
I4
tp47
a(I18
I12
I0
S'restrictive'
p48
I4
tp49
as(S'iphone'
p50
S'3gs'
p51
tp52
(lp53
(I3
I1
I0
S'old'
p54
I0
tp55
a(I3
I5
F0.375
S'new'
p56
I0
tp57
a(I15
I51
I0
S'many'
p58
I0
tp59
a(I17
I14
F0.5
S'clear'
p60
I0
tp61
as(S'unlock'
p62
tp63
(lp64
(I15
I36
F-0.625
S'unclear'
p65
I0
tp66
as(S'new'
p67
S'iphone'
p68
tp69
(lp70
(I3
I5
F0.375
g56
I0
tp71
a(I3
I8
F0.375
S'new'
p72
I0
tp73
a(I15
I59
F0.375
S'new'
p74
I0
tp75
a(I15
I90
F0.375
S'new'
p76
I0
tp77
a(I22
I8
F0.375
S'new'
p78
I0
tp79
a(I3
I1
I0
g54
I1
tp80
a(I3
I5
F0.375
g56
I1
tp81
a(I3
I8
F0.375
g72
I1
tp82
a(I12
I16
F-0.5
S'less'
p83
I1
tp84
a(I12
I16
I0
S'arrive'
p85
I1
tp86
a(I15
I51
I0
g58
I1
tp87
a(I15
I59
F0.375
g74
I1
tp88
a(I15
I90
F0.375
g76
I1
tp89
a(I17
I14
F0.5
g60
I1
tp90
a(I17
I16
I0
S'same'
p91
I1
tp92
a(I17
I16
F0.5
S'rid'
p93
I1
tp94
a(I22
I5
F1.0
S'best'
p95
I1
tp96
a(I22
I8
F0.375
g78
I1
tp97
as(S'factory'
p98
tp99
(lp100
(I15
I33
I0
S'only'
p101
I2
tp102
as(S'jail'
p103
tp104
(lp105
(I10
I3
F0.5
S'second'
p106
I0
tp107
as.