(dp0
(S'text'
p1
S'message'
p2
tp3
(lp4
(I2
I60
F0.75
S'receive'
p5
I0
tp6
as(S'basic'
p7
S'cell'
p8
tp9
(lp10
(I1
I26
I0
S'basic'
p11
I0
tp12
a(I4
I17
F1.0
S'good'
p13
I0
tp14
a(I4
I17
I0
S'basic'
p15
I0
tp16
a(I4
I28
F1.0
S'good'
p17
I0
tp18
a(I4
I28
I0
S'basic'
p19
I0
tp20
a(I4
I67
F-0.375
S'small'
p21
I0
tp22
a(I4
I67
I0
S'basic'
p23
I0
tp24
a(I6
I9
F0.875
S'nice'
p25
I0
tp26
a(I6
I9
I0
S'basic'
p27
I0
tp28
as(S'battery'
p29
S'life'
p30
tp31
(lp32
(I2
I45
F1.0
S'good'
p33
I1
tp34
a(I1
I22
F-0.625
S'steady'
p35
I15
tp36
a(I2
I32
F0.25
S'original'
p37
I15
tp38
a(I2
I45
F1.0
g33
I15
tp39
a(I4
I31
F0.5
S'strong'
p40
I15
tp41
a(I4
I43
F-0.75
S'dead'
p42
I15
tp43
a(I4
I69
F0.375
S'extra'
p44
I15
tp45
as(S'tech'
p46
S'support'
p47
tp48
(lp49
(I4
I78
I0
S'later'
p50
I1
tp51
as(S'camera'
p52
tp53
(lp54
(I6
I16
F1.0
S'good'
p55
I1
tp56
as(S'double'
p57
S'minutes'
p58
tp59
(lp60
(I1
I28
F-0.375
S'double'
p61
I0
tp62
a(I3
I30
F-0.375
S'double'
p63
I0
tp64
a(I6
I19
F-0.625
S'free'
p65
I0
tp66
a(I6
I19
F-0.375
S'double'
p67
I0
tp68
as(S'minutes'
p69
S'for'
p70
S'life'
p71
tp72
(lp73
(I1
I28
F-0.375
g61
I0
tp74
a(I1
I28
I0
S'great'
p75
I0
tp76
a(I3
I30
F-0.375
g63
I0
tp77
a(I1
I28
I0
g75
I19
tp78
a(I2
I38
I0
S'minute'
p79
I19
tp80
a(I2
I38
I0
S'minute'
p81
I19
tp82
as(S'reception'
p83
tp84
(lp85
(I4
I17
F1.0
S'good'
p86
I0
tp87
a(I4
I19
I0
S'next'
p88
I0
tp89
a(I4
I50
F0.5
S'clear'
p90
I0
tp91
a(I4
I83
F-0.875
S'worst'
p92
I0
tp93
a(I6
I2
F-0.5
S'poor'
p94
I0
tp95
as(S'add'
p96
S'minutes'
p97
tp98
(lp99
(I2
I49
F-0.625
S'free'
p100
I0
tp101
a(I4
I51
F0.5
S'expensive'
p102
I0
tp103
a(I4
I51
I0
S'more'
p104
I0
tp105
a(I6
I52
F1.0
S'good'
p106
I0
tp107
as(S'minute'
p108
S'for'
p109
S'life'
p110
tp111
(lp112
(I1
I28
I0
g75
I0
tp113
a(I2
I38
F-0.375
S'double'
p114
I0
tp115
a(I2
I38
I0
g79
I0
tp116
a(I2
I38
I0
g81
I0
tp117
as(S'service'
p118
tp119
(lp120
(I3
I19
F-0.625
S'other'
p121
I16
tp122
a(I3
I19
F0.875
S'happy'
p123
I16
tp124
as(S'tracfone'
p125
tp126
(lp127
(I0
I79
F-0.5
S'sure'
p128
I0
tp129
a(I2
I44
I0
S'website'
p130
I0
tp131
a(I2
I49
F-0.625
S'free'
p132
I0
tp133
a(I5
I14
I0
S'great'
p134
I0
tp135
a(I6
I7
F0.625
S'easy'
p136
I0
tp137
a(I6
I42
F-0.625
S'free'
p138
I0
tp139
a(I6
I43
F0.875
S'nice'
p140
I0
tp141
a(I6
I60
F0.125
S'first'
p142
I0
tp143
a(I6
I60
F0.125
S'last'
p144
I0
tp145
a(I7
I2
F-0.75
S'little'
p146
I0
tp147
as(S'triple'
p148
S'minute'
p149
tp150
(lp151
(I2
I38
F-0.375
g114
I0
tp152
as(S'text'
p153
S'messages'
p154
tp155
(lp156
(I1
I29
I0
S'text'
p157
I0
tp158
a(I2
I60
F0.75
g5
I0
tp159
a(I2
I60
F0.75
g5
I18
tp160
as(S'sound'
p161
S'quality'
p162
tp163
(lp164
(I1
I6
F1.0
S'good'
p165
I0
tp166
a(I4
I29
I0
S'internal'
p167
I0
tp168
a(I4
I29
F0.125
S'equal'
p169
I0
tp170
a(I6
I63
F1.0
S'better'
p171
I0
tp172
as.