(dp0
(S'voice'
p1
S'mail'
p2
tp3
(lp4
(I8
I142
F0.375
S'new'
p5
I0
tp6
a(I8
I142
F0.375
g5
I4
tp7
as(S'battery'
p8
S'life'
p9
tp10
(lp11
(I5
I14
F1.0
S'good'
p12
I1
tp13
a(I8
I155
F0.625
S'acceptable'
p14
I1
tp15
a(I8
I191
F-0.5
S'long'
p16
I1
tp17
as(S'many'
p18
S'steps'
p19
tp20
(lp21
(I4
I91
I0
S'many'
p22
I0
tp23
a(I5
I18
I0
S'many'
p24
I0
tp25
a(I7
I4
I0
S'many'
p26
I0
tp27
as(S'texting'
p28
tp29
(lp30
(I8
I128
I0
S'great'
p31
I0
tp32
as(S'receive'
p33
S'picture'
p34
tp35
(lp36
(I7
I3
F0.75
S'receive'
p37
I0
tp38
as(S'mobile'
p39
tp40
(lp41
(I8
I63
I0
S'minimal'
p42
I0
tp43
as(S'u'
p44
S's'
p45
S'version'
p46
tp47
(lp48
(I3
I0
I0
S'asian'
p49
I0
tp50
a(I6
I0
F0.625
S'correct'
p51
I0
tp52
a(I6
I3
F-0.5
S'international'
p53
I0
tp54
as(S'text'
p55
tp56
(lp57
(I5
I16
F-0.75
S'little'
p58
I18
tp59
a(I8
I66
F-0.375
S'simple'
p60
I18
tp61
a(I8
I111
F-0.625
S'other'
p62
I18
tp63
as(S'button'
p64
tp65
(lp66
(I4
I131
I0
S'forth'
p67
I19
tp68
a(I8
I44
F-0.625
S'push'
p69
I19
tp70
a(I8
I200
F0.125
S'first'
p71
I19
tp72
a(I8
I200
F-0.375
S'top'
p73
I19
tp74
as(S'language'
p75
tp76
(lp77
(I8
I55
F-0.625
S'other'
p78
I3
tp79
a(I8
I69
F-0.125
S'foreign'
p80
I3
tp81
a(I8
I202
I0
S'different'
p82
I3
tp83
as(S'calls'
p84
tp85
(lp86
(I2
I9
F0.5
S'possible'
p87
I0
tp88
a(I4
I39
F0.5
S'clear'
p89
I0
tp90
a(I5
I46
F0.625
S'easy'
p91
I0
tp92
as(S'messages'
p93
tp94
(lp95
(I1
I9
F0.75
S'receive'
p96
I1
tp97
a(I1
I9
I0
S'more'
p98
I1
tp99
a(I1
I9
I0
S'signal'
p100
I1
tp101
a(I4
I75
I0
S'text'
p102
I1
tp103
a(I7
I3
F-0.75
S'difficult'
p104
I1
tp105
a(I8
I115
I0
S'pic'
p106
I1
tp107
a(I8
I115
F-0.625
S'other'
p108
I1
tp109
a(I8
I115
I0
S'great'
p110
I1
tp111
as(S'samsung'
p112
tp113
(lp114
(I4
I31
I0
S'standard'
p115
I7
tp116
a(I4
I106
I0
S'third'
p117
I7
tp118
as(S'amazon'
p119
tp120
(lp121
(I2
I10
F0.875
S'happier'
p122
I13
tp123
a(I4
I23
I0
S'great'
p124
I13
tp125
as(S'hold'
p126
S'key'
p127
tp128
(lp129
(I8
I72
F0.125
S'key'
p130
I0
tp131
a(I8
I73
F0.125
S'key'
p132
I0
tp133
as(S'touch'
p134
S'screen'
p135
tp136
(lp137
(I2
I0
F0.5
S'touch'
p138
I2
tp139
a(I2
I4
F0.5
S'touch'
p140
I2
tp141
a(I4
I38
F0.5
S'accurate'
p142
I2
tp143
a(I4
I44
F0.25
S'unlocked'
p144
I2
tp145
a(I4
I100
F0.5
S'touch'
p146
I2
tp147
a(I5
I0
F0.875
S'nice'
p148
I2
tp149
a(I5
I21
F0.5
S'touch'
p150
I2
tp151
a(I8
I83
F-0.375
S'smooth'
p152
I2
tp153
a(I8
I83
I0
S'sensitive'
p154
I2
tp155
a(I8
I104
F0.5
S'touch'
p156
I2
tp157
a(I8
I104
F-0.125
S'slow'
p158
I2
tp159
a(I8
I108
F0.25
S'responsive'
p160
I2
tp161
a(I8
I217
F-0.75
S'bright'
p162
I2
tp163
a(I8
I240
F0.5
S'touch'
p164
I2
tp165
a(I8
I240
F0.375
S'jittery'
p166
I2
tp167
a(I8
I250
F0.5
S'touch'
p168
I2
tp169
as(S'settings'
p170
tp171
(lp172
(I6
I5
F0.625
S'necessary'
p173
I1
tp174
as(S'speaker'
p175
tp176
(lp177
(I4
I91
I0
S'wish'
p178
I8
tp179
a(I8
I210
F1.0
S'good'
p180
I8
tp181
as.