(dp0
(S'battery'
p1
S'life'
p2
tp3
(lp4
(I0
I34
I0
S'great'
p5
I1
tp6
a(I8
I71
I0
S'great'
p7
I1
tp8
a(I8
I118
F-0.75
S'short'
p9
I1
tp10
a(I8
I159
F1.0
S'good'
p11
I1
tp12
a(I9
I0
F1.0
S'good'
p13
I1
tp14
a(I10
I35
F-0.875
S'awful'
p15
I1
tp16
a(I0
I34
I0
g5
I19
tp17
a(I8
I159
F1.0
g11
I19
tp18
a(I0
I29
F0.125
S'last'
p19
I15
tp20
a(I2
I30
F-0.75
S'difficult'
p21
I15
tp22
a(I4
I2
F-0.25
S'thin'
p23
I15
tp24
a(I4
I2
F0.125
S'last'
p25
I15
tp26
a(I8
I18
I0
S'active'
p27
I15
tp28
a(I8
I18
I0
S'active'
p29
I15
tp30
a(I8
I18
I0
S'empty'
p31
I15
tp32
a(I8
I35
F0.25
S'original'
p33
I15
tp34
a(I8
I71
I0
g7
I15
tp35
a(I8
I118
F-0.75
g9
I15
tp36
a(I8
I190
I0
S'overnight'
p37
I15
tp38
a(I9
I0
F1.0
g13
I15
tp39
a(I10
I23
F-0.75
S'dead'
p40
I15
tp41
a(I10
I23
F0.375
S'extra'
p42
I15
tp43
a(I10
I35
F-0.875
g15
I15
tp44
as(S'customer'
p45
S'service'
p46
tp47
(lp48
(I5
I114
I0
S'forth'
p49
I3
tp50
a(I7
I56
F1.0
S'best'
p51
I3
tp52
a(I1
I60
I0
S'dial'
p53
I16
tp54
a(I7
I56
F1.0
g51
I16
tp55
a(I7
I95
I0
S'shoddy'
p56
I16
tp57
as(S'keyboard'
p58
tp59
(lp60
(I4
I14
F-0.875
S'hard'
p61
I2
tp62
a(I4
I41
F1.0
S'good'
p63
I2
tp64
a(I4
I73
F0.625
S'easy'
p65
I2
tp66
a(I5
I55
F1.0
S'good'
p67
I2
tp68
a(I5
I75
F0.625
S'easy'
p69
I2
tp70
a(I5
I75
F0.625
S'easy'
p71
I2
tp72
a(I5
I75
I-100
S'commfortable'
p73
I2
tp74
a(I7
I29
F0.375
S'much'
p75
I2
tp76
a(I7
I31
I0
S'physical'
p77
I2
tp78
a(I7
I33
F0.125
S'solid'
p79
I2
tp80
a(I7
I33
I0
S'cool'
p81
I2
tp82
a(I7
I117
I0
S'great'
p83
I2
tp84
a(I7
I166
F-0.75
S'comfortable'
p85
I2
tp86
a(I7
I166
I0
S'physical'
p87
I2
tp88
a(I8
I58
F1.0
S'good'
p89
I2
tp90
a(I8
I58
I0
S'useful'
p91
I2
tp92
a(I8
I94
I0
S'full'
p93
I2
tp94
a(I8
I133
I0
S'tactile'
p95
I2
tp96
a(I8
I133
F0.125
S'able'
p97
I2
tp98
a(I9
I0
F1.0
S'good'
p99
I2
tp100
a(I10
I11
F1.0
S'best'
p101
I2
tp102
as(S'email'
p103
tp104
(lp105
(I4
I90
F0.375
S'available'
p106
I5
tp107
a(I6
I9
F0.125
S'able'
p108
I5
tp109
a(I8
I24
F0.75
S'receive'
p110
I5
tp111
as(S'call'
p112
S'quality'
p113
tp114
(lp115
(I4
I39
I0
S'great'
p116
I0
tp117
a(I4
I39
I0
S'most'
p118
I0
tp119
a(I7
I44
I0
S'great'
p120
I0
tp121
as(S'ovi'
p122
S'store'
p123
tp124
(lp125
(I2
I8
F-0.625
S'free'
p126
I0
tp127
a(I4
I35
F-0.125
S'slow'
p128
I0
tp129
a(I7
I55
F-0.75
S'impossible'
p130
I0
tp131
a(I7
I159
F0.375
S'available'
p132
I0
tp133
a(I8
I164
I0
S'own'
p134
I0
tp135
as(S'camera'
p136
tp137
(lp138
(I4
I34
I0
S'great'
p139
I1
tp140
a(I7
I29
F1.0
S'better'
p141
I1
tp142
a(I7
I48
F1.0
S'good'
p143
I1
tp144
a(I7
I49
F0.125
S'impressive'
p145
I1
tp146
a(I7
I52
F-0.5
S'regular'
p147
I1
tp148
a(I7
I114
F0.25
S'sharp'
p149
I1
tp150
a(I8
I55
F1.0
S'good'
p151
I1
tp152
a(I8
I55
I0
S'flush'
p153
I1
tp154
a(I8
I55
I0
S'useful'
p155
I1
tp156
a(I10
I37
F0.125
S'capable'
p157
I1
tp158
a(I10
I50
F-0.5
S'regular'
p159
I1
tp160
as(S'nokia'
p161
S'n97'
p162
S'mini'
p163
tp164
(lp165
(I5
I128
F1.0
S'good'
p166
I0
tp167
a(I7
I171
F0.375
S'similar'
p168
I0
tp169
a(I8
I111
F0.75
S'due'
p170
I0
tp171
a(I7
I171
F0.375
g168
I0
tp172
a(I8
I89
F0.75
S'worth'
p173
I0
tp174
a(I4
I23
I0
S'big'
p175
I0
tp176
a(I5
I128
F1.0
g166
I0
tp177
a(I6
I5
F0.375
S'available'
p178
I0
tp179
a(I6
I5
F-0.5
S'less'
p180
I0
tp181
a(I7
I36
F0.625
S'easy'
p182
I0
tp183
a(I7
I171
F0.375
g168
I0
tp184
a(I8
I99
I0
S'resistive'
p185
I0
tp186
a(I8
I111
F0.75
g170
I0
tp187
a(I0
I29
F0.5
S'elegant'
p188
I0
tp189
a(I4
I5
F0.125
S'first'
p190
I0
tp191
a(I4
I60
F-0.25
S'direct'
p192
I0
tp193
a(I5
I25
F0.125
S'first'
p194
I0
tp195
a(I5
I111
F1.0
S'best'
p196
I0
tp197
a(I5
I113
F1.0
S'good'
p198
I0
tp199
a(I6
I44
I0
S'big'
p200
I0
tp201
a(I7
I114
I0
S'wish'
p202
I0
tp203
a(I8
I8
F-0.625
S'other'
p204
I0
tp205
a(I2
I7
F-0.625
S'light'
p206
I13
tp207
a(I2
I7
F-0.375
S'small'
p208
I13
tp209
a(I4
I132
I0
S'least'
p210
I13
tp211
a(I4
I153
F0.5
S'functional'
p212
I13
tp213
a(I5
I128
F1.0
g166
I13
tp214
a(I6
I5
F0.375
g178
I13
tp215
a(I7
I36
F0.625
g182
I13
tp216
a(I8
I99
I0
g185
I13
tp217
a(I8
I111
F0.75
g170
I13
tp218
as(S'iphone'
p219
tp220
(lp221
(I4
I29
F-0.875
S'stuck'
p222
I1
tp223
a(I5
I56
F0.875
S'happier'
p224
I1
tp225
a(I6
I13
F-0.75
S'comfortable'
p226
I1
tp227
a(I7
I75
I0
S'android'
p228
I1
tp229
a(I9
I1
F0.125
S'memory'
p230
I1
tp231
as(S'many'
p232
S'times'
p233
tp234
(lp235
(I0
I35
I0
S'many'
p236
I5
tp237
a(I5
I102
I0
S'many'
p238
I5
tp239
a(I7
I9
I0
S'many'
p240
I5
tp241
a(I7
I111
F0.75
S'due'
p242
I5
tp243
a(I8
I204
I0
S'many'
p244
I5
tp245
as(S'internet'
p246
tp247
(lp248
(I0
I29
F-0.75
S'have'
p249
I6
tp250
a(I5
I133
I0
S'faster'
p251
I6
tp252
a(I8
I93
I0
S'great'
p253
I6
tp254
a(I10
I22
F-0.75
S'modest'
p255
I6
tp256
as(S'build'
p257
S'quality'
p258
tp259
(lp260
(I6
I27
F0.125
S'solid'
p261
I2
tp262
a(I8
I102
F0.125
S'solid'
p263
I2
tp264
a(I8
I102
F0.5
S'strong'
p265
I2
tp266
as(S'ovi'
p267
S'maps'
p268
tp269
(lp270
(I5
I126
F-0.625
S'free'
p271
I0
tp272
a(I7
I151
F0.5
S'adore'
p273
I0
tp274
a(I8
I76
F0.125
S'first'
p275
I0
tp276
a(I8
I76
F0.5
S'true'
p277
I0
tp278
a(I8
I76
F-0.625
S'free'
p279
I0
tp280
a(I5
I126
F-0.625
g271
I5
tp281
a(I8
I76
F0.5
g277
I5
tp282
a(I8
I76
F-0.625
g279
I5
tp283
a(I8
I156
F0.375
S'new'
p284
I5
tp285
a(I9
I0
F-0.625
S'free'
p286
I5
tp287
as(S'text'
p288
S'messages'
p289
tp290
(lp291
(I7
I4
I0
S'old'
p292
I0
tp293
a(I8
I73
I0
S'e-mail'
p294
I0
tp295
a(I8
I73
F0.625
S'easy'
p296
I0
tp297
as(S'form'
p298
S'factor'
p299
tp300
(lp301
(I5
I122
I0
S'great'
p302
I1
tp303
a(I6
I43
I0
S'great'
p304
I1
tp305
a(I10
I55
F-0.375
S'small'
p306
I1
tp307
a(I10
I55
I0
S'great'
p308
I1
tp309
as(S'system'
p310
tp311
(lp312
(I7
I111
I0
S'many'
p313
I12
tp314
a(I8
I212
F-0.75
S'likely'
p315
I12
tp316
a(I8
I212
F0.75
S'due'
p317
I12
tp318
a(I10
I13
F-0.125
S'slow'
p319
I12
tp320
as(S'music'
p321
S'player'
p322
tp323
(lp324
(I4
I81
F1.0
S'best'
p325
I0
tp326
a(I7
I112
F0.875
S'music'
p327
I0
tp328
a(I8
I56
F1.0
S'good'
p329
I0
tp330
a(I8
I142
F0.875
S'music'
p331
I0
tp332
a(I8
I200
F0.875
S'music'
p333
I0
tp334
a(I4
I81
F1.0
g325
I6
tp335
a(I7
I112
F0.875
g327
I6
tp336
a(I8
I56
F1.0
g329
I6
tp337
a(I8
I142
F0.875
g331
I6
tp338
a(I8
I200
F0.875
g333
I6
tp339
as(S'latest'
p340
S'firmware'
p341
tp342
(lp343
(I5
I125
I0
S'latest'
p344
I0
tp345
a(I7
I64
I0
S'latest'
p346
I0
tp347
a(I7
I70
I0
S'latest'
p348
I0
tp349
a(I4
I63
F0.375
S'new'
p350
I0
tp351
a(I4
I141
F0.375
S'new'
p352
I0
tp353
a(I5
I125
I0
g344
I0
tp354
a(I6
I4
I0
S'more'
p355
I0
tp356
a(I7
I64
I0
g346
I0
tp357
a(I7
I69
I0
S'same'
p358
I0
tp359
a(I7
I70
I0
g348
I0
tp360
a(I8
I95
F0.375
S'new'
p361
I0
tp362
a(I8
I138
I0
S'stable'
p363
I0
tp364
a(I8
I195
I0
S'next'
p365
I0
tp366
as(S'resistive'
p367
S'touch'
p368
S'screen'
p369
tp370
(lp371
(I6
I13
F0.25
S'responsive'
p372
I0
tp373
a(I7
I134
I0
S'resistive'
p374
I0
tp375
a(I8
I72
I0
S'resistive'
p376
I0
tp377
a(I8
I72
F-0.75
S'bright'
p378
I0
tp379
a(I8
I98
F-0.625
S'light'
p380
I0
tp381
a(I8
I126
I0
S'resistive'
p382
I0
tp383
a(I8
I126
I0
S'sensitive'
p384
I0
tp385
a(I8
I126
I0
S'many'
p386
I0
tp387
a(I8
I126
I0
S'commercial'
p388
I0
tp389
a(I10
I35
I0
S'resistive'
p390
I0
tp391
a(I0
I7
F0.5
S'touch'
p392
I2
tp393
a(I4
I15
F0.5
S'touch'
p394
I2
tp395
a(I4
I70
I0
S'full'
p396
I2
tp397
a(I5
I46
F0.5
S'touch'
p398
I2
tp399
a(I6
I13
F0.25
g372
I2
tp400
a(I7
I3
F-0.75
S'inoperable'
p401
I2
tp402
a(I7
I131
F0.5
S'touch'
p403
I2
tp404
a(I7
I134
I0
g374
I2
tp405
a(I8
I9
I0
S'great'
p406
I2
tp407
a(I8
I72
I0
g376
I2
tp408
a(I8
I72
F-0.75
g378
I2
tp409
a(I8
I98
F-0.625
g380
I2
tp410
a(I8
I126
I0
g382
I2
tp411
a(I8
I126
I0
g384
I2
tp412
a(I8
I126
I0
g386
I2
tp413
a(I8
I126
I0
g388
I2
tp414
a(I9
I0
F0.5
S'touch'
p415
I2
tp416
a(I10
I20
F1.0
S'best'
p417
I2
tp418
a(I10
I35
I0
g390
I2
tp419
as(S'party'
p420
S'apps'
p421
tp422
(lp423
(I4
I81
I0
S'few'
p424
I0
tp425
a(I4
I109
I0
S'third'
p426
I0
tp427
a(I2
I8
I0
S'most'
p428
I0
tp429
a(I4
I12
F-0.625
S'free'
p430
I0
tp431
a(I4
I28
I0
S'many'
p432
I0
tp433
a(I4
I32
I0
S'more'
p434
I0
tp435
a(I4
I32
I0
S'cool'
p436
I0
tp437
a(I4
I81
I0
g424
I0
tp438
a(I4
I91
F-0.625
S'free'
p439
I0
tp440
a(I4
I93
F-0.5
S'certain'
p441
I0
tp442
a(I4
I165
F0.375
S'available'
p443
I0
tp444
a(I5
I54
I0
S'few'
p445
I0
tp446
a(I5
I54
I0
S'most'
p447
I0
tp448
a(I5
I54
F1.0
S'good'
p449
I0
tp450
a(I5
I102
F0.375
S'new'
p451
I0
tp452
a(I5
I112
F1.0
S'good'
p453
I0
tp454
a(I5
I112
F-0.625
S'free'
p455
I0
tp456
a(I5
I133
F-0.625
S'useless'
p457
I0
tp458
a(I5
I135
I0
S'different'
p459
I0
tp460
a(I7
I53
F1.0
S'good'
p461
I0
tp462
a(I7
I70
I0
S'own'
p463
I0
tp464
a(I7
I101
F1.0
S'best'
p465
I0
tp466
a(I7
I127
I0
S'limited'
p467
I0
tp468
a(I7
I159
F-0.625
S'free'
p469
I0
tp470
a(I8
I200
F-0.5
S'open'
p471
I0
tp472
a(I8
I213
F0.375
S'diligent'
p473
I0
tp474
a(I8
I213
I0
S'closing'
p475
I0
tp476
as(S'photo'
p477
S'gallery'
p478
tp479
(lp480
(I8
I210
F-0.125
S'slow'
p481
I0
tp482
as(S'amazon'
p483
tp484
(lp485
(I8
I52
F0.25
S'larger'
p486
I13
tp487
as(S'signal'
p488
S'strength'
p489
tp490
(lp491
(I4
I87
I0
S'signal'
p492
I0
tp493
a(I4
I87
F1.0
S'good'
p494
I0
tp495
a(I4
I114
I0
S'satellite'
p496
I0
tp497
a(I6
I8
I0
S'signal'
p498
I0
tp499
a(I3
I19
I0
S'satellite'
p500
I1
tp501
a(I4
I114
I0
g496
I1
tp502
as(S'home'
p503
S'page'
p504
tp505
(lp506
(I1
I42
F-0.5
S'actual'
p507
I0
tp508
as(S'able'
p509
S'to'
p510
S'use'
p511
tp512
(lp513
(I8
I125
I0
S'full'
p514
I12
tp515
as(S'lens'
p516
S'bezel'
p517
tp518
(lp519
(I4
I69
F0.625
S'easy'
p520
I0
tp521
as(S'missed'
p522
S'calls'
p523
tp524
(lp525
(I4
I178
F0.625
S'necessary'
p526
I0
tp527
as(S'symbian'
p528
S'os'
p529
tp530
(lp531
(I4
I160
F0.125
S'solid'
p532
I0
tp533
a(I5
I106
F0.375
S'new'
p534
I0
tp535
a(I5
I113
I0
S'android'
p536
I0
tp537
a(I10
I3
I0
S'old'
p538
I0
tp539
a(I0
I26
F-0.75
S'wrong'
p540
I0
tp541
a(I0
I26
I0
S'same'
p542
I0
tp543
a(I4
I160
F0.125
g532
I0
tp544
a(I5
I106
F0.375
g534
I0
tp545
a(I7
I120
I0
S'next'
p546
I0
tp547
a(I10
I3
I0
g538
I0
tp548
as(S'data'
p549
S'plan'
p550
tp551
(lp552
(I3
I1
F0.5
S'expensive'
p553
I0
tp554
a(I3
I1
F0.5
g553
I13
tp555
a(I7
I9
I0
S'active'
p556
I13
tp557
a(I7
I104
I0
S'signal'
p558
I13
tp559
a(I8
I161
F-0.5
S'heavy'
p560
I13
tp561
as(S'memory'
p562
tp563
(lp564
(I5
I28
I0
S'wish'
p565
I5
tp566
a(I7
I65
I0
S'internal'
p567
I5
tp568
a(I7
I68
I0
S'internal'
p569
I5
tp570
a(I7
I71
F-0.25
S'intensive'
p571
I5
tp572
a(I10
I61
F-0.5
S'certain'
p573
I5
tp574
as(S'3rd'
p575
S'party'
p576
tp577
(lp578
(I8
I202
F0.75
S'due'
p579
I0
tp580
as(S'wifi'
p581
tp582
(lp583
(I4
I56
F-0.125
S'public'
p584
I0
tp585
a(I4
I92
F0.625
S'easy'
p586
I0
tp587
a(I5
I63
F-0.625
S'free'
p588
I0
tp589
a(I8
I97
I0
S'local'
p590
I0
tp591
a(I10
I29
F-0.625
S'free'
p592
I0
tp593
as(S'screen'
p594
S'protector'
p595
tp596
(lp597
(I4
I154
F0.5
S'clear'
p598
I4
tp599
as(S'voice'
p600
S'navigation'
p601
tp602
(lp603
(I8
I101
F-0.625
S'free'
p604
I0
tp605
a(I8
I101
F-0.625
g604
I4
tp606
a(I8
I115
I0
S'more'
p607
I4
tp608
a(I8
I115
F0.5
S'clear'
p609
I4
tp610
a(I8
I174
F-0.125
S'overall'
p611
I4
tp612
a(I8
I175
F0.5
S'strong'
p613
I4
tp614
a(I8
I176
F0.875
S'nice'
p615
I4
tp616
a(I8
I176
F0.5
S'clear'
p617
I4
tp618
a(I7
I127
I0
S'most'
p619
I1
tp620
a(I7
I127
F-0.625
S'free'
p621
I1
tp622
a(I8
I11
F-0.625
S'free'
p623
I1
tp624
as.