(dp0
(S'something'
p1
tp2
(lp3
(I1
I2
F0.125
S'fat'
p4
tp5
a(I11
I1
I0
S'more'
p6
tp7
a(I43
I10
I0
S'such'
p8
tp9
a(I43
I19
I0
S'more'
p10
tp11
a(I70
I11
F-0.5
S'sure'
p12
tp13
a(I70
I16
I0
S'most'
p14
tp15
a(I70
I16
F0.625
S'easy'
p16
tp17
a(I88
I6
F1.0
S'good'
p18
tp19
a(I97
I34
F-0.625
S'green'
p20
tp21
a(I105
I1
F-0.875
S'negative'
p22
tp23
a(I142
I60
I0
S'activate'
p24
tp25
a(I165
I26
F0.375
S'similar'
p26
tp27
a(I171
I2
F-0.875
S'unhappy'
p28
tp29
a(I190
I7
F-0.25
S'google'
p30
tp31
a(I200
I2
F-0.875
S'negative'
p32
tp33
as(S'keyboard'
p34
tp35
(lp36
(I5
I5
I0
S'physical'
p37
tp38
a(I5
I5
F0.5
S'flat'
p39
tp40
a(I5
I5
F-0.875
S'hard'
p41
tp42
a(I5
I6
F0.75
S'due'
p43
tp44
a(I5
I6
I0
S'faster'
p45
tp46
a(I6
I4
F-0.5
S'weak'
p47
tp48
a(I9
I20
I0
S'physical'
p49
tp50
a(I9
I23
I0
S'physical'
p51
tp52
a(I9
I25
F1.0
S'good'
p53
tp54
a(I9
I25
I0
S'physical'
p55
tp56
a(I9
I26
I0
S'physical'
p57
tp58
a(I9
I35
I0
S'physical'
p59
tp60
a(I10
I2
I0
S'physical'
p61
tp62
a(I10
I12
F0.25
S'helpful'
p63
tp64
a(I14
I2
F0.625
S'easiest'
p65
tp66
a(I14
I2
F1.0
S'better'
p67
tp68
a(I14
I2
I0
S'physical'
p69
tp70
a(I19
I5
I0
S'great'
p71
tp72
a(I25
I10
I0
S'stiff'
p73
tp74
a(I25
I10
I0
S'least'
p75
tp76
a(I25
I11
I0
S'real'
p77
tp78
a(I30
I23
F0.625
S'easier'
p79
tp80
a(I32
I13
I0
S'real'
p81
tp82
a(I32
I13
I0
S'great'
p83
tp84
a(I32
I37
I0
S'different'
p85
tp86
a(I36
I14
I0
S'physical'
p87
tp88
a(I36
I18
F0.5
S'accurate'
p89
tp90
a(I43
I11
F0.875
S'nice'
p91
tp92
a(I43
I11
I0
S'physical'
p93
tp94
a(I43
I11
F-0.5
S'worthless'
p95
tp96
a(I52
I1
I0
S'physical'
p97
tp98
a(I52
I5
I0
S'physical'
p99
tp100
a(I52
I7
I0
S'physical'
p101
tp102
a(I54
I3
F0.875
S'nice'
p103
tp104
a(I54
I4
F-0.5
S'actual'
p105
tp106
a(I55
I0
I0
S'physical'
p107
tp108
a(I58
I11
F0.625
S'easy'
p109
tp110
a(I62
I3
F0.625
S'add'
p111
tp112
a(I64
I10
I0
S'physical'
p113
tp114
a(I66
I37
I0
S'tactile'
p115
tp116
a(I66
I39
F0.625
S'easy'
p117
tp118
a(I66
I49
I0
S'slippery'
p119
tp120
a(I66
I53
F-0.375
S'top'
p121
tp122
a(I69
I29
I0
S'physical'
p123
tp124
a(I76
I3
I0
S'full'
p125
tp126
a(I76
I3
I0
S'physical'
p127
tp128
a(I82
I3
I0
S'deal'
p129
tp130
a(I82
I3
I0
S'physical'
p131
tp132
a(I82
I3
F0.625
S'easiest'
p133
tp134
a(I83
I38
I0
S'physical'
p135
tp136
a(I83
I38
F-0.625
S'useless'
p137
tp138
a(I83
I38
F1.0
S'good'
p139
tp140
a(I83
I38
F1.0
S'better'
p141
tp142
a(I85
I16
F0.375
S'much'
p143
tp144
a(I85
I25
I0
S'physical'
p145
tp146
a(I89
I4
I0
S'incredible'
p147
tp148
a(I89
I20
I0
S'physical'
p149
tp150
a(I89
I63
F1.0
S'good'
p151
tp152
a(I89
I65
F0.625
S'easy'
p153
tp154
a(I89
I65
F0.625
S'pleasant'
p155
tp156
a(I89
I66
I0
S'useful'
p157
tp158
a(I89
I67
F0.375
S'much'
p159
tp160
a(I90
I3
I0
S'physical'
p161
tp162
a(I91
I14
I0
S'external'
p163
tp164
a(I91
I15
I0
S'external'
p165
tp166
a(I91
I16
I0
S'real'
p167
tp168
a(I92
I9
F1.0
S'best'
p169
tp170
a(I94
I20
F0.875
S'important'
p171
tp172
a(I94
I21
I0
S'physical'
p173
tp174
a(I94
I26
I0
S'physical'
p175
tp176
a(I94
I42
I0
S'physical'
p177
tp178
a(I95
I42
F-0.625
S'inaccurate'
p179
tp180
a(I97
I24
I0
S'physical'
p181
tp182
a(I99
I14
F0.5
S'flat'
p183
tp184
a(I99
I14
I0
S'such'
p185
tp186
a(I99
I15
I0
S'real'
p187
tp188
a(I112
I6
I0
S'most'
p189
tp190
a(I112
I7
I0
S'physical'
p191
tp192
a(I116
I4
I0
S'full'
p193
tp194
a(I116
I4
I0
S'physical'
p195
tp196
a(I122
I7
I0
S'physical'
p197
tp198
a(I129
I2
I0
S'physical'
p199
tp200
a(I129
I2
F-0.875
S'hard'
p201
tp202
a(I132
I31
I0
S'physical'
p203
tp204
a(I132
I33
I0
S'real'
p205
tp206
a(I138
I6
I0
S'physical'
p207
tp208
a(I138
I6
F0.625
S'easy'
p209
tp210
a(I140
I3
I0
S'physical'
p211
tp212
a(I142
I39
I0
S'great'
p213
tp214
a(I142
I41
I0
S'great'
p215
tp216
a(I142
I41
F0.875
S'nice'
p217
tp218
a(I142
I46
F0.875
S'nice'
p219
tp220
a(I142
I46
F-0.25
S'potential'
p221
tp222
a(I142
I157
I0
S'physical'
p223
tp224
a(I142
I158
I0
S'physical'
p225
tp226
a(I142
I160
I0
S'physical'
p227
tp228
a(I145
I4
I0
S'physical'
p229
tp230
a(I150
I0
F0.375
S'much'
p231
tp232
a(I151
I1
F-0.625
S'bad'
p233
tp234
a(I152
I11
F-0.75
S'difficult'
p235
tp236
a(I153
I10
I0
S'physical'
p237
tp238
a(I155
I15
F0.125
S'first'
p239
tp240
a(I155
I15
I0
S'physical'
p241
tp242
a(I155
I64
F0.375
S'new'
p243
tp244
a(I155
I65
F0.375
S'available'
p245
tp246
a(I155
I68
I0
S'standard'
p247
tp248
a(I156
I8
I0
S'flush'
p249
tp250
a(I157
I10
I0
S'standard'
p251
tp252
a(I160
I0
F0.5
S'flat'
p253
tp254
a(I160
I0
F-0.375
S'small'
p255
tp256
a(I160
I11
I0
S'physical'
p257
tp258
a(I161
I3
I0
S'soft'
p259
tp260
a(I162
I8
F0.625
S'easier'
p261
tp262
a(I163
I18
F1.0
S'good'
p263
tp264
a(I164
I0
F-0.5
S'heavy'
p265
tp266
a(I164
I0
I0
S'big'
p267
tp268
a(I165
I0
I0
S'physical'
p269
tp270
a(I165
I0
F-0.375
S'small'
p271
tp272
a(I165
I2
F0.875
S'important'
p273
tp274
a(I167
I2
F0.25
S'larger'
p275
tp276
a(I169
I2
F0.5
S'flat'
p277
tp278
a(I170
I5
F-0.5
S'open'
p279
tp280
a(I171
I10
I0
S'physical'
p281
tp282
a(I171
I10
F0.625
S'convenient'
p283
tp284
a(I175
I7
F1.0
S'good'
p285
tp286
a(I175
I7
F0.875
S'important'
p287
tp288
a(I175
I10
I0
S'physical'
p289
tp290
a(I176
I14
I0
S'more'
p291
tp292
a(I176
I14
F0.625
S'easy'
p293
tp294
a(I182
I13
I0
S'great'
p295
tp296
a(I183
I5
I0
S'physical'
p297
tp298
a(I183
I5
F-0.25
S'disappointing'
p299
tp300
a(I185
I5
F1.0
S'good'
p301
tp302
a(I186
I12
I0
S'physical'
p303
tp304
a(I191
I0
I0
S'real'
p305
tp306
a(I192
I33
F1.0
S'good'
p307
tp308
a(I192
I33
F0.125
S'solid'
p309
tp310
a(I193
I9
F0.625
S'easy'
p311
tp312
a(I198
I8
I0
S'external'
p313
tp314
a(I200
I31
F0.875
S'nice'
p315
tp316
a(I200
I31
F0.625
S'easy'
p317
tp318
a(I201
I5
F-0.5
S'heavy'
p319
tp320
as(S'right'
p321
tp322
(lp323
(I38
I5
F0.625
S'easy'
p324
tp325
a(I40
I16
I0
S'great'
p326
tp327
a(I65
I2
F0.875
S'happy'
p328
tp329
a(I89
I40
F0.375
S'upper'
p330
tp331
a(I176
I26
F-0.375
S'top'
p332
tp333
a(I192
I19
I0
S'own'
p334
tp335
a(I192
I42
F0.625
S'easy'
p336
tp337
a(I192
I42
F0.625
S'productive'
p338
tp339
as(S'motorola'
p340
tp341
(lp342
(I34
I5
F0.5
S'technical'
p343
tp344
a(I35
I35
F0.625
S'perfect'
p345
tp346
a(I40
I21
F-0.25
S'google'
p347
tp348
a(I49
I6
F-0.25
S'google'
p349
tp350
a(I49
I6
I0
S'hear'
p351
tp352
a(I55
I0
F0.875
S'happy'
p353
tp354
a(I64
I1
F-0.25
S'google'
p355
tp356
a(I64
I13
F0.5
S'rid'
p357
tp358
a(I91
I13
I0
S'site'
p359
tp360
a(I91
I33
I0
S'info'
p361
tp362
a(I123
I0
F0.125
S'first'
p363
tp364
a(I142
I57
I0
S'earlier'
p365
tp366
a(I146
I0
I0
S'great'
p367
tp368
a(I164
I2
F-0.625
S'bad'
p369
tp370
a(I177
I38
F0.375
S'available'
p371
tp372
a(I187
I14
F0.625
S'aware'
p373
tp374
a(I193
I25
F0.125
S'able'
p375
tp376
a(I193
I25
I0
S'old'
p377
tp378
as(S'nice'
p379
tp380
(lp381
(I89
I16
I0
S'few'
p382
tp383
a(I130
I130
I0
S'few'
p384
tp385
a(I152
I11
I0
S'big'
p386
tp387
as(S'call'
p388
S'quality'
p389
tp390
(lp391
(I9
I5
F1.0
S'good'
p392
tp393
a(I19
I7
I0
S'great'
p394
tp395
a(I50
I12
F1.0
S'good'
p396
tp397
a(I65
I0
F-0.625
S'bad'
p398
tp399
a(I65
I1
F1.0
S'better'
p400
tp401
a(I76
I2
I0
S'great'
p402
tp403
a(I89
I35
F1.0
S'good'
p404
tp405
a(I116
I3
I0
S'great'
p406
tp407
a(I153
I6
I0
S'great'
p408
tp409
a(I157
I24
F1.0
S'good'
p410
tp411
a(I175
I15
F0.625
S'perfect'
p412
tp413
a(I179
I5
F1.0
S'good'
p414
tp415
a(I179
I6
F1.0
S'better'
p416
tp417
a(I179
I6
F0.375
S'much'
p418
tp419
a(I182
I1
F-0.125
S'super'
p420
tp421
a(I182
I1
F1.0
S'good'
p422
tp423
as(S'physical'
p424
S'keyboard'
p425
tp426
(lp427
(I5
I5
I0
g37
tp428
a(I5
I5
F0.5
g39
tp429
a(I5
I5
F-0.875
g41
tp430
a(I9
I20
I0
g49
tp431
a(I9
I23
I0
g51
tp432
a(I9
I25
F1.0
g53
tp433
a(I9
I25
I0
g55
tp434
a(I9
I26
I0
g57
tp435
a(I9
I35
I0
g59
tp436
a(I10
I2
I0
g61
tp437
a(I14
I2
F0.625
g65
tp438
a(I14
I2
F1.0
g67
tp439
a(I14
I2
I0
g69
tp440
a(I19
I5
I0
g71
tp441
a(I25
I10
I0
g73
tp442
a(I25
I10
I0
g75
tp443
a(I36
I14
I0
g87
tp444
a(I43
I11
F0.875
g91
tp445
a(I43
I11
I0
g93
tp446
a(I43
I11
F-0.5
g95
tp447
a(I52
I1
I0
g97
tp448
a(I52
I5
I0
g99
tp449
a(I52
I7
I0
g101
tp450
a(I55
I0
I0
g107
tp451
a(I64
I10
I0
g113
tp452
a(I69
I29
I0
g123
tp453
a(I76
I3
I0
g125
tp454
a(I76
I3
I0
g127
tp455
a(I82
I3
I0
g129
tp456
a(I82
I3
I0
g131
tp457
a(I82
I3
F0.625
g133
tp458
a(I83
I38
I0
g135
tp459
a(I83
I38
F-0.625
g137
tp460
a(I83
I38
F1.0
g139
tp461
a(I83
I38
F1.0
g141
tp462
a(I85
I25
I0
g145
tp463
a(I89
I4
I0
g147
tp464
a(I89
I20
I0
g149
tp465
a(I89
I63
F1.0
g151
tp466
a(I90
I3
I0
g161
tp467
a(I94
I21
I0
g173
tp468
a(I94
I26
I0
g175
tp469
a(I94
I42
I0
g177
tp470
a(I97
I24
I0
g181
tp471
a(I112
I7
I0
g191
tp472
a(I116
I4
I0
g193
tp473
a(I116
I4
I0
g195
tp474
a(I122
I7
I0
g197
tp475
a(I129
I2
I0
g199
tp476
a(I129
I2
F-0.875
g201
tp477
a(I132
I31
I0
g203
tp478
a(I138
I6
I0
g207
tp479
a(I138
I6
F0.625
g209
tp480
a(I140
I3
I0
g211
tp481
a(I142
I157
I0
g223
tp482
a(I142
I158
I0
g225
tp483
a(I142
I160
I0
g227
tp484
a(I145
I4
I0
g229
tp485
a(I150
I0
F0.375
g231
tp486
a(I153
I10
I0
g237
tp487
a(I155
I15
F0.125
g239
tp488
a(I155
I15
I0
g241
tp489
a(I160
I0
F0.5
g253
tp490
a(I160
I0
F-0.375
g255
tp491
a(I160
I11
I0
g257
tp492
a(I165
I0
I0
g269
tp493
a(I165
I0
F-0.375
g271
tp494
a(I171
I10
I0
g281
tp495
a(I171
I10
F0.625
g283
tp496
a(I175
I10
I0
g289
tp497
a(I183
I5
I0
g297
tp498
a(I183
I5
F-0.25
g299
tp499
a(I186
I12
I0
g303
tp500
as(S'short'
p501
S'battery'
p502
S'life'
p503
tp504
(lp505
(I18
I10
F-0.75
S'short'
p506
tp507
a(I18
I12
F-0.75
S'short'
p508
tp509
a(I18
I12
F-0.75
S'difficult'
p510
tp511
a(I129
I3
I0
S'most'
p512
tp513
a(I129
I3
F-0.75
S'short'
p514
tp515
a(I136
I2
F-0.75
S'short'
p516
tp517
a(I160
I4
F-0.75
S'short'
p518
tp519
a(I160
I5
F-0.75
S'short'
p520
tp521
a(I160
I5
F-0.75
S'short'
p522
tp523
as(S'touch'
p524
tp525
(lp526
(I11
I3
F0.875
S'nice'
p527
tp528
a(I42
I0
I0
S'capacitive'
p529
tp530
a(I50
I8
F0.625
S'easy'
p531
tp532
a(I131
I1
F0.125
S'first'
p533
tp534
a(I142
I55
F0.875
S'nice'
p535
tp536
a(I142
I58
I0
S'capacitive'
p537
tp538
a(I155
I17
F-0.625
S'other'
p539
tp540
a(I157
I5
I0
S'capacitive'
p541
tp542
a(I157
I5
F0.25
S'responsive'
p543
tp544
a(I163
I6
I0
S'android'
p545
tp546
a(I163
I18
F0.5
S'flat'
p547
tp548
a(I176
I13
I0
S'same'
p549
tp550
as(S'weather'
p551
S'channel'
p552
tp553
(lp554
(I91
I31
F-0.625
S'free'
p555
tp556
a(I130
I58
I0
S'detailed'
p557
tp558
as(S'quality'
p559
tp560
(lp561
(I4
I13
F1.0
S'good'
p562
tp563
a(I5
I8
F0.25
S'stellar'
p564
tp565
a(I9
I5
F1.0
g392
tp566
a(I19
I7
I0
g394
tp567
a(I50
I12
F1.0
g396
tp568
a(I67
I0
I0
S'high'
p569
tp570
a(I67
I2
I0
S'many'
p571
tp572
a(I67
I2
F-0.625
S'free'
p573
tp574
a(I76
I2
I0
g402
tp575
a(I85
I20
F1.0
S'good'
p576
tp577
a(I89
I7
F-0.625
S'bad'
p578
tp579
a(I89
I8
F0.375
S'similar'
p580
tp581
a(I89
I35
F1.0
g404
tp582
a(I89
I48
F1.0
S'good'
p583
tp584
a(I101
I10
F1.0
S'good'
p585
tp586
a(I107
I19
F0.125
S'equal'
p587
tp588
a(I109
I5
F-0.5
S'sure'
p589
tp590
a(I112
I3
F1.0
S'good'
p591
tp592
a(I113
I2
F0.125
S'impressive'
p593
tp594
a(I116
I3
I0
g406
tp595
a(I130
I5
I0
S'more'
p596
tp597
a(I131
I31
I0
S'high'
p598
tp599
a(I142
I101
F0.125
S'equal'
p600
tp601
a(I152
I9
F-0.625
S'other'
p602
tp603
a(I153
I6
I0
g408
tp604
a(I154
I9
I0
S'great'
p605
tp606
a(I155
I5
F0.125
S'first'
p607
tp608
a(I157
I7
F-0.25
S'higher'
p609
tp610
a(I157
I24
F1.0
g410
tp611
a(I165
I19
I0
S'few'
p612
tp613
a(I172
I28
F-0.25
S'higher'
p614
tp615
a(I175
I15
F0.625
g412
tp616
a(I179
I5
F1.0
g414
tp617
a(I179
I6
F0.375
g418
tp618
a(I182
I1
F-0.125
g420
tp619
a(I182
I1
F1.0
g422
tp620
a(I189
I3
F1.0
S'good'
p621
tp622
a(I192
I7
I0
S'high'
p623
tp624
a(I192
I27
I0
S'signal'
p625
tp626
a(I193
I18
F1.0
S'good'
p627
tp628
a(I200
I36
F1.0
S'good'
p629
tp630
as(S'a'
p631
S'much'
p632
S'better'
p633
tp634
(lp635
(I9
I24
F0.375
S'much'
p636
tp637
a(I54
I1
F0.375
S'much'
p638
tp639
a(I74
I14
F0.375
S'much'
p640
tp641
a(I91
I9
F0.375
S'much'
p642
tp643
a(I107
I3
F0.75
S'due'
p644
tp645
a(I107
I3
F0.375
S'much'
p646
tp647
as(S'by'
p648
S'turn'
p649
S'navigation'
p650
tp651
(lp652
(I130
I122
F-0.625
S'free'
p653
tp654
as(S'personal'
p655
S'preference'
p656
tp657
(lp658
(I9
I26
F0.5
S'personal'
p659
tp660
a(I16
I18
F0.5
S'personal'
p661
tp662
as(S'features'
p663
tp664
(lp665
(I15
I1
I0
S'great'
p666
tp667
a(I18
I12
I0
S'great'
p668
tp669
a(I35
I5
I0
S'incredible'
p670
tp671
a(I58
I5
I0
S'many'
p672
tp673
a(I58
I5
I0
S'such'
p674
tp675
a(I58
I26
F1.0
S'better'
p676
tp677
a(I77
I12
F-0.25
S'hidden'
p678
tp679
a(I85
I8
I0
S'great'
p680
tp681
a(I89
I19
I0
S'great'
p682
tp683
a(I101
I13
I0
S'many'
p684
tp685
a(I101
I13
F0.875
S'important'
p686
tp687
a(I101
I13
F-0.125
S'public'
p688
tp689
a(I103
I12
I0
S'great'
p690
tp691
a(I129
I2
I0
S'different'
p692
tp693
a(I130
I62
I0
S'few'
p694
tp695
a(I130
I121
F1.0
S'best'
p696
tp697
a(I130
I166
F-0.625
S'other'
p698
tp699
a(I138
I10
I0
S'more'
p700
tp701
a(I144
I2
F1.0
S'good'
p702
tp703
a(I145
I4
F-0.625
S'other'
p704
tp705
a(I154
I0
F0.375
S'extra'
p706
tp707
a(I154
I1
F0.375
S'extra'
p708
tp709
a(I155
I8
I0
S'most'
p710
tp711
a(I172
I23
F1.0
S'best'
p712
tp713
a(I175
I20
F0.25
S'favorite'
p714
tp715
a(I177
I42
F0.5
S'advanced'
p716
tp717
a(I200
I42
F-0.25
S'google'
p718
tp719
a(I201
I10
F1.0
S'good'
p720
tp721
a(I202
I2
I0
S'basic'
p722
tp723
a(I202
I2
I0
S'own'
p724
tp725
as(S'verizon'
p726
tp727
(lp728
(I2
I0
F0.375
S'new'
p729
tp730
a(I9
I11
I0
S'local'
p731
tp732
a(I15
I3
F0.125
S'last'
p733
tp734
a(I19
I0
F0.375
S'early'
p735
tp736
a(I20
I5
F0.5
S'rid'
p737
tp738
a(I35
I34
F0.5
S'willing'
p739
tp740
a(I38
I4
F0.25
S'responsive'
p741
tp742
a(I44
I3
F-0.625
S'bad'
p743
tp744
a(I60
I3
I0
S'common'
p745
tp746
a(I64
I0
I0
S'local'
p747
tp748
a(I66
I20
F-0.625
S'other'
p749
tp750
a(I66
I58
F-0.25
S'past'
p751
tp752
a(I66
I113
F-0.25
S'google'
p753
tp754
a(I74
I2
F-0.75
S'wrong'
p755
tp756
a(I74
I3
F-0.75
S'wrong'
p757
tp758
a(I75
I3
F1.0
S'best'
p759
tp760
a(I78
I0
I0
S'many'
p761
tp762
a(I83
I1
F-0.625
S'other'
p763
tp764
a(I86
I3
I0
S'great'
p765
tp766
a(I89
I50
F0.5
S'grateful'
p767
tp768
a(I89
I68
I0
S'local'
p769
tp770
a(I89
I81
I0
S'local'
p771
tp772
a(I91
I24
I0
S'website'
p773
tp774
a(I92
I12
I0
S'initial'
p775
tp776
a(I94
I18
F0.25
S'used'
p777
tp778
a(I95
I0
I0
S'local'
p779
tp780
a(I95
I51
F-0.5
S'long'
p781
tp782
a(I95
I56
F-0.25
S'google'
p783
tp784
a(I99
I5
F0.625
S'superior'
p785
tp786
a(I99
I16
F1.0
S'best'
p787
tp788
a(I107
I31
F1.0
S'best'
p789
tp790
a(I110
I1
F-0.25
S'late'
p791
tp792
a(I118
I11
I0
S'fast'
p793
tp794
a(I121
I11
F0.125
S'first'
p795
tp796
a(I122
I0
F1.0
S'best'
p797
tp798
a(I130
I36
F0.5
S'hopeful'
p799
tp800
a(I132
I42
F0.375
S'new'
p801
tp802
a(I152
I0
I0
S'local'
p803
tp804
a(I155
I3
I0
S'perspective'
p805
tp806
a(I162
I4
I0
S'great'
p807
tp808
a(I177
I0
I0
S'own'
p809
tp810
a(I177
I0
I0
S'many'
p811
tp812
a(I177
I26
I0
S'great'
p813
tp814
a(I180
I8
F0.5
S'thankful'
p815
tp816
a(I186
I1
F0.5
S'loyal'
p817
tp818
a(I187
I12
F0.125
S'first'
p819
tp820
a(I193
I1
F0.375
S'new'
p821
tp822
a(I197
I8
F-0.375
S'static'
p823
tp824
as(S'sound'
p825
tp826
(lp827
(I61
I0
I0
S'great'
p828
tp829
a(I62
I25
I0
S'crystal'
p830
tp831
a(I62
I25
F0.5
S'clear'
p832
tp833
a(I66
I58
I0
S'great'
p834
tp835
a(I66
I60
F0.375
S'loud'
p836
tp837
a(I70
I3
F0.5
S'clear'
p838
tp839
a(I70
I9
I0
S'great'
p840
tp841
a(I83
I18
F0.5
S'clear'
p842
tp843
a(I89
I6
F1.0
S'better'
p844
tp845
a(I89
I8
I0
S'incredible'
p846
tp847
a(I111
I0
F-0.5
S'weak'
p848
tp849
a(I162
I2
F0.875
S'important'
p850
tp851
a(I195
I2
F0.875
S'nice'
p852
tp853
a(I195
I2
F0.5
S'clear'
p854
tp855
as(S'ever'
p856
tp857
(lp858
(I1
I5
I0
S'incredible'
p859
tp860
as(S'store'
p861
tp862
(lp863
(I8
I2
F-0.125
S'mine'
p864
tp865
a(I30
I6
F0.125
S'able'
p866
tp867
a(I95
I3
I0
S'entire'
p868
tp869
a(I95
I4
I0
S'large'
p870
tp871
a(I187
I12
F0.125
S'first'
p872
tp873
a(I192
I18
F0.25
S'mature'
p874
tp875
as(S'turn'
p876
tp877
(lp878
(I77
I4
F-0.75
S'wrong'
p879
tp880
as(S'keyboard'
p881
S'on'
p882
S'droid'
p883
tp884
(lp885
(I9
I25
F1.0
g53
tp886
a(I9
I25
I0
g55
tp887
a(I9
I26
I0
g57
tp888
a(I10
I2
I0
g61
tp889
a(I14
I2
F0.625
g65
tp890
a(I14
I2
F1.0
g67
tp891
a(I14
I2
I0
g69
tp892
a(I14
I2
I0
S'fast'
p893
tp894
a(I14
I2
F0.625
S'easy'
p895
tp896
a(I23
I39
I0
S'least'
p897
tp898
a(I43
I11
F0.875
g91
tp899
a(I43
I11
I0
g93
tp900
a(I43
I11
F-0.5
g95
tp901
a(I52
I5
I0
g99
tp902
a(I52
I7
I0
g101
tp903
a(I55
I0
I0
g107
tp904
a(I64
I10
I0
g113
tp905
a(I85
I16
F0.375
g143
tp906
a(I94
I20
F0.875
g171
tp907
a(I95
I42
F-0.625
g179
tp908
a(I99
I15
I0
g187
tp909
a(I140
I3
I0
g211
tp910
a(I145
I4
I0
g229
tp911
a(I150
I0
F0.375
g231
tp912
a(I152
I10
F-0.625
S'other'
p913
tp914
a(I152
I11
F-0.75
g235
tp915
a(I153
I10
I0
g237
tp916
a(I160
I0
F0.5
g253
tp917
a(I160
I0
F-0.375
g255
tp918
a(I160
I11
I0
S'next'
p919
tp920
a(I160
I11
I0
g257
tp921
a(I185
I5
F-0.625
S'free'
p922
tp923
a(I185
I5
F1.0
g301
tp924
a(I191
I0
I0
g305
tp925
a(I192
I33
F1.0
g307
tp926
a(I192
I33
F0.125
g309
tp927
as(S'drag'
p928
S'and'
p929
S'drop'
p930
tp931
(lp932
(I36
I21
F0.75
S'give'
p933
tp934
a(I94
I55
F0.875
S'music'
p935
tp936
a(I130
I140
F-0.375
S'simple'
p937
tp938
a(I193
I4
F0.625
S'easy'
p939
tp940
as(S'directional'
p941
S'pad'
p942
tp943
(lp944
(I5
I7
F-0.125
S'directional'
p945
tp946
a(I107
I6
F-0.125
S'directional'
p947
tp948
a(I142
I27
F-0.125
S'directional'
p949
tp950
as(S'blackberry'
p951
tp952
(lp953
(I50
I2
F0.375
S'new'
p954
tp955
a(I74
I8
F1.0
S'best'
p956
tp957
a(I101
I7
I0
S'old'
p958
tp959
a(I122
I8
F0.875
S'nice'
p960
tp961
a(I122
I9
I0
S'old'
p962
tp963
a(I134
I10
F0.375
S'available'
p964
tp965
a(I145
I1
I0
S'user'
p966
tp967
a(I162
I8
F0.625
S'easy'
p968
tp969
a(I172
I37
I0
S'quick'
p970
tp971
a(I172
I37
F0.25
S'responsive'
p972
tp973
a(I175
I26
F-0.625
S'glad'
p974
tp975
a(I177
I36
I0
S'old'
p976
tp977
a(I200
I0
I0
S'later'
p978
tp979
as(S'on'
p980
S'android'
p981
S'market'
p982
tp983
(lp984
(I9
I26
I0
S'android'
p985
tp986
a(I9
I27
I0
S'many'
p987
tp988
a(I52
I5
I0
S'only'
p989
tp990
a(I72
I8
I0
S'android'
p991
tp992
a(I97
I14
I0
S'android'
p993
tp994
a(I97
I26
I0
S'android'
p995
tp996
a(I97
I33
I0
S'android'
p997
tp998
a(I97
I35
I0
S'android'
p999
tp1000
a(I118
I13
I0
S'android'
p1001
tp1002
a(I130
I5
I0
S'android'
p1003
tp1004
a(I137
I5
I0
S'android'
p1005
tp1006
a(I142
I84
I0
S'android'
p1007
tp1008
a(I156
I4
I0
S'android'
p1009
tp1010
a(I157
I16
F0.125
S'first'
p1011
tp1012
a(I157
I17
I0
S'android'
p1013
tp1014
a(I158
I3
F-0.5
S'weak'
p1015
tp1016
a(I185
I3
I0
S'android'
p1017
tp1018
as(S'docking'
p1019
S'station'
p1020
tp1021
(lp1022
(I142
I22
I0
S'later'
p1023
tp1024
as(S'black'
p1025
S'berry'
p1026
tp1027
(lp1028
(I142
I105
I0
S'shinny'
p1029
tp1030
a(I197
I9
F-0.375
S'black'
p1031
tp1032
a(I197
I9
F-0.375
S'black'
p1033
tp1034
as(S'easy'
p1035
S'to'
p1036
S'use'
p1037
tp1038
(lp1039
(I89
I56
F0.625
S'easy'
p1040
tp1041
a(I89
I56
F0.625
S'easy'
p1042
tp1043
as(S'good'
p1044
tp1045
(lp1046
(I11
I2
F0.125
S'first'
p1047
tp1048
as(S'love'
p1049
tp1050
(lp1051
(I89
I3
F0.5
S'true'
p1052
tp1053
as(S'fast'
p1054
tp1055
(lp1056
(I142
I52
I0
S'fast'
p1057
tp1058
a(I157
I49
F0.25
S'sharp'
p1059
tp1060
a(I197
I8
F-0.125
S'super'
p1061
tp1062
as(S'every'
p1063
tp1064
(lp1065
(I31
I6
F0.375
S'new'
p1066
tp1067
a(I50
I2
F0.375
S'new'
p1068
tp1069
a(I176
I15
F0.375
S'new'
p1070
tp1071
as(S'problem'
p1072
tp1073
(lp1074
(I4
I0
F0.625
S'major'
p1075
tp1076
a(I22
I6
I0
S'specific'
p1077
tp1078
a(I22
I10
F0.125
S'typical'
p1079
tp1080
a(I31
I24
I0
S'real'
p1081
tp1082
a(I62
I10
I0
S'only'
p1083
tp1084
a(I62
I10
I0
S'real'
p1085
tp1086
a(I62
I13
F0.625
S'kind'
p1087
tp1088
a(I86
I4
F-0.75
S'single'
p1089
tp1090
a(I86
I4
F-0.125
S'mine'
p1091
tp1092
a(I127
I19
F-0.625
S'other'
p1093
tp1094
a(I130
I19
F0.125
S'first'
p1095
tp1096
a(I152
I3
I0
S'such'
p1097
tp1098
a(I180
I7
I0
S'same'
p1099
tp1100
a(I186
I21
F0.625
S'major'
p1101
tp1102
as(S'on'
p1103
S'screen'
p1104
S'keyboard'
p1105
tp1106
(lp1107
(I6
I4
F-0.5
g47
tp1108
a(I8
I3
F0.5
S'touch'
p1109
tp1110
a(I9
I25
F1.0
g53
tp1111
a(I9
I25
I0
g55
tp1112
a(I10
I12
F0.25
g63
tp1113
a(I14
I2
F0.625
g65
tp1114
a(I14
I2
F1.0
g67
tp1115
a(I14
I2
I0
g69
tp1116
a(I25
I16
I0
S'stiff'
p1117
tp1118
a(I26
I2
I0
S'large'
p1119
tp1120
a(I26
I2
F-0.25
S'thin'
p1121
tp1122
a(I30
I23
F0.625
g79
tp1123
a(I32
I13
I0
g81
tp1124
a(I32
I13
I0
g83
tp1125
a(I43
I11
F0.875
g91
tp1126
a(I43
I11
I0
g93
tp1127
a(I43
I11
F-0.5
g95
tp1128
a(I50
I9
F0.625
S'easy'
p1129
tp1130
a(I55
I0
I0
g107
tp1131
a(I55
I0
F-0.125
S'overall'
p1132
tp1133
a(I72
I3
F-0.375
S'small'
p1134
tp1135
a(I83
I38
I0
g135
tp1136
a(I83
I38
F-0.625
g137
tp1137
a(I83
I38
F1.0
g139
tp1138
a(I83
I38
F1.0
g141
tp1139
a(I85
I16
F0.375
g143
tp1140
a(I85
I25
I0
g145
tp1141
a(I94
I6
F0.5
S'touch'
p1142
tp1143
a(I94
I20
F0.5
S'touch'
p1144
tp1145
a(I94
I20
F0.875
g171
tp1146
a(I94
I26
I0
g175
tp1147
a(I95
I42
F-0.625
g179
tp1148
a(I99
I15
I0
g187
tp1149
a(I112
I7
I0
g191
tp1150
a(I114
I7
F0.875
S'nice'
p1151
tp1152
a(I127
I23
I0
S'narrower'
p1153
tp1154
a(I132
I33
I0
g205
tp1155
a(I142
I44
I0
S'fast'
p1156
tp1157
a(I142
I157
I0
g223
tp1158
a(I142
I160
I0
g227
tp1159
a(I145
I4
I0
g229
tp1160
a(I150
I0
F0.375
g231
tp1161
a(I151
I1
F0.5
S'touch'
p1162
tp1163
a(I151
I1
F1.0
S'best'
p1164
tp1165
a(I151
I1
F0.75
S'beautiful'
p1166
tp1167
a(I151
I1
F-0.625
g233
tp1168
a(I152
I11
F-0.75
g235
tp1169
a(I160
I0
I0
S'sensitive'
p1170
tp1171
a(I160
I0
F0.5
g253
tp1172
a(I160
I0
F-0.375
g255
tp1173
a(I160
I11
I0
g257
tp1174
a(I160
I11
F0.125
S'protective'
p1175
tp1176
a(I162
I8
F0.625
g261
tp1177
a(I165
I0
I0
g269
tp1178
a(I165
I0
F-0.375
g271
tp1179
a(I171
I10
I0
g281
tp1180
a(I171
I10
F0.625
g283
tp1181
a(I182
I13
I0
g295
tp1182
a(I192
I3
I0
S'more'
p1183
tp1184
a(I195
I1
F0.875
S'nice'
p1185
tp1186
as(S'email'
p1187
tp1188
(lp1189
(I46
I4
F-0.625
S'bad'
p1190
tp1191
a(I46
I6
F-0.5
S'actual'
p1192
tp1193
a(I46
I9
I0
S'more'
p1194
tp1195
a(I46
I9
I0
S'old'
p1196
tp1197
a(I46
I11
F0.375
S'new'
p1198
tp1199
a(I74
I7
I0
S'corporate'
p1200
tp1201
a(I74
I7
I0
S'corporate'
p1202
tp1203
a(I91
I20
F-0.25
S'google'
p1204
tp1205
a(I91
I21
F0.5
S'primary'
p1206
tp1207
a(I95
I43
F-0.5
S'heavy'
p1208
tp1209
a(I101
I8
I0
S'empty'
p1210
tp1211
a(I130
I168
I0
S'wish'
p1212
tp1213
a(I162
I3
I0
S'great'
p1214
tp1215
a(I171
I2
F0.5
S'primary'
p1216
tp1217
a(I171
I2
F-0.625
S'other'
p1218
tp1219
a(I172
I41
I0
S'quick'
p1220
tp1221
a(I172
I47
F-0.625
S'push'
p1222
tp1223
a(I176
I20
I0
S'internal'
p1224
tp1225
a(I192
I4
F0.625
S'easier'
p1226
tp1227
a(I192
I10
F-0.75
S'difficult'
p1228
tp1229
as(S'text'
p1230
tp1231
(lp1232
(I9
I13
F0.375
S'much'
p1233
tp1234
a(I23
I8
F0.5
S'clear'
p1235
tp1236
a(I71
I0
F-0.5
S'open'
p1237
tp1238
a(I83
I26
I0
S'enter'
p1239
tp1240
a(I107
I5
I0
S'graphic'
p1241
tp1242
a(I132
I22
F0.625
S'easier'
p1243
tp1244
a(I142
I120
F0.5
S'clear'
p1245
tp1246
a(I192
I4
I0
S'basic'
p1247
tp1248
a(I198
I22
I0
S'more'
p1249
tp1250
as(S'screen'
p1251
S'keyboard'
p1252
tp1253
(lp1254
(I6
I4
F-0.5
g47
tp1255
a(I8
I3
F0.5
g1109
tp1256
a(I9
I25
F1.0
g53
tp1257
a(I9
I25
I0
g55
tp1258
a(I10
I12
F0.25
g63
tp1259
a(I14
I2
F0.625
g65
tp1260
a(I14
I2
F1.0
g67
tp1261
a(I14
I2
I0
g69
tp1262
a(I25
I16
I0
g1117
tp1263
a(I26
I2
I0
g1119
tp1264
a(I26
I2
F-0.25
g1121
tp1265
a(I30
I23
F0.625
g79
tp1266
a(I32
I13
I0
g81
tp1267
a(I32
I13
I0
g83
tp1268
a(I43
I11
F0.875
g91
tp1269
a(I43
I11
I0
g93
tp1270
a(I43
I11
F-0.5
g95
tp1271
a(I50
I9
F0.625
g1129
tp1272
a(I54
I3
F0.875
g103
tp1273
a(I55
I0
I0
g107
tp1274
a(I55
I0
F-0.125
g1132
tp1275
a(I59
I2
I0
S'large'
p1276
tp1277
a(I59
I2
F0.5
S'clear'
p1278
tp1279
a(I72
I3
F-0.375
g1134
tp1280
a(I83
I38
I0
g135
tp1281
a(I83
I38
F-0.625
g137
tp1282
a(I83
I38
F1.0
g139
tp1283
a(I83
I38
F1.0
g141
tp1284
a(I85
I16
F0.375
g143
tp1285
a(I85
I25
I0
g145
tp1286
a(I89
I74
F0.25
S'bigger'
p1287
tp1288
a(I94
I6
F0.5
g1142
tp1289
a(I94
I20
F0.5
g1144
tp1290
a(I94
I20
F0.875
g171
tp1291
a(I94
I21
I0
g173
tp1292
a(I94
I26
I0
g175
tp1293
a(I95
I42
F-0.625
g179
tp1294
a(I99
I15
I0
g187
tp1295
a(I112
I7
I0
g191
tp1296
a(I114
I7
F0.875
g1151
tp1297
a(I127
I23
I0
g1153
tp1298
a(I132
I33
I0
g205
tp1299
a(I142
I44
I0
g1156
tp1300
a(I142
I157
I0
g223
tp1301
a(I142
I160
I0
g227
tp1302
a(I145
I4
I0
g229
tp1303
a(I150
I0
F0.375
g231
tp1304
a(I151
I1
F0.5
g1162
tp1305
a(I151
I1
F1.0
g1164
tp1306
a(I151
I1
F0.75
g1166
tp1307
a(I151
I1
F-0.625
g233
tp1308
a(I152
I11
F-0.75
g235
tp1309
a(I157
I11
F0.625
S'superior'
p1310
tp1311
a(I157
I11
F0.5
S'touch'
p1312
tp1313
a(I160
I0
I0
g1170
tp1314
a(I160
I0
F0.5
g253
tp1315
a(I160
I0
F-0.375
g255
tp1316
a(I160
I11
I0
g257
tp1317
a(I160
I11
F0.125
g1175
tp1318
a(I162
I8
F0.625
g261
tp1319
a(I165
I0
I0
g269
tp1320
a(I165
I0
F-0.375
g271
tp1321
a(I171
I10
I0
g281
tp1322
a(I171
I10
F0.625
g283
tp1323
a(I182
I13
I0
g295
tp1324
a(I192
I3
I0
g1183
tp1325
a(I193
I9
F0.625
g311
tp1326
a(I195
I1
F0.875
g1185
tp1327
as(S'wall'
p1328
S'street'
p1329
tp1330
(lp1331
(I146
I3
I0
S'journal'
p1332
tp1333
a(I146
I5
I0
S'journal'
p1334
tp1335
a(I200
I15
I0
S'journal'
p1336
tp1337
as(S'service'
p1338
tp1339
(lp1340
(I9
I3
I0
S'fewer'
p1341
tp1342
a(I13
I7
F0.375
S'extra'
p1343
tp1344
a(I13
I7
I0
S'monthly'
p1345
tp1346
a(I16
I10
F1.0
S'better'
p1347
tp1348
a(I27
I7
I0
S'great'
p1349
tp1350
a(I30
I40
F0.5
S'possible'
p1351
tp1352
a(I41
I10
F0.25
S'biggest'
p1353
tp1354
a(I49
I3
F-0.5
S'poor'
p1355
tp1356
a(I51
I2
I0
S'great'
p1357
tp1358
a(I58
I18
I0
S'same'
p1359
tp1360
a(I75
I3
F0.25
S'helpful'
p1361
tp1362
a(I75
I3
F0.625
S'pleasant'
p1363
tp1364
a(I99
I3
F0.875
S'important'
p1365
tp1366
a(I106
I2
I0
S'faster'
p1367
tp1368
a(I130
I98
F0.375
S'available'
p1369
tp1370
a(I153
I6
F1.0
S'good'
p1371
tp1372
a(I168
I3
I0
S'monthly'
p1373
tp1374
a(I200
I5
F0.125
S'able'
p1375
tp1376
as(S'maps'
p1377
tp1378
(lp1379
(I35
I7
F-0.25
S'google'
p1380
tp1381
a(I50
I11
F-0.25
S'google'
p1382
tp1383
a(I55
I0
F-0.25
S'google'
p1384
tp1385
a(I68
I7
F-0.25
S'google'
p1386
tp1387
a(I74
I20
F-0.25
S'google'
p1388
tp1389
a(I74
I20
F0.625
S'easier'
p1390
tp1391
a(I76
I5
F-0.25
S'google'
p1392
tp1393
a(I89
I40
F-0.25
S'google'
p1394
tp1395
a(I89
I40
F-0.25
S'google'
p1396
tp1397
a(I92
I9
F-0.625
S'free'
p1398
tp1399
a(I94
I62
F-0.25
S'google'
p1400
tp1401
a(I94
I108
F-0.25
S'google'
p1402
tp1403
a(I99
I21
F-0.25
S'google'
p1404
tp1405
a(I99
I21
F1.0
S'best'
p1406
tp1407
a(I103
I10
F-0.25
S'google'
p1408
tp1409
a(I107
I12
F-0.25
S'google'
p1410
tp1411
a(I109
I5
F0.375
S'available'
p1412
tp1413
a(I109
I5
I0
S'great'
p1414
tp1415
a(I116
I6
F-0.25
S'google'
p1416
tp1417
a(I125
I5
F-0.25
S'google'
p1418
tp1419
a(I127
I13
F-0.625
S'free'
p1420
tp1421
a(I130
I87
F-0.25
S'google'
p1422
tp1423
a(I130
I87
F0.375
S'confident'
p1424
tp1425
a(I130
I127
F-0.25
S'google'
p1426
tp1427
a(I130
I133
F-0.25
S'google'
p1428
tp1429
a(I134
I5
F-0.25
S'google'
p1430
tp1431
a(I142
I79
F-0.25
S'google'
p1432
tp1433
a(I156
I7
I0
S'such'
p1434
tp1435
a(I157
I27
F-0.25
S'google'
p1436
tp1437
a(I157
I28
I0
S'android'
p1438
tp1439
a(I157
I51
F-0.25
S'google'
p1440
tp1441
a(I162
I7
I0
S'great'
p1442
tp1443
a(I192
I9
F-0.25
S'google'
p1444
tp1445
a(I197
I8
F-0.25
S'google'
p1446
tp1447
a(I200
I12
F-0.625
S'other'
p1448
tp1449
as(S'getting'
p1450
tp1451
(lp1452
(I18
I11
F-0.75
S'little'
p1453
tp1454
a(I97
I20
F-0.5
S'long'
p1455
tp1456
as(S'need'
p1457
tp1458
(lp1459
(I41
I9
F1.0
S'good'
p1460
tp1461
as(S'google'
p1462
tp1463
(lp1464
(I66
I36
F0.375
S'new'
p1465
tp1466
a(I66
I79
F0.25
S'recent'
p1467
tp1468
a(I91
I21
F-0.625
S'free'
p1469
tp1470
a(I92
I7
I0
S'current'
p1471
tp1472
a(I93
I1
I0
S'useful'
p1473
tp1474
a(I93
I6
I0
S'cool'
p1475
tp1476
a(I94
I38
F-0.5
S'heavy'
p1477
tp1478
a(I94
I39
F-0.5
S'heavy'
p1479
tp1480
a(I97
I7
I0
S'full'
p1481
tp1482
a(I97
I23
F0.25
S'familiar'
p1483
tp1484
a(I131
I10
F-0.625
S'free'
p1485
tp1486
a(I134
I21
I0
S'least'
p1487
tp1488
a(I150
I4
F-0.625
S'other'
p1489
tp1490
a(I150
I4
I0
S'basic'
p1491
tp1492
a(I152
I2
I0
S'big'
p1493
tp1494
a(I155
I58
I0
S'dial'
p1495
tp1496
a(I193
I15
F-0.5
S'open'
p1497
tp1498
as(g631
S'whole'
p1499
S'lot'
p1500
tp1501
(lp1502
(I26
I3
F0.5
S'whole'
p1503
tp1504
a(I32
I61
F0.5
S'whole'
p1505
tp1506
a(I32
I63
F0.5
S'whole'
p1507
tp1508
a(I97
I0
F0.5
S'whole'
p1509
tp1510
a(I169
I10
F0.5
S'whole'
p1511
tp1512
a(I192
I36
F0.5
S'whole'
p1513
tp1514
as(g631
S'verizon'
p1515
S'store'
p1516
tp1517
(lp1518
(I2
I0
F0.375
g729
tp1519
a(I9
I11
I0
g731
tp1520
a(I64
I0
I0
g747
tp1521
a(I89
I68
I0
g769
tp1522
a(I89
I81
I0
g771
tp1523
a(I95
I0
I0
g779
tp1524
a(I152
I0
I0
g803
tp1525
a(I187
I12
F0.125
g872
tp1526
a(I187
I12
F0.125
g819
tp1527
a(I193
I1
F0.375
g821
tp1528
as(S'droid'
p1529
tp1530
(lp1531
(I9
I37
F0.875
S'happy'
p1532
tp1533
a(I14
I2
I0
g893
tp1534
a(I14
I2
F0.625
g895
tp1535
a(I15
I0
F0.5
S'second'
p1536
tp1537
a(I15
I0
F-0.5
S'less'
p1538
tp1539
a(I23
I39
I0
g897
tp1540
a(I30
I37
I0
S'song'
p1541
tp1542
a(I42
I0
F1.0
S'best'
p1543
tp1544
a(I48
I1
F0.125
S'first'
p1545
tp1546
a(I48
I1
F1.0
S'best'
p1547
tp1548
a(I53
I0
I0
S'close'
p1549
tp1550
a(I58
I25
I0
S'topic'
p1551
tp1552
a(I74
I3
F0.5
S'true'
p1553
tp1554
a(I74
I15
F0.625
S'easy'
p1555
tp1556
a(I91
I33
F0.625
S'perfect'
p1557
tp1558
a(I94
I46
I0
S'mobile'
p1559
tp1560
a(I94
I46
F0.875
S'nice'
p1561
tp1562
a(I97
I0
F0.375
S'much'
p1563
tp1564
a(I130
I66
F0.375
S'new'
p1565
tp1566
a(I130
I161
F0.375
S'new'
p1567
tp1568
a(I142
I161
F0.375
S'new'
p1569
tp1570
a(I142
I163
F0.375
S'new'
p1571
tp1572
a(I152
I10
F-0.625
g913
tp1573
a(I160
I11
I0
g919
tp1574
a(I185
I5
F-0.625
g922
tp1575
as(S'market'
p1576
tp1577
(lp1578
(I1
I3
I0
S'android'
p1579
tp1580
a(I9
I26
I0
g985
tp1581
a(I9
I27
I0
g987
tp1582
a(I10
I9
F-0.75
S'sufficient'
p1583
tp1584
a(I10
I10
F0.625
S'easier'
p1585
tp1586
a(I11
I18
I0
S'great'
p1587
tp1588
a(I72
I8
I0
g991
tp1589
a(I95
I4
F0.625
S'major'
p1590
tp1591
a(I97
I14
I0
g993
tp1592
a(I97
I26
I0
g995
tp1593
a(I97
I33
I0
g997
tp1594
a(I97
I35
I0
g999
tp1595
a(I107
I21
I0
S'android'
p1596
tp1597
a(I117
I0
F1.0
S'best'
p1598
tp1599
a(I118
I13
I0
g1001
tp1600
a(I130
I5
I0
g1003
tp1601
a(I130
I106
I0
S'full'
p1602
tp1603
a(I130
I117
I0
S'android'
p1604
tp1605
a(I137
I5
I0
g1005
tp1606
a(I142
I84
I0
g1007
tp1607
a(I142
I139
I0
S'android'
p1608
tp1609
a(I156
I4
I0
g1009
tp1610
a(I157
I17
I0
g1013
tp1611
a(I158
I3
F-0.5
g1015
tp1612
a(I185
I3
I0
g1017
tp1613
as(S'things'
p1614
tp1615
(lp1616
(I9
I33
F-0.75
S'difficult'
p1617
tp1618
a(I23
I16
I0
S'different'
p1619
tp1620
a(I25
I16
I0
S'few'
p1621
tp1622
a(I66
I92
F-0.625
S'free'
p1623
tp1624
a(I66
I120
I0
S'few'
p1625
tp1626
a(I68
I3
F1.0
S'good'
p1627
tp1628
a(I76
I3
F-0.625
S'bad'
p1629
tp1630
a(I76
I9
F0.125
S'enough'
p1631
tp1632
a(I76
I9
I0
S'great'
p1633
tp1634
a(I82
I3
I0
S'few'
p1635
tp1636
a(I83
I13
I0
S'most'
p1637
tp1638
a(I116
I4
F-0.625
S'bad'
p1639
tp1640
a(I116
I8
F0.125
S'enough'
p1641
tp1642
a(I116
I8
I0
S'great'
p1643
tp1644
a(I130
I121
F-0.125
S'private'
p1645
tp1646
a(I130
I134
F-0.5
S'certain'
p1647
tp1648
a(I145
I0
I0
S'only'
p1649
tp1650
a(I185
I3
F0.25
S'favorite'
p1651
tp1652
a(I191
I6
F-0.625
S'other'
p1653
tp1654
a(I196
I8
I0
S'oh'
p1655
tp1656
as(S'apple'
p1657
tp1658
(lp1659
(I23
I38
F-0.5
S'miss'
p1660
tp1661
a(I25
I13
F-0.25
S'higher'
p1662
tp1663
a(I25
I19
F0.125
S'first'
p1664
tp1665
a(I27
I8
F-0.5
S'sure'
p1666
tp1667
a(I31
I13
F-0.5
S'sure'
p1668
tp1669
a(I35
I31
F-0.125
S'opposite'
p1670
tp1671
a(I49
I4
F1.0
S'best'
p1672
tp1673
a(I52
I5
F-0.25
S'google'
p1674
tp1675
a(I66
I94
F0.875
S'important'
p1676
tp1677
a(I72
I8
I0
S'most'
p1678
tp1679
a(I138
I1
F0.125
S'typical'
p1680
tp1681
a(I157
I18
I0
S'total'
p1682
tp1683
a(I169
I5
F-0.125
S'alternative'
p1684
tp1685
a(I186
I7
F1.0
S'better'
p1686
tp1687
as(S'video'
p1688
tp1689
(lp1690
(I5
I8
I0
S'phenomenal'
p1691
tp1692
a(I10
I19
F-0.625
S'light'
p1693
tp1694
a(I10
I19
F1.0
S'better'
p1695
tp1696
a(I66
I6
F0.5
S'glossy'
p1697
tp1698
a(I70
I10
I0
S'only'
p1699
tp1700
a(I70
I10
F-0.875
S'negative'
p1701
tp1702
a(I82
I11
I0
S'many'
p1703
tp1704
a(I130
I4
F1.0
S'good'
p1705
tp1706
a(I130
I115
F-0.625
S'bad'
p1707
tp1708
a(I142
I108
F0.875
S'music'
p1709
tp1710
a(I157
I33
F0.25
S'sharp'
p1711
tp1712
a(I161
I8
I0
S'great'
p1713
tp1714
a(I161
I11
F0.25
S'sharp'
p1715
tp1716
as(S'android'
p1717
tp1718
(lp1719
(I5
I1
F0.375
S'new'
p1720
tp1721
a(I5
I4
I0
S'next'
p1722
tp1723
a(I23
I2
I0
S'current'
p1724
tp1725
a(I23
I33
F-0.5
S'sure'
p1726
tp1727
a(I23
I33
F1.0
S'better'
p1728
tp1729
a(I30
I24
F0.375
S'new'
p1730
tp1731
a(I52
I5
I0
g989
tp1732
a(I52
I7
I0
S'faster'
p1733
tp1734
a(I66
I139
F0.375
S'new'
p1735
tp1736
a(I83
I26
I0
S'next'
p1737
tp1738
a(I89
I15
I0
S'standard'
p1739
tp1740
a(I89
I16
I0
S'basic'
p1741
tp1742
a(I135
I5
F0.375
S'new'
p1743
tp1744
a(I138
I8
F-0.25
S'google'
p1745
tp1746
a(I138
I8
F-0.5
S'open'
p1747
tp1748
a(I140
I0
F0.125
S'first'
p1749
tp1750
a(I157
I16
F0.125
g1011
tp1751
as(S'voice'
p1752
tp1753
(lp1754
(I17
I2
F-0.25
S'google'
p1755
tp1756
a(I17
I2
F0.375
S'available'
p1757
tp1758
a(I40
I18
I0
S'great'
p1759
tp1760
a(I60
I0
F-0.25
S'dropped'
p1761
tp1762
a(I76
I7
F-0.25
S'google'
p1763
tp1764
a(I83
I17
F0.375
S'reliable'
p1765
tp1766
a(I83
I28
F-0.25
S'google'
p1767
tp1768
a(I89
I39
F1.0
S'good'
p1769
tp1770
a(I94
I68
F-0.25
S'google'
p1771
tp1772
a(I97
I43
F-0.25
S'google'
p1773
tp1774
a(I116
I7
F-0.25
S'google'
p1775
tp1776
a(I130
I126
F-0.25
S'google'
p1777
tp1778
a(I133
I0
F-0.25
S'google'
p1779
tp1780
a(I142
I104
I0
S'visual'
p1781
tp1782
a(I152
I3
F-0.25
S'google'
p1783
tp1784
a(I152
I11
F-0.25
S'google'
p1785
tp1786
a(I155
I13
F1.0
S'better'
p1787
tp1788
a(I155
I13
F-0.625
S'average'
p1789
tp1790
a(I155
I54
F0.5
S'accurate'
p1791
tp1792
a(I155
I54
I0
S'dial'
p1793
tp1794
a(I169
I0
F1.0
S'good'
p1795
tp1796
a(I188
I1
F-0.625
S'free'
p1797
tp1798
as(g631
S'third'
p1799
S'party'
p1800
tp1801
(lp1802
(I97
I9
I0
S'third'
p1803
tp1804
a(I130
I166
I0
S'third'
p1805
tp1806
a(I137
I4
I0
S'third'
p1807
tp1808
a(I169
I0
I0
S'third'
p1809
tp1810
a(I171
I8
I0
S'third'
p1811
tp1812
a(I171
I15
I0
S'third'
p1813
tp1814
as(S'thing'
p1815
tp1816
(lp1817
(I10
I6
F-0.875
S'hardest'
p1818
tp1819
a(I19
I6
I0
S'great'
p1820
tp1821
a(I19
I10
F0.875
S'music'
p1822
tp1823
a(I27
I12
I0
S'only'
p1824
tp1825
a(I30
I4
I0
S'next'
p1826
tp1827
a(I30
I7
F0.125
S'first'
p1828
tp1829
a(I46
I19
F1.0
S'good'
p1830
tp1831
a(I49
I1
I0
S'next'
p1832
tp1833
a(I49
I1
F1.0
S'best'
p1834
tp1835
a(I50
I10
I0
S'next'
p1836
tp1837
a(I61
I13
F1.0
S'good'
p1838
tp1839
a(I66
I30
F0.125
S'last'
p1840
tp1841
a(I66
I66
F1.0
S'good'
p1842
tp1843
a(I66
I66
F0.625
S'easy'
p1844
tp1845
a(I74
I6
I0
S'only'
p1846
tp1847
a(I76
I7
F1.0
S'best'
p1848
tp1849
a(I77
I10
F1.0
S'good'
p1850
tp1851
a(I89
I37
I0
S'cool'
p1852
tp1853
a(I89
I77
F-0.625
S'other'
p1854
tp1855
a(I89
I77
F-0.375
S'crazy'
p1856
tp1857
a(I94
I96
F0.125
S'first'
p1858
tp1859
a(I97
I6
F0.625
S'kind'
p1860
tp1861
a(I105
I1
I0
S'only'
p1862
tp1863
a(I116
I7
F1.0
S'best'
p1864
tp1865
a(I125
I6
F0.875
S'important'
p1866
tp1867
a(I130
I127
F1.0
S'good'
p1868
tp1869
a(I134
I20
F-0.625
S'bad'
p1870
tp1871
a(I134
I31
F1.0
S'good'
p1872
tp1873
a(I139
I4
I0
S'same'
p1874
tp1875
a(I142
I84
I0
S'same'
p1876
tp1877
a(I152
I3
F0.875
S'nice'
p1878
tp1879
a(I160
I2
I0
S'same'
p1880
tp1881
a(I160
I8
I0
S'real'
p1882
tp1883
a(I161
I9
F1.0
S'good'
p1884
tp1885
a(I161
I14
F1.0
S'good'
p1886
tp1887
a(I171
I11
I0
S'most'
p1888
tp1889
a(I171
I15
F0.125
S'first'
p1890
tp1891
a(I172
I5
I0
S'only'
p1892
tp1893
a(I191
I14
I0
S'same'
p1894
tp1895
a(I200
I10
F0.125
S'first'
p1896
tp1897
as(S'sound'
p1898
S'quality'
p1899
tp1900
(lp1901
(I4
I13
F1.0
g562
tp1902
a(I5
I8
F0.25
g564
tp1903
a(I61
I0
I0
g828
tp1904
a(I89
I6
F1.0
g844
tp1905
a(I89
I7
F-0.625
g578
tp1906
a(I89
I8
I0
g846
tp1907
a(I89
I8
F0.375
g580
tp1908
a(I89
I48
F1.0
g583
tp1909
a(I101
I10
F1.0
g585
tp1910
a(I112
I3
F1.0
g591
tp1911
a(I113
I2
F0.125
g593
tp1912
a(I200
I36
F1.0
g629
tp1913
as(S'google'
p1914
S'voice'
p1915
tp1916
(lp1917
(I17
I2
F-0.25
g1755
tp1918
a(I17
I2
F0.375
g1757
tp1919
a(I76
I7
F-0.25
g1763
tp1920
a(I83
I28
F-0.25
g1767
tp1921
a(I94
I68
F-0.25
g1771
tp1922
a(I97
I7
I0
g1481
tp1923
a(I97
I43
F-0.25
g1773
tp1924
a(I116
I7
F-0.25
g1775
tp1925
a(I130
I126
F-0.25
g1777
tp1926
a(I133
I0
F-0.25
g1779
tp1927
a(I150
I4
F-0.625
g1489
tp1928
a(I150
I4
I0
g1491
tp1929
a(I152
I2
I0
g1493
tp1930
a(I152
I3
F-0.25
g1783
tp1931
a(I152
I11
F-0.25
g1785
tp1932
a(I155
I58
I0
g1495
tp1933
as(S'android'
p1934
S'operating'
p1935
S'system'
p1936
tp1937
(lp1938
(I29
I2
I0
S'android'
p1939
tp1940
a(I36
I5
I0
S'android'
p1941
tp1942
a(I89
I15
I0
g1739
tp1943
a(I97
I17
I0
S'android'
p1944
tp1945
a(I130
I100
F0.25
S'powerful'
p1946
tp1947
a(I138
I8
F-0.25
g1745
tp1948
a(I138
I8
F-0.5
g1747
tp1949
a(I153
I1
F-0.25
S'google'
p1950
tp1951
a(I153
I1
I0
S'android'
p1952
tp1953
a(I158
I3
I0
S'android'
p1954
tp1955
a(I200
I5
I0
S'android'
p1956
tp1957
as(S'alarm'
p1958
S'clock'
p1959
tp1960
(lp1961
(I66
I144
I0
S'serviceable'
p1962
tp1963
a(I138
I7
I0
S'cool'
p1964
tp1965
as(S'an'
p1966
S'pod'
p1967
S'touch'
p1968
tp1969
(lp1970
(I42
I0
I0
g529
tp1971
a(I163
I6
I0
g545
tp1972
a(I176
I13
I0
g549
tp1973
as(S'micro'
p1974
S'sd'
p1975
S'card'
p1976
tp1977
(lp1978
(I40
I6
I0
S'included'
p1979
tp1980
a(I45
I4
F-0.625
S'free'
p1981
tp1982
a(I83
I78
F0.875
S'music'
p1983
tp1984
a(I89
I11
I0
S'later'
p1985
tp1986
as(S'by'
p1987
S'turn'
p1988
S'gps'
p1989
tp1990
(lp1991
(I107
I12
I0
S'more'
p1992
tp1993
as(S'make'
p1994
tp1995
(lp1996
(I32
I27
I0
S'own'
p1997
tp1998
a(I185
I3
F0.625
S'easy'
p1999
tp2000
as(S'work'
p2001
tp2002
(lp2003
(I50
I12
I0
S'great'
p2004
tp2005
a(I94
I71
I0
S'entire'
p2006
tp2007
a(I97
I15
F0.5
S'personal'
p2008
tp2009
a(I176
I1
I0
S'ancient'
p2010
tp2011
as(g631
S'physical'
p2012
S'keyboard'
p2013
tp2014
(lp2015
(I5
I5
I0
g37
tp2016
a(I5
I5
F0.5
g39
tp2017
a(I5
I5
F-0.875
g41
tp2018
a(I9
I20
I0
g49
tp2019
a(I9
I23
I0
g51
tp2020
a(I9
I25
F1.0
g53
tp2021
a(I9
I25
I0
g55
tp2022
a(I9
I26
I0
g57
tp2023
a(I9
I35
I0
g59
tp2024
a(I10
I2
I0
g61
tp2025
a(I14
I2
F0.625
g65
tp2026
a(I14
I2
F1.0
g67
tp2027
a(I14
I2
I0
g69
tp2028
a(I19
I5
I0
g71
tp2029
a(I25
I10
I0
g73
tp2030
a(I25
I10
I0
g75
tp2031
a(I36
I14
I0
g87
tp2032
a(I43
I11
F0.875
g91
tp2033
a(I43
I11
I0
g93
tp2034
a(I43
I11
F-0.5
g95
tp2035
a(I52
I1
I0
g97
tp2036
a(I52
I5
I0
g99
tp2037
a(I52
I7
I0
g101
tp2038
a(I55
I0
I0
g107
tp2039
a(I64
I10
I0
g113
tp2040
a(I69
I29
I0
g123
tp2041
a(I76
I3
I0
g125
tp2042
a(I76
I3
I0
g127
tp2043
a(I82
I3
I0
g129
tp2044
a(I82
I3
I0
g131
tp2045
a(I82
I3
F0.625
g133
tp2046
a(I83
I38
I0
g135
tp2047
a(I83
I38
F-0.625
g137
tp2048
a(I83
I38
F1.0
g139
tp2049
a(I83
I38
F1.0
g141
tp2050
a(I85
I25
I0
g145
tp2051
a(I89
I4
I0
g147
tp2052
a(I89
I20
I0
g149
tp2053
a(I89
I63
F1.0
g151
tp2054
a(I90
I3
I0
g161
tp2055
a(I94
I21
I0
g173
tp2056
a(I94
I26
I0
g175
tp2057
a(I94
I42
I0
g177
tp2058
a(I97
I24
I0
g181
tp2059
a(I112
I7
I0
g191
tp2060
a(I116
I4
I0
g193
tp2061
a(I116
I4
I0
g195
tp2062
a(I122
I7
I0
g197
tp2063
a(I129
I2
I0
g199
tp2064
a(I129
I2
F-0.875
g201
tp2065
a(I132
I31
I0
g203
tp2066
a(I138
I6
I0
g207
tp2067
a(I138
I6
F0.625
g209
tp2068
a(I140
I3
I0
g211
tp2069
a(I142
I157
I0
g223
tp2070
a(I142
I158
I0
g225
tp2071
a(I142
I160
I0
g227
tp2072
a(I145
I4
I0
g229
tp2073
a(I150
I0
F0.375
g231
tp2074
a(I153
I10
I0
g237
tp2075
a(I155
I15
F0.125
g239
tp2076
a(I155
I15
I0
g241
tp2077
a(I160
I0
F0.5
g253
tp2078
a(I160
I0
F-0.375
g255
tp2079
a(I160
I11
I0
g257
tp2080
a(I165
I0
I0
g269
tp2081
a(I165
I0
F-0.375
g271
tp2082
a(I171
I10
I0
g281
tp2083
a(I171
I10
F0.625
g283
tp2084
a(I175
I10
I0
g289
tp2085
a(I183
I5
I0
g297
tp2086
a(I183
I5
F-0.25
g299
tp2087
a(I186
I12
I0
g303
tp2088
as(S'google'
p2089
S'maps'
p2090
tp2091
(lp2092
(I35
I7
F-0.25
g1380
tp2093
a(I50
I11
F-0.25
g1382
tp2094
a(I55
I0
F-0.25
g1384
tp2095
a(I68
I7
F-0.25
g1386
tp2096
a(I74
I20
F-0.25
g1388
tp2097
a(I74
I20
F0.625
g1390
tp2098
a(I76
I5
F-0.25
g1392
tp2099
a(I89
I40
F-0.25
g1394
tp2100
a(I89
I40
F-0.25
g1396
tp2101
a(I92
I7
I0
g1471
tp2102
a(I93
I1
I0
g1473
tp2103
a(I93
I6
I0
g1475
tp2104
a(I94
I62
F-0.25
g1400
tp2105
a(I94
I108
F-0.25
g1402
tp2106
a(I99
I21
F-0.25
g1404
tp2107
a(I99
I21
F1.0
g1406
tp2108
a(I103
I10
F-0.25
g1408
tp2109
a(I107
I12
F-0.25
g1410
tp2110
a(I109
I5
F0.375
g1412
tp2111
a(I109
I5
I0
g1414
tp2112
a(I116
I6
F-0.25
g1416
tp2113
a(I125
I5
F-0.25
g1418
tp2114
a(I127
I13
F-0.625
g1420
tp2115
a(I130
I87
F-0.25
g1422
tp2116
a(I130
I87
F0.375
g1424
tp2117
a(I130
I127
F-0.25
g1426
tp2118
a(I130
I133
F-0.25
g1428
tp2119
a(I134
I5
F-0.25
g1430
tp2120
a(I142
I79
F-0.25
g1432
tp2121
a(I157
I27
F-0.25
g1436
tp2122
a(I157
I28
I0
g1438
tp2123
a(I157
I51
F-0.25
g1440
tp2124
a(I192
I9
F-0.25
g1444
tp2125
a(I193
I15
F-0.5
g1497
tp2126
a(I197
I8
F-0.25
g1446
tp2127
as(S'battery'
p2128
S'life'
p2129
tp2130
(lp2131
(I1
I4
F1.0
S'better'
p2132
tp2133
a(I5
I8
F1.0
S'good'
p2134
tp2135
a(I18
I10
F-0.75
g506
tp2136
a(I18
I12
F-0.75
g508
tp2137
a(I18
I12
F-0.75
g510
tp2138
a(I32
I55
F-0.5
S'long'
p2139
tp2140
a(I91
I2
F-0.625
S'bad'
p2141
tp2142
a(I94
I90
F1.0
S'better'
p2143
tp2144
a(I105
I2
I0
S'great'
p2145
tp2146
a(I109
I12
F1.0
S'good'
p2147
tp2148
a(I125
I2
F0.125
S'solid'
p2149
tp2150
a(I127
I17
I0
S'quicker'
p2151
tp2152
a(I127
I18
F0.375
S'much'
p2153
tp2154
a(I129
I3
I0
g512
tp2155
a(I129
I3
F-0.75
g514
tp2156
a(I134
I34
I0
S'physical'
p2157
tp2158
a(I134
I34
I0
S'great'
p2159
tp2160
a(I136
I2
F-0.75
g516
tp2161
a(I139
I6
F-0.5
S'poor'
p2162
tp2163
a(I152
I11
I0
S'android'
p2164
tp2165
a(I154
I2
F0.125
S'spectacular'
p2166
tp2167
a(I155
I13
F-0.625
S'average'
p2168
tp2169
a(I157
I34
I0
S'same'
p2170
tp2171
a(I157
I34
F0.625
S'decent'
p2172
tp2173
a(I157
I35
F-0.5
S'poor'
p2174
tp2175
a(I157
I49
F1.0
S'good'
p2176
tp2177
a(I157
I49
I0
S'great'
p2178
tp2179
a(I157
I49
I0
S'android'
p2180
tp2181
a(I160
I4
F-0.75
g518
tp2182
a(I160
I5
F-0.75
g520
tp2183
a(I160
I5
F-0.75
g522
tp2184
a(I167
I6
F-0.75
S'disappointment'
p2185
tp2186
a(I169
I2
I0
S'great'
p2187
tp2188
a(I170
I18
I0
S'different'
p2189
tp2190
a(I171
I17
F0.375
S'extended'
p2191
tp2192
a(I172
I47
F-0.5
S'poor'
p2193
tp2194
a(I173
I5
F1.0
S'good'
p2195
tp2196
a(I175
I13
F1.0
S'good'
p2197
tp2198
a(I177
I9
F0.625
S'decent'
p2199
tp2200
a(I180
I6
F-0.5
S'less'
p2201
tp2202
a(I180
I6
F0.125
S'impressive'
p2203
tp2204
a(I188
I8
F1.0
S'better'
p2205
tp2206
a(I192
I13
F1.0
S'better'
p2207
tp2208
a(I198
I15
F-0.5
S'longer'
p2209
tp2210
a(I200
I24
F0.125
S'first'
p2211
tp2212
a(I202
I7
F1.0
S'good'
p2213
tp2214
as(S'take'
p2215
g631
S'picture'
p2216
tp2217
(lp2218
(I165
I9
F0.875
S'worthy'
p2219
tp2220
as(S'back'
p2221
tp2222
(lp2223
(I110
I2
F-0.125
S'slow'
p2224
tp2225
as(S'blue'
p2226
S'tooth'
p2227
tp2228
(lp2229
(I93
I1
I0
S'blue'
p2230
tp2231
a(I93
I5
I0
S'blue'
p2232
tp2233
a(I201
I2
I0
S'blue'
p2234
tp2235
a(I201
I8
I0
S'blue'
p2236
tp2237
as(S'life'
p2238
tp2239
(lp2240
(I1
I4
F1.0
g2132
tp2241
a(I5
I8
F1.0
g2134
tp2242
a(I13
I6
F0.625
S'easier'
p2243
tp2244
a(I18
I10
F-0.75
g506
tp2245
a(I18
I12
F-0.75
g510
tp2246
a(I38
I11
F0.375
S'busy'
p2247
tp2248
a(I69
I18
F0.375
S'much'
p2249
tp2250
a(I94
I90
F1.0
g2143
tp2251
a(I105
I2
I0
g2145
tp2252
a(I109
I12
F1.0
g2147
tp2253
a(I129
I3
F-0.75
g514
tp2254
a(I134
I34
I0
g2159
tp2255
a(I157
I34
I0
g2170
tp2256
a(I157
I34
F0.625
g2172
tp2257
a(I157
I49
F1.0
g2176
tp2258
a(I157
I49
I0
g2178
tp2259
a(I170
I18
I0
g2189
tp2260
a(I171
I17
F0.375
g2191
tp2261
a(I173
I5
F1.0
g2195
tp2262
a(I177
I9
F0.625
g2199
tp2263
a(I180
I6
F-0.5
g2201
tp2264
a(I180
I6
F0.125
g2203
tp2265
a(I188
I8
F1.0
g2205
tp2266
a(I200
I24
F0.125
g2211
tp2267
a(I202
I7
F1.0
g2213
tp2268
as(S'2'
p2269
S'1'
p2270
S'update'
p2271
tp2272
(lp2273
(I35
I5
F-0.625
S'glad'
p2274
tp2275
a(I94
I91
I0
S'android'
p2276
tp2277
a(I94
I94
F0.375
S'available'
p2278
tp2279
a(I94
I121
F-0.375
S'manual'
p2280
tp2281
a(I94
I121
I0
S'cool'
p2282
tp2283
a(I130
I40
I0
S'android'
p2284
tp2285
a(I130
I88
I0
S'android'
p2286
tp2287
a(I130
I174
F0.5
S'optimistic'
p2288
tp2289
as(S'number'
p2290
S'of'
p2291
S'apps'
p2292
tp2293
(lp2294
(I17
I5
I0
S'large'
p2295
tp2296
a(I17
I5
I0
S'more'
p2297
tp2298
a(I142
I88
F-0.75
S'stupid'
p2299
tp2300
a(I157
I49
F0.125
S'native'
p2301
tp2302
a(I157
I49
F0.25
S'favorite'
p2303
tp2304
as(S'music'
p2305
tp2306
(lp2307
(I32
I55
F0.875
S'music'
p2308
tp2309
a(I43
I10
I0
S'android'
p2310
tp2311
a(I111
I0
F0.5
S'accurate'
p2312
tp2313
a(I130
I136
F0.5
S'so-so'
p2314
tp2315
a(I130
I171
F-0.875
S'inferior'
p2316
tp2317
a(I162
I5
I0
S'great'
p2318
tp2319
a(I180
I3
F1.0
S'good'
p2320
tp2321
as(S're'
p2322
S'are'
p2323
S'plenty'
p2324
tp2325
(lp2326
(I176
I28
F0.875
S'happy'
p2327
tp2328
as(S'user'
p2329
tp2330
(lp2331
(I3
I4
I0
S'such'
p2332
tp2333
a(I3
I4
F-0.5
S'heavy'
p2334
tp2335
a(I36
I1
I0
S'more'
p2336
tp2337
a(I36
I1
F0.25
S'polished'
p2338
tp2339
a(I36
I23
F0.875
S'nice'
p2340
tp2341
a(I58
I19
F0.5
S'accurate'
p2342
tp2343
a(I62
I9
I0
S'basic'
p2344
tp2345
a(I69
I6
F0.375
S'much'
p2346
tp2347
a(I69
I6
I0
S'more'
p2348
tp2349
a(I74
I21
F-0.375
S'simple'
p2350
tp2351
a(I83
I4
F0.5
S'elegant'
p2352
tp2353
a(I85
I27
F-0.625
S'light'
p2354
tp2355
a(I125
I3
F0.125
S'provide'
p2356
tp2357
a(I137
I4
F-0.125
S'super'
p2358
tp2359
a(I153
I3
I0
S'normal'
p2360
tp2361
a(I155
I9
F-0.5
S'heavy'
p2362
tp2363
a(I165
I4
F-0.375
S'manual'
p2364
tp2365
a(I177
I16
I0
S'total'
p2366
tp2367
a(I192
I5
I0
S'more'
p2368
tp2369
a(I201
I15
F-0.375
S'manual'
p2370
tp2371
a(I202
I3
F0.5
S'advanced'
p2372
tp2373
as(S'slide'
p2374
S'out'
p2375
S'keyboard'
p2376
tp2377
(lp2378
(I6
I4
F-0.5
g47
tp2379
a(I6
I4
F0.875
S'happier'
p2380
tp2381
a(I9
I20
I0
g49
tp2382
a(I85
I16
F0.375
g143
tp2383
a(I89
I4
I0
g147
tp2384
a(I92
I9
F1.0
g169
tp2385
a(I94
I20
F0.875
g171
tp2386
a(I94
I21
I0
g173
tp2387
a(I94
I42
I0
g177
tp2388
a(I156
I8
I0
g249
tp2389
a(I162
I8
F0.625
g261
tp2390
a(I193
I9
F0.625
g311
tp2391
a(I201
I5
F-0.5
g319
tp2392
as(S'search'
p2393
tp2394
(lp2395
(I10
I17
F1.0
S'better'
p2396
tp2397
a(I29
I8
F-0.25
S'google'
p2398
tp2399
a(I66
I126
F1.0
S'better'
p2400
tp2401
a(I66
I126
F1.0
S'better'
p2402
tp2403
a(I66
I126
I0
S'most'
p2404
tp2405
a(I66
I126
F-0.25
S'google'
p2406
tp2407
a(I66
I153
F-0.25
S'google'
p2408
tp2409
a(I69
I7
F0.5
S'accurate'
p2410
tp2411
a(I160
I3
I0
S'great'
p2412
tp2413
a(I191
I3
I0
S'quick'
p2414
tp2415
a(I193
I21
F0.625
S'easy'
p2416
tp2417
as(S'battery'
p2418
tp2419
(lp2420
(I9
I8
F0.25
S'biggest'
p2421
tp2422
a(I18
I12
F-0.75
g508
tp2423
a(I32
I55
F-0.5
g2139
tp2424
a(I38
I9
F0.375
S'extended'
p2425
tp2426
a(I38
I9
F0.375
S'available'
p2427
tp2428
a(I43
I3
F0.125
S'first'
p2429
tp2430
a(I66
I161
F-0.125
S'anecdotal'
p2431
tp2432
a(I91
I2
F-0.625
g2141
tp2433
a(I91
I5
F0.375
S'extended'
p2434
tp2435
a(I91
I5
F0.375
S'available'
p2436
tp2437
a(I92
I1
F0.625
S'easy'
p2438
tp2439
a(I94
I61
F0.25
S'biggest'
p2440
tp2441
a(I94
I71
F0.125
S'last'
p2442
tp2443
a(I125
I2
F0.125
g2149
tp2444
a(I127
I17
I0
g2151
tp2445
a(I127
I18
F0.375
g2153
tp2446
a(I129
I3
I0
g512
tp2447
a(I134
I34
I0
g2157
tp2448
a(I134
I37
I0
S'total'
p2449
tp2450
a(I135
I5
F0.625
S'replaceable'
p2451
tp2452
a(I135
I5
F0.125
S'key'
p2453
tp2454
a(I136
I2
F-0.75
g516
tp2455
a(I139
I6
F-0.5
g2162
tp2456
a(I142
I35
F0.625
S'removable'
p2457
tp2458
a(I142
I35
F0.25
S'sweet'
p2459
tp2460
a(I142
I126
F0.875
S'happy'
p2461
tp2462
a(I152
I11
I0
g2164
tp2463
a(I154
I2
F0.125
g2166
tp2464
a(I155
I13
F-0.625
g2168
tp2465
a(I157
I35
F-0.5
g2174
tp2466
a(I157
I40
F-0.125
S'dent'
p2467
tp2468
a(I157
I49
I0
g2180
tp2469
a(I160
I4
F-0.75
g518
tp2470
a(I160
I5
F-0.75
g520
tp2471
a(I160
I5
F-0.75
g522
tp2472
a(I162
I9
F1.0
S'best'
p2473
tp2474
a(I167
I6
F-0.75
g2185
tp2475
a(I167
I8
F-0.375
S'robust'
p2476
tp2477
a(I169
I2
I0
g2187
tp2478
a(I172
I15
I0
S'big'
p2479
tp2480
a(I172
I47
F-0.5
g2193
tp2481
a(I175
I13
F1.0
g2197
tp2482
a(I180
I8
F0.375
S'extended'
p2483
tp2484
a(I191
I1
F0.5
S'second'
p2485
tp2486
a(I191
I1
F0.375
S'new'
p2487
tp2488
a(I192
I13
F1.0
g2207
tp2489
a(I198
I15
F-0.5
g2209
tp2490
as(S'smart'
p2491
tp2492
(lp2493
(I13
I5
I0
S'great'
p2494
tp2495
a(I13
I7
F1.0
S'good'
p2496
tp2497
a(I57
I0
F0.125
S'first'
p2498
tp2499
a(I58
I0
F0.125
S'first'
p2500
tp2501
a(I58
I2
F0.375
S'newer'
p2502
tp2503
a(I58
I2
F0.375
S'new'
p2504
tp2505
a(I58
I14
F0.125
S'first'
p2506
tp2507
a(I58
I15
F1.0
S'good'
p2508
tp2509
a(I58
I17
F-0.625
S'other'
p2510
tp2511
a(I58
I17
F-0.5
S'poor'
p2512
tp2513
a(I89
I19
F-0.625
S'other'
p2514
tp2515
a(I89
I72
I0
S'most'
p2516
tp2517
a(I89
I72
F-0.625
S'other'
p2518
tp2519
a(I91
I1
F0.125
S'first'
p2520
tp2521
a(I95
I55
F0.125
S'first'
p2522
tp2523
a(I118
I15
F-0.875
S'worst'
p2524
tp2525
a(I121
I3
F0.125
S'first'
p2526
tp2527
a(I133
I0
F0.125
S'first'
p2528
tp2529
a(I153
I0
F0.125
S'first'
p2530
tp2531
a(I176
I17
F0.5
S'expensive'
p2532
tp2533
a(I176
I17
I0
S'standard'
p2534
tp2535
a(I194
I1
F0.125
S'first'
p2536
tp2537
as(S'android'
p2538
S'app'
p2539
S'market'
p2540
tp2541
(lp2542
(I1
I3
I0
g1579
tp2543
a(I9
I26
I0
g985
tp2544
a(I9
I27
I0
g987
tp2545
a(I52
I5
I0
g989
tp2546
a(I72
I8
I0
g991
tp2547
a(I89
I57
I0
S'android'
p2548
tp2549
a(I89
I59
I0
S'android'
p2550
tp2551
a(I89
I59
I0
S'android'
p2552
tp2553
a(I89
I62
I0
S'android'
p2554
tp2555
a(I92
I6
I0
S'android'
p2556
tp2557
a(I97
I14
I0
g993
tp2558
a(I97
I26
I0
g995
tp2559
a(I97
I35
I0
g999
tp2560
a(I118
I13
I0
g1001
tp2561
a(I130
I5
I0
g1003
tp2562
a(I130
I117
I0
g1604
tp2563
a(I137
I5
I0
g1005
tp2564
a(I142
I84
I0
g1007
tp2565
a(I142
I139
I0
g1608
tp2566
a(I156
I4
I0
g1009
tp2567
a(I157
I17
I0
g1013
tp2568
a(I158
I3
F-0.5
g1015
tp2569
a(I185
I3
I0
g1017
tp2570
as(S'false'
p2571
S'alarms'
p2572
tp2573
(lp2574
(I130
I78
I0
S'tolerate'
p2575
tp2576
a(I130
I78
F-0.375
S'disable'
p2577
tp2578
as(S'contacts'
p2579
tp2580
(lp2581
(I83
I78
F0.25
S'favorite'
p2582
tp2583
a(I91
I22
F-0.25
S'google'
p2584
tp2585
a(I113
I3
F0.625
S'convenient'
p2586
tp2587
a(I127
I12
I0
S'many'
p2588
tp2589
a(I134
I15
F-0.25
S'google'
p2590
tp2591
a(I134
I17
F-0.25
S'google'
p2592
tp2593
a(I155
I30
F-0.25
S'google'
p2594
tp2595
as(S'update'
p2596
tp2597
(lp2598
(I35
I5
F-0.625
g2274
tp2599
a(I76
I5
F0.125
S'first'
p2600
tp2601
a(I76
I5
F0.625
S'major'
p2602
tp2603
a(I86
I2
F0.75
S'due'
p2604
tp2605
a(I94
I91
I0
g2276
tp2606
a(I94
I92
F0.75
S'due'
p2607
tp2608
a(I94
I94
F0.375
g2278
tp2609
a(I94
I117
F-0.625
S'bad'
p2610
tp2611
a(I94
I121
F-0.375
g2280
tp2612
a(I94
I121
I0
g2282
tp2613
a(I112
I3
I0
S'next'
p2614
tp2615
a(I130
I40
I0
g2284
tp2616
a(I130
I88
I0
g2286
tp2617
a(I130
I174
F0.5
g2288
tp2618
a(I157
I29
I0
S'android'
p2619
tp2620
as(S'pretty'
p2621
tp2622
(lp2623
(I61
I13
I0
S'big'
p2624
tp2625
as(S'time'
p2626
tp2627
(lp2628
(I4
I8
F-0.125
S'delete'
p2629
tp2630
a(I4
I8
F0.125
S'key'
p2631
tp2632
a(I4
I10
F0.125
S'first'
p2633
tp2634
a(I5
I1
F1.0
S'better'
p2635
tp2636
a(I31
I20
I0
S'entire'
p2637
tp2638
a(I32
I30
F-0.625
S'free'
p2639
tp2640
a(I32
I34
I0
S'same'
p2641
tp2642
a(I36
I1
I0
S'android'
p2643
tp2644
a(I40
I21
F0.125
S'first'
p2645
tp2646
a(I46
I11
F-0.875
S'hard'
p2647
tp2648
a(I58
I7
F-0.5
S'long'
p2649
tp2650
a(I58
I7
F-0.5
S'long'
p2651
tp2652
a(I66
I161
F-0.5
S'longer'
p2653
tp2654
a(I77
I2
I0
S'same'
p2655
tp2656
a(I77
I2
F-0.625
S'unlike'
p2657
tp2658
a(I89
I8
I0
S'same'
p2659
tp2660
a(I89
I36
F-0.5
S'longer'
p2661
tp2662
a(I90
I4
F-0.5
S'long'
p2663
tp2664
a(I91
I10
F-0.5
S'sure'
p2665
tp2666
a(I94
I20
F-0.875
S'hard'
p2667
tp2668
a(I95
I59
I0
S'big'
p2669
tp2670
a(I97
I45
F0.625
S'convenient'
p2671
tp2672
a(I97
I45
I0
S'most'
p2673
tp2674
a(I98
I4
I0
S'most'
p2675
tp2676
a(I99
I19
F-0.875
S'hard'
p2677
tp2678
a(I103
I2
I0
S'more'
p2679
tp2680
a(I103
I3
F0.375
S'newer'
p2681
tp2682
a(I103
I3
I0
S'more'
p2683
tp2684
a(I104
I4
I0
S'third'
p2685
tp2686
a(I107
I28
I0
S'same'
p2687
tp2688
a(I114
I7
I0
S'most'
p2689
tp2690
a(I118
I5
I0
S'most'
p2691
tp2692
a(I118
I13
F-0.5
S'long'
p2693
tp2694
a(I130
I16
F-0.5
S'long'
p2695
tp2696
a(I130
I50
F-0.5
S'actual'
p2697
tp2698
a(I130
I104
I0
S'most'
p2699
tp2700
a(I130
I104
F-0.75
S'wrong'
p2701
tp2702
a(I131
I11
I0
S'real'
p2703
tp2704
a(I132
I2
I0
S'only'
p2705
tp2706
a(I139
I5
I0
S'same'
p2707
tp2708
a(I142
I132
F-0.5
S'long'
p2709
tp2710
a(I150
I4
I0
S'same'
p2711
tp2712
a(I154
I4
F0.75
S'worth'
p2713
tp2714
a(I170
I14
I0
S'most'
p2715
tp2716
a(I171
I17
I0
S'same'
p2717
tp2718
a(I172
I3
I0
S'same'
p2719
tp2720
a(I180
I9
I0
S'more'
p2721
tp2722
a(I188
I2
I0
S'same'
p2723
tp2724
a(I188
I8
I0
S'same'
p2725
tp2726
a(I190
I9
I0
S'same'
p2727
tp2728
a(I192
I29
F-0.5
S'long'
p2729
tp2730
a(I192
I29
F0.25
S'favorite'
p2731
tp2732
a(I200
I39
I0
S'same'
p2733
tp2734
a(I201
I11
F0.375
S'prime'
p2735
tp2736
as(S'find'
p2737
tp2738
(lp2739
(I91
I36
F-0.25
S'google'
p2740
tp2741
as(S'verizon'
p2742
S'store'
p2743
tp2744
(lp2745
(I2
I0
F0.375
g729
tp2746
a(I9
I11
I0
g731
tp2747
a(I64
I0
I0
g747
tp2748
a(I89
I68
I0
g769
tp2749
a(I89
I81
I0
g771
tp2750
a(I95
I0
I0
g779
tp2751
a(I152
I0
I0
g803
tp2752
a(I187
I12
F0.125
g872
tp2753
a(I187
I12
F0.125
g819
tp2754
a(I193
I1
F0.375
g821
tp2755
as(S'gmail'
p2756
tp2757
(lp2758
(I18
I4
F0.625
S'straight'
p2759
tp2760
a(I94
I40
I0
S'such'
p2761
tp2762
a(I132
I24
F0.875
S'nice'
p2763
tp2764
a(I172
I20
I0
S'same'
p2765
tp2766
a(I172
I43
I0
S'more'
p2767
tp2768
a(I176
I1
I0
S'total'
p2769
tp2770
a(I192
I9
F-0.25
S'google'
p2771
tp2772
a(I193
I2
F0.375
S'new'
p2773
tp2774
as(S're'
p2775
S"'s"
p2776
S'an'
p2777
S'app'
p2778
tp2779
(lp2780
(I89
I36
F1.0
S'good'
p2781
tp2782
a(I89
I37
F1.0
S'good'
p2783
tp2784
a(I92
I6
I0
g2556
tp2785
a(I99
I10
I0
S'own'
p2786
tp2787
a(I155
I65
I0
S'android'
p2788
tp2789
as(S'android'
p2790
S'market'
p2791
tp2792
(lp2793
(I1
I3
I0
g1579
tp2794
a(I9
I26
I0
g985
tp2795
a(I9
I27
I0
g987
tp2796
a(I52
I5
I0
g989
tp2797
a(I72
I8
I0
g991
tp2798
a(I97
I14
I0
g993
tp2799
a(I97
I26
I0
g995
tp2800
a(I97
I33
I0
g997
tp2801
a(I97
I35
I0
g999
tp2802
a(I107
I21
I0
g1596
tp2803
a(I118
I13
I0
g1001
tp2804
a(I130
I5
I0
g1003
tp2805
a(I130
I117
I0
g1604
tp2806
a(I137
I5
I0
g1005
tp2807
a(I142
I84
I0
g1007
tp2808
a(I142
I139
I0
g1608
tp2809
a(I156
I4
I0
g1009
tp2810
a(I157
I16
F0.125
g1011
tp2811
a(I157
I17
I0
g1013
tp2812
a(I158
I3
F-0.5
g1015
tp2813
a(I185
I3
I0
g1017
tp2814
as(S'touch'
p2815
S'screen'
p2816
tp2817
(lp2818
(I4
I19
I0
S'big'
p2819
tp2820
a(I8
I3
F0.5
g1109
tp2821
a(I11
I3
F0.875
g527
tp2822
a(I11
I13
F0.5
S'touch'
p2823
tp2824
a(I18
I5
I0
S'great'
p2825
tp2826
a(I38
I1
F-0.375
S'black'
p2827
tp2828
a(I42
I0
I0
g529
tp2829
a(I45
I7
F1.0
S'better'
p2830
tp2831
a(I45
I7
F-0.125
S'overall'
p2832
tp2833
a(I50
I7
I0
S'big'
p2834
tp2835
a(I50
I7
F0.5
S'accurate'
p2836
tp2837
a(I50
I7
F0.25
S'responsive'
p2838
tp2839
a(I50
I7
F0.625
S'easy'
p2840
tp2841
a(I50
I8
F-0.125
S'overall'
p2842
tp2843
a(I50
I8
F0.625
g531
tp2844
a(I50
I9
F0.625
g1129
tp2845
a(I54
I2
I0
S'great'
p2846
tp2847
a(I55
I0
F-0.125
g1132
tp2848
a(I59
I2
I0
g1276
tp2849
a(I59
I2
F0.5
g1278
tp2850
a(I66
I117
F0.5
S'touch'
p2851
tp2852
a(I67
I5
F0.25
S'bigger'
p2853
tp2854
a(I89
I28
F0.5
S'accurate'
p2855
tp2856
a(I89
I28
F0.25
S'responsive'
p2857
tp2858
a(I94
I6
F0.5
g1142
tp2859
a(I94
I10
F0.25
S'stellar'
p2860
tp2861
a(I94
I17
F0.5
S'touch'
p2862
tp2863
a(I94
I20
F0.5
g1144
tp2864
a(I94
I27
F0.5
S'touch'
p2865
tp2866
a(I109
I15
F0.5
S'touch'
p2867
tp2868
a(I114
I6
F0.5
S'touch'
p2869
tp2870
a(I114
I7
F0.875
g1151
tp2871
a(I130
I164
F0.25
S'responsive'
p2872
tp2873
a(I131
I1
F0.125
g533
tp2874
a(I142
I58
I0
g537
tp2875
a(I142
I67
F0.5
S'touch'
p2876
tp2877
a(I147
I3
F0.125
S'impressive'
p2878
tp2879
a(I150
I4
I0
S'sensitive'
p2880
tp2881
a(I150
I4
F0.5
S'accurate'
p2882
tp2883
a(I151
I1
F0.5
g1162
tp2884
a(I151
I1
F1.0
g1164
tp2885
a(I151
I1
F0.75
g1166
tp2886
a(I155
I17
F-0.625
g539
tp2887
a(I157
I11
F0.625
g1310
tp2888
a(I157
I11
F0.5
g1312
tp2889
a(I160
I0
I0
g1170
tp2890
a(I160
I11
F0.125
g1175
tp2891
a(I161
I6
F0.5
S'touch'
p2892
tp2893
a(I176
I13
I0
g549
tp2894
a(I192
I3
I0
g1183
tp2895
as(S'pod'
p2896
S'touch'
p2897
tp2898
(lp2899
(I42
I0
I0
g529
tp2900
a(I163
I6
I0
g545
tp2901
a(I176
I13
I0
g549
tp2902
as(S'motorola'
p2903
S'droid'
p2904
tp2905
(lp2906
(I35
I35
F0.625
g345
tp2907
a(I55
I0
F0.875
g353
tp2908
a(I64
I13
F0.5
g357
tp2909
a(I91
I13
I0
g359
tp2910
a(I91
I33
F0.625
g1557
tp2911
a(I91
I33
I0
g361
tp2912
a(I123
I0
F0.125
g363
tp2913
a(I142
I57
I0
g365
tp2914
a(I146
I0
I0
g367
tp2915
a(I164
I2
F-0.625
g369
tp2916
as(S'navigation'
p2917
tp2918
(lp2919
(I10
I7
F0.5
S'accurate'
p2920
tp2921
a(I13
I7
F-0.25
S'google'
p2922
tp2923
a(I13
I7
F-0.375
S'simple'
p2924
tp2925
a(I36
I4
F-0.875
S'awful'
p2926
tp2927
a(I38
I7
I0
S'great'
p2928
tp2929
a(I69
I17
F-0.25
S'google'
p2930
tp2931
a(I77
I5
I0
S'cross-country'
p2932
tp2933
a(I94
I115
F0.625
S'easier'
p2934
tp2935
a(I130
I122
F-0.625
g653
tp2936
a(I137
I2
F0.625
S'easy'
p2937
tp2938
a(I137
I2
F-0.375
S'simple'
p2939
tp2940
a(I153
I15
F-0.625
S'free'
p2941
tp2942
a(I153
I15
I0
S'adequate'
p2943
tp2944
a(I161
I7
F1.0
S'good'
p2945
tp2946
a(I171
I5
I0
S'least'
p2947
tp2948
a(I185
I4
F-0.125
S'traffic'
p2949
tp2950
a(I188
I3
F0.875
S'music'
p2951
tp2952
a(I193
I10
I0
S'great'
p2953
tp2954
a(I197
I8
F-0.625
S'free'
p2955
tp2956
as(S'android'
p2957
S'os'
p2958
tp2959
(lp2960
(I5
I1
F0.375
g1720
tp2961
a(I23
I2
I0
g1724
tp2962
a(I25
I4
I0
S'android'
p2963
tp2964
a(I35
I31
I0
S'android'
p2965
tp2966
a(I36
I26
I0
S'android'
p2967
tp2968
a(I49
I11
I0
S'android'
p2969
tp2970
a(I52
I5
I0
S'android'
p2971
tp2972
a(I52
I5
I0
g989
tp2973
a(I58
I5
I0
S'android'
p2974
tp2975
a(I66
I24
I0
S'android'
p2976
tp2977
a(I66
I24
F0.625
S'easy'
p2978
tp2979
a(I66
I102
I0
S'android'
p2980
tp2981
a(I66
I103
I0
S'android'
p2982
tp2983
a(I66
I115
I0
S'android'
p2984
tp2985
a(I66
I139
F0.375
g1735
tp2986
a(I68
I2
I0
S'android'
p2987
tp2988
a(I68
I2
F-0.75
S'difficult'
p2989
tp2990
a(I82
I0
I0
S'android'
p2991
tp2992
a(I89
I30
I0
S'android'
p2993
tp2994
a(I89
I57
I0
S'android'
p2995
tp2996
a(I89
I57
F-0.125
S'super'
p2997
tp2998
a(I89
I57
F0.625
S'easy'
p2999
tp3000
a(I130
I100
I0
S'android'
p3001
tp3002
a(I135
I5
F0.375
g1743
tp3003
a(I172
I5
I0
S'android'
p3004
tp3005
a(I172
I22
I0
S'android'
p3006
tp3007
a(I172
I36
I0
S'android'
p3008
tp3009
a(I172
I47
I0
S'android'
p3010
tp3011
as(S'screen'
p3012
tp3013
(lp3014
(I1
I2
F0.5
S'accurate'
p3015
tp3016
a(I4
I19
I0
g2819
tp3017
a(I8
I3
F0.5
g1109
tp3018
a(I10
I5
F0.25
S'main'
p3019
tp3020
a(I11
I12
F-0.875
S'trouble'
p3021
tp3022
a(I11
I13
F0.5
g2823
tp3023
a(I18
I5
I0
g2825
tp3024
a(I23
I7
F0.5
S'flat'
p3025
tp3026
a(I25
I16
I0
g1117
tp3027
a(I26
I2
I0
g1119
tp3028
a(I26
I2
F-0.25
g1121
tp3029
a(I30
I8
F1.0
S'best'
p3030
tp3031
a(I32
I19
F-0.5
S'longer'
p3032
tp3033
a(I32
I36
F-0.375
S'black'
p3034
tp3035
a(I34
I5
F0.625
S'easy'
p3036
tp3037
a(I38
I1
F-0.375
g2827
tp3038
a(I45
I7
F1.0
g2830
tp3039
a(I45
I7
F-0.125
g2832
tp3040
a(I45
I17
F-0.625
S'unpredictable'
p3041
tp3042
a(I49
I13
I0
S'incredible'
p3043
tp3044
a(I49
I13
F0.875
S'nicest'
p3045
tp3046
a(I50
I7
I0
g2834
tp3047
a(I50
I7
F0.5
g2836
tp3048
a(I50
I7
F0.25
g2838
tp3049
a(I50
I7
F0.625
g2840
tp3050
a(I50
I8
F-0.125
g2842
tp3051
a(I50
I9
F0.625
g1129
tp3052
a(I54
I2
I0
g2846
tp3053
a(I55
I0
F-0.125
g1132
tp3054
a(I59
I2
I0
g1276
tp3055
a(I59
I2
F0.5
g1278
tp3056
a(I60
I3
F-0.25
S'google'
p3057
tp3058
a(I60
I3
I0
S'wobble'
p3059
tp3060
a(I62
I18
F0.75
S'beautiful'
p3061
tp3062
a(I62
I18
F-0.25
S'turned'
p3063
tp3064
a(I62
I25
F-0.5
S'sure'
p3065
tp3066
a(I64
I6
I0
S'big'
p3067
tp3068
a(I64
I6
F0.75
S'beautiful'
p3069
tp3070
a(I66
I6
I0
S'large'
p3071
tp3072
a(I66
I26
F0.75
S'beautiful'
p3073
tp3074
a(I66
I117
F0.5
g2851
tp3075
a(I67
I5
F0.25
g2853
tp3076
a(I72
I3
F-0.375
g1134
tp3077
a(I73
I1
I0
S'faster'
p3078
tp3079
a(I73
I1
F0.25
S'bigger'
p3080
tp3081
a(I73
I1
F0.5
S'clearer'
p3082
tp3083
a(I78
I4
F0.75
S'beautiful'
p3084
tp3085
a(I83
I20
F0.25
S'sharp'
p3086
tp3087
a(I87
I1
I0
S'large'
p3088
tp3089
a(I89
I24
F0.875
S'nice'
p3090
tp3091
a(I89
I24
F-0.75
S'bright'
p3092
tp3093
a(I89
I28
F0.5
g2855
tp3094
a(I89
I28
F0.25
g2857
tp3095
a(I89
I74
F0.25
g1287
tp3096
a(I94
I6
F0.5
g1142
tp3097
a(I94
I10
F0.25
g2860
tp3098
a(I94
I13
I0
S'large'
p3099
tp3100
a(I94
I13
I0
S'real'
p3101
tp3102
a(I94
I15
I0
S'sensitive'
p3103
tp3104
a(I94
I17
F0.5
g2862
tp3105
a(I94
I19
F0.75
S'precise'
p3106
tp3107
a(I94
I20
F0.5
g1144
tp3108
a(I94
I27
F0.5
g2865
tp3109
a(I94
I61
I0
S'next'
p3110
tp3111
a(I94
I96
I0
S'different'
p3112
tp3113
a(I99
I12
I0
S'large'
p3114
tp3115
a(I99
I13
F-0.375
S'simple'
p3116
tp3117
a(I109
I15
F0.5
g2867
tp3118
a(I114
I6
F0.5
g2869
tp3119
a(I114
I7
F0.875
g1151
tp3120
a(I118
I13
I0
S'large'
p3121
tp3122
a(I127
I23
I0
g1153
tp3123
a(I130
I164
F0.25
g2872
tp3124
a(I142
I44
I0
g1156
tp3125
a(I142
I67
F0.5
g2876
tp3126
a(I144
I1
I0
S'big'
p3127
tp3128
a(I144
I1
F0.625
S'easy'
p3129
tp3130
a(I147
I3
F0.125
g2878
tp3131
a(I150
I4
I0
g2880
tp3132
a(I150
I4
F0.5
g2882
tp3133
a(I151
I1
F0.5
g1162
tp3134
a(I151
I1
F1.0
g1164
tp3135
a(I151
I1
F0.75
g1166
tp3136
a(I152
I1
F0.25
S'larger'
p3137
tp3138
a(I152
I1
F-0.5
S'relative'
p3139
tp3140
a(I157
I3
F0.75
S'beautiful'
p3141
tp3142
a(I157
I11
F0.625
g1310
tp3143
a(I157
I11
F0.5
g1312
tp3144
a(I157
I41
I0
S'big'
p3145
tp3146
a(I160
I0
I0
g1170
tp3147
a(I160
I11
F0.125
g1175
tp3148
a(I161
I2
F0.125
S'first'
p3149
tp3150
a(I161
I2
F0.25
S'sharp'
p3151
tp3152
a(I161
I2
F-0.75
S'difficult'
p3153
tp3154
a(I161
I6
F0.5
g2892
tp3155
a(I163
I3
F0.5
S'clearest'
p3156
tp3157
a(I173
I1
I0
S'big'
p3158
tp3159
a(I174
I5
I0
S'closing'
p3160
tp3161
a(I177
I1
I0
S'big'
p3162
tp3163
a(I182
I5
I0
S'big'
p3164
tp3165
a(I182
I5
F-0.75
S'bright'
p3166
tp3167
a(I184
I4
I0
S'great'
p3168
tp3169
a(I184
I4
F0.625
S'easy'
p3170
tp3171
a(I192
I3
I0
g1183
tp3172
a(I193
I14
F-0.75
S'bright'
p3173
tp3174
a(I193
I14
F0.625
S'easy'
p3175
tp3176
a(I195
I1
F0.875
g1185
tp3177
a(I198
I14
F-0.375
S'small'
p3178
tp3179
a(I198
I16
F0.25
S'larger'
p3180
tp3181
a(I198
I23
I0
S'more'
p3182
tp3183
a(I198
I23
I0
S'text'
p3184
tp3185
a(I200
I29
F0.75
S'beautiful'
p3186
tp3187
as(S'local'
p3188
S'verizon'
p3189
S'store'
p3190
tp3191
(lp3192
(I9
I11
I0
g731
tp3193
a(I64
I0
I0
g747
tp3194
a(I89
I68
I0
g769
tp3195
a(I89
I81
I0
g771
tp3196
a(I95
I0
I0
g779
tp3197
a(I152
I0
I0
g803
tp3198
as(S'everything'
p3199
tp3200
(lp3201
(I15
I3
F-0.375
S'unacceptable'
p3202
tp3203
a(I18
I2
F0.625
S'easy'
p3204
tp3205
a(I18
I3
F-0.25
S'google'
p3206
tp3207
a(I23
I38
I0
S'least'
p3208
tp3209
a(I94
I11
I0
S'crystal'
p3210
tp3211
a(I94
I11
F0.5
S'clear'
p3212
tp3213
a(I103
I6
F0.625
S'easy'
p3214
tp3215
a(I111
I0
I0
S'more'
p3216
tp3217
a(I127
I11
F0.375
S'available'
p3218
tp3219
a(I147
I4
F0.125
S'able'
p3220
tp3221
a(I175
I24
F0.875
S'nice'
p3222
tp3223
a(I182
I15
I0
S'fast'
p3224
tp3225
as(S'camera'
p3226
tp3227
(lp3228
(I5
I3
I0
S'great'
p3229
tp3230
a(I5
I3
F-0.25
S'potential'
p3231
tp3232
a(I10
I19
F-0.25
S'low'
p3233
tp3234
a(I25
I13
F-0.125
S'slow'
p3235
tp3236
a(I25
I14
I0
S'real'
p3237
tp3238
a(I32
I4
F1.0
S'good'
p3239
tp3240
a(I35
I21
F-0.5
S'poor'
p3241
tp3242
a(I35
I25
F-0.625
S'light'
p3243
tp3244
a(I50
I13
F0.625
S'fair'
p3245
tp3246
a(I50
I16
F0.375
S'much'
p3247
tp3248
a(I50
I16
F-0.875
S'negative'
p3249
tp3250
a(I70
I13
F1.0
S'good'
p3251
tp3252
a(I89
I11
F-0.625
S'average'
p3253
tp3254
a(I89
I12
I0
S'incredible'
p3255
tp3256
a(I89
I13
I0
S'incredible'
p3257
tp3258
a(I89
I69
F1.0
S'good'
p3259
tp3260
a(I89
I69
F1.0
S'good'
p3261
tp3262
a(I89
I69
F0.125
S'digital'
p3263
tp3264
a(I94
I46
F0.125
S'digital'
p3265
tp3266
a(I94
I52
I0
S'real'
p3267
tp3268
a(I97
I32
I0
S'old'
p3269
tp3270
a(I97
I32
F1.0
S'best'
p3271
tp3272
a(I112
I2
F0.375
S'much'
p3273
tp3274
a(I160
I8
F0.875
S'nice'
p3275
tp3276
a(I165
I30
I0
S'basic'
p3277
tp3278
a(I167
I3
F-0.625
S'other'
p3279
tp3280
a(I175
I23
I0
S'great'
p3281
tp3282
a(I175
I23
F-0.5
S'actual'
p3283
tp3284
a(I184
I4
I0
S'great'
p3285
tp3286
a(I185
I5
I0
S'real'
p3287
tp3288
a(I186
I13
F1.0
S'best'
p3289
tp3290
a(I195
I3
F-0.625
S'bad'
p3291
tp3292
a(I195
I3
F0.125
S'digital'
p3293
tp3294
as(S'using'
p3295
tp3296
(lp3297
(I19
I9
F-0.75
S'dark'
p3298
tp3299
as(S'and'
p3300
S'google'
p3301
S'maps'
p3302
tp3303
(lp3304
(I55
I0
F-0.25
g1384
tp3305
a(I68
I7
F-0.25
g1386
tp3306
a(I76
I5
F-0.25
g1392
tp3307
a(I89
I40
F-0.25
g1394
tp3308
a(I89
I40
F-0.25
g1396
tp3309
a(I92
I7
I0
g1471
tp3310
a(I93
I1
I0
g1473
tp3311
a(I93
I6
I0
g1475
tp3312
a(I94
I108
F-0.25
g1402
tp3313
a(I99
I21
F-0.25
g1404
tp3314
a(I99
I21
F1.0
g1406
tp3315
a(I107
I12
F-0.25
g1410
tp3316
a(I109
I5
F0.375
g1412
tp3317
a(I109
I5
I0
g1414
tp3318
a(I116
I6
F-0.25
g1416
tp3319
a(I125
I5
F-0.25
g1418
tp3320
a(I127
I13
F-0.625
g1420
tp3321
a(I130
I133
F-0.25
g1428
tp3322
a(I142
I79
F-0.25
g1432
tp3323
a(I157
I27
F-0.25
g1436
tp3324
a(I157
I28
I0
g1438
tp3325
a(I157
I51
F-0.25
g1440
tp3326
a(I192
I9
F-0.25
g1444
tp3327
a(I193
I15
F-0.5
g1497
tp3328
a(I197
I8
F-0.25
g1446
tp3329
as(S'headphone'
p3330
S'jack'
p3331
tp3332
(lp3333
(I89
I45
I0
S'standard'
p3334
tp3335
a(I130
I136
I0
S'standard'
p3336
tp3337
a(I157
I43
I0
S'standard'
p3338
tp3339
as(S'pictures'
p3340
tp3341
(lp3342
(I9
I16
I0
S'great'
p3343
tp3344
a(I32
I1
F-0.125
S'delete'
p3345
tp3346
a(I35
I25
F-0.125
S'overall'
p3347
tp3348
a(I50
I13
I0
S'few'
p3349
tp3350
a(I58
I9
F0.5
S'comparable'
p3351
tp3352
a(I70
I13
I0
S'real'
p3353
tp3354
a(I89
I11
F1.0
S'good'
p3355
tp3356
a(I89
I12
F1.0
S'better'
p3357
tp3358
a(I97
I34
I0
S'blue'
p3359
tp3360
a(I97
I43
I0
S'upload'
p3361
tp3362
a(I142
I94
I0
S'great'
p3363
tp3364
a(I161
I9
F-0.625
S'light'
p3365
tp3366
a(I175
I23
F1.0
S'good'
p3367
tp3368
a(I189
I4
I0
S'great'
p3369
tp3370
as(S'gorilla'
p3371
S'glass'
p3372
tp3373
(lp3374
(I142
I26
F-0.75
S'tough'
p3375
tp3376
a(I142
I57
F-0.75
S'tough'
p3377
tp3378
as(S'people'
p3379
tp3380
(lp3381
(I2
I3
F-0.625
S'unclear'
p3382
tp3383
a(I9
I31
I0
S'most'
p3384
tp3385
a(I9
I31
I0
S'least'
p3386
tp3387
a(I9
I35
I0
S'many'
p3388
tp3389
a(I25
I33
F-0.625
S'want'
p3390
tp3391
a(I40
I10
F1.0
S'better'
p3392
tp3393
a(I46
I11
F1.0
S'good'
p3394
tp3395
a(I58
I12
I0
S'most'
p3396
tp3397
a(I69
I1
I0
S'many'
p3398
tp3399
a(I76
I12
I0
S'many'
p3400
tp3401
a(I89
I17
I0
S'most'
p3402
tp3403
a(I89
I20
I0
S'most'
p3404
tp3405
a(I95
I62
I0
S'most'
p3406
tp3407
a(I107
I7
F-0.625
S'bad'
p3408
tp3409
a(I113
I0
I0
S'many'
p3410
tp3411
a(I116
I0
I0
S'many'
p3412
tp3413
a(I130
I19
F-0.625
S'other'
p3414
tp3415
a(I139
I0
I0
S'many'
p3416
tp3417
a(I152
I8
I0
S'many'
p3418
tp3419
a(I154
I1
F-0.375
S'simple'
p3420
tp3421
a(I155
I2
F0.375
S'new'
p3422
tp3423
a(I161
I6
F-0.875
S'harder'
p3424
tp3425
a(I162
I9
F-0.625
S'want'
p3426
tp3427
a(I172
I5
I0
S'many'
p3428
tp3429
a(I178
I2
I0
S'full'
p3430
tp3431
a(I178
I2
I0
S'signal'
p3432
tp3433
a(I180
I4
F-0.625
S'other'
p3434
tp3435
a(I192
I27
F-0.5
S'sure'
p3436
tp3437
a(I192
I27
F-0.125
S'opposite'
p3438
tp3439
as(S'works'
p3440
tp3441
(lp3442
(I23
I7
I0
S'cool'
p3443
tp3444
a(I23
I7
I0
S'handy'
p3445
tp3446
a(I45
I0
I0
S'great'
p3447
tp3448
a(I50
I8
I0
S'great'
p3449
tp3450
a(I50
I10
I0
S'great'
p3451
tp3452
a(I85
I8
F-0.25
S'google'
p3453
tp3454
a(I89
I42
F0.625
S'easy'
p3455
tp3456
a(I89
I42
I0
S'great'
p3457
tp3458
a(I89
I81
F0.625
S'easy'
p3459
tp3460
a(I114
I14
F1.0
S'better'
p3461
tp3462
a(I130
I67
I0
S'great'
p3463
tp3464
a(I157
I51
F-0.25
S'google'
p3465
tp3466
a(I161
I6
I0
S'great'
p3467
tp3468
a(I175
I8
I0
S'great'
p3469
tp3470
a(I192
I28
I0
S'great'
p3471
tp3472
a(I198
I9
F-0.625
S'unlike'
p3473
tp3474
a(I202
I5
I0
S'great'
p3475
tp3476
as(S'browser'
p3477
tp3478
(lp3479
(I41
I1
I0
S'faster'
p3480
tp3481
a(I92
I6
F-0.625
S'free'
p3482
tp3483
a(I92
I7
I0
S'android'
p3484
tp3485
a(I94
I46
I0
S'android'
p3486
tp3487
a(I94
I46
F0.625
S'superior'
p3488
tp3489
a(I172
I25
I0
S'android'
p3490
tp3491
a(I179
I13
F-0.625
S'free'
p3492
tp3493
a(I179
I13
F0.375
S'available'
p3494
tp3495
a(I186
I4
F1.0
S'best'
p3496
tp3497
a(I193
I6
I0
S'great'
p3498
tp3499
as(S'better'
p3500
tp3501
(lp3502
(I9
I24
F0.375
g636
tp3503
a(I38
I5
I0
S'keyboard'
p3504
tp3505
a(I54
I1
F0.375
g638
tp3506
a(I74
I14
F0.375
g640
tp3507
a(I91
I9
F0.375
g642
tp3508
a(I107
I3
F0.75
g644
tp3509
a(I107
I3
F0.375
g646
tp3510
as(S'device'
p3511
tp3512
(lp3513
(I13
I5
I0
S'special'
p3514
tp3515
a(I13
I6
I0
S'handy'
p3516
tp3517
a(I25
I26
I0
S'own'
p3518
tp3519
a(I31
I15
I0
S'incredible'
p3520
tp3521
a(I31
I15
I0
S'stable'
p3522
tp3523
a(I31
I15
F0.5
S'elegant'
p3524
tp3525
a(I31
I26
F0.125
S'solid'
p3526
tp3527
a(I31
I27
F0.75
S'beautiful'
p3528
tp3529
a(I31
I28
F0.5
S'elegant'
p3530
tp3531
a(I35
I12
F-0.5
S'less'
p3532
tp3533
a(I38
I11
I0
S'great'
p3534
tp3535
a(I38
I11
F-0.75
S'little'
p3536
tp3537
a(I40
I0
F1.0
S'best'
p3538
tp3539
a(I40
I0
I0
S'electronic'
p3540
tp3541
a(I40
I4
I0
S'incredible'
p3542
tp3543
a(I40
I18
F0.25
S'powerful'
p3544
tp3545
a(I40
I18
F-0.625
S'sorry'
p3546
tp3547
a(I95
I22
F-0.25
S'embarrassing'
p3548
tp3549
a(I95
I27
F-0.125
S'directional'
p3550
tp3551
a(I95
I32
I0
S'electronic'
p3552
tp3553
a(I95
I35
F-0.125
S'directional'
p3554
tp3555
a(I103
I2
F0.125
S'electrical'
p3556
tp3557
a(I109
I2
I0
S'unnecessary'
p3558
tp3559
a(I137
I0
F0.125
S'impressive'
p3560
tp3561
a(I152
I4
I0
S'robotic'
p3562
tp3563
a(I153
I9
F0.625
S'easy'
p3564
tp3565
a(I165
I1
F0.625
S'easier'
p3566
tp3567
a(I169
I0
I0
S'great'
p3568
tp3569
a(I169
I2
F-0.5
S'heavy'
p3570
tp3571
a(I172
I11
I0
S'android'
p3572
tp3573
a(I172
I21
I0
S'only'
p3574
tp3575
a(I172
I23
I0
S'android'
p3576
tp3577
a(I177
I22
F1.0
S'better'
p3578
tp3579
a(I177
I22
F-0.625
S'other'
p3580
tp3581
a(I177
I23
I0
S'efficient'
p3582
tp3583
a(I185
I1
I0
S'old'
p3584
tp3585
as(S'call'
p3586
tp3587
(lp3588
(I29
I5
F-0.5
S'answer'
p3589
tp3590
a(I65
I0
F-0.625
g398
tp3591
a(I65
I1
F1.0
g400
tp3592
a(I88
I5
I0
S'such'
p3593
tp3594
a(I89
I77
I0
S'physical'
p3595
tp3596
a(I109
I15
F0.875
S'nice'
p3597
tp3598
a(I109
I15
F0.125
S'able'
p3599
tp3600
a(I155
I54
F-0.625
S'green'
p3601
tp3602
a(I155
I57
F-0.5
S'international'
p3603
tp3604
a(I163
I15
F-0.625
S'free'
p3605
tp3606
a(I179
I6
F1.0
g416
tp3607
as(S'casual'
p3608
S'game'
p3609
tp3610
(lp3611
(I32
I74
F-0.625
S'free'
p3612
tp3613
a(I32
I77
I0
S'cool'
p3614
tp3615
as(S'incoming'
p3616
S'callers'
p3617
tp3618
(lp3619
(I152
I10
F-0.5
S'poor'
p3620
tp3621
as(S'much'
p3622
S'better'
p3623
tp3624
(lp3625
(I9
I24
F0.375
g636
tp3626
a(I54
I1
F0.375
g638
tp3627
a(I74
I14
F0.375
g640
tp3628
a(I91
I9
F0.375
g642
tp3629
a(I107
I3
F0.75
g644
tp3630
a(I107
I3
F0.375
g646
tp3631
as(S'3rd'
p3632
S'party'
p3633
tp3634
(lp3635
(I98
I4
F-0.625
S'other'
p3636
tp3637
as(S'pinch'
p3638
S'to'
p3639
S'zoom'
p3640
tp3641
(lp3642
(I89
I10
I0
S'incredible'
p3643
tp3644
a(I170
I10
F0.5
S'awkward'
p3645
tp3646
as(S'apps'
p3647
tp3648
(lp3649
(I4
I19
F0.375
S'available'
p3650
tp3651
a(I5
I8
I0
S'android'
p3652
tp3653
a(I10
I11
F0.375
S'available'
p3654
tp3655
a(I11
I18
I0
S'useful'
p3656
tp3657
a(I14
I2
F-0.375
S'beast'
p3658
tp3659
a(I16
I10
I0
S'same'
p3660
tp3661
a(I17
I5
I0
g2297
tp3662
a(I18
I8
F-0.625
S'free'
p3663
tp3664
a(I19
I9
F-0.625
S'free'
p3665
tp3666
a(I25
I8
F-0.5
S'certain'
p3667
tp3668
a(I25
I10
I0
S'multiple'
p3669
tp3670
a(I25
I15
F-0.5
S'certain'
p3671
tp3672
a(I27
I10
F-0.625
S'free'
p3673
tp3674
a(I29
I14
I0
S'own'
p3675
tp3676
a(I30
I36
I0
S'android'
p3677
tp3678
a(I30
I38
I0
S'most'
p3679
tp3680
a(I30
I38
F-0.625
S'free'
p3681
tp3682
a(I32
I31
F0.125
S'popular'
p3683
tp3684
a(I32
I61
I0
S'own'
p3685
tp3686
a(I32
I61
I0
S'different'
p3687
tp3688
a(I35
I15
F0.375
S'new'
p3689
tp3690
a(I35
I15
F-0.625
S'free'
p3691
tp3692
a(I35
I16
F-0.625
S'free'
p3693
tp3694
a(I35
I27
F-0.625
S'free'
p3695
tp3696
a(I35
I30
F-0.625
S'free'
p3697
tp3698
a(I36
I21
F0.375
S'available'
p3699
tp3700
a(I38
I9
F0.625
S'easy'
p3701
tp3702
a(I40
I13
F0.375
S'available'
p3703
tp3704
a(I40
I15
I0
S'basic'
p3705
tp3706
a(I43
I16
F0.125
S'solid'
p3707
tp3708
a(I47
I0
I0
S'more'
p3709
tp3710
a(I49
I12
I0
S'great'
p3711
tp3712
a(I54
I6
I0
S'few'
p3713
tp3714
a(I60
I0
I0
S'great'
p3715
tp3716
a(I61
I6
I0
S'many'
p3717
tp3718
a(I66
I96
I0
S'many'
p3719
tp3720
a(I66
I96
F0.375
S'available'
p3721
tp3722
a(I66
I96
F-0.625
S'free'
p3723
tp3724
a(I66
I113
I0
S'android'
p3725
tp3726
a(I66
I113
F-0.25
S'google'
p3727
tp3728
a(I72
I8
F-0.625
S'free'
p3729
tp3730
a(I83
I44
F0.125
S'enough'
p3731
tp3732
a(I85
I19
I0
S'many'
p3733
tp3734
a(I87
I1
F1.0
S'good'
p3735
tp3736
a(I89
I18
I0
S'same'
p3737
tp3738
a(I89
I59
I0
S'specific'
p3739
tp3740
a(I89
I59
F0.375
S'available'
p3741
tp3742
a(I89
I63
I0
S'many'
p3743
tp3744
a(I92
I4
I0
S'many'
p3745
tp3746
a(I92
I4
F0.375
S'available'
p3747
tp3748
a(I94
I67
I0
S'android'
p3749
tp3750
a(I94
I126
F-0.625
S'other'
p3751
tp3752
a(I103
I4
I0
S'many'
p3753
tp3754
a(I105
I3
F0.625
S'acceptable'
p3755
tp3756
a(I110
I4
I0
S'many'
p3757
tp3758
a(I110
I4
F0.375
S'available'
p3759
tp3760
a(I111
I0
I0
S'most'
p3761
tp3762
a(I112
I9
F0.375
S'available'
p3763
tp3764
a(I115
I2
I0
S'great'
p3765
tp3766
a(I115
I2
F0.625
S'easy'
p3767
tp3768
a(I115
I2
I0
S'great'
p3769
tp3770
a(I127
I10
F-0.25
S'google'
p3771
tp3772
a(I129
I1
F-0.625
S'free'
p3773
tp3774
a(I130
I31
F-0.625
S'other'
p3775
tp3776
a(I130
I90
F1.0
S'good'
p3777
tp3778
a(I130
I90
F0.375
S'available'
p3779
tp3780
a(I130
I106
F-0.625
S'free'
p3781
tp3782
a(I130
I107
F0.375
S'available'
p3783
tp3784
a(I130
I107
I0
S'useful'
p3785
tp3786
a(I130
I117
F0.375
S'available'
p3787
tp3788
a(I132
I27
I0
S'more'
p3789
tp3790
a(I132
I27
F-0.125
S'elaborate'
p3791
tp3792
a(I135
I3
F0.25
S'favorite'
p3793
tp3794
a(I142
I76
I0
S'many'
p3795
tp3796
a(I142
I76
I0
S'many'
p3797
tp3798
a(I142
I76
I0
S'same'
p3799
tp3800
a(I142
I86
I0
S'great'
p3801
tp3802
a(I142
I87
F-0.625
S'free'
p3803
tp3804
a(I142
I88
F-0.75
g2299
tp3805
a(I142
I90
I0
S'many'
p3806
tp3807
a(I142
I160
F-0.375
S'smooth'
p3808
tp3809
a(I145
I3
F-0.625
S'other'
p3810
tp3811
a(I146
I6
I0
S'many'
p3812
tp3813
a(I146
I7
I0
S'many'
p3814
tp3815
a(I146
I7
I0
S'great'
p3816
tp3817
a(I155
I51
I0
S'few'
p3818
tp3819
a(I155
I51
F-0.625
S'other'
p3820
tp3821
a(I155
I53
F-0.625
S'bad'
p3822
tp3823
a(I156
I4
I0
S'great'
p3824
tp3825
a(I157
I20
I0
S'most'
p3826
tp3827
a(I157
I21
I0
S'useful'
p3828
tp3829
a(I157
I21
I0
S'useful'
p3830
tp3831
a(I157
I49
F0.125
g2301
tp3832
a(I157
I49
F0.25
g2303
tp3833
a(I157
I51
F-0.625
S'free'
p3834
tp3835
a(I161
I7
I0
S'many'
p3836
tp3837
a(I163
I6
F0.25
S'favorite'
p3838
tp3839
a(I163
I17
I0
S'many'
p3840
tp3841
a(I167
I5
I0
S'great'
p3842
tp3843
a(I167
I6
F-0.625
S'other'
p3844
tp3845
a(I167
I6
F-0.75
S'frivolous'
p3846
tp3847
a(I168
I3
F-0.625
S'free'
p3848
tp3849
a(I168
I3
F0.625
S'easy'
p3850
tp3851
a(I171
I2
I0
S'useful'
p3852
tp3853
a(I171
I2
I0
S'most'
p3854
tp3855
a(I176
I2
F-0.25
S'google'
p3856
tp3857
a(I176
I2
I0
S'android'
p3858
tp3859
a(I179
I8
I0
S'many'
p3860
tp3861
a(I185
I2
I0
S'closing'
p3862
tp3863
a(I185
I2
F-0.625
S'free'
p3864
tp3865
a(I186
I12
F-0.625
S'other'
p3866
tp3867
a(I186
I12
I0
S'most'
p3868
tp3869
a(I186
I19
I0
S'many'
p3870
tp3871
a(I192
I16
F0.375
S'similar'
p3872
tp3873
a(I192
I16
F0.375
S'available'
p3874
tp3875
a(I192
I28
F-0.25
S'google'
p3876
tp3877
a(I192
I28
I0
S'great'
p3878
tp3879
a(I197
I8
I0
S'many'
p3880
tp3881
a(I198
I7
I0
S'few'
p3882
tp3883
a(I198
I7
I0
S'great'
p3884
tp3885
a(I198
I7
F-0.625
S'free'
p3886
tp3887
a(I198
I10
I0
S'more'
p3888
tp3889
a(I198
I12
I0
S'few'
p3890
tp3891
a(I200
I15
F0.375
S'content'
p3892
tp3893
a(I200
I15
I0
S'such'
p3894
tp3895
as(S'calls'
p3896
tp3897
(lp3898
(I66
I15
F-0.5
S'open'
p3899
tp3900
a(I66
I50
I0
S'multiple'
p3901
tp3902
a(I66
I50
F-0.125
S'accidental'
p3903
tp3904
a(I68
I11
I0
S'domestic'
p3905
tp3906
a(I71
I0
F0.75
S'receive'
p3907
tp3908
a(I74
I12
F0.75
S'worth'
p3909
tp3910
a(I74
I12
F0.75
S'constant'
p3911
tp3912
a(I107
I32
F-0.25
S'dropped'
p3913
tp3914
a(I130
I95
F0.875
S'nice'
p3915
tp3916
a(I130
I95
F0.5
S'clear'
p3917
tp3918
a(I134
I35
I0
S'few'
p3919
tp3920
a(I157
I26
F0.5
S'strong'
p3921
tp3922
a(I157
I26
F0.5
S'clear'
p3923
tp3924
a(I157
I26
F0.375
S'much'
p3925
tp3926
a(I165
I9
F-0.5
S'international'
p3927
tp3928
a(I165
I21
F-0.625
S'average'
p3929
tp3930
a(I165
I21
F1.0
S'best'
p3931
tp3932
a(I186
I4
F-0.25
S'dropped'
p3933
tp3934
a(I189
I17
F-0.125
S'complex'
p3935
tp3936
a(I200
I19
F0.5
S'clear'
p3937
tp3938
as.