(dp0
(S'battery'
p1
S'life'
p2
tp3
(lp4
(I0
I20
F-0.5
S'poor'
p5
I1
tp6
a(I0
I20
F0.375
S'new'
p7
I1
tp8
a(I0
I61
F1.0
S'best'
p9
I1
tp10
a(I0
I68
F1.0
S'best'
p11
I1
tp12
a(I0
I120
F-0.5
S'poor'
p13
I1
tp14
a(I0
I182
F-0.75
S'short'
p15
I1
tp16
a(I2
I96
I0
S'same'
p17
I1
tp18
a(I3
I70
F0.375
S'much'
p19
I1
tp20
a(I3
I95
F-0.625
S'average'
p21
I1
tp22
a(I3
I420
F1.0
S'good'
p23
I1
tp24
a(I3
I428
F-0.25
S'battery'
p25
I1
tp26
a(I3
I450
I0
S'efficient'
p27
I1
tp28
a(I3
I450
I0
S'removal'
p29
I1
tp30
a(I3
I556
F-0.75
S'short'
p31
I1
tp32
a(I3
I601
I0
S'high'
p33
I1
tp34
a(I4
I19
I0
S'same'
p35
I1
tp36
a(I4
I19
F-0.25
S'low'
p37
I1
tp38
a(I5
I15
F0.625
S'fair'
p39
I1
tp40
a(I0
I18
I0
S'entire'
p41
I19
tp42
a(I0
I20
F-0.5
g5
I19
tp43
a(I0
I61
F1.0
g9
I19
tp44
a(I0
I68
F1.0
g11
I19
tp45
a(I0
I155
F-0.375
S'daily'
p46
I19
tp47
a(I0
I156
F0.625
S'easier'
p48
I19
tp49
a(I2
I96
I0
g17
I19
tp50
a(I3
I95
F-0.625
g21
I19
tp51
a(I3
I420
F1.0
g23
I19
tp52
a(I3
I428
F-0.25
g25
I19
tp53
a(I3
I450
I0
g29
I19
tp54
a(I3
I556
F-0.75
g31
I19
tp55
a(I3
I601
I0
g33
I19
tp56
a(I5
I15
F0.625
g39
I19
tp57
a(I0
I20
F0.375
g7
I15
tp58
a(I0
I120
F-0.5
g13
I15
tp59
a(I0
I122
I0
S'standard'
p60
I15
tp61
a(I0
I170
I0
S'own'
p62
I15
tp63
a(I0
I177
F-0.75
S'short'
p64
I15
tp65
a(I0
I182
F-0.75
g15
I15
tp66
a(I3
I50
I0
S'sprint'
p67
I15
tp68
a(I3
I70
F0.375
g19
I15
tp69
a(I3
I170
I0
S'standard'
p70
I15
tp71
a(I3
I170
F0.5
S'bought'
p72
I15
tp73
a(I3
I170
F0.375
S'new'
p74
I15
tp75
a(I3
I170
F-0.25
S'low'
p76
I15
tp77
a(I3
I191
I0
S'faster'
p78
I15
tp79
a(I3
I238
F0.125
S'last'
p80
I15
tp81
a(I3
I238
F-0.5
S'long'
p82
I15
tp83
a(I3
I254
F-0.375
S'red'
p84
I15
tp85
a(I3
I276
F-0.75
S'secondary'
p86
I15
tp87
a(I3
I425
F-0.625
S'free'
p88
I15
tp89
a(I3
I450
I0
g27
I15
tp90
a(I3
I550
F0.125
S'typical'
p91
I15
tp92
a(I4
I19
I0
g35
I15
tp93
a(I4
I19
F-0.25
g37
I15
tp94
a(I4
I20
F-0.25
S'low'
p95
I15
tp96
as(S'droid'
p97
tp98
(lp99
(I2
I68
F0.375
S'new'
p100
I0
tp101
a(I4
I24
F-0.75
S'hate'
p102
I0
tp103
as(S'texting'
p104
tp105
(lp106
(I4
I32
I0
S'high'
p107
I0
tp108
as(S'dial'
p109
S'pad'
p110
tp111
(lp112
(I3
I295
I0
S'dial'
p113
I0
tp114
a(I3
I545
I0
S'dial'
p115
I0
tp116
a(I3
I545
I0
S'full'
p117
I0
tp118
a(I3
I545
I0
S'dial'
p119
I0
tp120
as(S'text'
p121
tp122
(lp123
(I3
I212
F0.5
S'touch'
p124
I18
tp125
as(S'high'
p126
S'quality'
p127
tp128
(lp129
(I3
I62
I0
S'high'
p130
I12
tp131
a(I3
I63
I0
S'plastic'
p132
I12
tp133
a(I3
I63
I0
S'high'
p134
I12
tp135
a(I3
I67
F0.125
S'solid'
p136
I12
tp137
a(I3
I232
I0
S'high'
p138
I12
tp139
as(S'camera'
p140
tp141
(lp142
(I3
I371
F-0.125
S'slow'
p143
I1
tp144
a(I3
I492
F0.875
S'nice'
p145
I1
tp146
a(I3
I494
F1.0
S'good'
p147
I1
tp148
a(I5
I45
I0
S'great'
p149
I1
tp150
as(S'iphone'
p151
tp152
(lp153
(I0
I120
F0.625
S'fair'
p154
I1
tp155
a(I3
I71
F1.0
S'better'
p156
I1
tp157
a(I3
I81
I0
S'faster'
p158
I1
tp159
a(I3
I90
F0.5
S'possible'
p160
I1
tp161
a(I3
I93
I0
S'old'
p162
I1
tp163
a(I3
I270
I0
S'same'
p164
I1
tp165
a(I3
I541
F0.375
S'similar'
p166
I1
tp167
a(I3
I669
I0
S'many'
p168
I1
tp169
as(S'internet'
p170
tp171
(lp172
(I3
I320
F1.0
S'good'
p173
I6
tp174
a(I3
I363
F-0.125
S'minimum'
p175
I6
tp176
a(I3
I373
I0
S'limited'
p177
I6
tp178
a(I4
I32
I0
S'high'
p179
I6
tp180
as(S'hero'
p181
tp182
(lp183
(I3
I46
F0.875
S'happy'
p184
I0
tp185
as(S'full'
p186
S'qwerty'
p187
tp188
(lp189
(I0
I133
I0
S'full'
p190
I0
tp191
a(I3
I76
I0
S'full'
p192
I0
tp193
a(I3
I77
F-0.625
S'other'
p194
I0
tp195
a(I3
I77
I0
S'full'
p196
I0
tp197
a(I3
I79
I0
S'full'
p198
I0
tp199
a(I3
I245
I0
S'full'
p200
I0
tp201
as(S'operating'
p202
S'system'
p203
tp204
(lp205
(I3
I116
I0
S'third'
p206
I2
tp207
as(S'applications'
p208
tp209
(lp210
(I0
I65
F0.375
S'available'
p211
I3
tp212
a(I2
I54
F-0.5
S'open'
p213
I3
tp214
a(I3
I614
I0
S'more'
p215
I3
tp216
as(S'slide'
p217
S'out'
p218
S'keyboard'
p219
tp220
(lp221
(I0
I0
F1.0
S'good'
p222
I0
tp223
a(I0
I0
I0
S'horizontal'
p224
I0
tp225
a(I0
I0
I0
S'vertical'
p226
I0
tp227
a(I3
I540
F0.625
S'easier'
p228
I0
tp229
a(I0
I0
F1.0
g222
I2
tp230
a(I0
I0
I0
g224
I2
tp231
a(I0
I0
I0
g226
I2
tp232
a(I0
I51
F-0.5
S'open'
p233
I2
tp234
a(I1
I10
I0
S'great'
p235
I2
tp236
a(I1
I16
I0
S'full'
p237
I2
tp238
a(I1
I16
F0.625
S'easy'
p239
I2
tp240
a(I2
I93
I0
S'physical'
p241
I2
tp242
a(I3
I141
F0.375
S'available'
p243
I2
tp244
a(I3
I142
I0
S'real'
p245
I2
tp246
a(I3
I142
F0.625
S'easier'
p247
I2
tp248
a(I3
I244
F0.875
S'nice'
p249
I2
tp250
a(I3
I244
F0.625
S'easy'
p251
I2
tp252
a(I3
I280
I0
S'great'
p253
I2
tp254
a(I3
I303
I0
S'great'
p255
I2
tp256
a(I3
I540
F0.625
g228
I2
tp257
a(I3
I612
I0
S'great'
p258
I2
tp259
a(I5
I74
I0
S'full'
p260
I2
tp261
a(I5
I74
I0
S'physical'
p262
I2
tp263
as(S'network'
p264
tp265
(lp266
(I0
I79
I0
S'great'
p267
I0
tp268
a(I0
I117
I0
S'mobile'
p269
I0
tp270
a(I3
I96
F0.375
S'dependable'
p271
I0
tp272
a(I5
I4
F0.5
S'second'
p273
I0
tp274
a(I5
I4
I0
S'android'
p275
I0
tp276
a(I5
I6
I0
S'most'
p277
I0
tp278
a(I5
I7
F-0.625
S'free'
p279
I0
tp280
as(S'calls'
p281
tp282
(lp283
(I2
I72
F0.75
S'due'
p284
I0
tp285
a(I3
I361
I0
S'own'
p286
I0
tp287
a(I3
I563
I0
S'own'
p288
I0
tp289
a(I5
I60
I0
S'crystal'
p290
I0
tp291
a(I5
I60
F0.5
S'clear'
p292
I0
tp293
as(S'web'
p294
S'pages'
p295
tp296
(lp297
(I0
I64
F-0.875
S'bother'
p298
I0
tp299
as(S'music'
p300
tp301
(lp302
(I3
I397
F-0.5
S'sure'
p303
I0
tp304
a(I3
I397
F0.25
S'favorite'
p305
I0
tp306
as(S'blackberry'
p307
tp308
(lp309
(I3
I226
I0
S'thicker'
p310
I1
tp311
a(I3
I536
F0.125
S'first'
p312
I1
tp313
as(S'google'
p314
S'maps'
p315
tp316
(lp317
(I3
I304
F0.125
S'outside'
p318
I1
tp319
a(I0
I117
F0.375
S'complete'
p320
I4
tp321
a(I3
I304
F0.125
g318
I4
tp322
as(S'a'
p323
S'qwerty'
p324
S'keyboard'
p325
tp326
(lp327
(I0
I58
F0.125
S'able'
p328
I0
tp329
a(I0
I133
I0
g190
I0
tp330
a(I3
I76
I0
g192
I0
tp331
a(I3
I77
F-0.625
g194
I0
tp332
a(I3
I77
I0
g196
I0
tp333
a(I3
I79
I0
g198
I0
tp334
a(I3
I245
I0
g200
I0
tp335
a(I3
I540
F0.625
g228
I0
tp336
a(I0
I58
F0.125
g328
I0
tp337
a(I0
I133
I0
g190
I0
tp338
a(I3
I76
I0
g192
I0
tp339
a(I3
I77
F-0.625
g194
I0
tp340
a(I3
I77
I0
g196
I0
tp341
a(I3
I79
I0
g198
I0
tp342
a(I3
I245
I0
g200
I0
tp343
a(I3
I540
F0.625
g228
I0
tp344
a(I0
I58
F0.125
g328
I0
tp345
a(I0
I133
I0
g190
I0
tp346
a(I3
I73
F1.0
S'best'
p347
I0
tp348
a(I3
I76
I0
g192
I0
tp349
a(I3
I77
F-0.625
g194
I0
tp350
a(I3
I77
I0
g196
I0
tp351
a(I3
I79
I0
g198
I0
tp352
a(I3
I245
I0
g200
I0
tp353
a(I3
I328
F-0.5
S'long'
p354
I0
tp355
as(S'much'
p356
S'better'
p357
tp358
(lp359
(I3
I528
F0.375
S'much'
p360
I9
tp361
as(S'amazon'
p362
tp363
(lp364
(I3
I159
I-100
S'one-cent'
p365
I13
tp366
a(I3
I555
F0.5
S'told'
p367
I13
tp368
as(S'task'
p369
S'manager'
p370
tp371
(lp372
(I2
I55
F-0.625
S'free'
p373
I0
tp374
a(I2
I97
F-0.625
S'free'
p375
I0
tp376
a(I3
I602
F-0.375
S'simple'
p377
I0
tp378
as(S'samsung'
p379
S'moment'
p380
tp381
(lp382
(I3
I208
F-0.625
S'glad'
p383
I0
tp384
a(I3
I452
F0.375
S'available'
p385
I0
tp386
a(I5
I95
I0
S'later'
p387
I0
tp388
a(I0
I40
I0
S'more'
p389
I7
tp390
a(I0
I120
F-0.25
S'hang'
p391
I7
tp392
a(I0
I195
I0
S'own'
p393
I7
tp394
a(I2
I20
F-0.75
S'sadder'
p395
I7
tp396
a(I3
I452
F0.375
g385
I7
tp397
a(I3
I643
F0.375
S'new'
p398
I7
tp399
a(I5
I95
I0
g387
I7
tp400
a(I0
I21
I0
S'great'
p401
I2
tp402
a(I0
I76
I0
S'own'
p403
I2
tp404
a(I0
I129
F1.0
S'better'
p405
I2
tp406
a(I0
I134
F1.0
S'best'
p407
I2
tp408
a(I0
I137
F0.375
S'similar'
p409
I2
tp410
a(I0
I149
F0.875
S'music'
p411
I2
tp412
a(I0
I181
I0
S'particular'
p413
I2
tp414
a(I2
I12
I0
S'chose'
p415
I2
tp416
a(I3
I18
F0.625
S'easiest'
p417
I2
tp418
a(I3
I18
F0.25
S'responsive'
p419
I2
tp420
a(I3
I26
F1.0
S'best'
p421
I2
tp422
a(I3
I208
F-0.625
g383
I2
tp423
a(I3
I484
F-0.625
S'bad'
p424
I2
tp425
as(S'data'
p426
S'plan'
p427
tp428
(lp429
(I3
I128
F0.375
S'extra'
p430
I0
tp431
a(I0
I113
I0
S'internet'
p432
I13
tp433
a(I3
I505
F-0.5
S'unlimited'
p434
I13
tp435
as(S'customer'
p436
S'service'
p437
tp438
(lp439
(I3
I559
I0
S'such'
p440
I3
tp441
as(S'android'
p442
S'market'
p443
tp444
(lp445
(I0
I46
F0.625
S'easy'
p446
I0
tp447
a(I3
I205
I0
S'android'
p448
I0
tp449
a(I3
I242
I0
S'android'
p450
I0
tp451
a(I0
I46
F0.625
g446
I16
tp452
a(I3
I205
I0
g448
I16
tp453
a(I3
I242
I0
g450
I16
tp454
a(I0
I2
F-0.625
S'other'
p455
I0
tp456
a(I3
I30
F1.0
S'better'
p457
I0
tp458
a(I3
I82
F-0.625
S'other'
p459
I0
tp460
a(I3
I82
F0.75
S'classic'
p461
I0
tp462
a(I3
I85
F0.625
S'easy'
p463
I0
tp464
a(I3
I216
I0
S'many'
p465
I0
tp466
a(I3
I229
F0.125
S'native'
p467
I0
tp468
a(I3
I265
I0
S'different'
p469
I0
tp470
a(I3
I350
F0.375
S'new'
p471
I0
tp472
a(I3
I448
I0
S'mobile'
p473
I0
tp474
as(S'apps'
p475
tp476
(lp477
(I0
I25
I0
S'such'
p478
I0
tp479
a(I0
I66
I0
S'few'
p480
I0
tp481
a(I0
I77
I0
S'own'
p482
I0
tp483
a(I0
I157
F0.375
S'new'
p484
I0
tp485
a(I2
I13
I0
S'few'
p486
I0
tp487
a(I2
I13
I0
S'useful'
p488
I0
tp489
a(I2
I70
I0
S'cool'
p490
I0
tp491
a(I3
I87
I0
S'many'
p492
I0
tp493
a(I3
I88
F0.375
S'available'
p494
I0
tp495
a(I3
I145
I0
S'useful'
p496
I0
tp497
a(I3
I145
F0.375
S'available'
p498
I0
tp499
a(I3
I147
I0
S'many'
p500
I0
tp501
a(I3
I147
F-0.625
S'free'
p502
I0
tp503
a(I3
I170
F-0.625
S'other'
p504
I0
tp505
a(I3
I320
I0
S'great'
p506
I0
tp507
a(I3
I424
F-0.625
S'free'
p508
I0
tp509
a(I3
I549
F-0.625
S'free'
p510
I0
tp511
a(I3
I631
I0
S'many'
p512
I0
tp513
a(I3
I668
F0.375
S'available'
p514
I0
tp515
a(I3
I668
F0.375
S'available'
p516
I0
tp517
a(I3
I670
F1.0
S'best'
p518
I0
tp519
a(I3
I670
F0.375
S'new'
p520
I0
tp521
a(I3
I680
F0.375
S'available'
p522
I0
tp523
a(I5
I39
F0.125
S'able'
p524
I0
tp525
a(I5
I64
I0
S'own'
p526
I0
tp527
a(I5
I64
I0
S'many'
p528
I0
tp529
a(I5
I64
F-0.625
S'free'
p530
I0
tp531
a(I5
I69
I0
S'few'
p532
I0
tp533
a(I5
I69
F-0.625
S'free'
p534
I0
tp535
a(I5
I71
I0
S'few'
p536
I0
tp537
a(I5
I81
I0
S'opt'
p538
I0
tp539
a(I5
I104
I0
S'great'
p540
I0
tp541
as(S'sprint'
p542
S'service'
p543
tp544
(lp545
(I0
I75
F-0.875
S'worst'
p546
I0
tp547
a(I0
I158
F0.875
S'happy'
p548
I0
tp549
a(I1
I7
F0.375
S'available'
p550
I0
tp551
a(I3
I126
I0
S'utilized'
p552
I0
tp553
a(I3
I373
F1.0
S'good'
p554
I0
tp555
a(I3
I373
I0
S'most'
p556
I0
tp557
a(I3
I374
F0.125
S'digital'
p558
I0
tp559
a(I5
I3
F-0.25
S'lower'
p560
I0
tp561
a(I0
I44
I0
S'standard'
p562
I0
tp563
a(I0
I97
I0
S'website'
p564
I0
tp565
a(I0
I158
F0.875
g548
I0
tp566
a(I2
I84
I0
S'local'
p567
I0
tp568
a(I3
I17
I0
S'different'
p569
I0
tp570
a(I3
I108
F0.5
S'told'
p571
I0
tp572
a(I3
I126
I0
g552
I0
tp573
a(I3
I157
I0
S'useful'
p574
I0
tp575
a(I3
I514
F0.5
S'eligible'
p576
I0
tp577
a(I3
I621
F0.5
S'willing'
p578
I0
tp579
a(I3
I621
I-100
S'fix/replace'
p580
I0
tp581
a(I0
I75
F-0.875
g546
I16
tp582
a(I1
I7
F0.375
g550
I16
tp583
a(I3
I358
I0
S'most'
p584
I16
tp585
a(I3
I373
F1.0
g554
I16
tp586
a(I3
I373
I0
g556
I16
tp587
a(I3
I374
F0.125
g558
I16
tp588
a(I3
I397
F0.625
S'acceptable'
p589
I16
tp590
a(I5
I1
I0
S'more'
p591
I16
tp592
a(I5
I3
F-0.25
g560
I16
tp593
as(S'touch'
p594
S'screen'
p595
tp596
(lp597
(I0
I0
F0.5
S'touch'
p598
I2
tp599
a(I0
I0
F1.0
S'good'
p600
I2
tp601
a(I0
I72
F0.5
S'touch'
p602
I2
tp603
a(I0
I125
F-0.75
S'bright'
p604
I2
tp605
a(I0
I130
F0.25
S'responsive'
p606
I2
tp607
a(I1
I10
F0.5
S'touch'
p608
I2
tp609
a(I3
I70
F0.5
S'touch'
p610
I2
tp611
a(I3
I302
F0.875
S'nice'
p612
I2
tp613
a(I3
I365
F0.5
S'touch'
p614
I2
tp615
a(I3
I480
F0.5
S'touch'
p616
I2
tp617
a(I3
I482
F-0.625
S'light'
p618
I2
tp619
a(I4
I7
F0.5
S'touch'
p620
I2
tp621
a(I4
I38
F0.5
S'touch'
p622
I2
tp623
a(I4
I38
I0
S'more'
p624
I2
tp625
a(I5
I23
F0.5
S'touch'
p626
I2
tp627
a(I5
I24
F0.5
S'touch'
p628
I2
tp629
a(I5
I92
F0.5
S'touch'
p630
I2
tp631
as.