(dp0
(S'keyboard'
p1
tp2
(lp3
(I18
I13
F0.625
S'easier'
p4
I2
tp5
a(I23
I109
F-0.875
S'hard'
p6
I2
tp7
as(S'email'
p8
tp9
(lp10
(I10
I92
F1.0
S'good'
p11
I5
tp12
a(I19
I13
F0.875
S'important'
p13
I5
tp14
as(S'ring'
p15
S'tones'
p16
tp17
(lp18
(I1
I11
I0
S'more'
p19
I0
tp20
as(S'service'
p21
tp22
(lp23
(I4
I2
F1.0
S'good'
p24
I16
tp25
a(I4
I2
F0.25
S'helpful'
p26
I16
tp27
a(I11
I16
F-0.125
S'blackberry'
p28
I16
tp29
a(I11
I16
F-0.625
S'free'
p30
I16
tp31
a(I11
I17
F-0.625
S'free'
p32
I16
tp33
a(I23
I1
I0
S'great'
p34
I16
tp35
a(I23
I93
F-0.625
S'bad'
p36
I16
tp37
a(I24
I38
F-0.5
S'poor'
p38
I16
tp39
a(I24
I38
I0
S'great'
p40
I16
tp41
as(S'camera'
p42
tp43
(lp44
(I14
I13
F-0.125
S'slow'
p45
I1
tp46
a(I14
I13
F1.0
S'better'
p47
I1
tp48
a(I14
I13
F-0.25
S'object'
p49
I1
tp50
a(I15
I26
I0
S'great'
p51
I1
tp52
as(S'iphone'
p53
tp54
(lp55
(I3
I73
I-100
S'that-at'
p56
I1
tp57
a(I3
I77
F0.625
S'aware'
p58
I1
tp59
a(I10
I69
F-0.625
S'free'
p60
I1
tp61
a(I12
I19
I0
S'least'
p62
I1
tp63
a(I23
I19
F0.375
S'available'
p64
I1
tp65
as(S'a'
p66
S'touch'
p67
S'screen'
p68
tp69
(lp70
(I1
I43
F0.5
S'touch'
p71
I0
tp72
a(I1
I43
I0
S'big'
p73
I0
tp74
a(I6
I3
I0
S'different'
p75
I0
tp76
a(I14
I22
F-0.75
S'impossible'
p77
I0
tp78
a(I17
I4
F0.5
S'touch'
p79
I0
tp80
a(I21
I26
F0.5
S'touch'
p81
I0
tp82
a(I21
I28
F0.5
S'touch'
p83
I0
tp84
a(I23
I93
F0.5
S'touch'
p85
I0
tp86
a(I23
I117
I0
S'full'
p87
I0
tp88
a(I23
I124
F0.875
S'nice'
p89
I0
tp90
a(I23
I126
F0.5
S'touch'
p91
I0
tp92
a(I24
I28
F0.5
S'touch'
p93
I0
tp94
a(I24
I28
F0.5
S'touch'
p95
I0
tp96
a(I24
I46
I0
S'great'
p97
I0
tp98
a(I1
I43
F0.5
g71
I2
tp99
a(I1
I43
I0
g73
I2
tp100
a(I6
I3
I0
g75
I2
tp101
a(I14
I22
F-0.75
g77
I2
tp102
a(I17
I4
F0.5
g79
I2
tp103
a(I21
I26
F0.5
g81
I2
tp104
a(I21
I28
F0.5
g83
I2
tp105
a(I23
I93
F0.5
g85
I2
tp106
a(I23
I117
I0
g87
I2
tp107
a(I23
I124
F0.875
g89
I2
tp108
a(I23
I126
F0.5
g91
I2
tp109
a(I24
I28
F0.5
g93
I2
tp110
a(I24
I28
F0.5
g95
I2
tp111
a(I24
I46
I0
g97
I2
tp112
as(S'internet'
p113
tp114
(lp115
(I3
I29
F-0.75
S'painful'
p116
I6
tp117
a(I19
I34
I0
S'full'
p118
I6
tp119
as(S'button'
p120
tp121
(lp122
(I12
I13
F-0.375
S'top'
p123
I19
tp124
a(I12
I14
I0
S'only'
p125
I19
tp126
a(I12
I14
F-0.625
S'other'
p127
I19
tp128
a(I12
I14
F-0.375
S'top'
p129
I19
tp130
a(I15
I24
F-0.375
S'top'
p131
I19
tp132
a(I18
I63
I-100
S'mute/un-mute'
p133
I19
tp134
a(I18
I70
F0.5
S'touch'
p135
I19
tp136
a(I23
I28
F-0.375
S'top'
p137
I19
tp138
as(S'verizon'
p139
tp140
(lp141
(I10
I27
I0
S'old'
p142
I0
tp143
a(I12
I3
F-0.5
S'long'
p144
I0
tp145
a(I19
I15
F1.0
S'good'
p146
I0
tp147
a(I23
I83
I0
S'latest'
p148
I0
tp149
as(S'due'
p150
S'process'
p151
tp152
(lp153
(I24
I49
F0.75
S'due'
p154
I0
tp155
a(I24
I50
F0.75
S'due'
p156
I0
tp157
a(I24
I51
F0.75
S'due'
p158
I0
tp159
a(I24
I52
F0.75
S'due'
p160
I0
tp161
a(I24
I53
F0.75
S'due'
p162
I0
tp163
as(S'confirm'
p164
S'everything'
p165
tp166
(lp167
(I24
I49
F-0.875
S'worst'
p168
I0
tp169
a(I24
I50
F-0.875
S'worst'
p170
I0
tp171
a(I24
I51
F-0.875
S'worst'
p172
I0
tp173
a(I24
I52
F-0.875
S'worst'
p174
I0
tp175
a(I24
I53
F-0.875
S'worst'
p176
I0
tp177
as(S'battery'
p178
tp179
(lp180
(I9
I20
I0
S'entire'
p181
I15
tp182
a(I13
I31
I0
S'more'
p183
I15
tp184
a(I13
I33
F1.0
S'better'
p185
I15
tp186
a(I19
I13
F-0.5
S'poor'
p187
I15
tp188
a(I23
I48
I0
S'least'
p189
I15
tp190
a(I23
I90
F-0.75
S'dead'
p191
I15
tp192
a(I23
I90
F0.375
S'new'
p193
I15
tp194
a(I25
I20
F0.375
S'new'
p195
I15
tp196
as(S'answer'
p197
S'me'
p198
S'anything'
p199
tp200
(lp201
(I24
I48
F-0.5
S'answer'
p202
I0
tp203
a(I24
I49
F-0.5
S'answer'
p204
I0
tp205
a(I24
I50
F-0.5
S'answer'
p206
I0
tp207
a(I24
I51
F-0.5
S'answer'
p208
I0
tp209
a(I24
I52
F-0.5
S'answer'
p210
I0
tp211
as(S'buttons'
p212
tp213
(lp214
(I16
I17
F-0.25
S'hang'
p215
I13
tp216
a(I19
I35
I0
S'physical'
p217
I13
tp218
a(I21
I5
F-0.5
S'actual'
p219
I13
tp220
a(I21
I18
F-0.375
S'top'
p221
I13
tp222
as(S'calls'
p223
tp224
(lp225
(I9
I4
F0.5
S'clear'
p226
I0
tp227
a(I9
I24
F-0.5
S'answer'
p228
I0
tp229
a(I14
I7
I0
S'more'
p230
I0
tp231
a(I19
I45
F-0.75
S'unable'
p232
I0
tp233
as(S'old'
p234
S'sent'
p235
tp236
(lp237
(I24
I48
F0.375
S'new'
p238
I0
tp239
a(I24
I48
I0
S'old'
p240
I0
tp241
a(I24
I49
F0.375
S'new'
p242
I0
tp243
a(I24
I49
I0
S'old'
p244
I0
tp245
a(I24
I50
F0.375
S'new'
p246
I0
tp247
a(I24
I50
I0
S'old'
p248
I0
tp249
a(I24
I51
F0.375
S'new'
p250
I0
tp251
a(I24
I51
I0
S'old'
p252
I0
tp253
a(I24
I52
F0.375
S'new'
p254
I0
tp255
a(I24
I52
I0
S'old'
p256
I0
tp257
as(S'music'
p258
tp259
(lp260
(I1
I10
I0
S'own'
p261
I0
tp262
a(I16
I1
F0.125
S'able'
p263
I0
tp264
as(S'blackberry'
p265
S'storm'
p266
tp267
(lp268
(I10
I90
F0.625
S'perfect'
p269
I0
tp270
a(I10
I135
F-0.75
S'stupid'
p271
I0
tp272
a(I15
I2
F-0.75
S'comfortable'
p273
I0
tp274
a(I19
I27
I0
S'great'
p275
I0
tp276
a(I19
I55
F0.375
S'new'
p277
I0
tp278
a(I23
I63
F-0.75
S'sad'
p279
I0
tp280
a(I1
I43
I0
S'only'
p281
I0
tp282
a(I10
I90
F0.625
g269
I0
tp283
a(I10
I115
F0.25
S'effective'
p284
I0
tp285
a(I10
I135
F-0.75
g271
I0
tp286
a(I10
I169
F-0.75
S'impossible'
p287
I0
tp288
a(I16
I1
I0
S'most'
p289
I0
tp290
a(I18
I9
I0
S'unfair'
p291
I0
tp292
a(I19
I9
I0
S'great'
p293
I0
tp294
a(I19
I27
I0
g275
I0
tp295
a(I19
I31
F-0.125
S'slow'
p296
I0
tp297
a(I19
I42
F0.125
S'first'
p298
I0
tp299
a(I19
I42
F-0.625
S'bad'
p300
I0
tp301
a(I23
I31
F0.375
S'new'
p302
I0
tp303
a(I23
I31
I0
S'great'
p304
I0
tp305
a(I23
I111
F-0.5
S'less'
p306
I0
tp307
a(I24
I0
F0.375
S'new'
p308
I0
tp309
a(I3
I25
F-0.625
S'other'
p310
I1
tp311
a(I3
I30
F-0.625
S'other'
p312
I1
tp313
a(I10
I99
F0.375
S'reliable'
p314
I1
tp315
a(I10
I133
F-0.625
S'unfamiliar'
p316
I1
tp317
a(I10
I170
F0.5
S'inaccessible'
p318
I1
tp319
a(I12
I29
I0
S'basic'
p320
I1
tp321
a(I15
I2
F-0.75
g273
I1
tp322
a(I17
I4
I0
S'next'
p323
I1
tp324
a(I19
I55
F0.375
g277
I1
tp325
a(I21
I51
F0.5
S'second'
p326
I1
tp327
a(I23
I15
F0.125
S'first'
p328
I1
tp329
a(I23
I63
F-0.75
g279
I1
tp330
as(S'amazon'
p331
tp332
(lp333
(I8
I13
F-0.25
S'disappointed'
p334
I13
tp335
a(I8
I13
I0
S'such'
p336
I13
tp337
a(I11
I3
F0.125
S'last'
p338
I13
tp339
a(I16
I0
F0.5
S'true'
p340
I13
tp341
a(I16
I0
F-0.625
S'regretful'
p342
I13
tp343
a(I16
I23
F1.0
S'good'
p344
I13
tp345
a(I16
I23
F0.5
S'buy'
p346
I13
tp347
a(I26
I0
F0.125
S'amazon'
p348
I13
tp349
as(S'anything'
p350
S'about'
p351
S'order'
p352
tp353
(lp354
(I24
I48
F-0.5
g202
I0
tp355
a(I24
I49
F-0.5
g204
I0
tp356
a(I24
I50
F-0.5
g206
I0
tp357
a(I24
I51
F-0.5
g208
I0
tp358
a(I24
I52
F-0.5
g210
I0
tp359
as.