(dp0
(S'memory'
p1
S'card'
p2
tp3
(lp4
(I1
I450
F0.125
S'first'
p5
I0
tp6
a(I1
I450
I0
S'own'
p7
I0
tp8
as(S'battery'
p9
S'life'
p10
tp11
(lp12
(I1
I199
F-0.75
S'short'
p13
I1
tp14
a(I1
I267
F-0.5
S'complaint'
p15
I1
tp16
a(I1
I267
I0
S'great'
p17
I1
tp18
a(I1
I293
F-0.25
S'disappointing'
p19
I1
tp20
a(I1
I300
F1.0
S'better'
p21
I1
tp22
a(I1
I308
F0.125
S'impressive'
p23
I1
tp24
a(I1
I350
F1.0
S'good'
p25
I1
tp26
a(I1
I374
F0.625
S'decent'
p27
I1
tp28
a(I1
I433
I0
S'great'
p29
I1
tp30
a(I1
I443
F-0.625
S'bad'
p31
I1
tp32
a(I1
I444
F0.375
S'extended'
p33
I1
tp34
a(I1
I568
F0.625
S'decent'
p35
I1
tp36
a(I1
I648
F-0.375
S'conserve'
p37
I1
tp38
a(I1
I721
F1.0
S'good'
p39
I1
tp40
a(I1
I746
F0.375
S'extended'
p41
I1
tp42
a(I2
I16
F0.375
S'new'
p43
I1
tp44
a(I3
I61
F-0.625
S'unpredictable'
p45
I1
tp46
a(I3
I147
F-0.75
S'short'
p47
I1
tp48
a(I1
I171
F1.0
S'best'
p49
I19
tp50
a(I1
I267
I0
g17
I19
tp51
a(I1
I300
F1.0
g21
I19
tp52
a(I1
I308
F0.125
g23
I19
tp53
a(I1
I350
F1.0
g25
I19
tp54
a(I1
I374
F0.625
g27
I19
tp55
a(I1
I433
I0
g29
I19
tp56
a(I1
I443
F-0.625
g31
I19
tp57
a(I1
I444
F0.375
g33
I19
tp58
a(I1
I568
F0.625
g35
I19
tp59
a(I1
I721
F1.0
g39
I19
tp60
a(I3
I61
F-0.625
g45
I19
tp61
a(I3
I126
F0.625
S'easier'
p62
I19
tp63
a(I4
I87
F-0.75
S'short'
p64
I19
tp65
a(I0
I8
I0
S'fastest'
p66
I15
tp67
a(I1
I199
F-0.75
g13
I15
tp68
a(I1
I267
F-0.5
g15
I15
tp69
a(I1
I293
F-0.25
g19
I15
tp70
a(I1
I398
I0
S'full'
p71
I15
tp72
a(I1
I648
F-0.375
g37
I15
tp73
a(I1
I746
F0.375
g41
I15
tp74
a(I1
I825
F0.125
S'last'
p75
I15
tp76
a(I1
I830
I0
S'charged'
p77
I15
tp78
a(I2
I16
F0.375
g43
I15
tp79
a(I3
I89
F0.125
S'first'
p80
I15
tp81
a(I3
I147
F-0.75
g47
I15
tp82
a(I4
I3
F-0.75
S'dead'
p83
I15
tp84
as(S'text'
p85
tp86
(lp87
(I3
I42
F-0.5
S'open'
p88
I18
tp89
a(I3
I42
F0.375
S'new'
p90
I18
tp91
a(I3
I139
F-0.5
S'regular'
p92
I18
tp93
as(S'service'
p94
tp95
(lp96
(I1
I89
I0
S'old'
p97
I16
tp98
a(I1
I89
F-0.625
S'free'
p99
I16
tp100
a(I1
I105
F-0.5
S'sure'
p101
I16
tp102
a(I1
I105
I0
S'internet'
p103
I16
tp104
a(I1
I110
I0
S'old'
p105
I16
tp106
a(I1
I110
F0.125
S'enough'
p107
I16
tp108
a(I1
I110
F-0.5
S'rosemary'
p109
I16
tp110
a(I1
I822
F0.5
S'clear'
p111
I16
tp112
a(I1
I822
I0
S'internet'
p113
I16
tp114
a(I1
I822
I0
S'optional'
p115
I16
tp116
a(I1
I824
F0.375
S'much'
p117
I16
tp118
a(I3
I180
I0
S'great'
p119
I16
tp120
as(S'camera'
p121
tp122
(lp123
(I0
I6
I0
S'real'
p124
I1
tp125
a(I1
I205
I0
S'great'
p126
I1
tp127
a(I1
I387
I0
S'great'
p128
I1
tp129
a(I1
I388
F0.25
S'helpful'
p130
I1
tp131
a(I1
I698
F0.875
S'nice'
p132
I1
tp133
as(S'and'
p134
S'touch'
p135
S'screen'
p136
tp137
(lp138
(I0
I14
F0.5
S'touch'
p139
I0
tp140
a(I1
I34
I0
S'sensitive'
p141
I0
tp142
a(I1
I69
F0.5
S'touch'
p143
I0
tp144
a(I1
I128
F0.5
S'touch'
p145
I0
tp146
a(I1
I128
F0.625
S'easy'
p147
I0
tp148
a(I1
I216
F0.5
S'touch'
p149
I0
tp150
a(I1
I223
F0.5
S'touch'
p151
I0
tp152
a(I1
I276
F0.875
S'nice'
p153
I0
tp154
a(I1
I390
F0.5
S'touch'
p155
I0
tp156
a(I1
I417
I0
S'external'
p157
I0
tp158
a(I1
I417
F0.625
S'easy'
p159
I0
tp160
a(I1
I494
I0
S'great'
p161
I0
tp162
a(I1
I522
F0.625
S'easy'
p163
I0
tp164
a(I1
I524
I0
S'large'
p165
I0
tp166
a(I1
I547
F0.375
S'much'
p167
I0
tp168
a(I1
I547
F0.5
S'touch'
p169
I0
tp170
a(I1
I551
F0.5
S'touch'
p171
I0
tp172
a(I1
I606
I0
S'sensitive'
p173
I0
tp174
a(I1
I631
F1.0
S'good'
p175
I0
tp176
a(I1
I631
F0.5
S'accurate'
p177
I0
tp178
a(I1
I711
I0
S'user'
p179
I0
tp180
a(I1
I711
I0
S'great'
p181
I0
tp182
a(I1
I713
F0.5
S'touch'
p183
I0
tp184
a(I1
I746
I0
S'sensitive'
p185
I0
tp186
a(I2
I117
F0.5
S'touch'
p187
I0
tp188
a(I3
I35
I0
S'external'
p189
I0
tp190
a(I3
I35
F0.375
S'similar'
p191
I0
tp192
a(I3
I72
F0.75
S'worth'
p193
I0
tp194
a(I3
I154
I0
S'external'
p195
I0
tp196
a(I3
I154
I0
S'internal'
p197
I0
tp198
a(I4
I8
F-0.25
S'overly'
p199
I0
tp200
a(I4
I8
I0
S'sensitive'
p201
I0
tp202
a(I4
I68
F0.5
S'touch'
p203
I0
tp204
a(I4
I68
F0.5
S'touch'
p205
I0
tp206
as(S'qwerty'
p207
S'keyboard'
p208
tp209
(lp210
(I0
I2
F0.25
S'familiar'
p211
I0
tp212
a(I1
I69
I0
S'sized'
p213
I0
tp214
a(I1
I438
F0.625
S'easier'
p215
I0
tp216
a(I1
I636
I0
S'real'
p217
I0
tp218
a(I1
I689
F-0.5
S'regular'
p219
I0
tp220
a(I1
I689
F-0.375
S'manual'
p221
I0
tp222
a(I0
I2
F0.25
g211
I0
tp223
a(I1
I69
I0
g213
I0
tp224
a(I1
I205
F-0.875
S'hard'
p225
I0
tp226
a(I1
I513
I0
S'real'
p227
I0
tp228
a(I1
I636
I0
g217
I0
tp229
a(I1
I688
F0.75
S'receive'
p230
I0
tp231
a(I1
I688
I0
S'full'
p232
I0
tp233
a(I1
I689
F-0.5
g219
I0
tp234
a(I1
I689
F-0.375
g221
I0
tp235
a(I3
I37
I0
S'physical'
p236
I0
tp237
a(I3
I46
I0
S'internal'
p238
I0
tp239
a(I4
I68
I0
S'most'
p240
I0
tp241
a(I4
I71
F-0.875
S'hard'
p242
I0
tp243
a(I4
I74
F-0.875
S'hard'
p244
I0
tp245
a(I1
I18
I0
S'full'
p246
I2
tp247
a(I1
I64
I0
S'full'
p248
I2
tp249
a(I1
I64
I0
S'great'
p250
I2
tp251
a(I1
I120
F-0.5
S'regular'
p252
I2
tp253
a(I1
I223
I0
S'physical'
p254
I2
tp255
a(I1
I349
I0
S'great'
p256
I2
tp257
a(I1
I356
I0
S'physical'
p258
I2
tp259
a(I1
I356
I0
S'such'
p260
I2
tp261
a(I1
I359
F0.5
S'elegant'
p262
I2
tp263
a(I1
I376
F0.625
S'perfect'
p264
I2
tp265
a(I1
I438
F0.625
g215
I2
tp266
a(I1
I497
I0
S'physical'
p267
I2
tp268
a(I1
I497
I0
S'great'
p269
I2
tp270
a(I1
I521
F-0.875
S'hard'
p271
I2
tp272
a(I1
I565
I0
S'internal'
p273
I2
tp274
a(I1
I573
I0
S'internal'
p275
I2
tp276
a(I1
I743
F0.625
S'easy'
p277
I2
tp278
a(I2
I68
I0
S'physical'
p279
I2
tp280
a(I2
I75
I0
S'physical'
p281
I2
tp282
a(I2
I99
F0.375
S'much'
p283
I2
tp284
a(I2
I99
I0
S'real'
p285
I2
tp286
a(I2
I117
I0
S'full'
p287
I2
tp288
a(I2
I122
F0.5
S'touch'
p289
I2
tp290
a(I2
I122
I0
S'full'
p291
I2
tp292
a(I3
I72
I0
S'physical'
p293
I2
tp294
a(I3
I151
F-0.5
S'open'
p295
I2
tp296
a(I4
I16
I0
S'sensitive'
p297
I2
tp298
a(I4
I69
F0.25
S'detachable'
p299
I2
tp300
as(S'iphone'
p301
tp302
(lp303
(I1
I94
I0
S'cool'
p304
I1
tp305
a(I1
I305
I0
S'great'
p306
I1
tp307
a(I1
I547
F0.5
S'true'
p308
I1
tp309
a(I2
I66
F-0.625
S'other'
p310
I1
tp311
as(S'a'
p312
S'touch'
p313
S'screen'
p314
tp315
(lp316
(I0
I4
F-0.5
S'long'
p317
I0
tp318
a(I0
I14
F0.5
g139
I0
tp319
a(I0
I44
F0.5
S'touch'
p320
I0
tp321
a(I1
I34
I0
g141
I0
tp322
a(I1
I69
F0.5
g143
I0
tp323
a(I1
I128
F0.5
g145
I0
tp324
a(I1
I128
F0.625
g147
I0
tp325
a(I1
I216
F0.5
g149
I0
tp326
a(I1
I223
F0.5
g151
I0
tp327
a(I1
I232
F-0.625
S'bad'
p328
I0
tp329
a(I1
I264
F0.5
S'touch'
p330
I0
tp331
a(I1
I276
F0.875
g153
I0
tp332
a(I1
I277
F1.0
S'better'
p333
I0
tp334
a(I1
I369
F0.5
S'touch'
p335
I0
tp336
a(I1
I390
F0.5
g155
I0
tp337
a(I1
I417
I0
g157
I0
tp338
a(I1
I417
F0.625
g159
I0
tp339
a(I1
I494
I0
g161
I0
tp340
a(I1
I510
F0.5
S'touch'
p341
I0
tp342
a(I1
I522
F0.625
g163
I0
tp343
a(I1
I524
I0
g165
I0
tp344
a(I1
I547
F0.375
g167
I0
tp345
a(I1
I547
F0.5
g169
I0
tp346
a(I1
I551
F0.5
g171
I0
tp347
a(I1
I606
I0
g173
I0
tp348
a(I1
I631
F1.0
g175
I0
tp349
a(I1
I631
F0.5
g177
I0
tp350
a(I1
I690
F0.375
S'much'
p351
I0
tp352
a(I1
I690
F0.5
S'touch'
p353
I0
tp354
a(I1
I711
I0
g179
I0
tp355
a(I1
I711
I0
g181
I0
tp356
a(I1
I713
F0.5
g183
I0
tp357
a(I1
I746
I0
g185
I0
tp358
a(I2
I37
I0
S'funny'
p359
I0
tp360
a(I2
I75
I0
S'external'
p361
I0
tp362
a(I2
I117
F0.5
g187
I0
tp363
a(I2
I118
I0
S'text'
p364
I0
tp365
a(I2
I118
F0.5
S'touch'
p366
I0
tp367
a(I2
I129
F0.5
S'touch'
p368
I0
tp369
a(I3
I35
I0
g189
I0
tp370
a(I3
I35
F0.375
g191
I0
tp371
a(I3
I72
F0.75
g193
I0
tp372
a(I3
I154
I0
g195
I0
tp373
a(I3
I154
I0
g197
I0
tp374
a(I4
I8
F-0.25
g199
I0
tp375
a(I4
I8
I0
g201
I0
tp376
a(I4
I29
F0.5
S'touch'
p377
I0
tp378
a(I4
I38
F0.5
S'touch'
p379
I0
tp380
a(I4
I68
F0.5
g203
I0
tp381
a(I4
I68
F0.5
g205
I0
tp382
a(I4
I71
I0
S'earlier'
p383
I0
tp384
a(I4
I71
F0.5
S'touch'
p385
I0
tp386
a(I4
I71
I0
S'external'
p387
I0
tp388
a(I4
I74
F1.0
S'good'
p389
I0
tp390
as(S'internet'
p391
tp392
(lp393
(I1
I357
F-0.5
S'open'
p394
I6
tp395
a(I1
I808
I0
S'big'
p396
I6
tp397
a(I1
I808
I0
S'large'
p398
I6
tp399
as(S'screens'
p400
tp401
(lp402
(I0
I50
F0.5
S'clear'
p403
I9
tp404
a(I0
I50
F0.25
S'sharp'
p405
I9
tp406
a(I1
I307
F0.5
S'clear'
p407
I9
tp408
a(I1
I675
F-0.375
S'black'
p409
I9
tp410
a(I3
I158
I0
S'normal'
p411
I9
tp412
a(I4
I21
F1.0
S'good'
p413
I9
tp414
as(S'verizon'
p415
tp416
(lp417
(I1
I499
F-0.625
S'other'
p418
I0
tp419
a(I1
I516
I0
S'few'
p420
I0
tp421
a(I1
I548
I0
S'closest'
p422
I0
tp423
a(I3
I30
F-0.75
S'wrong'
p424
I0
tp425
as(S'calls'
p426
tp427
(lp428
(I1
I66
F-0.25
S'dropped'
p429
I0
tp430
a(I1
I326
I0
S'close'
p431
I0
tp432
a(I1
I535
F0.625
S'convenient'
p433
I0
tp434
a(I1
I535
F0.875
S'music'
p435
I0
tp436
a(I3
I82
F0.875
S'important'
p437
I0
tp438
as(S'use'
p439
S'touch'
p440
S'screen'
p441
tp442
(lp443
(I0
I4
F-0.5
g317
I0
tp444
a(I1
I417
I0
g157
I0
tp445
a(I1
I417
F0.625
g159
I0
tp446
a(I1
I510
F0.5
g341
I0
tp447
a(I1
I522
F0.625
g163
I0
tp448
a(I1
I606
I0
g173
I0
tp449
a(I1
I711
I0
g179
I0
tp450
a(I1
I711
I0
g181
I0
tp451
a(I1
I746
I0
g185
I0
tp452
a(I2
I75
I0
g361
I0
tp453
a(I2
I129
F0.5
g368
I0
tp454
a(I3
I72
F0.75
g193
I0
tp455
a(I3
I154
I0
g195
I0
tp456
a(I3
I154
I0
g197
I0
tp457
a(I4
I68
F0.5
g203
I0
tp458
a(I4
I68
F0.5
g205
I0
tp459
a(I0
I4
F-0.5
g317
I2
tp460
a(I0
I14
F0.5
g139
I2
tp461
a(I0
I44
F0.5
g320
I2
tp462
a(I1
I34
I0
g141
I2
tp463
a(I1
I69
F0.5
g143
I2
tp464
a(I1
I128
F0.5
g145
I2
tp465
a(I1
I128
F0.625
g147
I2
tp466
a(I1
I216
F0.5
g149
I2
tp467
a(I1
I223
F0.5
g151
I2
tp468
a(I1
I232
F-0.625
g328
I2
tp469
a(I1
I264
F0.5
g330
I2
tp470
a(I1
I276
F0.875
g153
I2
tp471
a(I1
I277
F1.0
g333
I2
tp472
a(I1
I369
F0.5
g335
I2
tp473
a(I1
I390
F0.5
g155
I2
tp474
a(I1
I417
I0
g157
I2
tp475
a(I1
I417
F0.625
g159
I2
tp476
a(I1
I494
I0
g161
I2
tp477
a(I1
I510
F0.5
g341
I2
tp478
a(I1
I522
F0.625
g163
I2
tp479
a(I1
I524
I0
g165
I2
tp480
a(I1
I547
F0.375
g167
I2
tp481
a(I1
I547
F0.5
g169
I2
tp482
a(I1
I551
F0.5
g171
I2
tp483
a(I1
I606
I0
g173
I2
tp484
a(I1
I631
F1.0
g175
I2
tp485
a(I1
I631
F0.5
g177
I2
tp486
a(I1
I690
F0.375
g351
I2
tp487
a(I1
I690
F0.5
g353
I2
tp488
a(I1
I711
I0
g179
I2
tp489
a(I1
I711
I0
g181
I2
tp490
a(I1
I713
F0.5
g183
I2
tp491
a(I1
I746
I0
g185
I2
tp492
a(I2
I37
I0
g359
I2
tp493
a(I2
I75
I0
g361
I2
tp494
a(I2
I117
F0.5
g187
I2
tp495
a(I2
I118
I0
g364
I2
tp496
a(I2
I118
F0.5
g366
I2
tp497
a(I2
I129
F0.5
g368
I2
tp498
a(I3
I35
I0
g189
I2
tp499
a(I3
I35
F0.375
g191
I2
tp500
a(I3
I72
F0.75
g193
I2
tp501
a(I3
I154
I0
g195
I2
tp502
a(I3
I154
I0
g197
I2
tp503
a(I4
I8
F-0.25
g199
I2
tp504
a(I4
I8
I0
g201
I2
tp505
a(I4
I29
F0.5
g377
I2
tp506
a(I4
I38
F0.5
g379
I2
tp507
a(I4
I68
F0.5
g203
I2
tp508
a(I4
I68
F0.5
g205
I2
tp509
a(I4
I71
I0
g383
I2
tp510
a(I4
I71
F0.5
g385
I2
tp511
a(I4
I71
I0
g387
I2
tp512
a(I4
I74
F1.0
g389
I2
tp513
as(S'lg'
p514
S'dare'
p515
tp516
(lp517
(I1
I288
I0
S'slower'
p518
I0
tp519
a(I1
I505
F-0.625
S'glad'
p520
I0
tp521
a(I1
I505
F-0.625
g520
I0
tp522
a(I3
I65
I0
S'more'
p523
I0
tp524
a(I3
I141
I0
S'great'
p525
I0
tp526
as(S'music'
p527
tp528
(lp529
(I1
I205
I0
S'great'
p530
I0
tp531
a(I1
I811
F-0.75
S'difficult'
p532
I0
tp533
as(S'env'
p534
S'touch'
p535
tp536
(lp537
(I1
I73
F0.375
S'similar'
p538
I0
tp539
a(I1
I276
F0.875
g153
I0
tp540
a(I1
I277
F1.0
g333
I0
tp541
a(I1
I280
F-0.875
S'inferior'
p542
I0
tp543
a(I1
I299
F-0.75
S'worse'
p544
I0
tp545
a(I1
I478
F-0.625
S'other'
p546
I0
tp547
a(I1
I639
I0
S'same'
p548
I0
tp549
a(I1
I751
F-0.125
S'overall'
p550
I0
tp551
a(I1
I807
I0
S'big'
p552
I0
tp553
a(I3
I72
F0.75
g193
I0
tp554
as(g312
S'data'
p555
S'plan'
p556
tp557
(lp558
(I1
I20
F0.5
S'expensive'
p559
I0
tp560
a(I1
I529
F0.5
S'desirable'
p561
I0
tp562
a(I1
I725
F0.625
S'convenient'
p563
I0
tp564
a(I2
I64
F-0.5
S'less'
p565
I0
tp566
a(I2
I76
I0
S'monthly'
p567
I0
tp568
a(I2
I81
I0
S'monthly'
p569
I0
tp570
a(I3
I165
I0
S'current'
p571
I0
tp572
a(I1
I20
F0.5
g559
I0
tp573
a(I1
I529
F0.5
g561
I0
tp574
a(I1
I725
F0.625
g563
I0
tp575
a(I2
I64
F-0.5
g565
I0
tp576
a(I2
I76
I0
g567
I0
tp577
a(I2
I81
I0
g569
I0
tp578
a(I3
I165
I0
g571
I0
tp579
a(I1
I20
F0.5
g559
I13
tp580
a(I1
I275
I0
S'more'
p581
I13
tp582
a(I1
I292
F-0.625
S'other'
p583
I13
tp584
a(I2
I76
I0
g567
I13
tp585
a(I2
I81
I0
g569
I13
tp586
a(I3
I165
I0
g571
I13
tp587
as(S'pocket'
p588
tp589
(lp590
(I1
I570
F0.375
S'much'
p591
I17
tp592
as(S'external'
p593
S'screen'
p594
tp595
(lp596
(I1
I417
F0.625
g159
I0
tp597
a(I1
I572
I0
S'external'
p598
I0
tp599
a(I1
I585
I0
S'external'
p600
I0
tp601
a(I1
I585
F-0.75
S'unresponsive'
p602
I0
tp603
a(I1
I585
F-0.625
S'inaccurate'
p604
I0
tp605
a(I1
I597
I0
S'external'
p606
I0
tp607
a(I1
I707
I0
S'internal'
p608
I0
tp609
a(I1
I707
I0
S'external'
p610
I0
tp611
a(I3
I35
I0
g189
I0
tp612
a(I3
I35
F0.375
g191
I0
tp613
a(I3
I150
I0
S'external'
p614
I0
tp615
a(I3
I150
F-0.375
S'black'
p616
I0
tp617
a(I3
I154
I0
g197
I0
tp618
a(I3
I155
I0
S'external'
p619
I0
tp620
a(I3
I155
I0
S'same'
p621
I0
tp622
a(I4
I71
I0
g383
I0
tp623
a(I4
I71
F0.5
g385
I0
tp624
a(I4
I71
I0
g387
I0
tp625
as(S'texts'
p626
tp627
(lp628
(I1
I463
I-100
S'non-sensical'
p629
I0
tp630
a(I3
I41
F0.625
S'easier'
p631
I0
tp632
a(I3
I101
I0
S'dial'
p633
I0
tp634
as(S'texting'
p635
tp636
(lp637
(I1
I261
F0.625
S'easy'
p638
I0
tp639
a(I1
I689
F0.75
S'precise'
p640
I0
tp641
a(I1
I742
I0
S'great'
p642
I0
tp643
as(S'physical'
p644
S'keyboard'
p645
tp646
(lp647
(I1
I223
I0
g254
I0
tp648
a(I1
I356
I0
g258
I0
tp649
a(I1
I356
I0
g260
I0
tp650
a(I1
I497
I0
g267
I0
tp651
a(I1
I497
I0
g269
I0
tp652
a(I2
I68
I0
g279
I0
tp653
a(I2
I75
I0
g281
I0
tp654
a(I3
I72
I0
g293
I0
tp655
as.