(dp0
(S'e'
p1
S'series'
p2
tp3
(lp4
(I5
I227
F0.125
S'first'
p5
I2
tp6
as(S'battery'
p7
S'life'
p8
tp9
(lp10
(I2
I2
F1.0
S'better'
p11
I1
tp12
a(I3
I4
I0
S'great'
p13
I1
tp14
a(I6
I11
I0
S'incredible'
p15
I1
tp16
a(I10
I16
F-0.5
S'long'
p17
I1
tp18
a(I10
I45
F1.0
S'good'
p19
I1
tp20
a(I11
I71
F1.0
S'good'
p21
I1
tp22
a(I11
I151
F-0.25
S'battery'
p23
I1
tp24
a(I14
I2
F0.125
S'first'
p25
I1
tp26
a(I14
I170
F1.0
S'good'
p27
I1
tp28
a(I18
I60
F-0.25
S'battery'
p29
I1
tp30
a(I21
I130
I0
S'great'
p31
I1
tp32
a(I3
I4
I0
g13
I19
tp33
a(I6
I11
I0
g15
I19
tp34
a(I10
I16
F-0.5
g17
I19
tp35
a(I10
I45
F1.0
g19
I19
tp36
a(I11
I71
F1.0
g21
I19
tp37
a(I11
I151
F-0.25
g23
I19
tp38
a(I14
I170
F1.0
g27
I19
tp39
a(I18
I60
F-0.25
g29
I19
tp40
a(I21
I130
I0
g31
I19
tp41
a(I2
I2
F1.0
g11
I15
tp42
a(I4
I10
F0.125
S'last'
p43
I15
tp44
a(I5
I65
I0
S'plastic'
p45
I15
tp46
a(I8
I78
F-0.25
S'loose'
p47
I15
tp48
a(I14
I2
F0.125
g25
I15
tp49
a(I14
I73
I0
S'same'
p50
I15
tp51
as(S'navigation'
p52
tp53
(lp54
(I8
I42
F-0.625
S'free'
p55
I1
tp56
a(I11
I98
F1.0
S'good'
p57
I1
tp58
as(S'email'
p59
tp60
(lp61
(I3
I3
I0
S'quick'
p62
I5
tp63
a(I5
I37
F0.625
S'major'
p64
I5
tp65
a(I5
I118
F-0.625
S'other'
p66
I5
tp67
a(I6
I1
F-0.625
S'push'
p68
I5
tp69
a(I8
I45
F0.375
S'new'
p70
I5
tp71
a(I8
I76
I0
S'more'
p72
I5
tp73
a(I10
I122
F1.0
S'best'
p74
I5
tp75
a(I10
I158
F0.5
S'comparable'
p76
I5
tp77
a(I11
I1
I0
S'great'
p78
I5
tp79
a(I11
I12
F-0.625
S'other'
p80
I5
tp81
a(I11
I28
F-0.625
S'push'
p82
I5
tp83
a(I11
I122
I0
S'great'
p84
I5
tp85
a(I11
I150
F0.875
S'nice'
p86
I5
tp87
a(I21
I220
F0.375
S'new'
p88
I5
tp89
as(S'keys'
p90
tp91
(lp92
(I2
I11
F-0.375
S'smaller'
p93
I9
tp94
a(I5
I103
F0.25
S'main'
p95
I9
tp96
a(I8
I113
F0.25
S'larger'
p97
I9
tp98
a(I9
I148
F-0.375
S'small'
p99
I9
tp100
a(I11
I37
F-0.375
S'small'
p101
I9
tp102
a(I11
I38
F0.5
S'flat'
p103
I9
tp104
a(I11
I154
F0.25
S'bigger'
p105
I9
tp106
a(I14
I89
F-0.125
S'directional'
p107
I9
tp108
as(S'u'
p109
S's'
p110
S'version'
p111
tp112
(lp113
(I2
I74
F0.875
S'nice'
p114
I0
tp115
a(I2
I74
I0
S'stable'
p116
I0
tp117
a(I2
I112
I0
S'many'
p118
I0
tp119
a(I4
I3
I0
S'american'
p120
I0
tp121
a(I10
I64
I0
S'earlier'
p122
I0
tp123
a(I10
I64
F-0.875
S'inferior'
p124
I0
tp125
a(I11
I10
I0
S'latest'
p126
I0
tp127
a(I14
I55
I0
S'full'
p128
I0
tp129
as(S'track'
p130
S'pad'
p131
tp132
(lp133
(I5
I234
I0
S'optical'
p134
I0
tp135
a(I5
I234
F0.625
S'easier'
p136
I0
tp137
a(I8
I190
F0.375
S'new'
p138
I0
tp139
a(I10
I121
F-0.625
S'addictive'
p140
I0
tp141
a(I14
I185
I0
S'optical'
p142
I0
tp143
a(I14
I196
I0
S'optical'
p144
I0
tp145
a(I21
I21
F0.375
S'new'
p146
I0
tp147
as(S'faster'
p148
tp149
(lp150
(I8
I57
F0.375
S'much'
p151
I7
tp152
a(I8
I151
F0.375
S'much'
p153
I7
tp154
a(I8
I257
F0.375
S'much'
p155
I7
tp156
a(I18
I18
F0.375
S'much'
p157
I7
tp158
as(S'call'
p159
S'quality'
p160
tp161
(lp162
(I9
I35
F1.0
S'good'
p163
I0
tp164
a(I11
I161
F1.0
S'good'
p165
I0
tp166
a(I16
I32
F1.0
S'good'
p167
I0
tp168
a(I21
I167
I0
S'great'
p169
I0
tp170
as(S'a'
p171
S'learning'
p172
S'curve'
p173
tp174
(lp175
(I2
I16
I0
S'useful'
p176
I1
tp177
a(I2
I16
I0
g176
I2
tp178
as(S'qwerty'
p179
S'keyboard'
p180
tp181
(lp182
(I3
I7
F-0.375
S'simple'
p183
I0
tp184
a(I8
I255
I0
S'full'
p185
I0
tp186
a(I8
I255
F0.625
S'easy'
p187
I0
tp188
a(I11
I151
I0
S'real'
p189
I0
tp190
a(I18
I59
I0
S'full'
p191
I0
tp192
a(I21
I6
F0.125
S'able'
p193
I0
tp194
a(I21
I6
I0
S'close'
p195
I0
tp196
a(I8
I255
I0
g185
I0
tp197
a(I9
I69
I0
S'more'
p198
I0
tp199
a(I9
I69
F-0.75
S'difficult'
p200
I0
tp201
a(I11
I151
I0
g189
I0
tp202
a(I18
I59
I0
g191
I0
tp203
a(I1
I4
F1.0
S'good'
p204
I2
tp205
a(I2
I11
F1.0
S'good'
p206
I2
tp207
a(I3
I7
F-0.375
g183
I2
tp208
a(I5
I203
F1.0
S'good'
p209
I2
tp210
a(I8
I113
F1.0
S'good'
p211
I2
tp212
a(I8
I118
F1.0
S'better'
p213
I2
tp214
a(I8
I147
F1.0
S'good'
p215
I2
tp216
a(I8
I187
F1.0
S'better'
p217
I2
tp218
a(I8
I255
F0.625
g187
I2
tp219
a(I10
I16
F1.0
S'good'
p220
I2
tp221
a(I10
I39
I0
S'full'
p222
I2
tp223
a(I14
I21
F0.25
S'responsive'
p224
I2
tp225
a(I21
I6
F0.125
g193
I2
tp226
a(I21
I6
I0
g195
I2
tp227
a(I21
I20
I0
S'great'
p228
I2
tp229
as(S'space'
p230
S'bar'
p231
tp232
(lp233
(I13
I16
F-0.75
S'short'
p234
I0
tp235
a(I14
I52
F-0.375
S'smaller'
p236
I0
tp237
as(S'iphone'
p238
tp239
(lp240
(I1
I34
I0
S'basic'
p241
I1
tp242
a(I11
I29
I0
S'such'
p243
I1
tp244
a(I21
I141
F-0.375
S'kid'
p245
I1
tp246
as(S'wifi'
p247
tp248
(lp249
(I11
I146
F0.375
S'available'
p250
I0
tp251
a(I14
I77
F0.125
S'capable'
p252
I0
tp253
a(I14
I143
I-100
S'wifi-very'
p254
I0
tp255
a(I14
I143
F1.0
S'good'
p256
I0
tp257
a(I21
I165
I0
S'great'
p258
I0
tp259
a(I21
I184
I0
S'efficient'
p260
I0
tp261
as(S'couple'
p262
S'of'
p263
S'days'
p264
tp265
(lp266
(I11
I132
I0
S'later'
p267
I1
tp268
a(I14
I150
I0
S'least'
p269
I1
tp270
a(I18
I37
F-0.25
S'past'
p271
I1
tp272
a(I18
I37
F0.125
S'impressive'
p273
I1
tp274
as(S'build'
p275
S'quality'
p276
tp277
(lp278
(I5
I7
I0
S'sturdy'
p279
I2
tp280
a(I5
I65
F-0.625
S'light'
p281
I2
tp282
a(I8
I8
I0
S'great'
p283
I2
tp284
a(I11
I110
I0
S'great'
p285
I2
tp286
a(I13
I33
F1.0
S'good'
p287
I2
tp288
a(I14
I106
F-0.5
S'poor'
p289
I2
tp290
a(I14
I207
I0
S'great'
p291
I2
tp292
a(I21
I141
I0
S'e-mail'
p293
I2
tp294
a(I8
I8
I0
g283
I13
tp295
a(I14
I207
I0
g291
I13
tp296
a(I21
I141
I0
g293
I13
tp297
as(S'nokia'
p298
S'e71'
p299
tp300
(lp301
(I5
I117
F0.5
S'functional'
p302
I0
tp303
a(I8
I53
F-0.625
S'other'
p304
I0
tp305
a(I8
I118
I0
S'most'
p306
I0
tp307
a(I10
I40
I0
S'same'
p308
I0
tp309
a(I11
I34
F0.375
S'content'
p310
I0
tp311
a(I11
I69
F0.375
S'reliable'
p312
I0
tp313
a(I11
I157
F1.0
S'good'
p314
I0
tp315
a(I21
I58
F1.0
S'best'
p316
I0
tp317
as(S'ovi'
p318
S'maps'
p319
tp320
(lp321
(I1
I22
F-0.25
S'google'
p322
I0
tp323
a(I9
I56
F0.625
S'easy'
p324
I0
tp325
a(I9
I56
I0
S'efficient'
p326
I0
tp327
a(I11
I58
F-0.625
S'free'
p328
I0
tp329
a(I1
I22
F-0.25
g322
I5
tp330
a(I2
I29
I-100
S'2d/3d'
p331
I5
tp332
a(I9
I56
F0.625
g324
I5
tp333
a(I9
I56
I0
g326
I5
tp334
a(I14
I116
I0
S'great'
p335
I5
tp336
as(S'firmware'
p337
tp338
(lp339
(I5
I150
F0.375
S'new'
p340
I0
tp341
a(I7
I15
I0
S'latest'
p342
I0
tp343
a(I7
I15
F0.375
S'available'
p344
I0
tp345
a(I7
I41
F0.375
S'newer'
p346
I0
tp347
a(I8
I19
I0
S'lastest'
p348
I0
tp349
a(I8
I49
I0
S'latest'
p350
I0
tp351
a(I8
I99
I0
S'update'
p352
I0
tp353
a(I8
I167
I0
S'own'
p354
I0
tp355
a(I8
I177
F0.375
S'new'
p356
I0
tp357
a(I14
I0
I0
S'substantial'
p358
I0
tp359
a(I14
I42
I0
S'many'
p360
I0
tp361
a(I21
I24
I0
S'great'
p362
I0
tp363
as(S'business'
p364
tp365
(lp366
(I2
I95
F0.5
S'personal'
p367
I9
tp368
a(I8
I222
F-0.625
S'bad'
p369
I9
tp370
a(I8
I222
F-0.375
S'unacceptable'
p371
I9
tp372
a(I8
I254
F0.5
S'personal'
p373
I9
tp374
a(I8
I272
I0
S'critical'
p375
I9
tp376
a(I8
I272
I0
S'least'
p377
I9
tp378
a(I8
I272
I0
S'online'
p379
I9
tp380
a(I8
I274
F0.625
S'acceptable'
p381
I9
tp382
a(I9
I139
F0.125
S'solid'
p383
I9
tp384
a(I9
I139
F-0.5
S'international'
p385
I9
tp386
a(I11
I82
F0.875
S'important'
p387
I9
tp388
a(I11
I82
I0
S'useful'
p389
I9
tp390
a(I14
I29
F1.0
S'good'
p391
I9
tp392
a(I18
I50
I0
S'great'
p393
I9
tp394
a(I20
I1
F-0.5
S'heavy'
p395
I9
tp396
a(I20
I3
I0
S'full'
p397
I9
tp398
a(I21
I96
I0
S'incredible'
p399
I9
tp400
as(S'applications'
p401
tp402
(lp403
(I8
I76
I0
S'more'
p404
I3
tp405
a(I9
I79
I0
S'active'
p406
I3
tp407
a(I11
I84
I0
S'standard'
p408
I3
tp409
a(I18
I45
F0.375
S'new'
p410
I3
tp411
a(I19
I1
F0.125
S'first'
p412
I3
tp413
a(I19
I1
I0
S'optical'
p414
I3
tp415
a(I19
I1
F0.125
S'key'
p416
I3
tp417
a(I19
I1
F0.625
S'easy'
p418
I3
tp419
a(I21
I71
I0
S'close'
p420
I3
tp421
a(I21
I185
F0.375
S'available'
p422
I3
tp423
a(I21
I185
F0.375
S'significant'
p424
I3
tp425
as(S'music'
p426
tp427
(lp428
(I11
I148
F0.625
S'interested'
p429
I0
tp430
as(S'operating'
p431
S'system'
p432
tp433
(lp434
(I10
I17
F-0.375
S'unstable'
p435
I2
tp436
a(I10
I84
I0
S'general'
p437
I2
tp438
as(S'3'
p439
S'days'
p440
tp441
(lp442
(I2
I104
I0
S'full'
p443
I2
tp444
a(I8
I204
F0.125
S'able'
p445
I2
tp446
as(S'battery'
p447
S'cover'
p448
tp449
(lp450
(I8
I78
F-0.25
g47
I0
tp451
a(I8
I264
F-0.25
S'loose'
p452
I0
tp453
a(I19
I0
F-0.75
S'ill'
p454
I0
tp455
a(I21
I139
F0.125
S'solid'
p456
I0
tp457
as(S'sim'
p458
S'card'
p459
tp460
(lp461
(I10
I79
F0.125
S'able'
p462
I0
tp463
a(I10
I79
I0
S'local'
p464
I0
tp465
a(I10
I97
I0
S'local'
p466
I0
tp467
a(I14
I73
I0
S'overseas'
p468
I0
tp469
as(S'upgrade'
p470
tp471
(lp472
(I8
I1
F-0.625
S'natural'
p473
I3
tp474
a(I8
I51
I0
S'unbelievable'
p475
I3
tp476
a(I8
I174
I0
S'only'
p477
I3
tp478
a(I8
I233
F-0.625
S'free'
p479
I3
tp480
a(I9
I13
F0.75
S'worth'
p481
I3
tp482
a(I11
I20
F-0.125
S'overall'
p483
I3
tp484
a(I11
I20
F0.875
S'happy'
p485
I3
tp486
a(I14
I26
F0.5
S'second'
p487
I3
tp488
a(I14
I164
F0.875
S'nice'
p489
I3
tp490
a(I18
I2
F1.0
S'better'
p491
I3
tp492
a(I18
I53
F0.75
S'worth'
p493
I3
tp494
as(S'lo'
p495
S'recomiendo'
p496
tp497
(lp498
(I10
I60
I0
S'tan'
p499
I0
tp500
a(I10
I60
I0
S'genial'
p501
I0
tp502
as(S'5'
p503
S'mp'
p504
S'camera'
p505
tp506
(lp507
(I5
I232
F0.875
S'nice'
p508
I0
tp509
a(I14
I133
I0
S'more'
p510
I0
tp511
a(I14
I133
F0.375
S'early'
p512
I0
tp513
a(I14
I133
F0.125
S'digital'
p514
I0
tp515
a(I5
I3
F1.0
S'good'
p516
I0
tp517
a(I5
I37
I0
S'great'
p518
I0
tp519
a(I5
I232
F0.875
g508
I0
tp520
a(I14
I72
F1.0
S'good'
p521
I0
tp522
a(I14
I72
F0.125
S'equal'
p523
I0
tp524
a(I14
I133
I0
g510
I0
tp525
a(I14
I133
F0.375
g512
I0
tp526
a(I14
I133
F0.125
g514
I0
tp527
a(I1
I36
I0
S'great'
p528
I1
tp529
a(I1
I36
F1.0
S'good'
p530
I1
tp531
a(I2
I101
F0.75
S'sound'
p532
I1
tp533
a(I5
I3
F1.0
g516
I1
tp534
a(I5
I37
I0
g518
I1
tp535
a(I5
I232
F0.875
g508
I1
tp536
a(I8
I132
F1.0
S'good'
p537
I1
tp538
a(I9
I58
F0.375
S'much'
p539
I1
tp540
a(I10
I64
F1.0
S'better'
p541
I1
tp542
a(I14
I21
I0
S'great'
p543
I1
tp544
a(I14
I72
F1.0
g521
I1
tp545
a(I14
I72
F0.125
g523
I1
tp546
a(I14
I133
I0
g510
I1
tp547
a(I14
I133
F0.375
g512
I1
tp548
a(I14
I133
F0.125
g514
I1
tp549
a(I21
I125
I0
S'great'
p550
I1
tp551
a(I21
I210
I0
S'great'
p552
I1
tp553
as(S'contacts'
p554
tp555
(lp556
(I4
I14
I0
S'same'
p557
I0
tp558
as(S'nokia'
p559
S'e72'
p560
tp561
(lp562
(I8
I118
I0
g306
I0
tp563
a(I8
I234
F-0.125
S'overall'
p564
I0
tp565
a(I8
I241
I0
S'great'
p566
I0
tp567
a(I9
I6
I0
S'stable'
p568
I0
tp569
a(I9
I6
F0.375
S'reliable'
p570
I0
tp571
a(I9
I6
F0.125
S'enough'
p572
I0
tp573
a(I9
I68
F0.125
S'first'
p574
I0
tp575
a(I10
I105
F-0.375
S'beast'
p576
I0
tp577
a(I10
I125
F0.5
S'second'
p578
I0
tp579
a(I11
I82
I0
S'such'
p580
I0
tp581
a(I14
I46
F-0.375
S'small'
p582
I0
tp583
a(I14
I109
I0
S'same'
p584
I0
tp585
a(I21
I208
F1.0
S'better'
p586
I0
tp587
a(I2
I66
F0.875
S'nice'
p588
I0
tp589
a(I2
I78
F0.875
S'nice'
p590
I0
tp591
a(I2
I78
I0
S'pouch'
p592
I0
tp593
a(I5
I117
F0.5
g302
I0
tp594
a(I5
I177
I0
S'user'
p595
I0
tp596
a(I5
I177
F0.375
S'friendly'
p597
I0
tp598
a(I5
I187
I0
S'attempt'
p599
I0
tp600
a(I5
I187
I0
S'total'
p601
I0
tp602
a(I5
I197
F0.125
S'last'
p603
I0
tp604
a(I5
I223
F-0.625
S'bad'
p605
I0
tp606
a(I5
I223
I0
S'third'
p607
I0
tp608
a(I7
I45
F0.5
S'clear'
p609
I0
tp610
a(I8
I112
F-0.75
S'brighter'
p611
I0
tp612
a(I8
I118
I0
g306
I0
tp613
a(I8
I142
F0.5
S'clear'
p614
I0
tp615
a(I8
I259
I0
S'fourth'
p616
I0
tp617
a(I9
I37
F1.0
S'good'
p618
I0
tp619
a(I9
I56
F0.375
S'score'
p620
I0
tp621
a(I9
I78
F0.375
S'reliable'
p622
I0
tp623
a(I9
I119
F0.5
S'functional'
p624
I0
tp625
a(I9
I125
F-0.5
S'longer'
p626
I0
tp627
a(I10
I71
I0
S'old'
p628
I0
tp629
a(I10
I125
F0.5
g578
I0
tp630
a(I10
I142
F0.125
S'usual'
p631
I0
tp632
a(I11
I30
F-0.375
S'robust'
p633
I0
tp634
a(I11
I34
F0.375
g310
I0
tp635
a(I11
I83
I0
S'least'
p636
I0
tp637
a(I11
I137
F0.75
S'worth'
p638
I0
tp639
a(I11
I157
F1.0
g314
I0
tp640
a(I14
I46
F-0.375
g582
I0
tp641
a(I14
I103
I0
S'many'
p642
I0
tp643
a(I14
I165
F-0.625
S'other'
p644
I0
tp645
a(I14
I192
F0.5
S'come-on'
p646
I0
tp647
a(I18
I6
F0.125
S'usual'
p648
I0
tp649
a(I18
I27
I0
S'old'
p650
I0
tp651
a(I20
I13
I0
S'faster'
p652
I0
tp653
a(I21
I20
F0.375
S'new'
p654
I0
tp655
a(I21
I48
F0.5
S'complimentary'
p656
I0
tp657
a(I21
I58
F1.0
g316
I0
tp658
as(S'mail'
p659
S'for'
p660
S'exchange'
p661
tp662
(lp663
(I21
I154
F0.25
S'biggest'
p664
I0
tp665
a(I14
I115
F-0.625
S'free'
p666
I13
tp667
as(S'web'
p668
S'browser'
p669
tp670
(lp671
(I5
I146
F0.5
S'whole'
p672
I0
tp673
a(I10
I3
F-0.75
S'worse'
p674
I0
tp675
a(I10
I89
I0
S'most'
p676
I0
tp677
a(I10
I3
F-0.75
g674
I0
tp678
a(I21
I147
F-0.75
S'worse'
p679
I0
tp680
as(S'blackberry'
p681
tp682
(lp683
(I8
I276
I0
S'least'
p684
I1
tp685
a(I8
I276
F0.375
S'dependable'
p686
I1
tp687
a(I9
I54
F0.5
S'functional'
p688
I1
tp689
a(I9
I64
F-0.125
S'overall'
p690
I1
tp691
a(I10
I163
F-0.5
S'miss'
p692
I1
tp693
a(I10
I163
F-0.625
S'light'
p694
I1
tp695
as(S'much'
p696
S'better'
p697
tp698
(lp699
(I0
I11
F0.375
S'much'
p700
I9
tp701
a(I5
I181
F0.375
S'much'
p702
I9
tp703
a(I11
I72
F0.375
S'much'
p704
I9
tp705
a(I18
I42
F0.375
S'much'
p706
I9
tp707
a(I19
I0
F0.375
S'much'
p708
I9
tp709
as(S'smartphone'
p710
tp711
(lp712
(I5
I205
F0.5
S'reasonable'
p713
I0
tp714
a(I5
I205
F0.25
S'powerful'
p715
I0
tp716
a(I8
I68
F-0.375
S'top'
p717
I0
tp718
a(I10
I11
I0
S'old'
p719
I0
tp720
a(I10
I11
I0
S'great'
p721
I0
tp722
a(I11
I42
F0.125
S'first'
p723
I0
tp724
a(I11
I104
F0.125
S'first'
p725
I0
tp726
a(I11
I152
F0.625
S'easy'
p727
I0
tp728
a(I14
I61
F0.5
S'expensive'
p729
I0
tp730
a(I14
I62
F-0.25
S'cheaper'
p731
I0
tp732
a(I21
I33
F0.125
S'first'
p733
I0
tp734
a(I21
I154
I0
S'most'
p735
I0
tp736
a(I21
I154
F-0.625
S'other'
p737
I0
tp738
as(S'internet'
p739
S'radio'
p740
tp741
(lp742
(I5
I38
I0
S'internet'
p743
I0
tp744
a(I5
I3
F0.375
S'reliable'
p745
I6
tp746
a(I5
I200
I0
S'fast'
p747
I6
tp748
a(I8
I156
F1.0
S'good'
p749
I6
tp750
a(I10
I22
F-0.125
S'slow'
p751
I6
tp752
a(I10
I22
I0
S'useful'
p753
I6
tp754
as(S'd'
p755
S'pad'
p756
tp757
(lp758
(I5
I136
I0
S'optical'
p759
I0
tp760
a(I5
I136
F0.125
S'key'
p761
I0
tp762
a(I5
I234
F0.625
g136
I0
tp763
a(I8
I61
I0
S'optical'
p764
I0
tp765
a(I8
I192
F0.25
S'original'
p766
I0
tp767
a(I8
I192
F-0.125
S'directional'
p768
I0
tp769
a(I9
I27
I0
S'optical'
p770
I0
tp771
a(I9
I27
F0.5
S'functional'
p772
I0
tp773
a(I9
I74
I0
S'optical'
p774
I0
tp775
a(I10
I121
F-0.625
g140
I0
tp776
a(I14
I52
F0.5
S'touch'
p777
I0
tp778
a(I14
I199
I0
S'optical'
p779
I0
tp780
a(I14
I201
I0
S'optical'
p781
I0
tp782
a(I19
I0
F0.125
S'key'
p783
I0
tp784
as(S'form'
p785
S'factor'
p786
tp787
(lp788
(I5
I228
F-0.625
S'other'
p789
I1
tp790
a(I9
I22
F-0.25
S'thin'
p791
I1
tp792
a(I9
I22
F0.625
S'easy'
p793
I1
tp794
a(I14
I99
F0.375
S'much'
p795
I1
tp796
as(S'apps'
p797
tp798
(lp799
(I2
I109
I0
S'useful'
p800
I0
tp801
a(I5
I240
F0.125
S'plenty'
p802
I0
tp803
a(I8
I246
I0
S'many'
p804
I0
tp805
a(I11
I1
F-0.625
S'want'
p806
I0
tp807
a(I11
I146
I0
S'many'
p808
I0
tp809
a(I14
I156
F-0.375
S'unstable'
p810
I0
tp811
a(I18
I34
F0.625
S'accessible'
p812
I0
tp813
as(g1
S'mail'
p814
tp815
(lp816
(I14
I115
F-0.625
g666
I2
tp817
as.