(dp0
(S'400'
p1
S'minute'
p2
tp3
(lp4
(I102
I6
F-0.375
S'double'
p5
tp6
as(S'call'
p7
S'customer'
p8
S'service'
p9
tp10
(lp11
(I287
I5
F0.625
S'acceptable'
p12
tp13
a(I289
I0
F0.25
S'helpful'
p14
tp15
a(I289
I0
F0.875
S'courteous'
p16
tp17
a(I296
I10
F1.0
S'good'
p18
tp19
as(S'purchase'
p20
tp21
(lp22
(I5
I0
F-0.625
S'other'
p23
tp24
a(I59
I5
I0
S'great'
p25
tp26
a(I186
I7
F0.875
S'happy'
p27
tp28
a(I244
I4
F0.875
S'happier'
p29
tp30
a(I258
I0
I0
S'quick'
p31
tp32
a(I290
I1
I0
S'third'
p33
tp34
a(I315
I0
F0.125
S'first'
p35
tp36
a(I338
I0
F1.0
S'good'
p37
tp38
a(I338
I0
F0.625
S'necessary'
p39
tp40
a(I345
I0
F0.125
S'last'
p41
tp42
a(I399
I5
I0
S'quick'
p43
tp44
a(I399
I5
F0.625
S'easy'
p45
tp46
a(I404
I3
I0
S'particular'
p47
tp48
as(S'to'
p49
S'add'
p50
S'airtime'
p51
tp52
(lp53
(I68
I4
F-0.375
S'simple'
p54
tp55
a(I170
I5
F0.625
S'add'
p56
tp57
a(I170
I5
F-0.375
S'top'
p58
tp59
a(I339
I0
F0.625
S'add'
p60
tp61
a(I424
I3
F0.625
S'add'
p62
tp63
as(S'promo'
p64
tp65
(lp66
(I22
I2
I0
S'current'
p67
tp68
a(I47
I2
F-0.5
S'sure'
p69
tp70
a(I102
I3
F1.0
S'best'
p71
tp72
a(I288
I4
F-0.5
S'sure'
p73
tp74
as(S't'
p75
S'worked'
p76
S'fine'
p77
tp78
(lp79
(I273
I4
F-0.625
S'other'
p80
tp81
as(S'best'
p82
S'price'
p83
tp84
(lp85
(I20
I0
F1.0
S'best'
p86
tp87
a(I26
I1
F1.0
S'best'
p88
tp89
a(I43
I1
F1.0
S'best'
p90
tp91
a(I60
I1
F-0.25
S'lowest'
p92
tp93
a(I64
I0
F1.0
S'best'
p94
tp95
a(I143
I1
F1.0
S'best'
p96
tp97
a(I195
I0
F1.0
S'best'
p98
tp99
a(I213
I1
F1.0
S'best'
p100
tp101
a(I238
I1
F1.0
S'best'
p102
tp103
a(I275
I0
F1.0
S'best'
p104
tp105
a(I296
I1
F1.0
S'best'
p106
tp107
a(I315
I0
F1.0
S'best'
p108
tp109
a(I352
I1
F1.0
S'best'
p110
tp111
a(I411
I14
F1.0
S'best'
p112
tp113
a(I412
I0
F1.0
S'best'
p114
tp115
a(I430
I0
F1.0
S'best'
p116
tp117
a(I431
I0
F1.0
S'best'
p118
tp119
as(S'triple'
p120
S'minutes'
p121
tp122
(lp123
(I28
I6
F-0.375
S'double'
p124
tp125
a(I28
I7
F-0.375
S'double'
p126
tp127
a(I58
I5
F-0.375
S'double'
p128
tp129
a(I71
I1
I0
S'total'
p130
tp131
a(I101
I2
I0
S'total'
p132
tp133
a(I108
I5
F-0.375
S'double'
p134
tp135
a(I108
I5
F-0.375
S'top'
p136
tp137
a(I167
I3
F-0.25
S'triple'
p138
tp139
a(I192
I0
F0.375
S'extra'
p140
tp141
a(I244
I3
F-0.375
S'double'
p142
tp143
a(I248
I1
F1.0
S'better'
p144
tp145
a(I268
I0
F0.375
S'extra'
p146
tp147
a(I322
I3
F-0.25
S'triple'
p148
tp149
a(I322
I3
I0
S'total'
p150
tp151
a(I323
I5
F-0.375
S'double'
p152
tp153
a(I323
I5
F-0.25
S'triple'
p154
tp155
a(I368
I8
F-0.375
S'double'
p156
tp157
a(I376
I2
I0
S'total'
p158
tp159
a(I376
I2
F1.0
S'good'
p160
tp161
a(I430
I2
F-0.25
S'triple'
p162
tp163
a(I440
I2
F-0.375
S'double'
p164
tp165
as(S'years'
p166
tp167
(lp168
(I20
I0
F0.125
S'last'
p169
tp170
a(I26
I0
F0.125
S'last'
p171
tp172
a(I38
I1
I0
S'few'
p173
tp174
a(I54
I3
I0
S'many'
p175
tp176
a(I160
I0
I0
S'many'
p177
tp178
a(I160
I3
F0.625
S'easy'
p179
tp180
a(I162
I0
I0
S'few'
p181
tp182
a(I171
I1
F-0.25
S'past'
p183
tp184
a(I171
I1
I0
S'few'
p185
tp186
a(I193
I0
I0
S'many'
p187
tp188
a(I232
I0
I0
S'more'
p189
tp190
a(I291
I1
I0
S'more'
p191
tp192
a(I293
I0
I0
S'old'
p193
tp194
a(I321
I1
F0.125
S'last'
p195
tp196
a(I333
I0
I0
S'many'
p197
tp198
a(I341
I4
F0.125
S'last'
p199
tp200
a(I355
I0
F-0.625
S'glad'
p201
tp202
a(I413
I0
F-0.25
S'past'
p203
tp204
as(S'a'
p205
S'1'
p206
S'year'
p207
tp208
(lp209
(I120
I0
I0
S'full'
p210
tp211
a(I150
I3
I0
S'full'
p212
tp213
a(I165
I4
I0
S'later'
p214
tp215
a(I166
I0
I0
S'total'
p216
tp217
a(I230
I1
F-0.625
S'fresh'
p218
tp219
a(I255
I1
I0
S'full'
p220
tp221
a(I291
I4
F0.125
S'last'
p222
tp223
a(I301
I4
I0
S'later'
p224
tp225
a(I322
I5
F0.125
S'last'
p226
tp227
a(I322
I5
F0.125
S'first'
p228
tp229
a(I341
I0
F0.125
S'last'
p230
tp231
a(I348
I5
I0
S'full'
p232
tp233
a(I350
I3
I0
S'more'
p234
tp235
as(S'one'
p236
S'year'
p237
tp238
(lp239
(I53
I0
F0.5
S'whole'
p240
tp241
a(I78
I2
F0.125
S'first'
p242
tp243
a(I115
I4
F0.5
S'whole'
p244
tp245
a(I120
I0
I0
g210
tp246
a(I128
I1
F-0.5
S'less'
p247
tp248
a(I135
I2
I0
S'more'
p249
tp250
a(I137
I0
I0
S'old'
p251
tp252
a(I146
I0
I0
S'next'
p253
tp254
a(I150
I3
I0
g212
tp255
a(I153
I1
F0.125
S'last'
p256
tp257
a(I155
I0
I0
S'full'
p258
tp259
a(I165
I4
I0
g214
tp260
a(I166
I0
I0
g216
tp261
a(I170
I19
I0
S'old'
p262
tp263
a(I207
I5
I0
S'later'
p264
tp265
a(I213
I0
I0
S'great'
p266
tp267
a(I255
I1
I0
g220
tp268
a(I291
I4
F0.125
g222
tp269
a(I301
I4
I0
g224
tp270
a(I348
I5
I0
g232
tp271
a(I350
I3
I0
g234
tp272
a(I358
I0
I0
S'great'
p273
tp274
a(I398
I2
F0.375
S'extra'
p275
tp276
a(I420
I1
I0
S'next'
p277
tp278
a(I442
I1
F-0.875
S'hard'
p279
tp280
as(S'400'
p281
S'minutes'
p282
tp283
(lp284
(I0
I4
I0
S'total'
p285
tp286
a(I0
I4
F0.125
S'last'
p287
tp288
a(I71
I1
I0
g130
tp289
a(I101
I2
I0
g132
tp290
a(I102
I6
F-0.375
S'double'
p291
tp292
a(I108
I5
F-0.375
g136
tp293
a(I123
I0
F1.0
S'good'
p294
tp295
a(I167
I3
F-0.25
g138
tp296
a(I226
I1
F-0.375
S'double'
p297
tp298
a(I226
I1
F-0.375
S'double'
p299
tp300
a(I244
I1
F-0.375
S'double'
p301
tp302
a(I257
I4
F-0.375
S'double'
p303
tp304
a(I268
I0
F0.375
g146
tp305
a(I275
I0
F-0.375
S'double'
p306
tp307
a(I289
I0
I0
S'few'
p308
tp309
a(I289
I0
F-0.75
S'unable'
p310
tp311
a(I322
I3
F-0.25
g148
tp312
a(I322
I3
I0
g150
tp313
a(I323
I5
F-0.375
g152
tp314
a(I323
I5
F-0.25
g154
tp315
a(I341
I15
F-0.375
S'double'
p316
tp317
a(I341
I15
I0
S'more'
p318
tp319
a(I345
I1
F0.375
S'new'
p320
tp321
a(I348
I2
I0
S'total'
p322
tp323
a(I381
I0
F-0.375
S'double'
p324
tp325
a(I437
I0
F-0.625
S'want'
p326
tp327
a(I443
I0
I0
S'retail'
p328
tp329
as(S'with'
p330
S'double'
p331
S'minutes'
p332
tp333
(lp334
(I5
I0
F-0.375
S'double'
p335
tp336
a(I22
I2
F-0.375
S'double'
p337
tp338
a(I22
I2
F0.375
S'extra'
p339
tp340
a(I22
I2
F-0.5
S'less'
p341
tp342
a(I38
I2
F-0.375
S'double'
p343
tp344
a(I54
I9
F-0.375
S'double'
p345
tp346
a(I59
I2
F-0.375
S'double'
p347
tp348
a(I59
I2
I0
S'total'
p349
tp350
a(I112
I5
F-0.375
S'double'
p351
tp352
a(I134
I1
F-0.375
S'double'
p353
tp354
a(I162
I0
F-0.375
S'double'
p355
tp356
a(I165
I1
F-0.375
S'double'
p357
tp358
a(I226
I1
F-0.375
g297
tp359
a(I226
I1
F-0.375
g299
tp360
a(I235
I2
F-0.375
S'double'
p361
tp362
a(I244
I1
F-0.375
g301
tp363
a(I257
I4
F-0.375
g303
tp364
a(I266
I2
F-0.375
S'double'
p365
tp366
a(I270
I2
F-0.375
S'double'
p367
tp368
a(I285
I1
F-0.375
S'double'
p369
tp370
a(I296
I8
F-0.375
S'double'
p371
tp372
a(I298
I1
I0
S'later'
p373
tp374
a(I298
I1
F-0.375
S'double'
p375
tp376
a(I341
I15
F-0.375
g316
tp377
a(I341
I15
I0
g318
tp378
a(I343
I4
F-0.375
S'double'
p379
tp380
a(I347
I5
F-0.375
S'double'
p381
tp382
a(I381
I0
F-0.375
g324
tp383
a(I384
I1
F-0.375
S'double'
p384
tp385
a(I424
I3
F-0.375
S'double'
p386
tp387
a(I424
I3
I0
S'total'
p388
tp389
a(I440
I2
F-0.375
g164
tp390
as(S'with'
p391
S'400'
p392
S'minutes'
p393
tp394
(lp395
(I71
I1
I0
g130
tp396
a(I167
I3
F-0.25
g138
tp397
a(I226
I1
F-0.375
g297
tp398
a(I226
I1
F-0.375
g299
tp399
a(I244
I1
F-0.375
g301
tp400
a(I257
I4
F-0.375
g303
tp401
a(I268
I0
F0.375
g146
tp402
a(I289
I0
I0
g308
tp403
a(I289
I0
F-0.75
g310
tp404
a(I322
I3
F-0.25
g148
tp405
a(I322
I3
I0
g150
tp406
a(I341
I15
F-0.375
g316
tp407
a(I341
I15
I0
g318
tp408
a(I381
I0
F-0.375
g324
tp409
as(S'double'
p410
S'minutes'
p411
tp412
(lp413
(I4
I1
F-0.375
S'double'
p414
tp415
a(I5
I0
F-0.375
g335
tp416
a(I6
I0
F-0.375
S'double'
p417
tp418
a(I21
I1
F0.875
S'nice'
p419
tp420
a(I21
I1
F-0.375
S'double'
p421
tp422
a(I22
I2
F-0.375
g337
tp423
a(I22
I2
F0.375
g339
tp424
a(I22
I2
F-0.5
g341
tp425
a(I28
I6
F-0.375
g124
tp426
a(I35
I1
I0
S'automatic'
p427
tp428
a(I35
I1
F-0.375
S'double'
p429
tp430
a(I38
I2
F-0.375
g343
tp431
a(I54
I9
F-0.375
g345
tp432
a(I59
I2
F-0.375
g347
tp433
a(I59
I2
I0
g349
tp434
a(I102
I6
F-0.375
g291
tp435
a(I108
I5
F-0.375
g136
tp436
a(I112
I5
F-0.375
g351
tp437
a(I118
I2
F-0.375
S'double'
p438
tp439
a(I134
I1
F-0.375
g353
tp440
a(I154
I2
F-0.375
S'double'
p441
tp442
a(I154
I2
F0.375
S'extra'
p443
tp444
a(I156
I1
F-0.375
S'double'
p445
tp446
a(I156
I2
F-0.375
S'double'
p447
tp448
a(I162
I0
F-0.375
g355
tp449
a(I165
I1
F-0.375
g357
tp450
a(I186
I4
F-0.375
S'double'
p451
tp452
a(I226
I1
F-0.375
g297
tp453
a(I226
I1
F-0.375
g299
tp454
a(I235
I2
F-0.375
g361
tp455
a(I235
I5
F-0.375
S'double'
p456
tp457
a(I244
I1
F-0.375
g301
tp458
a(I254
I1
F-0.375
S'double'
p459
tp460
a(I255
I1
F-0.375
S'double'
p461
tp462
a(I255
I1
I0
S'total'
p463
tp464
a(I257
I4
F-0.375
g303
tp465
a(I266
I2
F-0.375
g365
tp466
a(I270
I2
F-0.375
g367
tp467
a(I275
I0
F-0.375
g306
tp468
a(I285
I1
F-0.375
g369
tp469
a(I296
I8
F-0.375
g371
tp470
a(I298
I1
I0
g373
tp471
a(I298
I1
F-0.375
g375
tp472
a(I304
I1
F-0.375
S'double'
p473
tp474
a(I323
I5
F-0.375
g152
tp475
a(I323
I5
F-0.25
g154
tp476
a(I341
I15
F-0.375
g316
tp477
a(I341
I15
I0
g318
tp478
a(I343
I4
F-0.375
g379
tp479
a(I347
I5
F-0.375
g381
tp480
a(I349
I1
F-0.375
S'double'
p481
tp482
a(I349
I2
F-0.375
S'double'
p483
tp484
a(I352
I1
F-0.375
S'double'
p485
tp486
a(I353
I0
F-0.375
S'double'
p487
tp488
a(I364
I0
F-0.375
S'double'
p489
tp490
a(I381
I0
F-0.375
g324
tp491
a(I384
I1
F-0.375
g384
tp492
a(I411
I7
F-0.375
S'double'
p493
tp494
a(I421
I1
F-0.375
S'double'
p495
tp496
a(I424
I3
F-0.375
g386
tp497
a(I424
I3
I0
g388
tp498
a(I436
I1
F-0.375
S'double'
p499
tp500
a(I440
I2
F-0.375
g164
tp501
a(I443
I7
F-0.375
S'double'
p502
tp503
as(S'shipping'
p504
S'and'
p505
S'handling'
p506
tp507
(lp508
(I223
I3
F-0.625
S'free'
p509
tp510
a(I270
I6
F0.375
S'extra'
p511
tp512
a(I323
I1
I0
S'standard'
p513
tp514
as(S'200'
p515
S'bonus'
p516
S'minutes'
p517
tp518
(lp519
(I59
I2
F-0.375
g347
tp520
a(I59
I2
I0
g349
tp521
a(I101
I2
I0
g132
tp522
a(I186
I4
F-0.375
g451
tp523
a(I245
I1
F0.625
S'decent'
p524
tp525
a(I257
I4
F-0.375
g303
tp526
a(I266
I2
F-0.375
g365
tp527
a(I343
I4
F-0.375
g379
tp528
a(I348
I2
I0
g322
tp529
a(I367
I4
F0.75
S'give'
p530
tp531
as(g205
S'good'
p532
S'deal'
p533
tp534
(lp535
(I44
I3
F1.0
S'good'
p536
tp537
a(I115
I2
F1.0
S'good'
p538
tp539
a(I124
I4
F1.0
S'good'
p540
tp541
a(I188
I0
F1.0
S'good'
p542
tp543
a(I199
I2
F1.0
S'good'
p544
tp545
a(I285
I2
F1.0
S'good'
p546
tp547
a(I297
I0
F1.0
S'good'
p548
tp549
a(I341
I1
F1.0
S'good'
p550
tp551
a(I344
I3
F1.0
S'good'
p552
tp553
a(I348
I3
F1.0
S'good'
p554
tp555
a(I369
I2
F1.0
S'good'
p556
tp557
a(I376
I2
I0
S'great'
p558
tp559
a(I400
I2
F1.0
S'good'
p560
tp561
a(I420
I2
F1.0
S'good'
p562
tp563
a(I443
I8
F1.0
S'good'
p564
tp565
as(S'shipping'
p566
tp567
(lp568
(I20
I1
I0
S'more'
p569
tp570
a(I20
I1
F-0.625
S'free'
p571
tp572
a(I24
I11
F-0.625
S'free'
p573
tp574
a(I90
I2
I0
S'quick'
p575
tp576
a(I165
I6
I0
S'retail'
p577
tp578
a(I165
I6
F-0.625
S'free'
p579
tp580
a(I223
I3
F-0.625
g509
tp581
a(I270
I6
F0.375
g511
tp582
a(I275
I1
F-0.625
S'free'
p583
tp584
a(I293
I3
F-0.625
S'free'
p585
tp586
a(I293
I5
F-0.625
S'free'
p587
tp588
a(I350
I1
F0.625
S'easy'
p589
tp590
a(I350
I1
I0
S'fast'
p591
tp592
a(I378
I1
F-0.125
S'slow'
p593
tp594
as(S'triple'
p595
S'minute'
p596
tp597
(lp598
(I28
I7
F-0.375
g126
tp599
a(I58
I5
F-0.375
g128
tp600
a(I96
I2
I0
S'along'
p601
tp602
a(I108
I5
F-0.375
g134
tp603
a(I113
I8
I0
S'mere'
p604
tp605
a(I113
I8
F-0.375
S'double'
p606
tp607
a(I244
I3
F-0.375
g142
tp608
a(I248
I1
F1.0
g144
tp609
a(I368
I8
F-0.375
g156
tp610
as(S'and'
p611
g206
S'year'
p612
tp613
(lp614
(I120
I0
I0
g210
tp615
a(I255
I1
I0
g220
tp616
a(I291
I4
F0.125
g222
tp617
a(I301
I4
I0
g224
tp618
a(I322
I5
F0.125
g226
tp619
a(I322
I5
F0.125
g228
tp620
a(I341
I0
F0.125
g230
tp621
a(I348
I5
I0
g232
tp622
a(I350
I3
I0
g234
tp623
as(S'customer'
p624
tp625
(lp626
(I4
I2
F-0.625
S'glad'
p627
tp628
a(I4
I2
F0.375
S'worked'
p629
tp630
a(I72
I2
I0
S'efficient'
p631
tp632
a(I165
I3
I0
S'such'
p633
tp634
a(I165
I3
I0
S'great'
p635
tp636
a(I221
I0
F-0.875
S'worst'
p637
tp638
a(I239
I9
F1.0
S'good'
p639
tp640
a(I280
I1
I0
S'big'
p641
tp642
a(I296
I10
F1.0
g18
tp643
a(I417
I0
F-0.875
S'worst'
p644
tp645
a(I427
I2
I0
S'great'
p646
tp647
as(S'triple'
p648
tp649
(lp650
(I28
I7
F-0.375
g126
tp651
a(I58
I5
F-0.375
g128
tp652
a(I96
I2
I0
g601
tp653
a(I108
I5
F-0.375
g134
tp654
a(I244
I3
F-0.375
g142
tp655
a(I248
I1
F1.0
g144
tp656
a(I368
I8
F-0.375
g156
tp657
as(S'store'
p658
tp659
(lp660
(I12
I2
I0
S'same'
p661
tp662
a(I12
I2
F1.0
S'good'
p663
tp664
a(I82
I3
I0
S'more'
p665
tp666
a(I133
I0
F-0.25
S'cheaper'
p667
tp668
a(I383
I0
F-0.25
S'cheaper'
p669
tp670
a(I395
I6
I0
S'faster'
p671
tp672
a(I434
I0
I0
S'retail'
p673
tp674
as(S'new'
p675
S'sim'
p676
S'card'
p677
tp678
(lp679
(I1
I9
F0.375
S'new'
p680
tp681
a(I1
I10
F0.375
S'new'
p682
tp683
a(I1
I10
F0.5
S'told'
p684
tp685
a(I3
I3
I0
S'old'
p686
tp687
a(I301
I4
F0.375
S'new'
p688
tp689
a(I419
I3
F0.375
S'new'
p690
tp691
as(S'with'
p692
S'triple'
p693
S'minutes'
p694
tp695
(lp696
(I71
I1
I0
g130
tp697
a(I167
I3
F-0.25
g138
tp698
a(I268
I0
F0.375
g146
tp699
a(I322
I3
F-0.25
g148
tp700
a(I322
I3
I0
g150
tp701
a(I376
I2
I0
g158
tp702
a(I376
I2
F1.0
g160
tp703
a(I430
I2
F-0.25
g162
tp704
a(I440
I2
F-0.375
g164
tp705
as(S'year'
p706
S'of'
p707
S'service'
p708
tp709
(lp710
(I44
I2
I0
S'active'
p711
tp712
a(I52
I1
F-0.5
S'less'
p713
tp714
a(I107
I6
I0
S'monthly'
p715
tp716
a(I120
I0
I0
g210
tp717
a(I128
I1
F-0.5
g247
tp718
a(I162
I0
F0.5
S'willing'
p719
tp720
a(I211
I1
F-0.5
S'less'
p721
tp722
a(I255
I1
I0
g220
tp723
a(I288
I7
I0
S'full'
p724
tp725
a(I291
I4
F0.125
g222
tp726
a(I341
I17
F0.375
S'extra'
p727
tp728
a(I350
I3
I0
g234
tp729
a(I398
I2
F0.375
g275
tp730
as(S'for'
p731
S'several'
p732
S'years'
p733
tp734
(lp735
(I20
I0
F0.125
g169
tp736
as(S'card'
p737
tp738
(lp739
(I1
I10
F0.5
g684
tp740
a(I10
I4
F0.375
S'much'
p741
tp742
a(I10
I4
I0
S'physical'
p743
tp744
a(I11
I2
F0.625
S'easy'
p745
tp746
a(I24
I3
I0
S'fourth'
p747
tp748
a(I24
I3
I0
S'fifth'
p749
tp750
a(I24
I4
F0.375
S'new'
p751
tp752
a(I26
I0
I0
S'least'
p753
tp754
a(I27
I2
F1.0
S'good'
p755
tp756
a(I27
I2
I0
S'full'
p757
tp758
a(I29
I0
F0.625
S'easier'
p759
tp760
a(I43
I8
I0
S'full'
p761
tp762
a(I44
I0
F0.125
S'usual'
p763
tp764
a(I53
I1
F0.625
S'perfect'
p765
tp766
a(I54
I8
I0
S'annual'
p767
tp768
a(I54
I8
F0.5
S'expensive'
p769
tp770
a(I56
I1
F0.5
S'second'
p771
tp772
a(I58
I2
F1.0
S'good'
p773
tp774
a(I65
I0
I0
S'same'
p775
tp776
a(I65
I0
F-0.5
S'less'
p777
tp778
a(I65
I0
F0.5
S'expensive'
p779
tp780
a(I78
I4
F-0.375
S'simple'
p781
tp782
a(I78
I8
F0.375
S'new'
p783
tp784
a(I95
I7
F-0.75
S'difficult'
p785
tp786
a(I95
I7
F0.5
S'second'
p787
tp788
a(I95
I8
I0
S'earlier'
p789
tp790
a(I101
I0
I0
S'earlier'
p791
tp792
a(I109
I0
I0
S'more'
p793
tp794
a(I109
I0
F0.5
S'expensive'
p795
tp796
a(I115
I1
I0
S'same'
p797
tp798
a(I148
I1
I0
S'one-year'
p799
tp800
a(I154
I0
I0
S'fast'
p801
tp802
a(I165
I4
F0.5
S'second'
p803
tp804
a(I169
I0
F-0.5
S'actual'
p805
tp806
a(I169
I0
I0
S'physical'
p807
tp808
a(I170
I6
F-0.625
S'green'
p809
tp810
a(I202
I1
I0
S'great'
p811
tp812
a(I202
I8
I0
S'own'
p813
tp814
a(I239
I3
I0
S'retail'
p815
tp816
a(I239
I4
I0
S'retail'
p817
tp818
a(I239
I5
I0
S'retail'
p819
tp820
a(I239
I7
I0
S'retail'
p821
tp822
a(I240
I3
F1.0
S'good'
p823
tp824
a(I245
I3
F0.125
S'last'
p825
tp826
a(I262
I0
F0.75
S'worth'
p827
tp828
a(I269
I0
F-0.5
S'actual'
p829
tp830
a(I283
I0
F0.375
S'new'
p831
tp832
a(I310
I4
F0.125
S'able'
p833
tp834
a(I311
I0
F-0.625
S'other'
p835
tp836
a(I323
I1
F-0.5
S'actual'
p837
tp838
a(I323
I1
I0
S'such'
p839
tp840
a(I344
I0
I0
S'online'
p841
tp842
a(I344
I2
F-0.5
S'long'
p843
tp844
a(I347
I5
F-0.5
S'separate'
p845
tp846
a(I347
I5
F-0.375
S'double'
p847
tp848
a(I362
I1
F0.375
S'new'
p849
tp850
a(I370
I1
F-0.5
S'actual'
p851
tp852
a(I392
I1
I0
S'physical'
p853
tp854
a(I397
I0
F0.625
S'perfect'
p855
tp856
a(I399
I0
I0
S'physical'
p857
tp858
a(I404
I2
F-0.5
S'actual'
p859
tp860
a(I407
I4
I0
S'such'
p861
tp862
a(I414
I0
F0.125
S'able'
p863
tp864
a(I434
I2
F-0.625
S'green'
p865
tp866
a(I434
I2
I0
S'plastic'
p867
tp868
a(I436
I3
I0
S'closest'
p869
tp870
a(I437
I0
I0
S'great'
p871
tp872
a(I440
I6
F-0.5
S'less'
p873
tp874
a(I443
I0
F-0.5
S'less'
p875
tp876
as(S'customer'
p877
S'service'
p878
tp879
(lp880
(I4
I2
F-0.625
g627
tp881
a(I4
I2
F0.375
g629
tp882
a(I72
I2
I0
g631
tp883
a(I95
I7
F0.25
S'professional'
p884
tp885
a(I95
I7
F0.25
S'helpful'
p886
tp887
a(I129
I1
F-0.125
S'super'
p888
tp889
a(I165
I3
I0
g633
tp890
a(I165
I3
I0
g635
tp891
a(I199
I2
I0
S'commensurate'
p892
tp893
a(I221
I0
F-0.875
g637
tp894
a(I239
I9
F1.0
g639
tp895
a(I267
I1
F-0.75
S'difficult'
p896
tp897
a(I279
I0
F-0.875
S'awful'
p898
tp899
a(I280
I1
I0
g641
tp900
a(I287
I5
F0.625
g12
tp901
a(I289
I0
F0.25
g14
tp902
a(I289
I0
F0.875
g16
tp903
a(I296
I10
F1.0
g18
tp904
a(I395
I8
F-0.875
S'awful'
p905
tp906
a(I427
I2
I0
g646
tp907
as(S'ir'
p908
S'customer'
p909
S'service'
p910
tp911
(lp912
(I199
I2
I0
g892
tp913
a(I239
I9
F1.0
g639
tp914
a(I279
I0
F-0.875
g898
tp915
as(S'cost'
p916
tp917
(lp918
(I11
I1
F0.25
S'effective'
p919
tp920
a(I70
I0
F-0.5
S'sure'
p921
tp922
a(I70
I0
F0.25
S'effective'
p923
tp924
a(I70
I1
F0.25
S'effective'
p925
tp926
a(I95
I5
I0
S'great'
p927
tp928
a(I95
I5
F-0.25
S'low'
p929
tp930
a(I95
I6
F-0.25
S'lower'
p931
tp932
a(I221
I7
F-0.25
S'potential'
p933
tp934
a(I240
I3
F-0.25
S'lowest'
p935
tp936
a(I287
I3
F0.375
S'much'
p937
tp938
a(I291
I0
F1.0
S'good'
p939
tp940
a(I300
I2
F-0.25
S'low'
p941
tp942
a(I326
I2
F0.25
S'effective'
p943
tp944
a(I443
I1
F0.375
S'extra'
p945
tp946
as(S'double'
p947
S'or'
p948
S'triple'
p949
tp950
(lp951
(I28
I7
F-0.375
g126
tp952
a(I58
I5
F-0.375
g128
tp953
a(I108
I5
F-0.375
g134
tp954
a(I244
I3
F-0.375
g142
tp955
a(I368
I8
F-0.375
g156
tp956
as(S'went'
p957
S'to'
p958
S'tracfone'
p959
tp960
(lp961
(I112
I4
I0
S'website'
p962
tp963
as(S'problem'
p964
tp965
(lp966
(I3
I6
F0.125
S'first'
p967
tp968
a(I282
I7
I0
S'same'
p969
tp970
a(I409
I7
F0.125
S'first'
p971
tp972
as(S'tracfone'
p973
S'service'
p974
tp975
(lp976
(I3
I4
I0
S'more'
p977
tp978
a(I4
I2
F1.0
S'best'
p979
tp980
a(I21
I0
I0
S'standard'
p981
tp982
a(I68
I1
F0.625
S'perfect'
p983
tp984
a(I78
I0
I0
S'adequate'
p985
tp986
a(I78
I7
I0
S'current'
p987
tp988
a(I95
I7
F0.25
g884
tp989
a(I95
I7
F0.25
g886
tp990
a(I95
I7
F0.5
S'second'
p991
tp992
a(I104
I4
F0.125
S'last'
p993
tp994
a(I107
I6
I0
g715
tp995
a(I127
I1
I0
S'one-year'
p996
tp997
a(I127
I1
F0.625
S'convenient'
p998
tp999
a(I152
I4
F0.125
S'first'
p1000
tp1001
a(I171
I0
I0
S'current'
p1002
tp1003
a(I240
I4
F1.0
S'good'
p1004
tp1005
a(I288
I9
F0.875
S'happy'
p1006
tp1007
a(I289
I0
I0
S'fast'
p1008
tp1009
a(I289
I0
F0.25
g14
tp1010
a(I289
I0
F0.375
S'complete'
p1011
tp1012
a(I289
I0
F0.875
g16
tp1013
a(I291
I11
F-0.625
S'sporadic'
p1014
tp1015
a(I293
I1
F-0.875
S'worst'
p1016
tp1017
a(I301
I10
F1.0
S'good'
p1018
tp1019
a(I310
I4
I0
S'website'
p1020
tp1021
a(I316
I1
F0.125
S'enough'
p1022
tp1023
a(I381
I2
F-0.25
S'past'
p1024
tp1025
a(I395
I8
F-0.875
g905
tp1026
a(I399
I2
I0
S'same'
p1027
tp1028
a(I399
I2
F-0.375
S'yearly'
p1029
tp1030
a(I407
I4
F0.125
S'able'
p1031
tp1032
a(I443
I0
F0.375
S'new'
p1033
tp1034
as(S'year'
p1035
S'service'
p1036
S'card'
p1037
tp1038
(lp1039
(I54
I8
I0
g767
tp1040
a(I54
I8
F0.5
g769
tp1041
a(I58
I2
F1.0
g773
tp1042
a(I78
I2
F0.125
g242
tp1043
a(I127
I1
I0
g996
tp1044
a(I407
I4
I0
g861
tp1045
a(I418
I0
F0.875
S'happy'
p1046
tp1047
a(I418
I0
F1.0
S'good'
p1048
tp1049
a(I437
I0
I0
g871
tp1050
a(I440
I6
F-0.5
g873
tp1051
a(I443
I0
F-0.5
g875
tp1052
as(S'price'
p1053
tp1054
(lp1055
(I9
I6
I0
S'same'
p1056
tp1057
a(I16
I1
F-0.5
S'less'
p1058
tp1059
a(I20
I0
F1.0
g86
tp1060
a(I24
I11
F-0.25
S'lower'
p1061
tp1062
a(I24
I11
F-0.125
S'front'
p1063
tp1064
a(I26
I1
F1.0
g88
tp1065
a(I40
I0
I0
S'great'
p1066
tp1067
a(I40
I0
F0.625
S'easy'
p1068
tp1069
a(I43
I1
F1.0
g90
tp1070
a(I47
I0
I0
S'great'
p1071
tp1072
a(I48
I1
F-0.5
S'regular'
p1073
tp1074
a(I48
I1
I0
S'great'
p1075
tp1076
a(I50
I0
F1.0
S'good'
p1077
tp1078
a(I51
I1
F1.0
S'good'
p1079
tp1080
a(I60
I1
F-0.25
g92
tp1081
a(I62
I0
I0
S'same'
p1082
tp1083
a(I64
I0
F1.0
g94
tp1084
a(I73
I0
F1.0
S'good'
p1085
tp1086
a(I75
I1
F-0.25
S'low'
p1087
tp1088
a(I78
I3
I0
S'great'
p1089
tp1090
a(I84
I2
F1.0
S'good'
p1091
tp1092
a(I103
I3
I0
S'standard'
p1093
tp1094
a(I103
I3
I0
S'annual'
p1095
tp1096
a(I127
I1
F-0.25
S'cheaper'
p1097
tp1098
a(I143
I1
F1.0
g96
tp1099
a(I151
I0
F0.125
S'usual'
p1100
tp1101
a(I182
I2
F-0.75
S'modest'
p1102
tp1103
a(I184
I2
F-0.25
S'higher'
p1104
tp1105
a(I195
I0
F1.0
g98
tp1106
a(I201
I2
F-0.25
S'lowest'
p1107
tp1108
a(I201
I2
F0.375
S'available'
p1109
tp1110
a(I205
I0
F1.0
S'good'
p1111
tp1112
a(I213
I1
F1.0
g100
tp1113
a(I236
I0
F1.0
S'good'
p1114
tp1115
a(I238
I1
F1.0
g102
tp1116
a(I272
I1
F-0.25
S'lower'
p1117
tp1118
a(I275
I0
F1.0
g104
tp1119
a(I280
I4
F-0.5
S'less'
p1120
tp1121
a(I287
I9
F1.0
S'good'
p1122
tp1123
a(I288
I3
I0
S'great'
p1124
tp1125
a(I295
I1
F1.0
S'good'
p1126
tp1127
a(I296
I1
F1.0
g106
tp1128
a(I300
I2
I0
S'retail'
p1129
tp1130
a(I305
I0
F1.0
S'good'
p1131
tp1132
a(I305
I0
F0.125
S'impressive'
p1133
tp1134
a(I311
I0
I0
S'great'
p1135
tp1136
a(I311
I0
F0.25
S'suppose'
p1137
tp1138
a(I312
I0
F1.0
S'good'
p1139
tp1140
a(I315
I0
F1.0
g108
tp1141
a(I328
I1
I0
S'more'
p1142
tp1143
a(I328
I1
I0
S'even'
p1144
tp1145
a(I328
I1
F-0.25
S'low'
p1146
tp1147
a(I331
I0
F1.0
S'good'
p1148
tp1149
a(I331
I0
I0
S'same'
p1150
tp1151
a(I338
I1
F1.0
S'better'
p1152
tp1153
a(I343
I0
I0
S'website'
p1154
tp1155
a(I352
I1
F1.0
g110
tp1156
a(I359
I1
I0
S'same'
p1157
tp1158
a(I365
I2
F-0.25
S'lowest'
p1159
tp1160
a(I372
I2
I0
S'great'
p1161
tp1162
a(I374
I3
F1.0
S'good'
p1163
tp1164
a(I374
I3
F-0.5
S'sure'
p1165
tp1166
a(I375
I0
F1.0
S'good'
p1167
tp1168
a(I395
I7
F-0.25
S'lower'
p1169
tp1170
a(I395
I7
I0
S'full'
p1171
tp1172
a(I395
I8
I0
S'full'
p1173
tp1174
a(I399
I2
F-0.5
S'less'
p1175
tp1176
a(I400
I1
F-0.5
S'less'
p1177
tp1178
a(I403
I0
F-0.5
S'regular'
p1179
tp1180
a(I411
I2
I0
S'same'
p1181
tp1182
a(I411
I5
F-0.5
S'less'
p1183
tp1184
a(I411
I14
F1.0
g112
tp1185
a(I412
I0
F1.0
g114
tp1186
a(I430
I0
F1.0
g116
tp1187
a(I431
I0
F1.0
g118
tp1188
a(I441
I0
F1.0
S'good'
p1189
tp1190
as(S'service'
p1191
S'400'
p1192
S'minutes'
p1193
tp1194
(lp1195
(I44
I2
I0
g711
tp1196
a(I101
I2
I0
g132
tp1197
a(I226
I1
F-0.375
g297
tp1198
a(I226
I1
F-0.375
g299
tp1199
a(I257
I4
F-0.375
g303
tp1200
a(I268
I0
F0.375
g146
tp1201
a(I289
I0
F0.25
g14
tp1202
a(I289
I0
I0
g308
tp1203
a(I289
I0
F-0.75
g310
tp1204
a(I289
I0
F0.875
g16
tp1205
a(I323
I5
F-0.375
g152
tp1206
a(I323
I5
F-0.25
g154
tp1207
a(I381
I0
F-0.375
g324
tp1208
a(I437
I0
F-0.625
g326
tp1209
a(I443
I0
I0
g328
tp1210
as(S'service'
p1211
tp1212
(lp1213
(I1
I12
I0
S'real'
p1214
tp1215
a(I17
I1
F1.0
S'good'
p1216
tp1217
a(I44
I2
I0
g711
tp1218
a(I52
I1
F-0.5
g713
tp1219
a(I68
I1
F0.625
g983
tp1220
a(I78
I0
I0
g985
tp1221
a(I78
I7
I0
g987
tp1222
a(I95
I7
F0.25
g884
tp1223
a(I95
I7
F0.25
g886
tp1224
a(I107
I6
I0
g715
tp1225
a(I127
I1
I0
g996
tp1226
a(I129
I1
F-0.125
g888
tp1227
a(I162
I0
F0.5
g719
tp1228
a(I193
I3
F-0.5
S'less'
p1229
tp1230
a(I199
I2
I0
g892
tp1231
a(I201
I0
F0.625
S'easy'
p1232
tp1233
a(I211
I1
F-0.5
g721
tp1234
a(I230
I0
F0.625
S'convenient'
p1235
tp1236
a(I240
I4
F1.0
g1004
tp1237
a(I267
I1
F-0.75
g896
tp1238
a(I279
I0
F-0.875
g898
tp1239
a(I287
I5
F0.625
g12
tp1240
a(I288
I9
F0.875
g1006
tp1241
a(I289
I0
F0.25
g14
tp1242
a(I289
I0
F0.875
g16
tp1243
a(I291
I11
F-0.625
g1014
tp1244
a(I301
I10
F1.0
g1018
tp1245
a(I318
I1
F0.125
S'last'
p1246
tp1247
a(I321
I2
I0
S'great'
p1248
tp1249
a(I341
I8
I0
S'more'
p1250
tp1251
a(I353
I0
F0.25
S'helpful'
p1252
tp1253
a(I354
I0
I0
S'great'
p1254
tp1255
a(I354
I2
I0
S'more'
p1256
tp1257
a(I395
I8
F-0.875
g905
tp1258
a(I399
I2
I0
g1027
tp1259
a(I399
I2
F-0.375
g1029
tp1260
a(I405
I0
I0
S'quick'
p1261
tp1262
as(S'400'
p1263
S'minute'
p1264
S'card'
p1265
tp1266
(lp1267
(I102
I6
F-0.375
g5
tp1268
a(I245
I3
F0.125
g825
tp1269
a(I407
I4
I0
g861
tp1270
a(I437
I0
I0
g871
tp1271
a(I443
I0
F-0.5
g875
tp1272
as(g205
S'one'
p1273
S'year'
p1274
tp1275
(lp1276
(I53
I0
F0.5
g240
tp1277
a(I78
I2
F0.125
g242
tp1278
a(I115
I4
F0.5
g244
tp1279
a(I120
I0
I0
g210
tp1280
a(I128
I1
F-0.5
g247
tp1281
a(I135
I2
I0
g249
tp1282
a(I137
I0
I0
g251
tp1283
a(I146
I0
I0
g253
tp1284
a(I150
I3
I0
g212
tp1285
a(I153
I1
F0.125
g256
tp1286
a(I155
I0
I0
g258
tp1287
a(I165
I4
I0
g214
tp1288
a(I166
I0
I0
g216
tp1289
a(I170
I19
I0
g262
tp1290
a(I207
I5
I0
g264
tp1291
a(I213
I0
I0
g266
tp1292
a(I255
I1
I0
g220
tp1293
a(I291
I4
F0.125
g222
tp1294
a(I301
I4
I0
g224
tp1295
a(I348
I5
I0
g232
tp1296
a(I350
I3
I0
g234
tp1297
a(I358
I0
I0
g273
tp1298
a(I398
I2
F0.375
g275
tp1299
a(I420
I1
I0
g277
tp1300
a(I442
I1
F-0.875
g279
tp1301
as(S'number'
p1302
tp1303
(lp1304
(I24
I4
F-0.75
S'wrong'
p1305
tp1306
a(I106
I1
I0
S'same'
p1307
tp1308
a(I106
I1
I0
S'same'
p1309
tp1310
a(I395
I5
I0
S'great'
p1311
tp1312
a(I422
I2
I0
S'active'
p1313
tp1314
as(S'need'
p1315
tp1316
(lp1317
(I231
I1
F0.375
S'much'
p1318
tp1319
as(S'tracfone'
p1320
S'website'
p1321
tp1322
(lp1323
(I34
I3
I0
S'website'
p1324
tp1325
a(I108
I2
I0
S'website'
p1326
tp1327
a(I112
I4
I0
g962
tp1328
a(I130
I4
F0.625
S'easy'
p1329
tp1330
a(I310
I4
I0
g1020
tp1331
a(I319
I2
I0
S'same'
p1332
tp1333
a(I343
I3
F-0.5
S'sure'
p1334
tp1335
as(g205
S'good'
p1336
S'price'
p1337
tp1338
(lp1339
(I40
I0
I0
g1066
tp1340
a(I40
I0
F0.625
g1068
tp1341
a(I50
I0
F1.0
g1077
tp1342
a(I51
I1
F1.0
g1079
tp1343
a(I73
I0
F1.0
g1085
tp1344
a(I84
I2
F1.0
g1091
tp1345
a(I205
I0
F1.0
g1111
tp1346
a(I236
I0
F1.0
g1114
tp1347
a(I287
I9
F1.0
g1122
tp1348
a(I295
I1
F1.0
g1126
tp1349
a(I305
I0
F1.0
g1131
tp1350
a(I305
I0
F0.125
g1133
tp1351
a(I312
I0
F1.0
g1139
tp1352
a(I331
I0
F1.0
g1148
tp1353
a(I331
I0
I0
g1150
tp1354
a(I374
I3
F1.0
g1163
tp1355
a(I374
I3
F-0.5
g1165
tp1356
a(I375
I0
F1.0
g1167
tp1357
a(I431
I0
F1.0
g118
tp1358
a(I441
I0
F1.0
g1189
tp1359
as(S'website'
p1360
tp1361
(lp1362
(I130
I4
F0.625
g1329
tp1363
a(I343
I3
F-0.5
g1334
tp1364
as(S'product'
p1365
tp1366
(lp1367
(I90
I0
F0.625
S'correct'
p1368
tp1369
a(I94
I2
F0.625
S'easy'
p1370
tp1371
a(I135
I0
I0
S'same'
p1372
tp1373
a(I163
I5
I0
S'great'
p1374
tp1375
a(I242
I0
I0
S'fast'
p1376
tp1377
a(I336
I1
I0
S'great'
p1378
tp1379
a(I377
I0
I0
S'great'
p1380
tp1381
a(I405
I0
F1.0
S'good'
p1382
tp1383
as(S'to'
p1384
S'add'
p1385
S'minutes'
p1386
tp1387
(lp1388
(I6
I0
F-0.375
g417
tp1389
a(I31
I1
F0.125
S'able'
p1390
tp1391
a(I31
I1
I0
S'least'
p1392
tp1393
a(I31
I1
F-0.625
S'free'
p1394
tp1395
a(I50
I2
F-0.625
S'free'
p1396
tp1397
a(I50
I2
F-0.625
S'free'
p1398
tp1399
a(I68
I5
F0.375
S'new'
p1400
tp1401
a(I71
I1
I0
g130
tp1402
a(I74
I1
I0
S'website'
p1403
tp1404
a(I101
I2
I0
g132
tp1405
a(I107
I5
I0
S'total'
p1406
tp1407
a(I108
I5
F-0.375
g136
tp1408
a(I141
I2
I0
S'total'
p1409
tp1410
a(I186
I4
F-0.375
g451
tp1411
a(I221
I1
F0.625
S'add'
p1412
tp1413
a(I226
I1
F-0.375
g297
tp1414
a(I226
I1
F-0.375
g299
tp1415
a(I268
I0
F0.375
g146
tp1416
a(I275
I2
F0.375
S'extra'
p1417
tp1418
a(I275
I3
I0
S'more'
p1419
tp1420
a(I289
I0
I0
g308
tp1421
a(I289
I0
F-0.75
g310
tp1422
a(I296
I8
F-0.375
g371
tp1423
a(I340
I0
F0.625
S'easy'
p1424
tp1425
a(I369
I1
F0.625
S'easy'
p1426
tp1427
a(I377
I1
F0.625
S'easy'
p1428
tp1429
a(I411
I7
F-0.375
g493
tp1430
a(I421
I1
F-0.375
g495
tp1431
a(I424
I3
F-0.375
g386
tp1432
a(I424
I3
I0
g388
tp1433
a(I437
I0
F-0.625
g326
tp1434
as(S'tracfone'
p1435
tp1436
(lp1437
(I3
I4
I0
g977
tp1438
a(I3
I6
F0.375
S'significant'
p1439
tp1440
a(I4
I2
F1.0
g979
tp1441
a(I21
I0
I0
g981
tp1442
a(I22
I0
F0.5
S'true'
p1443
tp1444
a(I28
I4
I0
S'great'
p1445
tp1446
a(I34
I3
I0
g1324
tp1447
a(I38
I0
F-0.25
S'cheaper'
p1448
tp1449
a(I40
I0
F1.0
S'good'
p1450
tp1451
a(I48
I0
F0.875
S'happy'
p1452
tp1453
a(I58
I4
F0.375
S'new'
p1454
tp1455
a(I67
I1
I0
S'site'
p1456
tp1457
a(I78
I4
F-0.5
S'actual'
p1458
tp1459
a(I78
I4
F-0.625
S'green'
p1460
tp1461
a(I78
I4
I0
S'blue'
p1462
tp1463
a(I95
I7
F0.5
g991
tp1464
a(I104
I4
F0.125
g993
tp1465
a(I108
I2
I0
g1326
tp1466
a(I109
I3
F0.375
S'new'
p1467
tp1468
a(I112
I4
I0
g962
tp1469
a(I113
I4
F-0.625
S'unusual'
p1470
tp1471
a(I113
I5
F-0.5
S'international'
p1472
tp1473
a(I118
I0
F-0.25
S'cheapest'
p1474
tp1475
a(I119
I0
F-0.5
S'actual'
p1476
tp1477
a(I127
I1
F0.625
g998
tp1478
a(I144
I0
F0.75
S'ideal'
p1479
tp1480
a(I152
I0
F0.5
S'loyal'
p1481
tp1482
a(I152
I4
F0.125
g1000
tp1483
a(I160
I0
I0
S'many'
p1484
tp1485
a(I167
I2
I0
S'promotional'
p1486
tp1487
a(I167
I3
F0.375
S'newer'
p1488
tp1489
a(I171
I0
I0
g1002
tp1490
a(I179
I1
F-0.25
S'inexpensive'
p1491
tp1492
a(I183
I0
F0.375
S'new'
p1493
tp1494
a(I211
I3
I0
S'great'
p1495
tp1496
a(I216
I1
F1.0
S'good'
p1497
tp1498
a(I223
I0
F0.25
S'recent'
p1499
tp1500
a(I225
I1
F0.625
S'easy'
p1501
tp1502
a(I235
I4
I0
S'site'
p1503
tp1504
a(I244
I0
F0.375
S'new'
p1505
tp1506
a(I270
I1
F-0.5
S'actual'
p1507
tp1508
a(I275
I0
F0.125
S'first'
p1509
tp1510
a(I289
I0
I0
g1008
tp1511
a(I289
I0
F0.375
g1011
tp1512
a(I293
I1
F-0.875
g1016
tp1513
a(I293
I16
F0.5
S'told'
p1514
tp1515
a(I296
I2
F-0.5
S'actual'
p1516
tp1517
a(I310
I4
I0
g1020
tp1518
a(I310
I5
F0.125
S'able'
p1519
tp1520
a(I315
I2
F-0.5
S'actual'
p1521
tp1522
a(I316
I1
F0.125
g1022
tp1523
a(I319
I2
I0
g1332
tp1524
a(I366
I0
F0.625
S'easy'
p1525
tp1526
a(I381
I2
F-0.25
g1024
tp1527
a(I386
I0
F-0.25
S'direct'
p1528
tp1529
a(I407
I4
F0.125
g1031
tp1530
a(I408
I0
F-0.5
S'actual'
p1531
tp1532
a(I419
I0
F-0.5
S'regular'
p1533
tp1534
a(I419
I4
I0
S'fr'
p1535
tp1536
a(I419
I5
F-0.5
S'long'
p1537
tp1538
a(I436
I9
I0
S'only'
p1539
tp1540
a(I439
I0
F0.875
S'nice'
p1541
tp1542
a(I443
I0
F0.375
g1033
tp1543
as(g205
S'great'
p1544
S'value'
p1545
tp1546
(lp1547
(I0
I5
I0
S'great'
p1548
tp1549
a(I26
I3
I0
S'great'
p1550
tp1551
a(I31
I2
I0
S'great'
p1552
tp1553
a(I173
I1
I0
S'great'
p1554
tp1555
a(I312
I0
I0
S'great'
p1556
tp1557
a(I340
I1
I0
S'great'
p1558
tp1559
a(I352
I0
I0
S'great'
p1560
tp1561
a(I425
I0
I0
S'great'
p1562
tp1563
as(S'have'
p1564
S'double'
p1565
S'minutes'
p1566
tp1567
(lp1568
(I6
I0
F-0.375
g417
tp1569
a(I21
I1
F0.875
g419
tp1570
a(I21
I1
F-0.375
g421
tp1571
a(I102
I6
F-0.375
g291
tp1572
a(I112
I5
F-0.375
g351
tp1573
a(I156
I2
F-0.375
g447
tp1574
a(I226
I1
F-0.375
g297
tp1575
a(I226
I1
F-0.375
g299
tp1576
a(I235
I5
F-0.375
g456
tp1577
a(I255
I1
F-0.375
g461
tp1578
a(I255
I1
I0
g463
tp1579
a(I270
I2
F-0.375
g367
tp1580
a(I298
I1
I0
g373
tp1581
a(I298
I1
F-0.375
g375
tp1582
a(I323
I5
F-0.375
g152
tp1583
a(I323
I5
F-0.25
g154
tp1584
a(I352
I1
F-0.375
g485
tp1585
a(I411
I7
F-0.375
g493
tp1586
a(I436
I1
F-0.375
g499
tp1587
as(S'adding'
p1588
S'minutes'
p1589
tp1590
(lp1591
(I226
I1
F-0.375
g297
tp1592
a(I226
I1
F-0.375
g299
tp1593
as(S'for'
p1594
S'one'
p1595
S'year'
p1596
tp1597
(lp1598
(I53
I0
F0.5
g240
tp1599
a(I115
I4
F0.5
g244
tp1600
a(I120
I0
I0
g210
tp1601
a(I135
I2
I0
g249
tp1602
a(I146
I0
I0
g253
tp1603
a(I150
I3
I0
g212
tp1604
a(I155
I0
I0
g258
tp1605
a(I166
I0
I0
g216
tp1606
a(I213
I0
I0
g266
tp1607
a(I255
I1
I0
g220
tp1608
a(I348
I5
I0
g232
tp1609
a(I358
I0
I0
g273
tp1610
a(I398
I2
F0.375
g275
tp1611
a(I420
I1
I0
g277
tp1612
a(I442
I1
F-0.875
g279
tp1613
as(S'month'
p1614
tp1615
(lp1616
(I31
I3
F0.125
S'first'
p1617
tp1618
a(I54
I7
I0
S'least'
p1619
tp1620
a(I54
I7
F0.5
S'expensive'
p1621
tp1622
a(I54
I7
F-0.5
S'less'
p1623
tp1624
a(I77
I0
F-0.5
S'less'
p1625
tp1626
a(I141
I3
F-0.75
S'sufficient'
p1627
tp1628
a(I199
I5
F-0.625
S'bad'
p1629
tp1630
as(S'piece'
p1631
tp1632
(lp1633
(I90
I0
I0
S'printed'
p1634
tp1635
a(I102
I2
F0.125
S'nondescript'
p1636
tp1637
a(I150
I4
F-0.75
S'single'
p1638
tp1639
as(S'order'
p1640
tp1641
(lp1642
(I112
I3
F-0.25
S'late'
p1643
tp1644
a(I172
I2
I0
S'great'
p1645
tp1646
a(I172
I2
F0.125
S'able'
p1647
tp1648
a(I173
I0
F0.625
S'easy'
p1649
tp1650
a(I235
I15
F-0.75
S'short'
p1651
tp1652
as(S'money'
p1653
tp1654
(lp1655
(I140
I0
I0
S'own'
p1656
tp1657
a(I178
I0
F-0.75
S'little'
p1658
tp1659
a(I327
I0
I0
S'great'
p1660
tp1661
a(I329
I0
F0.75
S'worth'
p1662
tp1663
a(I381
I3
F-0.5
S'less'
p1664
tp1665
as(S'time'
p1666
S'and'
p1667
S'minutes'
p1668
tp1669
(lp1670
(I6
I0
F-0.375
g417
tp1671
a(I38
I1
F0.125
S'first'
p1672
tp1673
a(I111
I3
I0
S'more'
p1674
tp1675
a(I156
I1
F0.125
S'first'
p1676
tp1677
a(I156
I1
F-0.375
g445
tp1678
a(I250
I1
I0
S'third'
p1679
tp1680
a(I275
I2
F0.375
g1417
tp1681
a(I275
I3
I0
g1419
tp1682
a(I347
I5
F-0.375
g381
tp1683
a(I406
I0
F0.125
S'first'
p1684
tp1685
a(I424
I3
F-0.375
g386
tp1686
a(I424
I3
I0
g388
tp1687
a(I437
I0
F-0.625
g326
tp1688
as(S'got'
p1689
S'double'
p1690
S'minutes'
p1691
tp1692
(lp1693
(I6
I0
F-0.375
g417
tp1694
a(I38
I2
F-0.375
g343
tp1695
a(I102
I6
F-0.375
g291
tp1696
a(I134
I1
F-0.375
g353
tp1697
a(I154
I2
F-0.375
g441
tp1698
a(I154
I2
F0.375
g443
tp1699
a(I226
I1
F-0.375
g297
tp1700
a(I226
I1
F-0.375
g299
tp1701
a(I266
I2
F-0.375
g365
tp1702
a(I341
I15
F-0.375
g316
tp1703
a(I341
I15
I0
g318
tp1704
a(I424
I3
F-0.375
g386
tp1705
a(I424
I3
I0
g388
tp1706
as(S'n'
p1707
g205
S'store'
p1708
tp1709
(lp1710
(I12
I2
I0
g661
tp1711
a(I12
I2
F1.0
g663
tp1712
a(I82
I3
I0
g665
tp1713
a(I133
I0
F-0.25
g667
tp1714
a(I383
I0
F-0.25
g669
tp1715
a(I395
I6
I0
g671
tp1716
a(I434
I0
I0
g673
tp1717
as(S'year'
p1718
S'service'
p1719
tp1720
(lp1721
(I44
I2
I0
g711
tp1722
a(I52
I1
F-0.5
g713
tp1723
a(I78
I2
F0.125
g242
tp1724
a(I107
I6
I0
g715
tp1725
a(I120
I0
I0
g210
tp1726
a(I127
I1
I0
g996
tp1727
a(I128
I1
F-0.5
g247
tp1728
a(I135
I2
I0
g249
tp1729
a(I162
I0
F0.5
g719
tp1730
a(I193
I3
F-0.5
g1229
tp1731
a(I201
I0
F0.625
g1232
tp1732
a(I211
I1
F-0.5
g721
tp1733
a(I255
I1
I0
g220
tp1734
a(I288
I7
I0
g724
tp1735
a(I288
I9
F0.875
g1006
tp1736
a(I289
I0
F0.25
g14
tp1737
a(I289
I0
F0.875
g16
tp1738
a(I291
I4
F0.125
g222
tp1739
a(I341
I17
F0.375
g727
tp1740
a(I348
I5
I0
g232
tp1741
a(I350
I3
I0
g234
tp1742
a(I353
I0
F0.25
g1252
tp1743
a(I398
I2
F0.375
g275
tp1744
a(I399
I2
I0
g1027
tp1745
a(I399
I2
F-0.375
g1029
tp1746
a(I418
I0
F0.875
g1046
tp1747
a(I418
I0
F1.0
g1048
tp1748
a(I442
I1
F-0.875
g279
tp1749
as(S'cheaper'
p1750
S'than'
p1751
S'buying'
p1752
tp1753
(lp1754
(I8
I0
F0.375
S'much'
p1755
tp1756
a(I8
I0
F-0.375
S'smaller'
p1757
tp1758
a(I377
I0
I0
S'considerable'
p1759
tp1760
as(g205
S'promo'
p1761
S'code'
p1762
tp1763
(lp1764
(I22
I2
I0
g67
tp1765
a(I47
I2
F-0.5
g69
tp1766
a(I54
I2
I0
S'total'
p1767
tp1768
a(I71
I1
I0
S'promotional'
p1769
tp1770
a(I102
I3
F1.0
g71
tp1771
a(I154
I2
I0
S'promotional'
p1772
tp1773
a(I288
I4
F-0.5
g73
tp1774
as(S'fine'
p1775
tp1776
(lp1777
(I273
I4
F-0.625
g80
tp1778
as(S'minute'
p1779
tp1780
(lp1781
(I102
I6
F-0.375
g5
tp1782
a(I109
I2
F-0.5
S'less'
p1783
tp1784
a(I113
I8
I0
g604
tp1785
a(I113
I8
F-0.375
g606
tp1786
a(I126
I1
F-0.375
S'double'
p1787
tp1788
a(I140
I3
F-0.25
S'higher'
p1789
tp1790
a(I140
I3
F-0.625
S'other'
p1791
tp1792
a(I170
I15
F-0.5
S'less'
p1793
tp1794
a(I212
I1
F0.625
S'easy'
p1795
tp1796
a(I219
I3
I0
S'own'
p1797
tp1798
a(I232
I3
F-0.375
S'double'
p1799
tp1800
a(I275
I3
F0.625
S'easy'
p1801
tp1802
a(I275
I3
F-0.5
S'less'
p1803
tp1804
a(I281
I0
F-0.375
S'double'
p1805
tp1806
a(I440
I6
F0.5
S'expensive'
p1807
tp1808
as(g206
S'year'
p1809
tp1810
(lp1811
(I120
I0
I0
g210
tp1812
a(I150
I3
I0
g212
tp1813
a(I165
I4
I0
g214
tp1814
a(I166
I0
I0
g216
tp1815
a(I230
I1
F-0.625
g218
tp1816
a(I255
I1
I0
g220
tp1817
a(I291
I4
F0.125
g222
tp1818
a(I301
I4
I0
g224
tp1819
a(I322
I5
F0.125
g226
tp1820
a(I322
I5
F0.125
g228
tp1821
a(I341
I0
F0.125
g230
tp1822
a(I348
I5
I0
g232
tp1823
a(I350
I3
I0
g234
tp1824
as(S'bonus'
p1825
tp1826
(lp1827
(I245
I1
F0.625
g524
tp1828
a(I367
I4
F0.75
g530
tp1829
a(I370
I5
F0.625
S'aware'
p1830
tp1831
a(I370
I5
I0
S'active'
p1832
tp1833
as(S'online'
p1834
tp1835
(lp1836
(I95
I9
F0.125
S'able'
p1837
tp1838
a(I239
I10
F-0.5
S'certain'
p1839
tp1840
a(I239
I10
F-0.625
S'other'
p1841
tp1842
a(I287
I9
F0.875
S'nice'
p1843
tp1844
a(I399
I1
I0
S'enter'
p1845
tp1846
as(S'airtime'
p1847
tp1848
(lp1849
(I68
I4
F-0.375
g54
tp1850
a(I144
I3
F0.75
S'receive'
p1851
tp1852
a(I170
I5
F0.625
g56
tp1853
a(I170
I5
F-0.375
g58
tp1854
a(I311
I0
F0.375
S'much'
p1855
tp1856
a(I339
I0
F0.625
g60
tp1857
a(I347
I3
F0.125
S'valid'
p1858
tp1859
a(I424
I3
F0.625
g62
tp1860
as(S'per'
p1861
S'month'
p1862
tp1863
(lp1864
(I347
I1
F0.5
S'expensive'
p1865
tp1866
as(g206
S'year'
p1867
S'service'
p1868
tp1869
(lp1870
(I44
I2
I0
g711
tp1871
a(I52
I1
F-0.5
g713
tp1872
a(I107
I6
I0
g715
tp1873
a(I120
I0
I0
g210
tp1874
a(I193
I3
F-0.5
g1229
tp1875
a(I201
I0
F0.625
g1232
tp1876
a(I211
I1
F-0.5
g721
tp1877
a(I255
I1
I0
g220
tp1878
a(I289
I0
F0.25
g14
tp1879
a(I289
I0
F0.875
g16
tp1880
a(I291
I4
F0.125
g222
tp1881
a(I348
I5
I0
g232
tp1882
a(I350
I3
I0
g234
tp1883
as(S'paper'
p1884
tp1885
(lp1886
(I145
I2
F-0.25
S'white'
p1887
tp1888
a(I419
I5
F-0.5
S'aside'
p1889
tp1890
as(S'tracfone'
p1891
S'card'
p1892
tp1893
(lp1894
(I21
I0
I0
g981
tp1895
a(I22
I0
F0.5
g1443
tp1896
a(I26
I0
I0
g753
tp1897
a(I29
I0
F0.625
g759
tp1898
a(I48
I0
F0.875
g1452
tp1899
a(I54
I8
I0
g767
tp1900
a(I54
I8
F0.5
g769
tp1901
a(I78
I4
F-0.5
g1458
tp1902
a(I78
I4
F-0.625
g1460
tp1903
a(I78
I4
I0
g1462
tp1904
a(I78
I4
F-0.375
g781
tp1905
a(I95
I7
F-0.75
g785
tp1906
a(I95
I7
F0.5
g787
tp1907
a(I95
I7
F0.5
g991
tp1908
a(I109
I0
I0
g793
tp1909
a(I109
I0
F0.5
g795
tp1910
a(I112
I4
I0
g962
tp1911
a(I119
I0
F-0.5
g1476
tp1912
a(I127
I1
F0.625
g998
tp1913
a(I148
I1
I0
g799
tp1914
a(I167
I3
F0.375
g1488
tp1915
a(I202
I8
I0
g813
tp1916
a(I223
I0
F0.25
g1499
tp1917
a(I235
I4
I0
g1503
tp1918
a(I244
I0
F0.375
g1505
tp1919
a(I270
I1
F-0.5
g1507
tp1920
a(I275
I0
F0.125
g1509
tp1921
a(I283
I0
F0.375
g831
tp1922
a(I296
I2
F-0.5
g1516
tp1923
a(I310
I4
F0.125
g833
tp1924
a(I310
I4
I0
g1020
tp1925
a(I315
I2
F-0.5
g1521
tp1926
a(I344
I0
I0
g841
tp1927
a(I407
I4
F0.125
g1031
tp1928
a(I407
I4
I0
g861
tp1929
a(I408
I0
F-0.5
g1531
tp1930
a(I419
I5
F-0.5
g1537
tp1931
a(I439
I0
F0.875
g1541
tp1932
a(I443
I0
F-0.5
g875
tp1933
a(I443
I0
F0.375
g1033
tp1934
as(S'minutes'
p1935
tp1936
(lp1937
(I0
I1
F-0.625
S'free'
p1938
tp1939
a(I0
I4
I0
g285
tp1940
a(I0
I4
F0.125
g287
tp1941
a(I0
I5
F0.125
S'last'
p1942
tp1943
a(I4
I1
F-0.375
g414
tp1944
a(I5
I0
F-0.375
g335
tp1945
a(I6
I0
F-0.375
g417
tp1946
a(I16
I0
F0.375
S'much'
p1947
tp1948
a(I21
I1
F0.875
g419
tp1949
a(I21
I1
F-0.375
g421
tp1950
a(I22
I2
F-0.375
g337
tp1951
a(I22
I2
F0.375
g339
tp1952
a(I22
I2
F-0.5
g341
tp1953
a(I28
I6
F-0.375
g124
tp1954
a(I29
I0
F0.375
S'new'
p1955
tp1956
a(I31
I1
F0.125
g1390
tp1957
a(I31
I1
I0
g1392
tp1958
a(I31
I1
F-0.625
g1394
tp1959
a(I31
I3
F-0.375
S'yearly'
p1960
tp1961
a(I35
I1
I0
g427
tp1962
a(I35
I1
F-0.375
g429
tp1963
a(I38
I2
F-0.375
g343
tp1964
a(I40
I0
F0.375
S'extra'
p1965
tp1966
a(I43
I7
F0.125
S'able'
p1967
tp1968
a(I50
I2
F-0.625
g1396
tp1969
a(I50
I2
F-0.625
g1398
tp1970
a(I54
I8
I0
S'more'
p1971
tp1972
a(I54
I9
F-0.375
g345
tp1973
a(I59
I2
F-0.375
g347
tp1974
a(I59
I2
I0
g349
tp1975
a(I59
I3
I0
S'more'
p1976
tp1977
a(I68
I5
F0.375
g1400
tp1978
a(I71
I1
I0
g130
tp1979
a(I74
I1
I0
g1403
tp1980
a(I79
I0
F0.5
S'carried'
p1981
tp1982
a(I101
I2
I0
g132
tp1983
a(I102
I6
F-0.375
g291
tp1984
a(I107
I5
I0
g1406
tp1985
a(I107
I6
F-0.5
S'less'
p1986
tp1987
a(I108
I4
F0.375
S'extra'
p1988
tp1989
a(I108
I5
F-0.375
g136
tp1990
a(I109
I1
F0.625
S'easy'
p1991
tp1992
a(I112
I5
F-0.375
g351
tp1993
a(I118
I1
I0
S'many'
p1994
tp1995
a(I118
I2
F-0.375
g438
tp1996
a(I123
I0
F1.0
g294
tp1997
a(I128
I3
I0
S'many'
p1998
tp1999
a(I134
I1
F-0.375
g353
tp2000
a(I134
I2
I0
S'great'
p2001
tp2002
a(I141
I2
I0
g1409
tp2003
a(I154
I2
F-0.375
g441
tp2004
a(I154
I2
F0.375
g443
tp2005
a(I156
I1
F-0.375
g445
tp2006
a(I156
I2
F-0.375
g447
tp2007
a(I157
I6
I0
S'more'
p2008
tp2009
a(I162
I0
F-0.375
g355
tp2010
a(I165
I1
F-0.375
g357
tp2011
a(I167
I3
F-0.25
g138
tp2012
a(I171
I1
F0.125
S'plenty'
p2013
tp2014
a(I186
I4
F-0.375
g451
tp2015
a(I192
I0
F0.375
g140
tp2016
a(I192
I1
F0.375
S'extra'
p2017
tp2018
a(I192
I1
I0
S'total'
p2019
tp2020
a(I211
I0
F-0.5
S'less'
p2021
tp2022
a(I221
I1
F0.625
g1412
tp2023
a(I221
I4
I0
S'many'
p2024
tp2025
a(I226
I1
F-0.375
g297
tp2026
a(I226
I1
F-0.375
g299
tp2027
a(I230
I1
I0
S'wish'
p2028
tp2029
a(I235
I1
F0.25
S'used'
p2030
tp2031
a(I235
I2
F-0.375
g361
tp2032
a(I235
I5
F-0.375
g456
tp2033
a(I235
I9
I0
S'many'
p2034
tp2035
a(I244
I1
F-0.375
g301
tp2036
a(I254
I1
F-0.375
g459
tp2037
a(I255
I1
F-0.375
g461
tp2038
a(I255
I1
I0
g463
tp2039
a(I257
I4
F-0.375
g303
tp2040
a(I266
I2
F-0.375
g365
tp2041
a(I268
I0
F0.375
g146
tp2042
a(I270
I2
F-0.375
g367
tp2043
a(I275
I0
F-0.375
g306
tp2044
a(I275
I2
F0.375
g1417
tp2045
a(I275
I3
I0
g1419
tp2046
a(I279
I2
I0
S'individual'
p2047
tp2048
a(I279
I2
F0.625
S'hold'
p2049
tp2050
a(I285
I1
F-0.375
g369
tp2051
a(I288
I5
I0
S'total'
p2052
tp2053
a(I289
I0
I0
g308
tp2054
a(I289
I0
F-0.75
g310
tp2055
a(I296
I8
F-0.375
g371
tp2056
a(I298
I1
I0
g373
tp2057
a(I298
I1
F-0.375
g375
tp2058
a(I304
I1
F-0.375
g473
tp2059
a(I307
I1
F0.625
S'easy'
p2060
tp2061
a(I322
I3
F-0.25
g148
tp2062
a(I322
I3
I0
g150
tp2063
a(I323
I5
F-0.375
g152
tp2064
a(I323
I5
F-0.25
g154
tp2065
a(I339
I1
I0
S'few'
p2066
tp2067
a(I340
I0
F0.625
g1424
tp2068
a(I341
I14
F0.375
S'extra'
p2069
tp2070
a(I341
I15
F-0.375
g316
tp2071
a(I341
I15
I0
g318
tp2072
a(I341
I16
F0.375
S'extra'
p2073
tp2074
a(I343
I4
F-0.375
g379
tp2075
a(I345
I1
F0.375
g320
tp2076
a(I346
I1
F0.375
S'extra'
p2077
tp2078
a(I347
I5
F-0.375
g381
tp2079
a(I348
I2
I0
g322
tp2080
a(I349
I1
F-0.375
g481
tp2081
a(I349
I2
F-0.375
g483
tp2082
a(I352
I1
F-0.375
g485
tp2083
a(I353
I0
F-0.375
g487
tp2084
a(I364
I0
F-0.375
g489
tp2085
a(I364
I2
I0
S'least'
p2086
tp2087
a(I364
I2
F0.5
S'expensive'
p2088
tp2089
a(I367
I1
F0.375
S'new'
p2090
tp2091
a(I369
I1
F0.625
g1426
tp2092
a(I374
I2
F0.125
S'able'
p2093
tp2094
a(I374
I2
F0.125
S'last'
p2095
tp2096
a(I376
I2
I0
g158
tp2097
a(I376
I2
F1.0
g160
tp2098
a(I377
I1
F0.625
g1428
tp2099
a(I381
I0
F-0.375
g324
tp2100
a(I384
I1
F-0.375
g384
tp2101
a(I411
I7
F-0.375
g493
tp2102
a(I421
I1
F-0.375
g495
tp2103
a(I424
I3
F-0.375
g386
tp2104
a(I424
I3
I0
g388
tp2105
a(I430
I2
F-0.25
g162
tp2106
a(I436
I1
F-0.375
g499
tp2107
a(I437
I0
F-0.625
g326
tp2108
a(I440
I2
F-0.375
g164
tp2109
a(I441
I1
I0
S'automatic'
p2110
tp2111
a(I441
I2
I0
S'few'
p2112
tp2113
a(I443
I0
I0
g328
tp2114
a(I443
I2
F-0.625
S'average'
p2115
tp2116
a(I443
I7
F-0.375
g502
tp2117
as(g205
S'great'
p2118
S'deal'
p2119
tp2120
(lp2121
(I22
I1
I0
S'great'
p2122
tp2123
a(I46
I2
I0
S'great'
p2124
tp2125
a(I92
I0
I0
S'great'
p2126
tp2127
a(I98
I0
I0
S'great'
p2128
tp2129
a(I106
I0
I0
S'great'
p2130
tp2131
a(I107
I3
I0
S'great'
p2132
tp2133
a(I135
I0
I0
S'great'
p2134
tp2135
a(I141
I3
I0
S'great'
p2136
tp2137
a(I150
I4
I0
S'great'
p2138
tp2139
a(I161
I3
I0
S'great'
p2140
tp2141
a(I165
I6
I0
S'great'
p2142
tp2143
a(I171
I2
I0
S'great'
p2144
tp2145
a(I191
I1
I0
S'great'
p2146
tp2147
a(I194
I0
I0
S'great'
p2148
tp2149
a(I220
I1
I0
S'great'
p2150
tp2151
a(I228
I0
I0
S'great'
p2152
tp2153
a(I257
I2
I0
S'great'
p2154
tp2155
a(I267
I0
I0
S'great'
p2156
tp2157
a(I297
I0
F1.0
g548
tp2158
a(I297
I2
I0
S'great'
p2159
tp2160
a(I298
I2
I0
S'great'
p2161
tp2162
a(I348
I6
I0
S'great'
p2163
tp2164
a(I376
I2
I0
g558
tp2165
a(I391
I3
I0
S'great'
p2166
tp2167
a(I400
I0
I0
S'great'
p2168
tp2169
a(I407
I5
I0
S'great'
p2170
tp2171
a(I433
I0
I0
S'great'
p2172
tp2173
as(S'of'
p2174
S'customer'
p2175
S'service'
p2176
tp2177
(lp2178
(I95
I7
F0.25
g884
tp2179
a(I95
I7
F0.25
g886
tp2180
a(I165
I3
I0
g633
tp2181
a(I165
I3
I0
g635
tp2182
a(I239
I9
F1.0
g639
tp2183
a(I280
I1
I0
g641
tp2184
as(S'and'
p2185
S'400'
p2186
S'minutes'
p2187
tp2188
(lp2189
(I0
I4
I0
g285
tp2190
a(I0
I4
F0.125
g287
tp2191
a(I71
I1
I0
g130
tp2192
a(I101
I2
I0
g132
tp2193
a(I108
I5
F-0.375
g136
tp2194
a(I167
I3
F-0.25
g138
tp2195
a(I226
I1
F-0.375
g297
tp2196
a(I226
I1
F-0.375
g299
tp2197
a(I244
I1
F-0.375
g301
tp2198
a(I257
I4
F-0.375
g303
tp2199
a(I268
I0
F0.375
g146
tp2200
a(I275
I0
F-0.375
g306
tp2201
a(I289
I0
I0
g308
tp2202
a(I289
I0
F-0.75
g310
tp2203
a(I341
I15
F-0.375
g316
tp2204
a(I341
I15
I0
g318
tp2205
a(I437
I0
F-0.625
g326
tp2206
a(I443
I0
I0
g328
tp2207
as(S'minutes'
p2208
S'plus'
p2209
tp2210
(lp2211
(I6
I0
F-0.375
g417
tp2212
a(I22
I2
F-0.375
g337
tp2213
a(I22
I2
F0.375
g339
tp2214
a(I22
I2
F-0.5
g341
tp2215
a(I38
I2
F-0.375
g343
tp2216
a(I54
I8
I0
g1971
tp2217
a(I59
I2
F-0.375
g347
tp2218
a(I59
I2
I0
g349
tp2219
a(I101
I2
I0
g132
tp2220
a(I102
I6
F-0.375
g291
tp2221
a(I141
I2
I0
g1409
tp2222
a(I154
I2
F-0.375
g441
tp2223
a(I154
I2
F0.375
g443
tp2224
a(I266
I2
F-0.375
g365
tp2225
a(I289
I0
I0
g308
tp2226
a(I289
I0
F-0.75
g310
tp2227
a(I298
I1
I0
g373
tp2228
a(I298
I1
F-0.375
g375
tp2229
a(I341
I15
F-0.375
g316
tp2230
a(I341
I15
I0
g318
tp2231
a(I348
I2
I0
g322
tp2232
a(I376
I2
I0
g158
tp2233
a(I376
I2
F1.0
g160
tp2234
as(S'200'
p2235
S'minutes'
p2236
tp2237
(lp2238
(I0
I5
F0.125
g1942
tp2239
a(I31
I1
F0.125
g1390
tp2240
a(I31
I1
I0
g1392
tp2241
a(I31
I1
F-0.625
g1394
tp2242
a(I59
I2
F-0.375
g347
tp2243
a(I59
I2
I0
g349
tp2244
a(I71
I1
I0
g130
tp2245
a(I79
I0
F0.5
g1981
tp2246
a(I101
I2
I0
g132
tp2247
a(I154
I2
F-0.375
g441
tp2248
a(I154
I2
F0.375
g443
tp2249
a(I167
I3
F-0.25
g138
tp2250
a(I186
I4
F-0.375
g451
tp2251
a(I257
I4
F-0.375
g303
tp2252
a(I266
I2
F-0.375
g365
tp2253
a(I268
I0
F0.375
g146
tp2254
a(I275
I2
F0.375
g1417
tp2255
a(I343
I4
F-0.375
g379
tp2256
a(I348
I2
I0
g322
tp2257
a(I430
I2
F-0.25
g162
tp2258
as(S'problems'
p2259
tp2260
(lp2261
(I10
I5
F-0.25
S'potential'
p2262
tp2263
a(I113
I2
I0
S'even'
p2264
tp2265
a(I113
I8
I0
S'few'
p2266
tp2267
a(I296
I4
F-0.375
S'serious'
p2268
tp2269
a(I343
I6
F0.625
S'easy'
p2270
tp2271
a(I388
I3
F0.125
S'first'
p2272
tp2273
as(S'back'
p2274
tp2275
(lp2276
(I132
I1
I0
S'great'
p2277
tp2278
as(g205
S'great'
p2279
S'way'
p2280
tp2281
(lp2282
(I163
I1
I0
S'great'
p2283
tp2284
a(I163
I1
I0
S'monthly'
p2285
tp2286
a(I173
I1
F0.625
S'easy'
p2287
tp2288
a(I187
I1
F0.625
S'easy'
p2289
tp2290
a(I187
I1
I0
S'great'
p2291
tp2292
a(I361
I0
I0
S'great'
p2293
tp2294
a(I412
I1
I0
S'great'
p2295
tp2296
a(I426
I0
I0
S'great'
p2297
tp2298
as(S'days'
p2299
S'of'
p2300
S'service'
p2301
tp2302
(lp2303
(I49
I0
I0
S'later'
p2304
tp2305
a(I54
I8
F0.375
S'extra'
p2306
tp2307
a(I341
I17
I0
S'more'
p2308
tp2309
a(I413
I3
F0.375
S'new'
p2310
tp2311
as(S'life'
p2312
tp2313
(lp2314
(I147
I2
I0
S'most'
p2315
tp2316
a(I242
I2
F-0.375
S'double'
p2317
tp2318
as(S'code'
p2319
tp2320
(lp2321
(I2
I7
F0.125
S'first'
p2322
tp2323
a(I10
I5
F-0.375
S'simple'
p2324
tp2325
a(I10
I5
I0
S'numeric'
p2326
tp2327
a(I54
I2
I0
g1767
tp2328
a(I71
I1
I0
g1769
tp2329
a(I97
I0
I0
S'email'
p2330
tp2331
a(I108
I5
F1.0
S'good'
p2332
tp2333
a(I112
I4
F-0.5
S'less'
p2334
tp2335
a(I146
I0
F0.75
S'receive'
p2336
tp2337
a(I146
I0
I0
S'great'
p2338
tp2339
a(I154
I2
I0
g1772
tp2340
a(I272
I1
F-0.25
S'lower'
p2341
tp2342
a(I348
I4
F-0.5
S'sure'
p2343
tp2344
a(I354
I1
I0
S'faster'
p2345
tp2346
a(I354
I1
F-0.25
S'cheaper'
p2347
tp2348
as(g205
S'full'
p2349
S'year'
p2350
tp2351
(lp2352
(I120
I0
I0
g210
tp2353
a(I150
I3
I0
g212
tp2354
a(I155
I0
I0
g258
tp2355
a(I255
I1
I0
g220
tp2356
a(I288
I7
I0
g724
tp2357
a(I348
I5
I0
g232
tp2358
as(S'minutes'
p2359
S'for'
p2360
S'life'
p2361
tp2362
(lp2363
(I28
I6
F-0.375
g124
tp2364
a(I118
I2
F-0.375
g438
tp2365
a(I147
I2
I0
g2315
tp2366
a(I165
I1
F-0.375
g357
tp2367
a(I186
I4
F-0.375
g451
tp2368
a(I235
I2
F-0.375
g361
tp2369
a(I235
I5
F-0.375
g456
tp2370
a(I244
I1
F-0.375
g301
tp2371
a(I254
I1
F-0.375
g459
tp2372
a(I275
I0
F-0.375
g306
tp2373
a(I296
I8
F-0.375
g371
tp2374
a(I298
I1
I0
g373
tp2375
a(I298
I1
F-0.375
g375
tp2376
a(I304
I1
F-0.375
g473
tp2377
a(I343
I4
F-0.375
g379
tp2378
a(I347
I5
F-0.375
g381
tp2379
a(I352
I1
F-0.375
g485
tp2380
a(I353
I0
F-0.375
g487
tp2381
a(I430
I2
F-0.25
g162
tp2382
as(S'to'
p2383
S'tracfone'
p2384
S'website'
p2385
tp2386
(lp2387
(I34
I3
I0
g1324
tp2388
a(I108
I2
I0
g1326
tp2389
a(I112
I4
I0
g962
tp2390
a(I130
I4
F0.625
g1329
tp2391
a(I310
I4
I0
g1020
tp2392
a(I343
I3
F-0.5
g1334
tp2393
as(S'tracfone'
p2394
S'customer'
p2395
S'service'
p2396
tp2397
(lp2398
(I3
I4
I0
g977
tp2399
a(I4
I2
F-0.625
g627
tp2400
a(I4
I2
F0.375
g629
tp2401
a(I4
I2
F1.0
g979
tp2402
a(I95
I7
F0.25
g884
tp2403
a(I95
I7
F0.25
g886
tp2404
a(I95
I7
F0.5
g991
tp2405
a(I165
I3
I0
g633
tp2406
a(I165
I3
I0
g635
tp2407
a(I221
I0
F-0.875
g637
tp2408
a(I289
I0
I0
g1008
tp2409
a(I289
I0
F0.25
g14
tp2410
a(I289
I0
F0.375
g1011
tp2411
a(I289
I0
F0.875
g16
tp2412
a(I296
I10
F1.0
g18
tp2413
a(I395
I8
F-0.875
g905
tp2414
as(S'bonus'
p2415
S'minutes'
p2416
tp2417
(lp2418
(I6
I0
F-0.375
g417
tp2419
a(I35
I1
I0
g427
tp2420
a(I35
I1
F-0.375
g429
tp2421
a(I38
I2
F-0.375
g343
tp2422
a(I59
I2
F-0.375
g347
tp2423
a(I59
I2
I0
g349
tp2424
a(I101
I2
I0
g132
tp2425
a(I102
I6
F-0.375
g291
tp2426
a(I107
I5
I0
g1406
tp2427
a(I134
I2
I0
g2001
tp2428
a(I141
I2
I0
g1409
tp2429
a(I162
I0
F-0.375
g355
tp2430
a(I186
I4
F-0.375
g451
tp2431
a(I244
I1
F-0.375
g301
tp2432
a(I245
I1
F0.625
g524
tp2433
a(I257
I4
F-0.375
g303
tp2434
a(I266
I2
F-0.375
g365
tp2435
a(I270
I2
F-0.375
g367
tp2436
a(I288
I5
I0
g2052
tp2437
a(I323
I5
F-0.375
g152
tp2438
a(I323
I5
F-0.25
g154
tp2439
a(I343
I4
F-0.375
g379
tp2440
a(I345
I1
F0.375
g320
tp2441
a(I346
I1
F0.375
g2077
tp2442
a(I348
I2
I0
g322
tp2443
a(I367
I4
F0.75
g530
tp2444
a(I370
I5
F0.625
g1830
tp2445
a(I370
I5
I0
g1832
tp2446
a(I376
I2
I0
g158
tp2447
a(I376
I2
F1.0
g160
tp2448
as(S'actual'
p2449
S'tracfone'
p2450
S'card'
p2451
tp2452
(lp2453
(I78
I4
F-0.5
g1458
tp2454
a(I78
I4
F-0.625
g1460
tp2455
a(I78
I4
I0
g1462
tp2456
a(I78
I4
F-0.375
g781
tp2457
a(I119
I0
F-0.5
g1476
tp2458
a(I270
I1
F-0.5
g1507
tp2459
a(I296
I2
F-0.5
g1516
tp2460
a(I315
I2
F-0.5
g1521
tp2461
a(I408
I0
F-0.5
g1531
tp2462
as(S'seller'
p2463
tp2464
(lp2465
(I14
I2
F-0.5
S'less'
p2466
tp2467
a(I228
I2
I0
S'great'
p2468
tp2469
a(I362
I0
F-0.875
S'unhappy'
p2470
tp2471
as(S'plan'
p2472
tp2473
(lp2474
(I58
I7
F0.875
S'nice'
p2475
tp2476
a(I58
I7
F0.5
S'expensive'
p2477
tp2478
a(I147
I0
I0
S'great'
p2479
tp2480
a(I221
I5
I0
S'sense'
p2481
tp2482
as(S'codes'
p2483
tp2484
(lp2485
(I192
I0
I0
S'special'
p2486
tp2487
a(I245
I2
F-0.625
S'other'
p2488
tp2489
a(I245
I2
F0.75
S'worth'
p2490
tp2491
a(I399
I4
I0
S'special'
p2492
tp2493
as(S'worked'
p2494
S'fine'
p2495
tp2496
(lp2497
(I273
I4
F-0.625
g80
tp2498
as(S'cell'
p2499
tp2500
(lp2501
(I0
I5
F-0.5
S'heavy'
p2502
tp2503
a(I27
I0
I0
S'big'
p2504
tp2505
a(I58
I1
I0
S'big'
p2506
tp2507
a(I163
I2
F0.625
S'major'
p2508
tp2509
a(I199
I0
I0
S'many'
p2510
tp2511
a(I199
I0
F-0.625
S'other'
p2512
tp2513
a(I245
I0
F0.125
S'first'
p2514
tp2515
a(I280
I1
F-0.5
S'heavy'
p2516
tp2517
a(I296
I4
I0
S'basic'
p2518
tp2519
a(I341
I5
F-0.75
S'little'
p2520
tp2521
a(I341
I5
F-0.25
S'cheapest'
p2522
tp2523
a(I364
I1
I0
S'useful'
p2524
tp2525
a(I367
I0
I0
S'most'
p2526
tp2527
a(I367
I0
F-0.625
S'other'
p2528
tp2529
a(I368
I9
I0
S'most'
p2530
tp2531
a(I413
I1
I0
S'big'
p2532
tp2533
as(S'calls'
p2534
tp2535
(lp2536
(I60
I1
F0.75
S'receive'
p2537
tp2538
a(I157
I8
I0
S'such'
p2539
tp2540
a(I415
I0
I0
S'few'
p2541
tp2542
as(S'piece'
p2543
S'of'
p2544
S'paper'
p2545
tp2546
(lp2547
(I90
I0
I0
g1634
tp2548
a(I102
I2
F0.125
g1636
tp2549
a(I150
I4
F-0.75
g1638
tp2550
as(S'cheaper'
p2551
tp2552
(lp2553
(I8
I0
F0.375
g1755
tp2554
a(I286
I1
F0.375
S'much'
p2555
tp2556
a(I343
I0
F0.375
S'much'
p2557
tp2558
a(I377
I0
I0
g1759
tp2559
as(S'one'
p2560
S'year'
p2561
S'service'
p2562
tp2563
(lp2564
(I44
I2
I0
g711
tp2565
a(I78
I2
F0.125
g242
tp2566
a(I107
I6
I0
g715
tp2567
a(I120
I0
I0
g210
tp2568
a(I127
I1
I0
g996
tp2569
a(I128
I1
F-0.5
g247
tp2570
a(I135
I2
I0
g249
tp2571
a(I162
I0
F0.5
g719
tp2572
a(I201
I0
F0.625
g1232
tp2573
a(I211
I1
F-0.5
g721
tp2574
a(I255
I1
I0
g220
tp2575
a(I288
I9
F0.875
g1006
tp2576
a(I289
I0
F0.25
g14
tp2577
a(I289
I0
F0.875
g16
tp2578
a(I291
I4
F0.125
g222
tp2579
a(I348
I5
I0
g232
tp2580
a(I350
I3
I0
g234
tp2581
a(I353
I0
F0.25
g1252
tp2582
a(I398
I2
F0.375
g275
tp2583
a(I399
I2
I0
g1027
tp2584
a(I399
I2
F-0.375
g1029
tp2585
a(I442
I1
F-0.875
g279
tp2586
as(g205
S'bonus'
p2587
S'code'
p2588
tp2589
(lp2590
(I245
I1
F0.625
g524
tp2591
a(I367
I4
F0.75
g530
tp2592
a(I370
I5
F0.625
g1830
tp2593
a(I370
I5
I0
g1832
tp2594
as(S'time'
p2595
tp2596
(lp2597
(I34
I4
I0
S'more'
p2598
tp2599
a(I38
I1
F0.125
g1672
tp2600
a(I78
I11
F-0.5
S'long'
p2601
tp2602
a(I109
I3
F0.125
S'first'
p2603
tp2604
a(I111
I3
I0
g1674
tp2605
a(I112
I0
F0.125
S'first'
p2606
tp2607
a(I115
I3
I0
S'most'
p2608
tp2609
a(I115
I3
F-0.25
S'cheaper'
p2610
tp2611
a(I115
I3
F-0.5
S'long'
p2612
tp2613
a(I117
I0
F0.125
S'first'
p2614
tp2615
a(I131
I1
F0.375
S'extra'
p2616
tp2617
a(I156
I1
F0.125
g1676
tp2618
a(I159
I1
I0
S'same'
p2619
tp2620
a(I167
I2
I0
S'more'
p2621
tp2622
a(I183
I3
F0.125
S'first'
p2623
tp2624
a(I185
I0
F0.125
S'enough'
p2625
tp2626
a(I190
I1
F-0.5
S'sure'
p2627
tp2628
a(I199
I3
I0
S'january'
p2629
tp2630
a(I202
I0
F0.125
S'first'
p2631
tp2632
a(I202
I6
F0.5
S'second'
p2633
tp2634
a(I206
I1
F0.5
S'told'
p2635
tp2636
a(I221
I1
F-0.5
S'long'
p2637
tp2638
a(I245
I9
F-0.5
S'long'
p2639
tp2640
a(I245
I9
F-0.5
S'long'
p2641
tp2642
a(I249
I1
I0
S'next'
p2643
tp2644
a(I250
I1
I0
g1679
tp2645
a(I301
I2
F-0.125
S'air'
p2646
tp2647
a(I301
I4
F-0.125
S'air'
p2648
tp2649
a(I317
I2
F0.125
S'first'
p2650
tp2651
a(I317
I2
F-0.5
S'long'
p2652
tp2653
a(I322
I6
I0
S'more'
p2654
tp2655
a(I363
I0
I0
S'full'
p2656
tp2657
a(I374
I0
F-0.75
S'unable'
p2658
tp2659
a(I406
I0
F0.125
g1684
tp2660
a(I407
I3
F0.125
S'first'
p2661
tp2662
a(I420
I3
F0.5
S'second'
p2663
tp2664
as(S'contract'
p2665
tp2666
(lp2667
(I78
I7
F1.0
S'best'
p2668
tp2669
a(I78
I7
F-0.625
S'other'
p2670
tp2671
a(I140
I3
I0
S'more'
p2672
tp2673
a(I160
I1
I0
S'such'
p2674
tp2675
a(I287
I6
I0
S'annual'
p2676
tp2677
a(I303
I0
F1.0
S'good'
p2678
tp2679
a(I310
I0
F-0.375
S'yearly'
p2680
tp2681
as(S'add'
p2682
S'airtime'
p2683
tp2684
(lp2685
(I68
I4
F-0.375
g54
tp2686
a(I170
I5
F0.625
g56
tp2687
a(I170
I5
F-0.375
g58
tp2688
a(I339
I0
F0.625
g60
tp2689
a(I424
I3
F0.625
g62
tp2690
as(S'months'
p2691
tp2692
(lp2693
(I163
I2
I0
S'few'
p2694
tp2695
a(I301
I1
I0
S'few'
p2696
tp2697
a(I301
I1
I0
S'later'
p2698
tp2699
a(I313
I1
F-0.375
S'top'
p2700
tp2701
a(I345
I1
I0
S'next'
p2702
tp2703
a(I353
I0
F0.25
S'helpful'
p2704
tp2705
as(S'deal'
p2706
tp2707
(lp2708
(I22
I1
I0
g2122
tp2709
a(I42
I1
F-0.25
S'cheaper'
p2710
tp2711
a(I44
I3
F1.0
g536
tp2712
a(I46
I2
I0
g2124
tp2713
a(I66
I0
F0.25
S'sweet'
p2714
tp2715
a(I76
I0
F1.0
S'best'
p2716
tp2717
a(I82
I1
F1.0
S'best'
p2718
tp2719
a(I92
I0
I0
g2126
tp2720
a(I98
I0
I0
g2128
tp2721
a(I101
I4
F1.0
S'better'
p2722
tp2723
a(I106
I0
I0
g2130
tp2724
a(I107
I3
I0
g2132
tp2725
a(I115
I2
F1.0
g538
tp2726
a(I124
I4
F1.0
g540
tp2727
a(I135
I0
I0
g2134
tp2728
a(I141
I3
I0
g2136
tp2729
a(I150
I4
I0
g2138
tp2730
a(I161
I3
I0
g2140
tp2731
a(I165
I6
I0
g2142
tp2732
a(I171
I2
I0
g2144
tp2733
a(I183
I2
I0
S'real'
p2734
tp2735
a(I186
I2
F1.0
S'best'
p2736
tp2737
a(I188
I0
F1.0
g542
tp2738
a(I191
I1
I0
g2146
tp2739
a(I194
I0
I0
g2148
tp2740
a(I199
I2
F1.0
g544
tp2741
a(I204
I0
F1.0
S'best'
p2742
tp2743
a(I220
I1
I0
g2150
tp2744
a(I228
I0
I0
g2152
tp2745
a(I255
I2
F-0.75
S'wrong'
p2746
tp2747
a(I255
I2
F-0.25
S'cheaper'
p2748
tp2749
a(I255
I2
F-0.25
S'direct'
p2750
tp2751
a(I257
I2
I0
g2154
tp2752
a(I267
I0
I0
g2156
tp2753
a(I285
I2
F1.0
g546
tp2754
a(I297
I0
F1.0
g548
tp2755
a(I297
I2
I0
g2159
tp2756
a(I298
I2
I0
g2161
tp2757
a(I310
I6
F0.25
S'sweet'
p2758
tp2759
a(I324
I1
F0.625
S'fair'
p2760
tp2761
a(I341
I1
F1.0
g550
tp2762
a(I341
I15
F0.5
S'second'
p2763
tp2764
a(I344
I3
F1.0
g552
tp2765
a(I348
I3
F1.0
g554
tp2766
a(I348
I6
I0
g2163
tp2767
a(I356
I0
F1.0
S'best'
p2768
tp2769
a(I369
I2
F1.0
g556
tp2770
a(I376
I2
I0
g558
tp2771
a(I388
I0
F1.0
S'best'
p2772
tp2773
a(I391
I3
I0
g2166
tp2774
a(I400
I0
I0
g2168
tp2775
a(I400
I2
F1.0
g560
tp2776
a(I407
I5
I0
g2170
tp2777
a(I420
I0
F0.375
S'no-brainer'
p2778
tp2779
a(I420
I2
F1.0
g562
tp2780
a(I433
I0
I0
g2172
tp2781
a(I433
I2
F1.0
S'best'
p2782
tp2783
a(I443
I8
F1.0
g564
tp2784
as(S'good'
p2785
S'deal'
p2786
tp2787
(lp2788
(I44
I3
F1.0
g536
tp2789
a(I115
I2
F1.0
g538
tp2790
a(I124
I4
F1.0
g540
tp2791
a(I188
I0
F1.0
g542
tp2792
a(I199
I2
F1.0
g544
tp2793
a(I285
I2
F1.0
g546
tp2794
a(I297
I0
F1.0
g548
tp2795
a(I341
I1
F1.0
g550
tp2796
a(I344
I3
F1.0
g552
tp2797
a(I348
I3
F1.0
g554
tp2798
a(I369
I2
F1.0
g556
tp2799
a(I376
I2
I0
g558
tp2800
a(I400
I2
F1.0
g560
tp2801
a(I420
I2
F1.0
g562
tp2802
a(I443
I8
F1.0
g564
tp2803
as(S'800'
p2804
S'minutes'
p2805
tp2806
(lp2807
(I6
I0
F-0.375
g417
tp2808
a(I59
I2
F-0.375
g347
tp2809
a(I59
I2
I0
g349
tp2810
a(I165
I1
F-0.375
g357
tp2811
a(I235
I5
F-0.375
g456
tp2812
a(I268
I0
F0.375
g146
tp2813
a(I323
I5
F-0.375
g152
tp2814
a(I323
I5
F-0.25
g154
tp2815
a(I341
I15
F-0.375
g316
tp2816
a(I341
I15
I0
g318
tp2817
a(I343
I4
F-0.375
g379
tp2818
a(I345
I1
F0.375
g320
tp2819
a(I353
I0
F-0.375
g487
tp2820
a(I364
I0
F-0.375
g489
tp2821
a(I381
I0
F-0.375
g324
tp2822
a(I411
I7
F-0.375
g493
tp2823
as(S'thanks'
p2824
tp2825
(lp2826
(I113
I6
F0.5
S'expensive'
p2827
tp2828
as(S'400'
p2829
S'minutes'
p2830
S'card'
p2831
tp2832
(lp2833
(I71
I1
I0
g130
tp2834
a(I102
I6
F-0.375
g291
tp2835
a(I167
I3
F-0.25
g138
tp2836
a(I245
I3
F0.125
g825
tp2837
a(I257
I4
F-0.375
g303
tp2838
a(I268
I0
F0.375
g146
tp2839
a(I275
I0
F-0.375
g306
tp2840
a(I341
I15
F-0.375
g316
tp2841
a(I341
I15
I0
g318
tp2842
a(I345
I1
F0.375
g320
tp2843
a(I381
I0
F-0.375
g324
tp2844
a(I407
I4
I0
g861
tp2845
a(I437
I0
I0
g871
tp2846
a(I437
I0
F-0.625
g326
tp2847
a(I443
I0
F-0.5
g875
tp2848
a(I443
I0
I0
g328
tp2849
as(S'year'
p2850
tp2851
(lp2852
(I53
I0
F0.5
g240
tp2853
a(I58
I3
I0
S'next'
p2854
tp2855
a(I70
I1
F0.125
S'first'
p2856
tp2857
a(I71
I2
I0
S'entire'
p2858
tp2859
a(I72
I1
F-0.25
S'past'
p2860
tp2861
a(I78
I2
F0.125
g242
tp2862
a(I115
I4
F0.5
g244
tp2863
a(I120
I0
I0
g210
tp2864
a(I128
I1
F-0.5
g247
tp2865
a(I135
I2
I0
g249
tp2866
a(I137
I0
I0
g251
tp2867
a(I146
I0
I0
g253
tp2868
a(I150
I3
I0
g212
tp2869
a(I153
I1
F0.125
g256
tp2870
a(I155
I0
I0
g258
tp2871
a(I156
I2
I0
S'later'
p2872
tp2873
a(I160
I4
F0.375
S'available'
p2874
tp2875
a(I165
I4
I0
g214
tp2876
a(I165
I6
I0
S'more'
p2877
tp2878
a(I165
I6
F0.125
S'last'
p2879
tp2880
a(I165
I6
F-0.5
S'less'
p2881
tp2882
a(I166
I0
I0
g216
tp2883
a(I170
I19
I0
g262
tp2884
a(I182
I2
I0
S'next'
p2885
tp2886
a(I200
I3
F0.5
S'second'
p2887
tp2888
a(I206
I2
I0
S'next'
p2889
tp2890
a(I207
I5
I0
g264
tp2891
a(I213
I0
I0
g266
tp2892
a(I230
I1
F-0.625
g218
tp2893
a(I241
I0
F0.625
S'convenient'
p2894
tp2895
a(I255
I1
I0
g220
tp2896
a(I288
I7
I0
g724
tp2897
a(I291
I4
F0.125
g222
tp2898
a(I301
I4
I0
g224
tp2899
a(I322
I5
F0.125
g226
tp2900
a(I322
I5
F0.125
g228
tp2901
a(I327
I1
F0.5
S'whole'
p2902
tp2903
a(I327
I2
I0
S'same'
p2904
tp2905
a(I327
I2
I0
S'next'
p2906
tp2907
a(I331
I0
I0
S'next'
p2908
tp2909
a(I341
I0
F0.125
g230
tp2910
a(I341
I17
F0.375
g727
tp2911
a(I348
I5
I0
g232
tp2912
a(I350
I3
I0
g234
tp2913
a(I358
I0
I0
g273
tp2914
a(I389
I0
I0
S'next'
p2915
tp2916
a(I391
I1
F1.0
S'good'
p2917
tp2918
a(I398
I2
F0.375
g275
tp2919
a(I400
I2
I0
S'next'
p2920
tp2921
a(I418
I0
F0.875
g1046
tp2922
a(I418
I0
F1.0
g1048
tp2923
a(I420
I1
I0
g277
tp2924
a(I442
I1
F-0.875
g279
tp2925
a(I443
I3
F0.5
S'whole'
p2926
tp2927
as(S'tracfone'
p2928
g206
S'year'
p2929
tp2930
(lp2931
(I152
I0
F0.5
g1481
tp2932
a(I167
I3
F0.375
g1488
tp2933
a(I235
I4
I0
g1503
tp2934
a(I275
I0
F0.125
g1509
tp2935
a(I289
I0
I0
g1008
tp2936
a(I289
I0
F0.375
g1011
tp2937
a(I407
I4
F0.125
g1031
tp2938
a(I443
I0
F0.375
g1033
tp2939
as(g205
S'double'
p2940
S'minute'
p2941
tp2942
(lp2943
(I102
I6
F-0.375
g5
tp2944
a(I113
I8
I0
g604
tp2945
a(I113
I8
F-0.375
g606
tp2946
a(I126
I1
F-0.375
g1787
tp2947
a(I232
I3
F-0.375
g1799
tp2948
a(I281
I0
F-0.375
g1805
tp2949
as(S'next'
p2950
S'year'
p2951
tp2952
(lp2953
(I58
I3
I0
g2854
tp2954
a(I146
I0
I0
g253
tp2955
a(I160
I4
F0.375
g2874
tp2956
a(I182
I2
I0
g2885
tp2957
a(I206
I2
I0
g2889
tp2958
a(I327
I2
I0
g2904
tp2959
a(I327
I2
I0
g2906
tp2960
a(I331
I0
I0
g2908
tp2961
a(I389
I0
I0
g2915
tp2962
a(I400
I2
I0
g2920
tp2963
a(I420
I1
I0
g277
tp2964
as(S'promo'
p2965
S'code'
p2966
tp2967
(lp2968
(I22
I2
I0
g67
tp2969
a(I47
I2
F-0.5
g69
tp2970
a(I54
I2
I0
g1767
tp2971
a(I71
I1
I0
g1769
tp2972
a(I102
I3
F1.0
g71
tp2973
a(I154
I2
I0
g1772
tp2974
a(I288
I4
F-0.5
g73
tp2975
as(S'great'
p2976
S'deal'
p2977
tp2978
(lp2979
(I22
I1
I0
g2122
tp2980
a(I46
I2
I0
g2124
tp2981
a(I92
I0
I0
g2126
tp2982
a(I98
I0
I0
g2128
tp2983
a(I106
I0
I0
g2130
tp2984
a(I107
I3
I0
g2132
tp2985
a(I135
I0
I0
g2134
tp2986
a(I141
I3
I0
g2136
tp2987
a(I150
I4
I0
g2138
tp2988
a(I161
I3
I0
g2140
tp2989
a(I165
I6
I0
g2142
tp2990
a(I171
I2
I0
g2144
tp2991
a(I191
I1
I0
g2146
tp2992
a(I194
I0
I0
g2148
tp2993
a(I220
I1
I0
g2150
tp2994
a(I228
I0
I0
g2152
tp2995
a(I257
I2
I0
g2154
tp2996
a(I267
I0
I0
g2156
tp2997
a(I297
I0
F1.0
g548
tp2998
a(I297
I2
I0
g2159
tp2999
a(I298
I2
I0
g2161
tp3000
a(I348
I6
I0
g2163
tp3001
a(I376
I2
I0
g558
tp3002
a(I391
I3
I0
g2166
tp3003
a(I400
I0
I0
g2168
tp3004
a(I407
I5
I0
g2170
tp3005
a(I433
I0
I0
g2172
tp3006
as(S'good'
p3007
S'price'
p3008
tp3009
(lp3010
(I40
I0
I0
g1066
tp3011
a(I40
I0
F0.625
g1068
tp3012
a(I50
I0
F1.0
g1077
tp3013
a(I51
I1
F1.0
g1079
tp3014
a(I73
I0
F1.0
g1085
tp3015
a(I84
I2
F1.0
g1091
tp3016
a(I205
I0
F1.0
g1111
tp3017
a(I236
I0
F1.0
g1114
tp3018
a(I287
I9
F1.0
g1122
tp3019
a(I295
I1
F1.0
g1126
tp3020
a(I305
I0
F1.0
g1131
tp3021
a(I305
I0
F0.125
g1133
tp3022
a(I312
I0
F1.0
g1139
tp3023
a(I331
I0
F1.0
g1148
tp3024
a(I331
I0
I0
g1150
tp3025
a(I374
I3
F1.0
g1163
tp3026
a(I374
I3
F-0.5
g1165
tp3027
a(I375
I0
F1.0
g1167
tp3028
a(I431
I0
F1.0
g118
tp3029
a(I441
I0
F1.0
g1189
tp3030
as(S'sheet'
p3031
S'of'
p3032
S'paper'
p3033
tp3034
(lp3035
(I315
I2
F0.125
S'first'
p3036
tp3037
as(S'250'
p3038
S'minutes'
p3039
tp3040
(lp3041
(I22
I2
F-0.375
g337
tp3042
a(I22
I2
F0.375
g339
tp3043
a(I22
I2
F-0.5
g341
tp3044
a(I50
I2
F-0.625
g1396
tp3045
a(I50
I2
F-0.625
g1398
tp3046
a(I74
I1
I0
g1403
tp3047
a(I102
I6
F-0.375
g291
tp3048
a(I107
I5
I0
g1406
tp3049
a(I108
I4
F0.375
g1988
tp3050
a(I108
I5
F-0.375
g136
tp3051
a(I141
I2
I0
g1409
tp3052
a(I192
I1
F0.375
g2017
tp3053
a(I192
I1
I0
g2019
tp3054
a(I270
I2
F-0.375
g367
tp3055
a(I323
I5
F-0.375
g152
tp3056
a(I323
I5
F-0.25
g154
tp3057
a(I341
I14
F0.375
g2069
tp3058
a(I341
I15
F-0.375
g316
tp3059
a(I341
I15
I0
g318
tp3060
a(I376
I2
I0
g158
tp3061
a(I376
I2
F1.0
g160
tp3062
as(S'service'
p3063
S'card'
p3064
tp3065
(lp3066
(I54
I8
I0
g767
tp3067
a(I54
I8
F0.5
g769
tp3068
a(I58
I2
F1.0
g773
tp3069
a(I78
I7
I0
g987
tp3070
a(I78
I8
F0.375
g783
tp3071
a(I95
I7
F0.25
g884
tp3072
a(I95
I7
F0.25
g886
tp3073
a(I95
I7
F-0.75
g785
tp3074
a(I95
I7
F0.5
g787
tp3075
a(I127
I1
I0
g996
tp3076
a(I240
I3
F1.0
g823
tp3077
a(I310
I4
F0.125
g833
tp3078
a(I407
I4
I0
g861
tp3079
a(I437
I0
I0
g871
tp3080
a(I440
I6
F-0.5
g873
tp3081
a(I443
I0
F-0.5
g875
tp3082
as(S'1200'
p3083
S'minutes'
p3084
tp3085
(lp3086
(I0
I5
F0.125
g1942
tp3087
a(I79
I0
F0.5
g1981
tp3088
a(I257
I4
F-0.375
g303
tp3089
a(I348
I2
I0
g322
tp3090
a(I430
I2
F-0.25
g162
tp3091
as(S'250'
p3092
S'bonus'
p3093
S'minutes'
p3094
tp3095
(lp3096
(I102
I6
F-0.375
g291
tp3097
a(I107
I5
I0
g1406
tp3098
a(I141
I2
I0
g1409
tp3099
a(I270
I2
F-0.375
g367
tp3100
a(I323
I5
F-0.375
g152
tp3101
a(I323
I5
F-0.25
g154
tp3102
a(I376
I2
I0
g158
tp3103
a(I376
I2
F1.0
g160
tp3104
as(S'on'
p3105
S'tracfone'
p3106
S'website'
p3107
tp3108
(lp3109
(I34
I3
I0
g1324
tp3110
a(I108
I2
I0
g1326
tp3111
a(I112
I4
I0
g962
tp3112
a(I130
I4
F0.625
g1329
tp3113
a(I310
I4
I0
g1020
tp3114
a(I319
I2
I0
g1332
tp3115
a(I343
I3
F-0.5
g1334
tp3116
as(S'minutes'
p3117
S'card'
p3118
tp3119
(lp3120
(I6
I0
F-0.375
g417
tp3121
a(I27
I2
F1.0
g755
tp3122
a(I27
I2
I0
g757
tp3123
a(I29
I0
F0.375
g1955
tp3124
a(I29
I0
F0.625
g759
tp3125
a(I31
I1
F0.125
g1390
tp3126
a(I31
I1
I0
g1392
tp3127
a(I31
I1
F-0.625
g1394
tp3128
a(I50
I2
F-0.625
g1396
tp3129
a(I50
I2
F-0.625
g1398
tp3130
a(I54
I8
I0
g767
tp3131
a(I54
I8
F0.5
g769
tp3132
a(I54
I8
I0
g1971
tp3133
a(I71
I1
I0
g130
tp3134
a(I79
I0
F0.5
g1981
tp3135
a(I102
I6
F-0.375
g291
tp3136
a(I112
I5
F-0.375
g351
tp3137
a(I128
I3
I0
g1998
tp3138
a(I165
I1
F-0.375
g357
tp3139
a(I167
I3
F-0.25
g138
tp3140
a(I202
I8
I0
g813
tp3141
a(I230
I1
I0
g2028
tp3142
a(I245
I3
F0.125
g825
tp3143
a(I257
I4
F-0.375
g303
tp3144
a(I268
I0
F0.375
g146
tp3145
a(I275
I0
F-0.375
g306
tp3146
a(I275
I2
F0.375
g1417
tp3147
a(I310
I4
F0.125
g833
tp3148
a(I340
I0
F0.625
g1424
tp3149
a(I341
I15
F-0.375
g316
tp3150
a(I341
I15
I0
g318
tp3151
a(I344
I0
I0
g841
tp3152
a(I345
I1
F0.375
g320
tp3153
a(I346
I1
F0.375
g2077
tp3154
a(I347
I5
F-0.375
g381
tp3155
a(I347
I5
F-0.5
g845
tp3156
a(I347
I5
F-0.375
g847
tp3157
a(I362
I1
F0.375
g849
tp3158
a(I381
I0
F-0.375
g324
tp3159
a(I384
I1
F-0.375
g384
tp3160
a(I397
I0
F0.625
g855
tp3161
a(I407
I4
I0
g861
tp3162
a(I424
I3
F-0.375
g386
tp3163
a(I424
I3
I0
g388
tp3164
a(I436
I1
F-0.375
g499
tp3165
a(I437
I0
I0
g871
tp3166
a(I437
I0
F-0.625
g326
tp3167
a(I443
I0
F-0.5
g875
tp3168
a(I443
I0
I0
g328
tp3169
as(S'for'
p3170
S'another'
p3171
S'year'
p3172
tp3173
(lp3174
(I115
I4
F0.5
g244
tp3175
as(S'to'
p3176
S'call'
p3177
S'tracfone'
p3178
tp3179
(lp3180
(I113
I4
F-0.625
g1470
tp3181
a(I221
I4
I0
S'next'
p3182
tp3183
a(I289
I0
I0
g1008
tp3184
a(I289
I0
F0.375
g1011
tp3185
a(I296
I4
F-0.25
S'dropped'
p3186
tp3187
as(S'bonus'
p3188
S'code'
p3189
tp3190
(lp3191
(I245
I1
F0.625
g524
tp3192
a(I367
I4
F0.75
g530
tp3193
a(I370
I5
F0.625
g1830
tp3194
a(I370
I5
I0
g1832
tp3195
as(S'better'
p3196
tp3197
(lp3198
(I42
I0
F0.375
S'much'
p3199
tp3200
a(I347
I2
F0.375
S'much'
p3201
tp3202
a(I386
I0
F0.375
S'much'
p3203
tp3204
as(S'add'
p3205
S'minutes'
p3206
tp3207
(lp3208
(I0
I1
F-0.625
g1938
tp3209
a(I4
I1
F-0.375
g414
tp3210
a(I6
I0
F-0.375
g417
tp3211
a(I31
I1
F0.125
g1390
tp3212
a(I31
I1
I0
g1392
tp3213
a(I31
I1
F-0.625
g1394
tp3214
a(I50
I2
F-0.625
g1396
tp3215
a(I50
I2
F-0.625
g1398
tp3216
a(I68
I5
F0.375
g1400
tp3217
a(I71
I1
I0
g130
tp3218
a(I74
I1
I0
g1403
tp3219
a(I101
I2
I0
g132
tp3220
a(I107
I5
I0
g1406
tp3221
a(I108
I5
F-0.375
g136
tp3222
a(I141
I2
I0
g1409
tp3223
a(I165
I1
F-0.375
g357
tp3224
a(I186
I4
F-0.375
g451
tp3225
a(I221
I1
F0.625
g1412
tp3226
a(I226
I1
F-0.375
g297
tp3227
a(I226
I1
F-0.375
g299
tp3228
a(I268
I0
F0.375
g146
tp3229
a(I275
I2
F0.375
g1417
tp3230
a(I275
I3
I0
g1419
tp3231
a(I289
I0
I0
g308
tp3232
a(I289
I0
F-0.75
g310
tp3233
a(I296
I8
F-0.375
g371
tp3234
a(I340
I0
F0.625
g1424
tp3235
a(I364
I0
F-0.375
g489
tp3236
a(I369
I1
F0.625
g1426
tp3237
a(I377
I1
F0.625
g1428
tp3238
a(I411
I7
F-0.375
g493
tp3239
a(I421
I1
F-0.375
g495
tp3240
a(I424
I3
F-0.375
g386
tp3241
a(I424
I3
I0
g388
tp3242
a(I437
I0
F-0.625
g326
tp3243
as(g206
S'year'
p3244
S'card'
p3245
tp3246
(lp3247
(I150
I3
I0
g212
tp3248
a(I165
I4
I0
g214
tp3249
a(I165
I4
F0.5
g803
tp3250
a(I230
I1
F-0.625
g218
tp3251
a(I301
I4
I0
g224
tp3252
a(I322
I5
F0.125
g226
tp3253
a(I322
I5
F0.125
g228
tp3254
a(I341
I0
F0.125
g230
tp3255
a(I407
I4
I0
g861
tp3256
a(I414
I0
F0.125
g863
tp3257
a(I437
I0
I0
g871
tp3258
a(I440
I6
F-0.5
g873
tp3259
a(I443
I0
F-0.5
g875
tp3260
as(S'works'
p3261
tp3262
(lp3263
(I35
I0
I0
S'great'
p3264
tp3265
a(I390
I0
I0
S'great'
p3266
tp3267
a(I440
I7
I0
S'only'
p3268
tp3269
a(I442
I3
F-0.5
S'less'
p3270
tp3271
as(S'call'
p3272
tp3273
(lp3274
(I80
I2
F-0.625
S'average'
p3275
tp3276
a(I121
I1
F0.5
S'live'
p3277
tp3278
a(I221
I4
I0
g3182
tp3279
a(I296
I4
F-0.25
g3186
tp3280
as(S'year'
p3281
S'card'
p3282
tp3283
(lp3284
(I26
I0
I0
g753
tp3285
a(I54
I8
I0
g767
tp3286
a(I54
I8
F0.5
g769
tp3287
a(I56
I1
F0.5
g771
tp3288
a(I58
I2
F1.0
g773
tp3289
a(I70
I1
F0.125
g2856
tp3290
a(I78
I2
F0.125
g242
tp3291
a(I148
I1
I0
g799
tp3292
a(I150
I3
I0
g212
tp3293
a(I165
I4
I0
g214
tp3294
a(I165
I4
F0.5
g803
tp3295
a(I165
I6
I0
g2877
tp3296
a(I165
I6
F0.125
g2879
tp3297
a(I165
I6
F-0.5
g2881
tp3298
a(I230
I1
F-0.625
g218
tp3299
a(I301
I4
I0
g224
tp3300
a(I322
I5
F0.125
g226
tp3301
a(I322
I5
F0.125
g228
tp3302
a(I341
I0
F0.125
g230
tp3303
a(I407
I4
I0
g861
tp3304
a(I414
I0
F0.125
g863
tp3305
a(I418
I0
F0.875
g1046
tp3306
a(I418
I0
F1.0
g1048
tp3307
a(I437
I0
I0
g871
tp3308
a(I440
I6
F-0.5
g873
tp3309
a(I443
I0
F-0.5
g875
tp3310
as(S'total'
p3311
tp3312
(lp3313
(I6
I0
I0
S'great'
p3314
tp3315
as(S'minutes'
p3316
S'and'
p3317
S'time'
p3318
tp3319
(lp3320
(I6
I0
F-0.375
g417
tp3321
a(I38
I1
F0.125
g1672
tp3322
a(I111
I3
I0
g1674
tp3323
a(I156
I1
F0.125
g1676
tp3324
a(I156
I1
F-0.375
g445
tp3325
a(I250
I1
I0
g1679
tp3326
a(I275
I2
F0.375
g1417
tp3327
a(I275
I3
I0
g1419
tp3328
a(I347
I5
F-0.375
g381
tp3329
a(I406
I0
F0.125
g1684
tp3330
a(I424
I3
F-0.375
g386
tp3331
a(I424
I3
I0
g388
tp3332
a(I437
I0
F-0.625
g326
tp3333
as(S'buying'
p3334
tp3335
(lp3336
(I8
I0
F-0.375
g1757
tp3337
a(I107
I0
F1.0
S'good'
p3338
tp3339
a(I107
I0
F0.5
S'true'
p3340
tp3341
a(I136
I2
F1.0
S'better'
p3342
tp3343
a(I140
I3
I0
S'more'
p3344
tp3345
a(I249
I0
I0
S'same'
p3346
tp3347
a(I323
I7
F-0.25
S'direct'
p3348
tp3349
a(I371
I1
I0
S'nervous'
p3350
tp3351
as(S'for'
p3352
g206
S'year'
p3353
tp3354
(lp3355
(I120
I0
I0
g210
tp3356
a(I150
I3
I0
g212
tp3357
a(I166
I0
I0
g216
tp3358
a(I255
I1
I0
g220
tp3359
a(I322
I5
F0.125
g226
tp3360
a(I322
I5
F0.125
g228
tp3361
a(I341
I0
F0.125
g230
tp3362
a(I348
I5
I0
g232
tp3363
as(S'pin'
p3364
S'number'
p3365
tp3366
(lp3367
(I348
I5
F0.625
S'easy'
p3368
tp3369
as(S'days'
p3370
tp3371
(lp3372
(I49
I0
I0
g2304
tp3373
a(I54
I8
F0.375
g2306
tp3374
a(I93
I2
I0
S'few'
p3375
tp3376
a(I101
I2
I0
S'more'
p3377
tp3378
a(I108
I2
I0
S'few'
p3379
tp3380
a(I186
I5
I0
S'later'
p3381
tp3382
a(I193
I5
F0.125
S'able'
p3383
tp3384
a(I205
I1
F0.875
S'nicer'
p3385
tp3386
a(I252
I0
I0
S'few'
p3387
tp3388
a(I270
I7
I0
S'standard'
p3389
tp3390
a(I301
I6
I0
S'later'
p3391
tp3392
a(I315
I1
I0
S'few'
p3393
tp3394
a(I315
I1
I0
S'later'
p3395
tp3396
a(I322
I1
I0
S'few'
p3397
tp3398
a(I323
I0
I0
S'later'
p3399
tp3400
a(I323
I0
I0
S'more'
p3401
tp3402
a(I323
I0
I0
S'standard'
p3403
tp3404
a(I341
I17
I0
g2308
tp3405
a(I342
I0
I0
S'few'
p3406
tp3407
a(I370
I0
F-0.5
S'less'
p3408
tp3409
a(I413
I3
F0.375
g2310
tp3410
a(I436
I11
I0
S'few'
p3411
tp3412
as(S'cards'
p3413
tp3414
(lp3415
(I29
I0
F0.625
S'perfect'
p3416
tp3417
a(I42
I1
F-0.625
S'other'
p3418
tp3419
a(I113
I7
I0
S'discounted'
p3420
tp3421
a(I137
I2
F0.625
S'easy'
p3422
tp3423
a(I137
I2
F0.375
S'new'
p3424
tp3425
a(I245
I1
F-0.25
S'low'
p3426
tp3427
a(I246
I2
I0
S'next'
p3428
tp3429
a(I309
I1
F-0.5
S'less'
p3430
tp3431
a(I332
I2
I0
S'great'
p3432
tp3433
a(I347
I0
F-0.25
S'cheapest'
p3434
tp3435
a(I402
I1
F1.0
S'best'
p3436
tp3437
as(S'mail'
p3438
tp3439
(lp3440
(I59
I4
I0
S'least'
p3441
tp3442
a(I404
I3
F0.125
S'last'
p3443
tp3444
as.