(dp0
(S'seller'
p1
tp2
(lp3
(I17
I18
F-0.5
S'sure'
p4
I19
tp5
a(I17
I18
F-0.375
S'manual'
p6
I19
tp7
a(I17
I18
I0
S'english'
p8
I19
tp9
as(S'blackberry'
p10
tp11
(lp12
(I5
I35
F0.125
S'first'
p13
I1
tp14
a(I5
I35
F0.125
S'last'
p15
I1
tp16
a(I5
I50
F0.25
S'original'
p17
I1
tp18
a(I5
I58
F0.5
S'second'
p19
I1
tp20
a(I8
I12
I0
S'full'
p21
I1
tp22
a(I8
I15
F0.5
S'second'
p23
I1
tp24
a(I12
I1
F0.125
S'solid'
p25
I1
tp26
a(I16
I19
F0.125
S'able'
p27
I1
tp28
a(I17
I37
F0.375
S'new'
p29
I1
tp30
a(I18
I25
F-0.625
S'other'
p31
I1
tp32
a(I18
I25
I0
S'standard'
p33
I1
tp34
as(S'battery'
p35
S'life'
p36
tp37
(lp38
(I3
I8
F-0.75
S'short'
p39
I1
tp40
a(I15
I13
F-0.5
S'poorest'
p41
I1
tp42
a(I21
I8
F0.375
S'new'
p43
I1
tp44
a(I21
I25
F-0.75
S'short'
p45
I1
tp46
a(I3
I8
F-0.75
g39
I19
tp47
a(I4
I1
I0
S'full'
p48
I15
tp49
a(I14
I21
F0.375
S'new'
p50
I15
tp51
a(I15
I13
F-0.5
g41
I15
tp52
a(I21
I8
F0.375
g43
I15
tp53
a(I21
I25
F-0.75
g45
I15
tp54
as(S'keyboard'
p55
tp56
(lp57
(I0
I2
F-0.75
S'difficult'
p58
I2
tp59
a(I5
I58
I0
S'english'
p60
I2
tp61
a(I5
I58
F0.5
S'elegant'
p62
I2
tp63
a(I5
I58
F0.625
S'easy'
p64
I2
tp65
a(I18
I3
I0
S'great'
p66
I2
tp67
as(S'many'
p68
S'others'
p69
tp70
(lp71
(I9
I6
I0
S'many'
p72
I0
tp73
a(I18
I1
I0
S'many'
p74
I0
tp75
a(I21
I2
I0
S'many'
p76
I0
tp77
as(S'bluetooth'
p78
S'radio'
p79
tp80
(lp81
(I9
I14
F-0.75
S'unable'
p82
I0
tp83
a(I9
I14
F0.375
S'enable'
p84
I0
tp85
a(I6
I0
I0
S'great'
p86
I3
tp87
a(I9
I14
F-0.75
g82
I3
tp88
a(I9
I14
F0.375
g84
I3
tp89
as(S'al'
p90
S'vendedor'
p91
tp92
(lp93
(I16
I21
I0
S'al'
p94
I0
tp95
as(S'e'
p96
S'mail'
p97
tp98
(lp99
(I0
I6
F0.625
S'easy'
p100
I2
tp101
as(S'service'
p102
tp103
(lp104
(I2
I20
I0
S'mobile'
p105
I16
tp106
a(I2
I23
I0
S'australian'
p107
I16
tp108
a(I2
I23
I0
S'mobile'
p109
I16
tp110
a(I2
I45
I0
S'great'
p111
I16
tp112
as(S'amazon'
p113
tp114
(lp115
(I2
I13
F0.875
S'nice'
p116
I13
tp117
a(I2
I15
F-0.625
S'other'
p118
I13
tp119
as(S'dropped'
p120
S'calls'
p121
tp122
(lp123
(I17
I89
F-0.25
S'dropped'
p124
I0
tp125
a(I16
I9
F0.5
S'clear'
p126
I0
tp127
a(I17
I89
F-0.25
g124
I0
tp128
as(S'wifi'
p129
tp130
(lp131
(I0
I3
F-0.5
S'weak'
p132
I0
tp133
a(I0
I3
I0
S'signal'
p134
I0
tp135
a(I16
I15
F0.125
S'able'
p136
I0
tp137
as(S'flip'
p138
tp139
(lp140
(I2
I9
F0.75
S'beautiful'
p141
I4
tp142
a(I18
I1
F-0.125
S'blackberry'
p143
I4
tp144
a(I18
I49
F0.125
S'first'
p145
I4
tp146
as(S'camera'
p147
tp148
(lp149
(I10
I1
F-0.625
S'bad'
p150
I1
tp151
as.