(dp0
(S'times'
p1
tp2
(lp3
(I10
I3
I0
S'many'
p4
tp5
a(I27
I1
I0
S'few'
p6
tp7
a(I37
I3
F-0.375
S'daily'
p8
tp9
a(I90
I3
I0
S'most'
p10
tp11
a(I90
I3
F-0.5
S'longer'
p12
tp13
a(I94
I4
F0.375
S'much'
p14
tp15
a(I98
I5
F0.125
S'able'
p16
tp17
a(I98
I5
F0.375
S'loud'
p18
tp19
a(I98
I5
F0.5
S'clear'
p20
tp21
a(I133
I2
I0
S'least'
p22
tp23
as(S'memory'
p24
S'card'
p25
tp26
(lp27
(I26
I1
F0.25
S'larger'
p28
tp29
a(I84
I5
I0
S'big'
p30
tp31
a(I94
I3
I0
S'full'
p32
tp33
a(I94
I5
F0.25
S'bigger'
p34
tp35
as(S'battery'
p36
S'life'
p37
tp38
(lp39
(I0
I15
F-0.25
S'battery'
p40
tp41
a(I0
I19
F0.5
S'strong'
p42
tp43
a(I15
I0
F-0.25
S'low'
p44
tp45
a(I41
I4
F1.0
S'good'
p46
tp47
a(I93
I4
F1.0
S'good'
p48
tp49
as(S'n'
p50
S'costa'
p51
S'rica'
p52
tp53
(lp54
(I139
I0
F0.625
S'perfect'
p55
tp56
a(I143
I4
F0.625
S'fair'
p57
tp58
as(S'navigation'
p59
tp60
(lp61
(I47
I1
F0.625
S'easy'
p62
tp63
a(I67
I6
I0
S'full'
p64
tp65
a(I151
I3
F-0.625
S'free'
p66
tp67
as(S'keyboard'
p68
tp69
(lp70
(I0
I19
F1.0
S'good'
p71
tp72
a(I0
I19
F-0.375
S'pull'
p73
tp74
a(I0
I34
I0
S'physical'
p75
tp76
a(I0
I38
I0
S'stiff'
p77
tp78
a(I21
I0
I0
S'large'
p79
tp80
a(I21
I0
F0.25
S'bigger'
p81
tp82
a(I30
I5
I0
S'many'
p83
tp84
a(I30
I8
I0
S'dial'
p85
tp86
a(I41
I4
F0.875
S'nice'
p87
tp88
a(I60
I2
F-0.5
S'regular'
p89
tp90
a(I65
I1
F0.625
S'kind'
p91
tp92
a(I118
I7
F0.625
S'easier'
p93
tp94
a(I120
I2
I0
S'full'
p95
tp96
a(I127
I1
F0.875
S'nice'
p97
tp98
a(I141
I4
I0
S'physical'
p99
tp100
as(S'email'
p101
tp102
(lp103
(I0
I19
I0
S'update'
p104
tp105
a(I46
I4
I0
S'website'
p106
tp107
as(S'sim'
p108
S'card'
p109
tp110
(lp111
(I0
I61
I0
S'great'
p112
tp113
a(I26
I0
I0
S'included'
p114
tp115
as(S'better'
p116
tp117
(lp118
(I39
I2
F0.375
S'much'
p119
tp120
as(S'nice'
p121
tp122
(lp123
(I0
I43
F-0.75
S'care'
p124
tp125
as(S'screen'
p126
tp127
(lp128
(I0
I9
F-0.25
S'white'
p129
tp130
a(I0
I19
F-0.25
S'white'
p131
tp132
a(I0
I28
F-0.25
S'white'
p133
tp134
a(I0
I29
F-0.25
S'white'
p135
tp136
a(I0
I30
F-0.25
S'white'
p137
tp138
a(I25
I10
F1.0
S'good'
p139
tp140
a(I26
I0
I0
S'faster'
p141
tp142
a(I26
I0
F0.25
S'responsive'
p143
tp144
a(I30
I6
F0.5
S'touch'
p145
tp146
a(I30
I6
I0
S'sensitive'
p147
tp148
a(I39
I4
F0.625
S'easy'
p149
tp150
a(I57
I6
I0
S'wide'
p151
tp152
a(I57
I6
F0.625
S'easy'
p153
tp154
a(I70
I0
F-0.25
S'white'
p155
tp156
a(I76
I14
F0.125
S'able'
p157
tp158
a(I80
I1
F-0.25
S'white'
p159
tp160
a(I81
I0
F-0.75
S'dark'
p161
tp162
a(I86
I1
F0.5
S'touch'
p163
tp164
a(I88
I4
F0.5
S'touch'
p165
tp166
a(I88
I10
F0.5
S'touch'
p167
tp168
a(I90
I3
F-0.25
S'white'
p169
tp170
a(I90
I3
I0
S'least'
p171
tp172
a(I96
I1
F0.5
S'touch'
p173
tp174
a(I96
I3
F-0.25
S'white'
p175
tp176
a(I102
I0
I0
S'sensitive'
p177
tp178
a(I103
I6
F0.25
S'larger'
p179
tp180
a(I103
I10
F0.5
S'touch'
p181
tp182
a(I109
I6
I0
S'particular'
p183
tp184
a(I109
I8
F0.125
S'protective'
p185
tp186
a(I112
I0
F-0.75
S'damaged'
p187
tp188
a(I116
I2
I0
S'most'
p189
tp190
a(I119
I2
F0.5
S'touch'
p191
tp192
a(I123
I1
F0.25
S'bigger'
p193
tp194
a(I128
I0
F0.5
S'elegant'
p195
tp196
a(I129
I3
I0
S'great'
p197
tp198
a(I130
I0
F0.5
S'touch'
p199
tp200
a(I132
I2
F-0.375
S'small'
p201
tp202
a(I140
I0
F0.5
S'touch'
p203
tp204
a(I141
I2
I0
S'resistive'
p205
tp206
a(I141
I4
F-0.25
S'white'
p207
tp208
a(I141
I4
F0.5
S'second'
p209
tp210
a(I141
I10
F-0.25
S'cramped'
p211
tp212
a(I142
I1
F-0.25
S'white'
p213
tp214
a(I142
I1
F0.5
S'second'
p215
tp216
a(I145
I0
F-0.25
S'white'
p217
tp218
a(I146
I1
F-0.25
S'white'
p219
tp220
a(I146
I1
F0.5
S'second'
p221
tp222
a(I146
I3
I0
S'quick'
p223
tp224
a(I150
I4
F0.5
S'touch'
p225
tp226
a(I150
I7
F-0.25
S'white'
p227
tp228
a(I150
I7
F0.5
S'second'
p229
tp230
as(S'tel'
p231
S'eacute'
p232
tp233
(lp234
(I147
I4
I0
S'al'
p235
tp236
as(S'wi'
p237
S'fi'
p238
tp239
(lp240
(I47
I0
F0.875
S'nice'
p241
tp242
as(S'everything'
p243
tp244
(lp245
(I0
I24
F-0.25
S'google'
p246
tp247
a(I21
I0
I0
S'old'
p248
tp249
a(I129
I4
F-0.625
S'free'
p250
tp251
as(S'customer'
p252
S'service'
p253
tp254
(lp255
(I53
I5
F0.5
S'polite'
p256
tp257
a(I53
I5
F0.875
S'courteous'
p258
tp259
a(I53
I5
F0.25
S'professional'
p260
tp261
as(S'touch'
p262
tp263
(lp264
(I6
I0
F-0.875
S'worst'
p265
tp266
a(I30
I8
I0
S'numerical'
p267
tp268
a(I39
I2
F-0.625
S'other'
p269
tp270
a(I82
I8
I0
S'resistive'
p271
tp272
a(I119
I3
F0.875
S'nice'
p273
tp274
a(I126
I2
F0.25
S'responsive'
p275
tp276
a(I139
I0
I0
S'special'
p277
tp278
a(I146
I3
I0
S'resistive'
p279
tp280
a(I146
I4
I0
S'resistive'
p281
tp282
as(S'camera'
p283
tp284
(lp285
(I7
I3
I0
S'great'
p286
tp287
a(I8
I1
F1.0
S'good'
p288
tp289
a(I41
I6
F1.0
S'good'
p290
tp291
a(I102
I1
F1.0
S'good'
p292
tp293
a(I102
I1
F1.0
S'good'
p294
tp295
a(I119
I5
F0.25
S'main'
p296
tp297
a(I129
I6
F0.25
S'main'
p298
tp299
a(I136
I2
F0.25
S'sharp'
p300
tp301
a(I147
I0
F1.0
S'good'
p302
tp303
a(I150
I4
I0
S'many'
p304
tp305
a(I150
I4
I0
S'many'
p306
tp307
a(I152
I0
F1.0
S'good'
p308
tp309
as(S'update'
p310
tp311
(lp312
(I56
I7
I0
S'latest'
p313
tp314
as(S'using'
p315
tp316
(lp317
(I0
I55
F0.375
S'available'
p318
tp319
as(S'qwerty'
p320
S'keyboard'
p321
tp322
(lp323
(I30
I5
I0
g83
tp324
a(I30
I8
I0
g85
tp325
a(I41
I4
I0
S'full'
p326
tp327
a(I41
I4
F0.875
g87
tp328
a(I67
I4
I0
S'physical'
p329
tp330
a(I77
I1
I0
S'full'
p331
tp332
a(I127
I1
I0
S'great'
p333
tp334
a(I127
I1
I0
S'signal'
p335
tp336
a(I127
I1
F0.875
g97
tp337
a(I128
I0
I0
S'full'
p338
tp339
as(S'calendar'
p340
tp341
(lp342
(I0
I24
F-0.25
S'google'
p343
tp344
a(I0
I46
F-0.25
S'google'
p345
tp346
a(I0
I52
F-0.25
S'google'
p347
tp348
a(I0
I54
F0.25
S'main'
p349
tp350
as(S'need'
p351
tp352
(lp353
(I67
I3
F-0.5
S'actual'
p354
tp355
as(S'costa'
p356
S'rica'
p357
tp358
(lp359
(I139
I0
F0.625
g55
tp360
a(I143
I4
F0.625
g57
tp361
as(S'quality'
p362
tp363
(lp364
(I2
I0
F-0.5
S'poor'
p365
tp366
a(I4
I0
F-0.375
S'top'
p367
tp368
a(I16
I0
F0.625
S'acceptable'
p369
tp370
a(I16
I0
F1.0
S'good'
p371
tp372
a(I16
I0
F-0.125
S'overall'
p373
tp374
a(I21
I0
I0
S'high'
p375
tp376
a(I27
I12
F0.5
S'functional'
p377
tp378
a(I32
I0
F-0.5
S'heavy'
p379
tp380
a(I39
I3
F1.0
S'good'
p381
tp382
a(I39
I4
I0
S'high'
p383
tp384
a(I39
I4
F-0.25
S'low'
p385
tp386
a(I56
I3
F1.0
S'good'
p387
tp388
a(I67
I5
I0
S'high'
p389
tp390
a(I67
I7
I0
S'real'
p391
tp392
a(I67
I7
I0
S'high'
p393
tp394
a(I101
I8
F0.375
S'much'
p395
tp396
a(I141
I14
F1.0
S'good'
p397
tp398
a(I141
I14
I0
S'plastic'
p399
tp400
a(I146
I4
F1.0
S'good'
p401
tp402
as(S'memory'
p403
tp404
(lp405
(I9
I0
F0.375
S'much'
p406
tp407
a(I12
I5
F0.5
S'extensible'
p408
tp409
a(I26
I1
F0.25
g28
tp410
a(I34
I2
I0
S'full'
p411
tp412
a(I80
I3
F-0.625
S'free'
p413
tp414
a(I84
I5
I0
g30
tp415
a(I92
I1
F1.0
S'better'
p416
tp417
a(I92
I1
F-0.75
S'little'
p418
tp419
a(I94
I5
F0.25
g34
tp420
a(I101
I3
I0
S'full'
p421
tp422
a(I101
I13
I0
S'full'
p423
tp424
a(I129
I5
I0
S'more'
p425
tp426
a(I151
I5
I0
S'internal'
p427
tp428
as(S'product'
p429
tp430
(lp431
(I8
I0
F0.875
S'nice'
p432
tp433
a(I18
I10
I0
S'great'
p434
tp435
a(I32
I0
F0.875
S'nice'
p436
tp437
a(I92
I0
F1.0
S'good'
p438
tp439
a(I104
I2
F1.0
S'good'
p440
tp441
a(I118
I2
F-0.375
S'manual'
p442
tp443
a(I149
I0
F-0.75
S'wrong'
p444
tp445
as(S'fm'
p446
S'radio'
p447
tp448
(lp449
(I101
I24
F0.25
S'used'
p450
tp451
as(S'mobile'
p452
tp453
(lp454
(I0
I52
F-0.25
S'google'
p455
tp456
a(I150
I3
I0
S'great'
p457
tp458
as(S'symbian'
p459
S'os'
p460
tp461
(lp462
(I68
I0
F1.0
S'good'
p463
tp464
a(I152
I0
F-0.5
S'complaint'
p465
tp466
as(S'features'
p467
tp468
(lp469
(I23
I0
F0.875
S'nice'
p470
tp471
a(I35
I1
F1.0
S'good'
p472
tp473
a(I45
I0
F0.875
S'nice'
p474
tp475
a(I83
I3
I0
S'same'
p476
tp477
a(I84
I1
I0
S'many'
p478
tp479
a(I84
I3
I0
S'many'
p480
tp481
a(I101
I30
I0
S'cool'
p482
tp483
a(I102
I2
I0
S'many'
p484
tp485
a(I102
I2
I0
S'great'
p486
tp487
a(I133
I0
I0
S'great'
p488
tp489
a(I151
I4
F1.0
S'better'
p490
tp491
as(S'ovi'
p492
S'maps'
p493
tp494
(lp495
(I59
I8
F-0.625
S'free'
p496
tp497
a(I105
I0
F-0.625
S'free'
p498
tp499
a(I132
I2
F1.0
S'good'
p500
tp501
a(I141
I7
F-0.625
S'free'
p502
tp503
a(I141
I7
I0
S'most'
p504
tp505
as(S'para'
p506
tp507
(lp508
(I144
I3
F-0.5
S'regular'
p509
tp510
as(S'applications'
p511
tp512
(lp513
(I0
I19
F-0.625
S'other'
p514
tp515
a(I18
I3
F-0.5
S'certain'
p516
tp517
a(I18
I7
I0
S'many'
p518
tp519
a(I26
I1
I0
S'more'
p520
tp521
a(I26
I1
F0.875
S'music'
p522
tp523
a(I27
I13
F0.375
S'available'
p524
tp525
a(I42
I3
I0
S'more'
p526
tp527
a(I44
I0
F0.625
S'necessary'
p528
tp529
a(I88
I6
F-0.625
S'free'
p530
tp531
a(I120
I7
I0
S'many'
p532
tp533
a(I120
I7
F-0.75
S'little'
p534
tp535
a(I127
I1
F0.5
S'true'
p536
tp537
a(I127
I1
I0
S'many'
p538
tp539
a(I152
I0
I0
S'many'
p540
tp541
as(S'price'
p542
tp543
(lp544
(I0
I42
F-0.25
S'lower'
p545
tp546
a(I11
I0
F0.5
S'bought'
p547
tp548
a(I18
I0
F1.0
S'good'
p549
tp550
a(I99
I0
I0
S'high'
p551
tp552
a(I127
I1
I0
S'great'
p553
tp554
a(I129
I8
F-0.25
S'cheaper'
p555
tp556
a(I146
I4
I0
S'great'
p557
tp558
a(I151
I6
F0.125
S'able'
p559
tp560
a(I154
I1
I0
S'great'
p561
tp562
as(S'qwerty'
p563
tp564
(lp565
(I41
I4
I0
g326
tp566
a(I67
I4
I0
g329
tp567
a(I77
I1
I0
g331
tp568
a(I88
I4
I0
S'full'
p569
tp570
a(I127
I1
I0
g333
tp571
a(I127
I1
I0
g335
tp572
a(I128
I0
I0
g338
tp573
as(S'a'
p574
S'white'
p575
S'screen'
p576
tp577
(lp578
(I0
I9
F-0.25
g129
tp579
a(I0
I19
F-0.25
g131
tp580
a(I0
I28
F-0.25
g133
tp581
a(I0
I29
F-0.25
g135
tp582
a(I0
I30
F-0.25
g137
tp583
a(I70
I0
F-0.25
g155
tp584
a(I80
I1
F-0.25
g159
tp585
a(I90
I3
F-0.25
g169
tp586
a(I90
I3
I0
g171
tp587
a(I96
I3
F-0.25
g175
tp588
a(I128
I0
F0.5
g195
tp589
a(I141
I4
F-0.25
g207
tp590
a(I141
I4
F0.5
g209
tp591
a(I142
I1
F-0.25
g213
tp592
a(I142
I1
F0.5
g215
tp593
a(I145
I0
F-0.25
g217
tp594
a(I146
I1
F-0.25
g219
tp595
a(I146
I1
F0.5
g221
tp596
a(I150
I7
F-0.25
g227
tp597
a(I150
I7
F0.5
g229
tp598
as(S'operating'
p599
S'system'
p600
tp601
(lp602
(I51
I0
F-0.5
S'poor'
p603
tp604
as(S'slide'
p605
S'out'
p606
S'keyboard'
p607
tp608
(lp609
(I0
I38
I0
g77
tp610
a(I30
I8
I0
g85
tp611
a(I141
I4
I0
g99
tp612
as(S'works'
p613
tp614
(lp615
(I43
I1
F1.0
S'good'
p616
tp617
a(I62
I0
I0
S'great'
p618
tp619
as(S'telefono'
p620
S'es'
p621
tp622
(lp623
(I17
I1
I0
S'vertical'
p624
tp625
as(S'telefono'
p626
tp627
(lp628
(I17
I1
I0
g624
tp629
as(S'excellent'
p630
tp631
(lp632
(I102
I4
F0.75
S'beautiful'
p633
tp634
as(S'touchscreen'
p635
tp636
(lp637
(I9
I0
F0.625
S'easy'
p638
tp639
a(I55
I0
F1.0
S'good'
p640
tp641
a(I67
I17
F-0.75
S'neutral'
p642
tp643
a(I67
I18
I0
S'closest'
p644
tp645
a(I67
I18
F0.25
S'responsive'
p646
tp647
a(I142
I4
I0
S'resistive'
p648
tp649
a(I153
I1
F-0.375
S'small'
p650
tp651
as(S'el'
p652
S'telefono'
p653
tp654
(lp655
(I17
I1
I0
g624
tp656
a(I97
I0
I0
S'cable'
p657
tp658
as(S'battery'
p659
tp660
(lp661
(I0
I19
F0.5
g42
tp662
a(I15
I0
F-0.25
g44
tp663
a(I48
I1
F0.125
S'appropriate'
p664
tp665
a(I57
I4
F0.375
S'new'
p666
tp667
a(I93
I4
F1.0
g48
tp668
a(I103
I7
I0
S'fast'
p669
tp670
a(I141
I5
F-0.625
S'average'
p671
tp672
as(S'back'
p673
tp674
(lp675
(I154
I2
F-0.5
S'flimsy'
p676
tp677
a(I154
I2
I0
S'plastic'
p678
tp679
as(S'smart'
p680
tp681
(lp682
(I0
I40
F-0.375
S'smaller'
p683
tp684
a(I30
I0
F0.125
S'first'
p685
tp686
a(I52
I7
F0.875
S'important'
p687
tp688
a(I81
I0
I0
S'least'
p689
tp690
a(I81
I0
F0.5
S'expensive'
p691
tp692
a(I82
I1
F1.0
S'best'
p693
tp694
a(I104
I2
I0
S'many'
p695
tp696
a(I119
I6
F0.5
S'literate'
p697
tp698
a(I132
I1
F-0.375
S'small'
p699
tp700
as(S'el'
p701
S'tel'
p702
tp703
(lp704
(I97
I0
I0
g657
tp705
a(I147
I4
I0
g235
tp706
as(S'store'
p707
tp708
(lp709
(I84
I5
F0.875
S'nice'
p710
tp711
as(S'software'
p712
tp713
(lp714
(I66
I1
I0
S'full'
p715
tp716
as(S'cell'
p717
tp718
(lp719
(I9
I0
F0.25
S'unlocked'
p720
tp721
a(I39
I3
F0.875
S'music'
p722
tp723
a(I52
I0
F1.0
S'good'
p724
tp725
a(I95
I0
F1.0
S'good'
p726
tp727
a(I95
I0
F0.125
S'first'
p728
tp729
as(S'nokia'
p730
tp731
(lp732
(I0
I41
F0.5
S'stylish'
p733
tp734
a(I10
I4
F0.125
S'first'
p735
tp736
a(I12
I0
I0
S'third'
p737
tp738
a(I12
I4
F0.625
S'easy'
p739
tp740
a(I12
I4
F-0.625
S'other'
p741
tp742
a(I27
I1
F0.5
S'technical'
p743
tp744
a(I27
I2
I0
S'local'
p745
tp746
a(I27
I8
F0.375
S'new'
p747
tp748
a(I27
I15
F-0.5
S'sure'
p749
tp750
a(I27
I15
F0.375
S'new'
p751
tp752
a(I39
I1
F0.125
S'impressive'
p753
tp754
a(I52
I7
F-0.25
S'cheaper'
p755
tp756
a(I53
I6
F0.125
S'first'
p757
tp758
a(I60
I2
I0
S'old'
p759
tp760
a(I60
I4
F0.375
S'new'
p761
tp762
a(I60
I4
F-0.25
S'disappointed'
p763
tp764
a(I76
I3
I0
S'exclusive'
p765
tp766
a(I76
I13
F-0.5
S'long'
p767
tp768
a(I77
I6
I0
S'quick'
p769
tp770
a(I77
I6
F0.5
S'clear'
p771
tp772
a(I77
I6
F0.25
S'helpful'
p773
tp774
a(I80
I4
I0
S'old'
p775
tp776
a(I82
I3
F0.25
S'familiar'
p777
tp778
a(I110
I0
F0.375
S'much'
p779
tp780
a(I128
I0
F0.25
S'unlocked'
p781
tp782
a(I133
I3
I0
S'more'
p783
tp784
a(I153
I0
F0.125
S'first'
p785
tp786
as(S'nexus'
p787
S's'
p788
tp789
(lp790
(I0
I0
F-0.25
S'google'
p791
tp792
a(I0
I24
I0
S'sprint'
p793
tp794
a(I0
I25
F0.25
S'larger'
p795
tp796
as(S'thing'
p797
tp798
(lp799
(I0
I42
F0.125
S'last'
p800
tp801
a(I67
I4
F1.0
S'best'
p802
tp803
a(I68
I1
F0.125
S'first'
p804
tp805
a(I101
I13
F0.125
S'first'
p806
tp807
as(S'white'
p808
S'screen'
p809
tp810
(lp811
(I0
I9
F-0.25
g129
tp812
a(I0
I19
F-0.25
g131
tp813
a(I0
I28
F-0.25
g133
tp814
a(I0
I29
F-0.25
g135
tp815
a(I0
I30
F-0.25
g137
tp816
a(I70
I0
F-0.25
g155
tp817
a(I80
I1
F-0.25
g159
tp818
a(I90
I3
F-0.25
g169
tp819
a(I90
I3
I0
g171
tp820
a(I96
I3
F-0.25
g175
tp821
a(I128
I0
F0.5
g195
tp822
a(I141
I4
F-0.25
g207
tp823
a(I141
I4
F0.5
g209
tp824
a(I142
I1
F-0.25
g213
tp825
a(I142
I1
F0.5
g215
tp826
a(I145
I0
F-0.25
g217
tp827
a(I146
I1
F-0.25
g219
tp828
a(I146
I1
F0.5
g221
tp829
a(I150
I7
F-0.25
g227
tp830
a(I150
I7
F0.5
g229
tp831
as(S'google'
p832
S'calendar'
p833
tp834
(lp835
(I0
I24
F-0.25
g343
tp836
a(I0
I46
F-0.25
g345
tp837
a(I0
I52
F-0.25
g347
tp838
a(I0
I54
F0.25
g349
tp839
as(S'work'
p840
tp841
(lp842
(I101
I14
F0.125
S'able'
p843
tp844
a(I101
I14
I0
S'quick'
p845
tp846
as(S'maps'
p847
tp848
(lp849
(I84
I2
F-0.375
S'manual'
p850
tp851
a(I84
I2
F1.0
S'good'
p852
tp853
a(I94
I4
I0
S'same'
p854
tp855
a(I132
I2
F1.0
g500
tp856
a(I141
I7
I0
g504
tp857
as(S'music'
p858
tp859
(lp860
(I0
I22
F0.125
S'library'
p861
tp862
a(I136
I2
F0.375
S'recorded'
p863
tp864
as(S'el'
p865
S'tel'
p866
S'eacute'
p867
tp868
(lp869
(I147
I4
I0
g235
tp870
as(S'data'
p871
tp872
(lp873
(I0
I15
I0
S'same'
p874
tp875
a(I0
I54
I0
S'faster'
p876
tp877
a(I38
I2
I0
S'cable'
p878
tp879
a(I117
I1
I0
S'monthly'
p880
tp881
a(I117
I10
F0.5
S'expensive'
p882
tp883
as(S'time'
p884
tp885
(lp886
(I0
I26
F0.125
S'last'
p887
tp888
a(I0
I52
I0
S'real'
p889
tp890
a(I48
I1
I0
S'fast'
p891
tp892
a(I48
I1
I0
S'most'
p893
tp894
a(I57
I3
F0.375
S'available'
p895
tp896
a(I60
I1
I0
S'anymore'
p897
tp898
a(I63
I0
F-0.625
S'other'
p899
tp900
a(I66
I2
F-0.625
S'unpredictable'
p901
tp902
a(I68
I11
I0
S'most'
p903
tp904
a(I68
I11
F-0.75
S'likely'
p905
tp906
a(I82
I6
I0
S'same'
p907
tp908
a(I88
I9
F0.5
S'second'
p909
tp910
a(I88
I9
F-0.5
S'less'
p911
tp912
a(I90
I5
F-0.75
S'single'
p913
tp914
a(I98
I2
I0
S'most'
p915
tp916
a(I99
I0
I0
S're-start'
p917
tp918
a(I110
I5
F1.0
S'good'
p919
tp920
a(I117
I6
F0.125
S'first'
p921
tp922
a(I118
I1
F-0.125
S'complicate'
p923
tp924
a(I119
I5
F-0.875
S'hard'
p925
tp926
a(I146
I2
F0.625
S'aware'
p927
tp928
a(I146
I2
F0.125
S'first'
p929
tp930
as(S'easy'
p931
S'to'
p932
S'use'
p933
tp934
(lp935
(I39
I3
F0.25
S'professional'
p936
tp937
a(I39
I3
F1.0
S'good'
p938
tp939
as(S'tel'
p940
S'eacute'
p941
S'fono'
p942
tp943
(lp944
(I147
I4
I0
g235
tp945
as(S'card'
p946
tp947
(lp948
(I0
I61
I0
g112
tp949
a(I26
I0
I0
g114
tp950
a(I94
I3
I0
g32
tp951
a(I118
I0
I0
S'total'
p952
tp953
as(S'wifi'
p954
tp955
(lp956
(I109
I8
I0
S'great'
p957
tp958
as(S'nokia'
p959
S'c6'
p960
tp961
(lp962
(I0
I30
F0.125
S'first'
p963
tp964
a(I10
I4
F0.125
g735
tp965
a(I27
I8
F0.375
g747
tp966
a(I27
I15
F-0.5
g749
tp967
a(I27
I15
F0.375
g751
tp968
a(I36
I2
F-0.875
S'awful'
p969
tp970
a(I60
I2
I0
g759
tp971
a(I60
I4
F0.375
g761
tp972
a(I60
I4
F-0.875
S'worst'
p973
tp974
a(I60
I4
F-0.25
g763
tp975
a(I110
I0
F0.375
g779
tp976
a(I142
I7
I0
S'song'
p977
tp978
as(S'data'
p979
S'plan'
p980
tp981
(lp982
(I0
I15
I0
g874
tp983
a(I117
I1
I0
g880
tp984
a(I117
I10
F0.5
g882
tp985
as(S'support'
p986
tp987
(lp988
(I46
I6
F0.125
S'first'
p989
tp990
a(I103
I10
F1.0
S'good'
p991
tp992
as(g50
S'usa'
p993
tp994
(lp995
(I109
I6
I0
S'entire'
p996
tp997
a(I109
I6
I0
S'large'
p998
tp999
as(S'symbian'
p1000
tp1001
(lp1002
(I18
I10
F-0.5
S'poor'
p1003
tp1004
as(S'months'
p1005
tp1006
(lp1007
(I0
I1
F-0.25
S'past'
p1008
tp1009
a(I25
I8
F0.125
S'last'
p1010
tp1011
a(I25
I13
I0
S'few'
p1012
tp1013
a(I60
I0
F0.125
S'last'
p1014
tp1015
a(I133
I2
I0
S'later'
p1016
tp1017
as(S'apps'
p1018
tp1019
(lp1020
(I0
I17
I0
S'rich'
p1021
tp1022
a(I0
I22
I0
S'more'
p1023
tp1024
a(I26
I0
F0.375
S'available'
p1025
tp1026
a(I35
I2
F0.5
S'careful'
p1027
tp1028
a(I41
I0
F0.375
S'enable'
p1029
tp1030
a(I41
I0
I0
S'many'
p1031
tp1032
a(I41
I0
F0.375
S'interesting'
p1033
tp1034
a(I52
I5
F-0.625
S'free'
p1035
tp1036
a(I62
I1
F0.375
S'available'
p1037
tp1038
a(I68
I5
I0
S'many'
p1039
tp1040
a(I68
I5
F-0.625
S'free'
p1041
tp1042
a(I101
I13
I0
S'close'
p1043
tp1044
a(I102
I4
F-0.625
S'free'
p1045
tp1046
a(I102
I4
I0
S'great'
p1047
tp1048
a(I128
I0
F-0.625
S'free'
p1049
tp1050
as(S'e'
p1051
S'mail'
p1052
tp1053
(lp1054
(I0
I46
F-0.25
S'google'
p1055
tp1056
as(S'touch'
p1057
S'screen'
p1058
tp1059
(lp1060
(I30
I6
F0.5
g145
tp1061
a(I30
I6
I0
g147
tp1062
a(I30
I8
I0
g267
tp1063
a(I39
I2
F-0.625
g269
tp1064
a(I80
I1
F-0.25
g159
tp1065
a(I82
I8
I0
g271
tp1066
a(I86
I1
F0.5
g163
tp1067
a(I88
I4
F0.5
g165
tp1068
a(I88
I10
F0.5
g167
tp1069
a(I96
I1
F0.5
g173
tp1070
a(I102
I0
I0
g177
tp1071
a(I103
I10
F0.5
g181
tp1072
a(I116
I2
I0
g189
tp1073
a(I119
I2
F0.5
g191
tp1074
a(I119
I3
F0.875
g273
tp1075
a(I126
I2
F0.25
g275
tp1076
a(I130
I0
F0.5
g199
tp1077
a(I140
I0
F0.5
g203
tp1078
a(I141
I2
I0
g205
tp1079
a(I146
I3
I0
g279
tp1080
a(I146
I3
I0
g223
tp1081
a(I146
I4
I0
g281
tp1082
a(I150
I4
F0.5
g225
tp1083
as(S'sony'
p1084
S'ericsson'
p1085
tp1086
(lp1087
(I147
I0
I0
S'old'
p1088
tp1089
as.