(dp0
(S'lg420g'
p1
tp2
(lp3
(I0
I338
F0.125
S'able'
p4
I0
tp5
a(I1
I54
F1.0
S'best'
p6
I0
tp7
a(I1
I80
F0.625
S'easy'
p8
I0
tp9
as(S'motorola'
p10
tp11
(lp12
(I0
I13
F0.625
S'easier'
p13
I0
tp14
a(I0
I13
F0.125
S'last'
p15
I0
tp16
a(I0
I185
I0
S'old'
p17
I0
tp18
a(I0
I256
I0
S'old'
p19
I0
tp20
a(I0
I308
I0
S'old'
p21
I0
tp22
a(I0
I315
F0.5
S'comparable'
p23
I0
tp24
as(S'activation'
p25
tp26
(lp27
(I0
I278
F0.625
S'easy'
p28
I0
tp29
as(S'camera'
p30
tp31
(lp32
(I0
I13
F0.875
S'nice'
p33
I1
tp34
a(I1
I178
F-0.625
S'bad'
p35
I1
tp36
a(I3
I18
I0
S'most'
p37
I1
tp38
as(S'tracfone'
p39
S'website'
p40
tp41
(lp42
(I2
I55
I0
S'website'
p43
I0
tp44
a(I3
I11
F-0.375
S'simple'
p45
I0
tp46
a(I0
I279
F-0.125
S'mine'
p47
I8
tp48
a(I3
I11
F-0.375
g45
I8
tp49
a(I0
I11
F0.375
S'reliable'
p50
I0
tp51
a(I0
I55
F0.875
S'happy'
p52
I0
tp53
a(I0
I158
F0.625
S'easy'
p54
I0
tp55
a(I0
I191
F-0.875
S'hard'
p56
I0
tp57
a(I0
I191
F-0.5
S'separate'
p58
I0
tp59
a(I0
I303
F-0.125
S'overall'
p60
I0
tp61
a(I1
I2
I0
S'prepaid'
p62
I0
tp63
a(I1
I14
I0
S'old'
p64
I0
tp65
a(I1
I24
I0
S'old'
p66
I0
tp67
a(I1
I219
I0
S'older'
p68
I0
tp69
a(I2
I55
I0
g43
I0
tp70
as(S'reception'
p71
tp72
(lp73
(I0
I165
F0.625
S'perfect'
p74
I0
tp75
a(I0
I208
F-0.625
S'average'
p76
I0
tp77
a(I0
I210
F-0.5
S'poor'
p78
I0
tp79
a(I1
I147
I0
S'great'
p80
I0
tp81
a(I1
I155
I0
S'such'
p82
I0
tp83
a(I1
I162
F-0.25
S'loose'
p84
I0
tp85
a(I3
I32
F-0.875
S'worst'
p86
I0
tp87
as(S'airtime'
p88
S'card'
p89
tp90
(lp91
(I3
I2
F-0.625
S'other'
p92
I0
tp93
a(I3
I2
F-0.625
g92
I0
tp94
as(S'double'
p95
S'minutes'
p96
tp97
(lp98
(I0
I31
F-0.375
S'double'
p99
I0
tp100
a(I0
I36
I0
S'normal'
p101
I0
tp102
a(I0
I54
F-0.375
S'double'
p103
I0
tp104
a(I0
I101
F-0.375
S'double'
p105
I0
tp106
a(I0
I103
F-0.375
S'double'
p107
I0
tp108
a(I0
I171
F-0.375
S'double'
p109
I0
tp110
a(I0
I265
F-0.375
S'double'
p111
I0
tp112
a(I1
I1
F-0.375
S'double'
p113
I0
tp114
a(I1
I78
F-0.375
S'double'
p115
I0
tp116
a(I1
I191
F-0.375
S'double'
p117
I0
tp118
a(I1
I204
F-0.375
S'double'
p119
I0
tp120
a(I2
I7
F-0.375
S'double'
p121
I0
tp122
a(I2
I8
F-0.375
S'double'
p123
I0
tp124
a(I2
I37
F-0.375
S'double'
p125
I0
tp126
a(I3
I6
F-0.375
S'double'
p127
I0
tp128
as(S'minutes'
p129
S'for'
p130
S'life'
p131
tp132
(lp133
(I0
I31
F-0.375
g99
I0
tp134
a(I0
I101
F-0.375
g105
I0
tp135
a(I0
I265
F-0.375
g111
I0
tp136
a(I1
I1
F-0.375
g113
I0
tp137
a(I1
I78
F-0.375
g115
I0
tp138
a(I1
I191
F-0.375
g117
I0
tp139
a(I1
I204
F-0.375
g119
I0
tp140
a(I2
I8
F-0.375
g123
I0
tp141
a(I2
I37
F-0.375
g125
I0
tp142
a(I3
I6
F-0.375
g127
I0
tp143
as(S'pocket'
p144
tp145
(lp146
(I1
I35
F-0.75
S'comfortable'
p147
I17
tp148
a(I1
I137
F0.625
S'convenient'
p149
I17
tp150
a(I2
I65
F-0.375
S'small'
p151
I17
tp152
a(I2
I65
F-0.625
S'light'
p153
I17
tp154
a(I2
I65
I0
S'rear'
p155
I17
tp156
as(S'minutes'
p157
S'a'
p158
S'month'
p159
tp160
(lp161
(I0
I190
F-0.875
S'hard'
p162
I0
tp163
a(I0
I190
I0
S'minimal'
p164
I0
tp165
a(I2
I8
F-0.375
g123
I0
tp166
a(I2
I19
I0
S'many'
p167
I0
tp168
as(S'battery'
p169
tp170
(lp171
(I0
I56
F0.125
S'last'
p172
I15
tp173
a(I0
I56
F-0.5
S'long'
p174
I15
tp175
a(I0
I137
F1.0
S'good'
p176
I15
tp177
a(I0
I195
F0.625
S'removable'
p178
I15
tp179
a(I0
I274
F-0.75
S'indirect'
p180
I15
tp181
a(I0
I274
F-0.625
S'light'
p182
I15
tp183
a(I1
I8
F-0.375
S'daily'
p184
I15
tp185
a(I1
I23
F-0.25
S'low'
p186
I15
tp187
a(I1
I25
F-0.25
S'low'
p188
I15
tp189
a(I1
I26
F-0.25
S'low'
p190
I15
tp191
as(S'voice'
p192
tp193
(lp194
(I1
I144
F0.125
S'typical'
p195
I4
tp196
as(S'ringtones'
p197
tp198
(lp199
(I0
I207
I0
S'individual'
p200
I0
tp201
a(I0
I207
I0
S'pic'
p202
I0
tp203
a(I1
I98
F0.125
S'able'
p204
I0
tp205
a(I1
I98
I0
S'own'
p206
I0
tp207
a(I1
I98
I0
S'website'
p208
I0
tp209
a(I1
I99
F1.0
S'good'
p210
I0
tp211
a(I1
I101
I0
S'few'
p212
I0
tp213
a(I3
I6
F-0.625
S'free'
p214
I0
tp215
as(S'nokia'
p216
tp217
(lp218
(I0
I125
I0
S'old'
p219
I0
tp220
a(I0
I125
I0
S'least'
p221
I0
tp222
a(I0
I126
I0
S'old'
p223
I0
tp224
a(I0
I126
I0
S'great'
p225
I0
tp226
a(I1
I2
F-0.625
S'unlike'
p227
I0
tp228
a(I1
I189
I0
S'old'
p229
I0
tp230
a(I3
I33
F1.0
S'best'
p231
I0
tp232
as(S'calls'
p233
tp234
(lp235
(I0
I259
I0
S'great'
p236
I0
tp237
a(I1
I10
F-0.5
S'miss'
p238
I0
tp239
as(S'text'
p240
S'messages'
p241
tp242
(lp243
(I0
I145
F-0.625
S'free'
p244
I0
tp245
a(I2
I32
F-0.625
S'free'
p246
I0
tp247
a(I0
I145
F-0.625
g244
I18
tp248
a(I0
I181
F-0.625
S'free'
p249
I18
tp250
a(I0
I150
F-0.5
S'open'
p251
I1
tp252
a(I0
I152
F-0.625
S'free'
p253
I1
tp254
a(I1
I185
F0.375
S'new'
p255
I1
tp256
a(I2
I32
F-0.625
g246
I1
tp257
as(S'transfer'
p258
tp259
(lp260
(I1
I231
I0
S'such'
p261
I1
tp262
as(S'1'
p263
S'year'
p264
tp265
(lp266
(I1
I32
F0.5
S'added'
p267
I10
tp268
as(S'customer'
p269
S'service'
p270
tp271
(lp272
(I0
I0
I0
S'critical'
p273
I3
tp274
a(I0
I0
I0
g273
I16
tp275
a(I0
I75
I0
S'great'
p276
I16
tp277
a(I0
I76
F-0.625
S'other'
p278
I16
tp279
a(I0
I77
I0
S'great'
p280
I16
tp281
a(I0
I226
I0
S'site'
p282
I16
tp283
a(I0
I242
F-0.125
S'overall'
p284
I16
tp285
a(I1
I151
F-0.5
S'unavailable'
p286
I16
tp287
a(I1
I157
F0.875
S'lucky'
p288
I16
tp289
a(I3
I40
F1.0
S'good'
p290
I16
tp291
as(S'volume'
p292
tp293
(lp294
(I1
I20
I0
S'current'
p295
I6
tp296
a(I1
I108
F-0.25
S'highest'
p297
I6
tp298
a(I1
I225
F-0.25
S'low'
p299
I6
tp300
as(S'texting'
p301
tp302
(lp303
(I0
I306
F0.375
S'much'
p304
I0
tp305
as(S'flip'
p306
tp307
(lp308
(I0
I65
F-0.625
S'other'
p309
I4
tp310
a(I0
I175
F0.5
S'stylish'
p311
I4
tp312
a(I1
I22
F1.0
S'good'
p313
I4
tp314
a(I1
I22
F-0.625
S'bad'
p315
I4
tp316
as.