(dp0
(S'seller'
p1
tp2
(lp3
(I2
I0
I0
S'great'
p4
I19
tp5
a(I4
I7
F-0.625
S'other'
p6
I19
tp7
a(I17
I4
F0.625
S'respectful'
p8
I19
tp9
a(I17
I4
F0.5
S'considerate'
p10
I19
tp11
a(I19
I4
F0.5
S'true'
p12
I19
tp13
a(I23
I2
I0
S'older'
p14
I19
tp15
as(S'sim'
p16
S'card'
p17
tp18
(lp19
(I28
I12
F0.375
S'new'
p20
I0
tp21
as(S'battery'
p22
tp23
(lp24
(I23
I7
F0.375
S'new'
p25
I15
tp26
a(I27
I0
I0
S'more'
p27
I15
tp28
a(I27
I0
F1.0
S'good'
p29
I15
tp30
as(S'3g'
p31
S'iphone'
p32
tp33
(lp34
(I10
I0
F0.125
S'first'
p35
I0
tp36
a(I3
I6
F0.875
S'lucky'
p37
I1
tp38
a(I3
I6
F0.125
S'first'
p39
I1
tp40
a(I10
I0
F0.125
g35
I1
tp41
a(I18
I0
F0.25
S'repair'
p42
I1
tp43
a(I20
I7
F-0.75
S'dead'
p44
I1
tp45
a(I20
I10
F0.375
S'new'
p46
I1
tp47
a(I28
I17
F0.625
S'eager'
p48
I1
tp49
a(I28
I21
F0.375
S'new'
p50
I1
tp51
a(I32
I18
F0.25
S'familiar'
p52
I1
tp53
a(I33
I4
F0.375
S'new'
p54
I1
tp55
a(I33
I21
F0.375
S'new'
p56
I1
tp57
as(S'apple'
p58
tp59
(lp60
(I1
I8
I0
S'great'
p61
I4
tp62
a(I32
I1
F-0.75
S'unable'
p63
I4
tp64
as(S'apps'
p65
tp66
(lp67
(I9
I27
F0.125
S'usual'
p68
I0
tp69
a(I9
I28
F0.375
S'available'
p70
I0
tp71
a(I20
I13
I0
S'latest'
p72
I0
tp73
as(S'perfect'
p74
S'condition'
p75
tp76
(lp77
(I33
I4
F0.625
S'perfect'
p78
I3
tp79
as.