(dp0
(S'battery'
p1
S'life'
p2
tp3
(lp4
(I2
I33
I0
S'great'
p5
I1
tp6
a(I6
I8
I0
S'great'
p7
I1
tp8
a(I7
I138
F1.0
S'best'
p9
I1
tp10
a(I3
I4
F-0.5
S'afraid'
p11
I15
tp12
a(I7
I47
F0.625
S'easy'
p13
I15
tp14
a(I7
I47
F-0.5
S'open'
p15
I15
tp16
a(I7
I119
F-0.625
S'bad'
p17
I15
tp18
a(I7
I138
F1.0
g9
I15
tp19
a(I8
I23
F-0.75
S'dead'
p20
I15
tp21
as(S'call'
p22
S'quality'
p23
tp24
(lp25
(I2
I56
I0
S'great'
p26
I0
tp27
a(I7
I91
F1.0
S'good'
p28
I0
tp29
as(S'nokia'
p30
tp31
(lp32
(I2
I32
I0
S'specific'
p33
I0
tp34
a(I2
I57
I0
S'full'
p35
I0
tp36
a(I2
I57
F-0.25
S'potential'
p37
I0
tp38
a(I2
I61
F-0.125
S'overall'
p39
I0
tp40
a(I3
I7
F-0.625
S'other'
p41
I0
tp42
a(I4
I7
I0
S'many'
p43
I0
tp44
a(I4
I8
I0
S'sensitive'
p45
I0
tp46
a(I4
I8
F-0.625
S'other'
p47
I0
tp48
a(I5
I14
F0.875
S'music'
p49
I0
tp50
a(I7
I32
I0
S'great'
p51
I0
tp52
a(I7
I138
F0.125
S'usual'
p53
I0
tp54
as(S'media'
p55
S'player'
p56
tp57
(lp58
(I2
I61
I0
S'generic'
p59
I0
tp60
a(I2
I61
F0.625
S'pleasant'
p61
I0
tp62
a(I5
I23
F0.625
S'easy'
p63
I0
tp64
a(I7
I54
F-0.125
S'super'
p65
I0
tp66
a(I7
I54
F0.625
S'easy'
p67
I0
tp68
as(S'white'
p69
S'screen'
p70
tp71
(lp72
(I7
I1
F-0.25
S'white'
p73
I0
tp74
a(I7
I74
F-0.25
S'white'
p75
I0
tp76
a(I8
I16
F-0.25
S'white'
p77
I0
tp78
as(S'radio'
p79
tp80
(lp81
(I2
I28
F0.875
S'music'
p82
I0
tp83
as(S'music'
p84
S'player'
p85
tp86
(lp87
(I2
I46
I0
S'great'
p88
I0
tp89
a(I7
I60
F0.625
S'decent'
p90
I0
tp91
a(I7
I91
F1.0
S'good'
p92
I0
tp93
a(I2
I61
F0.625
g61
I6
tp94
a(I7
I54
F-0.125
g65
I6
tp95
a(I7
I54
F0.625
g67
I6
tp96
a(I2
I46
I0
g88
I0
tp97
a(I5
I12
I0
S'great'
p98
I0
tp99
a(I7
I60
F0.625
g90
I0
tp100
a(I7
I91
F1.0
g92
I0
tp101
as.