(dp0
(S'memory'
p1
S'card'
p2
tp3
(lp4
(I10
I102
F0.875
S'music'
p5
I0
tp6
a(I11
I50
F0.625
S'removable'
p7
I0
tp8
a(I23
I8
I0
S'internal'
p9
I0
tp10
a(I23
I14
I0
S'internal'
p11
I0
tp12
a(I23
I15
F0.125
S'memory'
p13
I0
tp14
as(S'battery'
p15
S'life'
p16
tp17
(lp18
(I6
I24
I0
S'great'
p19
I1
tp20
a(I7
I1
F1.0
S'good'
p21
I1
tp22
a(I10
I313
F1.0
S'good'
p23
I1
tp24
a(I10
I320
F-0.75
S'short'
p25
I1
tp26
a(I13
I113
F-0.625
S'bad'
p27
I1
tp28
a(I0
I48
F0.5
S'reasonable'
p29
I15
tp30
a(I10
I320
F-0.75
g25
I15
tp31
a(I11
I121
F0.625
S'decent'
p32
I15
tp33
a(I13
I37
I0
S'charged'
p34
I15
tp35
a(I13
I37
F-0.5
S'long'
p36
I15
tp37
a(I13
I38
F0.5
S'stronger'
p38
I15
tp39
a(I13
I113
F-0.625
g27
I15
tp40
a(I17
I0
I0
S'full'
p41
I15
tp42
a(I20
I31
F-0.75
S'dead'
p43
I15
tp44
a(I20
I31
F0.375
S'early'
p45
I15
tp46
a(I20
I158
F-0.625
S'other'
p47
I15
tp48
a(I20
I158
F0.625
S'easy'
p49
I15
tp50
a(I20
I158
F1.0
S'good'
p51
I15
tp52
as(S'usb'
p53
S'cable'
p54
tp55
(lp56
(I7
I12
I0
S'cable'
p57
I2
tp58
a(I10
I190
I0
S'cable'
p59
I2
tp60
a(I23
I3
I0
S'cable'
p61
I2
tp62
as(S'mp3'
p63
S'player'
p64
tp65
(lp66
(I23
I7
F0.75
S'worth'
p67
I1
tp68
as(S'call'
p69
S'quality'
p70
tp71
(lp72
(I1
I66
I0
S'great'
p73
I0
tp74
a(I1
I66
F0.25
S'read'
p75
I0
tp76
a(I5
I48
I0
S'great'
p77
I0
tp78
a(I8
I3
F1.0
S'good'
p79
I0
tp80
a(I16
I2
F1.0
S'good'
p81
I0
tp82
a(I20
I9
F-0.625
S'bad'
p83
I0
tp84
as(S'x'
p85
S'link'
p86
tp87
(lp88
(I10
I30
I0
S'latest'
p89
I0
tp90
a(I10
I43
I0
S'operational'
p91
I0
tp92
a(I22
I130
F-0.375
S'top'
p93
I0
tp94
as(S'touch'
p95
S'screen'
p96
S'not'
p97
tp98
(lp99
(I5
I36
I0
S'big'
p100
I0
tp101
a(I7
I56
F0.5
S'touch'
p102
I0
tp103
a(I10
I162
F0.5
S'touch'
p104
I0
tp105
a(I10
I162
I0
S'sensitive'
p106
I0
tp107
a(I10
I162
F0.625
S'easy'
p108
I0
tp109
a(I10
I163
I0
S'sensitive'
p110
I0
tp111
a(I10
I163
F0.5
S'touch'
p112
I0
tp113
a(I10
I163
F-0.75
S'likely'
p114
I0
tp115
a(I10
I217
I0
S'great'
p116
I0
tp117
a(I10
I224
F0.5
S'touch'
p118
I0
tp119
a(I16
I15
F0.5
S'touch'
p120
I0
tp121
a(I16
I21
I0
S'resistive'
p122
I0
tp123
a(I16
I62
F0.5
S'touch'
p124
I0
tp125
a(I19
I14
F-0.5
S'try'
p126
I0
tp127
a(I19
I28
F0.5
S'touch'
p128
I0
tp129
a(I20
I15
F1.0
S'best'
p130
I0
tp131
a(I20
I31
F0.5
S'touch'
p132
I0
tp133
a(I20
I74
F-0.75
S'tough'
p134
I0
tp135
a(I21
I32
I0
S'resistive'
p136
I0
tp137
a(I21
I32
F0.25
S'responsive'
p138
I0
tp139
a(I0
I9
F0.5
S'touch'
p140
I2
tp141
a(I0
I16
F0.5
S'touch'
p142
I2
tp143
a(I0
I43
I0
S'more'
p144
I2
tp145
a(I0
I43
F0.5
S'touch'
p146
I2
tp147
a(I0
I45
F0.5
S'touch'
p148
I2
tp149
a(I1
I68
F0.5
S'touch'
p150
I2
tp151
a(I5
I36
I0
g100
I2
tp152
a(I6
I7
F0.5
S'touch'
p153
I2
tp154
a(I6
I25
F0.5
S'touch'
p155
I2
tp156
a(I7
I10
F0.5
S'touch'
p157
I2
tp158
a(I7
I10
F1.0
S'better'
p159
I2
tp160
a(I7
I28
F0.5
S'touch'
p161
I2
tp162
a(I7
I31
F0.5
S'touch'
p163
I2
tp164
a(I7
I31
F-0.125
S'slow'
p165
I2
tp166
a(I7
I31
F-0.875
S'hard'
p167
I2
tp168
a(I7
I56
F0.5
g102
I2
tp169
a(I7
I57
F0.25
S'larger'
p170
I2
tp171
a(I7
I57
F0.375
S'newer'
p172
I2
tp173
a(I7
I64
F0.125
S'first'
p174
I2
tp175
a(I8
I21
F0.5
S'touch'
p176
I2
tp177
a(I8
I23
F0.125
S'protective'
p178
I2
tp179
a(I8
I23
F0.5
S'touch'
p180
I2
tp181
a(I10
I17
F0.5
S'touch'
p182
I2
tp183
a(I10
I61
I0
S'resistive'
p184
I2
tp185
a(I10
I92
F0.5
S'touch'
p186
I2
tp187
a(I10
I101
F0.5
S'touch'
p188
I2
tp189
a(I10
I103
F0.375
S'much'
p190
I2
tp191
a(I10
I103
F0.5
S'touch'
p192
I2
tp193
a(I10
I107
F0.5
S'touch'
p194
I2
tp195
a(I10
I143
I0
S'many'
p196
I2
tp197
a(I10
I143
F0.5
S'touch'
p198
I2
tp199
a(I10
I162
F0.5
g104
I2
tp200
a(I10
I162
I0
g106
I2
tp201
a(I10
I162
F0.625
g108
I2
tp202
a(I10
I163
I0
g110
I2
tp203
a(I10
I163
F0.5
g112
I2
tp204
a(I10
I163
F-0.75
g114
I2
tp205
a(I10
I164
F-0.25
S'past'
p206
I2
tp207
a(I10
I164
I0
S'capacitive'
p208
I2
tp209
a(I10
I168
F1.0
S'best'
p210
I2
tp211
a(I10
I217
I0
g116
I2
tp212
a(I10
I224
F0.5
g118
I2
tp213
a(I10
I302
F0.5
S'touch'
p214
I2
tp215
a(I10
I306
F0.5
S'touch'
p216
I2
tp217
a(I10
I311
F0.5
S'touch'
p218
I2
tp219
a(I11
I48
F0.125
S'first'
p220
I2
tp221
a(I11
I85
F0.5
S'touch'
p222
I2
tp223
a(I11
I98
F0.5
S'touch'
p224
I2
tp225
a(I11
I105
F0.5
S'touch'
p226
I2
tp227
a(I12
I60
F0.5
S'touch'
p228
I2
tp229
a(I12
I66
F0.5
S'touch'
p230
I2
tp231
a(I12
I67
F0.125
S'first'
p232
I2
tp233
a(I13
I58
F0.125
S'first'
p234
I2
tp235
a(I13
I106
F0.5
S'touch'
p236
I2
tp237
a(I13
I106
F0.5
S'touch'
p238
I2
tp239
a(I13
I108
F-0.625
S'other'
p240
I2
tp241
a(I13
I108
F0.5
S'touch'
p242
I2
tp243
a(I13
I154
F0.5
S'touch'
p244
I2
tp245
a(I15
I27
I0
S'same'
p246
I2
tp247
a(I15
I27
F-0.75
S'unresponsive'
p248
I2
tp249
a(I16
I15
F0.5
g120
I2
tp250
a(I16
I21
I0
g122
I2
tp251
a(I16
I25
F0.75
S'due'
p252
I2
tp253
a(I16
I25
F-0.875
S'awful'
p254
I2
tp255
a(I16
I32
F0.5
S'touch'
p256
I2
tp257
a(I16
I39
F0.5
S'touch'
p258
I2
tp259
a(I16
I39
F0.5
S'touch'
p260
I2
tp261
a(I16
I62
F0.5
g124
I2
tp262
a(I18
I1
F0.5
S'touch'
p263
I2
tp264
a(I18
I1
F-0.75
S'unresponsive'
p265
I2
tp266
a(I18
I18
F0.5
S'touch'
p267
I2
tp268
a(I18
I29
F0.5
S'touch'
p269
I2
tp270
a(I19
I14
F-0.5
g126
I2
tp271
a(I19
I28
F0.5
g128
I2
tp272
a(I20
I10
F0.5
S'touch'
p273
I2
tp274
a(I20
I15
F1.0
g130
I2
tp275
a(I20
I31
F0.5
g132
I2
tp276
a(I20
I68
F0.125
S'first'
p277
I2
tp278
a(I20
I74
F-0.75
g134
I2
tp279
a(I20
I79
F0.5
S'touch'
p280
I2
tp281
a(I20
I80
F0.375
S'newer'
p282
I2
tp283
a(I20
I159
F1.0
S'good'
p284
I2
tp285
a(I20
I162
F0.5
S'touch'
p286
I2
tp287
a(I20
I170
F0.5
S'touch'
p288
I2
tp289
a(I21
I32
I0
g136
I2
tp290
a(I21
I32
F0.25
g138
I2
tp291
a(I21
I57
I0
S'full'
p292
I2
tp293
a(I21
I86
F-0.75
S'unresponsive'
p294
I2
tp295
a(I22
I15
F0.5
S'touch'
p296
I2
tp297
a(I22
I59
F0.125
S'first'
p298
I2
tp299
a(I22
I89
F0.5
S'touch'
p300
I2
tp301
a(I22
I101
F0.5
S'touch'
p302
I2
tp303
a(I22
I105
F0.5
S'touch'
p304
I2
tp305
a(I22
I108
F0.5
S'touch'
p306
I2
tp307
a(I22
I123
F0.5
S'touch'
p308
I2
tp309
a(I22
I124
F0.5
S'touch'
p310
I2
tp311
a(I22
I143
I0
S'basic'
p312
I2
tp313
a(I23
I31
F0.5
S'touch'
p314
I2
tp315
a(I23
I31
F0.25
S'consistent'
p316
I2
tp317
a(I23
I31
F0.25
S'responsive'
p318
I2
tp319
a(I23
I36
F0.5
S'touch'
p320
I2
tp321
a(I23
I67
F0.5
S'touch'
p322
I2
tp323
a(I23
I74
F0.5
S'touch'
p324
I2
tp325
a(I24
I2
F0.5
S'touch'
p326
I2
tp327
as(S'gophone'
p328
tp329
(lp330
(I10
I123
I0
S'more'
p331
I0
tp332
a(I10
I123
I0
S'exact'
p333
I0
tp334
a(I10
I123
I0
S'big'
p335
I0
tp336
a(I12
I21
I0
S'great'
p337
I0
tp338
a(I12
I21
F0.25
S'refurbished'
p339
I0
tp340
a(I15
I25
F1.0
S'good'
p341
I0
tp342
as(S'camera'
p343
tp344
(lp345
(I1
I83
I0
S'internal'
p346
I1
tp347
a(I1
I149
F-0.875
S'worst'
p348
I1
tp349
a(I8
I9
I0
S'great'
p350
I1
tp351
a(I8
I28
F0.375
S'available'
p352
I1
tp353
a(I8
I28
F0.625
S'easy'
p354
I1
tp355
a(I10
I118
F1.0
S'good'
p356
I1
tp357
a(I12
I73
F-0.625
S'bad'
p358
I1
tp359
a(I13
I167
F0.625
S'easy'
p360
I1
tp361
a(I16
I73
F-0.5
S'poor'
p362
I1
tp363
a(I18
I13
F0.875
S'nice'
p364
I1
tp365
a(I18
I29
F0.375
S'new'
p366
I1
tp367
a(I19
I3
I0
S'more'
p368
I1
tp369
a(I23
I43
F1.0
S'good'
p370
I1
tp371
as(S'to'
p372
S'touch'
p373
S'screen'
p374
tp375
(lp376
(I0
I9
F0.5
g140
I0
tp377
a(I0
I16
F0.5
g142
I0
tp378
a(I0
I43
I0
g144
I0
tp379
a(I0
I43
F0.5
g146
I0
tp380
a(I0
I45
F0.5
g148
I0
tp381
a(I1
I68
F0.5
g150
I0
tp382
a(I5
I36
I0
g100
I0
tp383
a(I6
I7
F0.5
g153
I0
tp384
a(I6
I25
F0.5
g155
I0
tp385
a(I7
I10
F0.5
g157
I0
tp386
a(I7
I10
F1.0
g159
I0
tp387
a(I7
I28
F0.5
g161
I0
tp388
a(I7
I31
F0.5
g163
I0
tp389
a(I7
I31
F-0.125
g165
I0
tp390
a(I7
I31
F-0.875
g167
I0
tp391
a(I7
I56
F0.5
g102
I0
tp392
a(I7
I57
F0.25
g170
I0
tp393
a(I7
I57
F0.375
g172
I0
tp394
a(I7
I64
F0.125
g174
I0
tp395
a(I8
I21
F0.5
g176
I0
tp396
a(I8
I23
F0.125
g178
I0
tp397
a(I8
I23
F0.5
g180
I0
tp398
a(I10
I17
F0.5
g182
I0
tp399
a(I10
I61
I0
g184
I0
tp400
a(I10
I92
F0.5
g186
I0
tp401
a(I10
I101
F0.5
g188
I0
tp402
a(I10
I103
F0.375
g190
I0
tp403
a(I10
I103
F0.5
g192
I0
tp404
a(I10
I107
F0.5
g194
I0
tp405
a(I10
I143
I0
g196
I0
tp406
a(I10
I143
F0.5
g198
I0
tp407
a(I10
I162
F0.5
g104
I0
tp408
a(I10
I162
I0
g106
I0
tp409
a(I10
I162
F0.625
g108
I0
tp410
a(I10
I163
I0
g110
I0
tp411
a(I10
I163
F0.5
g112
I0
tp412
a(I10
I163
F-0.75
g114
I0
tp413
a(I10
I164
F-0.25
g206
I0
tp414
a(I10
I164
I0
g208
I0
tp415
a(I10
I168
F1.0
g210
I0
tp416
a(I10
I217
I0
g116
I0
tp417
a(I10
I224
F0.5
g118
I0
tp418
a(I10
I302
F0.5
g214
I0
tp419
a(I10
I306
F0.5
g216
I0
tp420
a(I10
I311
F0.5
g218
I0
tp421
a(I11
I48
F0.125
g220
I0
tp422
a(I11
I85
F0.5
g222
I0
tp423
a(I11
I98
F0.5
g224
I0
tp424
a(I11
I105
F0.5
g226
I0
tp425
a(I12
I60
F0.5
g228
I0
tp426
a(I12
I66
F0.5
g230
I0
tp427
a(I12
I67
F0.125
g232
I0
tp428
a(I13
I58
F0.125
g234
I0
tp429
a(I13
I106
F0.5
g236
I0
tp430
a(I13
I106
F0.5
g238
I0
tp431
a(I13
I108
F-0.625
g240
I0
tp432
a(I13
I108
F0.5
g242
I0
tp433
a(I13
I154
F0.5
g244
I0
tp434
a(I15
I27
I0
g246
I0
tp435
a(I15
I27
F-0.75
g248
I0
tp436
a(I16
I15
F0.5
g120
I0
tp437
a(I16
I21
I0
g122
I0
tp438
a(I16
I25
F0.75
g252
I0
tp439
a(I16
I25
F-0.875
g254
I0
tp440
a(I16
I32
F0.5
g256
I0
tp441
a(I16
I39
F0.5
g258
I0
tp442
a(I16
I39
F0.5
g260
I0
tp443
a(I16
I62
F0.5
g124
I0
tp444
a(I18
I1
F0.5
g263
I0
tp445
a(I18
I1
F-0.75
g265
I0
tp446
a(I18
I18
F0.5
g267
I0
tp447
a(I18
I29
F0.5
g269
I0
tp448
a(I19
I14
F-0.5
g126
I0
tp449
a(I19
I28
F0.5
g128
I0
tp450
a(I20
I10
F0.5
g273
I0
tp451
a(I20
I15
F1.0
g130
I0
tp452
a(I20
I31
F0.5
g132
I0
tp453
a(I20
I68
F0.125
g277
I0
tp454
a(I20
I74
F-0.75
g134
I0
tp455
a(I20
I79
F0.5
g280
I0
tp456
a(I20
I80
F0.375
g282
I0
tp457
a(I20
I159
F1.0
g284
I0
tp458
a(I20
I162
F0.5
g286
I0
tp459
a(I20
I170
F0.5
g288
I0
tp460
a(I21
I32
I0
g136
I0
tp461
a(I21
I32
F0.25
g138
I0
tp462
a(I21
I57
I0
g292
I0
tp463
a(I21
I86
F-0.75
g294
I0
tp464
a(I22
I15
F0.5
g296
I0
tp465
a(I22
I59
F0.125
g298
I0
tp466
a(I22
I89
F0.5
g300
I0
tp467
a(I22
I101
F0.5
g302
I0
tp468
a(I22
I105
F0.5
g304
I0
tp469
a(I22
I108
F0.5
g306
I0
tp470
a(I22
I123
F0.5
g308
I0
tp471
a(I22
I124
F0.5
g310
I0
tp472
a(I22
I143
I0
g312
I0
tp473
a(I23
I31
F0.5
g314
I0
tp474
a(I23
I31
F0.25
g316
I0
tp475
a(I23
I31
F0.25
g318
I0
tp476
a(I23
I36
F0.5
g320
I0
tp477
a(I23
I67
F0.5
g322
I0
tp478
a(I23
I74
F0.5
g324
I0
tp479
a(I24
I2
F0.5
g326
I0
tp480
as(S'games'
p481
tp482
(lp483
(I2
I7
F-0.625
S'free'
p484
I19
tp485
a(I2
I7
I0
S'full'
p486
I19
tp487
a(I2
I7
F-0.625
S'free'
p488
I19
tp489
a(I10
I294
F-0.625
S'free'
p490
I19
tp491
a(I12
I43
I0
S'3d'
p492
I19
tp493
a(I12
I50
F0.5
S'compatible'
p494
I19
tp495
a(I12
I50
I0
S'most'
p496
I19
tp497
a(I12
I50
F-0.5
S'jar'
p498
I19
tp499
a(I12
I55
F1.0
S'good'
p500
I19
tp501
a(I12
I55
F-0.625
S'free'
p502
I19
tp503
a(I12
I58
I0
S'fast'
p504
I19
tp505
a(I22
I67
F-0.625
S'free'
p506
I19
tp507
as(S'airtime'
p508
S'credit'
p509
tp510
(lp511
(I8
I24
F-0.5
S'less'
p512
I0
tp513
a(I10
I298
I0
S'wish'
p514
I0
tp515
a(I10
I298
I0
S'earlier'
p516
I0
tp517
a(I7
I36
F0.875
S'happy'
p518
I3
tp519
a(I10
I113
F0.5
S'hopeful'
p520
I3
tp521
a(I11
I26
F-0.625
S'generous'
p522
I3
tp523
a(I16
I96
F1.0
S'good'
p524
I3
tp525
a(I22
I39
I0
S'total'
p526
I3
tp527
a(I22
I62
F0.75
S'worth'
p528
I3
tp529
a(I8
I24
F-0.5
g512
I0
tp530
a(I10
I298
I0
g514
I0
tp531
a(I10
I298
I0
g516
I0
tp532
a(I16
I83
F-0.375
S'simple'
p533
I0
tp534
a(I22
I12
F-0.75
S'difficult'
p535
I0
tp536
a(I22
I136
F0.375
S'extra'
p537
I0
tp538
as(S'iphone'
p539
tp540
(lp541
(I6
I4
I0
S'big'
p542
I1
tp543
a(I10
I124
I0
S'cool'
p544
I1
tp545
a(I12
I26
F-0.75
S'difficult'
p546
I1
tp547
a(I22
I103
F-0.25
S'abundant'
p548
I1
tp549
as(S'a'
p550
S'touch'
p551
S'screen'
p552
tp553
(lp554
(I0
I9
F0.5
g140
I0
tp555
a(I0
I16
F0.5
g142
I0
tp556
a(I0
I43
I0
g144
I0
tp557
a(I0
I43
F0.5
g146
I0
tp558
a(I0
I45
F0.5
g148
I0
tp559
a(I1
I68
F0.5
g150
I0
tp560
a(I5
I36
I0
g100
I0
tp561
a(I6
I7
F0.5
g153
I0
tp562
a(I6
I25
F0.5
g155
I0
tp563
a(I7
I10
F0.5
g157
I0
tp564
a(I7
I10
F1.0
g159
I0
tp565
a(I7
I28
F0.5
g161
I0
tp566
a(I7
I31
F0.5
g163
I0
tp567
a(I7
I31
F-0.125
g165
I0
tp568
a(I7
I31
F-0.875
g167
I0
tp569
a(I7
I56
F0.5
g102
I0
tp570
a(I7
I57
F0.25
g170
I0
tp571
a(I7
I57
F0.375
g172
I0
tp572
a(I7
I64
F0.125
g174
I0
tp573
a(I8
I21
F0.5
g176
I0
tp574
a(I8
I23
F0.125
g178
I0
tp575
a(I8
I23
F0.5
g180
I0
tp576
a(I10
I17
F0.5
g182
I0
tp577
a(I10
I61
I0
g184
I0
tp578
a(I10
I92
F0.5
g186
I0
tp579
a(I10
I101
F0.5
g188
I0
tp580
a(I10
I103
F0.375
g190
I0
tp581
a(I10
I103
F0.5
g192
I0
tp582
a(I10
I107
F0.5
g194
I0
tp583
a(I10
I143
I0
g196
I0
tp584
a(I10
I143
F0.5
g198
I0
tp585
a(I10
I162
F0.5
g104
I0
tp586
a(I10
I162
I0
g106
I0
tp587
a(I10
I162
F0.625
g108
I0
tp588
a(I10
I163
I0
g110
I0
tp589
a(I10
I163
F0.5
g112
I0
tp590
a(I10
I163
F-0.75
g114
I0
tp591
a(I10
I164
F-0.25
g206
I0
tp592
a(I10
I164
I0
g208
I0
tp593
a(I10
I168
F1.0
g210
I0
tp594
a(I10
I217
I0
g116
I0
tp595
a(I10
I306
F0.5
g216
I0
tp596
a(I10
I311
F0.5
g218
I0
tp597
a(I11
I85
F0.5
g222
I0
tp598
a(I11
I105
F0.5
g226
I0
tp599
a(I12
I60
F0.5
g228
I0
tp600
a(I12
I66
F0.5
g230
I0
tp601
a(I13
I106
F0.5
g236
I0
tp602
a(I13
I106
F0.5
g238
I0
tp603
a(I13
I108
F-0.625
g240
I0
tp604
a(I13
I108
F0.5
g242
I0
tp605
a(I13
I154
F0.5
g244
I0
tp606
a(I15
I27
I0
g246
I0
tp607
a(I15
I27
F-0.75
g248
I0
tp608
a(I16
I15
F0.5
g120
I0
tp609
a(I16
I21
I0
g122
I0
tp610
a(I16
I25
F0.75
g252
I0
tp611
a(I16
I25
F-0.875
g254
I0
tp612
a(I16
I32
F0.5
g256
I0
tp613
a(I16
I39
F0.5
g258
I0
tp614
a(I16
I39
F0.5
g260
I0
tp615
a(I16
I62
F0.5
g124
I0
tp616
a(I18
I1
F0.5
g263
I0
tp617
a(I18
I1
F-0.75
g265
I0
tp618
a(I18
I18
F0.5
g267
I0
tp619
a(I18
I29
F0.5
g269
I0
tp620
a(I19
I14
F-0.5
g126
I0
tp621
a(I19
I28
F0.5
g128
I0
tp622
a(I20
I10
F0.5
g273
I0
tp623
a(I20
I15
F1.0
g130
I0
tp624
a(I20
I31
F0.5
g132
I0
tp625
a(I20
I68
F0.125
g277
I0
tp626
a(I20
I74
F-0.75
g134
I0
tp627
a(I20
I79
F0.5
g280
I0
tp628
a(I20
I80
F0.375
g282
I0
tp629
a(I20
I159
F1.0
g284
I0
tp630
a(I20
I162
F0.5
g286
I0
tp631
a(I20
I170
F0.5
g288
I0
tp632
a(I21
I32
I0
g136
I0
tp633
a(I21
I32
F0.25
g138
I0
tp634
a(I21
I57
I0
g292
I0
tp635
a(I21
I86
F-0.75
g294
I0
tp636
a(I22
I15
F0.5
g296
I0
tp637
a(I22
I89
F0.5
g300
I0
tp638
a(I22
I101
F0.5
g302
I0
tp639
a(I22
I105
F0.5
g304
I0
tp640
a(I22
I108
F0.5
g306
I0
tp641
a(I22
I123
F0.5
g308
I0
tp642
a(I22
I124
F0.5
g310
I0
tp643
a(I22
I143
I0
g312
I0
tp644
a(I23
I31
F0.5
g314
I0
tp645
a(I23
I31
F0.25
g316
I0
tp646
a(I23
I31
F0.25
g318
I0
tp647
a(I23
I36
F0.5
g320
I0
tp648
a(I23
I67
F0.5
g322
I0
tp649
a(I23
I74
F0.5
g324
I0
tp650
a(I24
I2
F0.5
g326
I0
tp651
as(S'blue'
p652
S'tooth'
p653
tp654
(lp655
(I20
I90
I0
S'blue'
p656
I0
tp657
a(I20
I91
I0
S'blue'
p658
I0
tp659
as(S'side'
p660
S'of'
p661
S'screen'
p662
tp663
(lp664
(I5
I24
F-0.375
S'black'
p665
I0
tp666
a(I20
I132
F0.625
S'easier'
p667
I0
tp668
a(I23
I105
F-0.125
S'opposite'
p669
I0
tp670
as(S'internet'
p671
tp672
(lp673
(I0
I0
F1.0
S'good'
p674
I6
tp675
a(I0
I72
I0
S'funny'
p676
I6
tp677
a(I11
I41
F-0.625
S'free'
p678
I6
tp679
a(I20
I148
I0
S'internet'
p680
I6
tp681
as(S'touchscreen'
p682
tp683
(lp684
(I1
I14
I0
S'sensitive'
p685
I0
tp686
a(I1
I26
F0.125
S'first'
p687
I0
tp688
a(I1
I113
F-0.375
S'simple'
p689
I0
tp690
a(I1
I128
F0.125
S'first'
p691
I0
tp692
a(I6
I0
F-0.625
S'bad'
p693
I0
tp694
a(I6
I0
F-0.125
S'slow'
p695
I0
tp696
a(I10
I165
I0
S'capacitive'
p697
I0
tp698
a(I10
I225
I0
S'only'
p699
I0
tp700
a(I11
I127
F0.875
S'nice'
p701
I0
tp702
a(I11
I127
F-0.75
S'little'
p703
I0
tp704
a(I16
I2
F-0.625
S'light'
p705
I0
tp706
a(I22
I80
F1.0
S'good'
p707
I0
tp708
a(I23
I83
I0
S'capacitive'
p709
I0
tp710
a(I23
I92
F1.0
S'best'
p711
I0
tp712
as(S'fm'
p713
S'radio'
p714
tp715
(lp716
(I10
I317
F1.0
S'good'
p717
I0
tp718
a(I20
I12
I0
S'cool'
p719
I0
tp720
a(I6
I1
F1.0
S'good'
p721
I0
tp722
a(I20
I12
I0
g719
I0
tp723
as(S'headphone'
p724
S'jack'
p725
tp726
(lp727
(I1
I51
F-0.375
S'top'
p728
I0
tp729
a(I10
I280
F-0.5
S'regular'
p730
I0
tp731
a(I11
I112
I0
S'standard'
p732
I0
tp733
a(I21
I28
I0
S'standard'
p734
I0
tp735
as(S'prepaid'
p736
tp737
(lp738
(I1
I101
F1.0
S'good'
p739
I0
tp740
a(I1
I102
I0
S'few'
p741
I0
tp742
a(I10
I122
I0
S'few'
p743
I0
tp744
a(I21
I59
F0.875
S'nice'
p745
I0
tp746
as(S'pretty'
p747
S'good'
p748
tp749
(lp750
(I16
I18
F-0.625
S'other'
p751
I3
tp752
a(I23
I80
F1.0
S'good'
p753
I3
tp754
as(S'unlock'
p755
tp756
(lp757
(I0
I10
F-0.75
S'little'
p758
I0
tp759
as(S'music'
p760
S'player'
p761
tp762
(lp763
(I1
I87
I0
S'great'
p764
I0
tp765
a(I8
I17
F0.875
S'music'
p766
I0
tp767
a(I8
I24
F0.875
S'music'
p768
I0
tp769
a(I8
I43
F0.875
S'music'
p770
I0
tp771
a(I21
I32
F0.875
S'music'
p772
I0
tp773
a(I24
I2
I0
S'great'
p774
I0
tp775
a(I8
I17
F0.875
g766
I6
tp776
a(I8
I24
F0.875
g768
I6
tp777
a(I8
I43
F0.875
g770
I6
tp778
a(I21
I24
F1.0
S'best'
p779
I6
tp780
a(I21
I32
F0.875
g772
I6
tp781
a(I24
I2
I0
g774
I6
tp782
a(I1
I87
I0
g764
I0
tp783
a(I20
I23
I0
S'own'
p784
I0
tp785
as(S'contract'
p786
tp787
(lp788
(I0
I23
F0.375
S'new'
p789
I0
tp790
a(I0
I47
F0.375
S'much'
p791
I0
tp792
a(I1
I7
F-0.5
S'regular'
p793
I0
tp794
a(I10
I106
F0.5
S'expensive'
p795
I0
tp796
a(I10
I275
F0.375
S'new'
p797
I0
tp798
a(I15
I66
F0.375
S'new'
p799
I0
tp800
a(I18
I5
I0
S'own'
p801
I0
tp802
a(I18
I27
F-0.25
S'cheaper'
p803
I0
tp804
a(I20
I14
F0.625
S'easy'
p805
I0
tp806
as(S'on'
p807
S'lg'
p808
S'prime'
p809
tp810
(lp811
(I7
I94
F0.125
S'first'
p812
I0
tp813
a(I10
I127
F0.375
S'available'
p814
I0
tp815
a(I10
I308
F0.375
S'prime'
p816
I0
tp817
a(I12
I44
I0
S'competitive'
p818
I0
tp819
a(I17
I5
F0.375
S'new'
p820
I0
tp821
a(I20
I69
I0
S'third'
p822
I0
tp823
a(I21
I18
I0
S'rich'
p824
I0
tp825
a(I22
I132
F0.375
S'new'
p826
I0
tp827
a(I23
I92
F-0.125
S'overall'
p828
I0
tp829
a(I0
I65
F0.625
S'easy'
p830
I0
tp831
a(I7
I94
F0.125
g812
I0
tp832
a(I10
I65
F-0.625
S'glad'
p833
I0
tp834
a(I10
I127
F0.375
g814
I0
tp835
a(I10
I308
F0.375
g816
I0
tp836
a(I12
I44
I0
g818
I0
tp837
a(I17
I5
F0.375
g820
I0
tp838
a(I20
I69
I0
g822
I0
tp839
a(I21
I18
I0
g824
I0
tp840
a(I22
I88
F0.375
S'new'
p841
I0
tp842
a(I22
I132
F0.375
g826
I0
tp843
a(I23
I92
F-0.125
g828
I0
tp844
a(I0
I65
F0.625
g830
I5
tp845
a(I5
I38
F1.0
S'good'
p846
I5
tp847
a(I10
I127
F0.375
g814
I5
tp848
a(I20
I173
F0.125
S'solid'
p849
I5
tp850
a(I21
I18
I0
g824
I5
tp851
as(S'voice'
p852
tp853
(lp854
(I11
I20
F0.5
S'clear'
p855
I4
tp856
a(I15
I50
F-0.875
S'worst'
p857
I4
tp858
a(I15
I52
I0
S'comprehensive'
p859
I4
tp860
as(S'texts'
p861
tp862
(lp863
(I13
I36
I0
S'old'
p864
I0
tp865
a(I16
I110
I0
S'many'
p866
I0
tp867
a(I16
I110
F0.875
S'important'
p868
I0
tp869
a(I20
I3
I0
S'few'
p870
I0
tp871
a(I23
I55
I0
S'recipient'
p872
I0
tp873
a(I23
I55
I0
S'same'
p874
I0
tp875
as(S'first'
p876
S'touch'
p877
S'screen'
p878
tp879
(lp880
(I7
I56
F0.5
g102
I0
tp881
a(I7
I64
F0.125
g174
I0
tp882
a(I11
I48
F0.125
g220
I0
tp883
a(I11
I85
F0.5
g222
I0
tp884
a(I12
I67
F0.125
g232
I0
tp885
a(I13
I58
F0.125
g234
I0
tp886
a(I13
I106
F0.5
g236
I0
tp887
a(I13
I106
F0.5
g238
I0
tp888
a(I15
I27
I0
g246
I0
tp889
a(I15
I27
F-0.75
g248
I0
tp890
a(I19
I14
F-0.5
g126
I0
tp891
a(I20
I68
F0.125
g277
I0
tp892
a(I22
I59
F0.125
g298
I0
tp893
as(S'button'
p894
S'on'
p895
S'side'
p896
tp897
(lp898
(I20
I132
F0.625
g667
I0
tp899
a(I10
I209
I0
S'later'
p900
I19
tp901
a(I10
I209
F1.0
S'better'
p902
I19
tp903
a(I10
I209
F-0.375
S'top'
p904
I19
tp905
a(I10
I209
I0
S'anymore'
p906
I19
tp907
a(I16
I7
F-0.75
S'little'
p908
I19
tp909
a(I20
I48
F0.625
S'easy'
p910
I19
tp911
a(I20
I48
F-0.875
S'hard'
p912
I19
tp913
a(I20
I48
F-0.375
S'small'
p914
I19
tp915
as(S'takes'
p916
tp917
(lp918
(I22
I150
F-0.125
S'groove'
p919
I19
tp920
as(S'calls'
p921
tp922
(lp923
(I1
I3
F0.5
S'clear'
p924
I0
tp925
a(I5
I37
F0.5
S'clear'
p926
I0
tp927
a(I7
I107
F-0.375
S'small'
p928
I0
tp929
a(I10
I59
F-0.625
S'bad'
p930
I0
tp931
a(I10
I90
F0.25
S'recent'
p932
I0
tp933
a(I10
I242
F-0.5
S'international'
p934
I0
tp935
a(I10
I274
I0
S'few'
p936
I0
tp937
a(I11
I110
F-0.25
S'dropped'
p938
I0
tp939
a(I12
I72
F0.5
S'clear'
p940
I0
tp941
a(I12
I72
F0.875
S'nice'
p942
I0
tp943
a(I13
I62
I0
S'fewer'
p944
I0
tp945
a(I16
I98
I0
S'most'
p946
I0
tp947
a(I16
I104
F-0.25
S'dropped'
p948
I0
tp949
a(I22
I45
I0
S'close'
p950
I0
tp951
a(I22
I45
F-0.25
S'dropped'
p952
I0
tp953
a(I23
I80
F-0.25
S'higher'
p954
I0
tp955
a(I23
I87
F-0.25
S'higher'
p956
I0
tp957
as(S'sim'
p958
S'card'
p959
tp960
(lp961
(I0
I6
F-0.5
S'sure'
p962
I0
tp963
a(I10
I111
I0
S'old'
p964
I0
tp965
a(I10
I142
F0.625
S'easy'
p966
I0
tp967
a(I10
I142
F1.0
S'good'
p968
I0
tp969
a(I10
I154
I0
S'old'
p970
I0
tp971
a(I11
I14
I0
S'old'
p972
I0
tp973
a(I12
I75
I0
S'current'
p974
I0
tp975
a(I12
I75
I0
S'more'
p976
I0
tp977
a(I17
I9
F0.375
S'new'
p978
I0
tp979
as(S'text'
p980
S'messages'
p981
tp982
(lp983
(I7
I68
F-0.75
S'short'
p984
I0
tp985
a(I10
I286
I0
S'text'
p986
I0
tp987
a(I23
I37
F0.375
S'new'
p988
I0
tp989
a(I1
I41
F-0.75
S'unable'
p990
I18
tp991
a(I7
I77
F-0.75
S'single'
p992
I18
tp993
a(I10
I274
F0.75
S'receive'
p994
I18
tp995
a(I16
I43
F-0.75
S'single'
p996
I18
tp997
a(I19
I26
F0.375
S'new'
p998
I18
tp999
a(I19
I26
F-0.625
S'other'
p1000
I18
tp1001
a(I19
I27
F0.5
S'accurate'
p1002
I18
tp1003
a(I19
I27
I0
S'most'
p1004
I18
tp1005
a(I22
I23
F-0.5
S'long'
p1006
I18
tp1007
a(I22
I150
I0
S'great'
p1008
I18
tp1009
as(S'design'
p1010
S'flaw'
p1011
tp1012
(lp1013
(I15
I29
I-100
S'thing-'
p1014
I3
tp1015
a(I15
I29
F0.625
S'major'
p1016
I3
tp1017
as(S'light'
p1018
S'weight'
p1019
tp1020
(lp1021
(I7
I32
F-0.625
S'light'
p1022
I5
tp1023
a(I11
I63
I0
S'great'
p1024
I5
tp1025
a(I22
I115
F-0.625
S'light'
p1026
I5
tp1027
as(g550
S'data'
p1028
S'plan'
p1029
tp1030
(lp1031
(I1
I122
F-0.75
S'have'
p1032
I0
tp1033
a(I10
I287
I0
S'add-on'
p1034
I0
tp1035
a(I10
I287
I0
S'monthly'
p1036
I0
tp1037
a(I1
I122
F-0.75
g1032
I13
tp1038
a(I10
I287
I0
g1034
I13
tp1039
a(I10
I287
I0
g1036
I13
tp1040
a(I21
I34
F0.5
S'expensive'
p1041
I13
tp1042
a(I22
I75
F0.125
S'usual'
p1043
I13
tp1044
as(S'micro'
p1045
S'sd'
p1046
S'card'
p1047
tp1048
(lp1049
(I11
I29
I0
S'external'
p1050
I0
tp1051
a(I11
I50
F0.625
g7
I0
tp1052
a(I22
I96
I0
S'different'
p1053
I0
tp1054
a(I11
I29
I0
g1050
I0
tp1055
a(I11
I50
F0.625
g7
I0
tp1056
a(I22
I96
I0
g1053
I0
tp1057
as(S'00'
p1058
g550
S'month'
p1059
tp1060
(lp1061
(I16
I98
I0
S'more'
p1062
I0
tp1063
a(I21
I48
F0.125
S'typical'
p1064
I0
tp1065
as(S'customer'
p1066
S'service'
p1067
tp1068
(lp1069
(I10
I190
I0
S'cable'
p1070
I3
tp1071
a(I10
I191
I0
S'most'
p1072
I3
tp1073
a(I22
I19
F-0.5
S'less'
p1074
I3
tp1075
a(I0
I0
F1.0
S'good'
p1076
I16
tp1077
a(I0
I0
F1.0
S'good'
p1078
I16
tp1079
a(I7
I18
F1.0
S'good'
p1080
I16
tp1081
a(I9
I12
F1.0
S'good'
p1082
I16
tp1083
a(I9
I13
I0
S'great'
p1084
I16
tp1085
a(I10
I190
I0
g1070
I16
tp1086
a(I10
I274
I0
S'monthly'
p1087
I16
tp1088
a(I11
I16
F-0.125
S'overall'
p1089
I16
tp1090
a(I11
I16
F1.0
S'good'
p1091
I16
tp1092
a(I11
I111
I0
S'old'
p1093
I16
tp1094
a(I13
I143
F-0.875
S'awful'
p1095
I16
tp1096
a(I22
I19
F-0.5
g1074
I16
tp1097
a(I22
I68
F-0.625
S'bad'
p1098
I16
tp1099
a(I22
I72
F1.0
S'better'
p1100
I16
tp1101
as(S'texting'
p1102
tp1103
(lp1104
(I10
I109
F0.75
S'receive'
p1105
I0
tp1106
a(I10
I286
I0
S'monthly'
p1107
I0
tp1108
a(I10
I286
I0
S'add-on'
p1109
I0
tp1110
a(I19
I5
F1.0
S'good'
p1111
I0
tp1112
as(S'amazon'
p1113
tp1114
(lp1115
(I1
I30
F-0.25
S'cheaper'
p1116
I13
tp1117
a(I22
I76
F-0.875
S'unhappy'
p1118
I13
tp1119
as(S'free'
p1120
S'air'
p1121
S'time'
p1122
tp1123
(lp1124
(I10
I152
F-0.625
S'free'
p1125
I0
tp1126
a(I10
I154
F-0.625
S'free'
p1127
I0
tp1128
a(I10
I154
I0
S'great'
p1129
I0
tp1130
a(I10
I205
F-0.625
S'free'
p1131
I0
tp1132
a(I6
I17
F-0.125
S'air'
p1133
I0
tp1134
a(I10
I152
F-0.625
g1125
I0
tp1135
a(I10
I154
F-0.625
g1127
I0
tp1136
a(I10
I154
I0
g1129
I0
tp1137
a(I10
I205
F-0.625
g1131
I0
tp1138
a(I20
I148
F-0.5
S'less'
p1139
I0
tp1140
as(S'internal'
p1141
S'memory'
p1142
tp1143
(lp1144
(I0
I54
F0.875
S'music'
p1145
I0
tp1146
a(I0
I54
I0
S'internal'
p1147
I0
tp1148
a(I10
I53
I0
S'internal'
p1149
I0
tp1150
a(I23
I8
I0
g9
I0
tp1151
a(I23
I14
I0
g11
I0
tp1152
as.