(dp0
(S'text'
p1
S'messages'
p2
tp3
(lp4
(I9
I7
F0.875
S'music'
p5
I0
tp6
a(I9
I11
I0
S'text'
p7
I0
tp8
a(I0
I10
F-0.5
S'sure'
p9
I18
tp10
a(I6
I5
F-0.375
S'simple'
p11
I18
tp12
a(I6
I5
F0.375
S'much'
p13
I18
tp14
a(I9
I7
F0.875
g5
I18
tp15
as(S'touch'
p16
S'screen'
p17
tp18
(lp19
(I1
I3
F0.5
S'touch'
p20
I2
tp21
a(I4
I84
I0
S'sensitive'
p22
I2
tp23
as(S'texting'
p24
tp25
(lp26
(I9
I38
F0.5
S'second'
p27
I0
tp28
as.