(dp0
(S'on'
p1
S'screen'
p2
S'keyboard'
p3
tp4
(lp5
(I0
I220
F0.625
S'easy'
p6
I0
tp7
a(I1
I3
F1.0
S'best'
p8
I0
tp9
a(I5
I243
F-0.375
S'smaller'
p10
I0
tp11
a(I6
I46
F0.5
S'touch'
p12
I0
tp13
a(I7
I262
F0.125
S'first'
p14
I0
tp15
a(I7
I490
F-0.375
S'smaller'
p16
I0
tp17
a(I10
I42
I0
S'physical'
p18
I0
tp19
a(I11
I19
I0
S'physical'
p20
I0
tp21
a(I11
I23
F0.25
S'responsive'
p22
I0
tp23
a(I11
I23
I0
S'great'
p24
I0
tp25
a(I11
I233
F1.0
S'better'
p26
I0
tp27
a(I11
I275
I0
S'close'
p28
I0
tp29
a(I11
I314
I0
S'physical'
p30
I0
tp31
a(I11
I314
I0
S'more'
p32
I0
tp33
a(I12
I99
F0.75
S'beautiful'
p34
I0
tp35
a(I13
I58
F0.125
S'impressive'
p36
I0
tp37
a(I13
I58
I0
S'great'
p38
I0
tp39
a(I14
I249
F0.125
S'key'
p40
I0
tp41
a(I14
I262
I0
S'text'
p42
I0
tp43
a(I17
I229
I0
S'great'
p44
I0
tp45
a(I18
I180
I0
S'close'
p46
I0
tp47
as(S'epic'
p48
tp49
(lp50
(I0
I3
F0.875
S'happy'
p51
I1
tp52
a(I0
I18
I0
S'most'
p53
I1
tp54
a(I0
I44
F-0.625
S'bad'
p55
I1
tp56
a(I0
I68
I0
S'wish'
p57
I1
tp58
a(I0
I100
F-0.625
S'bad'
p59
I1
tp60
a(I0
I103
F-0.375
S'irritant'
p61
I1
tp62
a(I0
I111
F0.625
S'superior'
p63
I1
tp64
a(I0
I123
F-0.5
S'sure'
p65
I1
tp66
a(I0
I172
F0.5
S'true'
p67
I1
tp68
a(I0
I195
F0.625
S'superior'
p69
I1
tp70
a(I0
I201
F1.0
S'better'
p71
I1
tp72
a(I5
I12
F-0.75
S'likely'
p73
I1
tp74
a(I5
I12
F1.0
S'good'
p75
I1
tp76
a(I5
I25
F-0.5
S'dull'
p77
I1
tp78
a(I5
I30
F1.0
S'good'
p79
I1
tp80
a(I5
I94
I0
S'vertical'
p81
I1
tp82
a(I5
I104
I0
S'later'
p83
I1
tp84
a(I5
I106
I-100
S'**updates**samsung'
p85
I1
tp86
a(I5
I229
F-0.125
S'overall'
p87
I1
tp88
a(I5
I229
F0.875
S'happy'
p89
I1
tp90
a(I7
I143
F-0.5
S'long'
p91
I1
tp92
a(I7
I143
F-0.75
S'short'
p93
I1
tp94
a(I7
I179
F0.25
S'larger'
p95
I1
tp96
a(I7
I253
I0
S'unbelievable'
p97
I1
tp98
a(I7
I320
F-0.375
S'top'
p99
I1
tp100
a(I7
I338
I0
S'more'
p101
I1
tp102
a(I7
I350
F-0.625
S'lighter'
p103
I1
tp104
a(I7
I360
F0.875
S'worthy'
p105
I1
tp106
a(I7
I406
I0
S'cool'
p107
I1
tp108
a(I7
I472
I-100
S'ice-smooth'
p109
I1
tp110
a(I7
I482
I0
S'plastic'
p111
I1
tp112
a(I7
I522
F0.5
S'clearer'
p113
I1
tp114
a(I7
I522
F-0.5
S'less'
p115
I1
tp116
a(I7
I531
F0.5
S'obvious'
p117
I1
tp118
a(I10
I49
I0
S'more'
p119
I1
tp120
a(I10
I49
F0.5
S'expensive'
p121
I1
tp122
a(I10
I87
I0
S'specific'
p123
I1
tp124
a(I10
I171
F0.5
S'told'
p125
I1
tp126
a(I10
I236
F0.5
S'expensive'
p127
I1
tp128
a(I11
I246
F-0.125
S'overall'
p129
I1
tp130
a(I12
I78
F0.375
S'new'
p131
I1
tp132
a(I14
I73
F0.75
S'due'
p133
I1
tp134
a(I14
I398
F-0.75
S'faint'
p135
I1
tp136
a(I16
I199
I0
S'third'
p137
I1
tp138
a(I16
I199
F0.25
S'original'
p139
I1
tp140
a(I16
I199
I0
S'fourth'
p141
I1
tp142
a(I17
I34
I0
S'fast'
p143
I1
tp144
a(I17
I200
F0.25
S'helpful'
p145
I1
tp146
a(I18
I22
F0.375
S'new'
p147
I1
tp148
a(I18
I26
I0
S'faster'
p149
I1
tp150
a(I18
I58
I0
S'fast'
p151
I1
tp152
a(I18
I66
F0.375
S'superlative'
p153
I1
tp154
a(I18
I114
I0
S'own'
p155
I1
tp156
a(I18
I130
F0.375
S'new'
p157
I1
tp158
a(I18
I165
F0.375
S'early'
p159
I1
tp160
a(I18
I169
I0
S'fast'
p161
I1
tp162
a(I18
I176
I0
S'more'
p163
I1
tp164
a(I18
I184
F1.0
S'best'
p165
I1
tp166
a(I19
I3
F0.625
S'aware'
p167
I1
tp168
a(I19
I57
F-0.75
S'likely'
p169
I1
tp170
as(S'email'
p171
tp172
(lp173
(I5
I289
I0
S'corporate'
p174
I5
tp175
a(I5
I291
I0
S'corporate'
p176
I5
tp177
a(I7
I413
F-0.625
S'other'
p178
I5
tp179
a(I7
I435
F-0.5
S'separate'
p180
I5
tp181
a(I10
I43
F-0.5
S'long'
p182
I5
tp183
a(I10
I43
I0
S'physical'
p184
I5
tp185
a(I14
I24
F0.5
S'functional'
p186
I5
tp187
a(I14
I266
F-0.125
S'complicated'
p188
I5
tp189
a(I18
I192
F-0.5
S'open'
p190
I5
tp191
as(S'android'
p192
S'os'
p193
tp194
(lp195
(I3
I219
I0
S'android'
p196
I0
tp197
a(I7
I79
F0.375
S'new'
p198
I0
tp199
a(I7
I168
F-0.625
S'other'
p200
I0
tp201
a(I7
I510
I0
S'android'
p202
I0
tp203
a(I11
I238
I0
S'later'
p204
I0
tp205
a(I11
I255
I0
S'many'
p206
I0
tp207
a(I12
I17
I0
S'most'
p208
I0
tp209
a(I12
I17
F0.5
S'expensive'
p210
I0
tp211
a(I12
I19
F0.875
S'nice'
p212
I0
tp213
a(I14
I262
I0
S'next'
p214
I0
tp215
a(I14
I262
F-0.625
S'other'
p216
I0
tp217
a(I14
I262
F0.375
S'new'
p218
I0
tp219
a(I17
I490
F0.25
S'responsive'
p220
I0
tp221
a(I17
I490
I0
S'prior'
p222
I0
tp223
a(I18
I128
I0
S'many'
p224
I0
tp225
a(I0
I222
F0.125
S'first'
p226
I0
tp227
a(I1
I11
I-100
S'-tabbed'
p228
I0
tp229
a(I5
I227
F0.5
S'second'
p230
I0
tp231
a(I5
I249
F0.125
S'first'
p232
I0
tp233
a(I7
I79
F0.375
g198
I0
tp234
a(I7
I99
F0.125
S'first'
p235
I0
tp236
a(I7
I165
F-0.625
S'other'
p237
I0
tp238
a(I7
I168
F-0.625
g200
I0
tp239
a(I7
I172
F0.625
S'straight'
p240
I0
tp241
a(I8
I0
F0.125
S'first'
p242
I0
tp243
a(I9
I26
F-0.625
S'other'
p244
I0
tp245
a(I10
I34
F0.125
S'first'
p246
I0
tp247
a(I10
I43
F-0.125
S'overall'
p248
I0
tp249
a(I10
I43
I0
S'more'
p250
I0
tp251
a(I10
I43
I-100
S'comfortable.-'
p252
I0
tp253
a(I10
I94
I-100
S'chat/sms/im'
p254
I0
tp255
a(I10
I111
F-0.625
S'other'
p256
I0
tp257
a(I10
I302
F-0.625
S'other'
p258
I0
tp259
a(I11
I255
I0
g206
I0
tp260
a(I11
I301
F0.375
S'newest'
p261
I0
tp262
a(I11
I306
I0
S'latest'
p263
I0
tp264
a(I11
I328
F0.125
S'first'
p265
I0
tp266
a(I12
I17
I0
g208
I0
tp267
a(I12
I17
F0.5
g210
I0
tp268
a(I12
I19
F0.875
g212
I0
tp269
a(I12
I102
I0
S'latest'
p270
I0
tp271
a(I14
I262
I0
g214
I0
tp272
a(I14
I262
F-0.625
g216
I0
tp273
a(I14
I262
F0.375
g218
I0
tp274
a(I14
I283
F-0.25
S'epic'
p275
I0
tp276
a(I17
I17
F0.875
S'happy'
p277
I0
tp278
a(I17
I489
I0
S'earlier'
p279
I0
tp280
a(I17
I490
F0.25
g220
I0
tp281
a(I17
I490
I0
g222
I0
tp282
a(I18
I70
F0.25
S'recent'
p283
I0
tp284
a(I18
I120
I0
S'useful'
p285
I0
tp286
a(I18
I128
I0
g224
I0
tp287
a(I18
I142
F0.125
S'popular'
p288
I0
tp289
as(S'a'
p290
S'4g'
p291
S'area'
p292
tp293
(lp294
(I5
I149
I0
S'limited'
p295
I0
tp296
a(I6
I35
I0
S'fast'
p297
I0
tp298
a(I6
I35
F0.625
S'noticeable'
p299
I0
tp300
a(I11
I152
I0
S'unfair'
p301
I0
tp302
a(I12
I24
F0.375
S'available'
p303
I0
tp304
a(I17
I347
F-0.75
S'likely'
p305
I0
tp306
as(S'to'
p307
S'sprint'
p308
S'store'
p309
tp310
(lp311
(I10
I211
F0.25
S'main'
p312
I0
tp313
a(I12
I24
I0
S'signal'
p314
I0
tp315
a(I13
I71
F-0.25
S'cheaper'
p316
I0
tp317
a(I16
I27
I0
S'local'
p318
I0
tp319
a(I16
I190
I0
S'local'
p320
I0
tp321
a(I17
I109
I0
S'local'
p322
I0
tp323
a(I17
I110
F0.125
S'able'
p324
I0
tp325
a(I17
I110
I0
S'local'
p326
I0
tp327
a(I17
I124
I0
S'different'
p328
I0
tp329
a(I17
I153
I0
S'corporate'
p330
I0
tp331
a(I19
I104
F-0.5
S'less'
p332
I0
tp333
a(I10
I211
F0.25
g312
I0
tp334
a(I12
I24
I0
g314
I0
tp335
a(I13
I71
F-0.25
g316
I0
tp336
a(I16
I27
I0
g318
I0
tp337
a(I16
I190
I0
g320
I0
tp338
a(I17
I109
I0
g322
I0
tp339
a(I17
I110
F0.125
g324
I0
tp340
a(I17
I110
I0
g326
I0
tp341
a(I17
I124
I0
g328
I0
tp342
a(I17
I153
I0
g330
I0
tp343
a(I19
I104
F-0.5
g332
I0
tp344
a(I5
I144
F0.375
S'much'
p345
I0
tp346
a(I5
I144
I0
S'identical'
p347
I0
tp348
a(I5
I144
F-0.375
S'top'
p349
I0
tp350
a(I7
I66
F-0.25
S'cheaper'
p351
I0
tp352
a(I7
I130
I0
S'full'
p353
I0
tp354
a(I7
I155
F0.375
S'much'
p355
I0
tp356
a(I7
I181
F0.5
S'functional'
p357
I0
tp358
a(I7
I193
F0.75
S'worth'
p359
I0
tp360
a(I7
I491
F0.5
S'optimistic'
p361
I0
tp362
a(I10
I211
F0.25
g312
I0
tp363
a(I11
I213
F0.375
S'new'
p364
I0
tp365
a(I11
I320
F1.0
S'best'
p366
I0
tp367
a(I12
I95
F0.875
S'happy'
p368
I0
tp369
a(I13
I57
F-0.25
S'cheaper'
p370
I0
tp371
a(I13
I71
F-0.25
g316
I0
tp372
a(I14
I204
F0.375
S'extra'
p373
I0
tp374
a(I14
I219
F0.875
S'happy'
p375
I0
tp376
a(I15
I40
I0
S'great'
p377
I0
tp378
a(I15
I49
I0
S'website'
p379
I0
tp380
a(I15
I51
F-0.125
S'slow'
p381
I0
tp382
a(I16
I19
I0
S'more'
p383
I0
tp384
a(I16
I27
I0
g318
I0
tp385
a(I16
I132
F0.375
S'extra'
p386
I0
tp387
a(I16
I182
F-0.75
S'unresponsive'
p388
I0
tp389
a(I16
I190
I0
g320
I0
tp390
a(I17
I82
F-0.625
S'other'
p391
I0
tp392
a(I17
I109
I0
g322
I0
tp393
a(I17
I124
I0
g328
I0
tp394
a(I17
I153
I0
g330
I0
tp395
a(I18
I165
F1.0
S'best'
p396
I0
tp397
a(I18
I212
F0.5
S'possible'
p398
I0
tp399
a(I18
I213
F-0.625
S'free'
p400
I0
tp401
a(I19
I16
F-0.5
S'less'
p402
I0
tp403
a(I19
I104
F-0.5
g332
I0
tp404
as(S'samsung'
p405
tp406
(lp407
(I3
I18
F0.5
S'buy'
p408
I7
tp409
a(I5
I41
F-0.5
S'hassle'
p410
I7
tp411
a(I5
I41
F-0.625
S'free'
p412
I7
tp413
a(I5
I41
F-0.625
S'cleaner'
p414
I7
tp415
a(I6
I37
F0.125
S'able'
p416
I7
tp417
a(I7
I268
F0.125
S'subject'
p418
I7
tp419
a(I7
I339
I0
S'more'
p420
I7
tp421
a(I7
I374
F0.625
S'aesthetic'
p422
I7
tp423
a(I7
I516
F-0.125
S'former'
p424
I7
tp425
a(I10
I170
F-0.25
S'epic'
p426
I7
tp427
a(I10
I198
F0.125
S'first'
p428
I7
tp429
a(I10
I244
F0.5
S'told'
p430
I7
tp431
a(I10
I255
I0
S'same'
p432
I7
tp433
a(I10
I255
F0.375
S'new'
p434
I7
tp435
a(I10
I267
I0
S'own'
p436
I7
tp437
a(I10
I274
I0
S'own'
p438
I7
tp439
a(I11
I120
I0
S'least'
p440
I7
tp441
a(I11
I120
I0
S'different'
p442
I7
tp443
a(I11
I164
F0.875
S'nice'
p444
I7
tp445
a(I11
I188
I0
S'same'
p446
I7
tp447
a(I11
I256
I0
S'great'
p448
I7
tp449
a(I12
I77
I0
S'such'
p450
I7
tp451
a(I14
I140
F0.625
S'interested'
p452
I7
tp453
a(I14
I176
F0.125
S'first'
p454
I7
tp455
a(I14
I219
F0.375
S'new'
p456
I7
tp457
a(I17
I298
F-0.625
S'other'
p458
I7
tp459
a(I18
I144
F0.25
S'offered'
p460
I7
tp461
as(S'8'
p462
S'10'
p463
S'hours'
p464
tp465
(lp466
(I7
I152
I0
S'more'
p467
I0
tp468
as(S'operating'
p469
S'system'
p470
tp471
(lp472
(I7
I172
F-0.375
S'top'
p473
I2
tp474
a(I14
I64
F-0.625
S'glad'
p475
I2
tp476
as(S'iphone'
p477
tp478
(lp479
(I0
I134
I0
S'android'
p480
I1
tp481
a(I0
I224
I0
S'next'
p482
I1
tp483
a(I0
I224
F-0.625
S'other'
p484
I1
tp485
a(I5
I4
F1.0
S'best'
p486
I1
tp487
a(I5
I248
F-0.625
S'glad'
p488
I1
tp489
a(I7
I98
F0.875
S'happy'
p490
I1
tp491
a(I7
I103
F0.5
S'comparable'
p492
I1
tp493
a(I11
I145
F1.0
S'good'
p494
I1
tp495
a(I11
I145
I-100
S'highly-touted'
p496
I1
tp497
a(I11
I147
F1.0
S'better'
p498
I1
tp499
a(I11
I147
I0
S'least'
p500
I1
tp501
a(I11
I233
I-100
S'3gsgorgeous'
p502
I1
tp503
a(I11
I257
I0
S'old'
p504
I1
tp505
a(I11
I391
F-0.5
S'weaker'
p506
I1
tp507
a(I12
I35
F-0.625
S'sorry'
p508
I1
tp509
a(I17
I207
I0
S'more'
p510
I1
tp511
a(I18
I14
I0
S'more'
p512
I1
tp513
as(S'equipment'
p514
S'protection'
p515
tp516
(lp517
(I7
I268
I0
S'total'
p518
I0
tp519
a(I10
I207
I0
S'total'
p520
I0
tp521
as(S'swype'
p522
tp523
(lp524
(I3
I142
I0
S'great'
p525
I0
tp526
a(I7
I261
I0
S'great'
p527
I0
tp528
a(I7
I519
F0.5
S'accurate'
p529
I0
tp530
a(I7
I529
I0
S'stable'
p531
I0
tp532
a(I11
I18
F-0.125
S'overall'
p533
I0
tp534
a(I17
I367
I0
S'great'
p535
I0
tp536
as(S'blue'
p537
S'tooth'
p538
tp539
(lp540
(I6
I7
I0
S'blue'
p541
I0
tp542
a(I7
I234
I0
S'blue'
p543
I0
tp544
as(g290
S'physical'
p545
S'keyboard'
p546
tp547
(lp548
(I1
I3
F1.0
g8
I0
tp549
a(I1
I6
I0
S'physical'
p550
I0
tp551
a(I3
I236
I0
S'physical'
p552
I0
tp553
a(I3
I326
I0
S'physical'
p554
I0
tp555
a(I5
I78
I0
S'physical'
p556
I0
tp557
a(I5
I241
I0
S'physical'
p558
I0
tp559
a(I7
I14
I0
S'physical'
p560
I0
tp561
a(I7
I14
I0
S'fast'
p562
I0
tp563
a(I7
I14
I0
S'faster'
p564
I0
tp565
a(I7
I15
I0
S'physical'
p566
I0
tp567
a(I7
I93
I0
S'physical'
p568
I0
tp569
a(I7
I149
I0
S'physical'
p570
I0
tp571
a(I7
I339
I0
S'physical'
p572
I0
tp573
a(I7
I390
I0
S'physical'
p574
I0
tp575
a(I10
I41
I0
S'physical'
p576
I0
tp577
a(I10
I42
I0
g18
I0
tp578
a(I10
I163
I0
S'physical'
p579
I0
tp580
a(I10
I190
I0
S'physical'
p581
I0
tp582
a(I10
I192
I0
S'physical'
p583
I0
tp584
a(I10
I206
I0
S'physical'
p585
I0
tp586
a(I10
I206
F0.875
S'important'
p587
I0
tp588
a(I10
I243
I0
S'physical'
p589
I0
tp590
a(I10
I304
I0
S'physical'
p591
I0
tp592
a(I11
I19
I0
g20
I0
tp593
a(I11
I20
I0
S'physical'
p594
I0
tp595
a(I11
I284
I0
S'physical'
p596
I0
tp597
a(I11
I293
I0
S'physical'
p598
I0
tp599
a(I11
I293
F0.875
S'important'
p600
I0
tp601
a(I11
I293
F-0.875
S'hard'
p602
I0
tp603
a(I11
I314
I0
g30
I0
tp604
a(I11
I332
I0
S'physical'
p605
I0
tp606
a(I13
I58
F0.125
g36
I0
tp607
a(I13
I58
I0
g38
I0
tp608
a(I14
I32
I0
S'physical'
p609
I0
tp610
a(I14
I337
I0
S'physical'
p611
I0
tp612
a(I16
I186
F0.875
S'nice'
p613
I0
tp614
a(I16
I186
I0
S'physical'
p615
I0
tp616
a(I17
I366
I0
S'physical'
p617
I0
tp618
a(I18
I198
I0
S'physical'
p619
I0
tp620
a(I1
I3
F1.0
g8
I0
tp621
a(I1
I6
I0
g550
I0
tp622
a(I3
I236
I0
g552
I0
tp623
a(I3
I326
I0
g554
I0
tp624
a(I5
I78
I0
g556
I0
tp625
a(I5
I241
I0
g558
I0
tp626
a(I7
I14
I0
g560
I0
tp627
a(I7
I14
I0
g562
I0
tp628
a(I7
I14
I0
g564
I0
tp629
a(I7
I15
I0
g566
I0
tp630
a(I7
I93
I0
g568
I0
tp631
a(I7
I149
I0
g570
I0
tp632
a(I7
I339
I0
g572
I0
tp633
a(I7
I390
I0
g574
I0
tp634
a(I10
I41
I0
g576
I0
tp635
a(I10
I42
I0
g18
I0
tp636
a(I10
I163
I0
g579
I0
tp637
a(I10
I190
I0
g581
I0
tp638
a(I10
I192
I0
g583
I0
tp639
a(I10
I206
I0
g585
I0
tp640
a(I10
I206
F0.875
g587
I0
tp641
a(I10
I243
I0
g589
I0
tp642
a(I10
I304
I0
g591
I0
tp643
a(I11
I19
I0
g20
I0
tp644
a(I11
I20
I0
g594
I0
tp645
a(I11
I284
I0
g596
I0
tp646
a(I11
I293
I0
g598
I0
tp647
a(I11
I293
F0.875
g600
I0
tp648
a(I11
I293
F-0.875
g602
I0
tp649
a(I11
I314
I0
g30
I0
tp650
a(I11
I332
I0
g605
I0
tp651
a(I13
I58
F0.125
g36
I0
tp652
a(I13
I58
I0
g38
I0
tp653
a(I14
I32
I0
g609
I0
tp654
a(I14
I337
I0
g611
I0
tp655
a(I16
I186
F0.875
g613
I0
tp656
a(I16
I186
I0
g615
I0
tp657
a(I17
I366
I0
g617
I0
tp658
a(I18
I198
I0
g619
I0
tp659
as(S'google'
p660
tp661
(lp662
(I11
I197
F0.375
S'new'
p663
I4
tp664
as(S'juice'
p665
S'defender'
p666
tp667
(lp668
(I10
I108
I0
S'general'
p669
I0
tp670
a(I18
I145
I0
S'useful'
p671
I0
tp672
as(S'palm'
p673
S'pre'
p674
tp675
(lp676
(I10
I51
I0
S'more'
p677
I0
tp678
a(I10
I99
I0
S'close'
p679
I0
tp680
as(S'times'
p681
g290
S'day'
p682
tp683
(lp684
(I7
I24
I0
S'few'
p685
I0
tp686
a(I12
I139
I0
S'many'
p687
I0
tp688
a(I12
I139
I0
S'useful'
p689
I0
tp690
as(S'side'
p691
S'by'
p692
S'side'
p693
tp694
(lp695
(I7
I472
F-0.125
S'side'
p696
I0
tp697
as(g290
S'long'
p698
S'time'
p699
tp700
(lp701
(I3
I15
F-0.5
S'long'
p702
I12
tp703
a(I3
I16
F-0.5
S'long'
p704
I12
tp705
a(I11
I28
F-0.5
S'long'
p706
I12
tp707
a(I14
I212
F-0.5
S'long'
p708
I12
tp709
a(I17
I377
F-0.5
S'long'
p710
I12
tp711
as(S'slide'
p712
S'out'
p713
S'keyboard'
p714
tp715
(lp716
(I0
I220
F0.625
g6
I0
tp717
a(I1
I6
I0
g550
I0
tp718
a(I7
I307
I0
S'big'
p719
I0
tp720
a(I7
I307
F0.625
S'easy'
p721
I0
tp722
a(I8
I2
F-0.75
S'comfortable'
p723
I0
tp724
a(I11
I284
I0
g596
I0
tp725
a(I14
I249
F0.125
g40
I0
tp726
a(I17
I60
F1.0
S'good'
p727
I0
tp728
a(I0
I71
I0
S'great'
p729
I2
tp730
a(I0
I220
F0.625
g6
I2
tp731
a(I1
I3
F1.0
g8
I2
tp732
a(I1
I6
I0
g550
I2
tp733
a(I2
I26
I0
S'incredible'
p734
I2
tp735
a(I3
I19
F0.375
S'friendly'
p736
I2
tp737
a(I3
I19
I0
S'great'
p738
I2
tp739
a(I3
I158
I0
S'roomy'
p740
I2
tp741
a(I3
I208
F0.5
S'touch'
p742
I2
tp743
a(I3
I208
F-0.5
S'actual'
p744
I2
tp745
a(I3
I208
F-0.5
S'longer'
p746
I2
tp747
a(I3
I236
I0
g552
I2
tp748
a(I3
I326
I0
g554
I2
tp749
a(I5
I78
I0
g556
I2
tp750
a(I5
I229
F-0.5
S'sure'
p751
I2
tp752
a(I5
I233
I0
S'slid'
p753
I2
tp754
a(I5
I241
I0
g558
I2
tp755
a(I7
I13
F-0.25
S'epic'
p756
I2
tp757
a(I7
I13
F0.625
S'easy'
p758
I2
tp759
a(I7
I14
I0
g560
I2
tp760
a(I7
I14
I0
g562
I2
tp761
a(I7
I14
I0
g564
I2
tp762
a(I7
I15
I0
g566
I2
tp763
a(I7
I72
I0
S'handy'
p764
I2
tp765
a(I7
I93
I0
g568
I2
tp766
a(I7
I149
I0
g570
I2
tp767
a(I7
I307
I0
g719
I2
tp768
a(I7
I307
F0.625
g721
I2
tp769
a(I7
I339
I0
g572
I2
tp770
a(I7
I370
F-0.875
S'hard'
p771
I2
tp772
a(I7
I372
F0.125
S'first'
p773
I2
tp774
a(I7
I390
I0
g574
I2
tp775
a(I7
I415
F0.625
S'easy'
p776
I2
tp777
a(I7
I424
I0
S'sensitive'
p778
I2
tp779
a(I7
I535
F-0.25
S'plugged'
p780
I2
tp781
a(I8
I2
F-0.75
g723
I2
tp782
a(I10
I41
I0
g576
I2
tp783
a(I10
I42
I0
g18
I2
tp784
a(I10
I163
I0
g579
I2
tp785
a(I10
I190
I0
g581
I2
tp786
a(I10
I192
I0
g583
I2
tp787
a(I10
I206
I0
g585
I2
tp788
a(I10
I206
F0.875
g587
I2
tp789
a(I10
I233
F-0.875
S'hard'
p790
I2
tp791
a(I10
I234
F-0.875
S'hard'
p792
I2
tp793
a(I10
I243
I0
g589
I2
tp794
a(I10
I281
I0
S'tactile'
p795
I2
tp796
a(I10
I304
I0
g591
I2
tp797
a(I11
I19
I0
g20
I2
tp798
a(I11
I20
I0
g594
I2
tp799
a(I11
I164
I0
S'trade-off'
p800
I2
tp801
a(I11
I275
I0
g28
I2
tp802
a(I11
I284
I0
g596
I2
tp803
a(I11
I293
I0
g598
I2
tp804
a(I11
I293
F0.875
g600
I2
tp805
a(I11
I293
F-0.875
g602
I2
tp806
a(I11
I314
I0
g30
I2
tp807
a(I11
I332
I0
g605
I2
tp808
a(I12
I100
I0
S'real'
p809
I2
tp810
a(I12
I110
I0
S'real'
p811
I2
tp812
a(I12
I122
F-0.875
S'hard'
p813
I2
tp814
a(I13
I58
F0.125
g36
I2
tp815
a(I13
I58
I0
g38
I2
tp816
a(I14
I32
I0
g609
I2
tp817
a(I14
I124
F0.625
S'easy'
p818
I2
tp819
a(I14
I249
F0.125
g40
I2
tp820
a(I14
I262
I0
g42
I2
tp821
a(I14
I337
I0
g611
I2
tp822
a(I16
I119
I0
S'more'
p823
I2
tp824
a(I16
I119
F0.625
S'productive'
p825
I2
tp826
a(I16
I142
I0
S'real'
p827
I2
tp828
a(I16
I186
F0.875
g613
I2
tp829
a(I16
I186
I0
g615
I2
tp830
a(I17
I37
I0
S'wide'
p831
I2
tp832
a(I17
I37
I0
S'great'
p833
I2
tp834
a(I17
I37
F0.125
S'equal'
p835
I2
tp836
a(I17
I60
F1.0
g727
I2
tp837
a(I17
I209
F0.875
S'nice'
p838
I2
tp839
a(I17
I241
F-0.5
S'less'
p840
I2
tp841
a(I17
I244
F-0.75
S'dark'
p842
I2
tp843
a(I17
I248
I0
S'least'
p844
I2
tp845
a(I17
I331
F0.125
S'solid'
p846
I2
tp847
a(I17
I366
I0
g617
I2
tp848
a(I17
I457
F0.875
S'nice'
p849
I2
tp850
a(I17
I494
F0.625
S'add'
p851
I2
tp852
a(I18
I198
I0
g619
I2
tp853
a(I19
I82
I0
S'full'
p854
I2
tp855
as(S'2'
p856
g856
S'update'
p857
tp858
(lp859
(I3
I300
F0.5
S'second'
p860
I0
tp861
a(I11
I250
F-0.125
S'reduced'
p862
I0
tp863
a(I18
I237
I0
S'latest'
p864
I0
tp865
as(g290
S'big'
p866
S'deal'
p867
tp868
(lp869
(I5
I40
I0
S'big'
p870
I7
tp871
a(I5
I40
I0
S'big'
p872
I7
tp873
a(I7
I381
I0
S'big'
p874
I7
tp875
a(I10
I99
I0
S'big'
p876
I7
tp877
a(I10
I219
I0
S'big'
p878
I7
tp879
a(I11
I74
I0
S'big'
p880
I7
tp881
a(I11
I74
I0
S'very'
p882
I7
tp883
a(I11
I74
I0
S'useful'
p884
I7
tp885
a(I11
I74
F0.625
S'easy'
p886
I7
tp887
a(I14
I241
I0
S'big'
p888
I7
tp889
a(I14
I241
F1.0
S'good'
p890
I7
tp891
a(I16
I171
I0
S'big'
p892
I7
tp893
a(I17
I176
I0
S'big'
p894
I7
tp895
a(I17
I405
I0
S'big'
p896
I7
tp897
as(S'htc'
p898
S'evo'
p899
tp900
(lp901
(I7
I69
I0
S'same'
p902
I0
tp903
a(I10
I196
I0
S'same'
p904
I0
tp905
a(I10
I254
I0
S'older'
p906
I0
tp907
a(I11
I1
F-0.625
S'glad'
p908
I0
tp909
a(I18
I172
F0.125
S'capable'
p910
I0
tp911
as(S'e.'
p912
S'g.'
p913
tp914
(lp915
(I7
I121
F0.5
S'live'
p916
I0
tp917
as(S'to'
p918
S'save'
p919
S'battery'
p920
tp921
(lp922
(I11
I47
I0
S'faster'
p923
I0
tp924
a(I0
I20
F-0.75
S'worse'
p925
I15
tp926
a(I0
I55
F0.25
S'suppose'
p927
I15
tp928
a(I0
I55
F-0.75
S'worse'
p929
I15
tp930
a(I0
I101
F0.375
S'extended'
p931
I15
tp932
a(I0
I230
F0.375
S'extra'
p933
I15
tp934
a(I3
I3
F1.0
S'best'
p935
I15
tp936
a(I3
I3
F-0.125
S'implement'
p937
I15
tp938
a(I3
I96
F0.375
S'much'
p939
I15
tp940
a(I3
I96
F-0.625
S'bad'
p941
I15
tp942
a(I3
I152
F-0.625
S'other'
p943
I15
tp944
a(I3
I154
F0.125
S'last'
p945
I15
tp946
a(I3
I277
F1.0
S'better'
p947
I15
tp948
a(I3
I321
F-0.75
S'short'
p949
I15
tp950
a(I5
I13
F1.0
S'better'
p951
I15
tp952
a(I5
I19
F0.375
S'extra'
p953
I15
tp954
a(I5
I20
F0.375
S'extra'
p955
I15
tp956
a(I5
I21
F0.375
S'extended'
p957
I15
tp958
a(I5
I205
F-0.5
S'long'
p959
I15
tp960
a(I5
I266
F0.625
S'fair'
p961
I15
tp962
a(I6
I36
F-0.25
S'low'
p963
I15
tp964
a(I7
I9
F-0.5
S'poor'
p965
I15
tp966
a(I7
I66
F-0.5
S'heavier'
p967
I15
tp968
a(I7
I115
F0.125
S'enough'
p969
I15
tp970
a(I7
I159
F0.625
S'acceptable'
p971
I15
tp972
a(I7
I233
F-0.375
S'wasteful'
p973
I15
tp974
a(I7
I234
F-0.5
S'heavy'
p975
I15
tp976
a(I7
I316
F-0.625
S'bad'
p977
I15
tp978
a(I7
I392
I0
S'great'
p979
I15
tp980
a(I7
I396
F-0.625
S'average'
p981
I15
tp982
a(I7
I445
F-0.625
S'bad'
p983
I15
tp984
a(I7
I544
I0
S'more'
p985
I15
tp986
a(I9
I18
F0.375
S'new'
p987
I15
tp988
a(I10
I52
F1.0
S'better'
p989
I15
tp990
a(I10
I107
I0
S'more'
p991
I15
tp992
a(I10
I253
F0.125
S'last'
p993
I15
tp994
a(I10
I253
F-0.5
S'long'
p995
I15
tp996
a(I10
I278
I0
S'faster'
p997
I15
tp998
a(I11
I47
I0
g923
I15
tp999
a(I11
I69
F-0.375
S'double'
p1000
I15
tp1001
a(I11
I151
F-0.625
S'bad'
p1002
I15
tp1003
a(I11
I151
F0.375
S'much'
p1004
I15
tp1005
a(I11
I151
F1.0
S'better'
p1006
I15
tp1007
a(I11
I329
F-0.875
S'worst'
p1008
I15
tp1009
a(I11
I347
F-0.75
S'short'
p1010
I15
tp1011
a(I11
I347
F-0.75
S'short'
p1012
I15
tp1013
a(I11
I347
F-0.75
S'short'
p1014
I15
tp1015
a(I11
I370
F0.375
S'extended'
p1016
I15
tp1017
a(I11
I384
F-0.75
S'worse'
p1018
I15
tp1019
a(I12
I22
F-0.75
S'short'
p1020
I15
tp1021
a(I12
I31
F0.375
S'much'
p1022
I15
tp1023
a(I12
I130
I0
S'quick'
p1024
I15
tp1025
a(I14
I61
F1.0
S'better'
p1026
I15
tp1027
a(I14
I162
I0
S'many'
p1028
I15
tp1029
a(I14
I192
F-0.5
S'less'
p1030
I15
tp1031
a(I14
I200
F1.0
S'better'
p1032
I15
tp1033
a(I14
I320
F1.0
S'good'
p1034
I15
tp1035
a(I14
I326
I0
S'own'
p1036
I15
tp1037
a(I14
I365
I0
S'own'
p1038
I15
tp1039
a(I14
I379
F1.0
S'good'
p1040
I15
tp1041
a(I14
I418
I0
S'great'
p1042
I15
tp1043
a(I15
I13
F1.0
S'better'
p1044
I15
tp1045
a(I15
I23
F0.125
S'last'
p1046
I15
tp1047
a(I15
I24
F0.375
S'extended'
p1048
I15
tp1049
a(I15
I24
I0
S'wider'
p1050
I15
tp1051
a(I15
I25
F0.375
S'extended'
p1052
I15
tp1053
a(I16
I137
F-0.25
S'low'
p1054
I15
tp1055
a(I16
I146
F0.25
S'responsive'
p1056
I15
tp1057
a(I17
I96
F0.125
S'last'
p1058
I15
tp1059
a(I17
I99
F-0.125
S'slow'
p1060
I15
tp1061
a(I17
I216
F0.375
S'extended'
p1062
I15
tp1063
a(I17
I222
F1.0
S'better'
p1064
I15
tp1065
a(I17
I383
F0.375
S'mean'
p1066
I15
tp1067
a(I17
I470
I0
S'full'
p1068
I15
tp1069
a(I18
I95
I0
S'more'
p1070
I15
tp1071
a(I18
I182
F1.0
S'better'
p1072
I15
tp1073
a(I18
I202
F0.5
S'careful'
p1074
I15
tp1075
a(I18
I202
F0.375
S'enable'
p1076
I15
tp1077
a(I19
I85
F0.625
S'removable'
p1078
I15
tp1079
a(I19
I85
I0
S'great'
p1080
I15
tp1081
as(S'super'
p1082
S'amoled'
p1083
S'screen'
p1084
tp1085
(lp1086
(I5
I293
I0
S'great'
p1087
I0
tp1088
a(I10
I35
I0
S'entire'
p1089
I0
tp1090
a(I10
I259
F-0.75
S'bright'
p1091
I0
tp1092
a(I11
I179
I0
S'great'
p1093
I0
tp1094
a(I17
I282
F0.25
S'sharp'
p1095
I0
tp1096
a(I19
I68
F0.625
S'perfect'
p1097
I0
tp1098
a(I7
I490
F-0.375
g16
I0
tp1099
a(I10
I35
I0
g1089
I0
tp1100
a(I10
I259
F-0.75
g1091
I0
tp1101
a(I11
I179
I0
g1093
I0
tp1102
a(I11
I314
I0
g32
I0
tp1103
a(I14
I190
F0.125
S'visible'
p1104
I0
tp1105
a(I17
I282
F0.25
g1095
I0
tp1106
a(I17
I496
I0
S'same'
p1107
I0
tp1108
a(I19
I68
F0.625
g1097
I0
tp1109
as(S'contrast'
p1110
S'ratio'
p1111
tp1112
(lp1113
(I14
I188
I0
S'great'
p1114
I0
tp1115
a(I18
I81
F0.125
S'spectacular'
p1116
I0
tp1117
as(S'sprint'
p1118
S'customer'
p1119
S'service'
p1120
tp1121
(lp1122
(I3
I199
F0.875
S'nice'
p1123
I0
tp1124
a(I10
I234
I0
S'twelve'
p1125
I0
tp1126
a(I11
I169
F-0.5
S'poor'
p1127
I0
tp1128
a(I16
I190
I0
g320
I0
tp1129
a(I3
I199
F0.875
g1123
I3
tp1130
a(I10
I234
I0
g1125
I3
tp1131
a(I11
I169
F-0.5
g1127
I3
tp1132
a(I11
I319
I0
S'great'
p1133
I3
tp1134
a(I11
I319
F0.5
S'expensive'
p1135
I3
tp1136
a(I3
I199
F0.875
g1123
I16
tp1137
a(I5
I272
F-0.125
S'slow'
p1138
I16
tp1139
a(I7
I329
F-0.875
S'awful'
p1140
I16
tp1141
a(I7
I329
F1.0
S'good'
p1142
I16
tp1143
a(I10
I161
F-0.25
S'google'
p1144
I16
tp1145
a(I11
I169
F-0.5
g1127
I16
tp1146
a(I11
I319
I0
g1133
I16
tp1147
a(I11
I319
F0.5
g1135
I16
tp1148
a(I16
I200
F-0.5
S'sure'
p1149
I16
tp1150
a(I18
I239
F0.375
S'reliable'
p1151
I16
tp1152
a(I19
I106
F-0.625
S'other'
p1153
I16
tp1154
as(S'better'
p1155
S'battery'
p1156
S'life'
p1157
tp1158
(lp1159
(I5
I13
F1.0
g951
I0
tp1160
a(I11
I151
F-0.625
g1002
I0
tp1161
a(I11
I151
F0.375
g1004
I0
tp1162
a(I11
I151
F1.0
g1006
I0
tp1163
a(I14
I61
F1.0
g1026
I0
tp1164
a(I14
I200
F1.0
g1032
I0
tp1165
a(I15
I13
F1.0
g1044
I0
tp1166
a(I17
I7
F-0.75
S'short'
p1167
I0
tp1168
a(I18
I182
F1.0
g1072
I0
tp1169
as(S'at'
p1170
S'sprint'
p1171
S'store'
p1172
tp1173
(lp1174
(I13
I71
F-0.25
g316
I0
tp1175
a(I16
I27
I0
g318
I0
tp1176
a(I17
I109
I0
g322
I0
tp1177
a(I17
I110
F0.125
g324
I0
tp1178
a(I17
I110
I0
g326
I0
tp1179
a(I17
I124
I0
g328
I0
tp1180
a(I17
I153
I0
g330
I0
tp1181
as(S'blackberry'
p1182
tp1183
(lp1184
(I5
I63
F-0.5
S'sure'
p1185
I1
tp1186
a(I8
I6
F-0.125
S'former'
p1187
I1
tp1188
a(I9
I1
I0
S'old'
p1189
I1
tp1190
a(I11
I267
F1.0
S'good'
p1191
I1
tp1192
a(I14
I218
F0.375
S'new'
p1193
I1
tp1194
a(I14
I228
F-0.125
S'slow'
p1195
I1
tp1196
a(I16
I24
I0
S'more'
p1197
I1
tp1198
a(I16
I25
F0.375
S'much'
p1199
I1
tp1200
a(I16
I162
F0.375
S'available'
p1201
I1
tp1202
a(I17
I72
F0.625
S'easy'
p1203
I1
tp1204
a(I17
I431
I0
S'more'
p1205
I1
tp1206
a(I17
I431
F0.625
S'superior'
p1207
I1
tp1208
as(S'front'
p1209
S'facing'
p1210
S'camera'
p1211
tp1212
(lp1213
(I10
I92
F1.0
S'better'
p1214
I0
tp1215
a(I17
I342
F1.0
S'enjoy'
p1216
I0
tp1217
a(I17
I342
F0.125
S'able'
p1218
I0
tp1219
a(I17
I351
F0.125
S'solid'
p1220
I0
tp1221
a(I0
I92
I0
S'great'
p1222
I1
tp1223
a(I0
I97
I0
S'many'
p1224
I1
tp1225
a(I0
I97
I0
S'great'
p1226
I1
tp1227
a(I3
I11
F1.0
S'good'
p1228
I1
tp1229
a(I3
I11
F-0.125
S'front'
p1230
I1
tp1231
a(I5
I50
F0.125
S'digital'
p1232
I1
tp1233
a(I7
I83
I0
S'great'
p1234
I1
tp1235
a(I7
I313
I-100
S'5meg'
p1236
I1
tp1237
a(I10
I14
I0
S'pic'
p1238
I1
tp1239
a(I10
I14
I0
S'quick'
p1240
I1
tp1241
a(I12
I73
F0.125
S'equal'
p1242
I1
tp1243
a(I12
I73
F0.125
S'digital'
p1244
I1
tp1245
a(I12
I84
F0.25
S'main'
p1246
I1
tp1247
a(I14
I54
I0
S'great'
p1248
I1
tp1249
a(I14
I350
F1.0
S'best'
p1250
I1
tp1251
a(I17
I342
F1.0
g1216
I1
tp1252
a(I17
I342
F0.125
g1218
I1
tp1253
a(I17
I351
F0.125
g1220
I1
tp1254
a(I18
I215
I0
S'internet'
p1255
I1
tp1256
a(I19
I56
F0.625
S'easier'
p1257
I1
tp1258
as(S'direct'
p1259
S'sunlight'
p1260
tp1261
(lp1262
(I10
I259
F-0.25
S'direct'
p1263
I0
tp1264
a(I14
I190
F-0.25
S'direct'
p1265
I0
tp1266
as(S'data'
p1267
tp1268
(lp1269
(I0
I150
F-0.625
S'other'
p1270
I13
tp1271
a(I3
I323
F-0.625
S'free'
p1272
I13
tp1273
a(I7
I329
F-0.125
S'private'
p1274
I13
tp1275
a(I10
I58
I0
S'active'
p1276
I13
tp1277
a(I11
I233
F0.625
S'superior'
p1278
I13
tp1279
a(I17
I119
F-0.625
S'free'
p1280
I13
tp1281
a(I18
I229
F-0.625
S'bad'
p1282
I13
tp1283
a(I19
I4
F-0.375
S'robust'
p1284
I13
tp1285
as(S'much'
p1286
S'better'
p1287
tp1288
(lp1289
(I3
I208
F0.375
S'much'
p1290
I9
tp1291
a(I11
I234
F0.375
S'much'
p1292
I9
tp1293
a(I14
I402
F0.375
S'much'
p1294
I9
tp1295
as(S'of'
p1296
S'battery'
p1297
S'life'
p1298
tp1299
(lp1300
(I3
I96
F0.375
g939
I0
tp1301
a(I3
I96
F-0.625
g941
I0
tp1302
a(I5
I27
F0.5
S'drive'
p1303
I0
tp1304
a(I5
I205
F-0.5
g959
I0
tp1305
a(I7
I9
F-0.5
g965
I0
tp1306
a(I7
I159
F0.625
g971
I0
tp1307
a(I7
I392
I0
g979
I0
tp1308
a(I7
I485
F-0.75
S'short'
p1309
I0
tp1310
a(I10
I181
F0.125
S'last'
p1311
I0
tp1312
a(I10
I226
F-0.5
S'poor'
p1313
I0
tp1314
a(I11
I46
I0
S'great'
p1315
I0
tp1316
a(I11
I378
F1.0
S'good'
p1317
I0
tp1318
a(I12
I22
F-0.75
g1020
I0
tp1319
a(I14
I202
F1.0
S'good'
p1320
I0
tp1321
a(I14
I320
F1.0
g1034
I0
tp1322
a(I14
I326
I0
g1036
I0
tp1323
a(I16
I146
F0.25
g1056
I0
tp1324
a(I16
I146
I0
S'great'
p1325
I0
tp1326
a(I17
I7
F-0.75
g1167
I0
tp1327
a(I18
I243
F0.375
S'much'
p1328
I0
tp1329
a(I3
I96
F0.375
g939
I1
tp1330
a(I3
I96
F-0.625
g941
I1
tp1331
a(I3
I321
F-0.75
g949
I1
tp1332
a(I5
I13
F1.0
g951
I1
tp1333
a(I5
I27
F0.5
g1303
I1
tp1334
a(I5
I205
F-0.5
g959
I1
tp1335
a(I7
I9
F-0.5
g965
I1
tp1336
a(I7
I73
I0
S'great'
p1337
I1
tp1338
a(I7
I159
F0.625
g971
I1
tp1339
a(I7
I297
F0.375
S'extended'
p1340
I1
tp1341
a(I7
I298
F0.375
S'extended'
p1342
I1
tp1343
a(I7
I392
I0
g979
I1
tp1344
a(I7
I485
F-0.75
g1309
I1
tp1345
a(I7
I500
F-0.875
S'awful'
p1346
I1
tp1347
a(I10
I83
F-0.25
S'battery'
p1348
I1
tp1349
a(I10
I107
I0
g991
I1
tp1350
a(I10
I180
I0
S'great'
p1351
I1
tp1352
a(I10
I181
F0.125
g1311
I1
tp1353
a(I10
I226
F-0.5
g1313
I1
tp1354
a(I11
I46
I0
g1315
I1
tp1355
a(I11
I77
F0.375
S'much'
p1356
I1
tp1357
a(I11
I108
I0
S'great'
p1358
I1
tp1359
a(I11
I151
F-0.625
g1002
I1
tp1360
a(I11
I151
F0.375
g1004
I1
tp1361
a(I11
I151
F1.0
g1006
I1
tp1362
a(I11
I187
F1.0
S'good'
p1363
I1
tp1364
a(I11
I347
F-0.75
g1010
I1
tp1365
a(I11
I347
F-0.75
g1012
I1
tp1366
a(I11
I347
F-0.75
g1014
I1
tp1367
a(I11
I378
F1.0
g1317
I1
tp1368
a(I11
I384
F-0.75
g1018
I1
tp1369
a(I12
I22
F-0.75
g1020
I1
tp1370
a(I14
I61
F1.0
g1026
I1
tp1371
a(I14
I200
F1.0
g1032
I1
tp1372
a(I14
I202
F1.0
g1320
I1
tp1373
a(I14
I320
F1.0
g1034
I1
tp1374
a(I14
I326
I0
g1036
I1
tp1375
a(I14
I379
F1.0
g1040
I1
tp1376
a(I15
I13
F1.0
g1044
I1
tp1377
a(I16
I88
F-0.25
S'battery'
p1378
I1
tp1379
a(I16
I146
F0.25
g1056
I1
tp1380
a(I16
I146
I0
g1325
I1
tp1381
a(I16
I168
F-0.625
S'bad'
p1382
I1
tp1383
a(I17
I7
F-0.75
g1167
I1
tp1384
a(I17
I370
F1.0
S'good'
p1385
I1
tp1386
a(I18
I106
F0.25
S'stellar'
p1387
I1
tp1388
a(I18
I170
F-0.625
S'bad'
p1389
I1
tp1390
a(I18
I182
F1.0
g1072
I1
tp1391
a(I18
I243
F0.375
g1328
I1
tp1392
a(I5
I27
F0.5
g1303
I19
tp1393
a(I5
I73
F1.0
S'best'
p1394
I19
tp1395
a(I7
I73
I0
g1337
I19
tp1396
a(I7
I297
F0.375
g1340
I19
tp1397
a(I7
I298
F0.375
g1342
I19
tp1398
a(I7
I369
F-0.5
S'sure'
p1399
I19
tp1400
a(I7
I369
F0.25
S'spread'
p1401
I19
tp1402
a(I7
I485
F-0.75
g1309
I19
tp1403
a(I7
I500
F-0.875
g1346
I19
tp1404
a(I10
I83
F-0.25
g1348
I19
tp1405
a(I10
I180
I0
g1351
I19
tp1406
a(I10
I181
F0.125
g1311
I19
tp1407
a(I10
I226
F-0.5
g1313
I19
tp1408
a(I11
I46
I0
g1315
I19
tp1409
a(I11
I77
F0.375
g1356
I19
tp1410
a(I11
I108
I0
g1358
I19
tp1411
a(I11
I187
F1.0
g1363
I19
tp1412
a(I11
I378
F1.0
g1317
I19
tp1413
a(I14
I202
F1.0
g1320
I19
tp1414
a(I16
I88
F-0.25
g1378
I19
tp1415
a(I16
I146
I0
g1325
I19
tp1416
a(I16
I168
F-0.625
g1382
I19
tp1417
a(I17
I7
F-0.75
g1167
I19
tp1418
a(I17
I119
F0.5
S'personal'
p1419
I19
tp1420
a(I17
I370
F1.0
g1385
I19
tp1421
a(I18
I106
F0.25
g1387
I19
tp1422
a(I18
I170
F-0.625
g1389
I19
tp1423
a(I18
I243
F0.375
g1328
I19
tp1424
as(S'micro'
p1425
S'sd'
p1426
S'card'
p1427
tp1428
(lp1429
(I3
I165
F-0.625
S'generous'
p1430
I0
tp1431
a(I3
I165
F-0.625
g1430
I0
tp1432
a(I11
I148
F0.25
S'larger'
p1433
I0
tp1434
as(S'wifi'
p1435
tp1436
(lp1437
(I0
I158
F0.125
S'first'
p1438
I0
tp1439
a(I6
I35
I0
S'stable'
p1440
I0
tp1441
a(I7
I325
F0.75
S'beautiful'
p1442
I0
tp1443
a(I7
I325
F-0.875
S'awful'
p1444
I0
tp1445
a(I10
I48
I0
S'same'
p1446
I0
tp1447
a(I10
I133
I0
S'faster'
p1448
I0
tp1449
a(I13
I65
F0.375
S'enable'
p1450
I0
tp1451
a(I16
I198
I0
S'active'
p1452
I0
tp1453
a(I18
I208
F0.375
S'enable'
p1454
I0
tp1455
as(S'apps'
p1456
tp1457
(lp1458
(I3
I56
F-0.625
S'other'
p1459
I0
tp1460
a(I3
I127
I0
S'many'
p1461
I0
tp1462
a(I3
I183
F0.375
S'interesting'
p1463
I0
tp1464
a(I3
I183
I0
S'educational'
p1465
I0
tp1466
a(I3
I183
I0
S'useful'
p1467
I0
tp1468
a(I3
I208
I0
S'quick'
p1469
I0
tp1470
a(I3
I208
F0.25
S'responsive'
p1471
I0
tp1472
a(I3
I272
F0.375
S'new'
p1473
I0
tp1474
a(I3
I272
F-0.375
S'daily'
p1475
I0
tp1476
a(I5
I184
F-0.625
S'stubborn'
p1477
I0
tp1478
a(I5
I187
F-0.625
S'other'
p1479
I0
tp1480
a(I5
I255
F-0.625
S'free'
p1481
I0
tp1482
a(I5
I290
I0
S'android'
p1483
I0
tp1484
a(I7
I295
F-0.5
S'sure'
p1485
I0
tp1486
a(I7
I433
F-0.25
S'google'
p1487
I0
tp1488
a(I10
I35
F-0.5
S'open'
p1489
I0
tp1490
a(I10
I35
I0
S'different'
p1491
I0
tp1492
a(I10
I35
I0
S'least'
p1493
I0
tp1494
a(I10
I52
F-0.5
S'open'
p1495
I0
tp1496
a(I10
I52
I0
S'many'
p1497
I0
tp1498
a(I10
I87
F0.5
S'whole'
p1499
I0
tp1500
a(I10
I91
F1.0
S'better'
p1501
I0
tp1502
a(I10
I103
I0
S'most'
p1503
I0
tp1504
a(I10
I131
I0
S'quick'
p1505
I0
tp1506
a(I10
I224
I0
S'useful'
p1507
I0
tp1508
a(I11
I195
I0
S'more'
p1509
I0
tp1510
a(I11
I195
F-0.625
S'free'
p1511
I0
tp1512
a(I11
I197
I0
S'own'
p1513
I0
tp1514
a(I11
I238
I0
S'fewer'
p1515
I0
tp1516
a(I11
I238
F0.375
S'available'
p1517
I0
tp1518
a(I11
I238
I0
S'many'
p1519
I0
tp1520
a(I11
I372
I0
S'cool'
p1521
I0
tp1522
a(I11
I373
I0
S'cool'
p1523
I0
tp1524
a(I12
I136
F0.25
S'favorite'
p1525
I0
tp1526
a(I13
I65
F-0.625
S'other'
p1527
I0
tp1528
a(I14
I61
I0
S'cool'
p1529
I0
tp1530
a(I14
I404
I0
S'great'
p1531
I0
tp1532
a(I16
I82
F-0.5
S'open'
p1533
I0
tp1534
a(I16
I83
F-0.5
S'open'
p1535
I0
tp1536
a(I16
I85
I0
S'many'
p1537
I0
tp1538
a(I16
I85
F-0.5
S'open'
p1539
I0
tp1540
a(I17
I387
I0
S'fast'
p1541
I0
tp1542
a(I18
I102
I0
S'many'
p1543
I0
tp1544
a(I19
I91
I-100
S'loading/unloading'
p1545
I0
tp1546
as(S'touch'
p1547
S'screen'
p1548
tp1549
(lp1550
(I6
I46
F0.5
g12
I2
tp1551
a(I7
I399
F0.5
S'touch'
p1552
I2
tp1553
a(I7
I399
F-0.375
S'black'
p1554
I2
tp1555
a(I8
I6
F0.875
S'nice'
p1556
I2
tp1557
a(I8
I6
F1.0
S'best'
p1558
I2
tp1559
a(I10
I259
F-0.75
g1091
I2
tp1560
a(I12
I40
F0.5
S'touch'
p1561
I2
tp1562
a(I12
I48
F0.5
S'touch'
p1563
I2
tp1564
a(I12
I64
F-0.625
S'other'
p1565
I2
tp1566
a(I14
I205
F0.5
S'touch'
p1567
I2
tp1568
a(I14
I214
I0
S'great'
p1569
I2
tp1570
a(I14
I214
F0.375
S'new'
p1571
I2
tp1572
a(I14
I217
F0.5
S'touch'
p1573
I2
tp1574
a(I19
I67
I0
S'fluid'
p1575
I2
tp1576
a(I19
I67
F0.5
S'clear'
p1577
I2
tp1578
as(S'couple'
p1579
S'of'
p1580
S'weeks'
p1581
tp1582
(lp1583
(I3
I35
F0.125
S'first'
p1584
I2
tp1585
a(I17
I185
I0
S'next'
p1586
I2
tp1587
as.