(dp0
(S'battery'
p1
S'life'
p2
tp3
(lp4
(I1
I98
F-0.5
S'long'
p5
I1
tp6
a(I8
I11
I0
S'great'
p7
I1
tp8
a(I1
I98
F-0.5
g5
I15
tp9
a(I8
I11
I0
g7
I15
tp10
a(I10
I125
F0.556
S'delicate'
p11
I15
tp12
a(I10
I125
I0
S'plastic'
p13
I15
tp14
a(I10
I125
F0.625
S'easy'
p15
I15
tp16
as(S'keyboard'
p17
tp18
(lp19
(I1
I85
F0.625
S'easy'
p20
I2
tp21
a(I1
I85
I0
S'more'
p22
I2
tp23
a(I1
I85
I0
S'more'
p24
I2
tp25
a(I6
I9
F0.375
S'much'
p26
I2
tp27
a(I6
I9
F0.375
S'feature'
p28
I2
tp29
a(I10
I43
I0
S'such'
p30
I2
tp31
a(I10
I150
I0
S'full'
p32
I2
tp33
a(I10
I175
I0
S'full'
p34
I2
tp35
as(S'sim'
p36
S'card'
p37
tp38
(lp39
(I9
I4
I0
S'same'
p40
I0
tp41
as(S'a'
p42
S'data'
p43
S'plan'
p44
tp45
(lp46
(I4
I35
F0.5
S'expensive'
p47
I0
tp48
a(I7
I1
F0.5
S'expensive'
p49
I0
tp50
a(I4
I35
F0.5
g47
I0
tp51
a(I7
I1
F0.5
g49
I0
tp52
a(I1
I117
I0
S'more'
p53
I13
tp54
a(I1
I117
I0
S'old'
p55
I13
tp56
a(I4
I35
F0.5
g47
I13
tp57
a(I7
I1
F0.5
g49
I13
tp58
as(S'smart'
p59
tp60
(lp61
(I1
I80
F-0.625
S'other'
p62
I10
tp63
a(I9
I5
I0
S'real'
p64
I10
tp65
as(S'internet'
p66
tp67
(lp68
(I10
I97
F0.375
S'much'
p69
I6
tp70
as(S'wifi'
p71
tp72
(lp73
(I1
I40
F-0.625
S'free'
p74
I0
tp75
a(I1
I74
I0
S'local'
p76
I0
tp77
a(I1
I115
F-0.625
S'free'
p78
I0
tp79
a(I1
I120
F0.25
S'used'
p80
I0
tp81
a(I1
I146
F0.625
S'convenient'
p82
I0
tp83
a(I3
I16
F0.125
S'capable'
p84
I0
tp85
a(I4
I13
I0
S'great'
p86
I0
tp87
a(I9
I28
I0
S'great'
p88
I0
tp89
as(S'keypad'
p90
tp91
(lp92
(I1
I153
F-0.625
S'free'
p93
I0
tp94
a(I4
I17
F-0.75
S'difficult'
p95
I0
tp96
as(S'return'
p97
S'label'
p98
tp99
(lp100
(I10
I153
F-0.25
S'late'
p101
I0
tp102
as(S'apps'
p103
tp104
(lp105
(I6
I7
F1.0
S'good'
p106
I0
tp107
a(I10
I34
I0
S'social'
p108
I0
tp109
a(I10
I53
I0
S'most'
p110
I0
tp111
as(S'google'
p112
S'maps'
p113
tp114
(lp115
(I6
I6
F0.125
S'supplied'
p116
I1
tp117
a(I8
I14
F-0.25
S'google'
p118
I1
tp119
as(S'camera'
p120
tp121
(lp122
(I1
I50
F-0.5
S'poor'
p123
I1
tp124
a(I1
I50
F-0.5
S'poor'
p125
I1
tp126
a(I3
I9
F0.375
S'flash'
p127
I1
tp128
a(I3
I11
F0.125
S'able'
p129
I1
tp130
a(I10
I71
F1.0
S'good'
p131
I1
tp132
a(I10
I105
F1.0
S'good'
p133
I1
tp134
as(S'touch'
p135
S'screen'
p136
tp137
(lp138
(I4
I34
F0.5
S'touch'
p139
I2
tp140
a(I6
I12
F0.5
S'touch'
p141
I2
tp142
a(I9
I25
F0.875
S'nice'
p143
I2
tp144
a(I9
I25
F-0.625
S'clean'
p145
I2
tp146
a(I9
I25
F-0.75
S'bright'
p147
I2
tp148
a(I10
I28
F0.5
S'touch'
p149
I2
tp150
as(S'text'
p151
S'messages'
p152
tp153
(lp154
(I1
I99
F0.75
S'receive'
p155
I0
tp156
as(S'language'
p157
tp158
(lp159
(I4
I28
F-0.625
S'other'
p160
I3
tp161
a(I4
I29
F-0.625
S'other'
p162
I3
tp163
a(I10
I1
F-0.375
S'manual'
p164
I3
tp165
a(I10
I1
F-0.625
S'useless'
p166
I3
tp167
a(I10
I3
F-0.125
S'foreign'
p168
I3
tp169
a(I10
I3
F0.5
S'possible'
p170
I3
tp171
a(I10
I156
I0
S'different'
p172
I3
tp173
as.