(dp0
(S'battery'
p1
S'life'
p2
tp3
(lp4
(I0
I51
F-0.5
S'poor'
p5
I1
tp6
a(I2
I101
F-0.75
S'worse'
p7
I1
tp8
a(I4
I6
F-0.5
S'complaint'
p9
I1
tp10
a(I4
I6
F0.25
S'larger'
p11
I1
tp12
a(I4
I43
F0.5
S'comparable'
p13
I1
tp14
a(I4
I71
F-0.25
S'battery'
p15
I1
tp16
a(I4
I80
F0.375
S'extended'
p17
I1
tp18
a(I4
I291
F-0.5
S'poor'
p19
I1
tp20
a(I4
I514
F-0.5
S'longer'
p21
I1
tp22
a(I6
I165
F1.0
S'good'
p23
I1
tp24
a(I0
I2
F0.625
S'easier'
p25
I19
tp26
a(I0
I125
F0.625
S'easier'
p27
I19
tp28
a(I1
I51
I0
S'real'
p29
I19
tp30
a(I2
I72
F0.625
S'easier'
p31
I19
tp32
a(I4
I43
F0.5
g13
I19
tp33
a(I4
I71
F-0.25
g15
I19
tp34
a(I4
I80
F0.375
g17
I19
tp35
a(I4
I291
F-0.5
g19
I19
tp36
a(I4
I514
F-0.5
g21
I19
tp37
a(I6
I165
F1.0
g23
I19
tp38
a(I0
I51
F-0.5
g5
I15
tp39
a(I2
I2
F-0.25
S'low'
p40
I15
tp41
a(I2
I63
F0.25
S'portable'
p42
I15
tp43
a(I2
I92
I0
S'same'
p44
I15
tp45
a(I2
I101
F-0.75
g7
I15
tp46
a(I4
I6
F-0.5
g9
I15
tp47
a(I4
I6
F0.25
g11
I15
tp48
a(I4
I75
I0
S'most'
p49
I15
tp50
a(I4
I137
F-0.5
S'sure'
p51
I15
tp52
a(I4
I378
I0
S'more'
p53
I15
tp54
a(I4
I384
F0.25
S'larger'
p55
I15
tp56
a(I4
I389
F0.25
S'larger'
p57
I15
tp58
as(S'email'
p59
tp60
(lp61
(I4
I343
F-0.625
S'other'
p62
I5
tp63
a(I4
I363
I0
S'net'
p64
I5
tp65
as(S'contacts'
p66
S'and'
p67
S'calendar'
p68
tp69
(lp70
(I2
I79
I0
S'same'
p71
I0
tp72
a(I4
I126
F0.125
S'able'
p73
I0
tp74
a(I4
I184
I0
S'e-mail'
p75
I0
tp76
a(I2
I79
I0
g71
I0
tp77
a(I4
I157
F-0.625
S'other'
p78
I0
tp79
a(I4
I184
I0
g75
I0
tp80
a(I4
I325
I0
S'few'
p81
I0
tp82
a(I1
I192
I0
S'great'
p83
I2
tp84
a(I4
I126
F0.125
g73
I2
tp85
a(I4
I152
F-0.125
S'slow'
p86
I2
tp87
as(S'text'
p88
tp89
(lp90
(I0
I70
F-0.75
S'short'
p91
I18
tp92
a(I1
I50
F-0.5
S'open'
p93
I18
tp94
a(I4
I81
F0.625
S'easier'
p95
I18
tp96
as(S'motorola'
p97
S'droid'
p98
tp99
(lp100
(I4
I78
F-0.75
S'worse'
p101
I0
tp102
a(I4
I317
F0.375
S'new'
p103
I0
tp104
a(I4
I442
F-0.375
S'simple'
p105
I0
tp106
a(I3
I0
F-0.125
S'future'
p107
I0
tp108
a(I4
I97
F0.375
S'much'
p109
I0
tp110
a(I4
I97
F0.5
S'comparable'
p111
I0
tp112
a(I4
I445
I0
S'high'
p113
I0
tp114
a(I4
I500
F0.125
S'able'
p115
I0
tp116
as(S'new'
p117
S'palm'
p118
tp119
(lp120
(I0
I36
F0.375
S'new'
p121
I0
tp122
a(I0
I68
F0.375
S'new'
p123
I0
tp124
a(I1
I197
F0.375
S'new'
p125
I0
tp126
a(I6
I122
F0.375
S'new'
p127
I0
tp128
as(S'homebrew'
p129
tp130
(lp131
(I2
I79
F-0.625
S'free'
p132
I0
tp133
a(I2
I80
I0
S'many'
p134
I0
tp135
a(I4
I114
F0.875
S'happy'
p136
I0
tp137
as(S'operating'
p138
S'system'
p139
tp140
(lp141
(I1
I20
F-0.875
S'awful'
p142
I2
tp143
a(I1
I24
F-0.625
S'other'
p144
I2
tp145
a(I1
I31
F-0.875
S'inferior'
p146
I2
tp147
a(I4
I357
F-0.25
S'potential'
p148
I2
tp149
a(I2
I75
F0.375
S'available'
p150
I12
tp151
as(S'iphone'
p152
tp153
(lp154
(I0
I39
F0.625
S'easy'
p155
I1
tp156
a(I1
I27
F0.375
S'new'
p157
I1
tp158
a(I1
I136
I0
S'very'
p159
I1
tp160
a(I1
I136
F0.375
S'similar'
p161
I1
tp162
a(I2
I108
F0.125
S'first'
p163
I1
tp164
a(I4
I25
F0.5
S'elegant'
p165
I1
tp166
a(I4
I26
I0
S'large'
p167
I1
tp168
a(I4
I65
I0
S'close'
p169
I1
tp170
a(I4
I105
F0.375
S'much'
p171
I1
tp172
a(I4
I216
F-0.125
S'alternative'
p173
I1
tp174
a(I4
I264
F0.5
S'comparable'
p175
I1
tp176
a(I4
I539
F0.125
S'popular'
p177
I1
tp178
a(I4
I561
F0.125
S'proficient'
p179
I1
tp180
as(S'speed'
p181
tp182
(lp183
(I4
I325
F0.5
S'reasonable'
p184
I9
tp185
a(I4
I509
F1.0
S'good'
p186
I9
tp187
as(S'internet'
p188
tp189
(lp190
(I1
I70
F0.125
S'able'
p191
I6
tp192
a(I4
I161
I0
S'great'
p193
I6
tp194
a(I4
I427
I0
S'full'
p195
I6
tp196
as(S'google'
p197
tp198
(lp199
(I0
I77
F-0.625
S'bad'
p200
I4
tp201
as(S'palm'
p202
S'pre'
p203
tp204
(lp205
(I0
I36
F0.375
g121
I0
tp206
a(I0
I68
F0.375
g123
I0
tp207
a(I0
I116
F0.125
S'last'
p208
I0
tp209
a(I2
I76
F-0.375
S'top'
p210
I0
tp211
a(I2
I86
F-0.25
S'cheaper'
p212
I0
tp213
a(I2
I86
F0.5
S'loyal'
p214
I0
tp215
a(I2
I93
F0.375
S'meant'
p216
I0
tp217
a(I4
I29
F-0.875
S'worst'
p218
I0
tp219
a(I4
I216
F0.875
S'happy'
p220
I0
tp221
a(I4
I295
I0
S'least'
p222
I0
tp223
a(I4
I465
F1.0
S'best'
p224
I0
tp225
a(I4
I569
I0
S'special'
p226
I0
tp227
a(I6
I122
F0.375
g127
I0
tp228
a(I6
I141
F0.125
S'first'
p229
I0
tp230
a(I6
I178
F-0.75
S'wrong'
p231
I0
tp232
as(S'flash'
p233
tp234
(lp235
(I6
I54
F0.125
S'first'
p236
I2
tp237
as(S'verizon'
p238
tp239
(lp240
(I0
I127
I0
S'next'
p241
I0
tp242
a(I1
I0
F1.0
S'best'
p243
I0
tp244
a(I1
I5
F0.25
S'changed'
p245
I0
tp246
a(I1
I5
F0.125
S'last'
p247
I0
tp248
a(I1
I8
I0
S'spacial'
p249
I0
tp250
a(I6
I140
F0.75
S'due'
p251
I0
tp252
as(S'applications'
p253
tp254
(lp255
(I4
I182
F-0.625
S'other'
p256
I3
tp257
a(I4
I516
I0
S'many'
p258
I3
tp259
as(S'webos'
p260
tp261
(lp262
(I1
I28
F0.625
S'easy'
p263
I0
tp264
a(I2
I20
I0
S'general'
p265
I0
tp266
a(I2
I38
F0.375
S'initiative'
p267
I0
tp268
a(I4
I271
F1.0
S'best'
p269
I0
tp270
a(I4
I452
F-0.25
S'revolutionary'
p271
I0
tp272
a(I4
I507
F-0.625
S'other'
p273
I0
tp274
a(I4
I521
I0
S'more'
p275
I0
tp276
a(I4
I551
F1.0
S'best'
p277
I0
tp278
a(I5
I1
F-0.375
S'smooth'
p279
I0
tp280
a(I5
I1
F0.625
S'easy'
p281
I0
tp282
a(I6
I170
F0.375
S'combine'
p283
I0
tp284
as(S'plus'
p285
tp286
(lp287
(I1
I122
I0
S'fast'
p288
I16
tp289
a(I2
I13
I0
S'stable'
p290
I16
tp291
a(I2
I13
I0
S'fast'
p292
I16
tp293
a(I4
I106
F0.75
S'definite'
p294
I16
tp295
a(I4
I151
F1.0
S'good'
p296
I16
tp297
a(I4
I219
F1.0
S'best'
p298
I16
tp299
as(S'music'
p300
S'player'
p301
tp302
(lp303
(I2
I78
F0.875
S'music'
p304
I0
tp305
a(I4
I483
F0.5
S'true'
p306
I0
tp307
a(I4
I483
F0.5
g306
I0
tp308
as(S'web'
p309
S'browsing'
p310
tp311
(lp312
(I6
I90
I0
S'cool'
p313
I0
tp314
as(S'mobile'
p315
S'hotspot'
p316
tp317
(lp318
(I3
I10
I0
S'mobile'
p319
I0
tp320
a(I4
I161
I0
S'mobile'
p321
I0
tp322
a(I4
I170
F-0.625
S'free'
p323
I0
tp324
a(I4
I227
I0
S'mobile'
p325
I0
tp326
as(S'best'
p327
S'smartphone'
p328
tp329
(lp330
(I1
I120
F1.0
S'best'
p331
I0
tp332
a(I1
I175
F1.0
S'best'
p333
I0
tp334
a(I4
I0
F1.0
S'best'
p335
I0
tp336
a(I4
I0
F0.375
S'available'
p337
I0
tp338
a(I4
I486
F1.0
S'best'
p339
I0
tp340
a(I4
I523
F1.0
S'best'
p341
I0
tp342
a(I6
I0
F1.0
S'best'
p343
I0
tp344
a(I6
I168
F1.0
S'best'
p345
I0
tp346
a(I6
I169
F1.0
S'best'
p347
I0
tp348
a(I1
I14
F0.125
S'first'
p349
I0
tp350
a(I1
I120
F1.0
g331
I0
tp351
a(I1
I175
F1.0
g333
I0
tp352
a(I4
I0
F1.0
g335
I0
tp353
a(I4
I0
F0.375
g337
I0
tp354
a(I4
I486
F1.0
g339
I0
tp355
a(I4
I523
F1.0
g341
I0
tp356
a(I6
I0
F1.0
g343
I0
tp357
a(I6
I168
F1.0
g345
I0
tp358
a(I6
I169
F1.0
g347
I0
tp359
as(S'smart'
p360
tp361
(lp362
(I0
I52
F-0.625
S'other'
p363
I10
tp364
a(I1
I12
I0
S'great'
p365
I10
tp366
a(I2
I13
F0.5
S'functional'
p367
I10
tp368
a(I2
I13
I0
S'ergonomic'
p369
I10
tp370
a(I2
I13
F-0.125
S'overall'
p371
I10
tp372
a(I2
I82
F-0.625
S'other'
p373
I10
tp374
a(I4
I256
F0.125
S'practical'
p375
I10
tp376
a(I4
I570
F-0.625
S'other'
p377
I10
tp378
a(I5
I0
I0
S'many'
p379
I10
tp380
a(I6
I16
F-0.625
S'other'
p381
I10
tp382
as(S'application'
p383
tp384
(lp385
(I1
I41
F-0.625
S'free'
p386
I7
tp387
a(I4
I215
F0.375
S'new'
p388
I7
tp389
as(S'wifi'
p390
S'hotspot'
p391
tp392
(lp393
(I3
I10
I0
g319
I0
tp394
a(I3
I10
F-0.625
S'other'
p395
I0
tp396
a(I3
I10
F-0.625
g395
I0
tp397
a(I6
I26
F0.125
S'able'
p398
I0
tp399
a(I3
I10
I0
g319
I0
tp400
a(I4
I161
I0
g321
I0
tp401
a(I4
I227
I0
g325
I0
tp402
a(I6
I11
F-0.625
S'free'
p403
I0
tp404
as(S'multitasking'
p405
tp406
(lp407
(I2
I78
F0.5
S'true'
p408
I0
tp409
a(I2
I81
F-0.375
S'smooth'
p410
I0
tp411
a(I6
I161
F0.5
S'true'
p412
I0
tp413
as(S'mobile'
p414
S'hot'
p415
S'spot'
p416
tp417
(lp418
(I1
I12
F-0.625
S'free'
p419
I0
tp420
a(I4
I170
F-0.625
g323
I0
tp421
a(I4
I222
I0
S'mobile'
p422
I0
tp423
a(I4
I222
F-0.625
S'free'
p424
I0
tp425
a(I1
I12
F-0.625
g419
I0
tp426
a(I4
I222
I0
g422
I0
tp427
a(I4
I222
F-0.625
g424
I0
tp428
a(I4
I134
I0
S'great'
p429
I0
tp430
a(I4
I170
F-0.625
g323
I0
tp431
a(I4
I182
I0
S'great'
p432
I0
tp433
as(S'start'
p434
S'typing'
p435
tp436
(lp437
(I2
I102
F-0.375
S'double'
p438
I0
tp439
as(S'palm'
p440
S'user'
p441
tp442
(lp443
(I0
I82
F0.5
S'loyal'
p444
I0
tp445
a(I2
I86
F0.5
g214
I0
tp446
a(I4
I218
F0.25
S'original'
p447
I0
tp448
a(I0
I36
F0.375
g121
I1
tp449
a(I0
I68
F0.375
g123
I1
tp450
a(I0
I82
F0.5
g444
I1
tp451
a(I0
I116
F0.125
g208
I1
tp452
a(I1
I197
F0.375
g125
I1
tp453
a(I2
I21
F0.125
S'first'
p454
I1
tp455
a(I2
I76
F-0.375
g210
I1
tp456
a(I2
I86
F0.5
g214
I1
tp457
a(I2
I89
F-0.625
S'other'
p458
I1
tp459
a(I4
I35
F0.25
S'original'
p460
I1
tp461
a(I4
I36
F0.375
S'early'
p462
I1
tp463
a(I4
I209
F-0.625
S'other'
p464
I1
tp465
a(I4
I216
F0.875
g220
I1
tp466
a(I4
I218
F0.25
g447
I1
tp467
a(I4
I306
I0
S'least'
p468
I1
tp469
a(I4
I465
F1.0
g224
I1
tp470
a(I6
I106
I0
S'most'
p471
I1
tp472
a(I6
I122
F0.375
g127
I1
tp473
a(I6
I141
F0.125
g229
I1
tp474
a(I6
I178
F-0.75
g231
I1
tp475
as(S'app'
p476
S'catalog'
p477
tp478
(lp479
(I2
I80
I0
S'basic'
p480
I0
tp481
a(I4
I277
I0
S'many'
p482
I0
tp483
a(I4
I517
I0
S'current'
p484
I0
tp485
a(I4
I517
F-0.75
S'little'
p486
I0
tp487
a(I4
I522
F0.5
S'comparable'
p488
I0
tp489
a(I4
I277
I0
g482
I5
tp490
a(I4
I517
I0
g484
I5
tp491
a(I4
I517
F-0.75
g486
I5
tp492
a(I4
I522
F0.5
g488
I5
tp493
as(S'customer'
p494
S'service'
p495
tp496
(lp497
(I4
I531
F0.875
S'nice'
p498
I3
tp499
as(S'a'
p500
S'real'
p501
S'keyboard'
p502
tp503
(lp504
(I0
I23
I0
S'real'
p505
I0
tp506
a(I1
I55
I0
S'real'
p507
I0
tp508
a(I1
I55
I0
S'real'
p509
I0
tp510
a(I4
I562
I0
S'real'
p511
I0
tp512
a(I0
I23
I0
g505
I2
tp513
a(I1
I55
I0
g507
I2
tp514
a(I1
I55
I0
g509
I2
tp515
a(I1
I68
F0.625
S'easy'
p516
I2
tp517
a(I1
I68
I0
S'faster'
p518
I2
tp519
a(I1
I104
F-0.875
S'awful'
p520
I2
tp521
a(I1
I146
I0
S'great'
p522
I2
tp523
a(I1
I148
F-0.375
S'small'
p524
I2
tp525
a(I1
I169
F-0.5
S'open'
p526
I2
tp527
a(I1
I191
F1.0
S'good'
p528
I2
tp529
a(I1
I191
I0
S'great'
p530
I2
tp531
a(I2
I89
F-0.875
S'harder'
p532
I2
tp533
a(I3
I12
F-0.375
S'small'
p534
I2
tp535
a(I4
I27
I0
S'great'
p536
I2
tp537
a(I4
I27
I0
S'physical'
p538
I2
tp539
a(I4
I40
F-0.75
S'difficult'
p540
I2
tp541
a(I4
I81
F-0.625
S'other'
p542
I2
tp543
a(I4
I81
I0
S'wish'
p544
I2
tp545
a(I4
I81
I0
S'soft'
p546
I2
tp547
a(I4
I174
F1.0
S'better'
p548
I2
tp549
a(I4
I204
I0
S'physical'
p550
I2
tp551
a(I4
I206
F-0.75
S'comfortable'
p552
I2
tp553
a(I4
I206
F0.625
S'easy'
p554
I2
tp555
a(I4
I237
F0.5
S'incurable'
p556
I2
tp557
a(I4
I330
I0
S'physical'
p558
I2
tp559
a(I4
I331
I0
S'physical'
p560
I2
tp561
a(I4
I456
F-0.375
S'small'
p562
I2
tp563
a(I4
I509
F1.0
S'good'
p564
I2
tp565
a(I4
I562
I0
g511
I2
tp566
a(I6
I4
F0.125
S'tolerable'
p567
I2
tp568
a(I6
I82
I0
S'physical'
p569
I2
tp570
a(I6
I96
F-0.75
S'unreliable'
p571
I2
tp572
as(S'videos'
p573
tp574
(lp575
(I0
I40
I0
S'crystal'
p576
I8
tp577
a(I1
I137
F-0.5
S'long'
p578
I8
tp579
a(I4
I187
F0.875
S'music'
p580
I8
tp581
a(I4
I202
I0
S'many'
p582
I8
tp583
a(I4
I438
I0
S'many'
p584
I8
tp585
as(S'apps'
p586
tp587
(lp588
(I0
I11
I0
S'more'
p589
I0
tp590
a(I0
I15
I0
S'most'
p591
I0
tp592
a(I0
I15
F-0.625
S'free'
p593
I0
tp594
a(I0
I16
I0
S'more'
p595
I0
tp596
a(I0
I16
F-0.375
S'daily'
p597
I0
tp598
a(I0
I128
F0.375
S'available'
p599
I0
tp600
a(I1
I55
I0
S'own'
p601
I0
tp602
a(I1
I55
I0
S'homebrew'
p603
I0
tp604
a(I1
I57
I0
S'most'
p605
I0
tp606
a(I1
I59
F0.125
S'key'
p607
I0
tp608
a(I1
I128
I0
S'many'
p609
I0
tp610
a(I1
I128
F0.375
S'available'
p611
I0
tp612
a(I1
I129
F1.0
S'good'
p613
I0
tp614
a(I1
I131
I0
S'many'
p615
I0
tp616
a(I1
I131
F1.0
S'good'
p617
I0
tp618
a(I2
I80
F-0.25
S'direct'
p619
I0
tp620
a(I2
I115
I0
S'many'
p621
I0
tp622
a(I2
I115
I0
S'different'
p623
I0
tp624
a(I4
I5
F0.375
S'available'
p625
I0
tp626
a(I4
I54
I0
S'most'
p627
I0
tp628
a(I4
I185
I0
S'own'
p629
I0
tp630
a(I4
I210
I0
S'close'
p631
I0
tp632
a(I4
I275
F0.375
S'available'
p633
I0
tp634
a(I4
I305
I0
S'many'
p635
I0
tp636
a(I4
I373
I0
S'install'
p637
I0
tp638
a(I4
I427
F-0.5
S'open'
p639
I0
tp640
a(I4
I484
I0
S'more'
p641
I0
tp642
a(I4
I503
I0
S'more'
p643
I0
tp644
a(I4
I503
F-0.5
S'open'
p645
I0
tp646
a(I4
I504
F-0.5
S'open'
p647
I0
tp648
a(I4
I505
F-0.5
S'open'
p649
I0
tp650
a(I4
I505
F-0.5
S'open'
p651
I0
tp652
a(I4
I521
I0
S'faster'
p653
I0
tp654
a(I4
I550
F0.625
S'convenient'
p655
I0
tp656
a(I4
I552
I0
S'many'
p657
I0
tp658
a(I4
I552
F-0.5
S'open'
p659
I0
tp660
a(I6
I77
I0
S'many'
p661
I0
tp662
a(I6
I166
F1.0
S'best'
p663
I0
tp664
as(S'touch'
p665
S'screen'
p666
tp667
(lp668
(I0
I22
F0.25
S'responsive'
p669
I2
tp670
a(I0
I22
F0.625
S'easy'
p671
I2
tp672
a(I0
I40
F0.25
S'responsive'
p673
I2
tp674
a(I1
I179
F0.5
S'touch'
p675
I2
tp676
a(I4
I207
F0.5
S'touch'
p677
I2
tp678
a(I4
I330
I0
S'large'
p679
I2
tp680
as(S'facebook'
p681
tp682
(lp683
(I1
I79
I0
S'e-mail'
p684
I0
tp685
a(I1
I162
F-0.25
S'google'
p686
I0
tp687
a(I4
I303
F0.125
S'enough'
p688
I0
tp689
as.