(dp0
(S'service'
p1
tp2
(lp3
(I0
I9
F0.5
S'satisfactory'
p4
I16
tp5
a(I1
I21
F1.0
S'better'
p6
I16
tp7
a(I1
I26
I0
S'normal'
p8
I16
tp9
a(I1
I26
I0
S'adequate'
p10
I16
tp11
as(S'battery'
p12
S'life'
p13
tp14
(lp15
(I6
I24
I0
S'great'
p16
I1
tp17
a(I4
I1
F-0.75
S'wrong'
p18
I15
tp19
a(I6
I24
I0
g16
I15
tp20
as(S'prepaid'
p21
tp22
(lp23
(I7
I9
F-0.625
S'other'
p24
I0
tp25
as(S'samsung'
p26
tp27
(lp28
(I4
I19
F-0.75
S'wrong'
p29
I7
tp30
as(S'verizon'
p31
tp32
(lp33
(I0
I9
F-0.5
S'sure'
p34
I0
tp35
a(I0
I21
F-0.5
S'regular'
p36
I0
tp37
a(I2
I13
F-0.75
S'unable'
p38
I0
tp39
a(I9
I29
F0.625
S'aware'
p40
I0
tp41
a(I9
I30
F0.375
S'new'
p42
I0
tp43
as.