(dp0
(S'smartphone'
p1
tp2
(lp3
(I16
I68
I0
S'great'
p4
I0
tp5
a(I42
I52
F0.25
S'larger'
p6
I0
tp7
a(I42
I52
I0
S'normal'
p8
I0
tp9
a(I48
I60
F0.625
S'perfect'
p10
I0
tp11
a(I49
I29
F0.625
S'major'
p12
I0
tp13
a(I50
I2
F1.0
S'good'
p14
I0
tp15
a(I61
I5
F0.5
S'comparable'
p16
I0
tp17
as(S'email'
p18
tp19
(lp20
(I16
I70
F0.625
S'convenient'
p21
I5
tp22
a(I26
I15
F0.5
S'personal'
p23
I5
tp24
a(I30
I16
F-0.125
S'slow'
p25
I5
tp26
a(I34
I48
F0.125
S'key'
p27
I5
tp28
a(I37
I16
F0.375
S'audible'
p29
I5
tp30
a(I37
I20
F0.375
S'audible'
p31
I5
tp32
a(I50
I5
F-0.625
S'free'
p33
I5
tp34
a(I54
I6
F-0.375
S'simpler'
p35
I5
tp36
as(S'keys'
p37
tp38
(lp39
(I2
I44
F-0.75
S'dark'
p40
I9
tp41
a(I2
I44
F-0.875
S'hard'
p42
I9
tp43
a(I2
I45
I0
S'legible'
p44
I9
tp45
a(I16
I23
F-0.375
S'small'
p46
I9
tp47
a(I16
I24
I0
S'stiff'
p48
I9
tp49
a(I16
I24
F0.125
S'enough'
p50
I9
tp51
a(I16
I39
F-0.125
S'directional'
p52
I9
tp53
a(I24
I39
I0
S'few'
p54
I9
tp55
a(I41
I42
F-0.875
S'hard'
p56
I9
tp57
a(I41
I45
F-0.875
S'hard'
p58
I9
tp59
a(I42
I45
F-0.375
S'simple'
p60
I9
tp61
a(I42
I60
F-0.375
S'small'
p62
I9
tp63
as(S'settings'
p64
tp65
(lp66
(I18
I11
I0
S'site'
p67
I1
tp68
a(I35
I4
I0
S'different'
p69
I1
tp70
a(I42
I22
F0.25
S'original'
p71
I1
tp72
a(I57
I21
I0
S'few'
p73
I1
tp74
as(S'call'
p75
S'quality'
p76
tp77
(lp78
(I5
I57
I0
S'great'
p79
I0
tp80
a(I26
I25
F1.0
S'good'
p81
I0
tp82
a(I30
I8
F0.5
S'clear'
p83
I0
tp84
a(I41
I57
F-0.75
S'comfortable'
p85
I0
tp86
a(I64
I12
F0.5
S'clear'
p87
I0
tp88
as(S'nokia'
p89
S'c3'
p90
tp91
(lp92
(I0
I2
F0.125
S'first'
p93
I0
tp94
a(I22
I35
I0
S'great'
p95
I0
tp96
a(I30
I18
F0.375
S'new'
p97
I0
tp98
a(I30
I19
I0
S'old'
p99
I0
tp100
a(I30
I20
I0
S'old'
p101
I0
tp102
as(S'college'
p103
S'student'
p104
tp105
(lp106
(I5
I0
F0.375
S'much'
p107
I0
tp108
as(S'2'
p109
S'mp'
p110
S'camera'
p111
tp112
(lp113
(I48
I84
F-0.625
S'bad'
p114
I0
tp115
a(I48
I84
F1.0
S'good'
p116
I0
tp117
a(I1
I79
F-0.125
S'slow'
p118
I1
tp119
a(I5
I29
F1.0
S'good'
p120
I1
tp121
a(I5
I52
I0
S'adequate'
p122
I1
tp123
a(I16
I106
F-0.625
S'bad'
p124
I1
tp125
a(I17
I18
F1.0
S'better'
p126
I1
tp127
a(I17
I87
F-0.625
S'bad'
p128
I1
tp129
a(I36
I23
F-0.625
S'other'
p130
I1
tp131
a(I40
I1
F1.0
S'good'
p132
I1
tp133
a(I44
I15
F1.0
S'good'
p134
I1
tp135
a(I45
I43
I0
S'text'
p136
I1
tp137
a(I48
I84
F-0.625
g114
I1
tp138
a(I48
I84
F1.0
g116
I1
tp139
a(I64
I37
F0.5
S'willing'
p140
I1
tp141
a(I64
I37
I0
S'more'
p142
I1
tp143
as(S'apps'
p144
tp145
(lp146
(I0
I20
F0.375
S'available'
p147
I0
tp148
a(I0
I64
I0
S'useful'
p149
I0
tp150
a(I16
I18
I0
S'few'
p151
I0
tp152
a(I17
I85
I0
S'great'
p153
I0
tp154
a(I34
I3
F0.375
S'enable'
p155
I0
tp156
a(I34
I10
I0
S'few'
p157
I0
tp158
a(I34
I10
F-0.625
S'free'
p159
I0
tp160
a(I46
I3
F0.375
S'newer'
p161
I0
tp162
a(I54
I8
F-0.625
S'free'
p163
I0
tp164
a(I64
I12
F-0.625
S'free'
p165
I0
tp166
as(S'internet'
p167
tp168
(lp169
(I1
I13
F0.375
S'allow'
p170
I6
tp171
a(I16
I81
F-0.375
S'simple'
p172
I6
tp173
a(I17
I58
F0.625
S'decent'
p174
I6
tp175
a(I18
I12
F-0.625
S'free'
p176
I6
tp177
a(I24
I26
F0.375
S'available'
p178
I6
tp179
a(I34
I6
F-0.125
S'slow'
p180
I6
tp181
a(I34
I68
F0.5
S'possible'
p182
I6
tp183
a(I39
I10
I0
S'needed'
p184
I6
tp185
a(I56
I0
I0
S'economical'
p186
I6
tp187
a(I56
I0
I0
S'quick'
p188
I6
tp189
a(I60
I18
I0
S'basic'
p190
I6
tp191
as(S'unhappy'
p192
S'buyer'
p193
tp194
(lp195
(I39
I21
I0
S'next'
p196
I0
tp197
as(S'custom'
p198
S'shortcuts'
p199
tp200
(lp201
(I24
I29
I0
S'such'
p202
I0
tp203
as(S'messages'
p204
tp205
(lp206
(I36
I5
I0
S'text'
p207
I1
tp208
a(I36
I9
I0
S'text'
p209
I1
tp210
a(I37
I16
I0
S'online'
p211
I1
tp212
a(I42
I78
F-0.375
S'daily'
p213
I1
tp214
as(S'good'
p215
S'battery'
p216
S'life'
p217
tp218
(lp219
(I1
I4
F1.0
S'good'
p220
I0
tp221
a(I13
I46
F1.0
S'good'
p222
I0
tp223
a(I13
I49
F1.0
S'good'
p224
I0
tp225
a(I45
I29
F1.0
S'good'
p226
I0
tp227
a(I45
I29
F-0.875
S'undeniable'
p228
I0
tp229
a(I48
I53
F1.0
S'good'
p230
I0
tp231
a(I49
I35
F1.0
S'good'
p232
I0
tp233
a(I50
I11
F-0.5
S'long'
p234
I0
tp235
a(I51
I2
F1.0
S'good'
p236
I0
tp237
as(S'nokia'
p238
S'customer'
p239
S'service'
p240
tp241
(lp242
(I34
I40
I0
S'website'
p243
I0
tp244
a(I44
I17
F-0.875
S'worst'
p245
I0
tp246
a(I23
I21
I0
S'only'
p247
I16
tp248
a(I30
I15
F0.5
S'expensive'
p249
I16
tp250
a(I34
I86
F0.5
S'compatible'
p251
I16
tp252
a(I42
I44
F-0.5
S'sure'
p253
I16
tp254
a(I53
I2
I0
S'internet'
p255
I16
tp256
a(I54
I11
F-0.5
S'answer'
p257
I16
tp258
a(I0
I2
F0.125
g93
I0
tp259
a(I1
I27
F0.125
S'last'
p260
I0
tp261
a(I1
I60
F-0.75
S'likely'
p262
I0
tp263
a(I2
I34
F-0.75
S'little'
p264
I0
tp265
a(I5
I55
I0
S'old'
p266
I0
tp267
a(I8
I2
F0.375
S'much'
p268
I0
tp269
a(I16
I56
F0.375
S'honest'
p270
I0
tp271
a(I17
I81
F0.25
S'original'
p272
I0
tp273
a(I22
I35
I0
g95
I0
tp274
a(I24
I18
I0
S'many'
p275
I0
tp276
a(I30
I19
I0
g99
I0
tp277
a(I30
I20
I0
g101
I0
tp278
a(I32
I2
I0
S'choose'
p279
I0
tp280
a(I34
I40
I0
g243
I0
tp281
a(I34
I89
I0
S'great'
p282
I0
tp283
a(I34
I96
F0.375
S'indestructible'
p284
I0
tp285
a(I39
I5
F-0.625
S'other'
p286
I0
tp287
a(I39
I40
I0
S'great'
p288
I0
tp289
a(I41
I7
F-0.625
S'other'
p290
I0
tp291
a(I41
I7
F0.25
S'professional'
p292
I0
tp293
a(I41
I72
I0
S'basic'
p294
I0
tp295
a(I42
I1
F0.125
S'first'
p296
I0
tp297
a(I44
I17
F-0.875
g245
I0
tp298
a(I44
I21
F-0.625
S'other'
p299
I0
tp300
a(I45
I5
F1.0
S'best'
p301
I0
tp302
a(I45
I18
F0.375
S'available'
p303
I0
tp304
a(I48
I34
F-0.625
S'other'
p305
I0
tp306
a(I49
I10
F-0.5
S'less'
p307
I0
tp308
a(I51
I42
I0
S'earlier'
p309
I0
tp310
a(I55
I29
F-0.5
S'poor'
p311
I0
tp312
as(S'operating'
p313
S'system'
p314
tp315
(lp316
(I0
I61
I0
S'primitive'
p317
I2
tp318
as(S'excellent'
p319
S'battery'
p320
S'life'
p321
tp322
(lp323
(I55
I2
F-0.625
S'light'
p324
I0
tp325
a(I55
I2
F0.25
S'portable'
p326
I0
tp327
as(S'smart'
p328
tp329
(lp330
(I1
I13
F-0.375
S'simple'
p331
I10
tp332
a(I1
I13
I0
S'basic'
p333
I10
tp334
a(I15
I9
I0
S'many'
p335
I10
tp336
a(I16
I67
I0
S'more'
p337
I10
tp338
as(S'network'
p339
tp340
(lp341
(I16
I71
I0
S'social'
p342
I0
tp343
a(I34
I53
I0
S'common'
p344
I0
tp345
a(I34
I53
F0.125
S'able'
p346
I0
tp347
a(I38
I24
F0.375
S'available'
p348
I0
tp349
a(I48
I38
F-0.125
S'public'
p350
I0
tp351
a(I59
I7
I-100
S'0social'
p352
I0
tp353
as(S'calls'
p354
tp355
(lp356
(I13
I2
F0.75
S'receive'
p357
I0
tp358
a(I34
I53
F-0.5
S'international'
p359
I0
tp360
a(I47
I1
F-0.5
S'sudden'
p361
I0
tp362
a(I52
I4
F-0.75
S'unreliable'
p363
I0
tp364
as(S'tel'
p365
S'eacute'
p366
S'fono'
p367
tp368
(lp369
(I11
I0
I0
S'gran'
p370
I0
tp371
as(S'sim'
p372
S'card'
p373
tp374
(lp375
(I13
I35
I0
S'prepaid'
p376
I0
tp377
a(I17
I13
F0.375
S'new'
p378
I0
tp379
a(I21
I0
F0.125
S'valid'
p380
I0
tp381
a(I26
I11
F-0.25
S'plugged'
p382
I0
tp383
a(I32
I6
F-0.125
S'former'
p384
I0
tp385
a(I45
I32
I0
S'local'
p386
I0
tp387
a(I45
I32
F1.0
S'good'
p388
I0
tp389
a(I52
I6
F-0.625
S'fresh'
p390
I0
tp391
a(I55
I16
F-0.375
S'simple'
p392
I0
tp393
a(I64
I35
F-0.375
S'simple'
p394
I0
tp395
as(S'able'
p396
S'to'
p397
S'use'
p398
tp399
(lp400
(I64
I7
F-0.625
S'light'
p401
I12
tp402
as(S'music'
p403
tp404
(lp405
(I5
I32
I0
S'most'
p406
I0
tp407
a(I15
I5
F0.125
S'able'
p408
I0
tp409
as(S'a'
p410
S'qwerty'
p411
S'keyboard'
p412
tp413
(lp414
(I0
I18
I0
S'full'
p415
I0
tp416
a(I1
I8
I0
S'full'
p417
I0
tp418
a(I1
I8
I0
S'touchscreen'
p419
I0
tp420
a(I1
I21
F-0.5
S'regular'
p421
I0
tp422
a(I1
I21
I0
S'standard'
p423
I0
tp424
a(I1
I21
I0
S'english'
p425
I0
tp426
a(I1
I33
I0
S'english'
p427
I0
tp428
a(I1
I39
F0.625
S'partial'
p429
I0
tp430
a(I1
I45
I0
S'same'
p431
I0
tp432
a(I13
I39
F0.625
S'easier'
p433
I0
tp434
a(I15
I15
F0.625
S'easy'
p435
I0
tp436
a(I16
I22
F0.625
S'perfect'
p437
I0
tp438
a(I17
I68
F0.625
S'easy'
p439
I0
tp440
a(I26
I23
F0.125
S'typical'
p441
I0
tp442
a(I34
I37
F0.625
S'easy'
p443
I0
tp444
a(I54
I5
F-0.875
S'hard'
p445
I0
tp446
a(I64
I36
F-0.125
S'overall'
p447
I0
tp448
a(I0
I18
I0
g415
I0
tp449
a(I1
I8
I0
g417
I0
tp450
a(I1
I8
I0
g419
I0
tp451
a(I1
I21
F-0.5
g421
I0
tp452
a(I1
I21
I-100
S'american/western'
p453
I0
tp454
a(I1
I21
I0
g423
I0
tp455
a(I1
I21
I0
g425
I0
tp456
a(I1
I33
I0
g427
I0
tp457
a(I1
I39
F0.625
g429
I0
tp458
a(I1
I45
I0
g431
I0
tp459
a(I13
I39
F0.625
g433
I0
tp460
a(I15
I15
F0.625
g435
I0
tp461
a(I16
I22
F0.625
g437
I0
tp462
a(I17
I68
F0.625
g439
I0
tp463
a(I26
I23
F0.125
g441
I0
tp464
a(I34
I37
F0.625
g443
I0
tp465
a(I54
I5
F-0.875
g445
I0
tp466
a(I64
I36
F-0.125
g447
I0
tp467
a(I0
I18
I0
g415
I0
tp468
a(I1
I8
I0
g417
I0
tp469
a(I1
I21
F-0.5
g421
I0
tp470
a(I1
I21
I0
g423
I0
tp471
a(I1
I21
I0
g425
I0
tp472
a(I1
I28
I0
S'english'
p473
I0
tp474
a(I1
I33
I0
g427
I0
tp475
a(I1
I39
F0.625
g429
I0
tp476
a(I15
I15
F0.625
g435
I0
tp477
a(I17
I68
F0.625
g439
I0
tp478
a(I26
I23
F0.125
g441
I0
tp479
a(I34
I37
F0.625
g443
I0
tp480
a(I60
I19
F0.875
S'nice'
p481
I0
tp482
a(I64
I9
F0.625
S'easy'
p483
I0
tp484
a(I0
I8
F0.625
S'easy'
p485
I2
tp486
a(I1
I8
I0
g419
I2
tp487
a(I1
I9
I0
S'many'
p488
I2
tp489
a(I1
I9
I0
S'full'
p490
I2
tp491
a(I1
I45
I0
g431
I2
tp492
a(I5
I53
I0
S'full'
p493
I2
tp494
a(I5
I53
F-0.375
S'small'
p495
I2
tp496
a(I5
I53
F0.875
S'nice'
p497
I2
tp498
a(I8
I5
I0
S'large'
p499
I2
tp500
a(I8
I5
F0.375
S'senior'
p501
I2
tp502
a(I13
I39
F0.625
g433
I2
tp503
a(I16
I22
F0.625
g437
I2
tp504
a(I17
I45
I0
S'full'
p505
I2
tp506
a(I22
I8
F0.625
S'easy'
p507
I2
tp508
a(I24
I9
I0
S'full'
p509
I2
tp510
a(I24
I10
I0
S'full'
p511
I2
tp512
a(I24
I10
I0
S'useful'
p513
I2
tp514
a(I24
I50
F-0.375
S'small'
p515
I2
tp516
a(I34
I0
I0
S'full'
p517
I2
tp518
a(I34
I22
F0.625
S'easy'
p519
I2
tp520
a(I42
I31
I0
S'great'
p521
I2
tp522
a(I48
I84
I0
S'basic'
p523
I2
tp524
a(I54
I5
F-0.875
g445
I2
tp525
a(I57
I1
F-0.75
S'comfortable'
p526
I2
tp527
a(I64
I36
F-0.125
g447
I2
tp528
as(g410
S'data'
p529
S'plan'
p530
tp531
(lp532
(I1
I14
F-0.625
S'want'
p533
I0
tp534
a(I26
I19
I0
S'opt'
p535
I0
tp536
a(I42
I8
F-0.75
S'stupid'
p537
I0
tp538
a(I51
I3
I0
S'monthly'
p539
I0
tp540
a(I1
I14
F-0.625
g533
I0
tp541
a(I26
I19
I0
g535
I0
tp542
a(I42
I8
F-0.75
g537
I0
tp543
a(I51
I3
I0
g539
I0
tp544
a(I1
I14
F-0.625
g533
I13
tp545
a(I6
I3
F-0.5
S'unlimited'
p546
I13
tp547
a(I6
I3
F0.75
S'due'
p548
I13
tp549
a(I7
I0
F-0.125
S'traffic'
p550
I13
tp551
a(I16
I97
I0
S'cellular'
p552
I13
tp553
a(I26
I19
I0
g535
I13
tp554
a(I42
I8
F-0.75
g537
I13
tp555
a(I49
I9
F-0.75
S'unlucky'
p556
I13
tp557
a(I51
I3
I0
g539
I13
tp558
a(I53
I3
I0
S'most'
p559
I13
tp560
as(S'job'
p561
S'done'
p562
tp563
(lp564
(I26
I17
I0
S'basic'
p565
I2
tp566
a(I64
I22
I0
S'great'
p567
I2
tp568
as(S'great'
p569
S'battery'
p570
S'life'
p571
tp572
(lp573
(I0
I9
I0
S'great'
p574
I0
tp575
a(I22
I9
I0
S'great'
p576
I0
tp577
a(I44
I2
I0
S'great'
p578
I0
tp579
a(I0
I3
F1.0
S'better'
p580
I1
tp581
a(I0
I9
I0
g574
I1
tp582
a(I1
I4
F1.0
g220
I1
tp583
a(I13
I46
F1.0
g222
I1
tp584
a(I13
I49
F1.0
g224
I1
tp585
a(I22
I9
I0
g576
I1
tp586
a(I34
I17
F-0.5
S'long'
p587
I1
tp588
a(I44
I2
I0
g578
I1
tp589
a(I45
I29
F1.0
g226
I1
tp590
a(I45
I29
F-0.875
g228
I1
tp591
a(I48
I53
F1.0
g230
I1
tp592
a(I49
I35
F1.0
g232
I1
tp593
a(I50
I11
F-0.5
g234
I1
tp594
a(I51
I2
F1.0
g236
I1
tp595
a(I54
I3
F-0.5
S'longer'
p596
I1
tp597
a(I55
I2
F-0.625
g324
I1
tp598
a(I55
I2
F0.25
g326
I1
tp599
a(I60
I9
I0
S'more'
p600
I1
tp601
a(I60
I9
F-0.25
S'battery'
p602
I1
tp603
a(I45
I29
F-0.875
g228
I19
tp604
a(I48
I51
F0.625
S'easy'
p605
I19
tp606
a(I48
I51
F-0.375
S'simple'
p607
I19
tp608
a(I48
I53
F1.0
g230
I19
tp609
a(I49
I35
F1.0
g232
I19
tp610
a(I60
I9
I0
g600
I19
tp611
a(I60
I9
F-0.25
g602
I19
tp612
a(I0
I3
F1.0
g580
I15
tp613
a(I0
I9
I0
g574
I15
tp614
a(I0
I54
F-0.25
S'low'
p615
I15
tp616
a(I1
I4
F1.0
g220
I15
tp617
a(I13
I46
F1.0
g222
I15
tp618
a(I13
I49
F1.0
g224
I15
tp619
a(I22
I9
I0
g576
I15
tp620
a(I23
I12
F0.625
S'sustainable'
p621
I15
tp622
a(I34
I17
F-0.5
g587
I15
tp623
a(I34
I23
F0.125
S'last'
p624
I15
tp625
a(I34
I29
F-0.5
S'less'
p626
I15
tp627
a(I38
I29
F0.25
S'duplicate'
p628
I15
tp629
a(I39
I7
I0
S'full'
p630
I15
tp631
a(I44
I2
I0
g578
I15
tp632
a(I45
I29
F1.0
g226
I15
tp633
a(I45
I39
F0.625
S'easy'
p634
I15
tp635
a(I48
I54
F-0.5
S'less'
p636
I15
tp637
a(I49
I44
F1.0
S'good'
p638
I15
tp639
a(I50
I11
F-0.5
g234
I15
tp640
a(I51
I2
F1.0
g236
I15
tp641
a(I51
I35
F-0.75
S'dead'
p642
I15
tp643
a(I51
I36
F-0.5
S'sure'
p644
I15
tp645
a(I51
I36
F-0.625
S'bad'
p646
I15
tp647
a(I51
I39
F0.375
S'new'
p648
I15
tp649
a(I54
I3
F-0.5
g596
I15
tp650
a(I55
I2
F-0.625
g324
I15
tp651
a(I55
I2
F0.25
g326
I15
tp652
a(I60
I22
F0.125
S'last'
p653
I15
tp654
a(I64
I6
I0
S'same'
p655
I15
tp656
as(S'wifi'
p657
tp658
(lp659
(I1
I56
F-0.625
S'nearby'
p660
I0
tp661
a(I16
I100
F0.5
S'strong'
p662
I0
tp663
a(I17
I42
F0.5
S'personal'
p664
I0
tp665
a(I18
I20
F-0.75
S'difficult'
p666
I0
tp667
a(I18
I22
F-0.375
S'disable'
p668
I0
tp669
a(I34
I78
F0.625
S'easy'
p670
I0
tp671
a(I36
I2
F0.125
S'able'
p672
I0
tp673
a(I36
I22
I0
S'useful'
p674
I0
tp675
a(I41
I52
F0.625
S'easy'
p676
I0
tp677
a(I41
I52
F0.875
S'happy'
p678
I0
tp679
a(I48
I76
F-0.75
S'little'
p680
I0
tp681
a(I54
I4
F0.625
S'easy'
p682
I0
tp683
a(I63
I35
F-0.125
S'overall'
p684
I0
tp685
a(I64
I47
I0
S'internet'
p686
I0
tp687
as(S'texting'
p688
tp689
(lp690
(I2
I10
F0.5
S'clear'
p691
I0
tp692
a(I2
I10
F0.625
S'easy'
p693
I0
tp694
a(I9
I6
F-0.5
S'heavy'
p695
I0
tp696
a(I30
I33
F0.625
S'perfect'
p697
I0
tp698
a(I34
I75
F-0.75
S'comfortable'
p699
I0
tp700
a(I42
I61
I0
S'more'
p701
I0
tp702
a(I42
I61
F-0.875
S'trouble'
p703
I0
tp704
as(S'amazon'
p705
tp706
(lp707
(I13
I41
F1.0
S'better'
p708
I13
tp709
a(I25
I9
F0.625
S'aware'
p710
I13
tp711
a(I34
I40
I0
S'forth'
p712
I13
tp713
a(I59
I2
I0
S'cool'
p714
I13
tp715
a(I59
I2
I0
S'cool'
p716
I13
tp717
as(S'text'
p718
S'messaging'
p719
tp720
(lp721
(I5
I1
I0
S'useful'
p722
I0
tp723
a(I16
I66
I0
S'threaded'
p724
I0
tp725
a(I53
I4
I0
S'text'
p726
I0
tp727
a(I53
I4
I0
g726
I0
tp728
as(S'text'
p729
g410
S'lot'
p730
tp731
(lp732
(I24
I10
I-100
S'messaging/email'
p733
I0
tp734
a(I0
I37
F-0.625
S'want'
p735
I18
tp736
a(I0
I37
F0.125
S'able'
p737
I18
tp738
a(I5
I1
I0
g722
I18
tp739
a(I16
I66
I0
g724
I18
tp740
a(I33
I2
F0.625
S'easier'
p741
I18
tp742
a(I42
I82
F-0.375
S'simple'
p743
I18
tp744
as(S'sound'
p745
S'quality'
p746
tp747
(lp748
(I5
I47
F1.0
S'good'
p749
I0
tp750
a(I9
I1
I0
S'real'
p751
I0
tp752
a(I17
I52
I0
S'great'
p753
I0
tp754
a(I38
I43
F1.0
S'good'
p755
I0
tp756
a(I41
I57
F-0.75
g85
I0
tp757
a(I48
I4
I0
S'great'
p758
I0
tp759
a(I48
I84
I0
S'big'
p760
I0
tp761
a(I48
I84
I0
S'high'
p762
I0
tp763
a(I48
I84
I0
S'cool'
p764
I0
tp765
a(I48
I84
F0.875
S'music'
p766
I0
tp767
a(I49
I2
F1.0
S'good'
p768
I0
tp769
a(I64
I13
F0.625
S'decent'
p770
I0
tp771
a(I34
I80
I0
S'great'
p772
I7
tp773
a(I45
I0
F1.0
S'good'
p774
I7
tp775
a(I48
I84
I0
g764
I7
tp776
a(I48
I84
F0.875
g766
I7
tp777
a(I49
I2
F1.0
g768
I7
tp778
a(I49
I25
I0
S'great'
p779
I7
tp780
a(I51
I33
I0
S'great'
p781
I7
tp782
a(I51
I33
I0
S'great'
p783
I7
tp784
as.