(dp0
(S'physical'
p1
S'features'
p2
tp3
(lp4
(I1
I80
I0
S'physical'
p5
I1
tp6
a(I1
I86
I0
S'physical'
p7
I1
tp8
a(I1
I86
I0
S'few'
p9
I1
tp10
a(I1
I86
I0
S'technological'
p11
I1
tp12
a(I1
I87
I0
S'physical'
p13
I1
tp14
a(I1
I87
I0
S'website'
p15
I1
tp16
a(I1
I89
I0
S'physical'
p17
I1
tp18
a(I1
I92
I0
S'physical'
p19
I1
tp20
a(I1
I117
I0
S'physical'
p21
I1
tp22
as(S'data'
p23
tp24
(lp25
(I2
I73
I0
S'cable'
p26
I13
tp27
a(I2
I74
F-0.625
S'bad'
p28
I13
tp29
a(I2
I74
I0
S'cable'
p30
I13
tp31
a(I8
I14
F-0.625
S'other'
p32
I13
tp33
as(S'battery'
p34
tp35
(lp36
(I1
I7
I0
S'same'
p37
I15
tp38
a(I1
I10
I0
S'great'
p39
I15
tp40
a(I1
I13
I0
S'same'
p41
I15
tp42
a(I1
I124
F0.375
S'new'
p43
I15
tp44
a(I2
I39
F-0.5
S'long'
p45
I15
tp46
as(S'text'
p47
tp48
(lp49
(I1
I102
F0.75
S'receive'
p50
I18
tp51
a(I1
I162
F0.125
S'able'
p52
I18
tp53
a(I1
I162
F-0.75
S'short'
p54
I18
tp55
as(S'samsung'
p56
S'rugby'
p57
tp58
(lp59
(I1
I3
F0.5
S'second'
p60
I0
tp61
a(I1
I79
F0.375
S'new'
p62
I0
tp63
a(I1
I144
I0
S'different'
p64
I0
tp65
a(I1
I144
F0.5
S'technical'
p66
I0
tp67
a(I2
I11
F0.375
S'new'
p68
I0
tp69
a(I5
I45
F1.0
S'best'
p70
I0
tp71
a(I0
I56
I0
S'old'
p72
I7
tp73
a(I1
I3
F0.5
g60
I7
tp74
a(I1
I79
F0.375
g62
I7
tp75
a(I1
I144
I0
g64
I7
tp76
a(I1
I144
F0.5
g66
I7
tp77
a(I1
I158
I0
S'unresolved'
p78
I7
tp79
a(I2
I5
F-0.25
S'stunned'
p80
I7
tp81
a(I2
I11
F0.375
g68
I7
tp82
a(I2
I28
I0
S'least'
p83
I7
tp84
a(I4
I32
F1.0
S'better'
p85
I7
tp86
a(I5
I30
F1.0
S'good'
p87
I7
tp88
a(I1
I21
I0
S'many'
p89
I0
tp90
a(I1
I122
F0.375
S'newer'
p91
I0
tp92
a(I4
I31
F0.5
S'true'
p93
I0
tp94
a(I4
I31
F0.25
S'original'
p95
I0
tp96
a(I4
I34
F-0.25
S'potential'
p97
I0
tp98
a(I5
I3
I0
S'current'
p99
I0
tp100
a(I5
I45
F1.0
g70
I0
tp101
as(S'button'
p102
tp103
(lp104
(I1
I16
F-0.625
S'push'
p105
I19
tp106
a(I1
I16
F-0.75
S'impossible'
p107
I19
tp108
a(I1
I24
F-0.625
S'bad'
p109
I19
tp110
a(I1
I133
F0.625
S'easy'
p111
I19
tp112
a(I1
I133
F0.5
S'reversible'
p113
I19
tp114
a(I5
I26
F0.625
S'easy'
p115
I19
tp116
a(I5
I26
F0.375
S'senior'
p117
I19
tp118
as(S'calls'
p119
tp120
(lp121
(I0
I44
F-0.125
S'super'
p122
I0
tp123
a(I0
I44
F0.875
S'important'
p124
I0
tp125
as(S'customer'
p126
S'service'
p127
tp128
(lp129
(I5
I29
F-0.125
S'accidental'
p130
I3
tp131
a(I1
I102
F0.75
S'receive'
p132
I16
tp133
a(I5
I29
F-0.125
g130
I16
tp134
as(S'flip'
p135
tp136
(lp137
(I0
I2
I0
S'standard'
p138
I4
tp139
a(I0
I17
F0.875
S'nice'
p140
I4
tp141
a(I2
I37
F-0.625
S'other'
p142
I4
tp143
a(I2
I84
F0.375
S'reliable'
p144
I4
tp145
a(I6
I0
I0
S'great'
p146
I4
tp147
as(S'two'
p148
S'years'
p149
tp150
(lp151
(I4
I64
I0
S'full'
p152
I4
tp153
as.