(dp0
(S'seller'
p1
tp2
(lp3
(I25
I1
I0
S'e-mail'
p4
I19
tp5
as(S'buy'
p6
S'a'
p7
S'new'
p8
tp9
(lp10
(I12
I16
F0.5
S'bold'
p11
I1
tp12
a(I34
I2
F0.375
S'new'
p13
I1
tp14
as(S'blackberry'
p15
tp16
(lp17
(I1
I2
F0.25
S'refurbished'
p18
I1
tp19
a(I11
I3
F0.25
S'unlocked'
p20
I1
tp21
a(I12
I0
F0.375
S'new'
p22
I1
tp23
a(I12
I7
F1.0
S'best'
p24
I1
tp25
a(I17
I0
F1.0
S'good'
p26
I1
tp27
a(I42
I8
F1.0
S'good'
p28
I1
tp29
a(I42
I8
F0.125
S'first'
p30
I1
tp31
as(S'amazon'
p32
tp33
(lp34
(I16
I3
F-0.5
S'less'
p35
I13
tp36
a(I43
I15
F0.375
S'new'
p37
I13
tp38
as(S'new'
p39
S'battery'
p40
tp41
(lp42
(I12
I0
F0.125
S'last'
p43
I1
tp44
a(I16
I0
I0
S'generic'
p45
I1
tp46
a(I16
I6
F0.375
S'new'
p47
I1
tp48
a(I21
I1
F0.375
S'new'
p49
I1
tp50
a(I21
I2
I0
S'old'
p51
I1
tp52
a(I42
I18
F0.375
S'new'
p53
I1
tp54
a(I42
I21
F0.375
S'new'
p55
I1
tp56
a(I8
I8
F0.125
S'charger'
p57
I15
tp58
a(I11
I8
F-0.75
S'dead'
p59
I15
tp60
a(I12
I0
F0.125
g43
I15
tp61
a(I12
I10
F-0.25
S'disappointed'
p62
I15
tp63
a(I12
I13
F0.375
S'much'
p64
I15
tp65
a(I12
I13
F1.0
S'better'
p66
I15
tp67
a(I16
I0
I0
g45
I15
tp68
a(I16
I6
F0.375
g47
I15
tp69
a(I21
I1
F0.375
g49
I15
tp70
a(I21
I2
I0
g51
I15
tp71
a(I26
I2
F-0.5
S'less'
p72
I15
tp73
a(I26
I3
F0.5
S'live'
p74
I15
tp75
a(I39
I0
F-0.75
S'damaged'
p76
I15
tp77
a(I42
I18
F0.375
g53
I15
tp78
a(I42
I21
F0.375
g55
I15
tp79
as(S'camera'
p80
tp81
(lp82
(I17
I0
F1.0
S'better'
p83
I1
tp84
a(I42
I6
F1.0
S'better'
p85
I1
tp86
as.