(dp0
(S'ovi'
p1
S'maps'
p2
tp3
(lp4
(I10
I9
F-0.625
S'free'
p5
I0
tp6
a(I15
I4
I0
S'most'
p7
I0
tp8
a(I15
I4
F0.25
S'recent'
p9
I0
tp10
a(I23
I54
I0
S'latest'
p11
I0
tp12
a(I27
I36
I0
S'great'
p13
I0
tp14
a(I0
I11
F0.625
S'perfect'
p15
I5
tp16
a(I5
I13
F-0.625
S'fresh'
p17
I5
tp18
a(I8
I31
F-0.625
S'free'
p19
I5
tp20
a(I15
I4
I0
g7
I5
tp21
a(I15
I4
F0.25
g9
I5
tp22
as(S'capacitive'
p23
S'touch'
p24
S'screen'
p25
tp26
(lp27
(I5
I23
F0.5
S'touch'
p28
I0
tp29
a(I5
I46
F0.375
S'extra'
p30
I0
tp31
a(I8
I6
I0
S'capacitive'
p32
I0
tp33
a(I8
I6
F0.5
S'accurate'
p34
I0
tp35
a(I23
I51
I0
S'capacitive'
p36
I0
tp37
a(I23
I51
I0
S'sensitive'
p38
I0
tp39
a(I25
I104
I0
S'capacitive'
p40
I0
tp41
a(I34
I7
I0
S'capacitive'
p42
I0
tp43
a(I0
I36
F0.5
S'touch'
p44
I2
tp45
a(I4
I0
F0.5
S'touch'
p46
I2
tp47
a(I4
I47
F0.5
S'touch'
p48
I2
tp49
a(I4
I47
I0
S'sensitive'
p50
I2
tp51
a(I5
I23
F0.5
g28
I2
tp52
a(I5
I46
F0.375
g30
I2
tp53
a(I5
I89
F0.5
S'touch'
p54
I2
tp55
a(I5
I90
F-0.375
S'simple'
p56
I2
tp57
a(I8
I6
I0
g32
I2
tp58
a(I8
I6
F0.5
g34
I2
tp59
a(I8
I32
F0.5
S'touch'
p60
I2
tp61
a(I16
I2
F-0.375
S'dust'
p62
I2
tp63
a(I16
I14
F0.5
S'stylish'
p64
I2
tp65
a(I23
I17
F0.5
S'touch'
p66
I2
tp67
a(I23
I51
I0
g36
I2
tp68
a(I23
I51
I0
g38
I2
tp69
a(I25
I1
F0.5
S'touch'
p70
I2
tp71
a(I25
I83
F0.5
S'touch'
p72
I2
tp73
a(I25
I95
I0
S'great'
p74
I2
tp75
a(I25
I104
I0
g40
I2
tp76
a(I33
I48
F0.5
S'touch'
p77
I2
tp78
a(I34
I7
I0
g42
I2
tp79
a(I8
I6
I0
g32
I0
tp80
a(I23
I51
I0
g36
I0
tp81
a(I25
I104
I0
g40
I0
tp82
a(I34
I7
I0
g42
I0
tp83
a(I0
I13
I0
S'capacitive'
p84
I0
tp85
a(I5
I23
F0.5
g28
I0
tp86
a(I5
I46
F0.375
g30
I0
tp87
a(I8
I6
F0.5
g34
I0
tp88
a(I16
I1
I0
S'capacitive'
p89
I0
tp90
a(I23
I51
I0
g38
I0
tp91
a(I25
I60
I0
S'capacitive'
p92
I0
tp93
a(I25
I139
I0
S'capacitive'
p94
I0
tp95
a(I25
I139
F0.25
S'responsive'
p96
I0
tp97
a(I25
I146
F-0.75
S'bright'
p98
I0
tp99
a(I25
I146
F0.75
S'beautiful'
p100
I0
tp101
as(S'battery'
p102
S'life'
p103
tp104
(lp105
(I0
I25
F1.0
S'good'
p106
I1
tp107
a(I5
I87
F-0.5
S'long'
p108
I1
tp109
a(I25
I7
I0
S'great'
p110
I1
tp111
a(I25
I12
F-0.25
S'low'
p112
I1
tp113
a(I25
I73
F-0.5
S'longer'
p114
I1
tp115
a(I29
I17
F1.0
S'good'
p116
I1
tp117
a(I29
I49
F-0.5
S'long'
p118
I1
tp119
a(I5
I87
F-0.5
g108
I19
tp120
a(I15
I7
F-0.125
S'traffic'
p121
I19
tp122
a(I25
I7
I0
g110
I19
tp123
a(I29
I17
F1.0
g116
I19
tp124
a(I0
I25
F1.0
g106
I15
tp125
a(I11
I1
F-0.75
S'dead'
p126
I15
tp127
a(I12
I5
F0.625
S'removable'
p128
I15
tp129
a(I15
I14
F-0.5
S'longer'
p130
I15
tp131
a(I15
I18
F-0.875
S'hard'
p132
I15
tp133
a(I21
I1
F-0.625
S'bad'
p134
I15
tp135
a(I25
I12
F-0.25
g112
I15
tp136
a(I25
I73
F-0.5
g114
I15
tp137
a(I25
I126
I0
S'plastic'
p138
I15
tp139
a(I29
I49
F-0.5
g118
I15
tp140
a(I33
I48
I0
S'full'
p141
I15
tp142
as(S'good'
p143
S'quality'
p144
tp145
(lp146
(I6
I11
F0.625
S'easy'
p147
I16
tp148
a(I8
I6
F1.0
S'good'
p149
I16
tp150
a(I15
I39
F1.0
S'good'
p151
I16
tp152
a(I23
I28
F1.0
S'good'
p153
I16
tp154
a(I25
I56
F1.0
S'good'
p155
I16
tp156
a(I25
I104
F1.0
S'good'
p157
I16
tp158
a(I25
I162
I0
S'high'
p159
I16
tp160
a(I25
I166
F1.0
S'good'
p161
I16
tp162
a(I33
I17
F1.0
S'good'
p163
I16
tp164
a(I33
I20
F1.0
S'good'
p165
I16
tp166
as(S'ovi'
p167
S'suite'
p168
S'software'
p169
tp170
(lp171
(I5
I7
I0
S'latest'
p172
I0
tp173
a(I23
I50
F-0.375
S'simple'
p174
I0
tp175
a(I23
I50
F0.875
S'music'
p176
I0
tp177
a(I32
I20
I0
S'latest'
p178
I0
tp179
a(I5
I7
I0
g172
I0
tp180
a(I32
I20
I0
g178
I0
tp181
a(I23
I50
F-0.375
g174
I0
tp182
a(I23
I50
F0.875
g176
I0
tp183
as(S'call'
p184
S'quality'
p185
tp186
(lp187
(I8
I48
F1.0
S'good'
p188
I0
tp189
a(I17
I1
F0.875
S'music'
p190
I0
tp191
a(I23
I17
I0
S'great'
p192
I0
tp193
a(I23
I49
F0.5
S'clear'
p194
I0
tp195
a(I23
I49
F0.5
S'clear'
p196
I0
tp197
as(S'camera'
p198
tp199
(lp200
(I0
I35
F1.0
S'good'
p201
I1
tp202
a(I2
I0
I0
S'great'
p203
I1
tp204
a(I2
I19
F1.0
S'good'
p205
I1
tp206
a(I8
I6
F0.125
S'digital'
p207
I1
tp208
a(I8
I15
F0.875
S'nice'
p209
I1
tp210
a(I8
I15
F0.5
S'clear'
p211
I1
tp212
a(I12
I16
F1.0
S'good'
p213
I1
tp214
a(I16
I8
F0.375
S'much'
p215
I1
tp216
a(I23
I27
I-100
S'pixal'
p217
I1
tp218
a(I23
I27
F1.0
S'best'
p219
I1
tp220
a(I25
I62
F0.875
S'nice'
p221
I1
tp222
a(I25
I111
F0.125
S'spectacular'
p223
I1
tp224
a(I25
I150
F-0.875
S'awful'
p225
I1
tp226
a(I25
I156
F-0.625
S'bad'
p227
I1
tp228
a(I25
I157
I0
S'great'
p229
I1
tp230
a(I27
I47
F1.0
S'good'
p231
I1
tp232
a(I29
I37
F-0.375
S'small'
p233
I1
tp234
a(I29
I48
F1.0
S'good'
p235
I1
tp236
a(I33
I20
F1.0
S'good'
p237
I1
tp238
a(I33
I29
F0.125
S'spectacular'
p239
I1
tp240
a(I33
I48
F1.0
S'good'
p241
I1
tp242
a(I34
I6
F0.125
S'digital'
p243
I1
tp244
as(S'iphone'
p245
tp246
(lp247
(I2
I22
I0
S'android'
p248
I1
tp249
a(I5
I8
I0
S'android'
p250
I1
tp251
a(I5
I10
I0
S'android'
p252
I1
tp253
a(I10
I8
I0
S'same'
p254
I1
tp255
a(I15
I35
I0
S'old'
p256
I1
tp257
a(I27
I22
I0
S'android'
p258
I1
tp259
as(S'high'
p260
S'end'
p261
tp262
(lp263
(I23
I14
I0
S'high'
p264
I0
tp265
a(I25
I46
I0
S'high'
p266
I0
tp267
as(S'internet'
p268
tp269
(lp270
(I5
I17
F-0.5
S'sure'
p271
I6
tp272
a(I8
I32
I0
S'great'
p273
I6
tp274
a(I23
I33
I0
S'standard'
p275
I6
tp276
as(S'build'
p277
S'quality'
p278
tp279
(lp280
(I6
I11
F1.0
S'good'
p281
I2
tp282
a(I6
I11
F0.625
g147
I2
tp283
a(I23
I61
F-0.125
S'overall'
p284
I2
tp285
a(I23
I61
F-0.5
S'lesser'
p286
I2
tp287
a(I25
I125
I0
S'third'
p288
I2
tp289
a(I25
I125
F-0.5
S'poor'
p290
I2
tp291
a(I25
I152
F-0.75
S'worse'
p292
I2
tp293
as(S'navigation'
p294
tp295
(lp296
(I19
I7
F0.375
S'available'
p297
I1
tp298
as(S'storage'
p299
tp300
(lp301
(I8
I6
I-100
S'radio.-'
p302
I1
tp303
a(I16
I1
I0
S'more'
p304
I1
tp305
a(I16
I1
F0.375
S'extra'
p306
I1
tp307
as(S'flash'
p308
tp309
(lp310
(I4
I48
F-0.75
S'bright'
p311
I2
tp312
a(I16
I8
F0.875
S'nice'
p313
I2
tp314
a(I33
I29
F0.5
S'clear'
p315
I2
tp316
a(I34
I6
F0.875
S'nice'
p317
I2
tp318
a(I34
I6
I0
S'cool'
p319
I2
tp320
as(S'system'
p321
tp322
(lp323
(I2
I17
F1.0
S'good'
p324
I12
tp325
a(I8
I46
I0
S'old'
p326
I12
tp327
a(I18
I53
F0.125
S'operative'
p328
I12
tp329
a(I18
I53
F0.875
S'nice'
p330
I12
tp331
as(S'touchscreen'
p332
tp333
(lp334
(I12
I14
I0
S'capacitive'
p335
I0
tp336
a(I16
I16
F0.75
S'due'
p337
I0
tp338
a(I18
I19
I0
S'capacitive'
p339
I0
tp340
a(I18
I19
F0.5
S'accurate'
p341
I0
tp342
a(I23
I6
F0.5
S'accurate'
p343
I0
tp344
a(I23
I6
F0.625
S'easy'
p345
I0
tp346
a(I33
I2
I0
S'more'
p347
I0
tp348
as(S'music'
p349
S'player'
p350
tp351
(lp352
(I0
I21
F0.875
S'music'
p353
I0
tp354
a(I23
I3
F0.875
S'music'
p355
I0
tp356
a(I23
I21
I0
S'basic'
p357
I0
tp358
a(I29
I0
F0.875
S'music'
p359
I0
tp360
a(I34
I7
F0.5
S'clear'
p361
I0
tp362
a(I0
I21
F0.875
g353
I6
tp363
a(I5
I39
I-100
S'audio/flash/real'
p364
I6
tp365
a(I23
I3
F0.875
g355
I6
tp366
a(I23
I21
I0
g357
I6
tp367
a(I29
I0
F0.875
g359
I6
tp368
a(I34
I7
F0.5
g361
I6
tp369
a(I4
I24
I0
S'more'
p370
I0
tp371
a(I4
I24
F0.125
S'enough'
p372
I0
tp373
as(S'sound'
p374
tp375
(lp376
(I4
I16
F1.0
S'good'
p377
I7
tp378
a(I4
I25
I0
S'tinny'
p379
I7
tp380
a(I4
I47
I0
S'crystal'
p381
I7
tp382
a(I4
I47
F0.5
S'clear'
p383
I7
tp384
a(I8
I48
F1.0
S'good'
p385
I7
tp386
a(I23
I24
F1.0
S'good'
p387
I7
tp388
a(I25
I163
I0
S'great'
p389
I7
tp390
a(I26
I2
F1.0
S'good'
p391
I7
tp392
a(I33
I29
I0
S'most'
p393
I7
tp394
as(S'web'
p395
S'browsing'
p396
tp397
(lp398
(I12
I16
I0
S'internet'
p399
I0
tp400
a(I12
I16
F0.875
S'nice'
p401
I0
tp402
as(S'upgrade'
p403
tp404
(lp405
(I16
I1
I0
S'only'
p406
I3
tp407
a(I16
I4
F0.125
S'first'
p408
I3
tp409
a(I34
I4
F0.625
S'major'
p410
I3
tp411
a(I34
I9
F0.5
S'eligible'
p412
I3
tp413
as(S'network'
p414
tp415
(lp416
(I6
I24
I0
S'same'
p417
I0
tp418
a(I6
I24
I0
S'next'
p419
I0
tp420
a(I6
I24
F-0.625
S'other'
p421
I0
tp422
a(I32
I24
F-0.375
S'disable'
p423
I0
tp424
as(S'nokia'
p425
tp426
(lp427
(I2
I16
F0.125
S'typical'
p428
I0
tp429
a(I6
I1
F-0.625
S'other'
p430
I0
tp431
a(I6
I12
F0.125
S'last'
p432
I0
tp433
a(I8
I5
F1.0
S'best'
p434
I0
tp435
a(I8
I37
F-0.625
S'other'
p436
I0
tp437
a(I8
I41
I0
S'wish'
p438
I0
tp439
a(I8
I41
F0.375
S'newer'
p440
I0
tp441
a(I8
I44
F-0.625
S'other'
p442
I0
tp443
a(I10
I8
F0.125
S'last'
p444
I0
tp445
a(I10
I9
F0.375
S'new'
p446
I0
tp447
a(I12
I10
I0
S'only'
p448
I0
tp449
a(I12
I18
F1.0
S'good'
p450
I0
tp451
a(I15
I12
F0.125
S'native'
p452
I0
tp453
a(I16
I0
F0.375
S'similar'
p454
I0
tp455
a(I23
I49
F-0.625
S'other'
p456
I0
tp457
a(I23
I56
F0.125
S'first'
p458
I0
tp459
a(I23
I66
F0.5
S'loyal'
p460
I0
tp461
a(I25
I5
I0
S'real'
p462
I0
tp463
a(I25
I48
I0
S'high'
p464
I0
tp465
a(I25
I92
F0.625
S'easy'
p466
I0
tp467
a(I25
I101
I0
S'third'
p468
I0
tp469
a(I27
I20
F-0.875
S'hard'
p470
I0
tp471
a(I33
I16
F-0.125
S'mine'
p472
I0
tp473
a(I33
I33
I0
S'same'
p474
I0
tp475
a(I33
I38
F-0.5
S'sure'
p476
I0
tp477
as(S'calls'
p478
tp479
(lp480
(I8
I14
F0.5
S'clear'
p481
I0
tp482
a(I29
I12
F0.5
S'odd'
p483
I0
tp484
as(S'contacts'
p485
tp486
(lp487
(I12
I20
F0.25
S'favorite'
p488
I0
tp489
a(I23
I58
F0.125
S'able'
p490
I0
tp491
as(S'much'
p492
S'better'
p493
tp494
(lp495
(I0
I36
F0.375
S'much'
p496
I9
tp497
a(I6
I27
F0.375
S'much'
p498
I9
tp499
a(I27
I46
F0.375
S'much'
p500
I9
tp501
as(S'a'
p502
S'data'
p503
S'plan'
p504
tp505
(lp506
(I8
I28
F0.375
S'new'
p507
I0
tp508
a(I19
I7
F0.5
S'expensive'
p509
I0
tp510
a(I8
I28
F0.375
g507
I0
tp511
a(I19
I7
F0.5
g509
I0
tp512
a(I5
I12
F0.125
S'fat'
p513
I13
tp514
a(I6
I25
I0
S'carrier'
p515
I13
tp516
a(I19
I7
F0.5
g509
I13
tp517
as(S'memory'
p518
tp519
(lp520
(I12
I17
I0
S'internal'
p521
I5
tp522
a(I15
I15
I0
S'full'
p523
I5
tp524
as(S'wifi'
p525
tp526
(lp527
(I8
I24
F0.125
S'able'
p528
I0
tp529
a(I18
I17
F1.0
S'good'
p530
I0
tp531
a(I25
I83
I0
S'fast'
p532
I0
tp533
as(S'apps'
p534
tp535
(lp536
(I6
I28
I0
S'more'
p537
I0
tp538
a(I8
I31
I0
S'great'
p539
I0
tp540
a(I8
I31
I0
S'many'
p541
I0
tp542
a(I8
I31
F-0.625
S'free'
p543
I0
tp544
a(I15
I13
F-0.5
S'open'
p545
I0
tp546
a(I23
I4
I0
S'fast'
p547
I0
tp548
a(I23
I13
I0
S'latest'
p549
I0
tp550
a(I23
I32
I0
S'useful'
p551
I0
tp552
a(I23
I66
I0
S'many'
p553
I0
tp554
a(I33
I22
I0
S'different'
p555
I0
tp556
a(I34
I8
I0
S'many'
p557
I0
tp558
as(S'amazon'
p559
tp560
(lp561
(I0
I1
F0.875
S'happy'
p562
I13
tp563
a(I28
I9
F0.375
S'audible'
p564
I13
tp565
as.