(dp0
(S'memory'
p1
S'card'
p2
tp3
(lp4
(I5
I88
F0.25
S'biggest'
p5
I0
tp6
a(I5
I88
F0.375
S'available'
p7
I0
tp8
a(I5
I89
F1.0
S'best'
p9
I0
tp10
a(I5
I88
F0.25
g5
I5
tp11
a(I5
I89
F1.0
g9
I5
tp12
a(I10
I9
F-0.375
S'small'
p13
I5
tp14
as(S'battery'
p15
S'life'
p16
tp17
(lp18
(I4
I28
I0
S'minimal'
p19
I1
tp20
a(I5
I68
F0.375
S'similar'
p21
I1
tp22
a(I4
I28
I0
g19
I19
tp23
a(I5
I68
F0.375
g21
I19
tp24
a(I1
I90
F-0.75
S'dead'
p25
I15
tp26
a(I15
I9
F0.5
S'whole'
p27
I15
tp28
a(I23
I16
F0.125
S'last'
p29
I15
tp30
a(I23
I47
I0
S'least'
p31
I15
tp32
a(I23
I47
F0.375
S'new'
p33
I15
tp34
as(S'email'
p35
tp36
(lp37
(I13
I17
I0
S'current'
p38
I5
tp39
a(I13
I24
F1.0
S'best'
p40
I5
tp41
a(I18
I32
I0
S'website'
p42
I5
tp43
a(I19
I16
I0
S'multiple'
p44
I5
tp45
as(S'credit'
p46
S'card'
p47
tp48
(lp49
(I19
I10
F-0.5
S'international'
p50
I0
tp51
as(S'text'
p52
tp53
(lp54
(I19
I57
F-0.5
S'international'
p55
I18
tp56
a(I19
I61
I0
S'few'
p57
I18
tp58
as(S'service'
p59
tp60
(lp61
(I5
I27
I0
S'great'
p62
I16
tp63
as(S'camera'
p64
tp65
(lp66
(I5
I64
I0
S'great'
p67
I1
tp68
a(I5
I125
I0
S'great'
p69
I1
tp70
a(I10
I12
I0
S'more'
p71
I1
tp72
a(I10
I12
F0.875
S'happy'
p73
I1
tp74
a(I15
I21
F0.75
S'beautiful'
p75
I1
tp76
as(S'operating'
p77
S'system'
p78
tp79
(lp80
(I1
I53
F-0.5
S'relative'
p81
I2
tp82
a(I1
I53
I0
S'android'
p83
I2
tp84
a(I6
I16
F0.375
S'new'
p85
I2
tp86
a(I10
I7
F0.5
S'second'
p87
I2
tp88
a(I10
I9
F-0.625
S'light'
p89
I2
tp90
a(I10
I16
F0.5
S'second'
p91
I2
tp92
a(I1
I53
F-0.5
g81
I12
tp93
a(I1
I53
I0
g83
I12
tp94
a(I8
I11
F0.375
S'new'
p95
I12
tp96
a(I10
I1
F0.375
S'similar'
p97
I12
tp98
as(S'iphone'
p99
tp100
(lp101
(I0
I5
F0.375
S'similar'
p102
I1
tp103
a(I1
I25
F0.5
S'accurate'
p104
I1
tp105
a(I5
I37
F-0.875
S'inferior'
p106
I1
tp107
as(S'internet'
p108
tp109
(lp110
(I1
I0
I0
S'fast'
p111
I6
tp112
a(I5
I0
F0.25
S'read'
p113
I6
tp114
a(I23
I44
I0
S'least'
p115
I6
tp116
as(S'market'
p117
tp118
(lp119
(I10
I8
F-0.625
S'free'
p120
I16
tp121
as(S'high'
p122
S'resolution'
p123
tp124
(lp125
(I2
I4
I0
S'high'
p126
I0
tp127
a(I15
I20
I0
S'high'
p128
I0
tp129
a(I23
I27
I0
S'high'
p130
I0
tp131
a(I2
I4
I0
g126
I1
tp132
a(I13
I37
I0
S'great'
p133
I1
tp134
a(I15
I20
I0
g128
I1
tp135
a(I23
I27
I0
g130
I1
tp136
as(S'flash'
p137
tp138
(lp139
(I0
I16
F0.125
S'able'
p140
I2
tp141
a(I19
I25
F1.0
S'good'
p142
I2
tp143
as(S'applications'
p144
tp145
(lp146
(I5
I100
I0
S'more'
p147
I3
tp148
a(I5
I100
F-0.625
S'free'
p149
I3
tp150
a(I18
I28
I0
S'useful'
p151
I3
tp152
as(S'microsoft'
p153
tp154
(lp155
(I15
I36
F-0.375
S'pull'
p156
I0
tp157
as(S'android'
p158
tp159
(lp160
(I0
I18
F0.5
S'functional'
p161
I0
tp162
as(S'app'
p163
S'store'
p164
tp165
(lp166
(I5
I39
F0.625
S'superior'
p167
I0
tp168
as(S'processor'
p169
tp170
(lp171
(I5
I89
F1.0
S'best'
p172
I1
tp173
a(I18
I18
F0.375
S'extra'
p174
I1
tp175
a(I23
I56
F0.25
S'responsive'
p176
I1
tp177
as(S'smart'
p178
tp179
(lp180
(I4
I14
F0.375
S'newer'
p181
I10
tp182
a(I13
I32
I0
S'great'
p183
I10
tp184
as(S'movies'
p185
tp186
(lp187
(I2
I4
F0.875
S'nice'
p188
I3
tp189
a(I8
I14
F-0.625
S'free'
p190
I3
tp191
a(I22
I8
F0.875
S'music'
p192
I3
tp193
as(S'sd'
p194
S'card'
p195
tp196
(lp197
(I21
I4
F-0.375
S'serious'
p198
I0
tp199
a(I21
I8
I0
S'sd'
p200
I0
tp201
as(S'blackberry'
p202
tp203
(lp204
(I1
I99
I0
S'least'
p205
I1
tp206
as(S'international'
p207
S'version'
p208
tp209
(lp210
(I3
I1
F-0.5
S'international'
p211
I0
tp212
a(I15
I47
F-0.5
S'international'
p213
I0
tp214
a(I18
I40
F-0.5
S'international'
p215
I0
tp216
a(I24
I3
F-0.5
S'international'
p217
I0
tp218
a(I24
I11
I0
S'more'
p219
I0
tp220
as(S'play'
p221
S'music'
p222
tp223
(lp224
(I22
I3
I0
S'next'
p225
I0
tp226
a(I22
I3
F-0.75
S'impossible'
p227
I0
tp228
a(I22
I8
F-0.625
S'push'
p229
I0
tp230
a(I22
I3
I0
g225
I0
tp231
a(I22
I3
F-0.75
g227
I0
tp232
a(I22
I4
F-0.75
S'single'
p233
I0
tp234
as(S'opera'
p235
S'browser'
p236
tp237
(lp238
(I19
I38
I0
S'latest'
p239
I0
tp240
as(S'htc'
p241
S'hd2'
p242
tp243
(lp244
(I1
I55
F0.625
S'easier'
p245
I0
tp246
as(S'windows'
p247
S'mobile'
p248
tp249
(lp250
(I1
I101
I0
S'mobile'
p251
I0
tp252
a(I5
I71
F-0.375
S'top'
p253
I0
tp254
a(I5
I71
I0
S'standard'
p255
I0
tp256
a(I5
I77
I0
S'mobile'
p257
I0
tp258
a(I6
I4
F0.625
S'aware'
p259
I0
tp260
a(I6
I10
F1.0
S'best'
p261
I0
tp262
a(I6
I12
F0.875
S'worthy'
p263
I0
tp264
a(I6
I16
F1.0
S'better'
p265
I0
tp266
a(I10
I0
I0
S'mobile'
p267
I0
tp268
a(I15
I5
I0
S'mobile'
p269
I0
tp270
a(I19
I29
F0.375
S'new'
p271
I0
tp272
a(I19
I39
F-0.75
S'difficult'
p273
I0
tp274
a(I24
I15
I0
S'mobile'
p275
I0
tp276
a(I1
I58
I0
S'speak'
p277
I0
tp278
a(I1
I88
F0.25
S'powerful'
p279
I0
tp280
a(I1
I101
I0
g251
I0
tp281
a(I5
I23
F-0.5
S'sure'
p282
I0
tp283
a(I5
I71
F-0.375
g253
I0
tp284
a(I5
I71
I0
g255
I0
tp285
a(I5
I77
I0
g257
I0
tp286
a(I6
I10
F1.0
g261
I0
tp287
a(I6
I16
F1.0
g265
I0
tp288
a(I10
I0
I0
g267
I0
tp289
a(I15
I5
I0
g269
I0
tp290
a(I19
I29
F0.375
g271
I0
tp291
a(I24
I15
I0
g275
I0
tp292
a(I6
I4
F0.625
g259
I0
tp293
a(I6
I12
F0.875
g263
I0
tp294
a(I19
I39
F-0.75
g273
I0
tp295
as(S'apps'
p296
tp297
(lp298
(I0
I4
F0.375
S'new'
p299
I0
tp300
a(I0
I4
F0.125
S'able'
p301
I0
tp302
a(I1
I28
I0
S'only'
p303
I0
tp304
a(I1
I60
F-0.625
S'free'
p305
I0
tp306
a(I1
I60
I0
S'more'
p307
I0
tp308
a(I5
I77
I0
S'few'
p309
I0
tp310
a(I13
I33
F0.5
S'compatible'
p311
I0
tp312
a(I19
I42
F0.375
S'available'
p313
I0
tp314
as(S'amazon'
p315
tp316
(lp317
(I4
I33
F-0.625
S'bad'
p318
I13
tp319
a(I5
I1
F-0.625
S'other'
p320
I13
tp321
a(I5
I2
I0
S'american'
p322
I13
tp323
a(I23
I52
F0.125
S'first'
p324
I13
tp325
as(S'touch'
p326
S'screen'
p327
tp328
(lp329
(I2
I5
I0
S'capacitive'
p330
I2
tp331
a(I5
I78
I0
S'capacitive'
p332
I2
tp333
a(I5
I80
F0.25
S'main'
p334
I2
tp335
a(I11
I12
F-0.625
S'bad'
p336
I2
tp337
a(I13
I29
F0.5
S'touch'
p338
I2
tp339
a(I15
I25
F0.5
S'touch'
p340
I2
tp341
a(I18
I16
I0
S'capacitive'
p342
I2
tp343
a(I19
I19
I0
S'great'
p344
I2
tp345
a(I19
I19
I0
S'capacitive'
p346
I2
tp347
a(I20
I4
F0.25
S'responsive'
p348
I2
tp349
a(I20
I4
F0.5
S'touch'
p350
I2
tp351
a(I23
I58
I0
S'big'
p352
I2
tp353
a(I23
I58
F-0.75
S'bright'
p354
I2
tp355
a(I23
I58
F0.75
S'beautiful'
p356
I2
tp357
as.