(dp0
(S'problem'
p1
tp2
(lp3
(I38
I0
F0.125
S'amazon'
p4
tp5
a(I78
I11
I0
S'big'
p6
tp7
a(I153
I1
F0.75
S'give'
p8
tp9
a(I153
I1
I0
S'same'
p10
tp11
as(S'memory'
p12
S'card'
p13
tp14
(lp15
(I79
I1
I0
S'inside'
p16
tp17
a(I209
I7
I0
S'adequate'
p18
tp19
as(S'memory'
p20
tp21
(lp22
(I209
I7
I0
g18
tp23
as(S'purchase'
p24
tp25
(lp26
(I12
I2
F1.0
S'good'
p27
tp28
a(I12
I2
F0.125
S'last'
p29
tp30
a(I148
I2
F-0.875
S'worst'
p31
tp32
as(S'keyboard'
p33
tp34
(lp35
(I53
I7
F-0.5
S'regular'
p36
tp37
a(I135
I1
F0.5
S'functional'
p38
tp39
as(S'email'
p40
tp41
(lp42
(I21
I15
F1.0
S'best'
p43
tp44
a(I147
I5
F0.5
S'personal'
p45
tp46
as(S'en'
p47
S'venezuela'
p48
tp49
(lp50
(I121
I0
F0.125
S'practical'
p51
tp52
as(S'card'
p53
tp54
(lp55
(I79
I1
I0
g16
tp56
as(S'nice'
p57
tp58
(lp59
(I84
I1
I0
S'quick'
p60
tp61
as(S'screen'
p62
tp63
(lp64
(I6
I0
F0.5
S'touch'
p65
tp66
a(I6
I4
F0.5
S'touch'
p67
tp68
a(I6
I4
F-0.875
S'hard'
p69
tp70
a(I6
I4
F0.5
S'touch'
p71
tp72
a(I6
I6
F0.375
S'new'
p73
tp74
a(I6
I6
F0.5
S'touch'
p75
tp76
a(I24
I0
F0.5
S'touch'
p77
tp78
a(I38
I0
F0.5
S'touch'
p79
tp80
a(I44
I1
F-0.75
S'unresponsive'
p81
tp82
a(I46
I0
F0.5
S'touch'
p83
tp84
a(I46
I2
I0
S'great'
p85
tp86
a(I46
I2
F0.5
S'clear'
p87
tp88
a(I46
I2
I0
S'large'
p89
tp90
a(I46
I3
F0.5
S'touch'
p91
tp92
a(I48
I1
F0.5
S'touch'
p93
tp94
a(I53
I5
F0.5
S'touch'
p95
tp96
a(I54
I1
F-0.25
S'white'
p97
tp98
a(I57
I2
F-0.75
S'painful'
p99
tp100
a(I68
I0
F0.5
S'touch'
p101
tp102
a(I78
I4
F0.5
S'touch'
p103
tp104
a(I84
I1
F0.25
S'sharp'
p105
tp106
a(I91
I2
F0.25
S'main'
p107
tp108
a(I96
I4
I0
S'wobble'
p109
tp110
a(I105
I5
F0.5
S'touch'
p111
tp112
a(I113
I2
F0.556
S'delicate'
p113
tp114
a(I113
I2
F0.5
S'touch'
p115
tp116
a(I118
I0
F0.5
S'touch'
p117
tp118
a(I118
I0
F-0.875
S'hard'
p119
tp120
a(I139
I0
F0.5
S'touch'
p121
tp122
a(I147
I6
F0.625
S'easy'
p123
tp124
a(I147
I6
F-0.75
S'difficult'
p125
tp126
a(I147
I6
F0.5
S'touch'
p127
tp128
a(I151
I0
F0.5
S'touch'
p129
tp130
a(I161
I0
F0.5
S'touch'
p131
tp132
a(I163
I0
F0.5
S'touch'
p133
tp134
a(I166
I0
F0.5
S'touch'
p135
tp136
a(I185
I3
I0
S'stiff'
p137
tp138
a(I185
I3
F-0.75
S'unresponsive'
p139
tp140
a(I191
I1
I0
S'more'
p141
tp142
a(I199
I1
F-0.375
S'top'
p143
tp144
a(I207
I0
F1.0
S'good'
p145
tp146
a(I207
I0
F0.625
S'easy'
p147
tp148
a(I212
I1
F-0.75
S'difficult'
p149
tp150
a(I212
I1
F0.5
S'touch'
p151
tp152
as(S'service'
p153
tp154
(lp155
(I53
I4
I0
S'follow-up'
p156
tp157
a(I66
I3
F1.0
S'good'
p158
tp159
a(I72
I0
I0
S'internet'
p160
tp161
a(I171
I0
I0
S'great'
p162
tp163
as(S'problems'
p164
tp165
(lp166
(I16
I0
I0
S'along'
p167
tp168
a(I199
I11
I0
S'many'
p169
tp170
a(I215
I0
F-0.125
S'overall'
p171
tp172
a(I215
I0
I0
S'great'
p173
tp174
as(S'touch'
p175
tp176
(lp177
(I78
I4
F-0.625
S'other'
p178
tp179
a(I130
I0
F-0.625
S'bad'
p180
tp181
as(S'camera'
p182
tp183
(lp184
(I29
I0
F1.0
S'good'
p185
tp186
as(S'blackberry'
p187
S'storm2'
p188
tp189
(lp190
(I6
I0
F0.375
S'new'
p191
tp192
a(I53
I19
F-0.125
S'blackberry'
p193
tp194
a(I106
I0
F-0.125
S'blackberry'
p195
tp196
a(I106
I0
F0.625
S'perfect'
p197
tp198
a(I211
I1
F-0.125
S'blackberry'
p199
tp200
as(S'blackberry'
p201
S'storm'
p202
tp203
(lp204
(I6
I0
F0.375
g191
tp205
a(I41
I0
F0.375
S'new'
p206
tp207
a(I53
I15
F0.625
S'aware'
p208
tp209
a(I55
I0
F0.375
S'new'
p210
tp211
a(I135
I0
F0.25
S'original'
p212
tp213
a(I162
I0
F-0.125
S'complex'
p214
tp215
a(I166
I0
F-0.125
S'blackberry'
p216
tp217
as(S'product'
p218
tp219
(lp220
(I3
I0
I0
S'great'
p221
tp222
a(I21
I4
F-0.625
S'bad'
p223
tp224
a(I25
I0
F1.0
S'good'
p225
tp226
a(I37
I8
I0
S'rim'
p227
tp228
a(I42
I0
I0
S'same'
p229
tp230
a(I42
I0
I0
S'mentioned'
p231
tp232
a(I43
I5
F-0.25
S'disappointed'
p233
tp234
a(I54
I0
I0
S'great'
p235
tp236
a(I75
I0
I0
S'great'
p237
tp238
a(I78
I11
I0
S'such'
p239
tp240
a(I96
I5
F-0.5
S'poor'
p241
tp242
a(I116
I3
I0
S'great'
p243
tp244
a(I152
I0
F1.0
S'good'
p245
tp246
a(I206
I0
F-0.625
S'bad'
p247
tp248
a(I210
I0
F0.875
S'happy'
p249
tp250
as(S'ever'
p251
tp252
(lp253
(I134
I1
F0.125
S'first'
p254
tp255
as(S'data'
p256
S'cable'
p257
tp258
(lp259
(I3
I0
F-0.625
S'other'
p260
tp261
a(I92
I0
I0
S'cable'
p262
tp263
a(I114
I0
I0
S'cable'
p264
tp265
a(I129
I0
I0
S'cable'
p266
tp267
a(I179
I0
I0
S'cable'
p268
tp269
as(S'verizon'
p270
tp271
(lp272
(I47
I2
F0.875
S'happy'
p273
tp274
a(I205
I6
F0.375
S'new'
p275
tp276
a(I205
I10
F-0.125
S'mine'
p277
tp278
as(S'work'
p279
tp280
(lp281
(I57
I0
F0.375
S'much'
p282
tp283
a(I57
I0
F0.125
S'first'
p284
tp285
a(I80
I1
F0.625
S'perfect'
p286
tp287
a(I135
I8
I0
S'e-mail'
p288
tp289
a(I209
I8
I0
S'e-mail'
p290
tp291
as(S'buying'
p292
tp293
(lp294
(I115
I0
F1.0
S'good'
p295
tp296
a(I205
I8
F0.375
S'new'
p297
tp298
as(S'seller'
p299
tp300
(lp301
(I42
I2
F1.0
S'good'
p302
tp303
a(I79
I2
F0.375
S'reliable'
p304
tp305
a(I129
I0
F0.625
S'responsible'
p306
tp307
a(I199
I13
F0.625
S'easy'
p308
tp309
as(S'works'
p310
tp311
(lp312
(I77
I0
F1.0
S'good'
p313
tp314
a(I83
I0
F0.625
S'easy'
p315
tp316
a(I107
I0
I0
S'great'
p317
tp318
a(I107
I0
F0.375
S'new'
p319
tp320
a(I107
I0
I0
S'great'
p321
tp322
a(I138
I0
F0.375
S'new'
p323
tp324
a(I138
I0
I0
S'great'
p325
tp326
a(I138
I0
F1.0
S'good'
p327
tp328
as(S'venezuela'
p329
tp330
(lp331
(I121
I0
F0.125
g51
tp332
as(S'excellent'
p333
tp334
(lp335
(I63
I3
I0
S'useful'
p336
tp337
a(I83
I0
F1.0
S'good'
p338
tp339
a(I152
I0
F-0.875
S'blemish'
p340
tp341
as(S'order'
p342
tp343
(lp344
(I21
I4
F-0.75
S'wrong'
p345
tp346
a(I185
I1
F0.375
S'early'
p347
tp348
as(S'battery'
p349
tp350
(lp351
(I139
I0
F0.125
S'last'
p352
tp353
a(I170
I2
F-0.75
S'dead'
p354
tp355
a(I210
I4
F-0.75
S'wrong'
p356
tp357
as(S'oacute'
p358
S'n'
p359
tp360
(lp361
(I164
I0
F0.375
S'new'
p362
tp363
as(S'network'
p364
tp365
(lp366
(I91
I2
I0
S'mobile'
p367
tp368
a(I150
I0
F0.25
S'original'
p369
tp370
as(S'better'
p371
tp372
(lp373
(I60
I2
F0.375
S'much'
p374
tp375
as(S'thing'
p376
tp377
(lp378
(I3
I0
F1.0
S'good'
p379
tp380
a(I99
I5
I0
S'only'
p381
tp382
a(I99
I5
F1.0
S'good'
p383
tp384
a(I109
I1
I0
S'only'
p385
tp386
a(I109
I1
F-0.75
S'wrong'
p387
tp388
a(I145
I0
I0
S'only'
p389
tp390
a(I145
I0
F-0.75
S'wrong'
p391
tp392
a(I152
I0
I0
S'only'
p393
tp394
a(I185
I1
F1.0
S'good'
p395
tp396
as(S'storm2'
p397
tp398
(lp399
(I53
I19
F-0.125
g193
tp400
a(I106
I0
F-0.125
g195
tp401
a(I106
I0
F0.625
g197
tp402
a(I211
I1
F-0.125
g199
tp403
as(S'thanks'
p404
tp405
(lp406
(I127
I8
F-0.25
S'direct'
p407
tp408
as(S'with'
p409
S'touch'
p410
S'screen'
p411
tp412
(lp413
(I6
I0
F0.5
g65
tp414
a(I24
I0
F0.5
g77
tp415
a(I38
I0
F0.5
g79
tp416
a(I46
I0
F0.5
g83
tp417
a(I48
I1
F0.5
g93
tp418
a(I53
I5
F0.5
g95
tp419
a(I151
I0
F0.5
g129
tp420
a(I161
I0
F0.5
g131
tp421
a(I163
I0
F0.5
g133
tp422
a(I166
I0
F0.5
g135
tp423
as(S'blackberry'
p424
tp425
(lp426
(I6
I0
F0.375
g191
tp427
a(I53
I15
F0.625
g208
tp428
a(I55
I0
F0.375
g210
tp429
a(I71
I2
F-0.25
S'late'
p430
tp431
a(I71
I2
F-0.625
S'other'
p432
tp433
a(I99
I8
F-0.625
S'other'
p434
tp435
a(I135
I0
F0.25
g212
tp436
a(I144
I0
F-0.75
S'sad'
p437
tp438
a(I144
I0
F-0.75
S'impossible'
p439
tp440
a(I171
I0
F0.375
S'new'
p441
tp442
a(I205
I3
F0.375
S'new'
p443
tp444
a(I205
I3
F-0.375
S'manual'
p445
tp446
a(I208
I1
I0
S'same'
p447
tp448
as(S'storm'
p449
tp450
(lp451
(I41
I0
F0.375
g206
tp452
a(I53
I7
F0.5
S'bold'
p453
tp454
a(I53
I10
F0.25
S'original'
p455
tp456
a(I53
I10
F0.5
S'bold'
p457
tp458
a(I162
I0
F-0.125
g214
tp459
a(I166
I0
F-0.125
g216
tp460
as(S'data'
p461
tp462
(lp463
(I3
I0
F-0.625
g260
tp464
a(I53
I6
I0
S'numerical'
p465
tp466
a(I88
I1
F0.125
S'able'
p467
tp468
a(I88
I2
F0.125
S'able'
p469
tp470
a(I92
I0
I0
g262
tp471
a(I114
I0
I0
g264
tp472
a(I122
I0
F0.125
S'able'
p473
tp474
a(I129
I0
I0
g266
tp475
a(I179
I0
I0
g268
tp476
as(S'time'
p477
tp478
(lp479
(I19
I7
F0.125
S'first'
p480
tp481
a(I24
I0
F-0.5
S'long'
p482
tp483
a(I41
I1
I0
S'few'
p484
tp485
a(I54
I3
F0.125
S'last'
p486
tp487
a(I55
I1
F-0.5
S'long'
p488
tp489
a(I63
I5
I0
S'next'
p490
tp491
a(I79
I2
F0.375
S'complete'
p492
tp493
a(I92
I0
F0.375
S'standby'
p494
tp495
a(I104
I2
I0
S'great'
p496
tp497
a(I112
I2
F-0.875
S'hard'
p498
tp499
a(I153
I0
F0.125
S'first'
p500
tp501
a(I158
I3
F0.125
S'first'
p502
tp503
a(I158
I3
I0
S'online'
p504
tp505
a(I166
I0
F0.125
S'first'
p506
tp507
a(I166
I0
F-0.5
S'long'
p508
tp509
a(I197
I0
I0
S'al'
p510
tp511
as(S'click'
p512
tp513
(lp514
(I57
I3
F0.125
S'electric'
p515
tp516
as(S'condition'
p517
tp518
(lp519
(I26
I1
F0.375
S'new'
p520
tp521
a(I113
I0
F1.0
S'good'
p522
tp523
a(I145
I0
F1.0
S'good'
p524
tp525
a(I145
I0
F0.375
S'new'
p526
tp527
a(I169
I2
I0
S'great'
p528
tp529
a(I185
I0
F0.375
S'new'
p530
tp531
a(I210
I2
F1.0
S'good'
p532
tp533
a(I210
I2
F0.375
S'new'
p534
tp535
as(S'make'
p536
tp537
(lp538
(I159
I1
F0.625
S'easy'
p539
tp540
as(S'months'
p541
tp542
(lp543
(I3
I0
I0
S'few'
p544
tp545
a(I112
I9
I0
S'old'
p546
tp547
a(I135
I10
F-0.25
S'past'
p548
tp549
as(S'touchscreen'
p550
tp551
(lp552
(I60
I3
F0.125
S'first'
p553
tp554
as(S'works'
p555
S'fine'
p556
tp557
(lp558
(I3
I0
F-0.375
S'simple'
p559
tp560
a(I175
I3
F-0.125
S'overall'
p561
tp562
as(S'every'
p563
tp564
(lp565
(I216
I2
F0.75
S'worth'
p566
tp567
as(S'touch'
p568
S'screen'
p569
tp570
(lp571
(I6
I0
F0.5
g65
tp572
a(I6
I4
F0.5
g67
tp573
a(I6
I4
F-0.875
g69
tp574
a(I6
I4
F0.5
g71
tp575
a(I6
I6
F0.375
g73
tp576
a(I6
I6
F0.5
g75
tp577
a(I24
I0
F0.5
g77
tp578
a(I38
I0
F0.5
g79
tp579
a(I46
I0
F0.5
g83
tp580
a(I46
I3
F0.5
g91
tp581
a(I48
I1
F0.5
g93
tp582
a(I53
I5
F0.5
g95
tp583
a(I57
I2
F-0.75
g99
tp584
a(I68
I0
F0.5
g101
tp585
a(I78
I4
F-0.625
g178
tp586
a(I78
I4
F0.5
g103
tp587
a(I84
I1
F0.25
g105
tp588
a(I105
I5
F0.5
g111
tp589
a(I113
I2
F0.556
g113
tp590
a(I113
I2
F0.5
g115
tp591
a(I118
I0
F0.5
g117
tp592
a(I118
I0
F-0.875
g119
tp593
a(I130
I0
F-0.625
g180
tp594
a(I139
I0
F0.5
g121
tp595
a(I147
I6
F0.625
g123
tp596
a(I147
I6
F-0.75
g125
tp597
a(I147
I6
F0.5
g127
tp598
a(I151
I0
F0.5
g129
tp599
a(I161
I0
F0.5
g131
tp600
a(I163
I0
F0.5
g133
tp601
a(I166
I0
F0.5
g135
tp602
a(I212
I1
F-0.75
g149
tp603
a(I212
I1
F0.5
g151
tp604
as(S'working'
p605
tp606
(lp607
(I91
I2
F1.0
S'good'
p608
tp609
a(I196
I1
F0.375
S'new'
p610
tp611
as.