(dp0
(S'problem'
p1
tp2
(lp3
(I72
I0
F-0.375
S'small'
p4
tp5
a(I97
I1
I0
S'cellular'
p6
tp7
a(I114
I3
F0.625
S'major'
p8
tp9
a(I137
I2
I0
S'general'
p10
tp11
as(S'something'
p12
tp13
(lp14
(I31
I1
F-0.625
S'other'
p15
tp16
a(I59
I9
F-0.375
S'manual'
p17
tp18
a(I96
I0
F1.0
S'better'
p19
tp20
a(I185
I2
I0
S'different'
p21
tp22
as(S'battery'
p23
S'life'
p24
tp25
(lp26
(I56
I2
F1.0
S'good'
p27
tp28
a(I173
I0
F0.125
S'last'
p29
tp30
as(S'keyboard'
p31
tp32
(lp33
(I11
I1
I0
S'physical'
p34
tp35
a(I65
I0
F-0.375
S'small'
p36
tp37
a(I65
I0
F0.5
S'flat'
p38
tp39
a(I66
I4
I0
S'full'
p40
tp41
a(I66
I4
F0.875
S'nice'
p42
tp43
a(I73
I3
F-0.875
S'hard'
p44
tp45
a(I83
I1
I0
S'full'
p46
tp47
a(I126
I0
F-0.75
S'difficult'
p48
tp49
a(I140
I1
F0.125
S'key'
p50
tp51
a(I178
I1
F0.625
S'easy'
p52
tp53
as(S'little'
p54
tp55
(lp56
(I72
I2
F1.0
S'good'
p57
tp58
a(I72
I6
F1.0
S'good'
p59
tp60
as(S'keys'
p61
tp62
(lp63
(I2
I0
I0
S'many'
p64
tp65
a(I3
I1
F-0.375
S'small'
p66
tp67
a(I11
I5
F-0.75
S'dark'
p68
tp69
a(I11
I5
I0
S'light-colored'
p70
tp71
a(I104
I1
I0
S'vertical'
p72
tp73
a(I140
I0
F-0.75
S'difficult'
p74
tp75
as(S'money'
p76
tp77
(lp78
(I85
I0
I0
S'waste'
p79
tp80
as(S'nice'
p81
tp82
(lp83
(I55
I1
F-0.625
S'clean'
p84
tp85
a(I71
I26
I0
S'android'
p86
tp87
as(S'price'
p88
tp89
(lp90
(I52
I1
F0.875
S'happy'
p91
tp92
a(I52
I1
I0
S'such'
p93
tp94
a(I52
I1
I0
S'great'
p95
tp96
a(I84
I0
F1.0
S'good'
p97
tp98
a(I95
I0
F1.0
S'good'
p99
tp100
a(I107
I4
F0.75
S'worth'
p101
tp102
a(I121
I1
F0.5
S'expensive'
p103
tp104
a(I128
I0
F1.0
S'good'
p105
tp106
a(I139
I0
F1.0
S'good'
p107
tp108
a(I176
I1
F1.0
S'good'
p109
tp110
as(S'service'
p111
tp112
(lp113
(I47
I5
I0
S'great'
p114
tp115
a(I142
I0
F-0.625
S'other'
p116
tp117
as(S'back'
p118
tp119
(lp120
(I69
I1
I0
S'plastic'
p121
tp122
a(I157
I2
F0.625
S'easy'
p123
tp124
as(S'touch'
p125
tp126
(lp127
(I15
I4
I0
S'only'
p128
tp129
as(S'camera'
p130
tp131
(lp132
(I10
I11
F0.5
S'comparable'
p133
tp134
a(I27
I1
F-0.125
S'front'
p135
tp136
a(I59
I7
F-0.5
S'weak'
p137
tp138
a(I136
I1
I0
S'great'
p139
tp140
a(I159
I1
F1.0
S'good'
p141
tp142
as(S'key'
p143
S'board'
p144
tp145
(lp146
(I77
I0
F0.125
S'key'
p147
tp148
a(I104
I0
F0.125
S'key'
p149
tp150
a(I120
I0
F0.125
S'key'
p151
tp152
a(I120
I0
F0.875
S'happy'
p153
tp154
a(I139
I0
F0.125
S'key'
p155
tp156
as(S'qwerty'
p157
S'keyboard'
p158
tp159
(lp160
(I178
I1
F0.625
g52
tp161
as(S'message'
p162
tp163
(lp164
(I185
I1
I0
S'slower'
p165
tp166
a(I185
I1
F-0.5
S'longer'
p167
tp168
as(S'a'
p169
S'touch'
p170
S'screen'
p171
tp172
(lp173
(I15
I4
I0
g128
tp174
a(I61
I3
F0.5
S'touch'
p175
tp176
a(I102
I3
F0.5
S'touch'
p177
tp178
a(I118
I3
F0.5
S'touch'
p179
tp180
a(I120
I0
F0.5
S'touch'
p181
tp182
a(I144
I1
F0.5
S'touch'
p183
tp184
a(I152
I0
F0.5
S'touch'
p185
tp186
as(S'year'
p187
tp188
(lp189
(I58
I0
I0
S'old'
p190
tp191
a(I58
I4
I0
S'old'
p192
tp193
a(I66
I0
F0.125
S'last'
p194
tp195
a(I89
I0
I0
S'old'
p196
tp197
a(I102
I0
F1.0
S'good'
p198
tp199
a(I106
I7
F0.25
S'suppose'
p200
tp201
a(I113
I2
F-0.5
S'less'
p202
tp203
a(I144
I0
I0
S'old'
p204
tp205
a(I160
I0
I0
S'old'
p206
tp207
as(S'features'
p208
tp209
(lp210
(I10
I11
I0
S'current'
p211
tp212
a(I10
I11
I0
S'such'
p213
tp214
a(I71
I19
I0
S'most'
p215
tp216
a(I71
I19
I0
S'basic'
p217
tp218
a(I83
I2
F-0.625
S'other'
p219
tp220
a(I120
I1
I0
S'such'
p221
tp222
as(S'messages'
p223
tp224
(lp225
(I63
I0
F-0.125
S'slow'
p226
tp227
a(I63
I0
I0
S'text'
p228
tp229
a(I133
I5
F0.875
S'important'
p230
tp231
a(I145
I0
F0.25
S'suppose'
p232
tp233
as(S'works'
p234
tp235
(lp236
(I37
I1
I0
S'great'
p237
tp238
a(I58
I6
F-0.375
S'small'
p239
tp240
a(I109
I0
F1.0
S'good'
p241
tp242
a(I142
I0
F1.0
S'good'
p243
tp244
a(I142
I0
F0.625
S'perfect'
p245
tp246
a(I170
I0
I0
S'great'
p247
tp248
as(S'want'
p249
tp250
(lp251
(I138
I7
F1.0
S'good'
p252
tp253
as(S'battery'
p254
tp255
(lp256
(I71
I11
F-0.25
S'low'
p257
tp258
a(I91
I0
F-0.75
S'dead'
p259
tp260
a(I126
I0
F0.125
S'first'
p261
tp262
a(I146
I1
F0.375
S'new'
p263
tp264
a(I165
I1
I0
S'wish'
p265
tp266
a(I169
I1
F0.125
S'last'
p267
tp268
a(I169
I1
F-0.5
S'long'
p269
tp270
as(S'3'
p271
S'weeks'
p272
tp273
(lp274
(I71
I19
F-0.5
S'struggle'
p275
tp276
as(S'looking'
p277
tp278
(lp279
(I40
I2
I0
S'great'
p280
tp281
a(I176
I0
I0
S'such'
p282
tp283
a(I176
I0
F1.0
S'good'
p284
tp285
as(S'calls'
p286
tp287
(lp288
(I6
I0
F-0.625
S'bad'
p289
tp290
a(I43
I1
I0
S'more'
p291
tp292
a(I156
I2
F0.5
S'strong'
p293
tp294
a(I156
I2
I0
S'signal'
p295
tp296
as(S'gift'
p297
tp298
(lp299
(I99
I2
I0
S'great'
p300
tp301
a(I122
I1
F-0.25
S'disappointing'
p302
tp303
a(I122
I1
I0
S'anniversary'
p304
tp305
as(S'sim'
p306
S'card'
p307
tp308
(lp309
(I62
I2
I0
S'same'
p310
tp311
a(I98
I3
I0
S'old'
p312
tp313
as(S'text'
p314
S'messages'
p315
tp316
(lp317
(I63
I0
F-0.125
g226
tp318
a(I63
I0
I0
g228
tp319
a(I87
I0
F-0.125
S'delete'
p320
tp321
a(I145
I0
F0.25
g232
tp322
as(S'call'
p323
tp324
(lp325
(I71
I22
F0.125
S'last'
p326
tp327
a(I111
I1
I0
S'more'
p328
tp329
a(I114
I4
F0.875
S'important'
p330
tp331
as(S'screen'
p332
tp333
(lp334
(I5
I2
F-0.375
S'black'
p335
tp336
a(I38
I1
F-0.375
S'black'
p337
tp338
a(I61
I3
F0.5
g175
tp339
a(I72
I5
F0.25
S'bigger'
p340
tp341
a(I102
I3
F0.5
g177
tp342
a(I118
I3
F0.5
g179
tp343
a(I120
I0
F0.5
g181
tp344
a(I144
I1
F0.5
g183
tp345
a(I152
I0
F0.5
g185
tp346
a(I163
I4
F-0.75
S'dark'
p347
tp348
as(S'time'
p349
tp350
(lp351
(I33
I0
F0.5
S'awkward'
p352
tp353
a(I162
I0
I0
S'same'
p354
tp355
a(I162
I0
I0
S'same'
p356
tp357
as(S'card'
p358
tp359
(lp360
(I40
I1
I0
S'sd'
p361
tp362
as(S'better'
p363
tp364
(lp365
(I0
I4
F0.375
S'much'
p366
tp367
as(S'work'
p368
tp369
(lp370
(I47
I2
F-0.375
S'serious'
p371
tp372
as(S'texting'
p373
tp374
(lp375
(I43
I2
F0.75
S'due'
p376
tp377
a(I72
I6
I0
S'basic'
p378
tp379
a(I140
I3
F0.625
S'easy'
p380
tp381
a(I143
I0
I0
S'basic'
p382
tp383
as(S'touch'
p384
S'screen'
p385
tp386
(lp387
(I15
I4
I0
g128
tp388
a(I61
I3
F0.5
g175
tp389
a(I102
I3
F0.5
g177
tp390
a(I118
I3
F0.5
g179
tp391
a(I120
I0
F0.5
g181
tp392
a(I144
I1
F0.5
g183
tp393
a(I152
I0
F0.5
g185
tp394
as(S'text'
p395
tp396
(lp397
(I87
I0
F-0.125
g320
tp398
a(I102
I2
F1.0
S'good'
p399
tp400
as(S'sound'
p401
S'quality'
p402
tp403
(lp404
(I88
I2
F-0.5
S'poor'
p405
tp406
a(I140
I2
F1.0
S'good'
p407
tp408
as.