(dp0
(S'seller'
p1
tp2
(lp3
(I15
I6
I0
S'e-mailed'
p4
I19
tp5
a(I26
I0
F-0.25
S'disappointed'
p6
I19
tp7
a(I27
I6
I0
S'more'
p8
I19
tp9
as(S'blackberry'
p10
tp11
(lp12
(I2
I0
F0.375
S'new'
p13
I1
tp14
a(I3
I10
I0
S'great'
p15
I1
tp16
as(S'data'
p17
tp18
(lp19
(I17
I25
I0
S'cable'
p20
I13
tp21
as(S'email'
p22
tp23
(lp24
(I18
I14
F0.125
S'able'
p25
I5
tp26
as(S'battery'
p27
tp28
(lp29
(I16
I2
F-0.75
S'dead'
p30
I15
tp31
as(S'service'
p32
tp33
(lp34
(I9
I4
F-0.5
S'sure'
p35
I16
tp36
a(I27
I1
I0
S'own'
p37
I16
tp38
as(S'sim'
p39
S'card'
p40
tp41
(lp42
(I19
I6
I0
S'local'
p43
I0
tp44
as(S'amazon'
p45
tp46
(lp47
(I3
I6
F0.625
S'fair'
p48
I13
tp49
a(I22
I4
F-0.5
S'sure'
p50
I13
tp51
as(S'touch'
p52
S'screen'
p53
tp54
(lp55
(I3
I10
F0.5
S'touch'
p56
I2
tp57
a(I13
I0
F-0.25
S'loose'
p58
I2
tp59
a(I14
I9
F-0.625
S'other'
p60
I2
tp61
a(I14
I9
F0.5
S'touch'
p62
I2
tp63
a(I18
I11
I0
S'real'
p64
I2
tp65
a(I25
I0
F0.5
S'touch'
p66
I2
tp67
a(I30
I18
F0.5
S'touch'
p68
I2
tp69
a(I31
I8
I0
S'capacitive'
p70
I2
tp71
a(I31
I8
F0.625
S'perfect'
p72
I2
tp73
a(I31
I20
I0
S'great'
p74
I2
tp75
as.