(dp0
(S'picture'
p1
S'messages'
p2
tp3
(lp4
(I9
I27
F0.125
S'able'
p5
I0
tp6
a(I20
I3
F0.625
S'easy'
p7
I0
tp8
a(I9
I42
I0
S'pic'
p9
I1
tp10
a(I10
I11
I0
S'pic'
p11
I1
tp12
a(I20
I3
F0.625
g7
I1
tp13
a(I21
I28
I0
S'text'
p14
I1
tp15
as(S'internet'
p16
tp17
(lp18
(I21
I39
I0
S'very'
p19
I6
tp20
a(I21
I39
F-0.125
S'slow'
p21
I6
tp22
as(S'sim'
p23
S'card'
p24
tp25
(lp26
(I16
I20
I0
S'net'
p27
I0
tp28
a(I16
I20
I0
S'enter'
p29
I0
tp30
as(S'text'
p31
tp32
(lp33
(I2
I25
I0
S'many'
p34
I18
tp35
as(S'hello'
p36
S'kitty'
p37
tp38
(lp39
(I13
I7
F0.375
S'new'
p40
I0
tp41
a(I13
I7
F-0.375
S'black'
p42
I0
tp43
a(I17
I27
F0.125
S'able'
p44
I0
tp45
a(I20
I6
I0
S'special'
p46
I0
tp47
a(I20
I6
I0
g46
I0
tp48
a(I12
I25
F-0.375
S'black'
p49
I0
tp50
a(I13
I7
F0.375
g40
I0
tp51
a(I13
I7
F-0.375
g42
I0
tp52
a(I17
I27
F0.125
g44
I0
tp53
as(S'service'
p54
tp55
(lp56
(I5
I2
I0
S'great'
p57
I16
tp58
a(I12
I9
F-0.5
S'unavailable'
p59
I16
tp60
a(I22
I4
I0
S'local'
p61
I16
tp62
as(S'camera'
p63
tp64
(lp65
(I5
I9
F0.5
S'clear'
p66
I1
tp67
a(I9
I2
F1.0
S'good'
p68
I1
tp69
a(I17
I17
F1.0
S'good'
p70
I1
tp71
as(S'touch'
p72
S'screen'
p73
tp74
(lp75
(I9
I9
F0.625
S'easy'
p76
I2
tp77
as.