(dp0
(S'keyboard'
p1
tp2
(lp3
(I3
I12
I0
S'full'
p4
I2
tp5
as(S'few'
p6
S'months'
p7
tp8
(lp9
(I0
I40
I0
S'few'
p10
I5
tp11
a(I4
I38
I0
S'few'
p12
I5
tp13
a(I6
I7
I0
S'few'
p14
I5
tp15
as(S'text'
p16
tp17
(lp18
(I4
I4
F0.375
S'new'
p19
I18
tp20
a(I4
I62
I0
S'old'
p21
I18
tp22
as(S'other'
p23
S'times'
p24
tp25
(lp26
(I2
I9
I0
S'few'
p27
I0
tp28
a(I2
I9
F-0.625
S'other'
p29
I0
tp30
a(I3
I24
F-0.625
S'other'
p31
I0
tp32
a(I3
I27
F-0.625
S'other'
p33
I0
tp34
as(S'sometimes'
p35
tp36
(lp37
(I5
I2
F0.5
S'second'
p38
I17
tp39
as(S'samsung'
p40
tp41
(lp42
(I6
I23
F0.5
S'second'
p43
I7
tp44
a(I6
I23
F-0.25
S'disappointed'
p45
I7
tp46
as(S'touch'
p47
S'screen'
p48
tp49
(lp50
(I0
I43
F0.5
S'touch'
p51
I2
tp52
a(I0
I80
F-0.875
S'awful'
p53
I2
tp54
a(I0
I98
F0.125
S'charger'
p55
I2
tp56
a(I1
I5
F0.5
S'touch'
p57
I2
tp58
a(I2
I9
F0.5
S'touch'
p59
I2
tp60
a(I2
I17
F0.5
S'touch'
p61
I2
tp62
a(I2
I17
F0.375
S'extra'
p63
I2
tp64
a(I2
I17
I0
S'sensitive'
p65
I2
tp66
a(I2
I31
F-0.75
S'unresponsive'
p67
I2
tp68
a(I2
I31
F-0.75
S'difficult'
p69
I2
tp70
a(I3
I13
F0.5
S'touch'
p71
I2
tp72
a(I3
I23
F-0.5
S'worthless'
p73
I2
tp74
a(I3
I53
F0.5
S'touch'
p75
I2
tp76
a(I3
I56
F0.5
S'touch'
p77
I2
tp78
a(I3
I56
F0.375
S'friendly'
p79
I2
tp80
a(I3
I65
F-0.625
S'bad'
p81
I2
tp82
a(I3
I65
F0.125
S'first'
p83
I2
tp84
a(I3
I76
F0.125
S'first'
p85
I2
tp86
a(I3
I76
F0.5
S'touch'
p87
I2
tp88
a(I3
I85
F-0.5
S'actual'
p89
I2
tp90
a(I4
I6
F0.5
S'touch'
p91
I2
tp92
a(I4
I7
F-0.875
S'awful'
p93
I2
tp94
a(I4
I13
F0.5
S'touch'
p95
I2
tp96
a(I4
I46
I0
S'stiff'
p97
I2
tp98
a(I4
I46
I0
S'sensitive'
p99
I2
tp100
a(I4
I56
F0.5
S'touch'
p101
I2
tp102
a(I4
I62
F0.5
S'touch'
p103
I2
tp104
a(I4
I72
F-0.75
S'hate'
p105
I2
tp106
a(I4
I72
F0.5
S'touch'
p107
I2
tp108
a(I4
I81
F-0.5
S'open'
p109
I2
tp110
a(I4
I81
F-0.875
S'scratch'
p111
I2
tp112
a(I4
I84
F1.0
S'good'
p113
I2
tp114
a(I5
I0
F0.125
S'first'
p115
I2
tp116
as.