(dp0
(S'memory'
p1
S'card'
p2
tp3
(lp4
(I30
I27
I0
S'inside'
p5
I0
tp6
a(I74
I13
I0
S'adequate'
p7
I0
tp8
a(I74
I13
I0
g7
I5
tp9
as(S'keyboard'
p10
tp11
(lp12
(I22
I22
F-0.5
S'regular'
p13
I2
tp14
a(I51
I2
F0.5
S'functional'
p15
I2
tp16
as(S'email'
p17
tp18
(lp19
(I10
I19
F1.0
S'best'
p20
I5
tp21
a(I54
I7
F0.5
S'personal'
p22
I5
tp23
as(S'micro'
p24
S'sd'
p25
tp26
(lp27
(I40
I7
F0.75
S'receive'
p28
I0
tp29
as(S'service'
p30
tp31
(lp32
(I22
I18
I0
S'follow-up'
p33
I16
tp34
a(I26
I5
F1.0
S'good'
p35
I16
tp36
a(I62
I22
I0
S'great'
p37
I16
tp38
as(S'camera'
p39
tp40
(lp41
(I15
I0
F1.0
S'good'
p42
I1
tp43
as(S'data'
p44
S'cable'
p45
tp46
(lp47
(I2
I3
F-0.625
S'other'
p48
I0
tp49
a(I64
I0
I0
S'cable'
p50
I0
tp51
a(I2
I3
F-0.625
g48
I13
tp52
a(I22
I21
I0
S'numerical'
p53
I13
tp54
a(I31
I8
F0.125
S'able'
p55
I13
tp56
a(I31
I9
F0.125
S'able'
p57
I13
tp58
a(I45
I0
F0.125
S'able'
p59
I13
tp60
a(I64
I0
I0
g50
I13
tp61
as(S'blackberry'
p62
S'storm'
p63
tp64
(lp65
(I2
I10
F0.375
S'new'
p66
I0
tp67
a(I18
I0
F0.375
S'new'
p68
I0
tp69
a(I22
I33
F0.625
S'aware'
p70
I0
tp71
a(I22
I48
F0.375
S'new'
p72
I0
tp73
a(I51
I0
F0.25
S'original'
p74
I0
tp75
a(I62
I2
F-0.125
S'blackberry'
p76
I0
tp77
a(I18
I0
F0.375
g68
I0
tp78
a(I22
I26
F0.25
S'original'
p79
I0
tp80
a(I62
I2
F-0.125
g76
I0
tp81
as(S'touchscreen'
p82
tp83
(lp84
(I23
I23
F0.125
S'first'
p85
I0
tp86
as(S'blackberry'
p87
S'storm2'
p88
tp89
(lp90
(I2
I10
F0.375
g66
I0
tp91
a(I38
I11
F-0.125
S'blackberry'
p92
I0
tp93
a(I38
I11
F0.625
S'perfect'
p94
I0
tp95
a(I38
I11
F-0.125
g92
I0
tp96
a(I38
I11
F0.625
g94
I0
tp97
a(I2
I10
F0.375
g66
I1
tp98
a(I2
I15
I0
S'more'
p99
I1
tp100
a(I10
I9
F0.125
S'able'
p101
I1
tp102
a(I22
I33
F0.625
g70
I1
tp103
a(I22
I48
F0.375
g72
I1
tp104
a(I27
I8
F-0.25
S'late'
p105
I1
tp106
a(I27
I8
F-0.625
S'other'
p107
I1
tp108
a(I36
I8
F-0.625
S'other'
p109
I1
tp110
a(I51
I0
F0.25
g74
I1
tp111
a(I51
I14
I0
S'most'
p112
I1
tp113
a(I53
I1
F-0.75
S'sad'
p114
I1
tp115
a(I53
I5
F-0.75
S'impossible'
p116
I1
tp117
a(I58
I1
F-0.5
S'heavy'
p118
I1
tp119
a(I58
I1
F-0.875
S'hard'
p120
I1
tp121
a(I62
I22
F0.375
S'new'
p122
I1
tp123
a(I73
I21
F0.375
S'new'
p124
I1
tp125
a(I73
I21
F-0.375
S'manual'
p126
I1
tp127
a(I74
I2
I0
S'same'
p128
I1
tp129
as(S'verizon'
p130
tp131
(lp132
(I21
I8
F0.875
S'happy'
p133
I0
tp134
a(I70
I25
F0.375
S'meant'
p135
I0
tp136
a(I73
I17
F0.25
S'effective'
p137
I0
tp138
a(I73
I26
F0.375
S'new'
p139
I0
tp140
a(I73
I32
F-0.125
S'mine'
p141
I0
tp142
as(S'seller'
p143
tp144
(lp145
(I30
I28
F0.375
S'reliable'
p146
I19
tp147
a(I46
I26
F0.625
S'responsible'
p148
I19
tp149
a(I72
I14
F0.625
S'easy'
p150
I19
tp151
as(S'battery'
p152
tp153
(lp154
(I23
I10
I0
S'half-hour'
p155
I15
tp156
a(I52
I0
F0.125
S'last'
p157
I15
tp158
a(I62
I20
F-0.75
S'dead'
p159
I15
tp160
a(I74
I22
F-0.75
S'wrong'
p161
I15
tp162
as(S'network'
p163
tp164
(lp165
(I32
I5
I0
S'mobile'
p166
I0
tp167
a(I55
I2
F0.25
S'original'
p168
I0
tp169
as(S'click'
p170
tp171
(lp172
(I23
I5
F0.125
S'electric'
p173
I6
tp174
as(S'internet'
p175
tp176
(lp177
(I4
I3
F1.0
S'good'
p178
I6
tp179
a(I24
I10
F-0.125
S'slow'
p180
I6
tp181
a(I36
I7
F0.125
S'able'
p182
I6
tp183
a(I54
I5
F0.625
S'convenient'
p184
I6
tp185
a(I54
I5
F0.625
S'easy'
p186
I6
tp187
as(S'bold'
p188
tp189
(lp190
(I22
I37
F0.625
S'fair'
p191
I1
tp192
as(S'en'
p193
S'venezuela'
p194
tp195
(lp196
(I44
I0
F0.125
S'practical'
p197
I0
tp198
a(I44
I0
F0.125
g197
I0
tp199
as(S'amazon'
p200
tp201
(lp202
(I34
I2
F0.375
S'extra'
p203
I13
tp204
as(S'works'
p205
S'fine'
p206
tp207
(lp208
(I2
I3
F-0.375
S'simple'
p209
I9
tp210
a(I63
I3
F-0.125
S'overall'
p211
I9
tp212
as(S'touch'
p213
S'screen'
p214
tp215
(lp216
(I2
I15
F0.5
S'touch'
p217
I2
tp218
a(I2
I15
F-0.875
S'hard'
p219
I2
tp220
a(I2
I15
F0.5
S'touch'
p221
I2
tp222
a(I2
I17
F0.375
S'new'
p223
I2
tp224
a(I2
I17
F0.5
S'touch'
p225
I2
tp226
a(I12
I3
F0.5
S'touch'
p227
I2
tp228
a(I21
I0
F0.5
S'touch'
p229
I2
tp230
a(I21
I3
F0.5
S'touch'
p231
I2
tp232
a(I22
I20
F0.5
S'touch'
p233
I2
tp234
a(I24
I10
F0.5
S'touch'
p235
I2
tp236
a(I26
I9
F0.5
S'touch'
p237
I2
tp238
a(I30
I4
F-0.625
S'other'
p239
I2
tp240
a(I30
I4
F0.5
S'touch'
p241
I2
tp242
a(I30
I40
F0.25
S'sharp'
p243
I2
tp244
a(I38
I9
F0.5
S'touch'
p245
I2
tp246
a(I41
I21
F0.556
S'delicate'
p247
I2
tp248
a(I41
I21
F0.5
S'touch'
p249
I2
tp250
a(I43
I12
F0.5
S'touch'
p251
I2
tp252
a(I43
I12
F-0.875
S'hard'
p253
I2
tp254
a(I47
I0
F-0.625
S'bad'
p255
I2
tp256
a(I52
I0
F0.5
S'touch'
p257
I2
tp258
a(I54
I8
F0.625
S'easy'
p259
I2
tp260
a(I54
I8
F-0.75
S'difficult'
p261
I2
tp262
a(I54
I8
F0.5
S'touch'
p263
I2
tp264
a(I62
I2
F0.5
S'touch'
p265
I2
tp266
a(I74
I33
F-0.75
S'difficult'
p267
I2
tp268
a(I74
I33
F0.5
S'touch'
p269
I2
tp270
as.