(dp0
(S'12'
p1
S'megapixel'
p2
S'camera'
p3
tp4
(lp5
(I199
I2
F0.625
S'easy'
p6
tp7
a(I340
I0
I0
S'old'
p8
tp9
a(I340
I0
F1.0
S'better'
p10
tp11
a(I390
I5
F1.0
S'good'
p12
tp13
a(I408
I28
I0
S'incredible'
p14
tp15
a(I473
I1
F1.0
S'good'
p16
tp17
a(I556
I1
F0.125
S'capable'
p18
tp19
a(I810
I0
I0
S'full'
p20
tp21
as(S'keyboard'
p22
tp23
(lp24
(I12
I35
I0
S'least'
p25
tp26
a(I46
I6
I0
S'alphanumeric'
p27
tp28
a(I170
I4
F-0.75
S'secondary'
p29
tp30
a(I187
I6
I0
S'great'
p31
tp32
a(I187
I6
F0.625
S'easy'
p33
tp34
a(I260
I47
I0
S'current'
p35
tp36
a(I285
I9
I0
S'french'
p37
tp38
a(I285
I9
I0
S'spanish'
p39
tp40
a(I296
I9
F0.375
S'much'
p41
tp42
a(I312
I4
I0
S'old'
p43
tp44
a(I400
I5
F1.0
S'good'
p45
tp46
a(I434
I0
I0
S'physical'
p47
tp48
a(I463
I6
F0.25
S'responsive'
p49
tp50
a(I464
I16
F0.375
S'much'
p51
tp52
a(I468
I7
I0
S'physical'
p53
tp54
a(I473
I1
F0.25
S'responsive'
p55
tp56
a(I482
I8
F0.625
S'easier'
p57
tp58
a(I485
I3
I0
S'physical'
p59
tp60
a(I497
I0
F0.75
S'due'
p61
tp62
a(I541
I7
F0.875
S'nice'
p63
tp64
a(I542
I40
F-0.5
S'miss'
p65
tp66
a(I542
I40
I0
S'physical'
p67
tp68
a(I542
I53
F0.5
S'drive'
p69
tp70
a(I575
I4
I0
S'full'
p71
tp72
a(I621
I7
F-0.125
S'slow'
p73
tp74
a(I699
I6
F0.125
S'digital'
p75
tp76
a(I699
I6
F-0.375
S'small'
p77
tp78
a(I747
I3
I0
S'vertical'
p79
tp80
a(I786
I12
F-0.375
S'smooth'
p81
tp82
a(I815
I25
F0.375
S'new'
p83
tp84
a(I831
I82
F1.0
S'better'
p85
tp86
a(I832
I65
F0.375
S'similar'
p87
tp88
a(I846
I14
F0.625
S'easy'
p89
tp90
as(S'u'
p91
S's'
p92
S'version'
p93
tp94
(lp95
(I6
I17
I0
S'basic'
p96
tp97
a(I6
I17
F0.75
S'worth'
p98
tp99
a(I80
I4
F-0.75
S'wrong'
p100
tp101
a(I83
I3
F0.25
S'recent'
p102
tp103
a(I135
I28
F1.0
S'good'
p104
tp105
a(I135
I28
I0
S'latest'
p106
tp107
a(I176
I44
F0.5
S'upgraded'
p108
tp109
a(I263
I11
I0
S'old'
p110
tp111
a(I320
I4
F0.375
S'new'
p112
tp113
a(I348
I16
I0
S'full'
p114
tp115
a(I374
I2
F1.0
S'good'
p116
tp117
a(I451
I13
I0
S'latest'
p118
tp119
a(I451
I13
I0
S'full'
p120
tp121
a(I512
I4
I0
S'old'
p122
tp123
a(I545
I3
I0
S'current'
p124
tp125
a(I574
I1
F0.375
S'new'
p126
tp127
a(I580
I3
I0
S'latest'
p128
tp129
a(I580
I3
I0
S'android'
p130
tp131
a(I580
I31
I0
S'latest'
p132
tp133
a(I621
I7
I0
S'android'
p134
tp135
a(I621
I8
I0
S'android'
p136
tp137
a(I702
I2
I0
S'different'
p138
tp139
a(I846
I4
I0
S'latest'
p140
tp141
as(S'nice'
p142
tp143
(lp144
(I144
I0
I0
S'old'
p145
tp146
a(I363
I11
I0
S'al'
p147
tp148
a(I513
I2
F-0.625
S'free'
p149
tp150
a(I582
I6
F-0.625
S'other'
p151
tp152
a(I852
I2
I0
S'large'
p153
tp154
as(S'call'
p155
S'quality'
p156
tp157
(lp158
(I12
I1
F1.0
S'good'
p159
tp160
a(I18
I2
I0
S'great'
p161
tp162
a(I52
I0
I0
S'stable'
p163
tp164
a(I52
I0
F0.625
S'easy'
p165
tp166
a(I158
I5
I0
S'most'
p167
tp168
a(I158
I12
I0
S'great'
p169
tp170
a(I197
I0
F-0.625
S'other'
p171
tp172
a(I205
I13
F1.0
S'good'
p173
tp174
a(I262
I6
F1.0
S'good'
p175
tp176
a(I313
I3
I0
S'great'
p177
tp178
a(I326
I1
F0.5
S'clearest'
p179
tp180
a(I442
I12
I0
S'great'
p181
tp182
a(I484
I1
I0
S'great'
p183
tp184
a(I485
I3
F1.0
S'good'
p185
tp186
a(I521
I1
F1.0
S'good'
p187
tp188
a(I541
I1
I0
S'great'
p189
tp190
a(I546
I2
I0
S'efficient'
p191
tp192
a(I546
I2
I0
S'great'
p193
tp194
a(I558
I2
F1.0
S'good'
p195
tp196
a(I559
I5
I0
S'great'
p197
tp198
a(I575
I4
I0
S'great'
p199
tp200
a(I659
I4
I0
S'great'
p201
tp202
a(I730
I2
I0
S'great'
p203
tp204
a(I772
I7
F1.0
S'good'
p205
tp206
a(I776
I8
I0
S'great'
p207
tp208
a(I785
I0
F0.25
S'responsive'
p209
tp210
a(I805
I8
F0.25
S'professional'
p211
tp212
a(I805
I8
F-0.625
S'want'
p213
tp214
a(I805
I8
F-0.375
S'top'
p215
tp216
a(I850
I4
F1.0
S'best'
p217
tp218
a(I861
I0
I0
S'great'
p219
tp220
as(S'touch'
p221
tp222
(lp223
(I17
I2
F-0.625
S'light'
p224
tp225
a(I119
I5
F0.125
S'practical'
p226
tp227
a(I119
I5
F0.625
S'easy'
p228
tp229
a(I119
I5
F0.25
S'powerful'
p230
tp231
a(I173
I10
I0
S'capacitive'
p232
tp233
a(I200
I5
F0.625
S'eager'
p234
tp235
a(I300
I1
F0.125
S'digital'
p236
tp237
a(I319
I7
I0
S'same'
p238
tp239
a(I338
I2
I0
S'buggy'
p240
tp241
a(I338
I2
I0
S'third'
p242
tp243
a(I363
I8
I0
S'great'
p244
tp245
a(I442
I30
F-0.75
S'single'
p246
tp247
a(I456
I1
I0
S'fast'
p248
tp249
a(I456
I1
I0
S'rapid'
p250
tp251
a(I468
I2
I0
S'capacitive'
p252
tp253
a(I584
I1
I0
S'sensitive'
p254
tp255
a(I669
I1
I0
S'capacitive'
p256
tp257
a(I757
I5
F-0.625
S'other'
p258
tp259
a(I757
I5
I0
S'capacitive'
p260
tp261
a(I773
I0
F-0.625
S'bad'
p262
tp263
a(I831
I78
F0.25
S'adaptive'
p264
tp265
a(I858
I2
F-0.875
S'harder'
p266
tp267
as(S'operating'
p268
S'system'
p269
tp270
(lp271
(I134
I2
F0.375
S'new'
p272
tp273
a(I136
I4
F-0.125
S'overall'
p274
tp275
a(I136
I4
I0
S'stable'
p276
tp277
a(I176
I43
F1.0
S'better'
p278
tp279
a(I209
I7
I0
S'fastest'
p280
tp281
a(I229
I71
F0.375
S'new'
p282
tp283
a(I231
I7
F0.5
S'whole'
p284
tp285
a(I253
I2
F-0.875
S'worst'
p286
tp287
a(I341
I2
F-0.375
S'unstable'
p288
tp289
a(I347
I0
F1.0
S'best'
p290
tp291
a(I350
I2
F-0.375
S'simpler'
p292
tp293
a(I430
I1
F-0.5
S'poor'
p294
tp295
a(I556
I8
I0
S'such'
p296
tp297
a(I582
I6
I0
S'update'
p298
tp299
a(I587
I1
F1.0
S'good'
p300
tp301
a(I640
I2
I0
S'current'
p302
tp303
a(I760
I10
F-0.25
S'epic'
p304
tp305
a(I760
I10
F-0.625
S'other'
p306
tp307
a(I762
I2
F-0.625
S'other'
p308
tp309
a(I792
I11
F-0.125
S'slow'
p310
tp311
as(S'quality'
p312
tp313
(lp314
(I3
I0
I0
S'high'
p315
tp316
a(I12
I1
F1.0
g159
tp317
a(I18
I2
I0
g161
tp318
a(I18
I16
F0.125
S'last'
p319
tp320
a(I52
I0
F0.625
g165
tp321
a(I72
I5
F-0.625
S'bad'
p322
tp323
a(I72
I7
F-0.625
S'bad'
p324
tp325
a(I75
I2
I0
S'high'
p326
tp327
a(I77
I1
I0
S'high'
p328
tp329
a(I90
I29
I0
S'unbelievable'
p330
tp331
a(I98
I6
F0.625
S'noticeable'
p332
tp333
a(I101
I3
F0.625
S'delight'
p334
tp335
a(I118
I1
F1.0
S'good'
p336
tp337
a(I139
I0
I0
S'same'
p338
tp339
a(I141
I2
I0
S'high'
p340
tp341
a(I142
I3
I0
S'great'
p342
tp343
a(I145
I0
I0
S'close'
p344
tp345
a(I148
I10
I0
S'great'
p346
tp347
a(I154
I9
F1.0
S'good'
p348
tp349
a(I160
I0
I0
S'high'
p350
tp351
a(I170
I2
F1.0
S'good'
p352
tp353
a(I189
I15
F1.0
S'better'
p354
tp355
a(I201
I4
F1.0
S'good'
p356
tp357
a(I204
I1
F1.0
S'good'
p358
tp359
a(I205
I13
F1.0
g173
tp360
a(I239
I7
F1.0
S'best'
p361
tp362
a(I256
I6
F1.0
S'good'
p363
tp364
a(I260
I15
F1.0
S'good'
p365
tp366
a(I262
I6
F1.0
g175
tp367
a(I263
I5
F1.0
S'good'
p368
tp369
a(I279
I14
I0
S'pic'
p370
tp371
a(I279
I15
F0.375
S'similar'
p372
tp373
a(I290
I2
F1.0
S'good'
p374
tp375
a(I310
I1
F1.0
S'good'
p376
tp377
a(I310
I2
F1.0
S'good'
p378
tp379
a(I310
I3
F1.0
S'good'
p380
tp381
a(I311
I7
F1.0
S'good'
p382
tp383
a(I311
I7
F0.875
S'attractive'
p384
tp385
a(I311
I7
F0.5
S'whole'
p386
tp387
a(I313
I3
I0
g177
tp388
a(I317
I0
F1.0
S'good'
p389
tp390
a(I326
I1
F0.5
g179
tp391
a(I350
I6
I0
S'high'
p392
tp393
a(I354
I0
I0
S'high'
p394
tp395
a(I361
I0
F1.0
S'good'
p396
tp397
a(I361
I0
F0.75
S'give'
p398
tp399
a(I361
I0
F1.0
S'good'
p400
tp401
a(I369
I5
F-0.5
S'poor'
p402
tp403
a(I420
I10
I0
S'great'
p404
tp405
a(I434
I22
I0
S'high'
p406
tp407
a(I434
I22
F0.125
S'able'
p408
tp409
a(I482
I3
F0.25
S'powerful'
p410
tp411
a(I482
I3
I0
S'high'
p412
tp413
a(I484
I1
I0
g183
tp414
a(I485
I3
F1.0
g185
tp415
a(I503
I17
F1.0
S'good'
p416
tp417
a(I507
I1
I0
S'great'
p418
tp419
a(I538
I2
F1.0
S'good'
p420
tp421
a(I538
I4
F1.0
S'good'
p422
tp423
a(I546
I2
I0
g191
tp424
a(I546
I2
I0
g193
tp425
a(I556
I4
F-0.125
S'overall'
p426
tp427
a(I557
I0
F1.0
S'good'
p428
tp429
a(I557
I4
F0.5
S'rid'
p430
tp431
a(I558
I2
F1.0
g195
tp432
a(I565
I8
F1.0
S'best'
p433
tp434
a(I596
I0
I0
S'great'
p435
tp436
a(I605
I5
F1.0
S'good'
p437
tp438
a(I605
I5
F1.0
S'good'
p439
tp440
a(I613
I0
F1.0
S'good'
p441
tp442
a(I649
I8
F1.0
S'good'
p443
tp444
a(I676
I1
F1.0
S'good'
p445
tp446
a(I676
I2
F1.0
S'best'
p447
tp448
a(I682
I5
I0
S'high'
p449
tp450
a(I695
I2
F-0.625
S'clean'
p451
tp452
a(I730
I2
I0
g203
tp453
a(I730
I3
I0
S'high'
p454
tp455
a(I742
I2
F0.5
S'comparable'
p456
tp457
a(I742
I3
I0
S'high'
p458
tp459
a(I749
I18
F-0.25
S'higher'
p460
tp461
a(I756
I2
I0
S'high'
p462
tp463
a(I760
I33
F-0.25
S'higher'
p464
tp465
a(I761
I1
I0
S'close'
p466
tp467
a(I762
I14
F-0.5
S'poor'
p468
tp469
a(I762
I14
I0
S'same'
p470
tp471
a(I776
I8
I0
g207
tp472
a(I777
I21
I0
S'same'
p473
tp474
a(I790
I0
F1.0
S'best'
p475
tp476
a(I805
I8
F0.25
g211
tp477
a(I805
I8
F-0.625
g213
tp478
a(I805
I8
F-0.375
g215
tp479
a(I830
I13
F0.75
S'due'
p480
tp481
a(I846
I10
F1.0
S'good'
p482
tp483
a(I861
I0
I0
g219
tp484
as(S'features'
p485
tp486
(lp487
(I26
I0
F1.0
S'best'
p488
tp489
a(I34
I15
I0
S'many'
p490
tp491
a(I34
I15
I0
S'great'
p492
tp493
a(I57
I0
F0.375
S'new'
p494
tp495
a(I62
I0
F-0.625
S'other'
p496
tp497
a(I67
I11
F-0.375
S'simple'
p498
tp499
a(I75
I0
I0
S'incredible'
p500
tp501
a(I89
I0
I0
S'wish'
p502
tp503
a(I90
I47
F-0.75
S'unable'
p504
tp505
a(I90
I47
I0
S'most'
p506
tp507
a(I96
I5
I0
S'email'
p508
tp509
a(I96
I5
I0
S'upload'
p510
tp511
a(I96
I5
I0
S'pic'
p512
tp513
a(I97
I19
I0
S'such'
p514
tp515
a(I135
I37
F0.375
S'distinct'
p516
tp517
a(I141
I2
I0
S'such'
p518
tp519
a(I144
I1
F1.0
S'good'
p520
tp521
a(I147
I0
I0
S'mobile'
p522
tp523
a(I148
I21
F1.0
S'good'
p524
tp525
a(I148
I21
I0
S'such'
p526
tp527
a(I148
I22
I0
S'great'
p528
tp529
a(I149
I19
F1.0
S'good'
p530
tp531
a(I178
I5
F0.5
S'functional'
p532
tp533
a(I205
I0
I0
S'many'
p534
tp535
a(I207
I9
F0.375
S'new'
p536
tp537
a(I227
I1
F-0.625
S'other'
p538
tp539
a(I235
I8
F-0.625
S'other'
p540
tp541
a(I235
I8
F0.125
S'usual'
p542
tp543
a(I246
I5
F0.5
S'true'
p544
tp545
a(I257
I12
F1.0
S'best'
p546
tp547
a(I260
I3
I0
S'useful'
p548
tp549
a(I260
I26
F0.125
S'key'
p550
tp551
a(I266
I1
I0
S'few'
p552
tp553
a(I266
I1
F0.375
S'extra'
p554
tp555
a(I279
I15
F-0.5
S'sure'
p556
tp557
a(I279
I19
F-0.625
S'other'
p558
tp559
a(I285
I2
I0
S'basic'
p560
tp561
a(I301
I1
F-0.25
S'amazed'
p562
tp563
a(I301
I1
I0
S'many'
p564
tp565
a(I301
I3
F0.875
S'nice'
p566
tp567
a(I301
I7
F1.0
S'better'
p568
tp569
a(I301
I8
F-0.625
S'other'
p570
tp571
a(I301
I8
F0.875
S'nice'
p572
tp573
a(I317
I1
F1.0
S'good'
p574
tp575
a(I334
I1
I0
S'many'
p576
tp577
a(I334
I1
F0.25
S'powerful'
p578
tp579
a(I363
I6
F0.375
S'extra'
p580
tp581
a(I373
I1
I0
S'general'
p582
tp583
a(I377
I8
F1.0
S'best'
p584
tp585
a(I411
I1
I0
S'most'
p586
tp587
a(I425
I9
F-0.625
S'other'
p588
tp589
a(I442
I28
I0
S'update'
p590
tp591
a(I445
I6
I0
S'great'
p592
tp593
a(I449
I3
I0
S'more'
p594
tp595
a(I451
I6
F-0.625
S'other'
p596
tp597
a(I451
I6
F0.625
S'major'
p598
tp599
a(I492
I2
F0.125
S'enough'
p600
tp601
a(I520
I5
F-0.625
S'other'
p602
tp603
a(I551
I0
I0
S'many'
p604
tp605
a(I556
I8
I0
S'such'
p606
tp607
a(I559
I31
I0
S'great'
p608
tp609
a(I578
I4
F-0.625
S'free'
p610
tp611
a(I598
I18
I0
S'many'
p612
tp613
a(I602
I3
I0
S'great'
p614
tp615
a(I609
I6
F0.25
S'used'
p616
tp617
a(I616
I9
I0
S'coolest'
p618
tp619
a(I650
I1
I0
S'useful'
p620
tp621
a(I650
I6
I0
S'many'
p622
tp623
a(I650
I6
F-0.625
S'other'
p624
tp625
a(I674
I0
F1.0
S'good'
p626
tp627
a(I699
I2
I0
S'great'
p628
tp629
a(I705
I1
I0
S'great'
p630
tp631
a(I721
I15
I0
S'many'
p632
tp633
a(I721
I15
F-0.25
S'unaware'
p634
tp635
a(I723
I6
F-0.5
S'certain'
p636
tp637
a(I760
I3
I0
S'many'
p638
tp639
a(I760
I3
I0
S'useful'
p640
tp641
a(I793
I0
I0
S'great'
p642
tp643
a(I798
I1
I0
S'full'
p644
tp645
a(I801
I0
I0
S'great'
p646
tp647
a(I802
I1
I0
S'many'
p648
tp649
a(I831
I81
F-0.625
S'other'
p650
tp651
as(S'n'
p652
S'offline'
p653
S'mode'
p654
tp655
(lp656
(I322
I0
F-0.625
S'free'
p657
tp658
as(S'with'
p659
S'voice'
p660
S'navigation'
p661
tp662
(lp663
(I96
I15
F0.125
S'native'
p664
tp665
a(I148
I14
F1.0
S'good'
p666
tp667
a(I762
I1
F-0.625
S'free'
p668
tp669
as(S'from'
p670
S'ovi'
p671
S'store'
p672
tp673
(lp674
(I1
I8
F-0.75
S'unable'
p675
tp676
a(I368
I3
F-0.625
S'free'
p677
tp678
a(I773
I0
F-0.625
S'free'
p679
tp680
a(I844
I5
F0.375
S'much'
p681
tp682
as(S'c'
p683
S'aacute'
p684
S'mara'
p685
tp686
(lp687
(I763
I0
F0.5
S'personal'
p688
tp689
as(S'look'
p690
S'and'
p691
S'feel'
p692
tp693
(lp694
(I50
I0
F0.875
S'nice'
p695
tp696
a(I523
I9
I0
S'own'
p697
tp698
a(I670
I2
I0
S'great'
p699
tp700
a(I815
I1
I0
S'plastic'
p701
tp702
as(S'to'
p703
S'nokia'
p704
S'n8'
p705
tp706
(lp707
(I22
I0
F0.5
S'bought'
p708
tp709
a(I22
I5
F0.375
S'new'
p710
tp711
a(I22
I5
F-0.375
S'black'
p712
tp713
a(I24
I36
F0.375
S'proud'
p714
tp715
a(I72
I12
F0.25
S'diagnostic'
p716
tp717
a(I72
I20
F0.25
S'diagnostic'
p718
tp719
a(I106
I3
F-0.25
S'ready'
p720
tp721
a(I119
I2
I0
S'old'
p722
tp723
a(I119
I2
F0.375
S'new'
p724
tp725
a(I135
I4
I0
S'great'
p726
tp727
a(I135
I10
F1.0
S'good'
p728
tp729
a(I135
I13
F1.0
S'good'
p730
tp731
a(I135
I27
F-0.5
S'less'
p732
tp733
a(I135
I31
F1.0
S'best'
p734
tp735
a(I135
I31
F0.125
S'capable'
p736
tp737
a(I145
I0
F1.0
S'best'
p738
tp739
a(I145
I3
F-0.625
S'bad'
p740
tp741
a(I145
I3
I0
S'real'
p742
tp743
a(I145
I4
I0
S'operate'
p744
tp745
a(I150
I5
F1.0
S'best'
p746
tp747
a(I166
I0
I0
S'comprehensive'
p748
tp749
a(I180
I5
I0
S'more'
p750
tp751
a(I180
I5
I0
S'useful'
p752
tp753
a(I226
I0
I0
S'current'
p754
tp755
a(I228
I0
I0
S'blue'
p756
tp757
a(I247
I3
I0
S'current'
p758
tp759
a(I265
I0
F-0.75
S'comfortable'
p760
tp761
a(I285
I7
I0
S'french'
p762
tp763
a(I285
I7
F0.25
S'read'
p764
tp765
a(I288
I0
F1.0
S'best'
p766
tp767
a(I288
I0
F0.125
S'first'
p768
tp769
a(I299
I8
F1.0
S'best'
p770
tp771
a(I299
I8
F-0.125
S'present'
p772
tp773
a(I311
I10
F0.125
S'impressive'
p774
tp775
a(I326
I2
F0.75
S'due'
p776
tp777
a(I326
I2
F0.875
S'nice'
p778
tp779
a(I326
I2
F0.5
S'belle'
p780
tp781
a(I372
I0
F0.375
S'new'
p782
tp783
a(I404
I1
I0
S'such'
p784
tp785
a(I409
I3
F-0.5
S'less'
p786
tp787
a(I427
I2
I0
S'latest'
p788
tp789
a(I432
I3
F0.375
S'available'
p790
tp791
a(I432
I3
F-0.5
S'international'
p792
tp793
a(I434
I11
F-0.25
S'disappointed'
p794
tp795
a(I434
I11
F0.5
S'willing'
p796
tp797
a(I441
I10
I0
S'fast'
p798
tp799
a(I441
I10
F0.25
S'responsive'
p800
tp801
a(I441
I10
F-0.625
S'other'
p802
tp803
a(I441
I10
I0
S'more'
p804
tp805
a(I447
I0
F0.125
S'first'
p806
tp807
a(I447
I5
F0.125
S'capable'
p808
tp809
a(I447
I5
F-0.25
S'substitute'
p810
tp811
a(I470
I0
I0
S'least'
p812
tp813
a(I482
I8
I0
S'many'
p814
tp815
a(I482
I8
I0
S'great'
p816
tp817
a(I482
I8
I0
S'such'
p818
tp819
a(I484
I0
F-0.75
S'wrong'
p820
tp821
a(I484
I3
F0.5
S'rid'
p822
tp823
a(I497
I0
I0
S'latest'
p824
tp825
a(I523
I7
F0.25
S'gear'
p826
tp827
a(I571
I0
F0.375
S'new'
p828
tp829
a(I571
I0
F-0.875
S'load'
p830
tp831
a(I571
I0
I0
S'needed'
p832
tp833
a(I578
I2
F-0.625
S'free'
p834
tp835
a(I604
I3
F1.0
S'best'
p836
tp837
a(I604
I15
F0.375
S'available'
p838
tp839
a(I604
I18
F-0.375
S'disable'
p840
tp841
a(I621
I10
F0.5
S'patient'
p842
tp843
a(I629
I0
F0.75
S'receive'
p844
tp845
a(I633
I2
F-0.625
S'other'
p846
tp847
a(I685
I0
F0.375
S'new'
p848
tp849
a(I685
I0
F-0.25
S'disappointed'
p850
tp851
a(I734
I16
I0
S'website'
p852
tp853
a(I735
I1
F1.0
S'good'
p854
tp855
a(I735
I1
I0
S'great'
p856
tp857
a(I797
I3
F1.0
S'good'
p858
tp859
a(I811
I2
F0.125
S'able'
p860
tp861
a(I832
I5
I0
S'more'
p862
tp863
a(I842
I32
I0
S'current'
p864
tp865
a(I842
I33
I0
S'third'
p866
tp867
a(I842
I33
F0.25
S'original'
p868
tp869
a(I850
I4
F-0.75
S'wrong'
p870
tp871
as(S'excellent'
p872
tp873
(lp874
(I299
I1
I0
S'impress'
p875
tp876
a(I422
I6
F0.5
S'whole'
p877
tp878
a(I520
I1
F-0.75
S'plain'
p879
tp880
a(I703
I1
F0.875
S'important'
p881
tp882
a(I832
I47
F0.375
S'reliable'
p883
tp884
as(S'store'
p885
tp886
(lp887
(I25
I11
F0.125
S'further'
p888
tp889
a(I47
I9
F0.625
S'kind'
p890
tp891
a(I47
I9
F0.25
S'helpful'
p892
tp893
a(I68
I1
F-0.5
S'less'
p894
tp895
a(I158
I10
I0
S'full'
p896
tp897
a(I296
I23
I0
S'android'
p898
tp899
a(I296
I23
F1.0
S'good'
p900
tp901
a(I333
I3
F-0.5
S'complaint'
p902
tp903
a(I366
I5
F-0.75
S'unable'
p904
tp905
a(I368
I3
F-0.625
g677
tp906
a(I391
I12
I0
S'android'
p907
tp908
a(I497
I3
I0
S'big'
p909
tp910
a(I510
I4
F0.375
S'content'
p911
tp912
a(I569
I0
F-0.667
S'incompatible'
p913
tp914
a(I580
I44
I0
S'useful'
p915
tp916
a(I727
I6
F0.375
S'available'
p917
tp918
a(I734
I11
I0
S'full'
p919
tp920
a(I757
I8
F1.0
S'good'
p921
tp922
a(I757
I8
F0.125
S'enough'
p923
tp924
a(I808
I7
F1.0
S'good'
p925
tp926
a(I815
I22
F1.0
S'best'
p927
tp928
a(I829
I1
F1.0
S'best'
p929
tp930
as(S'to'
p931
S'symbian'
p932
S'anna'
p933
tp934
(lp935
(I134
I7
F0.375
S'new'
p936
tp937
a(I442
I33
F0.375
S'new'
p938
tp939
a(I486
I0
F0.375
S'new'
p940
tp941
a(I593
I3
I0
S'current'
p942
tp943
as(S'software'
p944
tp945
(lp946
(I15
I9
F0.375
S'complete'
p947
tp948
a(I15
I9
F0.5
S'functional'
p949
tp950
a(I44
I3
F-0.125
S'slow'
p951
tp952
a(I60
I1
F0.375
S'new'
p953
tp954
a(I77
I30
F-0.625
S'free'
p955
tp956
a(I90
I7
I0
S'website'
p957
tp958
a(I90
I7
I0
S'reinstall'
p959
tp960
a(I124
I3
F1.0
S'good'
p961
tp962
a(I173
I5
I0
S'more'
p963
tp964
a(I258
I14
I0
S'update'
p965
tp966
a(I260
I4
F0.75
S'wonder'
p967
tp968
a(I260
I36
I0
S'specific'
p969
tp970
a(I282
I5
F-0.5
S'less'
p971
tp972
a(I296
I24
F1.0
S'better'
p973
tp974
a(I296
I24
F-0.125
S'future'
p975
tp976
a(I333
I0
F1.0
S'good'
p977
tp978
a(I366
I156
F-0.875
S'worst'
p979
tp980
a(I422
I1
F0.625
S'major'
p981
tp982
a(I458
I8
F0.375
S'new'
p983
tp984
a(I458
I8
I0
S'such'
p985
tp986
a(I497
I2
I0
S'large'
p987
tp988
a(I521
I3
F0.125
S'first'
p989
tp990
a(I552
I13
F0.25
S'original'
p991
tp992
a(I559
I27
F0.125
S'first'
p993
tp994
a(I560
I0
I0
S'signal'
p995
tp996
a(I560
I0
I0
S'latest'
p997
tp998
a(I601
I2
F0.875
S'nice'
p999
tp1000
a(I649
I12
F0.375
S'new'
p1001
tp1002
a(I668
I0
F0.625
S'easy'
p1003
tp1004
a(I676
I5
F-0.125
S'complex'
p1005
tp1006
a(I676
I5
F-0.375
S'simple'
p1007
tp1008
a(I676
I8
F-0.125
S'complex'
p1009
tp1010
a(I760
I38
F0.625
S'major'
p1011
tp1012
a(I776
I26
I0
S'same'
p1013
tp1014
a(I776
I26
F-0.5
S'heavy'
p1015
tp1016
a(I810
I6
F0.25
S'recent'
p1017
tp1018
a(I816
I1
I0
S'mac'
p1019
tp1020
a(I816
I1
F-0.75
S'nonfunctional'
p1021
tp1022
a(I846
I30
F0.375
S'much'
p1023
tp1024
as(S'nokia'
p1025
tp1026
(lp1027
(I1
I14
F0.125
S'last'
p1028
tp1029
a(I15
I6
I0
S'website'
p1030
tp1031
a(I18
I1
F1.0
S'best'
p1032
tp1033
a(I22
I0
F0.5
g708
tp1034
a(I29
I0
F-0.625
S'other'
p1035
tp1036
a(I29
I0
I0
S'same'
p1037
tp1038
a(I47
I9
I0
S'local'
p1039
tp1040
a(I52
I2
I0
S'big'
p1041
tp1042
a(I70
I0
F-0.75
S'short'
p1043
tp1044
a(I71
I5
F0.125
S'last'
p1045
tp1046
a(I72
I20
F0.25
g718
tp1047
a(I73
I0
F0.375
S'new'
p1048
tp1049
a(I77
I11
F0.375
S'available'
p1050
tp1051
a(I77
I22
F-0.5
S'sure'
p1052
tp1053
a(I79
I7
I0
S'many'
p1054
tp1055
a(I83
I2
F0.375
S'confident'
p1056
tp1057
a(I92
I3
I0
S'more'
p1058
tp1059
a(I92
I3
I0
S'more'
p1060
tp1061
a(I101
I0
F0.375
S'new'
p1062
tp1063
a(I106
I3
F-0.25
g720
tp1064
a(I111
I0
I0
S'least'
p1065
tp1066
a(I111
I2
F0.875
S'happy'
p1067
tp1068
a(I113
I5
I0
S'more'
p1069
tp1070
a(I117
I1
I0
S'few'
p1071
tp1072
a(I117
I1
F-0.625
S'other'
p1073
tp1074
a(I119
I2
I0
g722
tp1075
a(I119
I2
F0.375
g724
tp1076
a(I119
I5
F-0.75
S'wrong'
p1077
tp1078
a(I120
I16
F-0.5
S'sure'
p1079
tp1080
a(I125
I0
F0.875
S'happy'
p1081
tp1082
a(I125
I0
F0.125
S'first'
p1083
tp1084
a(I125
I0
F0.375
S'new'
p1085
tp1086
a(I135
I4
I0
g726
tp1087
a(I135
I10
F1.0
g728
tp1088
a(I135
I31
F1.0
g734
tp1089
a(I139
I6
F0.25
S'helpful'
p1090
tp1091
a(I145
I0
F1.0
g738
tp1092
a(I145
I3
I0
g742
tp1093
a(I148
I23
I0
S'same'
p1094
tp1095
a(I149
I17
F0.375
S'available'
p1096
tp1097
a(I149
I17
F0.5
S'true'
p1098
tp1099
a(I150
I5
F1.0
g746
tp1100
a(I154
I11
F-0.625
S'other'
p1101
tp1102
a(I159
I0
F-0.25
S'direct'
p1103
tp1104
a(I176
I2
F0.125
S'last'
p1105
tp1106
a(I176
I42
F0.125
S'last'
p1107
tp1108
a(I188
I1
F0.125
S'able'
p1109
tp1110
a(I193
I2
F0.125
S'last'
p1111
tp1112
a(I200
I9
F0.5
S'belle'
p1113
tp1114
a(I207
I23
F-0.625
S'free'
p1115
tp1116
a(I217
I6
F-0.625
S'bad'
p1117
tp1118
a(I228
I0
I0
g756
tp1119
a(I229
I71
I0
S'such'
p1120
tp1121
a(I235
I16
F0.375
S'reliable'
p1122
tp1123
a(I239
I5
F-0.125
S'future'
p1124
tp1125
a(I243
I4
F1.0
S'best'
p1126
tp1127
a(I246
I0
F1.0
S'best'
p1128
tp1129
a(I247
I3
I0
g758
tp1130
a(I258
I3
I0
S'few'
p1131
tp1132
a(I260
I13
F0.125
S'typical'
p1133
tp1134
a(I260
I14
F0.125
S'profile'
p1135
tp1136
a(I261
I13
F-0.25
S'late'
p1137
tp1138
a(I264
I4
I0
S'standard'
p1139
tp1140
a(I265
I0
F-0.75
g760
tp1141
a(I265
I9
F0.75
S'due'
p1142
tp1143
a(I270
I6
F0.875
S'happy'
p1144
tp1145
a(I272
I1
F-0.625
S'other'
p1146
tp1147
a(I280
I0
F0.5
S'technical'
p1148
tp1149
a(I285
I7
I0
g762
tp1150
a(I285
I7
F0.25
g764
tp1151
a(I288
I0
F1.0
g766
tp1152
a(I290
I3
I0
S'next'
p1153
tp1154
a(I294
I0
F-0.75
S'likely'
p1155
tp1156
a(I296
I16
I0
S'standard'
p1157
tp1158
a(I296
I16
F1.0
S'good'
p1159
tp1160
a(I299
I3
I0
S'many'
p1161
tp1162
a(I299
I3
F-0.875
S'hard'
p1163
tp1164
a(I299
I8
F1.0
g770
tp1165
a(I299
I8
F-0.125
g772
tp1166
a(I305
I0
F-0.25
S'past'
p1167
tp1168
a(I305
I3
I0
S'old'
p1169
tp1170
a(I311
I4
I0
S'february'
p1171
tp1172
a(I311
I10
F0.125
g774
tp1173
a(I313
I0
I0
S'more'
p1174
tp1175
a(I319
I3
F0.125
S'supplied'
p1176
tp1177
a(I326
I2
F0.75
g776
tp1178
a(I326
I2
F0.875
g778
tp1179
a(I326
I2
F0.5
g780
tp1180
a(I333
I1
I0
S'instant'
p1181
tp1182
a(I341
I1
F-0.625
S'other'
p1183
tp1184
a(I341
I7
F0.875
S'music'
p1185
tp1186
a(I348
I6
F-0.125
S'opposite'
p1187
tp1188
a(I348
I7
I0
S'more'
p1189
tp1190
a(I360
I4
F-0.625
S'free'
p1191
tp1192
a(I360
I7
F0.5
S'touch'
p1193
tp1194
a(I366
I56
I0
S'old'
p1195
tp1196
a(I366
I154
I0
S'old'
p1197
tp1198
a(I366
I161
F1.0
S'good'
p1199
tp1200
a(I366
I165
I0
S'most'
p1201
tp1202
a(I366
I165
F0.25
S'familiar'
p1203
tp1204
a(I366
I176
F0.125
S'last'
p1205
tp1206
a(I372
I0
F0.375
g782
tp1207
a(I373
I0
F1.0
S'good'
p1208
tp1209
a(I376
I33
F0.875
S'happy'
p1210
tp1211
a(I377
I19
I0
S'limited'
p1212
tp1213
a(I381
I7
F0.625
S'successful'
p1214
tp1215
a(I391
I10
F1.0
S'better'
p1216
tp1217
a(I391
I35
F-0.25
S'modern'
p1218
tp1219
a(I400
I0
F-0.75
S'dead'
p1220
tp1221
a(I400
I0
F0.625
S'perfect'
p1222
tp1223
a(I420
I10
F-0.625
S'other'
p1224
tp1225
a(I427
I2
I0
g788
tp1226
a(I435
I10
F-0.125
S'overall'
p1227
tp1228
a(I441
I10
I0
g804
tp1229
a(I442
I7
F0.875
S'important'
p1230
tp1231
a(I451
I0
F0.5
S'loyal'
p1232
tp1233
a(I457
I0
F0.875
S'happy'
p1234
tp1235
a(I458
I11
F-0.75
S'incapable'
p1236
tp1237
a(I462
I1
F0.125
S'first'
p1238
tp1239
a(I462
I2
F-0.625
S'bankrupt'
p1240
tp1241
a(I476
I8
I0
S'fanatic'
p1242
tp1243
a(I482
I0
F0.125
S'last'
p1244
tp1245
a(I482
I1
F0.125
S'typical'
p1246
tp1247
a(I482
I8
I0
g814
tp1248
a(I482
I8
I0
g816
tp1249
a(I482
I8
I0
g818
tp1250
a(I484
I0
F-0.75
g820
tp1251
a(I484
I3
F0.5
g822
tp1252
a(I503
I9
I0
S'website'
p1253
tp1254
a(I503
I10
F0.375
S'new'
p1255
tp1256
a(I504
I2
F-0.75
S'wrong'
p1257
tp1258
a(I513
I2
I0
S'social'
p1259
tp1260
a(I515
I0
F0.5
S'touch'
p1261
tp1262
a(I542
I52
I0
S'old'
p1263
tp1264
a(I543
I6
I0
S'wish'
p1265
tp1266
a(I545
I0
F1.0
S'best'
p1267
tp1268
a(I552
I7
F0.125
S'native'
p1269
tp1270
a(I571
I0
F-0.875
g830
tp1271
a(I571
I0
I0
g832
tp1272
a(I578
I2
F-0.625
g834
tp1273
a(I580
I9
F0.125
S'typical'
p1274
tp1275
a(I580
I29
F0.625
S'aware'
p1276
tp1277
a(I582
I8
I0
S'install'
p1278
tp1279
a(I584
I0
F1.0
S'best'
p1280
tp1281
a(I598
I0
I0
S'only'
p1282
tp1283
a(I598
I17
I0
S'download'
p1284
tp1285
a(I598
I17
I0
S'install'
p1286
tp1287
a(I601
I0
I0
S'old'
p1288
tp1289
a(I601
I0
F0.375
S'new'
p1290
tp1291
a(I603
I2
F1.0
S'best'
p1292
tp1293
a(I604
I15
F0.375
g838
tp1294
a(I604
I18
F-0.375
g840
tp1295
a(I616
I18
I0
S'more'
p1296
tp1297
a(I617
I0
F0.125
S'first'
p1298
tp1299
a(I617
I0
F0.5
S'loyal'
p1300
tp1301
a(I617
I0
I0
S'many'
p1302
tp1303
a(I617
I0
I0
S'different'
p1304
tp1305
a(I619
I1
F0.375
S'new'
p1306
tp1307
a(I624
I0
I0
S'blue'
p1308
tp1309
a(I629
I0
F0.75
g844
tp1310
a(I629
I1
F1.0
S'best'
p1311
tp1312
a(I633
I2
F-0.625
g846
tp1313
a(I633
I4
F0.25
S'familiar'
p1314
tp1315
a(I633
I8
I0
S'great'
p1316
tp1317
a(I662
I0
F0.5
S'second'
p1318
tp1319
a(I662
I0
F0.125
S'first'
p1320
tp1321
a(I662
I6
F1.0
S'good'
p1322
tp1323
a(I663
I8
F-0.75
S'sad'
p1324
tp1325
a(I664
I10
I0
S'february'
p1326
tp1327
a(I698
I0
F-0.889
S'unfortunate'
p1328
tp1329
a(I709
I1
F0.875
S'happy'
p1330
tp1331
a(I721
I26
F0.125
S'able'
p1332
tp1333
a(I722
I5
F0.5
S'loyal'
p1334
tp1335
a(I723
I0
F0.125
S'first'
p1336
tp1337
a(I723
I20
F0.125
S'last'
p1338
tp1339
a(I734
I16
I0
g852
tp1340
a(I735
I1
F1.0
g854
tp1341
a(I735
I1
I0
g856
tp1342
a(I742
I7
I0
S'great'
p1343
tp1344
a(I762
I0
F-0.5
S'longer'
p1345
tp1346
a(I762
I14
I0
S'imprinted'
p1347
tp1348
a(I765
I1
F0.125
S'last'
p1349
tp1350
a(I776
I25
F0.5
S'strong'
p1351
tp1352
a(I784
I3
F0.625
S'aware'
p1353
tp1354
a(I786
I7
F-0.625
S'other'
p1355
tp1356
a(I792
I2
F-0.25
S'disappointed'
p1357
tp1358
a(I795
I1
F0.375
S'new'
p1359
tp1360
a(I797
I2
F1.0
S'good'
p1361
tp1362
a(I797
I3
F1.0
g858
tp1363
a(I811
I2
F0.125
g860
tp1364
a(I831
I5
I0
S'blue'
p1365
tp1366
a(I831
I20
F-0.625
S'free'
p1367
tp1368
a(I831
I85
I0
S'wish'
p1369
tp1370
a(I832
I5
I0
g862
tp1371
a(I842
I33
F0.25
g868
tp1372
a(I850
I4
F-0.75
g870
tp1373
a(I857
I0
F0.5
S'second'
p1374
tp1375
a(I857
I40
I0
S'least'
p1376
tp1377
as(S'sim'
p1378
S'card'
p1379
tp1380
(lp1381
(I235
I9
F-0.5
S'regular'
p1382
tp1383
a(I264
I11
F-0.625
S'other'
p1384
tp1385
a(I339
I1
F0.375
S'new'
p1386
tp1387
a(I560
I0
I0
S'own'
p1388
tp1389
a(I605
I5
I0
S'sd'
p1390
tp1391
a(I643
I10
F0.25
S'original'
p1392
tp1393
a(I811
I2
I0
S'local'
p1394
tp1395
a(I831
I52
I0
S'standard'
p1396
tp1397
a(I831
I69
I0
S'standard'
p1398
tp1399
as(S'made'
p1400
g652
S'finland'
p1401
tp1402
(lp1403
(I412
I23
F0.125
S'first'
p1404
tp1405
a(I813
I2
F1.0
S'better'
p1406
tp1407
as(S'easy'
p1408
S'to'
p1409
S'use'
p1410
tp1411
(lp1412
(I187
I6
I0
S'only'
p1413
tp1414
a(I773
I0
I0
S'normal'
p1415
tp1416
as(S'good'
p1417
tp1418
(lp1419
(I1
I7
F0.125
S'first'
p1420
tp1421
a(I377
I19
I0
S'cyrillic'
p1422
tp1423
a(I821
I0
F0.875
S'happy'
p1424
tp1425
a(I857
I36
F0.25
S'familiar'
p1426
tp1427
a(I857
I36
F-0.625
S'bad'
p1428
tp1429
as(S'love'
p1430
tp1431
(lp1432
(I200
I3
F0.125
S'first'
p1433
tp1434
a(I751
I2
I0
S'instant'
p1435
tp1436
as(S'wifi'
p1437
tp1438
(lp1439
(I197
I3
F0.625
S'easy'
p1440
tp1441
a(I208
I5
F-0.125
S'present'
p1442
tp1443
a(I269
I2
I0
S'even'
p1444
tp1445
a(I552
I8
I0
S'own'
p1446
tp1447
a(I586
I6
I0
S'fast'
p1448
tp1449
a(I586
I6
F1.0
S'better'
p1450
tp1451
a(I599
I11
F0.375
S'available'
p1452
tp1453
a(I638
I2
F-0.625
S'free'
p1454
tp1455
a(I754
I10
F-0.5
S'vibrate'
p1456
tp1457
as(S'videos'
p1458
tp1459
(lp1460
(I135
I4
F1.0
S'good'
p1461
tp1462
a(I135
I4
F-0.5
S'less'
p1463
tp1464
a(I135
I4
F0.875
S'attractive'
p1465
tp1466
a(I176
I8
I0
S'many'
p1467
tp1468
a(I229
I31
I0
S'jerky'
p1469
tp1470
a(I394
I2
F-0.375
S'top'
p1471
tp1472
a(I408
I14
F0.125
S'able'
p1473
tp1474
a(I408
I16
I0
S'many'
p1475
tp1476
a(I650
I3
I0
S'great'
p1477
tp1478
a(I676
I6
F0.875
S'music'
p1479
tp1480
a(I721
I1
F0.875
S'music'
p1481
tp1482
a(I757
I10
F0.875
S'nice'
p1483
tp1484
a(I802
I1
I0
S'crisp'
p1485
tp1486
a(I831
I73
F1.0
S'best'
p1487
tp1488
a(I831
I74
I0
S'jerky'
p1489
tp1490
as(S'usb'
p1491
S'on'
p1492
S'go'
p1493
tp1494
(lp1495
(I26
I3
F0.5
S'drive'
p1496
tp1497
a(I75
I9
F0.5
S'drive'
p1498
tp1499
a(I197
I0
I0
S'cool'
p1500
tp1501
a(I575
I4
I0
S'handy'
p1502
tp1503
a(I643
I17
F0.125
S'able'
p1504
tp1505
as(S'times'
p1506
tp1507
(lp1508
(I47
I12
I0
S'few'
p1509
tp1510
a(I67
I7
F-0.125
S'slow'
p1511
tp1512
a(I75
I2
F0.25
S'bigger'
p1513
tp1514
a(I94
I1
I0
S'next'
p1515
tp1516
a(I145
I3
F1.0
S'good'
p1517
tp1518
a(I145
I3
I0
S'old'
p1519
tp1520
a(I173
I4
I0
S'few'
p1521
tp1522
a(I173
I5
F-0.125
S'complicated'
p1523
tp1524
a(I187
I5
I0
S'few'
p1525
tp1526
a(I207
I12
F-0.5
S'regular'
p1527
tp1528
a(I229
I23
F-0.5
S'sure'
p1529
tp1530
a(I232
I6
I0
S'faster'
p1531
tp1532
a(I255
I6
I0
S'few'
p1533
tp1534
a(I260
I14
I0
S'different'
p1535
tp1536
a(I329
I1
F-0.625
S'other'
p1537
tp1538
a(I366
I15
F-0.75
S'worse'
p1539
tp1540
a(I366
I93
F-0.5
S'less'
p1541
tp1542
a(I366
I106
F-0.5
S'less'
p1543
tp1544
a(I366
I106
F-0.5
S'less'
p1545
tp1546
a(I366
I106
F-0.25
S'google'
p1547
tp1548
a(I391
I26
I0
S'few'
p1549
tp1550
a(I451
I3
I0
S'few'
p1551
tp1552
a(I472
I6
F-0.75
S'cold'
p1553
tp1554
a(I472
I6
F-0.625
S'other'
p1555
tp1556
a(I489
I2
F-0.125
S'slow'
p1557
tp1558
a(I502
I7
F-0.75
S'unresponsive'
p1559
tp1560
a(I507
I6
F0.75
S'due'
p1561
tp1562
a(I524
I7
I0
S'more'
p1563
tp1564
a(I538
I8
I0
S'many'
p1565
tp1566
a(I552
I21
I0
S'many'
p1567
tp1568
a(I553
I0
I0
S'few'
p1569
tp1570
a(I564
I2
F-0.375
S'manual'
p1571
tp1572
a(I564
I2
I0
S'few'
p1573
tp1574
a(I643
I9
F-0.25
S'google'
p1575
tp1576
a(I643
I9
I0
S'least'
p1577
tp1578
a(I648
I0
I0
S'different'
p1579
tp1580
a(I691
I4
I0
S'few'
p1581
tp1582
a(I781
I14
F-0.5
S'long'
p1583
tp1584
a(I844
I1
F-0.625
S'other'
p1585
tp1586
a(I856
I2
F-0.125
S'slow'
p1587
tp1588
as(S'problem'
p1589
tp1590
(lp1591
(I15
I4
I0
S'common'
p1592
tp1593
a(I15
I8
F-0.75
S'worse'
p1594
tp1595
a(I15
I17
F0.5
S'gamble'
p1596
tp1597
a(I42
I1
I0
S'only'
p1598
tp1599
a(I42
I1
I0
S'exact'
p1600
tp1601
a(I47
I20
F-0.75
S'single'
p1602
tp1603
a(I50
I2
F0.625
S'major'
p1604
tp1605
a(I67
I7
I0
S'only'
p1606
tp1607
a(I81
I2
F-0.625
S'sorry'
p1608
tp1609
a(I82
I23
I0
S'update'
p1610
tp1611
a(I93
I2
I0
S'same'
p1612
tp1613
a(I93
I2
F-0.75
S'unable'
p1614
tp1615
a(I106
I0
F-0.375
S'serious'
p1616
tp1617
a(I176
I16
F0.125
S'first'
p1618
tp1619
a(I196
I12
I0
S'real'
p1620
tp1621
a(I205
I8
I0
S'same'
p1622
tp1623
a(I283
I2
I0
S'only'
p1624
tp1625
a(I285
I4
F0.25
S'biggest'
p1626
tp1627
a(I285
I5
I0
S'english'
p1628
tp1629
a(I285
I5
F0.25
S'forgive'
p1630
tp1631
a(I289
I2
I0
S'common'
p1632
tp1633
a(I306
I2
I0
S'same'
p1634
tp1635
a(I310
I6
I0
S'only'
p1636
tp1637
a(I316
I10
F0.375
S'interesting'
p1638
tp1639
a(I348
I7
I0
S'such'
p1640
tp1641
a(I348
I15
I0
S'big'
p1642
tp1643
a(I366
I36
I0
S'such'
p1644
tp1645
a(I366
I36
F-0.75
S'stupid'
p1646
tp1647
a(I366
I36
F-0.75
S'stupid'
p1648
tp1649
a(I374
I7
I0
S'same'
p1650
tp1651
a(I412
I10
F-0.625
S'inexcusable'
p1652
tp1653
a(I514
I2
F-0.375
S'serious'
p1654
tp1655
a(I523
I9
F0.75
S'due'
p1656
tp1657
a(I535
I1
I0
S'only'
p1658
tp1659
a(I580
I33
F0.75
S'due'
p1660
tp1661
a(I593
I3
I0
S'only'
p1662
tp1663
a(I593
I6
F-0.375
S'serious'
p1664
tp1665
a(I600
I2
I0
S'only'
p1666
tp1667
a(I609
I13
I0
S'big'
p1668
tp1669
a(I611
I1
I0
S'big'
p1670
tp1671
a(I664
I0
F0.25
S'main'
p1672
tp1673
a(I678
I1
I0
S'same'
p1674
tp1675
a(I682
I3
F0.625
S'major'
p1676
tp1677
a(I693
I1
I0
S'more'
p1678
tp1679
a(I699
I4
I0
S'such'
p1680
tp1681
a(I699
I7
F-0.375
S'simple'
p1682
tp1683
a(I717
I2
F0.125
S'first'
p1684
tp1685
a(I741
I1
I0
S'same'
p1686
tp1687
a(I750
I0
I0
S'same'
p1688
tp1689
a(I776
I10
F0.625
S'major'
p1690
tp1691
a(I842
I1
F0.25
S'familiar'
p1692
tp1693
a(I842
I3
I0
S'useful'
p1694
tp1695
as(S'camera'
p1696
S'and'
p1697
S'video'
p1698
tp1699
(lp1700
(I3
I0
F-0.125
S'delete'
p1701
tp1702
a(I69
I2
F-0.125
S'frontal'
p1703
tp1704
a(I69
I4
F-0.125
S'frontal'
p1705
tp1706
a(I134
I7
F-0.5
S'continuous'
p1707
tp1708
a(I134
I7
I0
S'phenomenal'
p1709
tp1710
a(I134
I7
I0
S'real'
p1711
tp1712
a(I135
I13
F0.5
S'second'
p1713
tp1714
a(I191
I4
F-0.625
S'free'
p1715
tp1716
a(I200
I9
F0.875
S'music'
p1717
tp1718
a(I200
I9
I0
S'great'
p1719
tp1720
a(I258
I8
I0
S'great'
p1721
tp1722
a(I260
I12
F1.0
S'good'
p1723
tp1724
a(I260
I62
F0.5
S'touch'
p1725
tp1726
a(I279
I15
F-0.5
S'sure'
p1727
tp1728
a(I279
I15
I0
S'great'
p1729
tp1730
a(I441
I13
F0.125
S'digital'
p1731
tp1732
a(I470
I0
F0.875
S'music'
p1733
tp1734
a(I484
I1
F1.0
S'better'
p1735
tp1736
a(I484
I1
F0.375
S'allow'
p1737
tp1738
a(I542
I70
F1.0
S'best'
p1739
tp1740
a(I556
I1
F0.125
g18
tp1741
a(I586
I11
I0
S'great'
p1742
tp1743
a(I609
I0
F0.25
S'powerful'
p1744
tp1745
a(I655
I19
F1.0
S'best'
p1746
tp1747
a(I682
I2
F-0.375
S'smaller'
p1748
tp1749
a(I728
I0
F1.0
S'best'
p1750
tp1751
a(I773
I0
F1.0
S'best'
p1752
tp1753
a(I850
I4
F1.0
S'best'
p1754
tp1755
as(S'penta'
p1756
S'band'
p1757
tp1758
(lp1759
(I575
I4
F0.125
S'first'
p1760
tp1761
as(S'maps'
p1762
tp1763
(lp1764
(I6
I11
I0
S'great'
p1765
tp1766
a(I12
I32
I0
S'great'
p1767
tp1768
a(I12
I33
F-0.25
S'google'
p1769
tp1770
a(I18
I11
F0.125
S'able'
p1771
tp1772
a(I18
I11
F-0.625
S'free'
p1773
tp1774
a(I18
I12
I0
S'great'
p1775
tp1776
a(I25
I11
F0.375
S'new'
p1777
tp1778
a(I31
I0
F0.625
S'easy'
p1779
tp1780
a(I90
I46
I0
S'caribbean'
p1781
tp1782
a(I90
I46
F0.375
S'available'
p1783
tp1784
a(I90
I48
F-0.25
S'google'
p1785
tp1786
a(I119
I2
I0
S'download'
p1787
tp1788
a(I119
I2
F0.625
S'easy'
p1789
tp1790
a(I137
I12
I0
S'more'
p1791
tp1792
a(I137
I12
F-0.25
S'google'
p1793
tp1794
a(I144
I3
F-0.625
S'free'
p1795
tp1796
a(I144
I3
F-0.625
S'free'
p1797
tp1798
a(I144
I3
I0
S'useful'
p1799
tp1800
a(I255
I5
I0
S'great'
p1801
tp1802
a(I321
I3
F-0.625
S'bad'
p1803
tp1804
a(I321
I3
F-0.5
S'less'
p1805
tp1806
a(I355
I8
F0.625
S'decent'
p1807
tp1808
a(I364
I1
F0.875
S'nice'
p1809
tp1810
a(I364
I1
F-0.25
S'google'
p1811
tp1812
a(I366
I109
F-0.25
S'google'
p1813
tp1814
a(I442
I24
F1.0
S'good'
p1815
tp1816
a(I458
I11
I0
S'wide'
p1817
tp1818
a(I458
I11
F-0.625
S'free'
p1819
tp1820
a(I458
I11
F-0.25
S'google'
p1821
tp1822
a(I468
I24
F-0.625
S'free'
p1823
tp1824
a(I472
I5
F1.0
S'better'
p1825
tp1826
a(I480
I8
F-0.625
S'free'
p1827
tp1828
a(I512
I4
I0
S'faster'
p1829
tp1830
a(I545
I2
F-0.25
S'google'
p1831
tp1832
a(I545
I2
F1.0
S'good'
p1833
tp1834
a(I545
I3
F-0.25
S'google'
p1835
tp1836
a(I604
I4
F0.75
S'due'
p1837
tp1838
a(I621
I0
F0.125
S'further'
p1839
tp1840
a(I659
I4
F-0.25
S'google'
p1841
tp1842
a(I757
I51
F0.25
S'sweet'
p1843
tp1844
a(I757
I54
I0
S'great'
p1845
tp1846
a(I760
I31
F-0.625
S'free'
p1847
tp1848
a(I762
I5
F-0.5
S'open'
p1849
tp1850
a(I776
I18
F-0.25
S'google'
p1851
tp1852
a(I781
I10
F-0.25
S'google'
p1853
tp1854
a(I785
I0
I0
S'great'
p1855
tp1856
a(I810
I4
I0
S'standard'
p1857
tp1858
a(I815
I25
F-0.25
S'google'
p1859
tp1860
a(I846
I10
F-0.25
S'google'
p1861
tp1862
as(S'need'
p1863
tp1864
(lp1865
(I187
I2
F0.375
S'new'
p1866
tp1867
a(I541
I1
F0.5
S'primary'
p1868
tp1869
as(S'going'
p1870
tp1871
(lp1872
(I590
I2
F0.875
S'music'
p1873
tp1874
as(S'sony'
p1875
S'ericsson'
p1876
tp1877
(lp1878
(I12
I18
I0
S'old'
p1879
tp1880
as(S'nokia'
p1881
S'n8'
p1882
tp1883
(lp1884
(I10
I0
F-0.75
S'dead'
p1885
tp1886
a(I22
I0
F0.5
g708
tp1887
a(I22
I5
F0.375
g710
tp1888
a(I22
I5
F-0.375
g712
tp1889
a(I24
I36
F0.375
g714
tp1890
a(I52
I2
I0
g1041
tp1891
a(I70
I0
F-0.75
g1043
tp1892
a(I70
I0
F-0.625
S'free'
p1893
tp1894
a(I70
I0
F0.375
S'extra'
p1895
tp1896
a(I71
I0
F-0.625
S'glad'
p1897
tp1898
a(I72
I12
F0.25
g716
tp1899
a(I72
I20
F0.25
g718
tp1900
a(I106
I3
F-0.25
g720
tp1901
a(I111
I4
F1.0
S'better'
p1902
tp1903
a(I119
I2
I0
g722
tp1904
a(I119
I2
F0.375
g724
tp1905
a(I121
I2
I0
S'shutdown'
p1906
tp1907
a(I121
I2
F0.375
S'similar'
p1908
tp1909
a(I125
I0
F0.875
g1081
tp1910
a(I125
I0
F0.125
g1083
tp1911
a(I125
I0
F0.375
g1085
tp1912
a(I130
I1
I0
S'great'
p1913
tp1914
a(I135
I4
I0
g726
tp1915
a(I135
I10
F1.0
g728
tp1916
a(I135
I13
F1.0
g730
tp1917
a(I135
I27
F-0.5
g732
tp1918
a(I135
I31
F1.0
g734
tp1919
a(I135
I31
F0.125
g736
tp1920
a(I145
I0
F1.0
g738
tp1921
a(I145
I3
F-0.625
g740
tp1922
a(I145
I3
I0
g742
tp1923
a(I145
I4
I0
g744
tp1924
a(I150
I5
F1.0
g746
tp1925
a(I166
I0
I0
g748
tp1926
a(I180
I5
I0
g750
tp1927
a(I180
I5
I0
g752
tp1928
a(I200
I9
I0
S'great'
p1929
tp1930
a(I200
I9
F0.5
g1113
tp1931
a(I226
I0
I0
g754
tp1932
a(I228
I0
I0
g756
tp1933
a(I246
I0
F1.0
g1128
tp1934
a(I247
I3
I0
g758
tp1935
a(I261
I10
I0
S'more'
p1936
tp1937
a(I265
I0
F-0.75
g760
tp1938
a(I270
I6
F0.875
g1144
tp1939
a(I285
I7
I0
g762
tp1940
a(I285
I7
F0.25
g764
tp1941
a(I287
I0
I0
S'high'
p1942
tp1943
a(I288
I0
F1.0
g766
tp1944
a(I288
I0
F0.125
g768
tp1945
a(I299
I8
F1.0
g770
tp1946
a(I299
I8
F-0.125
g772
tp1947
a(I311
I10
F0.125
g774
tp1948
a(I326
I2
F0.75
g776
tp1949
a(I326
I2
F0.875
g778
tp1950
a(I326
I2
F0.5
g780
tp1951
a(I330
I21
F1.0
S'best'
p1952
tp1953
a(I348
I7
I0
g1189
tp1954
a(I372
I0
F0.375
g782
tp1955
a(I376
I33
F0.875
g1210
tp1956
a(I404
I1
I0
g784
tp1957
a(I409
I3
F-0.5
g786
tp1958
a(I427
I2
I0
g788
tp1959
a(I432
I3
F0.375
g790
tp1960
a(I432
I3
F-0.5
g792
tp1961
a(I434
I11
F-0.25
g794
tp1962
a(I434
I11
F0.5
g796
tp1963
a(I441
I10
I0
g798
tp1964
a(I441
I10
F0.25
g800
tp1965
a(I441
I10
F-0.625
g802
tp1966
a(I441
I10
I0
g804
tp1967
a(I447
I0
F0.125
g806
tp1968
a(I447
I5
F0.125
g808
tp1969
a(I447
I5
F-0.25
g810
tp1970
a(I457
I0
F0.875
g1234
tp1971
a(I470
I0
I0
g812
tp1972
a(I476
I8
I0
g1242
tp1973
a(I476
I8
F0.125
S'last'
p1974
tp1975
a(I482
I8
I0
g814
tp1976
a(I482
I8
I0
g816
tp1977
a(I482
I8
I0
g818
tp1978
a(I484
I0
F-0.75
g820
tp1979
a(I484
I3
F0.5
g822
tp1980
a(I497
I0
I0
g824
tp1981
a(I523
I7
F0.25
g826
tp1982
a(I529
I3
I0
S'great'
p1983
tp1984
a(I571
I0
F0.375
g828
tp1985
a(I571
I0
F-0.875
g830
tp1986
a(I571
I0
I0
g832
tp1987
a(I578
I2
F-0.625
g834
tp1988
a(I601
I0
I0
g1288
tp1989
a(I601
I0
F0.375
g1290
tp1990
a(I604
I0
F1.0
S'best'
p1991
tp1992
a(I604
I3
F1.0
g836
tp1993
a(I604
I15
F0.375
g838
tp1994
a(I604
I18
F-0.375
g840
tp1995
a(I621
I10
F0.5
g842
tp1996
a(I624
I0
I0
g1308
tp1997
a(I629
I0
F0.75
g844
tp1998
a(I633
I2
F-0.625
g846
tp1999
a(I685
I0
F0.375
g848
tp2000
a(I685
I0
F-0.25
g850
tp2001
a(I709
I1
F0.875
g1330
tp2002
a(I709
I1
F0.375
S'new'
p2003
tp2004
a(I734
I16
I0
g852
tp2005
a(I735
I1
F1.0
g854
tp2006
a(I735
I1
I0
g856
tp2007
a(I742
I7
I0
g1343
tp2008
a(I795
I1
F0.375
g1359
tp2009
a(I797
I3
F1.0
g858
tp2010
a(I811
I2
F0.125
g860
tp2011
a(I831
I20
F-0.625
g1367
tp2012
a(I832
I5
I0
g862
tp2013
a(I842
I30
F-0.625
S'other'
p2014
tp2015
a(I842
I32
I0
g864
tp2016
a(I842
I33
I0
g866
tp2017
a(I842
I33
F0.25
g868
tp2018
a(I850
I4
F-0.75
g870
tp2019
a(I857
I0
F0.5
g1374
tp2020
as(S'great'
p2021
S'camera'
p2022
tp2023
(lp2024
(I3
I0
F-0.125
g1701
tp2025
a(I18
I16
I0
S'great'
p2026
tp2027
a(I56
I1
I0
S'great'
p2028
tp2029
a(I96
I11
I0
S'great'
p2030
tp2031
a(I148
I26
I0
S'great'
p2032
tp2033
a(I154
I1
F1.0
S'best'
p2034
tp2035
a(I178
I0
I0
S'great'
p2036
tp2037
a(I178
I9
I0
S'great'
p2038
tp2039
a(I199
I2
F0.625
g6
tp2040
a(I200
I9
I0
g1719
tp2041
a(I206
I0
I0
S'great'
p2042
tp2043
a(I229
I10
I0
S'great'
p2044
tp2045
a(I247
I2
I0
S'great'
p2046
tp2047
a(I247
I7
I0
S'great'
p2048
tp2049
a(I258
I8
I0
g1721
tp2050
a(I279
I15
F-0.5
g1727
tp2051
a(I279
I15
I0
g1729
tp2052
a(I285
I0
I0
S'great'
p2053
tp2054
a(I314
I1
I0
S'great'
p2055
tp2056
a(I340
I0
I0
g8
tp2057
a(I340
I0
F1.0
g10
tp2058
a(I341
I1
I0
S'great'
p2059
tp2060
a(I344
I4
I0
S'great'
p2061
tp2062
a(I347
I0
I0
S'great'
p2063
tp2064
a(I351
I1
I0
S'great'
p2065
tp2066
a(I364
I1
I0
S'great'
p2067
tp2068
a(I364
I1
F0.125
S'solid'
p2069
tp2070
a(I411
I2
F1.0
S'best'
p2071
tp2072
a(I434
I23
I0
S'great'
p2073
tp2074
a(I441
I13
F0.125
g1731
tp2075
a(I446
I1
I0
S'great'
p2076
tp2077
a(I446
I1
F0.125
S'digital'
p2078
tp2079
a(I446
I8
I0
S'great'
p2080
tp2081
a(I463
I7
F1.0
S'good'
p2082
tp2083
a(I473
I1
F1.0
g16
tp2084
a(I480
I3
F1.0
S'best'
p2085
tp2086
a(I484
I1
F1.0
g1735
tp2087
a(I513
I0
I0
S'great'
p2088
tp2089
a(I521
I1
I0
S'great'
p2090
tp2091
a(I542
I22
I0
S'great'
p2092
tp2093
a(I542
I70
F1.0
g1739
tp2094
a(I546
I0
I0
S'great'
p2095
tp2096
a(I560
I0
F1.0
S'good'
p2097
tp2098
a(I617
I5
I0
S'great'
p2099
tp2100
a(I618
I8
I0
S'great'
p2101
tp2102
a(I626
I0
I0
S'great'
p2103
tp2104
a(I684
I1
I0
S'great'
p2105
tp2106
a(I710
I1
I0
S'great'
p2107
tp2108
a(I732
I4
I0
S'great'
p2109
tp2110
a(I739
I4
I0
S'great'
p2111
tp2112
a(I740
I0
I0
S'great'
p2113
tp2114
a(I740
I13
I0
S'great'
p2115
tp2116
a(I749
I15
I0
S'great'
p2117
tp2118
a(I807
I0
I0
S'great'
p2119
tp2120
a(I831
I51
F0.125
S'first'
p2121
tp2122
a(I840
I0
I0
S'great'
p2123
tp2124
a(I852
I1
I0
S'great'
p2125
tp2126
as(S'a'
p2127
S'little'
p2128
S'bit'
p2129
tp2130
(lp2131
(I60
I1
F-0.75
S'little'
p2132
tp2133
a(I154
I2
F-0.375
S'unstable'
p2134
tp2135
a(I322
I0
F-0.75
S'little'
p2136
tp2137
a(I601
I1
I0
S'more'
p2138
tp2139
as(S'memory'
p2140
tp2141
(lp2142
(I70
I9
I0
S'graphic'
p2143
tp2144
a(I196
I31
I0
S'internal'
p2145
tp2146
a(I254
I9
F0.375
S'extra'
p2147
tp2148
a(I266
I7
I0
S'internal'
p2149
tp2150
a(I289
I13
I0
S'high'
p2151
tp2152
a(I301
I6
I0
S'internal'
p2153
tp2154
a(I301
I6
I0
S'more'
p2155
tp2156
a(I310
I7
F-0.625
S'free'
p2157
tp2158
a(I312
I2
I0
S'full'
p2159
tp2160
a(I313
I4
I0
S'more'
p2161
tp2162
a(I313
I4
F0.875
S'happy'
p2163
tp2164
a(I313
I4
F0.125
S'enough'
p2165
tp2166
a(I408
I15
I0
S'more'
p2167
tp2168
a(I408
I15
I0
S'external'
p2169
tp2170
a(I458
I10
F-0.75
S'impossible'
p2171
tp2172
a(I473
I1
I0
S'total'
p2173
tp2174
a(I492
I1
I0
S'internal'
p2175
tp2176
a(I543
I6
I0
S'more'
p2177
tp2178
a(I590
I1
I0
S'more'
p2179
tp2180
a(I590
I1
F0.125
S'enough'
p2181
tp2182
a(I599
I5
I0
S'internal'
p2183
tp2184
a(I604
I1
I0
S'internal'
p2185
tp2186
a(I662
I1
F0.375
S'extra'
p2187
tp2188
a(I734
I4
I0
S'full'
p2189
tp2190
a(I772
I7
I0
S'large'
p2191
tp2192
a(I777
I23
I0
S'large'
p2193
tp2194
a(I830
I3
I0
S'full'
p2195
tp2196
a(I831
I18
F0.375
S'extra'
p2197
tp2198
a(I854
I6
F0.375
S'similar'
p2199
tp2200
as(S'product'
p2201
tp2202
(lp2203
(I19
I0
I0
S'great'
p2204
tp2205
a(I83
I6
I0
S'same'
p2206
tp2207
a(I114
I1
I0
S'great'
p2208
tp2209
a(I131
I0
I0
S'great'
p2210
tp2211
a(I157
I6
I0
S'great'
p2212
tp2213
a(I223
I2
F0.875
S'nice'
p2214
tp2215
a(I223
I5
F0.875
S'nice'
p2216
tp2217
a(I223
I7
F0.875
S'nice'
p2218
tp2219
a(I223
I10
F0.875
S'nice'
p2220
tp2221
a(I223
I12
F0.875
S'nice'
p2222
tp2223
a(I223
I15
F0.875
S'nice'
p2224
tp2225
a(I247
I0
I0
S'great'
p2226
tp2227
a(I259
I2
I0
S'great'
p2228
tp2229
a(I263
I11
F0.875
S'happy'
p2230
tp2231
a(I300
I0
F1.0
S'good'
p2232
tp2233
a(I307
I0
F0.25
S'original'
p2234
tp2235
a(I309
I5
F0.375
S'much'
p2236
tp2237
a(I335
I0
F1.0
S'best'
p2238
tp2239
a(I353
I1
F1.0
S'good'
p2240
tp2241
a(I385
I0
F0.375
S'new'
p2242
tp2243
a(I386
I0
F1.0
S'good'
p2244
tp2245
a(I454
I0
F1.0
S'good'
p2246
tp2247
a(I465
I0
I0
S'great'
p2248
tp2249
a(I491
I3
I0
S'only'
p2250
tp2251
a(I556
I0
I0
S'great'
p2252
tp2253
a(I573
I1
I0
S'website'
p2254
tp2255
a(I592
I0
F-0.625
S'bad'
p2256
tp2257
a(I648
I2
F1.0
S'good'
p2258
tp2259
a(I699
I8
F-0.125
S'overall'
p2260
tp2261
a(I747
I3
I0
S'closest'
p2262
tp2263
a(I752
I0
I0
S'great'
p2264
tp2265
a(I753
I5
F0.5
S'clear'
p2266
tp2267
a(I820
I1
I0
S'great'
p2268
tp2269
a(I831
I85
F-0.875
S'negative'
p2270
tp2271
a(I832
I18
F0.625
S'superior'
p2272
tp2273
a(I832
I18
I0
S'most'
p2274
tp2275
a(I849
I1
F1.0
S'best'
p2276
tp2277
a(I852
I3
I0
S'great'
p2278
tp2279
as(S'right'
p2280
tp2281
(lp2282
(I456
I1
F-0.375
S'small'
p2283
tp2284
a(I472
I4
I0
S'very'
p2285
tp2286
a(I472
I4
F-0.375
S'top'
p2287
tp2288
a(I560
I0
F-0.625
S'free'
p2289
tp2290
a(I734
I4
F0.375
S'upper'
p2291
tp2292
as(S'belle'
p2293
tp2294
(lp2295
(I116
I4
I0
S'latest'
p2296
tp2297
a(I116
I6
I0
S'latest'
p2298
tp2299
a(I189
I2
I0
S'latest'
p2300
tp2301
a(I200
I6
F0.375
S'newer'
p2302
tp2303
a(I207
I15
F-0.625
S'free'
p2304
tp2305
a(I273
I18
I0
S'update'
p2306
tp2307
a(I295
I0
I0
S'latest'
p2308
tp2309
a(I350
I16
I0
S'update'
p2310
tp2311
a(I501
I2
I0
S'latest'
p2312
tp2313
a(I543
I10
I0
S'update'
p2314
tp2315
a(I583
I2
F-0.625
S'other'
p2316
tp2317
a(I598
I28
I0
S'most'
p2318
tp2319
a(I723
I5
F0.5
S'possible'
p2320
tp2321
a(I730
I2
F0.25
S'recent'
p2322
tp2323
a(I831
I82
F0.375
S'new'
p2324
tp2325
as(S'beta'
p2326
S'labs'
p2327
tp2328
(lp2329
(I437
I5
F1.0
S'better'
p2330
tp2331
as(S'12'
p2332
S'mp'
p2333
S'camera'
p2334
tp2335
(lp2336
(I23
I1
I0
S'more'
p2337
tp2338
a(I24
I6
F1.0
S'best'
p2339
tp2340
a(I69
I4
F-0.125
g1705
tp2341
a(I235
I6
F1.0
S'good'
p2342
tp2343
a(I320
I3
F-0.875
S'inferior'
p2344
tp2345
a(I340
I0
I0
g8
tp2346
a(I340
I0
F1.0
g10
tp2347
a(I390
I5
F1.0
g12
tp2348
a(I456
I1
F0.375
S'extra'
p2349
tp2350
a(I456
I1
F0.375
S'new'
p2351
tp2352
a(I473
I1
F1.0
g16
tp2353
a(I484
I1
F1.0
g1735
tp2354
a(I532
I0
F0.875
S'important'
p2355
tp2356
a(I556
I1
F0.125
g18
tp2357
a(I573
I1
F1.0
S'good'
p2358
tp2359
a(I573
I1
F0.125
S'digital'
p2360
tp2361
a(I590
I4
F0.625
S'finish'
p2362
tp2363
a(I640
I1
F1.0
S'best'
p2364
tp2365
a(I739
I4
I0
g2111
tp2366
a(I742
I1
I0
S'very'
p2367
tp2368
a(I742
I1
F0.125
S'impressive'
p2369
tp2370
a(I742
I1
F0.375
S'available'
p2371
tp2372
a(I773
I0
F1.0
g1752
tp2373
a(I836
I1
F0.125
S'able'
p2374
tp2375
a(I836
I1
F0.75
S'due'
p2376
tp2377
as(S'hardware'
p2378
tp2379
(lp2380
(I46
I17
F1.0
S'good'
p2381
tp2382
a(I47
I32
I0
S'great'
p2383
tp2384
a(I137
I17
F1.0
S'best'
p2385
tp2386
a(I146
I0
F0.125
S'spectacular'
p2387
tp2388
a(I146
I0
F0.375
S'much'
p2389
tp2390
a(I146
I0
F1.0
S'best'
p2391
tp2392
a(I206
I0
I0
S'rich'
p2393
tp2394
a(I257
I2
F1.0
S'best'
p2395
tp2396
a(I257
I6
F-0.5
S'less'
p2397
tp2398
a(I257
I6
F0.875
S'important'
p2399
tp2400
a(I257
I7
I0
S'great'
p2401
tp2402
a(I257
I7
F0.5
S'willing'
p2403
tp2404
a(I315
I0
I0
S'great'
p2405
tp2406
a(I315
I0
I0
S'stable'
p2407
tp2408
a(I329
I0
I0
S'great'
p2409
tp2410
a(I344
I4
F0.125
S'solid'
p2411
tp2412
a(I493
I1
F1.0
S'good'
p2413
tp2414
a(I503
I24
F0.75
S'worth'
p2415
tp2416
a(I507
I2
F-0.125
S'overall'
p2417
tp2418
a(I507
I2
F0.375
S'incomparable'
p2419
tp2420
a(I542
I5
I0
S'great'
p2421
tp2422
a(I552
I4
F1.0
S'good'
p2423
tp2424
a(I611
I0
I0
S'many'
p2425
tp2426
a(I611
I0
F0.875
S'happy'
p2427
tp2428
a(I635
I0
I0
S'incredible'
p2429
tp2430
a(I691
I14
I0
S'great'
p2431
tp2432
a(I751
I5
F0.75
S'beautiful'
p2433
tp2434
a(I761
I8
F1.0
S'best'
p2435
tp2436
a(I773
I0
F-0.25
S'grate'
p2437
tp2438
a(I781
I17
F0.5
S'second'
p2439
tp2440
a(I787
I10
F0.25
S'powerful'
p2441
tp2442
a(I845
I12
F1.0
S'good'
p2443
tp2444
a(I846
I22
I0
S'online'
p2445
tp2446
a(I846
I30
I0
S'great'
p2447
tp2448
as(S'flash'
p2449
tp2450
(lp2451
(I12
I8
F-0.5
S'weak'
p2452
tp2453
a(I135
I1
I0
S'full'
p2454
tp2455
a(I135
I2
I0
S'latest'
p2456
tp2457
a(I135
I2
I0
S'full'
p2458
tp2459
a(I137
I10
I0
S'incredible'
p2460
tp2461
a(I257
I11
I0
S'many'
p2462
tp2463
a(I260
I17
F0.5
S'drive'
p2464
tp2465
a(I264
I7
F-0.5
S'poor'
p2466
tp2467
a(I330
I8
I0
S'real'
p2468
tp2469
a(I366
I44
F-0.75
S'impossible'
p2470
tp2471
a(I366
I46
F-0.625
S'light'
p2472
tp2473
a(I367
I5
I0
S'real'
p2474
tp2475
a(I367
I5
F-0.625
S'light'
p2476
tp2477
a(I376
I9
I0
S'real'
p2478
tp2479
a(I432
I0
F0.5
S'functional'
p2480
tp2481
a(I442
I14
F1.0
S'good'
p2482
tp2483
a(I451
I1
I0
S'latest'
p2484
tp2485
a(I464
I0
I0
S'external'
p2486
tp2487
a(I464
I0
F0.5
S'drive'
p2488
tp2489
a(I543
I10
I0
S'current'
p2490
tp2491
a(I543
I11
F0.125
S'able'
p2492
tp2493
a(I575
I4
F0.5
S'drive'
p2494
tp2495
a(I609
I12
F0.375
S'much'
p2496
tp2497
a(I609
I12
F-0.625
S'light'
p2498
tp2499
a(I649
I11
I0
S'great'
p2500
tp2501
a(I649
I11
I0
S'red-eye'
p2502
tp2503
a(I649
I11
F-0.625
S'bad'
p2504
tp2505
a(I704
I0
F-0.625
S'light'
p2506
tp2507
a(I739
I5
I0
S'real'
p2508
tp2509
a(I760
I14
F1.0
S'best'
p2510
tp2511
a(I761
I1
F-0.25
S'lower'
p2512
tp2513
a(I842
I31
I0
S'full'
p2514
tp2515
a(I846
I17
F-0.75
S'bright'
p2516
tp2517
a(I863
I1
I0
S'great'
p2518
tp2519
as(S'hdmi'
p2520
tp2521
(lp2522
(I578
I2
F-0.5
S'regular'
p2523
tp2524
a(I578
I2
I0
S'cable'
p2525
tp2526
as(S'well'
p2527
tp2528
(lp2529
(I776
I35
I0
S'real'
p2530
tp2531
as(S'built'
p2532
g652
S'gps'
p2533
tp2534
(lp2535
(I40
I1
I0
S'only'
p2536
tp2537
a(I257
I22
F-0.625
S'free'
p2538
tp2539
a(I333
I2
I0
S'more'
p2540
tp2541
a(I420
I6
F0.25
S'helpful'
p2542
tp2543
a(I461
I7
F1.0
S'good'
p2544
tp2545
a(I510
I2
F0.375
S'reliable'
p2546
tp2547
a(I616
I44
I0
S'standard'
p2548
tp2549
as(S'video'
p2550
tp2551
(lp2552
(I18
I6
I0
S'great'
p2553
tp2554
a(I58
I2
I0
S'great'
p2555
tp2556
a(I87
I6
I0
S'great'
p2557
tp2558
a(I134
I7
F-0.5
g1707
tp2559
a(I135
I13
F0.5
g1713
tp2560
a(I173
I12
F1.0
S'good'
p2561
tp2562
a(I200
I9
F0.875
g1717
tp2563
a(I257
I11
F0.5
S'clear'
p2564
tp2565
a(I260
I10
F1.0
S'good'
p2566
tp2567
a(I260
I25
F1.0
S'good'
p2568
tp2569
a(I280
I0
F1.0
S'good'
p2570
tp2571
a(I359
I0
I0
S'incredible'
p2572
tp2573
a(I384
I0
F0.875
S'nice'
p2574
tp2575
a(I484
I1
F0.375
g1737
tp2576
a(I493
I4
F1.0
S'good'
p2577
tp2578
a(I586
I11
I0
g1742
tp2579
a(I655
I19
F1.0
g1746
tp2580
a(I760
I18
I0
S'more'
p2581
tp2582
a(I760
I18
F0.5
S'satisfactory'
p2583
tp2584
a(I802
I1
F0.125
S'composite'
p2585
tp2586
a(I802
I1
I0
S'cable'
p2587
tp2588
a(I836
I4
F-0.625
S'other'
p2589
tp2590
a(I841
I1
F1.0
S'good'
p2591
tp2592
a(I841
I1
F0.375
S'available'
p2593
tp2594
a(I842
I15
I0
S'great'
p2595
tp2596
as(g2127
S'long'
p2597
S'time'
p2598
tp2599
(lp2600
(I6
I25
F-0.5
S'long'
p2601
tp2602
a(I34
I7
F-0.5
S'long'
p2603
tp2604
a(I51
I7
F-0.5
S'long'
p2605
tp2606
a(I58
I14
F-0.5
S'long'
p2607
tp2608
a(I173
I21
F-0.5
S'long'
p2609
tp2610
a(I209
I19
F0.125
S'first'
p2611
tp2612
a(I241
I0
F-0.5
S'long'
p2613
tp2614
a(I376
I16
F-0.5
S'long'
p2615
tp2616
a(I468
I17
F-0.5
S'long'
p2617
tp2618
a(I473
I16
F-0.5
S'long'
p2619
tp2620
a(I482
I0
F-0.5
S'long'
p2621
tp2622
a(I573
I1
F0.125
S'first'
p2623
tp2624
a(I616
I33
F-0.5
S'long'
p2625
tp2626
a(I747
I0
F-0.5
S'long'
p2627
tp2628
a(I781
I27
F-0.5
S'long'
p2629
tp2630
a(I785
I0
I0
S'such'
p2631
tp2632
a(I785
I0
F-0.5
S'long'
p2633
tp2634
a(I826
I0
F0.125
S'fan'
p2635
tp2636
a(I844
I0
F-0.5
S'long'
p2637
tp2638
as(S'android'
p2639
tp2640
(lp2641
(I188
I1
F0.125
S'popular'
p2642
tp2643
a(I196
I36
F0.125
S'first'
p2644
tp2645
a(I260
I16
F-0.5
S'certain'
p2646
tp2647
a(I751
I1
I0
S'open-source'
p2648
tp2649
as(S'know'
p2650
tp2651
(lp2652
(I120
I20
F-0.125
S'slow'
p2653
tp2654
a(I420
I17
F0.375
S'new'
p2655
tp2656
as(S'voice'
p2657
tp2658
(lp2659
(I18
I13
I0
S'own'
p2660
tp2661
a(I47
I44
F-0.25
S'google'
p2662
tp2663
a(I96
I15
F0.125
g664
tp2664
a(I144
I1
I0
S'rubbish'
p2665
tp2666
a(I144
I2
I0
S'own'
p2667
tp2668
a(I148
I14
F1.0
g666
tp2669
a(I176
I31
I0
S'same'
p2670
tp2671
a(I229
I57
F-0.625
S'free'
p2672
tp2673
a(I329
I0
F0.5
S'clear'
p2674
tp2675
a(I366
I146
F0.375
S'new'
p2676
tp2677
a(I422
I4
F0.5
S'clear'
p2678
tp2679
a(I442
I25
F1.0
S'good'
p2680
tp2681
a(I456
I1
F-0.625
S'natural'
p2682
tp2683
a(I614
I5
F0.625
S'perfect'
p2684
tp2685
a(I739
I2
F-0.625
S'free'
p2686
tp2687
a(I762
I1
F-0.625
g668
tp2688
a(I777
I15
F-0.25
S'google'
p2689
tp2690
a(I786
I6
I0
S'great'
p2691
tp2692
a(I810
I5
I0
S'own'
p2693
tp2694
a(I832
I31
I0
S'same'
p2695
tp2696
a(I832
I43
I0
S'own'
p2697
tp2698
as(S'pros'
p2699
S'and'
p2700
S'cons'
p2701
tp2702
(lp2703
(I233
I6
I0
S'android'
p2704
tp2705
as(S'thing'
p2706
tp2707
(lp2708
(I11
I2
F-0.625
S'other'
p2709
tp2710
a(I25
I14
I0
S'same'
p2711
tp2712
a(I26
I2
F1.0
S'good'
p2713
tp2714
a(I37
I6
F-0.75
S'single'
p2715
tp2716
a(I50
I1
I0
S'only'
p2717
tp2718
a(I50
I1
F1.0
S'good'
p2719
tp2720
a(I77
I11
I0
S'only'
p2721
tp2722
a(I77
I11
F1.0
S'good'
p2723
tp2724
a(I79
I10
F-0.75
S'little'
p2725
tp2726
a(I79
I20
I0
S'next'
p2727
tp2728
a(I79
I20
I0
S'big'
p2729
tp2730
a(I154
I0
I0
S'many'
p2731
tp2732
a(I154
I0
F-0.625
S'other'
p2733
tp2734
a(I154
I0
F1.0
S'good'
p2735
tp2736
a(I154
I9
F-0.625
S'bad'
p2737
tp2738
a(I176
I23
F0.5
S'touch'
p2739
tp2740
a(I176
I23
F0.375
S'new'
p2741
tp2742
a(I196
I29
F1.0
S'good'
p2743
tp2744
a(I208
I5
F1.0
S'best'
p2745
tp2746
a(I229
I43
F-0.375
S'simple'
p2747
tp2748
a(I229
I43
F0.625
S'easy'
p2749
tp2750
a(I229
I52
F1.0
S'best'
p2751
tp2752
a(I231
I15
I0
S'only'
p2753
tp2754
a(I299
I3
F0.125
S'first'
p2755
tp2756
a(I308
I5
I0
S'many'
p2757
tp2758
a(I325
I0
F-0.875
S'worst'
p2759
tp2760
a(I348
I7
I0
S'only'
p2761
tp2762
a(I349
I4
F1.0
S'good'
p2763
tp2764
a(I366
I66
I0
S'same'
p2765
tp2766
a(I366
I121
F-0.75
S'stupid'
p2767
tp2768
a(I366
I151
F0.875
S'important'
p2769
tp2770
a(I374
I6
I0
S'only'
p2771
tp2772
a(I376
I15
I0
S'same'
p2773
tp2774
a(I424
I0
F1.0
S'best'
p2775
tp2776
a(I427
I1
I0
S'closest'
p2777
tp2778
a(I520
I6
I0
S'only'
p2779
tp2780
a(I565
I7
F-0.25
S'past'
p2781
tp2782
a(I573
I1
F-0.625
S'bad'
p2783
tp2784
a(I578
I0
F0.125
S'impressive'
p2785
tp2786
a(I578
I4
I0
S'only'
p2787
tp2788
a(I580
I23
I0
S'only'
p2789
tp2790
a(I594
I0
I0
S'only'
p2791
tp2792
a(I594
I0
F0.875
S'important'
p2793
tp2794
a(I616
I1
I0
S'more'
p2795
tp2796
a(I617
I4
F-0.625
S'light'
p2797
tp2798
a(I628
I3
I0
S'only'
p2799
tp2800
a(I628
I3
F-0.5
S'sure'
p2801
tp2802
a(I645
I5
F-0.625
S'other'
p2803
tp2804
a(I649
I6
I0
S'only'
p2805
tp2806
a(I662
I0
I0
S'only'
p2807
tp2808
a(I662
I6
F-0.625
S'other'
p2809
tp2810
a(I708
I4
I0
S'only'
p2811
tp2812
a(I710
I1
I0
S'only'
p2813
tp2814
a(I728
I0
I0
S'only'
p2815
tp2816
a(I735
I1
F1.0
S'best'
p2817
tp2818
a(I735
I1
F0.5
S'possible'
p2819
tp2820
a(I739
I3
F1.0
S'best'
p2821
tp2822
a(I749
I19
I0
S'only'
p2823
tp2824
a(I772
I9
I0
S'only'
p2825
tp2826
a(I774
I0
I0
S'only'
p2827
tp2828
a(I774
I0
F1.0
S'good'
p2829
tp2830
a(I815
I28
F0.125
S'last'
p2831
tp2832
a(I831
I51
I0
S'only'
p2833
tp2834
a(I831
I51
I0
S'weird'
p2835
tp2836
a(I842
I26
I0
S'weird'
p2837
tp2838
a(I842
I32
F0.125
S'last'
p2839
tp2840
a(I842
I34
F-0.625
S'other'
p2841
tp2842
a(I842
I34
F0.125
S'last'
p2843
tp2844
a(I846
I25
F1.0
S'good'
p2845
tp2846
as(S'web'
p2847
S'browser'
p2848
tp2849
(lp2850
(I46
I10
F-0.625
S'bad'
p2851
tp2852
a(I79
I14
I0
S'standard'
p2853
tp2854
a(I90
I54
F0.125
S'impressive'
p2855
tp2856
a(I289
I9
F1.0
S'good'
p2857
tp2858
a(I464
I13
I0
S'user'
p2859
tp2860
a(I468
I3
F0.375
S'available'
p2861
tp2862
a(I468
I3
F-0.625
S'free'
p2863
tp2864
a(I472
I0
F1.0
S'good'
p2865
tp2866
a(I517
I19
F-0.125
S'super'
p2867
tp2868
a(I517
I19
F-0.125
S'slow'
p2869
tp2870
a(I520
I7
I0
S'basic'
p2871
tp2872
a(I520
I7
F0.625
S'easy'
p2873
tp2874
a(I602
I3
F1.0
S'better'
p2875
tp2876
a(I604
I15
F0.875
S'nice'
p2877
tp2878
a(I629
I5
F1.0
S'better'
p2879
tp2880
a(I629
I6
F0.375
S'new'
p2881
tp2882
a(I721
I3
I0
S'great'
p2883
tp2884
a(I739
I1
I0
S'great'
p2885
tp2886
as(S'point'
p2887
S'and'
p2888
S'shoot'
p2889
tp2890
(lp2891
(I545
I0
I0
S'most'
p2892
tp2893
a(I652
I0
I0
S'great'
p2894
tp2895
a(I757
I11
F1.0
S'good'
p2896
tp2897
as(S'data'
p2898
tp2899
(lp2900
(I24
I17
I0
S'mobile'
p2901
tp2902
a(I24
I18
I0
S'current'
p2903
tp2904
a(I96
I5
F-0.25
S'low'
p2905
tp2906
a(I256
I3
I0
S'signal'
p2907
tp2908
a(I258
I6
I0
S'own'
p2909
tp2910
a(I258
I6
F-0.25
S'nightmare'
p2911
tp2912
a(I258
I22
F1.0
S'better'
p2913
tp2914
a(I258
I22
I0
S'signal'
p2915
tp2916
a(I258
I26
I0
S'old'
p2917
tp2918
a(I259
I1
I0
S'download'
p2919
tp2920
a(I316
I1
F0.5
S'expensive'
p2921
tp2922
a(I330
I2
I0
S'mobile'
p2923
tp2924
a(I366
I130
F1.0
S'good'
p2925
tp2926
a(I420
I3
I0
S'more'
p2927
tp2928
a(I482
I8
F-0.75
S'difficult'
p2929
tp2930
a(I503
I16
F0.5
S'expensive'
p2931
tp2932
a(I503
I18
F-0.75
S'bloat'
p2933
tp2934
a(I582
I10
F-0.125
S'delete'
p2935
tp2936
a(I590
I2
F0.875
S'music'
p2937
tp2938
a(I598
I12
I0
S'cellular'
p2939
tp2940
a(I659
I4
I0
S'great'
p2941
tp2942
a(I659
I4
I0
S'prepaid'
p2943
tp2944
a(I716
I2
I0
S'mobile'
p2945
tp2946
a(I721
I17
I0
S'add-on'
p2947
tp2948
a(I734
I9
F0.375
S'much'
p2949
tp2950
a(I777
I32
I0
S'ancient'
p2951
tp2952
as(g2127
S'data'
p2953
S'plan'
p2954
tp2955
(lp2956
(I96
I5
F-0.25
g2905
tp2957
a(I148
I2
F-0.25
S'cheaper'
p2958
tp2959
a(I256
I2
I0
S'mobile'
p2960
tp2961
a(I256
I2
I0
S'signal'
p2962
tp2963
a(I256
I3
I0
g2907
tp2964
a(I257
I25
I0
S'more'
p2965
tp2966
a(I265
I21
F-0.125
S'future'
p2967
tp2968
a(I330
I3
I0
S'internet'
p2969
tp2970
a(I420
I3
I0
g2927
tp2971
a(I503
I16
F0.5
g2931
tp2972
a(I503
I18
F-0.75
g2933
tp2973
a(I659
I4
I0
g2941
tp2974
a(I659
I4
I0
g2943
tp2975
a(I663
I4
I0
S'internet'
p2976
tp2977
a(I721
I17
I0
g2947
tp2978
a(I734
I9
F0.375
g2949
tp2979
a(I777
I32
I0
g2951
tp2980
as(S'micro'
p2981
S'sd'
p2982
S'card'
p2983
tp2984
(lp2985
(I411
I1
I0
S'such'
p2986
tp2987
as(S'and'
p2988
S'shoot'
p2989
S'camera'
p2990
tp2991
(lp2992
(I134
I1
F1.0
S'best'
p2993
tp2994
a(I458
I11
F1.0
S'good'
p2995
tp2996
a(I470
I0
F0.875
g1733
tp2997
a(I556
I1
F0.125
g18
tp2998
a(I582
I4
F1.0
S'good'
p2999
tp3000
a(I653
I0
F1.0
S'good'
p3001
tp3002
as(S'fast'
p3003
tp3004
(lp3005
(I456
I0
I0
S'faster'
p3006
tp3007
a(I603
I4
F-0.625
S'free'
p3008
tp3009
a(I855
I0
I0
S'most'
p3010
tp3011
as(S'symbian'
p3012
tp3013
(lp3014
(I134
I7
F0.375
g936
tp3015
a(I141
I2
F0.375
S'new'
p3016
tp3017
a(I187
I2
F0.375
S'new'
p3018
tp3019
a(I196
I1
F0.375
S'new'
p3020
tp3021
a(I247
I6
I0
S'current'
p3022
tp3023
a(I260
I39
F0.25
S'familiar'
p3024
tp3025
a(I366
I176
F-0.5
S'certain'
p3026
tp3027
a(I366
I176
F0.125
S'last'
p3028
tp3029
a(I442
I3
I0
S'old'
p3030
tp3031
a(I442
I33
F0.375
g938
tp3032
a(I446
I5
F0.25
S'recent'
p3033
tp3034
a(I458
I0
F0.125
S'last'
p3035
tp3036
a(I486
I0
F0.375
g940
tp3037
a(I512
I4
I0
S'old'
p3038
tp3039
a(I586
I9
F-0.125
S'overall'
p3040
tp3041
a(I593
I3
I0
g942
tp3042
a(I630
I6
F0.25
S'recent'
p3043
tp3044
a(I736
I0
I0
S'full'
p3045
tp3046
a(I838
I1
F0.375
S'new'
p3047
tp3048
a(I857
I16
I0
S'entire'
p3049
tp3050
as(S'work'
p3051
tp3052
(lp3053
(I82
I19
F0.125
S'first'
p3054
tp3055
a(I82
I19
I0
S'full'
p3056
tp3057
a(I105
I5
I0
S'real'
p3058
tp3059
a(I129
I1
I0
S'great'
p3060
tp3061
a(I258
I10
F0.5
S'patient'
p3062
tp3063
a(I260
I35
F0.875
S'nice'
p3064
tp3065
a(I620
I1
F0.75
S'beautiful'
p3066
tp3067
a(I670
I9
F-0.625
S'grief'
p3068
tp3069
as(S'turn'
p3070
tp3071
(lp3072
(I75
I13
F-0.625
S'free'
p3073
tp3074
a(I82
I11
I0
S'great'
p3075
tp3076
a(I289
I10
I0
S'automatic'
p3077
tp3078
a(I503
I22
I0
S'different'
p3079
tp3080
as(g652
S'portrait'
p3081
S'mode'
p3082
tp3083
(lp3084
(I464
I12
I0
S'alphanumeric'
p3085
tp3086
a(I464
I12
I0
S'fast'
p3087
tp3088
a(I464
I16
I0
S'own'
p3089
tp3090
a(I833
I11
I0
S'weird'
p3091
tp3092
as(S'battery'
p3093
S'life'
p3094
tp3095
(lp3096
(I18
I13
F0.375
S'much'
p3097
tp3098
a(I60
I1
F1.0
S'good'
p3099
tp3100
a(I79
I18
F-0.75
S'difficult'
p3101
tp3102
a(I79
I19
F-0.5
S'long'
p3103
tp3104
a(I90
I19
F-0.875
S'unhappy'
p3105
tp3106
a(I90
I30
F0.5
S'satisfactory'
p3107
tp3108
a(I97
I16
F-0.75
S'short'
p3109
tp3110
a(I103
I1
F1.0
S'good'
p3111
tp3112
a(I134
I8
F1.0
S'good'
p3113
tp3114
a(I135
I31
F1.0
S'good'
p3115
tp3116
a(I138
I5
I0
S'more'
p3117
tp3118
a(I138
I6
I0
S'more'
p3119
tp3120
a(I236
I2
F1.0
S'good'
p3121
tp3122
a(I239
I7
F1.0
S'good'
p3123
tp3124
a(I273
I2
F-0.5
S'long'
p3125
tp3126
a(I326
I1
F1.0
S'best'
p3127
tp3128
a(I355
I9
I0
S'great'
p3129
tp3130
a(I389
I2
F1.0
S'good'
p3131
tp3132
a(I411
I1
F1.0
S'good'
p3133
tp3134
a(I462
I1
I0
S'forth'
p3135
tp3136
a(I488
I0
I0
S'great'
p3137
tp3138
a(I510
I4
I0
S'great'
p3139
tp3140
a(I548
I8
F1.0
S'good'
p3141
tp3142
a(I586
I4
F1.0
S'good'
p3143
tp3144
a(I618
I5
F1.0
S'best'
p3145
tp3146
a(I670
I4
F-0.375
S'manual'
p3147
tp3148
a(I687
I1
F-0.625
S'other'
p3149
tp3150
a(I721
I25
F0.75
S'due'
p3151
tp3152
a(I730
I3
I0
S'great'
p3153
tp3154
a(I730
I33
F-0.5
S'sure'
p3155
tp3156
a(I731
I0
I0
S'great'
p3157
tp3158
a(I734
I13
F-0.5
S'poor'
p3159
tp3160
a(I734
I15
F1.0
S'good'
p3161
tp3162
a(I754
I9
F1.0
S'good'
p3163
tp3164
a(I820
I1
F1.0
S'good'
p3165
tp3166
a(I857
I5
F1.0
S'good'
p3167
tp3168
as(S'made'
p3169
tp3170
(lp3171
(I412
I23
F0.125
g1404
tp3172
as(S'bought'
p3173
tp3174
(lp3175
(I421
I1
F0.375
S'new'
p3176
tp3177
as(S'mp'
p3178
S'camera'
p3179
g91
tp3180
(lp3181
(I51
I6
F1.0
S'better'
p3182
tp3183
a(I69
I2
F-0.125
g1703
tp3184
a(I69
I4
F-0.125
g1705
tp3185
a(I75
I5
I0
S'big'
p3186
tp3187
a(I120
I2
F1.0
S'best'
p3188
tp3189
a(I133
I0
F1.0
S'better'
p3190
tp3191
a(I134
I7
I0
g1709
tp3192
a(I134
I7
I0
g1711
tp3193
a(I178
I9
I0
g2038
tp3194
a(I200
I9
I0
g1719
tp3195
a(I235
I6
F1.0
g2342
tp3196
a(I257
I8
F1.0
S'best'
p3197
tp3198
a(I258
I8
I0
g1721
tp3199
a(I285
I0
I0
g2053
tp3200
a(I320
I3
F-0.875
g2344
tp3201
a(I340
I0
I0
g8
tp3202
a(I340
I0
F1.0
g10
tp3203
a(I366
I37
F-0.75
S'impossible'
p3204
tp3205
a(I375
I0
F1.0
S'best'
p3206
tp3207
a(I390
I5
F1.0
g12
tp3208
a(I411
I2
F1.0
g2071
tp3209
a(I456
I1
F0.375
g2349
tp3210
a(I456
I1
F0.375
g2351
tp3211
a(I458
I11
F1.0
g2995
tp3212
a(I470
I0
F0.875
g1733
tp3213
a(I473
I1
F1.0
g16
tp3214
a(I484
I1
F1.0
g1735
tp3215
a(I521
I1
I0
g2090
tp3216
a(I532
I0
F0.875
g2355
tp3217
a(I542
I9
F1.0
S'good'
p3218
tp3219
a(I542
I70
F1.0
g1739
tp3220
a(I556
I1
F0.125
g18
tp3221
a(I573
I1
F1.0
g2358
tp3222
a(I573
I1
F0.125
g2360
tp3223
a(I577
I1
F-0.75
S'wrong'
p3224
tp3225
a(I582
I1
F1.0
S'good'
p3226
tp3227
a(I590
I4
F0.625
g2362
tp3228
a(I621
I3
F0.125
S'dedicated'
p3229
tp3230
a(I640
I1
F1.0
g2364
tp3231
a(I653
I2
F0.125
S'first'
p3232
tp3233
a(I739
I4
I0
g2111
tp3234
a(I742
I1
I0
g2367
tp3235
a(I742
I1
F0.125
g2369
tp3236
a(I742
I1
F0.375
g2371
tp3237
a(I742
I6
F0.375
S'new'
p3238
tp3239
a(I751
I7
F0.125
S'digital'
p3240
tp3241
a(I760
I15
F1.0
S'good'
p3242
tp3243
a(I760
I15
F0.875
S'important'
p3244
tp3245
a(I773
I0
F1.0
g1752
tp3246
a(I787
I2
I0
S'most'
p3247
tp3248
a(I787
I2
F0.125
S'impressive'
p3249
tp3250
a(I836
I1
F0.125
g2374
tp3251
a(I836
I1
F0.75
g2376
tp3252
a(I846
I9
F1.0
S'good'
p3253
tp3254
a(I850
I4
F1.0
g1754
tp3255
as(S'problems'
p3256
tp3257
(lp3258
(I3
I1
F-0.375
S'small'
p3259
tp3260
a(I3
I1
F0.875
S'happier'
p3261
tp3262
a(I6
I13
F0.625
S'major'
p3263
tp3264
a(I34
I9
F0.875
S'important'
p3265
tp3266
a(I62
I1
I0
S'same'
p3267
tp3268
a(I133
I0
I0
S'few'
p3269
tp3270
a(I176
I5
I0
S'few'
p3271
tp3272
a(I255
I6
F0.125
S'first'
p3273
tp3274
a(I260
I11
I0
S'real'
p3275
tp3276
a(I262
I9
I0
S'many'
p3277
tp3278
a(I262
I9
F-0.25
S'late'
p3279
tp3280
a(I285
I0
F0.25
S'main'
p3281
tp3282
a(I319
I10
I0
S'same'
p3283
tp3284
a(I341
I14
F0.375
S'similar'
p3285
tp3286
a(I366
I64
F0.375
S'similar'
p3287
tp3288
a(I421
I1
I0
S'many'
p3289
tp3290
a(I434
I5
F0.375
S'similar'
p3291
tp3292
a(I438
I2
F0.5
S'technical'
p3293
tp3294
a(I452
I0
I0
S'many'
p3295
tp3296
a(I504
I1
I0
S'common'
p3297
tp3298
a(I512
I4
F0.625
S'major'
p3299
tp3300
a(I598
I26
F-0.625
S'other'
p3301
tp3302
a(I598
I27
I0
S'few'
p3303
tp3304
a(I598
I28
I0
S'least'
p3305
tp3306
a(I598
I29
F-0.625
S'other'
p3307
tp3308
a(I622
I20
I0
S'later'
p3309
tp3310
a(I669
I2
F-0.75
S'minor'
p3311
tp3312
a(I750
I0
I0
S'more'
p3313
tp3314
a(I757
I18
F-0.375
S'top'
p3315
tp3316
a(I832
I56
F0.75
S'due'
p3317
tp3318
a(I842
I34
I0
S'current'
p3319
tp3320
as(S'back'
p3321
tp3322
(lp3323
(I349
I1
F-0.375
S'manual'
p3324
tp3325
a(I349
I1
F0.375
S'screw'
p3326
tp3327
a(I353
I1
F0.125
S'valid'
p3328
tp3329
a(I599
I9
I0
S'guy'
p3330
tp3331
as(S'and'
p3332
S'12'
p3333
S'mp'
p3334
tp3335
(lp3336
(I23
I1
I0
g2337
tp3337
a(I176
I10
F0.5
S'advanced'
p3338
tp3339
a(I532
I0
F0.875
g2355
tp3340
as(S'visible'
p3341
S'miss-alignments'
p3342
tp3343
(lp3344
(I409
I11
F0.125
S'visible'
p3345
tp3346
a(I409
I15
F0.125
S'visible'
p3347
tp3348
a(I409
I19
F0.125
S'visible'
p3349
tp3350
as(S'mega'
p3351
S'pixel'
p3352
tp3353
(lp3354
(I420
I16
F0.375
S'much'
p3355
tp3356
as(S'life'
p3357
tp3358
(lp3359
(I52
I1
F-0.625
S'free'
p3360
tp3361
a(I60
I1
F1.0
g3099
tp3362
a(I90
I30
F0.5
g3107
tp3363
a(I97
I16
F-0.75
g3109
tp3364
a(I103
I1
F1.0
g3111
tp3365
a(I113
I0
I0
S'real'
p3366
tp3367
a(I120
I0
F-0.625
S'free'
p3368
tp3369
a(I134
I8
F1.0
g3113
tp3370
a(I202
I3
F-0.5
S'ordinary'
p3371
tp3372
a(I236
I2
F1.0
g3121
tp3373
a(I239
I7
F1.0
g3123
tp3374
a(I326
I1
F1.0
g3127
tp3375
a(I411
I1
F1.0
g3133
tp3376
a(I462
I1
I0
g3135
tp3377
a(I548
I8
F1.0
g3141
tp3378
a(I586
I4
F1.0
g3143
tp3379
a(I596
I0
F-0.625
S'free'
p3380
tp3381
a(I721
I25
F0.75
g3151
tp3382
a(I727
I8
F0.625
S'easier'
p3383
tp3384
a(I754
I7
F1.0
S'good'
p3385
tp3386
a(I754
I9
F1.0
g3163
tp3387
a(I776
I44
I0
S'real'
p3388
tp3389
a(I857
I5
F1.0
g3167
tp3390
as(g2127
S'good'
p3391
S'camera'
p3392
tp3393
(lp3394
(I26
I0
F1.0
S'good'
p3395
tp3396
a(I90
I1
F1.0
S'good'
p3397
tp3398
a(I134
I7
I0
g1709
tp3399
a(I134
I7
I0
g1711
tp3400
a(I170
I2
F1.0
S'best'
p3401
tp3402
a(I173
I13
F1.0
S'good'
p3403
tp3404
a(I178
I0
I0
g2036
tp3405
a(I178
I9
I0
g2038
tp3406
a(I191
I4
F-0.625
g1715
tp3407
a(I200
I9
I0
g1719
tp3408
a(I224
I0
F1.0
S'good'
p3409
tp3410
a(I224
I0
F-0.625
S'free'
p3411
tp3412
a(I235
I6
F1.0
g2342
tp3413
a(I260
I12
F1.0
g1723
tp3414
a(I285
I0
I0
g2053
tp3415
a(I322
I0
F1.0
S'good'
p3416
tp3417
a(I326
I3
F0.625
S'perfect'
p3418
tp3419
a(I330
I0
F1.0
S'good'
p3420
tp3421
a(I364
I1
I0
g2067
tp3422
a(I364
I1
F0.125
g2069
tp3423
a(I383
I0
F1.0
S'good'
p3424
tp3425
a(I390
I5
F1.0
g12
tp3426
a(I420
I15
F1.0
S'good'
p3427
tp3428
a(I422
I3
F1.0
S'good'
p3429
tp3430
a(I430
I2
I0
S'most'
p3431
tp3432
a(I430
I2
F1.0
S'good'
p3433
tp3434
a(I430
I2
F-0.125
S'slow'
p3435
tp3436
a(I434
I23
I0
g2073
tp3437
a(I446
I8
I0
g2080
tp3438
a(I456
I1
F0.375
g2349
tp3439
a(I456
I1
F0.375
g2351
tp3440
a(I458
I11
F1.0
g2995
tp3441
a(I463
I7
F1.0
g2082
tp3442
a(I473
I1
F1.0
g16
tp3443
a(I484
I1
F1.0
g1735
tp3444
a(I503
I17
F1.0
S'good'
p3445
tp3446
a(I503
I17
F0.125
S'digital'
p3447
tp3448
a(I515
I0
F1.0
S'good'
p3449
tp3450
a(I515
I0
F0.875
S'nice'
p3451
tp3452
a(I515
I0
F0.625
S'easy'
p3453
tp3454
a(I521
I1
I0
g2090
tp3455
a(I542
I9
F1.0
g3218
tp3456
a(I552
I3
F1.0
S'good'
p3457
tp3458
a(I560
I0
F1.0
g2097
tp3459
a(I573
I1
F1.0
g2358
tp3460
a(I573
I1
F0.125
g2360
tp3461
a(I582
I1
F1.0
g3226
tp3462
a(I582
I4
F1.0
g2999
tp3463
a(I587
I1
F-0.625
S'unreal'
p3464
tp3465
a(I617
I5
I0
g2099
tp3466
a(I621
I0
F1.0
S'good'
p3467
tp3468
a(I621
I0
F0.125
S'digital'
p3469
tp3470
a(I622
I5
F1.0
S'good'
p3471
tp3472
a(I653
I0
F1.0
g3001
tp3473
a(I703
I2
F1.0
S'good'
p3474
tp3475
a(I703
I2
F-0.25
S'low'
p3476
tp3477
a(I703
I2
F-0.625
S'light'
p3478
tp3479
a(I727
I1
F1.0
S'good'
p3480
tp3481
a(I728
I0
F1.0
g1750
tp3482
a(I760
I15
F1.0
g3242
tp3483
a(I760
I15
F0.875
g3244
tp3484
a(I772
I7
F0.875
S'nice'
p3485
tp3486
a(I773
I0
F1.0
g1752
tp3487
a(I807
I0
I0
g2119
tp3488
a(I831
I51
F0.125
g2121
tp3489
a(I845
I13
F1.0
S'good'
p3490
tp3491
a(I845
I13
F1.0
S'good'
p3492
tp3493
a(I845
I13
F-0.625
S'light'
p3494
tp3495
a(I846
I9
F1.0
g3253
tp3496
as(S'fm'
p3497
S'transmitter'
p3498
tp3499
(lp3500
(I30
I9
F0.875
S'music'
p3501
tp3502
a(I67
I9
F0.125
S'spectacular'
p3503
tp3504
a(I97
I9
F0.875
S'music'
p3505
tp3506
a(I134
I4
F1.0
S'better'
p3507
tp3508
a(I135
I37
F1.0
S'good'
p3509
tp3510
a(I211
I0
F1.0
S'love'
p3511
tp3512
a(I233
I6
F0.875
S'music'
p3513
tp3514
a(I237
I3
F-0.5
S'weak'
p3515
tp3516
a(I289
I4
F-0.375
S'smooth'
p3517
tp3518
a(I463
I3
F-0.625
S'quiet'
p3519
tp3520
a(I463
I3
F0.5
S'clear'
p3521
tp3522
a(I464
I17
F-0.5
S'weak'
p3523
tp3524
a(I635
I0
I0
S'standard'
p3525
tp3526
a(I777
I5
F-0.375
S'simple'
p3527
tp3528
a(I815
I11
I0
S'common'
p3529
tp3530
a(I815
I11
I0
S'useful'
p3531
tp3532
as(S'call'
p3533
tp3534
(lp3535
(I17
I1
F0.875
S'important'
p3536
tp3537
a(I52
I0
I0
g163
tp3538
a(I100
I1
F0.875
S'important'
p3539
tp3540
a(I158
I5
I0
g167
tp3541
a(I158
I12
I0
g169
tp3542
a(I197
I0
F-0.625
g171
tp3543
a(I258
I19
I0
S'active'
p3544
tp3545
a(I261
I6
F-0.75
S'impossible'
p3546
tp3547
a(I265
I0
F-0.75
S'uncomfortable'
p3548
tp3549
a(I289
I13
F-0.25
S'direct'
p3550
tp3551
a(I391
I25
F-0.75
S'unable'
p3552
tp3553
a(I442
I12
I0
g181
tp3554
a(I521
I1
F1.0
g187
tp3555
a(I541
I1
I0
g189
tp3556
a(I542
I33
F0.625
S'easy'
p3557
tp3558
a(I559
I5
I0
g197
tp3559
a(I575
I4
I0
g199
tp3560
a(I659
I4
I0
g201
tp3561
a(I757
I24
F-0.375
S'simple'
p3562
tp3563
a(I772
I7
F1.0
g205
tp3564
a(I776
I35
F-0.875
S'hard'
p3565
tp3566
a(I785
I0
F0.25
g209
tp3567
a(I832
I26
F0.625
S'hold'
p3568
tp3569
a(I850
I4
F1.0
g217
tp3570
as(S'made'
p3571
g652
tp3572
(lp3573
(I412
I23
F0.125
g1404
tp3574
as(S'user'
p3575
tp3576
(lp3577
(I67
I11
I0
S'android'
p3578
tp3579
a(I77
I23
I0
S'february'
p3580
tp3581
a(I79
I7
F0.625
S'necessary'
p3582
tp3583
a(I120
I27
F-0.25
S'modern'
p3584
tp3585
a(I257
I20
F-0.125
S'overall'
p3586
tp3587
a(I295
I0
F1.0
S'better'
p3588
tp3589
a(I309
I3
F-0.375
S'manual'
p3590
tp3591
a(I441
I2
F0.5
S'satisfied'
p3592
tp3593
a(I441
I17
F-0.5
S'heavy'
p3594
tp3595
a(I441
I17
F-0.5
S'less'
p3596
tp3597
a(I441
I17
F0.5
S'expensive'
p3598
tp3599
a(I507
I3
F0.5
S'whole'
p3600
tp3601
a(I510
I5
F0.5
S'true'
p3602
tp3603
a(I510
I5
F-0.5
S'heavy'
p3604
tp3605
a(I529
I10
I0
S'basic'
p3606
tp3607
a(I552
I19
I0
S'many'
p3608
tp3609
a(I604
I10
F0.375
S'available'
p3610
tp3611
a(I610
I4
F0.75
S'due'
p3612
tp3613
a(I610
I4
F-0.5
S'poor'
p3614
tp3615
a(I638
I17
F-0.375
S'hamper'
p3616
tp3617
a(I670
I2
F-0.375
S'manual'
p3618
tp3619
a(I670
I2
F-0.625
S'other'
p3620
tp3621
a(I734
I15
F-0.375
S'manual'
p3622
tp3623
a(I780
I12
F1.0
S'better'
p3624
tp3625
a(I787
I1
I0
S'most'
p3626
tp3627
a(I787
I1
F-0.375
S'simple'
p3628
tp3629
a(I856
I1
I0
S'initial'
p3630
tp3631
a(I857
I17
I0
S'most'
p3632
tp3633
as(S'gps'
p3634
S'with'
p3635
S'voice'
p3636
tp3637
(lp3638
(I18
I13
I0
g2660
tp3639
a(I97
I15
F-0.625
S'free'
p3640
tp3641
a(I135
I14
F1.0
S'best'
p3642
tp3643
a(I441
I13
I0
S'great'
p3644
tp3645
a(I542
I70
F1.0
S'best'
p3646
tp3647
as(S'battery'
p3648
tp3649
(lp3650
(I18
I13
F0.375
g3097
tp3651
a(I47
I48
I0
S'big'
p3652
tp3653
a(I47
I48
I0
S'more'
p3654
tp3655
a(I68
I1
F0.125
S'last'
p3656
tp3657
a(I79
I18
F-0.75
g3101
tp3658
a(I79
I19
F-0.5
g3103
tp3659
a(I90
I19
F-0.875
g3105
tp3660
a(I97
I18
F0.625
S'removable'
p3661
tp3662
a(I135
I31
F1.0
g3115
tp3663
a(I138
I5
I0
g3117
tp3664
a(I138
I6
I0
g3119
tp3665
a(I187
I2
F0.625
S'removable'
p3666
tp3667
a(I187
I2
I0
S'internal'
p3668
tp3669
a(I193
I1
F-0.25
S'low'
p3670
tp3671
a(I193
I1
I0
S'fast'
p3672
tp3673
a(I197
I3
F0.625
S'replaceable'
p3674
tp3675
a(I220
I1
F0.125
S'able'
p3676
tp3677
a(I229
I22
F-0.75
S'dry'
p3678
tp3679
a(I261
I8
F0.375
S'new'
p3680
tp3681
a(I273
I2
F-0.5
g3125
tp3682
a(I288
I0
F0.125
S'last'
p3683
tp3684
a(I288
I0
F-0.625
S'want'
p3685
tp3686
a(I288
I0
F0.125
S'last'
p3687
tp3688
a(I355
I9
I0
g3129
tp3689
a(I359
I0
I0
S'internal'
p3690
tp3691
a(I359
I0
F-0.75
S'dead'
p3692
tp3693
a(I359
I6
F-0.625
S'want'
p3694
tp3695
a(I359
I7
I0
S'same'
p3696
tp3697
a(I364
I1
F-0.25
S'low'
p3698
tp3699
a(I364
I1
F0.375
S'alarm'
p3700
tp3701
a(I366
I56
I0
S'earlier'
p3702
tp3703
a(I366
I58
F-0.25
S'late'
p3704
tp3705
a(I366
I139
I0
S'full'
p3706
tp3707
a(I366
I178
F-0.5
S'longer'
p3708
tp3709
a(I366
I178
F-0.625
S'other'
p3710
tp3711
a(I366
I179
F-0.5
S'longer'
p3712
tp3713
a(I370
I13
I0
S'same'
p3714
tp3715
a(I389
I2
F1.0
g3131
tp3716
a(I391
I18
I0
S'weird'
p3717
tp3718
a(I411
I7
F0.625
S'removable'
p3719
tp3720
a(I432
I2
F0.125
S'last'
p3721
tp3722
a(I434
I3
F0.625
S'replaceable'
p3723
tp3724
a(I434
I7
I0
S'external'
p3725
tp3726
a(I440
I1
F-0.75
S'dead'
p3727
tp3728
a(I468
I15
F0.625
S'removable'
p3729
tp3730
a(I468
I28
F0.375
S'new'
p3731
tp3732
a(I488
I0
I0
g3137
tp3733
a(I503
I12
F0.375
S'extra'
p3734
tp3735
a(I510
I4
I0
g3139
tp3736
a(I538
I8
I0
S'full'
p3737
tp3738
a(I550
I2
I0
S'internal'
p3739
tp3740
a(I570
I0
F1.0
S'good'
p3741
tp3742
a(I570
I0
I0
S'signal'
p3743
tp3744
a(I581
I5
F0.125
S'last'
p3745
tp3746
a(I592
I0
F0.375
S'new'
p3747
tp3748
a(I618
I5
F1.0
g3145
tp3749
a(I628
I2
F-0.5
S'sure'
p3750
tp3751
a(I647
I0
F0.5
S'functional'
p3752
tp3753
a(I670
I4
F-0.375
g3147
tp3754
a(I674
I3
F0.125
S'last'
p3755
tp3756
a(I678
I0
F0.25
S'read'
p3757
tp3758
a(I679
I5
F1.0
S'good'
p3759
tp3760
a(I679
I5
F-0.375
S'serious'
p3761
tp3762
a(I686
I1
F0.5
S'told'
p3763
tp3764
a(I686
I2
F-0.75
S'damaged'
p3765
tp3766
a(I686
I3
F0.375
S'new'
p3767
tp3768
a(I686
I4
F0.375
S'new'
p3769
tp3770
a(I687
I1
F-0.625
g3149
tp3771
a(I708
I0
F0.125
S'first'
p3772
tp3773
a(I712
I0
F1.0
S'good'
p3774
tp3775
a(I729
I0
F-0.625
S'bad'
p3776
tp3777
a(I730
I3
I0
g3153
tp3778
a(I730
I33
F-0.5
g3155
tp3779
a(I731
I0
I0
g3157
tp3780
a(I734
I13
F-0.5
g3159
tp3781
a(I734
I15
F1.0
g3161
tp3782
a(I741
I1
I0
S'external'
p3783
tp3784
a(I741
I1
F-0.75
S'dead'
p3785
tp3786
a(I741
I1
I0
S'external'
p3787
tp3788
a(I747
I3
I0
S'great'
p3789
tp3790
a(I773
I0
F1.0
S'good'
p3791
tp3792
a(I815
I14
I0
S'great'
p3793
tp3794
a(I815
I15
F0.125
S'last'
p3795
tp3796
a(I815
I20
I0
S'user'
p3797
tp3798
a(I815
I20
F0.625
S'replaceable'
p3799
tp3800
a(I820
I1
F1.0
g3165
tp3801
a(I831
I18
F0.625
S'replaceable'
p3802
tp3803
a(I831
I18
F0.625
S'replaceable'
p3804
tp3805
a(I831
I78
I0
S'internal'
p3806
tp3807
a(I842
I17
F-0.5
S'complaint'
p3808
tp3809
a(I842
I17
F-0.75
S'difficult'
p3810
tp3811
a(I842
I17
F0.125
S'able'
p3812
tp3813
a(I844
I6
F0.125
S'last'
p3814
tp3815
a(I862
I0
F0.125
S'last'
p3816
tp3817
a(I862
I0
F-0.5
S'long'
p3818
tp3819
as(S'kinetic'
p3820
S'scrolling'
p3821
tp3822
(lp3823
(I24
I16
I0
S'kinetic'
p3824
tp3825
a(I258
I18
I0
S'kinetic'
p3826
tp3827
a(I260
I53
I0
S'kinetic'
p3828
tp3829
as(S'12'
p3830
S'mp'
p3831
tp3832
(lp3833
(I23
I1
I0
g2337
tp3834
a(I176
I10
F0.5
g3338
tp3835
a(I532
I0
F0.875
g2355
tp3836
a(I742
I1
I0
g2367
tp3837
a(I742
I1
F0.125
g2369
tp3838
as(S'update'
p3839
tp3840
(lp3841
(I24
I12
I0
S'latest'
p3842
tp3843
a(I24
I35
F0.5
S'belle'
p3844
tp3845
a(I26
I1
F1.0
S'good'
p3846
tp3847
a(I79
I16
F-0.375
S'simple'
p3848
tp3849
a(I83
I7
F-0.375
S'small'
p3850
tp3851
a(I134
I9
I0
S'current'
p3852
tp3853
a(I260
I72
F0.5
S'second'
p3854
tp3855
a(I265
I19
F-0.125
S'slow'
p3856
tp3857
a(I282
I2
F0.5
S'belle'
p3858
tp3859
a(I341
I13
I0
S'stable'
p3860
tp3861
a(I377
I13
F-0.125
S'future'
p3862
tp3863
a(I391
I7
F0.25
S'recent'
p3864
tp3865
a(I391
I19
F0.5
S'belle'
p3866
tp3867
a(I391
I31
F0.5
S'second'
p3868
tp3869
a(I442
I28
I0
S'latest'
p3870
tp3871
a(I442
I28
F0.375
S'new'
p3872
tp3873
a(I442
I33
I0
S'old'
p3874
tp3875
a(I442
I44
F1.0
S'good'
p3876
tp3877
a(I442
I44
I0
S'old'
p3878
tp3879
a(I521
I3
I0
S'january'
p3880
tp3881
a(I552
I7
I0
S'latest'
p3882
tp3883
a(I552
I9
F0.125
S'last'
p3884
tp3885
a(I582
I15
F-0.5
S'sure'
p3886
tp3887
a(I583
I2
F0.125
S'last'
p3888
tp3889
a(I635
I0
I0
S'such'
p3890
tp3891
a(I728
I0
F0.125
S'able'
p3892
tp3893
a(I757
I17
F0.125
S'first'
p3894
tp3895
a(I815
I25
I0
S'next'
p3896
tp3897
a(I832
I58
I0
S'update'
p3898
tp3899
a(I854
I3
I0
S'quickest'
p3900
tp3901
as(S'able'
p3902
S'to'
p3903
S'use'
p3904
tp3905
(lp3906
(I145
I3
F-0.25
S'intense'
p3907
tp3908
a(I787
I15
F-0.5
S'actual'
p3909
tp3910
as(S'nokia'
p3911
S'n8'
p3912
S'has'
p3913
tp3914
(lp3915
(I10
I0
F-0.75
g1885
tp3916
a(I22
I0
F0.5
g708
tp3917
a(I135
I4
I0
g726
tp3918
a(I135
I10
F1.0
g728
tp3919
a(I135
I27
F-0.5
g732
tp3920
a(I135
I31
F1.0
g734
tp3921
a(I135
I31
F0.125
g736
tp3922
a(I150
I5
F1.0
g746
tp3923
a(I285
I7
I0
g762
tp3924
a(I285
I7
F0.25
g764
tp3925
a(I299
I8
F1.0
g770
tp3926
a(I299
I8
F-0.125
g772
tp3927
a(I311
I10
F0.125
g774
tp3928
a(I432
I3
F0.375
g790
tp3929
a(I432
I3
F-0.5
g792
tp3930
a(I441
I10
I0
g798
tp3931
a(I441
I10
F0.25
g800
tp3932
a(I441
I10
F-0.625
g802
tp3933
a(I441
I10
I0
g804
tp3934
a(I484
I0
F-0.75
g820
tp3935
a(I484
I3
F0.5
g822
tp3936
a(I571
I0
F0.375
g828
tp3937
a(I571
I0
F-0.875
g830
tp3938
a(I571
I0
I0
g832
tp3939
a(I578
I2
F-0.625
g834
tp3940
a(I734
I16
I0
g852
tp3941
a(I735
I1
F1.0
g854
tp3942
a(I735
I1
I0
g856
tp3943
a(I850
I4
F-0.75
g870
tp3944
as(S'time'
p3945
tp3946
(lp3947
(I6
I25
F-0.5
g2601
tp3948
a(I15
I11
F0.125
S'first'
p3949
tp3950
a(I17
I2
F0.125
S'first'
p3951
tp3952
a(I22
I2
F0.125
S'first'
p3953
tp3954
a(I24
I8
F0.125
S'first'
p3955
tp3956
a(I24
I27
I0
S'same'
p3957
tp3958
a(I34
I7
F-0.5
g2603
tp3959
a(I46
I0
I0
S'android'
p3960
tp3961
a(I51
I7
F-0.5
g2605
tp3962
a(I58
I14
F-0.5
g2607
tp3963
a(I62
I0
I0
S'same'
p3964
tp3965
a(I101
I3
F0.125
S'first'
p3966
tp3967
a(I119
I5
I0
S'more'
p3968
tp3969
a(I120
I1
F0.125
S'last'
p3970
tp3971
a(I120
I1
I0
S'more'
p3972
tp3973
a(I173
I21
F-0.5
g2609
tp3974
a(I176
I36
F0.625
S'easier'
p3975
tp3976
a(I187
I6
F0.125
S'first'
p3977
tp3978
a(I190
I1
F0.375
S'mean'
p3979
tp3980
a(I194
I3
F0.125
S'first'
p3981
tp3982
a(I196
I4
I0
S'same'
p3983
tp3984
a(I198
I0
I0
S'exact'
p3985
tp3986
a(I209
I15
F0.125
S'first'
p3987
tp3988
a(I209
I19
F0.125
g2611
tp3989
a(I229
I27
F0.125
S'first'
p3990
tp3991
a(I231
I6
I0
S'many'
p3992
tp3993
a(I231
I11
F0.125
S'last'
p3994
tp3995
a(I231
I13
F0.5
S'second'
p3996
tp3997
a(I231
I13
F0.125
S'first'
p3998
tp3999
a(I232
I5
F-0.75
S'short'
p4000
tp4001
a(I232
I6
F-0.75
S'short'
p4002
tp4003
a(I241
I0
F-0.5
g2613
tp4004
a(I255
I4
I0
S'same'
p4005
tp4006
a(I260
I2
I0
S'considerable'
p4007
tp4008
a(I260
I7
F0.625
S'master'
p4009
tp4010
a(I289
I2
I0
S'same'
p4011
tp4012
a(I289
I2
I0
S'many'
p4013
tp4014
a(I294
I0
F1.0
S'better'
p4015
tp4016
a(I294
I0
I0
S'most'
p4017
tp4018
a(I296
I6
I0
S'same'
p4019
tp4020
a(I325
I0
F0.5
S'second'
p4021
tp4022
a(I325
I0
F0.125
S'first'
p4023
tp4024
a(I333
I2
I0
S'same'
p4025
tp4026
a(I333
I2
F-0.125
S'slow'
p4027
tp4028
a(I360
I1
I0
S'real'
p4029
tp4030
a(I366
I19
I0
S'more'
p4031
tp4032
a(I370
I16
F0.5
S'whole'
p4033
tp4034
a(I376
I13
F0.125
S'first'
p4035
tp4036
a(I376
I16
F-0.5
g2615
tp4037
a(I382
I0
F-0.875
S'hard'
p4038
tp4039
a(I413
I10
F1.0
S'good'
p4040
tp4041
a(I434
I11
I0
S'unnecessary'
p4042
tp4043
a(I456
I3
F0.625
S'easy'
p4044
tp4045
a(I459
I14
F-0.875
S'hard'
p4046
tp4047
a(I464
I0
I0
S'song'
p4048
tp4049
a(I468
I17
F-0.5
g2617
tp4050
a(I473
I16
F-0.5
g2619
tp4051
a(I473
I17
F-0.625
S'sorry'
p4052
tp4053
a(I482
I0
F-0.5
g2621
tp4054
a(I484
I3
F-0.125
S'invest'
p4055
tp4056
a(I484
I3
I0
S'more'
p4057
tp4058
a(I485
I0
F0.125
S'first'
p4059
tp4060
a(I490
I7
F-0.875
S'hard'
p4061
tp4062
a(I495
I0
F-0.5
S'open'
p4063
tp4064
a(I533
I2
F0.375
S'new'
p4065
tp4066
a(I537
I0
F0.875
S'happy'
p4067
tp4068
a(I553
I3
F0.125
S'last'
p4069
tp4070
a(I556
I1
I0
S'same'
p4071
tp4072
a(I556
I4
F1.0
S'better'
p4073
tp4074
a(I559
I1
F-0.125
S'mine'
p4075
tp4076
a(I559
I28
I0
S'fluid'
p4077
tp4078
a(I573
I0
F-0.5
S'sure'
p4079
tp4080
a(I573
I1
F0.125
g2623
tp4081
a(I580
I25
I0
S'most'
p4082
tp4083
a(I583
I2
F0.125
S'first'
p4084
tp4085
a(I588
I0
F0.125
S'first'
p4086
tp4087
a(I598
I6
I0
S'only'
p4088
tp4089
a(I616
I15
F-0.625
S'glad'
p4090
tp4091
a(I616
I15
I0
S'same'
p4092
tp4093
a(I616
I15
F0.625
S'easy'
p4094
tp4095
a(I616
I23
I0
S'handy'
p4096
tp4097
a(I616
I33
F-0.5
g2625
tp4098
a(I616
I36
I0
S'most'
p4099
tp4100
a(I622
I18
I0
S'same'
p4101
tp4102
a(I664
I12
F0.125
S'last'
p4103
tp4104
a(I705
I1
F-0.625
S'free'
p4105
tp4106
a(I706
I1
I0
S'great'
p4107
tp4108
a(I747
I0
F-0.5
g2627
tp4109
a(I772
I12
I0
S'most'
p4110
tp4111
a(I773
I0
F1.0
S'better'
p4112
tp4113
a(I773
I0
I0
S'more'
p4114
tp4115
a(I781
I15
F0.5
S'crucial'
p4116
tp4117
a(I781
I27
F-0.5
g2629
tp4118
a(I782
I1
F0.125
S'first'
p4119
tp4120
a(I785
I0
I0
g2631
tp4121
a(I785
I0
F-0.5
g2633
tp4122
a(I787
I9
I0
S'same'
p4123
tp4124
a(I804
I1
F1.0
S'better'
p4125
tp4126
a(I826
I0
F0.125
g2635
tp4127
a(I828
I0
F0.625
S'right'
p4128
tp4129
a(I830
I15
I0
S'same'
p4130
tp4131
a(I831
I62
I0
S'same'
p4132
tp4133
a(I832
I61
F0.5
S'whole'
p4134
tp4135
a(I842
I20
F0.5
S'willing'
p4136
tp4137
a(I844
I0
F-0.5
g2637
tp4138
a(I846
I26
F-0.875
S'hard'
p4139
tp4140
a(I852
I0
F0.125
S'first'
p4141
tp4142
a(I859
I1
F0.125
S'last'
p4143
tp4144
as(S'warehouse'
p4145
S'deals'
p4146
tp4147
(lp4148
(I249
I5
F0.25
S'used'
p4149
tp4150
as(S'camera'
p4151
g91
g92
tp4152
(lp4153
(I1
I6
F1.0
S'best'
p4154
tp4155
a(I3
I0
F-0.125
g1701
tp4156
a(I6
I20
F0.875
S'nice'
p4157
tp4158
a(I12
I37
F0.375
S'extra'
p4159
tp4160
a(I18
I16
I0
g2026
tp4161
a(I26
I0
F1.0
g3395
tp4162
a(I51
I6
F1.0
g3182
tp4163
a(I56
I1
I0
g2028
tp4164
a(I69
I2
F-0.125
g1703
tp4165
a(I69
I4
F-0.125
g1705
tp4166
a(I75
I5
I0
g3186
tp4167
a(I90
I60
F1.0
S'best'
p4168
tp4169
a(I96
I11
I0
g2030
tp4170
a(I105
I6
F1.0
S'best'
p4171
tp4172
a(I120
I2
F1.0
g3188
tp4173
a(I133
I0
F1.0
g3190
tp4174
a(I134
I1
F1.0
g2993
tp4175
a(I134
I7
I0
g1709
tp4176
a(I134
I7
I0
g1711
tp4177
a(I148
I9
F0.25
S'larger'
p4178
tp4179
a(I148
I26
I0
g2032
tp4180
a(I154
I1
F1.0
g2034
tp4181
a(I170
I2
F1.0
g3401
tp4182
a(I173
I13
F1.0
g3403
tp4183
a(I178
I0
I0
g2036
tp4184
a(I178
I9
I0
g2038
tp4185
a(I191
I4
F-0.625
g1715
tp4186
a(I199
I2
F0.625
g6
tp4187
a(I200
I9
I0
g1719
tp4188
a(I206
I0
I0
g2042
tp4189
a(I207
I1
F0.5
S'possible'
p4190
tp4191
a(I209
I2
F1.0
S'best'
p4192
tp4193
a(I209
I2
F-0.375
S'top'
p4194
tp4195
a(I217
I0
F0.5
S'absolute'
p4196
tp4197
a(I217
I0
F1.0
S'best'
p4198
tp4199
a(I224
I0
F1.0
g3409
tp4200
a(I224
I0
F-0.625
g3411
tp4201
a(I229
I10
I0
g2044
tp4202
a(I232
I3
F0.125
S'digital'
p4203
tp4204
a(I235
I6
F1.0
g2342
tp4205
a(I247
I2
I0
g2046
tp4206
a(I247
I7
I0
g2048
tp4207
a(I253
I0
F1.0
S'better'
p4208
tp4209
a(I257
I8
F1.0
g3197
tp4210
a(I258
I8
I0
g1721
tp4211
a(I260
I12
F1.0
g1723
tp4212
a(I260
I62
F0.5
g1725
tp4213
a(I279
I15
F-0.5
g1727
tp4214
a(I279
I15
I0
g1729
tp4215
a(I285
I0
I0
g2053
tp4216
a(I314
I1
I0
g2055
tp4217
a(I316
I19
F0.125
S'first'
p4218
tp4219
a(I320
I3
F-0.875
g2344
tp4220
a(I322
I0
F1.0
g3416
tp4221
a(I326
I3
F0.625
g3418
tp4222
a(I330
I0
F1.0
g3420
tp4223
a(I330
I8
F-0.625
S'other'
p4224
tp4225
a(I330
I9
F-0.5
S'regular'
p4226
tp4227
a(I340
I0
I0
g8
tp4228
a(I340
I0
F1.0
g10
tp4229
a(I347
I0
I0
g2063
tp4230
a(I350
I6
F0.25
S'powerful'
p4231
tp4232
a(I364
I1
I0
g2067
tp4233
a(I364
I1
F0.125
g2069
tp4234
a(I366
I34
F1.0
S'best'
p4235
tp4236
a(I366
I37
F-0.75
g3204
tp4237
a(I375
I0
F1.0
g3206
tp4238
a(I383
I0
F1.0
g3424
tp4239
a(I390
I5
F1.0
g12
tp4240
a(I400
I0
F-0.75
S'dead'
p4241
tp4242
a(I400
I1
F0.625
S'perfect'
p4243
tp4244
a(I409
I14
F-0.375
S'top'
p4245
tp4246
a(I409
I20
F0.25
S'main'
p4247
tp4248
a(I411
I2
F1.0
g2071
tp4249
a(I412
I21
I0
S'full'
p4250
tp4251
a(I417
I5
I0
S'third'
p4252
tp4253
a(I426
I9
F-0.625
S'unobtrusive'
p4254
tp4255
a(I430
I2
I0
g3431
tp4256
a(I430
I2
F1.0
g3433
tp4257
a(I430
I2
F-0.125
g3435
tp4258
a(I434
I23
I0
g2073
tp4259
a(I439
I8
F0.25
S'sharp'
p4260
tp4261
a(I441
I13
F0.125
g1731
tp4262
a(I446
I1
I0
g2076
tp4263
a(I446
I1
F0.125
g2078
tp4264
a(I446
I8
I0
g2080
tp4265
a(I456
I1
F0.375
g2349
tp4266
a(I456
I1
F0.375
g2351
tp4267
a(I458
I3
F1.0
S'best'
p4268
tp4269
a(I458
I11
F1.0
g2995
tp4270
a(I463
I7
F1.0
g2082
tp4271
a(I465
I2
F1.0
S'best'
p4272
tp4273
a(I470
I0
F0.875
g1733
tp4274
a(I473
I1
F1.0
g16
tp4275
a(I480
I3
F1.0
g2085
tp4276
a(I482
I2
I0
S'phenomenal'
p4277
tp4278
a(I484
I1
F1.0
g1735
tp4279
a(I493
I2
F0.625
S'perfect'
p4280
tp4281
a(I503
I17
F1.0
g3445
tp4282
a(I503
I17
F0.125
g3447
tp4283
a(I510
I1
F1.0
S'best'
p4284
tp4285
a(I515
I0
F1.0
g3449
tp4286
a(I515
I0
F0.875
g3451
tp4287
a(I515
I0
F0.625
g3453
tp4288
a(I521
I1
I0
g2090
tp4289
a(I542
I9
F1.0
g3218
tp4290
a(I542
I16
F1.0
S'best'
p4291
tp4292
a(I542
I22
I0
g2092
tp4293
a(I542
I70
F1.0
g1739
tp4294
a(I546
I0
I0
g2095
tp4295
a(I552
I3
F1.0
g3457
tp4296
a(I556
I1
F0.125
g18
tp4297
a(I557
I3
F-0.875
S'awful'
p4298
tp4299
a(I560
I0
F1.0
g2097
tp4300
a(I565
I4
F0.375
S'new'
p4301
tp4302
a(I573
I1
F1.0
g2358
tp4303
a(I573
I1
F0.125
g2360
tp4304
a(I577
I1
F-0.75
g3224
tp4305
a(I582
I1
F1.0
g3226
tp4306
a(I582
I3
F1.0
S'best'
p4307
tp4308
a(I582
I4
F1.0
g2999
tp4309
a(I587
I1
F-0.625
g3464
tp4310
a(I590
I4
F0.625
g2362
tp4311
a(I609
I0
F0.25
g1744
tp4312
a(I616
I38
I0
S'entire'
p4313
tp4314
a(I617
I5
I0
g2099
tp4315
a(I618
I5
F1.0
S'best'
p4316
tp4317
a(I618
I8
I0
g2101
tp4318
a(I621
I0
F1.0
g3467
tp4319
a(I621
I0
F0.125
g3469
tp4320
a(I621
I3
F0.125
g3229
tp4321
a(I622
I5
F1.0
g3471
tp4322
a(I626
I0
I0
g2103
tp4323
a(I633
I2
F1.0
S'best'
p4324
tp4325
a(I640
I1
F1.0
g2364
tp4326
a(I649
I3
F0.875
S'nice'
p4327
tp4328
a(I653
I0
F1.0
g3001
tp4329
a(I653
I2
F0.125
g3232
tp4330
a(I679
I2
F0.125
S'spectacular'
p4331
tp4332
a(I682
I2
F-0.375
g1748
tp4333
a(I684
I1
I0
g2105
tp4334
a(I707
I0
F1.0
S'best'
p4335
tp4336
a(I710
I1
I0
g2107
tp4337
a(I727
I1
F1.0
g3480
tp4338
a(I728
I0
F1.0
g1750
tp4339
a(I732
I4
I0
g2109
tp4340
a(I739
I4
I0
g2111
tp4341
a(I740
I0
I0
g2113
tp4342
a(I740
I13
I0
g2115
tp4343
a(I742
I1
F0.375
g2371
tp4344
a(I746
I0
F1.0
S'best'
p4345
tp4346
a(I747
I1
F0.625
S'acceptable'
p4347
tp4348
a(I747
I1
F-0.5
S'regular'
p4349
tp4350
a(I749
I15
I0
g2117
tp4351
a(I751
I7
F0.125
g3240
tp4352
a(I756
I2
F0.125
S'digital'
p4353
tp4354
a(I760
I15
F1.0
g3242
tp4355
a(I760
I15
F0.875
g3244
tp4356
a(I772
I7
F0.875
g3485
tp4357
a(I773
I0
F1.0
g1752
tp4358
a(I787
I2
I0
g3247
tp4359
a(I787
I2
F0.125
g3249
tp4360
a(I807
I0
I0
g2119
tp4361
a(I831
I51
F0.125
g2121
tp4362
a(I832
I34
F0.5
S'second'
p4363
tp4364
a(I836
I1
F0.125
g2374
tp4365
a(I836
I1
F0.75
g2376
tp4366
a(I846
I9
F1.0
g3253
tp4367
a(I850
I4
F1.0
g1754
tp4368
as(g652
S'nokia'
p4369
S'n8'
p4370
tp4371
(lp4372
(I10
I0
F-0.75
g1885
tp4373
a(I22
I0
F0.5
g708
tp4374
a(I22
I5
F0.375
g710
tp4375
a(I22
I5
F-0.375
g712
tp4376
a(I24
I36
F0.375
g714
tp4377
a(I52
I2
I0
g1041
tp4378
a(I70
I0
F-0.75
g1043
tp4379
a(I70
I0
F-0.625
g1893
tp4380
a(I70
I0
F0.375
g1895
tp4381
a(I71
I0
F-0.625
g1897
tp4382
a(I72
I12
F0.25
g716
tp4383
a(I72
I20
F0.25
g718
tp4384
a(I106
I3
F-0.25
g720
tp4385
a(I111
I4
F1.0
g1902
tp4386
a(I119
I2
I0
g722
tp4387
a(I119
I2
F0.375
g724
tp4388
a(I121
I2
I0
g1906
tp4389
a(I121
I2
F0.375
g1908
tp4390
a(I125
I0
F0.875
g1081
tp4391
a(I125
I0
F0.125
g1083
tp4392
a(I125
I0
F0.375
g1085
tp4393
a(I130
I1
I0
g1913
tp4394
a(I135
I4
I0
g726
tp4395
a(I135
I10
F1.0
g728
tp4396
a(I135
I13
F1.0
g730
tp4397
a(I135
I27
F-0.5
g732
tp4398
a(I135
I31
F1.0
g734
tp4399
a(I135
I31
F0.125
g736
tp4400
a(I145
I0
F1.0
g738
tp4401
a(I145
I3
F-0.625
g740
tp4402
a(I145
I3
I0
g742
tp4403
a(I145
I4
I0
g744
tp4404
a(I150
I5
F1.0
g746
tp4405
a(I166
I0
I0
g748
tp4406
a(I180
I5
I0
g750
tp4407
a(I180
I5
I0
g752
tp4408
a(I200
I9
I0
g1929
tp4409
a(I200
I9
F0.5
g1113
tp4410
a(I226
I0
I0
g754
tp4411
a(I228
I0
I0
g756
tp4412
a(I246
I0
F1.0
g1128
tp4413
a(I247
I3
I0
g758
tp4414
a(I261
I10
I0
g1936
tp4415
a(I265
I0
F-0.75
g760
tp4416
a(I270
I6
F0.875
g1144
tp4417
a(I285
I7
I0
g762
tp4418
a(I285
I7
F0.25
g764
tp4419
a(I287
I0
I0
g1942
tp4420
a(I288
I0
F1.0
g766
tp4421
a(I288
I0
F0.125
g768
tp4422
a(I299
I8
F1.0
g770
tp4423
a(I299
I8
F-0.125
g772
tp4424
a(I311
I10
F0.125
g774
tp4425
a(I326
I2
F0.75
g776
tp4426
a(I326
I2
F0.875
g778
tp4427
a(I326
I2
F0.5
g780
tp4428
a(I330
I21
F1.0
g1952
tp4429
a(I348
I7
I0
g1189
tp4430
a(I372
I0
F0.375
g782
tp4431
a(I376
I33
F0.875
g1210
tp4432
a(I404
I1
I0
g784
tp4433
a(I409
I3
F-0.5
g786
tp4434
a(I427
I2
I0
g788
tp4435
a(I432
I3
F0.375
g790
tp4436
a(I432
I3
F-0.5
g792
tp4437
a(I434
I11
F-0.25
g794
tp4438
a(I434
I11
F0.5
g796
tp4439
a(I441
I10
I0
g798
tp4440
a(I441
I10
F0.25
g800
tp4441
a(I441
I10
F-0.625
g802
tp4442
a(I441
I10
I0
g804
tp4443
a(I447
I0
F0.125
g806
tp4444
a(I447
I5
F0.125
g808
tp4445
a(I447
I5
F-0.25
g810
tp4446
a(I457
I0
F0.875
g1234
tp4447
a(I470
I0
I0
g812
tp4448
a(I476
I8
I0
g1242
tp4449
a(I476
I8
F0.125
g1974
tp4450
a(I482
I8
I0
g814
tp4451
a(I482
I8
I0
g816
tp4452
a(I482
I8
I0
g818
tp4453
a(I484
I0
F-0.75
g820
tp4454
a(I484
I3
F0.5
g822
tp4455
a(I497
I0
I0
g824
tp4456
a(I523
I7
F0.25
g826
tp4457
a(I529
I3
I0
g1983
tp4458
a(I571
I0
F0.375
g828
tp4459
a(I571
I0
F-0.875
g830
tp4460
a(I571
I0
I0
g832
tp4461
a(I573
I1
F1.0
S'good'
p4462
tp4463
a(I578
I2
F-0.625
g834
tp4464
a(I601
I0
I0
g1288
tp4465
a(I601
I0
F0.375
g1290
tp4466
a(I604
I0
F1.0
g1991
tp4467
a(I604
I3
F1.0
g836
tp4468
a(I604
I15
F0.375
g838
tp4469
a(I604
I18
F-0.375
g840
tp4470
a(I621
I10
F0.5
g842
tp4471
a(I624
I0
I0
g1308
tp4472
a(I629
I0
F0.75
g844
tp4473
a(I633
I2
F-0.625
g846
tp4474
a(I685
I0
F0.375
g848
tp4475
a(I685
I0
F-0.25
g850
tp4476
a(I709
I1
F0.875
g1330
tp4477
a(I709
I1
F0.375
g2003
tp4478
a(I734
I16
I0
g852
tp4479
a(I735
I1
F1.0
g854
tp4480
a(I735
I1
I0
g856
tp4481
a(I742
I7
I0
g1343
tp4482
a(I795
I1
F0.375
g1359
tp4483
a(I797
I3
F1.0
g858
tp4484
a(I811
I2
F0.125
g860
tp4485
a(I831
I20
F-0.625
g1367
tp4486
a(I832
I5
I0
g862
tp4487
a(I842
I30
F-0.625
g2014
tp4488
a(I842
I32
I0
g864
tp4489
a(I842
I33
I0
g866
tp4490
a(I842
I33
F0.25
g868
tp4491
a(I850
I4
F-0.75
g870
tp4492
a(I857
I0
F0.5
g1374
tp4493
as(S'with'
p4494
S'nokia'
p4495
S'n8'
p4496
tp4497
(lp4498
(I22
I5
F0.375
g710
tp4499
a(I22
I5
F-0.375
g712
tp4500
a(I24
I36
F0.375
g714
tp4501
a(I70
I0
F-0.75
g1043
tp4502
a(I70
I0
F-0.625
g1893
tp4503
a(I70
I0
F0.375
g1895
tp4504
a(I106
I3
F-0.25
g720
tp4505
a(I119
I2
I0
g722
tp4506
a(I119
I2
F0.375
g724
tp4507
a(I125
I0
F0.875
g1081
tp4508
a(I125
I0
F0.125
g1083
tp4509
a(I125
I0
F0.375
g1085
tp4510
a(I130
I1
I0
g1913
tp4511
a(I135
I4
I0
g726
tp4512
a(I135
I10
F1.0
g728
tp4513
a(I135
I13
F1.0
g730
tp4514
a(I135
I31
F1.0
g734
tp4515
a(I135
I31
F0.125
g736
tp4516
a(I145
I0
F1.0
g738
tp4517
a(I145
I3
F-0.625
g740
tp4518
a(I145
I3
I0
g742
tp4519
a(I145
I4
I0
g744
tp4520
a(I180
I5
I0
g750
tp4521
a(I180
I5
I0
g752
tp4522
a(I200
I9
I0
g1929
tp4523
a(I200
I9
F0.5
g1113
tp4524
a(I246
I0
F1.0
g1128
tp4525
a(I247
I3
I0
g758
tp4526
a(I270
I6
F0.875
g1144
tp4527
a(I326
I2
F0.75
g776
tp4528
a(I326
I2
F0.875
g778
tp4529
a(I326
I2
F0.5
g780
tp4530
a(I348
I7
I0
g1189
tp4531
a(I376
I33
F0.875
g1210
tp4532
a(I409
I3
F-0.5
g786
tp4533
a(I427
I2
I0
g788
tp4534
a(I434
I11
F-0.25
g794
tp4535
a(I434
I11
F0.5
g796
tp4536
a(I441
I10
I0
g798
tp4537
a(I441
I10
F0.25
g800
tp4538
a(I441
I10
F-0.625
g802
tp4539
a(I441
I10
I0
g804
tp4540
a(I447
I5
F0.125
g808
tp4541
a(I447
I5
F-0.25
g810
tp4542
a(I457
I0
F0.875
g1234
tp4543
a(I482
I8
I0
g814
tp4544
a(I482
I8
I0
g816
tp4545
a(I482
I8
I0
g818
tp4546
a(I484
I0
F-0.75
g820
tp4547
a(I484
I3
F0.5
g822
tp4548
a(I523
I7
F0.25
g826
tp4549
a(I578
I2
F-0.625
g834
tp4550
a(I604
I15
F0.375
g838
tp4551
a(I604
I18
F-0.375
g840
tp4552
a(I621
I10
F0.5
g842
tp4553
a(I633
I2
F-0.625
g846
tp4554
a(I709
I1
F0.875
g1330
tp4555
a(I709
I1
F0.375
g2003
tp4556
a(I735
I1
F1.0
g854
tp4557
a(I735
I1
I0
g856
tp4558
a(I797
I3
F1.0
g858
tp4559
a(I842
I32
I0
g864
tp4560
a(I850
I4
F-0.75
g870
tp4561
as(S'touch'
p4562
S'screen'
p4563
tp4564
(lp4565
(I12
I22
F0.5
S'touch'
p4566
tp4567
a(I34
I13
F0.5
S'touch'
p4568
tp4569
a(I46
I16
F-0.75
S'unresponsive'
p4570
tp4571
a(I56
I1
F0.5
S'touch'
p4572
tp4573
a(I56
I7
F0.5
S'touch'
p4574
tp4575
a(I60
I1
F0.5
S'clear'
p4576
tp4577
a(I60
I1
F0.5
S'touch'
p4578
tp4579
a(I70
I14
F0.5
S'touch'
p4580
tp4581
a(I72
I0
F0.5
S'touch'
p4582
tp4583
a(I130
I3
F0.5
S'touch'
p4584
tp4585
a(I144
I6
F0.5
S'touch'
p4586
tp4587
a(I144
I10
F0.5
S'touch'
p4588
tp4589
a(I159
I8
I0
S'next'
p4590
tp4591
a(I170
I2
F0.5
S'touch'
p4592
tp4593
a(I173
I10
I0
g232
tp4594
a(I173
I10
F-0.75
S'bright'
p4595
tp4596
a(I176
I23
I0
S'great'
p4597
tp4598
a(I256
I8
F0.5
S'touch'
p4599
tp4600
a(I257
I8
F0.375
S'much'
p4601
tp4602
a(I257
I8
F-0.75
S'impossible'
p4603
tp4604
a(I257
I8
I0
S'limited'
p4605
tp4606
a(I264
I1
F0.25
S'larger'
p4607
tp4608
a(I266
I7
F0.5
S'touch'
p4609
tp4610
a(I272
I1
F0.5
S'touch'
p4611
tp4612
a(I300
I1
F0.125
g236
tp4613
a(I300
I3
F0.5
S'touch'
p4614
tp4615
a(I301
I8
F0.5
S'touch'
p4616
tp4617
a(I321
I2
F0.5
S'touch'
p4618
tp4619
a(I341
I5
F0.5
S'touch'
p4620
tp4621
a(I354
I2
F0.5
S'touch'
p4622
tp4623
a(I354
I2
I0
S'many'
p4624
tp4625
a(I371
I4
F0.5
S'touch'
p4626
tp4627
a(I371
I4
I0
S'faster'
p4628
tp4629
a(I394
I3
F0.5
S'touch'
p4630
tp4631
a(I412
I3
F0.5
S'touch'
p4632
tp4633
a(I412
I11
F0.5
S'touch'
p4634
tp4635
a(I436
I0
F0.5
S'touch'
p4636
tp4637
a(I456
I1
I0
g248
tp4638
a(I456
I1
I0
g250
tp4639
a(I468
I2
I0
g252
tp4640
a(I482
I5
I0
S'most'
p4641
tp4642
a(I482
I5
F0.5
S'touch'
p4643
tp4644
a(I492
I1
I0
S'plastic'
p4645
tp4646
a(I521
I1
F0.5
S'touch'
p4647
tp4648
a(I521
I1
F0.25
S'responsive'
p4649
tp4650
a(I521
I1
F-0.375
S'smaller'
p4651
tp4652
a(I542
I41
I0
S'android'
p4653
tp4654
a(I542
I41
F0.625
S'responsible'
p4655
tp4656
a(I542
I41
F0.5
S'touch'
p4657
tp4658
a(I574
I6
F0.25
S'effective'
p4659
tp4660
a(I584
I1
I0
g254
tp4661
a(I584
I1
F1.0
S'better'
p4662
tp4663
a(I604
I3
I0
S'capacitive'
p4664
tp4665
a(I617
I4
F0.875
S'nice'
p4666
tp4667
a(I633
I7
F0.5
S'touch'
p4668
tp4669
a(I633
I7
F0.5
S'touch'
p4670
tp4671
a(I633
I16
F0.5
S'touch'
p4672
tp4673
a(I669
I1
I0
g256
tp4674
a(I684
I1
F0.5
S'touch'
p4675
tp4676
a(I684
I1
I0
S'great'
p4677
tp4678
a(I740
I11
F0.625
S'necessary'
p4679
tp4680
a(I749
I18
F0.5
S'touch'
p4681
tp4682
a(I757
I5
F0.25
S'responsive'
p4683
tp4684
a(I757
I5
F-0.625
g258
tp4685
a(I757
I5
I0
g260
tp4686
a(I773
I0
F-0.625
g262
tp4687
a(I777
I0
F0.5
S'touch'
p4688
tp4689
a(I777
I1
F0.625
S'easier'
p4690
tp4691
a(I777
I1
F0.5
S'touch'
p4692
tp4693
a(I808
I5
F0.5
S'touch'
p4694
tp4695
a(I831
I78
F0.25
g264
tp4696
a(I844
I4
F1.0
S'best'
p4697
tp4698
a(I844
I4
F0.5
S'touch'
p4699
tp4700
a(I858
I2
I0
S'sensitive'
p4701
tp4702
a(I858
I2
F-0.875
g266
tp4703
as(S'mp'
p4704
S'camera'
p4705
tp4706
(lp4707
(I23
I1
I0
g2337
tp4708
a(I24
I6
F1.0
g2339
tp4709
a(I51
I6
F1.0
g3182
tp4710
a(I69
I2
F-0.125
g1703
tp4711
a(I69
I4
F-0.125
g1705
tp4712
a(I75
I5
I0
g3186
tp4713
a(I120
I2
F1.0
g3188
tp4714
a(I133
I0
F1.0
g3190
tp4715
a(I134
I7
I0
g1709
tp4716
a(I134
I7
I0
g1711
tp4717
a(I178
I9
I0
g2038
tp4718
a(I200
I9
I0
g1719
tp4719
a(I204
I0
F0.875
S'important'
p4720
tp4721
a(I235
I6
F1.0
g2342
tp4722
a(I257
I8
F1.0
g3197
tp4723
a(I258
I8
I0
g1721
tp4724
a(I285
I0
I0
g2053
tp4725
a(I320
I3
F-0.875
g2344
tp4726
a(I340
I0
I0
g8
tp4727
a(I340
I0
F1.0
g10
tp4728
a(I341
I1
I0
g2059
tp4729
a(I366
I37
F-0.75
g3204
tp4730
a(I375
I0
F1.0
g3206
tp4731
a(I390
I5
F1.0
g12
tp4732
a(I411
I2
F1.0
g2071
tp4733
a(I456
I1
F0.375
g2349
tp4734
a(I456
I1
F0.375
g2351
tp4735
a(I458
I11
F1.0
g2995
tp4736
a(I470
I0
F0.875
g1733
tp4737
a(I473
I1
F1.0
g16
tp4738
a(I484
I1
F1.0
g1735
tp4739
a(I521
I1
I0
g2090
tp4740
a(I532
I0
F0.875
g2355
tp4741
a(I542
I9
F1.0
g3218
tp4742
a(I542
I70
F1.0
g1739
tp4743
a(I556
I1
F0.125
g18
tp4744
a(I573
I1
F1.0
g2358
tp4745
a(I573
I1
F0.125
g2360
tp4746
a(I577
I1
F-0.75
g3224
tp4747
a(I582
I1
F1.0
g3226
tp4748
a(I590
I4
F0.625
g2362
tp4749
a(I609
I23
F0.125
S'impressive'
p4750
tp4751
a(I621
I3
F0.125
g3229
tp4752
a(I640
I1
F1.0
g2364
tp4753
a(I653
I2
F0.125
g3232
tp4754
a(I739
I4
I0
g2111
tp4755
a(I742
I1
I0
g2367
tp4756
a(I742
I1
F0.125
g2369
tp4757
a(I742
I1
F0.375
g2371
tp4758
a(I742
I6
F0.375
g3238
tp4759
a(I751
I7
F0.125
g3240
tp4760
a(I760
I15
F1.0
g3242
tp4761
a(I760
I15
F0.875
g3244
tp4762
a(I773
I0
F1.0
g1752
tp4763
a(I787
I2
I0
g3247
tp4764
a(I787
I2
F0.125
g3249
tp4765
a(I836
I1
F0.125
g2374
tp4766
a(I836
I1
F0.75
g2376
tp4767
a(I846
I9
F1.0
g3253
tp4768
a(I850
I4
F1.0
g1754
tp4769
as(S'everything'
p4770
tp4771
(lp4772
(I189
I11
I0
S'great'
p4773
tp4774
a(I209
I18
I0
S'forth'
p4775
tp4776
a(I254
I8
I0
S'most'
p4777
tp4778
a(I340
I0
I0
S'great'
p4779
tp4780
a(I456
I1
I0
S'close'
p4781
tp4782
a(I580
I21
F0.875
S'happy'
p4783
tp4784
a(I608
I0
F1.0
S'good'
p4785
tp4786
a(I617
I3
F-0.375
S'simple'
p4787
tp4788
a(I645
I7
I0
S'great'
p4789
tp4790
a(I654
I5
F-0.75
S'short'
p4791
tp4792
a(I717
I2
F-0.375
S'top'
p4793
tp4794
a(I762
I4
I0
S'next'
p4795
tp4796
a(I831
I51
F1.0
S'good'
p4797
tp4798
as(S'all'
p4799
g652
S'one'
p4800
tp4801
(lp4802
(I573
I1
F1.0
g4462
tp4803
as(S'screen'
p4804
tp4805
(lp4806
(I12
I22
F0.5
g4566
tp4807
a(I18
I9
I0
S'different'
p4808
tp4809
a(I24
I30
F0.625
S'easy'
p4810
tp4811
a(I34
I13
F0.5
g4568
tp4812
a(I41
I0
F0.5
S'clear'
p4813
tp4814
a(I46
I16
F-0.75
g4570
tp4815
a(I47
I27
I0
S'special'
p4816
tp4817
a(I56
I1
F0.5
g4572
tp4818
a(I56
I7
F0.5
g4574
tp4819
a(I60
I1
F0.5
g4576
tp4820
a(I60
I1
F0.5
g4578
tp4821
a(I69
I3
F-0.375
S'small'
p4822
tp4823
a(I70
I14
F0.5
g4580
tp4824
a(I72
I0
F0.5
g4582
tp4825
a(I75
I12
I0
S'big'
p4826
tp4827
a(I82
I2
F-0.875
S'trouble'
p4828
tp4829
a(I88
I1
F0.625
S'easy'
p4830
tp4831
a(I90
I11
F-0.625
S'free'
p4832
tp4833
a(I96
I13
I0
S'big'
p4834
tp4835
a(I96
I20
F0.25
S'larger'
p4836
tp4837
a(I105
I10
I0
S'big'
p4838
tp4839
a(I130
I3
F0.5
g4584
tp4840
a(I144
I6
F0.5
g4586
tp4841
a(I144
I10
F0.5
g4588
tp4842
a(I154
I1
I0
S'big'
p4843
tp4844
a(I154
I1
I0
S'great'
p4845
tp4846
a(I159
I8
I0
g4590
tp4847
a(I170
I2
F0.5
g4592
tp4848
a(I173
I10
F-0.75
g4595
tp4849
a(I176
I23
I0
g4597
tp4850
a(I187
I2
I0
S'such'
p4851
tp4852
a(I187
I2
I0
S'big'
p4853
tp4854
a(I199
I2
I0
S'great'
p4855
tp4856
a(I200
I1
I0
S'big'
p4857
tp4858
a(I229
I6
F0.75
S'beautiful'
p4859
tp4860
a(I229
I7
F0.75
S'beautiful'
p4861
tp4862
a(I239
I6
I0
S'big'
p4863
tp4864
a(I246
I2
I0
S'big'
p4865
tp4866
a(I256
I8
F0.5
g4599
tp4867
a(I257
I8
F0.375
g4601
tp4868
a(I257
I8
F-0.75
g4603
tp4869
a(I257
I8
I0
g4605
tp4870
a(I258
I31
F-0.75
S'unresponsive'
p4871
tp4872
a(I264
I1
F0.25
g4607
tp4873
a(I266
I7
F0.5
g4609
tp4874
a(I272
I1
F0.5
g4611
tp4875
a(I272
I2
F-0.625
S'clean'
p4876
tp4877
a(I286
I2
F0.25
S'bigger'
p4878
tp4879
a(I289
I10
I0
S'big'
p4880
tp4881
a(I296
I2
F0.25
S'larger'
p4882
tp4883
a(I296
I2
I0
S'capacitive'
p4884
tp4885
a(I296
I2
I0
S'capacitive'
p4886
tp4887
a(I296
I2
I0
S'resistive'
p4888
tp4889
a(I300
I3
F0.5
g4614
tp4890
a(I301
I8
F0.5
g4616
tp4891
a(I311
I7
F0.875
S'nice'
p4892
tp4893
a(I321
I2
F0.5
g4618
tp4894
a(I336
I9
F-0.625
S'bad'
p4895
tp4896
a(I341
I5
F0.5
g4620
tp4897
a(I354
I2
F0.5
g4622
tp4898
a(I354
I2
I0
g4624
tp4899
a(I364
I2
F0.25
S'responsive'
p4900
tp4901
a(I366
I1
I0
S'very'
p4902
tp4903
a(I366
I1
F-0.5
S'poor'
p4904
tp4905
a(I366
I179
F-0.5
S'poor'
p4906
tp4907
a(I370
I2
F-0.375
S'small'
p4908
tp4909
a(I371
I4
F0.5
g4626
tp4910
a(I371
I4
I0
g4628
tp4911
a(I374
I3
F0.25
S'responsive'
p4912
tp4913
a(I377
I0
F0.875
S'nice'
p4914
tp4915
a(I377
I0
F0.25
S'responsive'
p4916
tp4917
a(I394
I3
F0.5
g4630
tp4918
a(I406
I7
I0
S'plastic'
p4919
tp4920
a(I411
I6
I0
S'e-mail'
p4921
tp4922
a(I411
I6
F-0.375
S'small'
p4923
tp4924
a(I412
I3
F0.5
g4632
tp4925
a(I412
I11
F0.5
g4634
tp4926
a(I436
I0
F0.5
g4636
tp4927
a(I451
I12
F-0.75
S'dark'
p4928
tp4929
a(I464
I11
I0
S'automatic'
p4930
tp4931
a(I464
I15
I0
S'same'
p4932
tp4933
a(I473
I3
F-0.375
S'black'
p4934
tp4935
a(I473
I7
F-0.375
S'black'
p4936
tp4937
a(I473
I12
F-0.75
S'unresponsive'
p4938
tp4939
a(I482
I5
I0
g4641
tp4940
a(I482
I5
F0.5
g4643
tp4941
a(I490
I4
F-0.375
S'small'
p4942
tp4943
a(I492
I1
I0
g4645
tp4944
a(I502
I1
I0
S'big'
p4945
tp4946
a(I503
I3
I0
S'weird'
p4947
tp4948
a(I503
I4
F0.5
S'obvious'
p4949
tp4950
a(I503
I5
F0.125
S'first'
p4951
tp4952
a(I503
I5
I0
S'intentional'
p4953
tp4954
a(I521
I1
F0.5
g4647
tp4955
a(I521
I1
F0.25
g4649
tp4956
a(I521
I1
F-0.375
g4651
tp4957
a(I541
I5
F0.25
S'larger'
p4958
tp4959
a(I541
I6
I0
S'great'
p4960
tp4961
a(I542
I41
I0
g4653
tp4962
a(I542
I41
F0.625
g4655
tp4963
a(I542
I41
F0.5
g4657
tp4964
a(I542
I48
F-0.75
S'difficult'
p4965
tp4966
a(I556
I6
F-0.5
S'sure'
p4967
tp4968
a(I574
I6
F0.25
g4659
tp4969
a(I584
I1
F1.0
g4662
tp4970
a(I604
I3
I0
g4664
tp4971
a(I605
I4
I0
S'big'
p4972
tp4973
a(I609
I5
I0
S'large'
p4974
tp4975
a(I609
I5
F-0.75
S'bright'
p4976
tp4977
a(I616
I28
F-0.25
S'lowest'
p4978
tp4979
a(I617
I4
F0.875
g4666
tp4980
a(I633
I7
F0.5
g4668
tp4981
a(I633
I7
F0.5
g4670
tp4982
a(I633
I16
F0.5
g4672
tp4983
a(I643
I17
F0.5
S'flat'
p4984
tp4985
a(I653
I2
I0
S'different'
p4986
tp4987
a(I654
I3
I0
S'great'
p4988
tp4989
a(I684
I1
F0.5
g4675
tp4990
a(I684
I1
I0
g4677
tp4991
a(I688
I1
I0
S'cool'
p4992
tp4993
a(I688
I1
F0.375
S'friendly'
p4994
tp4995
a(I688
I2
F0.25
S'larger'
p4996
tp4997
a(I691
I5
F-0.375
S'small'
p4998
tp4999
a(I730
I22
I0
S'large'
p5000
tp5001
a(I732
I3
F-0.25
S'hang'
p5002
tp5003
a(I740
I11
F0.625
g4679
tp5004
a(I749
I18
F0.5
g4681
tp5005
a(I757
I5
F0.25
g4683
tp5006
a(I765
I3
F-0.75
S'unresponsive'
p5007
tp5008
a(I776
I19
F-0.375
S'small'
p5009
tp5010
a(I777
I0
F0.5
g4688
tp5011
a(I777
I1
F0.625
g4690
tp5012
a(I777
I1
F0.5
g4692
tp5013
a(I777
I15
I0
S'big'
p5014
tp5015
a(I808
I5
F0.5
g4694
tp5016
a(I815
I1
F0.125
S'fat'
p5017
tp5018
a(I831
I14
F-0.375
S'black'
p5019
tp5020
a(I831
I14
F0.375
S'forcing'
p5021
tp5022
a(I832
I66
F0.25
S'larger'
p5023
tp5024
a(I844
I4
F1.0
g4697
tp5025
a(I844
I4
F0.5
g4699
tp5026
a(I853
I0
I0
S'resistive'
p5027
tp5028
a(I856
I4
I0
S'full'
p5029
tp5030
a(I858
I2
I0
g4701
tp5031
a(I862
I0
I0
S'sensitive'
p5032
tp5033
as(S'ovi'
p5034
S'store'
p5035
tp5036
(lp5037
(I1
I8
F-0.75
g675
tp5038
a(I25
I11
F0.125
g888
tp5039
a(I68
I1
F-0.5
g894
tp5040
a(I145
I3
I0
S'rubbish'
p5041
tp5042
a(I296
I23
I0
g898
tp5043
a(I296
I23
F1.0
g900
tp5044
a(I366
I5
F-0.75
g904
tp5045
a(I368
I3
F-0.625
g677
tp5046
a(I468
I19
I0
S'own'
p5047
tp5048
a(I497
I3
F-0.625
S'free'
p5049
tp5050
a(I497
I3
I0
g909
tp5051
a(I569
I0
F-0.667
g913
tp5052
a(I730
I24
I0
S'more'
p5053
tp5054
a(I734
I11
I0
g919
tp5055
a(I773
I0
F-0.625
g679
tp5056
a(I808
I7
F1.0
g925
tp5057
a(I842
I26
F0.375
S'new'
p5058
tp5059
a(I844
I5
F0.375
g681
tp5060
as(S'camera'
p5061
tp5062
(lp5063
(I1
I6
F1.0
g4154
tp5064
a(I3
I0
F-0.125
g1701
tp5065
a(I6
I20
F0.875
g4157
tp5066
a(I12
I10
F1.0
S'best'
p5067
tp5068
a(I12
I10
F0.375
S'available'
p5069
tp5070
a(I12
I37
F0.375
g4159
tp5071
a(I18
I16
I0
g2026
tp5072
a(I24
I6
F1.0
g2339
tp5073
a(I26
I0
F1.0
g3395
tp5074
a(I51
I6
F1.0
g3182
tp5075
a(I56
I1
I0
g2028
tp5076
a(I69
I2
F-0.125
g1703
tp5077
a(I69
I4
F-0.125
g1705
tp5078
a(I71
I3
F1.0
S'better'
p5079
tp5080
a(I75
I5
I0
g3186
tp5081
a(I90
I1
F1.0
g3397
tp5082
a(I90
I60
F1.0
g4168
tp5083
a(I96
I11
I0
g2030
tp5084
a(I105
I6
F1.0
g4171
tp5085
a(I111
I3
F1.0
S'best'
p5086
tp5087
a(I120
I2
F1.0
g3188
tp5088
a(I133
I0
F1.0
g3190
tp5089
a(I134
I1
F1.0
g2993
tp5090
a(I134
I7
I0
g1709
tp5091
a(I134
I7
I0
g1711
tp5092
a(I148
I3
F-0.5
S'weak'
p5093
tp5094
a(I148
I9
F0.25
g4178
tp5095
a(I148
I26
I0
g2032
tp5096
a(I154
I1
F1.0
g2034
tp5097
a(I170
I2
F1.0
g3401
tp5098
a(I173
I13
F1.0
g3403
tp5099
a(I178
I0
I0
g2036
tp5100
a(I178
I9
I0
g2038
tp5101
a(I191
I4
F-0.625
g1715
tp5102
a(I199
I2
F0.625
g6
tp5103
a(I200
I9
I0
g1719
tp5104
a(I204
I0
F0.875
g4720
tp5105
a(I204
I8
F-0.625
S'other'
p5106
tp5107
a(I206
I0
I0
g2042
tp5108
a(I207
I1
F0.5
g4190
tp5109
a(I209
I2
F1.0
g4192
tp5110
a(I209
I2
F-0.375
g4194
tp5111
a(I217
I0
F0.5
g4196
tp5112
a(I217
I0
F1.0
g4198
tp5113
a(I224
I0
F1.0
g3409
tp5114
a(I224
I0
F-0.625
g3411
tp5115
a(I229
I10
I0
g2044
tp5116
a(I232
I3
F0.125
g4203
tp5117
a(I233
I1
F-0.625
S'other'
p5118
tp5119
a(I235
I6
F1.0
g2342
tp5120
a(I243
I2
F-0.625
S'other'
p5121
tp5122
a(I247
I2
I0
g2046
tp5123
a(I247
I7
I0
g2048
tp5124
a(I253
I0
F1.0
g4208
tp5125
a(I257
I8
F1.0
g3197
tp5126
a(I258
I8
I0
g1721
tp5127
a(I260
I12
F1.0
g1723
tp5128
a(I260
I62
F0.5
g1725
tp5129
a(I279
I15
F-0.5
g1727
tp5130
a(I279
I15
I0
g1729
tp5131
a(I284
I3
F0.125
S'first'
p5132
tp5133
a(I285
I0
I0
g2053
tp5134
a(I290
I0
F1.0
S'best'
p5135
tp5136
a(I314
I1
I0
g2055
tp5137
a(I316
I19
F0.125
g4218
tp5138
a(I320
I3
F-0.875
g2344
tp5139
a(I322
I0
F1.0
g3416
tp5140
a(I326
I3
F0.625
g3418
tp5141
a(I330
I0
F1.0
g3420
tp5142
a(I330
I8
F-0.625
g4224
tp5143
a(I330
I9
F-0.5
g4226
tp5144
a(I340
I0
I0
g8
tp5145
a(I340
I0
F1.0
g10
tp5146
a(I341
I1
I0
g2059
tp5147
a(I344
I4
I0
g2061
tp5148
a(I347
I0
I0
g2063
tp5149
a(I350
I6
F0.25
g4231
tp5150
a(I350
I8
F0.125
S'digital'
p5151
tp5152
a(I351
I1
I0
g2065
tp5153
a(I364
I1
I0
g2067
tp5154
a(I364
I1
F0.125
g2069
tp5155
a(I366
I34
F1.0
g4235
tp5156
a(I366
I37
F-0.75
g3204
tp5157
a(I375
I0
F1.0
g3206
tp5158
a(I383
I0
F1.0
g3424
tp5159
a(I390
I5
F1.0
g12
tp5160
a(I400
I0
F-0.75
g4241
tp5161
a(I400
I1
F0.625
g4243
tp5162
a(I409
I14
F-0.375
g4245
tp5163
a(I409
I20
F0.25
g4247
tp5164
a(I411
I2
F1.0
g2071
tp5165
a(I412
I21
I0
g4250
tp5166
a(I417
I5
I0
g4252
tp5167
a(I420
I15
F1.0
g3427
tp5168
a(I422
I3
F1.0
g3429
tp5169
a(I426
I9
F-0.625
g4254
tp5170
a(I430
I2
I0
g3431
tp5171
a(I430
I2
F1.0
g3433
tp5172
a(I430
I2
F-0.125
g3435
tp5173
a(I434
I23
I0
g2073
tp5174
a(I439
I8
F0.25
g4260
tp5175
a(I441
I13
F0.125
g1731
tp5176
a(I446
I1
I0
g2076
tp5177
a(I446
I1
F0.125
g2078
tp5178
a(I446
I8
I0
g2080
tp5179
a(I456
I1
F0.375
g2349
tp5180
a(I456
I1
F0.375
g2351
tp5181
a(I458
I3
F1.0
g4268
tp5182
a(I458
I11
F1.0
g2995
tp5183
a(I463
I7
F1.0
g2082
tp5184
a(I465
I2
F1.0
g4272
tp5185
a(I469
I1
I0
S'least'
p5186
tp5187
a(I470
I0
F0.875
g1733
tp5188
a(I473
I1
F1.0
g16
tp5189
a(I473
I2
F1.0
S'best'
p5190
tp5191
a(I474
I0
F0.125
S'digital'
p5192
tp5193
a(I480
I3
F1.0
g2085
tp5194
a(I481
I15
F-0.625
S'bad'
p5195
tp5196
a(I482
I2
I0
g4277
tp5197
a(I484
I1
F1.0
g1735
tp5198
a(I493
I2
F0.625
g4280
tp5199
a(I503
I17
F1.0
g3445
tp5200
a(I503
I17
F0.125
g3447
tp5201
a(I510
I1
F1.0
g4284
tp5202
a(I513
I0
I0
g2088
tp5203
a(I515
I0
F1.0
g3449
tp5204
a(I515
I0
F0.875
g3451
tp5205
a(I515
I0
F0.625
g3453
tp5206
a(I521
I1
I0
g2090
tp5207
a(I542
I9
F1.0
g3218
tp5208
a(I542
I16
F1.0
g4291
tp5209
a(I542
I22
I0
g2092
tp5210
a(I542
I70
F1.0
g1739
tp5211
a(I546
I0
I0
g2095
tp5212
a(I552
I3
F1.0
g3457
tp5213
a(I556
I1
F0.125
g18
tp5214
a(I557
I3
F-0.875
g4298
tp5215
a(I560
I0
F1.0
g2097
tp5216
a(I565
I4
F0.375
g4301
tp5217
a(I573
I1
F1.0
g2358
tp5218
a(I573
I1
F0.125
g2360
tp5219
a(I577
I1
F-0.75
g3224
tp5220
a(I582
I1
F1.0
g3226
tp5221
a(I582
I3
F1.0
g4307
tp5222
a(I582
I4
F1.0
g2999
tp5223
a(I587
I1
F-0.625
g3464
tp5224
a(I590
I4
F0.625
g2362
tp5225
a(I609
I0
F0.25
g1744
tp5226
a(I609
I23
F0.125
g4750
tp5227
a(I616
I38
I0
g4313
tp5228
a(I617
I5
I0
g2099
tp5229
a(I618
I5
F1.0
g4316
tp5230
a(I618
I8
I0
g2101
tp5231
a(I621
I0
F1.0
g3467
tp5232
a(I621
I0
F0.125
g3469
tp5233
a(I621
I3
F0.125
g3229
tp5234
a(I622
I5
F1.0
g3471
tp5235
a(I626
I0
I0
g2103
tp5236
a(I633
I2
F1.0
g4324
tp5237
a(I640
I1
F1.0
g2364
tp5238
a(I649
I3
F0.875
g4327
tp5239
a(I653
I0
F1.0
g3001
tp5240
a(I653
I2
F0.125
g3232
tp5241
a(I679
I2
F0.125
g4331
tp5242
a(I682
I2
F-0.375
g1748
tp5243
a(I684
I1
I0
g2105
tp5244
a(I691
I6
F0.875
S'nice'
p5245
tp5246
a(I703
I2
F1.0
g3474
tp5247
a(I703
I2
F-0.25
g3476
tp5248
a(I703
I2
F-0.625
g3478
tp5249
a(I707
I0
F1.0
g4335
tp5250
a(I710
I1
I0
g2107
tp5251
a(I727
I1
F1.0
g3480
tp5252
a(I728
I0
F1.0
g1750
tp5253
a(I732
I4
I0
g2109
tp5254
a(I739
I4
I0
g2111
tp5255
a(I740
I0
I0
g2113
tp5256
a(I740
I13
I0
g2115
tp5257
a(I742
I1
F0.375
g2371
tp5258
a(I746
I0
F1.0
g4345
tp5259
a(I747
I1
F0.625
g4347
tp5260
a(I747
I1
F-0.5
g4349
tp5261
a(I749
I15
I0
g2117
tp5262
a(I751
I7
F0.125
g3240
tp5263
a(I756
I2
F0.125
g4353
tp5264
a(I760
I15
F1.0
g3242
tp5265
a(I760
I15
F0.875
g3244
tp5266
a(I772
I7
F0.875
g3485
tp5267
a(I773
I0
F1.0
g1752
tp5268
a(I787
I2
I0
g3247
tp5269
a(I787
I2
F0.125
g3249
tp5270
a(I807
I0
I0
g2119
tp5271
a(I831
I51
F0.125
g2121
tp5272
a(I832
I34
F0.5
g4363
tp5273
a(I836
I1
F0.125
g2374
tp5274
a(I836
I1
F0.75
g2376
tp5275
a(I840
I0
I0
g2123
tp5276
a(I845
I13
F1.0
g3490
tp5277
a(I845
I13
F1.0
g3492
tp5278
a(I845
I13
F-0.625
g3494
tp5279
a(I846
I9
F1.0
g3253
tp5280
a(I850
I4
F1.0
g1754
tp5281
a(I852
I1
I0
g2125
tp5282
a(I854
I8
F1.0
S'best'
p5283
tp5284
as(S'using'
p5285
tp5286
(lp5287
(I229
I31
F0.75
S'worth'
p5288
tp5289
a(I532
I0
F0.875
S'music'
p5290
tp5291
a(I632
I3
F-0.75
S'difficult'
p5292
tp5293
a(I721
I0
F0.625
S'interested'
p5294
tp5295
a(I815
I16
F1.0
S'good'
p5296
tp5297
as(S'n8'
p5298
S'unlocked'
p5299
S'gsm'
p5300
tp5301
(lp5302
(I70
I0
F-0.625
g1893
tp5303
a(I70
I0
F0.375
g1895
tp5304
a(I180
I5
I0
g750
tp5305
a(I180
I5
I0
g752
tp5306
as(S'mobile'
p5307
tp5308
(lp5309
(I51
I12
F1.0
S'good'
p5310
tp5311
a(I580
I3
F-0.375
S'serious'
p5312
tp5313
a(I670
I9
I0
S'own'
p5314
tp5315
a(I781
I11
F-0.625
S'free'
p5316
tp5317
a(I798
I0
I0
S'real'
p5318
tp5319
as(S'pictures'
p5320
tp5321
(lp5322
(I17
I1
I0
S'high'
p5323
tp5324
a(I28
I1
F1.0
S'good'
p5325
tp5326
a(I47
I27
F0.875
S'nice'
p5327
tp5328
a(I51
I5
I0
S'great'
p5329
tp5330
a(I69
I3
F1.0
S'good'
p5331
tp5332
a(I101
I1
F0.5
S'clear'
p5333
tp5334
a(I101
I1
F0.5
S'true'
p5335
tp5336
a(I128
I0
F0.625
S'acceptable'
p5337
tp5338
a(I135
I10
F1.0
S'good'
p5339
tp5340
a(I136
I11
F1.0
S'good'
p5341
tp5342
a(I137
I16
I0
S'great'
p5343
tp5344
a(I155
I1
F0.5
S'clear'
p5345
tp5346
a(I165
I1
I0
S'great'
p5347
tp5348
a(I173
I13
I0
S'more'
p5349
tp5350
a(I173
I13
I0
S'more'
p5351
tp5352
a(I187
I10
I0
S'internet'
p5353
tp5354
a(I187
I11
I0
S'great'
p5355
tp5356
a(I195
I0
I0
S'great'
p5357
tp5358
a(I202
I3
I0
S'more'
p5359
tp5360
a(I233
I2
F0.375
S'interior'
p5361
tp5362
a(I233
I3
I0
S'few'
p5363
tp5364
a(I246
I1
I0
S'close'
p5365
tp5366
a(I299
I7
I0
S'many'
p5367
tp5368
a(I302
I7
F0.25
S'sharp'
p5369
tp5370
a(I302
I7
F0.25
S'sharp'
p5371
tp5372
a(I347
I1
F1.0
S'better'
p5373
tp5374
a(I349
I8
I0
S'great'
p5375
tp5376
a(I349
I8
F-0.625
S'other'
p5377
tp5378
a(I367
I2
F1.0
S'good'
p5379
tp5380
a(I367
I2
I0
S'great'
p5381
tp5382
a(I370
I8
I0
S'few'
p5383
tp5384
a(I391
I2
F1.0
S'good'
p5385
tp5386
a(I405
I2
F1.0
S'better'
p5387
tp5388
a(I464
I17
I0
S'more'
p5389
tp5390
a(I464
I17
I0
S'sensitive'
p5391
tp5392
a(I484
I1
F1.0
S'good'
p5393
tp5394
a(I517
I6
I0
S'great'
p5395
tp5396
a(I542
I11
F1.0
S'good'
p5397
tp5398
a(I542
I16
F-0.75
S'dark'
p5399
tp5400
a(I559
I8
I0
S'great'
p5401
tp5402
a(I573
I1
F1.0
S'good'
p5403
tp5404
a(I573
I1
F1.0
S'good'
p5405
tp5406
a(I573
I1
F1.0
S'good'
p5407
tp5408
a(I597
I5
F0.125
S'spectacular'
p5409
tp5410
a(I609
I9
F0.25
S'sharp'
p5411
tp5412
a(I609
I15
I0
S'few'
p5413
tp5414
a(I612
I2
F0.25
S'professional'
p5415
tp5416
a(I633
I11
F-0.625
S'bad'
p5417
tp5418
a(I649
I8
I0
S'great'
p5419
tp5420
a(I650
I5
F1.0
S'better'
p5421
tp5422
a(I666
I5
I0
S'great'
p5423
tp5424
a(I676
I2
F1.0
S'best'
p5425
tp5426
a(I676
I2
F0.5
S'clear'
p5427
tp5428
a(I712
I0
F1.0
S'good'
p5429
tp5430
a(I730
I13
I0
S'great'
p5431
tp5432
a(I730
I13
F0.625
S'easy'
p5433
tp5434
a(I734
I12
I0
S'great'
p5435
tp5436
a(I741
I1
I0
S'great'
p5437
tp5438
a(I762
I3
F0.75
S'beautiful'
p5439
tp5440
a(I780
I12
F0.75
S'worth'
p5441
tp5442
a(I807
I0
F1.0
S'good'
p5443
tp5444
a(I830
I3
I0
S'few'
p5445
tp5446
a(I830
I13
F1.0
S'best'
p5447
tp5448
a(I839
I3
F1.0
S'better'
p5449
tp5450
a(I841
I1
F1.0
S'good'
p5451
tp5452
a(I856
I10
F0.875
S'nice'
p5453
tp5454
as(S'ovi'
p5455
S'maps'
p5456
tp5457
(lp5458
(I18
I12
I0
g1775
tp5459
a(I25
I11
F0.375
g1777
tp5460
a(I90
I45
F-0.5
S'sure'
p5461
tp5462
a(I90
I45
I0
S'great'
p5463
tp5464
a(I119
I2
I0
g1787
tp5465
a(I119
I2
F-0.625
S'free'
p5466
tp5467
a(I119
I2
F0.625
g1789
tp5468
a(I145
I3
I0
g5041
tp5469
a(I187
I7
I0
S'exact'
p5470
tp5471
a(I187
I7
F0.5
S'functional'
p5472
tp5473
a(I256
I3
I0
S'latest'
p5474
tp5475
a(I260
I35
F0.375
S'much'
p5476
tp5477
a(I472
I5
F1.0
g1825
tp5478
a(I517
I16
F-0.625
S'free'
p5479
tp5480
a(I545
I2
F-0.25
g1831
tp5481
a(I545
I2
F1.0
g1833
tp5482
a(I545
I3
F-0.25
g1835
tp5483
a(I578
I2
I0
S'most'
p5484
tp5485
a(I730
I19
I0
S'great'
p5486
tp5487
a(I762
I5
F-0.5
g1849
tp5488
a(I773
I0
F-0.625
g679
tp5489
a(I776
I18
F-0.25
g1851
tp5490
a(I793
I2
I0
S'most'
p5491
tp5492
as(S'people'
p5493
tp5494
(lp5495
(I15
I2
I0
S'many'
p5496
tp5497
a(I18
I7
F-0.625
S'other'
p5498
tp5499
a(I25
I18
I0
S'many'
p5500
tp5501
a(I47
I11
F0.875
S'lucky'
p5502
tp5503
a(I47
I11
F0.25
S'helpful'
p5504
tp5505
a(I47
I12
F0.125
S'able'
p5506
tp5507
a(I51
I2
I0
S'many'
p5508
tp5509
a(I67
I4
I0
S'many'
p5510
tp5511
a(I69
I3
F0.75
S'give'
p5512
tp5513
a(I96
I0
F-0.125
S'present'
p5514
tp5515
a(I96
I1
I0
S'most'
p5516
tp5517
a(I116
I1
F-0.625
S'other'
p5518
tp5519
a(I173
I21
F-0.875
S'hard'
p5520
tp5521
a(I176
I8
I0
S'many'
p5522
tp5523
a(I176
I11
F-0.625
S'other'
p5524
tp5525
a(I301
I0
F0.125
S'first'
p5526
tp5527
a(I341
I13
I0
S'many'
p5528
tp5529
a(I391
I29
I0
S'many'
p5530
tp5531
a(I408
I9
I0
S'many'
p5532
tp5533
a(I420
I14
F-0.625
S'other'
p5534
tp5535
a(I427
I2
I0
S'subjective'
p5536
tp5537
a(I523
I0
I0
S'most'
p5538
tp5539
a(I523
I1
I0
S'older'
p5540
tp5541
a(I550
I15
I0
S'most'
p5542
tp5543
a(I593
I6
I0
S'many'
p5544
tp5545
a(I598
I26
I0
S'many'
p5546
tp5547
a(I598
I26
I0
S'many'
p5548
tp5549
a(I605
I1
F-0.625
S'bad'
p5550
tp5551
a(I605
I1
I0
S'many'
p5552
tp5553
a(I635
I0
I0
S'many'
p5554
tp5555
a(I635
I0
I0
S'many'
p5556
tp5557
a(I650
I7
I0
S'only'
p5558
tp5559
a(I682
I3
F-0.5
S'try'
p5560
tp5561
a(I699
I3
I0
S'most'
p5562
tp5563
a(I760
I7
I0
S'most'
p5564
tp5565
a(I831
I24
I0
S'most'
p5566
tp5567
a(I842
I2
I0
S'many'
p5568
tp5569
as(S'music'
p5570
S'player'
p5571
tp5572
(lp5573
(I90
I49
F0.875
S'music'
p5574
tp5575
a(I90
I49
I0
S'basic'
p5576
tp5577
a(I158
I5
F0.25
S'powerful'
p5578
tp5579
a(I177
I0
F-0.625
S'free'
p5580
tp5581
a(I178
I4
F0.875
S'music'
p5582
tp5583
a(I196
I21
F1.0
S'good'
p5584
tp5585
a(I196
I21
F1.0
S'good'
p5586
tp5587
a(I225
I1
F0.875
S'music'
p5588
tp5589
a(I225
I1
I0
S'latest'
p5590
tp5591
a(I228
I4
F0.875
S'music'
p5592
tp5593
a(I257
I20
F0.875
S'music'
p5594
tp5595
a(I260
I37
F0.875
S'music'
p5596
tp5597
a(I272
I4
I0
S'great'
p5598
tp5599
a(I463
I3
I0
S'great'
p5600
tp5601
a(I463
I3
F1.0
S'best'
p5602
tp5603
a(I464
I2
F0.875
S'music'
p5604
tp5605
a(I517
I31
F0.875
S'music'
p5606
tp5607
a(I517
I34
F-0.625
S'other'
p5608
tp5609
a(I517
I51
F0.875
S'music'
p5610
tp5611
a(I629
I5
F1.0
S'good'
p5612
tp5613
a(I730
I15
F1.0
S'good'
p5614
tp5615
a(I751
I7
F0.875
S'music'
p5616
tp5617
a(I773
I0
F0.875
S'music'
p5618
tp5619
a(I787
I11
F0.625
S'easy'
p5620
tp5621
a(I794
I0
F0.875
S'music'
p5622
tp5623
a(I831
I82
F-0.25
S'low'
p5624
tp5625
as(S'street'
p5626
S'names'
p5627
tp5628
(lp5629
(I96
I14
I0
S'more'
p5630
tp5631
a(I96
I17
F-0.25
S'spoken'
p5632
tp5633
a(I229
I57
I0
S'great'
p5634
tp5635
as(S'for'
p5636
S'nokia'
p5637
S'n8'
p5638
tp5639
(lp5640
(I22
I0
F0.5
g708
tp5641
a(I24
I36
F0.375
g714
tp5642
a(I70
I0
F-0.75
g1043
tp5643
a(I70
I0
F-0.625
g1893
tp5644
a(I70
I0
F0.375
g1895
tp5645
a(I72
I12
F0.25
g716
tp5646
a(I106
I3
F-0.25
g720
tp5647
a(I119
I2
I0
g722
tp5648
a(I119
I2
F0.375
g724
tp5649
a(I121
I2
I0
g1906
tp5650
a(I121
I2
F0.375
g1908
tp5651
a(I135
I4
I0
g726
tp5652
a(I135
I27
F-0.5
g732
tp5653
a(I135
I31
F1.0
g734
tp5654
a(I135
I31
F0.125
g736
tp5655
a(I145
I3
F-0.625
g740
tp5656
a(I145
I3
I0
g742
tp5657
a(I145
I4
I0
g744
tp5658
a(I150
I5
F1.0
g746
tp5659
a(I166
I0
I0
g748
tp5660
a(I200
I9
I0
g1929
tp5661
a(I200
I9
F0.5
g1113
tp5662
a(I226
I0
I0
g754
tp5663
a(I246
I0
F1.0
g1128
tp5664
a(I247
I3
I0
g758
tp5665
a(I261
I10
I0
g1936
tp5666
a(I265
I0
F-0.75
g760
tp5667
a(I270
I6
F0.875
g1144
tp5668
a(I299
I8
F1.0
g770
tp5669
a(I299
I8
F-0.125
g772
tp5670
a(I348
I7
I0
g1189
tp5671
a(I372
I0
F0.375
g782
tp5672
a(I376
I33
F0.875
g1210
tp5673
a(I404
I1
I0
g784
tp5674
a(I432
I3
F0.375
g790
tp5675
a(I432
I3
F-0.5
g792
tp5676
a(I447
I0
F0.125
g806
tp5677
a(I447
I5
F0.125
g808
tp5678
a(I447
I5
F-0.25
g810
tp5679
a(I470
I0
I0
g812
tp5680
a(I482
I8
I0
g814
tp5681
a(I482
I8
I0
g816
tp5682
a(I482
I8
I0
g818
tp5683
a(I484
I0
F-0.75
g820
tp5684
a(I484
I3
F0.5
g822
tp5685
a(I497
I0
I0
g824
tp5686
a(I523
I7
F0.25
g826
tp5687
a(I529
I3
I0
g1983
tp5688
a(I601
I0
I0
g1288
tp5689
a(I601
I0
F0.375
g1290
tp5690
a(I604
I15
F0.375
g838
tp5691
a(I624
I0
I0
g1308
tp5692
a(I633
I2
F-0.625
g846
tp5693
a(I734
I16
I0
g852
tp5694
a(I735
I1
F1.0
g854
tp5695
a(I735
I1
I0
g856
tp5696
a(I842
I32
I0
g864
tp5697
as(S'works'
p5698
tp5699
(lp5700
(I29
I0
F1.0
S'best'
p5701
tp5702
a(I30
I6
I0
S'great'
p5703
tp5704
a(I53
I1
F1.0
S'good'
p5705
tp5706
a(I74
I0
F0.375
S'reliable'
p5707
tp5708
a(I74
I0
F0.625
S'easy'
p5709
tp5710
a(I145
I4
I0
S'slower'
p5711
tp5712
a(I248
I0
I0
S'great'
p5713
tp5714
a(I264
I10
I0
S'great'
p5715
tp5716
a(I367
I0
I0
S'great'
p5717
tp5718
a(I376
I30
F1.0
S'good'
p5719
tp5720
a(I411
I4
I0
S'great'
p5721
tp5722
a(I420
I5
F0.875
S'nice'
p5723
tp5724
a(I441
I21
I0
S'great'
p5725
tp5726
a(I517
I14
I0
S'great'
p5727
tp5728
a(I543
I5
F1.0
S'good'
p5729
tp5730
a(I574
I6
F0.375
S'loud'
p5731
tp5732
a(I586
I14
I0
S'great'
p5733
tp5734
a(I593
I1
I0
S'great'
p5735
tp5736
a(I616
I44
I0
S'great'
p5737
tp5738
a(I622
I13
I0
S'great'
p5739
tp5740
a(I681
I1
I0
S'great'
p5741
tp5742
a(I681
I1
I0
S'faster'
p5743
tp5744
a(I686
I3
I0
S'great'
p5745
tp5746
a(I700
I2
I0
S'fast'
p5747
tp5748
a(I700
I2
F0.625
S'easy'
p5749
tp5750
a(I760
I36
I0
S'great'
p5751
tp5752
a(I831
I63
F-0.625
S'free'
p5753
tp5754
a(I855
I0
I0
S'great'
p5755
tp5756
a(I861
I0
I0
S'great'
p5757
tp5758
as(S'think'
p5759
tp5760
(lp5761
(I102
I0
F-0.625
S'bad'
p5762
tp5763
as(S'browser'
p5764
tp5765
(lp5766
(I46
I10
F-0.625
g2851
tp5767
a(I47
I40
F1.0
S'good'
p5768
tp5769
a(I67
I8
F-0.125
S'slow'
p5770
tp5771
a(I68
I1
F-0.5
S'less'
p5772
tp5773
a(I71
I4
F-0.625
S'bad'
p5774
tp5775
a(I90
I54
F0.125
g2855
tp5776
a(I247
I3
F-0.125
S'slow'
p5777
tp5778
a(I366
I148
F-0.375
S'ugliest'
p5779
tp5780
a(I451
I13
F0.375
S'new'
p5781
tp5782
a(I459
I10
I0
S'android'
p5783
tp5784
a(I459
I12
F0.375
S'new'
p5785
tp5786
a(I464
I13
I0
g2859
tp5787
a(I468
I3
F0.375
g2861
tp5788
a(I468
I3
F-0.625
g2863
tp5789
a(I468
I4
I0
S'passable'
p5790
tp5791
a(I472
I0
F1.0
g2865
tp5792
a(I517
I19
F-0.125
g2867
tp5793
a(I517
I19
F-0.125
g2869
tp5794
a(I520
I7
F0.625
g2873
tp5795
a(I629
I5
F1.0
g2879
tp5796
a(I691
I10
I0
S'different'
p5797
tp5798
a(I699
I6
F-0.5
S'open'
p5799
tp5800
a(I721
I3
I0
g2883
tp5801
a(I787
I6
I0
S'file'
p5802
tp5803
a(I833
I10
F-0.75
S'bright'
p5804
tp5805
a(I842
I7
I0
S'slower'
p5806
tp5807
a(I842
I31
I0
S'great'
p5808
tp5809
as(S'better'
p5810
tp5811
(lp5812
(I46
I5
F-0.125
S'overall'
p5813
tp5814
a(I76
I6
F0.375
S'much'
p5815
tp5816
a(I154
I4
F0.375
S'much'
p5817
tp5818
a(I227
I5
F1.0
S'good'
p5819
tp5820
a(I227
I5
F-0.625
S'other'
p5821
tp5822
a(I227
I5
I0
S'mobile'
p5823
tp5824
a(I286
I2
F0.375
S'much'
p5825
tp5826
a(I321
I1
F0.375
S'much'
p5827
tp5828
a(I442
I11
F0.375
S'much'
p5829
tp5830
a(I492
I2
F0.375
S'much'
p5831
tp5832
a(I556
I2
F0.375
S'much'
p5833
tp5834
a(I679
I5
F0.375
S'much'
p5835
tp5836
a(I815
I10
F0.375
S'much'
p5837
tp5838
as(S'device'
p5839
tp5840
(lp5841
(I1
I4
F-0.5
S'heavier'
p5842
tp5843
a(I28
I0
I0
S'such'
p5844
tp5845
a(I34
I10
I0
S'wish'
p5846
tp5847
a(I60
I0
I0
S'update'
p5848
tp5849
a(I60
I0
F0.5
S'elegant'
p5850
tp5851
a(I60
I0
F-0.375
S'robust'
p5852
tp5853
a(I60
I1
I0
S'normal'
p5854
tp5855
a(I60
I1
F0.375
S'new'
p5856
tp5857
a(I90
I1
F-0.75
S'single'
p5858
tp5859
a(I90
I61
I0
S'great'
p5860
tp5861
a(I96
I21
I0
S'only'
p5862
tp5863
a(I124
I3
I0
S'old'
p5864
tp5865
a(I135
I6
F0.125
S'capable'
p5866
tp5867
a(I141
I3
I0
S'great'
p5868
tp5869
a(I187
I1
F0.375
S'new'
p5870
tp5871
a(I222
I0
F0.75
S'beautiful'
p5872
tp5873
a(I222
I0
F0.375
S'complete'
p5874
tp5875
a(I233
I7
I0
S'mobile'
p5876
tp5877
a(I247
I6
F0.5
S'satisfied'
p5878
tp5879
a(I255
I2
F0.375
S'new'
p5880
tp5881
a(I260
I2
F0.5
S'primary'
p5882
tp5883
a(I284
I2
I0
S'different'
p5884
tp5885
a(I284
I3
F0.5
S'whole'
p5886
tp5887
a(I296
I13
I0
S'anymore'
p5888
tp5889
a(I299
I3
F1.0
S'best'
p5890
tp5891
a(I320
I3
F0.125
S'colorful'
p5892
tp5893
a(I344
I3
F0.875
S'happy'
p5894
tp5895
a(I363
I11
F0.75
S'consider'
p5896
tp5897
a(I363
I11
F0.375
S'new'
p5898
tp5899
a(I376
I23
F0.5
S'true'
p5900
tp5901
a(I377
I0
F0.125
S'solid'
p5902
tp5903
a(I377
I0
F-0.125
S'overall'
p5904
tp5905
a(I377
I12
I0
S'great'
p5906
tp5907
a(I377
I12
I0
S'such'
p5908
tp5909
a(I381
I7
F0.25
S'unlocked'
p5910
tp5911
a(I401
I0
I0
S'great'
p5912
tp5913
a(I409
I1
I0
S'latest'
p5914
tp5915
a(I409
I7
I0
S'finished'
p5916
tp5917
a(I427
I1
F-0.75
S'single'
p5918
tp5919
a(I427
I4
F-0.75
S'single'
p5920
tp5921
a(I427
I4
F0.375
S'available'
p5922
tp5923
a(I441
I25
F0.125
S'solid'
p5924
tp5925
a(I447
I5
F0.25
S'powerful'
p5926
tp5927
a(I470
I0
I0
S'utilitarian'
p5928
tp5929
a(I513
I2
I0
S'great'
p5930
tp5931
a(I523
I9
I0
S'same'
p5932
tp5933
a(I529
I5
F1.0
S'good'
p5934
tp5935
a(I532
I0
I0
S'great'
p5936
tp5937
a(I532
I1
F0.875
S'happy'
p5938
tp5939
a(I532
I1
I0
S'more'
p5940
tp5941
a(I532
I1
F0.875
S'happy'
p5942
tp5943
a(I543
I4
F0.125
S'solid'
p5944
tp5945
a(I590
I4
F-0.5
S'long'
p5946
tp5947
a(I629
I6
F1.0
S'best'
p5948
tp5949
a(I629
I6
I0
S'mobile'
p5950
tp5951
a(I633
I2
I0
S'most'
p5952
tp5953
a(I633
I2
F0.5
S'advanced'
p5954
tp5955
a(I633
I7
F-0.25
S'past'
p5956
tp5957
a(I669
I7
F1.0
S'good'
p5958
tp5959
a(I724
I0
F1.0
S'good'
p5960
tp5961
a(I727
I4
I0
S'least'
p5962
tp5963
a(I750
I0
F0.375
S'new'
p5964
tp5965
a(I754
I17
F1.0
S'best'
p5966
tp5967
a(I757
I40
I0
S'great'
p5968
tp5969
a(I757
I54
F-0.75
S'sad'
p5970
tp5971
a(I760
I22
F0.5
S'strong'
p5972
tp5973
a(I760
I22
I0
S'handy'
p5974
tp5975
a(I787
I0
I0
S'hand-held'
p5976
tp5977
a(I787
I15
F0.125
S'capable'
p5978
tp5979
a(I787
I15
F0.25
S'powerful'
p5980
tp5981
a(I835
I0
F1.0
S'good'
p5982
tp5983
a(I856
I11
I0
S'android'
p5984
tp5985
a(I861
I1
F0.25
S'favorite'
p5986
tp5987
as(S'music'
p5988
tp5989
(lp5990
(I123
I0
I0
S'japanese'
p5991
tp5992
a(I158
I5
F0.25
g5578
tp5993
a(I225
I1
I0
g5590
tp5994
a(I463
I3
I0
g5600
tp5995
a(I517
I34
F-0.625
g5608
tp5996
a(I727
I5
F0.625
S'successful'
p5997
tp5998
a(I805
I3
F0.75
S'constant'
p5999
tp6000
as(S'made'
p6001
g652
S'china'
p6002
tp6003
(lp6004
(I98
I3
F0.125
S'first'
p6005
tp6006
a(I412
I23
F0.125
g1404
tp6007
a(I441
I25
F1.0
S'good'
p6008
tp6009
as(S'lot'
p6010
S'of'
p6011
S'apps'
p6012
tp6013
(lp6014
(I18
I15
I0
S'different'
p6015
tp6016
a(I54
I1
F-0.625
S'other'
p6017
tp6018
a(I54
I1
I0
S'user'
p6019
tp6020
a(I70
I7
F-0.625
S'free'
p6021
tp6022
a(I133
I1
I0
S'many'
p6023
tp6024
a(I148
I27
I0
S'social'
p6025
tp6026
a(I158
I9
F0.5
S'functional'
p6027
tp6028
a(I260
I29
I0
S'many'
p6029
tp6030
a(I441
I14
I0
S'useful'
p6031
tp6032
a(I523
I9
F0.25
S'consistent'
p6033
tp6034
a(I523
I9
I0
S'different'
p6035
tp6036
a(I599
I6
I0
S'full'
p6037
tp6038
a(I610
I1
F-0.75
S'short'
p6039
tp6040
a(I629
I6
F0.375
S'new'
p6041
tp6042
a(I723
I14
I0
S'many'
p6043
tp6044
a(I775
I0
F0.875
S'important'
p6045
tp6046
as(S'turn'
p6047
S'by'
p6048
S'turn'
p6049
tp6050
(lp6051
(I75
I13
F-0.625
g3073
tp6052
as(S'data'
p6053
S'plan'
p6054
tp6055
(lp6056
(I96
I5
F-0.25
g2905
tp6057
a(I148
I2
F-0.25
g2958
tp6058
a(I256
I2
I0
g2960
tp6059
a(I256
I2
I0
g2962
tp6060
a(I256
I3
I0
g2907
tp6061
a(I257
I25
I0
g2965
tp6062
a(I265
I21
F-0.125
g2967
tp6063
a(I330
I3
I0
g2969
tp6064
a(I420
I3
I0
g2927
tp6065
a(I503
I16
F0.5
g2931
tp6066
a(I503
I18
F-0.75
g2933
tp6067
a(I659
I4
I0
g2941
tp6068
a(I659
I4
I0
g2943
tp6069
a(I663
I4
I0
g2976
tp6070
a(I721
I17
I0
g2947
tp6071
a(I734
I9
F0.375
g2949
tp6072
a(I777
I32
I0
g2951
tp6073
as(S'apps'
p6074
tp6075
(lp6076
(I4
I0
F-0.625
S'other'
p6077
tp6078
a(I4
I0
I0
S'great'
p6079
tp6080
a(I18
I15
I0
g6015
tp6081
a(I24
I18
I0
S'active'
p6082
tp6083
a(I24
I31
I0
S'social'
p6084
tp6085
a(I34
I12
I0
S'great'
p6086
tp6087
a(I47
I32
F0.5
S'suggested'
p6088
tp6089
a(I47
I44
I0
S'few'
p6090
tp6091
a(I54
I1
F-0.625
g6017
tp6092
a(I56
I7
I0
S'useful'
p6093
tp6094
a(I57
I0
I0
S'many'
p6095
tp6096
a(I69
I3
I0
S'more'
p6097
tp6098
a(I69
I3
I0
S'android'
p6099
tp6100
a(I70
I7
F-0.625
g6021
tp6101
a(I79
I13
I0
S'many'
p6102
tp6103
a(I88
I2
F0.375
S'available'
p6104
tp6105
a(I88
I3
I0
S'few'
p6106
tp6107
a(I88
I3
F0.375
S'available'
p6108
tp6109
a(I90
I31
F-0.625
S'other'
p6110
tp6111
a(I97
I8
I0
S'more'
p6112
tp6113
a(I123
I0
F1.0
S'good'
p6114
tp6115
a(I133
I1
I0
g6023
tp6116
a(I137
I7
I0
S'many'
p6117
tp6118
a(I137
I7
F0.375
S'available'
p6119
tp6120
a(I148
I27
I0
g6025
tp6121
a(I154
I4
I0
S'many'
p6122
tp6123
a(I158
I9
F0.5
g6027
tp6124
a(I178
I3
F0.375
S'working'
p6125
tp6126
a(I191
I4
F1.0
S'good'
p6127
tp6128
a(I196
I12
I0
S'many'
p6129
tp6130
a(I196
I14
I0
S'many'
p6131
tp6132
a(I196
I14
F0.375
S'new'
p6133
tp6134
a(I200
I5
I0
S'android'
p6135
tp6136
a(I205
I5
F0.125
S'able'
p6137
tp6138
a(I205
I5
F0.375
S'new'
p6139
tp6140
a(I235
I8
I0
S'many'
p6141
tp6142
a(I239
I4
I0
S'great'
p6143
tp6144
a(I256
I12
I0
S'multiple'
p6145
tp6146
a(I260
I18
F0.125
S'able'
p6147
tp6148
a(I260
I29
I0
g6029
tp6149
a(I260
I63
F0.375
S'available'
p6150
tp6151
a(I260
I67
F-0.375
S'top'
p6152
tp6153
a(I260
I74
F-0.625
S'other'
p6154
tp6155
a(I273
I2
F0.375
S'new'
p6156
tp6157
a(I289
I2
F-0.625
S'free'
p6158
tp6159
a(I296
I21
I0
S'few'
p6160
tp6161
a(I296
I22
I0
S'flashlight'
p6162
tp6163
a(I310
I6
I0
S'many'
p6164
tp6165
a(I310
I6
F-0.625
S'other'
p6166
tp6167
a(I310
I6
F-0.5
S'open'
p6168
tp6169
a(I316
I7
F-0.5
S'unavailable'
p6170
tp6171
a(I316
I9
I0
S'few'
p6172
tp6173
a(I326
I3
F0.5
S'functional'
p6174
tp6175
a(I333
I3
F0.375
S'new'
p6176
tp6177
a(I341
I2
I0
S'cool'
p6178
tp6179
a(I341
I2
I0
S'most'
p6180
tp6181
a(I341
I4
F0.375
S'new'
p6182
tp6183
a(I344
I1
I0
S'many'
p6184
tp6185
a(I344
I1
I0
S'useful'
p6186
tp6187
a(I344
I1
F0.375
S'available'
p6188
tp6189
a(I348
I4
I0
S'many'
p6190
tp6191
a(I350
I15
I0
S'more'
p6192
tp6193
a(I350
I15
I0
S'more'
p6194
tp6195
a(I363
I10
F0.375
S'available'
p6196
tp6197
a(I364
I2
F0.375
S'new'
p6198
tp6199
a(I364
I2
I0
S'old'
p6200
tp6201
a(I366
I75
I0
S'many'
p6202
tp6203
a(I377
I18
F1.0
S'better'
p6204
tp6205
a(I394
I2
I0
S'many'
p6206
tp6207
a(I408
I12
F-0.5
S'sure'
p6208
tp6209
a(I408
I12
I0
S'most'
p6210
tp6211
a(I411
I7
F1.0
S'good'
p6212
tp6213
a(I412
I25
I0
S'unnecessary'
p6214
tp6215
a(I412
I25
F-0.5
S'open'
p6216
tp6217
a(I420
I18
I0
S'most'
p6218
tp6219
a(I441
I14
I0
g6031
tp6220
a(I442
I6
F-0.625
S'other'
p6221
tp6222
a(I458
I13
F0.125
S'popular'
p6223
tp6224
a(I461
I5
I0
S'many'
p6225
tp6226
a(I465
I2
F1.0
S'best'
p6227
tp6228
a(I468
I17
F0.375
S'available'
p6229
tp6230
a(I480
I10
I0
S'many'
p6231
tp6232
a(I480
I10
F-0.625
S'free'
p6233
tp6234
a(I492
I2
F0.375
S'available'
p6235
tp6236
a(I520
I1
F0.375
S'new'
p6237
tp6238
a(I523
I9
F0.25
g6033
tp6239
a(I523
I9
I0
g6035
tp6240
a(I540
I3
I0
S'many'
p6241
tp6242
a(I541
I2
I0
S'big'
p6243
tp6244
a(I542
I26
F0.375
S'available'
p6245
tp6246
a(I544
I1
I0
S'many'
p6247
tp6248
a(I559
I33
F1.0
S'best'
p6249
tp6250
a(I560
I0
I0
S'great'
p6251
tp6252
a(I586
I7
I0
S'such'
p6253
tp6254
a(I586
I7
F-0.625
S'bad'
p6255
tp6256
a(I599
I6
I0
g6037
tp6257
a(I610
I1
F-0.75
g6039
tp6258
a(I622
I15
F-0.125
S'slow'
p6259
tp6260
a(I622
I18
F-0.5
S'open'
p6261
tp6262
a(I629
I6
F0.375
g6041
tp6263
a(I630
I6
F0.375
S'new'
p6264
tp6265
a(I645
I6
I0
S'android'
p6266
tp6267
a(I669
I2
I0
S'great'
p6268
tp6269
a(I682
I5
I0
S'many'
p6270
tp6271
a(I682
I5
F0.375
S'available'
p6272
tp6273
a(I682
I5
I0
S'most'
p6274
tp6275
a(I691
I9
I0
S'specific'
p6276
tp6277
a(I721
I26
I0
S'android'
p6278
tp6279
a(I723
I9
I0
S'android'
p6280
tp6281
a(I723
I10
F0.5
S'compatible'
p6282
tp6283
a(I723
I11
F-0.5
S'certain'
p6284
tp6285
a(I723
I14
I0
g6043
tp6286
a(I734
I11
F-0.5
S'sure'
p6287
tp6288
a(I734
I11
F0.125
S'essential'
p6289
tp6290
a(I734
I11
I0
S'most'
p6291
tp6292
a(I740
I10
I0
S'fewer'
p6293
tp6294
a(I741
I1
I0
S'more'
p6295
tp6296
a(I744
I0
F0.625
S'easy'
p6297
tp6298
a(I749
I19
I0
S'local'
p6299
tp6300
a(I749
I21
F-0.625
S'other'
p6301
tp6302
a(I749
I21
I0
S'useful'
p6303
tp6304
a(I751
I6
I0
S'many'
p6305
tp6306
a(I757
I4
F0.625
S'easy'
p6307
tp6308
a(I757
I4
F0.875
S'nice'
p6309
tp6310
a(I772
I4
F0.125
S'plenty'
p6311
tp6312
a(I775
I0
F0.875
g6045
tp6313
a(I776
I30
I0
S'great'
p6314
tp6315
a(I776
I30
I0
S'many'
p6316
tp6317
a(I776
I30
I0
S'useful'
p6318
tp6319
a(I785
I0
F0.375
S'much'
p6320
tp6321
a(I786
I15
F-0.625
S'want'
p6322
tp6323
a(I786
I15
I0
S'latest'
p6324
tp6325
a(I786
I15
F1.0
S'best'
p6326
tp6327
a(I808
I9
F0.375
S'much'
p6328
tp6329
a(I808
I9
F0.5
S'possible'
p6330
tp6331
a(I854
I1
I0
S'many'
p6332
tp6333
a(I856
I5
I0
S'many'
p6334
tp6335
a(I856
I5
I0
S'android'
p6336
tp6337
a(I857
I12
F-0.625
S'other'
p6338
tp6339
a(I857
I12
F-0.625
S'bad'
p6340
tp6341
a(I857
I29
F0.375
S'new'
p6342
tp6343
a(I861
I1
F-0.625
S'free'
p6344
tp6345
a(I861
I1
I0
S'buggy'
p6346
tp6347
as(g2127
S'great'
p6348
S'camera'
p6349
tp6350
(lp6351
(I3
I0
F-0.125
g1701
tp6352
a(I18
I16
I0
g2026
tp6353
a(I56
I1
I0
g2028
tp6354
a(I96
I11
I0
g2030
tp6355
a(I148
I26
I0
g2032
tp6356
a(I154
I1
F1.0
g2034
tp6357
a(I178
I0
I0
g2036
tp6358
a(I178
I9
I0
g2038
tp6359
a(I199
I2
F0.625
g6
tp6360
a(I200
I9
I0
g1719
tp6361
a(I206
I0
I0
g2042
tp6362
a(I229
I10
I0
g2044
tp6363
a(I247
I2
I0
g2046
tp6364
a(I247
I7
I0
g2048
tp6365
a(I258
I8
I0
g1721
tp6366
a(I279
I15
F-0.5
g1727
tp6367
a(I279
I15
I0
g1729
tp6368
a(I285
I0
I0
g2053
tp6369
a(I314
I1
I0
g2055
tp6370
a(I340
I0
I0
g8
tp6371
a(I340
I0
F1.0
g10
tp6372
a(I341
I1
I0
g2059
tp6373
a(I344
I4
I0
g2061
tp6374
a(I347
I0
I0
g2063
tp6375
a(I351
I1
I0
g2065
tp6376
a(I364
I1
I0
g2067
tp6377
a(I364
I1
F0.125
g2069
tp6378
a(I411
I2
F1.0
g2071
tp6379
a(I434
I23
I0
g2073
tp6380
a(I441
I13
F0.125
g1731
tp6381
a(I446
I1
I0
g2076
tp6382
a(I446
I1
F0.125
g2078
tp6383
a(I446
I8
I0
g2080
tp6384
a(I463
I7
F1.0
g2082
tp6385
a(I473
I1
F1.0
g16
tp6386
a(I480
I3
F1.0
g2085
tp6387
a(I484
I1
F1.0
g1735
tp6388
a(I513
I0
I0
g2088
tp6389
a(I521
I1
I0
g2090
tp6390
a(I542
I22
I0
g2092
tp6391
a(I542
I70
F1.0
g1739
tp6392
a(I546
I0
I0
g2095
tp6393
a(I560
I0
F1.0
g2097
tp6394
a(I617
I5
I0
g2099
tp6395
a(I618
I8
I0
g2101
tp6396
a(I626
I0
I0
g2103
tp6397
a(I684
I1
I0
g2105
tp6398
a(I710
I1
I0
g2107
tp6399
a(I732
I4
I0
g2109
tp6400
a(I739
I4
I0
g2111
tp6401
a(I740
I0
I0
g2113
tp6402
a(I740
I13
I0
g2115
tp6403
a(I749
I15
I0
g2117
tp6404
a(I807
I0
I0
g2119
tp6405
a(I831
I51
F0.125
g2121
tp6406
a(I840
I0
I0
g2123
tp6407
a(I852
I1
I0
g2125
tp6408
as(S'days'
p6409
tp6410
(lp6411
(I18
I13
I0
S'full'
p6412
tp6413
a(I62
I0
F0.375
S'honest'
p6414
tp6415
a(I97
I20
I0
S'few'
p6416
tp6417
a(I100
I1
F-0.25
S'low'
p6418
tp6419
a(I120
I31
F-0.25
S'couple'
p6420
tp6421
a(I150
I4
I0
S'android'
p6422
tp6423
a(I150
I4
I0
S'few'
p6424
tp6425
a(I164
I0
F-0.625
S'moderate'
p6426
tp6427
a(I176
I27
F-0.25
S'past'
p6428
tp6429
a(I176
I27
I0
S'few'
p6430
tp6431
a(I258
I17
F0.125
S'last'
p6432
tp6433
a(I297
I5
I0
S'later'
p6434
tp6435
a(I348
I11
I0
S'more'
p6436
tp6437
a(I350
I13
I0
S'full'
p6438
tp6439
a(I406
I14
F0.125
S'first'
p6440
tp6441
a(I408
I16
I0
S'few'
p6442
tp6443
a(I447
I5
F-0.625
S'moderate'
p6444
tp6445
a(I449
I1
I0
S'few'
p6446
tp6447
a(I520
I0
I0
S'few'
p6448
tp6449
a(I524
I8
I0
S'stable'
p6450
tp6451
a(I524
I9
F0.125
S'able'
p6452
tp6453
a(I550
I1
F0.5
S'second'
p6454
tp6455
a(I575
I4
F-0.375
S'daily'
p6456
tp6457
a(I588
I1
F-0.5
S'less'
p6458
tp6459
a(I633
I16
F0.375
S'new'
p6460
tp6461
a(I646
I0
I0
S'few'
p6462
tp6463
a(I654
I1
F0.125
S'first'
p6464
tp6465
a(I654
I1
I0
S'few'
p6466
tp6467
a(I662
I3
F0.125
S'last'
p6468
tp6469
a(I662
I3
I0
S'few'
p6470
tp6471
a(I772
I3
I0
S'few'
p6472
tp6473
a(I789
I0
F-0.625
S'want'
p6474
tp6475
a(I831
I1
F0.125
S'first'
p6476
tp6477
a(I858
I1
F0.125
S'first'
p6478
tp6479
a(I858
I1
I0
S'few'
p6480
tp6481
as(S'bought'
p6482
S'nokia'
p6483
S'n8'
p6484
tp6485
(lp6486
(I22
I0
F0.5
g708
tp6487
a(I22
I5
F0.375
g710
tp6488
a(I22
I5
F-0.375
g712
tp6489
a(I71
I0
F-0.625
g1897
tp6490
a(I145
I0
F1.0
g738
tp6491
a(I228
I0
I0
g756
tp6492
a(I447
I0
F0.125
g806
tp6493
as.