(dp0
(S'iphone'
p1
tp2
(lp3
(I0
I2
I0
S'same'
p4
I1
tp5
a(I1
I90
F0.375
S'new'
p6
I1
tp7
a(I3
I5
I0
S'more'
p8
I1
tp9
as(S'battery'
p10
S'life'
p11
tp12
(lp13
(I1
I8
I0
S'only'
p14
I1
tp15
a(I1
I8
F0.375
S'critic'
p16
I1
tp17
a(I1
I57
F1.0
S'good'
p18
I1
tp19
a(I1
I65
F-0.75
S'worse'
p20
I1
tp21
a(I1
I81
I0
S'great'
p22
I1
tp23
a(I1
I81
I0
S'great'
p24
I1
tp25
a(I5
I23
F-0.75
S'short'
p26
I1
tp27
a(I1
I65
F-0.75
g20
I19
tp28
a(I1
I81
I0
g22
I19
tp29
a(I0
I2
F1.0
S'good'
p30
I15
tp31
a(I1
I8
I0
g14
I15
tp32
a(I1
I8
F0.375
g16
I15
tp33
a(I1
I21
F0.125
S'last'
p34
I15
tp35
a(I1
I21
F0.375
S'much'
p36
I15
tp37
a(I1
I57
F1.0
g18
I15
tp38
a(I1
I81
I0
g24
I15
tp39
a(I1
I98
F0.375
S'available'
p40
I15
tp41
a(I5
I23
F-0.75
g26
I15
tp42
a(I5
I37
F0.25
S'bigger'
p43
I15
tp44
a(I7
I87
F-0.75
S'dry'
p45
I15
tp46
as(S'memory'
p47
tp48
(lp49
(I0
I1
F0.375
S'available'
p50
I5
tp51
a(I1
I1
I0
S'internal'
p52
I5
tp53
a(I5
I25
F-0.875
S'insufficient'
p54
I5
tp55
a(I6
I0
I0
S'internal'
p56
I5
tp57
as(S'internet'
p58
tp59
(lp60
(I2
I41
F0.5
S'second'
p61
I6
tp62
a(I7
I44
I0
S'more'
p63
I6
tp64
as(S'android'
p65
S'market'
p66
tp67
(lp68
(I1
I1
I0
S'android'
p69
I0
tp70
a(I1
I1
F-0.625
S'other'
p71
I0
tp72
a(I1
I1
I0
g69
I16
tp73
a(I1
I1
F-0.625
g71
I16
tp74
a(I7
I17
F0.125
S'arabian'
p75
I16
tp76
a(I1
I45
I0
S'more'
p77
I0
tp78
a(I1
I57
F0.125
S'first'
p79
I0
tp80
a(I3
I26
F1.0
S'best'
p81
I0
tp82
a(I3
I26
F-0.625
S'free'
p83
I0
tp84
a(I5
I11
F0.125
S'first'
p85
I0
tp86
a(I7
I15
I0
S'great'
p87
I0
tp88
as(S'apps'
p89
tp90
(lp91
(I1
I5
I0
S'useful'
p92
I0
tp93
a(I1
I5
F-0.625
S'free'
p94
I0
tp95
a(I2
I57
F0.5
S'comparable'
p96
I0
tp97
a(I3
I5
I0
S'many'
p98
I0
tp99
a(I3
I19
F0.375
S'extra'
p100
I0
tp101
a(I4
I6
F0.375
S'new'
p102
I0
tp103
a(I7
I19
I0
S'spanish'
p104
I0
tp105
a(I7
I19
I0
S'european'
p106
I0
tp107
a(I7
I26
I0
S'third'
p108
I0
tp109
a(I7
I28
I0
S'spanish'
p110
I0
tp111
a(I7
I28
I0
S'dictionary'
p112
I0
tp113
as(S'international'
p114
S'version'
p115
tp116
(lp117
(I2
I62
F-0.5
S'international'
p118
I0
tp119
a(I2
I62
I0
S'indian'
p120
I0
tp121
a(I7
I17
F-0.5
S'international'
p122
I0
tp123
a(I7
I19
F-0.5
S'international'
p124
I0
tp125
as(S'htc'
p126
S'desire'
p127
tp128
(lp129
(I1
I29
I0
S'great'
p130
I0
tp131
a(I2
I25
F-0.25
S'higher'
p132
I0
tp133
a(I2
I31
I0
S'least'
p134
I0
tp135
a(I2
I44
F1.0
S'best'
p136
I0
tp137
a(I2
I44
F1.0
S'best'
p138
I0
tp139
a(I2
I44
F0.75
S'due'
p140
I0
tp141
a(I5
I28
F-0.25
S'google'
p142
I0
tp143
a(I1
I17
F0.625
S'perfect'
p144
I13
tp145
a(I1
I29
I0
g130
I13
tp146
a(I2
I25
F-0.25
g132
I13
tp147
a(I2
I31
I0
g134
I13
tp148
a(I2
I44
F1.0
g136
I13
tp149
a(I2
I44
F1.0
g138
I13
tp150
a(I7
I10
F0.375
S'similar'
p151
I13
tp152
a(I7
I82
F0.125
S'able'
p153
I13
tp154
as.