(dp0
(S'battery'
p1
S'life'
p2
tp3
(lp4
(I0
I12
F-0.75
S'short'
p5
I1
tp6
a(I0
I12
F0.5
S'true'
p7
I1
tp8
a(I0
I107
F0.125
S'last'
p9
I1
tp10
a(I0
I107
F-0.5
S'long'
p11
I1
tp12
a(I1
I7
F-0.625
S'bad'
p13
I1
tp14
a(I3
I21
I0
S'great'
p15
I1
tp16
a(I3
I21
F0.625
S'replaceable'
p17
I1
tp18
a(I6
I7
F0.5
S'reasonable'
p19
I1
tp20
a(I7
I71
F0.5
S'reasonable'
p21
I1
tp22
a(I7
I184
F-0.5
S'longer'
p23
I1
tp24
a(I7
I193
F-0.75
S'short'
p25
I1
tp26
a(I7
I198
F-0.75
S'short'
p27
I1
tp28
a(I9
I160
F-0.625
S'moderate'
p29
I1
tp30
a(I10
I113
F-0.25
S'low'
p31
I1
tp32
a(I10
I150
I0
S'great'
p33
I1
tp34
a(I10
I219
F0.5
S'comparable'
p35
I1
tp36
a(I10
I247
I0
S'different'
p37
I1
tp38
a(I11
I26
F-0.5
S'poor'
p39
I1
tp40
a(I11
I26
F-0.5
S'less'
p41
I1
tp42
a(I11
I29
F-0.5
S'long'
p43
I1
tp44
a(I13
I51
F-0.625
S'bad'
p45
I1
tp46
a(I13
I51
F0.125
S'first'
p47
I1
tp48
a(I13
I52
F-0.5
S'sure'
p49
I1
tp50
a(I15
I32
I0
S'e-mail'
p51
I1
tp52
a(I15
I32
I0
S'such'
p53
I1
tp54
a(I15
I98
F-0.625
S'bad'
p55
I1
tp56
a(I15
I152
F1.0
S'good'
p57
I1
tp58
a(I15
I152
F1.0
S'better'
p59
I1
tp60
a(I16
I144
I0
S'such'
p61
I1
tp62
a(I16
I361
F-0.25
S'low'
p63
I1
tp64
a(I16
I370
F0.375
S'extended'
p65
I1
tp66
a(I16
I380
I0
S'own'
p67
I1
tp68
a(I18
I28
F1.0
S'best'
p69
I1
tp70
a(I18
I201
F1.0
S'good'
p71
I1
tp72
a(I18
I235
F1.0
S'good'
p73
I1
tp74
a(I18
I245
F1.0
S'good'
p75
I1
tp76
a(I0
I12
F0.5
g7
I19
tp77
a(I0
I13
F-0.5
S'less'
p78
I19
tp79
a(I0
I107
F0.125
g9
I19
tp80
a(I0
I107
F-0.5
g11
I19
tp81
a(I1
I7
F-0.625
g13
I19
tp82
a(I1
I233
I0
S'more'
p83
I19
tp84
a(I3
I21
I0
g15
I19
tp85
a(I6
I5
I0
S'such'
p86
I19
tp87
a(I7
I71
F0.5
g21
I19
tp88
a(I9
I160
F-0.625
g29
I19
tp89
a(I10
I219
F0.5
g35
I19
tp90
a(I10
I247
I0
g37
I19
tp91
a(I11
I26
F-0.5
g41
I19
tp92
a(I13
I51
F-0.625
g45
I19
tp93
a(I13
I51
F0.125
g47
I19
tp94
a(I13
I52
F-0.5
g49
I19
tp95
a(I15
I98
F-0.625
g55
I19
tp96
a(I15
I152
F1.0
g57
I19
tp97
a(I15
I152
F1.0
g59
I19
tp98
a(I16
I370
F0.375
g65
I19
tp99
a(I16
I417
I0
S'own'
p100
I19
tp101
a(I18
I28
F1.0
g69
I19
tp102
a(I18
I201
F1.0
g71
I19
tp103
a(I18
I235
F1.0
g73
I19
tp104
a(I18
I245
F1.0
g75
I19
tp105
a(I18
I257
I0
S'own'
p106
I19
tp107
a(I0
I12
F-0.75
g5
I15
tp108
a(I0
I108
I0
S'update'
p109
I15
tp110
a(I1
I53
F-0.75
S'danger'
p111
I15
tp112
a(I1
I97
F1.0
S'better'
p113
I15
tp114
a(I3
I21
F0.625
g17
I15
tp115
a(I5
I25
I0
S'fast'
p116
I15
tp117
a(I6
I7
F0.5
g19
I15
tp118
a(I7
I184
F-0.5
g23
I15
tp119
a(I7
I193
F-0.75
g25
I15
tp120
a(I7
I198
F-0.75
g27
I15
tp121
a(I8
I41
F-0.625
S'bad'
p122
I15
tp123
a(I9
I118
I0
S'most'
p124
I15
tp125
a(I10
I113
F-0.25
g31
I15
tp126
a(I10
I116
F-0.625
S'want'
p127
I15
tp128
a(I10
I116
F0.375
S'extra'
p129
I15
tp130
a(I10
I150
I0
g33
I15
tp131
a(I10
I181
F-0.5
S'weak'
p132
I15
tp133
a(I10
I388
F0.625
S'acceptable'
p134
I15
tp135
a(I10
I441
I0
S'old'
p136
I15
tp137
a(I10
I441
F0.75
S'receive'
p138
I15
tp139
a(I11
I26
F-0.5
g39
I15
tp140
a(I11
I29
F-0.5
g43
I15
tp141
a(I13
I149
F1.0
S'good'
p142
I15
tp143
a(I15
I32
I0
g51
I15
tp144
a(I15
I32
I0
g53
I15
tp145
a(I16
I55
F-0.25
S'low'
p146
I15
tp147
a(I16
I144
I0
g61
I15
tp148
a(I16
I361
F-0.25
g63
I15
tp149
a(I16
I380
I0
g67
I15
tp150
a(I18
I35
F1.0
S'better'
p151
I15
tp152
a(I18
I50
F1.0
S'better'
p153
I15
tp154
a(I18
I204
F-0.25
S'intensive'
p155
I15
tp156
a(I18
I309
F-0.625
S'bad'
p157
I15
tp158
as(S'email'
p159
tp160
(lp161
(I0
I59
F0.5
S'second'
p162
I5
tp163
a(I1
I215
F0.375
S'available'
p164
I5
tp165
a(I10
I319
F-0.625
S'push'
p166
I5
tp167
a(I10
I319
I0
S'great'
p168
I5
tp169
a(I12
I125
F0.375
S'new'
p170
I5
tp171
a(I13
I37
F0.625
S'easy'
p172
I5
tp173
a(I13
I141
F-0.375
S'simple'
p174
I5
tp175
as(S'power'
p176
S'button'
p177
tp178
(lp179
(I7
I157
I-100
S'power/standby'
p180
I0
tp181
a(I11
I34
F-0.625
S'light'
p182
I0
tp183
a(I1
I37
I0
S'dial'
p184
I19
tp185
a(I7
I55
F-0.25
S'hang'
p186
I19
tp187
a(I11
I34
F-0.625
g182
I19
tp188
as(S'text'
p189
tp190
(lp191
(I0
I35
F0.375
S'new'
p192
I18
tp193
a(I1
I311
F0.25
S'original'
p194
I18
tp195
a(I1
I342
F1.0
S'best'
p196
I18
tp197
a(I10
I55
I0
S'specific'
p198
I18
tp199
as(S'call'
p200
S'quality'
p201
tp202
(lp203
(I0
I67
F1.0
S'good'
p204
I0
tp205
a(I8
I45
F1.0
S'better'
p206
I0
tp207
a(I8
I150
I0
S'great'
p208
I0
tp209
a(I10
I193
I0
S'great'
p210
I0
tp211
a(I13
I118
F-0.5
S'sure'
p212
I0
tp213
a(I18
I18
F0.625
S'decent'
p214
I0
tp215
a(I19
I4
F1.0
S'good'
p216
I0
tp217
as(S'third'
p218
S'party'
p219
S'apps'
p220
tp221
(lp222
(I1
I185
I0
S'third'
p223
I0
tp224
a(I8
I128
I0
S'third'
p225
I0
tp226
a(I8
I130
I0
S'third'
p227
I0
tp228
a(I8
I131
I0
S'third'
p229
I0
tp230
a(I8
I133
I0
S'third'
p231
I0
tp232
a(I0
I26
F0.625
S'removable'
p233
I0
tp234
a(I0
I49
F0.125
S'impressive'
p235
I0
tp236
a(I0
I92
F-0.625
S'free'
p237
I0
tp238
a(I1
I26
F0.125
S'native'
p239
I0
tp240
a(I1
I285
F0.375
S'available'
p241
I0
tp242
a(I1
I307
F0.375
S'available'
p243
I0
tp244
a(I1
I309
I0
S'many'
p245
I0
tp246
a(I1
I309
F1.0
S'best'
p247
I0
tp248
a(I1
I365
F0.375
S'available'
p249
I0
tp250
a(I1
I367
I0
S'many'
p251
I0
tp252
a(I7
I132
I0
S'many'
p253
I0
tp254
a(I7
I132
I0
S'useful'
p255
I0
tp256
a(I8
I71
I0
S'different'
p257
I0
tp258
a(I8
I139
I0
S'same'
p259
I0
tp260
a(I9
I85
I0
S'only'
p261
I0
tp262
a(I9
I85
F1.0
S'good'
p263
I0
tp264
a(I10
I53
I0
S'great'
p265
I0
tp266
a(I10
I53
F-0.25
S'speech'
p267
I0
tp268
a(I10
I130
I0
S'many'
p269
I0
tp270
a(I10
I130
F-0.5
S'open'
p271
I0
tp272
a(I10
I155
F-0.625
S'free'
p273
I0
tp274
a(I10
I181
I0
S'more'
p275
I0
tp276
a(I10
I217
F0.5
S'beware'
p277
I0
tp278
a(I10
I224
I0
S'different'
p279
I0
tp280
a(I10
I298
I0
S'coolest'
p281
I0
tp282
a(I10
I319
F-0.625
S'free'
p283
I0
tp284
a(I10
I560
F-0.375
S'smooth'
p285
I0
tp286
a(I10
I560
F0.375
S'reliable'
p287
I0
tp288
a(I10
I561
I0
S'many'
p289
I0
tp290
a(I10
I564
F0.375
S'available'
p291
I0
tp292
a(I10
I564
F0.25
S'powerful'
p293
I0
tp294
a(I10
I564
I0
S'useful'
p295
I0
tp296
a(I10
I634
F-0.375
S'daily'
p297
I0
tp298
a(I10
I636
F1.0
S'best'
p299
I0
tp300
a(I11
I27
I0
S'e-mail'
p301
I0
tp302
a(I13
I116
I0
S'many'
p303
I0
tp304
a(I13
I116
I0
S'great'
p305
I0
tp306
a(I13
I141
I0
S'many'
p307
I0
tp308
a(I13
I154
I0
S'many'
p309
I0
tp310
a(I13
I155
I0
S'many'
p311
I0
tp312
a(I15
I140
F0.125
S'able'
p313
I0
tp314
a(I15
I140
I0
S'incredible'
p315
I0
tp316
a(I16
I122
F0.125
S'essential'
p317
I0
tp318
a(I16
I132
F-0.625
S'other'
p319
I0
tp320
a(I16
I142
F0.375
S'available'
p321
I0
tp322
a(I16
I150
F-0.625
S'free'
p323
I0
tp324
a(I16
I296
F-0.625
S'free'
p325
I0
tp326
a(I16
I307
F0.125
S'enough'
p327
I0
tp328
a(I16
I307
F-0.625
S'free'
p329
I0
tp330
a(I16
I312
I0
S'many'
p331
I0
tp332
a(I16
I387
F-0.375
S'crash'
p333
I0
tp334
a(I16
I417
I0
S'most'
p335
I0
tp336
a(I18
I44
I0
S'cool'
p337
I0
tp338
a(I18
I119
I0
S'many'
p339
I0
tp340
a(I18
I204
F-0.75
S'brightest'
p341
I0
tp342
a(I19
I2
I0
S'many'
p343
I0
tp344
a(I19
I2
F-0.625
S'free'
p345
I0
tp346
as(S'iphone'
p347
tp348
(lp349
(I0
I68
F0.625
S'superior'
p350
I1
tp351
a(I3
I18
I0
S'user'
p352
I1
tp353
a(I3
I18
F0.375
S'friendly'
p354
I1
tp355
a(I5
I46
I0
S'awhile'
p356
I1
tp357
a(I8
I0
F-0.125
S'alternative'
p358
I1
tp359
a(I9
I5
F0.25
S'original'
p360
I1
tp361
a(I9
I5
F-0.25
S'ready'
p362
I1
tp363
a(I9
I8
I0
S'more'
p364
I1
tp365
a(I9
I13
F0.625
S'perfect'
p366
I1
tp367
a(I9
I33
I0
S'same'
p368
I1
tp369
a(I9
I35
F-0.5
S'less'
p370
I1
tp371
a(I9
I100
F0.5
S'gamble'
p372
I1
tp373
a(I9
I138
I0
S'same'
p374
I1
tp375
a(I10
I20
I0
S'next'
p376
I1
tp377
a(I10
I87
F0.25
S'sharp'
p378
I1
tp379
a(I10
I106
I0
S'big'
p380
I1
tp381
a(I10
I135
F0.25
S'polished'
p382
I1
tp383
a(I10
I197
F1.0
S'better'
p384
I1
tp385
a(I10
I199
F0.625
S'easy'
p386
I1
tp387
a(I10
I206
F-0.25
S'cheaper'
p388
I1
tp389
a(I10
I474
F0.875
S'nice'
p390
I1
tp391
a(I10
I489
F0.375
S'new'
p392
I1
tp393
a(I10
I489
I-100
S'jun/jul'
p394
I1
tp395
a(I12
I44
F1.0
S'better'
p396
I1
tp397
a(I12
I150
F0.25
S'original'
p398
I1
tp399
a(I13
I155
I-100
S'breezy'
p400
I1
tp401
a(I13
I167
F-0.625
S'glad'
p402
I1
tp403
a(I14
I1
I-100
S'bettter'
p404
I1
tp405
a(I16
I7
F-0.625
S'other'
p406
I1
tp407
a(I16
I7
I-100
S'phone-it'
p408
I1
tp409
a(I16
I7
F-0.75
S'tough'
p410
I1
tp411
a(I16
I19
F0.625
S'easy'
p412
I1
tp413
a(I16
I49
I0
S'old'
p414
I1
tp415
a(I16
I115
I0
S'big'
p416
I1
tp417
a(I16
I175
F-0.5
S'less'
p418
I1
tp419
a(I16
I386
F0.625
S'easy'
p420
I1
tp421
a(I18
I82
F0.5
S'accurate'
p422
I1
tp423
a(I18
I88
F-0.75
S'dead'
p424
I1
tp425
a(I18
I88
F0.625
S'easy'
p426
I1
tp427
as(S'froyo'
p428
tp429
(lp430
(I1
I340
I0
S'faster'
p431
I0
tp432
a(I4
I8
F0.875
S'important'
p433
I0
tp434
a(I15
I162
F0.375
S'available'
p435
I0
tp436
a(I18
I296
F-0.75
S'dead'
p437
I0
tp438
as(S'front'
p439
S'facing'
p440
S'camera'
p441
tp442
(lp443
(I9
I117
F0.375
S'much'
p444
I0
tp445
a(I10
I373
F1.0
S'good'
p446
I0
tp447
a(I0
I10
F1.0
S'good'
p448
I1
tp449
a(I0
I177
F0.5
S'second'
p450
I1
tp451
a(I9
I117
F0.375
g444
I1
tp452
a(I10
I373
F1.0
g446
I1
tp453
a(I10
I474
I0
S'least'
p454
I1
tp455
a(I13
I1
F0.625
S'decent'
p456
I1
tp457
a(I13
I21
I0
S'rear'
p458
I1
tp459
a(I13
I145
F1.0
S'good'
p460
I1
tp461
a(I16
I43
I0
S'real'
p462
I1
tp463
a(I16
I44
I0
S'great'
p464
I1
tp465
a(I16
I320
I0
S'standard'
p466
I1
tp467
a(I16
I361
F-0.625
S'bad'
p468
I1
tp469
a(I18
I67
F1.0
S'good'
p470
I1
tp471
a(I18
I86
I0
S'fourth'
p472
I1
tp473
a(I18
I86
F1.0
S'good'
p474
I1
tp475
a(I18
I205
F0.875
S'nice'
p476
I1
tp477
as(S'amoled'
p478
S'screen'
p479
tp480
(lp481
(I1
I339
F1.0
S'best'
p482
I0
tp483
a(I9
I21
F-0.75
S'bright'
p484
I0
tp485
a(I9
I21
F0.75
S'beautiful'
p486
I0
tp487
a(I13
I0
F1.0
S'good'
p488
I0
tp489
a(I16
I359
F1.0
S'good'
p490
I0
tp491
a(I16
I359
F-0.75
S'bright'
p492
I0
tp493
as(S'music'
p494
S'player'
p495
tp496
(lp497
(I5
I36
F0.875
S'music'
p498
I0
tp499
a(I9
I83
F0.875
S'music'
p500
I0
tp501
a(I9
I84
F0.875
S'music'
p502
I0
tp503
a(I9
I112
I0
S'incredible'
p504
I0
tp505
a(I9
I166
I0
S'basic'
p506
I0
tp507
a(I10
I350
F0.875
S'music'
p508
I0
tp509
a(I10
I621
F0.625
S'straight'
p510
I0
tp511
a(I13
I154
F-0.125
S'slow'
p512
I0
tp513
a(I16
I361
F0.875
S'music'
p514
I0
tp515
a(I18
I8
F0.875
S'music'
p516
I0
tp517
a(I18
I8
F0.625
S'decent'
p518
I0
tp519
a(I7
I161
F0.5
S'live'
p520
I0
tp521
a(I8
I97
F0.5
S'live'
p522
I0
tp523
a(I10
I283
I0
S'large'
p524
I0
tp525
a(I10
I621
F0.625
g510
I0
tp526
a(I18
I244
F-0.75
S'difficult'
p527
I0
tp528
as(S'a'
p529
S'samsung'
p530
S'captivate'
p531
tp532
(lp533
(I7
I7
I0
S'common'
p534
I0
tp535
a(I7
I13
I0
S'common'
p536
I0
tp537
a(I9
I45
F0.375
S'new'
p538
I0
tp539
a(I18
I155
F-0.75
S'unable'
p540
I0
tp541
a(I18
I292
F0.125
S'first'
p542
I0
tp543
a(I20
I20
F0.375
S'much'
p544
I0
tp545
a(I7
I7
I0
g534
I0
tp546
a(I7
I13
I0
g536
I0
tp547
a(I9
I45
F0.375
g538
I0
tp548
a(I18
I155
F-0.75
g540
I0
tp549
a(I18
I292
F0.125
g542
I0
tp550
a(I20
I20
F0.375
g544
I0
tp551
a(I0
I177
F-0.625
S'other'
p552
I7
tp553
a(I1
I237
F0.5
S'told'
p554
I7
tp555
a(I1
I237
F0.625
S'aware'
p556
I7
tp557
a(I3
I43
I0
S'rigid'
p558
I7
tp559
a(I7
I7
I0
g534
I7
tp560
a(I7
I13
I0
g536
I7
tp561
a(I8
I6
F0.5
S'hopeful'
p562
I7
tp563
a(I9
I45
F0.375
g538
I7
tp564
a(I9
I189
I0
S'same'
p565
I7
tp566
a(I9
I190
F0.625
S'wary'
p567
I7
tp568
a(I9
I193
I0
S'mobile'
p569
I7
tp570
a(I10
I58
I0
S'install'
p571
I7
tp572
a(I10
I91
F0.375
S'newer'
p573
I7
tp574
a(I10
I411
I0
S'only'
p575
I7
tp576
a(I10
I634
I0
S'specific'
p577
I7
tp578
a(I12
I35
F0.125
S'first'
p579
I7
tp580
a(I12
I35
F0.125
S'last'
p581
I7
tp582
a(I12
I43
F-0.625
S'other'
p583
I7
tp584
a(I12
I61
I0
S'useful'
p585
I7
tp586
a(I13
I82
F0.375
S'available'
p587
I7
tp588
a(I13
I230
F0.75
S'due'
p589
I7
tp590
a(I15
I13
F-0.25
S'disappointing'
p591
I7
tp592
a(I15
I13
I0
S'official'
p593
I7
tp594
a(I15
I17
F-0.625
S'other'
p595
I7
tp596
a(I16
I424
F-0.25
S'past'
p597
I7
tp598
a(I18
I206
I0
S'more'
p599
I7
tp600
a(I18
I213
I0
S'most'
p601
I7
tp602
a(I18
I224
F0.125
S'first'
p603
I7
tp604
a(I20
I12
F-0.625
S'free'
p605
I7
tp606
a(I20
I20
F0.375
g544
I7
tp607
a(I1
I74
I0
S'more'
p608
I0
tp609
a(I1
I109
F0.125
S'last'
p610
I0
tp611
a(I1
I264
I0
S'least'
p612
I0
tp613
a(I2
I20
F0.25
S'original'
p614
I0
tp615
a(I2
I20
F0.375
S'new'
p616
I0
tp617
a(I2
I26
I0
S'many'
p618
I0
tp619
a(I7
I70
F0.875
S'happier'
p620
I0
tp621
a(I8
I84
F1.0
S'better'
p622
I0
tp623
a(I9
I11
I0
S'more'
p624
I0
tp625
a(I9
I11
F-0.125
S'complex'
p626
I0
tp627
a(I9
I141
F1.0
S'better'
p628
I0
tp629
a(I10
I49
I0
S'next'
p630
I0
tp631
a(I10
I329
F0.375
S'new'
p632
I0
tp633
a(I10
I453
F0.125
S'first'
p634
I0
tp635
a(I12
I169
F0.25
S'used'
p636
I0
tp637
a(I13
I111
F-0.625
S'free'
p638
I0
tp639
a(I14
I1
F-0.625
S'lighter'
p640
I0
tp641
a(I15
I37
F-0.75
S'unreliable'
p642
I0
tp643
a(I15
I39
F0.5
S'possible'
p644
I0
tp645
a(I15
I39
F-0.875
S'negative'
p646
I0
tp647
a(I15
I50
I0
S'faster'
p648
I0
tp649
a(I16
I163
I0
S'great'
p650
I0
tp651
a(I16
I163
I0
S'specific'
p652
I0
tp653
a(I16
I174
I0
S'wide'
p654
I0
tp655
a(I16
I174
I0
S'slim'
p656
I0
tp657
a(I16
I174
F-0.625
S'light'
p658
I0
tp659
a(I16
I176
F-0.375
S'simple'
p660
I0
tp661
a(I16
I210
F0.125
S'enough'
p662
I0
tp663
a(I16
I250
F-0.5
S'sure'
p664
I0
tp665
a(I16
I394
F-0.25
S'disappointed'
p666
I0
tp667
a(I18
I70
F1.0
S'good'
p668
I0
tp669
a(I18
I155
F-0.75
g540
I0
tp670
a(I18
I160
I0
S'website'
p671
I0
tp672
a(I18
I172
I0
S'different'
p673
I0
tp674
a(I18
I292
F0.125
g542
I0
tp675
as(S'voice'
p676
tp677
(lp678
(I1
I66
F-0.25
S'google'
p679
I4
tp680
a(I1
I136
F0.5
S'clear'
p681
I4
tp682
a(I1
I227
F0.125
S'first'
p683
I4
tp684
a(I1
I239
F0.125
S'outside'
p685
I4
tp686
a(I9
I160
I0
S'few'
p687
I4
tp688
a(I16
I292
F0.375
S'available'
p689
I4
tp690
as(g529
S'two'
p691
S'year'
p692
tp693
(lp694
(I10
I517
F-0.25
S'past'
p695
I0
tp696
as(S'upgrade'
p697
tp698
(lp699
(I10
I101
I0
S'timely'
p700
I3
tp701
a(I10
I101
F0.875
S'important'
p702
I3
tp703
a(I15
I11
F0.75
S'worth'
p704
I3
tp705
a(I15
I20
F0.375
S'early'
p706
I3
tp707
a(I16
I76
F-0.25
S'ready'
p708
I3
tp709
a(I16
I373
F0.5
S'eligible'
p710
I3
tp711
as(S'buttons'
p712
S'at'
p713
S'bottom'
p714
tp715
(lp716
(I15
I74
I0
S'real'
p717
I0
tp718
a(I15
I74
F0.25
S'lit'
p719
I0
tp720
a(I15
I74
F-0.75
S'dark'
p721
I0
tp722
as(S'takes'
p723
tp724
(lp725
(I7
I148
F0.75
S'beautiful'
p726
I19
tp727
as(S'calls'
p728
tp729
(lp730
(I9
I53
F-0.25
S'dropped'
p731
I0
tp732
a(I10
I102
F-0.25
S'white'
p733
I0
tp734
a(I10
I324
F0.25
S'tired'
p735
I0
tp736
a(I10
I324
F0.125
S'able'
p737
I0
tp738
a(I10
I329
F0.25
S'tired'
p739
I0
tp740
a(I10
I329
F0.875
S'important'
p741
I0
tp742
a(I10
I329
F0.25
S'tired'
p743
I0
tp744
a(I10
I454
I0
S'most'
p745
I0
tp746
a(I10
I472
F0.125
S'able'
p747
I0
tp748
a(I15
I72
I0
S'many'
p749
I0
tp750
a(I15
I119
F-0.25
S'dropped'
p751
I0
tp752
a(I15
I123
I0
S'many'
p753
I0
tp754
a(I16
I170
F0.5
S'clear'
p755
I0
tp756
as(S'flash'
p757
S'for'
p758
S'camera'
p759
tp760
(lp761
(I0
I10
F1.0
g448
I0
tp762
a(I0
I10
F0.625
S'necessary'
p763
I0
tp764
a(I9
I117
F0.375
g444
I0
tp765
a(I16
I361
F-0.625
g468
I0
tp766
a(I0
I10
F0.625
g763
I2
tp767
a(I1
I148
I0
S'update'
p768
I2
tp769
a(I1
I148
I0
S'included'
p770
I2
tp771
a(I9
I90
F0.375
S'available'
p772
I2
tp773
a(I10
I200
F0.375
S'much'
p774
I2
tp775
a(I15
I17
I0
S'special'
p776
I2
tp777
as(S'dual'
p778
S'core'
p779
S'processor'
p780
tp781
(lp782
(I2
I21
I0
S'competitive'
p783
I0
tp784
as(S'android'
p785
S'market'
p786
tp787
(lp788
(I0
I48
F0.625
S'necessary'
p789
I0
tp790
a(I8
I133
I0
S'android'
p791
I0
tp792
a(I8
I138
I0
S'android'
p793
I0
tp794
a(I10
I353
I0
S'android'
p795
I0
tp796
a(I10
I635
F0.125
S'plenty'
p797
I0
tp798
a(I16
I162
F0.375
S'new'
p799
I0
tp800
a(I16
I199
F0.125
S'far'
p801
I0
tp802
a(I0
I48
F0.625
g789
I16
tp803
a(I8
I133
I0
g791
I16
tp804
a(I8
I138
I0
g793
I16
tp805
a(I10
I212
F0.75
S'due'
p806
I16
tp807
a(I10
I353
I0
g795
I16
tp808
a(I16
I142
I0
S'great'
p809
I16
tp810
a(I16
I199
F0.125
g801
I16
tp811
a(I1
I15
F0.875
S'happier'
p812
I0
tp813
a(I1
I15
F0.125
S'first'
p814
I0
tp815
a(I1
I70
F1.0
S'best'
p816
I0
tp817
a(I1
I121
F0.125
S'first'
p818
I0
tp819
a(I2
I16
F1.0
S'better'
p820
I0
tp821
a(I4
I16
I0
S'later'
p822
I0
tp823
a(I4
I36
F0.25
S'original'
p824
I0
tp825
a(I4
I43
F-0.625
S'other'
p826
I0
tp827
a(I5
I51
F0.625
S'easy'
p828
I0
tp829
a(I5
I78
I0
S'many'
p830
I0
tp831
a(I7
I23
F-0.625
S'other'
p832
I0
tp833
a(I8
I74
I0
S'next'
p834
I0
tp835
a(I9
I6
F1.0
S'good'
p836
I0
tp837
a(I9
I140
I0
S'next'
p838
I0
tp839
a(I10
I77
F1.0
S'best'
p840
I0
tp841
a(I10
I78
F0.875
S'happy'
p842
I0
tp843
a(I10
I131
I0
S'own'
p844
I0
tp845
a(I10
I203
F0.375
S'available'
p846
I0
tp847
a(I10
I282
I0
S'cpu'
p848
I0
tp849
a(I10
I282
F-0.25
S'intensive'
p850
I0
tp851
a(I10
I635
F0.125
g797
I0
tp852
a(I12
I20
I0
S'only'
p853
I0
tp854
a(I12
I20
F-0.625
S'other'
p855
I0
tp856
a(I12
I31
F1.0
S'best'
p857
I0
tp858
a(I13
I119
F-0.5
S'certain'
p859
I0
tp860
a(I13
I119
F1.0
S'best'
p861
I0
tp862
a(I13
I233
F1.0
S'best'
p863
I0
tp864
a(I13
I233
F0.375
S'available'
p865
I0
tp866
a(I15
I16
F-0.625
S'other'
p867
I0
tp868
a(I15
I55
F0.625
S'major'
p869
I0
tp870
a(I16
I0
F0.125
S'first'
p871
I0
tp872
a(I16
I140
I0
S'many'
p873
I0
tp874
a(I16
I162
F0.375
g799
I0
tp875
a(I16
I297
F-0.625
S'other'
p876
I0
tp877
a(I16
I346
F-0.625
S'other'
p878
I0
tp879
a(I16
I353
F0.125
S'first'
p880
I0
tp881
a(I16
I391
F-0.625
S'other'
p882
I0
tp883
a(I16
I411
F0.125
S'first'
p884
I0
tp885
a(I18
I1
F0.25
S'responsive'
p886
I0
tp887
a(I18
I282
F0.875
S'worthy'
p888
I0
tp889
a(I18
I304
F-0.625
S'other'
p890
I0
tp891
a(I18
I304
F0.125
S'native'
p892
I0
tp893
as(S'wifi'
p894
tp895
(lp896
(I1
I313
F0.5
S'second'
p897
I0
tp898
a(I10
I558
F-0.625
S'free'
p899
I0
tp900
a(I16
I159
I0
S'own'
p901
I0
tp902
a(I18
I299
F-0.5
S'sure'
p903
I0
tp904
as(S'amazon'
p905
tp906
(lp907
(I1
I101
F0.125
S'usual'
p908
I13
tp909
a(I8
I155
F0.375
S'new'
p910
I13
tp911
a(I18
I229
F0.625
S'beat'
p912
I13
tp913
as(S'google'
p914
S'maps'
p915
tp916
(lp917
(I0
I202
F-0.625
S'free'
p918
I1
tp919
a(I16
I92
F-0.25
S'google'
p920
I1
tp921
a(I1
I239
F0.125
S'able'
p922
I4
tp923
a(I10
I306
I0
S'limited'
p924
I4
tp925
a(I10
I411
I-100
S'3-availability'
p926
I4
tp927
as(S'touch'
p928
S'screen'
p929
tp930
(lp931
(I0
I66
F0.5
S'touch'
p932
I2
tp933
a(I0
I224
I0
S'sensitive'
p934
I2
tp935
a(I0
I224
I0
S'sensitive'
p936
I2
tp937
a(I1
I278
F0.5
S'touch'
p938
I2
tp939
a(I4
I39
F0.25
S'main'
p940
I2
tp941
a(I4
I39
F0.25
S'responsive'
p942
I2
tp943
a(I6
I6
F0.5
S'touch'
p944
I2
tp945
a(I7
I50
F0.5
S'touch'
p946
I2
tp947
a(I7
I50
I0
S'sensitive'
p948
I2
tp949
a(I7
I50
F-0.75
S'dirty'
p950
I2
tp951
a(I7
I144
F0.125
S'first'
p952
I2
tp953
a(I7
I174
F0.125
S'first'
p954
I2
tp955
a(I9
I20
I0
S'nervous'
p956
I2
tp957
a(I9
I20
F0.5
S'touch'
p958
I2
tp959
a(I10
I211
F0.75
S'beautiful'
p960
I2
tp961
a(I10
I211
I0
S'great'
p962
I2
tp963
a(I10
I211
I0
S'weightless'
p964
I2
tp965
a(I10
I489
F-0.25
S'disappointed'
p966
I2
tp967
a(I10
I489
F0.5
S'touch'
p968
I2
tp969
a(I13
I52
I0
S'high'
p970
I2
tp971
a(I14
I2
F0.25
S'responsive'
p972
I2
tp973
a(I16
I183
F0.5
S'touch'
p974
I2
tp975
a(I16
I187
F0.5
S'touch'
p976
I2
tp977
a(I16
I277
F0.5
S'touch'
p978
I2
tp979
a(I16
I303
F0.125
S'first'
p980
I2
tp981
a(I18
I103
I0
S'next'
p982
I2
tp983
a(I21
I1
F0.75
S'beautiful'
p984
I2
tp985
a(I21
I1
F0.5
S'touch'
p986
I2
tp987
as.