(dp0
(S'times'
p1
tp2
(lp3
(I23
I18
I0
S'few'
p4
tp5
a(I71
I8
F-0.125
S'opposite'
p6
tp7
a(I72
I10
I0
S'many'
p8
tp9
a(I101
I7
I0
S'many'
p10
tp11
a(I102
I2
I0
S'more'
p12
tp13
a(I108
I21
I0
S'few'
p14
tp15
a(I108
I21
F0.125
S'last'
p16
tp17
a(I132
I5
I0
S'many'
p18
tp19
a(I210
I2
I0
S'own'
p20
tp21
as(S'problem'
p22
tp23
(lp24
(I14
I2
I0
S'same'
p25
tp26
a(I22
I4
I0
S'common'
p27
tp28
a(I26
I5
I0
S'big'
p29
tp30
a(I41
I5
I0
S'standard'
p31
tp32
a(I47
I4
F-0.375
S'serious'
p33
tp34
a(I53
I27
F0.25
S'biggest'
p35
tp36
a(I66
I2
I0
S'same'
p37
tp38
a(I72
I5
I0
S'big'
p39
tp40
a(I79
I14
I0
S'such'
p41
tp42
a(I79
I14
I0
S'big'
p43
tp44
a(I124
I3
F0.25
S'bigger'
p45
tp46
a(I128
I26
F0.375
S'new'
p47
tp48
a(I136
I13
I0
S'text'
p49
tp50
a(I146
I2
F0.625
S'major'
p51
tp52
a(I156
I16
F0.25
S'related'
p53
tp54
a(I170
I1
F0.625
S'major'
p55
tp56
a(I175
I11
I0
S'real'
p57
tp58
a(I175
I12
I0
S'final'
p59
tp60
a(I193
I1
I0
S'big'
p61
tp62
as(S'problems'
p63
S'with'
p64
S'gps'
p65
tp66
(lp67
(I146
I3
I0
S'latest'
p68
tp69
as(S'battery'
p70
S'life'
p71
tp72
(lp73
(I0
I8
F-0.75
S'short'
p74
tp75
a(I0
I8
F0.5
S'true'
p76
tp77
a(I3
I6
F0.125
S'last'
p78
tp79
a(I3
I6
F-0.5
S'long'
p80
tp81
a(I8
I7
F-0.625
S'bad'
p82
tp83
a(I29
I8
I0
S'great'
p84
tp85
a(I29
I8
F0.625
S'replaceable'
p86
tp87
a(I36
I0
F-0.75
S'short'
p88
tp89
a(I42
I5
F0.5
S'reasonable'
p90
tp91
a(I48
I1
F0.5
S'reasonable'
p92
tp93
a(I53
I9
F-0.5
S'longer'
p94
tp95
a(I53
I17
F-0.75
S'short'
p96
tp97
a(I53
I21
F-0.75
S'short'
p98
tp99
a(I76
I2
F-0.625
S'moderate'
p100
tp101
a(I87
I1
F-0.25
S'low'
p102
tp103
a(I88
I1
I0
S'great'
p104
tp105
a(I94
I3
F0.5
S'comparable'
p106
tp107
a(I96
I2
I0
S'different'
p108
tp109
a(I121
I1
F-0.5
S'poor'
p110
tp111
a(I121
I1
F-0.5
S'less'
p112
tp113
a(I121
I4
F-0.5
S'long'
p114
tp115
a(I136
I18
F-0.625
S'bad'
p116
tp117
a(I136
I18
F0.125
S'first'
p118
tp119
a(I136
I19
F-0.5
S'sure'
p120
tp121
a(I152
I11
I0
S'e-mail'
p122
tp123
a(I152
I11
I0
S'such'
p124
tp125
a(I158
I12
F1.0
S'good'
p126
tp127
a(I158
I12
F1.0
S'better'
p128
tp129
a(I167
I2
I0
S'such'
p130
tp131
a(I177
I2
F-0.25
S'low'
p132
tp133
a(I177
I8
F0.375
S'extended'
p134
tp135
a(I177
I16
I0
S'own'
p136
tp137
a(I187
I26
F1.0
S'best'
p138
tp139
a(I194
I5
F1.0
S'good'
p140
tp141
a(I197
I1
F1.0
S'good'
p142
tp143
a(I197
I1
F1.0
S'good'
p144
tp145
as(S'tons'
p146
S'at'
p147
S'bottom'
p148
tp149
(lp150
(I156
I8
F0.25
S'lit'
p151
tp152
as(S'year'
p153
tp154
(lp155
(I4
I9
I0
S'next'
p156
tp157
a(I37
I0
I0
S'old'
p158
tp159
a(I42
I6
I0
S'old'
p160
tp161
a(I50
I4
I0
S'old'
p162
tp163
a(I74
I6
F-0.25
S'past'
p164
tp165
a(I74
I6
F-0.625
S'glad'
p166
tp167
a(I107
I6
I0
S'next'
p168
tp169
a(I116
I3
I0
S'only'
p170
tp171
a(I116
I3
F0.625
S'positive'
p172
tp173
a(I116
I3
F-0.25
S'past'
p174
tp175
a(I131
I4
F0.125
S'last'
p176
tp177
a(I138
I0
F0.375
S'new'
p178
tp179
a(I155
I0
F-0.625
S'bad'
p180
tp181
a(I177
I10
I0
S'entire'
p182
tp183
a(I191
I14
I0
S'old'
p184
tp185
a(I197
I2
I0
S'next'
p186
tp187
as(S'email'
p188
tp189
(lp190
(I0
I48
F0.5
S'second'
p191
tp192
a(I19
I12
F0.375
S'available'
p193
tp194
a(I100
I19
F-0.625
S'push'
p195
tp196
a(I100
I19
I0
S'great'
p197
tp198
a(I129
I3
F0.375
S'new'
p199
tp200
a(I136
I4
F0.625
S'easy'
p201
tp202
a(I144
I2
F-0.375
S'simple'
p203
tp204
a(I170
I1
F-0.25
S'google'
p205
tp206
as(S'text'
p207
tp208
(lp209
(I0
I27
F0.375
S'new'
p210
tp211
a(I23
I6
F0.25
S'original'
p212
tp213
a(I23
I26
F1.0
S'best'
p214
tp215
a(I82
I5
I0
S'specific'
p216
tp217
as(S'screen'
p218
tp219
(lp220
(I3
I5
I0
S'big'
p221
tp222
a(I7
I62
I0
S'sensitive'
p223
tp224
a(I9
I0
I0
S'great'
p225
tp226
a(I16
I2
I0
S'big'
p227
tp228
a(I16
I2
F0.75
S'beautiful'
p229
tp230
a(I17
I13
I0
S'large'
p231
tp232
a(I20
I1
F0.75
S'beautiful'
p233
tp234
a(I21
I5
F0.5
S'touch'
p235
tp236
a(I23
I25
F1.0
S'best'
p237
tp238
a(I28
I0
F0.75
S'beautiful'
p239
tp240
a(I32
I2
F-0.625
S'green'
p241
tp242
a(I33
I32
F0.25
S'main'
p243
tp244
a(I33
I32
F0.25
S'responsive'
p245
tp246
a(I33
I50
F0.75
S'beautiful'
p247
tp248
a(I36
I0
F1.0
S'good'
p249
tp250
a(I36
I0
I0
S'large'
p251
tp252
a(I37
I2
I0
S'big'
p253
tp254
a(I37
I2
F0.75
S'beautiful'
p255
tp256
a(I39
I0
I0
S'great'
p257
tp258
a(I42
I4
F0.5
S'touch'
p259
tp260
a(I46
I4
F0.5
S'touch'
p261
tp262
a(I46
I4
I0
S'sensitive'
p263
tp264
a(I46
I4
F-0.75
S'dirty'
p265
tp266
a(I48
I1
I0
S'great'
p267
tp268
a(I51
I6
F0.5
S'whole'
p269
tp270
a(I55
I0
I0
S'great'
p271
tp272
a(I55
I10
I0
S'large'
p273
tp274
a(I55
I10
F0.75
S'beautiful'
p275
tp276
a(I59
I8
F-0.625
S'bad'
p277
tp278
a(I61
I2
F0.25
S'larger'
p279
tp280
a(I68
I1
I0
S'nervous'
p281
tp282
a(I68
I1
F0.5
S'touch'
p283
tp284
a(I68
I2
F-0.75
S'bright'
p285
tp286
a(I68
I2
F0.75
S'beautiful'
p287
tp288
a(I72
I3
F0.75
S'beautiful'
p289
tp290
a(I75
I2
F0.375
S'proud'
p291
tp292
a(I76
I9
F0.75
S'beautiful'
p293
tp294
a(I79
I7
I0
S'next'
p295
tp296
a(I93
I3
F0.75
S'beautiful'
p297
tp298
a(I93
I3
I0
S'weightless'
p299
tp300
a(I95
I0
I0
S'many'
p301
tp302
a(I95
I0
F0.25
S'sharp'
p303
tp304
a(I95
I0
F0.5
S'clear'
p305
tp306
a(I96
I1
F0.75
S'beautiful'
p307
tp308
a(I97
I0
I0
S'fast'
p309
tp310
a(I98
I6
F0.75
S'beautiful'
p311
tp312
a(I98
I6
F0.5
S'clear'
p313
tp314
a(I100
I12
I0
S'great'
p315
tp316
a(I100
I19
I0
S'great'
p317
tp318
a(I103
I10
I0
S'fast'
p319
tp320
a(I103
I10
F-0.625
S'light'
p321
tp322
a(I103
I10
I0
S'incredible'
p323
tp324
a(I104
I4
F-0.5
S'actual'
p325
tp326
a(I104
I7
F-0.875
S'hard'
p327
tp328
a(I104
I7
F-0.625
S'other'
p329
tp330
a(I105
I4
F-0.375
S'small'
p331
tp332
a(I108
I19
F0.5
S'absolute'
p333
tp334
a(I108
I19
I0
S'most'
p335
tp336
a(I108
I19
F0.75
S'beautiful'
p337
tp338
a(I110
I0
F0.5
S'touch'
p339
tp340
a(I116
I10
I0
S'large'
p341
tp342
a(I116
I10
F0.5
S'captivate'
p343
tp344
a(I116
I10
I0
S'big'
p345
tp346
a(I116
I16
F0.75
S'beautiful'
p347
tp348
a(I122
I1
F-0.75
S'bright'
p349
tp350
a(I126
I2
F0.875
S'nice'
p351
tp352
a(I127
I11
I0
S'great'
p353
tp354
a(I129
I7
F1.0
S'good'
p355
tp356
a(I134
I0
F1.0
S'good'
p357
tp358
a(I135
I1
F0.25
S'bigger'
p359
tp360
a(I136
I19
I0
S'high'
p361
tp362
a(I138
I2
F0.75
S'beautiful'
p363
tp364
a(I145
I10
F0.5
S'true'
p365
tp366
a(I146
I1
I0
S'slower'
p367
tp368
a(I146
I1
F-0.375
S'smaller'
p369
tp370
a(I146
I3
F0.25
S'bigger'
p371
tp372
a(I149
I2
F0.25
S'responsive'
p373
tp374
a(I150
I0
F-0.875
S'hard'
p375
tp376
a(I150
I0
F-0.375
S'smooth'
p377
tp378
a(I150
I0
F0.375
S'new'
p379
tp380
a(I150
I4
F0.5
S'clear'
p381
tp382
a(I151
I2
I0
S'great'
p383
tp384
a(I158
I0
I0
S'incredible'
p385
tp386
a(I161
I1
F1.0
S'better'
p387
tp388
a(I161
I15
F-0.375
S'black'
p389
tp390
a(I164
I2
F0.5
S'whole'
p391
tp392
a(I169
I2
F0.375
S'similar'
p393
tp394
a(I169
I13
F0.5
S'touch'
p395
tp396
a(I169
I17
F0.5
S'touch'
p397
tp398
a(I169
I24
F-0.5
S'long'
p399
tp400
a(I169
I42
F0.25
S'main'
p401
tp402
a(I171
I2
F-0.75
S'bright'
p403
tp404
a(I171
I3
F-0.875
S'inferior'
p405
tp406
a(I173
I12
F0.5
S'touch'
p407
tp408
a(I174
I15
F-0.5
S'power'
p409
tp410
a(I189
I28
I0
S'next'
p411
tp412
a(I190
I4
I0
S'large'
p413
tp414
a(I206
I7
I0
S'big'
p415
tp416
a(I209
I1
F0.75
S'beautiful'
p417
tp418
a(I209
I1
F0.5
S'touch'
p419
tp420
as(S'look'
p421
tp422
(lp423
(I161
I10
F-0.625
S'light'
p424
tp425
a(I161
I10
I0
S'cable'
p426
tp427
a(I200
I17
F-0.5
S'long'
p428
tp429
a(I200
I17
F-0.875
S'hard'
p430
tp431
as(S'call'
p432
S'quality'
p433
tp434
(lp435
(I1
I6
F1.0
S'good'
p436
tp437
a(I59
I6
F1.0
S'better'
p438
tp439
a(I64
I5
I0
S'great'
p440
tp441
a(I92
I5
I0
S'great'
p442
tp443
a(I140
I4
F-0.5
S'sure'
p444
tp445
a(I187
I17
F0.625
S'decent'
p446
tp447
a(I206
I4
F1.0
S'good'
p448
tp449
as(S'music'
p450
tp451
(lp452
(I52
I14
F0.5
S'live'
p453
tp454
a(I61
I15
F0.5
S'live'
p455
tp456
a(I99
I1
I0
S'large'
p457
tp458
a(I118
I22
F0.625
S'straight'
p459
tp460
a(I169
I30
I0
S'android'
p461
tp462
a(I197
I1
F-0.75
S'difficult'
p463
tp464
as(S'problems'
p465
tp466
(lp467
(I23
I10
I0
S'more'
p468
tp469
a(I41
I12
I0
S'many'
p470
tp471
a(I41
I12
I0
S'many'
p472
tp473
a(I53
I20
F0.875
S'lucky'
p474
tp475
a(I79
I16
I0
S'many'
p476
tp477
a(I84
I12
I0
S'most'
p478
tp479
a(I91
I2
F0.125
S'first'
p480
tp481
a(I91
I2
F-0.5
S'sure'
p482
tp483
a(I101
I10
F0.75
S'constant'
p484
tp485
a(I106
I4
I0
S'many'
p486
tp487
a(I106
I5
I0
S'many'
p488
tp489
a(I121
I13
F-0.625
S'bad'
p490
tp491
a(I124
I0
F0.625
S'major'
p492
tp493
a(I128
I21
I0
S'same'
p494
tp495
a(I131
I14
I0
S'more'
p496
tp497
a(I156
I15
I0
S'hardware'
p498
tp499
a(I156
I15
F-0.5
S'sure'
p500
tp501
a(I171
I15
F0.5
S'captivate'
p502
tp503
a(I180
I4
I0
S'different'
p504
tp505
a(I180
I5
I0
S'few'
p506
tp507
a(I188
I1
I0
S'more'
p508
tp509
a(I188
I3
I0
S'garble'
p510
tp511
as(S'samsung'
p512
tp513
(lp514
(I7
I23
F-0.625
S'other'
p515
tp516
a(I19
I25
F0.5
S'told'
p517
tp518
a(I19
I25
F0.625
S'aware'
p519
tp520
a(I25
I1
I0
S'android'
p521
tp522
a(I43
I6
I0
S'common'
p523
tp524
a(I43
I12
I0
S'common'
p525
tp526
a(I71
I0
F0.375
S'new'
p527
tp528
a(I75
I4
F0.375
S'new'
p529
tp530
a(I75
I4
F0.625
S'right'
p531
tp532
a(I77
I9
I0
S'same'
p533
tp534
a(I82
I8
I0
S'install'
p535
tp536
a(I84
I11
F0.375
S'newer'
p537
tp538
a(I105
I6
I0
S'only'
p539
tp540
a(I125
I0
F0.125
S'first'
p541
tp542
a(I125
I0
F0.125
S'last'
p543
tp544
a(I125
I4
F-0.625
S'other'
p545
tp546
a(I151
I0
I0
S'official'
p547
tp548
a(I174
I17
F-0.375
S'manual'
p549
tp550
a(I180
I12
F-0.25
S'past'
p551
tp552
a(I195
I12
F0.125
S'first'
p553
tp554
a(I208
I10
F-0.625
S'free'
p555
tp556
as(S'voice'
p557
tp558
(lp559
(I10
I35
F-0.25
S'google'
p560
tp561
a(I19
I19
F0.125
S'first'
p562
tp563
a(I19
I26
F0.125
S'able'
p564
tp565
a(I19
I26
F-0.25
S'google'
p566
tp567
a(I19
I26
F0.125
S'outside'
p568
tp569
a(I76
I2
I0
S'few'
p570
tp571
a(I118
I36
F-0.25
S'google'
p572
tp573
a(I173
I24
F0.375
S'available'
p574
tp575
a(I173
I26
F-0.25
S'google'
p576
tp577
as(S'back'
p578
tp579
(lp580
(I5
I1
F0.25
S'refurbished'
p581
tp582
a(I158
I18
F-0.125
S'mine'
p583
tp584
as(S'touch'
p585
tp586
(lp587
(I7
I62
I0
S'sensitive'
p588
tp589
a(I52
I1
F0.125
S'first'
p590
tp591
a(I53
I0
F0.125
S'first'
p592
tp593
a(I93
I3
I0
S'great'
p594
tp595
a(I118
I13
I0
S'sensitive'
p596
tp597
a(I174
I2
F0.125
S'first'
p598
tp599
as(S'camera'
p600
tp601
(lp602
(I0
I7
F1.0
S'good'
p603
tp604
a(I7
I23
F0.5
S'second'
p605
tp606
a(I15
I8
F0.25
S'bigger'
p607
tp608
a(I15
I8
I0
S'external'
p609
tp610
a(I36
I1
I0
S'great'
p611
tp612
a(I74
I14
F0.375
S'much'
p613
tp614
a(I87
I1
F0.375
S'alive'
p615
tp616
a(I104
I10
F1.0
S'good'
p617
tp618
a(I108
I18
I0
S'least'
p619
tp620
a(I134
I1
F0.625
S'decent'
p621
tp622
a(I134
I17
I0
S'rear'
p623
tp624
a(I144
I6
F1.0
S'good'
p625
tp626
a(I161
I34
I0
S'real'
p627
tp628
a(I161
I35
I0
S'great'
p629
tp630
a(I174
I18
I0
S'standard'
p631
tp632
a(I177
I2
F-0.625
S'bad'
p633
tp634
a(I188
I3
F1.0
S'good'
p635
tp636
a(I189
I14
I0
S'fourth'
p637
tp638
a(I189
I14
F1.0
S'good'
p639
tp640
a(I194
I9
F0.875
S'nice'
p641
tp642
as(S'turn'
p643
tp644
(lp645
(I76
I9
I0
S'big'
p646
tp647
a(I87
I8
F-0.625
S'free'
p648
tp649
a(I144
I4
I0
S'full'
p650
tp651
as(S'2'
p652
g652
S'upgrade'
p653
tp654
(lp655
(I66
I4
I0
S'android'
p656
tp657
a(I66
I4
F-0.625
S'other'
p658
tp659
a(I138
I0
I0
S'android'
p660
tp661
a(I143
I1
I0
S'android'
p662
tp663
as(S'30'
p664
S'day'
p665
S'return'
p666
tp667
(lp668
(I108
I3
I0
S'very'
p669
tp670
a(I108
I3
F0.125
S'last'
p671
tp672
as(S'super'
p673
S'oled'
p674
S'screen'
p675
tp676
(lp677
(I23
I25
F1.0
g237
tp678
a(I36
I0
F1.0
g249
tp679
a(I36
I0
I0
g251
tp680
a(I83
I5
F0.75
S'beautiful'
p681
tp682
a(I115
I1
F0.75
S'beautiful'
p683
tp684
as(S'froyo'
p685
tp686
(lp687
(I23
I26
I0
S'faster'
p688
tp689
a(I33
I7
F0.875
S'important'
p690
tp691
a(I74
I31
F0.5
S'captivate'
p692
tp693
a(I74
I31
F0.5
S'captivate'
p694
tp695
a(I100
I14
I0
S'android'
p696
tp697
a(I202
I4
F-0.75
S'dead'
p698
tp699
as(S'front'
p700
S'facing'
p701
S'camera'
p702
tp703
(lp704
(I74
I14
F0.375
g613
tp705
a(I104
I10
F1.0
g617
tp706
as(S'quality'
p707
tp708
(lp709
(I1
I6
F1.0
g436
tp710
a(I19
I13
F1.0
S'good'
p711
tp712
a(I22
I8
I0
S'high'
p713
tp714
a(I33
I2
I0
S'synonymous'
p715
tp716
a(I50
I4
F1.0
S'good'
p717
tp718
a(I53
I5
F1.0
S'good'
p719
tp720
a(I59
I6
F1.0
g438
tp721
a(I59
I7
F1.0
S'good'
p722
tp723
a(I61
I15
F-0.25
S'lower'
p724
tp725
a(I64
I5
I0
g440
tp726
a(I72
I23
F-0.625
S'average'
p727
tp728
a(I74
I10
F-0.25
S'thin'
p729
tp730
a(I80
I15
F0.5
S'clear'
p731
tp732
a(I80
I15
F-0.5
S'long'
p733
tp734
a(I92
I5
I0
g442
tp735
a(I97
I0
I0
S'great'
p736
tp737
a(I100
I19
I0
S'great'
p738
tp739
a(I108
I0
F-0.5
S'poor'
p740
tp741
a(I108
I12
F0.625
S'major'
p742
tp743
a(I108
I18
F0.875
S'nice'
p744
tp745
a(I116
I20
F-0.125
S'overall'
p746
tp747
a(I145
I13
F-0.5
S'poor'
p748
tp749
a(I155
I0
I0
S'internal'
p750
tp751
a(I171
I4
F-0.5
S'poor'
p752
tp753
a(I187
I17
F0.625
g446
tp754
a(I206
I4
F1.0
g448
tp755
as(S'make'
p756
tp757
(lp758
(I144
I2
F0.625
S'easy'
p759
tp760
a(I146
I5
I0
S'u-turn'
p761
tp762
a(I158
I12
I0
S'more'
p763
tp764
as(S'life'
p765
tp766
(lp767
(I0
I8
F0.5
g76
tp768
a(I0
I9
F-0.5
S'less'
p769
tp770
a(I3
I6
F0.125
g78
tp771
a(I3
I6
F-0.5
g80
tp772
a(I8
I7
F-0.625
g82
tp773
a(I19
I22
I0
S'more'
p774
tp775
a(I29
I8
I0
g84
tp776
a(I42
I3
I0
S'such'
p777
tp778
a(I48
I1
F0.5
g92
tp779
a(I76
I2
F-0.625
g100
tp780
a(I94
I3
F0.5
g106
tp781
a(I96
I2
I0
g108
tp782
a(I121
I1
F-0.5
g112
tp783
a(I136
I18
F-0.625
g116
tp784
a(I136
I18
F0.125
g118
tp785
a(I136
I19
F-0.5
g120
tp786
a(I158
I12
F1.0
g126
tp787
a(I158
I12
F1.0
g128
tp788
a(I177
I8
F0.375
g134
tp789
a(I180
I6
I0
S'own'
p790
tp791
a(I187
I26
F1.0
g138
tp792
a(I194
I5
F1.0
g140
tp793
a(I197
I1
F1.0
g142
tp794
a(I197
I1
F1.0
g144
tp795
a(I199
I4
I0
S'own'
p796
tp797
as(S'market'
p798
tp799
(lp800
(I0
I17
I0
S'android'
p801
tp802
a(I0
I38
I0
S'android'
p803
tp804
a(I0
I38
F0.625
S'necessary'
p805
tp806
a(I0
I48
I0
S'android'
p807
tp808
a(I8
I5
I0
S'android'
p809
tp810
a(I24
I12
I0
S'android'
p811
tp812
a(I63
I19
I0
S'android'
p813
tp814
a(I63
I24
I0
S'android'
p815
tp816
a(I72
I4
I0
S'android'
p817
tp818
a(I83
I5
I0
S'android'
p819
tp820
a(I83
I5
F1.0
S'better'
p821
tp822
a(I93
I4
F0.75
S'due'
p823
tp824
a(I103
I10
I0
S'android'
p825
tp826
a(I118
I35
F0.125
S'plenty'
p827
tp828
a(I118
I35
I0
S'android'
p829
tp830
a(I145
I19
I0
S'android'
p831
tp832
a(I167
I1
I0
S'great'
p833
tp834
a(I169
I27
I0
S'android'
p835
tp836
a(I169
I27
F0.125
S'far'
p837
tp838
a(I170
I1
I0
S'android'
p839
tp840
a(I170
I4
I0
S'android'
p841
tp842
a(I183
I0
F-0.25
S'google'
p843
tp844
as(S'things'
p845
tp846
(lp847
(I0
I1
I0
S'many'
p848
tp849
a(I0
I1
F0.875
S'nice'
p850
tp851
a(I0
I21
F-0.625
S'other'
p852
tp853
a(I3
I12
F-0.625
S'bad'
p854
tp855
a(I10
I0
I0
S'critical'
p856
tp857
a(I10
I3
F-0.5
S'weak'
p858
tp859
a(I10
I3
I0
S'most'
p860
tp861
a(I20
I0
F0.875
S'nice'
p862
tp863
a(I36
I0
F-0.625
S'other'
p864
tp865
a(I36
I0
F-0.625
S'other'
p866
tp867
a(I36
I1
F-0.75
S'little'
p868
tp869
a(I36
I1
I0
S'many'
p870
tp871
a(I37
I16
I0
S'most'
p872
tp873
a(I37
I16
F0.375
S'available'
p874
tp875
a(I37
I16
I0
S'many'
p876
tp877
a(I45
I14
F1.0
S'better'
p878
tp879
a(I63
I9
I0
S'quick'
p880
tp881
a(I71
I15
F-0.375
S'simplest'
p882
tp883
a(I72
I15
I0
S'multiple'
p884
tp885
a(I73
I4
I0
S'same'
p886
tp887
a(I87
I19
I0
S'few'
p888
tp889
a(I87
I19
F-0.75
S'little'
p890
tp891
a(I117
I18
F0.5
S'obvious'
p892
tp893
a(I119
I6
F-0.625
S'other'
p894
tp895
a(I122
I4
I0
S'few'
p896
tp897
a(I139
I1
F-0.75
S'little'
p898
tp899
a(I144
I23
F0.625
S'easy'
p900
tp901
a(I144
I23
F-0.25
S'past'
p902
tp903
a(I145
I10
I0
S'great'
p904
tp905
a(I149
I0
F0.125
S'key'
p906
tp907
a(I169
I4
F1.0
S'good'
p908
tp909
a(I177
I0
I0
S'few'
p910
tp911
a(I189
I2
F1.0
S'good'
p912
tp913
a(I200
I9
I0
S'many'
p914
tp915
a(I204
I9
I0
S'few'
p916
tp917
as(S'fast'
p918
tp919
(lp920
(I36
I0
F-0.125
S'super'
p921
tp922
a(I64
I3
F-0.125
S'super'
p923
tp924
a(I104
I26
F-0.625
S'quite'
p925
tp926
a(I104
I26
I0
S'android'
p927
tp928
as(S'samsung'
p929
S'galaxy'
p930
S's'
p931
tp932
(lp933
(I7
I23
F-0.625
g515
tp934
a(I23
I20
F-0.625
S'other'
p935
tp936
a(I25
I1
I0
g521
tp937
a(I43
I12
I0
g525
tp938
a(I69
I2
F0.5
S'captivate'
p939
tp940
a(I77
I9
I0
g533
tp941
a(I105
I6
I0
g539
tp942
a(I197
I1
I0
S'next'
p943
tp944
as(S'flash'
p945
tp946
(lp947
(I0
I7
F0.625
S'necessary'
p948
tp949
a(I16
I14
I0
S'update'
p950
tp951
a(I16
I14
I0
S'included'
p952
tp953
a(I72
I24
F0.375
S'available'
p954
tp955
a(I92
I11
F0.375
S'much'
p956
tp957
a(I125
I0
F-0.625
S'bad'
p958
tp959
a(I151
I1
F1.0
S'better'
p960
tp961
a(I151
I3
I0
S'special'
p962
tp963
as(S't'
p964
S'5'
p965
S'stars'
p966
tp967
(lp968
(I53
I11
I0
S'full'
p969
tp970
a(I194
I10
F0.75
S'due'
p971
tp972
as(S'samsung'
p973
S'captivate'
p974
tp975
(lp976
(I25
I1
I0
g521
tp977
a(I25
I6
I0
S'android'
p978
tp979
a(I43
I6
I0
g523
tp980
a(I43
I12
I0
g525
tp981
a(I67
I11
I0
S'android'
p982
tp983
a(I71
I0
F0.375
g527
tp984
a(I180
I12
F-0.25
g551
tp985
a(I183
I0
F0.375
S'alive'
p986
tp987
a(I202
I0
F0.125
S'first'
p988
tp989
as(S'people'
p990
tp991
(lp992
(I3
I3
I0
S'most'
p993
tp994
a(I7
I19
I0
S'different'
p995
tp996
a(I51
I6
F-0.625
S'other'
p997
tp998
a(I59
I6
I0
S'most'
p999
tp1000
a(I77
I8
F0.625
S'easy'
p1001
tp1002
a(I82
I7
F-0.5
S'sure'
p1003
tp1004
a(I82
I7
I0
S'most'
p1005
tp1006
a(I91
I2
I0
S'few'
p1007
tp1008
a(I117
I16
I0
S'only'
p1009
tp1010
a(I129
I8
I0
S'write'
p1011
tp1012
a(I146
I7
F-0.625
S'other'
p1013
tp1014
a(I157
I15
I0
S'tinny'
p1015
tp1016
a(I164
I10
F0.875
S'nice'
p1017
tp1018
a(I174
I4
I0
S'most'
p1019
tp1020
a(I190
I1
I0
S'more'
p1021
tp1022
a(I198
I1
I0
S'many'
p1023
tp1024
a(I198
I1
F-0.625
S'other'
p1025
tp1026
as(S'wifi'
p1027
tp1028
(lp1029
(I23
I8
F0.5
S'second'
p1030
tp1031
a(I36
I0
F-0.625
S'light'
p1032
tp1033
a(I116
I31
F-0.625
S'free'
p1034
tp1035
a(I168
I10
I0
S'own'
p1036
tp1037
a(I203
I0
F-0.5
S'sure'
p1038
tp1039
as(S'keep'
p1040
tp1041
(lp1042
(I70
I1
F0.5
S'captivate'
p1043
tp1044
a(I70
I1
F0.375
S'alive'
p1045
tp1046
a(I170
I4
F0.5
S'captivate'
p1047
tp1048
a(I170
I4
F0.375
S'alive'
p1049
tp1050
as(S'call'
p1051
tp1052
(lp1053
(I13
I1
F0.5
S'clear'
p1054
tp1055
a(I16
I16
F0.625
S'easy'
p1056
tp1057
a(I52
I21
I0
S'more'
p1058
tp1059
a(I126
I16
I0
S'close'
p1060
tp1061
a(I140
I4
F-0.5
g444
tp1062
a(I169
I25
F-0.5
S'actual'
p1063
tp1064
a(I169
I26
F0.25
S'favorite'
p1065
tp1066
a(I187
I15
F0.5
S'functional'
p1067
tp1068
as(S'music'
p1069
S'player'
p1070
tp1071
(lp1072
(I37
I12
F0.875
S'music'
p1073
tp1074
a(I72
I17
F0.875
S'music'
p1075
tp1076
a(I72
I18
F0.875
S'music'
p1077
tp1078
a(I74
I11
I0
S'incredible'
p1079
tp1080
a(I76
I8
I0
S'basic'
p1081
tp1082
a(I103
I7
F0.875
S'music'
p1083
tp1084
a(I118
I22
F0.625
g459
tp1085
a(I144
I14
F-0.125
S'slow'
p1086
tp1087
a(I148
I6
I0
S'dvd'
p1088
tp1089
a(I169
I30
I0
g461
tp1090
a(I177
I2
F0.875
S'music'
p1091
tp1092
a(I187
I8
F0.875
S'music'
p1093
tp1094
a(I187
I8
F0.625
S'decent'
p1095
tp1096
as(S'a'
p1097
S'samsung'
p1098
S'captivate'
p1099
tp1100
(lp1101
(I25
I1
I0
g521
tp1102
a(I25
I6
I0
g978
tp1103
a(I43
I6
I0
g523
tp1104
a(I43
I12
I0
g525
tp1105
a(I67
I11
I0
g982
tp1106
a(I71
I0
F0.375
g527
tp1107
a(I180
I12
F-0.25
g551
tp1108
a(I183
I0
F0.375
g986
tp1109
a(I202
I0
F0.125
g988
tp1110
as(S'video'
p1111
tp1112
(lp1113
(I13
I7
I0
S'mobile'
p1114
tp1115
a(I50
I16
I0
S'mobile'
p1116
tp1117
a(I50
I21
I0
S'mobile'
p1118
tp1119
a(I51
I4
F0.75
S'beautiful'
p1120
tp1121
a(I72
I23
F-0.5
S'separate'
p1122
tp1123
a(I144
I6
F1.0
S'good'
p1124
tp1125
a(I160
I2
F1.0
S'good'
p1126
tp1127
as(g1097
S'long'
p1128
S'time'
p1129
tp1130
(lp1131
(I2
I16
F-0.5
S'long'
p1132
tp1133
a(I16
I16
F-0.5
S'long'
p1134
tp1135
a(I16
I19
F-0.5
S'long'
p1136
tp1137
a(I61
I2
F-0.5
S'long'
p1138
tp1139
a(I67
I4
F-0.5
S'long'
p1140
tp1141
a(I86
I0
F-0.5
S'long'
p1142
tp1143
a(I91
I4
F-0.5
S'long'
p1144
tp1145
a(I92
I1
F-0.5
S'long'
p1146
tp1147
a(I131
I0
F-0.5
S'long'
p1148
tp1149
a(I136
I14
F0.5
S'second'
p1150
tp1151
a(I165
I14
F-0.5
S'long'
p1152
tp1153
as(S'android'
p1154
tp1155
(lp1156
(I8
I15
F0.875
S'happier'
p1157
tp1158
a(I8
I15
F0.125
S'first'
p1159
tp1160
a(I11
I0
F1.0
S'best'
p1161
tp1162
a(I16
I0
F0.125
S'first'
p1163
tp1164
a(I33
I13
I0
S'later'
p1165
tp1166
a(I33
I29
F0.25
S'original'
p1167
tp1168
a(I60
I16
I0
S'next'
p1169
tp1170
a(I67
I5
F1.0
S'good'
p1171
tp1172
a(I74
I31
I0
S'next'
p1173
tp1174
a(I83
I11
F1.0
S'best'
p1175
tp1176
a(I99
I1
I0
S'cpu'
p1177
tp1178
a(I99
I1
F-0.25
S'intensive'
p1179
tp1180
a(I125
I0
F1.0
S'best'
p1181
tp1182
a(I140
I5
F-0.5
S'certain'
p1183
tp1184
a(I140
I5
F1.0
S'best'
p1185
tp1186
a(I148
I1
F1.0
S'best'
p1187
tp1188
a(I148
I1
F0.375
S'available'
p1189
tp1190
a(I155
I2
F0.625
S'major'
p1191
tp1192
a(I160
I0
F0.125
S'first'
p1193
tp1194
a(I168
I12
F0.375
S'new'
p1195
tp1196
a(I176
I5
F0.125
S'first'
p1197
tp1198
a(I180
I0
F0.125
S'first'
p1199
tp1200
a(I200
I16
F0.875
S'worthy'
p1201
tp1202
as(S'works'
p1203
tp1204
(lp1205
(I0
I43
I0
S'great'
p1206
tp1207
a(I15
I8
I0
S'great'
p1208
tp1209
a(I52
I10
F1.0
S'good'
p1210
tp1211
a(I56
I5
F0.375
S'available'
p1212
tp1213
a(I84
I3
F0.375
S'much'
p1214
tp1215
a(I135
I4
I0
S'great'
p1216
tp1217
a(I187
I14
F-0.375
S'crash'
p1218
tp1219
a(I188
I7
F0.5
S'flat'
p1220
tp1221
as(g1097
S'two'
p1222
S'year'
p1223
tp1224
(lp1225
(I116
I3
I0
g170
tp1226
a(I116
I3
F0.625
g172
tp1227
a(I116
I3
F-0.25
g174
tp1228
as(S'on'
p1229
S'samsung'
p1230
S'captivate'
p1231
tp1232
(lp1233
(I25
I6
I0
g978
tp1234
a(I43
I6
I0
g523
tp1235
a(I43
I12
I0
g525
tp1236
a(I67
I11
I0
g982
tp1237
a(I180
I12
F-0.25
g551
tp1238
a(I183
I0
F0.375
g986
tp1239
as(S'battery'
p1240
tp1241
(lp1242
(I0
I8
F-0.75
g74
tp1243
a(I0
I45
F0.125
S'first'
p1244
tp1245
a(I3
I7
I0
S'update'
p1246
tp1247
a(I10
I26
F-0.75
S'danger'
p1248
tp1249
a(I13
I9
F1.0
S'better'
p1250
tp1251
a(I29
I8
F0.625
g86
tp1252
a(I36
I0
F-0.75
g88
tp1253
a(I37
I3
I0
S'fast'
p1254
tp1255
a(I42
I5
F0.5
g90
tp1256
a(I53
I9
F-0.5
g94
tp1257
a(I53
I17
F-0.75
g96
tp1258
a(I53
I21
F-0.75
g98
tp1259
a(I59
I2
F-0.625
S'bad'
p1260
tp1261
a(I74
I15
I0
S'most'
p1262
tp1263
a(I87
I1
F-0.25
g102
tp1264
a(I87
I4
F-0.625
S'want'
p1265
tp1266
a(I87
I4
F0.375
S'extra'
p1267
tp1268
a(I88
I1
I0
g104
tp1269
a(I91
I1
F-0.5
S'weak'
p1270
tp1271
a(I104
I21
F0.625
S'acceptable'
p1272
tp1273
a(I106
I14
I0
S'old'
p1274
tp1275
a(I106
I14
F0.75
S'receive'
p1276
tp1277
a(I121
I1
F-0.5
g110
tp1278
a(I121
I4
F-0.5
g114
tp1279
a(I144
I10
F1.0
S'good'
p1280
tp1281
a(I152
I11
I0
g122
tp1282
a(I152
I11
I0
g124
tp1283
a(I161
I45
F-0.25
S'low'
p1284
tp1285
a(I167
I2
I0
g130
tp1286
a(I177
I2
F-0.25
g132
tp1287
a(I177
I16
I0
g136
tp1288
a(I187
I33
F1.0
S'better'
p1289
tp1290
a(I187
I45
F1.0
S'better'
p1291
tp1292
a(I194
I8
F-0.25
S'intensive'
p1293
tp1294
as(S'upgrade'
p1295
tp1296
(lp1297
(I66
I4
I0
g656
tp1298
a(I66
I4
F-0.625
g658
tp1299
a(I79
I17
I0
S'august'
p1300
tp1301
a(I86
I2
I0
S'timely'
p1302
tp1303
a(I86
I2
F0.875
S'important'
p1304
tp1305
a(I138
I0
I0
g660
tp1306
a(I143
I1
I0
g662
tp1307
a(I150
I10
F0.75
S'worth'
p1308
tp1309
a(I152
I1
F0.375
S'early'
p1310
tp1311
a(I162
I10
F-0.25
S'ready'
p1312
tp1313
a(I177
I10
F0.5
S'eligible'
p1314
tp1315
as(S'up'
p1316
S'battery'
p1317
S'life'
p1318
tp1319
(lp1320
(I36
I0
F-0.75
g88
tp1321
a(I42
I5
F0.5
g90
tp1322
a(I96
I2
I0
g108
tp1323
a(I152
I11
I0
g122
tp1324
a(I152
I11
I0
g124
tp1325
a(I177
I16
I0
g136
tp1326
a(I194
I5
F1.0
g140
tp1327
a(I197
I1
F1.0
g142
tp1328
a(I197
I1
F1.0
g144
tp1329
as(S'software'
p1330
tp1331
(lp1332
(I20
I6
I0
S'current'
p1333
tp1334
a(I41
I7
F0.375
S'available'
p1335
tp1336
a(I50
I20
F-0.25
S'google'
p1337
tp1338
a(I70
I0
F0.625
S'major'
p1339
tp1340
a(I80
I9
I0
S'own'
p1341
tp1342
a(I108
I6
F-0.875
S'trouble'
p1343
tp1344
a(I111
I4
F1.0
S'better'
p1345
tp1346
a(I118
I2
I0
S'android'
p1347
tp1348
a(I131
I16
F-0.5
S'sudden'
p1349
tp1350
a(I132
I4
F0.625
S'easy'
p1351
tp1352
a(I134
I7
F0.625
S'interested'
p1353
tp1354
a(I159
I7
I0
S'same'
p1355
tp1356
a(I175
I4
I0
S'great'
p1357
tp1358
a(I183
I2
F-0.125
S'overall'
p1359
tp1360
a(I204
I10
F-0.5
S'sure'
p1361
tp1362
a(I208
I0
F0.125
S'flaky'
p1363
tp1364
as(S'takes'
p1365
tp1366
(lp1367
(I197
I1
F1.0
S'good'
p1368
tp1369
as(S'better'
p1370
tp1371
(lp1372
(I61
I1
F0.375
S'much'
p1373
tp1374
a(I152
I11
F0.375
S'much'
p1375
tp1376
a(I161
I40
F0.125
S'able'
p1377
tp1378
a(I161
I40
F0.375
S'much'
p1379
tp1380
as(S'calls'
p1381
tp1382
(lp1383
(I71
I8
F-0.25
S'dropped'
p1384
tp1385
a(I87
I0
F-0.25
S'white'
p1386
tp1387
a(I101
I3
F0.25
S'tired'
p1388
tp1389
a(I101
I3
F0.125
S'able'
p1390
tp1391
a(I101
I8
F0.25
S'tired'
p1392
tp1393
a(I101
I8
F0.875
S'important'
p1394
tp1395
a(I101
I8
F0.25
S'tired'
p1396
tp1397
a(I108
I1
I0
S'most'
p1398
tp1399
a(I108
I16
F0.125
S'able'
p1400
tp1401
a(I156
I7
I0
S'many'
p1402
tp1403
a(I157
I17
F-0.25
S'dropped'
p1404
tp1405
a(I157
I21
I0
S'many'
p1406
tp1407
a(I169
I4
F0.5
S'clear'
p1408
tp1409
as(S'thing'
p1410
tp1411
(lp1412
(I22
I7
F0.125
S'last'
p1413
tp1414
a(I33
I14
I0
S'entire'
p1415
tp1416
a(I36
I0
I0
S'only'
p1417
tp1418
a(I38
I9
F0.625
S'easy'
p1419
tp1420
a(I51
I12
I0
S'only'
p1421
tp1422
a(I51
I12
F-0.5
S'miss'
p1423
tp1424
a(I53
I21
I0
S'big'
p1425
tp1426
a(I55
I10
F-0.625
S'other'
p1427
tp1428
a(I60
I12
I0
S'only'
p1429
tp1430
a(I68
I6
I0
S'only'
p1431
tp1432
a(I90
I2
I0
S'only'
p1433
tp1434
a(I90
I5
I0
S'great'
p1435
tp1436
a(I96
I4
F0.5
S'odd'
p1437
tp1438
a(I105
I14
F0.25
S'favorite'
p1439
tp1440
a(I116
I35
F1.0
S'good'
p1441
tp1442
a(I151
I2
I0
S'only'
p1443
tp1444
a(I157
I9
I0
S'more'
p1445
tp1446
a(I158
I20
F-0.625
S'bad'
p1447
tp1448
a(I159
I7
I0
S'same'
p1449
tp1450
a(I160
I1
I0
S'only'
p1451
tp1452
a(I168
I8
I0
S'funny'
p1453
tp1454
a(I169
I3
F0.125
S'first'
p1455
tp1456
a(I189
I15
F-0.5
S'sure'
p1457
tp1458
as(S'update'
p1459
tp1460
(lp1461
(I19
I30
F-0.25
S'google'
p1462
tp1463
a(I20
I7
I0
S'such'
p1464
tp1465
a(I41
I25
F-0.25
S'google'
p1466
tp1467
a(I56
I7
F0.125
S'magic'
p1468
tp1469
a(I107
I5
I0
S'android'
p1470
tp1471
a(I128
I20
I0
S'jan'
p1472
tp1473
a(I128
I20
I0
S'quick'
p1474
tp1475
a(I128
I24
I0
S'next'
p1476
tp1477
a(I147
I4
I0
S'gingerbread'
p1478
tp1479
as(S'device'
p1480
tp1481
(lp1482
(I42
I3
F0.5
S'expensive'
p1483
tp1484
a(I74
I22
I0
S'android'
p1485
tp1486
a(I77
I1
I0
S'u-turn'
p1487
tp1488
a(I116
I20
I0
S'high'
p1489
tp1490
a(I129
I0
F-0.625
S'bad'
p1491
tp1492
a(I129
I0
I0
S'android'
p1493
tp1494
a(I129
I11
F-0.625
S'sorry'
p1495
tp1496
a(I148
I11
I0
S'android'
p1497
tp1498
a(I155
I2
F0.875
S'nice'
p1499
tp1500
a(I178
I13
I0
S'individual'
p1501
tp1502
a(I180
I12
I0
S'android'
p1503
tp1504
a(I189
I27
F-0.375
S'simple'
p1505
tp1506
a(I189
I27
F0.625
S'easy'
p1507
tp1508
a(I195
I1
I0
S'android'
p1509
tp1510
a(I195
I1
F1.0
S'good'
p1511
tp1512
a(I195
I12
I0
S'most'
p1513
tp1514
a(I195
I12
F0.125
S'last'
p1515
tp1516
a(I204
I2
F-0.625
S'other'
p1517
tp1518
a(I204
I2
I0
S'android'
p1519
tp1520
as(S'flash'
p1521
S'for'
p1522
S'camera'
p1523
tp1524
(lp1525
(I0
I7
F1.0
g603
tp1526
a(I0
I7
F0.625
g948
tp1527
a(I74
I14
F0.375
g613
tp1528
a(I151
I1
F1.0
g960
tp1529
a(I177
I2
F-0.625
g633
tp1530
as(S'home'
p1531
tp1532
(lp1533
(I29
I6
I0
S'different'
p1534
tp1535
a(I52
I4
I0
S'many'
p1536
tp1537
a(I52
I4
I0
S'personalized'
p1538
tp1539
a(I82
I4
I0
S'different'
p1540
tp1541
a(I87
I4
F0.5
S'drive'
p1542
tp1543
a(I187
I38
F0.125
S'key'
p1544
tp1545
as(S'captivate'
p1546
tp1547
(lp1548
(I12
I2
I0
S'more'
p1549
tp1550
a(I15
I0
F0.125
S'last'
p1551
tp1552
a(I20
I6
I0
S'least'
p1553
tp1554
a(I23
I6
F0.125
S'first'
p1555
tp1556
a(I25
I6
I0
g978
tp1557
a(I26
I1
F0.25
S'original'
p1558
tp1559
a(I26
I1
F0.375
S'new'
p1560
tp1561
a(I48
I0
F0.875
S'happier'
p1562
tp1563
a(I67
I9
F-0.125
S'complex'
p1564
tp1565
a(I67
I11
I0
g982
tp1566
a(I81
I5
I0
S'next'
p1567
tp1568
a(I101
I8
F0.375
S'new'
p1569
tp1570
a(I108
I0
F0.125
S'first'
p1571
tp1572
a(I116
I21
I0
S'android'
p1573
tp1574
a(I131
I17
F0.25
S'used'
p1575
tp1576
a(I139
I14
F0.25
S'larger'
p1577
tp1578
a(I139
I15
F-0.625
S'free'
p1579
tp1580
a(I145
I21
F1.0
S'good'
p1581
tp1582
a(I149
I1
F-0.625
S'lighter'
p1583
tp1584
a(I152
I12
F0.25
S'used'
p1585
tp1586
a(I152
I13
F-0.75
S'unreliable'
p1587
tp1588
a(I152
I14
F0.5
S'possible'
p1589
tp1590
a(I152
I14
F-0.875
S'negative'
p1591
tp1592
a(I154
I4
I0
S'faster'
p1593
tp1594
a(I169
I0
I0
S'great'
p1595
tp1596
a(I169
I0
I0
S'specific'
p1597
tp1598
a(I169
I7
I0
S'wide'
p1599
tp1600
a(I169
I7
I0
S'slim'
p1601
tp1602
a(I169
I7
F-0.625
S'light'
p1603
tp1604
a(I169
I8
F-0.375
S'simple'
p1605
tp1606
a(I169
I36
F0.125
S'enough'
p1607
tp1608
a(I183
I0
F0.375
g986
tp1609
a(I188
I6
F1.0
S'good'
p1610
tp1611
a(I192
I2
I0
S'website'
p1612
tp1613
a(I192
I14
I0
S'different'
p1614
tp1615
a(I202
I0
F0.125
g988
tp1616
as(S'third'
p1617
S'party'
p1618
S'apps'
p1619
tp1620
(lp1621
(I17
I12
I0
S'third'
p1622
tp1623
a(I63
I14
I0
S'third'
p1624
tp1625
a(I63
I16
I0
S'third'
p1626
tp1627
a(I63
I17
I0
S'third'
p1628
tp1629
a(I63
I19
I0
S'third'
p1630
tp1631
as(S'dual'
p1632
S'core'
p1633
S'processor'
p1634
tp1635
(lp1636
(I26
I2
I0
S'competitive'
p1637
tp1638
as(S'features'
p1639
tp1640
(lp1641
(I39
I0
I0
S'many'
p1642
tp1643
a(I50
I19
I0
S'full'
p1644
tp1645
a(I71
I16
F-0.5
S'afraid'
p1646
tp1647
a(I83
I1
I0
S'great'
p1648
tp1649
a(I90
I0
F0.375
S'similar'
p1650
tp1651
a(I116
I4
I0
S'more'
p1652
tp1653
a(I124
I5
F0.875
S'nice'
p1654
tp1655
a(I129
I6
F-0.625
S'bad'
p1656
tp1657
a(I145
I7
F-0.625
S'other'
p1658
tp1659
a(I162
I3
I0
S'physical'
p1660
tp1661
a(I173
I1
I0
S'few'
p1662
tp1663
a(I180
I11
I0
S'least'
p1664
tp1665
a(I180
I11
I0
S'basic'
p1666
tp1667
a(I203
I0
I0
S'great'
p1668
tp1669
a(I203
I0
F0.625
S'easy'
p1670
tp1671
as(S'android'
p1672
S'operating'
p1673
S'system'
p1674
tp1675
(lp1676
(I19
I32
I0
S'android'
p1677
tp1678
a(I61
I2
I0
S'android'
p1679
tp1680
a(I74
I5
F0.125
S'capable'
p1681
tp1682
a(I74
I31
I0
g1173
tp1683
a(I89
I0
I0
S'android'
p1684
tp1685
a(I158
I0
I0
S'android'
p1686
tp1687
as(S'work'
p1688
tp1689
(lp1690
(I60
I15
I0
S'great'
p1691
tp1692
a(I152
I14
F0.5
S'captivate'
p1693
tp1694
a(I208
I12
F-0.625
S'free'
p1695
tp1696
as(S'time'
p1697
tp1698
(lp1699
(I2
I11
F-0.75
S'toughest'
p1700
tp1701
a(I2
I13
I0
S'same'
p1702
tp1703
a(I2
I16
F-0.5
g1132
tp1704
a(I16
I16
F-0.5
g1134
tp1705
a(I16
I19
F-0.5
g1136
tp1706
a(I17
I16
I0
S'real'
p1707
tp1708
a(I40
I4
I0
S'signal'
p1709
tp1710
a(I59
I8
F-0.125
S'slow'
p1711
tp1712
a(I60
I13
F0.125
S'first'
p1713
tp1714
a(I61
I2
F-0.5
g1138
tp1715
a(I67
I4
F-0.5
g1140
tp1716
a(I86
I0
F-0.5
g1142
tp1717
a(I91
I4
F-0.5
g1144
tp1718
a(I92
I1
F-0.5
g1146
tp1719
a(I115
I1
F0.75
S'due'
p1720
tp1721
a(I131
I0
F-0.5
g1148
tp1722
a(I136
I14
F0.5
g1150
tp1723
a(I145
I25
I0
S'faster'
p1724
tp1725
a(I162
I0
F1.0
S'good'
p1726
tp1727
a(I164
I5
I0
S'most'
p1728
tp1729
a(I165
I14
F-0.5
g1152
tp1730
a(I169
I0
F0.5
S'whole'
p1731
tp1732
a(I169
I0
F-0.5
S'separate'
p1733
tp1734
a(I179
I5
F-0.75
S'short'
p1735
tp1736
a(I179
I7
F-0.75
S'likely'
p1737
tp1738
a(I184
I3
F-0.75
S'impossible'
p1739
tp1740
a(I187
I7
F-0.5
S'cracked'
p1741
tp1742
a(I192
I14
F-0.75
S'short'
p1743
tp1744
a(I192
I14
I0
S'blast'
p1745
tp1746
a(I199
I1
F0.125
S'first'
p1747
tp1748
a(I200
I7
F0.375
S'much'
p1749
tp1750
as(g1097
S'little'
p1751
S'bit'
p1752
tp1753
(lp1754
(I169
I0
F-0.75
S'little'
p1755
tp1756
as(S'n'
p1757
S'low'
p1758
S'light'
p1759
tp1760
(lp1761
(I31
I0
F-0.25
S'low'
p1762
tp1763
as(S'light'
p1764
tp1765
(lp1766
(I31
I0
F-0.25
g1762
tp1767
a(I52
I4
F1.0
S'good'
p1768
tp1769
a(I80
I14
F1.0
S'good'
p1770
tp1771
a(I103
I0
I0
S'android'
p1772
tp1773
as(S'love'
p1774
tp1775
(lp1776
(I16
I3
F0.125
S'able'
p1777
tp1778
as(S'review'
p1779
tp1780
(lp1781
(I0
I1
I0
S'useful'
p1782
tp1783
a(I7
I1
F-0.625
S'average'
p1784
tp1785
a(I7
I2
I0
S'next'
p1786
tp1787
a(I7
I2
F0.5
S'obvious'
p1788
tp1789
a(I33
I25
F1.0
S'good'
p1790
tp1791
a(I53
I16
F0.25
S'original'
p1792
tp1793
a(I55
I10
I0
S'initial'
p1794
tp1795
a(I63
I11
F-0.5
S'long'
p1796
tp1797
a(I144
I0
F0.875
S'worthy'
p1798
tp1799
a(I148
I14
I0
S'update'
p1800
tp1801
a(I177
I0
F-0.625
S'other'
p1802
tp1803
a(I192
I2
I0
S'website'
p1804
tp1805
a(I192
I2
F0.25
S'read'
p1806
tp1807
a(I192
I3
F0.125
S'informative'
p1808
tp1809
as(S'around'
p1810
tp1811
(lp1812
(I144
I18
F-0.625
S'light'
p1813
tp1814
as(S'android'
p1815
S'market'
p1816
tp1817
(lp1818
(I0
I17
I0
g801
tp1819
a(I0
I38
I0
g803
tp1820
a(I0
I38
F0.625
g805
tp1821
a(I0
I48
I0
g807
tp1822
a(I8
I5
I0
g809
tp1823
a(I24
I12
I0
g811
tp1824
a(I63
I19
I0
g813
tp1825
a(I63
I24
I0
g815
tp1826
a(I72
I4
I0
g817
tp1827
a(I74
I31
I0
g1173
tp1828
a(I83
I5
I0
g819
tp1829
a(I83
I5
F1.0
g821
tp1830
a(I103
I10
I0
g825
tp1831
a(I118
I35
F0.125
g827
tp1832
a(I118
I35
I0
g829
tp1833
a(I125
I0
F1.0
g1181
tp1834
a(I145
I19
I0
g831
tp1835
a(I168
I12
F0.375
g1195
tp1836
a(I169
I27
I0
g835
tp1837
a(I169
I27
F0.125
g837
tp1838
a(I170
I1
I0
g839
tp1839
a(I170
I4
I0
g841
tp1840
as(S'months'
p1841
tp1842
(lp1843
(I16
I13
F-0.375
S'crazy'
p1844
tp1845
a(I33
I8
I0
S'many'
p1846
tp1847
a(I33
I8
I0
S'many'
p1848
tp1849
a(I53
I24
F-0.25
S'past'
p1850
tp1851
a(I60
I15
I0
S'few'
p1852
tp1853
a(I76
I12
I0
S'next'
p1854
tp1855
a(I76
I12
I0
S'few'
p1856
tp1857
a(I84
I11
I0
S'next'
p1858
tp1859
a(I91
I0
I0
S'least'
p1860
tp1861
a(I132
I0
F0.125
S'first'
p1862
tp1863
a(I132
I0
I0
S'few'
p1864
tp1865
a(I170
I0
I0
S'few'
p1866
tp1867
a(I174
I0
I0
S'close'
p1868
tp1869
a(I177
I7
I0
S'android'
p1870
tp1871
a(I189
I4
I0
S'few'
p1872
tp1873
a(I189
I21
I0
S'few'
p1874
tp1875
a(I189
I25
I0
S'few'
p1876
tp1877
as(S'apps'
p1878
tp1879
(lp1880
(I0
I20
F0.625
S'removable'
p1881
tp1882
a(I0
I39
F0.125
S'impressive'
p1883
tp1884
a(I2
I21
F-0.625
S'free'
p1885
tp1886
a(I10
I2
F0.125
S'native'
p1887
tp1888
a(I16
I7
I0
S'android'
p1889
tp1890
a(I21
I10
F0.375
S'available'
p1891
tp1892
a(I23
I3
F0.375
S'available'
p1893
tp1894
a(I23
I5
I0
S'many'
p1895
tp1896
a(I23
I5
F1.0
S'best'
p1897
tp1898
a(I24
I12
F0.375
S'available'
p1899
tp1900
a(I24
I14
I0
S'many'
p1901
tp1902
a(I51
I3
I0
S'many'
p1903
tp1904
a(I51
I3
I0
S'useful'
p1905
tp1906
a(I60
I14
I0
S'different'
p1907
tp1908
a(I63
I25
I0
S'same'
p1909
tp1910
a(I72
I19
I0
S'only'
p1911
tp1912
a(I72
I19
F1.0
S'good'
p1913
tp1914
a(I82
I3
I0
S'great'
p1915
tp1916
a(I82
I3
F-0.25
S'speech'
p1917
tp1918
a(I87
I11
I0
S'many'
p1919
tp1920
a(I87
I11
F-0.5
S'open'
p1921
tp1922
a(I88
I6
F-0.625
S'free'
p1923
tp1924
a(I91
I1
I0
S'more'
p1925
tp1926
a(I94
I1
F0.5
S'beware'
p1927
tp1928
a(I95
I3
I0
S'different'
p1929
tp1930
a(I98
I9
I0
S'many'
p1931
tp1932
a(I98
I9
F0.375
S'available'
p1933
tp1934
a(I100
I7
I0
S'many'
p1935
tp1936
a(I100
I7
I0
S'coolest'
p1937
tp1938
a(I100
I19
F-0.625
S'free'
p1939
tp1940
a(I105
I6
F-0.25
S'google'
p1941
tp1942
a(I116
I33
F-0.375
S'smooth'
p1943
tp1944
a(I116
I33
F0.375
S'reliable'
p1945
tp1946
a(I116
I34
I0
S'many'
p1947
tp1948
a(I116
I36
F0.375
S'available'
p1949
tp1950
a(I116
I36
F0.25
S'powerful'
p1951
tp1952
a(I116
I36
I0
S'useful'
p1953
tp1954
a(I118
I34
F-0.375
S'daily'
p1955
tp1956
a(I118
I36
F1.0
S'best'
p1957
tp1958
a(I121
I2
I0
S'e-mail'
p1959
tp1960
a(I126
I14
I0
S'useful'
p1961
tp1962
a(I126
I14
I0
S'most'
p1963
tp1964
a(I140
I2
I0
S'many'
p1965
tp1966
a(I140
I2
I0
S'great'
p1967
tp1968
a(I140
I2
I0
S'android'
p1969
tp1970
a(I144
I2
I0
S'many'
p1971
tp1972
a(I144
I14
I0
S'many'
p1973
tp1974
a(I144
I15
I0
S'many'
p1975
tp1976
a(I158
I3
F0.125
S'able'
p1977
tp1978
a(I158
I3
I0
S'incredible'
p1979
tp1980
a(I165
I12
F0.125
S'essential'
p1981
tp1982
a(I166
I1
F-0.625
S'other'
p1983
tp1984
a(I167
I1
F0.375
S'available'
p1985
tp1986
a(I168
I1
F-0.625
S'free'
p1987
tp1988
a(I172
I2
I0
S'incredible'
p1989
tp1990
a(I172
I2
F0.75
S'beautiful'
p1991
tp1992
a(I173
I27
F-0.625
S'free'
p1993
tp1994
a(I174
I6
F0.125
S'enough'
p1995
tp1996
a(I174
I6
F-0.625
S'free'
p1997
tp1998
a(I174
I11
I0
S'many'
p1999
tp2000
a(I178
I4
F-0.375
S'crash'
p2001
tp2002
a(I180
I6
I0
S'most'
p2003
tp2004
a(I187
I3
F-0.25
S'google'
p2005
tp2006
a(I187
I40
I0
S'cool'
p2007
tp2008
a(I190
I7
I0
S'many'
p2009
tp2010
a(I194
I8
F-0.75
S'brightest'
p2011
tp2012
a(I206
I2
I0
S'many'
p2013
tp2014
a(I206
I2
F-0.625
S'free'
p2015
tp2016
as(S'days'
p2017
tp2018
(lp2019
(I0
I1
I0
S'few'
p2020
tp2021
a(I1
I3
F0.625
S'easy'
p2022
tp2023
a(I2
I4
I0
S'few'
p2024
tp2025
a(I2
I5
I0
S'few'
p2026
tp2027
a(I4
I1
I0
S'few'
p2028
tp2029
a(I13
I10
F0.125
S'first'
p2030
tp2031
a(I37
I1
F0.125
S'last'
p2032
tp2033
a(I37
I1
I0
S'few'
p2034
tp2035
a(I55
I11
I0
S'most'
p2036
tp2037
a(I87
I0
I0
S'few'
p2038
tp2039
a(I87
I19
I0
S'more'
p2040
tp2041
a(I119
I2
F-0.875
S'worst'
p2042
tp2043
a(I119
I2
I0
S'few'
p2044
tp2045
a(I126
I0
I0
S'few'
p2046
tp2047
a(I140
I0
I0
S'few'
p2048
tp2049
a(I150
I11
F0.125
S'solid'
p2050
tp2051
a(I158
I1
I0
S'few'
p2052
tp2053
a(I177
I2
I0
S'full'
p2054
tp2055
a(I177
I9
F-0.375
S'beast'
p2056
tp2057
a(I192
I4
I0
S'few'
p2058
tp2059
a(I208
I17
I0
S'few'
p2060
tp2061
as(S'google'
p2062
S'maps'
p2063
tp2064
(lp2065
(I7
I44
F-0.25
S'google'
p2066
tp2067
a(I7
I44
F-0.625
S'free'
p2068
tp2069
a(I7
I47
F-0.25
S'google'
p2070
tp2071
a(I7
I54
F-0.25
S'google'
p2072
tp2073
a(I91
I0
F-0.25
S'google'
p2074
tp2075
a(I145
I10
F-0.25
S'google'
p2076
tp2077
a(I164
I2
F-0.25
S'google'
p2078
tp2079
a(I171
I5
F-0.25
S'google'
p2080
tp2081
a(I174
I13
F-0.25
S'google'
p2082
tp2083
as(S'touch'
p2084
S'screen'
p2085
tp2086
(lp2087
(I7
I62
I0
g588
tp2088
a(I7
I62
I0
g223
tp2089
a(I21
I5
F0.5
g235
tp2090
a(I33
I32
F0.25
g243
tp2091
a(I33
I32
F0.25
g245
tp2092
a(I42
I4
F0.5
g259
tp2093
a(I46
I4
F0.5
g261
tp2094
a(I46
I4
I0
g263
tp2095
a(I46
I4
F-0.75
g265
tp2096
a(I52
I1
F0.125
g590
tp2097
a(I53
I0
F0.125
g592
tp2098
a(I68
I1
I0
g281
tp2099
a(I68
I1
F0.5
g283
tp2100
a(I93
I3
F0.75
g297
tp2101
a(I93
I3
I0
g594
tp2102
a(I93
I3
I0
g299
tp2103
a(I96
I1
F0.75
g307
tp2104
a(I110
I0
F0.5
g339
tp2105
a(I136
I19
I0
g361
tp2106
a(I149
I2
F0.25
g373
tp2107
a(I169
I13
F0.5
g395
tp2108
a(I169
I17
F0.5
g397
tp2109
a(I173
I12
F0.5
g407
tp2110
a(I174
I2
F0.125
g598
tp2111
a(I189
I28
I0
g411
tp2112
a(I209
I1
F0.75
g417
tp2113
a(I209
I1
F0.5
g419
tp2114
as.