(dp0
(S'android'
p1
tp2
(lp3
(I3
I51
F0.375
S'interesting'
p4
I0
tp5
a(I3
I58
I0
S'most'
p6
I0
tp7
a(I5
I36
I0
S'economic'
p8
I0
tp9
a(I7
I76
F0.5
S'upgraded'
p10
I0
tp11
as(S'battery'
p12
tp13
(lp14
(I6
I207
F-0.625
S'secure'
p15
I15
tp16
a(I7
I27
F0.375
S'new'
p17
I15
tp18
as(S'message'
p19
tp20
(lp21
(I6
I190
I0
S'next'
p22
I1
tp23
a(I6
I204
F0.375
S'new'
p24
I1
tp25
as(S'keyboard'
p26
tp27
(lp28
(I0
I2
F1.0
S'good'
p29
I2
tp30
a(I6
I173
F-0.875
S'awful'
p31
I2
tp32
a(I7
I43
I0
S'large'
p33
I2
tp34
a(I7
I43
F-0.75
S'comfortable'
p35
I2
tp36
as(S'processor'
p37
tp38
(lp39
(I3
I57
F0.25
S'main'
p40
I1
tp41
a(I6
I152
I0
S'such'
p42
I1
tp43
as(S'sim'
p44
S'card'
p45
tp46
(lp47
(I5
I26
I0
S'most'
p48
I0
tp49
as(S'calls'
p50
tp51
(lp52
(I3
I17
F0.25
S'recent'
p53
I0
tp54
a(I6
I138
I0
S'few'
p55
I0
tp56
a(I6
I138
F0.125
S'able'
p57
I0
tp58
as(S'apps'
p59
tp60
(lp61
(I3
I33
I0
S'such'
p62
I0
tp63
a(I3
I35
F-0.625
S'other'
p64
I0
tp65
a(I3
I90
I0
S'own'
p66
I0
tp67
a(I5
I18
I0
S'many'
p68
I0
tp69
a(I5
I20
I0
S'more'
p70
I0
tp71
a(I5
I20
F0.375
S'available'
p72
I0
tp73
a(I6
I119
F0.5
S'compatible'
p74
I0
tp75
a(I7
I21
F0.125
S'able'
p76
I0
tp77
a(I7
I65
I0
S'android'
p78
I0
tp79
as(S'motorola'
p80
S'backflip'
p81
tp82
(lp83
(I6
I26
F-0.5
S'less'
p84
I0
tp85
a(I6
I79
F-0.375
S'black'
p86
I0
tp87
a(I6
I156
F-0.75
S'sad'
p88
I0
tp89
a(I3
I105
F-0.75
S'wrong'
p90
I0
tp91
a(I5
I45
I0
S'most'
p92
I0
tp93
a(I6
I79
F-0.375
g86
I0
tp94
a(I6
I130
I0
S'old'
p95
I0
tp96
a(I6
I156
F-0.75
g88
I0
tp97
a(I6
I26
F-0.5
g84
I0
tp98
a(I7
I15
F0.5
S'true'
p99
I0
tp100
a(I7
I22
F-0.75
S'modest'
p101
I0
tp102
a(I7
I22
F-0.75
S'little'
p103
I0
tp104
as(S'camera'
p105
tp106
(lp107
(I6
I38
F0.875
S'nice'
p108
I1
tp109
a(I6
I139
F0.875
S'nice'
p110
I1
tp111
a(I7
I0
F0.875
S'nice'
p112
I1
tp113
a(I7
I13
F1.0
S'good'
p114
I1
tp115
as(S'motoblur'
p116
tp117
(lp118
(I3
I44
F0.125
S'capable'
p119
I0
tp120
as.