(dp0
(S'something'
p1
tp2
(lp3
(I30
I15
F-0.75
S'wrong'
p4
tp5
a(I61
I2
F0.625
S'easy'
p6
tp7
a(I61
I2
F-0.625
S'other'
p8
tp9
a(I74
I0
F0.375
S'looked'
p10
tp11
a(I74
I46
F-0.75
S'inconvenient'
p12
tp13
a(I147
I47
F0.625
S'easy'
p14
tp15
a(I153
I14
I0
S'special'
p16
tp17
a(I254
I0
F0.375
S'similar'
p18
tp19
as(S'headphone'
p20
S'jack'
p21
tp22
(lp23
(I72
I30
I0
S'standard'
p24
tp25
as(S'direct'
p26
S'sunlight'
p27
tp28
(lp29
(I7
I23
F-0.25
S'direct'
p30
tp31
a(I72
I5
F-0.25
S'direct'
p32
tp33
a(I96
I21
F-0.25
S'direct'
p34
tp35
a(I205
I10
F-0.25
S'direct'
p36
tp37
as(S'comes'
p38
tp39
(lp40
(I7
I12
I0
S'handy'
p41
tp42
as(S'nice'
p43
tp44
(lp45
(I4
I3
F-0.125
S'super'
p46
tp47
a(I31
I1
F-0.625
S'other'
p48
tp49
a(I31
I5
F0.625
S'easy'
p50
tp51
as(S'call'
p52
S'quality'
p53
tp54
(lp55
(I16
I7
F1.0
S'good'
p56
tp57
a(I44
I3
F-0.5
S'call'
p58
tp59
a(I74
I18
I0
S'high'
p60
tp61
a(I74
I18
F0.625
S'easy'
p62
tp63
a(I141
I0
F1.0
S'good'
p64
tp65
a(I157
I2
F1.0
S'good'
p66
tp67
a(I205
I15
F1.0
S'good'
p68
tp69
a(I205
I15
F0.625
S'easy'
p70
tp71
a(I225
I2
I0
S'great'
p72
tp73
a(I241
I0
F1.0
S'good'
p74
tp75
a(I256
I4
F1.0
S'good'
p76
tp77
a(I277
I2
I0
S'great'
p78
tp79
as(S'cell'
p80
tp81
(lp82
(I199
I3
F0.5
S'personal'
p83
tp84
as(S'touch'
p85
tp86
(lp87
(I12
I1
I0
S'android'
p88
tp89
a(I30
I0
I0
S'full'
p90
tp91
a(I34
I5
F0.625
S'easier'
p92
tp93
a(I70
I1
I0
S'large'
p94
tp95
a(I197
I0
F-0.375
S'simple'
p96
tp97
as(S'works'
p98
S'just'
p99
S'fine'
p100
tp101
(lp102
(I60
I13
I0
S'current'
p103
tp104
as(S'quality'
p105
tp106
(lp107
(I0
I2
F0.125
S'solid'
p108
tp109
a(I12
I5
F1.0
S'good'
p110
tp111
a(I16
I7
F1.0
g56
tp112
a(I25
I5
F0.75
S'receive'
p113
tp114
a(I25
I5
I0
S'high'
p115
tp116
a(I32
I4
F1.0
S'good'
p117
tp118
a(I44
I3
F-0.5
g58
tp119
a(I72
I36
F0.875
S'nice'
p120
tp121
a(I74
I10
I0
S'high'
p122
tp123
a(I74
I10
I0
S'high'
p124
tp125
a(I74
I18
I0
g60
tp126
a(I74
I18
F0.625
g62
tp127
a(I93
I1
F1.0
S'good'
p128
tp129
a(I115
I0
F1.0
S'good'
p130
tp131
a(I149
I1
F1.0
S'good'
p132
tp133
a(I149
I1
I0
S'most'
p134
tp135
a(I157
I2
F1.0
g66
tp136
a(I174
I0
F1.0
S'good'
p137
tp138
a(I205
I15
F0.625
g70
tp139
a(I218
I5
F1.0
S'good'
p140
tp141
a(I256
I4
F1.0
g76
tp142
a(I264
I0
I0
S'great'
p143
tp144
a(I277
I2
I0
g78
tp145
as(S'keyboard'
p146
tp147
(lp148
(I13
I2
I0
S'great'
p149
tp150
a(I13
I2
F0.875
S'nice'
p151
tp152
a(I39
I6
F1.0
S'good'
p153
tp154
a(I39
I6
I0
S'great'
p155
tp156
a(I72
I12
F-0.375
S'top'
p157
tp158
a(I74
I12
I0
S'full'
p159
tp160
a(I74
I14
I0
S'full'
p161
tp162
a(I110
I2
I0
S'big'
p163
tp164
a(I139
I8
I0
S'same'
p165
tp166
a(I141
I0
F1.0
S'good'
p167
tp168
a(I153
I3
F-0.375
S'small'
p169
tp170
a(I153
I3
F0.625
S'easy'
p171
tp172
a(I166
I2
I0
S'full'
p173
tp174
a(I171
I0
I0
S'physical'
p175
tp176
a(I180
I0
I0
S'full'
p177
tp178
a(I246
I3
F-0.375
S'small'
p179
tp180
a(I268
I13
F0.625
S'easy'
p181
tp182
a(I277
I16
I0
S'great'
p183
tp184
as(S'f'
p185
S'want'
p186
tp187
(lp188
(I143
I4
F0.375
S'much'
p189
tp190
as(S'want'
p191
tp192
(lp193
(I143
I4
F0.375
g189
tp194
as(S'and'
p195
S'battery'
p196
S'life'
p197
tp198
(lp199
(I7
I16
I0
S'great'
p200
tp201
a(I22
I1
I0
S'great'
p202
tp203
a(I34
I3
F1.0
S'good'
p204
tp205
a(I45
I4
F1.0
S'good'
p206
tp207
a(I65
I2
F-0.5
S'long'
p208
tp209
a(I87
I0
F-0.625
S'bad'
p210
tp211
a(I137
I3
I0
S'great'
p212
tp213
a(I141
I2
F1.0
S'good'
p214
tp215
a(I153
I3
F0.625
S'extraordinary'
p216
tp217
a(I200
I2
F1.0
S'good'
p218
tp219
a(I205
I7
F0.375
S'new'
p220
tp221
a(I217
I10
F-0.625
S'other'
p222
tp223
a(I217
I10
I0
S'great'
p224
tp225
a(I233
I5
F1.0
S'good'
p226
tp227
a(I245
I2
I0
S'great'
p228
tp229
a(I274
I1
I0
S'great'
p230
tp231
a(I277
I0
F1.0
S'good'
p232
tp233
as(S'software'
p234
tp235
(lp236
(I45
I2
I0
S'same'
p237
tp238
a(I45
I2
I0
S'old'
p239
tp240
a(I74
I4
I0
S'useful'
p241
tp242
a(I106
I1
I0
S'old'
p243
tp244
a(I106
I2
I0
S'same'
p245
tp246
a(I150
I26
I0
S'quick'
p247
tp248
a(I221
I0
F0.375
S'complete'
p249
tp250
as(S'nokia'
p251
tp252
(lp253
(I2
I1
F1.0
S'best'
p254
tp255
a(I7
I0
F0.5
S'loyal'
p256
tp257
a(I9
I1
I0
S'old'
p258
tp259
a(I15
I0
F-0.375
S'simple'
p260
tp261
a(I34
I9
I0
S'great'
p262
tp263
a(I38
I2
I0
S'old'
p264
tp265
a(I55
I1
F0.125
S'further'
p266
tp267
a(I66
I1
F-0.625
S'other'
p268
tp269
a(I71
I3
I0
S'many'
p270
tp271
a(I72
I28
I0
S'anymore'
p272
tp273
a(I75
I0
F0.375
S'new'
p274
tp275
a(I80
I6
I0
S'useful'
p276
tp277
a(I87
I0
F1.0
S'good'
p278
tp279
a(I94
I2
I0
S'user'
p280
tp281
a(I120
I2
I0
S'website'
p282
tp283
a(I134
I2
I0
S'many'
p284
tp285
a(I153
I25
F-0.75
S'comfortable'
p286
tp287
a(I165
I10
F-0.625
S'light'
p288
tp289
a(I176
I1
I0
S'big'
p290
tp291
a(I179
I0
F1.0
S'best'
p292
tp293
a(I179
I15
I0
S'cool'
p294
tp295
a(I179
I15
F0.875
S'nice'
p296
tp297
a(I179
I20
F-0.75
S'sad'
p298
tp299
a(I182
I2
F-0.25
S'disappointed'
p300
tp301
a(I183
I0
I0
S'great'
p302
tp303
a(I191
I4
F-0.75
S'dangerous'
p304
tp305
a(I193
I0
F0.375
S'new'
p306
tp307
a(I193
I2
F0.625
S'easier'
p308
tp309
a(I202
I19
I0
S'old'
p310
tp311
a(I202
I20
F0.375
S'new'
p312
tp313
a(I205
I20
I0
S'many'
p314
tp315
a(I217
I2
F0.5
S'stronger'
p316
tp317
a(I223
I0
I0
S'many'
p318
tp319
a(I230
I1
F-0.25
S'late'
p320
tp321
a(I233
I2
F0.625
S'logical'
p322
tp323
a(I233
I2
F-0.625
S'other'
p324
tp325
a(I264
I1
F1.0
S'best'
p326
tp327
a(I267
I3
F0.375
S'new'
p328
tp329
as(S'sim'
p330
S'card'
p331
tp332
(lp333
(I38
I3
I0
S'different'
p334
tp335
a(I52
I7
I0
S'handy'
p336
tp337
a(I52
I7
F-0.625
S'other'
p338
tp339
a(I89
I8
F-0.375
S'crazy'
p340
tp341
a(I147
I5
F0.125
S'able'
p342
tp343
a(I147
I5
I0
S'different'
p344
tp345
as(S'blackberry'
p346
tp347
(lp348
(I25
I1
F-0.625
S'bad'
p349
tp350
a(I25
I1
F0.25
S'refurbished'
p351
tp352
a(I49
I1
I0
S'user'
p353
tp354
a(I49
I1
F0.375
S'similar'
p355
tp356
a(I50
I3
F1.0
S'better'
p357
tp358
a(I139
I8
F1.0
S'better'
p359
tp360
a(I166
I3
I0
S'very'
p361
tp362
a(I166
I3
F0.375
S'similar'
p363
tp364
a(I226
I5
I0
S'wish'
p365
tp366
a(I226
I5
I0
S'android'
p367
tp368
as(S'easy'
p369
S'to'
p370
S'use'
p371
tp372
(lp373
(I80
I7
I0
S'normal'
p374
tp375
as(S'smartphone'
p376
tp377
(lp378
(I4
I0
I0
S'great'
p379
tp380
a(I35
I0
F1.0
S'best'
p381
tp382
a(I63
I0
F1.0
S'best'
p383
tp384
a(I131
I0
F-0.875
S'hard'
p385
tp386
a(I134
I0
F0.125
S'first'
p387
tp388
a(I148
I4
I0
S'full'
p389
tp390
a(I154
I4
F0.125
S'first'
p391
tp392
a(I154
I4
F0.875
S'happy'
p393
tp394
a(I234
I1
F0.125
S'first'
p395
tp396
a(I237
I1
F1.0
S'good'
p397
tp398
a(I242
I0
F-0.75
S'comfortable'
p399
tp400
a(I242
I0
F0.625
S'easy'
p401
tp402
a(I262
I1
F0.125
S'first'
p403
tp404
as(S'card'
p405
tp406
(lp407
(I90
I1
I0
S'full'
p408
tp409
a(I91
I1
F1.0
S'good'
p410
tp411
a(I114
I3
F0.125
S'able'
p412
tp413
a(I127
I3
F0.375
S'new'
p414
tp415
a(I127
I3
F-0.125
S'delete'
p416
tp417
a(I153
I20
I0
S'inside'
p418
tp419
a(I163
I5
I0
S'full'
p420
tp421
a(I198
I11
I0
S'full'
p422
tp423
as(S'great'
p424
S'battery'
p425
S'life'
p426
tp427
(lp428
(I7
I16
I0
g200
tp429
a(I22
I1
I0
g202
tp430
a(I137
I3
I0
g212
tp431
a(I141
I2
F1.0
g214
tp432
a(I202
I10
I0
S'great'
p433
tp434
a(I214
I0
I0
S'great'
p435
tp436
a(I217
I10
F-0.625
g222
tp437
a(I217
I10
I0
g224
tp438
a(I245
I2
I0
g228
tp439
a(I274
I1
I0
g230
tp440
a(I277
I0
F1.0
g232
tp441
as(S'wifi'
p442
tp443
(lp444
(I45
I4
F0.5
S'functional'
p445
tp446
a(I70
I0
F-0.625
S'free'
p447
tp448
a(I74
I32
F0.375
S'available'
p449
tp450
a(I100
I2
F0.625
S'easy'
p451
tp452
a(I150
I21
I0
S'quick'
p453
tp454
a(I154
I1
F0.125
S'capable'
p455
tp456
a(I178
I3
I0
S'faster'
p457
tp458
as(S'operating'
p459
S'system'
p460
tp461
(lp462
(I147
I34
F-0.625
S'other'
p463
tp464
a(I147
I48
F0.625
S'easy'
p465
tp466
a(I153
I22
F-0.75
S'likely'
p467
tp468
a(I170
I0
I0
S'mobile'
p469
tp470
a(I170
I0
F-0.625
S'bad'
p471
tp472
a(I170
I0
F-0.625
S'bad'
p473
tp474
as(S'problem'
p475
tp476
(lp477
(I45
I11
F-0.25
S'hidden'
p478
tp479
a(I124
I0
I0
S'many'
p480
tp481
a(I129
I2
I0
S'common'
p482
tp483
a(I177
I1
F0.25
S'main'
p484
tp485
a(I198
I8
F0.375
S'similar'
p486
tp487
as(S'memory'
p488
S'card'
p489
tp490
(lp491
(I71
I1
I0
S'more'
p492
tp493
a(I71
I1
I0
S'internal'
p494
tp495
a(I71
I1
I0
S'external'
p496
tp497
a(I90
I1
F0.375
S'new'
p498
tp499
a(I90
I1
I0
g408
tp500
a(I91
I1
I0
S'full'
p501
tp502
a(I91
I1
F1.0
g410
tp503
a(I114
I3
I0
S'least'
p504
tp505
a(I114
I3
F0.125
g412
tp506
a(I114
I4
I0
S'full'
p507
tp508
a(I127
I3
I0
S'external'
p509
tp510
a(I127
I3
F0.375
g414
tp511
a(I127
I3
F-0.125
g416
tp512
a(I164
I1
I0
S'full'
p513
tp514
a(I198
I11
I0
g422
tp515
as(S'android'
p516
tp517
(lp518
(I46
I2
I0
S'full'
p519
tp520
a(I54
I19
F-0.25
S'google'
p521
tp522
as(S'email'
p523
tp524
(lp525
(I10
I0
I0
S'great'
p526
tp527
a(I15
I0
I0
S'many'
p528
tp529
a(I49
I2
F0.625
S'easy'
p530
tp531
a(I105
I0
F0.625
S'easy'
p532
tp533
a(I140
I0
F0.625
S'easy'
p534
tp535
a(I153
I12
I0
S'write'
p536
tp537
a(I191
I6
I0
S'individual'
p538
tp539
a(I205
I17
F-0.75
S'comfortable'
p540
tp541
a(I273
I3
F0.625
S'easy'
p542
tp543
as(S'text'
p544
tp545
(lp546
(I74
I23
F-0.625
S'average'
p547
tp548
a(I96
I11
F-0.875
S'harder'
p549
tp550
a(I150
I21
I0
S'fast'
p551
tp552
a(I179
I2
F0.5
S'possible'
p553
tp554
a(I267
I2
F-0.5
S'regular'
p555
tp556
a(I268
I17
I0
S'current'
p557
tp558
as(S'micro'
p559
S'sd'
p560
tp561
(lp562
(I10
I0
F0.25
S'bigger'
p563
tp564
as(S'price'
p565
tp566
(lp567
(I18
I2
F1.0
S'good'
p568
tp569
a(I27
I3
F1.0
S'good'
p570
tp571
a(I31
I1
F1.0
S'better'
p572
tp573
a(I41
I1
I0
S'great'
p574
tp575
a(I45
I14
I0
S'mobile'
p576
tp577
a(I45
I14
F-0.25
S'low'
p578
tp579
a(I67
I4
F-0.125
S'blackberry'
p580
tp581
a(I70
I1
F-0.25
S'higher'
p582
tp583
a(I85
I0
F1.0
S'good'
p584
tp585
a(I88
I0
F1.0
S'good'
p586
tp587
a(I96
I22
I0
S'more'
p588
tp589
a(I104
I1
I0
S'great'
p590
tp591
a(I130
I0
I0
S'great'
p592
tp593
a(I198
I2
F0.875
S'attractive'
p594
tp595
a(I198
I2
F1.0
S'good'
p596
tp597
a(I224
I0
F-0.25
S'low'
p598
tp599
a(I250
I2
F0.875
S'lucky'
p600
tp601
a(I250
I2
I0
S'such'
p602
tp603
as(S'service'
p604
tp605
(lp606
(I6
I4
F1.0
S'good'
p607
tp608
a(I163
I7
I0
S'great'
p609
tp610
a(I163
I7
F-0.625
S'free'
p611
tp612
a(I186
I1
F0.25
S'professional'
p613
tp614
as(S'maps'
p615
tp616
(lp617
(I19
I4
F-0.25
S'google'
p618
tp619
a(I32
I2
F-0.5
S'open'
p620
tp621
a(I32
I2
F0.875
S'music'
p622
tp623
a(I33
I0
F-0.625
S'free'
p624
tp625
a(I38
I4
F-0.625
S'free'
p626
tp627
a(I80
I4
F-0.625
S'free'
p628
tp629
a(I86
I1
F-0.25
S'google'
p630
tp631
a(I105
I0
F-0.625
S'free'
p632
tp633
a(I150
I25
F0.625
S'aware'
p634
tp635
a(I191
I3
I0
S'aerial'
p636
tp637
as(S'need'
p638
tp639
(lp640
(I74
I6
F-0.625
S'free'
p641
tp642
as(S'sony'
p643
S'ericsson'
p644
tp645
(lp646
(I94
I0
I0
S'many'
p647
tp648
as(S'memory'
p649
tp650
(lp651
(I8
I5
F-0.375
S'small'
p652
tp653
a(I71
I1
I0
g492
tp654
a(I71
I1
I0
g494
tp655
a(I71
I1
I0
g496
tp656
a(I90
I1
F0.375
g498
tp657
a(I91
I1
I0
g501
tp658
a(I114
I3
I0
g504
tp659
a(I114
I4
I0
g507
tp660
a(I121
I2
I0
S'full'
p661
tp662
a(I127
I3
I0
g509
tp663
a(I132
I1
F0.125
S'first'
p664
tp665
a(I134
I1
I0
S'full'
p666
tp667
a(I141
I2
F0.375
S'available'
p668
tp669
a(I153
I4
I0
S'internal'
p670
tp671
a(I164
I1
I0
g513
tp672
a(I222
I1
I0
S'full'
p673
tp674
a(I243
I9
I0
S'more'
p675
tp676
as(S'product'
p677
tp678
(lp679
(I5
I0
F1.0
S'good'
p680
tp681
a(I18
I0
F1.0
S'good'
p682
tp683
a(I41
I1
I0
S'great'
p684
tp685
a(I43
I1
F-0.5
S'afraid'
p686
tp687
a(I43
I2
F0.75
S'fortunate'
p688
tp689
a(I47
I2
F0.625
S'kind'
p690
tp691
a(I47
I2
I0
S'standard'
p692
tp693
a(I81
I0
F1.0
S'good'
p694
tp695
a(I88
I0
I0
S'great'
p696
tp697
a(I104
I1
F1.0
S'good'
p698
tp699
a(I177
I0
I0
S'great'
p700
tp701
a(I177
I0
F0.125
S'first'
p702
tp703
a(I193
I5
I0
S'great'
p704
tp705
a(I205
I18
F0.125
S'first'
p706
tp707
a(I210
I0
F0.875
S'nice'
p708
tp709
a(I274
I3
F0.125
S'solid'
p710
tp711
as(S'social'
p712
S'networks'
p713
tp714
(lp715
(I29
I1
I0
S'social'
p716
tp717
a(I245
I2
F0.125
S'popular'
p718
tp719
a(I245
I2
I0
S'social'
p720
tp721
a(I266
I0
I0
S'social'
p722
tp723
as(S'features'
p724
tp725
(lp726
(I6
I11
F-0.625
S'other'
p727
tp728
a(I7
I17
I0
S'such'
p729
tp730
a(I16
I12
F1.0
S'better'
p731
tp732
a(I22
I1
F0.625
S'easy'
p733
tp734
a(I27
I2
I0
S'incredible'
p735
tp736
a(I29
I6
F-0.5
S'less'
p737
tp738
a(I37
I0
F0.375
S'new'
p739
tp740
a(I50
I2
I0
S'cool'
p741
tp742
a(I50
I2
F-0.75
S'dark'
p743
tp744
a(I54
I3
F-0.625
S'other'
p745
tp746
a(I70
I2
I0
S'such'
p747
tp748
a(I72
I0
I0
S'many'
p749
tp750
a(I72
I4
F0.5
S'advanced'
p751
tp752
a(I74
I17
F0.375
S'new'
p753
tp754
a(I78
I0
F1.0
S'good'
p755
tp756
a(I85
I0
I0
S'such'
p757
tp758
a(I95
I2
I0
S'many'
p759
tp760
a(I106
I0
I0
S'great'
p761
tp762
a(I120
I0
I0
S'great'
p763
tp764
a(I137
I6
I0
S'only'
p765
tp766
a(I137
I6
F-0.875
S'negative'
p767
tp768
a(I137
I6
I0
S'special'
p769
tp770
a(I146
I0
I0
S'many'
p771
tp772
a(I146
I0
I0
S'great'
p773
tp774
a(I147
I12
I0
S'many'
p775
tp776
a(I153
I11
F-0.625
S'other'
p777
tp778
a(I162
I1
F0.875
S'nice'
p779
tp780
a(I183
I1
I0
S'great'
p781
tp782
a(I183
I1
I0
S'such'
p783
tp784
a(I211
I0
F0.375
S'interesting'
p785
tp786
a(I217
I5
I0
S'great'
p787
tp788
a(I217
I10
I0
S'most'
p789
tp790
a(I219
I4
I0
S'special'
p791
tp792
a(I220
I0
I0
S'many'
p793
tp794
a(I222
I0
F-0.75
S'unable'
p795
tp796
a(I222
I0
F-0.5
S'certain'
p797
tp798
a(I250
I1
I0
S'great'
p799
tp800
a(I268
I49
I0
S'most'
p801
tp802
a(I277
I20
F0.125
S'above'
p803
tp804
as(S'a'
p805
S'long'
p806
S'time'
p807
tp808
(lp809
(I15
I0
I0
S'same'
p810
tp811
a(I93
I2
F1.0
S'good'
p812
tp813
a(I93
I2
F-0.5
S'long'
p814
tp815
a(I116
I0
F-0.5
S'long'
p816
tp817
a(I132
I3
F-0.5
S'long'
p818
tp819
a(I150
I23
F-0.5
S'long'
p820
tp821
a(I164
I0
F-0.5
S'long'
p822
tp823
a(I202
I6
F-0.5
S'long'
p824
tp825
a(I268
I37
F-0.5
S'long'
p826
tp827
as(S'qwerty'
p828
S'keyboard'
p829
tp830
(lp831
(I67
I2
F0.125
S'first'
p832
tp833
a(I72
I12
F-0.375
g157
tp834
a(I110
I2
F0.625
S'easy'
p835
tp836
a(I110
I2
I0
g163
tp837
a(I193
I1
I0
S'full'
p838
tp839
a(I234
I3
I0
S'full'
p840
tp841
a(I277
I16
I0
g183
tp842
as(S'thing'
p843
tp844
(lp845
(I7
I1
I0
S'only'
p846
tp847
a(I7
I3
F-0.25
S'past'
p848
tp849
a(I7
I20
I0
S'great'
p850
tp851
a(I33
I0
I0
S'same'
p852
tp853
a(I72
I20
I0
S'great'
p854
tp855
a(I72
I21
F0.125
S'first'
p856
tp857
a(I72
I34
F0.875
S'nice'
p858
tp859
a(I74
I22
F-0.375
S'beast'
p860
tp861
a(I74
I25
F-0.375
S'beast'
p862
tp863
a(I89
I5
F1.0
S'good'
p864
tp865
a(I89
I5
I0
S'only'
p866
tp867
a(I93
I2
F1.0
S'best'
p868
tp869
a(I94
I2
F-0.375
S'simple'
p870
tp871
a(I127
I3
I0
S'only'
p872
tp873
a(I147
I68
F1.0
S'good'
p874
tp875
a(I168
I4
I0
S'only'
p876
tp877
a(I168
I4
F-0.625
S'bad'
p878
tp879
a(I175
I3
I0
S'only'
p880
tp881
a(I175
I3
F1.0
S'good'
p882
tp883
a(I208
I1
I0
S'only'
p884
tp885
a(I218
I6
I0
S'only'
p886
tp887
a(I220
I6
F0.125
S'last'
p888
tp889
a(I225
I4
F-0.375
S'small'
p890
tp891
a(I257
I2
F0.25
S'main'
p892
tp893
a(I267
I6
I0
S'more'
p894
tp895
as(S'signal'
p896
S'strength'
p897
tp898
(lp899
(I54
I14
I0
S'signal'
p900
tp901
a(I214
I1
I0
S'signal'
p902
tp903
a(I214
I1
F0.5
S'strong'
p904
tp905
a(I245
I2
I0
S'great'
p906
tp907
a(I268
I7
F1.0
S'good'
p908
tp909
a(I268
I7
I0
S'signal'
p910
tp911
as(S'data'
p912
tp913
(lp914
(I96
I2
F-0.125
S'minimum'
p915
tp916
a(I148
I4
I0
S'basic'
p917
tp918
a(I150
I9
F-0.5
S'call'
p919
tp920
a(I150
I29
F0.375
S'new'
p921
tp922
a(I198
I13
F-0.125
S'delete'
p923
tp924
a(I241
I0
I0
S'sensitive'
p925
tp926
a(I268
I24
F-0.625
S'other'
p927
tp928
a(I268
I25
F-0.5
S'unlimited'
p929
tp930
a(I277
I4
I0
S'cable'
p931
tp932
a(I277
I4
F-0.75
S'short'
p933
tp934
as(g805
S'data'
p935
S'plan'
p936
tp937
(lp938
(I74
I33
F0.625
S'necessary'
p939
tp940
a(I96
I2
F-0.125
g915
tp941
a(I148
I4
I0
g917
tp942
a(I150
I5
I0
S'illegal'
p943
tp944
a(I150
I9
F-0.5
g919
tp945
a(I150
I29
F0.375
g921
tp946
a(I268
I25
F-0.5
g929
tp947
as(S'symbian'
p948
tp949
(lp950
(I198
I2
I0
S'old'
p951
tp952
a(I234
I7
I0
S'own'
p953
tp954
as(S'work'
p955
tp956
(lp957
(I0
I2
F-0.25
S'google'
p958
tp959
as(S'battery'
p960
S'life'
p961
tp962
(lp963
(I7
I16
I0
g200
tp964
a(I22
I1
I0
g202
tp965
a(I28
I3
F0.125
S'last'
p966
tp967
a(I34
I3
F1.0
g204
tp968
a(I39
I7
F1.0
S'good'
p969
tp970
a(I45
I4
F1.0
g206
tp971
a(I65
I2
F-0.5
g208
tp972
a(I87
I0
F-0.625
g210
tp973
a(I137
I3
I0
g212
tp974
a(I141
I2
F1.0
g214
tp975
a(I153
I3
F0.625
g216
tp976
a(I187
I1
F-0.5
S'long'
p977
tp978
a(I200
I2
F1.0
g218
tp979
a(I202
I10
I0
g433
tp980
a(I205
I7
F0.375
g220
tp981
a(I214
I0
I0
g435
tp982
a(I217
I10
F-0.625
g222
tp983
a(I217
I10
I0
g224
tp984
a(I233
I5
F1.0
g226
tp985
a(I245
I2
I0
g228
tp986
a(I274
I1
I0
g230
tp987
a(I277
I0
F1.0
g232
tp988
as(S'nokia'
p989
S'e5'
p990
tp991
(lp992
(I25
I6
F1.0
S'good'
p993
tp994
a(I75
I0
F0.375
g274
tp995
a(I202
I20
F0.375
g312
tp996
a(I277
I0
F0.125
S'above'
p997
tp998
as(S'straight'
p999
S'talk'
p1000
tp1001
(lp1002
(I166
I3
F0.625
S'straight'
p1003
tp1004
a(I191
I8
F0.625
S'straight'
p1005
tp1006
a(I249
I0
F0.625
S'straight'
p1007
tp1008
as(g805
S'touch'
p1009
S'screen'
p1010
tp1011
(lp1012
(I12
I1
I0
g88
tp1013
a(I16
I4
F0.5
S'touch'
p1014
tp1015
a(I30
I0
I0
g90
tp1016
a(I34
I5
F0.625
g92
tp1017
a(I61
I6
F0.5
S'touch'
p1018
tp1019
a(I61
I9
F0.5
S'touch'
p1020
tp1021
a(I61
I9
I0
S'more'
p1022
tp1023
a(I66
I2
F0.5
S'touch'
p1024
tp1025
a(I70
I1
I0
g94
tp1026
a(I74
I14
F0.5
S'touch'
p1027
tp1028
a(I76
I0
F0.5
S'touch'
p1029
tp1030
a(I80
I7
F0.5
S'touch'
p1031
tp1032
a(I191
I0
F0.5
S'touch'
p1033
tp1034
a(I191
I1
F0.5
S'touch'
p1035
tp1036
a(I191
I5
F-0.375
S'smaller'
p1037
tp1038
a(I197
I0
F-0.375
g96
tp1039
a(I202
I11
F0.5
S'touch'
p1040
tp1041
a(I234
I6
F0.5
S'touch'
p1042
tp1043
a(I268
I2
F0.5
S'touch'
p1044
tp1045
a(I268
I31
F-0.375
S'small'
p1046
tp1047
a(I268
I31
F0.5
S'touch'
p1048
tp1049
a(I277
I9
F0.75
S'beautiful'
p1050
tp1051
a(I277
I9
F-0.375
S'smaller'
p1052
tp1053
a(I277
I9
F0.25
S'bigger'
p1054
tp1055
as(S'life'
p1056
tp1057
(lp1058
(I7
I16
I0
g200
tp1059
a(I19
I7
I0
S'real'
p1060
tp1061
a(I34
I3
F1.0
g204
tp1062
a(I55
I2
I0
S'such'
p1063
tp1064
a(I55
I2
F-0.75
S'short'
p1065
tp1066
a(I74
I2
I0
S'real'
p1067
tp1068
a(I137
I3
I0
g212
tp1069
a(I141
I2
F1.0
g214
tp1070
a(I153
I3
F0.625
g216
tp1071
a(I181
I5
I0
S'useful'
p1072
tp1073
a(I200
I2
F1.0
g218
tp1074
a(I233
I5
F1.0
g226
tp1075
a(I245
I2
I0
g228
tp1076
a(I274
I1
I0
g230
tp1077
as(S'good'
p1078
S'battery'
p1079
S'life'
p1080
tp1081
(lp1082
(I34
I3
F1.0
g204
tp1083
a(I39
I7
F1.0
g969
tp1084
a(I45
I4
F1.0
g206
tp1085
a(I87
I0
F-0.625
g210
tp1086
a(I141
I2
F1.0
g214
tp1087
a(I200
I2
F1.0
g218
tp1088
a(I217
I10
F-0.625
g222
tp1089
a(I217
I10
I0
g224
tp1090
a(I233
I5
F1.0
g226
tp1091
a(I245
I2
I0
g228
tp1092
a(I277
I0
F1.0
g232
tp1093
as(S'qwerty'
p1094
tp1095
(lp1096
(I32
I4
F1.0
S'good'
p1097
tp1098
a(I32
I4
F0.125
S'key'
p1099
tp1100
a(I65
I1
F0.625
S'easy'
p1101
tp1102
a(I67
I2
F0.125
g832
tp1103
a(I110
I2
F0.625
g835
tp1104
a(I193
I1
I0
g838
tp1105
a(I234
I3
I0
g840
tp1106
as(S'music'
p1107
tp1108
(lp1109
(I7
I22
F0.125
S'capable'
p1110
tp1111
a(I7
I22
F0.875
S'nice'
p1112
tp1113
a(I7
I22
F-0.75
S'little'
p1114
tp1115
a(I234
I12
F0.25
S'portable'
p1116
tp1117
as(S'user'
p1118
tp1119
(lp1120
(I148
I2
F0.5
S'technical'
p1121
tp1122
a(I218
I8
F0.875
S'happy'
p1123
tp1124
a(I274
I2
F-0.5
S'heavy'
p1125
tp1126
as(S'battery'
p1127
tp1128
(lp1129
(I10
I0
I0
S'great'
p1130
tp1131
a(I18
I0
F1.0
S'best'
p1132
tp1133
a(I21
I7
F0.625
S'removable'
p1134
tp1135
a(I22
I1
I0
g202
tp1136
a(I28
I3
F0.125
g966
tp1137
a(I39
I7
F1.0
g969
tp1138
a(I45
I4
F1.0
g206
tp1139
a(I51
I1
F1.0
S'good'
p1140
tp1141
a(I65
I2
F-0.5
g208
tp1142
a(I72
I38
I0
S'great'
p1143
tp1144
a(I84
I1
F0.125
S'able'
p1145
tp1146
a(I84
I1
F0.625
S'easy'
p1147
tp1148
a(I87
I0
F-0.625
g210
tp1149
a(I99
I1
F1.0
S'good'
p1150
tp1151
a(I116
I3
F0.375
S'new'
p1152
tp1153
a(I145
I2
I0
S'large'
p1154
tp1155
a(I187
I1
F-0.5
g977
tp1156
a(I188
I1
F0.125
S'last'
p1157
tp1158
a(I202
I10
I0
g433
tp1159
a(I205
I7
F0.375
g220
tp1160
a(I205
I8
F0.375
S'new'
p1161
tp1162
a(I205
I9
F-0.5
S'aside'
p1163
tp1164
a(I214
I0
I0
g435
tp1165
a(I217
I10
F-0.625
g222
tp1166
a(I217
I10
I0
g224
tp1167
a(I256
I4
F0.125
S'last'
p1168
tp1169
a(I268
I8
F-0.75
S'single'
p1170
tp1171
a(I269
I1
F-0.25
S'low'
p1172
tp1173
a(I277
I0
F1.0
g232
tp1174
as(S'access'
p1175
tp1176
(lp1177
(I7
I16
F0.625
S'easy'
p1178
tp1179
a(I74
I12
F0.625
S'easy'
p1180
tp1181
a(I153
I11
F0.75
S'constant'
p1182
tp1183
a(I268
I24
I0
S'e-mail'
p1184
tp1185
a(I268
I24
F-0.75
S'single'
p1186
tp1187
a(I277
I10
F-0.75
S'unreliable'
p1188
tp1189
a(I277
I13
F-0.5
S'poor'
p1190
tp1191
as(S'able'
p1192
S'to'
p1193
S'use'
p1194
tp1195
(lp1196
(I74
I13
F0.125
S'able'
p1197
tp1198
a(I277
I20
I0
S'many'
p1199
tp1200
as(S'time'
p1201
tp1202
(lp1203
(I4
I10
F0.125
S'first'
p1204
tp1205
a(I6
I10
I0
S'same'
p1206
tp1207
a(I15
I0
I0
g810
tp1208
a(I34
I2
I0
S'same'
p1209
tp1210
a(I74
I22
I0
S'most'
p1211
tp1212
a(I83
I5
I0
S'next'
p1213
tp1214
a(I91
I11
I0
S'most'
p1215
tp1216
a(I93
I2
F1.0
g812
tp1217
a(I93
I2
F-0.5
g814
tp1218
a(I105
I0
F0.125
S'first'
p1219
tp1220
a(I109
I0
F0.625
S'easy'
p1221
tp1222
a(I111
I2
F0.125
S'first'
p1223
tp1224
a(I116
I0
F-0.5
g816
tp1225
a(I127
I4
I0
S'next'
p1226
tp1227
a(I132
I3
F-0.5
g818
tp1228
a(I150
I23
F-0.5
g820
tp1229
a(I164
I0
F-0.5
g822
tp1230
a(I201
I0
F0.5
S'second'
p1231
tp1232
a(I202
I6
F-0.5
g824
tp1233
a(I219
I2
I0
S'only'
p1234
tp1235
a(I223
I4
F1.0
S'good'
p1236
tp1237
a(I266
I0
I0
S'same'
p1238
tp1239
a(I268
I37
F-0.5
g826
tp1240
a(I273
I3
F0.625
S'easy'
p1241
tp1242
as(S'months'
p1243
tp1244
(lp1245
(I22
I2
I0
S'more'
p1246
tp1247
a(I106
I0
I0
S'few'
p1248
tp1249
a(I124
I0
I0
S'later'
p1250
tp1251
a(I267
I2
I0
S'few'
p1252
tp1253
a(I267
I2
I0
S'later'
p1254
tp1255
as(S'touch'
p1256
S'screen'
p1257
tp1258
(lp1259
(I12
I1
I0
g88
tp1260
a(I16
I4
F0.5
g1014
tp1261
a(I30
I0
I0
g90
tp1262
a(I34
I5
F0.625
g92
tp1263
a(I61
I6
F0.5
g1018
tp1264
a(I61
I9
F0.5
g1020
tp1265
a(I61
I9
I0
g1022
tp1266
a(I66
I2
F0.5
g1024
tp1267
a(I70
I1
I0
g94
tp1268
a(I74
I14
F0.5
g1027
tp1269
a(I76
I0
F0.5
g1029
tp1270
a(I80
I7
F0.5
g1031
tp1271
a(I191
I0
F0.5
g1033
tp1272
a(I191
I1
F0.5
g1035
tp1273
a(I191
I5
F-0.375
g1037
tp1274
a(I197
I0
F-0.375
g96
tp1275
a(I202
I11
F0.5
g1040
tp1276
a(I234
I6
F0.5
g1042
tp1277
a(I268
I2
F0.5
g1044
tp1278
a(I268
I31
F-0.375
g1046
tp1279
a(I268
I31
F0.5
g1048
tp1280
a(I277
I9
F0.75
g1050
tp1281
a(I277
I9
F-0.375
g1052
tp1282
a(I277
I9
F0.25
g1054
tp1283
as(S'ovi'
p1284
S'store'
p1285
tp1286
(lp1287
(I140
I0
F-0.625
S'free'
p1288
tp1289
a(I252
I0
F-0.625
S'free'
p1290
tp1291
a(I268
I53
I0
S'proprietary'
p1292
tp1293
as(S'good'
p1294
S'call'
p1295
S'quality'
p1296
tp1297
(lp1298
(I16
I7
F1.0
g56
tp1299
a(I141
I0
F1.0
g64
tp1300
a(I157
I2
F1.0
g66
tp1301
a(I205
I15
F1.0
g68
tp1302
a(I205
I15
F0.625
g70
tp1303
a(I241
I0
F1.0
g74
tp1304
a(I256
I4
F1.0
g76
tp1305
as(S'plan'
p1306
tp1307
(lp1308
(I54
I7
F-0.5
S'separate'
p1309
tp1310
a(I74
I33
F0.625
g939
tp1311
a(I96
I14
F0.375
S'new'
p1312
tp1313
a(I150
I5
I0
g943
tp1314
as(S'screen'
p1315
tp1316
(lp1317
(I3
I0
F0.25
S'larger'
p1318
tp1319
a(I7
I19
F-0.375
S'small'
p1320
tp1321
a(I7
I23
F0.625
S'washed'
p1322
tp1323
a(I7
I24
F-0.75
S'bright'
p1324
tp1325
a(I15
I0
F0.25
S'main'
p1326
tp1327
a(I16
I4
F0.5
g1014
tp1328
a(I26
I3
F0.25
S'bigger'
p1329
tp1330
a(I34
I3
F-0.75
S'bright'
p1331
tp1332
a(I34
I3
F0.625
S'easy'
p1333
tp1334
a(I39
I8
F0.25
S'larger'
p1335
tp1336
a(I55
I0
I0
S'more'
p1337
tp1338
a(I55
I1
F-0.25
S'white'
p1339
tp1340
a(I61
I6
F0.5
g1018
tp1341
a(I61
I9
F0.5
g1020
tp1342
a(I61
I9
I0
g1022
tp1343
a(I63
I0
F-0.875
S'hard'
p1344
tp1345
a(I66
I2
F0.5
g1024
tp1346
a(I72
I4
F-0.75
S'bright'
p1347
tp1348
a(I72
I7
F-0.75
S'bright'
p1349
tp1350
a(I72
I7
F0.5
S'clear'
p1351
tp1352
a(I72
I17
I0
S'large'
p1353
tp1354
a(I72
I18
I0
S'large'
p1355
tp1356
a(I72
I18
F-0.375
S'small'
p1357
tp1358
a(I73
I2
F1.0
S'good'
p1359
tp1360
a(I74
I14
F0.5
g1027
tp1361
a(I74
I47
F0.625
S'kind'
p1362
tp1363
a(I76
I0
F0.5
g1029
tp1364
a(I80
I0
I0
S'active'
p1365
tp1366
a(I80
I7
F0.5
g1031
tp1367
a(I96
I20
I0
S'plastic'
p1368
tp1369
a(I96
I21
F-0.875
S'hard'
p1370
tp1371
a(I139
I12
F0.25
S'bigger'
p1372
tp1373
a(I153
I3
F0.5
S'clear'
p1374
tp1375
a(I153
I3
F-0.75
S'bright'
p1376
tp1377
a(I174
I4
F-0.5
S'complaint'
p1378
tp1379
a(I174
I4
F-0.375
S'small'
p1380
tp1381
a(I179
I7
F-0.625
S'idle'
p1382
tp1383
a(I190
I2
F1.0
S'good'
p1384
tp1385
a(I191
I0
F0.5
g1033
tp1386
a(I191
I1
F0.5
g1035
tp1387
a(I191
I5
F-0.375
g1037
tp1388
a(I202
I11
F0.5
g1040
tp1389
a(I216
I4
F-0.625
S'other'
p1390
tp1391
a(I226
I4
F-0.375
S'small'
p1392
tp1393
a(I233
I1
I0
S'great'
p1394
tp1395
a(I234
I6
F0.5
g1042
tp1396
a(I268
I2
F0.5
g1044
tp1397
a(I268
I31
F-0.375
g1046
tp1398
a(I268
I31
F0.5
g1048
tp1399
a(I277
I9
F0.75
g1050
tp1400
a(I277
I9
F-0.375
g1052
tp1401
a(I277
I9
F0.25
g1054
tp1402
as(S'everything'
p1403
tp1404
(lp1405
(I1
I0
F1.0
S'good'
p1406
tp1407
a(I32
I3
F0.125
S'visible'
p1408
tp1409
a(I74
I45
F-0.25
S'mute'
p1410
tp1411
a(I171
I9
I0
S'fast'
p1412
tp1413
a(I171
I9
I0
S'efficient'
p1414
tp1415
a(I181
I22
I0
S'earlier'
p1416
tp1417
a(I229
I0
F0.625
S'perfect'
p1418
tp1419
a(I274
I0
I0
S'more'
p1420
tp1421
as(S'download'
p1422
tp1423
(lp1424
(I19
I8
F-0.5
S'separate'
p1425
tp1426
a(I268
I47
F1.0
S'better'
p1427
tp1428
a(I268
I47
F0.375
S'available'
p1429
tp1430
a(I268
I47
F-0.625
S'free'
p1431
tp1432
as(S'camera'
p1433
tp1434
(lp1435
(I12
I6
I0
S'great'
p1436
tp1437
a(I29
I1
F-0.75
S'secondary'
p1438
tp1439
a(I29
I3
F0.625
S'noticeable'
p1440
tp1441
a(I29
I3
I0
S'same'
p1442
tp1443
a(I29
I6
F-0.75
S'secondary'
p1444
tp1445
a(I45
I7
F-0.875
S'awful'
p1446
tp1447
a(I46
I1
F0.875
S'music'
p1448
tp1449
a(I51
I0
F0.5
S'clear'
p1450
tp1451
a(I74
I27
I0
S'great'
p1452
tp1453
a(I89
I9
F-0.625
S'average'
p1454
tp1455
a(I95
I12
F1.0
S'good'
p1456
tp1457
a(I143
I6
F-0.625
S'bad'
p1458
tp1459
a(I157
I1
F1.0
S'best'
p1460
tp1461
a(I197
I1
I0
S'close'
p1462
tp1463
a(I221
I4
I0
S'great'
p1464
tp1465
a(I234
I9
F1.0
S'good'
p1466
tp1467
a(I237
I0
F-0.75
S'secondary'
p1468
tp1469
a(I238
I1
I0
S'great'
p1470
tp1471
a(I241
I0
F-0.5
S'poor'
p1472
tp1473
a(I241
I0
F-0.25
S'low'
p1474
tp1475
a(I243
I10
I0
S'great'
p1476
tp1477
a(I246
I1
F0.875
S'nice'
p1478
tp1479
a(I268
I36
F0.875
S'nice'
p1480
tp1481
a(I277
I0
I0
S'basic'
p1482
tp1483
as(S'space'
p1484
S'bar'
p1485
tp1486
(lp1487
(I74
I12
I0
S'large'
p1488
tp1489
a(I157
I3
I0
S'large'
p1490
tp1491
as(S'take'
p1492
tp1493
(lp1494
(I220
I7
F0.25
S'unlocked'
p1495
tp1496
as(S'mobile'
p1497
tp1498
(lp1499
(I37
I0
F1.0
S'good'
p1500
tp1501
a(I190
I0
F1.0
S'good'
p1502
tp1503
as(S'ovi'
p1504
S'maps'
p1505
tp1506
(lp1507
(I105
I0
F-0.625
g632
tp1508
a(I140
I0
F-0.625
g1288
tp1509
a(I157
I4
F0.375
S'new'
p1510
tp1511
a(I234
I3
F-0.625
S'free'
p1512
tp1513
a(I252
I0
F-0.625
g1290
tp1514
a(I277
I4
I0
S'full'
p1515
tp1516
as(S'people'
p1517
tp1518
(lp1519
(I72
I9
I0
S'complement'
p1520
tp1521
a(I171
I10
F-0.375
S'smaller'
p1522
tp1523
a(I181
I13
I0
S'most'
p1524
tp1525
a(I197
I0
F1.0
S'best'
p1526
tp1527
a(I267
I3
F-0.625
S'other'
p1528
tp1529
as(S'feature'
p1530
tp1531
(lp1532
(I16
I7
F0.875
S'important'
p1533
tp1534
a(I54
I8
F0.25
S'independent'
p1535
tp1536
a(I72
I28
F0.875
S'nice'
p1537
tp1538
a(I74
I19
F1.0
S'good'
p1539
tp1540
a(I148
I2
F-0.5
S'certain'
p1541
tp1542
a(I268
I0
I0
S'chose'
p1543
tp1544
a(I268
I20
F0.875
S'nice'
p1545
tp1546
a(I268
I58
F0.375
S'similar'
p1547
tp1548
as(S'social'
p1549
S'networking'
p1550
tp1551
(lp1552
(I15
I0
I0
S'social'
p1553
tp1554
a(I54
I21
I0
S'social'
p1555
tp1556
a(I123
I0
I0
S'social'
p1557
tp1558
as(S'works'
p1559
tp1560
(lp1561
(I7
I16
I0
S'great'
p1562
tp1563
a(I19
I13
F1.0
S'good'
p1564
tp1565
a(I38
I8
I0
S'great'
p1566
tp1567
a(I64
I3
I0
S'great'
p1568
tp1569
a(I115
I2
F0.875
S'nice'
p1570
tp1571
a(I137
I5
I0
S'great'
p1572
tp1573
a(I150
I4
F-0.25
S'bird'
p1574
tp1575
a(I156
I0
I0
S'great'
p1576
tp1577
a(I267
I1
I0
S'great'
p1578
tp1579
as(S'apps'
p1580
tp1581
(lp1582
(I12
I3
I0
S'more'
p1583
tp1584
a(I13
I1
I0
S'useful'
p1585
tp1586
a(I15
I0
I0
S'such'
p1587
tp1588
a(I15
I0
F-0.5
S'open'
p1589
tp1590
a(I19
I10
F0.375
S'new'
p1591
tp1592
a(I19
I10
I0
S'many'
p1593
tp1594
a(I19
I10
F0.375
S'available'
p1595
tp1596
a(I38
I10
F0.25
S'main'
p1597
tp1598
a(I46
I0
I0
S'most'
p1599
tp1600
a(I46
I0
I0
S'common'
p1601
tp1602
a(I52
I2
F-0.375
S'small'
p1603
tp1604
a(I57
I0
I0
S'great'
p1605
tp1606
a(I86
I1
I0
S'such'
p1607
tp1608
a(I147
I49
I0
S'many'
p1609
tp1610
a(I165
I1
I0
S'android'
p1611
tp1612
a(I197
I0
I0
S'many'
p1613
tp1614
a(I197
I0
I0
S'same'
p1615
tp1616
a(I245
I2
I0
S'many'
p1617
tp1618
a(I245
I2
F0.125
S'popular'
p1619
tp1620
a(I258
I0
F1.0
S'good'
p1621
tp1622
a(I258
I0
F-0.625
S'free'
p1623
tp1624
a(I262
I5
F-0.625
S'free'
p1625
tp1626
a(I268
I45
F-0.625
S'other'
p1627
tp1628
a(I268
I45
I0
S'such'
p1629
tp1630
a(I268
I56
I0
S'only'
p1631
tp1632
as(S'better'
p1633
tp1634
(lp1635
(I74
I2
F0.375
S'much'
p1636
tp1637
a(I233
I5
F0.375
S'much'
p1638
tp1639
as(S'5'
p1640
S'mp'
p1641
S'camera'
p1642
tp1643
(lp1644
(I29
I3
F0.625
g1440
tp1645
a(I29
I3
I0
g1442
tp1646
a(I74
I27
I0
g1452
tp1647
a(I157
I1
F1.0
g1460
tp1648
a(I197
I1
I0
g1462
tp1649
a(I237
I0
F-0.75
g1468
tp1650
as(S'device'
p1651
tp1652
(lp1653
(I37
I0
I0
S'many'
p1654
tp1655
a(I44
I5
I0
S'android'
p1656
tp1657
a(I45
I4
F-0.125
S'overall'
p1658
tp1659
a(I74
I21
F0.375
S'loud'
p1660
tp1661
a(I74
I47
I0
S'great'
p1662
tp1663
a(I74
I60
I0
S'only'
p1664
tp1665
a(I152
I0
I0
S'great'
p1666
tp1667
a(I205
I11
F0.375
S'new'
p1668
tp1669
as(S'call'
p1670
tp1671
(lp1672
(I135
I1
F0.125
S'able'
p1673
tp1674
a(I141
I0
F1.0
g64
tp1675
a(I187
I3
F-0.75
S'single'
p1676
tp1677
a(I205
I15
F1.0
g68
tp1678
a(I225
I2
I0
g72
tp1679
a(I241
I0
F1.0
g74
tp1680
as(S'lot'
p1681
S'of'
p1682
S'apps'
p1683
tp1684
(lp1685
(I13
I1
F0.625
S'easy'
p1686
tp1687
a(I13
I1
I0
g1585
tp1688
a(I15
I0
I0
g1587
tp1689
a(I15
I0
F-0.5
g1589
tp1690
a(I86
I1
I0
g1607
tp1691
a(I262
I5
F-0.625
g1625
tp1692
as(S'much'
p1693
S'better'
p1694
tp1695
(lp1696
(I74
I2
F0.375
g1636
tp1697
a(I233
I5
F0.375
g1638
tp1698
as(S'data'
p1699
S'plan'
p1700
tp1701
(lp1702
(I74
I33
F0.625
g939
tp1703
a(I96
I2
F-0.125
g915
tp1704
a(I148
I4
I0
g917
tp1705
a(I150
I5
I0
g943
tp1706
a(I150
I9
F-0.5
g919
tp1707
a(I150
I29
F0.375
g921
tp1708
a(I268
I25
F-0.5
g929
tp1709
as(S'recommend'
p1710
tp1711
(lp1712
(I255
I0
F1.0
S'better'
p1713
tp1714
as(S'looking'
p1715
tp1716
(lp1717
(I21
I5
F1.0
S'good'
p1718
tp1719
a(I74
I7
I0
S'such'
p1720
tp1721
a(I74
I7
F1.0
S'good'
p1722
tp1723
a(I264
I0
I0
S'great'
p1724
tp1725
as(S'lightening'
p1726
S'deal'
p1727
tp1728
(lp1729
(I251
I0
I0
S'special'
p1730
tp1731
as(S'texting'
p1732
tp1733
(lp1734
(I114
I3
F-0.75
S'comfortable'
p1735
tp1736
a(I171
I10
I0
S'fast'
p1737
tp1738
as(S'days'
p1739
tp1740
(lp1741
(I11
I1
I0
S'unbelievable'
p1742
tp1743
a(I45
I1
I0
S'few'
p1744
tp1745
a(I68
I7
F-0.625
S'other'
p1746
tp1747
a(I181
I3
F0.125
S'first'
p1748
tp1749
a(I181
I3
I0
S'few'
p1750
tp1751
a(I181
I8
I0
S'many'
p1752
tp1753
a(I181
I8
F0.125
S'able'
p1754
tp1755
a(I186
I0
F0.75
S'due'
p1756
tp1757
a(I187
I2
I0
S'later'
p1758
tp1759
a(I187
I6
I0
S'least'
p1760
tp1761
a(I191
I0
I0
S'few'
p1762
tp1763
a(I256
I4
I0
S'few'
p1764
tp1765
a(I259
I1
I0
S'least'
p1766
tp1767
a(I259
I6
F0.125
S'first'
p1768
tp1769
a(I259
I6
I0
S'few'
p1770
tp1771
a(I265
I3
F0.125
S'first'
p1772
tp1773
a(I268
I8
I0
S'few'
p1774
tp1775
as.