(dp0
(S'qwerty'
p1
S'keyboard'
p2
tp3
(lp4
(I8
I34
I0
S'physical'
p5
I0
tp6
a(I8
I34
F0.375
S'much'
p7
I0
tp8
a(I6
I0
F0.875
S'nice'
p9
I2
tp10
a(I8
I17
F0.875
S'nice'
p11
I2
tp12
a(I8
I34
F0.375
g7
I2
tp13
a(I8
I65
I0
S'full'
p14
I2
tp15
a(I10
I28
I0
S'few'
p16
I2
tp17
a(I14
I7
I0
S'great'
p18
I2
tp19
a(I14
I13
F0.25
S'responsive'
p20
I2
tp21
a(I16
I2
F-0.75
S'unable'
p22
I2
tp23
as(S'android'
p24
tp25
(lp26
(I0
I21
F0.125
S'first'
p27
I0
tp28
a(I5
I19
F0.125
S'first'
p29
I0
tp30
a(I8
I0
F0.125
S'first'
p31
I0
tp32
a(I8
I7
F0.125
S'first'
p33
I0
tp34
a(I8
I50
F-0.125
S'alternative'
p35
I0
tp36
a(I14
I76
I0
S'later'
p37
I0
tp38
a(I14
I76
I0
S'updated'
p39
I0
tp40
a(I14
I89
F0.375
S'new'
p41
I0
tp42
as(S'few'
p43
S'months'
p44
tp45
(lp46
(I8
I25
I0
S'few'
p47
I5
tp48
a(I9
I0
I0
S'great'
p49
I5
tp50
a(I13
I10
I0
S'few'
p51
I5
tp52
a(I14
I25
I0
S'few'
p53
I5
tp54
as(S'battery'
p55
S'life'
p56
tp57
(lp58
(I2
I0
F-0.75
S'short'
p59
I1
tp60
a(I8
I9
I0
S'proportional'
p61
I1
tp62
a(I8
I32
F-0.75
S'short'
p63
I1
tp64
a(I2
I0
F-0.75
g59
I15
tp65
a(I3
I14
F-0.5
S'less'
p66
I15
tp67
a(I8
I32
F-0.75
g63
I15
tp68
a(I10
I31
F0.125
S'last'
p69
I15
tp70
a(I10
I31
F0.25
S'biggest'
p71
I15
tp72
a(I15
I7
F0.5
S'compatible'
p73
I15
tp74
as(S'slide'
p75
tp76
(lp77
(I9
I16
I0
S'full'
p78
I6
tp79
a(I9
I37
F0.375
S'new'
p80
I6
tp81
a(I10
I14
I0
S'great'
p82
I6
tp83
as(S'seller'
p84
tp85
(lp86
(I11
I7
F0.125
S'able'
p87
I19
tp88
a(I14
I98
F1.0
S'good'
p89
I19
tp90
as(S'apps'
p91
tp92
(lp93
(I8
I19
I0
S'basic'
p94
I0
tp95
a(I10
I15
F-0.625
S'other'
p96
I0
tp97
a(I14
I0
F-0.125
S'mine'
p98
I0
tp99
a(I14
I80
F-0.5
S'certain'
p100
I0
tp101
as(S'few'
p102
S'days'
p103
tp104
(lp105
(I0
I12
I0
S'few'
p106
I10
tp107
a(I13
I5
I0
S'few'
p108
I10
tp109
a(I13
I5
I0
S'later'
p110
I10
tp111
as(S'camera'
p112
tp113
(lp114
(I6
I0
I0
S'great'
p115
I1
tp116
a(I9
I32
I0
S'great'
p117
I1
tp118
as(S'touch'
p119
S'screen'
p120
tp121
(lp122
(I9
I3
I0
S'latest'
p123
I2
tp124
as.