(dp0
(S'settings'
p1
S'personal'
p2
S'accounts'
p3
tp4
(lp5
(I17
I6
F0.5
S'personal'
p6
tp7
a(I17
I6
F0.5
S'personal'
p8
tp9
a(I17
I6
F0.5
S'personal'
p10
tp11
a(I17
I8
F0.5
S'personal'
p12
tp13
a(I17
I8
F0.5
S'personal'
p14
tp15
a(I42
I22
F0.5
S'personal'
p16
tp17
a(I42
I22
F0.5
S'personal'
p18
tp19
a(I42
I22
F0.5
S'personal'
p20
tp21
a(I42
I24
F0.5
S'personal'
p22
tp23
a(I42
I24
F0.5
S'personal'
p24
tp25
a(I49
I25
F0.5
S'personal'
p26
tp27
a(I49
I25
F0.5
S'personal'
p28
tp29
a(I49
I25
F0.5
S'personal'
p30
tp31
a(I49
I27
F0.5
S'personal'
p32
tp33
a(I49
I27
F0.5
S'personal'
p34
tp35
a(I96
I27
F0.5
S'personal'
p36
tp37
a(I96
I27
F0.5
S'personal'
p38
tp39
a(I96
I27
F0.5
S'personal'
p40
tp41
a(I96
I29
F0.5
S'personal'
p42
tp43
a(I96
I29
F0.5
S'personal'
p44
tp45
a(I131
I11
F0.5
S'personal'
p46
tp47
a(I131
I11
F0.5
S'personal'
p48
tp49
a(I131
I11
F0.5
S'personal'
p50
tp51
a(I131
I13
F0.5
S'personal'
p52
tp53
a(I131
I13
F0.5
S'personal'
p54
tp55
as(S'college'
p56
S'student'
p57
tp58
(lp59
(I21
I0
F0.375
S'much'
p60
tp61
as(S'keyboard'
p62
tp63
(lp64
(I9
I1
I0
S'touchscreen'
p65
tp66
a(I9
I2
I0
S'many'
p67
tp68
a(I9
I2
I0
S'full'
p69
tp70
a(I9
I22
I0
S'same'
p71
tp72
a(I26
I6
I0
S'full'
p73
tp74
a(I26
I6
F-0.375
S'small'
p75
tp76
a(I26
I6
F0.875
S'nice'
p77
tp78
a(I38
I0
I0
S'large'
p79
tp80
a(I38
I0
F0.375
S'senior'
p81
tp82
a(I59
I17
F0.625
S'perfect'
p83
tp84
a(I66
I5
I0
S'full'
p85
tp86
a(I94
I4
I0
S'full'
p87
tp88
a(I94
I5
I0
S'full'
p89
tp90
a(I94
I5
I0
S'useful'
p91
tp92
a(I96
I23
F-0.375
S'small'
p93
tp94
a(I115
I0
I0
S'full'
p95
tp96
a(I118
I2
F0.625
S'easy'
p97
tp98
a(I159
I3
I0
S'great'
p99
tp100
a(I202
I0
I0
S'basic'
p101
tp102
a(I222
I5
F-0.875
S'hard'
p103
tp104
a(I228
I1
F-0.75
S'comfortable'
p105
tp106
a(I240
I3
I0
S'full'
p107
tp108
a(I251
I4
F-0.125
S'overall'
p109
tp110
as(S'keys'
p111
tp112
(lp113
(I17
I8
F-0.75
S'dark'
p114
tp115
a(I17
I8
F-0.875
S'hard'
p116
tp117
a(I17
I9
I0
S'legible'
p118
tp119
a(I59
I18
F-0.375
S'small'
p120
tp121
a(I59
I19
I0
S'stiff'
p122
tp123
a(I59
I19
F0.125
S'enough'
p124
tp125
a(I59
I31
F-0.125
S'directional'
p126
tp127
a(I96
I15
I0
S'few'
p128
tp129
a(I154
I3
F-0.875
S'hard'
p130
tp131
a(I154
I5
F-0.875
S'hard'
p132
tp133
a(I161
I5
F-0.375
S'simple'
p134
tp135
a(I163
I3
F-0.375
S'small'
p136
tp137
as(S'call'
p138
S'quality'
p139
tp140
(lp141
(I19
I9
F1.0
S'best'
p142
tp143
a(I27
I1
I0
S'great'
p144
tp145
a(I99
I18
F1.0
S'good'
p146
tp147
a(I106
I3
F0.5
S'clear'
p148
tp149
a(I154
I6
I0
S'high'
p150
tp151
a(I154
I14
F-0.75
S'comfortable'
p152
tp153
a(I240
I3
I0
S'great'
p154
tp155
a(I248
I12
F0.5
S'clear'
p156
tp157
as(S'version'
p158
tp159
(lp160
(I9
I12
I0
S'european'
p161
tp162
a(I9
I22
I0
S'cyrillic'
p163
tp164
a(I50
I0
F0.125
S'able'
p165
tp166
a(I50
I0
I0
S'english'
p167
tp168
a(I54
I0
F-0.5
S'international'
p169
tp170
a(I55
I11
F-0.5
S'international'
p171
tp172
a(I55
I11
F1.0
S'good'
p173
tp174
a(I64
I9
I0
S'next'
p175
tp176
a(I119
I17
F-0.125
S'mine'
p177
tp178
a(I119
I17
F0.375
S'available'
p179
tp180
a(I162
I0
I0
S'spanish'
p181
tp182
as(S'qwerty'
p183
S'keyboard'
p184
tp185
(lp186
(I2
I4
I0
S'full'
p187
tp188
a(I9
I1
I0
S'full'
p189
tp190
a(I9
I1
I0
g65
tp191
a(I9
I9
I0
S'standard'
p192
tp193
a(I9
I9
I0
S'english'
p194
tp195
a(I9
I16
I0
S'english'
p196
tp197
a(I9
I19
F0.625
S'partial'
p198
tp199
a(I9
I22
I0
g71
tp200
a(I56
I3
F0.625
S'easy'
p201
tp202
a(I59
I17
F0.625
g83
tp203
a(I70
I0
F0.625
S'easy'
p204
tp205
a(I99
I17
F0.125
S'typical'
p206
tp207
a(I119
I11
F0.625
S'easy'
p208
tp209
a(I222
I5
F-0.875
g103
tp210
a(I251
I4
F-0.125
g109
tp211
as(S'quality'
p212
tp213
(lp214
(I3
I0
F1.0
S'good'
p215
tp216
a(I4
I8
I0
S'great'
p217
tp218
a(I9
I32
F1.0
S'good'
p219
tp220
a(I19
I9
F1.0
g142
tp221
a(I26
I0
F1.0
S'good'
p222
tp223
a(I41
I1
I0
S'real'
p224
tp225
a(I59
I42
F-0.5
S'heavy'
p226
tp227
a(I67
I4
I0
S'great'
p228
tp229
a(I99
I18
F1.0
g146
tp230
a(I106
I3
F0.5
g148
tp231
a(I106
I7
F1.0
S'better'
p232
tp233
a(I127
I2
F-0.125
S'super'
p234
tp235
a(I139
I2
F1.0
S'good'
p236
tp237
a(I141
I1
F1.0
S'good'
p238
tp239
a(I154
I6
I0
g150
tp240
a(I154
I8
F-0.75
S'bright'
p241
tp242
a(I154
I8
F0.5
S'clear'
p243
tp244
a(I154
I14
F-0.75
g152
tp245
a(I159
I1
I0
S'high'
p246
tp247
a(I176
I0
F1.0
S'good'
p248
tp249
a(I189
I4
I0
S'great'
p250
tp251
a(I202
I0
I0
S'big'
p252
tp253
a(I202
I0
I0
S'high'
p254
tp255
a(I248
I12
F0.5
g156
tp256
a(I248
I13
F0.625
S'decent'
p257
tp258
as(S'nokia'
p259
S'customer'
p260
S'service'
p261
tp262
(lp263
(I70
I0
F0.25
S'original'
p264
tp265
a(I70
I0
F0.125
S'charger'
p266
tp267
a(I119
I14
I0
S'website'
p268
tp269
a(I174
I4
F-0.875
S'worst'
p270
tp271
as(S'new'
p272
S'webaccount'
p273
S'name'
p274
tp275
(lp276
(I96
I27
F0.375
S'new'
p277
tp278
as(S'prior'
p279
S'unhappy'
p280
tp281
(lp282
(I146
I1
I0
S'prior'
p283
tp284
a(I146
I3
F0.125
S'first'
p285
tp286
as(S'sound'
p287
tp288
(lp289
(I125
I7
I0
S'great'
p290
tp291
a(I128
I3
F1.0
S'good'
p292
tp293
a(I177
I0
F1.0
S'good'
p294
tp295
a(I202
I0
I0
S'cool'
p296
tp297
a(I202
I0
F0.875
S'music'
p298
tp299
a(I203
I2
F1.0
S'good'
p300
tp301
a(I206
I1
I0
S'great'
p302
tp303
a(I216
I0
I0
S'great'
p304
tp305
a(I216
I0
I0
S'great'
p306
tp307
as(S'webaccount'
p308
S'name'
p309
S'media'
p310
tp311
(lp312
(I96
I27
F0.375
g277
tp313
as(S'excellent'
p314
tp315
(lp316
(I49
I8
F-0.125
S'overall'
p317
tp318
as(S'nokia'
p319
tp320
(lp321
(I0
I2
F0.125
S'first'
p322
tp323
a(I3
I1
F-0.5
S'longer'
p324
tp325
a(I9
I12
F0.125
S'last'
p326
tp327
a(I9
I31
I0
S'most'
p328
tp329
a(I9
I31
F-0.75
S'likely'
p330
tp331
a(I17
I2
F-0.75
S'little'
p332
tp333
a(I22
I1
F-0.5
S'sure'
p334
tp335
a(I27
I0
I0
S'old'
p336
tp337
a(I37
I0
F0.375
S'much'
p338
tp339
a(I59
I45
F0.375
S'honest'
p340
tp341
a(I70
I0
F0.25
g264
tp342
a(I70
I0
F0.125
g266
tp343
a(I87
I0
I0
S'great'
p344
tp345
a(I94
I10
I0
S'many'
p346
tp347
a(I108
I0
I0
S'old'
p348
tp349
a(I108
I0
F0.75
S'give'
p350
tp351
a(I108
I0
I0
S'old'
p352
tp353
a(I111
I2
I0
S'choose'
p354
tp355
a(I113
I10
I0
S'suite'
p356
tp357
a(I119
I14
I0
g268
tp358
a(I127
I4
I0
S'great'
p359
tp360
a(I127
I8
F0.375
S'indestructible'
p361
tp362
a(I140
I1
F0.375
S'new'
p363
tp364
a(I144
I1
F-0.625
S'other'
p365
tp366
a(I148
I0
I0
S'great'
p367
tp368
a(I151
I2
F-0.625
S'other'
p369
tp370
a(I151
I2
F0.25
S'professional'
p371
tp372
a(I157
I0
I0
S'basic'
p373
tp374
a(I158
I1
F0.125
S'first'
p375
tp376
a(I174
I4
F-0.875
g270
tp377
a(I176
I0
F-0.625
S'other'
p378
tp379
a(I177
I3
F1.0
S'best'
p380
tp381
a(I179
I9
F0.375
S'available'
p382
tp383
a(I192
I11
F-0.625
S'other'
p384
tp385
a(I203
I9
F-0.5
S'less'
p386
tp387
a(I217
I2
I0
S'earlier'
p388
tp389
a(I226
I7
F-0.5
S'poor'
p390
tp391
as(S'tel'
p392
S'eacute'
p393
S'fono'
p394
tp395
(lp396
(I46
I0
I0
S'gran'
p397
tp398
as(S'sim'
p399
S'card'
p400
tp401
(lp402
(I14
I3
I0
S'old'
p403
tp404
a(I50
I0
I0
S'prepaid'
p405
tp406
a(I63
I10
F0.375
S'new'
p407
tp408
a(I79
I0
F0.125
S'valid'
p409
tp410
a(I112
I2
F-0.125
S'former'
p411
tp412
a(I182
I1
I0
S'local'
p413
tp414
a(I182
I1
F1.0
S'good'
p415
tp416
a(I218
I5
F-0.625
S'fresh'
p417
tp418
a(I226
I1
F-0.375
S'simple'
p419
tp420
a(I251
I3
F-0.375
S'simple'
p421
tp422
as(S'able'
p423
S'to'
p424
S'use'
p425
tp426
(lp427
(I248
I7
F-0.625
S'light'
p428
tp429
as(S'for'
p430
S'nokia'
p431
S'c3'
p432
tp433
(lp434
(I0
I2
F0.125
g322
tp435
a(I8
I5
F-0.375
S'black'
p436
tp437
a(I108
I0
F0.375
S'new'
p438
tp439
a(I108
I0
I0
g348
tp440
a(I108
I0
F0.75
g350
tp441
a(I108
I0
I0
g352
tp442
a(I154
I11
F-0.375
S'black'
p443
tp444
as(S'a'
p445
S'college'
p446
S'student'
p447
tp448
(lp449
(I21
I0
F0.375
g60
tp450
as(S'easy'
p451
S'to'
p452
S'use'
p453
tp454
(lp455
(I227
I0
F-0.5
S'continuous'
p456
tp457
as(S'smartphone'
p458
tp459
(lp460
(I59
I55
I0
S'great'
p461
tp462
a(I161
I11
F0.25
S'larger'
p463
tp464
a(I161
I11
I0
S'normal'
p465
tp466
a(I197
I0
F0.625
S'perfect'
p467
tp468
a(I207
I1
F0.625
S'major'
p469
tp470
a(I209
I2
F1.0
S'good'
p471
tp472
a(I240
I3
F0.5
S'comparable'
p473
tp474
as(S'card'
p475
tp476
(lp477
(I182
I1
F1.0
g415
tp478
as(S'great'
p479
S'battery'
p480
S'life'
p481
tp482
(lp483
(I1
I1
I0
S'great'
p484
tp485
a(I82
I1
I0
S'great'
p486
tp487
a(I172
I0
I0
S'great'
p488
tp489
a(I177
I0
I0
S'great'
p490
tp491
as(S'wifi'
p492
tp493
(lp494
(I9
I27
F-0.625
S'nearby'
p495
tp496
a(I60
I19
F0.5
S'strong'
p497
tp498
a(I61
I3
F0.625
S'easy'
p499
tp500
a(I66
I2
F0.5
S'personal'
p501
tp502
a(I75
I7
F-0.375
S'disable'
p503
tp504
a(I125
I5
F0.625
S'easy'
p505
tp506
a(I130
I1
F0.125
S'able'
p507
tp508
a(I154
I10
F0.625
S'easy'
p509
tp510
a(I154
I10
F0.875
S'happy'
p511
tp512
a(I209
I0
F0.625
S'easy'
p513
tp514
a(I222
I4
F0.625
S'easy'
p515
tp516
a(I224
I4
F-0.5
S'sure'
p517
tp518
a(I247
I0
F-0.125
S'overall'
p519
tp520
a(I248
I3
F0.125
S'enough'
p521
tp522
a(I252
I6
I0
S'internet'
p523
tp524
as(S'sound'
p525
S'quality'
p526
tp527
(lp528
(I26
I0
F1.0
g222
tp529
a(I41
I1
I0
g224
tp530
a(I67
I4
I0
g228
tp531
a(I128
I3
F1.0
g292
tp532
a(I141
I1
F1.0
g238
tp533
a(I154
I14
F-0.75
g152
tp534
a(I189
I4
I0
g250
tp535
a(I202
I0
I0
g252
tp536
a(I202
I0
I0
g254
tp537
a(I202
I0
I0
g296
tp538
a(I202
I0
F0.875
g298
tp539
a(I203
I2
F1.0
g300
tp540
a(I248
I13
F0.625
g257
tp541
as(S'problem'
p542
tp543
(lp544
(I6
I4
F1.0
S'good'
p545
tp546
a(I47
I1
I0
S'only'
p547
tp548
a(I49
I11
F0.625
S'major'
p549
tp550
a(I59
I8
I0
S'big'
p551
tp552
a(I114
I2
I0
S'crystal'
p553
tp554
a(I114
I2
F0.5
S'clear'
p555
tp556
a(I201
I1
I0
S'only'
p557
tp558
a(I212
I1
F0.125
S'first'
p559
tp560
a(I242
I10
I0
S'same'
p561
tp562
as(S'gets'
p563
S'job'
p564
S'done'
p565
tp566
(lp567
(I99
I13
I0
S'basic'
p568
tp569
a(I248
I20
I0
S'great'
p570
tp571
as(S'email'
p572
tp573
(lp574
(I59
I57
F0.625
S'convenient'
p575
tp576
a(I66
I3
F0.625
S'easy'
p577
tp578
a(I99
I11
F0.5
S'personal'
p579
tp580
a(I107
I0
F-0.125
S'slow'
p581
tp582
a(I119
I20
F0.125
S'key'
p583
tp584
a(I136
I4
F0.375
S'audible'
p585
tp586
a(I136
I6
F0.375
S'audible'
p587
tp588
a(I210
I1
F-0.625
S'free'
p589
tp590
a(I222
I6
F-0.375
S'simpler'
p591
tp592
a(I222
I6
I0
S'user'
p593
tp594
a(I222
I6
F0.625
S'easy'
p595
tp596
a(I248
I6
I0
S'useful'
p597
tp598
as(S'text'
p599
tp600
(lp601
(I4
I4
F-0.625
S'want'
p602
tp603
a(I4
I4
F0.125
S'able'
p604
tp605
a(I21
I1
I0
S'useful'
p606
tp607
a(I59
I53
I0
S'threaded'
p608
tp609
a(I113
I2
F0.625
S'easier'
p610
tp611
a(I165
I9
F-0.375
S'simple'
p612
tp613
as(S'personal'
p614
S'settings'
p615
S'options'
p616
tp617
(lp618
(I17
I4
F0.5
S'personal'
p619
tp620
a(I17
I4
F0.625
S'add'
p621
tp622
a(I17
I6
F0.5
g6
tp623
a(I17
I6
F0.5
g10
tp624
a(I17
I6
F0.625
S'add'
p625
tp626
a(I17
I8
F0.5
g12
tp627
a(I42
I20
F0.5
S'personal'
p628
tp629
a(I42
I20
F0.625
S'add'
p630
tp631
a(I42
I22
F0.5
g16
tp632
a(I42
I22
F0.5
g20
tp633
a(I42
I22
F0.625
S'add'
p634
tp635
a(I42
I24
F0.5
g22
tp636
a(I49
I23
F0.5
S'personal'
p637
tp638
a(I49
I23
F0.625
S'add'
p639
tp640
a(I49
I25
F0.5
g26
tp641
a(I49
I25
F0.5
g30
tp642
a(I49
I25
F0.625
S'add'
p643
tp644
a(I49
I27
F0.5
g32
tp645
a(I96
I25
F0.5
S'personal'
p646
tp647
a(I96
I25
F0.625
S'add'
p648
tp649
a(I96
I27
F0.5
g36
tp650
a(I96
I27
F0.5
g40
tp651
a(I96
I27
F0.625
S'add'
p652
tp653
a(I96
I29
F0.5
g42
tp654
a(I96
I29
I0
S'activate'
p655
tp656
a(I131
I9
F0.5
S'personal'
p657
tp658
a(I131
I9
F0.625
S'add'
p659
tp660
a(I131
I11
F0.5
g46
tp661
a(I131
I11
F0.5
g50
tp662
a(I131
I11
F0.625
S'add'
p663
tp664
a(I131
I13
F0.5
g52
tp665
as(S'price'
p666
tp667
(lp668
(I28
I6
I0
S'same'
p669
tp670
a(I44
I0
F0.375
S'available'
p671
tp672
a(I57
I3
F0.125
S'able'
p673
tp674
a(I88
I2
F0.75
S'worth'
p675
tp676
a(I88
I2
F-0.25
S'cheaper'
p677
tp678
a(I90
I0
F0.5
S'reasonable'
p679
tp680
a(I98
I0
F1.0
S'good'
p681
tp682
a(I98
I0
F0.875
S'nice'
p683
tp684
a(I101
I0
I0
S'same'
p685
tp686
a(I150
I0
F0.5
S'reasonable'
p687
tp688
a(I172
I4
F0.75
S'worth'
p689
tp690
a(I172
I6
F-0.625
S'bad'
p691
tp692
a(I192
I10
F1.0
S'best'
p693
tp694
a(I192
I11
I0
S'real'
p695
tp696
a(I192
I12
F0.75
S'worth'
p697
tp698
a(I217
I1
F0.5
S'reasonable'
p699
tp700
a(I224
I0
I0
S'great'
p701
tp702
a(I226
I1
F0.5
S'reasonable'
p703
tp704
a(I243
I3
I0
S'current'
p705
tp706
as(S'service'
p707
tp708
(lp709
(I92
I2
I0
S'only'
p710
tp711
a(I103
I2
I0
S'same'
p712
tp713
a(I107
I0
F0.5
S'expensive'
p714
tp715
a(I127
I2
F0.5
S'compatible'
p716
tp717
a(I138
I1
F1.0
S'good'
p718
tp719
a(I161
I4
F-0.5
S'sure'
p720
tp721
a(I220
I1
I0
S'internet'
p722
tp723
a(I223
I0
F-0.5
S'answer'
p724
tp725
as(S'need'
p726
tp727
(lp728
(I220
I0
F-0.25
S'desperate'
p729
tp730
as(S'2'
p731
S'mp'
p732
S'camera'
p733
tp734
(lp735
(I202
I0
F-0.625
S'bad'
p736
tp737
a(I202
I0
F1.0
S'good'
p738
tp739
a(I219
I0
F0.125
S'key'
p740
tp741
a(I239
I0
F0.125
S'key'
p742
tp743
as(S'product'
p744
tp745
(lp746
(I16
I2
F-0.5
S'sure'
p747
tp748
a(I16
I2
F-0.5
S'long'
p749
tp750
a(I20
I3
I0
S'great'
p751
tp752
a(I22
I2
F-0.375
S'simple'
p753
tp754
a(I42
I0
I0
S'great'
p755
tp756
a(I110
I0
F1.0
S'good'
p757
tp758
a(I133
I2
I0
S'faster'
p759
tp760
a(I133
I2
F0.375
S'new'
p761
tp762
a(I232
I0
F0.875
S'happy'
p763
tp764
a(I247
I0
F1.0
S'good'
p765
tp766
a(I248
I18
F0.875
S'happy'
p767
tp768
as(g280
S'buyer'
p769
tp770
(lp771
(I146
I1
I0
g283
tp772
a(I146
I2
F-0.875
S'unhappy'
p773
tp774
a(I146
I6
I0
S'next'
p775
tp776
as(S'features'
p777
tp778
(lp779
(I8
I1
F-0.625
S'bad'
p780
tp781
a(I14
I2
F0.375
S'new'
p782
tp783
a(I17
I2
I0
S'basic'
p784
tp785
a(I17
I2
I0
S'more'
p786
tp787
a(I38
I1
F0.625
S'easy'
p788
tp789
a(I59
I53
F0.25
S'favorite'
p790
tp791
a(I64
I8
F-0.75
S'little'
p792
tp793
a(I83
I1
I0
S'few'
p794
tp795
a(I83
I1
F-0.625
S'surprising'
p796
tp797
a(I89
I2
I0
S'more'
p798
tp799
a(I107
I1
I0
S'many'
p800
tp801
a(I115
I0
F0.125
S'last'
p802
tp803
a(I145
I3
F-0.625
S'other'
p804
tp805
a(I163
I7
I0
S'few'
p806
tp807
a(I163
I7
F0.375
S'extra'
p808
tp809
a(I172
I6
I0
S'more'
p810
tp811
a(I174
I1
I0
S'most'
p812
tp813
a(I195
I2
I0
S'update'
p814
tp815
a(I195
I2
F-0.625
S'other'
p816
tp817
a(I203
I2
I0
S'useful'
p818
tp819
a(I203
I2
F1.0
S'good'
p820
tp821
a(I217
I1
F-0.625
S'other'
p822
tp823
a(I235
I0
I0
S'most'
p824
tp825
a(I235
I0
I0
S'basic'
p826
tp827
a(I235
I3
F0.625
S'major'
p828
tp829
a(I240
I8
F-0.625
S'other'
p830
tp831
a(I249
I1
F-0.375
S'simple'
p832
tp833
a(I249
I1
I0
S'many'
p834
tp835
as(S'messaging'
p836
tp837
(lp838
(I220
I3
I0
S'text'
p839
tp840
as(S'operating'
p841
S'system'
p842
tp843
(lp844
(I6
I4
I0
S'primitive'
p845
tp846
a(I9
I3
I0
S'old'
p847
tp848
as(S'options'
p849
S'activateinternetmenu'
p850
S'settings'
p851
tp852
(lp853
(I17
I6
F0.5
g6
tp854
a(I17
I6
F0.5
g10
tp855
a(I17
I6
F0.625
g625
tp856
a(I42
I22
F0.5
g16
tp857
a(I42
I22
F0.5
g20
tp858
a(I42
I22
F0.625
g634
tp859
a(I49
I25
F0.5
g26
tp860
a(I49
I25
F0.5
g30
tp861
a(I49
I25
F0.625
g643
tp862
a(I96
I27
F0.5
g36
tp863
a(I96
I27
F0.5
g40
tp864
a(I96
I27
F0.625
g652
tp865
a(I131
I11
F0.5
g46
tp866
a(I131
I11
F0.5
g50
tp867
a(I131
I11
F0.625
g663
tp868
as(S'excellent'
p869
S'battery'
p870
S'life'
p871
tp872
(lp873
(I224
I2
F-0.625
S'light'
p874
tp875
a(I224
I2
F0.25
S'portable'
p876
tp877
as(S'network'
p878
tp879
(lp880
(I59
I58
I0
S'social'
p881
tp882
a(I120
I3
I0
S'common'
p883
tp884
a(I120
I3
F0.125
S'able'
p885
tp886
a(I193
I0
F-0.125
S'public'
p887
tp888
as(S'thing'
p889
tp890
(lp891
(I9
I6
I0
S'next'
p892
tp893
a(I42
I24
I0
S'more'
p894
tp895
a(I63
I1
F-0.75
S'stupid'
p896
tp897
a(I68
I6
F0.125
S'tolerable'
p898
tp899
a(I68
I10
I0
S'great'
p900
tp901
a(I119
I18
I0
S'more'
p902
tp903
a(I165
I3
F1.0
S'best'
p904
tp905
a(I179
I12
I0
S'only'
p906
tp907
a(I179
I12
F0.875
S'happy'
p908
tp909
a(I180
I2
I0
S'only'
p910
tp911
a(I225
I2
I0
S'only'
p912
tp913
a(I225
I2
F-0.625
S'bad'
p914
tp915
a(I240
I7
I0
S'only'
p916
tp917
a(I242
I12
I0
S'only'
p918
tp919
a(I242
I12
F1.0
S'good'
p920
tp921
a(I243
I0
F1.0
S'best'
p922
tp923
as(S'data'
p924
tp925
(lp926
(I9
I5
F-0.625
S'want'
p927
tp928
a(I30
I3
F-0.5
S'unlimited'
p929
tp930
a(I30
I3
F0.75
S'due'
p931
tp932
a(I32
I0
F-0.125
S'traffic'
p933
tp934
a(I60
I16
I0
S'cellular'
p935
tp936
a(I99
I15
I0
S'opt'
p937
tp938
a(I158
I8
F-0.75
S'stupid'
p939
tp940
a(I203
I8
F-0.75
S'unlucky'
p941
tp942
a(I211
I3
I0
S'monthly'
p943
tp944
a(I220
I2
I0
S'most'
p945
tp946
as(S'add'
p947
S'new'
p948
S'webaccount'
p949
tp950
(lp951
(I96
I27
F0.375
g277
tp952
as(g445
S'data'
p953
S'plan'
p954
tp955
(lp956
(I9
I5
F-0.625
g927
tp957
a(I99
I15
I0
g937
tp958
a(I158
I8
F-0.75
g939
tp959
a(I211
I3
I0
g943
tp960
as(S'work'
p961
tp962
(lp963
(I165
I11
F1.0
S'best'
p964
tp965
as(S'google'
p966
S'maps'
p967
tp968
(lp969
(I226
I4
F-0.25
S'google'
p970
tp971
a(I226
I4
F-0.25
S'google'
p972
tp973
as(S'job'
p974
S'done'
p975
tp976
(lp977
(I99
I13
I0
g568
tp978
a(I248
I20
I0
g570
tp979
as(S'battery'
p980
S'life'
p981
tp982
(lp983
(I0
I3
F1.0
S'better'
p984
tp985
a(I1
I1
I0
g484
tp986
a(I8
I4
F1.0
S'good'
p987
tp988
a(I52
I0
F1.0
S'good'
p989
tp990
a(I52
I0
F1.0
S'good'
p991
tp992
a(I82
I1
I0
g486
tp993
a(I172
I0
I0
g488
tp994
a(I177
I0
I0
g490
tp995
a(I181
I1
F1.0
S'good'
p996
tp997
a(I181
I1
F-0.875
S'undeniable'
p998
tp999
a(I195
I3
F1.0
S'good'
p1000
tp1001
a(I207
I5
F1.0
S'good'
p1002
tp1003
a(I211
I2
F1.0
S'good'
p1004
tp1005
a(I222
I3
F-0.5
S'longer'
p1006
tp1007
a(I224
I2
F-0.625
g874
tp1008
a(I224
I2
F0.25
g876
tp1009
a(I235
I8
I0
S'more'
p1010
tp1011
a(I235
I8
F-0.25
S'battery'
p1012
tp1013
as(S'came'
p1014
tp1015
(lp1016
(I60
I36
F-0.125
S'mine'
p1017
tp1018
as(S'problems'
p1019
tp1020
(lp1021
(I60
I5
F0.5
S'true'
p1022
tp1023
a(I131
I8
I0
S'on-line'
p1024
tp1025
a(I131
I8
I0
S'awhile'
p1026
tp1027
a(I158
I25
I0
S'same'
p1028
tp1029
a(I185
I1
I0
S'only'
p1030
tp1031
as(S'settings'
p1032
tp1033
(lp1034
(I17
I4
F0.5
g619
tp1035
a(I17
I6
F0.5
g6
tp1036
a(I17
I6
F0.5
g10
tp1037
a(I17
I8
F0.5
g12
tp1038
a(I42
I20
F0.5
g628
tp1039
a(I42
I22
F0.5
g16
tp1040
a(I42
I22
F0.5
g20
tp1041
a(I42
I24
F0.5
g22
tp1042
a(I49
I23
F0.5
g637
tp1043
a(I49
I25
F0.5
g26
tp1044
a(I49
I25
F0.5
g30
tp1045
a(I49
I27
F0.5
g32
tp1046
a(I74
I1
I0
S'site'
p1047
tp1048
a(I96
I25
F0.5
g646
tp1049
a(I96
I27
F0.5
g36
tp1050
a(I96
I27
F0.5
g40
tp1051
a(I96
I29
F0.5
g42
tp1052
a(I128
I4
I0
S'different'
p1053
tp1054
a(I131
I9
F0.5
g657
tp1055
a(I131
I11
F0.5
g46
tp1056
a(I131
I11
F0.5
g50
tp1057
a(I131
I13
F0.5
g52
tp1058
a(I158
I22
F0.25
S'original'
p1059
tp1060
a(I231
I3
I0
S'few'
p1061
tp1062
as(S'back'
p1063
tp1064
(lp1065
(I240
I3
I0
S'metallic'
p1066
tp1067
a(I240
I3
F-0.5
S'heavy'
p1068
tp1069
as(S'commentary'
p1070
S'section'
p1071
tp1072
(lp1073
(I9
I40
I0
S'commentary'
p1074
tp1075
a(I9
I41
I0
S'commentary'
p1076
tp1077
a(I9
I41
I0
S'commentary'
p1078
tp1079
as(S'life'
p1080
tp1081
(lp1082
(I181
I1
F-0.875
g998
tp1083
a(I195
I2
F0.625
S'easy'
p1084
tp1085
a(I195
I2
F-0.375
S'simple'
p1086
tp1087
a(I195
I3
F1.0
g1000
tp1088
a(I207
I5
F1.0
g1002
tp1089
a(I235
I8
I0
g1010
tp1090
a(I235
I8
F-0.25
g1012
tp1091
as(S'multimedia'
p1092
S'msgaccount'
p1093
S'name'
p1094
tp1095
(lp1096
(I96
I25
F0.375
S'new'
p1097
tp1098
as(S'good'
p1099
S'battery'
p1100
S'life'
p1101
tp1102
(lp1103
(I8
I4
F1.0
g987
tp1104
a(I52
I0
F1.0
g989
tp1105
a(I52
I0
F1.0
g991
tp1106
a(I177
I0
I0
g490
tp1107
a(I181
I1
F1.0
g996
tp1108
a(I181
I1
F-0.875
g998
tp1109
a(I195
I3
F1.0
g1000
tp1110
a(I207
I5
F1.0
g1002
tp1111
a(I211
I2
F1.0
g1004
tp1112
as(S'qwerty'
p1113
tp1114
(lp1115
(I2
I4
I0
g187
tp1116
a(I9
I1
I0
g189
tp1117
a(I9
I9
I0
g192
tp1118
a(I9
I9
I0
g194
tp1119
a(I9
I13
I0
S'english'
p1120
tp1121
a(I9
I16
I0
g196
tp1122
a(I9
I19
F0.625
g198
tp1123
a(I56
I3
F0.625
g201
tp1124
a(I70
I0
F0.625
g204
tp1125
a(I99
I17
F0.125
g206
tp1126
a(I119
I11
F0.625
g208
tp1127
a(I219
I0
I0
S'e-mail'
p1128
tp1129
a(I236
I2
F0.875
S'nice'
p1130
tp1131
a(I239
I0
I0
S'e-mail'
p1132
tp1133
a(I248
I9
F0.625
S'easy'
p1134
tp1135
as(S'music'
p1136
tp1137
(lp1138
(I24
I4
I0
S'most'
p1139
tp1140
a(I55
I5
F0.125
S'able'
p1141
tp1142
as(S'add'
p1143
S'new'
p1144
S'multimedia'
p1145
tp1146
(lp1147
(I96
I25
F0.375
g1097
tp1148
as(S'user'
p1149
tp1150
(lp1151
(I22
I4
I0
S'very'
p1152
tp1153
a(I50
I0
F-0.375
S'manual'
p1154
tp1155
a(I50
I0
I0
S'italian'
p1156
tp1157
a(I50
I1
F-0.375
S'manual'
p1158
tp1159
a(I50
I1
F0.25
S'helpful'
p1160
tp1161
as(S'great'
p1162
tp1163
(lp1164
(I186
I3
I0
S'same'
p1165
tp1166
as(S'battery'
p1167
tp1168
(lp1169
(I0
I3
F1.0
g984
tp1170
a(I1
I1
I0
g484
tp1171
a(I6
I1
F-0.25
S'low'
p1172
tp1173
a(I8
I4
F1.0
g987
tp1174
a(I42
I2
I0
S'great'
p1175
tp1176
a(I52
I0
F1.0
g989
tp1177
a(I52
I0
F1.0
g991
tp1178
a(I82
I1
I0
g486
tp1179
a(I90
I1
F0.625
S'sustainable'
p1180
tp1181
a(I118
I3
F0.125
S'last'
p1182
tp1183
a(I119
I3
F-0.5
S'less'
p1184
tp1185
a(I140
I3
F0.25
S'duplicate'
p1186
tp1187
a(I144
I3
I0
S'full'
p1188
tp1189
a(I172
I0
I0
g488
tp1190
a(I177
I0
I0
g490
tp1191
a(I181
I1
F1.0
g996
tp1192
a(I183
I2
F0.625
S'easy'
p1193
tp1194
a(I195
I4
F-0.5
S'less'
p1195
tp1196
a(I208
I2
F1.0
S'good'
p1197
tp1198
a(I211
I2
F1.0
g1004
tp1199
a(I216
I2
F-0.75
S'dead'
p1200
tp1201
a(I216
I3
F-0.5
S'sure'
p1202
tp1203
a(I216
I3
F-0.625
S'bad'
p1204
tp1205
a(I216
I5
F0.375
S'new'
p1206
tp1207
a(I222
I3
F-0.5
g1006
tp1208
a(I224
I2
F-0.625
g874
tp1209
a(I224
I2
F0.25
g876
tp1210
a(I237
I1
F0.125
S'last'
p1211
tp1212
a(I248
I6
I0
S'same'
p1213
tp1214
as(S'smart'
p1215
tp1216
(lp1217
(I9
I4
I0
S'basic'
p1218
tp1219
a(I55
I9
I0
S'many'
p1220
tp1221
a(I59
I54
I0
S'more'
p1222
tp1223
as(S'cell'
p1224
tp1225
(lp1226
(I19
I0
F0.375
S'new'
p1227
tp1228
a(I21
I2
F0.625
S'major'
p1229
tp1230
a(I70
I0
F0.5
S'second'
p1231
tp1232
a(I220
I0
F0.375
S'new'
p1233
tp1234
a(I242
I1
F-0.625
S'other'
p1235
tp1236
as(S'personal'
p1237
S'accounts'
p1238
S'options'
p1239
tp1240
(lp1241
(I17
I6
F0.5
g8
tp1242
a(I17
I6
F0.625
g625
tp1243
a(I17
I8
F0.5
g14
tp1244
a(I42
I22
F0.5
g18
tp1245
a(I42
I22
F0.625
g634
tp1246
a(I42
I24
F0.5
g24
tp1247
a(I49
I25
F0.5
g28
tp1248
a(I49
I25
F0.625
g643
tp1249
a(I49
I27
F0.5
g34
tp1250
a(I96
I27
F0.5
g38
tp1251
a(I96
I27
F0.625
g652
tp1252
a(I96
I29
F0.5
g44
tp1253
a(I96
I29
I0
g655
tp1254
a(I131
I11
F0.5
g48
tp1255
a(I131
I11
F0.625
g663
tp1256
a(I131
I13
F0.5
g54
tp1257
as(S'calls'
p1258
tp1259
(lp1260
(I49
I2
F0.75
S'receive'
p1261
tp1262
a(I120
I3
F-0.5
S'international'
p1263
tp1264
a(I188
I1
F-0.5
S'sudden'
p1265
tp1266
a(I218
I4
F-0.75
S'unreliable'
p1267
tp1268
as(g445
S'qwerty'
p1269
S'keyboard'
p1270
tp1271
(lp1272
(I2
I4
I0
g187
tp1273
a(I9
I1
I0
g189
tp1274
a(I9
I1
I0
g65
tp1275
a(I9
I9
I0
g192
tp1276
a(I9
I9
I0
g194
tp1277
a(I9
I16
I0
g196
tp1278
a(I9
I19
F0.625
g198
tp1279
a(I9
I22
I0
g71
tp1280
a(I56
I3
F0.625
g201
tp1281
a(I59
I17
F0.625
g83
tp1282
a(I70
I0
F0.625
g204
tp1283
a(I99
I17
F0.125
g206
tp1284
a(I119
I11
F0.625
g208
tp1285
a(I222
I5
F-0.875
g103
tp1286
a(I251
I4
F-0.125
g109
tp1287
as(S'time'
p1288
tp1289
(lp1290
(I15
I9
F0.125
S'first'
p1291
tp1292
a(I30
I3
F0.125
S'last'
p1293
tp1294
a(I33
I2
F-0.5
S'long'
p1295
tp1296
a(I59
I19
I0
S'same'
p1297
tp1298
a(I59
I62
F-0.5
S'longer'
p1299
tp1300
a(I69
I0
F0.125
S'first'
p1301
tp1302
a(I85
I4
F0.125
S'first'
p1303
tp1304
a(I94
I7
I0
S'more'
p1305
tp1306
a(I94
I10
F1.0
S'good'
p1307
tp1308
a(I102
I0
F-0.75
S'short'
p1309
tp1310
a(I122
I1
F-0.375
S'happen'
p1311
tp1312
a(I122
I1
F0.125
S'first'
p1313
tp1314
a(I135
I2
F0.5
S'expensive'
p1315
tp1316
a(I135
I2
I0
S'few'
p1317
tp1318
a(I146
I10
I0
S'only'
p1319
tp1320
a(I161
I3
F0.375
S'much'
p1321
tp1322
a(I161
I3
F0.125
S'first'
p1323
tp1324
a(I171
I1
F-0.5
S'long'
p1325
tp1326
a(I203
I13
I0
S'great'
p1327
tp1328
a(I216
I3
F0.125
S'first'
p1329
tp1330
a(I224
I3
F-0.5
S'long'
p1331
tp1332
as(S'looking'
p1333
tp1334
(lp1335
(I1
I0
F-0.25
S'modern'
p1336
tp1337
a(I1
I0
I0
S'full'
p1338
tp1339
a(I82
I0
F-0.25
S'modern'
p1340
tp1341
a(I82
I0
I0
S'full'
p1342
tp1343
a(I205
I0
F1.0
S'good'
p1344
tp1345
a(I220
I1
F-0.25
S'modern'
p1346
tp1347
as(S'to'
p1348
S'personal'
p1349
S'settings'
p1350
tp1351
(lp1352
(I17
I6
F0.5
g6
tp1353
a(I17
I6
F0.5
g10
tp1354
a(I17
I8
F0.5
g12
tp1355
a(I42
I22
F0.5
g16
tp1356
a(I42
I22
F0.5
g20
tp1357
a(I42
I24
F0.5
g22
tp1358
a(I49
I25
F0.5
g26
tp1359
a(I49
I25
F0.5
g30
tp1360
a(I49
I27
F0.5
g32
tp1361
a(I96
I27
F0.5
g36
tp1362
a(I96
I27
F0.5
g40
tp1363
a(I96
I29
F0.5
g42
tp1364
a(I131
I11
F0.5
g46
tp1365
a(I131
I11
F0.5
g50
tp1366
a(I131
I13
F0.5
g52
tp1367
as(S'personal'
p1368
S'settings'
p1369
tp1370
(lp1371
(I17
I4
F0.5
g619
tp1372
a(I17
I6
F0.5
g6
tp1373
a(I17
I6
F0.5
g10
tp1374
a(I17
I8
F0.5
g12
tp1375
a(I42
I20
F0.5
g628
tp1376
a(I42
I22
F0.5
g16
tp1377
a(I42
I22
F0.5
g20
tp1378
a(I42
I24
F0.5
g22
tp1379
a(I49
I23
F0.5
g637
tp1380
a(I49
I25
F0.5
g26
tp1381
a(I49
I25
F0.5
g30
tp1382
a(I49
I27
F0.5
g32
tp1383
a(I96
I25
F0.5
g646
tp1384
a(I96
I27
F0.5
g36
tp1385
a(I96
I27
F0.5
g40
tp1386
a(I96
I29
F0.5
g42
tp1387
a(I131
I9
F0.5
g657
tp1388
a(I131
I11
F0.5
g46
tp1389
a(I131
I11
F0.5
g50
tp1390
a(I131
I13
F0.5
g52
tp1391
as(S'plan'
p1392
tp1393
(lp1394
(I6
I8
F0.5
S'expensive'
p1395
tp1396
a(I60
I29
F-0.625
S'glad'
p1397
tp1398
a(I157
I0
I0
S'prepaid'
p1399
tp1400
a(I161
I1
F0.125
S'able'
p1401
tp1402
a(I207
I8
I0
S'prepaid'
p1403
tp1404
as(S'screen'
p1405
tp1406
(lp1407
(I59
I58
I0
S'great'
p1408
tp1409
a(I63
I5
F0.5
S'touch'
p1410
tp1411
a(I64
I4
F-0.75
S'bright'
p1412
tp1413
a(I64
I6
F-0.375
S'black'
p1414
tp1415
a(I101
I0
F-0.375
S'small'
p1416
tp1417
a(I106
I2
I0
S'plastic'
p1418
tp1419
a(I120
I1
I0
S'adequate'
p1420
tp1421
a(I125
I0
F0.5
S'clear'
p1422
tp1423
a(I125
I6
F0.625
S'easy'
p1424
tp1425
a(I153
I4
I0
S'full'
p1426
tp1427
a(I164
I3
F0.875
S'nice'
p1428
tp1429
a(I164
I3
F0.5
S'clear'
p1430
tp1431
a(I165
I6
F-0.25
S'white'
p1432
tp1433
a(I172
I1
F-0.625
S'clean'
p1434
tp1435
a(I172
I1
F0.625
S'easy'
p1436
tp1437
a(I172
I6
F0.25
S'larger'
p1438
tp1439
a(I186
I2
F0.5
S'touch'
p1440
tp1441
a(I200
I2
F0.5
S'touch'
p1442
tp1443
a(I228
I3
F0.625
S'easy'
p1444
tp1445
a(I248
I6
F0.5
S'touch'
p1446
tp1447
as(S'look'
p1448
tp1449
(lp1450
(I1
I3
F0.5
S'expensive'
p1451
tp1452
a(I52
I0
F0.125
S'further'
p1453
tp1454
a(I82
I3
F0.5
S'expensive'
p1455
tp1456
a(I192
I7
F0.75
S'fit'
p1457
tp1458
as(S'everything'
p1459
tp1460
(lp1461
(I7
I3
F1.0
S'good'
p1462
tp1463
a(I69
I0
I0
S'nervous'
p1464
tp1465
a(I76
I1
F0.625
S'easy'
p1466
tp1467
a(I76
I1
F-0.375
S'simple'
p1468
tp1469
a(I96
I24
I0
S'more'
p1470
tp1471
a(I106
I4
F0.625
S'perfect'
p1472
tp1473
as(S'nokia'
p1474
S'c3'
p1475
tp1476
(lp1477
(I0
I2
F0.125
g322
tp1478
a(I8
I5
F-0.375
g436
tp1479
a(I108
I0
F0.375
g438
tp1480
a(I108
I0
I0
g348
tp1481
a(I108
I0
F0.75
g350
tp1482
a(I108
I0
I0
g352
tp1483
a(I154
I11
F-0.375
g443
tp1484
as(S'camera'
p1485
tp1486
(lp1487
(I10
I1
F-0.125
S'slow'
p1488
tp1489
a(I26
I5
I0
S'adequate'
p1490
tp1491
a(I60
I25
F-0.625
S'bad'
p1492
tp1493
a(I63
I15
F1.0
S'better'
p1494
tp1495
a(I70
I0
F-0.625
S'bad'
p1496
tp1497
a(I132
I0
F-0.625
S'other'
p1498
tp1499
a(I149
I1
F1.0
S'good'
p1500
tp1501
a(I174
I2
F1.0
S'good'
p1502
tp1503
a(I184
I2
I0
S'text'
p1504
tp1505
a(I202
I0
F-0.625
g736
tp1506
a(I202
I0
F1.0
g738
tp1507
a(I251
I5
F0.5
S'willing'
p1508
tp1509
a(I251
I5
I0
S'more'
p1510
tp1511
as(S'configuration'
p1512
S'personal'
p1513
S'settings'
p1514
tp1515
(lp1516
(I17
I4
F0.5
g619
tp1517
a(I17
I6
F0.5
g6
tp1518
a(I17
I6
F0.5
g10
tp1519
a(I42
I20
F0.5
g628
tp1520
a(I42
I22
F0.5
g16
tp1521
a(I42
I22
F0.5
g20
tp1522
a(I49
I23
F0.5
g637
tp1523
a(I49
I25
F0.5
g26
tp1524
a(I49
I25
F0.5
g30
tp1525
a(I96
I25
F0.5
g646
tp1526
a(I96
I27
F0.5
g36
tp1527
a(I96
I27
F0.5
g40
tp1528
a(I131
I9
F0.5
g657
tp1529
a(I131
I11
F0.5
g46
tp1530
a(I131
I11
F0.5
g50
tp1531
as(S'messages'
p1532
tp1533
(lp1534
(I131
I2
I0
S'text'
p1535
tp1536
a(I131
I6
I0
S'text'
p1537
tp1538
a(I136
I4
I0
S'online'
p1539
tp1540
as(S'feature'
p1541
tp1542
(lp1543
(I11
I1
F0.125
S'able'
p1544
tp1545
a(I59
I1
F0.25
S'favorite'
p1546
tp1547
a(I59
I4
I0
S'great'
p1548
tp1549
a(I59
I17
I0
S'great'
p1550
tp1551
a(I166
I5
I0
S'great'
p1552
tp1553
a(I192
I6
I0
S'great'
p1554
tp1555
a(I220
I5
F1.0
S'best'
p1556
tp1557
a(I248
I1
I0
S'full'
p1558
tp1559
as(S'works'
p1560
tp1561
(lp1562
(I19
I11
I0
S'great'
p1563
tp1564
a(I42
I17
I0
S'great'
p1565
tp1566
a(I159
I1
I0
S'great'
p1567
tp1568
a(I164
I2
F1.0
S'good'
p1569
tp1570
a(I201
I0
I0
S'great'
p1571
tp1572
a(I202
I0
I0
S'great'
p1573
tp1574
a(I206
I1
F1.0
S'good'
p1575
tp1576
as(S'type'
p1577
tp1578
(lp1579
(I128
I6
F0.625
S'easy'
p1580
tp1581
a(I161
I6
F-0.75
S'impossible'
p1582
tp1583
a(I250
I1
I0
S'android'
p1584
tp1585
as(S'options'
p1586
tp1587
(lp1588
(I17
I4
F0.625
g621
tp1589
a(I17
I6
F0.625
g625
tp1590
a(I19
I7
F0.875
S'nice'
p1591
tp1592
a(I42
I20
F0.625
g630
tp1593
a(I42
I22
F0.625
g634
tp1594
a(I49
I23
F0.625
g639
tp1595
a(I49
I25
F0.625
g643
tp1596
a(I96
I25
F0.625
g648
tp1597
a(I96
I27
F0.625
g652
tp1598
a(I96
I29
I0
g655
tp1599
a(I131
I9
F0.625
g659
tp1600
a(I131
I11
F0.625
g663
tp1601
a(I176
I0
I0
S'many'
p1602
tp1603
a(I176
I0
F-0.25
S'inexpensive'
p1604
tp1605
a(I192
I1
F-0.5
S'less'
p1606
tp1607
a(I243
I2
I0
S'few'
p1608
tp1609
as(S'apps'
p1610
tp1611
(lp1612
(I2
I6
F0.375
S'available'
p1613
tp1614
a(I6
I7
I0
S'useful'
p1615
tp1616
a(I59
I14
I0
S'few'
p1617
tp1618
a(I70
I0
I0
S'great'
p1619
tp1620
a(I115
I2
F0.375
S'enable'
p1621
tp1622
a(I115
I8
I0
S'few'
p1623
tp1624
a(I115
I8
F-0.625
S'free'
p1625
tp1626
a(I186
I3
F0.375
S'newer'
p1627
tp1628
a(I222
I7
F-0.625
S'free'
p1629
tp1630
a(I248
I12
F-0.625
S'free'
p1631
tp1632
as(S'personal'
p1633
S'accounts'
p1634
tp1635
(lp1636
(I17
I6
F0.5
g8
tp1637
a(I17
I8
F0.5
g14
tp1638
a(I42
I22
F0.5
g18
tp1639
a(I42
I24
F0.5
g24
tp1640
a(I49
I25
F0.5
g28
tp1641
a(I49
I27
F0.5
g34
tp1642
a(I96
I27
F0.5
g38
tp1643
a(I96
I29
F0.5
g44
tp1644
a(I131
I11
F0.5
g48
tp1645
a(I131
I13
F0.5
g54
tp1646
as(S'activateinternetmenu'
p1647
S'settings'
p1648
S'configuration'
p1649
tp1650
(lp1651
(I17
I6
F0.5
g6
tp1652
a(I17
I6
F0.5
g10
tp1653
a(I42
I22
F0.5
g16
tp1654
a(I42
I22
F0.5
g20
tp1655
a(I49
I25
F0.5
g26
tp1656
a(I49
I25
F0.5
g30
tp1657
a(I96
I27
F0.5
g36
tp1658
a(I96
I27
F0.5
g40
tp1659
a(I131
I11
F0.5
g46
tp1660
a(I131
I11
F0.5
g50
tp1661
as(S'better'
p1662
tp1663
(lp1664
(I141
I1
F0.375
S'much'
p1665
tp1666
a(I141
I1
I0
S'many'
p1667
tp1668
as(S'call'
p1669
tp1670
(lp1671
(I27
I1
I0
g144
tp1672
a(I240
I3
I0
g154
tp1673
as(S'text'
p1674
S'messaging'
p1675
tp1676
(lp1677
(I21
I1
I0
g606
tp1678
a(I59
I53
I0
g608
tp1679
a(I220
I3
I0
g839
tp1680
as(S'data'
p1681
S'plan'
p1682
tp1683
(lp1684
(I9
I5
F-0.625
g927
tp1685
a(I99
I15
I0
g937
tp1686
a(I158
I8
F-0.75
g939
tp1687
a(I211
I3
I0
g943
tp1688
as(S'access'
p1689
tp1690
(lp1691
(I22
I3
I0
S'social'
p1692
tp1693
a(I34
I3
F0.125
S'able'
p1694
tp1695
a(I59
I17
F0.625
S'easy'
p1696
tp1697
a(I99
I11
F0.375
S'enable'
p1698
tp1699
a(I110
I0
F0.625
S'easy'
p1700
tp1701
a(I112
I8
F-0.625
S'free'
p1702
tp1703
a(I153
I8
F0.125
S'able'
p1704
tp1705
a(I158
I10
I0
S'most'
p1706
tp1707
as(S'texting'
p1708
tp1709
(lp1710
(I13
I6
F0.5
S'clear'
p1711
tp1712
a(I13
I6
F0.625
S'easy'
p1713
tp1714
a(I42
I4
F-0.5
S'heavy'
p1715
tp1716
a(I109
I0
F0.625
S'perfect'
p1717
tp1718
a(I125
I2
F-0.75
S'comfortable'
p1719
tp1720
a(I163
I4
I0
S'more'
p1721
tp1722
a(I163
I4
F-0.875
S'trouble'
p1723
tp1724
as(S'days'
p1725
tp1726
(lp1727
(I47
I0
F-0.125
S'mine'
p1728
tp1729
a(I63
I3
I0
S'later'
p1730
tp1731
a(I68
I1
I0
S'few'
p1732
tp1733
a(I119
I9
I0
S'own'
p1734
tp1735
a(I120
I4
F-0.75
S'wrong'
p1736
tp1737
a(I128
I2
I0
S'great'
p1738
tp1739
a(I165
I2
I0
S'few'
p1740
tp1741
a(I188
I5
I0
S'few'
p1742
tp1743
as.