(dp0
(S'problem'
p1
tp2
(lp3
(I8
I2
I0
S'same'
p4
tp5
a(I75
I2
F0.125
S'first'
p6
tp7
a(I167
I4
F0.375
S'new'
p8
tp9
a(I167
I4
F0.25
S'original'
p10
tp11
as(S'memory'
p12
S'card'
p13
tp14
(lp15
(I107
I0
I0
S'external'
p16
tp17
as(S'battery'
p18
S'life'
p19
tp20
(lp21
(I187
I1
F-0.625
S'bad'
p22
tp23
as(S'purchase'
p24
tp25
(lp26
(I5
I0
F0.875
S'happy'
p27
tp28
a(I46
I0
I0
S'great'
p29
tp30
a(I100
I2
F0.875
S'happy'
p31
tp32
a(I151
I2
F0.5
S'grateful'
p33
tp34
as(S'keyboard'
p35
tp36
(lp37
(I13
I3
I0
S'real'
p38
tp39
a(I13
I3
I0
S'physical'
p40
tp41
a(I48
I23
I0
S'physical'
p42
tp43
a(I112
I14
F0.875
S'happy'
p44
tp45
a(I168
I1
F0.875
S'nice'
p46
tp47
a(I168
I1
F-0.5
S'actual'
p48
tp49
as(S'brand'
p50
tp51
(lp52
(I12
I5
I0
S'different'
p53
tp54
a(I22
I1
F0.375
S'new'
p55
tp56
a(I46
I0
F0.375
S'new'
p57
tp58
a(I49
I0
F0.375
S'new'
p59
tp60
a(I79
I0
F0.375
S'new'
p61
tp62
a(I101
I1
F0.375
S'new'
p63
tp64
a(I160
I0
F0.375
S'new'
p65
tp66
a(I160
I4
F0.375
S'new'
p67
tp68
a(I182
I0
F1.0
S'best'
p69
tp70
as(S'torch'
p71
tp72
(lp73
(I48
I21
I0
S'many'
p74
tp75
a(I68
I4
I0
S'great'
p76
tp77
a(I112
I0
F-0.5
S'long'
p78
tp79
a(I153
I0
F0.5
S'bold'
p80
tp81
a(I163
I0
F0.375
S'new'
p82
tp83
a(I165
I0
I0
S'faithful'
p84
tp85
a(I165
I0
F0.5
S'second'
p86
tp87
a(I165
I0
F0.125
S'solid'
p88
tp89
a(I171
I0
F0.375
S'new'
p90
tp91
as(S'service'
p92
tp93
(lp94
(I48
I15
F0.375
S'new'
p95
tp96
a(I61
I1
F1.0
S'good'
p97
tp98
a(I109
I0
I0
S'current'
p99
tp100
a(I156
I11
F-0.625
S'free'
p101
tp102
a(I156
I11
F0.75
S'worth'
p103
tp104
as(S'muy'
p105
S'bien'
p106
tp107
(lp108
(I185
I0
I0
S'y'
p109
tp110
as(S'touch'
p111
tp112
(lp113
(I48
I30
F0.125
S'first'
p114
tp115
a(I68
I7
F0.5
S'functional'
p116
tp117
a(I175
I1
I0
S'sensitive'
p118
tp119
as(S'camera'
p120
tp121
(lp122
(I29
I0
F1.0
S'good'
p123
tp124
a(I100
I1
F1.0
S'good'
p125
tp126
as(S'qwerty'
p127
S'keyboard'
p128
tp129
(lp130
(I140
I0
I0
S'full'
p131
tp132
a(I152
I0
I0
S'full'
p133
tp134
a(I164
I0
I0
S'full'
p135
tp136
a(I178
I0
I0
S'full'
p137
tp138
as(S'a'
p139
S'blackberry'
p140
S'torch'
p141
tp142
(lp143
(I11
I1
I0
S'third'
p144
tp145
a(I41
I0
I0
S'same'
p146
tp147
a(I41
I0
F0.125
S'first'
p148
tp149
a(I48
I21
F-0.5
S'sure'
p150
tp151
a(I48
I21
I0
g74
tp152
a(I54
I0
F-0.125
S'mine'
p153
tp154
a(I76
I0
I0
S'old'
p155
tp156
a(I112
I0
F-0.5
g78
tp157
a(I112
I9
F0.375
S'new'
p158
tp159
a(I112
I9
F-0.5
S'long'
p160
tp161
a(I112
I10
F0.375
S'new'
p162
tp163
a(I165
I0
I0
g84
tp164
a(I165
I0
F0.5
g86
tp165
a(I165
I0
F0.125
g88
tp166
a(I171
I0
F0.375
g90
tp167
as(S'4'
p168
S'gb'
p169
tp170
(lp171
(I140
I0
I0
S'internal'
p172
tp173
a(I164
I0
I0
S'internal'
p174
tp175
a(I178
I0
I0
S'internal'
p176
tp177
as(S'fine'
p178
tp179
(lp180
(I76
I0
I0
S'more'
p181
tp182
a(I158
I0
F0.375
S'new'
p183
tp184
as(S'product'
p185
tp186
(lp187
(I21
I0
F1.0
S'good'
p188
tp189
a(I49
I0
F-0.75
S'wrong'
p190
tp191
a(I66
I0
F0.375
S'new'
p192
tp193
a(I69
I0
F1.0
S'good'
p194
tp195
a(I129
I0
I0
S'online'
p196
tp197
a(I156
I15
F-0.125
S'overall'
p198
tp199
a(I156
I15
F0.875
S'nice'
p200
tp201
a(I174
I0
F1.0
S'good'
p202
tp203
a(I190
I2
I0
S'great'
p204
tp205
a(I193
I0
F0.875
S'happy'
p206
tp207
as(S'full'
p208
S'qwerty'
p209
tp210
(lp211
(I140
I0
I0
g131
tp212
a(I152
I0
I0
g133
tp213
a(I164
I0
I0
g135
tp214
a(I178
I0
I0
g137
tp215
as(S'blackberry'
p216
S'torch'
p217
tp218
(lp219
(I11
I1
I0
g144
tp220
a(I41
I0
I0
g146
tp221
a(I41
I0
F0.125
g148
tp222
a(I48
I21
F-0.5
g150
tp223
a(I48
I21
I0
g74
tp224
a(I54
I0
F-0.125
g153
tp225
a(I76
I0
I0
g155
tp226
a(I112
I0
F-0.5
g78
tp227
a(I112
I9
F0.375
g158
tp228
a(I112
I9
F-0.5
g160
tp229
a(I112
I10
F0.375
g162
tp230
a(I165
I0
I0
g84
tp231
a(I165
I0
F0.5
g86
tp232
a(I165
I0
F0.125
g88
tp233
a(I171
I0
F0.375
g90
tp234
as(S'price'
p235
tp236
(lp237
(I12
I5
I0
S'full'
p238
tp239
a(I36
I1
I0
S'great'
p240
tp241
a(I120
I0
F1.0
S'good'
p242
tp243
a(I157
I0
I0
S'fast'
p244
tp245
a(I174
I0
F0.875
S'lucky'
p246
tp247
as(S'full'
p248
S'qwerty'
p249
S'keyboard'
p250
tp251
(lp252
(I140
I0
I0
g131
tp253
a(I152
I0
I0
g133
tp254
a(I164
I0
I0
g135
tp255
a(I178
I0
I0
g137
tp256
as(S'seller'
p257
tp258
(lp259
(I84
I2
I0
S'great'
p260
tp261
a(I132
I1
F0.375
S'new'
p262
tp263
as(S'works'
p264
tp265
(lp266
(I22
I1
I0
S'great'
p267
tp268
as(S'battery'
p269
tp270
(lp271
(I17
I2
F0.375
S'extra'
p272
tp273
a(I83
I0
F0.625
S'beat'
p274
tp275
a(I112
I22
F0.5
S'second'
p276
tp277
a(I193
I3
F0.375
S'new'
p278
tp279
as(S'good'
p280
S'condition'
p281
tp282
(lp283
(I61
I0
F1.0
S'good'
p284
tp285
a(I88
I2
F1.0
S'good'
p286
tp287
a(I103
I0
F1.0
S'good'
p288
tp289
a(I120
I0
F1.0
S'good'
p290
tp291
a(I142
I0
F1.0
S'good'
p292
tp293
as(S'people'
p294
tp295
(lp296
(I13
I0
I0
S'many'
p297
tp298
as(S'sim'
p299
S'card'
p300
tp301
(lp302
(I68
I2
I0
S'local'
p303
tp304
as(S'blackberry'
p305
tp306
(lp307
(I11
I1
I0
g144
tp308
a(I38
I0
F1.0
S'best'
p309
tp310
a(I41
I0
I0
g146
tp311
a(I41
I0
F0.125
g148
tp312
a(I48
I21
F-0.5
g150
tp313
a(I54
I0
F-0.125
g153
tp314
a(I60
I0
F0.25
S'original'
p315
tp316
a(I76
I0
I0
g155
tp317
a(I112
I9
F0.375
g158
tp318
a(I112
I9
F-0.5
g160
tp319
a(I112
I10
F0.375
g162
tp320
a(I143
I0
I0
S'fourth'
p321
tp322
a(I160
I3
F-0.25
S'past'
p323
tp324
a(I167
I0
I0
S'same'
p325
tp326
as(S'screen'
p327
tp328
(lp329
(I20
I0
F0.125
S'first'
p330
tp331
a(I39
I1
F0.5
S'touch'
p332
tp333
a(I50
I0
F0.5
S'touch'
p334
tp335
a(I82
I1
I0
S'big'
p336
tp337
a(I82
I3
F0.5
S'touch'
p338
tp339
a(I112
I25
F0.5
S'touch'
p340
tp341
a(I128
I0
F0.5
S'touch'
p342
tp343
a(I156
I4
F0.5
S'touch'
p344
tp345
a(I176
I1
F0.5
S'touch'
p346
tp347
as(S'time'
p348
tp349
(lp350
(I9
I0
I0
S'retail'
p351
tp352
a(I35
I0
F0.5
S'second'
p353
tp354
a(I35
I1
F0.125
S'first'
p355
tp356
a(I37
I1
F0.125
S'first'
p357
tp358
a(I72
I4
F0.5
S'second'
p359
tp360
a(I142
I0
F1.0
S'good'
p361
tp362
a(I173
I0
F-0.5
S'long'
p363
tp364
as(S'camera'
p365
S'full'
p366
S'qwerty'
p367
tp368
(lp369
(I140
I0
I0
g131
tp370
a(I152
I0
I0
g133
tp371
a(I164
I0
I0
g135
tp372
a(I178
I0
I0
g137
tp373
as(S'condition'
p374
tp375
(lp376
(I61
I0
F1.0
g284
tp377
a(I88
I2
F1.0
g286
tp378
a(I103
I0
F1.0
g288
tp379
a(I120
I0
F1.0
g290
tp380
a(I142
I0
F1.0
g292
tp381
as(S'charger'
p382
tp383
(lp384
(I115
I2
F-0.75
S'wrong'
p385
tp386
a(I120
I1
F0.25
S'original'
p387
tp388
a(I131
I0
F0.5
S'functional'
p389
tp390
a(I145
I1
F0.25
S'original'
p391
tp392
as(S'life'
p393
tp394
(lp395
(I187
I1
F-0.625
g22
tp396
as(S'mp'
p397
S'camera'
p398
tp399
(lp400
(I29
I0
F1.0
g123
tp401
as(S'touch'
p402
S'screen'
p403
tp404
(lp405
(I39
I1
F0.5
g332
tp406
a(I50
I0
F0.5
g334
tp407
a(I68
I7
F0.5
g116
tp408
a(I82
I3
F0.5
g338
tp409
a(I112
I25
F0.5
g340
tp410
a(I128
I0
F0.5
g342
tp411
a(I156
I4
F0.5
g344
tp412
a(I175
I1
I0
g118
tp413
a(I176
I1
F0.5
g346
tp414
as(S'n'
p415
S'good'
p416
S'condition'
p417
tp418
(lp419
(I61
I0
F1.0
g284
tp420
a(I88
I2
F1.0
g286
tp421
a(I103
I0
F1.0
g288
tp422
a(I120
I0
F1.0
g290
tp423
a(I142
I0
F1.0
g292
tp424
as.