(dp0
(S'calling'
p1
tp2
(lp3
(I3
I77
I0
S'more'
p4
I0
tp5
a(I3
I77
F0.625
S'convenient'
p6
I0
tp7
a(I8
I8
I0
S'basic'
p8
I0
tp9
as(S'every'
p10
S'time'
p11
tp12
(lp13
(I3
I17
F-0.5
S'open'
p14
I14
tp15
as(S'broke'
p16
tp17
(lp18
(I8
I0
I0
S'old'
p19
I10
tp20
as(S'text'
p21
tp22
(lp23
(I0
I13
F-0.5
S'heavy'
p24
I18
tp25
a(I9
I27
F0.125
S'able'
p26
I18
tp27
a(I9
I27
F-0.5
S'sure'
p28
I18
tp29
as(S'samsung'
p30
tp31
(lp32
(I1
I8
F-0.25
S'disappointing'
p33
I7
tp34
as(S'camera'
p35
tp36
(lp37
(I15
I3
F0.125
S'digital'
p38
I1
tp39
as(S'battery'
p40
S'life'
p41
tp42
(lp43
(I8
I76
F1.0
S'good'
p44
I1
tp45
a(I8
I83
F-0.5
S'long'
p46
I1
tp47
a(I14
I12
F0.375
S'indestructible'
p48
I1
tp49
a(I14
I12
I0
S'great'
p50
I1
tp51
a(I15
I0
F0.125
S'impressive'
p52
I1
tp53
a(I3
I14
I0
S'extensive'
p54
I15
tp55
a(I8
I83
F-0.5
g46
I15
tp56
a(I8
I96
F0.125
S'essential'
p57
I15
tp58
a(I8
I104
F0.375
S'new'
p59
I15
tp60
a(I14
I12
F0.375
g48
I15
tp61
a(I14
I12
I0
g50
I15
tp62
a(I15
I0
F0.125
g52
I15
tp63
as(S'airtime'
p64
S'credit'
p65
tp66
(lp67
(I14
I29
F-0.625
S'free'
p68
I0
tp69
a(I8
I66
F-0.625
S'free'
p70
I0
tp71
a(I14
I29
F-0.625
g68
I0
tp72
as(S'internet'
p73
tp74
(lp75
(I1
I23
F0.375
S'interesting'
p76
I6
tp77
a(I1
I31
F0.5
S'expensive'
p78
I6
tp79
a(I9
I27
F0.125
S'able'
p80
I6
tp81
as(S'prepaid'
p82
tp83
(lp84
(I8
I78
F-0.375
S'simple'
p85
I0
tp86
as(S'calls'
p87
S'and'
p88
S'texts'
p89
tp90
(lp91
(I1
I20
F0.375
S'much'
p92
I0
tp93
a(I1
I20
F0.375
g92
I0
tp94
a(I3
I36
F0.125
S'able'
p95
I0
tp96
a(I11
I6
I0
S'few'
p97
I0
tp98
a(I11
I11
F0.375
S'much'
p99
I0
tp100
as(S'sound'
p101
tp102
(lp103
(I6
I15
F-0.25
S'low'
p104
I7
tp105
a(I8
I67
F1.0
S'good'
p106
I7
tp107
a(I11
I6
F1.0
S'good'
p108
I7
tp109
as(S'account'
p110
tp111
(lp112
(I3
I45
I0
S'empty'
p113
I3
tp114
a(I6
I58
I0
S'more'
p115
I3
tp116
as(S'sim'
p117
S'card'
p118
tp119
(lp120
(I3
I25
F0.375
S'new'
p121
I0
tp122
a(I3
I25
F-0.625
S'free'
p123
I0
tp124
a(I6
I67
I0
S'current'
p125
I0
tp126
a(I9
I7
F0.375
S'new'
p127
I0
tp128
a(I9
I9
F0.375
S'new'
p129
I0
tp130
as(S'customer'
p131
S'service'
p132
tp133
(lp134
(I0
I29
F1.0
S'good'
p135
I3
tp136
a(I3
I61
F0.5
S'careful'
p137
I16
tp138
a(I6
I66
F-0.5
S'regular'
p139
I16
tp140
a(I8
I16
F0.875
S'happy'
p141
I16
tp142
as(S'texting'
p143
tp144
(lp145
(I1
I43
F1.0
S'good'
p146
I0
tp147
as(S'amazon'
p148
tp149
(lp150
(I0
I26
F-0.125
S'future'
p151
I13
tp152
as(S'temporary'
p153
S'replacement'
p154
tp155
(lp156
(I0
I30
F0.5
S'temporary'
p157
I0
tp158
a(I0
I30
F0.375
S'much'
p159
I0
tp160
a(I2
I26
F0.5
S'temporary'
p161
I0
tp162
a(I3
I24
F0.5
S'temporary'
p163
I0
tp164
as.