(dp0
(S'bluetooth'
p1
tp2
(lp3
(I9
I24
I0
S'many'
p4
I3
tp5
a(I14
I30
F-0.75
S'little'
p6
I3
tp7
as(S'battery'
p8
S'life'
p9
tp10
(lp11
(I4
I4
F0.5
S'flat'
p12
I1
tp13
a(I5
I10
I0
S'most'
p14
I1
tp15
a(I14
I61
F1.0
S'good'
p16
I1
tp17
a(I4
I4
F0.5
g12
I19
tp18
a(I0
I13
F0.125
S'first'
p19
I15
tp20
a(I2
I8
F0.375
S'extra'
p21
I15
tp22
a(I4
I26
F-0.875
S'inferior'
p23
I15
tp24
a(I4
I26
I0
S'plastic'
p25
I15
tp26
a(I5
I10
I0
g14
I15
tp27
a(I7
I23
F-0.375
S'small'
p28
I15
tp29
a(I10
I3
F-0.5
S'weak'
p30
I15
tp31
a(I10
I6
F0.875
S'nice'
p32
I15
tp33
a(I13
I13
I0
S'internal'
p34
I15
tp35
a(I13
I13
I0
S'external'
p36
I15
tp37
a(I13
I26
F-0.75
S'dead'
p38
I15
tp39
a(I14
I20
F-0.5
S'long'
p40
I15
tp41
a(I14
I34
F-0.25
S'low'
p42
I15
tp43
a(I14
I37
F-0.875
S'awful'
p44
I15
tp45
a(I14
I61
F1.0
g16
I15
tp46
a(I14
I66
F0.375
S'new'
p47
I15
tp48
as(S'blue'
p49
S'tooth'
p50
tp51
(lp52
(I6
I11
I0
S'blue'
p53
I0
tp54
a(I7
I5
I0
S'blue'
p55
I0
tp56
a(I7
I6
I0
S'blue'
p57
I0
tp58
a(I10
I0
I0
S'blue'
p59
I0
tp60
as(S'sim'
p61
S'card'
p62
tp63
(lp64
(I9
I16
I0
S'activated'
p65
I0
tp66
as(S'mp3'
p67
S'player'
p68
tp69
(lp70
(I14
I44
I0
S'basic'
p71
I1
tp72
as.