(dp0
(S'battery'
p1
S'life'
p2
tp3
(lp4
(I19
I3
F-0.25
S'battery'
p5
I1
tp6
a(I19
I3
F-0.5
S'long'
p7
I1
tp8
a(I41
I75
F-0.75
S'short'
p9
I1
tp10
a(I62
I11
F-0.625
S'average'
p11
I1
tp12
a(I72
I2
F-0.5
S'poor'
p13
I1
tp14
a(I72
I2
F-0.625
S'moderate'
p15
I1
tp16
a(I105
I5
I0
S'great'
p17
I1
tp18
a(I120
I4
F0.625
S'easy'
p19
I1
tp20
a(I120
I4
I0
S'great'
p21
I1
tp22
a(I121
I6
F-0.75
S'short'
p23
I1
tp24
a(I9
I1
F-0.125
S'slow'
p25
I15
tp26
a(I25
I86
F0.375
S'new'
p27
I15
tp28
a(I32
I0
F-0.75
S'dead'
p29
I15
tp30
a(I37
I5
F0.125
S'last'
p31
I15
tp32
a(I41
I77
F0.5
S'gamble'
p33
I15
tp34
a(I50
I17
F-0.875
S'worst'
p35
I15
tp36
a(I59
I0
F-0.5
S'dull'
p37
I15
tp38
a(I69
I15
F0.375
S'new'
p39
I15
tp40
a(I72
I2
F-0.5
g13
I15
tp41
a(I77
I12
F-0.5
S'weak'
p42
I15
tp43
a(I79
I30
F-0.125
S'dented'
p44
I15
tp45
a(I82
I3
F0.375
S'new'
p46
I15
tp47
a(I98
I33
F-0.75
S'dead'
p48
I15
tp49
a(I110
I2
I0
S'external'
p50
I15
tp51
a(I120
I4
F0.625
g19
I15
tp52
as(S'motorola'
p53
tp54
(lp55
(I68
I22
I0
S'cool'
p56
I0
tp57
as(S'get'
p58
S'a'
p59
S'replacement'
p60
tp61
(lp62
(I15
I33
F0.125
S'able'
p63
I1
tp64
a(I15
I33
I0
S'deductible'
p65
I1
tp66
a(I1
I38
F1.0
S'good'
p67
I13
tp68
a(I15
I33
F0.125
g63
I13
tp69
a(I15
I33
I0
g65
I13
tp70
a(I38
I14
F0.5
S'temporary'
p71
I13
tp72
as(S'waste'
p73
S'of'
p74
S'time'
p75
tp76
(lp77
(I41
I68
I0
S'big'
p78
I2
tp79
a(I41
I68
F-0.75
S'sad'
p80
I2
tp81
as(S'camera'
p82
tp83
(lp84
(I41
I73
F-0.125
S'slow'
p85
I1
tp86
a(I51
I1
I0
S'great'
p87
I1
tp88
a(I56
I31
F1.0
S'better'
p89
I1
tp90
a(I84
I24
F1.0
S'good'
p91
I1
tp92
a(I119
I5
F1.0
S'good'
p93
I1
tp94
a(I123
I0
F0.375
S'extra'
p95
I1
tp96
a(I127
I4
F0.125
S'digital'
p97
I1
tp98
as(S'iphone'
p99
tp100
(lp101
(I13
I10
F-0.125
S'present'
p102
I1
tp103
a(I13
I21
I0
S'same'
p104
I1
tp105
a(I25
I65
F0.375
S'new'
p106
I1
tp107
a(I26
I0
F0.25
S'original'
p108
I1
tp109
a(I26
I3
F0.25
S'original'
p110
I1
tp111
a(I26
I3
I0
S'latest'
p112
I1
tp113
a(I68
I9
F0.375
S'much'
p114
I1
tp115
a(I68
I9
I0
S'latest'
p116
I1
tp117
as(S'droid'
p118
tp119
(lp120
(I1
I0
F0.375
S'new'
p121
I0
tp122
a(I4
I0
F-0.75
S'bright'
p123
I0
tp124
a(I4
I0
F-0.625
S'other'
p125
I0
tp126
a(I6
I9
I0
S'incredible'
p127
I0
tp128
a(I7
I40
I0
S'old'
p129
I0
tp130
a(I9
I2
I0
S'old'
p131
I0
tp132
a(I9
I4
F-0.125
S'slow'
p133
I0
tp134
a(I13
I9
F0.25
S'powerful'
p135
I0
tp136
a(I13
I32
F-0.375
S'double'
p137
I0
tp138
a(I13
I90
I0
S'many'
p139
I0
tp140
a(I13
I90
F-0.75
S'minor'
p141
I0
tp142
a(I13
I108
F0.25
S'original'
p143
I0
tp144
a(I20
I15
F0.25
S'original'
p145
I0
tp146
a(I25
I5
F1.0
S'good'
p147
I0
tp148
a(I25
I5
F0.75
S'receiving'
p149
I0
tp150
a(I25
I5
F0.375
S'new'
p151
I0
tp152
a(I25
I15
F0.125
S'first'
p153
I0
tp154
a(I26
I1
F0.125
S'first'
p155
I0
tp156
a(I26
I4
I0
S'fast'
p157
I0
tp158
a(I28
I11
F0.375
S'new'
p159
I0
tp160
a(I30
I15
F0.125
S'first'
p161
I0
tp162
a(I41
I9
F0.125
S'first'
p163
I0
tp164
a(I41
I10
F1.0
S'best'
p165
I0
tp166
a(I41
I19
F0.125
S'first'
p167
I0
tp168
a(I45
I14
F0.25
S'original'
p169
I0
tp170
a(I45
I55
I0
S'large'
p171
I0
tp172
a(I46
I34
F0.375
S'new'
p173
I0
tp174
a(I55
I17
F0.125
S'first'
p175
I0
tp176
a(I55
I18
F0.5
S'recommend'
p177
I0
tp178
a(I55
I18
F-0.5
S'sure'
p179
I0
tp180
a(I64
I0
F1.0
S'good'
p181
I0
tp182
a(I64
I6
F0.25
S'original'
p183
I0
tp184
a(I68
I22
I0
S'cool'
p185
I0
tp186
a(I82
I7
F0.25
S'original'
p187
I0
tp188
a(I99
I4
F0.25
S'original'
p189
I0
tp190
as(S'button'
p191
tp192
(lp193
(I25
I64
F0.875
S'music'
p194
I19
tp195
a(I26
I7
F0.625
S'easy'
p196
I19
tp197
a(I79
I26
F0.875
S'music'
p198
I19
tp199
a(I79
I26
F0.875
S'music'
p200
I19
tp201
a(I91
I27
F-0.25
S'loose'
p202
I19
tp203
as(S'verizon'
p204
tp205
(lp206
(I15
I51
I0
S'different'
p207
I0
tp208
a(I24
I1
F1.0
S'good'
p209
I0
tp210
a(I24
I1
F0.625
S'easy'
p211
I0
tp212
a(I42
I6
F-0.75
S'wrong'
p213
I0
tp214
a(I70
I21
F0.25
S'professional'
p215
I0
tp216
a(I77
I2
I0
S'local'
p217
I0
tp218
a(I81
I9
F-0.875
S'trouble'
p219
I0
tp220
a(I82
I2
I0
S'local'
p221
I0
tp222
a(I82
I23
I0
S'local'
p223
I0
tp224
a(I85
I1
F-0.25
S'low'
p225
I0
tp226
a(I98
I21
F0.5
S'told'
p227
I0
tp228
a(I105
I11
I0
S'most'
p229
I0
tp230
a(I108
I3
F-0.75
S'unable'
p231
I0
tp232
a(I110
I25
F0.5
S'true'
p233
I0
tp234
as(g59
S'great'
p235
S'price'
p236
tp237
(lp238
(I1
I10
I0
S'great'
p239
I9
tp240
a(I25
I55
I0
S'great'
p241
I9
tp242
a(I25
I55
F1.0
S'good'
p243
I9
tp244
a(I28
I8
I0
S'great'
p245
I9
tp246
a(I28
I8
F0.375
S'new'
p247
I9
tp248
a(I30
I7
F0.5
S'reasonable'
p249
I9
tp250
a(I42
I7
I0
S'great'
p251
I9
tp252
a(I46
I53
I0
S'great'
p253
I9
tp254
a(I50
I0
I0
S'great'
p255
I9
tp256
a(I79
I5
I0
S'great'
p257
I9
tp258
a(I85
I0
F-0.5
S'long'
p259
I9
tp260
a(I85
I33
I0
S'great'
p261
I9
tp262
as(S'contract'
p263
tp264
(lp265
(I64
I6
F1.0
S'best'
p266
I0
tp267
as(S'buy'
p268
S'from'
p269
S'seller'
p270
tp271
(lp272
(I11
I11
I0
S'real'
p273
I0
tp274
a(I11
I11
I0
S'great'
p275
I0
tp276
a(I11
I11
I0
g273
I19
tp277
a(I11
I11
I0
g275
I19
tp278
a(I76
I15
F1.0
S'better'
p279
I19
tp280
a(I77
I11
I0
S'underneath'
p281
I19
tp282
a(I77
I11
F-0.25
S'white'
p283
I19
tp284
a(I84
I4
F1.0
S'better'
p285
I19
tp286
as(g59
S'long'
p287
S'time'
p288
tp289
(lp290
(I10
I21
F-0.5
S'long'
p291
I12
tp292
a(I10
I21
I0
S'wish'
p293
I12
tp294
a(I21
I2
F-0.5
S'long'
p295
I12
tp296
a(I44
I16
I0
S'later'
p297
I12
tp298
a(I44
I16
F-0.5
S'long'
p299
I12
tp300
a(I46
I7
F-0.5
S'long'
p301
I12
tp302
a(I48
I8
F-0.5
S'long'
p303
I12
tp304
a(I93
I9
F-0.5
S'long'
p305
I12
tp306
a(I98
I7
F-0.5
S'long'
p307
I12
tp308
as(S'android'
p309
tp310
(lp311
(I50
I16
F0.125
S'first'
p312
I0
tp313
a(I50
I20
I0
S'more'
p314
I0
tp315
a(I50
I20
F0.25
S'recent'
p316
I0
tp317
a(I55
I14
F-0.625
S'bad'
p318
I0
tp319
a(I77
I4
F-0.25
S'google'
p320
I0
tp321
a(I91
I30
F-0.75
S'secondary'
p322
I0
tp323
as(S'slide'
p324
S'out'
p325
S'keyboard'
p326
tp327
(lp328
(I1
I6
I0
S'full'
p329
I0
tp330
a(I40
I4
I0
S'wish'
p331
I0
tp332
a(I62
I8
F0.25
S'helpful'
p333
I0
tp334
a(I107
I5
F0.875
S'nice'
p335
I0
tp336
a(I1
I6
I0
g329
I6
tp337
a(I40
I4
I0
g331
I6
tp338
a(I107
I5
F0.875
g335
I6
tp339
a(I10
I9
F-0.875
S'hard'
p340
I2
tp341
a(I10
I9
F0.5
S'flat'
p342
I2
tp343
a(I36
I12
F0.625
S'easy'
p344
I2
tp345
a(I55
I12
I0
S'physical'
p346
I2
tp347
a(I55
I12
F-0.875
S'hard'
p348
I2
tp349
a(I62
I8
F0.25
g333
I2
tp350
a(I72
I1
I0
S'physical'
p351
I2
tp352
a(I72
I13
I0
S'physical'
p353
I2
tp354
a(I77
I6
I0
S'real'
p355
I2
tp356
a(I84
I1
F-0.5
S'open'
p357
I2
tp358
a(I112
I6
F0.375
S'tight'
p359
I2
tp360
a(I119
I10
I0
S'electronic'
p361
I2
tp362
as(S'came'
p363
S'on'
p364
S'time'
p365
tp366
(lp367
(I10
I21
F-0.5
g291
I5
tp368
a(I10
I21
I0
g293
I5
tp369
a(I108
I22
I0
S'great'
p370
I5
tp371
as(S'in'
p372
S'good'
p373
S'condition'
p374
tp375
(lp376
(I21
I7
F0.625
S'fair'
p377
I6
tp378
a(I21
I7
F-0.25
S'cheaper'
p379
I6
tp380
a(I23
I0
F1.0
S'good'
p381
I6
tp382
a(I24
I0
F1.0
S'good'
p383
I6
tp384
a(I24
I0
F-0.625
S'other'
p385
I6
tp386
a(I24
I0
F0.625
S'fair'
p387
I6
tp388
a(I25
I55
F1.0
S'good'
p389
I6
tp390
a(I32
I1
F1.0
S'good'
p391
I6
tp392
a(I32
I1
F-0.5
S'worthless'
p393
I6
tp394
a(I32
I1
F0.125
S'able'
p395
I6
tp396
a(I32
I13
F1.0
S'good'
p397
I6
tp398
a(I32
I13
F0.375
S'new'
p399
I6
tp400
a(I36
I7
F1.0
S'good'
p401
I6
tp402
a(I44
I16
F1.0
S'good'
p403
I6
tp404
a(I46
I20
F1.0
S'good'
p405
I6
tp406
a(I46
I38
F1.0
S'good'
p407
I6
tp408
a(I51
I0
F1.0
S'good'
p409
I6
tp410
a(I56
I2
F1.0
S'good'
p411
I6
tp412
a(I64
I21
F1.0
S'good'
p413
I6
tp414
a(I96
I0
F1.0
S'good'
p415
I6
tp416
a(I101
I1
F1.0
S'good'
p417
I6
tp418
a(I21
I7
F0.625
g377
I6
tp419
a(I21
I7
F-0.25
g379
I6
tp420
a(I23
I0
F1.0
g381
I6
tp421
a(I24
I0
F1.0
g383
I6
tp422
a(I24
I0
F-0.625
g385
I6
tp423
a(I24
I0
F0.625
g387
I6
tp424
a(I25
I55
F1.0
g389
I6
tp425
a(I32
I1
F1.0
g391
I6
tp426
a(I32
I1
F-0.5
g393
I6
tp427
a(I32
I1
F0.125
g395
I6
tp428
a(I32
I13
F1.0
g397
I6
tp429
a(I32
I13
F0.375
g399
I6
tp430
a(I36
I7
F1.0
g401
I6
tp431
a(I44
I16
F1.0
g403
I6
tp432
a(I46
I20
F1.0
g405
I6
tp433
a(I46
I38
F1.0
g407
I6
tp434
a(I51
I0
F1.0
g409
I6
tp435
a(I56
I2
F1.0
g411
I6
tp436
a(I64
I21
F1.0
g413
I6
tp437
a(I96
I0
F1.0
g415
I6
tp438
a(I101
I1
F1.0
g417
I6
tp439
as(g59
S'brand'
p440
S'new'
p441
tp442
(lp443
(I6
I8
F0.375
S'new'
p444
I5
tp445
a(I25
I41
F0.375
S'new'
p446
I5
tp447
a(I30
I0
F0.375
S'new'
p448
I5
tp449
a(I48
I3
F0.375
S'new'
p450
I5
tp451
a(I50
I1
F0.375
S'new'
p452
I5
tp453
a(I64
I6
F0.375
S'new'
p454
I5
tp455
a(I81
I3
F-0.5
S'sure'
p456
I5
tp457
a(I81
I3
F0.375
S'new'
p458
I5
tp459
a(I83
I1
F0.375
S'new'
p460
I5
tp461
a(I84
I17
F0.375
S'new'
p462
I5
tp463
a(I98
I0
F0.375
S'new'
p464
I5
tp465
a(I111
I1
F0.375
S'new'
p466
I5
tp467
a(I6
I8
F0.375
g444
I9
tp468
a(I25
I41
F0.375
g446
I9
tp469
a(I30
I0
F0.375
g448
I9
tp470
a(I48
I3
F0.375
g450
I9
tp471
a(I50
I1
F0.375
g452
I9
tp472
a(I64
I6
F0.375
g454
I9
tp473
a(I81
I3
F-0.5
g456
I9
tp474
a(I81
I3
F0.375
g458
I9
tp475
a(I83
I1
F0.375
g460
I9
tp476
a(I84
I17
F0.375
g462
I9
tp477
a(I98
I0
F0.375
g464
I9
tp478
a(I111
I1
F0.375
g466
I9
tp479
as(S'great'
p480
S'condition'
p481
tp482
(lp483
(I7
I23
I0
S'great'
p484
I7
tp485
a(I11
I6
I0
S'great'
p486
I7
tp487
a(I25
I55
F1.0
g389
I7
tp488
a(I30
I7
I0
S'great'
p489
I7
tp490
a(I70
I4
I0
S'great'
p491
I7
tp492
a(I76
I22
I0
S'great'
p493
I7
tp494
a(I101
I6
I0
S'great'
p495
I7
tp496
a(I105
I0
I0
S'great'
p497
I7
tp498
a(I105
I0
F-0.125
S'overall'
p499
I7
tp500
a(I110
I9
I0
S'great'
p501
I7
tp502
as(S'smart'
p503
tp504
(lp505
(I25
I1
F0.125
S'first'
p506
I10
tp507
a(I27
I2
F0.125
S'first'
p508
I10
tp509
a(I28
I2
F0.125
S'first'
p510
I10
tp511
a(I45
I17
F0.125
S'first'
p512
I10
tp513
a(I47
I0
F0.125
S'first'
p514
I10
tp515
a(I50
I29
F0.375
S'new'
p516
I10
tp517
a(I62
I8
F1.0
S'good'
p518
I10
tp519
a(I62
I8
I0
S'basic'
p520
I10
tp521
a(I62
I10
F0.375
S'newer'
p522
I10
tp523
a(I68
I1
F0.125
S'first'
p524
I10
tp525
a(I85
I14
F0.125
S'first'
p526
I10
tp527
a(I106
I0
F-0.625
S'other'
p528
I10
tp529
a(I127
I5
I0
S'many'
p530
I10
tp531
a(I127
I5
F-0.625
S'other'
p532
I10
tp533
as(S'calls'
p534
tp535
(lp536
(I1
I27
I0
S'signal'
p537
I0
tp538
a(I10
I5
F0.625
S'easy'
p539
I0
tp540
a(I10
I6
F0.25
S'recent'
p541
I0
tp542
a(I15
I21
F0.75
S'receive'
p543
I0
tp544
a(I40
I4
F0.625
S'easy'
p545
I0
tp546
a(I54
I0
I0
S'own'
p547
I0
tp548
a(I98
I37
F0.25
S'recent'
p549
I0
tp550
as(S'speaker'
p551
tp552
(lp553
(I36
I4
F-0.75
S'impossible'
p554
I8
tp555
a(I40
I7
F-0.625
S'bad'
p556
I8
tp557
a(I91
I31
F1.0
S'good'
p558
I8
tp559
a(I109
I1
I0
S'ample'
p560
I8
tp561
as(S'refund'
p562
tp563
(lp564
(I16
I18
I0
S'full'
p565
I8
tp566
a(I37
I29
I0
S'wish'
p567
I8
tp568
a(I56
I41
I0
S'full'
p569
I8
tp570
a(I62
I3
F0.125
S'amazon'
p571
I8
tp572
a(I69
I11
F0.625
S'partial'
p573
I8
tp574
a(I72
I19
I0
S'full'
p575
I8
tp576
as(g59
S'sim'
p577
S'card'
p578
tp579
(lp580
(I77
I19
F-0.5
S'sure'
p581
I0
tp582
a(I77
I19
F-0.5
g581
I0
tp583
as(S'customer'
p584
S'service'
p585
tp586
(lp587
(I13
I65
F1.0
S'better'
p588
I3
tp589
a(I52
I0
F1.0
S'good'
p590
I3
tp591
a(I79
I4
I0
S'great'
p592
I3
tp593
a(I93
I7
F0.5
S'satisfactory'
p594
I3
tp595
a(I2
I7
I0
S'great'
p596
I16
tp597
a(I7
I25
F0.125
S'able'
p598
I16
tp599
a(I7
I25
I0
S'prepaid'
p600
I16
tp601
a(I10
I3
F1.0
S'better'
p602
I16
tp603
a(I41
I27
I0
S'cellular'
p604
I16
tp605
a(I42
I7
I0
S'quick'
p606
I16
tp607
a(I62
I1
F1.0
S'good'
p608
I16
tp609
a(I76
I6
F-0.5
S'sure'
p610
I16
tp611
a(I79
I16
I0
S'full'
p612
I16
tp613
a(I105
I1
F0.125
S'able'
p614
I16
tp615
a(I105
I1
I0
S'prepaid'
p616
I16
tp617
a(I110
I23
I0
S'full'
p618
I16
tp619
as(S'an'
p620
S'sd'
p621
S'card'
p622
tp623
(lp624
(I35
I5
F0.5
S'told'
p625
I0
tp626
a(I72
I4
F0.125
S'able'
p627
I0
tp628
a(I82
I33
F-0.5
S'sure'
p629
I0
tp630
a(I96
I9
F0.875
S'music'
p631
I0
tp632
a(I35
I5
F0.5
g625
I0
tp633
a(I72
I4
F0.125
g627
I0
tp634
a(I82
I33
F-0.5
g629
I0
tp635
a(I96
I9
F0.875
g631
I0
tp636
as(g59
S'pretty'
p637
S'good'
p638
tp639
(lp640
(I41
I10
F1.0
S'good'
p641
I0
tp642
a(I105
I19
I0
S'older'
p643
I0
tp644
a(I105
I19
F-0.25
S'pretty'
p645
I0
tp646
a(I105
I19
I0
S'mechanical'
p647
I0
tp648
a(I41
I10
F1.0
g641
I3
tp649
a(I77
I15
F1.0
S'good'
p650
I3
tp651
a(I105
I19
I0
g643
I3
tp652
a(I105
I19
F-0.25
g645
I3
tp653
a(I105
I19
I0
g647
I3
tp654
as(S'apps'
p655
tp656
(lp657
(I13
I59
I0
S'great'
p658
I0
tp659
a(I13
I61
F0.625
S'easier'
p660
I0
tp661
a(I13
I73
I0
S'such'
p662
I0
tp663
a(I13
I79
I0
S'such'
p664
I0
tp665
a(I13
I82
F-0.625
S'other'
p666
I0
tp667
a(I13
I82
I0
S'such'
p668
I0
tp669
a(I13
I93
I0
S'most'
p670
I0
tp671
a(I13
I103
F0.75
S'due'
p672
I0
tp673
a(I21
I20
F-0.875
S'trouble'
p674
I0
tp675
a(I37
I9
I0
S'old'
p676
I0
tp677
a(I37
I9
F0.375
S'newer'
p678
I0
tp679
a(I46
I21
F-0.5
S'certain'
p680
I0
tp681
a(I46
I35
I0
S'few'
p682
I0
tp683
a(I52
I3
I0
S'slower'
p684
I0
tp685
a(I52
I17
I0
S'many'
p686
I0
tp687
a(I70
I5
I0
S'great'
p688
I0
tp689
a(I72
I4
I0
S'many'
p690
I0
tp691
a(I72
I4
I0
S'most'
p692
I0
tp693
a(I85
I22
I0
S'great'
p694
I0
tp695
a(I105
I8
I0
S'few'
p696
I0
tp697
as(S'amazon'
p698
tp699
(lp700
(I37
I17
F0.5
S'bought'
p701
I13
tp702
a(I41
I66
F0.375
S'new'
p703
I13
tp704
as(S'touch'
p705
S'screen'
p706
tp707
(lp708
(I7
I39
F0.5
S'touch'
p709
I2
tp710
a(I7
I39
I0
S'great'
p711
I2
tp712
a(I9
I1
F0.25
S'receptive'
p713
I2
tp714
a(I20
I1
I0
S'great'
p715
I2
tp716
a(I20
I22
F1.0
S'good'
p717
I2
tp718
a(I40
I7
F-0.375
S'black'
p719
I2
tp720
a(I47
I27
F0.5
S'touch'
p721
I2
tp722
a(I50
I15
F-0.125
S'slow'
p723
I2
tp724
a(I55
I13
F0.5
S'touch'
p725
I2
tp726
a(I55
I13
F0.875
S'nice'
p727
I2
tp728
a(I55
I13
F-0.625
S'light'
p729
I2
tp730
a(I56
I25
F0.5
S'touch'
p731
I2
tp732
a(I77
I26
F0.5
S'touch'
p733
I2
tp734
a(I81
I6
F0.5
S'touch'
p735
I2
tp736
a(I82
I16
F0.5
S'told'
p737
I2
tp738
a(I82
I18
F0.5
S'touch'
p739
I2
tp740
a(I88
I0
F0.5
S'touch'
p741
I2
tp742
a(I110
I16
I0
S'hot'
p743
I2
tp744
as.