(dp0
(S'something'
p1
tp2
(lp3
(I123
I8
I0
S'more'
p4
tp5
a(I188
I16
F0.625
S'aware'
p6
tp7
as(S'keyboard'
p8
tp9
(lp10
(I10
I7
F-0.5
S'separate'
p11
tp12
a(I10
I7
I0
S'fast'
p13
tp14
a(I23
I38
I0
S'full'
p15
tp16
a(I25
I24
I0
S'physical'
p17
tp18
a(I37
I5
F-0.875
S'hard'
p19
tp20
a(I58
I4
I0
S'physical'
p21
tp22
a(I77
I3
F-0.5
S'actual'
p23
tp24
a(I77
I3
I0
S'such'
p25
tp26
a(I77
I3
I0
S'incredible'
p27
tp28
a(I82
I8
F0.625
S'easy'
p29
tp30
a(I103
I5
I0
S'great'
p31
tp32
a(I111
I7
F0.625
S'easy'
p33
tp34
a(I120
I22
F-0.75
S'stupid'
p35
tp36
a(I120
I134
I0
S'real'
p37
tp38
a(I120
I136
F-0.5
S'actual'
p39
tp40
a(I126
I3
I0
S'android'
p41
tp42
a(I131
I7
F-0.5
S'miss'
p43
tp44
a(I131
I7
I0
S'old'
p45
tp46
a(I150
I5
I0
S'incredible'
p47
tp48
a(I150
I6
I0
S'physical'
p49
tp50
a(I173
I19
I0
S'physical'
p51
tp52
a(I178
I2
I0
S'incredible'
p53
tp54
a(I188
I15
I0
S'physical'
p55
tp56
a(I188
I15
I0
S'incredible'
p57
tp58
a(I188
I15
I0
S'soft'
p59
tp60
a(I188
I17
I0
S'physical'
p61
tp62
a(I188
I18
I0
S'physical'
p63
tp64
as(S'google'
p65
tp66
(lp67
(I12
I10
F-0.875
S'evil'
p68
tp69
a(I48
I6
F-0.625
S'other'
p70
tp71
a(I72
I5
I0
S'3d'
p72
tp73
a(I72
I6
F-0.625
S'other'
p74
tp75
a(I97
I12
F-0.625
S'free'
p76
tp77
a(I103
I6
I0
S'incredible'
p78
tp79
a(I110
I6
I0
S'many'
p80
tp81
a(I176
I3
F-0.5
S'heavy'
p82
tp83
as(S'8'
p84
S'megapixel'
p85
S'camera'
p86
tp87
(lp88
(I67
I3
F0.5
S'live'
p89
tp90
a(I124
I12
F0.75
S'beautiful'
p91
tp92
as(S'running'
p93
S'n'
p94
S'background'
p95
tp96
(lp97
(I120
I120
F0.125
S'able'
p98
tp99
a(I120
I125
I0
S'big'
p100
tp101
as(S'a'
p102
S'bigger'
p103
S'battery'
p104
tp105
(lp106
(I108
I6
F0.25
S'bigger'
p107
tp108
a(I131
I32
F0.25
S'bigger'
p109
tp110
a(I166
I4
F0.25
S'bigger'
p111
tp112
a(I177
I13
F1.0
S'better'
p113
tp114
a(I177
I13
F0.25
S'bigger'
p115
tp116
a(I186
I2
F0.25
S'bigger'
p117
tp118
as(S'nice'
p119
tp120
(lp121
(I48
I6
I0
S'only'
p122
tp123
a(I102
I1
F0.125
S'first'
p124
tp125
a(I102
I1
I0
S'real'
p126
tp127
as(S'call'
p128
S'quality'
p129
tp130
(lp131
(I0
I3
F0.5
S'clearer'
p132
tp133
a(I5
I9
F-0.875
S'worst'
p134
tp135
a(I38
I5
F-0.625
S'bad'
p136
tp137
a(I50
I8
F-0.875
S'worst'
p138
tp139
a(I50
I9
F-0.5
S'poor'
p140
tp141
a(I50
I13
I0
S'great'
p142
tp143
a(I50
I13
I0
S'topic'
p144
tp145
a(I50
I13
I0
S'incredible'
p146
tp147
a(I50
I14
F-0.5
S'poor'
p148
tp149
a(I65
I3
F1.0
S'good'
p150
tp151
a(I91
I7
F-0.75
S'sad'
p152
tp153
a(I106
I3
F-0.5
S'poor'
p154
tp155
a(I106
I3
I0
S'signal'
p156
tp157
a(I106
I14
F-0.5
S'poor'
p158
tp159
a(I106
I14
I0
S'signal'
p160
tp161
a(I120
I60
F1.0
S'good'
p162
tp163
a(I159
I16
F-0.25
S'highest'
p164
tp165
a(I179
I2
F0.375
S'much'
p166
tp167
a(I185
I7
F-0.5
S'poor'
p168
tp169
as(g102
S'great'
p170
S'device'
p171
tp172
(lp173
(I49
I1
I0
S'great'
p174
tp175
a(I56
I1
I0
S'great'
p176
tp177
a(I63
I1
I0
S'great'
p178
tp179
a(I114
I12
I0
S'great'
p180
tp181
a(I172
I0
I0
S'great'
p182
tp183
a(I187
I9
I0
S'great'
p184
tp185
as(S'short'
p186
S'battery'
p187
S'life'
p188
tp189
(lp190
(I47
I0
F-0.75
S'short'
p191
tp192
a(I67
I2
I0
S'very'
p193
tp194
a(I67
I2
F-0.75
S'short'
p195
tp196
a(I70
I8
F1.0
S'better'
p197
tp198
a(I70
I8
F-0.75
S'short'
p199
tp200
a(I85
I9
F-0.75
S'short'
p201
tp202
a(I108
I1
F-0.75
S'short'
p203
tp204
a(I121
I0
F0.125
S'last'
p205
tp206
a(I121
I0
F0.375
S'extended'
p207
tp208
a(I125
I14
F-0.75
S'short'
p209
tp210
a(I150
I12
F-0.75
S'short'
p211
tp212
a(I150
I14
F-0.75
S'short'
p213
tp214
a(I150
I14
I0
S'common'
p215
tp216
a(I153
I1
F-0.75
S'short'
p217
tp218
a(I176
I16
F-0.75
S'short'
p219
tp220
a(I176
I16
I0
S'incredible'
p221
tp222
a(I185
I1
F-0.375
S'simple'
p223
tp224
as(S'touch'
p225
tp226
(lp227
(I21
I6
I0
S'capacitive'
p228
tp229
a(I73
I7
I0
S'full'
p230
tp231
a(I85
I11
F0.25
S'responsive'
p232
tp233
a(I127
I3
F0.375
S'similar'
p234
tp235
a(I155
I24
F-0.875
S'inferior'
p236
tp237
a(I185
I1
F0.125
S'first'
p238
tp239
as(S'quality'
p240
tp241
(lp242
(I0
I3
F0.5
g132
tp243
a(I5
I12
F-0.625
S'bad'
p244
tp245
a(I50
I8
F-0.875
g138
tp246
a(I65
I3
F1.0
g150
tp247
a(I88
I8
F1.0
S'good'
p248
tp249
a(I88
I8
I0
S'pic'
p250
tp251
a(I106
I3
F-0.5
g154
tp252
a(I106
I3
I0
g156
tp253
a(I106
I14
F-0.5
g158
tp254
a(I106
I14
I0
g160
tp255
a(I120
I60
F1.0
g162
tp256
a(I124
I39
F0.875
S'music'
p257
tp258
a(I124
I39
I0
S'incredible'
p259
tp260
a(I146
I26
F1.0
S'good'
p261
tp262
a(I150
I21
I0
S'high'
p263
tp264
a(I157
I24
F1.0
S'good'
p265
tp266
a(I157
I24
F1.0
S'good'
p267
tp268
a(I159
I16
F-0.25
g164
tp269
a(I159
I17
F-0.25
S'higher'
p270
tp271
a(I159
I29
I0
S'great'
p272
tp273
a(I159
I29
F-0.625
S'free'
p274
tp275
a(I177
I1
F0.125
S'enough'
p276
tp277
a(I179
I2
F0.375
g166
tp278
a(I190
I13
F-0.375
S'near'
p279
tp280
as(S'by'
p281
S'turn'
p282
S'navigation'
p283
tp284
(lp285
(I45
I9
F-0.625
S'free'
p286
tp287
a(I131
I17
F-0.25
S'google'
p288
tp289
a(I131
I17
F0.5
S'accurate'
p290
tp291
as(g102
S'physical'
p292
S'keyboard'
p293
tp294
(lp295
(I25
I24
I0
g17
tp296
a(I58
I4
I0
g21
tp297
a(I150
I6
I0
g49
tp298
a(I173
I19
I0
g51
tp299
a(I188
I15
I0
g55
tp300
a(I188
I15
I0
g57
tp301
a(I188
I15
I0
g59
tp302
a(I188
I17
I0
g61
tp303
a(I188
I18
I0
g63
tp304
as(S'verizon'
p305
tp306
(lp307
(I3
I0
I0
S'incredible'
p308
tp309
a(I3
I14
F0.25
S'familiar'
p310
tp311
a(I7
I18
F0.25
S'helpful'
p312
tp313
a(I9
I15
I0
S'same'
p314
tp315
a(I23
I24
I0
S'incredible'
p316
tp317
a(I23
I25
F1.0
S'best'
p318
tp319
a(I23
I46
F-0.625
S'glad'
p320
tp321
a(I23
I46
I0
S'incredible'
p322
tp323
a(I25
I0
F0.375
S'new'
p324
tp325
a(I30
I13
F-0.625
S'other'
p326
tp327
a(I49
I2
F-0.125
S'former'
p328
tp329
a(I50
I6
F1.0
S'good'
p330
tp331
a(I52
I0
I0
S'two-year'
p332
tp333
a(I60
I11
F-0.625
S'free'
p334
tp335
a(I68
I10
F0.125
S'enough'
p336
tp337
a(I72
I6
I0
S'site'
p338
tp339
a(I95
I0
F1.0
S'better'
p340
tp341
a(I103
I0
F0.625
S'easy'
p342
tp343
a(I106
I0
F-0.25
S'cheaper'
p344
tp345
a(I106
I8
I0
S'different'
p346
tp347
a(I114
I11
I0
S'overseas'
p348
tp349
a(I138
I2
F-0.625
S'other'
p350
tp351
a(I138
I6
I0
S'incredible'
p352
tp353
a(I138
I6
F1.0
S'best'
p354
tp355
a(I141
I1
F0.625
S'approval'
p356
tp357
a(I146
I0
F0.375
S'available'
p358
tp359
a(I146
I0
F-0.625
S'free'
p360
tp361
a(I149
I6
I0
S'trade-off'
p362
tp363
a(I150
I19
F0.5
S'clearer'
p364
tp365
a(I159
I30
F-0.25
S'anemic'
p366
tp367
a(I159
I32
F-0.5
S'sure'
p368
tp369
a(I162
I0
I0
S'anymore'
p370
tp371
a(I165
I0
I0
S'incredible'
p372
tp373
a(I168
I12
I0
S'local'
p374
tp375
a(I168
I14
I0
S'local'
p376
tp377
a(I190
I0
I0
S'incredible'
p378
tp379
as(S'f'
p380
S'not'
p381
S'better'
p382
tp383
(lp384
(I120
I41
F0.375
S'mean'
p385
tp386
as(S'visual'
p387
S'voicemail'
p388
tp389
(lp390
(I35
I4
I0
S'visual'
p391
tp392
a(I59
I27
I0
S'visual'
p393
tp394
a(I103
I7
I0
S'visual'
p395
tp396
as(S'app'
p397
S'store'
p398
tp399
(lp400
(I27
I3
I0
S'android'
p401
tp402
a(I124
I33
I0
S'extensive'
p403
tp404
a(I124
I33
I0
S'android'
p405
tp406
a(I152
I23
I0
S'android'
p407
tp408
a(I188
I10
I0
S'great'
p409
tp410
a(I188
I10
I0
S'android'
p411
tp412
as(S'learning'
p413
S'curve'
p414
tp415
(lp416
(I3
I14
F0.375
S'steep'
p417
tp418
a(I70
I8
F-0.5
S'insane'
p419
tp420
a(I85
I12
F-0.375
S'small'
p421
tp422
as(S'and'
p423
S'battery'
p424
S'life'
p425
tp426
(lp427
(I0
I10
F-0.5
S'complaint'
p428
tp429
a(I0
I10
F-0.25
S'battery'
p430
tp431
a(I6
I2
I0
S'big'
p432
tp433
a(I7
I12
F1.0
S'better'
p434
tp435
a(I9
I10
F-0.375
S'small'
p436
tp437
a(I9
I13
F0.25
S'larger'
p438
tp439
a(I9
I13
F0.625
S'acceptable'
p440
tp441
a(I16
I7
I0
S'same'
p442
tp443
a(I19
I3
F1.0
S'better'
p444
tp445
a(I20
I14
I0
S'wish'
p446
tp447
a(I20
I14
F-0.5
S'longer'
p448
tp449
a(I24
I1
I0
S'great'
p450
tp451
a(I25
I20
F0.375
S'extended'
p452
tp453
a(I25
I21
F1.0
S'better'
p454
tp455
a(I30
I5
F1.0
S'good'
p456
tp457
a(I35
I4
F-0.5
S'poor'
p458
tp459
a(I42
I5
F1.0
S'better'
p460
tp461
a(I43
I2
F1.0
S'better'
p462
tp463
a(I45
I4
F-0.625
S'bad'
p464
tp465
a(I47
I4
F0.875
S'important'
p466
tp467
a(I58
I5
F1.0
S'better'
p468
tp469
a(I59
I23
F0.5
S'possible'
p470
tp471
a(I64
I4
F0.375
S'extended'
p472
tp473
a(I67
I2
I0
g193
tp474
a(I67
I2
F-0.75
g195
tp475
a(I70
I8
F1.0
g197
tp476
a(I76
I6
F1.0
S'better'
p477
tp478
a(I78
I0
F0.125
S'first'
p479
tp480
a(I81
I4
F-0.625
S'other'
p481
tp482
a(I82
I4
F0.5
S'so-so'
p483
tp484
a(I84
I2
F-0.5
S'poor'
p485
tp486
a(I85
I9
F-0.75
g201
tp487
a(I90
I1
F-0.25
S'low'
p488
tp489
a(I93
I6
F1.0
S'better'
p490
tp491
a(I93
I6
F0.75
S'due'
p492
tp493
a(I93
I6
F0.625
S'removable'
p494
tp495
a(I120
I54
I0
S'least'
p496
tp497
a(I120
I57
F1.0
S'best'
p498
tp499
a(I121
I0
F0.125
g205
tp500
a(I121
I0
F0.375
g207
tp501
a(I121
I10
F0.5
S'live'
p502
tp503
a(I121
I10
F0.375
S'extended'
p504
tp505
a(I125
I11
I0
S'third'
p506
tp507
a(I125
I11
I0
S'final'
p508
tp509
a(I125
I11
I0
S'most'
p510
tp511
a(I132
I0
I0
S'initial'
p512
tp513
a(I135
I2
I0
S'fast'
p514
tp515
a(I135
I2
F0.625
S'easy'
p516
tp517
a(I135
I2
F-0.5
S'poor'
p518
tp519
a(I150
I12
F-0.75
g211
tp520
a(I150
I14
F-0.75
g213
tp521
a(I150
I14
I0
g215
tp522
a(I152
I7
I0
S'incredible'
p523
tp524
a(I152
I7
F1.0
S'better'
p525
tp526
a(I157
I27
I0
S'such'
p527
tp528
a(I171
I5
F-0.5
S'poor'
p529
tp530
a(I180
I6
F-0.5
S'poor'
p531
tp532
a(I180
I6
I0
S'same'
p533
tp534
a(I185
I1
F-0.375
g223
tp535
a(I188
I15
F1.0
S'better'
p536
tp537
as(S'turn'
p538
tp539
(lp540
(I26
I10
F0.75
S'competent'
p541
tp542
a(I45
I9
F-0.625
g286
tp543
as(g94
S'battery'
p544
S'life'
p545
tp546
(lp547
(I0
I10
F-0.5
g428
tp548
a(I0
I10
F-0.25
g430
tp549
a(I6
I2
I0
g432
tp550
a(I7
I12
F1.0
g434
tp551
a(I9
I10
F-0.375
g436
tp552
a(I9
I13
F0.25
g438
tp553
a(I9
I13
F0.625
g440
tp554
a(I16
I7
I0
g442
tp555
a(I18
I5
F1.0
S'good'
p556
tp557
a(I18
I5
F0.625
S'acceptable'
p558
tp559
a(I19
I3
F1.0
g444
tp560
a(I20
I14
I0
g446
tp561
a(I20
I14
F-0.5
g448
tp562
a(I22
I4
F1.0
S'good'
p563
tp564
a(I22
I4
F0.375
S'extended'
p565
tp566
a(I24
I1
I0
g450
tp567
a(I25
I20
F0.375
g452
tp568
a(I25
I21
F1.0
g454
tp569
a(I30
I0
F1.0
S'better'
p570
tp571
a(I30
I5
F1.0
g456
tp572
a(I35
I4
F-0.5
g458
tp573
a(I37
I11
F-0.25
S'lower'
p574
tp575
a(I42
I5
F1.0
g460
tp576
a(I43
I2
F1.0
g462
tp577
a(I44
I13
F1.0
S'better'
p578
tp579
a(I45
I4
F-0.625
g464
tp580
a(I47
I0
F-0.75
g191
tp581
a(I47
I4
F0.875
g466
tp582
a(I58
I5
F1.0
g468
tp583
a(I59
I23
F0.5
g470
tp584
a(I60
I11
F0.625
S'acceptable'
p585
tp586
a(I64
I4
F0.375
g472
tp587
a(I67
I2
I0
g193
tp588
a(I67
I2
F-0.75
g195
tp589
a(I70
I8
F1.0
g197
tp590
a(I75
I2
F-0.5
S'complaint'
p591
tp592
a(I76
I6
F1.0
g477
tp593
a(I77
I13
F-0.625
S'free'
p594
tp595
a(I78
I0
F0.125
g479
tp596
a(I81
I4
F-0.625
g481
tp597
a(I82
I4
F0.5
g483
tp598
a(I84
I2
F-0.5
g485
tp599
a(I85
I9
F-0.75
g201
tp600
a(I87
I0
F-0.5
S'poor'
p601
tp602
a(I87
I0
F-0.75
S'inconvenient'
p603
tp604
a(I90
I1
F-0.25
g488
tp605
a(I93
I5
F1.0
S'good'
p606
tp607
a(I93
I6
F1.0
g490
tp608
a(I93
I6
F0.75
g492
tp609
a(I93
I6
F0.625
g494
tp610
a(I95
I4
F1.0
S'better'
p611
tp612
a(I108
I1
F-0.75
g203
tp613
a(I114
I8
F1.0
S'better'
p614
tp615
a(I114
I8
I0
S'adequate'
p616
tp617
a(I120
I54
I0
g496
tp618
a(I120
I57
F1.0
g498
tp619
a(I120
I59
F-0.375
S'smaller'
p620
tp621
a(I120
I100
F0.375
S'much'
p622
tp623
a(I121
I0
F0.125
g205
tp624
a(I121
I0
F0.375
g207
tp625
a(I121
I10
F0.5
g502
tp626
a(I121
I10
F0.375
g504
tp627
a(I125
I11
I0
g506
tp628
a(I125
I11
I0
g508
tp629
a(I125
I11
I0
g510
tp630
a(I132
I0
I0
g512
tp631
a(I133
I2
F-0.25
S'low'
p632
tp633
a(I135
I2
I0
g514
tp634
a(I135
I2
F0.625
g516
tp635
a(I135
I2
F-0.5
g518
tp636
a(I136
I8
F-0.625
S'average'
p637
tp638
a(I136
I11
F-0.25
S'battery'
p639
tp640
a(I137
I20
F0.375
S'extended'
p641
tp642
a(I143
I11
F1.0
S'better'
p643
tp644
a(I150
I5
F-0.25
S'low'
p645
tp646
a(I150
I12
F-0.75
g211
tp647
a(I150
I13
F0.375
S'extended'
p648
tp649
a(I150
I14
F-0.75
g213
tp650
a(I150
I14
I0
g215
tp651
a(I152
I7
I0
g523
tp652
a(I152
I7
F1.0
g525
tp653
a(I153
I1
F-0.75
g217
tp654
a(I157
I27
I0
g527
tp655
a(I159
I5
F-0.25
S'lean'
p656
tp657
a(I163
I30
F-0.25
S'battery'
p658
tp659
a(I164
I5
F-0.75
S'disappointment'
p660
tp661
a(I164
I5
F-0.25
S'battery'
p662
tp663
a(I164
I5
F0.375
S'extended'
p664
tp665
a(I166
I4
F0.25
g111
tp666
a(I171
I5
F-0.5
g529
tp667
a(I172
I0
I0
S'great'
p668
tp669
a(I176
I16
F-0.75
g219
tp670
a(I176
I16
I0
g221
tp671
a(I179
I6
F0.5
S'comparable'
p672
tp673
a(I180
I6
F-0.5
g531
tp674
a(I180
I6
I0
g533
tp675
a(I185
I1
F-0.375
g223
tp676
a(I188
I15
F1.0
g536
tp677
as(S'charge'
p678
tp679
(lp680
(I16
I9
F-0.5
S'heavy'
p681
tp682
a(I45
I7
F0.625
S'okay'
p683
tp684
a(I59
I20
F0.375
S'extra'
p685
tp686
a(I59
I20
I0
S'monthly'
p687
tp688
a(I61
I0
I0
S'anymore'
p689
tp690
a(I127
I10
I0
S'least'
p691
tp692
a(I136
I10
I0
S'later'
p693
tp694
a(I159
I10
I0
S'full'
p695
tp696
a(I173
I41
F1.0
S'better'
p697
tp698
a(I185
I12
I0
S'full'
p699
tp700
as(S'sky'
p701
S'map'
p702
tp703
(lp704
(I186
I0
I0
S'sky'
p705
tp706
as(S'with'
p707
S'battery'
p708
S'life'
p709
tp710
(lp711
(I9
I10
F-0.375
g436
tp712
a(I16
I7
I0
g442
tp713
a(I19
I3
F1.0
g444
tp714
a(I25
I21
F1.0
g454
tp715
a(I35
I4
F-0.5
g458
tp716
a(I43
I2
F1.0
g462
tp717
a(I60
I11
F0.625
g585
tp718
a(I64
I4
F0.375
g472
tp719
a(I81
I4
F-0.625
g481
tp720
a(I120
I59
F-0.375
g620
tp721
a(I121
I0
F0.125
g205
tp722
a(I121
I0
F0.375
g207
tp723
a(I121
I10
F0.5
g502
tp724
a(I121
I10
F0.375
g504
tp725
a(I132
I0
I0
g512
tp726
a(I150
I5
F-0.25
g645
tp727
a(I150
I12
F-0.75
g211
tp728
a(I150
I14
F-0.75
g213
tp729
a(I150
I14
I0
g215
tp730
a(I157
I27
I0
g527
tp731
a(I164
I5
F-0.75
g660
tp732
a(I164
I5
F-0.25
g662
tp733
a(I164
I5
F0.375
g664
tp734
a(I171
I5
F-0.5
g529
tp735
a(I179
I6
F0.5
g672
tp736
as(S'smartphone'
p737
tp738
(lp739
(I20
I1
F0.125
S'first'
p740
tp741
a(I45
I0
F1.0
S'good'
p742
tp743
a(I45
I14
F-0.125
S'overall'
p744
tp745
a(I45
I14
F-0.625
S'free'
p746
tp747
a(I45
I30
F1.0
S'best'
p748
tp749
a(I50
I18
F-0.625
S'average'
p750
tp751
a(I50
I21
I0
S'great'
p752
tp753
a(I51
I3
F1.0
S'best'
p754
tp755
a(I51
I7
F1.0
S'better'
p756
tp757
a(I64
I0
F0.375
S'new'
p758
tp759
a(I65
I0
I0
S'incredible'
p760
tp761
a(I65
I0
F0.375
S'new'
p762
tp763
a(I69
I0
F0.125
S'first'
p764
tp765
a(I76
I1
F0.125
S'first'
p766
tp767
a(I85
I4
F0.5
S'true'
p768
tp769
a(I105
I0
F0.875
S'happy'
p770
tp771
a(I113
I0
F0.125
S'first'
p772
tp773
a(I113
I6
F0.125
S'first'
p774
tp775
a(I120
I115
F-0.25
S'thinnest'
p776
tp777
a(I120
I115
F0.375
S'available'
p778
tp779
a(I120
I115
F-0.625
S'sorry'
p780
tp781
a(I138
I6
F0.375
S'available'
p782
tp783
a(I149
I6
F-0.75
S'wrong'
p784
tp785
a(I150
I4
F-0.25
S'google'
p786
tp787
a(I150
I21
F-0.625
S'other'
p788
tp789
a(I150
I21
I0
S'android'
p790
tp791
a(I159
I0
F0.125
S'first'
p792
tp793
a(I159
I35
F-0.25
S'ready'
p794
tp795
a(I173
I0
F-0.625
S'other'
p796
tp797
a(I173
I26
F-0.625
S'lighter'
p798
tp799
as(S'card'
p800
tp801
(lp802
(I3
I19
F0.375
S'extra'
p803
tp804
a(I131
I34
I0
S'ocean'
p805
tp806
a(I131
I34
I0
S'external'
p807
tp808
a(I173
I31
I0
S'more'
p809
tp810
as(S'love'
p811
tp812
(lp813
(I53
I0
F0.375
S'new'
p814
tp815
as(S'unlimited'
p816
S'data'
p817
S'plan'
p818
tp819
(lp820
(I95
I6
I0
S'mobile'
p821
tp822
a(I167
I0
F-0.5
S'unlimited'
p823
tp824
as(S'about'
p825
S'battery'
p826
S'life'
p827
tp828
(lp829
(I78
I0
F0.125
g479
tp830
a(I85
I9
F-0.75
g201
tp831
a(I121
I0
F0.125
g205
tp832
a(I121
I0
F0.375
g207
tp833
a(I136
I8
F-0.625
g637
tp834
a(I159
I5
F-0.25
g656
tp835
a(I171
I5
F-0.5
g529
tp836
a(I172
I0
I0
g668
tp837
as(S'cyanogen'
p838
S'mod'
p839
tp840
(lp841
(I20
I13
F0.625
S'easy'
p842
tp843
as(S'computer'
p844
tp845
(lp846
(I3
I2
I0
S'hand-held'
p847
tp848
a(I3
I2
I0
S'least'
p849
tp850
a(I10
I25
F-0.375
S'near'
p851
tp852
a(I30
I8
I0
S'more'
p853
tp854
a(I49
I15
F0.375
S'similar'
p855
tp856
a(I52
I1
I0
S'incredible'
p857
tp858
a(I52
I1
F-0.75
S'little'
p859
tp860
a(I124
I11
F0.5
S'drive'
p861
tp862
a(I131
I1
F-0.375
S'small'
p863
tp864
a(I152
I35
I0
S'mobile'
p865
tp866
a(I152
I63
F0.125
S'typical'
p867
tp868
a(I157
I5
F0.125
S'able'
p869
tp870
a(I159
I7
F-0.375
S'small'
p871
tp872
a(I188
I26
I0
S'overnight'
p873
tp874
as(S'fast'
p875
tp876
(lp877
(I70
I7
F0.375
S'interesting'
p878
tp879
a(I70
I7
I0
S'internet'
p880
tp881
a(I70
I7
F-0.125
S'super'
p882
tp883
a(I173
I37
F-0.125
S'super'
p884
tp885
a(I179
I9
F-0.125
S'super'
p886
tp887
as(S'every'
p888
tp889
(lp890
(I23
I0
F0.375
S'new'
p891
tp892
a(I23
I39
I0
S'next'
p893
tp894
a(I23
I39
F0.375
S'new'
p895
tp896
a(I28
I8
F0.75
S'worth'
p897
tp898
a(I159
I3
F0.375
S'new'
p899
tp900
a(I159
I3
F0.375
S'new'
p901
tp902
as(S'problem'
p903
tp904
(lp905
(I22
I4
I0
S'only'
p906
tp907
a(I27
I5
F0.375
S'much'
p908
tp909
a(I38
I7
I0
S'solved'
p910
tp911
a(I49
I12
I0
S'same'
p912
tp913
a(I137
I13
F0.125
S'first'
p914
tp915
a(I137
I13
F0.25
S'biggest'
p916
tp917
a(I144
I1
I0
S'signal'
p918
tp919
a(I169
I6
F0.5
S'traceable'
p920
tp921
a(I169
I6
I0
S'android'
p922
tp923
as(S'on'
p924
S'screen'
p925
S'keyboard'
p926
tp927
(lp928
(I10
I7
F-0.5
g11
tp929
a(I10
I7
I0
g13
tp930
a(I150
I6
I0
g49
tp931
a(I178
I0
I0
S'large'
p932
tp933
a(I178
I2
I0
g53
tp934
a(I188
I17
I0
g61
tp935
as(S'steve'
p936
S'jobs'
p937
tp938
(lp939
(I178
I26
I0
S'critical'
p940
tp941
a(I178
I27
F0.25
S'powerful'
p942
tp943
as(S'sense'
p944
tp945
(lp946
(I5
I13
F0.375
S'new'
p947
tp948
a(I30
I4
I0
S'common'
p949
tp950
a(I38
I10
F0.875
S'nice'
p951
tp952
a(I103
I4
F1.0
S'good'
p953
tp954
a(I136
I16
F0.875
S'nice'
p955
tp956
as(S'email'
p957
tp958
(lp959
(I10
I10
I0
S'forth'
p960
tp961
a(I12
I4
F0.125
S'native'
p962
tp963
a(I12
I7
I0
S'more'
p964
tp965
a(I12
I7
F0.125
S'native'
p966
tp967
a(I59
I13
F0.125
S'native'
p968
tp969
a(I59
I14
I0
S'different'
p970
tp971
a(I138
I1
I0
S'navigate'
p972
tp973
a(I140
I7
F-0.625
S'other'
p974
tp975
a(I141
I1
F-0.75
S'short'
p976
tp977
a(I159
I27
F-0.625
S'other'
p978
tp979
a(I166
I6
F0.5
S'whole'
p980
tp981
a(I172
I5
I0
S'corporate'
p982
tp983
as(S'could'
p984
S'be'
p985
S'better'
p986
tp987
(lp988
(I114
I12
F-0.125
S'overall'
p989
tp990
as(S'text'
p991
tp992
(lp993
(I113
I2
I0
S'wish'
p994
tp995
a(I120
I111
F-0.75
S'single'
p996
tp997
a(I121
I3
F0.125
S'popular'
p998
tp999
a(I127
I3
I0
S'incredible'
p1000
tp1001
a(I191
I5
F1.0
S'better'
p1002
tp1003
as(S'service'
p1004
tp1005
(lp1006
(I23
I25
I0
S'most'
p1007
tp1008
a(I23
I25
F0.375
S'reliable'
p1009
tp1010
a(I45
I13
F1.0
S'good'
p1011
tp1012
a(I57
I0
F0.375
S'new'
p1013
tp1014
a(I57
I0
F0.375
S'new'
p1015
tp1016
a(I59
I2
I0
S'great'
p1017
tp1018
a(I80
I4
I0
S'great'
p1019
tp1020
a(I98
I1
F-0.875
S'awful'
p1021
tp1022
a(I120
I4
F1.0
S'best'
p1023
tp1024
a(I120
I5
F0.5
S'true'
p1025
tp1026
a(I120
I124
F-0.25
S'google'
p1027
tp1028
a(I124
I5
F1.0
S'best'
p1029
tp1030
a(I130
I3
F1.0
S'better'
p1031
tp1032
a(I147
I2
I0
S'incredible'
p1033
tp1034
a(I169
I12
F1.0
S'good'
p1035
tp1036
a(I176
I18
F-0.25
S'google'
p1037
tp1038
a(I188
I29
F0.125
S'usual'
p1039
tp1040
as(S'getting'
p1041
tp1042
(lp1043
(I33
I1
F0.625
S'interested'
p1044
tp1045
a(I159
I8
F-0.75
S'little'
p1046
tp1047
as(S'works'
p1048
tp1049
(lp1050
(I0
I4
I0
S'great'
p1051
tp1052
a(I8
I10
I0
S'android'
p1053
tp1054
a(I8
I10
I0
S'great'
p1055
tp1056
a(I9
I8
I0
S'great'
p1057
tp1058
a(I23
I19
I0
S'android'
p1059
tp1060
a(I55
I5
F0.5
S'accurate'
p1061
tp1062
a(I121
I2
F1.0
S'best'
p1063
tp1064
a(I121
I2
F1.0
S'best'
p1065
tp1066
a(I173
I25
I0
S'great'
p1067
tp1068
as(S'custom'
p1069
S'roms'
p1070
tp1071
(lp1072
(I76
I8
F0.625
S'easier'
p1073
tp1074
as(S'going'
p1075
tp1076
(lp1077
(I120
I0
I0
S'most'
p1078
tp1079
a(I120
I0
F-0.75
S'likely'
p1080
tp1081
as(g94
S'direct'
p1082
S'sunlight'
p1083
tp1084
(lp1085
(I88
I9
F-0.25
S'direct'
p1086
tp1087
a(I135
I4
F-0.25
S'direct'
p1088
tp1089
a(I150
I17
F-0.25
S'direct'
p1090
tp1091
a(I150
I19
F-0.25
S'direct'
p1092
tp1093
as(S'droid'
p1094
S'x'
p1095
tp1096
(lp1097
(I29
I2
I0
S'incredible'
p1098
tp1099
a(I50
I7
I0
S'incredible'
p1100
tp1101
a(I50
I15
I0
S'incredible'
p1102
tp1103
a(I64
I0
I0
S'incredible'
p1104
tp1105
a(I83
I0
F0.125
S'first'
p1106
tp1107
a(I83
I0
I0
S'incredible'
p1108
tp1109
a(I84
I5
F0.375
S'new'
p1110
tp1111
a(I84
I5
I0
S'incredible'
p1112
tp1113
a(I86
I5
I0
S'incredible'
p1114
tp1115
a(I150
I2
I0
S'incredible'
p1116
tp1117
a(I168
I13
F0.25
S'refurbished'
p1118
tp1119
a(I168
I13
F0.375
S'new'
p1120
tp1121
a(I168
I13
I0
S'incredible'
p1122
tp1123
a(I168
I13
F-0.75
S'unable'
p1124
tp1125
a(I168
I14
F0.25
S'refurbished'
p1126
tp1127
a(I180
I0
F0.375
S'new'
p1128
tp1129
a(I180
I0
I0
S'incredible'
p1130
tp1131
as(g102
S'little'
p1132
S'bit'
p1133
tp1134
(lp1135
(I155
I20
I0
S'great'
p1136
tp1137
a(I173
I28
F-0.75
S'little'
p1138
tp1139
as(S'optical'
p1140
S'joystick'
p1141
tp1142
(lp1143
(I7
I18
I0
S'optical'
p1144
tp1145
a(I49
I4
I0
S'optical'
p1146
tp1147
a(I49
I12
I0
S'optical'
p1148
tp1149
as(S'droid'
p1150
tp1151
(lp1152
(I12
I13
F0.625
S'credible'
p1153
tp1154
a(I12
I13
I0
S'incredible'
p1155
tp1156
a(I16
I0
F0.125
S'first'
p1157
tp1158
a(I25
I23
I0
S'incredible'
p1159
tp1160
a(I29
I2
I0
g1098
tp1161
a(I50
I7
I0
g1100
tp1162
a(I50
I15
I0
g1102
tp1163
a(I52
I0
F-0.625
S'free'
p1164
tp1165
a(I52
I0
I0
S'incredible'
p1166
tp1167
a(I64
I0
I0
g1104
tp1168
a(I83
I0
F0.125
g1106
tp1169
a(I83
I0
I0
g1108
tp1170
a(I84
I5
F0.375
g1110
tp1171
a(I84
I5
I0
g1112
tp1172
a(I86
I5
I0
g1114
tp1173
a(I152
I79
I0
S'incredible'
p1174
tp1175
a(I168
I0
F0.125
S'first'
p1176
tp1177
a(I168
I0
I0
S'incredible'
p1178
tp1179
a(I168
I13
F0.25
g1118
tp1180
a(I168
I13
F0.375
g1120
tp1181
a(I168
I13
I0
g1122
tp1182
a(I168
I13
F-0.75
g1124
tp1183
a(I168
I14
F0.25
g1126
tp1184
a(I180
I0
F0.375
g1128
tp1185
a(I180
I0
I0
g1130
tp1186
a(I181
I0
I0
S'incredible'
p1187
tp1188
a(I191
I0
I0
S'incredible'
p1189
tp1190
as(S'market'
p1191
tp1192
(lp1193
(I35
I2
I0
S'most'
p1194
tp1195
a(I50
I18
I0
S'android'
p1196
tp1197
a(I68
I0
I0
S'android'
p1198
tp1199
a(I68
I4
I0
S'android'
p1200
tp1201
a(I68
I8
I0
S'android'
p1202
tp1203
a(I70
I6
I0
S'android'
p1204
tp1205
a(I91
I7
I0
S'android'
p1206
tp1207
a(I120
I62
I0
S'android'
p1208
tp1209
a(I121
I0
I0
S'android'
p1210
tp1211
a(I121
I1
I0
S'android'
p1212
tp1213
a(I121
I1
I0
S'most'
p1214
tp1215
a(I152
I21
I0
S'android'
p1216
tp1217
a(I152
I25
I0
S'android'
p1218
tp1219
a(I152
I39
I0
S'android'
p1220
tp1221
a(I169
I9
I0
S'retail'
p1222
tp1223
a(I178
I8
F0.5
S'true'
p1224
tp1225
a(I178
I8
I0
S'android'
p1226
tp1227
a(I178
I24
I0
S'android'
p1228
tp1229
a(I183
I7
I0
S'android'
p1230
tp1231
as(S'things'
p1232
tp1233
(lp1234
(I5
I10
I0
S'many'
p1235
tp1236
a(I5
I10
I0
S'many'
p1237
tp1238
a(I7
I12
F-0.625
S'other'
p1239
tp1240
a(I21
I30
I0
S'great'
p1241
tp1242
a(I23
I25
I0
S'few'
p1243
tp1244
a(I59
I7
I0
S'great'
p1245
tp1246
a(I70
I1
F0.375
S'new'
p1247
tp1248
a(I77
I7
F0.125
S'enough'
p1249
tp1250
a(I77
I7
F1.0
S'good'
p1251
tp1252
a(I78
I8
F1.0
S'good'
p1253
tp1254
a(I78
I8
F0.5
S'true'
p1255
tp1256
a(I91
I9
F-0.5
S'miss'
p1257
tp1258
a(I91
I9
I0
S'few'
p1259
tp1260
a(I102
I11
F-0.375
S'small'
p1261
tp1262
a(I110
I8
F-0.75
S'littlest'
p1263
tp1264
a(I120
I120
I0
S'few'
p1265
tp1266
a(I121
I0
I0
S'useful'
p1267
tp1268
a(I121
I9
F-0.625
S'other'
p1269
tp1270
a(I140
I4
F0.625
S'easier'
p1271
tp1272
a(I173
I2
I0
S'many'
p1273
tp1274
a(I174
I0
F-0.625
S'other'
p1275
tp1276
a(I174
I0
F-0.625
S'bad'
p1277
tp1278
a(I188
I20
F-0.625
S'other'
p1279
tp1280
a(I188
I21
I0
S'few'
p1281
tp1282
a(I188
I21
I0
S'incredible'
p1283
tp1284
as(S'apple'
p1285
tp1286
(lp1287
(I33
I4
I0
S'proprietary'
p1288
tp1289
a(I37
I0
F0.375
S'new'
p1290
tp1291
a(I55
I3
F-0.5
S'poor'
p1292
tp1293
a(I114
I4
I0
S'extensive'
p1294
tp1295
a(I150
I11
F-0.125
S'overall'
p1296
tp1297
a(I181
I9
F-0.75
S'little'
p1298
tp1299
a(I187
I4
F-0.125
S'future'
p1300
tp1301
a(I187
I4
F0.375
S'much'
p1302
tp1303
a(I188
I10
F1.0
S'good'
p1304
tp1305
a(I188
I10
F0.375
S'available'
p1306
tp1307
as(S'an'
p1308
S'extended'
p1309
S'battery'
p1310
tp1311
(lp1312
(I22
I4
F0.375
g565
tp1313
a(I28
I5
F0.375
S'extended'
p1314
tp1315
a(I64
I4
F0.375
g472
tp1316
a(I81
I4
F-0.625
g481
tp1317
a(I82
I5
F0.375
S'extended'
p1318
tp1319
a(I86
I4
F0.375
S'extended'
p1320
tp1321
a(I91
I2
F0.375
S'extended'
p1322
tp1323
a(I112
I24
I0
S'external'
p1324
tp1325
a(I112
I24
F0.375
S'extended'
p1326
tp1327
a(I121
I0
F0.125
g205
tp1328
a(I121
I0
F0.375
g207
tp1329
a(I121
I10
F0.375
g504
tp1330
a(I152
I12
F0.375
S'extended'
p1331
tp1332
a(I152
I59
F0.375
S'extended'
p1333
tp1334
a(I152
I101
I0
S'incredible'
p1335
tp1336
a(I152
I101
I0
S'incredible'
p1337
tp1338
as(S'video'
p1339
tp1340
(lp1341
(I25
I5
F0.875
S'music'
p1342
tp1343
a(I31
I12
F-0.625
S'average'
p1344
tp1345
a(I78
I11
I0
S'incredible'
p1346
tp1347
a(I93
I6
I0
S'android'
p1348
tp1349
a(I149
I4
F-0.75
S'short'
p1350
tp1351
a(I152
I51
I0
S'great'
p1352
tp1353
as(g102
S'long'
p1354
S'time'
p1355
tp1356
(lp1357
(I0
I0
F-0.5
S'long'
p1358
tp1359
a(I40
I0
F-0.5
S'long'
p1360
tp1361
a(I77
I0
F-0.5
S'long'
p1362
tp1363
a(I85
I4
F-0.5
S'long'
p1364
tp1365
a(I106
I2
F-0.5
S'long'
p1366
tp1367
a(I106
I2
I0
S'bc'
p1368
tp1369
a(I120
I43
I0
S'more'
p1370
tp1371
a(I146
I17
F-0.5
S'long'
p1372
tp1373
a(I146
I17
F0.125
S'first'
p1374
tp1375
as(S'android'
p1376
tp1377
(lp1378
(I21
I0
F1.0
S'best'
p1379
tp1380
a(I21
I22
F1.0
S'best'
p1381
tp1382
a(I37
I1
F-0.25
S'google'
p1383
tp1384
a(I85
I0
I0
S'incredible'
p1385
tp1386
a(I123
I7
F0.125
S'first'
p1387
tp1388
a(I152
I107
I0
S'install'
p1389
tp1390
a(I158
I6
F-0.625
S'other'
p1391
tp1392
a(I158
I6
I0
S'fast'
p1393
tp1394
a(I158
I6
F0.25
S'powerful'
p1395
tp1396
a(I159
I28
I0
S'least'
p1397
tp1398
a(I163
I17
I0
S'standard'
p1399
tp1400
a(I163
I18
I0
S'basic'
p1401
tp1402
a(I173
I6
I0
S'standard'
p1403
tp1404
a(I185
I0
F0.375
S'new'
p1405
tp1406
a(I188
I13
F-0.25
S'cheaper'
p1407
tp1408
as(S'voice'
p1409
tp1410
(lp1411
(I3
I0
I0
S'great'
p1412
tp1413
a(I3
I7
F0.25
S'read'
p1414
tp1415
a(I32
I5
F-0.25
S'google'
p1416
tp1417
a(I38
I12
F-0.25
S'google'
p1418
tp1419
a(I59
I25
F-0.25
S'google'
p1420
tp1421
a(I59
I28
F-0.125
S'super'
p1422
tp1423
a(I59
I28
F-0.25
S'google'
p1424
tp1425
a(I72
I4
I0
S'most'
p1426
tp1427
a(I72
I4
I0
S'notable'
p1428
tp1429
a(I72
I4
F-0.25
S'google'
p1430
tp1431
a(I93
I6
I0
S'cool'
p1432
tp1433
a(I96
I3
F-0.5
S'poor'
p1434
tp1435
a(I96
I7
F-0.875
S'worst'
p1436
tp1437
a(I103
I6
F-0.25
S'google'
p1438
tp1439
a(I110
I6
F-0.25
S'google'
p1440
tp1441
a(I114
I3
I0
S'fast'
p1442
tp1443
a(I123
I3
I0
S'dial'
p1444
tp1445
a(I124
I20
I0
S'user'
p1446
tp1447
a(I131
I17
I0
S'immediate'
p1448
tp1449
a(I138
I4
F-0.625
S'other'
p1450
tp1451
a(I159
I0
I0
S'old'
p1452
tp1453
a(I159
I8
I0
S'basic'
p1454
tp1455
a(I159
I8
I0
S'old'
p1456
tp1457
a(I164
I3
F-0.25
S'google'
p1458
tp1459
a(I173
I4
I0
S'visual'
p1460
tp1461
a(I177
I1
F1.0
S'good'
p1462
tp1463
as(S'vz'
p1464
S'navigator'
p1465
tp1466
(lp1467
(I23
I31
F0.75
S'worth'
p1468
tp1469
as(S'thing'
p1470
tp1471
(lp1472
(I3
I7
I0
S'great'
p1473
tp1474
a(I23
I46
F1.0
S'good'
p1475
tp1476
a(I28
I8
I0
S'closest'
p1477
tp1478
a(I36
I0
I0
S'only'
p1479
tp1480
a(I36
I0
F-0.875
S'negative'
p1481
tp1482
a(I36
I1
F-0.625
S'other'
p1483
tp1484
a(I52
I1
F0.125
S'first'
p1485
tp1486
a(I52
I2
F0.5
S'second'
p1487
tp1488
a(I52
I10
F1.0
S'best'
p1489
tp1490
a(I66
I9
F1.0
S'better'
p1491
tp1492
a(I77
I4
F0.375
S'much'
p1493
tp1494
a(I113
I6
F0.875
S'nice'
p1495
tp1496
a(I120
I7
I0
S'promotional'
p1497
tp1498
a(I120
I86
F-0.375
S'simple'
p1499
tp1500
a(I120
I89
I0
S'weird'
p1501
tp1502
a(I120
I113
I0
S'cool'
p1503
tp1504
a(I120
I113
F0.375
S'new'
p1505
tp1506
a(I142
I1
F-0.875
S'trouble'
p1507
tp1508
a(I152
I35
I0
S'closer'
p1509
tp1510
a(I166
I5
F1.0
S'best'
p1511
tp1512
a(I169
I10
F-0.625
S'bad'
p1513
tp1514
a(I172
I5
I0
S'only'
p1515
tp1516
a(I173
I13
F0.125
S'first'
p1517
tp1518
a(I174
I7
F-0.75
S'short'
p1519
tp1520
as(S'1750'
p1521
S'mah'
p1522
S'battery'
p1523
tp1524
(lp1525
(I159
I9
F0.375
S'available'
p1526
tp1527
a(I177
I13
F1.0
g113
tp1528
a(I177
I13
F0.25
g115
tp1529
as(S'signal'
p1530
S'strength'
p1531
tp1532
(lp1533
(I9
I14
I0
S'signal'
p1534
tp1535
a(I9
I17
F-0.25
S'low'
p1536
tp1537
a(I9
I18
I0
S'signal'
p1538
tp1539
a(I30
I13
I0
S'signal'
p1540
tp1541
a(I30
I13
I0
S'same'
p1542
tp1543
a(I96
I10
F-0.25
S'low'
p1544
tp1545
a(I136
I14
F0.125
S'equal'
p1546
tp1547
a(I136
I14
I0
S'signal'
p1548
tp1549
a(I136
I20
F-0.5
S'actual'
p1550
tp1551
a(I159
I20
I0
S'signal'
p1552
tp1553
a(I159
I21
F0.5
S'true'
p1554
tp1555
a(I159
I21
I0
S'signal'
p1556
tp1557
as(S'better'
p1558
S'battery'
p1559
S'life'
p1560
tp1561
(lp1562
(I7
I12
F1.0
g434
tp1563
a(I19
I3
F1.0
g444
tp1564
a(I25
I21
F1.0
g454
tp1565
a(I30
I0
F1.0
g570
tp1566
a(I42
I5
F1.0
g460
tp1567
a(I43
I2
F1.0
g462
tp1568
a(I44
I13
F1.0
g578
tp1569
a(I58
I5
F1.0
g468
tp1570
a(I70
I8
F1.0
g197
tp1571
a(I76
I6
F1.0
g477
tp1572
a(I93
I6
F1.0
g490
tp1573
a(I93
I6
F0.75
g492
tp1574
a(I93
I6
F0.625
g494
tp1575
a(I95
I4
F1.0
g611
tp1576
a(I114
I8
F1.0
g614
tp1577
a(I114
I8
I0
g616
tp1578
a(I120
I59
F-0.375
g620
tp1579
a(I120
I100
F0.375
g622
tp1580
a(I132
I0
I0
g512
tp1581
a(I143
I11
F1.0
g643
tp1582
a(I152
I7
I0
g523
tp1583
a(I152
I7
F1.0
g525
tp1584
a(I188
I15
F1.0
g536
tp1585
as(S'android'
p1586
S'operating'
p1587
S'system'
p1588
tp1589
(lp1590
(I7
I18
I0
S'android'
p1591
tp1592
a(I12
I1
I0
S'android'
p1593
tp1594
a(I109
I2
I0
S'android'
p1595
tp1596
a(I109
I2
I0
S'great'
p1597
tp1598
a(I150
I9
I0
S'android'
p1599
tp1600
a(I150
I9
F0.375
S'vulnerable'
p1601
tp1602
a(I150
I10
I0
S'android'
p1603
tp1604
a(I163
I19
I0
S'android'
p1605
tp1606
as(S'an'
p1607
S'pod'
p1608
S'touch'
p1609
tp1610
(lp1611
(I127
I3
F0.375
g234
tp1612
as(S'make'
p1613
tp1614
(lp1615
(I113
I6
F0.125
S'able'
p1616
tp1617
as(S'hours'
p1618
tp1619
(lp1620
(I10
I24
F1.0
S'good'
p1621
tp1622
a(I10
I24
I0
S'few'
p1623
tp1624
a(I24
I3
I0
S'few'
p1625
tp1626
a(I71
I0
F-0.25
S'dumbfounded'
p1627
tp1628
a(I111
I3
F0.375
S'extra'
p1629
tp1630
a(I114
I11
I0
S'more'
p1631
tp1632
a(I120
I89
F1.0
S'best'
p1633
tp1634
a(I157
I28
I0
S'least'
p1635
tp1636
a(I168
I12
I0
S'later'
p1637
tp1638
as(S'work'
p1639
tp1640
(lp1641
(I26
I13
F-0.375
S'serious'
p1642
tp1643
a(I37
I10
I0
S'social'
p1644
tp1645
a(I45
I11
F-0.75
S'wrong'
p1646
tp1647
a(I157
I26
I0
S'incredible'
p1648
tp1649
a(I176
I3
F0.5
S'personal'
p1650
tp1651
as(S'htc'
p1652
S'droid'
p1653
tp1654
(lp1655
(I7
I5
I0
S'incredible'
p1656
tp1657
a(I12
I13
F0.625
g1153
tp1658
a(I12
I13
I0
g1155
tp1659
a(I25
I1
I0
S'incredible'
p1660
tp1661
a(I25
I23
I0
g1159
tp1662
a(I26
I1
I0
S'incredible'
p1663
tp1664
a(I29
I2
I0
S'incredible'
p1665
tp1666
a(I29
I2
I0
g1098
tp1667
a(I35
I5
I0
S'incredible'
p1668
tp1669
a(I37
I0
I0
S'incredible'
p1670
tp1671
a(I37
I0
F0.375
S'similar'
p1672
tp1673
a(I72
I0
I0
S'incredible'
p1674
tp1675
a(I118
I6
I0
S'incredible'
p1676
tp1677
a(I124
I25
I0
S'incredible'
p1678
tp1679
a(I127
I0
I0
S'incredible'
p1680
tp1681
a(I150
I20
I0
S'incredible'
p1682
tp1683
a(I163
I17
I0
S'proprietary'
p1684
tp1685
a(I168
I13
F0.25
g1118
tp1686
a(I168
I13
F0.375
g1120
tp1687
a(I168
I13
I0
g1122
tp1688
a(I168
I13
F-0.75
g1124
tp1689
a(I183
I0
I0
S'incredible'
p1690
tp1691
a(I188
I11
I0
S'incredible'
p1692
tp1693
a(I191
I0
I0
g1189
tp1694
as(S'seems'
p1695
tp1696
(lp1697
(I25
I25
F1.0
S'better'
p1698
tp1699
a(I49
I9
I0
S'incredible'
p1700
tp1701
a(I60
I8
I0
S'faster'
p1702
tp1703
a(I163
I5
I0
S'incredible'
p1704
tp1705
a(I163
I5
I0
S'more'
p1706
tp1707
a(I163
I5
F0.25
S'responsive'
p1708
tp1709
as(S'battery'
p1710
S'life'
p1711
tp1712
(lp1713
(I0
I10
F-0.5
g428
tp1714
a(I0
I10
F-0.25
g430
tp1715
a(I6
I2
I0
g432
tp1716
a(I7
I12
F1.0
g434
tp1717
a(I9
I10
F-0.375
g436
tp1718
a(I9
I13
F0.25
g438
tp1719
a(I9
I13
F0.625
g440
tp1720
a(I16
I7
I0
g442
tp1721
a(I18
I5
F1.0
g556
tp1722
a(I18
I5
F0.625
g558
tp1723
a(I19
I3
F1.0
g444
tp1724
a(I20
I14
I0
g446
tp1725
a(I20
I14
F-0.5
g448
tp1726
a(I22
I4
F1.0
g563
tp1727
a(I22
I4
F0.375
g565
tp1728
a(I24
I1
I0
g450
tp1729
a(I25
I20
F0.375
g452
tp1730
a(I25
I21
F1.0
g454
tp1731
a(I30
I0
F1.0
g570
tp1732
a(I30
I5
F1.0
g456
tp1733
a(I35
I4
F-0.5
g458
tp1734
a(I37
I11
F-0.25
g574
tp1735
a(I42
I5
F1.0
g460
tp1736
a(I43
I2
F1.0
g462
tp1737
a(I44
I13
F1.0
g578
tp1738
a(I45
I4
F-0.625
g464
tp1739
a(I47
I0
F-0.75
g191
tp1740
a(I47
I4
F0.875
g466
tp1741
a(I58
I5
F1.0
g468
tp1742
a(I59
I23
F0.5
g470
tp1743
a(I60
I11
F0.625
g585
tp1744
a(I64
I4
F0.375
g472
tp1745
a(I67
I2
I0
g193
tp1746
a(I67
I2
F-0.75
g195
tp1747
a(I70
I8
F1.0
g197
tp1748
a(I75
I2
F-0.5
g591
tp1749
a(I76
I6
F1.0
g477
tp1750
a(I77
I13
F-0.625
g594
tp1751
a(I78
I0
F0.125
g479
tp1752
a(I81
I4
F-0.625
g481
tp1753
a(I82
I4
F0.5
g483
tp1754
a(I84
I2
F-0.5
g485
tp1755
a(I85
I9
F-0.75
g201
tp1756
a(I87
I0
F-0.5
g601
tp1757
a(I87
I0
F-0.75
g603
tp1758
a(I90
I1
F-0.25
g488
tp1759
a(I93
I5
F1.0
g606
tp1760
a(I93
I6
F1.0
g490
tp1761
a(I93
I6
F0.75
g492
tp1762
a(I93
I6
F0.625
g494
tp1763
a(I95
I4
F1.0
g611
tp1764
a(I108
I1
F-0.75
g203
tp1765
a(I114
I8
F1.0
g614
tp1766
a(I114
I8
I0
g616
tp1767
a(I120
I54
I0
g496
tp1768
a(I120
I57
F1.0
g498
tp1769
a(I120
I59
F-0.375
g620
tp1770
a(I120
I100
F0.375
g622
tp1771
a(I121
I0
F0.125
g205
tp1772
a(I121
I0
F0.375
g207
tp1773
a(I121
I10
F0.5
g502
tp1774
a(I121
I10
F0.375
g504
tp1775
a(I125
I11
I0
g506
tp1776
a(I125
I11
I0
g508
tp1777
a(I125
I11
I0
g510
tp1778
a(I125
I14
F-0.75
g209
tp1779
a(I132
I0
I0
g512
tp1780
a(I133
I2
F-0.25
g632
tp1781
a(I135
I2
I0
g514
tp1782
a(I135
I2
F0.625
g516
tp1783
a(I135
I2
F-0.5
g518
tp1784
a(I136
I8
F-0.625
g637
tp1785
a(I136
I11
F-0.25
g639
tp1786
a(I137
I20
F0.375
g641
tp1787
a(I143
I11
F1.0
g643
tp1788
a(I150
I5
F-0.25
g645
tp1789
a(I150
I12
F-0.75
g211
tp1790
a(I150
I13
F0.375
g648
tp1791
a(I150
I14
F-0.75
g213
tp1792
a(I150
I14
I0
g215
tp1793
a(I152
I7
I0
g523
tp1794
a(I152
I7
F1.0
g525
tp1795
a(I153
I1
F-0.75
g217
tp1796
a(I157
I27
I0
g527
tp1797
a(I159
I5
F-0.25
g656
tp1798
a(I163
I30
F-0.25
g658
tp1799
a(I164
I5
F-0.75
g660
tp1800
a(I164
I5
F-0.25
g662
tp1801
a(I164
I5
F0.375
g664
tp1802
a(I166
I4
F0.25
g111
tp1803
a(I171
I5
F-0.5
g529
tp1804
a(I172
I0
I0
g668
tp1805
a(I176
I16
F-0.75
g219
tp1806
a(I176
I16
I0
g221
tp1807
a(I179
I6
F0.5
g672
tp1808
a(I180
I6
F-0.5
g531
tp1809
a(I180
I6
I0
g533
tp1810
a(I185
I1
F-0.375
g223
tp1811
a(I188
I15
F1.0
g536
tp1812
as(S'end'
p1813
S'of'
p1814
S'day'
p1815
tp1816
(lp1817
(I157
I17
I0
S'least'
p1818
tp1819
as(S'back'
p1820
tp1821
(lp1822
(I140
I5
I0
S'forth'
p1823
tp1824
a(I140
I5
I0
S'forth'
p1825
tp1826
as(S'blue'
p1827
S'tooth'
p1828
tp1829
(lp1830
(I93
I3
I0
S'automatic'
p1831
tp1832
a(I93
I3
I0
S'blue'
p1833
tp1834
a(I93
I4
I0
S'blue'
p1835
tp1836
a(I123
I2
I0
S'blue'
p1837
tp1838
a(I123
I6
I0
S'blue'
p1839
tp1840
a(I123
I8
I0
S'blue'
p1841
tp1842
as(S'life'
p1843
tp1844
(lp1845
(I0
I10
F-0.5
g428
tp1846
a(I0
I10
F-0.25
g430
tp1847
a(I6
I2
I0
g432
tp1848
a(I7
I12
F1.0
g434
tp1849
a(I18
I5
F1.0
g556
tp1850
a(I18
I5
F0.625
g558
tp1851
a(I20
I14
F-0.5
g448
tp1852
a(I22
I4
F1.0
g563
tp1853
a(I25
I20
F0.375
g452
tp1854
a(I25
I21
F1.0
g454
tp1855
a(I30
I0
F1.0
g570
tp1856
a(I35
I4
F-0.5
g458
tp1857
a(I44
I13
F1.0
g578
tp1858
a(I45
I4
F-0.625
g464
tp1859
a(I59
I23
F0.5
g470
tp1860
a(I60
I11
F0.625
g585
tp1861
a(I77
I13
F-0.625
g594
tp1862
a(I82
I4
F0.5
g483
tp1863
a(I84
I2
F-0.5
g485
tp1864
a(I87
I0
F-0.75
g603
tp1865
a(I93
I6
F0.75
g492
tp1866
a(I95
I4
F1.0
g611
tp1867
a(I102
I11
I0
S'great'
p1868
tp1869
a(I114
I8
F1.0
g614
tp1870
a(I114
I8
I0
g616
tp1871
a(I120
I54
I0
g496
tp1872
a(I120
I57
F1.0
g498
tp1873
a(I120
I59
F-0.375
g620
tp1874
a(I121
I10
F0.5
g502
tp1875
a(I125
I14
F-0.75
g209
tp1876
a(I133
I2
F-0.25
g632
tp1877
a(I135
I2
F-0.5
g518
tp1878
a(I136
I8
F-0.625
g637
tp1879
a(I136
I11
F-0.25
g639
tp1880
a(I137
I20
F0.375
g641
tp1881
a(I143
I11
F1.0
g643
tp1882
a(I150
I13
F0.375
g648
tp1883
a(I150
I14
I0
g215
tp1884
a(I152
I7
I0
g523
tp1885
a(I153
I1
F-0.75
g217
tp1886
a(I157
I27
I0
g527
tp1887
a(I163
I30
F-0.25
g658
tp1888
a(I164
I5
F-0.75
g660
tp1889
a(I164
I5
F-0.25
g662
tp1890
a(I164
I5
F0.375
g664
tp1891
a(I176
I16
F-0.75
g219
tp1892
a(I179
I6
F0.5
g672
tp1893
a(I180
I6
F-0.5
g531
tp1894
a(I185
I1
F-0.375
g223
tp1895
as(S'number'
p1896
S'of'
p1897
S'apps'
p1898
tp1899
(lp1900
(I120
I24
F1.0
S'best'
p1901
tp1902
a(I120
I24
I0
S'most'
p1903
tp1904
a(I120
I24
F-0.625
S'free'
p1905
tp1906
a(I120
I25
F0.375
S'available'
p1907
tp1908
a(I120
I25
I0
S'many'
p1909
tp1910
as(g102
S'full'
p1911
S'day'
p1912
tp1913
(lp1914
(I45
I7
F-0.625
S'moderate'
p1915
tp1916
a(I60
I13
I0
S'full'
p1917
tp1918
a(I75
I7
I0
S'full'
p1919
tp1920
a(I179
I6
I0
S'full'
p1921
tp1922
a(I185
I2
F0.875
S'lucky'
p1923
tp1924
a(I185
I2
I0
S'full'
p1925
tp1926
a(I188
I25
I0
S'least'
p1927
tp1928
a(I188
I25
I0
S'full'
p1929
tp1930
a(I188
I25
F-0.625
S'moderate'
p1931
tp1932
as(S'battery'
p1933
tp1934
(lp1935
(I0
I14
F1.0
S'better'
p1936
tp1937
a(I2
I6
F0.125
S'last'
p1938
tp1939
a(I3
I17
F0.25
S'powerful'
p1940
tp1941
a(I9
I10
F-0.375
g436
tp1942
a(I9
I13
F0.25
g438
tp1943
a(I9
I13
F0.625
g440
tp1944
a(I10
I23
F1.0
S'good'
p1945
tp1946
a(I10
I26
F0.25
S'larger'
p1947
tp1948
a(I13
I3
F0.375
S'extended'
p1949
tp1950
a(I16
I7
I0
g442
tp1951
a(I19
I0
I0
S'elementary'
p1952
tp1953
a(I19
I2
I0
S'young'
p1954
tp1955
a(I19
I3
F1.0
g444
tp1956
a(I19
I18
F-0.625
S'bad'
p1957
tp1958
a(I19
I25
F0.375
S'extra'
p1959
tp1960
a(I19
I28
I0
S'external'
p1961
tp1962
a(I20
I14
I0
g446
tp1963
a(I22
I4
F0.375
g565
tp1964
a(I24
I1
I0
g450
tp1965
a(I25
I22
I0
S'standard'
p1966
tp1967
a(I25
I22
F1.0
S'better'
p1968
tp1969
a(I28
I5
F0.375
g1314
tp1970
a(I30
I5
F1.0
g456
tp1971
a(I36
I0
F-0.5
S'weak'
p1972
tp1973
a(I36
I8
F1.0
S'better'
p1974
tp1975
a(I37
I11
F-0.25
g574
tp1976
a(I42
I5
F1.0
g460
tp1977
a(I43
I0
I0
S'very'
p1978
tp1979
a(I43
I0
I0
S'active'
p1980
tp1981
a(I43
I2
F1.0
g462
tp1982
a(I45
I5
I0
S'deplete'
p1983
tp1984
a(I45
I30
F-0.375
S'unacceptable'
p1985
tp1986
a(I47
I0
F-0.75
g191
tp1987
a(I47
I4
F0.875
g466
tp1988
a(I50
I22
F0.375
S'extra'
p1989
tp1990
a(I52
I3
I0
S'standard'
p1991
tp1992
a(I52
I3
F-0.5
S'inadequate'
p1993
tp1994
a(I58
I5
F1.0
g468
tp1995
a(I64
I4
F0.375
g472
tp1996
a(I67
I2
I0
g193
tp1997
a(I67
I2
F-0.75
g195
tp1998
a(I70
I8
F1.0
g197
tp1999
a(I73
I9
F0.25
S'larger'
p2000
tp2001
a(I75
I2
F-0.5
g591
tp2002
a(I76
I6
F1.0
g477
tp2003
a(I78
I0
F0.125
g479
tp2004
a(I78
I1
F0.125
S'last'
p2005
tp2006
a(I78
I2
F0.125
S'last'
p2007
tp2008
a(I81
I4
F-0.625
g481
tp2009
a(I82
I5
F0.375
g1318
tp2010
a(I85
I9
F-0.75
g201
tp2011
a(I86
I4
F0.375
g1320
tp2012
a(I87
I0
F-0.5
g601
tp2013
a(I90
I1
F-0.25
g488
tp2014
a(I91
I2
F0.375
g1322
tp2015
a(I93
I5
F1.0
g606
tp2016
a(I93
I6
F1.0
g490
tp2017
a(I93
I6
F0.625
g494
tp2018
a(I97
I14
F0.625
S'removable'
p2019
tp2020
a(I108
I1
F-0.75
g203
tp2021
a(I108
I6
F0.25
g107
tp2022
a(I111
I3
F1.0
S'better'
p2023
tp2024
a(I112
I23
I0
S'same'
p2025
tp2026
a(I112
I23
I0
S'incredible'
p2027
tp2028
a(I112
I24
I0
g1324
tp2029
a(I112
I24
F0.375
g1326
tp2030
a(I120
I100
F0.375
g622
tp2031
a(I121
I0
F0.125
g205
tp2032
a(I121
I0
F0.375
g207
tp2033
a(I121
I10
F0.375
g504
tp2034
a(I125
I11
I0
g506
tp2035
a(I125
I11
I0
g508
tp2036
a(I125
I11
I0
g510
tp2037
a(I131
I9
F-0.75
S'little'
p2038
tp2039
a(I131
I20
I0
S'faster'
p2040
tp2041
a(I131
I32
F0.25
g109
tp2042
a(I131
I33
F0.25
S'original'
p2043
tp2044
a(I132
I0
I0
g512
tp2045
a(I133
I9
I0
S're-starting'
p2046
tp2047
a(I135
I2
I0
g514
tp2048
a(I135
I2
F0.625
g516
tp2049
a(I150
I5
F-0.25
g645
tp2050
a(I150
I12
F-0.75
g211
tp2051
a(I150
I14
F-0.75
g213
tp2052
a(I152
I7
F1.0
g525
tp2053
a(I152
I12
F0.375
g1331
tp2054
a(I152
I13
F0.375
S'extended'
p2055
tp2056
a(I152
I59
F0.375
g1333
tp2057
a(I152
I66
F-0.625
S'other'
p2058
tp2059
a(I152
I101
I0
g1335
tp2060
a(I152
I101
I0
g1337
tp2061
a(I154
I0
F0.125
S'last'
p2062
tp2063
a(I158
I1
F0.375
S'extra'
p2064
tp2065
a(I159
I5
F-0.25
g656
tp2066
a(I159
I9
F0.375
g1526
tp2067
a(I165
I4
I0
S'only'
p2068
tp2069
a(I165
I4
F-0.875
S'negative'
p2070
tp2071
a(I166
I4
F0.25
g111
tp2072
a(I168
I8
I0
S'reinstall'
p2073
tp2074
a(I171
I5
F-0.5
g529
tp2075
a(I172
I0
I0
g668
tp2076
a(I172
I3
F-0.5
S'longer'
p2077
tp2078
a(I176
I16
I0
g221
tp2079
a(I177
I13
F1.0
g113
tp2080
a(I177
I13
F0.25
g115
tp2081
a(I180
I6
I0
g533
tp2082
a(I185
I4
F0.25
S'powerful'
p2083
tp2084
a(I185
I14
F-0.25
S'low'
p2085
tp2086
a(I186
I2
F0.25
g117
tp2087
a(I188
I15
F1.0
g536
tp2088
a(I188
I22
F0.375
S'much'
p2089
tp2090
a(I192
I6
F0.375
S'extended'
p2091
tp2092
as(S'right'
p2093
tp2094
(lp2095
(I14
I4
F-0.375
S'black'
p2096
tp2097
a(I50
I0
I0
S'incredible'
p2098
tp2099
as(S'calls'
p2100
tp2101
(lp2102
(I9
I17
F0.75
S'due'
p2103
tp2104
a(I35
I2
I0
S'more'
p2105
tp2106
a(I53
I14
I0
S'more'
p2107
tp2108
a(I59
I5
F-0.25
S'dropped'
p2109
tp2110
a(I73
I3
F-0.25
S'dropped'
p2111
tp2112
a(I91
I8
I0
S'multiple'
p2113
tp2114
a(I96
I3
I0
S'more'
p2115
tp2116
a(I106
I4
I0
S'angry'
p2117
tp2118
a(I152
I38
F0.125
S'able'
p2119
tp2120
a(I152
I64
I0
S'few'
p2121
tp2122
a(I184
I8
I0
S'signal'
p2123
tp2124
as(S'voice'
p2125
S'recognition'
p2126
tp2127
(lp2128
(I3
I8
I0
S'cool'
p2129
tp2130
a(I9
I3
F0.5
S'accurate'
p2131
tp2132
a(I53
I2
F0.375
S'much'
p2133
tp2134
a(I127
I14
I0
S'great'
p2135
tp2136
a(I138
I4
F-0.625
g1450
tp2137
as(S'update'
p2138
tp2139
(lp2140
(I7
I3
I0
S'android'
p2141
tp2142
a(I24
I2
F0.125
S'first'
p2143
tp2144
a(I35
I5
I0
S'android'
p2145
tp2146
a(I120
I15
I0
S'least'
p2147
tp2148
a(I120
I98
F-0.25
S'ready'
p2149
tp2150
a(I120
I99
F-0.25
S'google'
p2151
tp2152
a(I120
I99
F-0.25
S'direct'
p2153
tp2154
a(I120
I107
F0.375
S'new'
p2155
tp2156
a(I125
I7
I0
S'next'
p2157
tp2158
as(g102
S'car'
p2159
S'charger'
p2160
tp2161
(lp2162
(I120
I56
I0
S'update'
p2163
tp2164
a(I146
I15
I0
S'optional'
p2165
tp2166
a(I185
I3
F-0.5
S'afraid'
p2167
tp2168
as(S'haptic'
p2169
S'feedback'
p2170
tp2171
(lp2172
(I35
I4
I0
S'haptic'
p2173
tp2174
a(I125
I6
I0
S'haptic'
p2175
tp2176
a(I125
I6
I0
S'haptic'
p2177
tp2178
a(I127
I4
I0
S'haptic'
p2179
tp2180
a(I127
I4
I0
S'haptic'
p2181
tp2182
a(I131
I6
I0
S'haptic'
p2183
tp2184
a(I131
I6
F0.25
S'helpful'
p2185
tp2186
as(S'time'
p2187
tp2188
(lp2189
(I0
I0
F-0.5
g1358
tp2190
a(I6
I2
I0
S'big'
p2191
tp2192
a(I9
I3
I0
S'great'
p2193
tp2194
a(I10
I11
F-0.875
S'harder'
p2195
tp2196
a(I19
I1
F0.5
S'second'
p2197
tp2198
a(I19
I1
F0.25
S'favorite'
p2199
tp2200
a(I23
I39
F0.5
S'second'
p2201
tp2202
a(I23
I50
I0
S'same'
p2203
tp2204
a(I40
I0
F-0.5
g1360
tp2205
a(I45
I6
I0
S'same'
p2206
tp2207
a(I46
I3
I0
S'most'
p2208
tp2209
a(I47
I4
F0.5
S'functional'
p2210
tp2211
a(I66
I0
I0
S'same'
p2212
tp2213
a(I66
I0
I0
S'same'
p2214
tp2215
a(I69
I16
F0.125
S'first'
p2216
tp2217
a(I77
I0
F-0.5
g1362
tp2218
a(I85
I4
F-0.5
g1364
tp2219
a(I85
I16
F0.125
S'first'
p2220
tp2221
a(I85
I19
F0.125
S'first'
p2222
tp2223
a(I85
I19
I0
S'next'
p2224
tp2225
a(I94
I15
F0.375
S'prime'
p2226
tp2227
a(I101
I1
I0
S'next'
p2228
tp2229
a(I106
I2
F-0.5
g1366
tp2230
a(I106
I2
I0
g1368
tp2231
a(I114
I11
F0.125
S'first'
p2232
tp2233
a(I115
I0
F-0.25
S'd'
p2234
tp2235
a(I120
I28
I0
S'same'
p2236
tp2237
a(I120
I43
I0
g1370
tp2238
a(I120
I90
F0.125
S'first'
p2239
tp2240
a(I132
I0
F1.0
S'better'
p2241
tp2242
a(I143
I12
F-0.5
S'sure'
p2243
tp2244
a(I146
I17
F-0.5
g1372
tp2245
a(I146
I17
F0.125
g1374
tp2246
a(I150
I17
F-0.625
S'save'
p2247
tp2248
a(I151
I0
F0.5
S'whole'
p2249
tp2250
a(I152
I63
F-0.5
S'less'
p2251
tp2252
a(I155
I4
F0.125
S'first'
p2253
tp2254
a(I155
I41
I0
S'same'
p2255
tp2256
a(I157
I17
F0.375
S'much'
p2257
tp2258
a(I163
I23
I0
S'same'
p2259
tp2260
a(I173
I0
F-0.75
S'difficult'
p2261
tp2262
a(I173
I0
F0.125
S'able'
p2263
tp2264
a(I178
I17
F-0.75
S'single'
p2265
tp2266
a(I179
I3
I0
S'full'
p2267
tp2268
a(I181
I5
F0.125
S'first'
p2269
tp2270
as(S'of'
p2271
S'battery'
p2272
S'life'
p2273
tp2274
(lp2275
(I6
I2
I0
g432
tp2276
a(I7
I12
F1.0
g434
tp2277
a(I9
I13
F0.25
g438
tp2278
a(I9
I13
F0.625
g440
tp2279
a(I19
I3
F1.0
g444
tp2280
a(I30
I5
F1.0
g456
tp2281
a(I35
I4
F-0.5
g458
tp2282
a(I59
I23
F0.5
g470
tp2283
a(I70
I8
F1.0
g197
tp2284
a(I76
I6
F1.0
g477
tp2285
a(I84
I2
F-0.5
g485
tp2286
a(I87
I0
F-0.5
g601
tp2287
a(I87
I0
F-0.75
g603
tp2288
a(I108
I1
F-0.75
g203
tp2289
a(I114
I8
F1.0
g614
tp2290
a(I114
I8
I0
g616
tp2291
a(I120
I100
F0.375
g622
tp2292
a(I121
I0
F0.125
g205
tp2293
a(I121
I0
F0.375
g207
tp2294
a(I121
I10
F0.5
g502
tp2295
a(I121
I10
F0.375
g504
tp2296
a(I125
I11
I0
g506
tp2297
a(I125
I11
I0
g508
tp2298
a(I125
I11
I0
g510
tp2299
a(I132
I0
I0
g512
tp2300
a(I150
I14
F-0.75
g213
tp2301
a(I150
I14
I0
g215
tp2302
a(I176
I16
F-0.75
g219
tp2303
a(I176
I16
I0
g221
tp2304
a(I180
I6
F-0.5
g531
tp2305
a(I180
I6
I0
g533
tp2306
a(I185
I1
F-0.375
g223
tp2307
a(I188
I15
F1.0
g536
tp2308
as(S'gmail'
p2309
tp2310
(lp2311
(I12
I1
F-0.25
S'google'
p2312
tp2313
a(I45
I3
F1.0
S'good'
p2314
tp2315
a(I72
I2
F0.125
S'native'
p2316
tp2317
a(I97
I13
F-0.25
S'google'
p2318
tp2319
a(I103
I6
I0
S'translate'
p2320
tp2321
a(I113
I6
F0.125
S'first'
p2322
tp2323
a(I113
I6
F0.125
S'first'
p2324
tp2325
a(I192
I10
F-0.625
S'other'
p2326
tp2327
as(S'android'
p2328
S'market'
p2329
tp2330
(lp2331
(I21
I22
F1.0
g1381
tp2332
a(I35
I2
I0
g1194
tp2333
a(I50
I18
I0
g1196
tp2334
a(I68
I0
I0
g1198
tp2335
a(I68
I4
I0
g1200
tp2336
a(I68
I8
I0
g1202
tp2337
a(I70
I6
I0
g1204
tp2338
a(I91
I7
I0
g1206
tp2339
a(I120
I62
I0
g1208
tp2340
a(I121
I0
I0
g1210
tp2341
a(I121
I1
I0
g1212
tp2342
a(I121
I1
I0
g1214
tp2343
a(I152
I21
I0
g1216
tp2344
a(I152
I25
I0
g1218
tp2345
a(I152
I39
I0
g1220
tp2346
a(I178
I8
F0.5
g1224
tp2347
a(I178
I8
I0
g1226
tp2348
a(I178
I24
I0
g1228
tp2349
a(I183
I7
I0
g1230
tp2350
as(S'cons'
p2351
S'battery'
p2352
S'life'
p2353
tp2354
(lp2355
(I6
I2
I0
g432
tp2356
a(I44
I13
F1.0
g578
tp2357
a(I59
I23
F0.5
g470
tp2358
a(I64
I4
F0.375
g472
tp2359
a(I179
I6
F0.5
g672
tp2360
a(I185
I1
F-0.375
g223
tp2361
as(S'touch'
p2362
S'screen'
p2363
tp2364
(lp2365
(I0
I20
F0.5
S'touch'
p2366
tp2367
a(I21
I6
I0
g228
tp2368
a(I59
I33
F-0.75
S'single'
p2369
tp2370
a(I59
I33
F0.25
S'responsive'
p2371
tp2372
a(I62
I1
F0.5
S'touch'
p2373
tp2374
a(I73
I7
I0
g230
tp2375
a(I88
I7
F-0.5
S'afraid'
p2376
tp2377
a(I88
I7
F0.5
S'touch'
p2378
tp2379
a(I120
I33
F0.25
S'responsive'
p2380
tp2381
a(I120
I33
F0.25
S'responsive'
p2382
tp2383
a(I124
I16
F0.5
S'touch'
p2384
tp2385
a(I153
I3
F-0.125
S'super'
p2386
tp2387
a(I153
I3
F0.625
S'easy'
p2388
tp2389
a(I153
I3
F0.125
S'adjust'
p2390
tp2391
a(I161
I12
F0.5
S'touch'
p2392
tp2393
a(I168
I6
F0.5
S'touch'
p2394
tp2395
a(I168
I6
F-0.75
S'unresponsive'
p2396
tp2397
a(I185
I1
F0.125
g238
tp2398
as(S'motorola'
p2399
S'droid'
p2400
tp2401
(lp2402
(I168
I13
F0.25
g1118
tp2403
a(I168
I13
F0.375
g1120
tp2404
a(I168
I13
I0
g1122
tp2405
a(I168
I13
F-0.75
g1124
tp2406
as(S'navigation'
p2407
tp2408
(lp2409
(I0
I15
F-0.625
S'free'
p2410
tp2411
a(I7
I18
I0
S'more'
p2412
tp2413
a(I7
I18
F-0.25
S'google'
p2414
tp2415
a(I23
I30
F-0.25
S'google'
p2416
tp2417
a(I66
I0
F-0.25
S'google'
p2418
tp2419
a(I66
I1
F-0.25
S'google'
p2420
tp2421
a(I66
I5
F-0.25
S'google'
p2422
tp2423
a(I131
I17
F-0.25
g288
tp2424
a(I131
I17
F0.5
g290
tp2425
a(I177
I1
F-0.25
S'google'
p2426
tp2427
a(I177
I3
F0.125
S'key'
p2428
tp2429
a(I177
I3
F1.0
S'good'
p2430
tp2431
a(I177
I3
F-0.25
S'google'
p2432
tp2433
as(S'better'
p2434
S'battery'
p2435
tp2436
(lp2437
(I0
I14
F1.0
g1936
tp2438
a(I3
I17
F0.25
g1940
tp2439
a(I19
I3
F1.0
g444
tp2440
a(I25
I22
I0
g1966
tp2441
a(I25
I22
F1.0
g1968
tp2442
a(I36
I8
F1.0
g1974
tp2443
a(I42
I5
F1.0
g460
tp2444
a(I43
I2
F1.0
g462
tp2445
a(I58
I5
F1.0
g468
tp2446
a(I70
I8
F1.0
g197
tp2447
a(I76
I6
F1.0
g477
tp2448
a(I93
I6
F1.0
g490
tp2449
a(I93
I6
F0.625
g494
tp2450
a(I111
I3
F1.0
g2023
tp2451
a(I120
I100
F0.375
g622
tp2452
a(I132
I0
I0
g512
tp2453
a(I152
I7
F1.0
g525
tp2454
a(I177
I13
F1.0
g113
tp2455
a(I177
I13
F0.25
g115
tp2456
a(I188
I15
F1.0
g536
tp2457
as(S'android'
p2458
S'os'
p2459
tp2460
(lp2461
(I21
I22
F1.0
g1381
tp2462
a(I23
I16
I0
S'android'
p2463
tp2464
a(I35
I0
I0
S'android'
p2465
tp2466
a(I42
I5
I0
S'android'
p2467
tp2468
a(I42
I5
I0
S'efficient'
p2469
tp2470
a(I50
I1
I0
S'android'
p2471
tp2472
a(I60
I18
I0
S'summary'
p2473
tp2474
a(I60
I18
I0
S'android'
p2475
tp2476
a(I64
I0
I0
S'android'
p2477
tp2478
a(I85
I0
I0
g1385
tp2479
a(I96
I1
I0
S'android'
p2480
tp2481
a(I120
I81
I0
S'android'
p2482
tp2483
a(I120
I81
F0.625
S'superior'
p2484
tp2485
a(I120
I86
I0
S'android'
p2486
tp2487
a(I120
I86
F-0.75
S'wrong'
p2488
tp2489
a(I123
I7
F0.125
g1387
tp2490
a(I145
I0
I0
S'android'
p2491
tp2492
a(I151
I3
I0
S'quick'
p2493
tp2494
a(I151
I3
F0.25
S'responsive'
p2495
tp2496
a(I155
I12
I0
S'android'
p2497
tp2498
a(I155
I12
F-0.5
S'sure'
p2499
tp2500
a(I159
I28
I0
g1397
tp2501
a(I159
I30
I0
S'android'
p2502
tp2503
a(I159
I33
I0
S'android'
p2504
tp2505
a(I163
I17
I0
g1399
tp2506
a(I172
I7
F0.5
S'true'
p2507
tp2508
a(I172
I7
I0
S'android'
p2509
tp2510
a(I183
I7
I0
S'android'
p2511
tp2512
a(I183
I7
F0.625
S'superior'
p2513
tp2514
as(S'screen'
p2515
tp2516
(lp2517
(I0
I20
F0.5
g2366
tp2518
a(I4
I13
F0.875
S'nice'
p2519
tp2520
a(I5
I11
F0.75
S'beautiful'
p2521
tp2522
a(I9
I4
I0
S'incredible'
p2523
tp2524
a(I12
I5
F-0.5
S'disappear'
p2525
tp2526
a(I15
I5
F0.25
S'responsive'
p2527
tp2528
a(I20
I5
F-0.375
S'small'
p2529
tp2530
a(I21
I8
I0
S'same'
p2531
tp2532
a(I35
I7
F-0.625
S'other'
p2533
tp2534
a(I39
I2
I0
S'entire'
p2535
tp2536
a(I44
I6
F0.75
S'beautiful'
p2537
tp2538
a(I52
I7
F0.25
S'larger'
p2539
tp2540
a(I53
I2
F0.25
S'larger'
p2541
tp2542
a(I59
I33
F-0.75
g2369
tp2543
a(I59
I33
F0.25
g2371
tp2544
a(I62
I1
F0.5
g2373
tp2545
a(I67
I2
F-0.75
S'impossible'
p2546
tp2547
a(I69
I2
I0
S'large'
p2548
tp2549
a(I69
I5
F0.25
S'larger'
p2550
tp2551
a(I69
I5
F-0.75
S'comfortable'
p2552
tp2553
a(I81
I1
I0
S'large'
p2554
tp2555
a(I81
I1
I0
S'net'
p2556
tp2557
a(I88
I7
F-0.5
g2376
tp2558
a(I88
I7
F0.5
g2378
tp2559
a(I95
I1
F0.875
S'nice'
p2560
tp2561
a(I103
I1
F0.25
S'larger'
p2562
tp2563
a(I116
I18
I0
S'great'
p2564
tp2565
a(I120
I14
F-0.625
S'other'
p2566
tp2567
a(I120
I33
F0.25
g2380
tp2568
a(I120
I33
F0.25
g2382
tp2569
a(I120
I37
F0.25
S'main'
p2570
tp2571
a(I120
I46
F1.0
S'best'
p2572
tp2573
a(I120
I48
F1.0
S'best'
p2574
tp2575
a(I120
I48
F0.375
S'available'
p2576
tp2577
a(I124
I16
F0.5
g2384
tp2578
a(I124
I18
F0.875
S'music'
p2579
tp2580
a(I131
I1
F0.25
S'larger'
p2581
tp2582
a(I135
I4
F-0.75
S'impossible'
p2583
tp2584
a(I146
I22
F-0.5
S'sure'
p2585
tp2586
a(I150
I20
I0
S'incredible'
p2587
tp2588
a(I152
I10
F0.25
S'larger'
p2589
tp2590
a(I153
I3
F-0.125
g2386
tp2591
a(I153
I3
F0.625
g2388
tp2592
a(I153
I3
F0.125
g2390
tp2593
a(I161
I2
F1.0
S'good'
p2594
tp2595
a(I161
I6
F0.375
S'similar'
p2596
tp2597
a(I161
I12
F0.5
g2392
tp2598
a(I162
I1
I0
S'large'
p2599
tp2600
a(I168
I6
F0.5
g2394
tp2601
a(I168
I6
F-0.75
g2396
tp2602
a(I172
I1
I0
S'great'
p2603
tp2604
a(I172
I1
F1.0
S'good'
p2605
tp2606
a(I173
I24
F-0.875
S'hard'
p2607
tp2608
a(I177
I16
F0.625
S'washed'
p2609
tp2610
a(I178
I0
I0
g932
tp2611
as(S'sd'
p2612
S'cards'
p2613
tp2614
(lp2615
(I93
I9
F0.375
S'extra'
p2616
tp2617
as(S'everything'
p2618
tp2619
(lp2620
(I10
I23
F-0.625
S'other'
p2621
tp2622
a(I23
I43
F0.5
S'clear'
p2623
tp2624
a(I24
I1
F0.625
S'easy'
p2625
tp2626
a(I53
I9
I0
S'online'
p2627
tp2628
a(I72
I10
I0
S'incredible'
p2629
tp2630
a(I112
I3
I0
S'incredible'
p2631
tp2632
a(I120
I43
I0
S'most'
p2633
tp2634
a(I120
I43
I0
S'quick'
p2635
tp2636
a(I120
I99
I0
S'exact'
p2637
tp2638
a(I144
I1
F1.0
S'good'
p2639
tp2640
a(I164
I2
F-0.25
S'google'
p2641
tp2642
a(I164
I2
F0.625
S'perfect'
p2643
tp2644
as(g102
S'screen'
p2645
S'protector'
p2646
tp2647
(lp2648
(I36
I2
I0
S'plastic'
p2649
tp2650
a(I146
I22
F-0.5
g2585
tp2651
as(S'camera'
p2652
tp2653
(lp2654
(I3
I3
F-0.625
S'other'
p2655
tp2656
a(I5
I2
I0
S'great'
p2657
tp2658
a(I9
I6
I0
S'incredible'
p2659
tp2660
a(I15
I1
I0
S'great'
p2661
tp2662
a(I22
I2
F0.875
S'nice'
p2663
tp2664
a(I22
I2
I0
S'great'
p2665
tp2666
a(I23
I14
I0
S'great'
p2667
tp2668
a(I25
I3
I0
S'faster'
p2669
tp2670
a(I25
I3
I0
S'more'
p2671
tp2672
a(I25
I3
F1.0
S'better'
p2673
tp2674
a(I27
I1
I0
S'great'
p2675
tp2676
a(I27
I1
F1.0
S'best'
p2677
tp2678
a(I31
I9
F-0.625
S'bad'
p2679
tp2680
a(I44
I11
F1.0
S'good'
p2681
tp2682
a(I60
I16
F1.0
S'better'
p2683
tp2684
a(I67
I3
F0.5
g89
tp2685
a(I73
I7
I0
S'great'
p2686
tp2687
a(I88
I8
I0
S'more'
p2688
tp2689
a(I93
I0
F-0.125
S'front'
p2690
tp2691
a(I99
I2
F0.125
S'digital'
p2692
tp2693
a(I102
I6
F-0.875
S'hard'
p2694
tp2695
a(I103
I7
I0
S'great'
p2696
tp2697
a(I110
I4
I0
S'great'
p2698
tp2699
a(I113
I6
F1.0
S'good'
p2700
tp2701
a(I118
I6
I0
S'great'
p2702
tp2703
a(I118
I6
F-0.375
S'simple'
p2704
tp2705
a(I124
I12
F0.75
g91
tp2706
a(I124
I14
I0
S'incredible'
p2707
tp2708
a(I124
I15
I0
S'incredible'
p2709
tp2710
a(I124
I15
I0
S'physical'
p2711
tp2712
a(I142
I7
I0
S'great'
p2713
tp2714
a(I152
I50
I0
S'close'
p2715
tp2716
a(I152
I50
F1.0
S'best'
p2717
tp2718
a(I152
I54
I0
S'more'
p2719
tp2720
a(I152
I54
F0.625
S'convenient'
p2721
tp2722
a(I152
I55
I0
S'such'
p2723
tp2724
a(I176
I13
F0.625
S'polish'
p2725
tp2726
a(I187
I6
I0
S'great'
p2727
tp2728
a(I188
I21
F0.875
S'nice'
p2729
tp2730
as(S'using'
p2731
tp2732
(lp2733
(I120
I1
F0.5
S'bold'
p2734
tp2735
as(S'advanced'
p2736
S'task'
p2737
S'killer'
p2738
tp2739
(lp2740
(I7
I18
F0.5
S'advanced'
p2741
tp2742
a(I7
I18
F-0.625
S'free'
p2743
tp2744
a(I150
I16
F-0.125
S'super'
p2745
tp2746
a(I153
I4
F0.5
S'advanced'
p2747
tp2748
a(I190
I4
F0.5
S'advanced'
p2749
tp2750
a(I190
I4
F-0.625
S'free'
p2751
tp2752
a(I190
I5
F0.5
S'advanced'
p2753
tp2754
as(S'need'
p2755
tp2756
(lp2757
(I159
I24
F-0.5
S'longer'
p2758
tp2759
as(S'reading'
p2760
S'glasses'
p2761
tp2762
(lp2763
(I120
I86
I0
S'incredible'
p2764
tp2765
as(S'find'
p2766
tp2767
(lp2768
(I181
I1
F0.25
S'original'
p2769
tp2770
as(S'extended'
p2771
S'battery'
p2772
tp2773
(lp2774
(I13
I3
F0.375
g1949
tp2775
a(I22
I4
F0.375
g565
tp2776
a(I28
I5
F0.375
g1314
tp2777
a(I64
I4
F0.375
g472
tp2778
a(I81
I4
F-0.625
g481
tp2779
a(I82
I5
F0.375
g1318
tp2780
a(I86
I4
F0.375
g1320
tp2781
a(I91
I2
F0.375
g1322
tp2782
a(I112
I24
I0
g1324
tp2783
a(I112
I24
F0.375
g1326
tp2784
a(I121
I0
F0.125
g205
tp2785
a(I121
I0
F0.375
g207
tp2786
a(I121
I10
F0.375
g504
tp2787
a(I152
I12
F0.375
g1331
tp2788
a(I152
I13
F0.375
g2055
tp2789
a(I152
I59
F0.375
g1333
tp2790
a(I152
I101
I0
g1335
tp2791
a(I152
I101
I0
g1337
tp2792
a(I192
I6
F0.375
g2091
tp2793
as(S'signal'
p2794
tp2795
(lp2796
(I9
I17
F-0.25
g1536
tp2797
a(I96
I10
F-0.25
g1544
tp2798
a(I136
I20
F-0.5
g1550
tp2799
as(S'htc'
p2800
S'sense'
p2801
tp2802
(lp2803
(I38
I10
F0.875
g951
tp2804
a(I103
I4
F1.0
g953
tp2805
a(I136
I16
F0.875
g955
tp2806
a(I163
I17
I0
g1684
tp2807
as(S'people'
p2808
tp2809
(lp2810
(I23
I6
F0.875
S'happy'
p2811
tp2812
a(I27
I5
F-0.25
S'google'
p2813
tp2814
a(I40
I2
I0
S'many'
p2815
tp2816
a(I114
I8
I0
S'different'
p2817
tp2818
a(I120
I11
I0
S'many'
p2819
tp2820
a(I120
I129
I0
S'fewer'
p2821
tp2822
a(I120
I129
I0
S'fewer'
p2823
tp2824
a(I133
I12
I0
S'different'
p2825
tp2826
a(I143
I14
F-0.5
S'long'
p2827
tp2828
a(I144
I4
I0
S'most'
p2829
tp2830
a(I169
I1
F-0.625
S'other'
p2831
tp2832
a(I169
I11
I0
S'most'
p2833
tp2834
a(I169
I12
I0
S'most'
p2835
tp2836
a(I173
I53
F-0.375
S'top'
p2837
tp2838
a(I178
I22
F0.125
S'first'
p2839
tp2840
a(I179
I3
I0
S'only'
p2841
tp2842
a(I188
I9
I0
S'few'
p2843
tp2844
as(g102
S'larger'
p2845
S'screen'
p2846
tp2847
(lp2848
(I9
I4
I0
g2523
tp2849
a(I52
I7
F0.25
g2539
tp2850
a(I53
I2
F0.25
g2541
tp2851
a(I69
I5
F0.25
g2550
tp2852
a(I69
I5
F-0.75
g2552
tp2853
a(I103
I1
F0.25
g2562
tp2854
a(I120
I59
F0.375
S'much'
p2855
tp2856
a(I131
I1
F0.25
g2581
tp2857
a(I152
I10
F0.25
g2589
tp2858
as(S'htc'
p2859
S'sense'
p2860
S'ui'
p2861
tp2862
(lp2863
(I55
I2
F-0.375
S'top'
p2864
tp2865
a(I55
I2
I0
S'android'
p2866
tp2867
a(I98
I6
I0
S'great'
p2868
tp2869
a(I136
I16
F0.875
g955
tp2870
a(I163
I17
I0
g1684
tp2871
as(S'many'
p2872
S'apps'
p2873
tp2874
(lp2875
(I27
I4
I0
S'many'
p2876
tp2877
a(I53
I5
I0
S'useful'
p2878
tp2879
a(I62
I3
I0
S'many'
p2880
tp2881
a(I62
I3
F0.375
S'available'
p2882
tp2883
a(I65
I3
F0.625
S'convenient'
p2884
tp2885
a(I68
I2
F-0.75
S'inappropriate'
p2886
tp2887
a(I68
I2
I0
S'many'
p2888
tp2889
a(I77
I5
I0
S'many'
p2890
tp2891
a(I91
I7
I0
S'many'
p2892
tp2893
a(I91
I7
I0
S'great'
p2894
tp2895
a(I94
I2
I0
S'many'
p2896
tp2897
a(I94
I2
I0
S'great'
p2898
tp2899
a(I94
I2
F1.0
S'better'
p2900
tp2901
a(I103
I1
I0
S'more'
p2902
tp2903
a(I103
I1
F0.375
S'flexible'
p2904
tp2905
a(I103
I1
I0
S'many'
p2906
tp2907
a(I108
I0
I0
S'cool'
p2908
tp2909
a(I108
I2
I0
S'many'
p2910
tp2911
a(I111
I2
I0
S'many'
p2912
tp2913
a(I114
I4
I0
S'many'
p2914
tp2915
a(I120
I25
F0.375
g1907
tp2916
a(I120
I25
I0
g1909
tp2917
a(I120
I27
I0
S'many'
p2918
tp2919
a(I120
I27
I0
S'useful'
p2920
tp2921
a(I120
I27
F-0.625
S'free'
p2922
tp2923
a(I120
I28
I0
S'many'
p2924
tp2925
a(I120
I28
F0.375
S'available'
p2926
tp2927
a(I131
I17
I0
S'many'
p2928
tp2929
a(I131
I17
I0
S'many'
p2930
tp2931
a(I137
I2
I0
S'many'
p2932
tp2933
a(I153
I4
I0
S'many'
p2934
tp2935
a(I155
I36
I0
S'many'
p2936
tp2937
a(I178
I8
I0
S'many'
p2938
tp2939
a(I178
I8
I0
S'many'
p2940
tp2941
a(I188
I26
F0.875
S'music'
p2942
tp2943
as(S'open'
p2944
S'source'
p2945
tp2946
(lp2947
(I21
I30
I0
S'big'
p2948
tp2949
a(I21
I30
F-0.5
S'open'
p2950
tp2951
a(I150
I9
F-0.5
S'open'
p2952
tp2953
a(I181
I10
F-0.5
S'open'
p2954
tp2955
as(g102
S'big'
p2956
S'deal'
p2957
tp2958
(lp2959
(I38
I9
I0
S'big'
p2960
tp2961
a(I120
I106
I0
S'big'
p2962
tp2963
a(I120
I126
I0
S'big'
p2964
tp2965
a(I120
I126
I0
S'many'
p2966
tp2967
a(I152
I72
I0
S'big'
p2968
tp2969
a(I153
I2
I0
S'big'
p2970
tp2971
a(I163
I15
I0
S'big'
p2972
tp2973
a(I163
I25
I0
S'big'
p2974
tp2975
as(S'store'
p2976
tp2977
(lp2978
(I124
I33
I0
g403
tp2979
a(I124
I33
I0
g405
tp2980
a(I146
I28
I0
S'incredible'
p2981
tp2982
a(I152
I23
I0
g407
tp2983
a(I178
I19
F-0.125
S'mine'
p2984
tp2985
a(I188
I10
I0
g409
tp2986
a(I188
I10
I0
g411
tp2987
as(S'better'
p2988
tp2989
(lp2990
(I18
I2
F0.375
S'much'
p2991
tp2992
a(I114
I12
F-0.125
g989
tp2993
a(I120
I41
F0.375
g385
tp2994
a(I124
I32
I0
S'android'
p2995
tp2996
a(I182
I3
F0.375
S'much'
p2997
tp2998
as(S'device'
p2999
tp3000
(lp3001
(I8
I16
F0.875
S'happy'
p3002
tp3003
a(I12
I12
F0.375
S'reliable'
p3004
tp3005
a(I12
I13
I0
S'more'
p3006
tp3007
a(I49
I1
I0
g174
tp3008
a(I50
I1
I0
S'large'
p3009
tp3010
a(I50
I7
F0.875
S'attractive'
p3011
tp3012
a(I50
I15
I0
S'particular'
p3013
tp3014
a(I53
I0
I0
S'incredible'
p3015
tp3016
a(I56
I1
I0
g176
tp3017
a(I63
I1
I0
g178
tp3018
a(I66
I6
I0
S'incredible'
p3019
tp3020
a(I69
I16
I0
S'android'
p3021
tp3022
a(I102
I0
F-0.625
S'other'
p3023
tp3024
a(I112
I5
F-0.625
S'other'
p3025
tp3026
a(I114
I12
I0
g180
tp3027
a(I120
I1
I0
S'android'
p3028
tp3029
a(I120
I45
I0
S'hand-held'
p3030
tp3031
a(I120
I114
I0
S'electronic'
p3032
tp3033
a(I130
I1
F-0.625
S'malicious'
p3034
tp3035
a(I148
I2
F1.0
S'best'
p3036
tp3037
a(I148
I7
F0.875
S'important'
p3038
tp3039
a(I148
I7
F0.625
S'successful'
p3040
tp3041
a(I172
I0
I0
g182
tp3042
a(I172
I5
F0.5
S'personal'
p3043
tp3044
a(I172
I10
I0
S'least'
p3045
tp3046
a(I173
I46
I0
S'fast'
p3047
tp3048
a(I173
I46
F0.75
S'beautiful'
p3049
tp3050
a(I187
I9
I0
g184
tp3051
as(S'home'
p3052
tp3053
(lp3054
(I39
I2
F-0.25
S'past'
p3055
tp3056
as(S'call'
p3057
tp3058
(lp3059
(I5
I9
F-0.875
g134
tp3060
a(I38
I5
F-0.625
g136
tp3061
a(I46
I1
F-0.375
S'black'
p3062
tp3063
a(I50
I9
F-0.5
g140
tp3064
a(I50
I13
I0
g142
tp3065
a(I50
I13
I0
g144
tp3066
a(I50
I13
I0
g146
tp3067
a(I50
I14
F-0.5
g148
tp3068
a(I52
I9
F-0.625
S'free'
p3069
tp3070
a(I91
I7
F-0.75
g152
tp3071
a(I185
I7
F-0.5
g168
tp3072
as(S'turn'
p3073
S'by'
p3074
S'turn'
p3075
tp3076
(lp3077
(I26
I10
F0.75
g541
tp3078
a(I45
I9
F-0.625
g286
tp3079
as(S'3rd'
p3080
S'party'
p3081
tp3082
(lp3083
(I98
I9
F-0.5
S'sure'
p3084
tp3085
a(I98
I9
F1.0
S'good'
p3086
tp3087
as(S'apps'
p3088
tp3089
(lp3090
(I4
I15
I0
S'standard'
p3091
tp3092
a(I4
I15
F-0.75
S'impossible'
p3093
tp3094
a(I7
I18
F-0.625
S'free'
p3095
tp3096
a(I11
I1
I0
S'great'
p3097
tp3098
a(I14
I2
F-0.5
S'heavier'
p3099
tp3100
a(I21
I15
I0
S'great'
p3101
tp3102
a(I27
I4
I0
g2876
tp3103
a(I30
I4
F0.5
S'true'
p3104
tp3105
a(I33
I4
F1.0
S'good'
p3106
tp3107
a(I37
I0
I0
S'same'
p3108
tp3109
a(I37
I0
F0.375
S'available'
p3110
tp3111
a(I49
I15
F0.625
S'easier'
p3112
tp3113
a(I49
I16
F0.375
S'similar'
p3114
tp3115
a(I49
I16
F1.0
S'better'
p3116
tp3117
a(I50
I7
I0
S'incredible'
p3118
tp3119
a(I50
I7
I0
S'downloaded'
p3120
tp3121
a(I51
I5
I0
S'different'
p3122
tp3123
a(I53
I5
I0
g2878
tp3124
a(I62
I3
I0
g2880
tp3125
a(I62
I3
F0.375
g2882
tp3126
a(I65
I3
F0.625
g2884
tp3127
a(I68
I2
F-0.75
g2886
tp3128
a(I68
I2
I0
g2888
tp3129
a(I69
I18
F-0.625
S'free'
p3130
tp3131
a(I71
I4
I0
S'unnecessary'
p3132
tp3133
a(I77
I5
I0
g2890
tp3134
a(I81
I2
F-0.625
S'free'
p3135
tp3136
a(I84
I6
I0
S'great'
p3137
tp3138
a(I89
I12
F0.375
S'interesting'
p3139
tp3140
a(I91
I7
I0
g2892
tp3141
a(I91
I7
I0
g2894
tp3142
a(I94
I2
I0
g2896
tp3143
a(I94
I2
I0
g2898
tp3144
a(I94
I2
F1.0
g2900
tp3145
a(I103
I1
I0
g2902
tp3146
a(I103
I1
F0.375
g2904
tp3147
a(I103
I1
I0
g2906
tp3148
a(I108
I0
I0
g2908
tp3149
a(I108
I2
I0
g2910
tp3150
a(I109
I3
F0.375
S'available'
p3151
tp3152
a(I111
I2
I0
g2912
tp3153
a(I114
I4
I0
g2914
tp3154
a(I116
I16
F0.375
S'available'
p3155
tp3156
a(I118
I6
I0
S'great'
p3157
tp3158
a(I120
I24
F1.0
g1901
tp3159
a(I120
I24
I0
g1903
tp3160
a(I120
I24
F-0.625
g1905
tp3161
a(I120
I25
F0.375
g1907
tp3162
a(I120
I25
I0
g1909
tp3163
a(I120
I27
I0
g2918
tp3164
a(I120
I27
I0
g2920
tp3165
a(I120
I27
F-0.625
g2922
tp3166
a(I120
I28
I0
g2924
tp3167
a(I120
I28
F0.375
g2926
tp3168
a(I120
I96
I0
S'specific'
p3169
tp3170
a(I120
I124
F0.75
S'due'
p3171
tp3172
a(I120
I124
F-0.5
S'unwanted'
p3173
tp3174
a(I120
I127
I0
S'later'
p3175
tp3176
a(I120
I127
F-0.5
S'certain'
p3177
tp3178
a(I120
I127
I0
S're-started'
p3179
tp3180
a(I124
I34
I0
S'android'
p3181
tp3182
a(I124
I34
I0
S'android'
p3183
tp3184
a(I126
I1
I0
S'internet'
p3185
tp3186
a(I128
I2
I0
S'cool'
p3187
tp3188
a(I131
I17
I0
g2928
tp3189
a(I131
I17
I0
g2930
tp3190
a(I134
I1
F-0.625
S'free'
p3191
tp3192
a(I137
I2
I0
g2932
tp3193
a(I143
I15
I0
S'android'
p3194
tp3195
a(I143
I15
F1.0
S'good'
p3196
tp3197
a(I146
I9
F-0.625
S'free'
p3198
tp3199
a(I146
I27
F0.25
S'helpful'
p3200
tp3201
a(I149
I6
F0.375
S'available'
p3202
tp3203
a(I152
I20
F-0.625
S'want'
p3204
tp3205
a(I152
I24
F-0.625
S'other'
p3206
tp3207
a(I152
I94
I0
S'monthly'
p3208
tp3209
a(I152
I94
F-0.625
S'free'
p3210
tp3211
a(I152
I109
F0.125
S'able'
p3212
tp3213
a(I153
I4
I0
g2934
tp3214
a(I153
I6
F0.375
S'available'
p3215
tp3216
a(I153
I6
I0
S'incredible'
p3217
tp3218
a(I155
I36
I0
g2936
tp3219
a(I159
I29
F0.375
S'available'
p3220
tp3221
a(I159
I30
I0
S'more'
p3222
tp3223
a(I159
I30
I0
S'more'
p3224
tp3225
a(I159
I30
F0.375
S'available'
p3226
tp3227
a(I159
I30
I0
S'android'
p3228
tp3229
a(I173
I5
I0
S'standard'
p3230
tp3231
a(I176
I4
I0
S'most'
p3232
tp3233
a(I176
I4
F0.25
S'used'
p3234
tp3235
a(I178
I8
I0
g2938
tp3236
a(I178
I8
I0
g2940
tp3237
a(I178
I9
I0
S'along'
p3238
tp3239
a(I178
I24
I0
S'incredible'
p3240
tp3241
a(I180
I1
F0.375
S'honest'
p3242
tp3243
a(I180
I1
I0
S'great'
p3244
tp3245
a(I183
I3
I0
S'most'
p3246
tp3247
a(I187
I5
I0
S'great'
p3248
tp3249
a(I187
I5
F-0.625
S'free'
p3250
tp3251
a(I188
I4
I0
S'great'
p3252
tp3253
a(I188
I10
F-0.25
S'google'
p3254
tp3255
a(I188
I26
F0.875
g2942
tp3256
as(g102
S'great'
p3257
S'camera'
p3258
tp3259
(lp3260
(I5
I2
I0
g2657
tp3261
a(I15
I1
I0
g2661
tp3262
a(I22
I2
F0.875
g2663
tp3263
a(I22
I2
I0
g2665
tp3264
a(I23
I14
I0
g2667
tp3265
a(I27
I1
I0
g2675
tp3266
a(I27
I1
F1.0
g2677
tp3267
a(I73
I7
I0
g2686
tp3268
a(I103
I7
I0
g2696
tp3269
a(I110
I4
I0
g2698
tp3270
a(I118
I6
I0
g2702
tp3271
a(I118
I6
F-0.375
g2704
tp3272
a(I142
I7
I0
g2713
tp3273
a(I187
I6
I0
g2727
tp3274
a(I188
I21
F0.875
g2729
tp3275
as(S'days'
p3276
tp3277
(lp3278
(I5
I0
F-0.125
S'mine'
p3279
tp3280
a(I7
I17
F0.875
S'nice'
p3281
tp3282
a(I19
I22
I0
S'full'
p3283
tp3284
a(I25
I0
I0
S'few'
p3285
tp3286
a(I25
I11
I0
S'few'
p3287
tp3288
a(I37
I10
F0.125
S'last'
p3289
tp3290
a(I50
I19
F0.125
S'first'
p3291
tp3292
a(I59
I17
F-0.25
S'past'
p3293
tp3294
a(I64
I11
I0
S'few'
p3295
tp3296
a(I64
I13
I0
S'few'
p3297
tp3298
a(I64
I13
I0
S'real'
p3299
tp3300
a(I65
I7
F0.125
S'first'
p3301
tp3302
a(I73
I8
I0
S'great'
p3303
tp3304
a(I78
I0
I0
S'incredible'
p3305
tp3306
a(I78
I1
I0
S'few'
p3307
tp3308
a(I81
I3
I0
S'few'
p3309
tp3310
a(I86
I4
I0
S'full'
p3311
tp3312
a(I101
I3
F0.625
S'easy'
p3313
tp3314
a(I106
I18
I0
S'cellular'
p3315
tp3316
a(I120
I49
F1.0
S'good'
p3317
tp3318
a(I120
I132
I0
S'few'
p3319
tp3320
a(I120
I132
I0
S'individual'
p3321
tp3322
a(I146
I30
F0.625
S'easy'
p3323
tp3324
a(I151
I2
F-0.625
S'average'
p3325
tp3326
a(I152
I82
I0
S'few'
p3327
tp3328
a(I155
I3
F0.125
S'last'
p3329
tp3330
a(I155
I3
I0
S'few'
p3331
tp3332
a(I159
I6
F0.125
S'first'
p3333
tp3334
a(I159
I6
I0
S'few'
p3335
tp3336
a(I159
I10
F0.125
S'first'
p3337
tp3338
a(I159
I10
I0
S'few'
p3339
tp3340
a(I184
I14
F1.0
S'better'
p3341
tp3342
as(g102
S'better'
p3343
S'battery'
p3344
tp3345
(lp3346
(I0
I14
F1.0
g1936
tp3347
a(I3
I17
F0.25
g1940
tp3348
a(I19
I3
F1.0
g444
tp3349
a(I25
I22
I0
g1966
tp3350
a(I25
I22
F1.0
g1968
tp3351
a(I36
I8
F1.0
g1974
tp3352
a(I42
I5
F1.0
g460
tp3353
a(I43
I2
F1.0
g462
tp3354
a(I58
I5
F1.0
g468
tp3355
a(I70
I8
F1.0
g197
tp3356
a(I76
I6
F1.0
g477
tp3357
a(I93
I6
F1.0
g490
tp3358
a(I93
I6
F0.625
g494
tp3359
a(I111
I3
F1.0
g2023
tp3360
a(I120
I100
F0.375
g622
tp3361
a(I132
I0
I0
g512
tp3362
a(I152
I7
F1.0
g525
tp3363
a(I177
I13
F1.0
g113
tp3364
a(I177
I13
F0.25
g115
tp3365
a(I188
I15
F1.0
g536
tp3366
as.