(dp0
(S'blackberry'
p1
tp2
(lp3
(I4
I4
F1.0
S'better'
p4
I1
tp5
a(I18
I1
I0
S'current'
p6
I1
tp7
a(I18
I1
F-0.375
S'top'
p8
I1
tp9
a(I18
I11
F0.125
S'first'
p10
I1
tp11
a(I18
I14
F0.375
S'new'
p12
I1
tp13
a(I38
I8
F0.375
S'new'
p14
I1
tp15
a(I41
I8
F0.125
S'first'
p16
I1
tp17
as(S'battery'
p18
S'life'
p19
tp20
(lp21
(I18
I33
F-0.5
S'longer'
p22
I1
tp23
a(I18
I33
F0.875
S'nice'
p24
I1
tp25
a(I0
I7
F-0.5
S'less'
p26
I15
tp27
a(I18
I33
F-0.5
g22
I15
tp28
a(I25
I6
F0.125
S'last'
p29
I15
tp30
a(I38
I8
F-0.625
S'bad'
p31
I15
tp32
as(S'keyboard'
p33
tp34
(lp35
(I18
I10
F1.0
S'best'
p36
I2
tp37
a(I18
I11
I0
S'quick'
p38
I2
tp39
a(I24
I8
I0
S'numeric'
p40
I2
tp41
a(I30
I0
F-0.625
S'other'
p42
I2
tp43
as(S'torch'
p44
tp45
(lp46
(I18
I7
F0.125
S'visible'
p47
I0
tp48
a(I18
I35
F0.875
S'happy'
p49
I0
tp50
a(I23
I6
I0
S'most'
p51
I0
tp52
a(I23
I6
F0.5
S'expensive'
p53
I0
tp54
a(I23
I6
I0
S'unblocked'
p55
I0
tp56
as(S'touch'
p57
S'screen'
p58
tp59
(lp60
(I1
I2
F0.5
S'touch'
p61
I2
tp62
a(I1
I4
F0.5
S'touch'
p63
I2
tp64
a(I4
I6
F0.375
S'working'
p65
I2
tp66
a(I23
I2
F0.5
S'touch'
p67
I2
tp68
a(I23
I2
I0
S'faster'
p69
I2
tp70
a(I30
I0
F0.25
S'responsive'
p71
I2
tp72
a(I38
I3
F0.5
S'touch'
p73
I2
tp74
a(I48
I4
F0.5
S'touch'
p75
I2
tp76
as.