(dp0
(S'battery'
p1
S'life'
p2
tp3
(lp4
(I0
I48
F-0.75
S'short'
p5
I1
tp6
a(I0
I65
F0.75
S'due'
p7
I1
tp8
a(I0
I170
F1.0
S'good'
p9
I1
tp10
a(I1
I127
F-0.875
S'awful'
p11
I1
tp12
a(I3
I23
F-0.5
S'less'
p13
I1
tp14
a(I3
I68
F0.5
S'reasonable'
p15
I1
tp16
a(I3
I159
F-0.75
S'short'
p17
I1
tp18
a(I3
I163
F1.0
S'good'
p19
I1
tp20
a(I0
I48
F-0.75
g5
I19
tp21
a(I0
I65
F0.75
g7
I19
tp22
a(I0
I170
F1.0
g9
I19
tp23
a(I1
I127
F-0.875
g11
I19
tp24
a(I3
I23
F-0.5
g13
I19
tp25
a(I3
I68
F0.5
g15
I19
tp26
a(I3
I163
F1.0
g19
I19
tp27
a(I4
I36
F-0.375
S'daily'
p28
I19
tp29
a(I3
I157
F-0.75
S'dead'
p30
I15
tp31
a(I3
I159
F-0.75
g17
I15
tp32
a(I3
I189
F0.625
S'necessary'
p33
I15
tp34
as(S'keyboard'
p35
tp36
(lp37
(I0
I204
F-0.125
S'slow'
p38
I2
tp39
a(I0
I204
F-0.75
S'inconvenient'
p40
I2
tp41
as(S'piece'
p42
S'of'
p43
S'junk'
p44
tp45
(lp46
(I5
I37
F0.375
S'complete'
p47
I2
tp48
as(S'text'
p49
tp50
(lp51
(I2
I4
F1.0
S'good'
p52
I18
tp53
a(I3
I192
I0
S'extensive'
p54
I18
tp55
as(S'task'
p56
S'killer'
p57
tp58
(lp59
(I3
I189
F-0.625
S'free'
p60
I0
tp61
as(S'service'
p62
tp63
(lp64
(I0
I37
F-0.625
S'other'
p65
I16
tp66
a(I1
I43
F1.0
S'better'
p67
I16
tp68
a(I3
I68
I0
S'great'
p69
I16
tp70
a(I3
I127
I0
S'great'
p71
I16
tp72
a(I4
I23
I0
S'great'
p73
I16
tp74
a(I4
I23
F1.0
S'better'
p75
I16
tp76
a(I4
I42
F-0.5
S'poor'
p77
I16
tp78
a(I5
I14
I0
S'only'
p79
I16
tp80
a(I5
I14
I0
S'only'
p81
I16
tp82
a(I5
I14
F0.375
S'available'
p83
I16
tp84
as(S'application'
p85
tp86
(lp87
(I3
I57
F0.5
S'clear'
p88
I7
tp89
a(I3
I99
I0
S'basic'
p90
I7
tp91
a(I3
I99
F-0.375
S'crash'
p92
I7
tp93
as(S'camera'
p94
tp95
(lp96
(I3
I263
F1.0
S'good'
p97
I1
tp98
as(S'bluetooth'
p99
tp100
(lp101
(I1
I110
F0.125
S'able'
p102
I3
tp103
as(S'iphone'
p104
tp105
(lp106
(I1
I62
I0
S'fast'
p107
I1
tp108
a(I3
I226
I0
S'old'
p109
I1
tp110
a(I3
I243
I0
S'faster'
p111
I1
tp112
a(I4
I68
I0
S'same'
p113
I1
tp114
a(I5
I20
I0
S'more'
p115
I1
tp116
a(I5
I20
F-0.125
S'complex'
p117
I1
tp118
a(I5
I78
F0.375
S'available'
p119
I1
tp120
as(S'speed'
p121
tp122
(lp123
(I0
I32
I0
S'incredible'
p124
I9
tp125
a(I0
I194
F-0.625
S'bad'
p126
I9
tp127
a(I4
I29
F-0.625
S'bad'
p128
I9
tp129
a(I4
I29
F1.0
S'better'
p130
I9
tp131
as(S'internet'
p132
tp133
(lp134
(I1
I131
I0
S'more'
p135
I6
tp136
a(I1
I131
F0.25
S'responsive'
p137
I6
tp138
a(I5
I97
F-0.125
S'super'
p139
I6
tp140
a(I5
I97
F-0.125
S'slow'
p141
I6
tp142
as(S'build'
p143
S'quality'
p144
tp145
(lp146
(I0
I85
F-0.75
S'unreliable'
p147
I2
tp148
a(I3
I82
F-0.375
S'serious'
p149
I2
tp150
as(S'market'
p151
tp152
(lp153
(I1
I90
I0
S'android'
p154
I16
tp155
a(I1
I107
F1.0
S'best'
p156
I16
tp157
a(I1
I107
F0.75
S'worth'
p158
I16
tp159
a(I3
I135
I0
S'most'
p160
I16
tp161
a(I3
I135
F-0.625
S'free'
p162
I16
tp163
as(S'button'
p164
tp165
(lp166
(I0
I210
F-0.25
S'loose'
p167
I19
tp168
a(I1
I119
F0.375
S'much'
p169
I19
tp170
a(I3
I171
F-0.75
S'wrong'
p171
I19
tp172
as(S'unlimited'
p173
S'data'
p174
tp175
(lp176
(I4
I58
F-0.5
S'unlimited'
p177
I0
tp178
a(I4
I58
I0
S'mobile'
p179
I0
tp180
a(I5
I64
F-0.5
S'unlimited'
p181
I0
tp182
a(I0
I193
I0
S'slower'
p183
I13
tp184
a(I3
I157
F0.25
S'consistent'
p185
I13
tp186
a(I4
I58
F-0.5
g177
I13
tp187
a(I4
I58
I0
g179
I13
tp188
a(I5
I64
F-0.5
g181
I13
tp189
as(S'android'
p190
tp191
(lp192
(I0
I2
F0.125
S'native'
p193
I0
tp194
a(I0
I4
I0
S'great'
p195
I0
tp196
a(I0
I13
I0
S'full'
p197
I0
tp198
a(I0
I37
F-0.625
S'other'
p199
I0
tp200
a(I0
I88
F0.125
S'first'
p201
I0
tp202
a(I0
I136
F0.375
S'newest'
p203
I0
tp204
a(I0
I156
F0.75
S'beautiful'
p205
I0
tp206
a(I0
I164
F0.125
S'first'
p207
I0
tp208
a(I0
I165
F1.0
S'good'
p209
I0
tp210
a(I1
I129
F0.375
S'new'
p211
I0
tp212
a(I3
I14
I0
S'latest'
p213
I0
tp214
a(I3
I76
I0
S'different'
p215
I0
tp216
a(I3
I101
F0.625
S'responsible'
p217
I0
tp218
a(I3
I101
F-0.625
S'other'
p219
I0
tp220
a(I3
I215
F0.5
S'whole'
p221
I0
tp222
a(I5
I22
I0
S'least'
p223
I0
tp224
a(I5
I26
F-0.75
S'have'
p225
I0
tp226
a(I5
I56
F0.125
S'first'
p227
I0
tp228
as(S'processor'
p229
tp230
(lp231
(I3
I129
I0
S'faster'
p232
I1
tp233
a(I4
I21
I0
S'faster'
p234
I1
tp235
as(S'slow'
p236
tp237
(lp238
(I5
I52
F-0.75
S'little'
p239
I17
tp240
as(S'network'
p241
tp242
(lp243
(I1
I43
F1.0
S'better'
p244
I0
tp245
a(I3
I214
I0
S'great'
p246
I0
tp247
as(S'sprint'
p248
S'htc'
p249
tp250
(lp251
(I0
I61
F0.875
S'nice'
p252
I0
tp253
a(I0
I129
I0
S'full'
p254
I0
tp255
a(I1
I15
F-0.75
S'difficult'
p256
I0
tp257
a(I1
I42
F-0.125
S'overall'
p258
I0
tp259
a(I3
I204
F0.125
S'last'
p260
I0
tp261
a(I3
I211
F0.625
S'aware'
p262
I0
tp263
as(S'moment'
p264
tp265
(lp266
(I2
I7
I0
S'anymore'
p267
I2
tp268
a(I3
I121
F0.375
S'reliable'
p269
I2
tp270
as(S'htc'
p271
S'hero'
p272
tp273
(lp274
(I0
I54
F-0.5
S'poor'
p275
I0
tp276
a(I3
I101
I0
S'different'
p277
I0
tp278
a(I3
I124
F-0.125
S'slow'
p279
I0
tp280
a(I5
I74
F0.875
S'happy'
p281
I0
tp282
a(I0
I54
F-0.5
g275
I0
tp283
a(I0
I119
F-0.5
S'worthless'
p284
I0
tp285
a(I1
I5
F0.375
S'flexible'
p286
I0
tp287
a(I1
I19
I0
S'high'
p288
I0
tp289
a(I3
I48
F0.875
S'happy'
p290
I0
tp291
a(I3
I94
F-0.75
S'worse'
p292
I0
tp293
a(I3
I94
F0.125
S'first'
p294
I0
tp295
a(I3
I122
F0.25
S'larger'
p296
I0
tp297
a(I3
I124
F-0.125
g279
I0
tp298
a(I3
I139
F0.25
S'sweet'
p299
I0
tp300
a(I3
I190
F-0.375
S'daily'
p301
I0
tp302
a(I4
I21
F0.875
S'happy'
p303
I0
tp304
a(I4
I27
I0
S'great'
p305
I0
tp306
as(S'pocket'
p307
tp308
(lp309
(I4
I75
F-0.25
S'thin'
p310
I17
tp311
a(I4
I84
F0.875
S'music'
p312
I17
tp313
as(S'apps'
p314
tp315
(lp316
(I0
I27
F-0.625
S'other'
p317
I0
tp318
a(I0
I59
F-0.25
S'inexpensive'
p319
I0
tp320
a(I0
I108
I0
S'great'
p321
I0
tp322
a(I0
I177
F-0.375
S'crap'
p323
I0
tp324
a(I1
I80
F-0.625
S'other'
p325
I0
tp326
a(I1
I80
F-0.625
S'free'
p327
I0
tp328
a(I3
I163
F-0.5
S'sure'
p329
I0
tp330
a(I3
I173
I0
S'such'
p331
I0
tp332
a(I3
I177
I0
S'general'
p333
I0
tp334
a(I4
I39
F0.125
S'first'
p335
I0
tp336
a(I4
I39
F0.125
S'able'
p337
I0
tp338
a(I4
I68
I0
S'most'
p339
I0
tp340
a(I4
I68
F-0.625
S'free'
p341
I0
tp342
a(I4
I70
F-0.625
S'other'
p343
I0
tp344
a(I5
I43
I0
S'great'
p345
I0
tp346
as(S'dropped'
p347
S'calls'
p348
tp349
(lp350
(I3
I41
F0.75
S'constant'
p351
I0
tp352
a(I0
I47
F0.5
S'strong'
p353
I0
tp354
a(I0
I47
I0
S'signal'
p355
I0
tp356
a(I3
I41
F0.75
g351
I0
tp357
as(S'internal'
p358
S'memory'
p359
tp360
(lp361
(I0
I78
I0
S'internal'
p362
I0
tp363
a(I0
I80
I0
S'internal'
p364
I0
tp365
a(I3
I32
I0
S'internal'
p366
I0
tp367
a(I3
I62
I0
S'internal'
p368
I0
tp369
as(S'touch'
p370
S'screen'
p371
tp372
(lp373
(I1
I7
F0.5
S'touch'
p374
I2
tp375
a(I4
I71
F0.25
S'powerful'
p376
I2
tp377
a(I4
I83
F0.5
S'touch'
p378
I2
tp379
a(I5
I100
F0.5
S'touch'
p380
I2
tp381
a(I5
I100
I0
S'great'
p382
I2
tp383
a(I5
I104
F0.5
S'touch'
p384
I2
tp385
as.