(dp0
(S'flashlight'
p1
tp2
(lp3
(I4
I15
F-0.375
S'manual'
p4
I0
tp5
a(I6
I23
F0.25
S'dim'
p6
I0
tp7
a(I6
I37
I0
S'useful'
p8
I0
tp9
a(I6
I125
F-0.75
S'bright'
p10
I0
tp11
a(I6
I125
I0
S'handy'
p12
I0
tp13
as(S'volume'
p14
tp15
(lp16
(I4
I20
F0.625
S'necessary'
p17
I6
tp18
a(I6
I159
I0
S'external'
p19
I6
tp20
a(I7
I59
I0
S'external'
p21
I6
tp22
a(I7
I59
F0.125
S'key'
p23
I6
tp24
a(I7
I60
F0.125
S'key'
p25
I6
tp26
a(I7
I63
F1.0
S'good'
p27
I6
tp28
a(I9
I17
F-0.75
S'sufficient'
p29
I6
tp30
a(I9
I17
F0.375
S'loud'
p31
I6
tp32
a(I9
I17
F0.5
S'clear'
p33
I6
tp34
as(S'battery'
p35
S'life'
p36
tp37
(lp38
(I6
I98
F1.0
S'good'
p39
I1
tp40
a(I6
I123
F1.0
S'good'
p41
I1
tp42
a(I6
I214
F1.0
S'good'
p43
I1
tp44
a(I7
I64
F1.0
S'good'
p45
I1
tp46
a(I8
I12
F1.0
S'good'
p47
I1
tp48
a(I8
I22
F-0.5
S'less'
p49
I1
tp50
a(I8
I22
F0.5
S'desirable'
p51
I1
tp52
a(I8
I28
F-0.5
S'weak'
p53
I1
tp54
a(I6
I97
F1.0
S'good'
p55
I19
tp56
a(I6
I98
F1.0
g39
I19
tp57
a(I6
I123
F1.0
g41
I19
tp58
a(I7
I64
F1.0
g45
I19
tp59
a(I8
I12
F1.0
g47
I19
tp60
a(I8
I22
F-0.5
g49
I19
tp61
a(I8
I22
F0.5
g51
I19
tp62
a(I1
I39
F0.125
S'charger'
p63
I15
tp64
a(I1
I42
F-0.75
S'impossible'
p65
I15
tp66
a(I1
I54
F0.375
S'new'
p67
I15
tp68
a(I1
I82
F0.5
S'live'
p69
I15
tp70
a(I1
I84
I0
S'great'
p71
I15
tp72
a(I6
I75
F1.0
S'good'
p73
I15
tp74
a(I6
I76
F0.125
S'able'
p75
I15
tp76
a(I6
I214
F1.0
g43
I15
tp77
a(I8
I25
F0.375
S'new'
p78
I15
tp79
a(I8
I26
F0.375
S'newer'
p80
I15
tp81
a(I8
I28
F-0.5
g53
I15
tp82
as(S'travel'
p83
tp84
(lp85
(I6
I208
F-0.5
S'international'
p86
I19
tp87
as(S'a'
p88
S'sim'
p89
S'card'
p90
tp91
(lp92
(I1
I1
I0
S'different'
p93
I0
tp94
a(I1
I3
F-0.5
S'international'
p95
I0
tp96
a(I2
I27
F-0.375
S'top'
p97
I0
tp98
a(I3
I1
F0.125
S'able'
p99
I0
tp100
a(I6
I53
F-0.5
S'international'
p101
I0
tp102
a(I6
I53
I0
S'local'
p103
I0
tp104
a(I6
I103
F0.375
S'extra'
p105
I0
tp106
a(I7
I53
I0
S'italian'
p107
I0
tp108
a(I9
I12
F-0.5
S'international'
p109
I0
tp110
a(I1
I1
I0
g93
I0
tp111
a(I1
I3
F-0.5
g95
I0
tp112
a(I2
I27
F-0.375
g97
I0
tp113
a(I3
I1
F0.125
g99
I0
tp114
a(I6
I53
F-0.5
g101
I0
tp115
a(I6
I53
I0
g103
I0
tp116
a(I6
I103
F0.375
g105
I0
tp117
a(I7
I53
I0
g107
I0
tp118
a(I9
I12
F-0.5
g109
I0
tp119
as(S'mini'
p120
S'usb'
p121
tp122
(lp123
(I4
I9
I0
S'standard'
p124
I0
tp125
as(S'call'
p126
S'quality'
p127
tp128
(lp129
(I0
I22
F1.0
S'good'
p130
I0
tp131
a(I6
I114
F1.0
S'better'
p132
I0
tp133
a(I6
I218
F1.0
S'good'
p134
I0
tp135
as(S'calls'
p136
tp137
(lp138
(I3
I4
F0.375
S'much'
p139
I0
tp140
a(I5
I14
I0
S'local'
p141
I0
tp142
a(I6
I124
F-0.5
S'long'
p143
I0
tp144
a(I6
I124
I0
S'many'
p145
I0
tp146
a(I6
I143
F-0.625
S'other'
p147
I0
tp148
a(I6
I199
F0.75
S'receive'
p149
I0
tp150
a(I7
I38
I0
S'normal'
p151
I0
tp152
a(I7
I53
I0
S'local'
p153
I0
tp154
as(S'media'
p155
S'center'
p156
tp157
(lp158
(I9
I31
I0
S'quick'
p159
I0
tp160
a(I9
I31
F0.125
S'key'
p161
I0
tp162
as(S'sim'
p163
S'cards'
p164
tp165
(lp166
(I1
I1
I0
g93
I0
tp167
a(I1
I1
I0
S'handy'
p168
I0
tp169
a(I3
I1
F0.125
g99
I0
tp170
a(I7
I18
F0.625
S'easy'
p171
I0
tp172
a(I7
I19
F0.5
S'incomplete'
p173
I0
tp174
a(I1
I1
I0
g168
I15
tp175
a(I7
I18
F0.625
g171
I15
tp176
a(I7
I19
F0.5
g173
I15
tp177
as.