(dp0
(S'text'
p1
S'message'
p2
tp3
(lp4
(I9
I8
F0.75
S'receive'
p5
I0
tp6
a(I1
I22
F-0.75
S'little'
p7
I18
tp8
a(I9
I8
F0.75
g5
I18
tp9
as(S'battery'
p10
tp11
(lp12
(I1
I22
F0.125
S'last'
p13
I15
tp14
a(I1
I22
F-0.5
S'long'
p15
I15
tp16
a(I3
I11
I0
S'full'
p17
I15
tp18
as(S'a'
p19
S'data'
p20
S'plan'
p21
tp22
(lp23
(I15
I8
F0.375
S'extra'
p24
I0
tp25
a(I15
I8
F0.375
g24
I0
tp26
as(S'touch'
p27
S'screen'
p28
tp29
(lp30
(I4
I14
F0.5
S'touch'
p31
I2
tp32
a(I4
I17
F0.125
S'first'
p33
I2
tp34
a(I4
I17
I0
S'sensitive'
p35
I2
tp36
a(I8
I22
F0.5
S'touch'
p37
I2
tp38
as(S'verizon'
p39
tp40
(lp41
(I1
I17
F-0.625
S'other'
p42
I0
tp43
as(S'one'
p44
S'month'
p45
tp46
(lp47
(I9
I30
F-0.5
S'less'
p48
I1
tp49
as.