(dp0
(S'operating'
p1
S'system'
p2
tp3
(lp4
(I19
I16
F0.375
S'new'
p5
I2
tp6
a(I19
I17
I0
S'old'
p7
I2
tp8
as(S'android'
p9
tp10
(lp11
(I23
I20
F0.375
S'new'
p12
I0
tp13
a(I24
I0
F1.0
S'good'
p14
I0
tp15
as(S'sd'
p16
S'card'
p17
tp18
(lp19
(I17
I6
F-0.625
S'free'
p20
I0
tp21
as(S'battery'
p22
S'life'
p23
tp24
(lp25
(I6
I43
F-0.625
S'other'
p26
I1
tp27
a(I24
I9
F1.0
S'better'
p28
I1
tp29
a(I1
I5
F0.625
S'easy'
p30
I15
tp31
a(I11
I0
I0
S'different'
p32
I15
tp33
a(I16
I26
F0.375
S'new'
p34
I15
tp35
a(I20
I20
F0.375
S'new'
p36
I15
tp37
a(I20
I28
F0.125
S'last'
p38
I15
tp39
a(I20
I28
F-0.5
S'long'
p40
I15
tp41
as(S'droid'
p42
S'eris'
p43
tp44
(lp45
(I3
I16
F0.375
S'worked'
p46
I0
tp47
a(I23
I30
F0.125
S'first'
p48
I0
tp49
a(I3
I16
F0.375
g46
I0
tp50
a(I3
I8
F0.125
S'first'
p51
I0
tp52
a(I23
I30
F0.125
g48
I0
tp53
as(S'internet'
p54
tp55
(lp56
(I3
I66
F-0.125
S'slow'
p57
I6
tp58
a(I6
I45
F0.375
S'much'
p59
I6
tp60
a(I16
I8
I0
S'quick'
p61
I6
tp62
a(I24
I3
F-0.125
S'slow'
p63
I6
tp64
as(S'storage'
p65
S'space'
p66
tp67
(lp68
(I23
I23
I0
S'internal'
p69
I0
tp70
as(S'memory'
p71
tp72
(lp73
(I7
I1
F-0.5
S'less'
p74
I5
tp75
a(I14
I29
F0.375
S'much'
p76
I5
tp77
a(I17
I17
F0.125
S'outside'
p78
I5
tp79
as(S'verizon'
p80
tp81
(lp82
(I3
I17
I0
S'local'
p83
I0
tp84
a(I10
I2
F0.5
S'compatible'
p85
I0
tp86
a(I17
I19
F-0.75
S'worse'
p87
I0
tp88
a(I21
I11
F-0.5
S'regular'
p89
I0
tp90
a(I25
I11
F0.75
S'due'
p91
I0
tp92
as(S'apps'
p93
tp94
(lp95
(I3
I27
F-0.125
S'slow'
p96
I0
tp97
a(I3
I28
I0
S'few'
p98
I0
tp99
a(I6
I18
F0.375
S'extra'
p100
I0
tp101
a(I6
I46
F0.375
S'newer'
p102
I0
tp103
a(I7
I2
I0
S'download'
p104
I0
tp105
a(I14
I23
I0
S'same'
p106
I0
tp107
a(I16
I11
F0.375
S'available'
p108
I0
tp109
a(I17
I3
F0.25
S'favorite'
p110
I0
tp111
a(I17
I6
F-0.875
S'unhappy'
p112
I0
tp113
a(I17
I17
F0.5
S'clear'
p114
I0
tp115
as(S'waste'
p116
S'of'
p117
S'money'
p118
tp119
(lp120
(I2
I10
F0.375
S'complete'
p121
I4
tp122
as(S'touch'
p123
S'screen'
p124
tp125
(lp126
(I9
I5
F0.5
S'touch'
p127
I2
tp128
a(I16
I7
F0.5
S'touch'
p129
I2
tp130
a(I17
I2
F0.625
S'easy'
p131
I2
tp132
as(S'text'
p133
S'messages'
p134
tp135
(lp136
(I17
I26
I0
S'text'
p137
I0
tp138
a(I23
I17
F-0.125
S'delete'
p139
I0
tp140
as.