(dp0
(S'apple'
p1
S'store'
p2
tp3
(lp4
(I13
I18
F0.75
S'beautiful'
p5
I0
tp6
a(I17
I28
F-0.375
S'authorized'
p7
I4
tp8
a(I18
I42
F-0.625
S'other'
p9
I4
tp10
as(S'seller'
p11
tp12
(lp13
(I18
I4
F1.0
S'best'
p14
I19
tp15
as(S'iphone'
p16
tp17
(lp18
(I4
I1
F0.375
S'new'
p19
I1
tp20
a(I5
I4
F0.375
S'new'
p21
I1
tp22
a(I5
I19
F1.0
S'best'
p23
I1
tp24
a(I6
I0
F1.0
S'better'
p25
I1
tp26
a(I8
I16
F0.125
S'first'
p27
I1
tp28
a(I9
I3
I0
S'old'
p29
I1
tp30
a(I13
I9
F0.125
S'first'
p31
I1
tp32
a(I13
I67
I0
S'own'
p33
I1
tp34
a(I13
I108
F-0.625
S'other'
p35
I1
tp36
a(I13
I124
F0.5
S'second'
p37
I1
tp38
a(I13
I128
F0.75
S'beautiful'
p39
I1
tp40
a(I13
I129
F0.5
S'second'
p41
I1
tp42
a(I13
I131
I0
S'next'
p43
I1
tp44
a(I17
I16
I0
S'old'
p45
I1
tp46
a(I18
I5
I0
S'many'
p47
I1
tp48
a(I18
I23
F-0.125
S'complicated'
p49
I1
tp50
a(I18
I45
F0.75
S'fit'
p51
I1
tp52
a(I18
I45
F-0.625
S'other'
p53
I1
tp54
a(I18
I46
F0.125
S'able'
p55
I1
tp56
as(S'lady'
p57
tp58
(lp59
(I13
I9
F0.75
S'beautiful'
p60
I9
tp61
a(I13
I15
F0.75
S'beautiful'
p62
I9
tp63
a(I13
I17
F-0.75
S'hate'
p64
I9
tp65
as(S'battery'
p66
tp67
(lp68
(I5
I8
F-0.75
S'short'
p69
I15
tp70
a(I8
I28
F-0.25
S'tear'
p71
I15
tp72
a(I8
I28
I0
S'great'
p73
I15
tp74
a(I13
I143
F0.125
S'last'
p75
I15
tp76
a(I13
I143
F-0.5
S'sure'
p77
I15
tp78
a(I18
I42
F-0.5
S'longer'
p79
I15
tp80
as(S'flash'
p81
S'support'
p82
tp83
(lp84
(I13
I69
F-0.125
S'universal'
p85
I0
tp86
a(I13
I69
F-0.125
g85
I2
tp87
as(S'basic'
p88
S'things'
p89
tp90
(lp91
(I5
I7
I0
S'basic'
p92
I2
tp93
a(I13
I92
I0
S'basic'
p94
I2
tp95
a(I13
I113
I0
S'basic'
p96
I2
tp97
a(I13
I120
I0
S'basic'
p98
I2
tp99
a(I13
I121
I0
S'basic'
p100
I2
tp101
as(S'network'
p102
tp103
(lp104
(I13
I80
F-0.875
S'worst'
p105
I0
tp106
a(I13
I83
F-0.5
S'regular'
p107
I0
tp108
as(S'apps'
p109
tp110
(lp111
(I5
I35
F0.25
S'sharp'
p112
I0
tp113
a(I5
I35
I0
S'fast'
p114
I0
tp115
a(I5
I47
F0.875
S'music'
p116
I0
tp117
a(I18
I22
I0
S'same'
p118
I0
tp119
a(I18
I33
I0
S'android'
p120
I0
tp121
a(I18
I33
F0.875
S'music'
p122
I0
tp123
as(S'rear'
p124
S'camera'
p125
tp126
(lp127
(I17
I21
I0
S'rear'
p128
I0
tp129
a(I17
I23
F0.375
S'new'
p130
I0
tp131
a(I17
I23
I0
S'rear'
p132
I0
tp133
a(I17
I21
I0
g128
I1
tp134
a(I17
I23
F0.375
g130
I1
tp135
a(I17
I23
I0
g132
I1
tp136
as(S'voice'
p137
S'quality'
p138
tp139
(lp140
(I13
I119
F1.0
S'good'
p141
I0
tp142
as(S'music'
p143
tp144
(lp145
(I8
I2
I0
S'great'
p146
I0
tp147
a(I18
I34
I0
S'song'
p148
I0
tp149
as.