(dp0
(S'bluetooth'
p1
tp2
(lp3
(I9
I6
F0.875
S'important'
p4
I3
tp5
a(I9
I36
F0.125
S'able'
p6
I3
tp7
as(S'same'
p8
S'thing'
p9
tp10
(lp11
(I0
I10
I0
S'same'
p12
I3
tp13
a(I9
I53
I0
S'same'
p14
I3
tp15
a(I9
I53
F0.5
S'second'
p16
I3
tp17
as(S'battery'
p18
S'life'
p19
tp20
(lp21
(I0
I46
F-0.5
S'poor'
p22
I1
tp23
a(I0
I47
F1.0
S'good'
p24
I1
tp25
a(I8
I13
F1.0
S'good'
p26
I1
tp27
a(I8
I56
F0.5
S'reasonable'
p28
I1
tp29
a(I0
I46
F-0.5
g22
I15
tp30
a(I0
I47
F1.0
g24
I15
tp31
a(I8
I13
F1.0
g26
I15
tp32
a(I8
I56
F0.5
g28
I15
tp33
as(S'damn'
p34
S'thing'
p35
tp36
(lp37
(I9
I130
I0
S'same'
p38
I0
tp39
as(S'text'
p40
tp41
(lp42
(I9
I51
F-0.375
S'small'
p43
I18
tp44
as(S'voice'
p45
S'activation'
p46
tp47
(lp48
(I9
I35
F0.5
S'crucial'
p49
I0
tp50
as(S'nokia'
p51
tp52
(lp53
(I8
I21
F-0.75
S'little'
p54
I0
tp55
a(I9
I80
I0
S'old'
p56
I0
tp57
as(S'calls'
p58
tp59
(lp60
(I0
I35
I0
S'multiple'
p61
I0
tp62
a(I9
I96
F-0.25
S'dropped'
p63
I0
tp64
as(S'sim'
p65
S'card'
p66
tp67
(lp68
(I0
I35
F0.375
S'new'
p69
I0
tp70
a(I0
I35
F-0.75
S'unable'
p71
I0
tp72
a(I3
I38
F0.375
S'mean'
p73
I0
tp74
a(I3
I89
I0
S'old'
p75
I0
tp76
a(I9
I3
I0
S'old'
p77
I0
tp78
a(I9
I101
F-0.5
S'sure'
p79
I0
tp80
as(S'amazon'
p81
tp82
(lp83
(I0
I10
F-0.5
S'less'
p84
I13
tp85
a(I3
I71
F1.0
S'better'
p86
I13
tp87
as(S'flip'
p88
tp89
(lp90
(I3
I70
F0.625
S'easy'
p91
I4
tp92
a(I8
I28
F-0.625
S'other'
p93
I4
tp94
a(I9
I31
F0.625
S'easy'
p95
I4
tp96
a(I9
I31
F-0.5
S'open'
p97
I4
tp98
as(S'camera'
p99
tp100
(lp101
(I3
I4
F1.0
S'good'
p102
I1
tp103
a(I9
I25
F0.875
S'nice'
p104
I1
tp105
as(S'sim'
p106
S'cards'
p107
tp108
(lp109
(I3
I38
F0.375
g73
I0
tp110
a(I3
I38
I0
S'forth'
p111
I0
tp112
a(I3
I89
I0
g75
I0
tp113
as(S'reception'
p114
tp115
(lp116
(I0
I47
F1.0
S'good'
p117
I0
tp118
a(I0
I47
F0.125
S'able'
p119
I0
tp120
a(I2
I9
F-0.625
S'bad'
p121
I0
tp122
a(I8
I51
F1.0
S'good'
p123
I0
tp124
a(I9
I5
F1.0
S'better'
p125
I0
tp126
a(I9
I95
F-0.5
S'poor'
p127
I0
tp128
a(I9
I100
F-0.625
S'bad'
p129
I0
tp130
a(I9
I102
F-0.5
S'poor'
p131
I0
tp132
a(I9
I103
F1.0
S'better'
p133
I0
tp134
as.