(dp0
(S'problem'
p1
tp2
(lp3
(I29
I5
I0
S'only'
p4
tp5
a(I92
I4
I0
S'overseas'
p6
tp7
a(I92
I4
F-0.75
S'little'
p8
tp9
a(I215
I0
F-0.375
S'serious'
p10
tp11
a(I229
I2
F-0.25
S'past'
p12
tp13
as(S'timely'
p14
S'manner'
p15
tp16
(lp17
(I112
I1
I0
S'timely'
p18
tp19
a(I224
I0
I0
S'timely'
p20
tp21
a(I224
I1
I0
S'timely'
p22
tp23
as(S'purchase'
p24
tp25
(lp26
(I74
I0
F0.875
S'happy'
p27
tp28
a(I89
I0
F1.0
S'good'
p29
tp30
a(I130
I1
F-0.25
S'disappointed'
p31
tp32
a(I132
I1
F-0.875
S'worst'
p33
tp34
as(S'tour'
p35
tp36
(lp37
(I207
I0
F-0.125
S'blackberry'
p38
tp39
as(S'money'
p40
tp41
(lp42
(I31
I0
F1.0
S'good'
p43
tp44
a(I31
I0
F0.375
S'reliable'
p45
tp46
a(I78
I0
I0
S'more'
p47
tp48
a(I146
I1
F-0.375
S'small'
p49
tp50
a(I146
I1
I0
S'great'
p51
tp52
as(S'condition'
p53
tp54
(lp55
(I28
I0
F0.375
S'new'
p56
tp57
a(I58
I0
F1.0
S'good'
p58
tp59
a(I104
I0
F1.0
S'good'
p60
tp61
a(I153
I1
F1.0
S'good'
p62
tp63
a(I164
I0
F0.375
S'new'
p64
tp65
a(I181
I5
I0
S'great'
p66
tp67
a(I192
I0
F1.0
S'good'
p68
tp69
as(S'bought'
p70
tp71
(lp72
(I147
I1
F0.375
S'new'
p73
tp74
as(S'screen'
p75
tp76
(lp77
(I25
I3
F-0.75
S'unresponsive'
p78
tp79
a(I25
I3
F-0.625
S'inaccurate'
p80
tp81
a(I25
I3
F0.5
S'touch'
p82
tp83
a(I102
I2
I0
S'big'
p84
tp85
a(I102
I2
F-0.75
S'bright'
p86
tp87
a(I144
I1
F0.5
S'touch'
p88
tp89
a(I147
I1
F0.375
S'new'
p90
tp91
a(I147
I1
I0
S'own'
p92
tp93
a(I195
I8
F0.5
S'clear'
p94
tp95
as(S'service'
p96
tp97
(lp98
(I2
I0
I0
S'great'
p99
tp100
a(I57
I1
I0
S'different'
p101
tp102
a(I57
I1
F-0.5
S'sure'
p103
tp104
a(I141
I2
F-0.5
S'sure'
p105
tp106
a(I147
I1
F-0.875
S'trouble'
p107
tp108
a(I147
I1
F-0.625
S'free'
p109
tp110
a(I155
I0
I0
S'great'
p111
tp112
as(S'everything'
p113
tp114
(lp115
(I24
I7
F-0.625
S'other'
p116
tp117
a(I31
I11
F-0.75
S'wrong'
p118
tp119
a(I48
I1
F0.125
S'solid'
p120
tp121
a(I48
I1
I0
S'great'
p122
tp123
a(I54
I2
F0.375
S'complete'
p124
tp125
a(I248
I1
I0
S'least'
p126
tp127
as(S'problems'
p128
tp129
(lp130
(I3
I0
I0
S'more'
p131
tp132
a(I148
I4
I0
S'many'
p133
tp134
a(I148
I12
F0.625
S'major'
p135
tp136
a(I193
I0
I0
S'own'
p137
tp138
a(I195
I33
F0.625
S'major'
p139
tp140
as(S'charger'
p141
tp142
(lp143
(I193
I0
F0.25
S'original'
p144
tp145
as(S'back'
p146
tp147
(lp148
(I147
I0
I0
S'full'
p149
tp150
as(S'company'
p151
tp152
(lp153
(I24
I10
F-0.625
S'bad'
p154
tp155
a(I31
I0
I0
S'advice'
p156
tp157
a(I31
I0
F-0.5
S'sure'
p158
tp159
a(I172
I0
F-0.625
S'bad'
p160
tp161
a(I220
I0
I0
S'least'
p162
tp163
a(I223
I0
F0.25
S'helpful'
p164
tp165
a(I223
I0
F0.125
S'informative'
p166
tp167
a(I249
I26
F0.5
S'careful'
p168
tp169
a(I249
I26
F0.75
S'worth'
p170
tp171
as(S'number'
p172
tp173
(lp174
(I165
I1
F0.75
S'due'
p175
tp176
a(I165
I1
F0.75
S'due'
p177
tp178
as(S'hard'
p179
S'drive'
p180
tp181
(lp182
(I148
I11
F-0.875
S'hard'
p183
tp184
as(S'sprint'
p185
tp186
(lp187
(I137
I1
F0.125
S'able'
p188
tp189
a(I171
I6
I0
S'local'
p190
tp191
as(S'nothing'
p192
tp193
(lp194
(I147
I1
F-0.625
S'other'
p195
tp196
a(I249
I6
F-0.75
S'stupid'
p197
tp198
as(S'product'
p199
tp200
(lp201
(I2
I0
I0
S'great'
p202
tp203
a(I5
I0
F0.5
S'expensive'
p204
tp205
a(I15
I0
F1.0
S'good'
p206
tp207
a(I42
I1
F1.0
S'good'
p208
tp209
a(I51
I1
F-0.5
S'sure'
p210
tp211
a(I94
I0
F0.375
S'new'
p212
tp213
a(I148
I29
F-0.125
S'overall'
p214
tp215
a(I192
I2
I0
S'great'
p216
tp217
a(I212
I2
F-0.625
S'bad'
p218
tp219
a(I225
I1
F-0.5
S'sure'
p220
tp221
as(S'mobile'
p222
tp223
(lp224
(I55
I2
F0.875
S'nice'
p225
tp226
as(S'features'
p227
tp228
(lp229
(I28
I1
F-0.625
S'other'
p230
tp231
a(I148
I5
I0
S'great'
p232
tp233
a(I148
I20
F-0.375
S'simple'
p234
tp235
a(I148
I20
I0
S'such'
p236
tp237
as(S'verizon'
p238
tp239
(lp240
(I77
I3
I0
S'many'
p241
tp242
a(I90
I8
F0.375
S'new'
p243
tp244
a(I95
I0
F0.5
S'clear'
p245
tp246
a(I123
I3
I0
S'many'
p247
tp248
as(S'n'
p249
S'country'
p250
tp251
(lp252
(I177
I4
I0
S'most'
p253
tp254
a(I177
I4
F0.125
S'outside'
p255
tp256
a(I212
I2
F0.5
S'expensive'
p257
tp258
as(S'unlocked'
p259
S'gsm'
p260
tp261
(lp262
(I161
I0
I0
S'local'
p263
tp264
as(S'unlock'
p265
tp266
(lp267
(I17
I0
F0.375
S'extra'
p268
tp269
as(S'30'
p270
S'days'
p271
tp272
(lp273
(I84
I0
F-0.25
S'late'
p274
tp275
a(I177
I4
F-0.75
S'short'
p276
tp277
a(I204
I0
F-0.25
S'past'
p278
tp279
a(I249
I7
I0
S'few'
p280
tp281
as(S'seller'
p282
tp283
(lp284
(I59
I8
I0
S'different'
p285
tp286
a(I88
I0
F0.375
S'meant'
p287
tp288
a(I249
I7
F0.875
S'happy'
p289
tp290
as(S'customer'
p291
tp292
(lp293
(I8
I8
F-0.125
S'overall'
p294
tp295
a(I8
I8
F0.5
S'satisfied'
p296
tp297
a(I189
I1
F-0.875
S'worst'
p298
tp299
a(I249
I20
F0.125
S'first'
p300
tp301
as(S'works'
p302
tp303
(lp304
(I18
I0
F0.875
S'happy'
p305
tp306
a(I54
I2
F0.375
S'new'
p307
tp308
a(I62
I0
I0
S'great'
p309
tp310
a(I91
I4
I0
S'great'
p311
tp312
a(I174
I2
F-0.375
S'manual'
p313
tp314
a(I195
I8
I0
S'great'
p315
tp316
a(I196
I2
I0
S'great'
p317
tp318
as(S'card'
p319
tp320
(lp321
(I215
I2
F-0.5
S'call'
p322
tp323
as(S'battery'
p324
tp325
(lp326
(I3
I0
F-0.75
S'dead'
p327
tp328
a(I147
I1
F0.5
S'strong'
p329
tp330
a(I188
I1
F-0.75
S'wrong'
p331
tp332
a(I188
I2
F-0.75
S'wrong'
p333
tp334
as(S'postal'
p335
S'office'
p336
tp337
(lp338
(I249
I8
I0
S'postal'
p339
tp340
a(I249
I17
I0
S'postal'
p341
tp342
a(I249
I18
I0
S'postal'
p343
tp344
as(S'network'
p345
tp346
(lp347
(I90
I6
I0
S'specific'
p348
tp349
as(S'cell'
p350
tp351
(lp352
(I101
I1
F-0.625
S'sorry'
p353
tp354
a(I101
I1
I0
S'more'
p355
tp356
a(I137
I0
F0.25
S'refurbished'
p357
tp358
a(I144
I9
F-0.25
S'modern'
p359
tp360
a(I198
I2
I0
S'more'
p361
tp362
as(S'thing'
p363
tp364
(lp365
(I38
I0
F0.875
S'important'
p366
tp367
a(I134
I0
F-0.625
S'bad'
p368
tp369
a(I162
I0
F-0.625
S'other'
p370
tp371
a(I162
I0
I0
S'such'
p372
tp373
a(I195
I7
I0
S'funny'
p374
tp375
a(I215
I1
I0
S'same'
p376
tp377
as(S'sim'
p378
S'card'
p379
tp380
(lp381
(I90
I5
F-0.375
S'simple'
p382
tp383
a(I90
I5
I0
S'old'
p384
tp385
a(I238
I1
F0.125
S'able'
p386
tp387
as(S'blackberry'
p388
S'tour'
p389
tp390
(lp391
(I207
I0
F-0.125
g38
tp392
as(S'tech'
p393
S'support'
p394
tp395
(lp396
(I59
I5
I0
S'tech'
p397
tp398
a(I133
I3
I0
S'tech'
p399
tp400
as(S'carrier'
p401
tp402
(lp403
(I31
I2
F-0.75
S'wrong'
p404
tp405
as(S'blackberry'
p406
tp407
(lp408
(I8
I7
F-0.25
S'cheaper'
p409
tp410
a(I60
I3
F-0.625
S'other'
p411
tp412
a(I108
I3
F-0.625
S'other'
p413
tp414
a(I195
I13
F-0.625
S'other'
p415
tp416
a(I204
I0
F0.5
S'second'
p417
tp418
a(I232
I0
F0.375
S'new'
p419
tp420
a(I232
I0
F0.25
S'used'
p421
tp422
a(I245
I0
F0.5
S'second'
p423
tp424
a(I249
I4
I0
S'old'
p425
tp426
as(S'data'
p427
tp428
(lp429
(I21
I1
F0.125
S'able'
p430
tp431
a(I212
I0
I0
S'cable'
p432
tp433
as(S'time'
p434
tp435
(lp436
(I8
I9
F-0.625
S'other'
p437
tp438
a(I24
I6
F-0.875
S'hard'
p439
tp440
a(I29
I1
F0.25
S'refurbished'
p441
tp442
a(I71
I0
F0.125
S'first'
p443
tp444
a(I77
I5
F0.125
S'first'
p445
tp446
a(I100
I0
I0
S'considerable'
p447
tp448
a(I123
I5
F0.125
S'first'
p449
tp450
a(I133
I5
F0.375
S'prime'
p451
tp452
a(I148
I9
F-0.75
S'inconvenient'
p453
tp454
a(I148
I9
I0
S'such'
p455
tp456
a(I172
I0
F0.5
S'second'
p457
tp458
a(I172
I0
F0.5
S'second'
p459
tp460
a(I193
I1
F0.125
S'first'
p461
tp462
as(S'buying'
p463
tp464
(lp465
(I26
I1
F0.625
S'interested'
p466
tp467
a(I76
I1
F0.625
S'interested'
p468
tp469
a(I205
I3
I0
S'individual'
p470
tp471
as(S'country'
p472
tp473
(lp474
(I177
I4
I0
g253
tp475
a(I177
I4
F0.125
g255
tp476
a(I212
I2
F0.5
g257
tp477
as(S'customer'
p478
S'service'
p479
tp480
(lp481
(I189
I1
F-0.875
g298
tp482
a(I249
I20
F0.125
g300
tp483
as(S'work'
p484
tp485
(lp486
(I235
I1
F1.0
S'good'
p487
tp488
as(S'please'
p489
tp490
(lp491
(I31
I17
F0.5
S'careful'
p492
tp493
a(I170
I6
F0.5
S'careful'
p494
tp495
as(S'days'
p496
tp497
(lp498
(I82
I0
I0
S'few'
p499
tp500
a(I84
I0
F-0.25
g274
tp501
a(I158
I0
F0.125
S'first'
p502
tp503
a(I158
I1
I0
S'later'
p504
tp505
a(I177
I4
F-0.75
g276
tp506
a(I204
I0
F-0.25
g278
tp507
a(I249
I7
I0
g280
tp508
as(S'touch'
p509
S'screen'
p510
tp511
(lp512
(I25
I3
F-0.75
g78
tp513
a(I25
I3
F-0.625
g80
tp514
a(I25
I3
F0.5
g82
tp515
a(I144
I1
F0.5
g88
tp516
as.