(dp0
(S'seller'
p1
tp2
(lp3
(I2
I16
F1.0
S'good'
p4
I19
tp5
a(I2
I16
F0.375
S'honest'
p6
I19
tp7
a(I2
I18
F-0.625
S'bad'
p8
I19
tp9
a(I2
I18
F-0.625
S'unprofessional'
p10
I19
tp11
a(I6
I10
F-0.125
S'private'
p12
I19
tp13
as(S'android'
p14
tp15
(lp16
(I6
I12
F0.125
S'last'
p17
I0
tp18
a(I6
I49
F-0.625
S'other'
p19
I0
tp20
a(I8
I16
F0.375
S'newest'
p21
I0
tp22
a(I9
I28
F0.125
S'first'
p23
I0
tp24
a(I10
I33
I0
S'old'
p25
I0
tp26
as(S'full'
p27
S'refund'
p28
tp29
(lp30
(I6
I31
I0
S'full'
p31
I0
tp32
a(I6
I36
I0
S'full'
p33
I0
tp34
a(I8
I35
I0
S'full'
p35
I0
tp36
as(S'battery'
p37
tp38
(lp39
(I11
I27
F0.25
S'used'
p40
I15
tp41
as(S'force'
p42
S'close'
p43
tp44
(lp45
(I0
I8
F-0.625
S'corrupt'
p46
I0
tp47
as(S'motorola'
p48
S'devour'
p49
tp50
(lp51
(I6
I39
F0.375
S'new'
p52
I0
tp53
as(S'apps'
p54
tp55
(lp56
(I2
I36
I0
S'great'
p57
I0
tp58
a(I4
I6
I0
S'many'
p59
I0
tp60
a(I6
I12
F0.125
S'able'
p61
I0
tp62
a(I6
I14
F0.125
S'able'
p63
I0
tp64
a(I6
I14
F0.375
S'new'
p65
I0
tp66
a(I6
I20
F0.375
S'available'
p67
I0
tp68
a(I8
I9
F0.375
S'newest'
p69
I0
tp70
as(S'contact'
p71
S'list'
p72
tp73
(lp74
(I10
I16
I0
S'old'
p75
I0
tp76
as.