(dp0
(S'internet'
p1
tp2
(lp3
(I2
I0
I0
S'only'
p4
I6
tp5
as(S'a'
p6
S'data'
p7
S'plan'
p8
tp9
(lp10
(I13
I87
F-0.625
S'impractical'
p11
I0
tp12
a(I13
I87
F-0.625
g11
I0
tp13
a(I4
I29
I0
S'cable'
p14
I13
tp15
a(I13
I87
F-0.625
g11
I13
tp16
as(S'battery'
p17
tp18
(lp19
(I9
I26
I0
S'headset'
p20
I15
tp21
a(I9
I47
F-0.25
S'low'
p22
I15
tp23
a(I10
I19
F0.375
S'new'
p24
I15
tp25
a(I13
I17
I0
S'standard'
p26
I15
tp27
a(I13
I17
F1.0
S'good'
p28
I15
tp29
as(S't'
p30
S'sim'
p31
S'card'
p32
tp33
(lp34
(I12
I3
F0.125
S'able'
p35
I0
tp36
a(I12
I3
F0.125
g35
I0
tp37
as(S'sidekick'
p38
tp39
(lp40
(I6
I2
F0.375
S'new'
p41
I0
tp42
as(S'service'
p43
tp44
(lp45
(I1
I12
F1.0
S'good'
p46
I16
tp47
a(I14
I37
F1.0
S'good'
p48
I16
tp49
as(S'clear'
p50
S'case'
p51
tp52
(lp53
(I0
I12
I0
S'such'
p54
I0
tp55
a(I1
I30
F0.5
S'clear'
p56
I0
tp57
a(I1
I65
F0.5
S'clear'
p58
I0
tp59
a(I4
I31
F0.375
S'extra'
p60
I0
tp61
a(I4
I31
F-0.625
S'free'
p62
I0
tp63
a(I4
I31
F0.5
S'clear'
p64
I0
tp65
a(I9
I6
F-0.625
S'free'
p66
I0
tp67
a(I9
I6
F0.5
S'clear'
p68
I0
tp69
a(I13
I32
F0.5
S'clear'
p70
I0
tp71
as(S'text'
p72
S'messages'
p73
tp74
(lp75
(I12
I2
I0
S'text'
p76
I0
tp77
a(I12
I3
I0
S'text'
p78
I0
tp79
a(I15
I7
I0
S'text'
p80
I0
tp81
a(I15
I7
I0
S'quick'
p82
I0
tp83
as.