(dp0
(S'a'
p1
S'4g'
p2
S'area'
p3
tp4
(lp5
(I1
I326
F0.375
S'extra'
p6
I0
tp7
a(I9
I55
F0.5
S'strong'
p8
I0
tp9
a(I14
I104
F0.125
S'enough'
p10
I0
tp11
a(I17
I207
F0.375
S'available'
p12
I0
tp13
a(I19
I104
F-0.5
S'upset'
p14
I0
tp15
a(I22
I161
F-0.5
S'weak'
p16
I0
tp17
a(I22
I161
I0
S'faster'
p18
I0
tp19
a(I22
I162
F-0.625
S'bad'
p20
I0
tp21
a(I22
I178
F0.375
S'available'
p22
I0
tp23
a(I22
I256
F0.375
S'available'
p24
I0
tp25
a(I22
I256
I0
S'slower'
p26
I0
tp27
a(I22
I256
I0
S'same'
p28
I0
tp29
a(I27
I32
F0.5
S'live'
p30
I0
tp31
as(S'google'
p32
tp33
(lp34
(I1
I28
I0
S'quick'
p35
I4
tp36
a(I22
I137
I0
S'great'
p37
I4
tp38
a(I22
I195
I0
S'same'
p39
I4
tp40
a(I27
I13
F-0.625
S'other'
p41
I4
tp42
as(S'poor'
p43
S'battery'
p44
S'life'
p45
tp46
(lp47
(I1
I15
F-0.5
S'poor'
p48
I0
tp49
a(I1
I51
F-0.5
S'poor'
p50
I0
tp51
a(I1
I247
F-0.5
S'poor'
p52
I0
tp53
a(I9
I92
F-0.5
S'poor'
p54
I0
tp55
a(I14
I124
F-0.5
S'poor'
p56
I0
tp57
a(I18
I23
F-0.625
S'bad'
p58
I0
tp59
a(I19
I21
F-0.5
S'poor'
p60
I0
tp61
a(I20
I3
F-0.5
S'poor'
p62
I0
tp63
as(S'hundred'
p64
S'dollars'
p65
tp66
(lp67
(I21
I189
I0
S'sir'
p68
I2
tp69
a(I21
I225
F0.25
S'original'
p70
I2
tp71
as(S'4g'
p72
S'network'
p73
tp74
(lp75
(I22
I251
F-0.125
S'slow'
p76
I0
tp77
a(I25
I51
F0.375
S'available'
p78
I0
tp79
a(I29
I111
F0.5
S'strong'
p80
I0
tp81
a(I11
I135
F1.0
S'better'
p82
I0
tp83
a(I12
I63
I0
S'cellular'
p84
I0
tp85
a(I12
I86
F-0.125
S'overall'
p86
I0
tp87
a(I12
I132
I0
S'great'
p88
I0
tp89
a(I12
I230
F-0.625
S'other'
p90
I0
tp91
a(I12
I230
I0
S'social'
p92
I0
tp93
a(I15
I0
F-0.125
S'overall'
p94
I0
tp95
a(I16
I45
I0
S'faster'
p96
I0
tp97
a(I16
I61
I0
S'great'
p98
I0
tp99
a(I17
I358
F0.375
S'new'
p100
I0
tp101
a(I19
I11
I0
S'mobile'
p102
I0
tp103
a(I22
I251
F-0.125
g76
I0
tp104
a(I22
I255
F-0.625
S'other'
p105
I0
tp106
a(I25
I51
F0.375
g78
I0
tp107
a(I29
I111
F0.5
g80
I0
tp108
as(S'on'
p109
S'screen'
p110
S'keyboard'
p111
tp112
(lp113
(I2
I152
F0.25
S'bigger'
p114
I0
tp115
a(I3
I41
I0
S'full'
p116
I0
tp117
a(I4
I44
I0
S'physical'
p118
I0
tp119
a(I4
I44
F0.25
S'biggest'
p120
I0
tp121
a(I12
I74
F0.25
S'larger'
p122
I0
tp123
a(I12
I74
F0.5
S'accurate'
p124
I0
tp125
a(I12
I74
F0.625
S'easier'
p126
I0
tp127
a(I12
I193
F0.5
S'accurate'
p128
I0
tp129
a(I15
I12
F0.25
S'adaptive'
p130
I0
tp131
a(I16
I64
I0
S'large'
p132
I0
tp133
a(I16
I64
F0.625
S'easy'
p134
I0
tp135
a(I17
I351
I0
S'real'
p136
I0
tp137
a(I18
I79
F0.25
S'responsive'
p138
I0
tp139
a(I18
I79
I0
S'big'
p140
I0
tp141
a(I19
I21
F-0.625
S'inaccurate'
p142
I0
tp143
a(I27
I59
F0.25
S'larger'
p144
I0
tp145
a(I2
I131
I0
S'few'
p146
I2
tp147
a(I2
I131
F1.0
S'good'
p148
I2
tp149
a(I2
I188
F-0.75
S'little'
p150
I2
tp151
a(I3
I41
I0
g116
I2
tp152
a(I4
I17
F0.25
S'bigger'
p153
I2
tp154
a(I4
I44
I0
g118
I2
tp155
a(I4
I45
I0
S'physical'
p156
I2
tp157
a(I8
I4
I0
S'physical'
p158
I2
tp159
a(I12
I63
I0
S'different'
p160
I2
tp161
a(I12
I74
F0.5
g124
I2
tp162
a(I12
I74
F0.625
g126
I2
tp163
a(I12
I193
F0.5
g128
I2
tp164
a(I15
I12
F0.25
g130
I2
tp165
a(I17
I137
I0
S'physical'
p166
I2
tp167
a(I17
I270
I0
S'soft'
p168
I2
tp169
a(I17
I351
I0
g136
I2
tp170
a(I18
I79
F0.25
g138
I2
tp171
a(I19
I21
F-0.625
g142
I2
tp172
a(I21
I71
F-0.375
S'manual'
p173
I2
tp174
a(I21
I109
F0.625
S'easier'
p175
I2
tp176
a(I25
I69
I0
S'physical'
p177
I2
tp178
as(S'advanced'
p179
S'task'
p180
S'killer'
p181
tp182
(lp183
(I17
I225
F0.5
S'advanced'
p184
I0
tp185
as(S'sprint'
p186
tp187
(lp188
(I0
I86
F-0.375
S'yearly'
p189
I0
tp190
a(I0
I115
F0.625
S'easier'
p191
I0
tp192
a(I0
I115
F-0.5
S'less'
p193
I0
tp194
a(I0
I115
F0.5
S'expensive'
p195
I0
tp196
a(I1
I4
I0
S'such'
p197
I0
tp198
a(I1
I79
F0.625
S'attributable'
p199
I0
tp200
a(I1
I308
F-0.125
S'super'
p201
I0
tp202
a(I1
I308
F0.625
S'easy'
p203
I0
tp204
a(I1
I314
F-0.125
S'overall'
p205
I0
tp206
a(I4
I26
F0.125
S'able'
p207
I0
tp208
a(I5
I62
F-0.5
S'sudden'
p209
I0
tp210
a(I9
I48
F0.75
S'due'
p211
I0
tp212
a(I9
I51
F-0.625
S'bad'
p213
I0
tp214
a(I9
I78
I0
S'close'
p215
I0
tp216
a(I9
I101
I0
S'optional'
p217
I0
tp218
a(I11
I152
F0.375
S'extra'
p219
I0
tp220
a(I12
I141
F-0.625
S'free'
p221
I0
tp222
a(I12
I148
I0
S'fast'
p223
I0
tp224
a(I12
I169
F0.875
S'happier'
p225
I0
tp226
a(I14
I0
F0.5
S'loyal'
p227
I0
tp228
a(I14
I7
I0
S'local'
p229
I0
tp230
a(I14
I98
I0
S'website'
p231
I0
tp232
a(I16
I41
F0.875
S'happy'
p233
I0
tp234
a(I16
I46
F0.375
S'available'
p235
I0
tp236
a(I17
I160
F0.5
S'live'
p237
I0
tp238
a(I17
I380
F-0.625
S'free'
p239
I0
tp240
a(I21
I195
F0.375
S'new'
p241
I0
tp242
a(I22
I53
F0.5
S'technical'
p243
I0
tp244
a(I22
I53
F0.5
S'compatible'
p245
I0
tp246
a(I22
I57
F0.25
S'helpful'
p247
I0
tp248
a(I22
I60
I0
S'defensive'
p249
I0
tp250
a(I22
I150
F0.875
S'happy'
p251
I0
tp252
a(I22
I209
F-0.625
S'other'
p253
I0
tp254
a(I22
I219
F0.5
S'technical'
p255
I0
tp256
a(I22
I340
I0
S'more'
p257
I0
tp258
a(I23
I3
I0
S'local'
p259
I0
tp260
a(I24
I83
F-0.5
S'less'
p261
I0
tp262
a(I24
I83
F0.5
S'expensive'
p263
I0
tp264
a(I29
I119
F-0.25
S'cheaper'
p265
I0
tp266
as(g1
S'touch'
p267
S'screen'
p268
tp269
(lp270
(I0
I43
F0.5
S'touch'
p271
I0
tp272
a(I0
I43
F0.25
S'responsive'
p273
I0
tp274
a(I0
I43
F-0.75
S'difficult'
p275
I0
tp276
a(I3
I39
F0.5
S'touch'
p277
I0
tp278
a(I4
I4
F0.5
S'whole'
p279
I0
tp280
a(I4
I44
F0.25
g120
I0
tp281
a(I9
I30
F0.5
S'accurate'
p282
I0
tp283
a(I10
I16
F0.5
S'touch'
p284
I0
tp285
a(I12
I170
F0.875
S'nice'
p286
I0
tp287
a(I12
I170
I0
S'big'
p288
I0
tp289
a(I14
I25
I0
S'quick'
p290
I0
tp291
a(I14
I25
F0.25
S'responsive'
p292
I0
tp293
a(I14
I86
F-0.375
S'small'
p294
I0
tp295
a(I14
I86
F0.25
S'effective'
p296
I0
tp297
a(I14
I86
F0.5
S'touch'
p298
I0
tp299
a(I18
I55
I0
S'more'
p300
I0
tp301
a(I18
I55
I0
S'sensitive'
p302
I0
tp303
a(I19
I14
I0
S'great'
p304
I0
tp305
a(I22
I239
I0
S'close'
p306
I0
tp307
a(I22
I312
I0
S'big'
p308
I0
tp309
a(I22
I312
I0
S'most'
p310
I0
tp311
a(I22
I366
F0.5
S'touch'
p312
I0
tp313
a(I23
I29
F0.5
S'touch'
p314
I0
tp315
a(I24
I109
I0
S'large'
p316
I0
tp317
a(I25
I70
F0.5
S'touch'
p318
I0
tp319
a(I27
I69
F-0.75
S'single'
p320
I0
tp321
a(I29
I92
F0.5
S'touch'
p322
I0
tp323
a(I0
I43
F0.5
g271
I2
tp324
a(I0
I43
F0.25
g273
I2
tp325
a(I0
I43
F-0.75
g275
I2
tp326
a(I3
I39
F0.5
g277
I2
tp327
a(I4
I4
F0.5
g279
I2
tp328
a(I4
I44
F0.25
g120
I2
tp329
a(I9
I30
F0.5
g282
I2
tp330
a(I10
I16
F0.5
g284
I2
tp331
a(I12
I170
F0.875
g286
I2
tp332
a(I12
I170
I0
g288
I2
tp333
a(I14
I25
I0
g290
I2
tp334
a(I14
I25
F0.25
g292
I2
tp335
a(I14
I86
F-0.375
g294
I2
tp336
a(I14
I86
F0.25
g296
I2
tp337
a(I14
I86
F0.5
g298
I2
tp338
a(I18
I55
I0
g300
I2
tp339
a(I18
I55
I0
g302
I2
tp340
a(I19
I14
I0
g304
I2
tp341
a(I22
I239
I0
g306
I2
tp342
a(I22
I312
I0
g308
I2
tp343
a(I22
I312
I0
g310
I2
tp344
a(I22
I366
F0.5
g312
I2
tp345
a(I23
I29
F0.5
g314
I2
tp346
a(I24
I109
I0
g316
I2
tp347
a(I25
I70
F0.5
g318
I2
tp348
a(I27
I69
F-0.75
g320
I2
tp349
a(I29
I92
F0.5
g322
I2
tp350
as(S'front'
p351
S'facing'
p352
S'camera'
p353
tp354
(lp355
(I9
I41
I0
S'rear'
p356
I0
tp357
a(I12
I218
F-0.75
S'secondary'
p358
I0
tp359
a(I1
I29
F0.125
S'dedicated'
p360
I1
tp361
a(I1
I132
I0
S'great'
p362
I1
tp363
a(I2
I126
I0
S'great'
p364
I1
tp365
a(I4
I24
F-0.375
S'smaller'
p366
I1
tp367
a(I8
I8
F0.125
S'digital'
p368
I1
tp369
a(I9
I42
I0
S'rear'
p370
I1
tp371
a(I10
I40
F-0.875
S'hard'
p372
I1
tp373
a(I10
I47
F-0.25
S'epic'
p374
I1
tp375
a(I12
I78
F0.125
S'capable'
p376
I1
tp377
a(I16
I18
I0
S'great'
p378
I1
tp379
a(I16
I22
I0
S'great'
p380
I1
tp381
a(I16
I85
F0.875
S'nice'
p382
I1
tp383
a(I17
I131
F0.125
S'digital'
p384
I1
tp385
a(I17
I219
I0
S'great'
p386
I1
tp387
a(I19
I60
F1.0
S'good'
p388
I1
tp389
a(I21
I62
F0.125
S'first'
p390
I1
tp391
a(I22
I93
F1.0
S'good'
p392
I1
tp393
a(I22
I93
F0.25
S'main'
p394
I1
tp395
a(I22
I141
F1.0
S'good'
p396
I1
tp397
a(I22
I426
F-0.625
S'bad'
p398
I1
tp399
a(I22
I435
I0
S'great'
p400
I1
tp401
a(I22
I477
F-0.75
S'dark'
p402
I1
tp403
a(I22
I482
I0
S'great'
p404
I1
tp405
a(I24
I109
F0.5
S'primary'
p406
I1
tp407
a(I24
I109
F-0.75
S'secondary'
p408
I1
tp409
a(I25
I24
F-0.125
S'traffic'
p410
I1
tp411
a(I26
I18
I0
S'great'
p412
I1
tp413
a(I27
I36
F0.5
S'satisfactory'
p414
I1
tp415
a(I29
I83
F-0.5
S'actual'
p416
I1
tp417
a(I29
I123
F0.875
S'nice'
p418
I1
tp419
as(S'internet'
p420
tp421
(lp422
(I1
I200
F0.5
S'primary'
p423
I6
tp424
a(I14
I143
I0
S'fast'
p425
I6
tp426
a(I21
I130
I-100
S'10/day'
p427
I6
tp428
a(I22
I269
I0
S'more'
p429
I6
tp430
as(S'headphone'
p431
S'jack'
p432
tp433
(lp434
(I0
I193
F-0.75
S'difficult'
p435
I0
tp436
as(S'personal'
p437
S'preference'
p438
tp439
(lp440
(I0
I154
F0.5
S'personal'
p441
I0
tp442
a(I11
I160
F0.5
S'personal'
p443
I0
tp444
a(I29
I102
F0.5
S'personal'
p445
I0
tp446
as(S'apple'
p447
tp448
(lp449
(I10
I1
F-0.375
S'robust'
p450
I4
tp451
a(I11
I55
F0.375
S'honest'
p452
I4
tp453
a(I12
I43
F0.875
S'happy'
p454
I4
tp455
a(I12
I162
F0.375
S'much'
p456
I4
tp457
a(I22
I506
F-0.625
S'bad'
p458
I4
tp459
a(I29
I60
F-0.5
S'less'
p460
I4
tp461
a(I29
I60
I0
S'proprietary'
p462
I4
tp463
as(S'times'
p464
g1
S'day'
p465
tp466
(lp467
(I3
I37
I0
S'few'
p468
I0
tp469
a(I17
I17
F-0.625
S'other'
p470
I0
tp471
a(I22
I229
F-0.5
S'less'
p472
I0
tp473
a(I22
I229
F-0.75
S'single'
p474
I0
tp475
a(I22
I229
I0
S'few'
p476
I0
tp477
a(I22
I474
I0
S'few'
p478
I0
tp479
as(S'third'
p480
S'party'
p481
tp482
(lp483
(I2
I45
I0
S'third'
p484
I0
tp485
a(I12
I349
I0
S'third'
p486
I0
tp487
a(I27
I62
I0
S'third'
p488
I0
tp489
as(S'charge'
p490
S'every'
p491
S'night'
p492
tp493
(lp494
(I16
I54
F0.125
S'enough'
p495
I0
tp496
as(g1
S'task'
p497
S'killer'
p498
tp499
(lp500
(I1
I60
F-0.625
S'to-do'
p501
I0
tp502
a(I17
I225
F0.5
g184
I0
tp503
a(I22
I329
F-0.5
S'sure'
p504
I0
tp505
as(S'better'
p506
S'than'
p507
S'iphone'
p508
tp509
(lp510
(I11
I8
F0.125
S'equal'
p511
I0
tp512
a(I11
I8
F1.0
S'better'
p513
I0
tp514
a(I11
I108
F0.375
S'much'
p515
I0
tp516
a(I16
I71
F1.0
S'better'
p517
I0
tp518
a(I16
I170
F1.0
S'better'
p519
I0
tp520
a(I0
I90
I0
S'more'
p521
I1
tp522
a(I1
I131
F0.5
S'possible'
p523
I1
tp524
a(I2
I119
I0
S'switched'
p525
I1
tp526
a(I2
I134
F1.0
S'good'
p527
I1
tp528
a(I6
I19
F0.375
S'new'
p529
I1
tp530
a(I6
I21
F0.375
S'new'
p531
I1
tp532
a(I7
I30
I0
S'exclusive'
p533
I1
tp534
a(I7
I39
F0.5
S'whole'
p535
I1
tp536
a(I7
I42
F0.625
S'polish'
p537
I1
tp538
a(I10
I2
F0.375
S'much'
p539
I1
tp540
a(I10
I18
F-0.25
S'epic'
p541
I1
tp542
a(I11
I8
F0.125
g511
I1
tp543
a(I11
I8
F1.0
g513
I1
tp544
a(I11
I38
I0
S'general'
p545
I1
tp546
a(I11
I38
F-0.125
S'slow'
p547
I1
tp548
a(I11
I72
I0
S'same'
p549
I1
tp550
a(I11
I84
F-0.75
S'comfortable'
p551
I1
tp552
a(I12
I17
F0.375
S'new'
p553
I1
tp554
a(I12
I23
F0.375
S'new'
p555
I1
tp556
a(I12
I64
F-0.75
S'short'
p557
I1
tp558
a(I12
I66
F0.5
S'clearer'
p559
I1
tp560
a(I12
I145
F0.625
S'easy'
p561
I1
tp562
a(I16
I1
F0.375
S'new'
p563
I1
tp564
a(I16
I37
F0.375
S'new'
p565
I1
tp566
a(I16
I62
F0.375
S'new'
p567
I1
tp568
a(I16
I71
F1.0
g517
I1
tp569
a(I16
I170
F1.0
g519
I1
tp570
a(I16
I174
F0.25
S'used'
p571
I1
tp572
a(I16
I180
I0
S'more'
p573
I1
tp574
a(I16
I187
F-0.5
S'sure'
p575
I1
tp576
a(I17
I8
F-0.125
S'slow'
p577
I1
tp578
a(I17
I48
F1.0
S'good'
p579
I1
tp580
a(I17
I91
F0.25
S'are'
p581
I1
tp582
a(I17
I94
I0
S'next'
p583
I1
tp584
a(I17
I144
F0.375
S'available'
p585
I1
tp586
a(I17
I186
I0
S'more'
p587
I1
tp588
a(I17
I319
I0
S'old'
p589
I1
tp590
a(I21
I143
F-0.25
S'past'
p591
I1
tp592
a(I22
I314
F0.375
S'available'
p593
I1
tp594
a(I22
I486
I0
S'old'
p595
I1
tp596
a(I22
I511
F-0.5
S'sure'
p597
I1
tp598
a(I22
I511
I0
S'great'
p599
I1
tp600
a(I24
I24
F-0.25
S'cheaper'
p601
I1
tp602
a(I24
I75
I0
S'general'
p603
I1
tp604
a(I24
I79
F0.5
S'comparable'
p605
I1
tp606
a(I24
I79
I-100
S'plans-even'
p607
I1
tp608
a(I24
I97
F1.0
S'good'
p609
I1
tp610
a(I24
I102
I0
S'great'
p611
I1
tp612
a(I27
I92
F-0.75
S'single'
p613
I1
tp614
a(I27
I92
I0
S'song'
p615
I1
tp616
as(S'an'
p617
S'extended'
p618
S'battery'
p619
tp620
(lp621
(I1
I115
F0.375
S'extended'
p622
I0
tp623
a(I1
I170
F0.375
S'extended'
p624
I0
tp625
a(I1
I173
F0.375
S'extended'
p626
I0
tp627
a(I4
I32
F0.375
S'extended'
p628
I0
tp629
a(I4
I34
F0.375
S'extended'
p630
I0
tp631
a(I10
I51
F-0.25
S'cheap'
p632
I0
tp633
a(I10
I60
F0.375
S'extended'
p634
I0
tp635
a(I11
I173
F0.375
S'extended'
p636
I0
tp637
a(I22
I494
F0.375
S'extended'
p638
I0
tp639
a(I22
I522
F0.375
S'extended'
p640
I0
tp641
a(I22
I522
F0.375
S'extended'
p642
I0
tp643
a(I22
I522
F-0.25
S'low'
p644
I0
tp645
a(I1
I115
F0.375
g622
I0
tp646
a(I1
I170
F0.375
g624
I0
tp647
a(I1
I173
F0.375
g626
I0
tp648
a(I4
I32
F0.375
g628
I0
tp649
a(I4
I33
F0.375
S'extended'
p650
I0
tp651
a(I4
I34
F0.375
g630
I0
tp652
a(I4
I41
F0.375
S'extended'
p653
I0
tp654
a(I10
I51
F-0.25
g632
I0
tp655
a(I10
I60
F0.375
g634
I0
tp656
a(I11
I10
F0.375
S'extended'
p657
I0
tp658
a(I11
I173
F0.375
g636
I0
tp659
a(I22
I494
F0.375
g638
I0
tp660
a(I22
I522
F0.375
g640
I0
tp661
a(I22
I522
F0.375
g642
I0
tp662
a(I22
I522
F-0.25
g644
I0
tp663
as(g1
S'long'
p664
S'time'
p665
tp666
(lp667
(I9
I77
F-0.5
S'long'
p668
I12
tp669
a(I16
I10
F-0.5
S'long'
p670
I12
tp671
a(I18
I6
F-0.5
S'long'
p672
I12
tp673
a(I19
I15
F-0.5
S'long'
p674
I12
tp675
a(I22
I217
F-0.5
S'long'
p676
I12
tp677
a(I22
I223
F-0.5
S'long'
p678
I12
tp679
a(I22
I270
F-0.5
S'long'
p680
I12
tp681
a(I22
I275
F-0.5
S'long'
p682
I12
tp683
as(S'an'
p684
S'extra'
p685
S'battery'
p686
tp687
(lp688
(I2
I116
F0.375
S'extra'
p689
I0
tp690
a(I16
I183
F0.375
S'extra'
p691
I0
tp692
a(I17
I10
F-0.75
S'short'
p693
I0
tp694
a(I21
I233
F0.375
S'extra'
p695
I0
tp696
a(I22
I426
F0.375
S'extra'
p697
I0
tp698
a(I25
I37
F0.375
S'extra'
p699
I0
tp700
a(I26
I41
F0.375
S'extra'
p701
I0
tp702
as(S'early'
p703
S'nights'
p704
tp705
(lp706
(I12
I156
F0.375
S'early'
p707
I0
tp708
a(I12
I167
F0.375
S'early'
p709
I0
tp710
as(S'htc'
p711
S'evo'
p712
tp713
(lp714
(I0
I164
F-0.25
S'disappointing'
p715
I0
tp716
a(I1
I93
I0
S'included'
p717
I0
tp718
a(I1
I128
F0.375
S'new'
p719
I0
tp720
a(I1
I136
F0.375
S'new'
p721
I0
tp722
a(I4
I37
F0.375
S'new'
p723
I0
tp724
a(I4
I45
I0
S'fast'
p725
I0
tp726
a(I12
I128
F-0.25
S'past'
p727
I0
tp728
a(I12
I353
F-0.75
S'wrong'
p729
I0
tp730
a(I16
I63
I0
S'third'
p731
I0
tp732
a(I17
I148
F0.375
S'new'
p733
I0
tp734
a(I18
I35
F1.0
S'best'
p735
I0
tp736
a(I22
I151
F-0.625
S'quite'
p737
I0
tp738
as(S'gas'
p739
S'station'
p740
tp741
(lp742
(I22
I183
F0.5
S'second'
p743
I0
tp744
a(I22
I183
F-0.375
S'nearest'
p745
I0
tp746
a(I22
I184
I0
S'next'
p747
I0
tp748
as(S'10'
p749
S'per'
p750
S'month'
p751
tp752
(lp753
(I1
I10
F0.375
S'extra'
p754
I0
tp755
a(I1
I14
F-0.5
S'less'
p756
I0
tp757
a(I22
I52
F0.375
S'extra'
p758
I0
tp759
as(S'big'
p760
S'screen'
p761
tp762
(lp763
(I0
I173
I0
S'big'
p764
I1
tp765
a(I1
I54
I0
S'big'
p766
I1
tp767
a(I1
I132
I0
S'big'
p768
I1
tp769
a(I2
I152
F0.25
g114
I1
tp770
a(I4
I24
I0
S'big'
p771
I1
tp772
a(I4
I24
I0
S'incredible'
p773
I1
tp774
a(I4
I44
F0.25
g120
I1
tp775
a(I10
I16
F0.5
g284
I1
tp776
a(I10
I17
I0
S'big'
p777
I1
tp778
a(I11
I151
I0
S'big'
p779
I1
tp780
a(I12
I55
I0
S'large'
p781
I1
tp782
a(I12
I161
F0.25
S'bigger'
p783
I1
tp784
a(I12
I161
F0.25
S'bigger'
p785
I1
tp786
a(I12
I170
F0.875
g286
I1
tp787
a(I12
I170
I0
g288
I1
tp788
a(I12
I180
F0.25
S'bigger'
p789
I1
tp790
a(I14
I90
I0
S'big'
p791
I1
tp792
a(I14
I90
F0.125
S'impressive'
p793
I1
tp794
a(I14
I145
I0
S'big'
p795
I1
tp796
a(I14
I145
F0.5
S'live'
p797
I1
tp798
a(I15
I56
I0
S'big'
p799
I1
tp800
a(I17
I42
F0.25
S'bigger'
p801
I1
tp802
a(I17
I187
F0.875
S'nice'
p803
I1
tp804
a(I17
I187
I0
S'big'
p805
I1
tp806
a(I17
I333
F0.75
S'beautiful'
p807
I1
tp808
a(I17
I353
I0
S'big'
p809
I1
tp810
a(I18
I70
I0
S'fast'
p811
I1
tp812
a(I18
I70
F0.125
S'solid'
p813
I1
tp814
a(I18
I70
F0.875
S'nice'
p815
I1
tp816
a(I18
I70
I0
S'big'
p817
I1
tp818
a(I18
I79
I0
g140
I1
tp819
a(I18
I87
F0.75
S'beautiful'
p820
I1
tp821
a(I21
I17
I0
S'big'
p822
I1
tp823
a(I21
I158
I0
S'big'
p824
I1
tp825
a(I22
I312
I0
g308
I1
tp826
a(I22
I312
I0
g310
I1
tp827
a(I22
I318
I0
S'big'
p828
I1
tp829
a(I22
I478
I0
S'big'
p830
I1
tp831
a(I22
I521
I0
S'big'
p832
I1
tp833
a(I22
I521
F0.75
S'beautiful'
p834
I1
tp835
a(I24
I43
I0
S'big'
p836
I1
tp837
a(I24
I53
F0.25
S'bigger'
p838
I1
tp839
a(I25
I67
F0.25
S'bigger'
p840
I1
tp841
a(I25
I67
F1.0
S'good'
p842
I1
tp843
a(I27
I18
F0.25
S'bigger'
p844
I1
tp845
as(S'calls'
p846
tp847
(lp848
(I1
I302
F0.875
S'important'
p849
I0
tp850
a(I2
I73
F1.0
S'better'
p851
I0
tp852
a(I6
I28
F1.0
S'better'
p853
I0
tp854
a(I7
I2
I0
S'few'
p855
I0
tp856
a(I11
I164
F-0.5
S'long'
p857
I0
tp858
a(I12
I141
I0
S'mobile'
p859
I0
tp860
a(I12
I244
F0.5
S'clear'
p861
I0
tp862
a(I16
I186
F-0.5
S'less'
p863
I0
tp864
a(I17
I40
F-0.25
S'dropped'
p865
I0
tp866
a(I17
I146
I0
S'great'
p867
I0
tp868
a(I17
I146
F1.0
S'good'
p869
I0
tp870
a(I18
I72
I0
S'few'
p871
I0
tp872
a(I18
I72
F-0.75
S'short'
p873
I0
tp874
a(I22
I8
F0.5
S'clear'
p875
I0
tp876
a(I22
I20
F0.875
S'happy'
p877
I0
tp878
a(I22
I20
F0.5
S'clear'
p879
I0
tp880
a(I22
I300
I0
S'many'
p881
I0
tp882
a(I23
I52
F0.5
S'clear'
p883
I0
tp884
a(I23
I68
I0
S'many'
p885
I0
tp886
a(I24
I103
F-0.25
S'dropped'
p887
I0
tp888
as(S'piece'
p889
S'of'
p890
S'junk'
p891
tp892
(lp893
(I17
I319
F0.125
S'able'
p894
I2
tp895
a(I17
I319
F0.875
S'music'
p896
I2
tp897
as(S'1'
p898
S'battery'
p899
S'life'
p900
tp901
(lp902
(I0
I6
F-0.75
S'short'
p903
I0
tp904
a(I11
I182
F-0.75
S'short'
p905
I0
tp906
a(I12
I163
F1.0
S'better'
p907
I0
tp908
a(I17
I10
F-0.75
g693
I0
tp909
as(S'camera'
p910
S'for'
p911
S'video'
p912
tp913
(lp914
(I1
I29
F0.125
g360
I0
tp915
a(I24
I109
F0.5
g406
I0
tp916
a(I24
I109
F-0.75
g408
I0
tp917
a(I26
I21
F1.0
S'good'
p918
I0
tp919
as(g1
S'car'
p920
S'charger'
p921
tp922
(lp923
(I2
I93
F0.5
S'second'
p924
I0
tp925
a(I22
I523
F-0.5
S'sure'
p926
I0
tp927
as(S'blue'
p928
S'tooth'
p929
tp930
(lp931
(I16
I108
I0
S'blue'
p932
I0
tp933
as(S'android'
p934
S'operating'
p935
S'system'
p936
tp937
(lp938
(I9
I1
I0
S'great'
p939
I0
tp940
a(I9
I1
F1.0
S'better'
p941
I0
tp942
a(I11
I53
I0
S'android'
p943
I0
tp944
a(I14
I115
F0.375
S'new'
p945
I0
tp946
a(I22
I459
F0.375
S'much'
p947
I0
tp948
a(I22
I459
F-0.5
S'open'
p949
I0
tp950
a(I9
I1
I0
g939
I2
tp951
a(I9
I1
F1.0
g941
I2
tp952
a(I11
I53
I0
g943
I2
tp953
a(I14
I103
I0
S'great'
p954
I2
tp955
a(I15
I0
I0
S'specific'
p956
I2
tp957
a(I15
I5
I0
S'mobile'
p958
I2
tp959
a(I19
I20
I0
S'particular'
p960
I2
tp961
a(I22
I459
F0.375
g947
I2
tp962
a(I22
I459
F-0.5
g949
I2
tp963
a(I0
I239
F0.375
S'available'
p964
I0
tp965
a(I1
I71
F-0.75
S'likely'
p966
I0
tp967
a(I1
I98
I0
S'open-source'
p968
I0
tp969
a(I1
I165
F1.0
S'best'
p970
I0
tp971
a(I2
I50
F-0.5
S'open'
p972
I0
tp973
a(I4
I9
F-0.5
S'sure'
p974
I0
tp975
a(I4
I9
F0.5
S'whole'
p976
I0
tp977
a(I6
I27
F0.5
S'willing'
p978
I0
tp979
a(I6
I27
F0.375
S'new'
p980
I0
tp981
a(I9
I20
F-0.75
S'have'
p982
I0
tp983
a(I9
I36
F0.25
S'recent'
p984
I0
tp985
a(I9
I63
I0
S'most'
p986
I0
tp987
a(I10
I3
I0
S'general'
p988
I0
tp989
a(I12
I54
F0.375
S'reliable'
p990
I0
tp991
a(I12
I68
F-0.125
S'complex'
p992
I0
tp993
a(I12
I70
F-0.625
S'other'
p994
I0
tp995
a(I12
I71
F-0.625
S'other'
p996
I0
tp997
a(I12
I81
F-0.625
S'other'
p998
I0
tp999
a(I12
I82
F-0.625
S'other'
p1000
I0
tp1001
a(I14
I85
F0.25
S'familiar'
p1002
I0
tp1003
a(I14
I115
F0.375
g945
I0
tp1004
a(I16
I10
I0
S'nervous'
p1005
I0
tp1006
a(I17
I224
F0.5
S'compatible'
p1007
I0
tp1008
a(I17
I224
I0
S'common'
p1009
I0
tp1010
a(I17
I264
F0.375
S'new'
p1011
I0
tp1012
a(I17
I272
F1.0
S'best'
p1013
I0
tp1014
a(I18
I52
I0
S'more'
p1015
I0
tp1016
a(I18
I52
F-0.75
S'likely'
p1017
I0
tp1018
a(I21
I32
F-0.625
S'other'
p1019
I0
tp1020
a(I21
I33
I0
S'more'
p1021
I0
tp1022
a(I21
I157
I0
S'same'
p1023
I0
tp1024
a(I21
I157
F-0.125
S'front'
p1025
I0
tp1026
a(I22
I47
F0.875
S'important'
p1027
I0
tp1028
a(I22
I75
F0.125
S'first'
p1029
I0
tp1030
a(I22
I437
I-100
S'til'
p1031
I0
tp1032
a(I23
I41
F0.625
S'easy'
p1033
I0
tp1034
a(I24
I50
I0
S'update'
p1035
I0
tp1036
a(I24
I76
I0
S'few'
p1037
I0
tp1038
a(I25
I55
I0
S'many'
p1039
I0
tp1040
a(I25
I55
F-0.625
S'other'
p1041
I0
tp1042
a(I27
I12
F0.375
S'available'
p1043
I0
tp1044
a(I27
I79
I0
S'next'
p1045
I0
tp1046
as(S'data'
p1047
tp1048
(lp1049
(I0
I59
F-0.5
S'unlimited'
p1050
I13
tp1051
a(I0
I71
F-0.625
S'light'
p1052
I13
tp1053
a(I2
I52
I0
S'faster'
p1054
I13
tp1055
a(I5
I83
I0
S'fewer'
p1056
I13
tp1057
a(I7
I32
F-0.5
S'unlimited'
p1058
I13
tp1059
a(I7
I47
F-0.125
S'slow'
p1060
I13
tp1061
a(I12
I138
I0
S'soft'
p1062
I13
tp1063
a(I12
I167
I0
S'soft'
p1064
I13
tp1065
a(I14
I9
F0.375
S'similar'
p1066
I13
tp1067
a(I16
I45
F-0.25
S'cheaper'
p1068
I13
tp1069
a(I17
I8
F-0.5
S'unlimited'
p1070
I13
tp1071
a(I19
I101
F0.375
S'extra'
p1072
I13
tp1073
a(I21
I151
I0
S'basic'
p1074
I13
tp1075
a(I29
I31
I0
S'website'
p1076
I13
tp1077
as(S'much'
p1078
S'better'
p1079
tp1080
(lp1081
(I2
I8
F0.375
S'much'
p1082
I9
tp1083
a(I2
I51
F0.375
S'much'
p1084
I9
tp1085
a(I2
I51
F0.125
S'first'
p1086
I9
tp1087
a(I2
I51
F0.5
S'clear'
p1088
I9
tp1089
a(I11
I108
F0.375
g515
I9
tp1090
a(I12
I91
F0.375
S'much'
p1091
I9
tp1092
a(I22
I428
F0.375
S'much'
p1093
I9
tp1094
as(S'with'
p1095
S'battery'
p1096
S'life'
p1097
tp1098
(lp1099
(I0
I65
F-0.5
S'less'
p1100
I0
tp1101
a(I4
I32
F0.375
g628
I0
tp1102
a(I4
I34
F0.375
g630
I0
tp1103
a(I10
I52
I0
S'own'
p1104
I0
tp1105
a(I12
I257
F0.5
S'stronger'
p1106
I0
tp1107
a(I14
I81
F-0.25
S'late'
p1108
I0
tp1109
a(I17
I10
F-0.75
g693
I0
tp1110
a(I17
I48
F0.5
S'true'
p1111
I0
tp1112
a(I18
I23
F-0.625
g58
I0
tp1113
a(I19
I21
F-0.5
g60
I0
tp1114
a(I0
I6
F-0.75
g903
I1
tp1115
a(I0
I34
F-0.75
S'short'
p1116
I1
tp1117
a(I0
I63
F-0.5
S'bear'
p1118
I1
tp1119
a(I0
I64
F-0.875
S'bite'
p1120
I1
tp1121
a(I0
I65
F-0.5
g1100
I1
tp1122
a(I1
I15
F-0.5
g48
I1
tp1123
a(I1
I51
F-0.5
g50
I1
tp1124
a(I1
I55
F0.625
S'necessary'
p1125
I1
tp1126
a(I1
I247
F-0.5
g52
I1
tp1127
a(I2
I169
I0
S'auxiliary'
p1128
I1
tp1129
a(I3
I31
I0
S'faster'
p1130
I1
tp1131
a(I4
I28
F0.125
S'usual'
p1132
I1
tp1133
a(I4
I32
F0.375
g628
I1
tp1134
a(I4
I34
F0.375
g630
I1
tp1135
a(I5
I89
F0.5
S'true'
p1136
I1
tp1137
a(I7
I62
F0.375
S'significant'
p1138
I1
tp1139
a(I9
I73
F-0.25
S'affect'
p1140
I1
tp1141
a(I9
I92
F-0.5
g54
I1
tp1142
a(I10
I52
I0
g1104
I1
tp1143
a(I11
I9
I0
S'great'
p1144
I1
tp1145
a(I11
I173
F-0.625
S'bad'
p1146
I1
tp1147
a(I11
I173
F0.375
g636
I1
tp1148
a(I11
I182
F-0.75
g905
I1
tp1149
a(I12
I163
F1.0
g907
I1
tp1150
a(I12
I173
F-0.5
S'complaint'
p1151
I1
tp1152
a(I12
I184
F0.25
S'biggest'
p1153
I1
tp1154
a(I12
I257
F0.5
g1106
I1
tp1155
a(I14
I58
F-0.25
S'battery'
p1156
I1
tp1157
a(I14
I81
F-0.25
g1108
I1
tp1158
a(I14
I124
F-0.5
g56
I1
tp1159
a(I16
I65
F-0.625
S'bad'
p1160
I1
tp1161
a(I16
I162
I0
S'later'
p1162
I1
tp1163
a(I16
I162
F1.0
S'better'
p1164
I1
tp1165
a(I16
I179
F0.125
S'first'
p1166
I1
tp1167
a(I17
I10
F-0.75
g693
I1
tp1168
a(I17
I48
F0.5
g1111
I1
tp1169
a(I18
I23
F-0.625
g58
I1
tp1170
a(I19
I21
F-0.5
g60
I1
tp1171
a(I19
I139
F0.125
S'able'
p1172
I1
tp1173
a(I20
I3
F-0.5
g62
I1
tp1174
a(I22
I29
F0.375
S'extended'
p1175
I1
tp1176
a(I22
I396
F-0.875
S'inferior'
p1177
I1
tp1178
a(I22
I480
F-0.625
S'bad'
p1179
I1
tp1180
a(I22
I494
F0.375
g638
I1
tp1181
a(I22
I498
F1.0
S'better'
p1182
I1
tp1183
a(I22
I520
F-0.5
S'complaint'
p1184
I1
tp1185
a(I22
I520
F-0.75
S'short'
p1186
I1
tp1187
a(I23
I81
I0
S'prolong'
p1188
I1
tp1189
a(I24
I66
F0.375
S'much'
p1190
I1
tp1191
a(I24
I101
I0
S'great'
p1192
I1
tp1193
a(I27
I28
F0.5
S'comparable'
p1194
I1
tp1195
a(I0
I63
F-0.5
g1118
I19
tp1196
a(I0
I64
F-0.875
g1120
I19
tp1197
a(I0
I65
F-0.5
g1100
I19
tp1198
a(I1
I55
F0.625
g1125
I19
tp1199
a(I3
I31
I0
g1130
I19
tp1200
a(I11
I9
I0
g1144
I19
tp1201
a(I11
I173
F-0.625
g1146
I19
tp1202
a(I11
I182
F-0.75
g905
I19
tp1203
a(I14
I58
F-0.25
g1156
I19
tp1204
a(I16
I65
F-0.625
g1160
I19
tp1205
a(I16
I179
F0.125
g1166
I19
tp1206
a(I22
I29
F0.375
g1175
I19
tp1207
a(I22
I520
F-0.75
g1186
I19
tp1208
a(I24
I19
F0.625
S'easy'
p1209
I19
tp1210
a(I24
I101
I0
g1192
I19
tp1211
a(I27
I28
F0.5
g1194
I19
tp1212
a(I0
I6
F-0.75
g903
I15
tp1213
a(I0
I34
F-0.75
g1116
I15
tp1214
a(I0
I196
I0
S'auxiliary'
p1215
I15
tp1216
a(I0
I196
I0
S'external'
p1217
I15
tp1218
a(I1
I5
I0
S'only'
p1219
I15
tp1220
a(I1
I5
F-0.875
S'negative'
p1221
I15
tp1222
a(I1
I15
F-0.5
g48
I15
tp1223
a(I1
I51
F-0.5
g50
I15
tp1224
a(I1
I54
F0.375
S'available'
p1225
I15
tp1226
a(I1
I115
F0.375
g622
I15
tp1227
a(I1
I118
F0.25
S'weary'
p1228
I15
tp1229
a(I1
I170
F0.375
g624
I15
tp1230
a(I1
I173
F0.375
g626
I15
tp1231
a(I1
I195
F-0.5
S'actual'
p1232
I15
tp1233
a(I1
I247
F-0.5
g52
I15
tp1234
a(I1
I277
I0
S'rapid'
p1235
I15
tp1236
a(I1
I328
F0.25
S'bigger'
p1237
I15
tp1238
a(I1
I328
F0.125
S'last'
p1239
I15
tp1240
a(I1
I328
F-0.5
S'long'
p1241
I15
tp1242
a(I2
I116
F0.375
g689
I15
tp1243
a(I2
I144
F0.125
S'last'
p1244
I15
tp1245
a(I2
I169
I0
g1128
I15
tp1246
a(I3
I38
F-0.875
S'negative'
p1247
I15
tp1248
a(I4
I28
F0.125
g1132
I15
tp1249
a(I4
I32
F0.375
g628
I15
tp1250
a(I4
I33
F0.375
g650
I15
tp1251
a(I4
I34
F0.375
g630
I15
tp1252
a(I4
I41
F0.375
g653
I15
tp1253
a(I5
I26
F0.375
S'new'
p1254
I15
tp1255
a(I5
I30
F-0.25
S'low'
p1256
I15
tp1257
a(I5
I30
F-0.125
S'behold'
p1258
I15
tp1259
a(I5
I34
F0.375
S'new'
p1260
I15
tp1261
a(I5
I35
F0.375
S'new'
p1262
I15
tp1263
a(I5
I55
F0.125
S'able'
p1264
I15
tp1265
a(I5
I89
F0.5
g1136
I15
tp1266
a(I6
I12
F1.0
S'better'
p1267
I15
tp1268
a(I6
I12
F1.0
S'better'
p1269
I15
tp1270
a(I6
I12
F0.25
S'bigger'
p1271
I15
tp1272
a(I6
I13
I0
S'standard'
p1273
I15
tp1274
a(I7
I61
F1.0
S'better'
p1275
I15
tp1276
a(I7
I62
F0.375
g1138
I15
tp1277
a(I9
I73
F-0.25
g1140
I15
tp1278
a(I9
I92
F-0.5
g54
I15
tp1279
a(I10
I9
F-0.375
S'smaller'
p1280
I15
tp1281
a(I10
I11
F0.375
S'much'
p1282
I15
tp1283
a(I10
I51
F-0.25
g632
I15
tp1284
a(I10
I52
I0
g1104
I15
tp1285
a(I10
I60
F0.375
g634
I15
tp1286
a(I11
I10
F0.375
g657
I15
tp1287
a(I11
I76
F0.375
S'available'
p1288
I15
tp1289
a(I11
I97
F0.125
S'first'
p1290
I15
tp1291
a(I11
I97
I0
S'hot'
p1292
I15
tp1293
a(I11
I98
I0
S'hot'
p1294
I15
tp1295
a(I11
I112
F0.375
S'new'
p1296
I15
tp1297
a(I11
I123
I0
S'th'
p1298
I15
tp1299
a(I11
I173
F0.375
g636
I15
tp1300
a(I12
I163
F1.0
g907
I15
tp1301
a(I12
I171
F0.25
S'bigger'
p1302
I15
tp1303
a(I12
I171
F0.75
S'due'
p1304
I15
tp1305
a(I12
I171
F0.25
S'larger'
p1306
I15
tp1307
a(I12
I172
I0
S'such'
p1308
I15
tp1309
a(I12
I173
F-0.5
g1151
I15
tp1310
a(I12
I184
F0.25
g1153
I15
tp1311
a(I12
I188
F-0.75
S'secondary'
p1312
I15
tp1313
a(I12
I242
F0.625
S'removable'
p1314
I15
tp1315
a(I12
I257
F0.5
g1106
I15
tp1316
a(I14
I81
F-0.25
g1108
I15
tp1317
a(I14
I124
F-0.5
g56
I15
tp1318
a(I14
I151
F-0.375
S'small'
p1319
I15
tp1320
a(I16
I99
I0
S'faster'
p1321
I15
tp1322
a(I16
I162
I0
g1162
I15
tp1323
a(I16
I162
F1.0
g1164
I15
tp1324
a(I16
I183
F0.375
g691
I15
tp1325
a(I17
I8
F0.375
S'available'
p1326
I15
tp1327
a(I17
I10
F-0.75
g693
I15
tp1328
a(I17
I37
F0.125
S'typical'
p1329
I15
tp1330
a(I17
I48
F0.5
g1111
I15
tp1331
a(I17
I254
I0
S'most'
p1332
I15
tp1333
a(I18
I23
F-0.625
g58
I15
tp1334
a(I19
I21
F-0.5
g60
I15
tp1335
a(I19
I28
F-0.375
S'smaller'
p1336
I15
tp1337
a(I19
I28
F0.125
S'last'
p1338
I15
tp1339
a(I19
I139
F0.125
g1172
I15
tp1340
a(I20
I3
F-0.5
g62
I15
tp1341
a(I21
I9
F0.625
S'replaceable'
p1342
I15
tp1343
a(I21
I131
I0
S'real'
p1344
I15
tp1345
a(I21
I133
F0.75
S'contrary'
p1346
I15
tp1347
a(I21
I233
F0.375
g695
I15
tp1348
a(I22
I163
F0.25
S'biggest'
p1349
I15
tp1350
a(I22
I280
F0.125
S'able'
p1351
I15
tp1352
a(I22
I284
F1.0
S'good'
p1353
I15
tp1354
a(I22
I391
I0
S'full'
p1355
I15
tp1356
a(I22
I396
F-0.875
g1177
I15
tp1357
a(I22
I426
F0.375
g697
I15
tp1358
a(I22
I480
F-0.625
g1179
I15
tp1359
a(I22
I494
F0.375
g638
I15
tp1360
a(I22
I498
F1.0
g1182
I15
tp1361
a(I22
I514
F0.25
S'larger'
p1362
I15
tp1363
a(I22
I520
F-0.5
g1184
I15
tp1364
a(I22
I521
F-0.5
S'poor'
p1365
I15
tp1366
a(I22
I522
F0.375
g640
I15
tp1367
a(I22
I522
F0.375
g642
I15
tp1368
a(I22
I522
F-0.25
g644
I15
tp1369
a(I23
I39
I0
S'full'
p1370
I15
tp1371
a(I23
I81
I0
g1188
I15
tp1372
a(I24
I66
F0.375
g1190
I15
tp1373
a(I25
I37
F0.375
g699
I15
tp1374
a(I25
I59
I0
S'great'
p1375
I15
tp1376
a(I26
I41
F0.375
g701
I15
tp1377
a(I27
I33
F0.125
S'enough'
p1378
I15
tp1379
as(S'customer'
p1380
S'service'
p1381
tp1382
(lp1383
(I5
I6
F-0.5
S'poor'
p1384
I3
tp1385
a(I7
I4
F0.5
S'willing'
p1386
I3
tp1387
a(I12
I53
F0.625
S'perfect'
p1388
I3
tp1389
a(I19
I32
F1.0
S'best'
p1390
I3
tp1391
a(I21
I153
F1.0
S'good'
p1392
I3
tp1393
a(I22
I400
F1.0
S'good'
p1394
I3
tp1395
a(I23
I67
F-0.625
S'bad'
p1396
I3
tp1397
a(I1
I4
F1.0
S'good'
p1398
I16
tp1399
a(I1
I12
F0.375
S'available'
p1400
I16
tp1401
a(I1
I46
F-0.625
S'other'
p1402
I16
tp1403
a(I1
I82
F1.0
S'good'
p1404
I16
tp1405
a(I1
I91
F0.125
S'popular'
p1406
I16
tp1407
a(I1
I92
I0
S'such'
p1408
I16
tp1409
a(I2
I161
F-0.5
S'regular'
p1410
I16
tp1411
a(I2
I162
I0
S'great'
p1412
I16
tp1413
a(I2
I162
I0
S'fast'
p1414
I16
tp1415
a(I7
I4
F0.5
g1386
I16
tp1416
a(I7
I28
F-0.875
S'worst'
p1417
I16
tp1418
a(I9
I7
F1.0
S'good'
p1419
I16
tp1420
a(I11
I135
I0
S'great'
p1421
I16
tp1422
a(I12
I53
F0.625
g1388
I16
tp1423
a(I15
I6
F1.0
S'best'
p1424
I16
tp1425
a(I16
I164
F1.0
S'good'
p1426
I16
tp1427
a(I17
I68
F1.0
S'better'
p1428
I16
tp1429
a(I17
I264
I0
S'great'
p1430
I16
tp1431
a(I18
I62
F-0.5
S'poor'
p1432
I16
tp1433
a(I21
I153
F1.0
g1392
I16
tp1434
a(I22
I60
F0.5
S'compatible'
p1435
I16
tp1436
a(I29
I119
F1.0
S'better'
p1437
I16
tp1438
as(S'3rd'
p1439
S'party'
p1440
tp1441
(lp1442
(I17
I28
I0
S'many'
p1443
I0
tp1444
as(S'wifi'
p1445
tp1446
(lp1447
(I0
I86
F-0.375
S'top'
p1448
I0
tp1449
a(I1
I58
I0
S'most'
p1450
I0
tp1451
a(I9
I125
F0.375
S'new'
p1452
I0
tp1453
a(I9
I140
I0
S'many'
p1454
I0
tp1455
a(I9
I140
F-0.875
S'unhappy'
p1456
I0
tp1457
a(I9
I140
F-0.5
S'weak'
p1458
I0
tp1459
a(I10
I50
I0
S'own'
p1460
I0
tp1461
a(I19
I108
I0
S'earlier'
p1462
I0
tp1463
a(I22
I253
I0
S'fast'
p1464
I0
tp1465
as(S'apps'
p1466
tp1467
(lp1468
(I0
I9
F-0.5
S'certain'
p1469
I0
tp1470
a(I0
I26
I0
S'many'
p1471
I0
tp1472
a(I0
I56
F1.0
S'good'
p1473
I0
tp1474
a(I0
I116
I0
S'great'
p1475
I0
tp1476
a(I0
I122
F-0.625
S'free'
p1477
I0
tp1478
a(I0
I167
I0
S'unneeded'
p1479
I0
tp1480
a(I0
I191
F0.125
S'essential'
p1481
I0
tp1482
a(I1
I70
I0
S'most'
p1483
I0
tp1484
a(I1
I70
F0.25
S'favorite'
p1485
I0
tp1486
a(I1
I206
F1.0
S'better'
p1487
I0
tp1488
a(I2
I15
F-0.625
S'free'
p1489
I0
tp1490
a(I2
I135
F1.0
S'good'
p1491
I0
tp1492
a(I2
I144
I0
S'few'
p1493
I0
tp1494
a(I2
I144
F1.0
S'good'
p1495
I0
tp1496
a(I4
I21
F0.125
S'colorful'
p1497
I0
tp1498
a(I4
I52
I0
S'most'
p1499
I0
tp1500
a(I6
I10
F0.375
S'available'
p1501
I0
tp1502
a(I6
I10
I0
S'most'
p1503
I0
tp1504
a(I8
I6
F-0.625
S'free'
p1505
I0
tp1506
a(I8
I7
F0.625
S'partial'
p1507
I0
tp1508
a(I8
I7
F0.25
S'financial'
p1509
I0
tp1510
a(I9
I20
F0.875
S'important'
p1511
I0
tp1512
a(I9
I21
F0.625
S'polish'
p1513
I0
tp1514
a(I9
I21
I0
S'general'
p1515
I0
tp1516
a(I12
I162
I0
S'more'
p1517
I0
tp1518
a(I12
I162
F-0.625
S'free'
p1519
I0
tp1520
a(I12
I236
I0
S'many'
p1521
I0
tp1522
a(I14
I96
F0.125
S'practical'
p1523
I0
tp1524
a(I15
I33
F0.625
S'aware'
p1525
I0
tp1526
a(I16
I12
I0
S'many'
p1527
I0
tp1528
a(I16
I13
F0.5
S'comparable'
p1529
I0
tp1530
a(I16
I66
I0
S'unnecessary'
p1531
I0
tp1532
a(I16
I83
F-0.5
S'unwanted'
p1533
I0
tp1534
a(I17
I8
F0.25
S'main'
p1535
I0
tp1536
a(I17
I25
I0
S'email'
p1537
I0
tp1538
a(I17
I144
I0
S'most'
p1539
I0
tp1540
a(I17
I144
F0.125
S'popular'
p1541
I0
tp1542
a(I17
I337
I0
S'many'
p1543
I0
tp1544
a(I17
I342
I0
S'different'
p1545
I0
tp1546
a(I18
I41
F0.125
S'able'
p1547
I0
tp1548
a(I18
I41
I0
S'same'
p1549
I0
tp1550
a(I18
I50
I0
S'more'
p1551
I0
tp1552
a(I18
I51
F1.0
S'best'
p1553
I0
tp1554
a(I21
I36
I0
S'many'
p1555
I0
tp1556
a(I21
I83
I0
S'such'
p1557
I0
tp1558
a(I22
I22
I0
S'most'
p1559
I0
tp1560
a(I22
I290
F-0.625
S'other'
p1561
I0
tp1562
a(I22
I312
F-0.625
S'free'
p1563
I0
tp1564
a(I22
I365
F-0.625
S'other'
p1565
I0
tp1566
a(I24
I95
I0
S'buggy'
p1567
I0
tp1568
a(I24
I109
I0
S'useful'
p1569
I0
tp1570
a(I24
I109
F0.375
S'available'
p1571
I0
tp1572
a(I26
I17
F-0.5
S'less'
p1573
I0
tp1574
a(I27
I78
F0.375
S'available'
p1575
I0
tp1576
a(I29
I124
I0
S'more'
p1577
I0
tp1578
as(S'amazon'
p1579
tp1580
(lp1581
(I12
I120
F0.625
S'aware'
p1582
I13
tp1583
a(I17
I145
F0.875
S'happy'
p1584
I13
tp1585
a(I22
I166
F0.375
S'new'
p1586
I13
tp1587
a(I30
I0
F1.0
S'best'
p1588
I13
tp1589
as.