(dp0
(S'on'
p1
S'screen'
p2
S'keyboard'
p3
tp4
(lp5
(I2
I40
F0.5
S'touch'
p6
I0
tp7
a(I25
I10
F0.5
S'touch'
p8
I0
tp9
a(I25
I10
I0
S'physical'
p10
I0
tp11
a(I29
I12
I0
S'fast'
p12
I0
tp13
a(I29
I12
I0
S'touchscreen'
p14
I0
tp15
a(I29
I19
F-0.125
S'blackberry'
p16
I0
tp17
a(I29
I19
F0.5
S'touch'
p18
I0
tp19
a(I29
I19
I0
S'full'
p20
I0
tp21
a(I36
I44
F-0.375
S'small'
p22
I0
tp23
a(I36
I50
F0.875
S'nice'
p24
I0
tp25
a(I36
I50
I0
S'big'
p26
I0
tp27
a(I43
I1
F1.0
S'better'
p28
I0
tp29
a(I2
I40
F0.5
g6
I0
tp30
a(I25
I10
F0.5
g8
I0
tp31
a(I25
I10
I0
g10
I0
tp32
a(I29
I11
F0.5
S'touch'
p33
I0
tp34
a(I29
I12
I0
g12
I0
tp35
a(I29
I12
I0
g14
I0
tp36
a(I29
I19
F-0.125
g16
I0
tp37
a(I29
I19
F0.5
g18
I0
tp38
a(I29
I19
I0
g20
I0
tp39
a(I33
I11
F0.5
S'touch'
p40
I0
tp41
a(I34
I10
F-0.5
S'actual'
p42
I0
tp43
a(I34
I10
F0.5
S'touch'
p44
I0
tp45
a(I34
I14
F0.5
S'touch'
p46
I0
tp47
a(I36
I44
F-0.375
g22
I0
tp48
a(I36
I50
F0.875
g24
I0
tp49
a(I36
I50
I0
g26
I0
tp50
a(I43
I1
F1.0
g28
I0
tp51
a(I45
I1
I0
S'touchscreen'
p52
I0
tp53
a(I25
I10
I0
g10
I2
tp54
a(I29
I12
I0
g12
I2
tp55
a(I29
I12
I0
g14
I2
tp56
a(I29
I19
I0
g20
I2
tp57
a(I34
I10
F-0.5
g42
I2
tp58
a(I36
I8
I0
S'physical'
p59
I2
tp60
a(I36
I8
F1.0
S'good'
p61
I2
tp62
a(I36
I44
F-0.375
g22
I2
tp63
a(I44
I4
F1.0
S'best'
p64
I2
tp65
a(I45
I1
I0
g52
I2
tp66
a(I55
I11
F0.5
S'touch'
p67
I2
tp68
as(S'battery'
p69
S'life'
p70
tp71
(lp72
(I2
I31
I0
S'great'
p73
I1
tp74
a(I33
I13
F-0.5
S'less'
p75
I1
tp76
a(I35
I28
F-0.5
S'less'
p77
I1
tp78
a(I44
I0
F1.0
S'good'
p79
I1
tp80
a(I33
I13
F-0.5
g75
I19
tp81
a(I35
I28
F-0.5
g77
I19
tp82
a(I48
I6
F0.375
S'busy'
p83
I19
tp84
a(I2
I31
I0
g73
I15
tp85
a(I2
I32
F1.0
S'good'
p86
I15
tp87
a(I36
I65
I0
S'faster'
p88
I15
tp89
a(I40
I6
F-0.625
S'fresh'
p90
I15
tp91
a(I40
I7
F0.125
S'able'
p92
I15
tp93
a(I43
I1
F-0.75
S'short'
p94
I15
tp95
a(I44
I0
F1.0
g79
I15
tp96
a(I48
I20
F-0.75
S'damaged'
p97
I15
tp98
a(I49
I1
F-0.75
S'dead'
p99
I15
tp100
a(I59
I10
I0
S'wish'
p101
I15
tp102
as(S'a'
p103
S'data'
p104
S'plan'
p105
tp106
(lp107
(I29
I13
I0
S'faster'
p108
I0
tp109
a(I29
I13
I0
g108
I0
tp110
as(S'email'
p111
tp112
(lp113
(I33
I4
F-0.125
S'public'
p114
I5
tp115
a(I35
I19
I0
S'pic'
p116
I5
tp117
a(I35
I20
F0.625
S'positive'
p118
I5
tp119
as(S'social'
p120
S'feeds'
p121
tp122
(lp123
(I3
I8
I0
S'social'
p124
I0
tp125
a(I3
I9
I0
S'social'
p126
I0
tp127
a(I29
I37
I0
S'social'
p128
I0
tp129
as(S'camera'
p130
tp131
(lp132
(I3
I7
F0.375
S'much'
p133
I1
tp134
a(I21
I34
F-0.5
S'weak'
p135
I1
tp136
a(I25
I13
F1.0
S'good'
p137
I1
tp138
a(I35
I15
F1.0
S'good'
p139
I1
tp140
a(I51
I26
F1.0
S'good'
p141
I1
tp142
a(I57
I10
F1.0
S'good'
p143
I1
tp144
a(I57
I10
F1.0
S'better'
p145
I1
tp146
a(I61
I10
F1.0
S'good'
p147
I1
tp148
as(S'iphone'
p149
tp150
(lp151
(I25
I10
I0
S'many'
p152
I1
tp153
a(I32
I14
I0
S'keypad'
p154
I1
tp155
a(I32
I19
I0
S'latest'
p156
I1
tp157
a(I34
I5
I0
S'android'
p158
I1
tp159
a(I36
I6
I-100
S'reponsive'
p160
I1
tp161
a(I36
I10
I0
S'user'
p162
I1
tp163
a(I36
I10
F0.375
S'friendly'
p164
I1
tp165
a(I36
I23
I0
S'close'
p166
I1
tp167
a(I45
I12
I0
S'least'
p168
I1
tp169
a(I48
I23
I0
S'old'
p170
I1
tp171
a(I61
I1
F1.0
S'better'
p172
I1
tp173
a(I61
I9
F0.875
S'nice'
p174
I1
tp175
as(g103
S'touch'
p176
S'screen'
p177
tp178
(lp179
(I2
I40
F0.5
g6
I0
tp180
a(I7
I4
F0.5
S'touch'
p181
I0
tp182
a(I25
I10
F0.5
g8
I0
tp183
a(I29
I11
F0.5
g33
I0
tp184
a(I29
I19
F-0.125
g16
I0
tp185
a(I29
I19
F0.5
g18
I0
tp186
a(I29
I24
F0.5
S'touch'
p187
I0
tp188
a(I32
I3
F0.5
S'touch'
p189
I0
tp190
a(I33
I11
F0.5
g40
I0
tp191
a(I34
I10
F0.5
g44
I0
tp192
a(I34
I14
F0.5
g46
I0
tp193
a(I35
I22
F0.875
S'nice'
p194
I0
tp195
a(I35
I22
F0.25
S'larger'
p196
I0
tp197
a(I35
I29
F0.625
S'easy'
p198
I0
tp199
a(I35
I29
I0
S'sensitive'
p200
I0
tp201
a(I40
I1
F0.625
S'easy'
p202
I0
tp203
a(I40
I1
I0
S'sensitive'
p204
I0
tp205
a(I43
I1
F1.0
g28
I0
tp206
a(I48
I6
F-0.75
S'unresponsive'
p207
I0
tp208
a(I49
I8
F0.125
S'first'
p209
I0
tp210
a(I51
I4
F0.125
S'first'
p211
I0
tp212
a(I59
I2
I0
S'total'
p213
I0
tp214
a(I2
I40
F0.5
g6
I2
tp215
a(I7
I4
F0.5
g181
I2
tp216
a(I25
I10
F0.5
g8
I2
tp217
a(I29
I11
F0.5
g33
I2
tp218
a(I29
I19
F-0.125
g16
I2
tp219
a(I29
I19
F0.5
g18
I2
tp220
a(I29
I24
F0.5
g187
I2
tp221
a(I32
I3
F0.5
g189
I2
tp222
a(I33
I11
F0.5
g40
I2
tp223
a(I34
I10
F0.5
g44
I2
tp224
a(I34
I14
F0.5
g46
I2
tp225
a(I35
I22
F0.875
g194
I2
tp226
a(I35
I22
F0.25
g196
I2
tp227
a(I35
I29
F0.625
g198
I2
tp228
a(I35
I29
I0
g200
I2
tp229
a(I40
I1
F0.625
g202
I2
tp230
a(I40
I1
I0
g204
I2
tp231
a(I43
I1
F1.0
g28
I2
tp232
a(I48
I6
F-0.75
g207
I2
tp233
a(I49
I8
F0.125
g209
I2
tp234
a(I51
I4
F0.125
g211
I2
tp235
a(I59
I2
I0
g213
I2
tp236
as(S'button'
p237
tp238
(lp239
(I36
I44
F-0.75
S'wrong'
p240
I19
tp241
a(I55
I24
I0
S'sensitive'
p242
I19
tp243
as(S'business'
p244
tp245
(lp246
(I0
I3
F1.0
S'good'
p247
I9
tp248
a(I33
I17
I0
S'corporate'
p249
I9
tp250
a(I39
I2
F-0.375
S'serious'
p251
I9
tp252
a(I39
I2
F-0.375
S'serious'
p253
I9
tp254
a(I43
I2
I0
S'great'
p255
I9
tp256
as(S'blackberry'
p257
S'torch'
p258
tp259
(lp260
(I2
I27
F0.375
S'new'
p261
I0
tp262
a(I2
I31
F0.5
S'true'
p263
I0
tp264
a(I18
I8
F0.375
S'new'
p265
I0
tp266
a(I32
I1
F0.375
S'new'
p267
I0
tp268
a(I32
I1
F-0.625
S'other'
p269
I0
tp270
a(I36
I14
F0.375
S'available'
p271
I0
tp272
a(I40
I28
I0
S'third'
p273
I0
tp274
a(I40
I74
I0
S'nervous'
p275
I0
tp276
a(I44
I14
F0.125
S'popular'
p277
I0
tp278
a(I47
I12
F0.25
S'original'
p279
I0
tp280
a(I47
I12
F0.25
S'original'
p281
I0
tp282
a(I47
I12
F0.375
S'complete'
p283
I0
tp284
a(I51
I16
I0
S'most'
p285
I0
tp286
a(I2
I31
F0.5
g263
I0
tp287
a(I2
I36
F-0.125
S'slow'
p288
I0
tp289
a(I2
I38
I0
S'great'
p290
I0
tp291
a(I25
I23
I0
S'many'
p292
I0
tp293
a(I32
I1
F0.375
g267
I0
tp294
a(I40
I28
I0
g273
I0
tp295
a(I40
I49
F0.875
S'lucky'
p296
I0
tp297
a(I40
I49
F0.25
S'refurbished'
p298
I0
tp299
a(I40
I74
I0
g275
I0
tp300
a(I44
I14
F0.125
g277
I0
tp301
a(I2
I27
F0.375
g261
I1
tp302
a(I3
I3
F1.0
S'best'
p303
I1
tp304
a(I7
I0
F0.125
S'first'
p305
I1
tp306
a(I15
I2
I0
S'many'
p307
I1
tp308
a(I16
I0
F1.0
S'best'
p309
I1
tp310
a(I18
I8
F0.375
g265
I1
tp311
a(I25
I10
I0
S'traditional'
p312
I1
tp313
a(I25
I12
I0
S'traditional'
p314
I1
tp315
a(I25
I14
I0
S'traditional'
p316
I1
tp317
a(I25
I44
F1.0
S'best'
p318
I1
tp319
a(I31
I16
F0.125
S'first'
p320
I1
tp321
a(I32
I1
F-0.625
g269
I1
tp322
a(I36
I4
F0.25
S'recent'
p323
I1
tp324
a(I36
I14
F0.375
g271
I1
tp325
a(I47
I2
F0.125
S'first'
p326
I1
tp327
a(I47
I12
F0.25
g279
I1
tp328
a(I47
I12
F0.25
g281
I1
tp329
a(I47
I12
F0.375
g283
I1
tp330
a(I49
I8
F0.5
S'second'
p331
I1
tp332
a(I50
I1
F-0.375
S'robust'
p333
I1
tp334
a(I50
I1
F0.125
S'practical'
p335
I1
tp336
a(I51
I4
F0.125
S'first'
p337
I1
tp338
a(I51
I16
I0
g285
I1
tp339
a(I55
I2
F1.0
S'best'
p340
I1
tp341
a(I59
I7
F1.0
S'good'
p342
I1
tp343
a(I61
I1
I0
S'traditional'
p344
I1
tp345
as(S'seller'
p346
tp347
(lp348
(I26
I2
F-0.75
S'difficult'
p349
I19
tp350
a(I39
I2
F-0.625
S'other'
p351
I19
tp352
as(S'amazon'
p353
tp354
(lp355
(I31
I2
I0
S'cool'
p356
I13
tp357
as(S'full'
p358
S'refund'
p359
tp360
(lp361
(I25
I26
I0
S'full'
p362
I0
tp363
a(I39
I3
I0
S'full'
p364
I0
tp365
a(I60
I3
I0
S'full'
p366
I0
tp367
as(S'sim'
p368
S'card'
p369
tp370
(lp371
(I25
I17
F-0.125
S'foreign'
p372
I0
tp373
a(I29
I53
I0
S'different'
p374
I0
tp375
as(S'international'
p376
S'version'
p377
tp378
(lp379
(I25
I17
F-0.5
S'international'
p380
I0
tp381
a(I47
I15
F-0.5
S'international'
p382
I0
tp383
as(S'smartphone'
p384
tp385
(lp386
(I6
I0
F0.25
S'unlocked'
p387
I0
tp388
a(I18
I5
F0.875
S'nice'
p389
I0
tp390
a(I36
I37
F0.125
S'first'
p391
I0
tp392
a(I36
I37
I0
S'real'
p393
I0
tp394
a(I40
I15
F1.0
S'best'
p395
I0
tp396
a(I40
I22
F0.5
S'second'
p397
I0
tp398
a(I40
I82
F-0.625
S'other'
p399
I0
tp400
a(I40
I89
F1.0
S'best'
p401
I0
tp402
as(S'100'
p403
S'%'
p404
tp405
(lp406
(I47
I20
F0.375
S'new'
p407
I0
tp408
a(I47
I20
F0.125
S'sealed'
p409
I0
tp410
as(S'apps'
p411
tp412
(lp413
(I3
I13
I0
S'few'
p414
I0
tp415
a(I3
I13
F1.0
S'good'
p416
I0
tp417
a(I3
I13
F-0.625
S'free'
p418
I0
tp419
a(I11
I23
F0.625
S'easy'
p420
I0
tp421
a(I35
I12
F0.125
S'popular'
p422
I0
tp423
a(I36
I14
I0
S'such'
p424
I0
tp425
a(I36
I66
I0
S'many'
p426
I0
tp427
a(I36
I66
F0.375
S'available'
p428
I0
tp429
a(I40
I73
I0
S'many'
p430
I0
tp431
a(I40
I85
I0
S'many'
p432
I0
tp433
a(I40
I85
I0
S'more'
p434
I0
tp435
a(I41
I1
F0.375
S'available'
p436
I0
tp437
a(I44
I17
F0.375
S'available'
p438
I0
tp439
as(S'service'
p440
S'provider'
p441
tp442
(lp443
(I13
I7
I0
S'local'
p444
I0
tp445
a(I15
I9
I0
S'local'
p446
I0
tp447
a(I47
I15
F-0.5
S'certain'
p448
I0
tp449
a(I47
I15
I0
S'chinese'
p450
I0
tp451
a(I2
I15
F-0.875
S'worst'
p452
I16
tp453
a(I13
I7
I0
g444
I16
tp454
a(I38
I7
F0.5
S'deliver'
p455
I16
tp456
a(I38
I18
I0
S'great'
p457
I16
tp458
a(I40
I9
F-0.75
S'unable'
p459
I16
tp460
a(I41
I4
F0.5
S'technical'
p461
I16
tp462
a(I47
I15
F-0.5
g448
I16
tp463
a(I47
I15
I0
g450
I16
tp464
as(S'screen'
p465
S'lock'
p466
tp467
(lp468
(I43
I1
F1.0
g28
I0
tp469
as(S'full'
p470
S'qwerty'
p471
S'keyboard'
p472
tp473
(lp474
(I45
I1
I0
S'full'
p475
I0
tp476
a(I45
I1
I0
g52
I0
tp477
a(I47
I3
F-0.125
S'super'
p478
I0
tp479
a(I47
I3
F0.625
S'easy'
p480
I0
tp481
a(I47
I3
F0.625
S'easy'
p482
I0
tp483
a(I47
I3
I0
S'full'
p484
I0
tp485
a(I36
I44
F-0.375
g22
I0
tp486
a(I45
I1
I0
g475
I0
tp487
a(I45
I1
I0
g52
I0
tp488
a(I47
I3
F-0.125
g478
I0
tp489
a(I47
I3
F0.625
g480
I0
tp490
a(I47
I3
F0.625
g482
I0
tp491
a(I47
I3
I0
g484
I0
tp492
a(I55
I11
F0.5
g67
I0
tp493
a(I45
I1
I0
g475
I0
tp494
a(I47
I3
F-0.125
g478
I0
tp495
a(I47
I3
F0.625
g480
I0
tp496
a(I47
I3
F0.625
g482
I0
tp497
a(I47
I3
I0
g484
I0
tp498
a(I45
I1
I0
g475
I0
tp499
a(I47
I3
F-0.125
g478
I0
tp500
a(I47
I3
F0.625
g480
I0
tp501
a(I47
I3
F0.625
g482
I0
tp502
a(I47
I3
I0
g484
I0
tp503
as.