(dp0
(S'seller'
p1
tp2
(lp3
(I19
I8
F0.375
S'new'
p4
I19
tp5
a(I54
I42
F0.125
S'able'
p6
I19
tp7
a(I56
I18
I0
S'different'
p8
I19
tp9
a(I60
I13
F0.375
S'honest'
p10
I19
tp11
a(I61
I5
F0.875
S'happy'
p12
I19
tp13
a(I64
I21
I0
S'only'
p14
I19
tp15
as(S'battery'
p16
S'life'
p17
tp18
(lp19
(I3
I49
F1.0
S'good'
p20
I1
tp21
a(I15
I27
F1.0
S'better'
p22
I1
tp23
a(I30
I6
F0.375
S'reliable'
p24
I1
tp25
a(I30
I6
F-0.5
S'longest'
p26
I1
tp27
a(I51
I24
F0.625
S'replaceable'
p28
I1
tp29
a(I52
I3
F1.0
S'good'
p30
I1
tp31
a(I52
I10
F-0.25
S'low'
p32
I1
tp33
a(I56
I13
F-0.5
S'long'
p34
I1
tp35
a(I70
I34
F0.875
S'happy'
p36
I1
tp37
a(I73
I0
F-0.25
S'battery'
p38
I1
tp39
a(I73
I0
F0.125
S'last'
p40
I1
tp41
a(I74
I4
I0
S'great'
p42
I1
tp43
a(I3
I42
F-0.5
S'long'
p44
I19
tp45
a(I3
I49
F1.0
g20
I19
tp46
a(I52
I3
F1.0
g30
I19
tp47
a(I73
I0
F-0.25
g38
I19
tp48
a(I74
I4
I0
g42
I19
tp49
a(I3
I6
I0
S'full'
p50
I15
tp51
a(I6
I7
F0.125
S'last'
p52
I15
tp53
a(I8
I1
F0.625
S'decent'
p54
I15
tp55
a(I15
I27
F1.0
g22
I15
tp56
a(I16
I12
F1.0
S'best'
p57
I15
tp58
a(I16
I13
F1.0
S'good'
p59
I15
tp60
a(I18
I18
F0.125
S'last'
p61
I15
tp62
a(I30
I6
F0.375
g24
I15
tp63
a(I30
I6
F-0.5
g26
I15
tp64
a(I34
I9
F0.375
S'extra'
p65
I15
tp66
a(I34
I90
F-0.5
S'long'
p67
I15
tp68
a(I34
I90
F0.125
S'last'
p69
I15
tp70
a(I45
I6
F-0.625
S'average'
p71
I15
tp72
a(I50
I65
F-0.625
S'bad'
p73
I15
tp74
a(I50
I68
F0.375
S'new'
p75
I15
tp76
a(I51
I24
F0.625
g28
I15
tp77
a(I52
I10
F-0.25
g32
I15
tp78
a(I54
I10
F-0.75
S'dead'
p79
I15
tp80
a(I56
I13
F-0.5
g34
I15
tp81
a(I64
I28
F0.375
S'new'
p82
I15
tp83
a(I64
I28
I0
S'charged'
p84
I15
tp85
a(I65
I0
F0.25
S'original'
p86
I15
tp87
a(I65
I4
F0.375
S'new'
p88
I15
tp89
a(I68
I4
F0.375
S'extra'
p90
I15
tp91
a(I70
I16
F0.375
S'new'
p92
I15
tp93
a(I70
I34
F0.875
g36
I15
tp94
a(I70
I67
F0.375
S'extra'
p95
I15
tp96
a(I73
I0
F0.125
g40
I15
tp97
as(S'a'
p98
S'droid'
p99
S'x'
p100
tp101
(lp102
(I3
I48
I0
S'android'
p103
I0
tp104
a(I8
I25
F0.5
S'expensive'
p105
I0
tp106
a(I11
I3
F0.5
S'second'
p107
I0
tp108
a(I17
I2
I0
S'old'
p109
I0
tp110
a(I17
I4
I0
S'third'
p111
I0
tp112
a(I34
I37
F0.5
S'second'
p113
I0
tp114
a(I34
I42
F-0.75
S'damaged'
p115
I0
tp116
a(I34
I43
F-0.5
S'certain'
p117
I0
tp118
a(I35
I8
F1.0
S'good'
p119
I0
tp120
a(I37
I8
I0
S'current'
p121
I0
tp122
a(I50
I61
F0.875
S'happy'
p123
I0
tp124
a(I50
I61
F0.125
S'last'
p125
I0
tp126
a(I50
I61
I0
S'smoked'
p127
I0
tp128
a(I60
I2
I0
S'identical'
p129
I0
tp130
a(I66
I12
F0.625
S'superior'
p131
I0
tp132
a(I66
I29
I0
S'old'
p133
I0
tp134
a(I66
I41
F0.375
S'new'
p135
I0
tp136
a(I3
I48
I0
g103
I0
tp137
a(I8
I25
F0.5
g105
I0
tp138
a(I11
I3
F0.5
g107
I0
tp139
a(I17
I2
I0
g109
I0
tp140
a(I17
I4
I0
g111
I0
tp141
a(I34
I37
F0.5
g113
I0
tp142
a(I34
I42
F-0.75
g115
I0
tp143
a(I34
I43
F-0.5
g117
I0
tp144
a(I35
I8
F1.0
g119
I0
tp145
a(I36
I34
F0.75
S'worth'
p146
I0
tp147
a(I37
I8
I0
g121
I0
tp148
a(I50
I61
F0.875
g123
I0
tp149
a(I50
I61
F0.125
g125
I0
tp150
a(I50
I61
I0
g127
I0
tp151
a(I60
I2
I0
g129
I0
tp152
a(I66
I12
F0.625
g131
I0
tp153
a(I66
I29
I0
g133
I0
tp154
a(I66
I41
F0.375
g135
I0
tp155
a(I5
I1
F0.25
S'original'
p156
I0
tp157
a(I5
I1
F0.875
S'happy'
p158
I0
tp159
a(I5
I14
I0
S'incredible'
p160
I0
tp161
a(I8
I25
F0.5
g105
I0
tp162
a(I11
I3
F0.5
g107
I0
tp163
a(I17
I4
I0
g111
I0
tp164
a(I18
I0
F0.375
S'new'
p165
I0
tp166
a(I19
I1
F0.5
S'reasonable'
p167
I0
tp168
a(I24
I15
I0
S'old'
p169
I0
tp170
a(I34
I37
F0.5
g113
I0
tp171
a(I34
I43
F-0.5
g117
I0
tp172
a(I37
I8
I0
g121
I0
tp173
a(I50
I61
F0.875
g123
I0
tp174
a(I54
I23
F-0.5
S'weak'
p175
I0
tp176
a(I54
I36
F0.25
S'original'
p177
I0
tp178
a(I55
I1
F0.125
S'first'
p179
I0
tp180
a(I60
I2
I0
g129
I0
tp181
a(I66
I29
I0
g133
I0
tp182
a(I66
I41
F0.375
g135
I0
tp183
a(I70
I0
F-0.625
S'other'
p184
I0
tp185
a(I70
I77
F0.25
S'original'
p186
I0
tp187
as(S'motorola'
p188
tp189
(lp190
(I2
I2
I0
S'most'
p191
I0
tp192
a(I3
I27
F0.25
S'original'
p193
I0
tp194
a(I3
I29
I0
S'real'
p195
I0
tp196
a(I3
I30
I0
S'real'
p197
I0
tp198
a(I3
I33
I0
S'real'
p199
I0
tp200
a(I3
I34
I0
S'real'
p201
I0
tp202
a(I3
I39
F0.5
S'second'
p203
I0
tp204
a(I51
I39
F0.875
S'nice'
p205
I0
tp206
a(I56
I25
I0
S'update'
p207
I0
tp208
as(S'weeks'
p209
tp210
(lp211
(I34
I29
I0
S'wish'
p212
I18
tp213
a(I34
I29
F0.125
S'sooner'
p214
I18
tp215
a(I66
I21
I0
S'few'
p216
I18
tp217
as(S'camera'
p218
tp219
(lp220
(I0
I4
F-0.5
S'complaint'
p221
I1
tp222
a(I0
I19
F-0.125
S'slow'
p223
I1
tp224
a(I0
I19
F-0.5
S'open'
p225
I1
tp226
a(I24
I30
F0.875
S'nice'
p227
I1
tp228
a(I32
I6
F0.625
S'decent'
p229
I1
tp230
a(I34
I69
I0
S'great'
p231
I1
tp232
a(I38
I13
F0.125
S'able'
p233
I1
tp234
a(I40
I1
F-0.625
S'other'
p235
I1
tp236
a(I42
I5
F-0.5
S'poor'
p237
I1
tp238
a(I44
I2
F0.375
S'new'
p239
I1
tp240
a(I44
I6
I0
S'great'
p241
I1
tp242
a(I51
I26
I0
S'real'
p243
I1
tp244
a(I62
I7
F-0.125
S'slow'
p245
I1
tp246
a(I70
I40
F0.5
S'second'
p247
I1
tp248
a(I70
I70
F1.0
S'good'
p249
I1
tp250
a(I70
I70
F0.625
S'easy'
p251
I1
tp252
as(S'iphone'
p253
tp254
(lp255
(I3
I51
F0.5
S'eligible'
p256
I1
tp257
a(I19
I18
F1.0
S'better'
p258
I1
tp259
a(I32
I17
F0.25
S'larger'
p260
I1
tp261
a(I32
I17
F-0.375
S'smaller'
p262
I1
tp263
a(I55
I13
I0
S'next'
p264
I1
tp265
a(I64
I9
F0.375
S'new'
p266
I1
tp267
as(S'button'
p268
tp269
(lp270
(I40
I25
F0.25
S'main'
p271
I19
tp272
a(I52
I34
F0.625
S'easy'
p273
I19
tp274
as(S'verizon'
p275
tp276
(lp277
(I8
I26
I0
S'signal'
p278
I0
tp279
a(I15
I9
F0.875
S'nice'
p280
I0
tp281
a(I27
I4
F0.375
S'new'
p282
I0
tp283
a(I34
I54
I0
S'local'
p284
I0
tp285
a(I54
I63
F0.375
S'new'
p286
I0
tp287
a(I54
I65
F0.25
S'tier'
p288
I0
tp289
a(I54
I65
I0
S'technician'
p290
I0
tp291
a(I66
I39
F0.5
S'compatible'
p292
I0
tp293
as(S'hold'
p294
g98
S'charge'
p295
tp296
(lp297
(I12
I1
F-0.5
S'long'
p298
I0
tp299
a(I27
I21
I0
S'own'
p300
I0
tp301
a(I27
I27
I0
S'great'
p302
I0
tp303
a(I80
I0
I0
S'more'
p304
I0
tp305
as(S'make'
p306
g98
S'call'
p307
tp308
(lp309
(I54
I29
F0.125
S'first'
p310
I0
tp311
as(S'happy'
p312
S'with'
p313
S'purchase'
p314
tp315
(lp316
(I24
I0
F0.875
S'happy'
p317
I0
tp318
a(I66
I47
F-0.125
S'overall'
p319
I0
tp320
a(I66
I47
F0.875
S'happy'
p321
I0
tp322
a(I71
I5
F0.875
S'happy'
p323
I0
tp324
as(g98
S'long'
p325
S'time'
p326
tp327
(lp328
(I17
I1
F-0.5
S'long'
p329
I12
tp330
a(I18
I30
F-0.5
S'long'
p331
I12
tp332
a(I36
I23
F-0.5
S'long'
p333
I12
tp334
a(I46
I1
F-0.5
S'long'
p335
I12
tp336
a(I54
I1
F-0.5
S'long'
p337
I12
tp338
a(I55
I9
F-0.5
S'long'
p339
I12
tp340
as(S'android'
p341
tp342
(lp343
(I0
I21
F-0.625
S'other'
p344
I0
tp345
a(I13
I0
I0
S'most'
p346
I0
tp347
a(I13
I0
I0
S'current'
p348
I0
tp349
a(I17
I1
F0.125
S'first'
p350
I0
tp351
a(I22
I20
I0
S'old'
p352
I0
tp353
a(I66
I44
F1.0
S'good'
p354
I0
tp355
as(S'scratches'
p356
tp357
(lp358
(I1
I0
I0
S'few'
p359
I4
tp360
a(I14
I6
I0
S'normal'
p361
I4
tp362
a(I35
I6
F-0.75
S'minor'
p363
I4
tp364
a(I38
I20
F-0.5
S'heavy'
p365
I4
tp366
a(I44
I1
I0
S'great'
p367
I4
tp368
a(I44
I2
I0
S'few'
p369
I4
tp370
a(I50
I16
I0
S'many'
p371
I4
tp372
a(I50
I25
I0
S'many'
p373
I4
tp374
as(S'smart'
p375
tp376
(lp377
(I6
I4
F0.375
S'new'
p378
I10
tp379
a(I22
I4
F0.125
S'first'
p380
I10
tp381
a(I22
I4
F0.5
S'whole'
p382
I10
tp383
a(I34
I63
F0.125
S'first'
p384
I10
tp385
a(I43
I29
F0.125
S'first'
p386
I10
tp387
a(I50
I57
F0.125
S'first'
p388
I10
tp389
a(I51
I2
F0.125
S'first'
p390
I10
tp391
a(I52
I3
F0.125
S'first'
p392
I10
tp393
a(I54
I108
F1.0
S'good'
p394
I10
tp395
a(I55
I0
F0.125
S'first'
p396
I10
tp397
as(S'replacement'
p398
tp399
(lp400
(I3
I15
F0.5
S'temporary'
p401
I13
tp402
a(I21
I0
F0.875
S'happy'
p403
I13
tp404
a(I51
I27
F-0.5
S'poor'
p405
I13
tp406
a(I54
I68
F-0.625
S'free'
p407
I13
tp408
a(I66
I29
I0
S'exact'
p409
I13
tp410
a(I66
I38
I0
S'exact'
p411
I13
tp412
a(I70
I29
F0.75
S'due'
p413
I13
tp414
as(S'black'
p415
S'spots'
p416
tp417
(lp418
(I16
I20
F-0.375
S'black'
p419
I0
tp420
a(I42
I1
I0
S'large'
p421
I0
tp422
a(I42
I3
F-0.375
S'black'
p423
I0
tp424
a(I54
I6
F-0.75
S'little'
p425
I0
tp426
a(I54
I6
I0
S'exact'
p427
I0
tp428
a(I62
I15
F-0.375
S'black'
p429
I0
tp430
a(I65
I8
F0.375
S'new'
p431
I0
tp432
a(I15
I13
I0
S'same'
p433
I19
tp434
a(I42
I1
I0
g421
I19
tp435
a(I54
I6
F-0.75
g425
I19
tp436
a(I54
I84
F0.375
S'new'
p437
I19
tp438
a(I65
I45
F-0.75
S'little'
p439
I19
tp440
as(S'half'
p441
S'of'
p442
S'screen'
p443
tp444
(lp445
(I43
I15
F-0.25
S'lower'
p446
I0
tp447
a(I50
I31
F-0.25
S'lower'
p448
I0
tp449
a(I50
I31
F0.25
S'garbage'
p450
I0
tp451
as(S'contract'
p452
tp453
(lp454
(I29
I7
F0.375
S'reliable'
p455
I0
tp456
a(I51
I5
I0
S'current'
p457
I0
tp458
a(I54
I0
F-0.625
S'want'
p459
I0
tp460
a(I70
I45
F0.375
S'new'
p461
I0
tp462
as(S'customer'
p463
S'service'
p464
tp465
(lp466
(I23
I7
F0.25
S'helpful'
p467
I3
tp468
a(I70
I32
F1.0
S'better'
p469
I3
tp470
a(I70
I39
I0
S'great'
p471
I3
tp472
a(I23
I7
F0.25
g467
I16
tp473
a(I67
I8
F1.0
S'better'
p474
I16
tp475
a(I16
I21
F0.875
S'happy'
p476
I11
tp477
a(I26
I0
F1.0
S'good'
p478
I11
tp479
a(I70
I32
F1.0
g469
I11
tp480
a(I70
I39
I0
g471
I11
tp481
as(S'apps'
p482
tp483
(lp484
(I0
I12
I0
S'great'
p485
I0
tp486
a(I0
I13
I0
S'useful'
p487
I0
tp488
a(I12
I4
F-0.75
S'hate'
p489
I0
tp490
a(I12
I5
F0.125
S'able'
p491
I0
tp492
a(I19
I0
F-0.625
S'ineffective'
p493
I0
tp494
a(I24
I21
I0
S'slower'
p495
I0
tp496
a(I25
I1
I0
S'great'
p497
I0
tp498
a(I34
I3
I0
S'few'
p499
I0
tp500
a(I34
I11
I0
S'few'
p501
I0
tp502
a(I34
I60
I0
S'limited'
p503
I0
tp504
a(I43
I23
I0
S'different'
p505
I0
tp506
a(I52
I26
F0.375
S'new'
p507
I0
tp508
a(I52
I47
F-0.625
S'other'
p509
I0
tp510
a(I54
I16
F-0.375
S'disable'
p511
I0
tp512
a(I55
I3
I0
S'many'
p513
I0
tp514
a(I56
I15
F0.375
S'available'
p515
I0
tp516
a(I58
I1
F-0.625
S'other'
p517
I0
tp518
a(I58
I1
F0.875
S'happy'
p519
I0
tp520
as(S'amazon'
p521
tp522
(lp523
(I70
I39
F0.25
S'original'
p524
I13
tp525
as(S'3'
p526
S'months'
p527
tp528
(lp529
(I7
I1
F0.125
S'first'
p530
I1
tp531
a(I40
I26
I0
S'later'
p532
I1
tp533
as(S'touch'
p534
S'screen'
p535
tp536
(lp537
(I3
I5
F-0.75
S'unreliable'
p538
I2
tp539
a(I3
I5
I0
S'many'
p540
I2
tp541
a(I13
I10
F-0.625
S'other'
p542
I2
tp543
a(I19
I5
F0.125
S'first'
p544
I2
tp545
a(I37
I7
F-0.625
S'clean'
p546
I2
tp547
as.