(dp0
(S'service'
p1
tp2
(lp3
(I29
I5
F0.375
S'much'
p4
tp5
a(I97
I3
F-0.75
S'difficult'
p6
tp7
a(I99
I0
I0
S'great'
p8
tp9
a(I137
I3
F1.0
S'good'
p10
tp11
as(S'4'
p12
S'years'
p13
tp14
(lp15
(I4
I11
F0.5
S'strong'
p16
tp17
a(I80
I2
F0.125
S'last'
p18
tp19
as(S'battery'
p20
S'life'
p21
tp22
(lp23
(I0
I4
F1.0
S'good'
p24
tp25
a(I0
I4
F-0.5
S'complaint'
p26
tp27
a(I19
I4
F1.0
S'good'
p28
tp29
a(I20
I3
F0.625
S'decent'
p30
tp31
a(I20
I5
I0
S'full'
p32
tp33
a(I20
I5
F-0.25
S'low'
p34
tp35
a(I50
I2
F-0.5
S'long'
p36
tp37
a(I90
I0
I0
S'great'
p38
tp39
a(I97
I1
F-0.5
S'long'
p40
tp41
a(I136
I7
F1.0
S'best'
p42
tp43
a(I140
I3
F0.375
S'extended'
p44
tp45
as(S'keyboard'
p46
tp47
(lp48
(I19
I3
F-0.625
S'quite'
p49
tp50
a(I23
I5
I0
S'great'
p51
tp52
a(I27
I1
F-0.5
S'actual'
p53
tp54
a(I49
I1
F0.625
S'easy'
p55
tp56
a(I82
I0
I0
S'full'
p57
tp58
a(I82
I3
I0
S'full'
p59
tp60
a(I82
I3
F0.625
S'easy'
p61
tp62
a(I85
I0
I0
S'great'
p63
tp64
a(I85
I1
I0
S'normal'
p65
tp66
a(I93
I2
I0
S'adaptable'
p67
tp68
a(I113
I2
I0
S'fast'
p69
tp70
a(I113
I2
F-0.5
S'open'
p71
tp72
a(I118
I45
F0.25
S'sweet'
p73
tp74
a(I118
I48
F-0.625
S'light'
p75
tp76
a(I122
I3
I0
S'full'
p77
tp78
a(I126
I1
I0
S'full'
p79
tp80
a(I131
I4
I0
S'great'
p81
tp82
a(I131
I4
I0
S'big'
p83
tp84
as(S'a'
p85
S'data'
p86
S'plan'
p87
tp88
(lp89
(I59
I0
F0.375
S'much'
p90
tp91
as(g85
S'full'
p92
S'qwerty'
p93
tp94
(lp95
(I26
I6
I0
S'full'
p96
tp97
a(I28
I5
I0
S'full'
p98
tp99
a(I41
I1
I0
S'full'
p100
tp101
a(I64
I1
I0
S'full'
p102
tp103
a(I95
I11
I0
S'full'
p104
tp105
as(S'needs'
p106
tp107
(lp108
(I77
I1
F0.625
S'easy'
p109
tp110
as(S'money'
p111
tp112
(lp113
(I96
I8
I0
S'more'
p114
tp115
a(I118
I18
F0.375
S'extra'
p116
tp117
a(I118
I18
F0.375
S'new'
p118
tp119
as(S'seems'
p120
tp121
(lp122
(I79
I3
F0.125
S'key'
p123
tp124
as(S'price'
p125
tp126
(lp127
(I47
I3
F0.375
S'extended'
p128
tp129
a(I73
I0
I0
S'great'
p130
tp131
a(I73
I0
I0
S'many'
p132
tp133
a(I80
I0
I0
S'great'
p134
tp135
a(I95
I21
F1.0
S'good'
p136
tp137
a(I97
I3
I0
S'high'
p138
tp139
as(S'full'
p140
S'qwerty'
p141
S'keyboard'
p142
tp143
(lp144
(I26
I6
I0
g96
tp145
a(I28
I5
I0
g98
tp146
a(I41
I1
I0
g100
tp147
a(I64
I1
I0
g102
tp148
as(S'problems'
p149
tp150
(lp151
(I22
I1
F0.75
S'due'
p152
tp153
a(I27
I1
I0
S'fewest'
p154
tp155
as(S'samsung'
p156
tp157
(lp158
(I23
I0
I0
S'same'
p159
tp160
a(I28
I0
F0.125
S'first'
p161
tp162
a(I55
I1
F0.25
S'original'
p163
tp164
as(S'back'
p165
tp166
(lp167
(I65
I2
F-0.375
S'top'
p168
tp169
as(S'need'
p170
tp171
(lp172
(I25
I0
F0.125
S'rugged'
p173
tp174
as(S'camera'
p175
tp176
(lp177
(I131
I4
F0.625
S'decent'
p178
tp179
as(S'years'
p180
tp181
(lp182
(I4
I11
F0.5
g16
tp183
a(I7
I1
F0.125
S'first'
p184
tp185
a(I80
I2
F0.125
g18
tp186
a(I123
I1
F-0.125
S'mine'
p187
tp188
a(I136
I6
I0
S'old'
p189
tp190
as(g85
S'data'
p191
S'package'
p192
tp193
(lp194
(I143
I4
I0
S'optional'
p195
tp196
as(S'package'
p197
tp198
(lp199
(I143
I4
I0
g195
tp200
as(S'ton'
p201
S'on'
p202
S'side'
p203
tp204
(lp205
(I118
I31
F0.5
S'second'
p206
tp207
as(S'life'
p208
tp209
(lp210
(I0
I4
F1.0
g24
tp211
a(I0
I4
F-0.5
g26
tp212
a(I19
I4
F1.0
g28
tp213
a(I20
I3
F0.625
g30
tp214
a(I136
I7
F1.0
g42
tp215
a(I140
I3
F0.375
g44
tp216
as(S'love'
p217
S'love'
p218
tp219
(lp220
(I27
I9
F1.0
S'love'
p221
tp222
a(I59
I5
F1.0
S'love'
p223
tp224
as(S'right'
p225
tp226
(lp227
(I7
I2
F-0.375
S'top'
p228
tp229
as(S'screen'
p230
tp231
(lp232
(I97
I4
F0.5
S'touch'
p233
tp234
as(S'things'
p235
tp236
(lp237
(I27
I9
I0
S'very'
p238
tp239
a(I27
I9
F1.0
S'best'
p240
tp241
a(I72
I3
F0.125
S'enough'
p242
tp243
a(I72
I3
F1.0
S'good'
p244
tp245
a(I93
I5
I0
S'few'
p246
tp247
as(S'2'
p248
S'years'
p249
tp250
(lp251
(I4
I11
F0.5
g16
tp252
a(I7
I1
F0.125
g184
tp253
a(I123
I1
F-0.125
g187
tp254
as(S'full'
p255
S'qwerty'
p256
tp257
(lp258
(I26
I6
I0
g96
tp259
a(I28
I5
I0
g98
tp260
a(I41
I1
I0
g100
tp261
a(I64
I1
I0
g102
tp262
a(I95
I11
I0
g104
tp263
as(S'verizon'
p264
tp265
(lp266
(I130
I1
I0
S'local'
p267
tp268
as(S'samsung'
p269
S'alias'
p270
tp271
(lp272
(I23
I0
I0
g159
tp273
a(I28
I0
F0.125
g161
tp274
a(I55
I1
F0.25
g163
tp275
a(I99
I0
F-0.5
S'began'
p276
tp277
as(S'people'
p278
tp279
(lp280
(I4
I2
I0
S'dial'
p281
tp282
a(I52
I0
I0
S'quick'
p283
tp284
a(I52
I0
F0.25
S'responsive'
p285
tp286
a(I52
I4
F1.0
S'good'
p287
tp288
a(I111
I5
I0
S'few'
p289
tp290
a(I118
I61
F-0.625
S'other'
p291
tp292
as(S'qwerty'
p293
tp294
(lp295
(I4
I11
I0
S'physical'
p296
tp297
a(I26
I6
I0
g96
tp298
a(I28
I5
I0
g98
tp299
a(I41
I1
I0
g100
tp300
a(I64
I1
I0
g102
tp301
a(I95
I11
I0
g104
tp302
a(I142
I4
F1.0
S'good'
p303
tp304
a(I143
I5
F-0.5
S'open'
p305
tp306
a(I143
I5
F0.875
S'nice'
p307
tp308
as(S'feature'
p309
tp310
(lp311
(I64
I2
I0
S'great'
p312
tp313
as(S'seller'
p314
tp315
(lp316
(I111
I7
I0
S'electronic'
p317
tp318
a(I111
I7
I0
S'great'
p319
tp320
a(I141
I2
I0
S'more'
p321
tp322
as(S'qwerty'
p323
S'keyboard'
p324
tp325
(lp326
(I4
I11
I0
g296
tp327
a(I23
I5
I0
g51
tp328
a(I26
I6
I0
g96
tp329
a(I28
I5
I0
g98
tp330
a(I41
I1
I0
g100
tp331
a(I64
I1
I0
g102
tp332
a(I143
I5
F-0.5
g305
tp333
a(I143
I5
F0.875
g307
tp334
as(S'plan'
p335
tp336
(lp337
(I96
I13
F-0.25
S'lowest'
p338
tp339
as(S'works'
p340
tp341
(lp342
(I20
I3
I0
S'keypad'
p343
tp344
a(I20
I3
F1.0
S'good'
p345
tp346
a(I66
I3
I0
S'great'
p347
tp348
a(I75
I0
I0
S'great'
p349
tp350
a(I103
I0
I0
S'great'
p351
tp352
as(S'ever'
p353
tp354
(lp355
(I107
I0
F0.125
S'last'
p356
tp357
as(S'side'
p358
tp359
(lp360
(I98
I2
F-0.5
S'open'
p361
tp362
a(I98
I2
F-0.75
S'wrong'
p363
tp364
a(I118
I31
F0.5
g206
tp365
as(S'battery'
p366
tp367
(lp368
(I20
I5
I0
g32
tp369
a(I20
I5
F-0.25
g34
tp370
a(I40
I1
F-0.5
S'sure'
p371
tp372
a(I40
I1
F-0.5
S'long'
p373
tp374
a(I40
I1
F0.125
S'charger'
p375
tp376
a(I47
I3
I0
S'own'
p377
tp378
a(I50
I2
F-0.5
g36
tp379
a(I79
I7
F0.375
S'extended'
p380
tp381
a(I85
I8
I0
S'few'
p382
tp383
a(I90
I0
I0
g38
tp384
a(I97
I1
F-0.5
g40
tp385
a(I118
I44
F-0.25
S'low'
p386
tp387
a(I118
I46
F-0.25
S'low'
p388
tp389
a(I118
I47
F-0.25
S'low'
p390
tp391
a(I118
I51
F-0.25
S'low'
p392
tp393
as(S'keyboard'
p394
S'for'
p395
S'texting'
p396
tp397
(lp398
(I72
I2
I0
S'quick'
p399
tp400
a(I72
I2
F0.625
S'easy'
p401
tp402
a(I82
I4
I0
S'great'
p403
tp404
a(I113
I2
I0
g69
tp405
a(I113
I2
F-0.5
g71
tp406
a(I126
I1
I0
g79
tp407
a(I131
I4
I0
g81
tp408
a(I131
I4
I0
g83
tp409
as(S'smart'
p410
tp411
(lp412
(I24
I7
F-0.5
S'longer'
p413
tp414
a(I42
I0
F-0.625
S'want'
p415
tp416
a(I105
I1
F0.625
S'interested'
p417
tp418
a(I105
I1
F0.375
S'new'
p419
tp420
as(S'thing'
p421
tp422
(lp423
(I50
I0
F1.0
S'good'
p424
tp425
a(I57
I0
F0.375
S'strangest'
p426
tp427
a(I91
I3
F1.0
S'best'
p428
tp429
a(I96
I15
F0.75
S'worth'
p430
tp431
a(I98
I4
I0
S'only'
p432
tp433
a(I98
I4
F-0.875
S'negative'
p434
tp435
a(I118
I7
F0.625
S'right'
p436
tp437
a(I118
I28
F1.0
S'good'
p438
tp439
a(I118
I28
F-0.5
S'long'
p440
tp441
a(I118
I37
F0.125
S'last'
p442
tp443
a(I136
I1
I0
S'same'
p444
tp445
as(S'few'
p446
S'months'
p447
tp448
(lp449
(I65
I5
I0
S'few'
p450
tp451
a(I86
I2
I0
S'few'
p452
tp453
a(I86
I7
I0
S'few'
p454
tp455
as(S'better'
p456
tp457
(lp458
(I2
I2
F0.375
S'much'
p459
tp460
as(S'anything'
p461
tp462
(lp463
(I27
I10
F0.625
S'correct'
p464
tp465
a(I35
I0
I0
S'anymore'
p466
tp467
a(I108
I2
F-0.875
S'negative'
p468
tp469
as(S'alias'
p470
tp471
(lp472
(I26
I5
F0.75
S'due'
p473
tp474
a(I26
I10
F-0.5
S'less'
p475
tp476
a(I29
I0
I0
S'third'
p477
tp478
a(I77
I0
I0
S'older'
p479
tp480
a(I86
I3
F0.125
S'first'
p481
tp482
a(I99
I0
F-0.5
g276
tp483
a(I112
I1
F0.125
S'first'
p484
tp485
as(S'flip'
p486
tp487
(lp488
(I20
I3
I0
S'normal'
p489
tp490
a(I26
I6
F-0.5
S'regular'
p491
tp492
a(I31
I2
F-0.5
S'open'
p493
tp494
a(I31
I2
I0
S'great'
p495
tp496
a(I37
I3
F-0.625
S'other'
p497
tp498
a(I37
I5
F-0.625
S'other'
p499
tp500
a(I37
I6
F-0.625
S'bad'
p501
tp502
a(I44
I1
F-0.5
S'open'
p503
tp504
a(I64
I1
I0
S'only'
p505
tp506
a(I90
I1
I0
S'most'
p507
tp508
a(I143
I6
I0
S'upright'
p509
tp510
as(S'call'
p511
tp512
(lp513
(I27
I2
F-0.5
S'lose'
p514
tp515
a(I37
I8
I0
S'more'
p516
tp517
as(S'calls'
p518
tp519
(lp520
(I113
I3
F1.0
S'good'
p521
tp522
as(S'data'
p523
tp524
(lp525
(I24
I8
I0
S'monthly'
p526
tp527
a(I26
I13
F0.375
S'interesting'
p528
tp529
a(I59
I0
F0.375
g90
tp530
as(S'time'
p531
tp532
(lp533
(I9
I7
F0.125
S'first'
p534
tp535
a(I21
I0
I0
S'third'
p536
tp537
a(I54
I0
I0
S'along'
p538
tp539
a(I61
I2
F-0.5
S'long'
p540
tp541
a(I85
I7
F-0.5
S'long'
p542
tp543
a(I92
I0
F0.125
S'first'
p544
tp545
a(I96
I10
I0
S'same'
p546
tp547
a(I111
I4
F0.375
S'reliable'
p548
tp549
a(I111
I4
I0
S'wish'
p550
tp551
a(I111
I4
F-0.5
S'less'
p552
tp553
a(I118
I8
F-0.625
S'glorious'
p554
tp555
a(I118
I40
I0
S'same'
p556
tp557
a(I132
I5
F0.375
S'new'
p558
tp559
as(S'ways'
p560
tp561
(lp562
(I66
I0
F0.125
S'able'
p563
tp564
a(I66
I0
F-0.5
S'open'
p565
tp566
a(I66
I0
I0
S'different'
p567
tp568
a(I109
I2
F-0.5
S'long'
p569
tp570
a(I125
I2
F-0.5
S'open'
p571
tp572
a(I129
I0
I0
S'great'
p573
tp574
as(S'smartphone'
p575
tp576
(lp577
(I37
I11
F0.375
S'much'
p578
tp579
as(S'condition'
p580
tp581
(lp582
(I40
I2
F1.0
S'good'
p583
tp584
a(I65
I2
F1.0
S'good'
p585
tp586
a(I65
I9
F-0.375
S'unacceptable'
p587
tp588
a(I76
I2
F1.0
S'good'
p589
tp590
a(I89
I0
F1.0
S'good'
p591
tp592
a(I124
I1
I0
S'different'
p593
tp594
as(S'charger'
p595
tp596
(lp597
(I52
I0
F0.375
S'new'
p598
tp599
as(S'love'
p600
tp601
(lp602
(I27
I9
F1.0
g221
tp603
a(I59
I5
F1.0
g223
tp604
as(S'data'
p605
S'plan'
p606
tp607
(lp608
(I59
I0
F0.375
g90
tp609
as(S'lg'
p610
S'env3'
p611
tp612
(lp613
(I118
I16
F-0.25
S'precious'
p614
tp615
as(S'cell'
p616
tp617
(lp618
(I10
I1
F1.0
S'best'
p619
tp620
a(I14
I0
I0
S'traditional'
p621
tp622
a(I64
I5
I0
S'standard'
p623
tp624
a(I68
I1
F1.0
S'best'
p625
tp626
a(I118
I30
F-0.5
S'humble'
p627
tp628
a(I118
I63
F-0.375
S'simple'
p629
tp630
as(S'anyone'
p631
tp632
(lp633
(I121
I0
I0
S'more'
p634
tp635
a(I128
I0
F0.75
S'worth'
p636
tp637
as(S'texting'
p638
tp639
(lp640
(I9
I5
F0.625
S'convenient'
p641
tp642
a(I23
I4
I0
S'basic'
p643
tp644
a(I27
I2
I0
S'great'
p645
tp646
a(I48
I1
I0
S'great'
p647
tp648
a(I72
I2
I0
g399
tp649
a(I72
I2
F0.625
g401
tp650
a(I82
I4
I0
g403
tp651
a(I94
I2
I0
S'great'
p652
tp653
a(I95
I15
F-0.5
S'heavy'
p654
tp655
a(I109
I3
F0.625
S'easy'
p656
tp657
as(S'data'
p658
S'package'
p659
tp660
(lp661
(I143
I4
I0
g195
tp662
as(S'days'
p663
tp664
(lp665
(I20
I3
I0
S'few'
p666
tp667
a(I65
I3
F0.125
S'first'
p668
tp669
a(I65
I3
I0
S'few'
p670
tp671
a(I111
I5
F0.125
S'enough'
p672
tp673
a(I120
I0
I0
S'few'
p674
tp675
as(S'every'
p676
tp677
(lp678
(I125
I1
I0
S'few'
p679
tp680
as(S'touch'
p681
S'screen'
p682
tp683
(lp684
(I97
I4
F0.5
g233
tp685
a(I140
I0
F0.375
S'new'
p686
tp687
as(S'text'
p688
tp689
(lp690
(I96
I12
F0.125
S'able'
p691
tp692
a(I96
I12
F0.25
S'original'
p693
tp694
a(I143
I1
F-0.125
S'communicate'
p695
tp696
as(S'sound'
p697
S'quality'
p698
tp699
(lp700
(I26
I13
F1.0
S'good'
p701
tp702
a(I66
I2
F1.0
S'good'
p703
tp704
as.