(dp0
(S'fm'
p1
S'radio'
p2
tp3
(lp4
(I26
I9
F1.0
S'good'
p5
I0
tp6
as(S'texting'
p7
tp8
(lp9
(I24
I29
F0.875
S'nice'
p10
I0
tp11
a(I27
I8
F-0.5
S'mess'
p12
I0
tp13
as(S'ringing'
p14
S'tunes'
p15
tp16
(lp17
(I20
I20
F0.625
S'add'
p18
I0
tp19
a(I20
I20
I0
S'large'
p20
I0
tp21
as(S'replacement'
p22
tp23
(lp24
(I24
I11
F-0.25
S'direct'
p25
I13
tp26
as(S'calls'
p27
tp28
(lp29
(I18
I19
I0
S'basic'
p30
I0
tp31
a(I32
I12
I0
S'basic'
p32
I0
tp33
as(S'add'
p34
S'money'
p35
tp36
(lp37
(I29
I12
F0.625
S'add'
p38
I0
tp39
a(I29
I13
F0.625
S'add'
p40
I0
tp41
as(S'sim'
p42
S'card'
p43
tp44
(lp45
(I15
I17
F0.625
S'easy'
p46
I0
tp47
a(I15
I17
F1.0
S'good'
p48
I0
tp49
as(S'long'
p50
S'time'
p51
tp52
(lp53
(I15
I35
F-0.5
S'long'
p54
I13
tp55
a(I15
I35
F-0.375
S'simple'
p56
I13
tp57
a(I27
I8
F-0.5
S'long'
p58
I13
tp59
a(I27
I10
F0.375
S'forcing'
p60
I13
tp61
a(I27
I10
F-0.5
S'long'
p62
I13
tp63
as(S'touch'
p64
S'screen'
p65
tp66
(lp67
(I2
I2
I0
S'great'
p68
I2
tp69
a(I2
I5
I0
S'sensitive'
p70
I2
tp71
a(I2
I15
F0.5
S'touch'
p72
I2
tp73
a(I2
I15
I0
S'great'
p74
I2
tp75
a(I5
I2
F0.5
S'touch'
p76
I2
tp77
a(I5
I2
I0
S'user'
p78
I2
tp79
a(I5
I16
F0.5
S'touch'
p80
I2
tp81
a(I5
I17
F0.5
S'touch'
p82
I2
tp83
a(I5
I17
F-0.75
S'dead'
p84
I2
tp85
a(I6
I33
F0.5
S'touch'
p86
I2
tp87
a(I8
I0
F0.5
S'touch'
p88
I2
tp89
a(I15
I18
I0
S'many'
p90
I2
tp91
a(I15
I18
F0.5
S'touch'
p92
I2
tp93
a(I15
I40
F0.5
S'touch'
p94
I2
tp95
a(I20
I7
F0.5
S'touch'
p96
I2
tp97
as(S'internet'
p98
S'connection'
p99
tp100
(lp101
(I18
I16
I0
S'internet'
p102
I0
tp103
a(I20
I17
F-0.5
S'poor'
p104
I0
tp105
a(I20
I18
I0
S'fast'
p106
I0
tp107
a(I32
I9
I0
S'internet'
p108
I0
tp109
a(I20
I17
F-0.5
g104
I6
tp110
a(I20
I18
I0
g106
I6
tp111
a(I20
I19
F1.0
S'good'
p112
I6
tp113
a(I30
I0
F0.375
S'scan'
p114
I6
tp115
as.