(dp0
(S'model'
p1
tp2
(lp3
(I50
I1
I0
S'same'
p4
tp5
a(I215
I0
I0
S'same'
p6
tp7
a(I235
I0
I0
S'same'
p8
tp9
a(I235
I0
F0.875
S'happy'
p10
tp11
a(I268
I1
I0
S'same'
p12
tp13
a(I268
I4
I0
S'more'
p14
tp15
a(I268
I4
F0.375
S'reliable'
p16
tp17
a(I283
I4
I0
S'common'
p18
tp19
a(I335
I0
I0
S'particular'
p20
tp21
a(I426
I0
I0
S'same'
p22
tp23
a(I469
I4
I0
S'more'
p24
tp25
a(I475
I0
I0
S'same'
p26
tp27
a(I480
I3
I0
S'same'
p28
tp29
as(S'purchase'
p30
tp31
(lp32
(I36
I1
F1.0
S'best'
p33
tp34
a(I96
I15
F0.875
S'happy'
p35
tp36
a(I229
I0
F1.0
S'good'
p37
tp38
a(I380
I7
F-0.875
S'unhappy'
p39
tp40
a(I409
I2
F-0.875
S'worst'
p41
tp42
a(I409
I2
F0.125
S'amazon'
p43
tp44
a(I446
I6
F0.875
S'happy'
p45
tp46
a(I469
I0
F0.875
S'happy'
p47
tp48
a(I552
I1
F0.875
S'happy'
p49
tp50
a(I582
I2
F0.875
S'happy'
p51
tp52
as(S'keyboard'
p53
tp54
(lp55
(I34
I2
F-0.5
S'separate'
p56
tp57
a(I34
I2
F0.625
S'easy'
p58
tp59
a(I47
I11
I0
S'full'
p60
tp61
a(I51
I1
I0
S'physical'
p62
tp63
a(I83
I4
I0
S'full'
p64
tp65
a(I91
I2
I0
S'great'
p66
tp67
a(I109
I2
I0
S'full'
p68
tp69
a(I139
I2
F-0.5
S'open'
p70
tp71
a(I187
I1
F0.625
S'easy'
p72
tp73
a(I193
I12
I0
S'great'
p74
tp75
a(I198
I2
I0
S'internal'
p76
tp77
a(I204
I1
F0.125
S'key'
p78
tp79
a(I206
I1
I0
S'full'
p80
tp81
a(I214
I2
F0.625
S'easy'
p82
tp83
a(I232
I4
F0.25
S'larger'
p84
tp85
a(I273
I1
F0.875
S'nice'
p86
tp87
a(I273
I1
I0
S'big'
p88
tp89
a(I282
I9
I0
S'full'
p90
tp91
a(I293
I6
F1.0
S'best'
p92
tp93
a(I314
I1
F0.625
S'easier'
p94
tp95
a(I336
I1
I0
S'different'
p96
tp97
a(I339
I0
I0
S'large'
p98
tp99
a(I339
I0
F0.625
S'easy'
p100
tp101
a(I369
I4
F0.625
S'easy'
p102
tp103
a(I369
I4
F-0.75
S'comfortable'
p104
tp105
a(I383
I10
F-0.5
S'separate'
p106
tp107
a(I391
I3
F-0.5
S'actual'
p108
tp109
a(I420
I1
I0
S'full'
p110
tp111
a(I442
I3
I0
S'real'
p112
tp113
a(I442
I3
F1.0
S'best'
p114
tp115
a(I450
I1
F1.0
S'good'
p116
tp117
a(I494
I2
F0.625
S'easier'
p118
tp119
a(I496
I1
F0.625
S'easy'
p120
tp121
a(I496
I1
F0.625
S'easy'
p122
tp123
a(I508
I2
I0
S'full'
p124
tp125
a(I517
I5
F0.25
S'bigger'
p126
tp127
a(I606
I0
F0.125
S'first'
p128
tp129
as(S'nice'
p130
tp131
(lp132
(I162
I0
F0.625
S'easy'
p133
tp134
a(I236
I0
I0
S'real'
p135
tp136
a(I526
I0
F0.625
S'easy'
p137
tp138
as(S'qwerty'
p139
S'keyboard'
p140
tp141
(lp142
(I22
I1
I0
S'full'
p143
tp144
a(I113
I0
F0.25
S'larger'
p145
tp146
a(I113
I0
F0.125
S'usual'
p147
tp148
a(I193
I10
I0
S'hinged'
p149
tp150
a(I193
I10
I0
S'full'
p151
tp152
a(I193
I12
F0.875
S'nice'
p153
tp154
a(I193
I12
I0
g74
tp155
a(I369
I4
F0.625
g102
tp156
a(I369
I4
F-0.75
g104
tp157
a(I375
I0
F0.625
S'easier'
p158
tp159
a(I429
I1
I0
S'faster'
p160
tp161
a(I433
I1
I0
S'full'
p162
tp163
as(S'quality'
p164
tp165
(lp166
(I19
I0
I0
S'great'
p167
tp168
a(I47
I1
F-0.125
S'overall'
p169
tp170
a(I62
I1
F1.0
S'good'
p171
tp172
a(I75
I13
I0
S'great'
p173
tp174
a(I75
I20
F-0.5
S'open'
p175
tp176
a(I75
I20
F1.0
S'good'
p177
tp178
a(I139
I17
I0
S'high'
p179
tp180
a(I173
I3
F1.0
S'good'
p181
tp182
a(I193
I23
I0
S'great'
p183
tp184
a(I194
I1
F1.0
S'good'
p185
tp186
a(I425
I7
F1.0
S'good'
p187
tp188
a(I510
I1
F-0.5
S'poor'
p189
tp190
a(I563
I2
F1.0
S'good'
p191
tp192
a(I587
I2
I0
S'latest'
p193
tp194
as(S'verizon'
p195
tp196
(lp197
(I4
I1
F0.125
S'able'
p198
tp199
a(I12
I1
I0
S'current'
p200
tp201
a(I14
I1
F0.625
S'easy'
p202
tp203
a(I17
I1
F-0.75
S'unable'
p204
tp205
a(I52
I1
F0.5
S'expensive'
p206
tp207
a(I80
I1
I0
S'most'
p208
tp209
a(I100
I0
F0.25
S'original'
p210
tp211
a(I120
I8
I0
S'anymore'
p212
tp213
a(I125
I2
F0.5
S'told'
p214
tp215
a(I205
I4
F-0.5
S'sure'
p216
tp217
a(I206
I2
F0.625
S'easy'
p218
tp219
a(I247
I12
F0.125
S'first'
p220
tp221
a(I247
I12
F0.375
S'new'
p222
tp223
a(I251
I5
F1.0
S'best'
p224
tp225
a(I251
I5
F-0.875
S'worst'
p226
tp227
a(I293
I1
F0.125
S'first'
p228
tp229
a(I373
I0
I0
S'local'
p230
tp231
a(I398
I1
I0
S'local'
p232
tp233
a(I406
I2
F0.5
S'told'
p234
tp235
a(I416
I3
I0
S'website'
p236
tp237
a(I448
I1
F0.25
S'original'
p238
tp239
a(I545
I1
F-0.125
S'mine'
p240
tp241
a(I558
I1
F0.125
S'able'
p242
tp243
a(I571
I1
F0.5
S'compatible'
p244
tp245
a(I571
I1
F0.375
S'new'
p246
tp247
a(I600
I1
F0.375
S'new'
p248
tp249
as(S'need'
p250
S'a'
p251
S'data'
p252
tp253
(lp254
(I420
I1
F0.125
S'able'
p255
tp256
a(I470
I0
F0.5
S'expensive'
p257
tp258
a(I559
I0
F0.25
S'tired'
p259
tp260
as(S'sd'
p261
S'card'
p262
tp263
(lp264
(I545
I5
I0
S'more'
p265
tp266
as(S'contract'
p267
tp268
(lp269
(I153
I1
I0
S'current'
p270
tp271
a(I153
I1
I0
S'most'
p272
tp273
a(I262
I3
F-0.625
S'free'
p274
tp275
a(I446
I1
F0.375
S'new'
p276
tp277
a(I548
I0
F0.375
S'new'
p278
tp279
as(S'big'
p280
S'disappointment'
p281
tp282
(lp283
(I360
I2
I0
S'big'
p284
tp285
a(I440
I1
I0
S'big'
p286
tp287
a(I556
I0
I0
S'big'
p288
tp289
as(S'charge'
p290
tp291
(lp292
(I11
I1
F1.0
S'good'
p293
tp294
a(I13
I2
I0
S'full'
p295
tp296
a(I47
I4
F-0.75
S'single'
p297
tp298
a(I75
I26
I0
S'full'
p299
tp300
a(I113
I0
F-0.5
S'long'
p301
tp302
a(I146
I7
F-0.625
S'light'
p303
tp304
a(I206
I2
F0.375
S'extra'
p305
tp306
a(I239
I2
I0
S'recharged'
p307
tp308
a(I259
I1
I0
S'least'
p309
tp310
a(I268
I3
I0
S'full'
p311
tp312
a(I285
I0
F0.375
S'reliable'
p313
tp314
a(I327
I3
I0
S'full'
p315
tp316
a(I443
I0
I0
S'more'
p317
tp318
a(I493
I3
F-0.25
S'ready'
p319
tp320
a(I497
I0
I0
S'more'
p321
tp322
a(I566
I0
F0.375
S'complete'
p323
tp324
a(I587
I1
F0.125
S'last'
p325
tp326
as(S'waste'
p327
S'of'
p328
S'money'
p329
tp330
(lp331
(I423
I0
I0
S'big'
p332
tp333
a(I423
I0
F-0.625
S'thrown'
p334
tp335
a(I504
I4
F-0.75
S'worse'
p336
tp337
as(S'talk'
p338
S'and'
p339
S'text'
p340
tp341
(lp342
(I89
I0
F-0.375
S'simple'
p343
tp344
a(I500
I1
I0
S'great'
p345
tp346
as(S'smartphone'
p347
tp348
(lp349
(I193
I3
I0
S'cool'
p350
tp351
a(I383
I2
F0.625
S'interested'
p352
tp353
a(I383
I2
F0.5
S'true'
p354
tp355
a(I607
I0
I0
S'many'
p356
tp357
as(S'customer'
p358
S'service'
p359
tp360
(lp361
(I80
I5
F1.0
S'good'
p362
tp363
a(I331
I3
F1.0
S'good'
p364
tp365
a(I338
I2
I0
S'great'
p366
tp367
a(I472
I3
I0
S'great'
p368
tp369
as(S'great'
p370
S'battery'
p371
S'life'
p372
tp373
(lp374
(I47
I3
I0
S'great'
p375
tp376
a(I167
I4
I0
S'great'
p377
tp378
a(I179
I3
I0
S'great'
p379
tp380
a(I277
I1
I0
S'great'
p381
tp382
a(I277
I1
F-0.25
S'ready'
p383
tp384
a(I296
I1
I0
S'great'
p385
tp386
a(I349
I2
I0
S'great'
p387
tp388
a(I363
I0
F0.375
S'new'
p389
tp390
a(I413
I0
I0
S'great'
p391
tp392
a(I413
I0
F1.0
S'good'
p393
tp394
a(I521
I1
I0
S'great'
p395
tp396
a(I585
I3
I0
S'great'
p397
tp398
as(S'good'
p399
S'for'
p400
S'texting'
p401
tp402
(lp403
(I52
I1
I0
S'great'
p404
tp405
a(I77
I1
F1.0
S'good'
p406
tp407
a(I228
I1
F1.0
S'good'
p408
tp409
a(I282
I0
F1.0
S'good'
p410
tp411
a(I553
I2
F0.625
S'easy'
p412
tp413
a(I574
I2
F1.0
S'good'
p414
tp415
as(S'fast'
p416
tp417
(lp418
(I309
I5
F-0.125
S'super'
p419
tp420
as(S'problem'
p421
tp422
(lp423
(I66
I5
I0
S'same'
p424
tp425
a(I119
I0
I0
S'only'
p426
tp427
a(I158
I1
I0
S'big'
p428
tp429
a(I158
I4
I0
S'same'
p430
tp431
a(I221
I1
I0
S'great'
p432
tp433
a(I363
I0
F0.125
S'charger'
p434
tp435
a(I425
I0
I0
S'only'
p436
tp437
a(I425
I0
I0
S'real'
p438
tp439
a(I477
I3
F0.625
S'easy'
p440
tp441
a(I477
I3
F-0.5
S'sure'
p442
tp443
a(I533
I7
I0
S'same'
p444
tp445
a(I536
I11
I0
S'same'
p446
tp447
a(I568
I2
I0
S'same'
p448
tp449
a(I577
I4
I0
S'common'
p450
tp451
a(I592
I1
F0.375
S'new'
p452
tp453
a(I596
I3
I0
S'common'
p454
tp455
as(S'money'
p456
tp457
(lp458
(I32
I1
I0
S'big'
p459
tp460
a(I75
I51
F0.625
S'kind'
p461
tp462
a(I75
I51
F0.625
S'foolish'
p463
tp464
a(I108
I5
I0
S'planet'
p465
tp466
a(I108
I5
I0
S'mobile'
p467
tp468
a(I108
I5
I0
S'quick'
p469
tp470
a(I182
I0
F0.75
S'worth'
p471
tp472
a(I380
I6
F0.375
S'extra'
p473
tp474
a(I421
I0
F0.75
S'worth'
p475
tp476
a(I423
I0
F-0.625
g334
tp477
a(I469
I2
F0.375
S'extra'
p478
tp479
a(I469
I2
F0.125
S'sooner'
p480
tp481
a(I536
I19
I0
S'more'
p482
tp483
a(I550
I1
F1.0
S'best'
p484
tp485
a(I607
I4
F0.75
S'worth'
p486
tp487
as(S'great'
p488
S'for'
p489
S'texting'
p490
tp491
(lp492
(I52
I1
I0
g404
tp493
a(I169
I3
I0
S'great'
p494
tp495
a(I251
I2
I0
S'great'
p496
tp497
a(I327
I5
I0
S'great'
p498
tp499
a(I342
I1
I0
S'great'
p500
tp501
a(I535
I2
I0
S'great'
p502
tp503
as(S'price'
p504
tp505
(lp506
(I13
I8
F1.0
S'good'
p507
tp508
a(I26
I0
F1.0
S'best'
p509
tp510
a(I26
I0
F1.0
S'good'
p511
tp512
a(I41
I0
F1.0
S'good'
p513
tp514
a(I46
I0
I0
S'great'
p515
tp516
a(I50
I2
F-0.25
S'low'
p517
tp518
a(I63
I4
I0
S'great'
p519
tp520
a(I63
I11
F0.5
S'willing'
p521
tp522
a(I74
I1
F0.875
S'happy'
p523
tp524
a(I86
I2
F1.0
S'good'
p525
tp526
a(I116
I0
F-0.125
S'super'
p527
tp528
a(I116
I0
I0
S'great'
p529
tp530
a(I222
I4
I0
S'great'
p531
tp532
a(I224
I4
F1.0
S'good'
p533
tp534
a(I262
I3
F0.75
S'worth'
p535
tp536
a(I310
I1
F1.0
S'good'
p537
tp538
a(I314
I3
I0
S'great'
p539
tp540
a(I319
I2
F1.0
S'good'
p541
tp542
a(I347
I2
F1.0
S'good'
p543
tp544
a(I358
I2
I0
S'great'
p545
tp546
a(I415
I2
I0
S'great'
p547
tp548
a(I446
I7
F0.625
S'perfect'
p549
tp550
a(I506
I2
F1.0
S'good'
p551
tp552
a(I512
I1
F1.0
S'good'
p553
tp554
a(I572
I1
F1.0
S'good'
p555
tp556
a(I572
I1
F0.625
S'easy'
p557
tp558
as(S'working'
p559
tp560
(lp561
(I230
I1
F1.0
S'good'
p562
tp563
a(I536
I2
F1.0
S'good'
p564
tp565
a(I536
I12
F1.0
S'good'
p566
tp567
as(S'need'
p568
tp569
(lp570
(I189
I1
I0
S'great'
p571
tp572
a(I377
I3
F-0.25
S'inexpensive'
p573
tp574
as(g251
S'good'
p575
S'price'
p576
tp577
(lp578
(I13
I8
F1.0
g507
tp579
a(I26
I0
F1.0
g509
tp580
a(I26
I0
F1.0
g511
tp581
a(I86
I2
F1.0
g525
tp582
a(I224
I4
F1.0
g533
tp583
a(I310
I1
F1.0
g537
tp584
a(I319
I2
F1.0
g541
tp585
a(I347
I2
F1.0
g543
tp586
a(I506
I2
F1.0
g551
tp587
a(I512
I1
F1.0
g553
tp588
a(I572
I1
F1.0
g555
tp589
a(I572
I1
F0.625
g557
tp590
as(S'apple'
p591
S'wireless'
p592
tp593
(lp594
(I571
I8
F0.375
S'sold'
p595
tp596
as(S'recommend'
p597
tp598
(lp599
(I154
I3
I0
S'many'
p600
tp601
as(S'product'
p602
tp603
(lp604
(I258
I2
I0
S'particular'
p605
tp606
a(I271
I0
F0.875
S'happy'
p607
tp608
a(I346
I0
I0
S'great'
p609
tp610
a(I354
I3
F0.375
S'new'
p611
tp612
a(I378
I0
I0
S'great'
p613
tp614
a(I389
I2
I0
S'great'
p615
tp616
a(I404
I0
F0.875
S'happy'
p617
tp618
a(I423
I0
F0.875
S'happy'
p619
tp620
a(I484
I2
I0
S'great'
p621
tp622
a(I568
I0
F1.0
S'good'
p623
tp624
a(I595
I3
F0.375
S'much'
p625
tp626
as(S'right'
p627
tp628
(lp629
(I211
I3
F-0.375
S'top'
p630
tp631
as(S'features'
p632
tp633
(lp634
(I106
I3
I0
S'many'
p635
tp636
a(I106
I3
F0.375
S'available'
p637
tp638
a(I184
I3
I0
S'more'
p639
tp640
a(I200
I2
I0
S'most'
p641
tp642
a(I318
I1
F0.875
S'important'
p643
tp644
a(I411
I1
I0
S'same'
p645
tp646
a(I425
I6
F0.875
S'important'
p647
tp648
a(I425
I9
F0.375
S'reliable'
p649
tp650
a(I425
I9
F1.0
S'good'
p651
tp652
a(I501
I1
F0.125
S'able'
p653
tp654
a(I501
I1
I0
S'mobile'
p655
tp656
a(I517
I0
F0.5
S'possible'
p657
tp658
a(I590
I1
F-0.625
S'other'
p659
tp660
a(I606
I2
I0
S'more'
p661
tp662
a(I609
I2
F1.0
S'good'
p663
tp664
as(S'hold'
p665
g251
S'charge'
p666
tp667
(lp668
(I113
I0
F-0.5
g301
tp669
a(I239
I2
I0
g307
tp670
a(I259
I1
I0
g309
tp671
a(I443
I0
I0
g317
tp672
a(I497
I0
I0
g321
tp673
as(S'data'
p674
S'package'
p675
tp676
(lp677
(I0
I1
F0.25
S'used'
p678
tp679
a(I139
I3
F-0.375
S'small'
p680
tp681
a(I139
I8
F-0.5
S'sure'
p682
tp683
a(I257
I0
F1.0
S'good'
p684
tp685
a(I559
I0
F0.25
g259
tp686
as(S'went'
p687
S'fuzzy'
p688
tp689
(lp690
(I295
I2
F-0.5
S'less'
p691
tp692
as(g251
S'long'
p693
S'time'
p694
tp695
(lp696
(I42
I1
F0.375
S'new'
p697
tp698
a(I42
I1
F-0.5
S'long'
p699
tp700
a(I123
I0
I0
S'same'
p701
tp702
a(I187
I1
F-0.5
S'long'
p703
tp704
a(I200
I5
F-0.5
S'long'
p705
tp706
a(I380
I6
F-0.5
S'long'
p707
tp708
a(I412
I1
F-0.5
S'long'
p709
tp710
a(I442
I1
F-0.5
S'long'
p711
tp712
a(I549
I1
F-0.5
S'long'
p713
tp714
as(S'years'
p715
tp716
(lp717
(I77
I0
F-0.625
S'other'
p718
tp719
a(I95
I0
I0
S'few'
p720
tp721
a(I114
I1
I0
S'old'
p722
tp723
a(I114
I1
I0
S'old'
p724
tp725
a(I120
I0
F0.125
S'first'
p726
tp727
a(I200
I3
I0
S'many'
p728
tp729
a(I200
I3
I0
S'old'
p730
tp731
a(I234
I2
I0
S'lasted'
p732
tp733
a(I266
I0
F0.25
S'original'
p734
tp735
a(I301
I0
I0
S'old'
p736
tp737
a(I301
I0
I0
S'old'
p738
tp739
a(I340
I1
I0
S'few'
p740
tp741
a(I434
I0
I0
S'same'
p742
tp743
a(I535
I1
I0
S'few'
p744
tp745
a(I538
I2
F0.375
S'new'
p746
tp747
a(I538
I2
I0
S'old'
p748
tp749
a(I557
I1
F0.125
S'first'
p750
tp751
a(I560
I0
I0
S'few'
p752
tp753
a(I593
I8
I0
S'sturdy'
p754
tp755
as(S'replacement'
p756
tp757
(lp758
(I75
I30
F0.375
S'new'
p759
tp760
a(I167
I0
F1.0
S'best'
p761
tp762
a(I192
I3
F1.0
S'good'
p763
tp764
a(I273
I4
F-0.25
S'cheaper'
p765
tp766
a(I304
I0
F-0.25
S'cheaper'
p767
tp768
a(I388
I1
F-0.625
S'glad'
p769
tp770
a(I388
I1
F0.125
S'able'
p771
tp772
a(I399
I6
F1.0
S'good'
p773
tp774
a(I516
I1
I0
S'deductible'
p775
tp776
a(I546
I0
F0.5
S'temporary'
p777
tp778
as(S'thing'
p779
tp780
(lp781
(I10
I0
F-0.625
S'bad'
p782
tp783
a(I75
I9
F-0.75
S'single'
p784
tp785
a(I75
I31
I0
S'same'
p786
tp787
a(I75
I32
F0.125
S'last'
p788
tp789
a(I75
I52
I0
S'only'
p790
tp791
a(I75
I52
F-0.5
S'afraid'
p792
tp793
a(I91
I3
I0
S'only'
p794
tp795
a(I91
I3
F-0.625
S'bad'
p796
tp797
a(I158
I2
I0
S'same'
p798
tp799
a(I193
I17
I0
S'weird'
p800
tp801
a(I193
I17
F-0.625
S'surprising'
p802
tp803
a(I227
I2
I0
S'only'
p804
tp805
a(I375
I0
I0
S'only'
p806
tp807
a(I403
I11
I0
S'only'
p808
tp809
a(I403
I11
F1.0
S'good'
p810
tp811
a(I408
I6
I0
S'plastic'
p812
tp813
a(I408
I8
F0.375
S'new'
p814
tp815
a(I408
I8
F-0.75
S'little'
p816
tp817
a(I408
I8
I0
S'plastic'
p818
tp819
a(I426
I3
I0
S'same'
p820
tp821
a(I489
I0
I0
S'only'
p822
tp823
a(I511
I1
I0
S'only'
p824
tp825
a(I533
I4
I0
S'same'
p826
tp827
a(I585
I2
F1.0
S'best'
p828
tp829
a(I607
I1
F1.0
S'best'
p830
tp831
as(S'data'
p832
tp833
(lp834
(I14
I1
F-0.5
S'sure'
p835
tp836
a(I39
I0
F1.0
S'best'
p837
tp838
a(I60
I5
F0.25
S'request'
p839
tp840
a(I69
I4
I0
S'minimal'
p841
tp842
a(I139
I3
F-0.375
g680
tp843
a(I211
I6
F-0.125
S'minimum'
p844
tp845
a(I257
I0
F1.0
g684
tp846
a(I327
I9
F-0.5
S'sure'
p847
tp848
a(I420
I1
F0.125
g255
tp849
a(I470
I0
F0.5
g257
tp850
a(I474
I6
F-0.5
S'longer'
p851
tp852
a(I559
I0
F0.25
g259
tp853
a(I571
I6
F0.375
S'extra'
p854
tp855
a(I590
I0
F0.375
S'extra'
p856
tp857
a(I609
I2
I0
S'monthly'
p858
tp859
as(S'n'
p860
S'great'
p861
S'condition'
p862
tp863
(lp864
(I70
I4
F-0.625
S'other'
p865
tp866
a(I86
I0
I0
S'great'
p867
tp868
a(I254
I3
I0
S'great'
p869
tp870
a(I304
I2
I0
S'great'
p871
tp872
a(I363
I0
I0
S'great'
p873
tp874
a(I372
I2
I0
S'great'
p875
tp876
a(I447
I0
I0
S'great'
p877
tp878
a(I513
I0
I0
S'great'
p879
tp880
a(I518
I0
I0
S'great'
p881
tp882
a(I552
I0
F1.0
S'good'
p883
tp884
as(S'easy'
p885
S'to'
p886
S'text'
p887
tp888
(lp889
(I34
I2
F0.75
S'receive'
p890
tp891
a(I72
I2
F0.125
S'solid'
p892
tp893
a(I72
I2
I0
S'basic'
p894
tp895
a(I187
I1
F0.375
S'new'
p896
tp897
as(g251
S'data'
p898
S'plan'
p899
tp900
(lp901
(I60
I5
F0.25
g839
tp902
a(I69
I4
I0
g841
tp903
a(I69
I4
F0.25
S'bigger'
p904
tp905
a(I211
I6
F-0.125
g844
tp906
a(I288
I3
F0.125
S'able'
p907
tp908
a(I420
I1
I0
S'representative'
p909
tp910
a(I420
I1
F0.125
g255
tp911
a(I470
I0
F0.5
g257
tp912
a(I590
I0
F0.375
g856
tp913
as(S'condition'
p914
tp915
(lp916
(I30
I0
F0.375
S'new'
p917
tp918
a(I76
I0
F1.0
S'good'
p919
tp920
a(I86
I0
I0
g867
tp921
a(I89
I2
F0.375
S'new'
p922
tp923
a(I109
I0
F0.375
S'new'
p924
tp925
a(I152
I0
F0.375
S'new'
p926
tp927
a(I178
I0
F0.375
S'new'
p928
tp929
a(I189
I0
F0.875
S'nice'
p930
tp931
a(I248
I0
F1.0
S'good'
p932
tp933
a(I254
I3
I0
g869
tp934
a(I264
I0
F1.0
S'good'
p935
tp936
a(I289
I1
F1.0
S'good'
p937
tp938
a(I304
I2
I0
g871
tp939
a(I308
I1
F1.0
S'good'
p940
tp941
a(I327
I1
F0.375
S'new'
p942
tp943
a(I350
I21
F1.0
S'good'
p944
tp945
a(I363
I0
I0
g873
tp946
a(I372
I2
I0
g875
tp947
a(I380
I1
F0.25
S'original'
p948
tp949
a(I380
I2
F0.25
S'original'
p950
tp951
a(I381
I0
F1.0
S'good'
p952
tp953
a(I447
I0
I0
g877
tp954
a(I484
I0
F1.0
S'better'
p955
tp956
a(I487
I1
F0.375
S'new'
p957
tp958
a(I496
I0
F0.375
S'new'
p959
tp960
a(I497
I0
F1.0
S'good'
p961
tp962
a(I510
I0
F1.0
S'good'
p963
tp964
a(I513
I0
I0
g879
tp965
a(I518
I0
I0
g881
tp966
a(I552
I0
F1.0
g883
tp967
as(S'work'
p968
tp969
(lp970
(I34
I1
I0
S'great'
p971
tp972
a(I383
I10
F0.625
S'easy'
p973
tp974
as(S'key'
p975
S'pad'
p976
tp977
(lp978
(I121
I1
F0.125
S'key'
p979
tp980
a(I219
I1
F0.125
S'key'
p981
tp982
a(I317
I0
F-0.75
S'comfortable'
p983
tp984
a(I449
I0
F0.125
S'key'
p985
tp986
a(I485
I4
F0.125
S'key'
p987
tp988
as(S'battery'
p989
S'life'
p990
tp991
(lp992
(I47
I2
F1.0
S'good'
p993
tp994
a(I47
I3
I0
g375
tp995
a(I82
I1
F-0.875
S'awful'
p996
tp997
a(I146
I6
F1.0
S'good'
p998
tp999
a(I167
I4
I0
g377
tp1000
a(I179
I3
I0
g379
tp1001
a(I206
I1
F1.0
S'good'
p1002
tp1003
a(I277
I1
I0
g381
tp1004
a(I277
I1
F-0.25
g383
tp1005
a(I296
I1
I0
g385
tp1006
a(I349
I2
I0
g387
tp1007
a(I363
I0
F0.375
g389
tp1008
a(I413
I0
I0
g391
tp1009
a(I413
I0
F1.0
g393
tp1010
a(I432
I1
F1.0
S'good'
p1011
tp1012
a(I432
I1
F-0.375
S'simple'
p1013
tp1014
a(I432
I1
F0.625
S'easy'
p1015
tp1016
a(I494
I1
F1.0
S'good'
p1017
tp1018
a(I521
I1
I0
g395
tp1019
a(I585
I3
I0
g397
tp1020
as(S'need'
p1021
g251
S'smart'
p1022
tp1023
(lp1024
(I21
I1
F-0.375
S'simple'
p1025
tp1026
a(I21
I1
F1.0
S'good'
p1027
tp1028
a(I312
I1
F0.375
S'new'
p1029
tp1030
as(S'to'
p1031
S'verizon'
p1032
S'store'
p1033
tp1034
(lp1035
(I398
I1
I0
g232
tp1036
as(S'company'
p1037
tp1038
(lp1039
(I84
I7
F0.125
S'first'
p1040
tp1041
a(I84
I7
I0
S'nervous'
p1042
tp1043
a(I84
I9
I0
S'most'
p1044
tp1045
a(I154
I3
I0
S'different'
p1046
tp1047
a(I232
I2
F0.25
S'helpful'
p1048
tp1049
a(I374
I2
F-0.625
S'bad'
p1050
tp1051
a(I591
I2
I0
S'fast'
p1052
tp1053
as(S'problems'
p1054
tp1055
(lp1056
(I75
I15
I0
S'more'
p1057
tp1058
a(I120
I2
F0.5
S'second'
p1059
tp1060
a(I120
I2
I0
S'same'
p1061
tp1062
a(I120
I6
I0
S'fourth'
p1063
tp1064
a(I120
I6
I0
S'same'
p1065
tp1066
a(I120
I6
F0.125
S'first'
p1067
tp1068
a(I495
I1
I0
S'great'
p1069
tp1070
a(I510
I13
F0.625
S'major'
p1071
tp1072
a(I510
I13
F-0.25
S'late'
p1073
tp1074
as(S'key'
p1075
S'board'
p1076
tp1077
(lp1078
(I16
I1
F0.875
S'nice'
p1079
tp1080
a(I16
I1
F0.125
S'key'
p1081
tp1082
a(I85
I2
F0.25
S'larger'
p1083
tp1084
a(I85
I2
F0.125
S'key'
p1085
tp1086
a(I327
I4
I0
S'physical'
p1087
tp1088
a(I327
I4
F0.125
S'key'
p1089
tp1090
a(I339
I0
F0.125
S'key'
p1091
tp1092
a(I339
I0
I0
S'great'
p1093
tp1094
a(I373
I0
F0.125
S'key'
p1095
tp1096
a(I465
I0
F0.125
S'key'
p1097
tp1098
a(I465
I0
F0.625
S'easier'
p1099
tp1100
as(g251
S'touch'
p1101
S'screen'
p1102
tp1103
(lp1104
(I3
I1
F-0.25
S'ready'
p1105
tp1106
a(I3
I1
F0.5
S'touch'
p1107
tp1108
a(I109
I1
F0.5
S'touch'
p1109
tp1110
a(I194
I0
F0.5
S'touch'
p1111
tp1112
a(I213
I0
F0.5
S'touch'
p1113
tp1114
a(I228
I0
F-0.625
S'other'
p1115
tp1116
a(I254
I1
F0.5
S'touch'
p1117
tp1118
a(I261
I3
F0.5
S'touch'
p1119
tp1120
a(I272
I1
F0.5
S'touch'
p1121
tp1122
a(I311
I7
F0.5
S'touch'
p1123
tp1124
a(I321
I1
F0.5
S'touch'
p1125
tp1126
a(I350
I1
F0.5
S'touch'
p1127
tp1128
a(I418
I0
F0.375
S'new'
p1129
tp1130
a(I435
I1
F0.5
S'touch'
p1131
tp1132
as(S'fine'
p1133
tp1134
(lp1135
(I41
I2
F-0.375
S'small'
p1136
tp1137
a(I367
I0
F0.125
S'first'
p1138
tp1139
a(I510
I0
F0.375
S'new'
p1140
tp1141
as(S'life'
p1142
tp1143
(lp1144
(I82
I1
F-0.875
g996
tp1145
a(I146
I6
F1.0
g998
tp1146
a(I206
I1
F1.0
g1002
tp1147
a(I277
I1
I0
g381
tp1148
a(I277
I1
F-0.25
g383
tp1149
a(I296
I1
I0
g385
tp1150
a(I413
I0
F1.0
g393
tp1151
a(I432
I1
F1.0
g1011
tp1152
a(I432
I1
F-0.375
g1013
tp1153
a(I432
I1
F0.625
g1015
tp1154
a(I585
I3
I0
g397
tp1155
as(S'env3'
p1156
tp1157
(lp1158
(I6
I4
F-0.875
S'regret'
p1159
tp1160
a(I47
I28
F-0.125
S'overall'
p1161
tp1162
a(I50
I2
F0.375
S'new'
p1163
tp1164
a(I135
I1
I0
S'ran'
p1165
tp1166
a(I174
I0
F-0.875
S'hard'
p1167
tp1168
a(I192
I0
I0
S'old'
p1169
tp1170
a(I192
I0
I0
S'old'
p1171
tp1172
a(I192
I6
F0.375
S'new'
p1173
tp1174
a(I357
I2
F0.5
S'told'
p1175
tp1176
a(I369
I0
F0.125
S'first'
p1177
tp1178
a(I539
I1
I0
S'few'
p1179
tp1180
a(I571
I2
I0
S'least'
p1181
tp1182
as(g251
S'data'
p1183
S'package'
p1184
tp1185
(lp1186
(I0
I1
F0.25
g678
tp1187
a(I139
I3
F-0.375
g680
tp1188
a(I139
I8
F-0.5
g682
tp1189
a(I257
I0
F1.0
g684
tp1190
a(I559
I0
F0.25
g259
tp1191
as(S'seller'
p1192
tp1193
(lp1194
(I45
I5
I0
S'great'
p1195
tp1196
a(I80
I5
F0.375
S'new'
p1197
tp1198
a(I180
I0
F0.5
S'careful'
p1199
tp1200
a(I238
I1
F0.125
S'first'
p1201
tp1202
a(I258
I4
F0.375
S'working'
p1203
tp1204
a(I326
I3
I0
S'wish'
p1205
tp1206
a(I326
I3
F-0.125
S'front'
p1207
tp1208
a(I477
I1
F0.625
S'easy'
p1209
tp1210
as(S'plan'
p1211
tp1212
(lp1213
(I12
I1
F0.125
S'able'
p1214
tp1215
a(I69
I4
F0.25
g904
tp1216
a(I288
I3
F0.125
g907
tp1217
a(I371
I0
F0.125
S'renewal'
p1218
tp1219
a(I420
I1
I0
g909
tp1220
a(I571
I3
F0.625
S'perfect'
p1221
tp1222
as(S'great'
p1223
tp1224
(lp1225
(I55
I0
F0.125
S'solid'
p1226
tp1227
a(I70
I4
F-0.625
g865
tp1228
as(S'simple'
p1229
tp1230
(lp1231
(I93
I4
F0.625
S'easy'
p1232
tp1233
as(S'keyboard'
p1234
S'for'
p1235
S'texting'
p1236
tp1237
(lp1238
(I187
I1
F0.625
g72
tp1239
a(I232
I4
F0.25
g84
tp1240
a(I391
I3
F-0.5
g108
tp1241
a(I419
I1
F0.625
S'convenient'
p1242
tp1243
a(I450
I1
F1.0
g116
tp1244
as(S'smart'
p1245
tp1246
(lp1247
(I21
I1
F-0.375
g1025
tp1248
a(I21
I1
F1.0
g1027
tp1249
a(I144
I1
I0
S'next'
p1250
tp1251
a(I144
I1
F1.0
S'best'
p1252
tp1253
a(I312
I1
F0.375
g1029
tp1254
as(S'cell'
p1255
tp1256
(lp1257
(I35
I2
F-0.5
S'regular'
p1258
tp1259
a(I42
I0
I0
S'same'
p1260
tp1261
a(I47
I3
F0.125
S'last'
p1262
tp1263
a(I50
I3
I0
S'basic'
p1264
tp1265
a(I55
I0
F-0.75
S'wrong'
p1266
tp1267
a(I101
I0
F0.5
S'told'
p1268
tp1269
a(I162
I0
F0.875
S'nice'
p1270
tp1271
a(I162
I0
F-0.125
S'mine'
p1272
tp1273
a(I162
I0
I0
S'old'
p1274
tp1275
a(I194
I6
F1.0
S'good'
p1276
tp1277
a(I205
I5
I0
S'basic'
p1278
tp1279
a(I282
I8
I0
S'own'
p1280
tp1281
a(I308
I2
F-0.625
S'other'
p1282
tp1283
a(I329
I0
I0
S'great'
p1284
tp1285
a(I329
I0
F-0.75
S'little'
p1286
tp1287
a(I386
I0
F-0.75
S'sick'
p1288
tp1289
a(I460
I2
F-0.25
S'lower'
p1290
tp1291
a(I533
I5
I0
S'most'
p1292
tp1293
a(I546
I1
F-0.375
S'simple'
p1294
tp1295
a(I564
I0
I0
S'great'
p1296
tp1297
a(I600
I0
F0.375
S'new'
p1298
tp1299
a(I608
I0
F0.875
S'nice'
p1300
tp1301
as(S'calls'
p1302
tp1303
(lp1304
(I29
I4
F-0.5
S'sure'
p1305
tp1306
a(I59
I4
F0.5
S'clear'
p1307
tp1308
a(I75
I27
F-0.75
S'short'
p1309
tp1310
a(I158
I1
F0.875
S'important'
p1311
tp1312
a(I192
I2
I0
S'own'
p1313
tp1314
a(I307
I1
F0.125
S'able'
p1315
tp1316
as(S'front'
p1317
tp1318
(lp1319
(I6
I2
I0
S'plastic'
p1320
tp1321
as(S'speaker'
p1322
tp1323
(lp1324
(I96
I10
F-0.625
S'push'
p1325
tp1326
a(I106
I2
F0.5
S'clear'
p1327
tp1328
a(I428
I0
I0
S'external'
p1329
tp1330
a(I431
I1
F1.0
S'good'
p1331
tp1332
as(S'microsd'
p1333
S'card'
p1334
tp1335
(lp1336
(I193
I17
F0.125
S'able'
p1337
tp1338
a(I545
I5
I0
g265
tp1339
as(S'time'
p1340
tp1341
(lp1342
(I42
I1
F0.375
g697
tp1343
a(I42
I1
F-0.5
g699
tp1344
a(I75
I0
F0.5
S'whole'
p1345
tp1346
a(I106
I3
F-0.625
S'free'
p1347
tp1348
a(I111
I0
F0.375
S'mean'
p1349
tp1350
a(I123
I0
I0
g701
tp1351
a(I128
I6
I0
S'more'
p1352
tp1353
a(I136
I6
F0.75
S'worth'
p1354
tp1355
a(I136
I6
I0
S'most'
p1356
tp1357
a(I136
I6
F-0.75
S'likely'
p1358
tp1359
a(I187
I1
F-0.5
g703
tp1360
a(I200
I5
F-0.5
g705
tp1361
a(I223
I2
F0.125
S'first'
p1362
tp1363
a(I345
I2
I0
S'great'
p1364
tp1365
a(I369
I14
I0
S'same'
p1366
tp1367
a(I369
I18
I0
S'only'
p1368
tp1369
a(I380
I6
F-0.5
g707
tp1370
a(I412
I1
F-0.5
g709
tp1371
a(I442
I1
F-0.5
g711
tp1372
a(I460
I1
F0.5
S'strong'
p1373
tp1374
a(I549
I1
F-0.5
g713
tp1375
a(I551
I3
I0
S'same'
p1376
tp1377
a(I551
I3
F-0.125
S'mine'
p1378
tp1379
a(I562
I5
I0
S'next'
p1380
tp1381
a(I568
I6
I0
S'third'
p1382
tp1383
a(I578
I1
F0.125
S'charger'
p1384
tp1385
a(I595
I1
F1.0
S'good'
p1386
tp1387
as(S'lg'
p1388
S'env3'
p1389
tp1390
(lp1391
(I50
I2
F0.375
g1163
tp1392
a(I185
I1
F-0.625
S'other'
p1393
tp1394
a(I192
I6
F0.375
g1173
tp1395
a(I222
I1
F0.5
S'second'
p1396
tp1397
a(I338
I0
F0.125
S'first'
p1398
tp1399
a(I446
I0
I0
S'old'
p1400
tp1401
a(I457
I0
F0.375
S'new'
p1402
tp1403
as(S'months'
p1404
tp1405
(lp1406
(I63
I10
I0
S'few'
p1407
tp1408
a(I97
I0
I0
S'few'
p1409
tp1410
a(I120
I0
I0
S'few'
p1411
tp1412
a(I173
I2
I0
S'few'
p1413
tp1414
a(I211
I1
I0
S'least'
p1415
tp1416
a(I214
I10
I0
S'few'
p1417
tp1418
a(I214
I10
I0
S'later'
p1419
tp1420
a(I255
I1
I0
S'few'
p1421
tp1422
a(I263
I6
I0
S'few'
p1423
tp1424
a(I263
I8
F-0.25
S'past'
p1425
tp1426
a(I292
I0
I0
S'few'
p1427
tp1428
a(I393
I0
I0
S'few'
p1429
tp1430
a(I479
I2
I0
S'old'
p1431
tp1432
a(I480
I1
I0
S'later'
p1433
tp1434
a(I480
I4
I0
S'later'
p1435
tp1436
a(I515
I0
F-0.5
S'less'
p1437
tp1438
a(I568
I4
F-0.75
S'stupid'
p1439
tp1440
as(S'flip'
p1441
tp1442
(lp1443
(I50
I4
F0.625
S'easy'
p1444
tp1445
a(I99
I1
I0
S'old'
p1446
tp1447
a(I106
I2
F-0.5
S'open'
p1448
tp1449
a(I145
I2
I0
S'old'
p1450
tp1451
a(I193
I1
I0
S'anymore'
p1452
tp1453
a(I197
I3
F-0.5
S'open'
p1454
tp1455
a(I329
I1
F0.625
S'easy'
p1456
tp1457
a(I419
I1
F-0.5
S'open'
p1458
tp1459
a(I494
I2
F-0.5
S'open'
p1460
tp1461
a(I573
I2
F-0.5
S'open'
p1462
tp1463
a(I593
I5
I0
S'full'
p1464
tp1465
as(S'touch'
p1466
S'screen'
p1467
tp1468
(lp1469
(I3
I1
F-0.25
g1105
tp1470
a(I3
I1
F0.5
g1107
tp1471
a(I109
I1
F0.5
g1109
tp1472
a(I194
I0
F0.5
g1111
tp1473
a(I213
I0
F0.5
g1113
tp1474
a(I228
I0
F-0.625
g1115
tp1475
a(I254
I1
F0.5
g1117
tp1476
a(I261
I3
F0.5
g1119
tp1477
a(I272
I1
F0.5
g1121
tp1478
a(I311
I7
F0.5
g1123
tp1479
a(I321
I1
F0.5
g1125
tp1480
a(I350
I1
F0.5
g1127
tp1481
a(I418
I0
F0.375
g1129
tp1482
a(I435
I1
F0.5
g1131
tp1483
as(S'text'
p1484
tp1485
(lp1486
(I34
I2
F0.75
g890
tp1487
a(I72
I2
F0.125
g892
tp1488
a(I72
I2
I0
g894
tp1489
a(I75
I24
F-0.5
S'long'
p1490
tp1491
a(I89
I0
F-0.375
g343
tp1492
a(I187
I1
F0.375
g896
tp1493
a(I403
I3
F-0.5
S'long'
p1494
tp1495
a(I403
I7
F-0.125
S'slow'
p1496
tp1497
a(I577
I4
F-0.5
S'call'
p1498
tp1499
as(S'year'
p1500
tp1501
(lp1502
(I19
I1
I0
S'old'
p1503
tp1504
a(I60
I3
I0
S'least'
p1505
tp1506
a(I60
I3
F0.5
S'eligible'
p1507
tp1508
a(I133
I5
I0
S'old'
p1509
tp1510
a(I214
I19
I0
S'old'
p1511
tp1512
a(I228
I2
F0.375
S'new'
p1513
tp1514
a(I280
I0
I0
S'old'
p1515
tp1516
a(I359
I0
I0
S'old'
p1517
tp1518
a(I415
I1
F-0.5
S'less'
p1519
tp1520
a(I415
I1
F0.5
S'expensive'
p1521
tp1522
a(I465
I4
F0.375
S'extra'
p1523
tp1524
a(I483
I0
F-0.5
S'long'
p1525
tp1526
a(I499
I2
I0
S'next'
p1527
tp1528
as(S'little'
p1529
tp1530
(lp1531
(I169
I0
F1.0
S'good'
p1532
tp1533
a(I354
I2
F1.0
S'good'
p1534
tp1535
a(I366
I2
I0
S'general'
p1536
tp1537
as(S'screen'
p1538
tp1539
(lp1540
(I3
I1
F-0.25
g1105
tp1541
a(I3
I1
F0.5
g1107
tp1542
a(I47
I22
I0
S'full'
p1543
tp1544
a(I107
I0
F-0.375
S'small'
p1545
tp1546
a(I109
I1
F0.5
g1109
tp1547
a(I164
I0
F-0.375
S'manual'
p1548
tp1549
a(I173
I0
F-0.375
S'top'
p1550
tp1551
a(I190
I0
F0.375
S'complete'
p1552
tp1553
a(I190
I0
F-0.25
S'white'
p1554
tp1555
a(I192
I0
F-0.75
S'outer'
p1556
tp1557
a(I194
I0
F0.5
g1111
tp1558
a(I213
I0
F0.5
g1113
tp1559
a(I228
I0
F-0.625
g1115
tp1560
a(I247
I1
F-0.125
S'front'
p1561
tp1562
a(I248
I2
F0.375
S'interior'
p1563
tp1564
a(I254
I1
F0.5
g1117
tp1565
a(I261
I3
F0.5
g1119
tp1566
a(I263
I1
I0
S'external'
p1567
tp1568
a(I263
I2
I0
S'external'
p1569
tp1570
a(I263
I2
F-0.25
S'white'
p1571
tp1572
a(I263
I3
I0
S'internal'
p1573
tp1574
a(I270
I1
F-0.25
S'white'
p1575
tp1576
a(I272
I1
F0.5
g1121
tp1577
a(I274
I2
I0
S'external'
p1578
tp1579
a(I274
I2
F-0.375
S'small'
p1580
tp1581
a(I311
I7
F0.5
g1123
tp1582
a(I321
I1
F0.5
g1125
tp1583
a(I350
I1
F0.5
g1127
tp1584
a(I350
I14
F0.375
S'new'
p1585
tp1586
a(I356
I1
F-0.375
S'black'
p1587
tp1588
a(I369
I4
I0
S'great'
p1589
tp1590
a(I369
I18
I0
S'more'
p1591
tp1592
a(I420
I2
F0.25
S'larger'
p1593
tp1594
a(I433
I3
I0
S'full'
p1595
tp1596
a(I435
I1
F0.5
g1131
tp1597
a(I438
I1
I0
S'entire'
p1598
tp1599
a(I490
I1
F0.375
S'new'
p1600
tp1601
a(I510
I16
F-0.375
S'small'
p1602
tp1603
a(I510
I17
F0.75
S'consider'
p1604
tp1605
a(I535
I3
F-0.375
S'small'
p1606
tp1607
a(I556
I0
F0.125
S'first'
p1608
tp1609
a(I575
I1
F-0.25
S'white'
p1610
tp1611
a(I593
I5
F0.875
S'nice'
p1612
tp1613
a(I606
I2
F0.25
S'bigger'
p1614
tp1615
a(I607
I2
F1.0
S'good'
p1616
tp1617
a(I607
I2
I0
S'internal'
p1618
tp1619
as(S'everything'
p1620
tp1621
(lp1622
(I10
I7
F0.625
S'easy'
p1623
tp1624
a(I10
I7
F0.75
S'give'
p1625
tp1626
a(I98
I0
F0.625
S'perfect'
p1627
tp1628
a(I281
I1
I0
S'more'
p1629
tp1630
a(I536
I12
F-0.5
S'sure'
p1631
tp1632
a(I554
I0
F0.875
S'happy'
p1633
tp1634
a(I566
I2
F-0.625
S'other'
p1635
tp1636
as(S'camera'
p1637
tp1638
(lp1639
(I16
I1
F-0.375
S'simple'
p1640
tp1641
a(I16
I1
F0.625
S'decent'
p1642
tp1643
a(I30
I1
F1.0
S'better'
p1644
tp1645
a(I75
I16
F1.0
S'good'
p1646
tp1647
a(I100
I2
I0
S'great'
p1648
tp1649
a(I113
I0
F-0.375
S'double'
p1650
tp1651
a(I129
I0
F0.75
S'worth'
p1652
tp1653
a(I183
I0
F1.0
S'best'
p1654
tp1655
a(I194
I1
F0.625
S'easy'
p1656
tp1657
a(I249
I2
F1.0
S'good'
p1658
tp1659
a(I261
I2
I0
S'close'
p1660
tp1661
a(I286
I1
F0.625
S'decent'
p1662
tp1663
a(I311
I3
I0
S'great'
p1664
tp1665
a(I445
I3
F0.875
S'attractive'
p1666
tp1667
a(I517
I1
F0.375
S'reliable'
p1668
tp1669
a(I517
I1
I0
S'great'
p1670
tp1671
a(I553
I2
F1.0
S'good'
p1672
tp1673
a(I593
I6
I0
S'adequate'
p1674
tp1675
as(S'take'
p1676
tp1677
(lp1678
(I283
I5
F0.75
S'worth'
p1679
tp1680
as(S'pictures'
p1681
tp1682
(lp1683
(I10
I6
F0.625
S'easy'
p1684
tp1685
a(I47
I8
F0.125
S'able'
p1686
tp1687
a(I59
I4
F1.0
S'good'
p1688
tp1689
a(I83
I2
I0
S'great'
p1690
tp1691
a(I87
I3
F0.625
S'decent'
p1692
tp1693
a(I87
I3
F-0.625
S'glad'
p1694
tp1695
a(I160
I1
F0.625
S'easy'
p1696
tp1697
a(I193
I18
F0.875
S'music'
p1698
tp1699
a(I214
I3
F0.625
S'easy'
p1700
tp1701
a(I214
I3
I0
S'great'
p1702
tp1703
a(I318
I1
F-0.625
S'want'
p1704
tp1705
a(I318
I1
I0
S'great'
p1706
tp1707
a(I433
I3
I0
S'great'
p1708
tp1709
a(I492
I1
I0
S'great'
p1710
tp1711
a(I492
I1
F-0.375
S'simple'
p1712
tp1713
a(I544
I1
F0.625
S'easy'
p1714
tp1715
a(I545
I4
F0.875
S'nice'
p1716
tp1717
a(I545
I7
F-0.125
S'mine'
p1718
tp1719
a(I551
I3
F0.75
S'receive'
p1720
tp1721
a(I564
I2
I0
S'great'
p1722
tp1723
a(I599
I1
F-0.25
S'disappointing'
p1724
tp1725
as(S'lg'
p1726
S'env3'
p1727
S'vx9200'
p1728
tp1729
(lp1730
(I193
I11
I0
S'great'
p1731
tp1732
a(I311
I7
F0.125
S'solid'
p1733
tp1734
as(S'battery'
p1735
tp1736
(lp1737
(I42
I0
F0.375
S'new'
p1738
tp1739
a(I42
I1
F-0.375
S'daily'
p1740
tp1741
a(I47
I2
F1.0
g993
tp1742
a(I47
I3
I0
g375
tp1743
a(I66
I4
F0.375
S'new'
p1744
tp1745
a(I75
I31
F0.375
S'new'
p1746
tp1747
a(I128
I2
F0.375
S'new'
p1748
tp1749
a(I136
I5
I0
S'old'
p1750
tp1751
a(I139
I14
F-0.75
S'dead'
p1752
tp1753
a(I146
I8
F0.25
S'original'
p1754
tp1755
a(I152
I1
F0.375
S'new'
p1756
tp1757
a(I167
I4
I0
g377
tp1758
a(I179
I3
I0
g379
tp1759
a(I185
I1
F0.125
S'last'
p1760
tp1761
a(I239
I4
F0.375
S'new'
p1762
tp1763
a(I259
I0
F0.375
S'new'
p1764
tp1765
a(I259
I0
F1.0
S'better'
p1766
tp1767
a(I259
I10
F-0.75
S'worse'
p1768
tp1769
a(I259
I10
F0.125
S'first'
p1770
tp1771
a(I290
I3
F0.5
S'strong'
p1772
tp1773
a(I316
I5
F0.375
S'new'
p1774
tp1775
a(I316
I5
F-0.75
S'short'
p1776
tp1777
a(I335
I3
F0.375
S'new'
p1778
tp1779
a(I349
I2
I0
g387
tp1780
a(I363
I0
F0.375
g389
tp1781
a(I369
I14
F0.375
S'extra'
p1782
tp1783
a(I375
I2
F-0.625
S'improper'
p1784
tp1785
a(I403
I2
I0
S'terminal'
p1786
tp1787
a(I413
I0
I0
g391
tp1788
a(I417
I0
F-0.375
S'smaller'
p1789
tp1790
a(I472
I1
F-0.75
S'wrong'
p1791
tp1792
a(I472
I2
F0.375
S'new'
p1793
tp1794
a(I490
I1
I0
S'great'
p1795
tp1796
a(I494
I1
F1.0
g1017
tp1797
a(I521
I1
I0
g395
tp1798
a(I561
I0
F0.25
S'bigger'
p1799
tp1800
a(I561
I0
F0.25
S'original'
p1801
tp1802
as(S'works'
p1803
tp1804
(lp1805
(I23
I0
I0
S'quick'
p1806
tp1807
a(I23
I0
I0
S'great'
p1808
tp1809
a(I35
I0
I0
S'great'
p1810
tp1811
a(I47
I20
I0
S'great'
p1812
tp1813
a(I211
I4
F1.0
S'good'
p1814
tp1815
a(I319
I1
I0
S'great'
p1816
tp1817
a(I328
I0
I0
S'great'
p1818
tp1819
a(I330
I1
I0
S'great'
p1820
tp1821
a(I364
I1
I0
S'great'
p1822
tp1823
a(I371
I2
I0
S'great'
p1824
tp1825
a(I433
I1
I0
S'great'
p1826
tp1827
a(I447
I1
I0
S'great'
p1828
tp1829
a(I447
I1
I0
S'great'
p1830
tp1831
a(I484
I1
I0
S'great'
p1832
tp1833
a(I488
I0
F0.625
S'easy'
p1834
tp1835
a(I506
I2
I0
S'great'
p1836
tp1837
a(I522
I1
I0
S'great'
p1838
tp1839
a(I552
I0
I0
S'great'
p1840
tp1841
a(I591
I0
I0
S'great'
p1842
tp1843
a(I608
I2
F0.375
S'new'
p1844
tp1845
as(S'texting'
p1846
tp1847
(lp1848
(I22
I3
F-0.625
S'moderate'
p1849
tp1850
a(I52
I1
I0
g404
tp1851
a(I77
I1
F1.0
g406
tp1852
a(I112
I0
F1.0
S'good'
p1853
tp1854
a(I139
I2
I0
S'full'
p1855
tp1856
a(I166
I1
I0
S'keypad'
p1857
tp1858
a(I169
I3
I0
g494
tp1859
a(I222
I2
F0.625
S'easy'
p1860
tp1861
a(I228
I1
F1.0
g408
tp1862
a(I246
I0
F-0.375
S'simple'
p1863
tp1864
a(I251
I2
I0
g496
tp1865
a(I282
I0
F1.0
g410
tp1866
a(I316
I1
I0
S'great'
p1867
tp1868
a(I324
I1
I0
S'basic'
p1869
tp1870
a(I327
I5
I0
g498
tp1871
a(I334
I0
F1.0
S'good'
p1872
tp1873
a(I342
I1
I0
g500
tp1874
a(I375
I8
F1.0
S'good'
p1875
tp1876
a(I419
I1
F0.625
g1242
tp1877
a(I467
I1
F0.625
S'perfect'
p1878
tp1879
a(I503
I3
I0
S'great'
p1880
tp1881
a(I533
I0
I0
S'great'
p1882
tp1883
a(I535
I2
I0
g502
tp1884
a(I553
I2
F0.625
g412
tp1885
a(I569
I0
I0
S'great'
p1886
tp1887
a(I574
I2
F1.0
g414
tp1888
as(S'better'
p1889
tp1890
(lp1891
(I168
I5
F-0.625
S'other'
p1892
tp1893
a(I567
I1
F0.375
S'much'
p1894
tp1895
as(S'never'
p1896
tp1897
(lp1898
(I412
I0
F0.375
S'new'
p1899
tp1900
as(S'bells'
p1901
S'and'
p1902
S'whistles'
p1903
tp1904
(lp1905
(I193
I23
I0
S'great'
p1906
tp1907
a(I347
I1
F-0.5
S'longer'
p1908
tp1909
a(I473
I0
F-0.625
S'other'
p1910
tp1911
as(S'call'
p1912
tp1913
(lp1914
(I22
I1
F1.0
S'good'
p1915
tp1916
a(I22
I3
F1.0
S'good'
p1917
tp1918
a(I383
I11
F-0.375
S'simple'
p1919
tp1920
a(I538
I2
F0.375
S'new'
p1921
tp1922
a(I573
I4
I0
S'signal'
p1923
tp1924
a(I574
I2
F0.875
S'nice'
p1925
tp1926
as(S'body'
p1927
S'glove'
p1928
tp1929
(lp1930
(I350
I14
F0.375
S'new'
p1931
tp1932
as(g251
S'new'
p1933
S'battery'
p1934
tp1935
(lp1936
(I42
I0
F0.375
g1738
tp1937
a(I42
I1
F-0.375
g1740
tp1938
a(I66
I4
F0.375
g1744
tp1939
a(I75
I31
F0.375
g1746
tp1940
a(I128
I2
F0.375
g1748
tp1941
a(I152
I1
F0.375
g1756
tp1942
a(I239
I4
F0.375
g1762
tp1943
a(I259
I0
F0.375
g1764
tp1944
a(I259
I0
F1.0
g1766
tp1945
a(I316
I5
F0.375
g1774
tp1946
a(I316
I5
F-0.75
g1776
tp1947
a(I335
I3
F0.375
g1778
tp1948
a(I363
I0
F0.375
g389
tp1949
a(I472
I2
F0.375
g1793
tp1950
a(I490
I1
I0
g1795
tp1951
as(S'data'
p1952
S'plan'
p1953
tp1954
(lp1955
(I60
I5
F0.25
g839
tp1956
a(I69
I4
I0
g841
tp1957
a(I69
I4
F0.25
g904
tp1958
a(I211
I6
F-0.125
g844
tp1959
a(I288
I3
F0.125
g907
tp1960
a(I420
I1
I0
g909
tp1961
a(I420
I1
F0.125
g255
tp1962
a(I470
I0
F0.5
g257
tp1963
a(I590
I0
F0.375
g856
tp1964
as(g251
S'great'
p1965
S'price'
p1966
tp1967
(lp1968
(I46
I0
I0
g515
tp1969
a(I63
I4
I0
g519
tp1970
a(I86
I2
F1.0
g525
tp1971
a(I116
I0
F-0.125
g527
tp1972
a(I116
I0
I0
g529
tp1973
a(I222
I4
I0
g531
tp1974
a(I314
I3
I0
g539
tp1975
a(I358
I2
I0
g545
tp1976
a(I415
I2
I0
g547
tp1977
a(I506
I2
F1.0
g551
tp1978
as(S'days'
p1979
tp1980
(lp1981
(I75
I27
F0.375
S'new'
p1982
tp1983
a(I75
I27
I0
S'full'
p1984
tp1985
a(I125
I6
F-0.75
S'sad'
p1986
tp1987
a(I146
I8
I0
S'few'
p1988
tp1989
a(I204
I1
I0
S'few'
p1990
tp1991
a(I216
I0
F-0.25
S'late'
p1992
tp1993
a(I223
I3
I0
S'later'
p1994
tp1995
a(I232
I3
I0
S'few'
p1996
tp1997
a(I232
I3
F0.375
S'extra'
p1998
tp1999
a(I243
I2
F0.125
S'first'
p2000
tp2001
a(I252
I2
F0.125
S'first'
p2002
tp2003
a(I252
I2
I0
S'few'
p2004
tp2005
a(I338
I1
F0.375
S'new'
p2006
tp2007
a(I338
I1
I0
S'great'
p2008
tp2009
a(I446
I4
I0
S'few'
p2010
tp2011
a(I551
I1
F-0.75
S'little'
p2012
tp2013
a(I570
I3
F-0.875
S'negative'
p2014
tp2015
a(I570
I3
F-0.25
S'late'
p2016
tp2017
as(g860
S'good'
p2018
S'condition'
p2019
tp2020
(lp2021
(I76
I0
F1.0
g919
tp2022
a(I248
I0
F1.0
g932
tp2023
a(I264
I0
F1.0
g935
tp2024
a(I289
I1
F1.0
g937
tp2025
a(I308
I1
F1.0
g940
tp2026
a(I350
I21
F1.0
g944
tp2027
a(I381
I0
F1.0
g952
tp2028
a(I497
I0
F1.0
g961
tp2029
a(I510
I0
F1.0
g963
tp2030
a(I552
I0
F1.0
g883
tp2031
as.