(dp0
(S'battery'
p1
S'life'
p2
tp3
(lp4
(I0
I72
F0.125
S'last'
p5
I1
tp6
a(I0
I168
F1.0
S'good'
p7
I1
tp8
a(I0
I202
I0
S'cool'
p9
I1
tp10
a(I0
I202
F1.0
S'good'
p11
I1
tp12
a(I0
I325
F-0.75
S'short'
p13
I1
tp14
a(I1
I217
F1.0
S'better'
p15
I1
tp16
a(I1
I244
F1.0
S'good'
p17
I1
tp18
a(I1
I339
F1.0
S'good'
p19
I1
tp20
a(I1
I485
F-0.5
S'poor'
p21
I1
tp22
a(I1
I529
F-0.75
S'short'
p23
I1
tp24
a(I2
I80
I0
S'most'
p25
I1
tp26
a(I2
I220
I0
S'standard'
p27
I1
tp28
a(I2
I299
F1.0
S'good'
p29
I1
tp30
a(I2
I363
F-0.625
S'other'
p31
I1
tp32
a(I3
I19
F0.125
S'last'
p33
I1
tp34
a(I3
I19
F1.0
S'good'
p35
I1
tp36
a(I0
I72
F0.125
g5
I19
tp37
a(I0
I202
F1.0
g11
I19
tp38
a(I0
I316
F0.625
S'easier'
p39
I19
tp40
a(I0
I325
F-0.75
g13
I19
tp41
a(I1
I244
F1.0
g17
I19
tp42
a(I1
I339
F1.0
g19
I19
tp43
a(I1
I485
F-0.5
g21
I19
tp44
a(I1
I529
F-0.75
g23
I19
tp45
a(I2
I80
I0
g25
I19
tp46
a(I2
I299
F1.0
g29
I19
tp47
a(I3
I19
F1.0
g35
I19
tp48
a(I0
I129
F0.25
S'original'
p49
I15
tp50
a(I0
I168
F1.0
g7
I15
tp51
a(I0
I202
I0
g9
I15
tp52
a(I1
I6
I0
S'full'
p53
I15
tp54
a(I1
I217
F1.0
g15
I15
tp55
a(I1
I248
F0.375
S'extended'
p56
I15
tp57
a(I1
I254
F0.375
S'extended'
p58
I15
tp59
a(I1
I255
F0.25
S'larger'
p60
I15
tp61
a(I2
I161
F0.625
S'easy'
p62
I15
tp63
a(I2
I220
I0
g27
I15
tp64
a(I2
I248
I0
S'anymore'
p65
I15
tp66
a(I2
I324
F-0.375
S'red'
p67
I15
tp68
a(I2
I363
F-0.625
g31
I15
tp69
a(I3
I19
F0.125
g33
I15
tp70
as(S'keys'
p71
tp72
(lp73
(I0
I110
F-0.625
S'other'
p74
I9
tp75
a(I1
I145
I0
S'stiff'
p76
I9
tp77
a(I1
I146
I0
S'quick'
p78
I9
tp79
a(I2
I148
F0.125
S'solid'
p80
I9
tp81
a(I2
I148
F0.25
S'responsive'
p82
I9
tp83
as(S'track'
p84
S'pad'
p85
tp86
(lp87
(I2
I46
I0
S'optical'
p88
I0
tp89
as(S'faster'
p90
tp91
(lp92
(I1
I520
F0.375
S'new'
p93
I7
tp94
as(S'slide'
p95
tp96
(lp97
(I2
I57
I0
S'wish'
p98
I6
tp99
a(I2
I57
F-0.5
S'regular'
p100
I6
tp101
as(S'big'
p102
S'deal'
p103
tp104
(lp105
(I0
I121
I0
S'big'
p106
I11
tp107
a(I1
I42
I0
S'big'
p108
I11
tp109
a(I1
I56
I0
S'big'
p110
I11
tp111
a(I1
I401
I0
S'big'
p112
I11
tp113
a(I2
I276
I0
S'big'
p114
I11
tp115
a(I2
I276
F0.75
S'due'
p116
I11
tp117
a(I2
I331
I0
S'big'
p118
I11
tp119
as(S'qwerty'
p120
S'keyboard'
p121
tp122
(lp123
(I0
I94
F-0.25
S'thin'
p124
I0
tp125
a(I0
I94
I0
S'full'
p126
I0
tp127
a(I0
I100
F1.0
S'good'
p128
I0
tp129
a(I0
I107
I0
S'full'
p130
I0
tp131
a(I1
I138
I0
S'full'
p132
I0
tp133
a(I1
I432
F0.125
S'first'
p134
I0
tp135
a(I2
I150
I0
S'standard'
p136
I0
tp137
a(I2
I239
I0
S'physical'
p138
I0
tp139
a(I0
I94
F-0.25
g124
I0
tp140
a(I0
I94
I0
g126
I0
tp141
a(I0
I100
F1.0
g128
I0
tp142
a(I0
I107
I0
g130
I0
tp143
a(I1
I138
I0
g132
I0
tp144
a(I1
I432
F0.125
g134
I0
tp145
a(I2
I150
I0
g136
I0
tp146
a(I2
I239
I0
g138
I0
tp147
as(S'iphone'
p148
tp149
(lp150
(I0
I104
F1.0
S'good'
p151
I1
tp152
a(I1
I12
F0.375
S'friendly'
p153
I1
tp154
a(I1
I132
I0
S'next'
p155
I1
tp156
a(I1
I338
F1.0
S'better'
p157
I1
tp158
a(I2
I124
I0
S'thicker'
p159
I1
tp160
a(I2
I199
F-0.125
S'former'
p161
I1
tp162
a(I2
I204
F0.5
S'controlled'
p163
I1
tp164
a(I2
I209
F0.25
S'recent'
p165
I1
tp166
a(I2
I209
F0.125
S'first'
p167
I1
tp168
a(I2
I284
I0
S'latest'
p169
I1
tp170
as(S'swype'
p171
tp172
(lp173
(I0
I112
F0.5
S'accurate'
p174
I0
tp175
as(S'apps'
p176
tp177
(lp178
(I0
I146
F-0.625
S'other'
p179
I0
tp180
a(I0
I299
F0.375
S'new'
p181
I0
tp182
a(I0
I300
F0.875
S'nice'
p183
I0
tp184
a(I0
I300
I0
S'more'
p185
I0
tp186
a(I1
I39
I0
S'latest'
p187
I0
tp188
a(I1
I220
I0
S'most'
p189
I0
tp190
a(I1
I370
I0
S'cool'
p191
I0
tp192
a(I1
I460
F-0.5
S'sure'
p193
I0
tp194
a(I1
I471
I0
S'such'
p195
I0
tp196
a(I2
I106
I0
S'great'
p197
I0
tp198
a(I2
I106
I0
S'most'
p199
I0
tp200
a(I2
I106
F-0.625
S'free'
p201
I0
tp202
a(I2
I167
I0
S'unnecessary'
p203
I0
tp204
a(I2
I168
F0.75
S'due'
p205
I0
tp206
a(I2
I202
I0
S'stable'
p207
I0
tp208
a(I2
I276
F0.75
S'beautiful'
p209
I0
tp210
a(I2
I322
I0
S'closing'
p211
I0
tp212
as(S'a'
p213
S'physical'
p214
S'keyboard'
p215
tp216
(lp217
(I0
I6
I0
S'physical'
p218
I0
tp219
a(I0
I12
I0
S'physical'
p220
I0
tp221
a(I0
I168
I0
S'physical'
p222
I0
tp223
a(I0
I208
I0
S'physical'
p224
I0
tp225
a(I0
I298
I0
S'physical'
p226
I0
tp227
a(I0
I316
I0
S'physical'
p228
I0
tp229
a(I1
I111
I0
S'physical'
p230
I0
tp231
a(I2
I63
I0
S'physical'
p232
I0
tp233
a(I2
I74
I0
S'physical'
p234
I0
tp235
a(I2
I78
I0
S'physical'
p236
I0
tp237
a(I2
I78
F1.0
S'better'
p238
I0
tp239
a(I2
I145
I0
S'physical'
p240
I0
tp241
a(I3
I20
I0
S'physical'
p242
I0
tp243
a(I3
I20
I0
S'great'
p244
I0
tp245
a(I0
I6
I0
g218
I0
tp246
a(I0
I12
I0
g220
I0
tp247
a(I0
I168
I0
g222
I0
tp248
a(I0
I208
I0
g224
I0
tp249
a(I0
I298
I0
g226
I0
tp250
a(I0
I316
I0
g228
I0
tp251
a(I1
I111
I0
g230
I0
tp252
a(I2
I63
I0
g232
I0
tp253
a(I2
I74
I0
g234
I0
tp254
a(I2
I78
I0
g236
I0
tp255
a(I2
I78
F1.0
g238
I0
tp256
a(I2
I145
I0
g240
I0
tp257
a(I3
I20
I0
g242
I0
tp258
a(I3
I20
I0
g244
I0
tp259
a(I0
I6
I0
g218
I2
tp260
a(I0
I12
I0
g220
I2
tp261
a(I0
I13
F0.875
S'attractive'
p262
I2
tp263
a(I0
I33
F-0.75
S'likely'
p264
I2
tp265
a(I0
I68
F0.125
S'first'
p266
I2
tp267
a(I0
I68
I0
S'useful'
p268
I2
tp269
a(I0
I111
I0
S'full'
p270
I2
tp271
a(I0
I168
I0
g222
I2
tp272
a(I0
I208
I0
g224
I2
tp273
a(I0
I283
I0
S'great'
p274
I2
tp275
a(I0
I298
I0
g226
I2
tp276
a(I0
I316
I0
g228
I2
tp277
a(I1
I20
F0.375
S'tight'
p278
I2
tp279
a(I1
I67
F-0.5
S'actual'
p280
I2
tp281
a(I1
I67
F0.375
S'similar'
p282
I2
tp283
a(I1
I111
I0
g230
I2
tp284
a(I1
I225
F1.0
S'best'
p285
I2
tp286
a(I1
I225
F1.0
S'best'
p287
I2
tp288
a(I1
I312
I0
S'closing'
p289
I2
tp290
a(I1
I313
F-0.5
S'open'
p291
I2
tp292
a(I1
I407
F-0.5
S'open'
p293
I2
tp294
a(I1
I407
I0
S'own'
p295
I2
tp296
a(I1
I433
I0
S'cool'
p297
I2
tp298
a(I2
I38
F0.125
S'first'
p299
I2
tp300
a(I2
I63
I0
g232
I2
tp301
a(I2
I74
I0
g234
I2
tp302
a(I2
I78
I0
g236
I2
tp303
a(I2
I78
F1.0
g238
I2
tp304
a(I2
I145
I0
g240
I2
tp305
a(I2
I348
I0
S'soft'
p306
I2
tp307
a(I3
I20
I0
g242
I2
tp308
a(I3
I20
I0
g244
I2
tp309
as(S'google'
p310
tp311
(lp312
(I0
I15
I0
S'many'
p313
I4
tp314
a(I0
I143
I0
S'great'
p315
I4
tp316
a(I0
I200
I0
S'many'
p317
I4
tp318
a(I0
I273
I-100
S'docs-to-go'
p319
I4
tp320
a(I1
I327
F-0.625
S'other'
p321
I4
tp322
a(I1
I524
F0.5
S'live'
p323
I4
tp324
a(I2
I206
I0
S'many'
p325
I4
tp326
as(S'market'
p327
tp328
(lp329
(I0
I25
F0.75
S'worth'
p330
I16
tp331
a(I0
I270
F0.375
S'much'
p332
I16
tp333
a(I2
I108
F-0.625
S'free'
p334
I16
tp335
a(I2
I114
I0
S'great'
p336
I16
tp337
as(S'button'
p338
tp339
(lp340
(I0
I21
F-0.375
S'top'
p341
I19
tp342
a(I1
I469
I0
S'only'
p343
I19
tp344
a(I1
I513
F0.5
S'touch'
p345
I19
tp346
as(S'sd'
p347
S'card'
p348
tp349
(lp350
(I0
I154
F-0.625
S'corrupt'
p351
I0
tp352
as(S'android'
p353
tp354
(lp355
(I0
I61
F1.0
S'better'
p356
I0
tp357
a(I0
I83
F-0.625
S'other'
p358
I0
tp359
a(I0
I87
I0
S'great'
p360
I0
tp361
a(I0
I269
F-0.75
S'plain'
p362
I0
tp363
a(I0
I271
I0
S'useful'
p364
I0
tp365
a(I0
I280
F0.375
S'available'
p366
I0
tp367
a(I1
I64
I0
S'same'
p368
I0
tp369
a(I1
I70
I0
S'most'
p370
I0
tp371
a(I1
I134
I0
S'standard'
p372
I0
tp373
a(I1
I184
F-0.5
S'sure'
p374
I0
tp375
a(I1
I196
F0.125
S'first'
p376
I0
tp377
a(I1
I197
F-0.125
S'slow'
p378
I0
tp379
a(I1
I505
F0.375
S'available'
p380
I0
tp381
a(I1
I519
F0.125
S'first'
p382
I0
tp383
a(I2
I167
I0
S'most'
p384
I0
tp385
a(I2
I167
F-0.625
S'other'
p386
I0
tp387
a(I2
I180
F1.0
S'best'
p388
I0
tp389
a(I2
I199
F0.375
S'complete'
p390
I0
tp391
a(I2
I251
F0.5
S'touch'
p392
I0
tp393
a(I2
I281
F-0.375
S'top'
p394
I0
tp395
a(I2
I351
F0.5
S'strong'
p396
I0
tp397
a(I2
I360
F1.0
S'better'
p398
I0
tp399
a(I3
I1
F0.25
S'responsive'
p400
I0
tp401
as(S'network'
p402
tp403
(lp404
(I0
I310
F-0.5
S'less'
p405
I0
tp406
a(I0
I310
F-0.375
S'robust'
p407
I0
tp408
a(I1
I295
I0
S'own'
p409
I0
tp410
a(I1
I300
I0
S'most'
p411
I0
tp412
as(S'calls'
p413
tp414
(lp415
(I0
I288
I0
S'great'
p416
I0
tp417
a(I0
I288
F0.5
S'clear'
p418
I0
tp419
a(I0
I288
F0.375
S'loud'
p420
I0
tp421
a(I0
I295
F0.5
S'clear'
p422
I0
tp423
a(I1
I373
F-0.25
S'dropped'
p424
I0
tp425
a(I2
I266
F0.125
S'able'
p426
I0
tp427
a(I2
I296
F0.5
S'true'
p428
I0
tp429
a(I2
I319
I0
S'few'
p430
I0
tp431
as(S'web'
p432
S'pages'
p433
tp434
(lp435
(I2
I52
F-0.5
S'certain'
p436
I0
tp437
as(S'optical'
p438
S'sensor'
p439
tp440
(lp441
(I0
I117
I0
S'optical'
p442
I0
tp443
a(I0
I119
I0
S'optical'
p444
I0
tp445
a(I0
I121
I0
S'optical'
p446
I0
tp447
as(S'heavy'
p448
S'use'
p449
tp450
(lp451
(I0
I128
F-0.5
S'heavy'
p452
I1
tp453
a(I1
I415
F-0.5
S'heavy'
p454
I1
tp455
a(I1
I416
F-0.5
S'heavy'
p456
I1
tp457
a(I1
I487
F-0.5
S'heavy'
p458
I1
tp459
a(I2
I83
F-0.5
S'heavy'
p460
I1
tp461
a(I2
I163
F-0.5
S'heavy'
p462
I1
tp463
as(S'speaker'
p464
tp465
(lp466
(I0
I77
I0
S'big'
p467
I8
tp468
a(I0
I77
F0.875
S'music'
p469
I8
tp470
a(I0
I77
F1.0
S'good'
p471
I8
tp472
a(I1
I170
F-0.25
S'low'
p473
I8
tp474
a(I1
I370
I0
S'great'
p475
I8
tp476
a(I1
I420
I0
S'great'
p477
I8
tp478
a(I1
I462
F-0.875
S'awful'
p479
I8
tp480
a(I1
I489
F-0.375
S'small'
p481
I8
tp482
a(I1
I489
F-0.5
S'weak'
p483
I8
tp484
a(I2
I172
I0
S'wish'
p485
I8
tp486
a(I2
I214
I0
S'least'
p487
I8
tp488
as(S'top'
p489
S'row'
p490
tp491
(lp492
(I1
I20
F-0.375
S'top'
p493
I0
tp494
a(I1
I543
F-0.375
S'top'
p495
I0
tp496
a(I2
I190
F-0.375
S'top'
p497
I0
tp498
as(S'data'
p499
tp500
(lp501
(I1
I296
F-0.125
S'slow'
p502
I13
tp503
a(I2
I55
I0
S'faster'
p504
I13
tp505
a(I2
I105
F0.125
S'enough'
p506
I13
tp507
as(S'wi-fi'
p508
S'calling'
p509
tp510
(lp511
(I1
I338
I0
S'update'
p512
I0
tp513
as(S'camera'
p514
tp515
(lp516
(I2
I293
F0.25
S'sharp'
p517
I1
tp518
a(I2
I343
F0.125
S'digital'
p519
I1
tp520
as(S'speed'
p521
tp522
(lp523
(I1
I29
I0
S'slower'
p524
I9
tp525
as(S'smartphone'
p526
tp527
(lp528
(I0
I291
I0
S'great'
p529
I0
tp530
a(I1
I321
F0.125
S'first'
p531
I0
tp532
a(I1
I465
F0.125
S'first'
p533
I0
tp534
a(I2
I118
F1.0
S'best'
p535
I0
tp536
a(I2
I160
F0.125
S'first'
p537
I0
tp538
a(I2
I386
F-0.75
S'likely'
p539
I0
tp540
as(S'z'
p541
S'hinge'
p542
tp543
(lp544
(I0
I37
I0
S'nervous'
p545
I0
tp546
a(I0
I37
I0
g545
I9
tp547
a(I0
I138
F-0.5
S'flimsy'
p548
I9
tp549
a(I1
I158
F1.0
S'good'
p550
I9
tp551
a(I1
I480
F-0.125
S'mine'
p552
I9
tp553
as(S't'
p554
S'mobile'
p555
S'store'
p556
tp557
(lp558
(I2
I185
I0
S'least'
p559
I0
tp560
a(I2
I281
I0
S'local'
p561
I0
tp562
a(I2
I185
I0
g559
I0
tp563
a(I2
I281
I0
g561
I0
tp564
as(S'call'
p565
S'quality'
p566
tp567
(lp568
(I0
I294
I0
S'signal'
p569
I0
tp570
a(I1
I105
F1.0
S'good'
p571
I0
tp572
a(I1
I171
F-0.125
S'overall'
p573
I0
tp574
a(I1
I171
I0
S'great'
p575
I0
tp576
a(I1
I372
F-0.375
S'top'
p577
I0
tp578
as(S'wifi'
p579
tp580
(lp581
(I1
I161
F-0.625
S'free'
p582
I0
tp583
a(I2
I348
I0
S'blooming'
p584
I0
tp585
as(S'feels'
p586
tp587
(lp588
(I0
I95
F0.875
S'nice'
p589
I14
tp590
a(I2
I125
F0.5
S'stylish'
p591
I14
tp592
a(I2
I126
I0
S'particular'
p593
I14
tp594
a(I2
I291
F0.375
S'similar'
p595
I14
tp596
as(S'touch'
p597
S'screen'
p598
tp599
(lp600
(I0
I189
F0.5
S'touch'
p601
I2
tp602
a(I0
I210
I0
S'big'
p603
I2
tp604
a(I1
I21
F-0.5
S'open'
p605
I2
tp606
a(I1
I86
F0.25
S'responsive'
p607
I2
tp608
a(I1
I169
F0.5
S'touch'
p609
I2
tp610
a(I1
I337
F0.25
S'responsive'
p611
I2
tp612
a(I2
I145
F0.75
S'due'
p613
I2
tp614
a(I2
I239
F0.375
S'appreciate'
p615
I2
tp616
a(I2
I239
F0.5
S'touch'
p617
I2
tp618
a(I2
I241
F0.5
S'touch'
p619
I2
tp620
as.