(dp0
(S'freezes'
p1
tp2
(lp3
(I17
I7
I0
S'few'
p4
I0
tp5
as(S'battery'
p6
S'life'
p7
tp8
(lp9
(I11
I22
I0
S'same'
p10
I1
tp11
a(I11
I22
F1.0
S'better'
p12
I1
tp13
a(I12
I10
F-0.75
S'short'
p14
I1
tp15
a(I12
I45
F-0.5
S'long'
p16
I1
tp17
a(I18
I20
F-0.75
S'short'
p18
I1
tp19
a(I18
I41
I0
S'great'
p20
I1
tp21
a(I12
I10
F-0.75
g14
I19
tp22
a(I18
I41
I0
g20
I19
tp23
a(I1
I6
I0
S'full'
p24
I15
tp25
a(I4
I3
F0.125
S'last'
p26
I15
tp27
a(I4
I3
F-0.5
S'long'
p28
I15
tp29
a(I4
I3
I0
S'fast'
p30
I15
tp31
a(I7
I79
I0
S'plastic'
p32
I15
tp33
a(I11
I2
F0.125
S'last'
p34
I15
tp35
a(I11
I22
I0
g10
I15
tp36
a(I11
I22
F1.0
g12
I15
tp37
a(I11
I72
I0
S'more'
p38
I15
tp39
a(I12
I45
F-0.5
g16
I15
tp40
a(I12
I104
F0.25
S'bigger'
p41
I15
tp42
a(I12
I104
I0
S'standard'
p43
I15
tp44
a(I12
I107
F0.25
S'bigger'
p45
I15
tp46
a(I18
I20
F-0.75
g18
I15
tp47
as(S'weeks'
p48
tp49
(lp50
(I8
I18
I0
S'few'
p51
I18
tp52
as(S'freezing'
p53
tp54
(lp55
(I13
I10
F0.75
S'constant'
p56
I2
tp57
as(S'camera'
p58
tp59
(lp60
(I7
I81
F0.875
S'nice'
p61
I1
tp62
a(I8
I19
F1.0
S'good'
p63
I1
tp64
a(I8
I19
F-0.625
S'bad'
p65
I1
tp66
a(I8
I19
F-0.625
S'light'
p67
I1
tp68
a(I8
I19
F0.125
S'enough'
p69
I1
tp70
a(I10
I3
F0.5
S'clear'
p71
I1
tp72
as(S'few'
p73
S'times'
p74
tp75
(lp76
(I4
I23
I0
S'few'
p77
I6
tp78
a(I7
I39
I0
S'few'
p79
I6
tp80
a(I7
I138
I0
S'few'
p81
I6
tp82
a(I16
I13
I0
S'few'
p83
I6
tp84
as(S'operating'
p85
S'system'
p86
tp87
(lp88
(I3
I9
F0.25
S'original'
p89
I2
tp90
as(S'internet'
p91
tp92
(lp93
(I2
I1
F-0.125
S'slow'
p94
I6
tp95
a(I8
I14
F-0.75
S'unable'
p96
I6
tp97
a(I13
I36
F1.0
S'best'
p98
I6
tp99
as(S'button'
p100
tp101
(lp102
(I13
I2
I0
S'own'
p103
I19
tp104
as(S'dual'
p105
S'core'
p106
tp107
(lp108
(I7
I140
F0.5
S'expensive'
p109
I0
tp110
a(I7
I141
F-0.625
S'other'
p111
I0
tp112
a(I11
I12
F0.25
S'powerful'
p113
I0
tp114
a(I7
I140
F0.5
g109
I3
tp115
a(I7
I141
F-0.625
g111
I3
tp116
a(I11
I12
F0.25
g113
I3
tp117
as(S'seller'
p118
tp119
(lp120
(I4
I19
I0
S'particular'
p121
I19
tp122
a(I8
I44
F0.625
S'easy'
p123
I19
tp124
a(I9
I5
F0.375
S'flexible'
p125
I19
tp126
a(I9
I9
F0.5
S'attentive'
p127
I19
tp128
a(I12
I91
F1.0
S'good'
p129
I19
tp130
a(I12
I92
I0
S'same'
p131
I19
tp132
a(I12
I122
I0
S'same'
p133
I19
tp134
as(S'android'
p135
tp136
(lp137
(I4
I1
F0.125
S'first'
p138
I0
tp139
as(S'network'
p140
tp141
(lp142
(I11
I64
I0
S'local'
p143
I0
tp144
a(I12
I9
I0
S'fast'
p145
I0
tp146
as(S'sim'
p147
S'card'
p148
tp149
(lp150
(I8
I39
F0.5
S'touch'
p151
I0
tp152
as(S'data'
p153
tp154
(lp155
(I11
I49
I0
S'mobile'
p156
I13
tp157
a(I13
I36
F-0.5
S'unlimited'
p158
I13
tp159
as(S'wifi'
p160
tp161
(lp162
(I6
I11
F1.0
S'good'
p163
I0
tp164
a(I11
I10
I0
S'normal'
p165
I0
tp166
as(S'super'
p167
S'fast'
p168
tp169
(lp170
(I3
I7
F-0.125
S'super'
p171
I0
tp172
a(I11
I47
F0.375
S'follow'
p173
I0
tp174
a(I11
I47
F0.75
S'due'
p175
I0
tp176
as(S'apps'
p177
tp178
(lp179
(I1
I12
I0
S'many'
p180
I0
tp181
a(I6
I34
I0
S'same'
p182
I0
tp183
a(I6
I34
I0
S'same'
p184
I0
tp185
a(I7
I48
F-0.5
S'certain'
p186
I0
tp187
a(I12
I87
I0
S'many'
p188
I0
tp189
a(I18
I39
F-0.875
S'load'
p190
I0
tp191
a(I18
I39
I0
S'podcast'
p192
I0
tp193
as(S'amazon'
p194
tp195
(lp196
(I19
I1
F0.375
S'prime'
p197
I13
tp198
a(I19
I1
I0
S'great'
p199
I13
tp200
as(S'touch'
p201
S'screen'
p202
tp203
(lp204
(I7
I34
F0.5
S'touch'
p205
I2
tp206
a(I12
I20
F0.5
S'touch'
p207
I2
tp208
a(I12
I20
F0.5
S'touch'
p209
I2
tp210
a(I12
I21
I0
S'more'
p211
I2
tp212
a(I12
I21
I0
S'sensitive'
p213
I2
tp214
a(I12
I22
F0.5
S'touch'
p215
I2
tp216
a(I12
I22
F1.0
S'good'
p217
I2
tp218
a(I18
I50
F0.25
S'bigger'
p219
I2
tp220
as.