(dp0
(S'freezes'
p1
tp2
(lp3
(I25
I167
F-0.75
S'worse'
p4
I0
tp5
a(I25
I167
F-0.375
S'daily'
p6
I0
tp7
as(S'battery'
p8
S'life'
p9
tp10
(lp11
(I1
I151
F-0.625
S'bad'
p12
I1
tp13
a(I5
I58
F1.0
S'best'
p14
I1
tp15
a(I8
I2
F-0.75
S'short'
p16
I1
tp17
a(I10
I5
F1.0
S'good'
p18
I1
tp19
a(I16
I52
F1.0
S'good'
p20
I1
tp21
a(I24
I43
F-0.125
S'slow'
p22
I1
tp23
a(I24
I43
F-0.5
S'poor'
p24
I1
tp25
a(I25
I74
F1.0
S'good'
p26
I1
tp27
a(I1
I151
F-0.625
g12
I19
tp28
a(I5
I58
F1.0
g14
I19
tp29
a(I8
I2
F-0.75
g16
I19
tp30
a(I9
I18
F0.5
S'expensive'
p31
I19
tp32
a(I16
I19
F0.125
S'last'
p33
I19
tp34
a(I0
I11
F-0.75
S'unresponsive'
p35
I15
tp36
a(I7
I20
I0
S'common'
p37
I15
tp38
a(I9
I35
I0
S'full'
p39
I15
tp40
a(I9
I35
F0.375
S'new'
p41
I15
tp42
a(I10
I5
F1.0
g18
I15
tp43
a(I10
I27
I0
S'full'
p44
I15
tp45
a(I16
I52
F1.0
g20
I15
tp46
a(I22
I73
I0
S'least'
p47
I15
tp48
a(I24
I43
F-0.125
g22
I15
tp49
a(I24
I43
F-0.5
g24
I15
tp50
a(I24
I166
I0
S'full'
p51
I15
tp52
a(I25
I74
F1.0
g26
I15
tp53
a(I25
I118
I0
S'many'
p54
I15
tp55
a(I29
I4
F0.375
S'extra'
p56
I15
tp57
a(I29
I47
F0.625
S'removable'
p58
I15
tp59
as(S'qwerty'
p60
S'keyboard'
p61
tp62
(lp63
(I3
I156
F0.625
S'easy'
p64
I0
tp65
a(I5
I58
I-100
S'-real'
p66
I0
tp67
a(I5
I58
F1.0
S'good'
p68
I0
tp69
a(I5
I93
F1.0
S'good'
p70
I0
tp71
a(I5
I219
I0
S'full'
p72
I0
tp73
a(I20
I10
F-0.125
S'slow'
p74
I0
tp75
a(I25
I2
I0
S'full'
p76
I0
tp77
a(I25
I11
I0
S'such'
p78
I0
tp79
as(S'piece'
p80
S'of'
p81
S'junk'
p82
tp83
(lp84
(I20
I56
F-0.875
S'worst'
p85
I2
tp86
a(I22
I34
I0
S'such'
p87
I2
tp88
as(S'samsung'
p89
tp90
(lp91
(I3
I132
I0
S'wish'
p92
I7
tp93
a(I4
I12
F-0.75
S'hate'
p94
I7
tp95
a(I7
I29
F-0.625
S'other'
p96
I7
tp97
a(I15
I38
F0.125
S'last'
p98
I7
tp99
a(I20
I34
F0.125
S'first'
p100
I7
tp101
a(I20
I34
F-0.625
S'other'
p102
I7
tp103
a(I20
I49
F0.375
S'new'
p104
I7
tp105
a(I22
I30
F-0.625
S'glad'
p106
I7
tp107
as(S'angry'
p108
S'birds'
p109
tp110
(lp111
(I0
I3
I0
S'play'
p112
I0
tp113
a(I9
I45
I0
S'angry'
p114
I0
tp115
a(I21
I23
I0
S'most'
p116
I0
tp117
a(I22
I75
F-0.625
S'addictive'
p118
I0
tp119
a(I24
I34
I0
S'angry'
p120
I0
tp121
as(S'camera'
p122
tp123
(lp124
(I1
I56
F-0.125
S'slow'
p125
I1
tp126
a(I5
I31
F1.0
S'good'
p127
I1
tp128
a(I21
I18
F0.625
S'decent'
p129
I1
tp130
a(I22
I16
F1.0
S'good'
p131
I1
tp132
a(I22
I16
F-0.5
S'complaint'
p133
I1
tp134
a(I24
I134
F0.5
S'clear'
p135
I1
tp136
a(I24
I134
F0.625
S'easy'
p137
I1
tp138
as(S'lot'
p139
S'of'
p140
S'times'
p141
tp142
(lp143
(I5
I217
F0.5
S'whole'
p144
I0
tp145
as(S'charging'
p146
S'port'
p147
tp148
(lp149
(I3
I129
F-0.375
S'top'
p150
I1
tp151
as(S'operating'
p152
S'system'
p153
tp154
(lp155
(I1
I124
F-0.125
S'slow'
p156
I2
tp157
a(I1
I124
F-0.75
S'unresponsive'
p158
I2
tp159
as(S'touch'
p160
S'screen'
p161
S'and'
p162
tp163
(lp164
(I1
I153
F0.5
S'touch'
p165
I0
tp166
a(I3
I51
F0.25
S'responsive'
p167
I0
tp168
a(I4
I17
F-0.5
S'open'
p169
I0
tp170
a(I5
I88
F0.5
S'touch'
p171
I0
tp172
a(I5
I206
F0.5
S'touch'
p173
I0
tp174
a(I9
I2
F0.125
S'first'
p175
I0
tp176
a(I9
I2
F0.25
S'responsive'
p177
I0
tp178
a(I9
I9
F0.5
S'touch'
p179
I0
tp180
a(I18
I49
F0.5
S'touch'
p181
I0
tp182
a(I18
I88
F0.5
S'touch'
p183
I0
tp184
a(I18
I113
I0
S'latest'
p185
I0
tp186
a(I21
I53
I0
S'most'
p187
I0
tp188
a(I21
I53
F0.5
S'touch'
p189
I0
tp190
a(I24
I26
F0.5
S'touch'
p191
I0
tp192
a(I24
I31
I0
S'sensitive'
p193
I0
tp194
a(I24
I180
F0.125
S'first'
p195
I0
tp196
a(I25
I20
F0.5
S'touch'
p197
I0
tp198
a(I25
I97
F0.5
S'touch'
p199
I0
tp200
a(I26
I2
F-0.375
S'near'
p201
I0
tp202
a(I26
I2
F0.25
S'responsive'
p203
I0
tp204
a(I1
I153
F0.5
g165
I2
tp205
a(I3
I51
F0.25
g167
I2
tp206
a(I4
I17
F-0.5
g169
I2
tp207
a(I5
I88
F0.5
g171
I2
tp208
a(I5
I206
F0.5
g173
I2
tp209
a(I9
I2
F0.125
g175
I2
tp210
a(I9
I2
F0.25
g177
I2
tp211
a(I9
I9
F0.5
g179
I2
tp212
a(I18
I49
F0.5
g181
I2
tp213
a(I18
I53
F0.25
S'responsive'
p214
I2
tp215
a(I18
I88
F0.5
g183
I2
tp216
a(I18
I113
I0
g185
I2
tp217
a(I21
I53
I0
g187
I2
tp218
a(I21
I53
F0.5
g189
I2
tp219
a(I24
I26
F0.5
g191
I2
tp220
a(I24
I31
I0
g193
I2
tp221
a(I24
I48
F-0.75
S'unresponsive'
p222
I2
tp223
a(I24
I51
F0.5
S'touch'
p224
I2
tp225
a(I24
I96
F-0.125
S'slow'
p226
I2
tp227
a(I24
I96
F-0.5
S'poor'
p228
I2
tp229
a(I24
I180
F0.125
g195
I2
tp230
a(I25
I20
F0.5
g197
I2
tp231
a(I25
I97
F0.5
g199
I2
tp232
a(I26
I2
F-0.375
g201
I2
tp233
a(I26
I2
F0.25
g203
I2
tp234
as(S'memory'
p235
tp236
(lp237
(I4
I22
I0
S'more'
p238
I5
tp239
a(I4
I22
I0
S'more'
p240
I5
tp241
a(I4
I23
I0
S'full'
p242
I5
tp243
a(I4
I25
F0.125
S'plenty'
p244
I5
tp245
a(I4
I25
F-0.625
S'free'
p246
I5
tp247
a(I5
I182
F0.5
S'careful'
p248
I5
tp249
a(I5
I182
I0
S'internal'
p250
I5
tp251
a(I10
I104
I0
S'internal'
p252
I5
tp253
a(I10
I105
I0
S'internal'
p254
I5
tp255
a(I10
I109
F-0.375
S'small'
p256
I5
tp257
as(S'fat'
p258
S'fingers'
p259
tp260
(lp261
(I5
I166
F0.125
S'fat'
p262
I0
tp263
a(I14
I11
F0.125
S'fat'
p264
I0
tp265
a(I14
I11
F-0.125
S'mine'
p266
I0
tp267
as(S'times'
p268
S'a'
p269
S'day'
p270
tp271
(lp272
(I1
I22
I0
S'least'
p273
I0
tp274
a(I1
I161
F-0.625
S'average'
p275
I0
tp276
a(I1
I161
I0
S'least'
p277
I0
tp278
a(I10
I33
I0
S'normal'
p279
I0
tp280
as(S'sd'
p281
S'card'
p282
tp283
(lp284
(I25
I1
F0.25
S'bigger'
p285
I0
tp286
as(S'intercept'
p287
tp288
(lp289
(I3
I10
F0.5
S'second'
p290
I0
tp291
a(I3
I112
F1.0
S'better'
p292
I0
tp293
a(I14
I40
F-0.625
S'free'
p294
I0
tp295
a(I16
I12
I0
S'faster'
p296
I0
tp297
a(I25
I3
F-0.25
S'inexpensive'
p298
I0
tp299
a(I25
I10
F-0.75
S'dirty'
p300
I0
tp301
a(I25
I10
I0
S'fast'
p302
I0
tp303
as(S'contract'
p304
tp305
(lp306
(I14
I0
I0
S'monthly'
p307
I0
tp308
a(I16
I54
F-0.625
S'sorry'
p309
I0
tp310
a(I22
I46
F1.0
S'good'
p311
I0
tp312
as(g269
S'long'
p313
S'time'
p314
tp315
(lp316
(I0
I9
F-0.5
S'long'
p317
I12
tp318
a(I3
I46
F-0.5
S'long'
p319
I12
tp320
a(I15
I37
F-0.5
S'long'
p321
I12
tp322
a(I16
I19
F-0.5
S'long'
p323
I12
tp324
a(I22
I32
F-0.5
S'long'
p325
I12
tp326
a(I28
I10
F-0.5
S'long'
p327
I12
tp328
as(S'slide'
p329
S'out'
p330
S'keyboard'
p331
tp332
(lp333
(I1
I32
I0
S'handy'
p334
I0
tp335
a(I3
I96
F0.875
S'nice'
p336
I0
tp337
a(I4
I14
I0
S'full'
p338
I0
tp339
a(I9
I75
F-0.625
S'impractical'
p340
I0
tp341
a(I10
I125
F0.625
S'easier'
p342
I0
tp343
a(I10
I125
F0.125
S'key'
p344
I0
tp345
a(I15
I46
F0.875
S'nice'
p346
I0
tp347
a(I20
I5
I0
S'more'
p348
I0
tp349
a(I21
I44
F0.875
S'nice'
p350
I0
tp351
a(I21
I44
I0
S'big'
p352
I0
tp353
a(I25
I11
I0
g78
I0
tp354
a(I21
I44
F0.875
g350
I6
tp355
a(I21
I44
I0
g352
I6
tp356
a(I0
I9
F-0.5
S'open'
p357
I2
tp358
a(I1
I32
I0
g334
I2
tp359
a(I3
I96
F0.875
g336
I2
tp360
a(I3
I97
I0
S'farthest'
p361
I2
tp362
a(I3
I156
F0.625
g64
I2
tp363
a(I3
I167
I0
S'many'
p364
I2
tp365
a(I3
I167
I0
S'physical'
p366
I2
tp367
a(I4
I10
I0
S'physical'
p368
I2
tp369
a(I4
I14
I0
g338
I2
tp370
a(I5
I42
I0
S'physical'
p371
I2
tp372
a(I5
I58
F1.0
g68
I2
tp373
a(I5
I84
F0.625
S'perfect'
p374
I2
tp375
a(I5
I93
F1.0
g70
I2
tp376
a(I5
I186
F0.25
S'used'
p377
I2
tp378
a(I5
I186
I0
S'physical'
p379
I2
tp380
a(I5
I186
F-0.5
S'miss'
p381
I2
tp382
a(I8
I1
F0.875
S'nice'
p383
I2
tp384
a(I9
I75
F-0.625
g340
I2
tp385
a(I10
I125
F0.625
g342
I2
tp386
a(I10
I125
F0.125
g344
I2
tp387
a(I14
I10
F-0.5
S'separate'
p388
I2
tp389
a(I15
I46
F0.875
g346
I2
tp390
a(I17
I4
I0
S'great'
p391
I2
tp392
a(I17
I8
F0.625
S'easy'
p393
I2
tp394
a(I18
I49
I0
S'physical'
p395
I2
tp396
a(I20
I5
I0
g348
I2
tp397
a(I20
I6
F0.875
S'nice'
p398
I2
tp399
a(I20
I10
F-0.125
g74
I2
tp400
a(I20
I35
F1.0
S'good'
p401
I2
tp402
a(I24
I146
F-0.25
S'cheaper'
p403
I2
tp404
a(I25
I11
I0
g78
I2
tp405
a(I25
I17
F0.5
S'whole'
p406
I2
tp407
a(I26
I0
F-0.5
S'actual'
p408
I2
tp409
a(I29
I9
I0
S'physical'
p410
I2
tp411
as(S'2'
p412
g412
S'update'
p413
tp414
(lp415
(I9
I52
I0
S'few'
p416
I0
tp417
a(I25
I89
F0.125
S'received'
p418
I0
tp419
as(S'sprint'
p420
tp421
(lp422
(I3
I110
I0
S'same'
p423
I0
tp424
a(I14
I34
F0.375
S'new'
p425
I0
tp426
a(I20
I9
F-0.125
S'mine'
p427
I0
tp428
as(S'smart'
p429
tp430
(lp431
(I1
I63
I0
S'different'
p432
I10
tp433
a(I3
I79
F1.0
S'best'
p434
I10
tp435
a(I5
I58
F0.125
S'typical'
p436
I10
tp437
a(I5
I58
I0
S'most'
p438
I10
tp439
a(I5
I58
F0.5
S'second'
p440
I10
tp441
a(I5
I59
F0.125
S'first'
p442
I10
tp443
a(I12
I2
F0.875
S'nice'
p444
I10
tp445
a(I12
I2
F0.125
S'first'
p446
I10
tp447
a(I19
I30
F0.5
S'functional'
p448
I10
tp449
a(I20
I50
F0.125
S'first'
p450
I10
tp451
a(I22
I66
F0.125
S'first'
p452
I10
tp453
a(I24
I111
I0
S'basic'
p454
I10
tp455
as(g269
S'virgin'
p456
S'mobile'
p457
tp458
(lp459
(I3
I108
F-0.5
S'less'
p460
I0
tp461
a(I5
I21
F0.875
S'nice'
p462
I0
tp463
a(I5
I21
F0.25
S'helpful'
p464
I0
tp465
a(I5
I58
I0
S'monthly'
p466
I0
tp467
a(I5
I93
I0
S'monthly'
p468
I0
tp469
a(I7
I29
F0.375
S'new'
p470
I0
tp471
a(I10
I141
I0
S'mobile'
p472
I0
tp473
a(I13
I6
I0
S'site'
p474
I0
tp475
a(I13
I11
F-0.375
S'top'
p476
I0
tp477
a(I15
I49
I0
S'different'
p478
I0
tp479
a(I15
I76
F1.0
S'better'
p480
I0
tp481
a(I16
I39
I0
S'mobile'
p482
I0
tp483
a(I20
I7
I0
S'mobile'
p484
I0
tp485
a(I20
I84
F0.125
S'first'
p486
I0
tp487
a(I22
I57
F-0.625
S'other'
p488
I0
tp489
a(I22
I127
F-0.375
S'manual'
p490
I0
tp491
a(I22
I127
I0
S'website'
p492
I0
tp493
a(I24
I26
I0
S'mobile'
p494
I0
tp495
a(I25
I49
F0.5
S'live'
p496
I0
tp497
as(S'first'
p498
S'android'
p499
tp500
(lp501
(I3
I4
F0.125
S'first'
p502
I0
tp503
a(I5
I0
F0.125
S'first'
p504
I0
tp505
a(I5
I58
F0.125
S'first'
p506
I0
tp507
a(I9
I1
F0.125
S'first'
p508
I0
tp509
a(I12
I0
F0.125
S'first'
p510
I0
tp511
a(I20
I0
F0.125
S'first'
p512
I0
tp513
a(I20
I0
F0.125
S'first'
p514
I0
tp515
a(I20
I0
F0.375
S'new'
p516
I0
tp517
a(I24
I45
F0.125
S'first'
p518
I0
tp519
a(I24
I187
F0.125
S'first'
p520
I0
tp521
a(I25
I154
F0.125
S'first'
p522
I0
tp523
a(I3
I4
F0.125
g502
I0
tp524
a(I3
I160
F0.375
S'meant'
p525
I0
tp526
a(I4
I9
F0.875
S'happy'
p527
I0
tp528
a(I5
I0
F0.125
g504
I0
tp529
a(I5
I58
F0.125
g506
I0
tp530
a(I5
I76
F0.25
S'powerful'
p531
I0
tp532
a(I5
I90
F1.0
S'good'
p533
I0
tp534
a(I5
I165
I0
S'keypad'
p535
I0
tp536
a(I5
I205
F0.75
S'due'
p537
I0
tp538
a(I5
I207
I0
S'same'
p539
I0
tp540
a(I9
I1
F0.125
g508
I0
tp541
a(I12
I0
F0.125
g510
I0
tp542
a(I14
I0
I0
S'serviceable'
p543
I0
tp544
a(I19
I13
I0
S'standard'
p545
I0
tp546
a(I19
I46
F0.375
S'much'
p547
I0
tp548
a(I19
I68
F-0.625
S'other'
p549
I0
tp550
a(I19
I80
F-0.625
S'other'
p551
I0
tp552
a(I19
I85
I0
S'most'
p553
I0
tp554
a(I20
I0
F0.125
g512
I0
tp555
a(I20
I0
F0.125
g514
I0
tp556
a(I20
I0
F0.375
g516
I0
tp557
a(I20
I25
I0
S'only'
p558
I0
tp559
a(I20
I33
F0.375
S'new'
p560
I0
tp561
a(I24
I45
F0.125
g518
I0
tp562
a(I24
I187
F0.125
g520
I0
tp563
a(I25
I154
F0.125
g522
I0
tp564
a(I25
I158
F1.0
S'best'
p565
I0
tp566
a(I29
I7
I0
S'basic'
p567
I0
tp568
as(S'notification'
p569
S'bar'
p570
tp571
(lp572
(I5
I10
F-0.375
S'top'
p573
I0
tp574
a(I5
I10
I0
S'slide'
p575
I0
tp576
as(S'texting'
p577
tp578
(lp579
(I10
I151
I0
S'great'
p580
I0
tp581
a(I10
I151
F-0.375
S'daily'
p582
I0
tp583
a(I14
I37
I0
S'lag'
p584
I0
tp585
as(S'internet'
p586
tp587
(lp588
(I10
I1
F0.125
S'first'
p589
I6
tp590
a(I22
I49
I0
S'most'
p591
I6
tp592
a(I23
I2
F-0.5
S'unlimited'
p593
I6
tp594
a(I24
I115
F0.375
S'reliable'
p595
I6
tp596
a(I24
I120
I0
S'real'
p597
I6
tp598
a(I24
I128
I0
S'faster'
p599
I6
tp600
as(S'green'
p601
S'power'
p602
tp603
(lp604
(I9
I38
F-0.625
S'green'
p605
I0
tp606
a(I9
I38
F-0.625
S'free'
p607
I0
tp608
a(I9
I39
F-0.625
S'free'
p609
I0
tp610
a(I9
I48
F-0.625
S'green'
p611
I0
tp612
a(I9
I48
F-0.625
S'free'
p613
I0
tp614
as(S'data'
p615
tp616
(lp617
(I10
I13
I0
S'cable'
p618
I13
tp619
a(I15
I75
I-100
S'7-it'
p620
I13
tp621
a(I25
I165
F-0.25
S'low'
p622
I13
tp623
as(S'optimus'
p624
tp625
(lp626
(I1
I35
I0
S'more'
p627
I0
tp628
a(I1
I35
F0.625
S'positive'
p629
I0
tp630
a(I5
I72
F0.25
S'responsive'
p631
I0
tp632
as(S'send'
p633
g269
S'text'
p634
tp635
(lp636
(I16
I69
F-0.75
S'impossible'
p637
I0
tp638
a(I16
I72
I0
S'old'
p639
I0
tp640
a(I20
I28
F-0.375
S'simple'
p641
I0
tp642
a(I1
I7
F-0.5
S'unlimited'
p643
I18
tp644
a(I1
I55
I0
S'different'
p645
I18
tp646
a(I4
I23
I0
S'blue'
p647
I18
tp648
a(I9
I27
F-0.75
S'short'
p649
I18
tp650
a(I9
I27
I0
S'soft'
p651
I18
tp652
a(I16
I69
F-0.75
g637
I18
tp653
a(I16
I72
I0
g639
I18
tp654
a(I20
I28
F-0.375
g641
I18
tp655
a(I21
I25
F0.875
S'music'
p656
I18
tp657
a(I24
I103
F0.125
S'able'
p658
I18
tp659
as(S'virgin'
p660
S'mobile'
p661
S'service'
p662
tp663
(lp664
(I5
I93
I0
g468
I0
tp665
a(I5
I93
F-0.875
S'worst'
p666
I0
tp667
a(I10
I134
F0.625
S'decent'
p668
I0
tp669
a(I15
I17
I0
S'great'
p670
I0
tp671
a(I22
I116
F-0.5
S'open'
p672
I0
tp673
a(I24
I100
I0
S'least'
p674
I0
tp675
a(I3
I108
F-0.5
g460
I0
tp676
a(I5
I21
F0.875
g462
I0
tp677
a(I5
I21
F0.25
g464
I0
tp678
a(I5
I58
I0
g466
I0
tp679
a(I5
I93
I0
g468
I0
tp680
a(I7
I29
F0.375
g470
I0
tp681
a(I10
I141
I0
g472
I0
tp682
a(I13
I6
I0
g474
I0
tp683
a(I13
I11
F-0.375
g476
I0
tp684
a(I15
I18
I0
S'site'
p685
I0
tp686
a(I15
I49
I0
g478
I0
tp687
a(I15
I76
F1.0
g480
I0
tp688
a(I16
I39
I0
g482
I0
tp689
a(I20
I7
I0
g484
I0
tp690
a(I20
I84
F0.125
g486
I0
tp691
a(I22
I57
F-0.625
g488
I0
tp692
a(I22
I127
F-0.375
g490
I0
tp693
a(I22
I127
I0
g492
I0
tp694
a(I24
I26
I0
g494
I0
tp695
a(I25
I49
F0.5
g496
I0
tp696
a(I5
I58
I0
g466
I0
tp697
a(I5
I93
I0
g468
I0
tp698
a(I7
I29
F0.375
g470
I0
tp699
a(I10
I141
I0
g472
I0
tp700
a(I13
I11
F-0.375
g476
I0
tp701
a(I15
I49
I0
g478
I0
tp702
a(I16
I39
I0
g482
I0
tp703
a(I20
I7
I0
g484
I0
tp704
a(I20
I84
F0.125
g486
I0
tp705
a(I22
I57
F-0.625
g488
I0
tp706
a(I22
I127
F-0.375
g490
I0
tp707
a(I24
I26
I0
g494
I0
tp708
a(I24
I131
F0.375
S'newer'
p709
I0
tp710
a(I25
I49
F0.5
g496
I0
tp711
a(I3
I52
F1.0
S'good'
p712
I16
tp713
a(I3
I113
F-0.875
S'inferior'
p714
I16
tp715
a(I5
I19
I0
S'great'
p716
I16
tp717
a(I5
I93
F-0.875
g666
I16
tp718
a(I10
I59
F1.0
S'good'
p719
I16
tp720
a(I10
I59
F0.125
S'spent'
p721
I16
tp722
a(I10
I134
F0.625
g668
I16
tp723
a(I15
I17
I0
g670
I16
tp724
a(I18
I3
I0
S'internet'
p725
I16
tp726
a(I22
I20
I0
S'great'
p727
I16
tp728
a(I22
I116
F-0.5
g672
I16
tp729
a(I22
I123
F0.5
S'polite'
p730
I16
tp731
a(I24
I100
I0
g674
I16
tp732
a(I24
I200
F1.0
S'good'
p733
I16
tp734
a(I29
I36
F-0.625
S'bad'
p735
I16
tp736
a(I29
I77
F0.875
S'happy'
p737
I16
tp738
a(I3
I108
F-0.5
g460
I0
tp739
a(I5
I21
F0.875
g462
I0
tp740
a(I5
I21
F0.25
g464
I0
tp741
a(I13
I6
I0
g474
I0
tp742
a(I15
I18
I0
g685
I0
tp743
a(I15
I76
F1.0
g480
I0
tp744
a(I22
I127
I0
g492
I0
tp745
a(I24
I121
F-0.375
S'modified'
p746
I0
tp747
as(S'customer'
p748
S'service'
p749
tp750
(lp751
(I5
I93
F-0.875
g666
I3
tp752
a(I10
I73
I0
S'least'
p753
I3
tp754
a(I20
I129
F-0.5
S'call'
p755
I3
tp756
a(I22
I106
F-0.625
S'bad'
p757
I3
tp758
a(I22
I116
F-0.5
g672
I3
tp759
a(I22
I123
F0.5
g730
I3
tp760
a(I29
I50
I0
S'great'
p761
I3
tp762
a(I10
I73
I0
g753
I11
tp763
a(I20
I129
F-0.5
g755
I11
tp764
a(I22
I106
F-0.625
g757
I11
tp765
a(I29
I1
F1.0
S'good'
p766
I11
tp767
a(I29
I50
I0
g761
I11
tp768
as(S'plans'
p769
tp770
(lp771
(I3
I38
F-0.625
S'other'
p772
I7
tp773
a(I3
I79
F0.625
S'perfect'
p774
I7
tp775
a(I5
I75
F-0.25
S'cheapest'
p776
I7
tp777
a(I10
I84
I0
S'prepaid'
p778
I7
tp779
a(I10
I132
F1.0
S'better'
p780
I7
tp781
a(I15
I25
F0.625
S'decent'
p782
I7
tp783
a(I15
I49
I0
S'great'
p784
I7
tp785
a(I15
I49
F-0.5
S'sure'
p786
I7
tp787
a(I15
I49
F1.0
S'good'
p788
I7
tp789
a(I24
I154
F-0.25
S'cheaper'
p790
I7
tp791
as(S'gon'
p792
S'na'
p793
tp794
(lp795
(I27
I4
F0.5
S'drive'
p796
I1
tp797
as(S'apps'
p798
tp799
(lp800
(I1
I27
F-0.625
S'free'
p801
I0
tp802
a(I1
I38
F-0.125
S'slow'
p803
I0
tp804
a(I1
I116
F-0.125
S'slow'
p805
I0
tp806
a(I2
I30
I0
S'many'
p807
I0
tp808
a(I4
I22
F0.25
S'used'
p809
I0
tp810
a(I5
I29
I0
S'great'
p811
I0
tp812
a(I5
I56
I0
S'few'
p813
I0
tp814
a(I5
I115
I0
S'current'
p815
I0
tp816
a(I5
I115
I0
S'basic'
p817
I0
tp818
a(I5
I176
I0
S'few'
p819
I0
tp820
a(I5
I181
F0.125
S'able'
p821
I0
tp822
a(I5
I181
I0
S'few'
p823
I0
tp824
a(I5
I204
I0
S'most'
p825
I0
tp826
a(I7
I19
I0
S'few'
p827
I0
tp828
a(I7
I19
F0.125
S'able'
p829
I0
tp830
a(I9
I48
I0
S'android'
p831
I0
tp832
a(I9
I56
I0
S'great'
p833
I0
tp834
a(I10
I87
I0
S'more'
p835
I0
tp836
a(I14
I6
I0
S'more'
p837
I0
tp838
a(I15
I14
I0
S'many'
p839
I0
tp840
a(I15
I14
F-0.375
S'crash'
p841
I0
tp842
a(I15
I19
I0
S'multiple'
p843
I0
tp844
a(I18
I15
F-0.125
S'minimum'
p845
I0
tp846
a(I18
I38
I0
S'many'
p847
I0
tp848
a(I18
I56
F-0.125
S'slow'
p849
I0
tp850
a(I18
I82
F-0.625
S'free'
p851
I0
tp852
a(I18
I82
F0.375
S'much'
p853
I0
tp854
a(I19
I13
I0
S'narrower'
p855
I0
tp856
a(I19
I13
I0
S'many'
p857
I0
tp858
a(I19
I18
I0
S'android'
p859
I0
tp860
a(I19
I30
I0
S'few'
p861
I0
tp862
a(I20
I57
I0
S'few'
p863
I0
tp864
a(I20
I57
F0.375
S'available'
p865
I0
tp866
a(I20
I57
F-0.625
S'other'
p867
I0
tp868
a(I20
I77
F-0.625
S'other'
p869
I0
tp870
a(I21
I47
I0
S'most'
p871
I0
tp872
a(I21
I47
F-0.625
S'useless'
p873
I0
tp874
a(I21
I47
F1.0
S'good'
p875
I0
tp876
a(I21
I48
F0.625
S'find'
p877
I0
tp878
a(I21
I48
F0.625
S'convenient'
p879
I0
tp880
a(I22
I36
I0
S'faster'
p881
I0
tp882
a(I22
I53
I0
S'few'
p883
I0
tp884
a(I22
I99
I0
S'real'
p885
I0
tp886
a(I22
I124
I0
S'different'
p887
I0
tp888
a(I24
I138
F-0.625
S'free'
p889
I0
tp890
a(I24
I174
I0
S'great'
p891
I0
tp892
a(I24
I178
I0
S'great'
p893
I0
tp894
a(I25
I23
I0
S'few'
p895
I0
tp896
a(I25
I23
F-0.75
S'little'
p897
I0
tp898
a(I30
I6
F0.125
S'last'
p899
I0
tp900
as(S'on'
p901
S'virgin'
p902
S'mobile'
p903
tp904
(lp905
(I3
I108
F-0.5
g460
I0
tp906
a(I5
I58
I0
g466
I0
tp907
a(I5
I93
I0
g468
I0
tp908
a(I7
I29
F0.375
g470
I0
tp909
a(I13
I11
F-0.375
g476
I0
tp910
a(I15
I49
I0
g478
I0
tp911
a(I15
I76
F1.0
g480
I0
tp912
a(I16
I39
I0
g482
I0
tp913
a(I20
I7
I0
g484
I0
tp914
a(I20
I84
F0.125
g486
I0
tp915
a(I22
I57
F-0.625
g488
I0
tp916
a(I22
I127
F-0.375
g490
I0
tp917
a(I22
I127
I0
g492
I0
tp918
a(I24
I26
I0
g494
I0
tp919
a(I25
I49
F0.5
g496
I0
tp920
as(S'google'
p921
S'maps'
p922
tp923
(lp924
(I24
I130
F-0.5
S'regular'
p925
I1
tp926
a(I29
I72
F-0.75
S'unresponsive'
p927
I1
tp928
as(S'calls'
p929
tp930
(lp931
(I3
I9
F-0.125
S'slow'
p932
I0
tp933
a(I3
I9
F0.75
S'due'
p934
I0
tp935
a(I10
I103
F0.125
S'last'
p936
I0
tp937
a(I20
I86
I0
S'more'
p938
I0
tp939
a(I27
I1
F-0.125
S'slow'
p940
I0
tp941
a(I27
I1
F-0.5
S'answer'
p942
I0
tp943
as.