(dp0
(S'seller'
p1
tp2
(lp3
(I11
I6
I0
S'e-mailed'
p4
I19
tp5
a(I18
I9
F0.375
S'reliable'
p6
I19
tp7
a(I19
I16
F0.5
S'recommend'
p8
I19
tp9
a(I59
I1
I0
S'great'
p10
I19
tp11
a(I66
I12
I0
S'more'
p12
I19
tp13
a(I66
I12
F0.5
S'willing'
p14
I19
tp15
as(S'and'
p16
S'touch'
p17
S'screen'
p18
tp19
(lp20
(I3
I2
F-0.625
S'bad'
p21
I0
tp22
a(I3
I41
I0
S'crisp'
p23
I0
tp24
a(I3
I41
F0.5
S'clear'
p25
I0
tp26
a(I3
I51
I0
S'old'
p27
I0
tp28
a(I3
I51
I0
S'sensitive'
p29
I0
tp30
a(I3
I71
I0
S'internal'
p31
I0
tp32
a(I3
I73
F0.5
S'touch'
p33
I0
tp34
a(I3
I88
F0.5
S'touch'
p35
I0
tp36
a(I3
I88
F-0.5
S'weak'
p37
I0
tp38
a(I4
I11
F0.5
S'touch'
p39
I0
tp40
a(I4
I18
F0.5
S'touch'
p41
I0
tp42
a(I4
I28
F0.5
S'touch'
p43
I0
tp44
a(I6
I38
F0.25
S'main'
p45
I0
tp46
a(I10
I40
F0.5
S'touch'
p47
I0
tp48
a(I11
I15
F0.25
S'effective'
p49
I0
tp50
a(I12
I43
F0.5
S'touch'
p51
I0
tp52
a(I12
I47
F0.5
S'touch'
p53
I0
tp54
a(I12
I78
F0.5
S'touch'
p55
I0
tp56
a(I18
I6
F0.5
S'touch'
p57
I0
tp58
a(I18
I6
F0.875
S'nice'
p59
I0
tp60
a(I19
I16
I0
S'great'
p61
I0
tp62
a(I19
I16
F0.5
S'touch'
p63
I0
tp64
a(I22
I13
F0.5
S'touch'
p65
I0
tp66
a(I25
I25
F-0.75
S'unresponsive'
p67
I0
tp68
a(I26
I17
F1.0
S'good'
p69
I0
tp70
a(I26
I17
F0.5
S'touch'
p71
I0
tp72
a(I26
I17
F0.625
S'easy'
p73
I0
tp74
a(I30
I3
F0.5
S'touch'
p75
I0
tp76
a(I32
I8
F0.5
S'touch'
p77
I0
tp78
a(I38
I21
I0
S'primitive'
p79
I0
tp80
a(I38
I22
F0.5
S'touch'
p81
I0
tp82
a(I47
I54
F0.5
S'touch'
p83
I0
tp84
a(I53
I43
F0.5
S'touch'
p85
I0
tp86
a(I55
I1
F0.5
S'touch'
p87
I0
tp88
a(I55
I4
F0.5
S'touch'
p89
I0
tp90
a(I66
I11
F0.125
S'able'
p91
I0
tp92
a(I66
I11
F0.5
S'touch'
p93
I0
tp94
a(I68
I2
F0.875
S'nice'
p95
I0
tp96
a(I68
I25
F0.5
S'touch'
p97
I0
tp98
a(I71
I56
F0.5
S'touch'
p99
I0
tp100
a(I72
I9
I0
S'great'
p101
I0
tp102
a(I74
I29
F-0.375
S'black'
p103
I0
tp104
a(I74
I32
F0.5
S'touch'
p105
I0
tp106
as(S'txt'
p107
S'messages'
p108
tp109
(lp110
(I36
I21
I0
S'many'
p111
I0
tp112
as(S'piece'
p113
S'of'
p114
S'junk'
p115
tp116
(lp117
(I12
I194
F0.375
S'much'
p118
I2
tp119
as(S'text'
p120
tp121
(lp122
(I22
I9
I0
S'quick'
p123
I18
tp124
a(I29
I10
F-0.375
S'simple'
p125
I18
tp126
a(I36
I13
I0
S'quicker'
p127
I18
tp128
a(I38
I35
F0.125
S'dedicated'
p129
I18
tp130
a(I58
I0
F-0.75
S'short'
p131
I18
tp132
a(I64
I26
F-0.5
S'international'
p133
I18
tp134
a(I74
I33
F1.0
S'good'
p135
I18
tp136
as(S'micro'
p137
S'sd'
p138
tp139
(lp140
(I38
I26
F-0.5
S'long'
p141
I0
tp142
as(S'to'
p143
S'verizon'
p144
S'store'
p145
tp146
(lp147
(I10
I21
F-0.375
S'nearest'
p148
I0
tp149
a(I48
I8
I0
S'local'
p150
I0
tp151
a(I74
I43
F0.625
S'easy'
p152
I0
tp153
a(I10
I21
F-0.375
g148
I0
tp154
a(I48
I8
I0
g150
I0
tp155
a(I74
I43
F0.625
g152
I0
tp156
a(I6
I77
F0.125
S'first'
p157
I0
tp158
a(I6
I77
F0.125
S'last'
p159
I0
tp160
a(I7
I1
F0.625
S'straight'
p161
I0
tp162
a(I10
I21
F-0.375
g148
I0
tp163
a(I10
I24
I0
S'closest'
p164
I0
tp165
a(I12
I167
I0
S'local'
p166
I0
tp167
a(I12
I182
F0.375
S'new'
p168
I0
tp169
a(I17
I8
I0
S'anymore'
p170
I0
tp171
a(I17
I53
F0.125
S'able'
p172
I0
tp173
a(I36
I9
F0.25
S'original'
p174
I0
tp175
a(I38
I4
F0.125
S'first'
p176
I0
tp177
a(I48
I8
I0
g150
I0
tp178
a(I63
I8
I0
S'website'
p179
I0
tp180
a(I63
I10
F0.125
S'first'
p181
I0
tp182
a(I63
I10
F-0.5
S'actual'
p183
I0
tp184
a(I64
I43
F0.25
S'used'
p185
I0
tp186
a(I70
I4
I0
S'local'
p187
I0
tp188
a(I70
I9
I0
S'different'
p189
I0
tp190
a(I71
I8
F-0.5
S'sure'
p191
I0
tp192
a(I74
I43
F0.625
g152
I0
tp193
as(S'service'
p194
S'provider'
p195
tp196
(lp197
(I12
I187
F0.75
S'give'
p198
I0
tp199
a(I0
I16
F1.0
S'good'
p200
I16
tp201
a(I23
I0
F0.875
S'happy'
p202
I16
tp203
a(I32
I5
F0.625
S'perfect'
p204
I16
tp205
a(I34
I18
I0
S'great'
p206
I16
tp207
a(I68
I17
F1.0
S'good'
p208
I16
tp209
a(I70
I67
I0
S'fast'
p210
I16
tp211
a(I76
I4
I0
S'great'
p212
I16
tp213
as(S'camera'
p214
tp215
(lp216
(I4
I14
I0
S'downer'
p217
I1
tp218
a(I4
I30
F1.0
S'good'
p219
I1
tp220
a(I6
I39
F1.0
S'good'
p221
I1
tp222
a(I12
I209
F1.0
S'good'
p223
I1
tp224
a(I17
I37
F1.0
S'good'
p225
I1
tp226
a(I22
I38
I0
S'internal'
p227
I1
tp228
a(I22
I48
F1.0
S'good'
p229
I1
tp230
a(I26
I15
F1.0
S'good'
p231
I1
tp232
a(I26
I15
I0
S'keypad'
p233
I1
tp234
a(I26
I15
F0.625
S'easy'
p235
I1
tp236
a(I34
I24
F-0.375
S'small'
p237
I1
tp238
a(I34
I24
F0.625
S'decent'
p239
I1
tp240
a(I38
I25
I0
S'only'
p241
I1
tp242
a(I38
I26
I0
S'most'
p243
I1
tp244
a(I38
I26
F0.875
S'important'
p245
I1
tp246
a(I41
I8
F1.0
S'good'
p247
I1
tp248
a(I55
I6
F1.0
S'good'
p249
I1
tp250
a(I63
I27
F0.625
S'easy'
p251
I1
tp252
a(I68
I2
I0
S'great'
p253
I1
tp254
a(I71
I70
I0
S'great'
p255
I1
tp256
as(S'contact'
p257
S'list'
p258
tp259
(lp260
(I73
I17
F0.375
S'complete'
p261
I0
tp262
as(S'key'
p263
S'board'
p264
tp265
(lp266
(I10
I35
I0
S'full'
p267
I0
tp268
a(I10
I35
F0.125
S'key'
p269
I0
tp270
a(I10
I35
I0
S'great'
p271
I0
tp272
a(I70
I65
F0.125
S'key'
p273
I0
tp274
a(I74
I12
F0.125
S'key'
p275
I0
tp276
as(S'battery'
p277
S'life'
p278
tp279
(lp280
(I3
I2
F-0.625
S'bad'
p281
I1
tp282
a(I17
I45
I0
S'adequate'
p283
I1
tp284
a(I17
I45
F0.125
S'spectacular'
p285
I1
tp286
a(I25
I26
F0.625
S'decent'
p287
I1
tp288
a(I29
I15
F0.375
S'much'
p289
I1
tp290
a(I34
I4
F0.125
S'able'
p291
I1
tp292
a(I34
I29
I0
S'great'
p293
I1
tp294
a(I36
I14
F-0.75
S'short'
p295
I1
tp296
a(I40
I16
I0
S'great'
p297
I1
tp298
a(I40
I16
I0
S'great'
p299
I1
tp300
a(I50
I1
F-0.75
S'short'
p301
I1
tp302
a(I54
I33
F0.125
S'last'
p303
I1
tp304
a(I54
I33
F-0.5
S'long'
p305
I1
tp306
a(I64
I5
F1.0
S'good'
p307
I1
tp308
a(I67
I3
F1.0
S'good'
p309
I1
tp310
a(I74
I34
F-0.75
S'short'
p311
I1
tp312
a(I12
I111
F-0.5
S'sure'
p313
I19
tp314
a(I12
I111
F0.625
S'easy'
p315
I19
tp316
a(I12
I181
I0
S'most'
p317
I19
tp318
a(I17
I45
I0
g283
I19
tp319
a(I17
I45
F0.125
g285
I19
tp320
a(I25
I26
F0.625
g287
I19
tp321
a(I29
I15
F0.375
g289
I19
tp322
a(I34
I29
I0
g293
I19
tp323
a(I40
I16
I0
g299
I19
tp324
a(I50
I1
F-0.75
g301
I19
tp325
a(I53
I10
I0
S'such'
p326
I19
tp327
a(I54
I33
F0.125
g303
I19
tp328
a(I54
I33
F-0.5
g305
I19
tp329
a(I67
I3
F1.0
g309
I19
tp330
a(I74
I34
F-0.75
g311
I19
tp331
as(S'env'
p332
S'touch'
p333
S'vx11000'
p334
tp335
(lp336
(I34
I21
F0.125
S'first'
p337
I0
tp338
a(I17
I5
I0
S'old'
p339
I0
tp340
a(I17
I7
F0.375
S'new'
p341
I0
tp342
a(I29
I6
I0
S'great'
p343
I0
tp344
a(I34
I21
F0.125
g337
I0
tp345
as(S'iphone'
p346
tp347
(lp348
(I3
I15
F0.125
S'first'
p349
I1
tp350
a(I3
I15
I0
S'many'
p351
I1
tp352
a(I3
I64
F-0.25
S'higher'
p353
I1
tp354
a(I3
I65
I0
S'same'
p355
I1
tp356
a(I3
I69
F0.375
S'similar'
p357
I1
tp358
a(I3
I95
F0.125
S'able'
p359
I1
tp360
a(I12
I47
F-0.375
S'small'
p361
I1
tp362
a(I15
I15
I0
S'own'
p363
I1
tp364
a(I55
I6
I0
S'android'
p365
I1
tp366
a(I72
I5
F0.875
S'nice'
p367
I1
tp368
as(S'lg'
p369
S'env'
p370
tp371
(lp372
(I17
I16
I0
S'old'
p373
I0
tp374
a(I55
I2
I0
S'old'
p375
I0
tp376
as(S'a'
p377
S'touch'
p378
S'screen'
p379
tp380
(lp381
(I0
I4
I0
S'resistive'
p382
I0
tp383
a(I3
I2
F-0.625
g21
I0
tp384
a(I3
I41
I0
g23
I0
tp385
a(I3
I41
F0.5
g25
I0
tp386
a(I3
I51
I0
g27
I0
tp387
a(I3
I51
I0
g29
I0
tp388
a(I3
I56
F0.5
S'touch'
p389
I0
tp390
a(I3
I71
I0
g31
I0
tp391
a(I3
I73
F0.5
g33
I0
tp392
a(I3
I88
F0.5
g35
I0
tp393
a(I3
I88
F-0.5
g37
I0
tp394
a(I3
I100
F0.5
S'touch'
p395
I0
tp396
a(I3
I102
F0.5
S'touch'
p397
I0
tp398
a(I4
I11
F0.5
g39
I0
tp399
a(I4
I18
F0.5
g41
I0
tp400
a(I4
I28
F0.5
g43
I0
tp401
a(I6
I0
F0.5
S'touch'
p402
I0
tp403
a(I6
I1
F0.5
S'touch'
p404
I0
tp405
a(I6
I1
F0.875
S'important'
p406
I0
tp407
a(I6
I9
F0.125
S'first'
p408
I0
tp409
a(I6
I38
F0.25
g45
I0
tp410
a(I10
I40
F0.5
g47
I0
tp411
a(I11
I15
F0.25
g49
I0
tp412
a(I12
I43
F0.5
g51
I0
tp413
a(I12
I47
F0.5
g53
I0
tp414
a(I12
I67
F0.5
S'touch'
p415
I0
tp416
a(I12
I78
F0.5
g55
I0
tp417
a(I12
I83
F0.5
S'touch'
p418
I0
tp419
a(I12
I83
F0.625
S'correct'
p420
I0
tp421
a(I12
I164
F0.5
S'touch'
p422
I0
tp423
a(I12
I164
I0
S'least'
p424
I0
tp425
a(I12
I189
F0.5
S'touch'
p426
I0
tp427
a(I13
I7
F0.5
S'touch'
p428
I0
tp429
a(I17
I18
F0.5
S'touch'
p430
I0
tp431
a(I17
I18
I0
S'great'
p432
I0
tp433
a(I17
I27
F0.5
S'touch'
p434
I0
tp435
a(I17
I47
F0.5
S'touch'
p436
I0
tp437
a(I17
I49
F0.5
S'touch'
p438
I0
tp439
a(I18
I6
F0.5
g57
I0
tp440
a(I18
I6
F0.875
g59
I0
tp441
a(I19
I16
I0
g61
I0
tp442
a(I19
I16
F0.5
g63
I0
tp443
a(I22
I13
F0.5
g65
I0
tp444
a(I22
I29
F0.5
S'touch'
p445
I0
tp446
a(I22
I31
F0.5
S'touch'
p447
I0
tp448
a(I25
I2
F0.5
S'touch'
p449
I0
tp450
a(I25
I4
F0.5
S'touch'
p451
I0
tp452
a(I25
I25
F-0.75
g67
I0
tp453
a(I26
I17
F1.0
g69
I0
tp454
a(I26
I17
F0.5
g71
I0
tp455
a(I26
I17
F0.625
g73
I0
tp456
a(I29
I26
F0.5
S'touch'
p457
I0
tp458
a(I30
I3
F0.5
g75
I0
tp459
a(I32
I8
F0.5
g77
I0
tp460
a(I32
I18
F0.5
S'touch'
p461
I0
tp462
a(I34
I9
F0.5
S'touch'
p463
I0
tp464
a(I38
I21
I0
g79
I0
tp465
a(I38
I22
F0.5
g81
I0
tp466
a(I41
I6
F0.5
S'touch'
p467
I0
tp468
a(I41
I31
F1.0
S'good'
p469
I0
tp470
a(I43
I0
F0.5
S'touch'
p471
I0
tp472
a(I43
I2
F0.5
S'touch'
p473
I0
tp474
a(I43
I2
F-0.625
S'other'
p475
I0
tp476
a(I46
I25
F0.5
S'touch'
p477
I0
tp478
a(I47
I7
F0.125
S'first'
p479
I0
tp480
a(I47
I54
F0.5
g83
I0
tp481
a(I50
I20
F0.5
S'touch'
p482
I0
tp483
a(I51
I18
F0.75
S'due'
p484
I0
tp485
a(I51
I18
I0
S'sensitive'
p486
I0
tp487
a(I53
I43
F0.5
g85
I0
tp488
a(I53
I66
F0.875
S'nice'
p489
I0
tp490
a(I53
I66
I0
S'external'
p491
I0
tp492
a(I55
I1
F0.5
g87
I0
tp493
a(I55
I4
F0.5
g89
I0
tp494
a(I55
I11
F0.875
S'nice'
p495
I0
tp496
a(I59
I0
F0.5
S'touch'
p497
I0
tp498
a(I59
I19
F0.5
S'touch'
p499
I0
tp500
a(I59
I41
F0.5
S'touch'
p501
I0
tp502
a(I59
I41
F-0.25
S'dropped'
p503
I0
tp504
a(I66
I11
F0.125
g91
I0
tp505
a(I66
I11
F0.5
g93
I0
tp506
a(I66
I15
I0
S'next'
p507
I0
tp508
a(I66
I15
I0
S'different'
p509
I0
tp510
a(I68
I2
F0.875
g95
I0
tp511
a(I68
I25
F0.5
g97
I0
tp512
a(I70
I32
F-0.75
S'impossible'
p513
I0
tp514
a(I70
I51
F0.5
S'touch'
p515
I0
tp516
a(I70
I65
F0.5
S'touch'
p517
I0
tp518
a(I70
I65
F0.5
S'touch'
p519
I0
tp520
a(I71
I7
F0.5
S'touch'
p521
I0
tp522
a(I71
I56
F0.5
g99
I0
tp523
a(I72
I9
I0
g101
I0
tp524
a(I73
I22
F0.5
S'touch'
p525
I0
tp526
a(I74
I13
F0.5
S'touch'
p527
I0
tp528
a(I74
I27
F0.5
S'touch'
p529
I0
tp530
a(I74
I29
F-0.375
g103
I0
tp531
a(I74
I32
F0.5
g105
I0
tp532
a(I74
I35
F0.5
S'touch'
p533
I0
tp534
as(S'new'
p535
S'in'
p536
S'box'
p537
tp538
(lp539
(I12
I29
F0.375
S'new'
p540
I0
tp541
a(I12
I172
F0.375
S'new'
p542
I0
tp543
as(S'front'
p544
S'touch'
p545
S'screen'
p546
tp547
(lp548
(I17
I47
F0.5
g436
I0
tp549
a(I74
I32
F0.5
g105
I0
tp550
a(I74
I32
F0.25
S'bigger'
p551
I0
tp552
as(S'inside'
p553
tp554
(lp555
(I22
I8
F0.875
S'nice'
p556
I16
tp557
as(S'hold'
p558
g377
S'charge'
p559
tp560
(lp561
(I3
I53
F0.625
S'fair'
p562
I0
tp563
a(I10
I40
F1.0
S'good'
p564
I0
tp565
a(I23
I12
I0
S'full'
p566
I0
tp567
a(I34
I21
I0
S'more'
p568
I0
tp569
a(I63
I13
I0
S'full'
p570
I0
tp571
a(I71
I16
F-0.5
S'longer'
p572
I0
tp573
a(I74
I16
I0
S'more'
p574
I0
tp575
as(S'contract'
p576
tp577
(lp578
(I67
I13
F0.375
S'new'
p579
I0
tp580
a(I70
I23
F0.125
S'renewal'
p581
I0
tp582
as(S'touch'
p583
S'screen'
p584
S'works'
p585
tp586
(lp587
(I3
I51
I0
g27
I0
tp588
a(I3
I51
I0
g29
I0
tp589
a(I3
I57
I0
S'great'
p590
I0
tp591
a(I12
I164
F0.5
g422
I0
tp592
a(I12
I164
I0
g424
I0
tp593
a(I18
I6
F0.5
g57
I0
tp594
a(I18
I6
F0.875
g59
I0
tp595
a(I25
I4
F0.5
g451
I0
tp596
a(I43
I24
F1.0
S'good'
p597
I0
tp598
a(I55
I1
F0.5
g87
I0
tp599
a(I55
I4
F0.5
g89
I0
tp600
a(I55
I4
I0
S'sensitive'
p601
I0
tp602
a(I3
I51
I0
g29
I0
tp603
a(I3
I57
I0
g590
I0
tp604
a(I12
I164
F0.5
g422
I0
tp605
a(I12
I164
I0
g424
I0
tp606
a(I18
I6
F0.5
g57
I0
tp607
a(I18
I6
F0.875
g59
I0
tp608
a(I25
I4
F0.5
g451
I0
tp609
a(I25
I14
F0.625
S'easy'
p610
I0
tp611
a(I43
I24
F1.0
g597
I0
tp612
a(I55
I1
F0.5
g87
I0
tp613
a(I55
I4
F0.5
g89
I0
tp614
a(I55
I4
I0
g601
I0
tp615
as(S'times'
p616
g377
S'day'
p617
tp618
(lp619
(I29
I28
I0
S'least'
p620
I0
tp621
as(S'on'
p622
S'touch'
p623
S'screen'
p624
tp625
(lp626
(I0
I4
I0
g382
I0
tp627
a(I3
I2
F-0.625
g21
I0
tp628
a(I3
I56
F0.5
g389
I0
tp629
a(I3
I73
F0.5
g33
I0
tp630
a(I3
I88
F0.5
g35
I0
tp631
a(I3
I88
F-0.5
g37
I0
tp632
a(I3
I102
F0.5
g397
I0
tp633
a(I4
I11
F0.5
g39
I0
tp634
a(I4
I18
F0.5
g41
I0
tp635
a(I4
I28
F0.5
g43
I0
tp636
a(I6
I0
F0.5
g402
I0
tp637
a(I6
I1
F0.5
g404
I0
tp638
a(I6
I1
F0.875
g406
I0
tp639
a(I6
I9
F0.125
g408
I0
tp640
a(I6
I38
F0.25
g45
I0
tp641
a(I10
I40
F0.5
g47
I0
tp642
a(I11
I15
F0.25
g49
I0
tp643
a(I12
I47
F0.5
g53
I0
tp644
a(I12
I67
F0.5
g415
I0
tp645
a(I12
I189
F0.5
g426
I0
tp646
a(I13
I7
F0.5
g428
I0
tp647
a(I17
I27
F0.5
g434
I0
tp648
a(I17
I47
F0.5
g436
I0
tp649
a(I17
I49
F0.5
g438
I0
tp650
a(I19
I16
I0
g61
I0
tp651
a(I19
I16
F0.5
g63
I0
tp652
a(I22
I13
F0.5
g65
I0
tp653
a(I22
I31
F0.5
g447
I0
tp654
a(I25
I2
F0.5
g449
I0
tp655
a(I25
I25
F-0.75
g67
I0
tp656
a(I26
I17
F1.0
g69
I0
tp657
a(I26
I17
F0.5
g71
I0
tp658
a(I26
I17
F0.625
g73
I0
tp659
a(I29
I26
F0.5
g457
I0
tp660
a(I30
I3
F0.5
g75
I0
tp661
a(I32
I8
F0.5
g77
I0
tp662
a(I32
I18
F0.5
g461
I0
tp663
a(I34
I9
F0.5
g463
I0
tp664
a(I38
I21
I0
g79
I0
tp665
a(I38
I22
F0.5
g81
I0
tp666
a(I41
I6
F0.5
g467
I0
tp667
a(I43
I2
F0.5
g473
I0
tp668
a(I43
I2
F-0.625
g475
I0
tp669
a(I46
I25
F0.5
g477
I0
tp670
a(I47
I54
F0.5
g83
I0
tp671
a(I50
I20
F0.5
g482
I0
tp672
a(I51
I18
F0.75
g484
I0
tp673
a(I51
I18
I0
g486
I0
tp674
a(I53
I43
F0.5
g85
I0
tp675
a(I53
I66
F0.875
g489
I0
tp676
a(I53
I66
I0
g491
I0
tp677
a(I55
I1
F0.5
g87
I0
tp678
a(I55
I4
F0.5
g89
I0
tp679
a(I55
I11
F0.875
g495
I0
tp680
a(I59
I19
F0.5
g499
I0
tp681
a(I68
I25
F0.5
g97
I0
tp682
a(I70
I32
F-0.75
g513
I0
tp683
a(I70
I51
F0.5
g515
I0
tp684
a(I70
I65
F0.5
g517
I0
tp685
a(I70
I65
F0.5
g519
I0
tp686
a(I71
I7
F0.5
g521
I0
tp687
a(I73
I22
F0.5
g525
I0
tp688
a(I74
I13
F0.5
g527
I0
tp689
a(I74
I27
F0.5
g529
I0
tp690
a(I74
I29
F-0.375
g103
I0
tp691
a(I74
I32
F0.5
g105
I0
tp692
a(I74
I35
F0.5
g533
I0
tp693
as(S'keyboard'
p694
S'for'
p695
S'texting'
p696
tp697
(lp698
(I11
I15
I0
S'great'
p699
I0
tp700
a(I34
I17
F0.625
S'positive'
p701
I0
tp702
a(I34
I17
I0
S'great'
p703
I0
tp704
a(I40
I13
I0
S'great'
p705
I0
tp706
a(I50
I30
F1.0
S'good'
p707
I0
tp708
a(I34
I17
F0.625
g701
I0
tp709
a(I34
I17
I0
g703
I0
tp710
a(I39
I5
I0
S'great'
p711
I0
tp712
a(I53
I70
I0
S'great'
p713
I0
tp714
a(I64
I5
F1.0
S'good'
p715
I0
tp716
a(I71
I39
I0
S'great'
p717
I0
tp718
a(I0
I6
I0
S'great'
p719
I2
tp720
a(I0
I39
F-0.5
S'open'
p721
I2
tp722
a(I6
I20
F0.625
S'easy'
p723
I2
tp724
a(I6
I20
F-0.625
S'other'
p725
I2
tp726
a(I6
I20
F-0.875
S'bother'
p727
I2
tp728
a(I6
I32
I0
S'full'
p729
I2
tp730
a(I6
I32
F-0.625
S'glad'
p731
I2
tp732
a(I6
I37
I0
S'full'
p733
I2
tp734
a(I6
I37
I0
S'physical'
p735
I2
tp736
a(I6
I42
I0
S'touchscreen'
p737
I2
tp738
a(I11
I15
I0
g699
I2
tp739
a(I12
I135
F0.875
S'nice'
p740
I2
tp741
a(I13
I3
F0.625
S'easy'
p742
I2
tp743
a(I17
I12
I0
S'full'
p744
I2
tp745
a(I22
I10
I0
S'great'
p746
I2
tp747
a(I25
I15
F-0.375
S'simple'
p748
I2
tp749
a(I32
I33
I0
S'large'
p750
I2
tp751
a(I33
I0
F-0.375
S'small'
p752
I2
tp753
a(I38
I20
F0.25
S'larger'
p754
I2
tp755
a(I38
I28
I0
S'physical'
p756
I2
tp757
a(I38
I30
F1.0
S'best'
p758
I2
tp759
a(I38
I34
I0
S'full'
p760
I2
tp761
a(I40
I13
I0
g705
I2
tp762
a(I43
I23
I0
S'handy'
p763
I2
tp764
a(I43
I23
F0.625
S'easy'
p765
I2
tp766
a(I46
I20
I0
S'touchscreen'
p767
I2
tp768
a(I47
I41
F0.25
S'bigger'
p769
I2
tp770
a(I50
I30
F1.0
g707
I2
tp771
a(I67
I2
I0
S'physical'
p772
I2
tp773
a(I71
I67
F1.0
S'good'
p774
I2
tp775
as(S'good'
p776
S'condition'
p777
tp778
(lp779
(I3
I53
F1.0
S'good'
p780
I6
tp781
a(I3
I99
F1.0
S'good'
p782
I6
tp783
a(I5
I4
F1.0
S'good'
p784
I6
tp785
a(I5
I6
F1.0
S'good'
p786
I6
tp787
a(I16
I0
F1.0
S'good'
p788
I6
tp789
a(I41
I3
F1.0
S'good'
p790
I6
tp791
a(I41
I3
F0.375
S'new'
p792
I6
tp793
a(I43
I6
F1.0
S'good'
p794
I6
tp795
a(I43
I13
F1.0
S'good'
p796
I6
tp797
a(I47
I24
F1.0
S'good'
p798
I6
tp799
a(I51
I15
F1.0
S'good'
p800
I6
tp801
a(I51
I15
F0.375
S'new'
p802
I6
tp803
a(I53
I18
F1.0
S'good'
p804
I6
tp805
as(S'for'
p806
S'touch'
p807
S'screen'
p808
tp809
(lp810
(I4
I18
F0.5
g41
I0
tp811
a(I11
I15
F0.25
g49
I0
tp812
a(I12
I43
F0.5
g51
I0
tp813
a(I12
I67
F0.5
g415
I0
tp814
a(I12
I78
F0.5
g55
I0
tp815
a(I12
I189
F0.5
g426
I0
tp816
a(I13
I7
F0.5
g428
I0
tp817
a(I19
I16
I0
g61
I0
tp818
a(I19
I16
F0.5
g63
I0
tp819
a(I26
I17
F1.0
g69
I0
tp820
a(I26
I17
F0.5
g71
I0
tp821
a(I26
I17
F0.625
g73
I0
tp822
a(I38
I22
F0.5
g81
I0
tp823
a(I53
I66
F0.875
g489
I0
tp824
a(I53
I66
I0
g491
I0
tp825
a(I55
I4
F0.5
g89
I0
tp826
a(I55
I11
F0.875
g495
I0
tp827
a(I66
I15
I0
g507
I0
tp828
a(I66
I15
I0
g509
I0
tp829
a(I70
I65
F0.5
g517
I0
tp830
a(I70
I65
F0.5
g519
I0
tp831
a(I71
I7
F0.5
g521
I0
tp832
a(I74
I13
F0.5
g527
I0
tp833
a(I74
I32
F0.5
g105
I0
tp834
as(S'replacement'
p835
tp836
(lp837
(I17
I33
I0
S'cool'
p838
I13
tp839
a(I32
I29
F0.5
S'second'
p840
I13
tp841
a(I32
I29
I0
S'earliest'
p842
I13
tp843
as(S'calls'
p844
tp845
(lp846
(I17
I37
I0
S'great'
p847
I0
tp848
a(I17
I37
I0
S'same'
p849
I0
tp850
a(I19
I13
I0
S'few'
p851
I0
tp852
as(S'amazon'
p853
tp854
(lp855
(I12
I69
F0.375
S'new'
p856
I13
tp857
a(I27
I0
F0.375
S'confident'
p858
I13
tp859
a(I50
I5
F0.375
S'new'
p860
I13
tp861
a(I67
I12
F0.375
S'new'
p862
I13
tp863
as(S'use'
p864
S'touch'
p865
S'screen'
p866
tp867
(lp868
(I3
I102
F0.5
g397
I0
tp869
a(I4
I18
F0.5
g41
I0
tp870
a(I6
I38
F0.25
g45
I0
tp871
a(I12
I47
F0.5
g53
I0
tp872
a(I12
I67
F0.5
g415
I0
tp873
a(I13
I7
F0.5
g428
I0
tp874
a(I26
I17
F1.0
g69
I0
tp875
a(I26
I17
F0.5
g71
I0
tp876
a(I26
I17
F0.625
g73
I0
tp877
a(I30
I3
F0.5
g75
I0
tp878
a(I32
I8
F0.5
g77
I0
tp879
a(I32
I18
F0.5
g461
I0
tp880
a(I38
I22
F0.5
g81
I0
tp881
a(I53
I43
F0.5
g85
I0
tp882
a(I53
I66
F0.875
g489
I0
tp883
a(I53
I66
I0
g491
I0
tp884
a(I59
I19
F0.5
g499
I0
tp885
a(I70
I32
F-0.75
g513
I0
tp886
a(I70
I65
F0.5
g517
I0
tp887
a(I70
I65
F0.5
g519
I0
tp888
a(I74
I13
F0.5
g527
I0
tp889
a(I74
I29
F-0.375
g103
I0
tp890
a(I0
I4
I0
g382
I2
tp891
a(I3
I2
F-0.625
g21
I2
tp892
a(I3
I41
I0
g23
I2
tp893
a(I3
I41
F0.5
g25
I2
tp894
a(I3
I51
I0
g27
I2
tp895
a(I3
I51
I0
g29
I2
tp896
a(I3
I56
F0.5
g389
I2
tp897
a(I3
I71
I0
g31
I2
tp898
a(I3
I73
F0.5
g33
I2
tp899
a(I3
I88
F0.5
g35
I2
tp900
a(I3
I88
F-0.5
g37
I2
tp901
a(I3
I100
F0.5
g395
I2
tp902
a(I3
I102
F0.5
g397
I2
tp903
a(I4
I11
F0.5
g39
I2
tp904
a(I4
I18
F0.5
g41
I2
tp905
a(I4
I28
F0.5
g43
I2
tp906
a(I6
I0
F0.5
g402
I2
tp907
a(I6
I1
F0.5
g404
I2
tp908
a(I6
I1
F0.875
g406
I2
tp909
a(I6
I9
F0.125
g408
I2
tp910
a(I6
I27
F-0.5
S'open'
p911
I2
tp912
a(I6
I38
F0.25
g45
I2
tp913
a(I10
I40
F0.5
g47
I2
tp914
a(I11
I15
F0.25
g49
I2
tp915
a(I12
I43
F0.5
g51
I2
tp916
a(I12
I47
F0.5
g53
I2
tp917
a(I12
I67
F0.5
g415
I2
tp918
a(I12
I78
F0.5
g55
I2
tp919
a(I12
I83
F0.5
g418
I2
tp920
a(I12
I83
F0.625
g420
I2
tp921
a(I12
I164
F0.5
g422
I2
tp922
a(I12
I164
I0
g424
I2
tp923
a(I12
I189
F0.5
g426
I2
tp924
a(I13
I7
F0.5
g428
I2
tp925
a(I17
I18
F0.5
g430
I2
tp926
a(I17
I18
I0
g432
I2
tp927
a(I17
I27
F0.5
g434
I2
tp928
a(I17
I47
F0.5
g436
I2
tp929
a(I17
I49
F0.5
g438
I2
tp930
a(I17
I50
F0.5
S'touch'
p931
I2
tp932
a(I18
I6
F0.5
g57
I2
tp933
a(I18
I6
F0.875
g59
I2
tp934
a(I19
I16
I0
g61
I2
tp935
a(I19
I16
F0.5
g63
I2
tp936
a(I22
I13
F0.5
g65
I2
tp937
a(I22
I29
F0.5
g445
I2
tp938
a(I22
I31
F0.5
g447
I2
tp939
a(I25
I2
F0.5
g449
I2
tp940
a(I25
I4
F0.5
g451
I2
tp941
a(I25
I25
F-0.75
g67
I2
tp942
a(I26
I17
F1.0
g69
I2
tp943
a(I26
I17
F0.5
g71
I2
tp944
a(I26
I17
F0.625
g73
I2
tp945
a(I29
I26
F0.5
g457
I2
tp946
a(I30
I3
F0.5
g75
I2
tp947
a(I32
I8
F0.5
g77
I2
tp948
a(I32
I18
F0.5
g461
I2
tp949
a(I34
I9
F0.5
g463
I2
tp950
a(I38
I21
I0
g79
I2
tp951
a(I38
I22
F0.5
g81
I2
tp952
a(I41
I6
F0.5
g467
I2
tp953
a(I41
I31
F1.0
g469
I2
tp954
a(I43
I0
F0.5
g471
I2
tp955
a(I43
I2
F0.5
g473
I2
tp956
a(I43
I2
F-0.625
g475
I2
tp957
a(I46
I25
F0.5
g477
I2
tp958
a(I47
I7
F0.125
g479
I2
tp959
a(I47
I54
F0.5
g83
I2
tp960
a(I50
I20
F0.5
g482
I2
tp961
a(I51
I18
F0.75
g484
I2
tp962
a(I51
I18
I0
g486
I2
tp963
a(I53
I43
F0.5
g85
I2
tp964
a(I53
I66
F0.875
g489
I2
tp965
a(I53
I66
I0
g491
I2
tp966
a(I55
I1
F0.5
g87
I2
tp967
a(I55
I4
F0.5
g89
I2
tp968
a(I55
I11
F0.875
g495
I2
tp969
a(I59
I0
F0.5
g497
I2
tp970
a(I59
I19
F0.5
g499
I2
tp971
a(I59
I41
F0.5
g501
I2
tp972
a(I59
I41
F-0.25
g503
I2
tp973
a(I66
I4
F0.5
S'touch'
p974
I2
tp975
a(I66
I11
F0.125
g91
I2
tp976
a(I66
I11
F0.5
g93
I2
tp977
a(I66
I15
I0
g507
I2
tp978
a(I66
I15
I0
g509
I2
tp979
a(I68
I2
F0.875
g95
I2
tp980
a(I68
I25
F0.5
g97
I2
tp981
a(I70
I32
F-0.75
g513
I2
tp982
a(I70
I51
F0.5
g515
I2
tp983
a(I70
I65
F0.5
g517
I2
tp984
a(I70
I65
F0.5
g519
I2
tp985
a(I71
I7
F0.5
g521
I2
tp986
a(I71
I56
F0.5
g99
I2
tp987
a(I72
I9
I0
g101
I2
tp988
a(I73
I22
F0.5
g525
I2
tp989
a(I74
I13
F0.5
g527
I2
tp990
a(I74
I27
F0.5
g529
I2
tp991
a(I74
I29
F-0.375
g103
I2
tp992
a(I74
I32
F0.5
g105
I2
tp993
a(I74
I35
F0.5
g533
I2
tp994
as(S'sd'
p995
S'card'
p996
tp997
(lp998
(I12
I48
F0.625
S'removable'
p999
I0
tp1000
as(S'want'
p1001
g377
S'smart'
p1002
tp1003
(lp1004
(I13
I2
I0
S'cool'
p1005
I0
tp1006
a(I46
I25
F-0.25
S'let'
p1007
I0
tp1008
a(I3
I43
I0
S'switch'
p1009
I10
tp1010
a(I12
I198
I0
S'basic'
p1011
I10
tp1012
a(I13
I2
I0
g1005
I10
tp1013
a(I46
I25
F-0.25
g1007
I10
tp1014
a(I69
I2
F-0.75
S'tough'
p1015
I10
tp1016
a(I69
I2
I0
S'great'
p1017
I10
tp1018
a(I69
I2
F0.125
S'first'
p1019
I10
tp1020
a(I72
I12
I0
S'real'
p1021
I10
tp1022
as(g377
S'qwerty'
p1023
S'keyboard'
p1024
tp1025
(lp1026
(I6
I20
F0.625
g723
I0
tp1027
a(I6
I20
F-0.625
g725
I0
tp1028
a(I6
I20
F-0.875
g727
I0
tp1029
a(I17
I44
I0
S'internal'
p1030
I0
tp1031
a(I34
I22
F1.0
S'best'
p1032
I0
tp1033
a(I34
I22
I0
S'physical'
p1034
I0
tp1035
a(I41
I15
I0
S'hinged'
p1036
I0
tp1037
a(I6
I20
F0.625
g723
I0
tp1038
a(I6
I20
F-0.625
g725
I0
tp1039
a(I6
I20
F-0.875
g727
I0
tp1040
a(I17
I44
I0
g1030
I0
tp1041
a(I34
I22
F1.0
g1032
I0
tp1042
a(I34
I22
I0
g1034
I0
tp1043
a(I41
I15
I0
g1036
I0
tp1044
a(I12
I166
F0.125
S'key'
p1045
I0
tp1046
a(I17
I44
I0
g1030
I0
tp1047
a(I22
I8
I0
S'full'
p1048
I0
tp1049
a(I34
I22
F1.0
g1032
I0
tp1050
a(I34
I22
I0
g1034
I0
tp1051
a(I41
I15
I0
g1036
I0
tp1052
a(I63
I8
I0
S'basic'
p1053
I0
tp1054
as(g377
S'new'
p1055
S'battery'
p1056
tp1057
(lp1058
(I3
I84
F0.375
S'new'
p1059
I1
tp1060
a(I10
I24
F0.375
S'new'
p1061
I1
tp1062
a(I10
I41
F0.375
S'new'
p1063
I1
tp1064
a(I12
I14
F0.375
S'new'
p1065
I1
tp1066
a(I12
I16
F0.375
S'new'
p1067
I1
tp1068
a(I12
I122
F0.375
S'new'
p1069
I1
tp1070
a(I38
I2
F0.375
S'new'
p1071
I1
tp1072
a(I53
I52
F0.375
S'new'
p1073
I1
tp1074
a(I68
I21
I0
S'own'
p1075
I1
tp1076
a(I68
I21
F0.375
S'new'
p1077
I1
tp1078
a(I70
I58
F-0.5
S'long'
p1079
I1
tp1080
a(I70
I58
F0.375
S'new'
p1081
I1
tp1082
a(I71
I17
F0.375
S'new'
p1083
I1
tp1084
a(I74
I25
F0.375
S'new'
p1085
I1
tp1086
a(I3
I84
F0.375
g1059
I1
tp1087
a(I10
I24
F0.375
g1061
I1
tp1088
a(I10
I41
F0.375
g1063
I1
tp1089
a(I12
I14
F0.375
g1065
I1
tp1090
a(I12
I16
F0.375
g1067
I1
tp1091
a(I12
I122
F0.375
g1069
I1
tp1092
a(I38
I2
F0.375
g1071
I1
tp1093
a(I53
I52
F0.375
g1073
I1
tp1094
a(I68
I21
I0
g1075
I1
tp1095
a(I68
I21
F0.375
g1077
I1
tp1096
a(I70
I58
F-0.5
g1079
I1
tp1097
a(I70
I58
F0.375
g1081
I1
tp1098
a(I71
I17
F0.375
g1083
I1
tp1099
a(I74
I25
F0.375
g1085
I1
tp1100
a(I0
I27
F-0.667
S'incompatible'
p1101
I15
tp1102
a(I0
I31
F0.375
S'extra'
p1103
I15
tp1104
a(I3
I2
F-0.625
g281
I15
tp1105
a(I3
I12
I0
S'critical'
p1106
I15
tp1107
a(I3
I53
I0
S'own'
p1108
I15
tp1109
a(I3
I74
I0
S'external'
p1110
I15
tp1111
a(I3
I84
F0.375
g1059
I15
tp1112
a(I6
I53
F-0.625
S'bad'
p1113
I15
tp1114
a(I7
I38
I0
S'anymore'
p1115
I15
tp1116
a(I10
I24
F0.375
g1061
I15
tp1117
a(I10
I40
I0
S'great'
p1118
I15
tp1119
a(I10
I41
F0.375
g1063
I15
tp1120
a(I12
I14
F0.375
g1065
I15
tp1121
a(I12
I16
F0.375
g1067
I15
tp1122
a(I12
I26
F-0.625
S'bad'
p1123
I15
tp1124
a(I12
I122
F0.375
g1069
I15
tp1125
a(I15
I0
F0.375
S'extra'
p1126
I15
tp1127
a(I15
I0
F0.625
S'aware'
p1128
I15
tp1129
a(I22
I47
F-0.875
S'awful'
p1130
I15
tp1131
a(I34
I4
F0.125
g291
I15
tp1132
a(I36
I14
F-0.75
g295
I15
tp1133
a(I38
I2
F0.375
g1071
I15
tp1134
a(I40
I16
I0
g297
I15
tp1135
a(I53
I20
F1.0
S'good'
p1136
I15
tp1137
a(I53
I47
F-0.625
S'bad'
p1138
I15
tp1139
a(I53
I51
I0
S'only'
p1140
I15
tp1141
a(I53
I52
F0.375
g1073
I15
tp1142
a(I54
I37
F0.125
S'supplied'
p1143
I15
tp1144
a(I55
I5
F-0.5
S'open'
p1145
I15
tp1146
a(I56
I4
F1.0
S'better'
p1147
I15
tp1148
a(I64
I5
F1.0
g307
I15
tp1149
a(I68
I21
I0
g1075
I15
tp1150
a(I68
I21
F0.375
g1077
I15
tp1151
a(I70
I58
F-0.5
g1079
I15
tp1152
a(I70
I58
F0.375
g1081
I15
tp1153
a(I71
I17
F0.375
g1083
I15
tp1154
a(I71
I74
F-0.625
S'bad'
p1155
I15
tp1156
a(I71
I74
F0.375
S'extra'
p1157
I15
tp1158
a(I74
I19
F-0.25
S'low'
p1159
I15
tp1160
a(I74
I25
F0.375
g1085
I15
tp1161
as(g377
S'data'
p1162
S'plan'
p1163
tp1164
(lp1165
(I7
I1
I0
S'more'
p1166
I0
tp1167
a(I45
I2
I0
S'monthly'
p1168
I0
tp1169
a(I55
I11
F0.5
S'expensive'
p1170
I0
tp1171
a(I70
I58
F0.375
S'extra'
p1172
I0
tp1173
a(I71
I32
F-0.5
S'miss'
p1174
I0
tp1175
as(S'negative'
p1176
S'reviews'
p1177
tp1178
(lp1179
(I6
I30
F-0.875
S'negative'
p1180
I3
tp1181
a(I12
I36
F-0.875
S'negative'
p1182
I3
tp1183
a(I71
I4
I0
S'more'
p1184
I3
tp1185
a(I71
I4
F-0.875
S'negative'
p1186
I3
tp1187
a(I71
I4
F0.625
S'positive'
p1188
I3
tp1189
as(S'customer'
p1190
S'service'
p1191
tp1192
(lp1193
(I0
I16
F1.0
g200
I3
tp1194
a(I76
I5
F1.0
S'good'
p1195
I3
tp1196
as(S'pocket'
p1197
tp1198
(lp1199
(I29
I26
I0
S'fabric'
p1200
I17
tp1201
a(I38
I21
I0
S'such'
p1202
I17
tp1203
a(I59
I2
F-0.75
S'uncomfortable'
p1204
I17
tp1205
a(I59
I2
F0.75
S'due'
p1206
I17
tp1207
a(I64
I35
I0
S'close'
p1208
I17
tp1209
as(S'sometimes'
p1210
tp1211
(lp1212
(I47
I0
F-0.875
S'hard'
p1213
I17
tp1214
as(S'no'
p1215
S'data'
p1216
S'plan'
p1217
tp1218
(lp1219
(I45
I2
I0
g1168
I0
tp1220
a(I70
I58
F0.375
g1172
I0
tp1221
a(I71
I32
F-0.5
g1174
I0
tp1222
a(I7
I1
I0
g1166
I0
tp1223
a(I45
I2
I0
g1168
I0
tp1224
a(I55
I11
F0.5
g1170
I0
tp1225
a(I70
I58
F0.375
g1172
I0
tp1226
a(I71
I32
F-0.5
g1174
I0
tp1227
a(I3
I49
I0
S'monthly'
p1228
I13
tp1229
a(I4
I0
F0.625
S'easy'
p1230
I13
tp1231
a(I5
I1
F0.375
S'worked'
p1232
I13
tp1233
a(I6
I29
I0
S'most'
p1234
I13
tp1235
a(I25
I9
F0.125
S'able'
p1236
I13
tp1237
a(I45
I2
I0
g1168
I13
tp1238
a(I55
I11
F0.5
g1170
I13
tp1239
a(I68
I33
I0
S'dormant'
p1240
I13
tp1241
a(I70
I58
F0.375
g1172
I13
tp1242
a(I71
I32
F-0.5
g1174
I13
tp1243
as(S'mp3'
p1244
S'player'
p1245
tp1246
(lp1247
(I12
I48
I0
S'great'
p1248
I1
tp1249
a(I59
I42
I0
S'great'
p1250
I1
tp1251
as.