(dp0
(S'model'
p1
tp2
(lp3
(I9
I2
F0.375
S'honest'
p4
tp5
a(I9
I2
I0
S'particular'
p6
tp7
a(I162
I2
F0.375
S'reliable'
p8
tp9
a(I316
I2
F0.375
S'honest'
p10
tp11
a(I316
I2
I0
S'particular'
p12
tp13
a(I326
I0
I0
S'same'
p14
tp15
a(I330
I1
I0
S'particular'
p16
tp17
as(S'ntilde'
p18
S'o'
p19
tp20
(lp21
(I7
I0
I0
S'al'
p22
tp23
a(I287
I1
I0
S'al'
p24
tp25
as(S'tel'
p26
S'eacute'
p27
S'fono'
p28
tp29
(lp30
(I0
I7
I0
S'ese'
p31
tp32
as(S'with'
p33
S'full'
p34
S'qwerty'
p35
tp36
(lp37
(I27
I2
I0
S'full'
p38
tp39
a(I204
I0
I0
S'full'
p40
tp41
a(I247
I2
I0
S'full'
p42
tp43
a(I291
I0
I0
S'full'
p44
tp45
a(I322
I0
I0
S'full'
p46
tp47
a(I322
I3
I0
S'full'
p48
tp49
as(S'key'
p50
S'pad'
p51
tp52
(lp53
(I78
I0
F0.5
S'touch'
p54
tp55
a(I303
I3
F0.125
S'key'
p56
tp57
a(I303
I5
F0.375
S'new'
p58
tp59
a(I303
I5
F0.125
S'key'
p60
tp61
a(I303
I7
F0.125
S'key'
p62
tp63
as(S'usb'
p64
S'cable'
p65
tp66
(lp67
(I9
I8
I0
S'cable'
p68
tp69
a(I9
I8
I0
S'female'
p70
tp71
a(I9
I19
I0
S'cable'
p72
tp73
a(I161
I11
I0
S'cable'
p74
tp75
a(I265
I0
I0
S'cable'
p76
tp77
as(S'little'
p78
tp79
(lp80
(I86
I0
F0.5
S'clear'
p81
tp82
as(S'que'
p83
S'el'
p84
tp85
(lp86
(I39
I0
F0.5
S'bold'
p87
tp88
a(I167
I0
I0
S'al'
p89
tp90
as(S'money'
p91
tp92
(lp93
(I122
I1
F0.125
S'enough'
p94
tp95
as(S'screen'
p96
tp97
(lp98
(I28
I5
F0.25
S'main'
p99
tp100
a(I164
I1
F-0.375
S'black'
p101
tp102
a(I164
I2
F-0.375
S'black'
p103
tp104
a(I164
I4
F-0.375
S'black'
p105
tp106
a(I207
I0
F-0.375
S'slightest'
p107
tp108
a(I208
I2
F-0.375
S'smaller'
p109
tp110
a(I262
I1
F0.5
S'technical'
p111
tp112
as(S'tel'
p113
S'eacute'
p114
tp115
(lp116
(I0
I7
I0
g31
tp117
as(S'service'
p118
tp119
(lp120
(I16
I1
F-0.875
S'trouble'
p121
tp122
a(I131
I0
F0.5
S'technical'
p123
tp124
a(I142
I0
F0.5
S'technical'
p125
tp126
a(I142
I0
F-0.75
S'dead'
p127
tp128
a(I147
I1
F1.0
S'good'
p129
tp130
a(I166
I4
I0
S'supplier'
p131
tp132
a(I193
I0
F-0.5
S'poor'
p133
tp134
a(I228
I1
F1.0
S'good'
p135
tp136
as(S'everything'
p137
tp138
(lp139
(I144
I3
I0
S'great'
p140
tp141
a(I227
I0
F0.375
S'new'
p142
tp143
as(S'problems'
p144
tp145
(lp146
(I271
I0
F-0.375
S'serious'
p147
tp148
a(I275
I3
F-0.625
S'other'
p149
tp150
a(I285
I0
I0
S'many'
p151
tp152
as(S'y'
p153
S'el'
p154
tp155
(lp156
(I0
I7
F0.25
S'original'
p157
tp158
a(I257
I0
F0.5
S'bold'
p159
tp160
as(S'back'
p161
tp162
(lp163
(I161
I15
I0
S'next'
p164
tp165
as(S'camera'
p166
tp167
(lp168
(I28
I3
I0
S'great'
p169
tp170
a(I71
I3
F-0.5
S'poor'
p171
tp172
a(I161
I26
F1.0
S'good'
p173
tp174
a(I173
I0
F1.0
S'good'
p175
tp176
as(S'mobile'
p177
tp178
(lp179
(I116
I0
F-0.75
S'secondary'
p180
tp181
a(I116
I1
F0.125
S'first'
p182
tp183
a(I307
I5
F0.375
S'new'
p184
tp185
as(S'battery'
p186
S'life'
p187
tp188
(lp189
(I73
I1
I0
S'great'
p190
tp191
a(I161
I26
F-0.375
S'small'
p192
tp193
a(I172
I3
F-0.5
S'poor'
p194
tp195
a(I234
I23
F-0.125
S'overall'
p196
tp197
a(I234
I23
I0
S'sturdy'
p198
tp199
as(S'qwerty'
p200
S'keyboard'
p201
tp202
(lp203
(I27
I2
I0
g38
tp204
a(I204
I0
I0
g40
tp205
a(I247
I2
I0
g42
tp206
a(I291
I0
I0
g44
tp207
a(I322
I0
I0
g46
tp208
a(I322
I3
I0
g48
tp209
as(S'el'
p210
S'tel'
p211
S'eacute'
p212
tp213
(lp214
(I0
I7
I0
g31
tp215
as(S'purchase'
p216
tp217
(lp218
(I64
I3
F-0.125
S'future'
p219
tp220
a(I112
I0
F1.0
S'good'
p221
tp222
a(I190
I1
F0.875
S'happy'
p223
tp224
a(I215
I2
F-0.25
S'disappointed'
p225
tp226
a(I307
I6
F-0.125
S'blackberry'
p227
tp228
as(S'lo'
p229
S'que'
p230
tp231
(lp232
(I39
I0
F0.5
g87
tp233
a(I167
I0
I0
g89
tp234
a(I322
I1
I0
S'particular'
p235
tp236
as(S'quality'
p237
tp238
(lp239
(I13
I0
I0
S'high'
p240
tp241
a(I43
I4
I0
S'own'
p242
tp243
a(I112
I0
F1.0
S'good'
p244
tp245
a(I208
I3
I0
S'great'
p246
tp247
a(I234
I22
F0.25
S'tired'
p248
tp249
a(I251
I4
F-0.5
S'poor'
p250
tp251
a(I258
I0
F-0.625
S'bad'
p252
tp253
a(I267
I3
F1.0
S'good'
p254
tp255
a(I289
I1
F1.0
S'good'
p256
tp257
as(S'product'
p258
tp259
(lp260
(I20
I0
I0
S'assemble'
p261
tp262
a(I27
I0
F0.25
S'refurbish'
p263
tp264
a(I27
I0
F0.375
S'new'
p265
tp266
a(I90
I5
F0.875
S'happy'
p267
tp268
a(I110
I0
F1.0
S'good'
p269
tp270
a(I141
I0
F1.0
S'good'
p271
tp272
a(I169
I4
F0.5
S'expensive'
p273
tp274
a(I214
I0
F0.875
S'nice'
p275
tp276
a(I214
I0
F1.0
S'good'
p277
tp278
a(I221
I0
F0.375
S'new'
p279
tp280
a(I222
I0
F1.0
S'good'
p281
tp282
a(I222
I0
F1.0
S'good'
p283
tp284
a(I222
I0
F1.0
S'good'
p285
tp286
a(I222
I0
F1.0
S'good'
p287
tp288
a(I222
I0
F1.0
S'good'
p289
tp290
a(I222
I0
F1.0
S'good'
p291
tp292
a(I228
I1
F1.0
S'good'
p293
tp294
a(I232
I0
F0.375
S'new'
p295
tp296
a(I232
I0
I0
S'final'
p297
tp298
a(I238
I0
I0
S'choose'
p299
tp300
a(I248
I0
F0.375
S'new'
p301
tp302
a(I254
I1
F0.875
S'happy'
p303
tp304
a(I254
I2
F1.0
S'good'
p305
tp306
a(I259
I0
F0.75
S'due'
p307
tp308
a(I279
I1
F0.375
S'new'
p309
tp310
a(I294
I17
I0
S'least'
p311
tp312
a(I294
I17
F-0.5
S'sure'
p313
tp314
a(I328
I0
I0
S'english'
p315
tp316
a(I328
I1
F0.375
S'new'
p317
tp318
as(S'de'
p319
S'lo'
p320
tp321
(lp322
(I9
I19
F-0.375
S'manual'
p323
tp324
a(I322
I1
I0
g235
tp325
as(S'with'
p326
S'3g'
p327
S'bands'
p328
tp329
(lp330
(I137
I1
F0.5
S'compatible'
p331
tp332
as(S'bold'
p333
tp334
(lp335
(I125
I0
F1.0
S'good'
p336
tp337
a(I206
I2
F-0.625
S'glad'
p338
tp339
a(I234
I10
F0.125
S'able'
p340
tp341
as(S'ya'
p342
S'que'
p343
tp344
(lp345
(I167
I0
I0
g89
tp346
as(S'sold'
p347
tp348
(lp349
(I274
I0
F0.375
S'new'
p350
tp351
as(S'keyboard'
p352
tp353
(lp354
(I71
I1
I0
S'sensitive'
p355
tp356
a(I161
I1
F0.75
S'classic'
p357
tp358
a(I161
I26
I0
S'great'
p359
tp360
as(S'full'
p361
S'qwerty'
p362
tp363
(lp364
(I27
I2
I0
g38
tp365
a(I204
I0
I0
g40
tp366
a(I247
I2
I0
g42
tp367
a(I291
I0
I0
g44
tp368
a(I322
I0
I0
g46
tp369
a(I322
I3
I0
g48
tp370
as(S'very'
p371
S'good'
p372
S'product'
p373
tp374
(lp375
(I214
I0
F0.875
g275
tp376
a(I214
I0
F1.0
g277
tp377
a(I222
I0
F1.0
g281
tp378
a(I222
I0
F1.0
g283
tp379
a(I222
I0
F1.0
g285
tp380
a(I222
I0
F1.0
g287
tp381
a(I222
I0
F1.0
g289
tp382
a(I222
I0
F1.0
g291
tp383
a(I238
I0
I0
g299
tp384
as(S'de'
p385
S'un'
p386
tp387
(lp388
(I9
I19
F-0.375
g323
tp389
a(I48
I0
I0
S'general'
p390
tp391
as(S'seller'
p392
tp393
(lp394
(I66
I2
F0.125
S'first'
p395
tp396
a(I132
I2
F0.375
S'honest'
p397
tp398
a(I259
I3
F0.875
S'nice'
p399
tp400
a(I259
I3
F0.5
S'reasonable'
p401
tp402
a(I268
I3
F-0.75
S'unable'
p403
tp404
a(I294
I5
F-0.625
S'unprofessional'
p405
tp406
a(I294
I5
F-0.25
S'unhelpful'
p407
tp408
a(I299
I0
F-0.875
S'hard'
p409
tp410
a(I319
I0
F-0.5
S'sure'
p411
tp412
as(S'de'
p413
S'la'
p414
tp415
(lp416
(I9
I19
F-0.375
g323
tp417
a(I47
I0
I0
g153
tp418
as(S'good'
p419
S'product'
p420
tp421
(lp422
(I110
I0
F1.0
g269
tp423
a(I141
I0
F1.0
g271
tp424
a(I214
I0
F0.875
g275
tp425
a(I214
I0
F1.0
g277
tp426
a(I222
I0
F1.0
g281
tp427
a(I222
I0
F1.0
g283
tp428
a(I222
I0
F1.0
g285
tp429
a(I222
I0
F1.0
g287
tp430
a(I222
I0
F1.0
g289
tp431
a(I222
I0
F1.0
g291
tp432
a(I228
I1
F1.0
g293
tp433
a(I238
I0
I0
g299
tp434
a(I254
I2
F1.0
g305
tp435
as(S'problem'
p436
tp437
(lp438
(I89
I1
I0
S'common'
p439
tp440
a(I132
I2
I0
S'only'
p441
tp442
a(I217
I9
I0
S'only'
p443
tp444
as(S'blackberry'
p445
S'app'
p446
S'world'
p447
tp448
(lp449
(I234
I12
F-0.625
S'other'
p450
tp451
as(S'3g'
p452
S'bands'
p453
tp454
(lp455
(I137
I1
F0.5
g331
tp456
as(S'el'
p457
S'telefono'
p458
tp459
(lp460
(I257
I0
F0.5
g159
tp461
as(S'battery'
p462
tp463
(lp464
(I96
I3
F0.375
S'new'
p465
tp466
a(I96
I3
I0
S'same'
p467
tp468
a(I142
I1
F0.375
S'new'
p469
tp470
a(I161
I26
F-0.375
g192
tp471
a(I206
I1
F0.375
S'new'
p472
tp473
a(I234
I23
F-0.125
g196
tp474
a(I234
I23
I0
g198
tp475
a(I291
I2
F0.375
S'new'
p476
tp477
as(S'network'
p478
tp479
(lp480
(I28
I5
I0
S'social'
p481
tp482
a(I54
I4
I0
S'connect'
p483
tp484
as(S'sent'
p485
tp486
(lp487
(I136
I0
F0.375
S'new'
p488
tp489
as(S'el'
p490
S'tel'
p491
tp492
(lp493
(I0
I7
I0
g31
tp494
a(I257
I0
F0.5
g159
tp495
as(S'product'
p496
S'excelente'
p497
S'aqui'
p498
tp499
(lp500
(I222
I0
F1.0
g281
tp501
a(I222
I0
F1.0
g283
tp502
a(I222
I0
F1.0
g285
tp503
a(I222
I0
F1.0
g287
tp504
a(I222
I0
F1.0
g289
tp505
a(I222
I0
F1.0
g291
tp506
as(S'software'
p507
tp508
(lp509
(I9
I8
F0.125
S'usual'
p510
tp511
a(I9
I8
I0
S'desktop'
p512
tp513
as(g153
S'en'
p514
tp515
(lp516
(I9
I13
I0
S'particular'
p517
tp518
a(I158
I0
F0.5
S'compatible'
p519
tp520
as(S'cell'
p521
tp522
(lp523
(I97
I0
F1.0
S'good'
p524
tp525
a(I97
I0
F-0.875
S'hard'
p526
tp527
a(I123
I0
F1.0
S'good'
p528
tp529
a(I210
I0
F1.0
S'good'
p530
tp531
a(I230
I0
F0.375
S'new'
p532
tp533
a(I241
I1
F0.625
S'aware'
p534
tp535
a(I248
I0
F-0.625
S'bad'
p536
tp537
as(S'bold'
p538
S'9780'
p539
g153
tp540
(lp541
(I125
I0
F1.0
g336
tp542
a(I234
I10
F0.125
g340
tp543
as(S'blackberry'
p544
S'bold'
p545
tp546
(lp547
(I58
I0
F0.375
S'new'
p548
tp549
a(I124
I0
F0.5
S'bold'
p550
tp551
a(I124
I0
F1.0
S'good'
p552
tp553
a(I234
I9
F0.625
S'productive'
p554
tp555
a(I234
I10
F0.125
g340
tp556
a(I234
I12
F-0.625
g450
tp557
a(I291
I0
F0.125
S'usual'
p558
tp559
as(S'da'
p560
S'ntilde'
p561
tp562
(lp563
(I7
I0
I0
g22
tp564
a(I287
I1
I0
g24
tp565
as(S'es'
p566
S'un'
p567
tp568
(lp569
(I0
I1
F0.25
S'original'
p570
tp571
a(I19
I0
F0.625
S'superior'
p572
tp573
a(I48
I0
I0
g390
tp574
as(S'ntilde'
p575
tp576
(lp577
(I7
I0
I0
g22
tp578
a(I287
I1
I0
g24
tp579
as(S'1'
p580
S'and'
p581
S'gps'
p582
tp583
(lp584
(I322
I0
F-0.375
S'black'
p585
tp586
as(S'black'
p587
tp588
(lp589
(I70
I0
F0.375
S'newest'
p590
tp591
as(S'oacute'
p592
S'n'
p593
S'de'
p594
tp595
(lp596
(I9
I19
F-0.375
g323
tp597
as(S'es'
p598
S'muy'
p599
tp600
(lp601
(I19
I0
F0.625
g572
tp602
as(S'blackberry'
p603
tp604
(lp605
(I42
I0
F0.25
S'favorite'
p606
tp607
a(I46
I0
F0.375
S'new'
p608
tp609
a(I54
I0
F0.125
S'first'
p610
tp611
a(I58
I0
F0.375
g548
tp612
a(I69
I0
I0
S'cool'
p613
tp614
a(I124
I0
F0.5
g550
tp615
a(I124
I0
F1.0
g552
tp616
a(I177
I1
F-0.25
S'cheaper'
p617
tp618
a(I188
I0
F1.0
S'good'
p619
tp620
a(I197
I1
I0
S'great'
p621
tp622
a(I208
I5
F-0.5
S'international'
p623
tp624
a(I208
I5
I0
S'domestic'
p625
tp626
a(I233
I2
I0
S'generic'
p627
tp628
a(I234
I9
F0.625
g554
tp629
a(I234
I12
F-0.625
g450
tp630
a(I290
I6
I0
S'real'
p631
tp632
a(I291
I0
F0.125
g558
tp633
a(I307
I1
F0.25
S'original'
p634
tp635
a(I315
I1
F0.375
S'enable'
p636
tp637
as(S'4'
p638
S'and'
p639
S'blackberry'
p640
tp641
(lp642
(I234
I9
F0.625
g554
tp643
a(I234
I12
F-0.625
g450
tp644
as(S'time'
p645
tp646
(lp647
(I181
I1
F0.125
S'last'
p648
tp649
a(I181
I1
I0
S'technician'
p650
tp651
a(I193
I1
I0
S'exact'
p652
tp653
a(I206
I1
F-0.5
S'long'
p654
tp655
a(I271
I0
F-0.75
S'little'
p656
tp657
a(I283
I0
F0.125
S'key'
p658
tp659
a(I283
I0
I0
S'third'
p660
tp661
a(I319
I0
F0.125
S'first'
p662
tp663
as(S'en'
p664
S'el'
p665
tp666
(lp667
(I9
I13
I0
g517
tp668
a(I257
I0
F0.5
g159
tp669
as(S'good'
p670
S'product'
p671
S'excelente'
p672
tp673
(lp674
(I222
I0
F1.0
g281
tp675
a(I222
I0
F1.0
g283
tp676
a(I222
I0
F1.0
g285
tp677
a(I222
I0
F1.0
g287
tp678
a(I222
I0
F1.0
g289
tp679
a(I222
I0
F1.0
g291
tp680
as(S'que'
p681
S'es'
p682
tp683
(lp684
(I0
I1
F0.25
g570
tp685
a(I19
I0
F0.625
g572
tp686
a(I39
I0
F0.5
g87
tp687
a(I167
I0
I0
g89
tp688
as(S'charger'
p689
tp690
(lp691
(I35
I2
F0.375
S'new'
p692
tp693
as(S'oacute'
p694
g593
S'que'
p695
tp696
(lp697
(I39
I0
F0.5
g87
tp698
a(I167
I0
I0
g89
tp699
as(S'wall'
p700
S'charger'
p701
tp702
(lp703
(I9
I8
I0
S'standard'
p704
tp705
a(I265
I0
I0
S'standard'
p706
tp707
as(S'el'
p708
S'bold'
p709
tp710
(lp711
(I234
I10
F0.125
g340
tp712
a(I257
I0
F0.5
g159
tp713
as(S'que'
p714
S'la'
p715
tp716
(lp717
(I39
I0
F0.5
g87
tp718
a(I167
I0
I0
g89
tp719
as(S'work'
p720
tp721
(lp722
(I54
I3
F0.125
S'able'
p723
tp724
as(S'bands'
p725
tp726
(lp727
(I137
I1
F0.5
g331
tp728
a(I241
I1
I0
S'specific'
p729
tp730
as(S'en'
p731
S'la'
p732
tp733
(lp734
(I9
I13
I0
g517
tp735
a(I47
I0
I0
g153
tp736
as(S'nuevo'
p737
g153
tp738
(lp739
(I0
I7
F0.25
g157
tp740
a(I158
I0
F0.5
g519
tp741
as(S'and'
p742
S'blackberry'
p743
S'bold'
p744
tp745
(lp746
(I234
I9
F0.625
g554
tp747
a(I234
I10
F0.125
g340
tp748
a(I234
I12
F-0.625
g450
tp749
a(I291
I0
F0.125
g558
tp750
as(S'send'
p751
tp752
(lp753
(I294
I9
I0
S'fishy'
p754
tp755
as(S'full'
p756
S'qwerty'
p757
S'keyboard'
p758
tp759
(lp760
(I27
I2
I0
g38
tp761
a(I204
I0
I0
g40
tp762
a(I247
I2
I0
g42
tp763
a(I291
I0
I0
g44
tp764
a(I322
I0
I0
g46
tp765
a(I322
I3
I0
g48
tp766
as.