(dp0
(S'apple'
p1
S'store'
p2
tp3
(lp4
(I159
I2
F0.5
S'told'
p5
tp6
a(I160
I0
I0
S'mobile'
p7
tp8
a(I328
I2
I0
S'apple'
p9
tp10
a(I438
I2
I0
S'apple'
p11
tp12
as(S'problem'
p13
tp14
(lp15
(I41
I2
I0
S'same'
p16
tp17
a(I41
I5
I0
S'same'
p18
tp19
a(I156
I2
F-0.375
S'small'
p20
tp21
a(I235
I3
I0
S'only'
p22
tp23
a(I390
I0
F0.875
S'nice'
p24
tp25
as(S'thanks'
p26
tp27
(lp28
(I490
I2
F0.375
S'honest'
p29
tp30
a(I524
I1
F1.0
S'good'
p31
tp32
as(S'timely'
p33
S'manner'
p34
tp35
(lp36
(I118
I1
I0
S'timely'
p37
tp38
a(I391
I0
I0
S'timely'
p39
tp40
a(I510
I2
I0
S'timely'
p41
tp42
as(S'battery'
p43
S'life'
p44
tp45
(lp46
(I21
I0
I0
S'great'
p47
tp48
a(I246
I0
F1.0
S'good'
p49
tp50
a(I264
I2
F0.125
S'impressive'
p51
tp52
a(I273
I20
F-0.625
S'bad'
p53
tp54
a(I350
I2
F-0.625
S'average'
p55
tp56
a(I427
I5
F1.0
S'good'
p57
tp58
as(S'purchase'
p59
tp60
(lp61
(I32
I4
F-0.125
S'overall'
p62
tp63
a(I44
I3
F0.875
S'happy'
p64
tp65
a(I47
I0
F0.875
S'happier'
p66
tp67
a(I75
I0
I0
S'great'
p68
tp69
a(I75
I1
I0
S'great'
p70
tp71
a(I77
I4
F0.875
S'happier'
p72
tp73
a(I180
I1
F0.875
S'happy'
p74
tp75
a(I206
I2
I0
S'full'
p76
tp77
a(I215
I0
F-0.875
S'unhappy'
p78
tp79
a(I275
I4
F-0.875
S'unhappy'
p80
tp81
a(I376
I2
F0.875
S'happy'
p82
tp83
a(I475
I0
F0.875
S'happy'
p84
tp85
a(I507
I3
F-0.25
S'disappointed'
p86
tp87
a(I529
I3
F-0.125
S'overall'
p88
tp89
a(I529
I3
F0.875
S'happy'
p90
tp91
a(I585
I2
I0
S'great'
p92
tp93
a(I597
I0
F1.0
S'good'
p94
tp95
a(I606
I0
F-0.5
S'hassle'
p96
tp97
a(I606
I0
F-0.625
S'free'
p98
tp99
as(S'happy'
p100
S'with'
p101
S'purchase'
p102
tp103
(lp104
(I44
I3
F0.875
g64
tp105
a(I180
I1
F0.875
g74
tp106
a(I215
I0
F-0.875
g78
tp107
a(I275
I4
F-0.875
g80
tp108
a(I376
I2
F0.875
g82
tp109
a(I475
I0
F0.875
g84
tp110
a(I529
I3
F-0.125
g88
tp111
a(I529
I3
F0.875
g90
tp112
a(I634
I2
F-0.125
S'overall'
p113
tp114
as(S'money'
p115
tp116
(lp117
(I115
I0
F0.375
S'extra'
p118
tp119
a(I381
I2
F0.5
S'willing'
p120
tp121
a(I426
I2
F0.875
S'nice'
p122
tp123
a(I451
I1
F0.375
S'new'
p124
tp125
as(S'a'
p126
S'great'
p127
S'deal'
p128
tp129
(lp130
(I14
I2
I0
S'great'
p131
tp132
a(I64
I0
I0
S'great'
p133
tp134
a(I161
I3
I0
S'great'
p135
tp136
a(I308
I3
I0
S'great'
p137
tp138
a(I518
I1
I0
S'great'
p139
tp140
as(S'n'
p141
S'great'
p142
S'shape'
p143
tp144
(lp145
(I53
I2
I0
S'great'
p146
tp147
a(I61
I1
I0
S'great'
p148
tp149
a(I183
I3
I0
S'great'
p150
tp151
a(I269
I2
F1.0
S'good'
p152
tp153
a(I327
I3
I0
S'great'
p154
tp155
a(I481
I2
I0
S'great'
p156
tp157
a(I492
I0
I0
S'great'
p158
tp159
a(I536
I0
I0
S'great'
p160
tp161
a(I652
I0
I0
S'great'
p162
tp163
as(S'went'
p164
tp165
(lp166
(I350
I10
I0
S'apple'
p167
tp168
a(I563
I9
F0.625
S'easy'
p169
tp170
a(I563
I9
F0.625
S'easy'
p171
tp172
as(S'price'
p173
tp174
(lp175
(I3
I2
F0.875
S'happy'
p176
tp177
a(I11
I18
F1.0
S'best'
p178
tp179
a(I32
I3
I0
S'competitive'
p180
tp181
a(I37
I3
I0
S'great'
p182
tp183
a(I108
I1
I0
S'more'
p184
tp185
a(I111
I0
I0
S'most'
p186
tp187
a(I115
I0
F-0.125
S'mine'
p188
tp189
a(I161
I12
F0.625
S'fair'
p190
tp191
a(I163
I0
F1.0
S'good'
p192
tp193
a(I223
I0
I0
S'great'
p194
tp195
a(I229
I2
F0.5
S'reasonable'
p196
tp197
a(I278
I0
I0
S'great'
p198
tp199
a(I300
I1
I0
S'great'
p200
tp201
a(I412
I0
F0.375
S'new'
p202
tp203
a(I412
I0
I0
S'high'
p204
tp205
a(I455
I2
I0
S'full'
p206
tp207
a(I455
I2
F-0.25
S'late'
p208
tp209
a(I482
I0
F1.0
S'good'
p210
tp211
a(I499
I0
F1.0
S'good'
p212
tp213
a(I518
I2
F0.25
S'original'
p214
tp215
a(I530
I1
I0
S'great'
p216
tp217
a(I546
I3
I0
S'great'
p218
tp219
a(I553
I0
F0.5
S'reasonable'
p220
tp221
a(I576
I2
F-0.25
S'low'
p222
tp223
a(I657
I1
F-0.25
S'low'
p224
tp225
a(I663
I3
I0
S'great'
p226
tp227
as(S'look'
p228
tp229
(lp230
(I101
I0
I0
S'most'
p231
tp232
a(I221
I2
F0.75
S'worth'
p233
tp234
a(I221
I66
F0.75
S'worth'
p235
tp236
a(I284
I0
F0.875
S'nice'
p237
tp238
a(I367
I9
F0.875
S'nice'
p239
tp240
a(I563
I6
F0.375
S'new'
p241
tp242
as(S'service'
p243
tp244
(lp245
(I30
I3
F0.5
S'willing'
p246
tp247
a(I45
I2
F0.625
S'major'
p248
tp249
a(I52
I15
I0
S'next'
p250
tp251
a(I132
I3
F0.25
S'luck'
p252
tp253
a(I132
I3
F-0.375
S'happen'
p254
tp255
a(I175
I1
I0
S'great'
p256
tp257
a(I201
I4
I0
S'great'
p258
tp259
a(I217
I0
I0
S'great'
p260
tp261
a(I234
I1
I0
S'such'
p262
tp263
a(I234
I1
I0
S'great'
p264
tp265
a(I359
I0
F1.0
S'better'
p266
tp267
a(I365
I0
I0
S'quick'
p268
tp269
a(I365
I0
F0.875
S'courteous'
p270
tp271
a(I421
I0
F0.625
S'easy'
p272
tp273
a(I469
I3
F1.0
S'good'
p274
tp275
a(I640
I0
I0
S'only'
p276
tp277
as(S'everything'
p278
tp279
(lp280
(I53
I3
I0
S'great'
p281
tp282
a(I249
I0
I0
S'great'
p283
tp284
a(I397
I2
F0.625
S'perfect'
p285
tp286
a(I516
I2
I0
S'slower'
p287
tp288
a(I537
I0
I0
S'more'
p289
tp290
a(I611
I1
F0.625
S'major'
p291
tp292
a(I630
I1
F-0.625
S'other'
p293
tp294
as(S'problems'
p295
tp296
(lp297
(I171
I15
F0.25
S'biggest'
p298
tp299
a(I221
I11
F0.75
S'due'
p300
tp301
a(I550
I0
F0.25
S'bigger'
p302
tp303
a(I566
I7
F-0.25
S'potential'
p304
tp305
a(I653
I0
F-0.75
S'minor'
p306
tp307
a(I653
I0
I0
S'cosmetic'
p308
tp309
as(S'back'
p310
tp311
(lp312
(I24
I0
F0.375
S'new'
p313
tp314
a(I263
I0
I0
S'plastic'
p315
tp316
a(I563
I2
F-0.25
S'white'
p317
tp318
a(I563
I11
F0.25
S'powerful'
p319
tp320
a(I563
I11
F-0.25
S'white'
p321
tp322
as(S'company'
p323
tp324
(lp325
(I43
I2
F0.875
S'happy'
p326
tp327
a(I64
I1
F0.125
S'able'
p328
tp329
a(I124
I1
I0
S'particular'
p330
tp331
a(I408
I4
F-0.625
S'bad'
p332
tp333
a(I430
I3
F1.0
S'good'
p334
tp335
a(I653
I0
F-0.75
S'dark'
p336
tp337
as(S'using'
p338
tp339
(lp340
(I125
I1
F1.0
S'enjoy'
p341
tp342
as(S'operating'
p343
S'system'
p344
tp345
(lp346
(I91
I9
F0.375
S'new'
p347
tp348
a(I171
I3
I0
S'latest'
p349
tp350
a(I171
I3
I0
S'most'
p351
tp352
a(I171
I3
F0.125
S'popular'
p353
tp354
a(I221
I35
I0
S'different'
p355
tp356
a(I273
I9
F-0.625
S'other'
p357
tp358
a(I273
I9
I0
S'mobile'
p359
tp360
a(I310
I8
F0.375
S'newer'
p361
tp362
a(I367
I9
F0.375
S'new'
p363
tp364
a(I374
I8
I0
S'older'
p365
tp366
a(I427
I1
I0
S'android'
p367
tp368
a(I542
I6
F0.625
S'easy'
p369
tp370
a(I563
I17
F0.375
S'new'
p371
tp372
a(I563
I18
F0.375
S'new'
p373
tp374
as(g126
S'long'
p375
S'time'
p376
tp377
(lp378
(I124
I6
F-0.5
S'long'
p379
tp380
a(I124
I6
F0.125
S'first'
p381
tp382
a(I511
I0
F-0.5
S'long'
p383
tp384
a(I511
I0
F0.875
S'happy'
p385
tp386
a(I535
I0
F-0.5
S'long'
p387
tp388
a(I535
I0
F1.0
S'good'
p389
tp390
a(I562
I0
F-0.5
S'long'
p391
tp392
a(I578
I1
F-0.5
S'long'
p393
tp394
a(I622
I0
F-0.5
S'long'
p395
tp396
as(S'straight'
p397
S'talk'
p398
tp399
(lp400
(I4
I1
F0.625
S'straight'
p401
tp402
a(I4
I1
F0.625
S'straight'
p403
tp404
a(I129
I1
F0.625
S'straight'
p405
tp406
a(I129
I8
F0.625
S'straight'
p407
tp408
a(I538
I0
F0.625
S'straight'
p409
tp410
a(I546
I1
F0.625
S'straight'
p411
tp412
a(I546
I1
F-0.75
S'stupid'
p413
tp414
as(S'quality'
p415
tp416
(lp417
(I61
I2
I0
S'great'
p418
tp419
a(I171
I6
F1.0
S'better'
p420
tp421
a(I171
I9
F1.0
S'better'
p422
tp423
a(I171
I14
F-0.25
S'low'
p424
tp425
a(I171
I14
I0
S'plastic'
p426
tp427
a(I186
I3
I0
S'great'
p428
tp429
a(I204
I13
I0
S'high'
p430
tp431
a(I221
I21
F1.0
S'good'
p432
tp433
a(I221
I23
F1.0
S'best'
p434
tp435
a(I253
I1
F1.0
S'good'
p436
tp437
a(I273
I12
F-0.25
S'highest'
p438
tp439
a(I273
I13
F-0.25
S'higher'
p440
tp441
a(I291
I0
F-0.625
S'bad'
p442
tp443
a(I320
I10
I0
S'great'
p444
tp445
a(I325
I3
F1.0
S'better'
p446
tp447
a(I377
I0
F1.0
S'good'
p448
tp449
a(I377
I0
F-0.875
S'hard'
p450
tp451
a(I432
I8
F1.0
S'good'
p452
tp453
a(I432
I8
F0.875
S'nice'
p454
tp455
a(I493
I1
F1.0
S'better'
p456
tp457
a(I493
I1
I0
S'more'
p458
tp459
a(I493
I1
F0.5
S'expensive'
p460
tp461
a(I576
I0
I0
S'great'
p462
tp463
a(I631
I1
F1.0
S'good'
p464
tp465
a(I642
I1
I0
S'great'
p466
tp467
a(I642
I4
F1.0
S'good'
p468
tp469
as(S'product'
p470
tp471
(lp472
(I8
I10
F1.0
S'good'
p473
tp474
a(I30
I0
I0
S'great'
p475
tp476
a(I126
I0
F0.25
S'used'
p477
tp478
a(I209
I0
F1.0
S'good'
p479
tp480
a(I210
I5
F1.0
S'good'
p481
tp482
a(I210
I5
F0.375
S'new'
p483
tp484
a(I214
I2
I0
S'great'
p485
tp486
a(I288
I1
F0.125
S'first'
p487
tp488
a(I288
I1
F0.375
S'new'
p489
tp490
a(I320
I8
I0
S'great'
p491
tp492
a(I333
I0
I0
S'great'
p493
tp494
a(I381
I5
I0
S'great'
p495
tp496
a(I441
I0
F0.875
S'happy'
p497
tp498
a(I443
I0
I0
S'great'
p499
tp500
a(I479
I0
F1.0
S'good'
p501
tp502
a(I489
I1
I0
S'great'
p503
tp504
a(I545
I0
F-0.75
S'wrong'
p505
tp506
a(I616
I1
F0.875
S'happier'
p507
tp508
a(I658
I1
F1.0
S'better'
p509
tp510
a(I660
I0
F0.75
S'worth'
p511
tp512
as(g141
S'excellent'
p513
S'condition'
p514
tp515
(lp516
(I23
I0
I0
S'faster'
p517
tp518
a(I414
I0
F1.0
S'better'
p519
tp520
a(I552
I0
F1.0
S'good'
p521
tp522
as(S'right'
p523
tp524
(lp525
(I561
I19
F-0.375
S'top'
p526
tp527
as(S'things'
p528
tp529
(lp530
(I26
I0
F-0.375
S'simple'
p531
tp532
a(I74
I0
I0
S'many'
p533
tp534
a(I129
I8
I0
S'few'
p535
tp536
a(I213
I5
F-0.625
S'other'
p537
tp538
a(I213
I6
I0
S'different'
p539
tp540
a(I247
I11
I0
S'few'
p541
tp542
a(I389
I5
F0.5
S'careful'
p543
tp544
a(I399
I0
F-0.25
S'cheaper'
p545
tp546
a(I399
I0
F1.0
S'good'
p547
tp548
a(I399
I0
I0
S'most'
p549
tp550
a(I473
I0
I0
S'many'
p551
tp552
a(I561
I5
I0
S'few'
p553
tp554
a(I565
I0
I0
S'such'
p555
tp556
a(I572
I4
F0.625
S'perfect'
p557
tp558
a(I581
I10
I0
S'only'
p559
tp560
a(I581
I10
F-0.75
S'wrong'
p561
tp562
a(I583
I2
F1.0
S'good'
p563
tp564
a(I595
I1
I0
S'many'
p565
tp566
a(I632
I0
I0
S'basic'
p567
tp568
a(I641
I1
F0.5
S'expensive'
p569
tp570
as(S'return'
p571
tp572
(lp573
(I292
I4
F-0.25
S'handle'
p574
tp575
a(I374
I7
I0
S'prepaid'
p576
tp577
a(I409
I2
I0
S'least'
p578
tp579
a(I546
I1
I0
S'full'
p580
tp581
a(I614
I3
F1.0
S'good'
p582
tp583
as(S'operating'
p584
S'systems'
p585
tp586
(lp587
(I171
I3
I0
g349
tp588
a(I171
I3
I0
g351
tp589
a(I171
I3
F0.125
g353
tp590
a(I221
I35
I0
g355
tp591
a(I273
I9
F-0.625
g357
tp592
a(I273
I9
I0
g359
tp593
as(S'apple'
p594
tp595
(lp596
(I30
I3
I0
S'big'
p597
tp598
a(I48
I0
I0
S'apple'
p599
tp600
a(I126
I5
F0.125
S'first'
p601
tp602
a(I160
I0
I0
g7
tp603
a(I174
I0
F-0.625
S'other'
p604
tp605
a(I174
I0
F0.375
S'raved'
p606
tp607
a(I274
I7
F0.375
S'follow'
p608
tp609
a(I274
I8
F-0.5
S'actual'
p610
tp611
a(I295
I6
I0
S'general'
p612
tp613
a(I315
I1
F0.125
S'first'
p614
tp615
a(I367
I21
F-0.875
S'unhappy'
p616
tp617
a(I397
I11
F0.375
S'confident'
p618
tp619
a(I472
I3
F0.125
S'sealed'
p620
tp621
a(I472
I3
F0.25
S'original'
p622
tp623
a(I492
I2
F0.125
S'first'
p624
tp625
a(I500
I0
I0
S'real'
p626
tp627
a(I561
I28
I0
S'android'
p628
tp629
a(I563
I14
I0
S'basic'
p630
tp631
a(I563
I14
F0.25
S'powerful'
p632
tp633
a(I651
I0
I0
S'chinese'
p634
tp635
a(I657
I3
I0
S'many'
p636
tp637
as(S'verizon'
p638
tp639
(lp640
(I21
I1
F0.625
S'easy'
p641
tp642
a(I102
I7
F0.125
S'able'
p643
tp644
a(I186
I0
F-0.375
S'black'
p645
tp646
a(I221
I0
F1.0
S'best'
p647
tp648
a(I221
I25
I0
S'many'
p649
tp650
a(I221
I32
I0
S'normal'
p651
tp652
a(I221
I32
I0
S'many'
p653
tp654
a(I221
I33
F0.5
S'clear'
p655
tp656
a(I288
I0
F0.625
S'easy'
p657
tp658
a(I295
I5
F0.25
S'helpful'
p659
tp660
a(I389
I2
F-0.625
S'free'
p661
tp662
a(I389
I9
F-0.5
S'insane'
p663
tp664
a(I431
I3
F0.875
S'happy'
p665
tp666
a(I475
I3
F0.625
S'easy'
p667
tp668
a(I477
I3
F-0.5
S'less'
p669
tp670
a(I504
I0
I0
S'local'
p671
tp672
a(I517
I1
I0
S'dial'
p673
tp674
as(S'very'
p675
S'good'
p676
S'condition'
p677
tp678
(lp679
(I173
I0
F1.0
S'good'
p680
tp681
a(I229
I0
I0
S'such'
p682
tp683
a(I229
I0
F1.0
S'good'
p684
tp685
a(I403
I0
F1.0
S'good'
p686
tp687
a(I512
I3
F1.0
S'good'
p688
tp689
a(I535
I0
F1.0
S'good'
p690
tp691
a(I535
I0
F1.0
S'good'
p692
tp693
a(I542
I1
F1.0
S'good'
p694
tp695
a(I552
I0
F1.0
g521
tp696
a(I568
I0
F1.0
S'good'
p697
tp698
a(I597
I2
F1.0
S'good'
p699
tp700
a(I601
I0
F1.0
S'good'
p701
tp702
a(I647
I0
F1.0
S'good'
p703
tp704
as(S'to'
p705
S'apple'
p706
S'store'
p707
tp708
(lp709
(I159
I2
F0.5
g5
tp710
a(I160
I0
I0
g7
tp711
a(I328
I2
I0
g9
tp712
a(I438
I2
I0
g11
tp713
as(S'people'
p714
tp715
(lp716
(I48
I1
I0
S'old'
p717
tp718
a(I52
I3
F-0.625
S'other'
p719
tp720
a(I274
I6
F0.625
S'pleasant'
p721
tp722
a(I274
I8
I0
S'only'
p723
tp724
a(I367
I15
I0
S'most'
p725
tp726
as(S'work'
p727
tp728
(lp729
(I557
I0
F0.5
S'strong'
p730
tp731
as(S'seller'
p732
tp733
(lp734
(I11
I0
F1.0
S'best'
p735
tp736
a(I124
I6
I0
S'particular'
p737
tp738
a(I159
I6
F0.5
S'second'
p739
tp740
a(I167
I5
I0
S'site'
p741
tp742
a(I192
I5
F0.5
S'trustworthy'
p743
tp744
a(I320
I0
F0.125
S'first'
p745
tp746
a(I371
I3
F0.875
S'happy'
p747
tp748
a(I472
I1
I0
S'specific'
p749
tp750
a(I653
I0
I0
S'most'
p751
tp752
a(I657
I3
F-0.125
S'mine'
p753
tp754
as(S'android'
p755
tp756
(lp757
(I295
I9
F1.0
S'best'
p758
tp759
a(I350
I4
F0.375
S'new'
p760
tp761
a(I350
I10
F1.0
S'good'
p762
tp763
a(I350
I10
I0
S'faster'
p764
tp765
a(I566
I8
F-0.75
S'damaged'
p766
tp767
as(S'case'
p768
tp769
(lp770
(I129
I5
F-0.125
S'mine'
p771
tp772
a(I183
I7
F0.75
S'beautiful'
p773
tp774
a(I183
I7
F0.125
S'charger'
p775
tp776
a(I350
I7
F1.0
S'good'
p777
tp778
a(I561
I48
F-0.5
S'less'
p779
tp780
a(I561
I48
F-0.75
S'likely'
p781
tp782
a(I665
I1
F0.625
S'interested'
p783
tp784
as(S'works'
p785
tp786
(lp787
(I117
I1
F0.375
S'new'
p788
tp789
a(I118
I0
I0
S'great'
p790
tp791
a(I172
I0
F0.375
S'new'
p792
tp793
a(I196
I0
I0
S'great'
p794
tp795
a(I218
I0
I0
S'great'
p796
tp797
a(I236
I1
F0.625
S'easy'
p798
tp799
a(I273
I3
I0
S'great'
p800
tp801
a(I305
I0
I0
S'great'
p802
tp803
a(I311
I2
I0
S'more'
p804
tp805
a(I325
I1
I0
S'great'
p806
tp807
a(I347
I2
F1.0
S'good'
p808
tp809
a(I361
I2
I0
S'great'
p810
tp811
a(I400
I4
F0.375
S'new'
p812
tp813
a(I509
I1
F1.0
S'better'
p814
tp815
a(I525
I1
F0.625
S'easy'
p816
tp817
a(I626
I0
I0
S'great'
p818
tp819
a(I656
I0
F1.0
S'good'
p820
tp821
as(S'ever'
p822
tp823
(lp824
(I581
I0
F0.125
S'first'
p825
tp826
as(S'scratches'
p827
tp828
(lp829
(I28
I0
F-0.625
S'other'
p830
tp831
a(I75
I0
F-0.75
S'little'
p832
tp833
a(I91
I5
F0.125
S'visible'
p834
tp835
a(I91
I5
I0
S'few'
p836
tp837
a(I100
I2
I0
S'few'
p838
tp839
a(I213
I3
F-0.75
S'minor'
p840
tp841
a(I302
I1
F-0.75
S'minor'
p842
tp843
a(I345
I2
I0
S'few'
p844
tp845
a(I345
I2
F-0.75
S'minor'
p846
tp847
a(I574
I1
I0
S'few'
p848
tp849
as(S'battery'
p850
tp851
(lp852
(I21
I0
I0
g47
tp853
a(I164
I2
F-0.75
S'dead'
p854
tp855
a(I171
I15
F-0.5
S'longer'
p856
tp857
a(I197
I8
F-0.75
S'damaging'
p858
tp859
a(I197
I9
F0.625
S'removable'
p860
tp861
a(I205
I2
I0
S'great'
p862
tp863
a(I246
I0
F1.0
g49
tp864
a(I273
I19
F-0.75
S'little'
p865
tp866
a(I273
I20
F-0.625
g53
tp867
a(I310
I8
I0
S'more'
p868
tp869
a(I350
I2
F-0.625
g55
tp870
a(I382
I2
F1.0
S'good'
p871
tp872
a(I432
I4
F0.125
S'last'
p873
tp874
a(I580
I3
F0.375
S'new'
p875
tp876
a(I580
I4
F-0.625
S'sporadic'
p877
tp878
a(I582
I8
F1.0
S'good'
p879
tp880
a(I585
I1
I0
S'wish'
p881
tp882
as(S'brand'
p883
tp884
(lp885
(I34
I2
F-0.75
S'dirty'
p886
tp887
a(I34
I2
F0.375
S'new'
p888
tp889
a(I52
I4
F0.375
S'new'
p890
tp891
a(I53
I1
F0.375
S'new'
p892
tp893
a(I61
I3
F0.375
S'new'
p894
tp895
a(I69
I0
F0.375
S'new'
p896
tp897
a(I70
I1
F0.375
S'new'
p898
tp899
a(I80
I1
F0.375
S'new'
p900
tp901
a(I133
I1
F0.375
S'new'
p902
tp903
a(I149
I3
F0.375
S'new'
p904
tp905
a(I170
I2
F0.375
S'new'
p906
tp907
a(I179
I0
F0.375
S'new'
p908
tp909
a(I179
I6
F0.375
S'new'
p910
tp911
a(I200
I1
F0.375
S'new'
p912
tp913
a(I234
I0
F0.375
S'new'
p914
tp915
a(I239
I3
F0.375
S'new'
p916
tp917
a(I320
I4
F0.375
S'new'
p918
tp919
a(I328
I4
F0.375
S'new'
p920
tp921
a(I339
I2
F0.375
S'new'
p922
tp923
a(I352
I7
F-0.5
S'upset'
p924
tp925
a(I352
I7
F0.375
S'new'
p926
tp927
a(I374
I11
F0.375
S'new'
p928
tp929
a(I376
I1
F0.375
S'new'
p930
tp931
a(I418
I1
F0.375
S'new'
p932
tp933
a(I441
I1
F0.375
S'new'
p934
tp935
a(I453
I0
F0.375
S'new'
p936
tp937
a(I472
I2
F0.375
S'new'
p938
tp939
a(I517
I0
F0.375
S'new'
p940
tp941
a(I519
I2
F0.375
S'new'
p942
tp943
a(I522
I2
F0.375
S'new'
p944
tp945
a(I527
I0
F0.375
S'new'
p946
tp947
a(I533
I1
F0.375
S'new'
p948
tp949
a(I541
I0
F-0.25
S'late'
p950
tp951
a(I541
I0
F0.375
S'new'
p952
tp953
a(I562
I2
F0.375
S'new'
p954
tp955
a(I576
I1
F0.375
S'new'
p956
tp957
a(I598
I2
F0.375
S'new'
p958
tp959
a(I604
I0
F0.375
S'new'
p960
tp961
a(I612
I6
F0.375
S'new'
p962
tp963
as(S'store'
p964
tp965
(lp966
(I86
I7
F-0.625
S'free'
p967
tp968
a(I86
I7
I0
S'great'
p969
tp970
a(I159
I2
F0.5
g5
tp971
a(I274
I5
I0
S'local'
p972
tp973
a(I328
I2
I0
g9
tp974
a(I337
I0
F0.375
S'new'
p975
tp976
a(I438
I2
I0
g11
tp977
as(S'good'
p978
S'condition'
p979
tp980
(lp981
(I77
I2
F1.0
S'good'
p982
tp983
a(I100
I1
F1.0
S'good'
p984
tp985
a(I173
I0
F1.0
g680
tp986
a(I229
I0
I0
g682
tp987
a(I229
I0
F1.0
g684
tp988
a(I314
I0
F1.0
S'good'
p989
tp990
a(I340
I0
F1.0
S'good'
p991
tp992
a(I403
I0
F1.0
g686
tp993
a(I403
I1
F1.0
S'good'
p994
tp995
a(I413
I0
F-0.625
S'clean'
p996
tp997
a(I413
I0
F1.0
S'good'
p998
tp999
a(I425
I0
F1.0
S'good'
p1000
tp1001
a(I490
I2
F1.0
S'good'
p1002
tp1003
a(I490
I2
I0
S'many'
p1004
tp1005
a(I512
I3
F1.0
g688
tp1006
a(I520
I0
F1.0
S'good'
p1007
tp1008
a(I535
I0
F1.0
g690
tp1009
a(I535
I0
F1.0
g692
tp1010
a(I542
I1
F1.0
g694
tp1011
a(I552
I0
F1.0
g521
tp1012
a(I568
I0
F1.0
g697
tp1013
a(I585
I0
F1.0
S'good'
p1014
tp1015
a(I597
I2
F1.0
g699
tp1016
a(I601
I0
F1.0
g701
tp1017
a(I639
I0
F1.0
S'good'
p1018
tp1019
a(I647
I0
F1.0
g703
tp1020
as(S'camera'
p1021
tp1022
(lp1023
(I197
I3
I0
S'slower'
p1024
tp1025
a(I221
I12
I0
S'flush'
p1026
tp1027
a(I221
I53
F1.0
S'best'
p1028
tp1029
a(I397
I6
I0
S'anymore'
p1030
tp1031
a(I432
I9
F1.0
S'good'
p1032
tp1033
a(I432
I9
F0.125
S'digital'
p1034
tp1035
as(g141
S'original'
p1036
S'box'
p1037
tp1038
(lp1039
(I23
I1
F0.25
S'original'
p1040
tp1041
a(I59
I2
F0.25
S'original'
p1042
tp1043
a(I163
I1
F0.25
S'original'
p1044
tp1045
a(I446
I3
F0.25
S'original'
p1046
tp1047
a(I562
I2
F0.25
S'original'
p1048
tp1049
a(I597
I3
F0.25
S'original'
p1050
tp1051
a(I597
I3
F0.125
S'charger'
p1052
tp1053
as(S'anything'
p1054
tp1055
(lp1056
(I22
I4
I0
S'electronic'
p1057
tp1058
a(I22
I4
F0.5
S'expensive'
p1059
tp1060
a(I72
I0
I0
S'nervous'
p1061
tp1062
a(I275
I3
F-0.75
S'unable'
p1063
tp1064
a(I278
I2
I0
S'more'
p1065
tp1066
a(I294
I1
F0.125
S'charger'
p1067
tp1068
a(I304
I7
F-0.625
S'other'
p1069
tp1070
a(I350
I2
F0.25
S'sharp'
p1071
tp1072
a(I374
I4
I0
S'dial'
p1073
tp1074
a(I532
I2
F-0.25
S'order'
p1075
tp1076
a(I572
I3
F-0.125
S'overall'
p1077
tp1078
a(I663
I4
F1.0
S'better'
p1079
tp1080
as(S'thing'
p1081
tp1082
(lp1083
(I19
I2
I0
S'only'
p1084
tp1085
a(I53
I0
F1.0
S'best'
p1086
tp1087
a(I53
I4
I0
S'most'
p1088
tp1089
a(I53
I4
F0.875
S'important'
p1090
tp1091
a(I126
I1
I0
S'only'
p1092
tp1093
a(I132
I6
F0.625
S'kind'
p1094
tp1095
a(I137
I4
F-0.889
S'unfortunate'
p1096
tp1097
a(I147
I0
I0
S'only'
p1098
tp1099
a(I159
I5
I0
S'same'
p1100
tp1101
a(I191
I15
I0
S'funny'
p1102
tp1103
a(I247
I5
I0
S'only'
p1104
tp1105
a(I247
I5
F-0.625
S'bad'
p1106
tp1107
a(I264
I5
I0
S'only'
p1108
tp1109
a(I273
I14
F-0.5
S'miss'
p1110
tp1111
a(I302
I6
F0.875
S'nice'
p1112
tp1113
a(I310
I7
F-0.625
S'other'
p1114
tp1115
a(I325
I3
I0
S'only'
p1116
tp1117
a(I367
I0
I0
S'only'
p1118
tp1119
a(I374
I8
I0
S'only'
p1120
tp1121
a(I391
I1
F0.125
S'first'
p1122
tp1123
a(I445
I1
I0
S'only'
p1124
tp1125
a(I539
I3
F1.0
S'good'
p1126
tp1127
a(I561
I3
F-0.75
S'minor'
p1128
tp1129
a(I571
I2
I0
S'only'
p1130
tp1131
a(I578
I1
F1.0
S'best'
p1132
tp1133
a(I581
I13
F0.125
S'last'
p1134
tp1135
a(I583
I4
F-0.625
S'light'
p1136
tp1137
a(I583
I4
F0.625
S'easy'
p1138
tp1139
a(I583
I4
I0
S'same'
p1140
tp1141
a(I583
I4
I0
S'great'
p1142
tp1143
as(S'excellent'
p1144
tp1145
(lp1146
(I209
I0
F1.0
S'good'
p1147
tp1148
as(S'device'
p1149
tp1150
(lp1151
(I20
I0
F-0.625
S'bad'
p1152
tp1153
a(I97
I0
I0
S'great'
p1154
tp1155
a(I161
I3
F-0.5
S'outright'
p1156
tp1157
a(I161
I11
F0.125
S'cared-for'
p1158
tp1159
a(I221
I2
F0.125
S'solid'
p1160
tp1161
a(I221
I49
I0
S'android'
p1162
tp1163
a(I221
I59
F-0.625
S'other'
p1164
tp1165
a(I230
I11
F0.375
S'new'
p1166
tp1167
a(I230
I13
F-0.75
S'short'
p1168
tp1169
a(I295
I0
I0
S'android'
p1170
tp1171
a(I469
I0
F0.375
S'newest'
p1172
tp1173
a(I469
I0
I0
S'electronic'
p1174
tp1175
a(I469
I0
F0.375
S'available'
p1176
tp1177
a(I653
I0
F1.0
S'best'
p1178
tp1179
a(I665
I0
I0
S'android'
p1180
tp1181
a(I665
I1
F-0.125
S'overall'
p1182
tp1183
a(I665
I1
I0
S'high'
p1184
tp1185
a(I665
I1
F-0.375
S'small'
p1186
tp1187
as(S'home'
p1188
tp1189
(lp1190
(I171
I13
I0
S'many'
p1191
tp1192
a(I171
I13
F0.5
S'possible'
p1193
tp1194
a(I178
I1
F0.25
S'original'
p1195
tp1196
a(I221
I37
I0
S'few'
p1197
tp1198
a(I555
I0
F0.125
S'first'
p1199
tp1200
a(I573
I1
F0.125
S'first'
p1201
tp1202
as(S'black'
p1203
tp1204
(lp1205
(I456
I0
I0
S'blue'
p1206
tp1207
a(I665
I1
I0
S'great'
p1208
tp1209
as(S'happy'
p1210
tp1211
(lp1212
(I634
I2
F-0.125
g113
tp1213
as(S'bought'
p1214
tp1215
(lp1216
(I580
I10
I0
S'least'
p1217
tp1218
as(S'screen'
p1219
tp1220
(lp1221
(I8
I3
F-0.75
S'bright'
p1222
tp1223
a(I125
I0
F-0.375
S'black'
p1224
tp1225
a(I125
I0
F0.125
S'charger'
p1226
tp1227
a(I171
I8
F0.25
S'larger'
p1228
tp1229
a(I171
I9
F-0.375
S'smaller'
p1230
tp1231
a(I221
I10
F0.5
S'clear'
p1232
tp1233
a(I260
I3
I0
S'great'
p1234
tp1235
a(I304
I6
F-0.25
S'white'
p1236
tp1237
a(I320
I7
F0.5
S'touch'
p1238
tp1239
a(I322
I2
F-0.375
S'black'
p1240
tp1241
a(I359
I5
F0.5
S'touch'
p1242
tp1243
a(I367
I4
F-0.625
S'clean'
p1244
tp1245
a(I367
I4
F0.5
S'clear'
p1246
tp1247
a(I374
I4
F-0.375
S'black'
p1248
tp1249
a(I385
I3
F0.5
S'touch'
p1250
tp1251
a(I397
I10
F0.375
S'new'
p1252
tp1253
a(I432
I3
F0.25
S'bigger'
p1254
tp1255
a(I461
I0
I0
S'more'
p1256
tp1257
a(I523
I0
F-0.625
S'bad'
p1258
tp1259
a(I598
I0
F-0.375
S'small'
p1260
tp1261
a(I638
I0
F-0.375
S'black'
p1262
tp1263
as(S'time'
p1264
tp1265
(lp1266
(I33
I0
F-0.625
S'sorry'
p1267
tp1268
a(I67
I0
F0.125
S'first'
p1269
tp1270
a(I107
I1
I0
S'same'
p1271
tp1272
a(I124
I6
F-0.5
g379
tp1273
a(I124
I6
F0.125
g381
tp1274
a(I158
I0
F-0.625
S'bad'
p1275
tp1276
a(I171
I19
F0.125
S'able'
p1277
tp1278
a(I203
I0
F0.125
S'first'
p1279
tp1280
a(I273
I33
I0
S'entire'
p1281
tp1282
a(I302
I1
F-0.875
S'hard'
p1283
tp1284
a(I461
I0
F-0.75
S'single'
p1285
tp1286
a(I465
I0
I0
S'earlier'
p1287
tp1288
a(I503
I0
F0.625
S'kind'
p1289
tp1290
a(I511
I0
F-0.5
g383
tp1291
a(I511
I0
F0.875
g385
tp1292
a(I535
I0
F-0.5
g387
tp1293
a(I535
I0
F1.0
g389
tp1294
a(I562
I0
F-0.5
g391
tp1295
a(I578
I1
F-0.5
g393
tp1296
a(I580
I7
F0.125
S'first'
p1297
tp1298
a(I581
I12
F0.125
S'first'
p1299
tp1300
a(I583
I4
I0
S'great'
p1301
tp1302
a(I583
I4
F1.0
S'good'
p1303
tp1304
a(I615
I0
F0.375
S'extra'
p1305
tp1306
a(I622
I0
F-0.5
g395
tp1307
as(g141
S'great'
p1308
S'condition'
p1309
tp1310
(lp1311
(I11
I20
I0
S'great'
p1312
tp1313
a(I11
I20
F1.0
S'better'
p1314
tp1315
a(I72
I0
I0
S'earlier'
p1316
tp1317
a(I72
I0
I0
S'great'
p1318
tp1319
a(I131
I0
I0
S'great'
p1320
tp1321
a(I262
I0
I0
S'great'
p1322
tp1323
a(I332
I1
F0.5
S'absolute'
p1324
tp1325
a(I332
I1
I0
S'great'
p1326
tp1327
a(I342
I0
I0
S'great'
p1328
tp1329
a(I351
I0
I0
S'great'
p1330
tp1331
a(I452
I1
I0
S'great'
p1332
tp1333
a(I627
I0
I0
S'great'
p1334
tp1335
a(I634
I1
I0
S'great'
p1336
tp1337
a(I637
I2
I0
S'great'
p1338
tp1339
as(S'fine'
p1340
tp1341
(lp1342
(I64
I0
F-0.625
S'other'
p1343
tp1344
a(I126
I0
I0
S'great'
p1345
tp1346
a(I126
I1
F-0.625
S'other'
p1347
tp1348
a(I446
I2
F0.875
S'happier'
p1349
tp1350
a(I516
I2
I0
S'update'
p1351
tp1352
a(I516
I2
F0.125
S'first'
p1353
tp1354
as(S'condition'
p1355
tp1356
(lp1357
(I11
I20
I0
g1312
tp1358
a(I11
I20
F1.0
g1314
tp1359
a(I23
I0
I0
g517
tp1360
a(I45
I1
F0.375
S'new'
p1361
tp1362
a(I72
I0
I0
g1316
tp1363
a(I72
I0
I0
g1318
tp1364
a(I77
I2
F1.0
g982
tp1365
a(I94
I2
F0.375
S'new'
p1366
tp1367
a(I100
I1
F1.0
g984
tp1368
a(I119
I1
F0.375
S'new'
p1369
tp1370
a(I131
I0
I0
g1320
tp1371
a(I173
I0
F1.0
g680
tp1372
a(I229
I0
I0
g682
tp1373
a(I229
I0
F1.0
g684
tp1374
a(I262
I0
I0
g1322
tp1375
a(I314
I0
F1.0
g989
tp1376
a(I322
I0
F0.75
S'due'
p1377
tp1378
a(I332
I1
F0.5
g1324
tp1379
a(I332
I1
I0
g1326
tp1380
a(I340
I0
F1.0
g991
tp1381
a(I342
I0
I0
g1328
tp1382
a(I351
I0
I0
g1330
tp1383
a(I403
I0
F1.0
g686
tp1384
a(I403
I1
F1.0
g994
tp1385
a(I413
I0
F-0.625
g996
tp1386
a(I413
I0
F1.0
g998
tp1387
a(I414
I0
F1.0
g519
tp1388
a(I425
I0
F1.0
g1000
tp1389
a(I452
I1
I0
g1332
tp1390
a(I477
I2
F0.875
S'happy'
p1391
tp1392
a(I490
I2
F1.0
g1002
tp1393
a(I490
I2
I0
g1004
tp1394
a(I512
I3
F1.0
g688
tp1395
a(I520
I0
F1.0
g1007
tp1396
a(I535
I0
F1.0
g690
tp1397
a(I535
I0
F1.0
g692
tp1398
a(I542
I1
F1.0
g694
tp1399
a(I546
I2
F1.0
S'like'
p1400
tp1401
a(I546
I2
F0.375
S'new'
p1402
tp1403
a(I552
I0
F1.0
g521
tp1404
a(I568
I0
F1.0
g697
tp1405
a(I570
I0
F-0.625
S'bad'
p1406
tp1407
a(I581
I0
F1.0
S'better'
p1408
tp1409
a(I585
I0
F1.0
g1014
tp1410
a(I597
I2
F1.0
g699
tp1411
a(I601
I0
F1.0
g701
tp1412
a(I627
I0
I0
g1334
tp1413
a(I634
I1
I0
g1336
tp1414
a(I637
I2
I0
g1338
tp1415
a(I639
I0
F1.0
g1018
tp1416
a(I647
I0
F1.0
g703
tp1417
as(S'charger'
p1418
tp1419
(lp1420
(I324
I0
F0.375
S'new'
p1421
tp1422
a(I426
I2
F0.375
S'new'
p1423
tp1424
a(I558
I3
I0
S'old'
p1425
tp1426
a(I582
I9
F0.375
S'much'
p1427
tp1428
a(I657
I3
F-0.5
S'complaint'
p1429
tp1430
as(S'love'
p1431
tp1432
(lp1433
(I107
I1
I0
S'latest'
p1434
tp1435
a(I107
I1
F0.125
S'capable'
p1436
tp1437
a(I284
I0
F0.875
S'happy'
p1438
tp1439
as(S'working'
p1440
tp1441
(lp1442
(I149
I1
F1.0
S'good'
p1443
tp1444
a(I366
I1
F1.0
S'good'
p1445
tp1446
as(g141
S'original'
p1447
S'packaging'
p1448
tp1449
(lp1450
(I62
I0
F0.25
S'original'
p1451
tp1452
a(I91
I7
F0.25
S'original'
p1453
tp1454
a(I167
I1
F0.25
S'original'
p1455
tp1456
a(I170
I1
F0.25
S'original'
p1457
tp1458
a(I181
I1
F0.25
S'original'
p1459
tp1460
a(I207
I0
F0.25
S'original'
p1461
tp1462
a(I533
I1
F0.25
S'original'
p1463
tp1464
as(S'months'
p1465
tp1466
(lp1467
(I135
I1
F-0.5
S'less'
p1468
tp1469
a(I139
I1
I0
S'later'
p1470
tp1471
a(I191
I14
I0
S'next'
p1472
tp1473
a(I309
I0
I0
S'many'
p1474
tp1475
a(I309
I0
I0
S'many'
p1476
tp1477
a(I391
I4
I0
S'later'
p1478
tp1479
a(I438
I0
I0
S'few'
p1480
tp1481
a(I491
I0
I0
S'few'
p1482
tp1483
a(I573
I1
I0
S'later'
p1484
tp1485
a(I580
I9
F-0.5
S'longer'
p1486
tp1487
a(I581
I10
I0
S'least'
p1488
tp1489
a(I635
I0
I0
S'later'
p1490
tp1491
as(S'anyone'
p1492
tp1493
(lp1494
(I268
I0
F0.625
S'interested'
p1495
tp1496
a(I420
I2
F0.875
S'nice'
p1497
tp1498
a(I420
I2
F0.625
S'easy'
p1499
tp1500
a(I583
I3
F-0.125
S'super'
p1501
tp1502
as(S'apps'
p1503
tp1504
(lp1505
(I7
I3
F-0.625
S'free'
p1506
tp1507
a(I86
I4
I0
S'great'
p1508
tp1509
a(I115
I0
I0
S'basic'
p1510
tp1511
a(I139
I3
I0
S'download'
p1512
tp1513
a(I171
I17
F-0.5
S'open'
p1514
tp1515
a(I183
I6
I0
S'own'
p1516
tp1517
a(I247
I8
F0.625
S'easy'
p1518
tp1519
a(I247
I9
F0.625
S'easy'
p1520
tp1521
a(I264
I2
I0
S'many'
p1522
tp1523
a(I264
I2
F0.375
S'much'
p1524
tp1525
a(I273
I16
F0.375
S'available'
p1526
tp1527
a(I310
I7
F0.625
S'necessary'
p1528
tp1529
a(I377
I0
I0
S'current'
p1530
tp1531
a(I561
I29
F1.0
S'best'
p1532
tp1533
a(I561
I29
I0
S'android'
p1534
tp1535
a(I561
I50
F1.0
S'good'
p1536
tp1537
a(I563
I16
I0
S'great'
p1538
tp1539
a(I582
I7
I0
S'most'
p1540
tp1541
a(I582
I7
F-0.375
S'crash'
p1542
tp1543
a(I665
I1
F-0.5
S'less'
p1544
tp1545
a(I665
I1
F-0.625
S'free'
p1546
tp1547
a(I665
I1
F-0.625
S'free'
p1548
tp1549
as(S'arrived'
p1550
S'on'
p1551
S'time'
p1552
tp1553
(lp1554
(I465
I0
I0
g1287
tp1555
a(I615
I0
F0.375
g1305
tp1556
as(S'days'
p1557
tp1558
(lp1559
(I192
I4
I0
S'few'
p1560
tp1561
a(I273
I17
I0
S'most'
p1562
tp1563
a(I273
I17
F-0.625
S'light'
p1564
tp1565
a(I275
I1
F0.125
S'first'
p1566
tp1567
a(I277
I1
I0
S'few'
p1568
tp1569
a(I277
I1
F-0.75
S'wrong'
p1570
tp1571
a(I277
I2
I0
S'few'
p1572
tp1573
a(I277
I2
F0.125
S'able'
p1574
tp1575
a(I304
I6
I0
S'few'
p1576
tp1577
a(I320
I3
I0
S'few'
p1578
tp1579
a(I385
I1
I0
S'few'
p1580
tp1581
a(I395
I0
I0
S'next'
p1582
tp1583
a(I452
I2
I0
S'least'
p1584
tp1585
a(I477
I0
I0
S'few'
p1586
tp1587
a(I514
I2
I0
S'few'
p1588
tp1589
a(I526
I1
F0.5
S'whole'
p1590
tp1591
a(I561
I4
I0
S'few'
p1592
tp1593
as(S'fast'
p1594
tp1595
(lp1596
(I85
I3
F-0.125
S'super'
p1597
tp1598
a(I504
I1
I0
S'more'
p1599
tp1600
a(I504
I1
I0
S'android'
p1601
tp1602
as(S'taken'
p1603
S'care'
p1604
tp1605
(lp1606
(I78
I2
F0.875
S'happy'
p1607
tp1608
a(I561
I38
I0
S'apple'
p1609
tp1610
as(g141
S'good'
p1611
S'condition'
p1612
tp1613
(lp1614
(I77
I2
F1.0
g982
tp1615
a(I100
I1
F1.0
g984
tp1616
a(I173
I0
F1.0
g680
tp1617
a(I229
I0
I0
g682
tp1618
a(I229
I0
F1.0
g684
tp1619
a(I314
I0
F1.0
g989
tp1620
a(I340
I0
F1.0
g991
tp1621
a(I403
I0
F1.0
g686
tp1622
a(I403
I1
F1.0
g994
tp1623
a(I413
I0
F-0.625
g996
tp1624
a(I413
I0
F1.0
g998
tp1625
a(I425
I0
F1.0
g1000
tp1626
a(I490
I2
F1.0
g1002
tp1627
a(I490
I2
I0
g1004
tp1628
a(I512
I3
F1.0
g688
tp1629
a(I520
I0
F1.0
g1007
tp1630
a(I535
I0
F1.0
g690
tp1631
a(I535
I0
F1.0
g692
tp1632
a(I542
I1
F1.0
g694
tp1633
a(I552
I0
F1.0
g521
tp1634
a(I568
I0
F1.0
g697
tp1635
a(I585
I0
F1.0
g1014
tp1636
a(I597
I2
F1.0
g699
tp1637
a(I601
I0
F1.0
g701
tp1638
a(I639
I0
F1.0
g1018
tp1639
a(I647
I0
F1.0
g703
tp1640
as.