(dp0
(S'memory'
p1
S'card'
p2
tp3
(lp4
(I54
I49
F-0.75
S'unable'
p5
I0
tp6
a(I54
I49
F-0.75
g5
I5
tp7
as(S'social'
p8
S'networks'
p9
tp10
(lp11
(I36
I36
I0
S'social'
p12
I0
tp13
a(I56
I4
I0
S'social'
p14
I0
tp15
a(I56
I4
I0
S'great'
p16
I0
tp17
a(I57
I121
I0
S'social'
p18
I0
tp19
a(I62
I72
I0
S'social'
p20
I0
tp21
as(S'battery'
p22
S'life'
p23
tp24
(lp25
(I1
I73
F-0.5
S'poor'
p26
I1
tp27
a(I1
I73
F0.125
S'last'
p28
I1
tp29
a(I5
I39
F0.625
S'perfect'
p30
I1
tp31
a(I11
I1
F-0.25
S'past'
p32
I1
tp33
a(I42
I22
F0.25
S'original'
p34
I1
tp35
a(I44
I32
F0.125
S'last'
p36
I1
tp37
a(I54
I22
F-0.5
S'poor'
p38
I1
tp39
a(I54
I57
F1.0
S'good'
p40
I1
tp41
a(I56
I65
F-0.625
S'bad'
p42
I1
tp43
a(I62
I24
F-0.5
S'poor'
p44
I1
tp45
a(I62
I44
I0
S'great'
p46
I1
tp47
a(I62
I83
F-0.5
S'long'
p48
I1
tp49
a(I64
I46
I0
S'inconsistent'
p50
I1
tp51
a(I1
I73
F0.125
g28
I19
tp52
a(I11
I1
F-0.25
g32
I19
tp53
a(I44
I32
F0.125
g36
I19
tp54
a(I54
I22
F-0.5
g38
I19
tp55
a(I54
I57
F1.0
g40
I19
tp56
a(I64
I46
I0
g50
I19
tp57
a(I0
I1
F0.125
S'last'
p58
I15
tp59
a(I1
I73
F-0.5
g26
I15
tp60
a(I2
I21
F0.625
S'removable'
p61
I15
tp62
a(I2
I32
F0.375
S'extra'
p63
I15
tp64
a(I5
I39
F0.625
g30
I15
tp65
a(I10
I61
F0.125
S'last'
p66
I15
tp67
a(I10
I61
F-0.5
S'long'
p68
I15
tp69
a(I11
I3
I0
S'large'
p70
I15
tp71
a(I11
I5
I0
S'large'
p72
I15
tp73
a(I15
I3
I0
S'fast'
p74
I15
tp75
a(I19
I17
F-0.5
S'longer'
p76
I15
tp77
a(I34
I51
F0.125
S'last'
p78
I15
tp79
a(I36
I95
I0
S'empty'
p80
I15
tp81
a(I36
I95
F0.375
S'new'
p82
I15
tp83
a(I42
I8
F-0.625
S'spare'
p84
I15
tp85
a(I42
I22
F0.25
g34
I15
tp86
a(I43
I1
F1.0
S'good'
p87
I15
tp88
a(I56
I65
F-0.625
g42
I15
tp89
a(I58
I12
F0.375
S'extended'
p90
I15
tp91
a(I62
I14
F-0.5
S'weak'
p92
I15
tp93
a(I62
I24
F-0.5
g44
I15
tp94
a(I62
I33
F0.375
S'new'
p95
I15
tp96
a(I62
I44
I0
g46
I15
tp97
a(I62
I83
F-0.5
g48
I15
tp98
as(S'usb'
p99
S'cable'
p100
tp101
(lp102
(I4
I11
I0
S'cable'
p103
I2
tp104
a(I10
I34
I0
S'cable'
p105
I2
tp106
a(I21
I4
I0
S'same'
p107
I2
tp108
a(I25
I3
I0
S'cable'
p109
I2
tp110
a(I64
I25
I0
S'cable'
p111
I2
tp112
as(S'camera'
p113
S'and'
p114
S'video'
p115
tp116
(lp117
(I36
I127
I0
S'great'
p118
I0
tp119
a(I2
I3
I0
S'great'
p120
I1
tp121
a(I5
I35
F0.875
S'nice'
p122
I1
tp123
a(I10
I43
F1.0
S'good'
p124
I1
tp125
a(I10
I61
F-0.125
S'front'
p126
I1
tp127
a(I12
I11
F1.0
S'good'
p128
I1
tp129
a(I12
I11
F0.125
S'digital'
p130
I1
tp131
a(I12
I44
F1.0
S'better'
p132
I1
tp133
a(I18
I26
F-0.625
S'bad'
p134
I1
tp135
a(I22
I79
F0.625
S'decent'
p136
I1
tp137
a(I44
I31
F1.0
S'good'
p138
I1
tp139
a(I50
I14
I0
S'mind'
p140
I1
tp141
a(I50
I14
F0.375
S'much'
p142
I1
tp143
a(I54
I15
F-0.5
S'poor'
p144
I1
tp145
a(I56
I43
F0.25
S'sharp'
p146
I1
tp147
a(I56
I62
I0
S'great'
p148
I1
tp149
a(I58
I46
F-0.625
S'bad'
p150
I1
tp151
a(I58
I96
F0.875
S'nice'
p152
I1
tp153
a(I64
I19
F0.125
S'usual'
p154
I1
tp155
a(I67
I4
I0
S'adequate'
p156
I1
tp157
as(S'mobile'
p158
tp159
(lp160
(I56
I55
F1.0
S'good'
p161
I0
tp162
as(S'operating'
p163
S'system'
p164
tp165
(lp166
(I36
I147
I0
S'old'
p167
I2
tp168
a(I57
I92
F-0.625
S'light'
p169
I2
tp170
a(I57
I92
I0
S'efficient'
p171
I2
tp172
a(I21
I26
F0.125
S'impressive'
p173
I12
tp174
a(I57
I92
F-0.625
g169
I12
tp175
a(I57
I92
I0
g171
I12
tp176
as(S'apps'
p177
tp178
(lp179
(I1
I47
I0
S'same'
p180
I0
tp181
a(I1
I47
I0
S'android'
p182
I0
tp183
a(I7
I5
F1.0
S'better'
p184
I0
tp185
a(I7
I5
I0
S'same'
p186
I0
tp187
a(I10
I52
I0
S'many'
p188
I0
tp189
a(I10
I71
F0.375
S'available'
p190
I0
tp191
a(I16
I38
I0
S'many'
p192
I0
tp193
a(I18
I22
F0.375
S'available'
p194
I0
tp195
a(I18
I22
F-0.125
S'overall'
p196
I0
tp197
a(I19
I24
I0
S'fewer'
p198
I0
tp199
a(I19
I24
I0
S'many'
p200
I0
tp201
a(I21
I7
I0
S'most'
p202
I0
tp203
a(I21
I27
F0.375
S'available'
p204
I0
tp205
a(I22
I55
I0
S'few'
p206
I0
tp207
a(I30
I14
F0.375
S'available'
p208
I0
tp209
a(I33
I26
I0
S'great'
p210
I0
tp211
a(I33
I35
F0.875
S'music'
p212
I0
tp213
a(I34
I8
F1.0
S'good'
p214
I0
tp215
a(I36
I29
F0.375
S'available'
p216
I0
tp217
a(I36
I37
I0
S'many'
p218
I0
tp219
a(I36
I38
I0
S'such'
p220
I0
tp221
a(I36
I42
F0.375
S'available'
p222
I0
tp223
a(I36
I63
F0.875
S'music'
p224
I0
tp225
a(I36
I89
F1.0
S'good'
p226
I0
tp227
a(I36
I131
F0.125
S'popular'
p228
I0
tp229
a(I36
I146
F0.375
S'available'
p230
I0
tp231
a(I41
I12
F0.5
S'enriched'
p232
I0
tp233
a(I41
I12
I0
S'such'
p234
I0
tp235
a(I42
I9
I0
S'fewer'
p236
I0
tp237
a(I45
I1
I0
S'wish'
p238
I0
tp239
a(I45
I1
I0
S'more'
p240
I0
tp241
a(I45
I1
I0
S'same'
p242
I0
tp243
a(I50
I13
F-0.5
S'less'
p244
I0
tp245
a(I56
I73
I0
S'more'
p246
I0
tp247
a(I57
I79
F0.875
S'music'
p248
I0
tp249
a(I58
I64
F-0.375
S'robust'
p250
I0
tp251
a(I58
I64
F0.25
S'medical'
p252
I0
tp253
a(I58
I79
I0
S'great'
p254
I0
tp255
as(S'iphone'
p256
tp257
(lp258
(I0
I2
F1.0
S'good'
p259
I1
tp260
a(I0
I2
I0
S'different'
p261
I1
tp262
a(I12
I1
F1.0
S'good'
p263
I1
tp264
a(I12
I1
F1.0
S'better'
p265
I1
tp266
a(I12
I48
I0
S'more'
p267
I1
tp268
a(I36
I122
F0.375
S'new'
p269
I1
tp270
a(I36
I131
F1.0
S'better'
p271
I1
tp272
a(I36
I132
F1.0
S'good'
p273
I1
tp274
a(I47
I24
F0.25
S'changed'
p275
I1
tp276
a(I54
I5
I0
S'android'
p277
I1
tp278
a(I54
I69
F1.0
S'better'
p279
I1
tp280
a(I54
I84
F0.375
S'new'
p281
I1
tp282
a(I56
I17
F1.0
S'good'
p283
I1
tp284
a(I56
I30
I-100
S'challenge/alternative'
p285
I1
tp286
a(I58
I36
I0
S'next'
p287
I1
tp288
a(I58
I63
F0.125
S'able'
p289
I1
tp290
a(I62
I64
F-0.375
S'simple'
p291
I1
tp292
as(S'straight'
p293
S'talk'
p294
tp295
(lp296
(I19
I11
F0.625
S'straight'
p297
I0
tp298
a(I61
I15
F0.625
S'straight'
p299
I0
tp300
as(S'live'
p301
S'tiles'
p302
tp303
(lp304
(I2
I1
F0.5
S'live'
p305
I0
tp306
a(I10
I47
F-0.75
S'stupid'
p307
I0
tp308
a(I10
I50
F0.5
S'live'
p309
I0
tp310
a(I12
I16
F0.5
S'live'
p311
I0
tp312
a(I12
I40
F0.5
S'live'
p313
I0
tp314
a(I36
I21
F0.5
S'live'
p315
I0
tp316
a(I54
I44
F0.5
S'live'
p317
I0
tp318
a(I58
I29
F0.5
S'live'
p319
I0
tp320
as(S'internet'
p321
tp322
(lp323
(I28
I3
F0.125
S'capable'
p324
I6
tp325
as(S'windows'
p326
tp327
(lp328
(I1
I49
F0.25
S'responsive'
p329
I0
tp330
a(I2
I21
I0
S'only'
p331
I0
tp332
a(I4
I7
I0
S'real'
p333
I0
tp334
a(I4
I7
F-0.75
S'comfortable'
p335
I0
tp336
a(I12
I36
I0
S'different'
p337
I0
tp338
a(I19
I12
I0
S'older'
p339
I0
tp340
a(I22
I36
F0.5
S'whole'
p341
I0
tp342
a(I22
I73
F0.125
S'first'
p343
I0
tp344
a(I22
I80
I0
S'restrictive'
p345
I0
tp346
a(I36
I26
I0
S'latest'
p347
I0
tp348
a(I36
I88
F0.375
S'new'
p349
I0
tp350
a(I37
I11
F0.125
S'first'
p351
I0
tp352
a(I42
I27
F0.125
S'first'
p353
I0
tp354
a(I52
I11
I0
S'great'
p355
I0
tp356
a(I54
I71
F0.125
S'first'
p357
I0
tp358
a(I56
I31
I0
S'android'
p359
I0
tp360
a(I56
I71
F0.625
S'easy'
p361
I0
tp362
a(I57
I19
F0.5
S'compatible'
p363
I0
tp364
a(I57
I19
F0.5
S'compatible'
p365
I0
tp366
a(I57
I20
F0.5
S'compatible'
p367
I0
tp368
a(I57
I94
F0.5
S'compatible'
p369
I0
tp370
a(I57
I103
I0
S'current'
p371
I0
tp372
a(I58
I64
F-0.25
S'scarce'
p373
I0
tp374
a(I58
I77
F0.625
S'kind'
p375
I0
tp376
a(I64
I3
F0.375
S'new'
p377
I0
tp378
as(S'sd'
p379
S'card'
p380
tp381
(lp382
(I2
I20
I0
S'faster'
p383
I0
tp384
a(I2
I20
I0
S'many'
p385
I0
tp386
a(I10
I27
F1.0
S'good'
p387
I0
tp388
a(I33
I30
F0.375
S'available'
p389
I0
tp390
a(I36
I143
I0
S'external'
p391
I0
tp392
a(I54
I77
F0.125
S'able'
p393
I0
tp394
a(I58
I95
F0.375
S'extra'
p395
I0
tp396
a(I65
I3
I0
S'sd'
p397
I0
tp398
as(S'android'
p399
tp400
(lp401
(I2
I28
F-0.125
S'slow'
p402
I0
tp403
a(I12
I0
F0.375
S'similar'
p404
I0
tp405
a(I12
I0
I0
S'sized'
p406
I0
tp407
a(I34
I20
F0.25
S'read'
p408
I0
tp409
a(I36
I23
F1.0
S'better'
p410
I0
tp411
a(I57
I46
F0.125
S'popular'
p412
I0
tp413
a(I58
I31
F1.0
S'better'
p414
I0
tp415
a(I62
I1
I0
S'latest'
p416
I0
tp417
as(S'samsung'
p418
S'focus'
p419
tp420
(lp421
(I1
I52
I0
S'fourth'
p422
I0
tp423
a(I12
I67
F0.875
S'happy'
p424
I0
tp425
a(I19
I15
I0
S'current'
p426
I0
tp427
a(I22
I17
F0.5
S'second'
p428
I0
tp429
a(I22
I25
F0.25
S'original'
p430
I0
tp431
a(I22
I27
F0.125
S'first'
p432
I0
tp433
a(I33
I33
F1.0
S'good'
p434
I0
tp435
a(I33
I33
F0.25
S'responsive'
p436
I0
tp437
a(I33
I33
I0
S'old'
p438
I0
tp439
a(I41
I0
F0.375
S'new'
p440
I0
tp441
a(I57
I59
F0.625
S'easy'
p442
I0
tp443
a(I1
I52
I0
g422
I7
tp444
a(I12
I67
F0.875
g424
I7
tp445
a(I18
I2
F0.25
S'original'
p446
I7
tp447
a(I19
I15
I0
g426
I7
tp448
a(I22
I17
F0.5
g428
I7
tp449
a(I22
I27
F0.125
g432
I7
tp450
a(I33
I33
F0.25
g436
I7
tp451
a(I33
I33
I0
g438
I7
tp452
a(I36
I94
I0
S'blue'
p453
I7
tp454
a(I40
I13
F0.125
S'last'
p455
I7
tp456
a(I41
I0
F0.375
g440
I7
tp457
a(I41
I13
I0
S'exclusive'
p458
I7
tp459
a(I62
I48
F-0.625
S'other'
p460
I7
tp461
a(I2
I9
F0.125
S'first'
p462
I4
tp463
a(I2
I13
F0.375
S'new'
p464
I4
tp465
a(I22
I25
F0.25
g430
I4
tp466
a(I22
I30
I0
S'same'
p467
I4
tp468
a(I22
I30
F0.25
S'original'
p469
I4
tp470
a(I33
I33
F1.0
g434
I4
tp471
a(I54
I84
I0
S'older'
p472
I4
tp473
a(I57
I59
F0.625
g442
I4
tp474
a(I58
I62
I0
S'more'
p475
I4
tp476
as(S'bottom'
p477
S'line'
p478
tp479
(lp480
(I5
I28
F-0.125
S'bottom'
p481
I0
tp482
as(S'microsoft'
p483
tp484
(lp485
(I44
I23
F0.875
S'nice'
p486
I0
tp487
a(I54
I39
I0
S'wish'
p488
I0
tp489
a(I56
I53
F0.625
S'easy'
p490
I0
tp491
a(I65
I8
F0.75
S'due'
p492
I0
tp493
a(I65
I8
F-0.5
S'less'
p494
I0
tp495
as(S'smart'
p496
tp497
(lp498
(I1
I63
F1.0
S'good'
p499
I10
tp500
a(I2
I54
F-0.625
S'other'
p501
I10
tp502
a(I36
I88
F1.0
S'best'
p503
I10
tp504
a(I41
I1
F0.125
S'first'
p505
I10
tp506
a(I61
I7
F0.125
S'first'
p507
I10
tp508
a(I62
I0
I0
S'serviceable'
p509
I10
tp510
a(I62
I3
F-0.25
S'cheap'
p511
I10
tp512
as(S'capacitive'
p513
S'buttons'
p514
tp515
(lp516
(I54
I15
I0
S'capacitive'
p517
I0
tp518
a(I64
I62
I0
S'capacitive'
p519
I0
tp520
as(S'music'
p521
tp522
(lp523
(I33
I26
I0
S'great'
p524
I0
tp525
a(I57
I98
F-0.625
S'free'
p526
I0
tp527
a(I57
I107
F-0.625
S'free'
p528
I0
tp529
as(S'unlock'
p530
S'code'
p531
tp532
(lp533
(I10
I85
F-0.5
S'less'
p534
I0
tp535
as(S'zune'
p536
tp537
(lp538
(I7
I12
F0.125
S'able'
p539
I0
tp540
a(I12
I20
I0
S'more'
p541
I0
tp542
a(I54
I52
I0
S'anymore'
p543
I0
tp544
a(I62
I50
F0.625
S'easy'
p545
I0
tp546
as(S'much'
p547
S'better'
p548
tp549
(lp550
(I36
I132
F0.375
S'much'
p551
I9
tp552
a(I47
I22
F0.375
S'much'
p553
I9
tp554
a(I56
I29
F0.375
S'much'
p555
I9
tp556
as(S'marketplace'
p557
tp558
(lp559
(I5
I38
F0.875
S'music'
p560
I0
tp561
a(I44
I24
F0.75
S'ideal'
p562
I0
tp563
a(I54
I44
F0.625
S'easy'
p564
I0
tp565
a(I54
I45
F0.5
S'drag'
p566
I0
tp567
as(S'data'
p568
tp569
(lp570
(I5
I26
F0.875
S'nice'
p571
I13
tp572
a(I5
I26
I0
S'cellular'
p573
I13
tp574
a(I18
I17
F0.375
S'available'
p575
I13
tp576
a(I19
I26
F-0.5
S'worry'
p577
I13
tp578
a(I54
I86
F0.5
S'personal'
p579
I13
tp580
a(I57
I35
F0.125
S'enough'
p581
I13
tp582
as(S'a'
p583
S'sim'
p584
S'card'
p585
tp586
(lp587
(I32
I0
F-0.125
S'slow'
p588
I0
tp589
a(I36
I123
F1.0
S'good'
p590
I0
tp591
a(I32
I0
F-0.125
g588
I0
tp592
a(I36
I123
F1.0
g590
I0
tp593
as(S'customer'
p594
S'service'
p595
tp596
(lp597
(I22
I40
F1.0
S'good'
p598
I3
tp599
a(I42
I15
F1.0
S'good'
p600
I3
tp601
as(S'wifi'
p602
tp603
(lp604
(I2
I36
F-0.5
S'open'
p605
I0
tp606
a(I8
I1
I0
S'fast'
p607
I0
tp608
a(I18
I12
F-0.125
S'present'
p609
I0
tp610
a(I36
I63
F0.125
S'able'
p611
I0
tp612
a(I58
I48
F0.125
S'able'
p613
I0
tp614
as(S'mango'
p615
S'update'
p616
tp617
(lp618
(I10
I42
I0
S'cool'
p619
I0
tp620
a(I37
I10
I0
S'quick'
p621
I0
tp622
a(I4
I10
F0.375
S'available'
p623
I1
tp624
a(I10
I42
I0
g619
I1
tp625
a(I37
I10
I0
g621
I1
tp626
a(I40
I8
F0.625
S'easy'
p627
I1
tp628
as(S'vibrant'
p629
S'colors'
p630
tp631
(lp632
(I56
I52
I0
S'such'
p633
I3
tp634
a(I56
I53
I0
S'more'
p635
I3
tp636
a(I58
I43
I0
S'fast'
p637
I3
tp638
a(I58
I43
F0.25
S'responsive'
p639
I3
tp640
as(S'amazon'
p641
tp642
(lp643
(I40
I0
F0.625
S'cover'
p644
I13
tp645
a(I57
I14
I0
S'more'
p646
I13
tp647
a(I57
I31
F0.25
S'sweet'
p648
I13
tp649
as.