(dp0
(S'hit'
p1
S'browser'
p2
S'button'
p3
tp4
(lp5
(I2
I123
F0.5
S'careful'
p6
I0
tp7
a(I2
I170
F0.625
S'easy'
p8
I0
tp9
a(I9
I43
I0
S'next'
p10
I0
tp11
a(I24
I141
F-0.75
S'stupid'
p12
I0
tp13
a(I30
I5
F-0.75
S'wrong'
p14
I0
tp15
a(I2
I123
F0.5
g6
I0
tp16
a(I2
I123
I-100
S'browser/back'
p17
I0
tp18
a(I2
I170
F0.625
g8
I0
tp19
a(I9
I43
I0
g10
I0
tp20
a(I9
I82
I-100
S"'way"
p21
I0
tp22
a(I10
I126
I0
S'most'
p23
I0
tp24
a(I10
I126
I0
S'menus'
p25
I0
tp26
a(I16
I50
F-0.5
S'open'
p27
I0
tp28
a(I17
I27
I-100
S'well-documented'
p29
I0
tp30
a(I17
I27
F-0.25
S'legitimate'
p31
I0
tp32
a(I24
I141
F-0.75
g12
I0
tp33
a(I30
I5
F-0.75
g14
I0
tp34
a(I31
I55
I0
S'same'
p35
I0
tp36
a(I2
I123
F0.5
g6
I19
tp37
a(I2
I124
F0.375
S'extra'
p38
I19
tp39
a(I9
I43
I0
g10
I19
tp40
a(I9
I116
F-0.625
S'pushed'
p41
I19
tp42
a(I10
I126
I0
g23
I19
tp43
a(I10
I126
I0
g25
I19
tp44
a(I14
I10
F-0.125
S'delete'
p45
I19
tp46
a(I17
I27
F-0.25
g31
I19
tp47
a(I26
I79
I0
S'internet'
p48
I19
tp49
a(I26
I79
F0.625
S'easy'
p50
I19
tp51
a(I30
I5
F-0.75
g14
I19
tp52
a(I31
I55
I0
g35
I19
tp53
a(I0
I142
F0.125
S'able'
p54
I0
tp55
a(I0
I222
F0.5
S'compatible'
p56
I0
tp57
a(I2
I170
F0.625
g8
I0
tp58
a(I6
I88
F-0.625
S'useless'
p59
I0
tp60
a(I10
I128
F0.5
S'possible'
p61
I0
tp62
a(I16
I50
F-0.5
g27
I0
tp63
a(I24
I141
F-0.75
g12
I0
tp64
a(I25
I15
I0
S'next'
p65
I0
tp66
a(I25
I15
F0.125
S'key'
p67
I0
tp68
a(I31
I80
F-0.5
S'open'
p69
I0
tp70
as(S'tracphone'
p71
tp72
(lp73
(I0
I267
I0
S'old'
p74
I0
tp75
a(I16
I9
F-0.875
S'worst'
p76
I0
tp77
a(I16
I10
F0.375
S'new'
p78
I0
tp79
a(I16
I10
I0
S'old'
p80
I0
tp81
as(S'battery'
p82
S'life'
p83
tp84
(lp85
(I0
I74
F-0.5
S'long'
p86
I1
tp87
a(I0
I170
I0
S'great'
p88
I1
tp89
a(I2
I40
F1.0
S'good'
p90
I1
tp91
a(I4
I8
F1.0
S'good'
p92
I1
tp93
a(I9
I129
F1.0
S'good'
p94
I1
tp95
a(I0
I31
F0.625
S'easy'
p96
I15
tp97
a(I0
I74
F-0.5
g86
I15
tp98
a(I0
I184
F-0.25
S'low'
p99
I15
tp100
a(I1
I47
F0.5
S'strong'
p101
I15
tp102
a(I14
I35
F0.125
S'able'
p103
I15
tp104
a(I16
I44
I0
S'full'
p105
I15
tp106
a(I19
I57
F-0.5
S'sure'
p107
I15
tp108
as(S'keys'
p109
tp110
(lp111
(I0
I175
I0
S'standard'
p112
I9
tp113
a(I1
I64
F-0.375
S'small'
p114
I9
tp115
a(I1
I67
F0.25
S'larger'
p116
I9
tp117
a(I1
I67
I0
S'least'
p118
I9
tp119
a(I2
I23
F-0.375
S'small'
p120
I9
tp121
a(I2
I107
F-0.375
S'small'
p122
I9
tp123
a(I2
I144
F-0.375
S'small'
p124
I9
tp125
a(I8
I12
F-0.375
S'small'
p126
I9
tp127
a(I9
I52
F-0.375
S'small'
p128
I9
tp129
a(I9
I145
I0
S'soft'
p130
I9
tp131
a(I11
I6
F-0.375
S'small'
p132
I9
tp133
a(I11
I35
F-0.375
S'small'
p134
I9
tp135
a(I17
I21
F0.625
S'easy'
p136
I9
tp137
a(I19
I72
F-0.375
S'small'
p138
I9
tp139
a(I20
I0
F-0.375
S'small'
p140
I9
tp141
a(I20
I3
I0
S'large'
p142
I9
tp143
a(I24
I61
F0.125
S'first'
p144
I9
tp145
a(I24
I61
F-0.375
S'small'
p146
I9
tp147
a(I24
I135
F-0.375
S'small'
p148
I9
tp149
a(I24
I136
F-0.375
S'small'
p150
I9
tp151
a(I26
I66
F-0.375
S'small'
p152
I9
tp153
as(S'great'
p154
S'for'
p155
S'texting'
p156
tp157
(lp158
(I11
I39
I0
S'great'
p159
I0
tp160
a(I2
I38
F0.625
S'easy'
p161
I0
tp162
a(I11
I39
I0
g159
I0
tp163
a(I18
I0
F0.875
S'nice'
p164
I0
tp165
a(I26
I80
F1.0
S'good'
p166
I0
tp167
a(I31
I18
I0
S'efficient'
p168
I0
tp169
as(S'tech'
p170
S'support'
p171
tp172
(lp173
(I2
I151
I0
S'tech'
p174
I1
tp175
as(S'couple'
p176
S'of'
p177
S'times'
p178
tp179
(lp180
(I31
I20
F-0.875
S'trouble'
p181
I1
tp182
as(S'a'
p183
S'text'
p184
S'message'
p185
tp186
(lp187
(I4
I15
F0.5
S'taught'
p188
I0
tp189
a(I9
I83
I0
S'many'
p190
I0
tp191
a(I10
I22
F-0.75
S'short'
p192
I0
tp193
a(I19
I47
F-0.5
S'open'
p194
I0
tp195
a(I21
I7
I0
S'text'
p196
I0
tp197
a(I2
I160
I0
S'great'
p198
I18
tp199
a(I9
I83
I0
g190
I18
tp200
a(I10
I22
F-0.75
g192
I18
tp201
a(I11
I61
I0
S'great'
p202
I18
tp203
a(I14
I43
F0.5
S'personal'
p204
I18
tp205
a(I14
I43
I0
S'promotional'
p206
I18
tp207
a(I16
I52
I0
S'initial'
p208
I18
tp209
a(I4
I15
F0.5
g188
I1
tp210
a(I10
I121
F-0.5
S'sure'
p211
I1
tp212
a(I10
I121
I0
S'signal'
p213
I1
tp214
a(I10
I121
F0.375
S'available'
p215
I1
tp216
a(I17
I36
F-0.125
S'private'
p217
I1
tp218
a(I19
I47
F-0.5
g194
I1
tp219
a(I21
I7
I0
g196
I1
tp220
as(S'triple'
p221
S'minutes'
p222
tp223
(lp224
(I2
I82
F-0.375
S'double'
p225
I0
tp226
as(S'minutes'
p227
S'for'
p228
S'life'
p229
tp230
(lp231
(I0
I103
F-0.375
S'double'
p232
I0
tp233
a(I0
I121
F-0.375
S'double'
p234
I0
tp235
a(I2
I82
F-0.375
g225
I0
tp236
a(I2
I128
F-0.375
S'double'
p237
I0
tp238
a(I4
I59
F-0.375
S'double'
p239
I0
tp240
a(I8
I20
F-0.375
S'double'
p241
I0
tp242
a(I10
I12
F-0.375
S'double'
p243
I0
tp244
a(I16
I61
I0
S'many'
p245
I0
tp246
a(I17
I24
F-0.375
S'double'
p247
I0
tp248
a(I22
I14
F-0.375
S'double'
p249
I0
tp250
a(I27
I1
F-0.375
S'double'
p251
I0
tp252
a(I31
I52
F-0.375
S'double'
p253
I0
tp254
a(I32
I17
F-0.375
S'double'
p255
I0
tp256
a(I33
I10
F-0.375
S'double'
p257
I0
tp258
a(I0
I170
I0
g88
I19
tp259
a(I2
I40
F1.0
g90
I19
tp260
a(I4
I8
F1.0
g92
I19
tp261
a(I9
I129
F1.0
g94
I19
tp262
a(I26
I32
F-0.75
S'short'
p263
I19
tp264
as(S'camera'
p265
tp266
(lp267
(I1
I54
F1.0
S'best'
p268
I1
tp269
a(I2
I166
F1.0
S'good'
p270
I1
tp271
a(I2
I167
F-0.375
S'small'
p272
I1
tp273
a(I2
I177
I0
S'great'
p274
I1
tp275
a(I4
I96
F0.625
S'acceptable'
p276
I1
tp277
a(I6
I86
I0
S'serviceable'
p278
I1
tp279
a(I10
I104
F1.0
S'good'
p280
I1
tp281
a(I10
I111
F1.0
S'good'
p282
I1
tp283
a(I10
I112
F1.0
S'good'
p284
I1
tp285
a(I13
I12
F1.0
S'good'
p286
I1
tp287
a(I15
I11
F1.0
S'better'
p288
I1
tp289
a(I15
I11
F-1.0
S'mislead'
p290
I1
tp291
a(I17
I22
I0
S'real'
p292
I1
tp293
as(S'data'
p294
S'cable'
p295
tp296
(lp297
(I1
I53
I0
S'cable'
p298
I0
tp299
a(I7
I7
I0
S'cable'
p300
I0
tp301
a(I18
I6
I0
S'cable'
p302
I0
tp303
as(g183
S'touch'
p304
S'screen'
p305
tp306
(lp307
(I0
I175
F0.5
S'touch'
p308
I0
tp309
a(I0
I192
F0.5
S'touch'
p310
I0
tp311
a(I0
I193
F1.0
S'good'
p312
I0
tp313
a(I1
I43
F0.625
S'easier'
p314
I0
tp315
a(I2
I113
F0.5
S'touch'
p316
I0
tp317
a(I9
I133
F0.5
S'touch'
p318
I0
tp319
a(I9
I139
F0.5
S'touch'
p320
I0
tp321
a(I22
I15
F0.5
S'touch'
p322
I0
tp323
a(I0
I175
F0.5
g308
I2
tp324
a(I0
I192
F0.5
g310
I2
tp325
a(I0
I193
F1.0
g312
I2
tp326
a(I1
I43
F0.625
g314
I2
tp327
a(I2
I113
F0.5
g316
I2
tp328
a(I9
I133
F0.5
g318
I2
tp329
a(I9
I139
F0.5
g320
I2
tp330
a(I22
I15
F0.5
g322
I2
tp331
as(S'with'
p332
S'double'
p333
S'minutes'
p334
tp335
(lp336
(I0
I61
F-0.375
S'double'
p337
I0
tp338
a(I0
I103
F-0.375
g232
I0
tp339
a(I0
I121
F-0.375
g234
I0
tp340
a(I2
I82
F-0.375
g225
I0
tp341
a(I2
I128
F-0.375
g237
I0
tp342
a(I8
I6
F-0.375
S'double'
p343
I0
tp344
a(I8
I20
F-0.375
g241
I0
tp345
a(I10
I12
F-0.375
g243
I0
tp346
a(I17
I24
F-0.375
g247
I0
tp347
a(I24
I87
F-0.375
S'double'
p348
I0
tp349
a(I24
I92
F-0.375
S'double'
p350
I0
tp351
a(I31
I52
F-0.375
g253
I0
tp352
a(I32
I5
F-0.375
S'double'
p353
I0
tp354
a(I32
I5
F-0.375
S'double'
p355
I0
tp356
a(I0
I61
F-0.375
g337
I0
tp357
a(I0
I103
F-0.375
g232
I0
tp358
a(I0
I121
F-0.375
g234
I0
tp359
a(I0
I266
F-0.375
S'double'
p360
I0
tp361
a(I1
I7
I0
S'great'
p362
I0
tp363
a(I2
I82
F-0.375
g225
I0
tp364
a(I2
I128
F-0.375
g237
I0
tp365
a(I2
I141
F-0.25
S'doubled'
p366
I0
tp367
a(I4
I59
F-0.375
g239
I0
tp368
a(I8
I6
F-0.375
g343
I0
tp369
a(I8
I20
F-0.375
g241
I0
tp370
a(I10
I12
F-0.375
g243
I0
tp371
a(I10
I47
F-0.375
S'double'
p372
I0
tp373
a(I11
I40
F-0.375
S'double'
p374
I0
tp375
a(I14
I24
F-0.375
S'double'
p376
I0
tp377
a(I17
I24
F-0.375
g247
I0
tp378
a(I19
I65
F-0.375
S'double'
p379
I0
tp380
a(I22
I14
F-0.375
g249
I0
tp381
a(I24
I87
F-0.375
g348
I0
tp382
a(I24
I92
F-0.375
g350
I0
tp383
a(I26
I53
F-0.375
S'double'
p384
I0
tp385
a(I27
I1
F-0.375
g251
I0
tp386
a(I29
I27
F-0.375
S'double'
p387
I0
tp388
a(I31
I52
F-0.375
g253
I0
tp389
a(I32
I5
F-0.375
g353
I0
tp390
a(I32
I5
F-0.375
g355
I0
tp391
a(I32
I17
F-0.375
g255
I0
tp392
a(I33
I10
F-0.375
g257
I0
tp393
as(g183
S'full'
p394
S'keyboard'
p395
tp396
(lp397
(I0
I258
I0
S'full'
p398
I0
tp399
a(I2
I165
I0
S'full'
p400
I0
tp401
a(I3
I26
I0
S'full'
p402
I0
tp403
a(I6
I50
F0.375
S'much'
p404
I0
tp405
a(I9
I128
I0
S'full'
p406
I0
tp407
a(I11
I29
I0
S'full'
p408
I0
tp409
a(I14
I6
I0
S'more'
p410
I0
tp411
a(I14
I6
I0
S'normal'
p412
I0
tp413
a(I14
I32
I0
S'full'
p414
I0
tp415
a(I14
I34
I0
S'full'
p416
I0
tp417
as(S'an'
p418
S'mp3'
p419
S'player'
p420
tp421
(lp422
(I1
I2
F0.125
S'first'
p423
I0
tp424
a(I1
I2
F1.0
S'good'
p425
I0
tp426
a(I26
I52
F1.0
S'good'
p427
I0
tp428
a(I1
I2
F0.125
g423
I1
tp429
a(I1
I2
F1.0
g425
I1
tp430
a(I6
I87
F-0.75
S'crude'
p431
I1
tp432
a(I10
I98
I0
S'great'
p433
I1
tp434
a(I26
I52
F1.0
g427
I1
tp435
a(I1
I2
F1.0
g425
I6
tp436
a(I6
I87
F-0.75
g431
I6
tp437
a(I10
I98
I0
g433
I6
tp438
as(S'tracfone'
p439
S'customer'
p440
S'service'
p441
tp442
(lp443
(I0
I107
F-0.25
S'unaware'
p444
I0
tp445
a(I13
I3
F-0.875
S'awful'
p446
I0
tp447
a(I0
I107
F-0.25
g444
I3
tp448
a(I6
I30
F-0.875
S'worst'
p449
I3
tp450
a(I7
I4
F-0.75
S'unreliable'
p451
I3
tp452
a(I9
I50
I0
S'website'
p453
I3
tp454
a(I9
I61
F1.0
S'good'
p455
I3
tp456
a(I9
I74
F-0.25
S'nightmare'
p457
I3
tp458
a(I13
I3
F-0.875
g446
I3
tp459
a(I19
I41
F-0.625
S'bad'
p460
I3
tp461
a(I24
I12
F-0.875
S'worst'
p462
I3
tp463
a(I0
I25
F0.125
S'first'
p464
I0
tp465
a(I0
I45
F-0.625
S'glad'
p466
I0
tp467
a(I0
I92
I0
S'more'
p468
I0
tp469
a(I0
I92
F0.5
S'obvious'
p470
I0
tp471
a(I0
I158
F1.0
S'best'
p472
I0
tp473
a(I0
I250
F-0.875
S'hard'
p474
I0
tp475
a(I1
I52
I0
S'specific'
p476
I0
tp477
a(I2
I2
F-0.625
S'glad'
p478
I0
tp479
a(I2
I45
I0
S'fourth'
p480
I0
tp481
a(I2
I106
I0
S'more'
p482
I0
tp483
a(I2
I109
I0
S'song'
p484
I0
tp485
a(I2
I109
I0
S'website'
p486
I0
tp487
a(I2
I110
F0.375
S'new'
p488
I0
tp489
a(I2
I141
I0
S'special'
p490
I0
tp491
a(I4
I16
F1.0
S'good'
p492
I0
tp493
a(I4
I17
F0.375
S'new'
p494
I0
tp495
a(I4
I61
F-0.625
S'glad'
p496
I0
tp497
a(I4
I100
F1.0
S'good'
p498
I0
tp499
a(I4
I101
F1.0
S'better'
p500
I0
tp501
a(I4
I101
I0
S'net'
p502
I0
tp503
a(I4
I103
I0
S'great'
p504
I0
tp505
a(I6
I13
F-0.25
S'ready'
p506
I0
tp507
a(I6
I33
F1.0
S'good'
p508
I0
tp509
a(I6
I33
F0.5
S'true'
p510
I0
tp511
a(I6
I47
F-0.25
S'cheaper'
p512
I0
tp513
a(I6
I51
F0.125
S'informative'
p514
I0
tp515
a(I8
I4
F1.0
S'best'
p516
I0
tp517
a(I9
I20
F0.375
S'new'
p518
I0
tp519
a(I9
I45
I0
S'old'
p520
I0
tp521
a(I9
I66
F-0.25
S'direct'
p522
I0
tp523
a(I9
I116
I0
S'more'
p524
I0
tp525
a(I9
I118
F-0.625
S'hostile'
p526
I0
tp527
a(I9
I121
F0.375
S'new'
p528
I0
tp529
a(I9
I133
F-0.625
S'other'
p530
I0
tp531
a(I9
I137
F0.25
S'used'
p532
I0
tp533
a(I9
I138
F0.375
S'new'
p534
I0
tp535
a(I10
I23
I0
S'such'
p536
I0
tp537
a(I10
I53
I0
S'quick'
p538
I0
tp539
a(I10
I78
I-100
S'120-minute'
p540
I0
tp541
a(I11
I0
I0
S'young'
p542
I0
tp543
a(I11
I12
F0.5
S'second'
p544
I0
tp545
a(I11
I16
I0
S'useful'
p546
I0
tp547
a(I16
I26
F1.0
S'best'
p548
I0
tp549
a(I19
I20
F-0.125
S'overall'
p550
I0
tp551
a(I19
I20
F1.0
S'good'
p552
I0
tp553
a(I19
I75
F1.0
S'best'
p554
I0
tp555
a(I19
I79
F-0.75
S'wrong'
p556
I0
tp557
a(I23
I3
F-0.625
S'sorry'
p558
I0
tp559
a(I24
I106
I0
S'tactic'
p560
I0
tp561
a(I26
I33
F-0.75
S'shorter'
p562
I0
tp563
a(I28
I3
F-0.125
S'mine'
p564
I0
tp565
a(I28
I3
F-0.5
S'less'
p566
I0
tp567
a(I29
I21
F0.125
S'last'
p568
I0
tp569
a(I31
I12
F1.0
S'best'
p570
I0
tp571
a(I0
I107
F-0.25
g444
I16
tp572
a(I0
I154
F0.625
S'perfect'
p573
I16
tp574
a(I0
I156
F0.5
S'clear'
p575
I16
tp576
a(I2
I11
I0
S'prepaid'
p577
I16
tp578
a(I2
I16
I0
S'close'
p579
I16
tp580
a(I2
I20
F0.75
S'worth'
p581
I16
tp582
a(I6
I30
F-0.875
g449
I16
tp583
a(I7
I4
F-0.75
g451
I16
tp584
a(I8
I19
I0
S'incredible'
p585
I16
tp586
a(I9
I14
F0.75
S'due'
p587
I16
tp588
a(I9
I14
F0.125
S'expired'
p589
I16
tp590
a(I9
I61
F1.0
g455
I16
tp591
a(I9
I112
I0
S'high'
p592
I16
tp593
a(I10
I150
I0
S'great'
p594
I16
tp595
a(I10
I151
I0
S'on-site'
p596
I16
tp597
a(I16
I63
I0
S'different'
p598
I16
tp599
a(I24
I12
F-0.875
g462
I16
tp600
a(I24
I37
F-0.5
S'poor'
p601
I16
tp602
a(I24
I38
F0.375
S'available'
p603
I16
tp604
a(I26
I44
F0.125
S'enough'
p605
I16
tp606
a(I26
I44
F0.25
S'incentive'
p607
I16
tp608
a(I31
I84
I0
S'full'
p609
I16
tp610
a(I9
I50
I0
g453
I11
tp611
a(I9
I74
F-0.25
g457
I11
tp612
a(I13
I3
F-0.875
g446
I11
tp613
a(I19
I41
F-0.625
g460
I11
tp614
as(S'prepaid'
p615
tp616
(lp617
(I2
I1
F1.0
S'best'
p618
I0
tp619
a(I2
I14
F-0.625
S'other'
p620
I0
tp621
a(I8
I20
F-0.25
S'higher'
p622
I0
tp623
a(I8
I20
F-0.625
S'other'
p624
I0
tp625
a(I8
I20
I0
S'different'
p626
I0
tp627
a(I24
I85
F1.0
S'best'
p628
I0
tp629
a(I24
I134
F-0.625
S'other'
p630
I0
tp631
a(I24
I178
F1.0
S'best'
p632
I0
tp633
as(S'amazon'
p634
tp635
(lp636
(I9
I6
F-0.25
S'cheaper'
p637
I13
tp638
a(I17
I3
F-0.5
S'less'
p639
I13
tp640
a(I21
I17
F-0.75
S'little'
p641
I13
tp642
a(I31
I16
I0
S'more'
p643
I13
tp644
as(S'rural'
p645
S'area'
p646
tp647
(lp648
(I3
I8
I0
S'rural'
p649
I0
tp650
a(I24
I75
I0
S'rural'
p651
I0
tp652
a(I27
I17
I0
S'rural'
p653
I0
tp654
as(S'calls'
p655
tp656
(lp657
(I0
I172
F-0.25
S'dropped'
p658
I0
tp659
a(I1
I51
F0.625
S'easy'
p660
I0
tp661
a(I2
I12
F-0.25
S'dropped'
p662
I0
tp663
a(I2
I150
F-0.75
S'minor'
p664
I0
tp665
a(I6
I54
F-0.5
S'international'
p666
I0
tp667
a(I6
I55
I0
S'overseas'
p668
I0
tp669
a(I8
I15
F0.875
S'important'
p670
I0
tp671
a(I10
I115
I0
S'many'
p672
I0
tp673
a(I10
I168
I0
S'such'
p674
I0
tp675
a(I19
I60
I0
S'more'
p676
I0
tp677
a(I19
I60
F-0.625
S'other'
p678
I0
tp679
a(I19
I60
F-0.25
S'higher'
p680
I0
tp681
a(I24
I1
I0
S'text'
p682
I0
tp683
a(I27
I9
I0
S'few'
p684
I0
tp685
a(I30
I3
I0
S'many'
p686
I0
tp687
as(S'sim'
p688
S'card'
p689
tp690
(lp691
(I0
I12
F0.375
S'new'
p692
I0
tp693
a(I0
I16
F0.375
S'new'
p694
I0
tp695
a(I0
I20
F0.5
S'second'
p696
I0
tp697
a(I0
I297
I0
S'included'
p698
I0
tp699
a(I11
I58
F0.375
S'new'
p700
I0
tp701
as(S'called'
p702
S'customer'
p703
S'service'
p704
tp705
(lp706
(I0
I107
F-0.25
g444
I0
tp707
as(S'signal'
p708
S'strength'
p709
tp710
(lp711
(I24
I50
F0.5
S'strong'
p712
I0
tp713
a(I24
I50
I0
S'signal'
p714
I0
tp715
a(I24
I75
F1.0
S'good'
p716
I0
tp717
as(S'bells'
p718
S'and'
p719
S'whistles'
p720
tp721
(lp722
(I0
I171
F0.375
S'much'
p723
I0
tp724
a(I4
I24
I0
S'more'
p725
I0
tp726
as(S'text'
p727
S'messages'
p728
tp729
(lp730
(I9
I83
I0
g190
I0
tp731
a(I10
I22
F-0.75
g192
I0
tp732
a(I24
I0
I0
S'pic'
p733
I0
tp734
a(I5
I9
F0.625
S'easy'
p735
I1
tp736
a(I9
I93
F0.125
S'able'
p737
I1
tp738
a(I24
I0
I0
g733
I1
tp739
a(I32
I23
F-0.125
S'delete'
p740
I1
tp741
as(S'web'
p742
S'browser'
p743
tp744
(lp745
(I0
I251
I0
S'mobile'
p746
I0
tp747
a(I0
I251
I-100
S'browser/texting'
p748
I0
tp749
a(I6
I88
F-0.625
g59
I0
tp750
a(I18
I16
I0
S'mobile'
p751
I0
tp752
a(I25
I15
I0
g65
I0
tp753
a(I25
I15
F0.125
g67
I0
tp754
a(I26
I69
F-0.5
S'open'
p755
I0
tp756
as(S'connect'
p757
S'to'
p758
S'internet'
p759
tp760
(lp761
(I2
I170
F-0.875
S'hard'
p762
I0
tp763
a(I2
I170
F-0.875
S'hard'
p764
I0
tp765
a(I2
I170
F-0.875
g762
I6
tp766
a(I2
I170
F-0.875
g764
I6
tp767
a(I9
I142
F-0.625
S'free'
p768
I6
tp769
as(S'do'
p770
S"n't"
p771
S'use'
p772
tp773
(lp774
(I8
I20
F0.5
S'personal'
p775
I0
tp776
a(I8
I20
I0
S'ran'
p777
I0
tp778
as(g183
S'qwerty'
p779
S'keyboard'
p780
tp781
(lp782
(I0
I137
F-0.125
S'slow'
p783
I0
tp784
a(I0
I262
F0.875
S'nice'
p785
I0
tp786
a(I2
I95
F0.625
S'easier'
p787
I0
tp788
a(I2
I175
I0
S'more'
p789
I0
tp790
a(I4
I11
F0.625
S'easier'
p791
I0
tp792
a(I4
I11
I0
S'physical'
p793
I0
tp794
a(I6
I50
I0
S'full'
p795
I0
tp796
a(I6
I50
F0.375
g404
I0
tp797
a(I9
I157
I0
S'great'
p798
I0
tp799
a(I10
I86
F0.375
S'much'
p800
I0
tp801
a(I10
I86
F0.625
S'easier'
p802
I0
tp803
a(I10
I86
F0.875
S'nice'
p804
I0
tp805
a(I11
I16
I0
S'great'
p806
I0
tp807
a(I14
I6
I0
S'full'
p808
I0
tp809
a(I14
I6
I0
g410
I0
tp810
a(I14
I6
I0
g412
I0
tp811
a(I17
I51
F0.625
S'easy'
p812
I0
tp813
a(I19
I64
F0.625
S'easy'
p814
I0
tp815
a(I31
I50
F0.625
S'easy'
p816
I0
tp817
a(I32
I13
F1.0
S'good'
p818
I0
tp819
a(I33
I0
F0.625
S'easier'
p820
I0
tp821
a(I0
I137
F-0.125
g783
I0
tp822
a(I0
I262
F0.875
g785
I0
tp823
a(I2
I95
F0.625
g787
I0
tp824
a(I2
I175
I0
g789
I0
tp825
a(I4
I11
F0.625
g791
I0
tp826
a(I4
I11
I0
g793
I0
tp827
a(I6
I50
I0
g795
I0
tp828
a(I6
I50
F0.375
g404
I0
tp829
a(I9
I157
I0
g798
I0
tp830
a(I10
I86
F0.375
g800
I0
tp831
a(I10
I86
F0.625
g802
I0
tp832
a(I10
I86
F0.875
g804
I0
tp833
a(I11
I16
I0
g806
I0
tp834
a(I14
I6
I0
g808
I0
tp835
a(I14
I6
I0
g410
I0
tp836
a(I14
I6
I0
g412
I0
tp837
a(I17
I51
F0.625
g812
I0
tp838
a(I19
I64
F0.625
g814
I0
tp839
a(I31
I50
F0.625
g816
I0
tp840
a(I32
I13
F1.0
g818
I0
tp841
a(I33
I0
F0.625
g820
I0
tp842
a(I0
I137
F-0.125
g783
I0
tp843
a(I4
I11
F0.625
g791
I0
tp844
a(I4
I11
I0
g793
I0
tp845
a(I5
I13
F0.625
S'easier'
p846
I0
tp847
a(I6
I50
I0
g795
I0
tp848
a(I10
I86
F0.375
g800
I0
tp849
a(I10
I86
F0.625
g802
I0
tp850
a(I10
I86
F0.875
g804
I0
tp851
a(I11
I9
F0.875
S'nice'
p852
I0
tp853
a(I14
I6
I0
g808
I0
tp854
a(I17
I51
F0.625
g812
I0
tp855
a(I18
I10
I0
S'full'
p856
I0
tp857
a(I31
I50
F0.625
g816
I0
tp858
a(I0
I36
F-0.375
S'small'
p859
I2
tp860
a(I0
I59
F-0.375
S'small'
p861
I2
tp862
a(I0
I59
F-0.625
S'other'
p863
I2
tp864
a(I0
I165
F0.625
S'easy'
p865
I2
tp866
a(I0
I191
F0.625
S'easier'
p867
I2
tp868
a(I0
I258
I0
g398
I2
tp869
a(I0
I262
F0.875
g785
I2
tp870
a(I2
I95
F0.625
g787
I2
tp871
a(I2
I165
I0
g400
I2
tp872
a(I2
I175
I0
g789
I2
tp873
a(I3
I26
I0
g402
I2
tp874
a(I6
I50
F0.375
g404
I2
tp875
a(I6
I74
F0.375
S'much'
p876
I2
tp877
a(I6
I85
F1.0
S'good'
p878
I2
tp879
a(I9
I42
F0.625
S'easy'
p880
I2
tp881
a(I9
I128
I0
g406
I2
tp882
a(I9
I157
I0
g798
I2
tp883
a(I11
I16
I0
g806
I2
tp884
a(I11
I29
I0
g408
I2
tp885
a(I14
I6
I0
g410
I2
tp886
a(I14
I6
I0
g412
I2
tp887
a(I14
I32
I0
g414
I2
tp888
a(I14
I34
I0
g416
I2
tp889
a(I14
I57
F-0.75
S'uncomfortable'
p890
I2
tp891
a(I16
I27
F1.0
S'good'
p892
I2
tp893
a(I16
I27
F0.625
S'easy'
p894
I2
tp895
a(I19
I64
F0.625
g814
I2
tp896
a(I24
I29
I0
S'large'
p897
I2
tp898
a(I26
I72
F-0.375
S'small'
p899
I2
tp900
a(I32
I13
F1.0
g818
I2
tp901
a(I33
I0
F0.625
g820
I2
tp902
as(S'micro'
p903
S'sd'
p904
S'card'
p905
tp906
(lp907
(I17
I30
F0.875
S'nice'
p908
I0
tp909
a(I31
I22
I0
S'most'
p910
I0
tp911
a(I17
I30
F0.875
g908
I0
tp912
a(I31
I22
I0
g910
I0
tp913
a(I31
I22
I0
g910
I3
tp914
as(S'gon'
p915
S'na'
p916
tp917
(lp918
(I10
I28
F0.75
S'give'
p919
I1
tp920
as(S'close'
p921
S'together'
p922
tp923
(lp924
(I2
I67
I0
S'close'
p925
I1
tp926
a(I4
I50
I-100
S'small/close'
p927
I1
tp928
as(S'land'
p929
S'line'
p930
tp931
(lp932
(I19
I45
I0
S'close'
p933
I0
tp934
as.