(dp0
(S'memory'
p1
S'card'
p2
tp3
(lp4
(I1
I23
F-0.75
S'disappointment'
p5
I0
tp6
a(I0
I28
I0
S'internal'
p7
I5
tp8
a(I1
I23
F-0.75
g5
I5
tp9
a(I11
I39
I0
S'faster'
p10
I5
tp11
a(I11
I39
I0
S'more'
p12
I5
tp13
a(I12
I1
I0
S'internal'
p14
I5
tp15
a(I12
I1
I0
S'internal'
p16
I5
tp17
a(I20
I0
I0
S'internal'
p18
I5
tp19
a(I20
I0
I0
S'internal'
p20
I5
tp21
a(I21
I53
F0.375
S'extra'
p22
I5
tp23
a(I25
I77
I0
S'internal'
p24
I5
tp25
a(I25
I77
I0
S'internal'
p26
I5
tp27
as(S'battery'
p28
S'life'
p29
tp30
(lp31
(I8
I70
F-0.5
S'long'
p32
I1
tp33
a(I12
I55
F0.375
S'much'
p34
I1
tp35
a(I15
I24
F1.0
S'good'
p36
I1
tp37
a(I15
I41
F0.375
S'available'
p38
I1
tp39
a(I18
I15
F-0.75
S'short'
p40
I1
tp41
a(I18
I15
I0
S'hot'
p42
I1
tp43
a(I21
I20
F1.0
S'better'
p44
I1
tp45
a(I25
I37
F-0.5
S'less'
p46
I1
tp47
a(I25
I37
F0.25
S'stellar'
p48
I1
tp49
a(I26
I11
F-0.75
S'short'
p50
I1
tp51
a(I26
I12
F0.375
S'much'
p52
I1
tp53
a(I26
I21
F-0.75
S'short'
p54
I1
tp55
a(I12
I55
F0.375
g34
I19
tp56
a(I15
I24
F1.0
g36
I19
tp57
a(I18
I15
I0
g42
I19
tp58
a(I25
I37
F-0.5
g46
I19
tp59
a(I25
I37
F0.25
g48
I19
tp60
a(I29
I3
F0.375
S'busy'
p61
I19
tp62
a(I3
I4
F0.125
S'last'
p63
I15
tp64
a(I3
I180
F-0.5
S'long'
p65
I15
tp66
a(I3
I206
I0
S'active'
p67
I15
tp68
a(I8
I8
F1.0
S'better'
p69
I15
tp70
a(I8
I27
F1.0
S'good'
p71
I15
tp72
a(I8
I28
I0
S'own'
p73
I15
tp74
a(I8
I31
F0.375
S'new'
p75
I15
tp76
a(I8
I70
F-0.5
g32
I15
tp77
a(I11
I4
F0.5
S'second'
p78
I15
tp79
a(I11
I4
F0.5
S'second'
p80
I15
tp81
a(I11
I101
F-0.75
S'dead'
p82
I15
tp83
a(I14
I4
F0.375
S'new'
p84
I15
tp85
a(I15
I27
F-0.636
S'genuine'
p86
I15
tp87
a(I15
I41
F0.375
g38
I15
tp88
a(I16
I9
F1.0
S'good'
p89
I15
tp90
a(I17
I26
I0
S'wish'
p91
I15
tp92
a(I17
I26
F-0.5
S'longer'
p93
I15
tp94
a(I18
I15
F-0.75
g40
I15
tp95
a(I21
I20
F1.0
g44
I15
tp96
a(I21
I101
F-0.25
S'low'
p97
I15
tp98
a(I25
I36
F-0.25
S'low'
p99
I15
tp100
a(I25
I38
F-0.75
S'dead'
p101
I15
tp102
a(I25
I43
I0
S'wick'
p103
I15
tp104
a(I26
I11
F-0.75
g50
I15
tp105
a(I26
I12
F0.375
g52
I15
tp106
a(I26
I14
F0.5
S'second'
p107
I15
tp108
a(I26
I21
F-0.75
g54
I15
tp109
a(I26
I22
F-0.5
S'long'
p110
I15
tp111
a(I30
I3
F0.375
S'new'
p112
I15
tp113
as(S'usb'
p114
S'cable'
p115
tp116
(lp117
(I28
I17
I0
S'cable'
p118
I2
tp119
as(S'a'
p120
S'text'
p121
S'message'
p122
tp123
(lp124
(I8
I105
F-0.5
S'separate'
p125
I0
tp126
a(I8
I105
F-0.5
g125
I0
tp127
a(I8
I105
F-0.5
g125
I18
tp128
a(I21
I79
F-0.5
S'sure'
p129
I18
tp130
as(S'service'
p131
tp132
(lp133
(I3
I127
I0
S'net'
p134
I16
tp135
as(S'camera'
p136
tp137
(lp138
(I8
I90
F-0.125
S'slow'
p139
I1
tp140
a(I11
I39
F1.0
S'better'
p141
I1
tp142
a(I15
I21
F-0.125
S'front'
p143
I1
tp144
a(I21
I23
F-0.625
S'unclear'
p145
I1
tp146
a(I21
I39
I0
S'adequate'
p147
I1
tp148
as(S'iphone'
p149
tp150
(lp151
(I1
I19
I0
S'closest'
p152
I1
tp153
a(I1
I19
F0.375
S'available'
p154
I1
tp155
a(I1
I21
F-0.625
S'lighter'
p156
I1
tp157
a(I1
I22
F-0.75
S'comfortable'
p158
I1
tp159
a(I1
I26
F0.125
S'solid'
p160
I1
tp161
a(I12
I13
F1.0
S'better'
p162
I1
tp163
a(I17
I16
I0
S'android'
p164
I1
tp165
a(I21
I0
F-0.875
S'stuck'
p166
I1
tp167
as(S'samsung'
p168
S'galaxy'
p169
S's'
p170
tp171
(lp172
(I0
I32
F0.375
S'much'
p173
I0
tp174
a(I5
I31
F0.375
S'new'
p175
I0
tp176
a(I5
I38
F0.375
S'new'
p177
I0
tp178
a(I17
I6
I0
S'great'
p179
I0
tp180
a(I21
I29
I0
S'great'
p181
I0
tp182
a(I0
I32
F0.375
g173
I0
tp183
a(I5
I31
F0.375
g175
I0
tp184
a(I5
I38
F0.375
g177
I0
tp185
a(I21
I29
I0
g181
I0
tp186
a(I5
I31
F0.375
g175
I7
tp187
a(I5
I38
F0.375
g177
I7
tp188
a(I8
I61
F0.5
S'true'
p189
I7
tp190
a(I8
I129
F0.125
S'last'
p191
I7
tp192
a(I13
I6
I0
S'very'
p193
I7
tp194
a(I21
I29
I0
g181
I7
tp195
a(I26
I41
I0
S'old'
p196
I7
tp197
a(I0
I32
F0.375
g173
I0
tp198
a(I8
I124
I0
S'next'
p199
I0
tp200
a(I14
I5
F0.875
S'happy'
p201
I0
tp202
a(I21
I20
F0.375
S'newer'
p203
I0
tp204
a(I23
I10
F0.875
S'happier'
p205
I0
tp206
a(I25
I2
I0
S'more'
p207
I0
tp208
a(I25
I2
F0.25
S'unlocked'
p209
I0
tp210
as(S'flash'
p211
tp212
(lp213
(I28
I13
F-0.75
S'minor'
p214
I2
tp215
as(S'messages'
p216
tp217
(lp218
(I8
I85
I0
S'close'
p219
I1
tp220
a(I8
I87
F-0.5
S'open'
p221
I1
tp222
a(I8
I108
I0
S'text'
p223
I1
tp224
a(I14
I34
F-0.125
S'trough'
p225
I1
tp226
a(I17
I14
F0.625
S'convenient'
p227
I1
tp228
a(I21
I63
F-0.5
S'open'
p229
I1
tp230
a(I29
I2
F-0.25
S'late'
p231
I1
tp232
as(S'music'
p233
S'player'
p234
tp235
(lp236
(I3
I113
F0.875
S'music'
p237
I0
tp238
a(I8
I88
I0
S'close'
p239
I0
tp240
a(I8
I88
F0.875
S'music'
p241
I0
tp242
a(I26
I19
F0.25
S'portable'
p243
I0
tp244
as(S'seller'
p245
tp246
(lp247
(I31
I27
F0.875
S'nice'
p248
I19
tp249
as(S'android'
p250
tp251
(lp252
(I1
I25
F0.375
S'new'
p253
I0
tp254
a(I5
I33
F-0.25
S'thin'
p255
I0
tp256
a(I5
I33
F0.625
S'easy'
p257
I0
tp258
a(I11
I98
F-0.625
S'other'
p259
I0
tp260
a(I15
I35
F0.125
S'first'
p261
I0
tp262
a(I18
I11
F0.625
S'easy'
p263
I0
tp264
a(I21
I0
F-0.375
S'liberal'
p265
I0
tp266
a(I22
I0
F0.125
S'first'
p267
I0
tp268
a(I25
I54
I0
S'standard'
p269
I0
tp270
a(I26
I41
F0.375
S'new'
p271
I0
tp272
as(S'calls'
p273
tp274
(lp275
(I3
I84
F-0.375
S'static'
p276
I0
tp277
a(I3
I86
I0
S'few'
p278
I0
tp279
a(I3
I190
I0
S'least'
p280
I0
tp281
a(I3
I190
I0
S'full'
p282
I0
tp283
a(I3
I190
I0
S'signal'
p284
I0
tp285
a(I3
I195
I0
S'full'
p286
I0
tp287
a(I8
I117
F-0.625
S'one-sided'
p288
I0
tp289
a(I11
I83
F0.125
S'able'
p290
I0
tp291
a(I11
I86
I0
S'same'
p292
I0
tp293
a(I12
I23
I0
S'many'
p294
I0
tp295
a(I21
I21
F-0.5
S'international'
p296
I0
tp297
a(I21
I21
I0
S'internet'
p298
I0
tp299
a(I26
I20
I0
S'few'
p300
I0
tp301
a(I26
I20
F-0.75
S'short'
p302
I0
tp303
as(S'sim'
p304
S'card'
p305
tp306
(lp307
(I3
I15
I0
S'local'
p308
I0
tp309
a(I3
I208
F-0.625
S'other'
p310
I0
tp311
as(S'p.'
p312
S'm'
p313
tp314
(lp315
(I3
I173
I0
S'charged'
p316
I0
tp317
as(S'galaxy'
p318
g170
S'vibrant'
p319
tp320
(lp321
(I5
I33
F0.75
S'beautiful'
p322
I0
tp323
a(I23
I13
F0.25
S'original'
p324
I0
tp325
a(I5
I33
F0.75
g322
I6
tp326
a(I8
I45
I0
S'real'
p327
I6
tp328
a(I8
I46
I0
S'real'
p329
I6
tp330
a(I21
I42
F0.25
S'sharp'
p331
I6
tp332
a(I21
I42
I0
S'rich'
p333
I6
tp334
a(I23
I13
F0.25
g324
I6
tp335
as(S'data'
p336
tp337
(lp338
(I1
I25
F-0.375
S'disable'
p339
I13
tp340
a(I3
I53
I0
S'cable'
p341
I13
tp342
a(I3
I209
F-0.5
S'sure'
p343
I13
tp344
a(I28
I18
F0.5
S'personal'
p345
I13
tp346
as(S'network'
p347
tp348
(lp349
(I11
I47
I0
S'signal'
p350
I0
tp351
as(S'wifi'
p352
tp353
(lp354
(I11
I29
F-0.375
S'top'
p355
I0
tp356
a(I11
I79
F1.0
S'good'
p357
I0
tp358
a(I11
I129
I0
S'local'
p359
I0
tp360
a(I30
I24
F0.5
S'odd'
p361
I0
tp362
as(S'apps'
p363
tp364
(lp365
(I1
I12
F-0.5
S'certain'
p366
I0
tp367
a(I8
I77
F-0.5
S'certain'
p368
I0
tp369
a(I8
I77
I0
S'instant'
p370
I0
tp371
a(I8
I110
F-0.625
S'other'
p372
I0
tp373
a(I12
I44
I0
S'most'
p374
I0
tp375
a(I12
I44
I0
S'few'
p376
I0
tp377
a(I14
I33
F-0.5
S'open'
p378
I0
tp379
a(I15
I37
I0
S'many'
p380
I0
tp381
a(I15
I37
F0.375
S'available'
p382
I0
tp383
a(I15
I37
I0
S'most'
p384
I0
tp385
a(I21
I37
F-0.625
S'free'
p386
I0
tp387
a(I21
I44
F-0.625
S'other'
p388
I0
tp389
a(I21
I54
F0.375
S'new'
p390
I0
tp391
a(I21
I54
F0.5
S'compatible'
p392
I0
tp393
a(I25
I12
F0.375
S'extra'
p394
I0
tp395
a(I25
I36
I0
S'many'
p396
I0
tp397
a(I26
I16
I0
S'many'
p398
I0
tp399
a(I26
I16
F0.25
S'original'
p400
I0
tp401
a(I30
I22
I0
S'download'
p402
I0
tp403
as(S'internal'
p404
S'memory'
p405
tp406
(lp407
(I0
I28
I0
g7
I0
tp408
a(I12
I1
I0
g14
I0
tp409
a(I12
I1
I0
g16
I0
tp410
a(I20
I0
I0
g18
I0
tp411
a(I20
I0
I0
g20
I0
tp412
a(I25
I77
I0
g24
I0
tp413
a(I25
I77
I0
g26
I0
tp414
as.