(dp0
(S'battery'
p1
S'life'
p2
tp3
(lp4
(I0
I12
I0
S'more'
p5
I1
tp6
a(I0
I12
F1.0
S'good'
p7
I1
tp8
a(I10
I30
F1.0
S'good'
p9
I1
tp10
a(I10
I67
I0
S'big'
p11
I1
tp12
a(I10
I67
F-0.25
S'low'
p13
I1
tp14
a(I10
I67
I0
S'great'
p15
I1
tp16
a(I13
I14
F-0.75
S'bright'
p17
I1
tp18
a(I13
I20
F-0.5
S'poor'
p19
I1
tp20
a(I15
I56
F1.0
S'good'
p21
I1
tp22
a(I16
I69
I0
S'more'
p23
I1
tp24
a(I23
I39
F-0.75
S'short'
p25
I1
tp26
a(I30
I25
F1.0
S'good'
p27
I1
tp28
a(I36
I0
F-0.5
S'poor'
p29
I1
tp30
a(I40
I82
F-0.875
S'unhappy'
p31
I1
tp32
a(I40
I82
F-0.5
S'poor'
p33
I1
tp34
a(I0
I12
F1.0
g7
I19
tp35
a(I5
I50
F-0.875
S'hard'
p36
I19
tp37
a(I10
I30
F1.0
g9
I19
tp38
a(I10
I67
I0
g11
I19
tp39
a(I10
I67
F-0.25
g13
I19
tp40
a(I10
I67
I0
g15
I19
tp41
a(I13
I14
F-0.75
g17
I19
tp42
a(I15
I56
F1.0
g21
I19
tp43
a(I16
I69
I0
g23
I19
tp44
a(I23
I39
F-0.75
g25
I19
tp45
a(I30
I25
F1.0
g27
I19
tp46
a(I34
I5
F0.125
S'able'
p47
I19
tp48
a(I34
I5
I0
S'later'
p49
I19
tp50
a(I0
I12
I0
g5
I15
tp51
a(I9
I37
F-0.625
S'average'
p52
I15
tp53
a(I9
I46
F-0.625
S'bad'
p54
I15
tp55
a(I11
I29
F0.25
S'original'
p56
I15
tp57
a(I13
I20
F-0.5
g19
I15
tp58
a(I15
I36
F0.125
S'charger'
p59
I15
tp60
a(I15
I36
F0.125
S'charger'
p61
I15
tp62
a(I15
I36
F0.5
S'flat'
p63
I15
tp64
a(I23
I33
F1.0
S'better'
p65
I15
tp66
a(I24
I113
F-0.75
S'unlucky'
p67
I15
tp68
a(I24
I113
I0
S'few'
p69
I15
tp70
a(I24
I113
I0
S'more'
p71
I15
tp72
a(I35
I64
F0.125
S'last'
p73
I15
tp74
a(I36
I0
F-0.5
g29
I15
tp75
a(I40
I82
F-0.875
g31
I15
tp76
a(I40
I82
F-0.5
g33
I15
tp77
a(I40
I83
F0.375
S'extended'
p78
I15
tp79
as(S'google'
p80
tp81
(lp82
(I11
I37
F-0.25
S'disappointing'
p83
I4
tp84
a(I15
I26
F0.125
S'able'
p85
I4
tp86
a(I20
I16
F1.0
S'better'
p87
I4
tp88
a(I24
I115
I0
S'website'
p89
I4
tp90
a(I32
I13
F0.75
S'give'
p91
I4
tp92
as(S'android'
p93
S'os'
p94
tp95
(lp96
(I10
I7
F-0.625
S'clean'
p97
I0
tp98
a(I10
I43
F-0.75
S'impossible'
p99
I0
tp100
a(I11
I40
F0.125
S'first'
p101
I0
tp102
a(I12
I22
F-0.5
S'actual'
p103
I0
tp104
a(I12
I45
F0.375
S'available'
p105
I0
tp106
a(I12
I45
I0
S'latest'
p107
I0
tp108
a(I15
I4
I0
S'more'
p109
I0
tp110
a(I22
I0
I0
S'latest'
p111
I0
tp112
a(I22
I0
I0
S'android'
p113
I0
tp114
a(I32
I25
F0.375
S'newest'
p115
I0
tp116
a(I35
I18
I0
S'latest'
p117
I0
tp118
as(S'deal'
p119
S'breaker'
p120
tp121
(lp122
(I27
I3
F-0.25
S'disappointing'
p123
I0
tp124
as(S'cream'
p125
S'sandwich'
p126
tp127
(lp128
(I23
I38
I0
S'quick'
p129
I0
tp130
as(S'camera'
p131
tp132
(lp133
(I0
I11
I-100
S'3good'
p134
I1
tp135
a(I10
I40
I0
S'great'
p136
I1
tp137
a(I10
I42
F1.0
S'best'
p138
I1
tp139
a(I10
I64
I0
S'great'
p140
I1
tp141
a(I19
I0
F-0.75
S'dirty'
p142
I1
tp143
a(I31
I13
F1.0
S'good'
p144
I1
tp145
a(I34
I0
F-0.5
S'poor'
p146
I1
tp147
a(I35
I42
F1.0
S'good'
p148
I1
tp149
as(S'iphone'
p150
tp151
(lp152
(I10
I75
F1.0
S'best'
p153
I1
tp154
a(I15
I73
F1.0
S'better'
p155
I1
tp156
a(I24
I102
I-100
S'repressive'
p157
I1
tp158
a(I30
I5
F0.25
S'unlocked'
p159
I1
tp160
a(I30
I5
F0.5
S'expensive'
p161
I1
tp162
a(I32
I17
F0.125
S'further'
p163
I1
tp164
a(I40
I67
I0
S'nexus'
p165
I1
tp166
as(S'droid'
p167
S'x'
p168
tp169
(lp170
(I0
I11
I0
S'fast'
p171
I0
tp172
a(I18
I5
I0
S'latest'
p173
I0
tp174
a(I40
I19
I0
S'same'
p175
I0
tp176
as(S'mobile'
p177
tp178
(lp179
(I24
I6
I0
S'local'
p180
I0
tp181
a(I31
I37
F0.875
S'important'
p182
I0
tp183
a(I32
I24
F0.375
S'new'
p184
I0
tp185
a(I32
I25
F0.125
S'first'
p186
I0
tp187
as(S'samsung'
p188
S'nexus'
p189
S's'
p190
tp191
(lp192
(I9
I20
I0
S'faster'
p193
I0
tp194
a(I9
I20
F1.0
S'best'
p195
I0
tp196
a(I9
I20
I0
S'galaxy'
p197
I0
tp198
a(I9
I20
F-0.625
S'lighter'
p199
I0
tp200
a(I11
I38
F0.125
S'first'
p201
I0
tp202
a(I6
I30
F-0.375
S'top'
p203
I7
tp204
a(I11
I9
I0
S'optional'
p205
I7
tp206
a(I20
I13
F-0.625
S'other'
p207
I7
tp208
a(I30
I20
F0.875
S'happy'
p209
I7
tp210
a(I39
I6
F-0.125
S'minimum'
p211
I7
tp212
a(I5
I25
F-0.125
S'overall'
p213
I0
tp214
a(I5
I25
F-0.625
S'glad'
p215
I0
tp216
a(I5
I25
F-0.25
S'google'
p217
I0
tp218
a(I9
I6
F1.0
S'good'
p219
I0
tp220
a(I9
I20
I0
g193
I0
tp221
a(I9
I20
F-0.625
g199
I0
tp222
a(I9
I46
F-0.625
S'other'
p223
I0
tp224
a(I10
I9
F0.625
S'perfect'
p225
I0
tp226
a(I11
I38
F0.125
g201
I0
tp227
a(I13
I32
I0
S'next'
p228
I0
tp229
a(I24
I52
F0.375
S'new'
p230
I0
tp231
as(S'galaxy'
p232
tp233
(lp234
(I20
I43
F-0.625
S'other'
p235
I0
tp236
a(I31
I0
F1.0
S'better'
p237
I0
tp238
as(S'storage'
p239
tp240
(lp241
(I5
I66
I0
S'general'
p242
I1
tp243
a(I5
I69
F0.125
S'able'
p244
I1
tp245
a(I10
I40
F1.0
S'good'
p246
I1
tp247
a(I23
I48
I0
S'finite'
p248
I1
tp249
a(I40
I12
I0
S'wish'
p250
I1
tp251
as(S'gingerbread'
p252
tp253
(lp254
(I13
I35
I0
S'latest'
p255
I0
tp256
a(I16
I11
I0
S'android'
p257
I0
tp258
a(I18
I29
F-0.25
S'modern'
p259
I0
tp260
a(I24
I12
I0
S'latest'
p261
I0
tp262
as(S'updates'
p263
tp264
(lp265
(I40
I40
F0.625
S'major'
p266
I12
tp267
a(I40
I87
I0
S'latest'
p268
I12
tp269
as(S'sd'
p270
S'card'
p271
S'slot'
p272
tp273
(lp274
(I26
I32
I0
S'external'
p275
I0
tp276
a(I26
I49
F-0.375
S'manual'
p277
I0
tp278
a(I26
I52
I0
S'printed'
p279
I0
tp280
a(I5
I66
I0
S'internal'
p281
I0
tp282
a(I26
I32
I0
g275
I0
tp283
a(I26
I49
F-0.375
g277
I0
tp284
a(I26
I52
I0
g279
I0
tp285
as(S'stock'
p286
S'android'
p287
tp288
(lp289
(I34
I5
I0
S'android'
p290
I0
tp291
a(I39
I35
F0.875
S'nice'
p292
I0
tp293
a(I10
I7
F-0.625
g97
I0
tp294
a(I10
I14
F-0.625
S'clean'
p295
I0
tp296
a(I10
I43
F-0.75
g99
I0
tp297
a(I11
I33
F0.25
S'original'
p298
I0
tp299
a(I12
I22
F-0.5
g103
I0
tp300
a(I12
I38
I0
S'latest'
p301
I0
tp302
a(I12
I45
F0.375
g105
I0
tp303
a(I13
I6
F0.375
S'much'
p304
I0
tp305
a(I15
I32
F0.125
S'first'
p306
I0
tp307
a(I15
I33
I0
S'only'
p308
I0
tp309
a(I15
I42
F-0.625
S'want'
p310
I0
tp311
a(I15
I44
F-0.625
S'other'
p312
I0
tp313
a(I22
I1
F0.375
S'new'
p314
I0
tp315
a(I26
I22
F1.0
S'best'
p316
I0
tp317
a(I26
I34
F1.0
S'best'
p318
I0
tp319
a(I32
I15
F1.0
S'best'
p320
I0
tp321
a(I32
I25
F0.375
g115
I0
tp322
a(I35
I18
I0
g117
I0
tp323
a(I40
I7
I0
S'latest'
p324
I0
tp325
a(I40
I17
F-0.375
S'manual'
p326
I0
tp327
a(I40
I77
F0.375
S'new'
p328
I0
tp329
a(I40
I77
I0
S'3d'
p330
I0
tp331
as(S'network'
p332
tp333
(lp334
(I27
I2
I0
S'same'
p335
I0
tp336
as(S'external'
p337
S'sd'
p338
tp339
(lp340
(I26
I32
I0
g275
I0
tp341
a(I26
I35
I0
S'external'
p342
I0
tp343
as(S'sim'
p344
S'card'
p345
tp346
(lp347
(I5
I28
I0
S'own'
p348
I0
tp349
a(I29
I6
I0
S'same'
p350
I0
tp351
a(I40
I14
I0
S'local'
p352
I0
tp353
as(S'i9020t'
p354
tp355
(lp356
(I27
I1
F-0.5
S'complaint'
p357
I0
tp358
as(S'carrier'
p359
tp360
(lp361
(I5
I41
I0
S'fast'
p362
I1
tp363
as(S'warranty'
p364
tp365
(lp366
(I23
I11
I0
S'full'
p367
I2
tp368
a(I30
I1
F0.125
S'valid'
p369
I2
tp370
as(S'customer'
p371
S'service'
p372
tp373
(lp374
(I9
I20
F-0.625
S'bad'
p375
I3
tp376
as(S'wifi'
p377
tp378
(lp379
(I1
I3
F0.125
S'able'
p380
I0
tp381
a(I1
I9
F-0.25
S'battery'
p382
I0
tp383
a(I1
I9
I0
S'signal'
p384
I0
tp385
a(I1
I9
F-0.5
S'weak'
p386
I0
tp387
a(I5
I15
I0
S'instant'
p388
I0
tp389
a(I9
I5
I0
S'most'
p390
I0
tp391
a(I12
I31
F0.5
S'compatible'
p392
I0
tp393
a(I15
I0
F0.125
S'capable'
p394
I0
tp395
a(I16
I64
I0
S'quick'
p396
I0
tp397
a(I17
I14
F-0.5
S'regular'
p398
I0
tp399
as(S'apps'
p400
tp401
(lp402
(I11
I28
I0
S'many'
p403
I0
tp404
a(I12
I10
F-0.625
S'bad'
p405
I0
tp406
a(I12
I15
I0
S'hungry'
p407
I0
tp408
a(I12
I45
F-0.5
S'certain'
p409
I0
tp410
a(I14
I14
F1.0
S'good'
p411
I0
tp412
a(I15
I4
I0
S'many'
p413
I0
tp414
a(I16
I9
I0
S'more'
p415
I0
tp416
a(I16
I55
F0.375
S'new'
p417
I0
tp418
a(I16
I62
I0
S'local'
p419
I0
tp420
a(I24
I97
F0.375
S'available'
p421
I0
tp422
a(I26
I59
I0
S'few'
p423
I0
tp424
a(I30
I36
F0.375
S'newer'
p425
I0
tp426
a(I30
I36
I0
S'great'
p427
I0
tp428
a(I35
I38
I0
S'slower'
p429
I0
tp430
a(I39
I35
F0.375
S'similar'
p431
I0
tp432
as(S'amazon'
p433
tp434
(lp435
(I7
I0
F0.5
S'technical'
p436
I13
tp437
a(I9
I38
I0
S'truthful'
p438
I13
tp439
a(I14
I12
I0
S'quick'
p440
I13
tp441
a(I16
I34
F0.375
S'new'
p442
I13
tp443
a(I26
I27
F0.125
S'last'
p444
I13
tp445
as.