(dp0
(S'key'
p1
S'pad'
p2
tp3
(lp4
(I30
I4
F0.5
S'touch'
p5
I0
tp6
a(I128
I4
F0.125
S'key'
p7
I0
tp8
a(I128
I6
F0.375
S'new'
p9
I0
tp10
a(I128
I6
F0.125
S'key'
p11
I0
tp12
a(I128
I8
F0.125
S'key'
p13
I0
tp14
as(S'mobile'
p15
tp16
(lp17
(I43
I0
F-0.75
S'secondary'
p18
I0
tp19
a(I43
I1
F0.125
S'first'
p20
I0
tp21
a(I131
I6
F0.375
S'new'
p22
I0
tp23
as(S'battery'
p24
S'life'
p25
tp26
(lp27
(I28
I1
I0
S'great'
p28
I1
tp29
a(I66
I46
F-0.375
S'small'
p30
I1
tp31
a(I71
I3
F-0.5
S'poor'
p32
I1
tp33
a(I102
I37
F-0.125
S'overall'
p34
I1
tp35
a(I102
I37
I0
S'sturdy'
p36
I1
tp37
a(I37
I3
F0.375
S'new'
p38
I15
tp39
a(I37
I3
I0
S'same'
p40
I15
tp41
a(I56
I6
F0.375
S'new'
p42
I15
tp43
a(I66
I46
F-0.375
g30
I15
tp44
a(I88
I9
F0.375
S'new'
p45
I15
tp46
a(I102
I37
F-0.125
g34
I15
tp47
a(I102
I37
I0
g36
I15
tp48
as(S'usb'
p49
S'cable'
p50
tp51
(lp52
(I3
I14
I0
S'cable'
p53
I2
tp54
a(I3
I14
I0
S'female'
p55
I2
tp56
a(I3
I31
I0
S'cable'
p57
I2
tp58
a(I66
I16
I0
S'cable'
p59
I2
tp60
a(I115
I0
I0
S'cable'
p61
I2
tp62
as(S'que'
p63
S'el'
p64
tp65
(lp66
(I19
I0
F0.5
S'bold'
p67
I0
tp68
a(I69
I8
I0
S'al'
p69
I0
tp70
as(S'da'
p71
S'ntilde'
p72
tp73
(lp74
(I122
I5
I0
S'al'
p75
I0
tp76
as(S'and'
p77
S'blackberry'
p78
S'bold'
p79
tp80
(lp81
(I102
I14
F0.625
S'productive'
p82
I0
tp83
a(I102
I23
F-0.625
S'other'
p84
I0
tp85
a(I22
I6
F0.375
S'new'
p86
I0
tp87
a(I48
I2
F1.0
S'good'
p88
I0
tp89
a(I102
I14
F0.625
g82
I0
tp90
a(I102
I16
F0.125
S'able'
p91
I0
tp92
a(I102
I23
F-0.625
g84
I0
tp93
as(S'service'
p94
tp95
(lp96
(I7
I8
F-0.875
S'trouble'
p97
I16
tp98
a(I51
I11
F0.5
S'technical'
p99
I16
tp100
a(I56
I5
F0.5
S'technical'
p101
I16
tp102
a(I56
I5
F-0.75
S'dead'
p103
I16
tp104
a(I57
I22
F1.0
S'good'
p105
I16
tp106
a(I57
I22
F-0.625
S'bad'
p107
I16
tp108
a(I69
I6
I0
S'supplier'
p109
I16
tp110
a(I84
I3
F-0.5
S'poor'
p111
I16
tp112
a(I98
I5
F1.0
S'good'
p113
I16
tp114
as(S'el'
p115
S'telefono'
p116
tp117
(lp118
(I113
I0
F0.5
S'bold'
p119
I0
tp120
as(S'y'
p121
S'el'
p122
tp123
(lp124
(I113
I0
F0.5
g119
I2
tp125
as(S'el'
p126
S'tel'
p127
S'eacute'
p128
tp129
(lp130
(I0
I9
I0
S'ese'
p131
I0
tp132
a(I0
I9
I0
g131
I1
tp133
a(I113
I0
F0.5
g119
I1
tp134
as(S'lo'
p135
S'que'
p136
tp137
(lp138
(I19
I0
F0.5
g67
I0
tp139
a(I69
I8
I0
g69
I0
tp140
a(I137
I5
I0
S'particular'
p141
I0
tp142
as(S'de'
p143
S'lo'
p144
tp145
(lp146
(I3
I31
F-0.375
S'manual'
p147
I1
tp148
a(I137
I5
I0
g141
I1
tp149
as(S'iacute'
p150
tp151
(lp152
(I24
I10
I-100
S'garantizaban'
p153
I1
tp154
as(S'ya'
p155
S'que'
p156
tp157
(lp158
(I69
I8
I0
g69
I0
tp159
as(S'keyboard'
p160
tp161
(lp162
(I26
I5
I0
S'sensitive'
p163
I2
tp164
a(I66
I1
F0.75
S'classic'
p165
I2
tp166
as(S'oacute'
p167
S'n'
p168
S'que'
p169
tp170
(lp171
(I19
I0
F0.5
g67
I0
tp172
a(I69
I8
I0
g69
I0
tp173
as(S'seller'
p174
tp175
(lp176
(I24
I4
F0.125
S'first'
p177
I19
tp178
a(I52
I2
F0.375
S'honest'
p179
I19
tp180
a(I114
I5
F0.875
S'nice'
p181
I19
tp182
a(I114
I5
F0.5
S'reasonable'
p183
I19
tp184
a(I116
I4
F-0.75
S'unable'
p185
I19
tp186
a(I124
I11
F-0.625
S'unprofessional'
p187
I19
tp188
a(I124
I11
F-0.25
S'unhelpful'
p189
I19
tp190
a(I126
I4
F-0.875
S'hard'
p191
I19
tp192
a(I136
I5
F-0.5
S'sure'
p193
I19
tp194
as(S'de'
p195
S'la'
p196
tp197
(lp198
(I3
I31
F-0.375
g147
I2
tp199
as(S'blackberry'
p200
S'app'
p201
S'world'
p202
tp203
(lp204
(I102
I23
F-0.625
g84
I0
tp205
a(I19
I15
F0.25
S'favorite'
p206
I1
tp207
a(I19
I28
F0.375
S'new'
p208
I1
tp209
a(I21
I2
F0.125
S'first'
p210
I1
tp211
a(I22
I6
F0.375
g86
I1
tp212
a(I26
I1
I0
S'cool'
p213
I1
tp214
a(I48
I2
F1.0
g88
I1
tp215
a(I66
I1
F1.0
S'love'
p216
I1
tp217
a(I73
I1
F-0.25
S'cheaper'
p218
I1
tp219
a(I81
I0
F1.0
S'good'
p220
I1
tp221
a(I85
I4
I0
S'great'
p222
I1
tp223
a(I89
I8
F-0.5
S'international'
p224
I1
tp225
a(I89
I8
I0
S'domestic'
p226
I1
tp227
a(I102
I2
I0
S'generic'
p228
I1
tp229
a(I102
I14
F0.625
g82
I1
tp230
a(I102
I23
F-0.625
g84
I1
tp231
a(I122
I26
I0
S'real'
p232
I1
tp233
a(I123
I5
F0.125
S'usual'
p234
I1
tp235
a(I131
I2
F0.25
S'original'
p236
I1
tp237
a(I135
I6
F0.375
S'enable'
p238
I1
tp239
as(S'network'
p240
tp241
(lp242
(I13
I6
I0
S'social'
p243
I0
tp244
a(I21
I6
I0
S'connect'
p245
I0
tp246
as(S'bold'
p247
S'9780'
p248
g121
tp249
(lp250
(I102
I16
F0.125
g91
I0
tp251
a(I102
I23
I-100
S'extra-bold'
p252
I0
tp253
a(I88
I10
F-0.625
S'glad'
p254
I1
tp255
a(I102
I16
F0.125
g91
I1
tp256
as(S'tel'
p257
S'eacute'
p258
S'fono'
p259
tp260
(lp261
(I0
I9
I0
g131
I0
tp262
a(I0
I9
I0
g131
I0
tp263
as(S'amazon'
p264
tp265
(lp266
(I22
I9
F-0.5
S'sure'
p267
I13
tp268
a(I22
I9
I0
S'electronic'
p269
I13
tp270
a(I30
I7
F-0.5
S'upset'
p271
I13
tp272
a(I71
I6
F-0.25
S'disappointed'
p273
I13
tp274
a(I83
I5
F-0.125
S'mine'
p275
I13
tp276
a(I115
I1
F-0.75
S'wrong'
p277
I13
tp278
a(I124
I0
I0
S'great'
p279
I13
tp280
as(S'es'
p281
S'un'
p282
tp283
(lp284
(I0
I1
F0.25
S'original'
p285
I5
tp286
a(I7
I12
F0.625
S'superior'
p287
I5
tp288
a(I20
I1
I0
S'general'
p289
I5
tp290
as(S'black'
p291
tp292
(lp293
(I26
I3
F0.375
S'newest'
p294
I19
tp295
as(S'oacute'
p296
g168
S'de'
p297
tp298
(lp299
(I3
I31
F-0.375
g147
I0
tp300
as(S'es'
p301
S'muy'
p302
tp303
(lp304
(I7
I12
F0.625
g287
I0
tp305
as(S'con'
p306
S'la'
p307
tp308
(lp309
(I92
I7
F0.5
S'compatible'
p310
I1
tp311
as(S'4'
p312
S'and'
p313
S'blackberry'
p314
tp315
(lp316
(I102
I14
F0.625
g82
I0
tp317
a(I102
I23
F-0.625
g84
I0
tp318
as(S'en'
p319
S'el'
p320
tp321
(lp322
(I3
I21
I0
S'particular'
p323
I0
tp324
a(I113
I0
F0.5
g119
I0
tp325
as(S'que'
p326
S'es'
p327
tp328
(lp329
(I0
I1
F0.25
g285
I1
tp330
a(I7
I12
F0.625
g287
I1
tp331
a(I19
I0
F0.5
g67
I1
tp332
a(I69
I8
I0
g69
I1
tp333
as(S'de'
p334
S'un'
p335
tp336
(lp337
(I3
I31
F-0.375
g147
I0
tp338
a(I20
I1
I0
g289
I0
tp339
as(S'wall'
p340
S'charger'
p341
tp342
(lp343
(I3
I14
I0
S'standard'
p344
I1
tp345
a(I115
I0
I0
S'standard'
p346
I1
tp347
as(S'el'
p348
S'bold'
p349
tp350
(lp351
(I113
I0
F0.5
g119
I0
tp352
as(S'que'
p353
S'la'
p354
tp355
(lp356
(I19
I0
F0.5
g67
I0
tp357
a(I69
I8
I0
g69
I0
tp358
as(S'ntilde'
p359
S'o'
p360
tp361
(lp362
(I122
I5
I0
g75
I0
tp363
a(I122
I5
I0
g75
I1
tp364
as(S'very'
p365
S'good'
p366
S'product'
p367
tp368
(lp369
(I92
I1
F1.0
S'good'
p370
I1
tp371
a(I104
I0
I0
S'choose'
p372
I1
tp373
a(I40
I0
F1.0
S'good'
p374
I13
tp375
a(I56
I0
F1.0
S'good'
p376
I13
tp377
a(I92
I1
F1.0
g370
I13
tp378
a(I104
I0
I0
g372
I13
tp379
a(I112
I2
I0
S'wish'
p380
I13
tp381
a(I112
I2
F1.0
S'good'
p382
I13
tp383
as(S'bands'
p384
tp385
(lp386
(I54
I1
F0.5
S'compatible'
p387
I5
tp388
as(S'en'
p389
S'la'
p390
tp391
(lp392
(I3
I21
I0
g323
I1
tp393
as(S'mp'
p394
S'camera'
p395
tp396
(lp397
(I33
I2
F0.5
S'clear'
p398
I0
tp399
a(I13
I4
I0
S'great'
p400
I1
tp401
a(I26
I7
F-0.5
S'poor'
p402
I1
tp403
a(I66
I45
F1.0
S'good'
p404
I1
tp405
a(I71
I8
F1.0
S'good'
p406
I1
tp407
a(I115
I5
F1.0
S'good'
p408
I1
tp409
as.