(dp0
(S'text'
p1
S'message'
p2
tp3
(lp4
(I8
I71
F-0.75
S'worse'
p5
I0
tp6
a(I10
I70
F-0.5
S'long'
p7
I1
tp8
a(I15
I20
F-0.375
S'simple'
p9
I1
tp10
a(I17
I9
F-0.375
S'simpler'
p11
I1
tp12
a(I23
I4
I0
S'full'
p13
I1
tp14
as(S'key'
p15
S'pad'
p16
tp17
(lp18
(I3
I3
F0.125
S'key'
p19
I0
tp20
a(I3
I3
F0.375
S'new'
p21
I0
tp22
a(I3
I3
F0.125
S'key'
p23
I0
tp24
as(S'battery'
p25
S'life'
p26
tp27
(lp28
(I7
I5
F1.0
S'good'
p29
I1
tp30
a(I7
I6
F-0.5
S'long'
p31
I1
tp32
a(I7
I59
I0
S'great'
p33
I1
tp34
a(I8
I88
I0
S'incredible'
p35
I1
tp36
a(I8
I88
F-0.125
S'super'
p37
I1
tp38
a(I8
I88
F0.625
S'easy'
p39
I1
tp40
a(I10
I19
F-0.5
S'long'
p41
I1
tp42
a(I10
I58
F-0.5
S'long'
p43
I1
tp44
a(I11
I86
I0
S'great'
p45
I1
tp46
a(I15
I27
I-100
S'8-battery'
p47
I1
tp48
a(I15
I27
I0
S'great'
p49
I1
tp50
a(I15
I27
I0
S'full'
p51
I1
tp52
a(I17
I33
I0
S'full'
p53
I1
tp54
a(I18
I52
F0.5
S'strong'
p55
I1
tp56
a(I7
I59
I0
g33
I19
tp57
a(I8
I88
F-0.125
g37
I19
tp58
a(I8
I88
F0.625
g39
I19
tp59
a(I11
I86
I0
g45
I19
tp60
a(I15
I27
I0
g49
I19
tp61
a(I18
I52
F0.5
g55
I19
tp62
a(I7
I5
F1.0
g29
I15
tp63
a(I7
I6
F-0.5
g31
I15
tp64
a(I8
I88
I0
g35
I15
tp65
a(I10
I19
F-0.5
g41
I15
tp66
a(I10
I58
F-0.5
g43
I15
tp67
a(I15
I27
I0
g51
I15
tp68
a(I17
I33
I0
g53
I15
tp69
a(I18
I11
I0
S'great'
p70
I15
tp71
a(I18
I53
I0
S'full'
p72
I15
tp73
a(I21
I7
F0.125
S'last'
p74
I15
tp75
a(I22
I16
F0.125
S'last'
p76
I15
tp77
as(S'customer'
p78
S'service'
p79
tp80
(lp81
(I10
I31
F-0.5
S'less'
p82
I3
tp83
a(I10
I31
F0.25
S'helpful'
p84
I3
tp85
a(I8
I54
I0
S'monthly'
p86
I16
tp87
a(I8
I84
I0
S'great'
p88
I16
tp89
a(I10
I31
F-0.5
g82
I16
tp90
a(I10
I31
F0.25
g84
I16
tp91
a(I11
I47
F-0.75
S'likely'
p92
I16
tp93
a(I15
I86
F0.375
S'flexible'
p94
I16
tp95
as(S'keys'
p96
tp97
(lp98
(I7
I28
F-0.75
S'wrong'
p99
I9
tp100
a(I8
I25
F-0.5
S'press'
p101
I9
tp102
a(I8
I25
F-0.625
S'other'
p103
I9
tp104
a(I8
I36
F0.625
S'easy'
p105
I9
tp106
a(I8
I36
I0
S'big'
p107
I9
tp108
a(I8
I50
F0.625
S'easy'
p109
I9
tp110
a(I8
I50
I0
S'few'
p111
I9
tp112
a(I10
I36
F0.375
S'available'
p113
I9
tp114
a(I11
I22
I0
S'softer'
p115
I9
tp116
a(I11
I43
I0
S'noisy'
p117
I9
tp118
a(I17
I93
F-0.375
S'small'
p119
I9
tp120
as(S'call'
p121
S'quality'
p122
tp123
(lp124
(I7
I64
F1.0
S'good'
p125
I0
tp126
a(I14
I19
F1.0
S'good'
p127
I0
tp128
a(I17
I46
I0
S'great'
p129
I0
tp130
a(I17
I83
F1.0
S'good'
p131
I0
tp132
as(S'ovi'
p133
S'store'
p134
tp135
(lp136
(I11
I89
F0.5
S'compatible'
p137
I0
tp138
a(I18
I81
I0
S'more'
p139
I0
tp140
as(S'nokia'
p141
S'x2'
p142
tp143
(lp144
(I10
I38
F-0.875
S'inferior'
p145
I0
tp146
a(I22
I7
F-0.625
S'bad'
p147
I0
tp148
a(I23
I36
I0
S'old'
p149
I0
tp150
a(I3
I3
F0.125
S'first'
p151
I0
tp152
a(I8
I65
F0.5
S'second'
p153
I0
tp154
a(I11
I60
F0.5
S'compatible'
p155
I0
tp156
a(I21
I2
F0.875
S'happiest'
p157
I0
tp158
a(I23
I36
I0
g149
I0
tp159
as(S'call'
p160
S'or'
p161
S'text'
p162
tp163
(lp164
(I17
I83
F1.0
g131
I0
tp165
a(I18
I101
F0.125
S'last'
p166
I0
tp167
a(I7
I55
F-0.625
S'quiet'
p168
I18
tp169
a(I8
I71
F-0.75
g5
I18
tp170
as(S'camera'
p171
tp172
(lp173
(I7
I52
F1.0
S'good'
p174
I1
tp175
a(I8
I38
F0.5
S'clear'
p176
I1
tp177
a(I8
I75
I0
S'standard'
p178
I1
tp179
a(I9
I23
I0
S'most'
p180
I1
tp181
a(I11
I35
F1.0
S'better'
p182
I1
tp183
a(I11
I68
I0
S'great'
p184
I1
tp185
a(I11
I87
F-0.625
S'bad'
p186
I1
tp187
a(I15
I23
F-0.625
S'bad'
p188
I1
tp189
a(I15
I54
F0.625
S'extraordinary'
p190
I1
tp191
a(I16
I2
F0.375
S'loud'
p192
I1
tp193
a(I16
I2
F1.0
S'good'
p194
I1
tp195
a(I21
I14
F0.125
S'spectacular'
p196
I1
tp197
as(S'games'
p198
tp199
(lp200
(I9
I15
F-0.5
S'actual'
p201
I19
tp202
a(I9
I16
F-0.375
S'simple'
p203
I19
tp204
a(I9
I16
F-0.375
S'kid'
p205
I19
tp206
a(I10
I27
I0
S'few'
p207
I19
tp208
a(I10
I27
F1.0
S'good'
p209
I19
tp210
a(I18
I49
F-0.625
S'free'
p211
I19
tp212
as(S'qwerty'
p213
S'keyboard'
p214
tp215
(lp216
(I8
I36
F-0.375
S'small'
p217
I0
tp218
a(I17
I49
I0
S'full'
p219
I0
tp220
a(I18
I25
F-0.5
S'actual'
p221
I0
tp222
as(S'apps'
p223
tp224
(lp225
(I2
I5
I0
S'such'
p226
I0
tp227
a(I8
I52
I0
S'special'
p228
I0
tp229
a(I15
I25
F-0.625
S'other'
p230
I0
tp231
a(I15
I26
I0
S'many'
p232
I0
tp233
a(I18
I58
I0
S'cool'
p234
I0
tp235
as(S'internet'
p236
tp237
(lp238
(I8
I54
I-100
S'full-on'
p239
I6
tp240
a(I10
I11
F0.875
S'nice'
p241
I6
tp242
a(I14
I15
I0
S'basic'
p243
I6
tp244
a(I15
I31
I0
S'fastest'
p245
I6
tp246
as(S'a'
p247
S'full'
p248
S'keyboard'
p249
tp250
(lp251
(I8
I97
I0
S'full'
p252
I0
tp253
a(I10
I10
I0
S'full'
p254
I0
tp255
a(I11
I41
I0
S'full'
p256
I0
tp257
a(I11
I65
I0
S'full'
p258
I0
tp259
a(I18
I102
I0
S'full'
p260
I0
tp261
a(I21
I9
I0
S'full'
p262
I0
tp263
a(I8
I97
I0
g252
I0
tp264
a(I10
I10
I0
g254
I0
tp265
a(I11
I41
I0
g256
I0
tp266
a(I11
I65
I0
g258
I0
tp267
a(I18
I102
I0
g260
I0
tp268
a(I21
I9
I0
g262
I0
tp269
a(I7
I27
F0.625
S'easy'
p270
I2
tp271
a(I8
I97
I0
g252
I2
tp272
a(I10
I10
I0
g254
I2
tp273
a(I10
I33
F-0.625
S'other'
p274
I2
tp275
a(I11
I15
I0
S'great'
p276
I2
tp277
a(I11
I20
F0.5
S'so-so'
p278
I2
tp279
a(I11
I41
I0
g256
I2
tp280
a(I11
I42
F0.625
S'easy'
p281
I2
tp282
a(I11
I65
I0
g258
I2
tp283
a(I15
I65
F-0.625
S'bad'
p284
I2
tp285
a(I18
I102
I0
g260
I2
tp286
a(I21
I9
I0
g262
I2
tp287
as(S'year'
p288
S'contract'
p289
tp290
(lp291
(I8
I43
F0.25
S'tired'
p292
I0
tp293
a(I4
I36
F0.375
S'new'
p294
I0
tp295
a(I8
I43
F0.25
g292
I0
tp296
as(S'prepaid'
p297
tp298
(lp299
(I10
I50
I0
S'big'
p300
I0
tp301
a(I10
I50
F0.75
S'beautiful'
p302
I0
tp303
a(I22
I13
F1.0
S'good'
p304
I0
tp305
as(S'messages'
p306
tp307
(lp308
(I18
I101
I0
S'such'
p309
I1
tp310
a(I22
I4
F1.0
S'good'
p311
I1
tp312
as(S'social'
p313
S'networking'
p314
tp315
(lp316
(I8
I97
I0
S'social'
p317
I0
tp318
a(I11
I72
I0
S'social'
p319
I0
tp320
a(I15
I32
I0
S'social'
p321
I0
tp322
a(I18
I57
I0
S'social'
p323
I0
tp324
as(S'sound'
p325
tp326
(lp327
(I8
I88
I0
S'great'
p328
I7
tp329
a(I8
I88
F0.625
S'easy'
p330
I7
tp331
as(S'texts'
p332
tp333
(lp334
(I8
I82
F-0.75
S'little'
p335
I0
tp336
a(I18
I107
F0.75
S'receive'
p337
I0
tp338
as(S'smart'
p339
tp340
(lp341
(I4
I43
I0
S'great'
p342
I10
tp343
a(I4
I43
F-0.375
S'simple'
p344
I10
tp345
a(I5
I1
F-0.125
S'invest'
p346
I10
tp347
a(I5
I1
F0.5
S'expensive'
p348
I10
tp349
a(I8
I97
F1.0
S'good'
p350
I10
tp351
a(I10
I29
I0
S'full'
p352
I10
tp353
a(I14
I15
I0
S'basic'
p354
I10
tp355
as(S'buttons'
p356
tp357
(lp358
(I6
I26
I0
S'stiff'
p359
I13
tp360
a(I6
I26
F-0.375
S'wear'
p361
I13
tp362
a(I8
I11
I0
S'noisy'
p363
I13
tp364
a(I10
I30
I0
S'many'
p365
I13
tp366
a(I11
I42
I0
S'large'
p367
I13
tp368
a(I11
I86
F0.25
S'responsive'
p369
I13
tp370
a(I18
I25
F0.875
S'nice'
p371
I13
tp372
a(I18
I78
I0
S'soft'
p373
I13
tp374
as(S'calls'
p375
tp376
(lp377
(I10
I50
F0.5
S'clear'
p378
I0
tp379
a(I17
I10
F-0.375
S'simple'
p380
I0
tp381
a(I17
I94
F0.5
S'clear'
p382
I0
tp383
a(I18
I89
F-0.5
S'regular'
p384
I0
tp385
as(S'sim'
p386
S'card'
p387
tp388
(lp389
(I0
I1
F0.375
S'available'
p390
I0
tp391
a(I8
I0
I0
S'current'
p392
I0
tp393
a(I15
I69
I0
S'old'
p394
I0
tp395
as(S'music'
p396
tp397
(lp398
(I10
I14
I0
S'great'
p399
I0
tp400
a(I17
I15
F0.125
S'able'
p401
I0
tp402
a(I20
I3
F1.0
S'good'
p403
I0
tp404
as(S'blackberry'
p405
tp406
(lp407
(I8
I32
F0.625
S'easier'
p408
I1
tp409
as(S'data'
p410
tp411
(lp412
(I2
I0
F0.375
S'complete'
p413
I13
tp414
a(I4
I38
F1.0
S'good'
p415
I13
tp416
a(I15
I55
F1.0
S'good'
p417
I13
tp418
as(S'micro'
p419
S'sd'
p420
S'card'
p421
tp422
(lp423
(I7
I29
F0.375
S'tight'
p424
I0
tp425
a(I18
I63
F0.875
S'music'
p426
I0
tp427
a(I7
I29
F0.375
g424
I0
tp428
a(I18
I63
F0.875
g426
I0
tp429
as(S'memory'
p430
tp431
(lp432
(I9
I15
F-0.75
S'little'
p433
I5
tp434
a(I15
I16
I0
S'internal'
p435
I5
tp436
a(I17
I58
F-0.75
S'shallow'
p437
I5
tp438
a(I17
I74
I0
S'full'
p439
I5
tp440
a(I23
I3
I0
S'full'
p441
I5
tp442
as(S'picture'
p443
S'quality'
p444
tp445
(lp446
(I0
I6
F-0.625
S'bad'
p447
I1
tp448
a(I9
I17
F-0.625
S'bad'
p449
I1
tp450
a(I9
I17
F-0.75
S'difficult'
p451
I1
tp452
a(I18
I108
F0.5
S'shown'
p453
I1
tp454
a(I23
I34
F1.0
S'good'
p455
I1
tp456
as(S'texting'
p457
tp458
(lp459
(I7
I5
F0.125
S'capable'
p460
I0
tp461
a(I10
I24
I0
S'great'
p462
I0
tp463
a(I17
I33
I0
S'big'
p464
I0
tp465
a(I17
I83
F0.875
S'nice'
p466
I0
tp467
a(I17
I90
F0.625
S'interested'
p468
I0
tp469
as(S'job'
p470
S'done'
p471
tp472
(lp473
(I17
I15
F0.375
S'improve'
p474
I2
tp475
as.