(dp0
(S'something'
p1
tp2
(lp3
(I77
I6
F-0.625
S'free'
p4
tp5
a(I125
I2
F-0.375
S'simpler'
p6
tp7
a(I168
I3
F-0.75
S'wrong'
p8
tp9
a(I206
I7
I0
S'more'
p10
tp11
a(I222
I1
I0
S'more'
p12
tp13
a(I222
I1
F0.5
S'advanced'
p14
tp15
a(I222
I7
I0
S'least'
p16
tp17
a(I260
I2
F-0.75
S'wrong'
p18
tp19
a(I301
I16
F-0.75
S'wrong'
p20
tp21
a(I320
I6
I0
S'android'
p22
tp23
a(I332
I6
F0.5
S'expensive'
p24
tp25
a(I367
I29
F-0.375
S'small'
p26
tp27
a(I393
I0
F-0.75
S'wrong'
p28
tp29
a(I439
I0
F0.375
S'new'
p30
tp31
a(I473
I0
F0.375
S'new'
p32
tp33
a(I473
I0
F0.375
S'interesting'
p34
tp35
as(S'keyboard'
p36
tp37
(lp38
(I13
I1
F0.875
S'nice'
p39
tp40
a(I38
I3
I0
S'incredible'
p41
tp42
a(I49
I11
I0
S'electronic'
p43
tp44
a(I83
I7
F-0.375
S'small'
p45
tp46
a(I113
I2
F-0.375
S'small'
p47
tp48
a(I114
I5
F0.625
S'perfect'
p49
tp50
a(I125
I6
I0
S'real'
p51
tp52
a(I125
I8
F-0.5
S'try'
p53
tp54
a(I125
I8
F-0.625
S'other'
p55
tp56
a(I129
I1
I0
S'physical'
p57
tp58
a(I142
I1
F1.0
S'good'
p59
tp60
a(I153
I15
F-0.375
S'small'
p61
tp62
a(I154
I2
I0
S'great'
p63
tp64
a(I159
I2
F0.125
S'able'
p65
tp66
a(I184
I23
F-0.625
S'useless'
p67
tp68
a(I184
I27
I0
S'physical'
p69
tp70
a(I184
I28
F0.125
S'flaky'
p71
tp72
a(I187
I2
F-0.375
S'small'
p73
tp74
a(I199
I8
I0
S'wont'
p75
tp76
a(I257
I2
F-0.375
S'small'
p77
tp78
a(I257
I2
F0.5
S'functional'
p79
tp80
a(I284
I5
F-0.375
S'small'
p81
tp82
a(I291
I0
I0
S'physical'
p83
tp84
a(I294
I4
F-0.375
S'small'
p85
tp86
a(I324
I0
F-0.375
S'small'
p87
tp88
a(I324
I0
I0
S'least'
p89
tp90
a(I333
I8
F0.625
S'easy'
p91
tp92
a(I340
I1
F-0.75
S'difficult'
p93
tp94
a(I347
I7
I0
S'great'
p95
tp96
a(I350
I0
I0
S'physical'
p97
tp98
a(I370
I0
F-0.375
S'small'
p99
tp100
a(I380
I4
F1.0
S'good'
p101
tp102
a(I391
I62
F-0.375
S'small'
p103
tp104
a(I391
I62
I0
S'external'
p105
tp106
a(I395
I1
I0
S'full'
p107
tp108
a(I428
I1
I0
S'real'
p109
tp110
a(I429
I0
I0
S'physical'
p111
tp112
a(I429
I9
I0
S'physical'
p113
tp114
a(I429
I9
F0.625
S'easier'
p115
tp116
a(I454
I5
F0.875
S'nice'
p117
tp118
a(I465
I26
F-0.375
S'small'
p119
tp120
a(I470
I0
F-0.375
S'small'
p121
tp122
a(I480
I9
F0.875
S'nice'
p123
tp124
a(I480
I9
F-0.375
S'small'
p125
tp126
as(S'nice'
p127
tp128
(lp129
(I289
I11
F0.625
S'easy'
p130
tp131
as(S'bought'
p132
S'palm'
p133
S'pixi'
p134
tp135
(lp136
(I17
I0
I0
S'old'
p137
tp138
a(I55
I10
F-0.625
S'ineffective'
p139
tp140
a(I391
I1
F0.5
S'bought'
p141
tp142
a(I419
I0
F0.375
S'new'
p143
tp144
as(S'kitty'
p145
S'wireless'
p146
tp147
(lp148
(I217
I10
F0.25
S'kitty'
p149
tp150
a(I226
I3
I0
S'great'
p151
tp152
a(I226
I3
I0
S'tutorial'
p153
tp154
a(I341
I9
F0.25
S'kitty'
p155
tp156
a(I341
I9
I0
S'website'
p157
tp158
a(I477
I5
I0
S'next'
p159
tp160
a(I477
I8
F0.25
S'helpful'
p161
tp162
a(I477
I8
I0
S'e-mail'
p163
tp164
a(I477
I8
F0.25
S'kitty'
p165
tp166
a(I477
I11
F0.25
S'kitty'
p167
tp168
as(S'touch'
p169
tp170
(lp171
(I83
I7
F0.25
S'responsive'
p172
tp173
a(I96
I5
I0
S'great'
p174
tp175
a(I179
I14
I0
S'soft'
p176
tp177
a(I179
I14
I0
S'plastic'
p178
tp179
a(I187
I3
I0
S'sensitive'
p180
tp181
a(I235
I0
F0.25
S'responsive'
p182
tp183
a(I301
I14
F0.5
S'personal'
p184
tp185
a(I302
I6
I0
S'great'
p186
tp187
a(I334
I3
F1.0
S'good'
p188
tp189
a(I406
I5
F-0.75
S'dead'
p190
tp191
as(S'month'
p192
tp193
(lp194
(I1
I4
I0
S'full'
p195
tp196
a(I132
I3
F-0.875
S'unhappy'
p197
tp198
a(I132
I48
F0.5
S'whole'
p199
tp200
a(I202
I0
F0.125
S'last'
p201
tp202
a(I202
I5
F1.0
S'good'
p203
tp204
a(I213
I6
I0
S'few'
p205
tp206
a(I277
I8
F1.0
S'better'
p207
tp208
a(I313
I28
F0.375
S'new'
p209
tp210
a(I313
I28
I0
S'least'
p211
tp212
a(I435
I0
F0.375
S'went'
p213
tp214
a(I464
I0
F0.375
S'extra'
p215
tp216
a(I475
I1
I0
S'internet'
p217
tp218
a(I475
I1
F-0.625
S'free'
p219
tp220
as(S'verizon'
p221
tp222
(lp223
(I1
I3
F0.5
S'true'
p224
tp225
a(I5
I1
F-0.75
S'hate'
p226
tp227
a(I20
I0
F0.25
S'original'
p228
tp229
a(I49
I6
I0
S'least'
p230
tp231
a(I58
I1
I0
S'local'
p232
tp233
a(I91
I0
F0.25
S'unlocked'
p234
tp235
a(I101
I4
F0.5
S'told'
p236
tp237
a(I103
I1
F-0.375
S'simple'
p238
tp239
a(I179
I4
I0
S'website'
p240
tp241
a(I186
I6
F0.5
S'told'
p242
tp243
a(I226
I4
I0
S'earlier'
p244
tp245
a(I241
I1
I0
S'quick'
p246
tp247
a(I246
I6
F0.375
S'extra'
p248
tp249
a(I278
I0
F0.125
S'able'
p250
tp251
a(I283
I0
I0
S'anymore'
p252
tp253
a(I292
I3
I0
S'active'
p254
tp255
a(I292
I4
I0
S'quick'
p256
tp257
a(I296
I3
I0
S'old'
p258
tp259
a(I332
I5
F0.125
S'first'
p260
tp261
a(I332
I5
F-0.5
S'regular'
p262
tp263
a(I475
I13
F-0.625
S'other'
p264
tp265
a(I475
I13
I0
S'more'
p266
tp267
a(I475
I13
F0.5
S'expensive'
p268
tp269
as(S'a'
p270
S'good'
p271
S'deal'
p272
tp273
(lp274
(I49
I1
F1.0
S'good'
p275
tp276
a(I60
I0
F1.0
S'good'
p277
tp278
a(I150
I0
I0
S'great'
p279
tp280
a(I150
I0
F1.0
S'good'
p281
tp282
a(I315
I1
F1.0
S'good'
p283
tp284
a(I315
I2
F1.0
S'good'
p285
tp286
a(I343
I10
F1.0
S'good'
p287
tp288
a(I445
I0
I0
S'such'
p289
tp290
a(I445
I0
F1.0
S'good'
p291
tp292
a(I479
I0
F1.0
S'good'
p293
tp294
as(S'to'
p295
S'page'
p296
S'plus'
p297
tp298
(lp299
(I97
I1
I0
S'cellular'
p300
tp301
a(I123
I1
I0
S'cellular'
p302
tp303
a(I184
I5
I0
S'cellular'
p304
tp305
a(I215
I1
F0.625
S'easy'
p306
tp307
a(I266
I0
I0
S'great'
p308
tp309
a(I292
I3
I0
S'cellular'
p310
tp311
as(S'contract'
p312
tp313
(lp314
(I37
I6
F-0.5
S'sure'
p315
tp316
a(I61
I3
F-0.625
S'other'
p317
tp318
a(I74
I2
F-0.25
S'inexpensive'
p319
tp320
a(I95
I0
F0.375
S'new'
p321
tp322
a(I153
I4
F-0.5
S'less'
p323
tp324
a(I200
I0
F0.375
S'new'
p325
tp326
a(I227
I2
F0.375
S'new'
p327
tp328
a(I352
I6
I0
S'more'
p329
tp330
a(I381
I1
F0.5
S'expensive'
p331
tp332
a(I381
I1
I0
S'monthly'
p333
tp334
as(S'pixi'
p335
tp336
(lp337
(I19
I1
I0
S'current'
p338
tp339
a(I49
I0
F0.875
S'nice'
p340
tp341
a(I49
I3
I0
S'least'
p342
tp343
a(I55
I10
F-0.625
g139
tp344
a(I64
I0
F0.125
S'pal'
p345
tp346
a(I96
I1
I0
S'more'
p347
tp348
a(I153
I9
I0
S'tutorial'
p349
tp350
a(I171
I4
F0.5
S'compatible'
p351
tp352
a(I177
I0
F0.375
S'new'
p353
tp354
a(I246
I0
F0.75
S'worth'
p355
tp356
a(I246
I0
I0
S'more'
p357
tp358
a(I248
I1
F0.625
S'easy'
p359
tp360
a(I248
I1
I0
S'great'
p361
tp362
a(I257
I4
F-0.375
S'static'
p363
tp364
a(I285
I1
F-0.375
S'small'
p365
tp366
a(I285
I1
F0.625
S'easy'
p367
tp368
a(I289
I14
F-0.125
S'slow'
p369
tp370
a(I295
I5
I0
S'site'
p371
tp372
a(I303
I2
F0.375
S'much'
p373
tp374
a(I303
I18
F0.5
S'compatible'
p375
tp376
a(I353
I0
I0
S'earlier'
p377
tp378
a(I367
I9
F0.625
S'convenient'
p379
tp380
a(I367
I14
F0.625
S'easy'
p381
tp382
a(I367
I26
F-0.125
S'slow'
p383
tp384
a(I369
I7
F0.875
S'nice'
p385
tp386
a(I369
I7
F-0.75
S'little'
p387
tp388
a(I380
I6
F0.25
S'powerful'
p389
tp390
a(I380
I9
I0
S'different'
p391
tp392
a(I414
I8
F0.5
S'second'
p393
tp394
a(I419
I0
F0.375
g143
tp395
a(I465
I10
F0.375
S'available'
p396
tp397
a(I465
I12
F-0.5
S'sure'
p398
tp399
a(I465
I16
F-0.375
S'smaller'
p400
tp401
a(I465
I24
F0.5
S'slick'
p402
tp403
a(I475
I8
I0
S'more'
p404
tp405
as(S'app'
p406
S'store'
p407
tp408
(lp409
(I81
I1
F1.0
S'better'
p410
tp411
a(I98
I2
F0.625
S'easy'
p412
tp413
a(I98
I8
F-0.25
S'thin'
p414
tp415
a(I391
I32
F1.0
S'good'
p416
tp417
as(S'page'
p418
tp419
(lp420
(I20
I0
F1.0
S'good'
p421
tp422
a(I61
I4
I0
S'great'
p423
tp424
a(I81
I2
F-0.125
S'mine'
p425
tp426
a(I81
I2
I0
S'great'
p427
tp428
a(I97
I1
I0
g300
tp429
a(I123
I1
I0
g302
tp430
a(I184
I5
I0
g304
tp431
a(I215
I1
F0.625
g306
tp432
a(I258
I0
I0
S'cellular'
p433
tp434
a(I266
I0
I0
g308
tp435
a(I292
I3
I0
g310
tp436
a(I340
I6
I0
S'cellular'
p437
tp438
a(I378
I2
F0.5
S'whole'
p439
tp440
a(I400
I2
I0
S'cellular'
p441
tp442
as(S'store'
p443
tp444
(lp445
(I81
I1
F1.0
g410
tp446
a(I98
I8
F-0.25
g414
tp447
a(I391
I32
F1.0
g416
tp448
a(I417
I0
I0
S'retail'
p449
tp450
as(S'turn'
p451
tp452
(lp453
(I480
I9
F-0.125
S'slow'
p454
tp455
as(S'smartphone'
p456
tp457
(lp458
(I1
I11
F0.125
S'capable'
p459
tp460
a(I1
I12
I0
S'interim'
p461
tp462
a(I40
I1
I0
S'great'
p463
tp464
a(I59
I1
F-0.5
S'long'
p465
tp466
a(I129
I1
F-0.25
S'inexpensive'
p467
tp468
a(I129
I1
F-0.375
S'small'
p469
tp470
a(I131
I2
F0.375
S'new'
p471
tp472
a(I179
I25
F0.125
S'typical'
p473
tp474
a(I179
I29
F0.5
S'expensive'
p475
tp476
a(I180
I1
I0
S'great'
p477
tp478
a(I180
I7
I0
S'great'
p479
tp480
a(I181
I2
F0.125
S'last'
p481
tp482
a(I184
I0
F-0.125
S'minimum'
p483
tp484
a(I249
I0
F0.25
S'helpful'
p485
tp486
a(I249
I2
F-0.75
S'little'
p487
tp488
a(I249
I2
I0
S'slim'
p489
tp490
a(I251
I9
I0
S'great'
p491
tp492
a(I251
I9
F0.125
S'first'
p493
tp494
a(I251
I9
F1.0
S'best'
p495
tp496
a(I253
I7
F-0.25
S'cheapest'
p497
tp498
a(I288
I0
I0
S'such'
p499
tp500
a(I296
I0
F-0.5
S'poor'
p501
tp502
a(I303
I30
F0.5
S'true'
p503
tp504
a(I334
I0
I0
S'high'
p505
tp506
a(I340
I5
F-0.25
S'modern'
p507
tp508
a(I355
I1
F-0.25
S'inexpensive'
p509
tp510
a(I361
I6
F0.5
S'true'
p511
tp512
a(I374
I0
F0.125
S'first'
p513
tp514
a(I388
I4
F-0.625
S'other'
p515
tp516
a(I392
I8
I0
S'great'
p517
tp518
a(I396
I0
F0.125
S'first'
p519
tp520
a(I400
I6
I0
S'many'
p521
tp522
a(I429
I0
F-0.625
S'sometime'
p523
tp524
a(I429
I0
F0.125
S'first'
p525
tp526
a(I429
I1
F0.125
S'first'
p527
tp528
a(I429
I20
F0.125
S'first'
p529
tp530
a(I436
I0
F0.5
S'expensive'
p531
tp532
a(I440
I4
F-0.625
S'light'
p533
tp534
a(I443
I0
F0.625
S'easy'
p535
tp536
a(I454
I0
F0.125
S'first'
p537
tp538
a(I465
I16
F-0.25
S'thin'
p539
tp540
as(S'customer'
p541
S'service'
p542
tp543
(lp544
(I5
I2
F0.5
S'drive'
p545
tp546
a(I45
I12
F0.125
S'last'
p547
tp548
a(I127
I0
I0
S'great'
p549
tp550
a(I211
I2
I0
S'fast'
p551
tp552
a(I260
I4
I0
S'great'
p553
tp554
a(I298
I2
F-0.75
S'impossible'
p555
tp556
a(I477
I3
F0.375
S'friendly'
p557
tp558
as(S'wireless'
p559
tp560
(lp561
(I72
I2
F-0.625
S'free'
p562
tp563
a(I217
I10
F0.25
g149
tp564
a(I226
I3
I0
g151
tp565
a(I226
I3
I0
g153
tp566
a(I341
I9
F0.25
g155
tp567
a(I341
I9
I0
g157
tp568
a(I477
I11
F0.25
g167
tp569
as(S'wifi'
p570
tp571
(lp572
(I42
I1
I0
S'more'
p573
tp574
a(I132
I23
F-0.5
S'sure'
p575
tp576
a(I206
I3
F0.25
S'used'
p577
tp578
a(I222
I3
F0.375
S'available'
p579
tp580
a(I224
I0
F-0.25
S'cheapest'
p581
tp582
a(I234
I1
F-0.625
S'free'
p583
tp584
a(I277
I3
F0.375
S'available'
p585
tp586
a(I292
I12
I0
S'own'
p587
tp588
a(I292
I25
F0.375
S'enable'
p589
tp590
a(I344
I1
F-0.5
S'sure'
p591
tp592
a(I344
I1
F-0.625
S'free'
p593
tp594
a(I368
I3
F-0.625
S'free'
p595
tp596
a(I447
I1
F-0.375
S'near'
p597
tp598
a(I452
I0
F0.125
S'impressive'
p599
tp600
a(I477
I3
I0
S'many'
p601
tp602
as(S'use'
p603
S'with'
p604
S'page'
p605
tp606
(lp607
(I97
I1
I0
g300
tp608
a(I114
I1
F-0.5
S'less'
p609
tp610
a(I184
I5
I0
g304
tp611
a(I215
I1
F0.625
g306
tp612
a(I400
I2
I0
g441
tp613
as(S'problem'
p614
tp615
(lp616
(I59
I2
I0
S'only'
p617
tp618
a(I71
I1
F0.375
S'new'
p619
tp620
a(I122
I1
I0
S'only'
p621
tp622
a(I193
I4
I0
S'only'
p623
tp624
a(I213
I15
I0
S'common'
p625
tp626
a(I229
I9
F0.25
S'helpful'
p627
tp628
a(I229
I9
F0.625
S'easy'
p629
tp630
a(I229
I9
I0
S'only'
p631
tp632
a(I242
I3
I0
S'real'
p633
tp634
a(I257
I4
I0
S'common'
p635
tp636
a(I289
I14
F-0.625
S'other'
p637
tp638
a(I313
I35
F0.25
S'main'
p639
tp640
a(I376
I2
F-0.75
S'inconvenient'
p641
tp642
a(I407
I11
F-0.75
S'difficult'
p643
tp644
a(I436
I9
F-0.125
S'overall'
p645
tp646
a(I443
I3
I0
S'only'
p647
tp648
a(I477
I6
I0
S'common'
p649
tp650
as(S'good'
p651
tp652
(lp653
(I98
I0
F0.125
S'first'
p654
tp655
a(I213
I4
F0.75
S'give'
p656
tp657
as(S'email'
p658
tp659
(lp660
(I220
I6
F0.25
S'original'
p661
tp662
a(I392
I6
F1.0
S'good'
p663
tp664
a(I414
I3
F0.375
S'new'
p665
tp666
a(I480
I9
I0
S'streamlined'
p667
tp668
as(S'palm'
p669
S'pixi'
p670
tp671
(lp672
(I2
I0
F0.375
S'new'
p673
tp674
a(I17
I0
I0
g137
tp675
a(I55
I10
F-0.625
g139
tp676
a(I93
I0
F0.25
S'original'
p677
tp678
a(I96
I1
F-0.625
S'bad'
p679
tp680
a(I96
I1
I0
g347
tp681
a(I129
I8
F0.5
S'second'
p682
tp683
a(I153
I4
F0.375
S'new'
p684
tp685
a(I165
I0
F0.5
S'second'
p686
tp687
a(I177
I0
F0.375
S'new'
p688
tp689
a(I177
I0
F0.375
g353
tp690
a(I228
I0
F0.375
S'new'
p691
tp692
a(I246
I0
F0.75
g355
tp693
a(I246
I0
I0
g357
tp694
a(I246
I8
F0.125
S'able'
p695
tp696
a(I252
I8
F-0.75
S'incredulous'
p697
tp698
a(I267
I0
F0.25
S'original'
p699
tp700
a(I295
I5
I0
g371
tp701
a(I303
I2
F0.375
g373
tp702
a(I353
I0
I0
g377
tp703
a(I391
I1
F0.5
g141
tp704
a(I419
I0
F0.375
g143
tp705
a(I447
I2
I0
S'old'
p706
tp707
a(I458
I0
F0.25
S'original'
p708
tp709
a(I465
I10
F0.375
g396
tp710
a(I465
I24
F0.5
g402
tp711
a(I477
I5
F0.5
S'told'
p712
tp713
as(S'money'
p714
tp715
(lp716
(I45
I27
I0
S'least'
p717
tp718
a(I118
I2
F0.75
S'worth'
p719
tp720
a(I155
I0
F0.375
S'extra'
p721
tp722
a(I220
I10
F1.0
S'good'
p723
tp724
a(I301
I7
F0.5
S'second'
p725
tp726
a(I324
I0
I0
S'more'
p727
tp728
a(I425
I7
F0.125
S'enough'
p729
tp730
as(S'price'
p731
tp732
(lp733
(I9
I0
F0.625
S'fair'
p734
tp735
a(I23
I3
F0.5
S'reasonable'
p736
tp737
a(I33
I2
I0
S'great'
p738
tp739
a(I41
I1
I0
S'same'
p740
tp741
a(I61
I1
I0
S'great'
p742
tp743
a(I73
I6
I0
S'great'
p744
tp745
a(I76
I4
I0
S'full'
p746
tp747
a(I87
I5
I0
S'same'
p748
tp749
a(I89
I5
F-0.25
S'low'
p750
tp751
a(I95
I0
F-0.875
S'hard'
p752
tp753
a(I99
I6
F-0.125
S'overall'
p754
tp755
a(I99
I6
I0
S'great'
p756
tp757
a(I99
I6
F0.5
S'stylish'
p758
tp759
a(I131
I3
I0
S'great'
p760
tp761
a(I137
I6
F1.0
S'good'
p762
tp763
a(I137
I6
F-0.75
S'wrong'
p764
tp765
a(I151
I7
I0
S'great'
p766
tp767
a(I174
I0
F0.5
S'reasonable'
p768
tp769
a(I180
I2
I0
S'such'
p770
tp771
a(I180
I2
F-0.25
S'low'
p772
tp773
a(I193
I3
I0
S'great'
p774
tp775
a(I201
I0
F-0.125
S'overall'
p776
tp777
a(I201
I0
I0
S'great'
p778
tp779
a(I207
I0
F-0.25
S'low'
p780
tp781
a(I227
I1
F-0.25
S'lower'
p782
tp783
a(I242
I14
F-0.25
S'lower'
p784
tp785
a(I277
I0
I0
S'current'
p786
tp787
a(I288
I0
F-0.25
S'low'
p788
tp789
a(I311
I6
F-0.25
S'low'
p790
tp791
a(I345
I9
F0.5
S'reasonable'
p792
tp793
a(I360
I3
I0
S'great'
p794
tp795
a(I364
I3
F-0.25
S'cheaper'
p796
tp797
a(I367
I1
I0
S'very'
p798
tp799
a(I367
I1
F-0.25
S'low'
p800
tp801
a(I367
I24
F-0.375
S'small'
p802
tp803
a(I375
I0
F-0.25
S'low'
p804
tp805
a(I403
I1
F1.0
S'better'
p806
tp807
a(I416
I2
I0
S'great'
p808
tp809
a(I465
I10
F-0.25
S'low'
p810
tp811
a(I465
I10
F0.375
S'much'
p812
tp813
a(I466
I2
F-0.25
S'low'
p814
tp815
a(I471
I1
I0
S'great'
p816
tp817
as(S'like'
p818
tp819
(lp820
(I108
I4
F0.375
S'new'
p821
tp822
as(S'service'
p823
tp824
(lp825
(I5
I2
F0.5
g545
tp826
a(I45
I15
I0
S'great'
p827
tp828
a(I45
I15
F0.375
S'much'
p829
tp830
a(I45
I16
F-0.625
S'bad'
p831
tp832
a(I45
I23
I0
S'questionable'
p833
tp834
a(I110
I2
I0
S'great'
p835
tp836
a(I145
I1
I0
S'great'
p837
tp838
a(I156
I11
I0
S'great'
p839
tp840
a(I236
I0
F1.0
S'good'
p841
tp842
a(I239
I0
F1.0
S'good'
p843
tp844
a(I272
I1
F-0.75
S'unable'
p845
tp846
a(I298
I2
F-0.75
g555
tp847
a(I310
I3
F0.625
S'acceptable'
p848
tp849
a(I367
I10
I0
S'monthly'
p850
tp851
a(I374
I0
I0
S'great'
p852
tp853
a(I462
I1
F-0.5
S'insane'
p854
tp855
a(I465
I7
I0
S'large'
p856
tp857
as(S'getting'
p858
tp859
(lp860
(I299
I1
F-0.875
S'trouble'
p861
tp862
as(S'number'
p863
tp864
(lp865
(I49
I13
F-0.75
S'wrong'
p866
tp867
a(I64
I2
F0.125
S'last'
p868
tp869
a(I79
I3
I0
S'old'
p870
tp871
a(I80
I6
I0
S'different'
p872
tp873
a(I80
I6
I0
S'serial'
p874
tp875
a(I80
I11
I0
S'serial'
p876
tp877
a(I246
I10
F0.625
S'perfect'
p878
tp879
a(I268
I3
F0.625
S'easy'
p880
tp881
a(I288
I5
F0.375
S'new'
p882
tp883
a(I292
I3
F-0.5
S'toll-free'
p884
tp885
a(I292
I4
I0
S'old'
p886
tp887
a(I303
I16
I0
S'large'
p888
tp889
a(I346
I5
I0
S'same'
p890
tp891
a(I367
I9
I0
S'dial'
p892
tp893
a(I391
I41
F-0.75
S'difficult'
p894
tp895
a(I413
I1
I0
S'serial'
p896
tp897
a(I473
I7
I0
S'old'
p898
tp899
as(S'need'
p900
tp901
(lp902
(I49
I8
I0
S'minimal'
p903
tp904
as(S'oem'
p905
S'shop'
p906
tp907
(lp908
(I72
I0
I0
S'few'
p909
tp910
a(I72
I0
F-0.25
S'cheaper'
p911
tp912
a(I234
I4
F-0.125
S'mine'
p913
tp914
as(S'with'
p915
S'page'
p916
S'plus'
p917
tp918
(lp919
(I97
I1
I0
g300
tp920
a(I123
I1
I0
g302
tp921
a(I184
I5
I0
g304
tp922
a(I215
I1
F0.625
g306
tp923
a(I340
I6
I0
g437
tp924
a(I400
I2
I0
g441
tp925
as(S'palm'
p926
S'pixi'
p927
S'plus'
p928
tp929
(lp930
(I96
I1
F-0.625
g679
tp931
a(I96
I1
I0
g347
tp932
a(I177
I0
F0.375
g688
tp933
a(I177
I0
F0.375
g353
tp934
a(I228
I0
F0.375
g691
tp935
a(I246
I0
F0.75
g355
tp936
a(I246
I0
I0
g357
tp937
a(I246
I8
F0.125
g695
tp938
a(I303
I2
F0.375
g373
tp939
a(I353
I0
I0
g377
tp940
a(I391
I1
F0.5
g141
tp941
a(I447
I2
I0
g706
tp942
a(I458
I0
F0.25
g708
tp943
a(I465
I10
F0.375
g396
tp944
a(I477
I5
F0.5
g712
tp945
as(g270
S'prepaid'
p946
S'plan'
p947
tp948
(lp949
(I14
I1
I0
S'standard'
p950
tp951
a(I391
I9
F-0.75
S'little'
p952
tp953
a(I464
I3
F0.75
S'worth'
p954
tp955
as(S'google'
p956
tp957
(lp958
(I165
I32
F0.375
S'enable'
p959
tp960
a(I361
I19
I0
S'update'
p961
tp962
as(S'things'
p963
tp964
(lp965
(I37
I10
I0
S'few'
p966
tp967
a(I45
I13
F-0.625
S'other'
p968
tp969
a(I76
I3
F-0.75
S'difficult'
p970
tp971
a(I76
I3
I0
S'most'
p972
tp973
a(I76
I3
F-0.375
S'simplest'
p974
tp975
a(I105
I0
F-0.75
S'wrong'
p976
tp977
a(I108
I8
F0.75
S'give'
p978
tp979
a(I125
I9
I0
S'few'
p980
tp981
a(I125
I19
F-0.625
S'other'
p982
tp983
a(I125
I19
F0.625
S'convenient'
p984
tp985
a(I132
I42
I0
S'many'
p986
tp987
a(I132
I47
F0.125
S'capable'
p988
tp989
a(I164
I5
I0
S'only'
p990
tp991
a(I188
I9
F0.875
S'character'
p992
tp993
a(I192
I1
F-0.625
S'other'
p994
tp995
a(I242
I6
F-0.75
S'little'
p996
tp997
a(I242
I6
F-0.25
S'aggravate'
p998
tp999
a(I294
I3
F0.625
S'easier'
p1000
tp1001
a(I305
I9
I0
S'many'
p1002
tp1003
a(I305
I9
F-0.625
S'other'
p1004
tp1005
a(I343
I2
I0
S'many'
p1006
tp1007
a(I343
I3
F0.375
S'new'
p1008
tp1009
a(I391
I3
I0
S'many'
p1010
tp1011
a(I391
I3
I0
S'few'
p1012
tp1013
a(I391
I59
F0.25
S'favorite'
p1014
tp1015
a(I456
I3
F0.375
S'new'
p1016
tp1017
as(S'palm'
p1018
S'pre'
p1019
tp1020
(lp1021
(I303
I2
I0
S'third'
p1022
tp1023
a(I303
I24
F-0.25
S'past'
p1024
tp1025
a(I313
I9
F0.5
S'true'
p1026
tp1027
a(I345
I1
F0.875
S'nice'
p1028
tp1029
a(I465
I2
I0
S'most'
p1030
tp1031
as(S'cover'
p1032
tp1033
(lp1034
(I132
I27
F0.625
S'kind'
p1035
tp1036
a(I132
I53
F0.25
S'original'
p1037
tp1038
a(I153
I21
F-0.5
S'less'
p1039
tp1040
a(I179
I2
F-0.75
S'dirty'
p1041
tp1042
a(I311
I5
F-0.5
S'sure'
p1043
tp1044
a(I333
I8
F-0.875
S'hard'
p1045
tp1046
a(I362
I2
F0.625
S'safe'
p1047
tp1048
as(S'palm'
p1049
tp1050
(lp1051
(I2
I0
F0.375
g673
tp1052
a(I17
I0
I0
g137
tp1053
a(I93
I0
F0.25
g677
tp1054
a(I96
I1
F-0.625
g679
tp1055
a(I104
I0
F0.375
S'new'
p1056
tp1057
a(I129
I8
F0.5
g682
tp1058
a(I153
I4
F0.375
g684
tp1059
a(I165
I0
F0.5
g686
tp1060
a(I165
I13
I0
S'website'
p1061
tp1062
a(I177
I0
F0.375
g688
tp1063
a(I188
I2
F0.5
S'compatible'
p1064
tp1065
a(I188
I10
I0
S'old'
p1066
tp1067
a(I217
I1
F0.125
S'last'
p1068
tp1069
a(I228
I0
F0.375
g691
tp1070
a(I246
I8
F0.125
g695
tp1071
a(I252
I8
F-0.75
g697
tp1072
a(I267
I0
F0.25
g699
tp1073
a(I287
I1
I0
S'hot'
p1074
tp1075
a(I313
I9
F0.5
g1026
tp1076
a(I333
I4
F0.5
S'second'
p1077
tp1078
a(I365
I1
F-0.25
S'past'
p1079
tp1080
a(I369
I0
F0.375
S'new'
p1081
tp1082
a(I380
I8
I0
S'old'
p1083
tp1084
a(I391
I1
F0.5
g141
tp1085
a(I440
I2
F0.375
S'new'
p1086
tp1087
a(I447
I2
I0
g706
tp1088
a(I458
I0
F0.25
g708
tp1089
a(I459
I0
I0
S'old'
p1090
tp1091
a(I465
I8
I0
S'old'
p1092
tp1093
a(I473
I3
F1.0
S'good'
p1094
tp1095
a(I477
I5
F0.5
g712
tp1096
as(g270
S'long'
p1097
S'time'
p1098
tp1099
(lp1100
(I31
I0
F-0.5
S'long'
p1101
tp1102
a(I168
I6
F-0.5
S'longest'
p1103
tp1104
a(I179
I9
F-0.5
S'long'
p1105
tp1106
a(I217
I3
F-0.5
S'long'
p1107
tp1108
a(I333
I8
F-0.5
S'long'
p1109
tp1110
a(I369
I5
F0.125
S'first'
p1111
tp1112
a(I369
I5
F-0.5
S'long'
p1113
tp1114
a(I460
I2
F-0.5
S'long'
p1115
tp1116
as(S'android'
p1117
tp1118
(lp1119
(I389
I1
F0.375
S'new'
p1120
tp1121
as(S'on'
p1122
S'page'
p1123
S'plus'
p1124
tp1125
(lp1126
(I20
I0
F1.0
g421
tp1127
a(I61
I4
I0
g423
tp1128
a(I81
I2
F-0.125
g425
tp1129
a(I81
I2
I0
g427
tp1130
a(I97
I1
I0
g300
tp1131
a(I123
I1
I0
g302
tp1132
a(I184
I5
I0
g304
tp1133
a(I215
I1
F0.625
g306
tp1134
a(I258
I0
I0
g433
tp1135
a(I266
I0
I0
g308
tp1136
a(I292
I3
I0
g310
tp1137
as(S'f'
p1138
S'r'
p1139
S'looking'
p1140
tp1141
(lp1142
(I136
I0
F1.0
S'good'
p1143
tp1144
a(I136
I0
I0
S'great'
p1145
tp1146
a(I440
I4
I0
S'great'
p1147
tp1148
a(I440
I4
F0.625
S'easy'
p1149
tp1150
as(S'new'
p1151
S'n'
p1152
S'box'
p1153
tp1154
(lp1155
(I9
I0
F0.375
S'new'
p1156
tp1157
a(I9
I0
F0.625
S'easy'
p1158
tp1159
a(I54
I1
F0.375
S'new'
p1160
tp1161
a(I82
I2
I0
S'generic'
p1162
tp1163
a(I82
I2
F-0.375
S'manual'
p1164
tp1165
a(I87
I1
F0.375
S'new'
p1166
tp1167
a(I190
I1
F0.375
S'new'
p1168
tp1169
a(I216
I0
I0
S'retail'
p1170
tp1171
a(I267
I3
F0.25
S'original'
p1172
tp1173
a(I417
I0
F0.375
S'new'
p1174
tp1175
a(I469
I1
F0.375
S'new'
p1176
tp1177
as(S'easy'
p1178
S'to'
p1179
S'set'
p1180
tp1181
(lp1182
(I295
I5
F0.625
S'easy'
p1183
tp1184
as(S'thing'
p1185
tp1186
(lp1187
(I125
I24
I0
S'own'
p1188
tp1189
a(I132
I6
F0.875
S'important'
p1190
tp1191
a(I158
I2
I0
S'only'
p1192
tp1193
a(I179
I5
F0.125
S'first'
p1194
tp1195
a(I179
I6
F0.5
S'second'
p1196
tp1197
a(I179
I6
F-0.125
S'slow'
p1198
tp1199
a(I208
I11
F0.875
S'important'
p1200
tp1201
a(I221
I1
I0
S'only'
p1202
tp1203
a(I221
I1
F0.625
S'easy'
p1204
tp1205
a(I263
I10
F-0.75
S'stupid'
p1206
tp1207
a(I289
I14
I0
S'only'
p1208
tp1209
a(I313
I15
I0
S'only'
p1210
tp1211
a(I366
I19
F-0.625
S'other'
p1212
tp1213
a(I369
I5
F-0.875
S'negative'
p1214
tp1215
a(I374
I1
F1.0
S'good'
p1216
tp1217
a(I374
I1
I0
S'only'
p1218
tp1219
a(I385
I3
I0
S'only'
p1220
tp1221
a(I386
I2
I0
S'only'
p1222
tp1223
a(I391
I71
F-0.5
S'open'
p1224
tp1225
a(I391
I71
I0
S'plastic'
p1226
tp1227
a(I423
I2
I0
S'questionable'
p1228
tp1229
a(I426
I7
F-0.375
S'crazy'
p1230
tp1231
as(S'data'
p1232
tp1233
(lp1234
(I45
I26
F0.375
S'extra'
p1235
tp1236
a(I66
I6
F0.125
S'able'
p1237
tp1238
a(I71
I5
I0
S'many'
p1239
tp1240
a(I123
I1
I0
S'cellular'
p1241
tp1242
a(I132
I26
F0.875
S'music'
p1243
tp1244
a(I155
I0
F0.875
S'nice'
p1245
tp1246
a(I159
I0
F-0.5
S'unlimited'
p1247
tp1248
a(I179
I31
F-0.625
S'other'
p1249
tp1250
a(I184
I7
I0
S'mobile'
p1251
tp1252
a(I184
I12
I0
S'more'
p1253
tp1254
a(I187
I6
I0
S'own'
p1255
tp1256
a(I188
I6
F0.375
S'extra'
p1257
tp1258
a(I222
I8
F-0.5
S'sure'
p1259
tp1260
a(I222
I8
F-0.375
S'disable'
p1261
tp1262
a(I258
I3
F-0.375
S'disable'
p1263
tp1264
a(I284
I10
F-0.375
S'top'
p1265
tp1266
a(I285
I9
I0
S'limited'
p1267
tp1268
a(I292
I17
I0
S'cellular'
p1269
tp1270
a(I296
I1
F0.875
S'music'
p1271
tp1272
a(I309
I2
F0.625
S'easy'
p1273
tp1274
a(I320
I1
I0
S'brief'
p1275
tp1276
a(I329
I9
F0.375
S'available'
p1277
tp1278
a(I329
I10
I0
S'more'
p1279
tp1280
a(I332
I10
F0.375
S'much'
p1281
tp1282
a(I377
I2
F0.25
S'used'
p1283
tp1284
a(I408
I0
I0
S'monthly'
p1285
tp1286
a(I450
I2
F-0.5
S'sure'
p1287
tp1288
a(I456
I1
I0
S'mandatory'
p1289
tp1290
a(I456
I3
I0
S'more'
p1291
tp1292
a(I465
I9
F-0.375
S'disable'
p1293
tp1294
a(I465
I18
I0
S'cellular'
p1295
tp1296
a(I465
I24
I0
S'mobile'
p1297
tp1298
a(I465
I24
I0
S'more'
p1299
tp1300
a(I470
I0
F-0.125
S'slow'
p1301
tp1302
a(I477
I9
F-0.375
S'disable'
p1303
tp1304
as(g270
S'data'
p1305
S'plan'
p1306
tp1307
(lp1308
(I14
I1
I0
g950
tp1309
a(I45
I26
F0.375
g1235
tp1310
a(I66
I6
F0.125
g1237
tp1311
a(I72
I2
I0
S'great'
p1312
tp1313
a(I123
I1
I0
g1241
tp1314
a(I137
I2
F-0.5
S'regular'
p1315
tp1316
a(I187
I6
I0
g1255
tp1317
a(I222
I8
F-0.5
g1259
tp1318
a(I222
I8
F-0.375
g1261
tp1319
a(I246
I6
F0.375
S'extra'
p1320
tp1321
a(I258
I3
F-0.375
g1263
tp1322
a(I262
I47
F0.25
S'spontaneous'
p1323
tp1324
a(I284
I10
F-0.375
g1265
tp1325
a(I296
I1
F0.875
g1271
tp1326
a(I309
I2
F0.625
g1273
tp1327
a(I332
I10
F0.375
g1281
tp1328
a(I377
I2
F0.25
g1283
tp1329
a(I377
I2
F0.25
S'used'
p1330
tp1331
a(I408
I0
I0
g1285
tp1332
a(I465
I24
I0
g1297
tp1333
a(I465
I24
F0.375
S'much'
p1334
tp1335
a(I465
I24
I0
g1299
tp1336
a(I470
I0
F-0.125
g1301
tp1337
as(S'make'
p1338
tp1339
(lp1340
(I414
I11
F-0.75
S'unreliable'
p1341
tp1342
a(I462
I0
F-0.375
S'unacceptable'
p1343
tp1344
as(S'work'
p1345
tp1346
(lp1347
(I154
I3
F-0.5
S'vibrate'
p1348
tp1349
a(I265
I1
F-0.25
S'late'
p1350
tp1351
a(I405
I0
F1.0
S'best'
p1352
tp1353
a(I416
I2
F0.375
S'extra'
p1354
tp1355
as(S'battery'
p1356
S'life'
p1357
tp1358
(lp1359
(I107
I3
F-0.75
S'short'
p1360
tp1361
a(I154
I2
I0
S'great'
p1362
tp1363
a(I156
I4
I0
S'great'
p1364
tp1365
a(I180
I3
F0.5
S'respectable'
p1366
tp1367
a(I190
I1
F1.0
S'good'
p1368
tp1369
a(I190
I2
I0
S'more'
p1370
tp1371
a(I207
I9
F1.0
S'good'
p1372
tp1373
a(I222
I6
F1.0
S'good'
p1374
tp1375
a(I265
I4
F1.0
S'good'
p1376
tp1377
a(I333
I14
F0.625
S'easy'
p1378
tp1379
a(I337
I5
F1.0
S'good'
p1380
tp1381
a(I349
I0
I0
S'great'
p1382
tp1383
a(I391
I69
I0
S'adequate'
p1384
tp1385
a(I470
I0
F-0.75
S'short'
p1386
tp1387
as(S'to'
p1388
S'verizon'
p1389
S'store'
p1390
tp1391
(lp1392
(I58
I1
I0
g232
tp1393
as(S'back'
p1394
tp1395
(lp1396
(I105
I2
I0
S'penny'
p1397
tp1398
a(I106
I2
I0
S'soft'
p1399
tp1400
a(I132
I56
I0
S'fourth'
p1401
tp1402
a(I179
I14
I0
S'soft'
p1403
tp1404
a(I206
I8
F-0.625
S'green'
p1405
tp1406
a(I278
I2
F0.875
S'nice'
p1407
tp1408
a(I286
I4
I0
S'assistant'
p1409
tp1410
a(I291
I9
F1.0
S'better'
p1411
tp1412
as(S'with'
p1413
S'palm'
p1414
S'pixi'
p1415
tp1416
(lp1417
(I55
I10
F-0.625
g139
tp1418
a(I153
I4
F0.375
g684
tp1419
a(I252
I8
F-0.75
g697
tp1420
a(I303
I2
F0.375
g373
tp1421
a(I391
I1
F0.5
g141
tp1422
a(I465
I24
F0.5
g402
tp1423
a(I477
I5
F0.5
g712
tp1424
as(S'call'
p1425
tp1426
(lp1427
(I32
I0
F-0.125
S'slow'
p1428
tp1429
a(I68
I9
I0
S'most'
p1430
tp1431
a(I73
I7
F-0.25
S'low'
p1432
tp1433
a(I81
I1
F1.0
S'good'
p1434
tp1435
a(I188
I14
I0
S'utilitarian'
p1436
tp1437
as(S'too'
p1438
S'many'
p1439
S'cards'
p1440
tp1441
(lp1442
(I24
I4
I0
S'many'
p1443
tp1444
a(I24
I4
F-0.5
S'open'
p1445
tp1446
a(I56
I0
I0
S'many'
p1447
tp1448
a(I131
I1
I0
S'many'
p1449
tp1450
a(I131
I1
F-0.5
S'open'
p1451
tp1452
a(I132
I38
I0
S'many'
p1453
tp1454
a(I132
I38
F-0.5
S'open'
p1455
tp1456
a(I313
I30
I0
S'many'
p1457
tp1458
a(I391
I37
I0
S'many'
p1459
tp1460
a(I391
I37
F-0.5
S'open'
p1461
tp1462
a(I391
I37
F-0.5
S'open'
p1463
tp1464
a(I414
I6
I0
S'many'
p1465
tp1466
a(I454
I13
I0
S'many'
p1467
tp1468
as(S'plan'
p1469
tp1470
(lp1471
(I14
I1
I0
g950
tp1472
a(I45
I25
I0
S'current'
p1473
tp1474
a(I72
I2
I0
g1312
tp1475
a(I111
I1
I0
S'great'
p1476
tp1477
a(I137
I2
F-0.5
g1315
tp1478
a(I222
I2
F-0.5
S'less'
p1479
tp1480
a(I246
I6
F0.375
g1320
tp1481
a(I262
I47
F0.25
g1323
tp1482
a(I292
I11
I0
S'standard'
p1483
tp1484
a(I332
I6
F-0.375
S'daily'
p1485
tp1486
a(I342
I5
F-0.25
S'cheapest'
p1487
tp1488
a(I364
I2
I0
S'monthly'
p1489
tp1490
a(I377
I2
F0.25
g1330
tp1491
a(I391
I9
F-0.75
g952
tp1492
a(I401
I0
F-0.25
S'cheapest'
p1493
tp1494
a(I450
I1
I0
S'great'
p1495
tp1496
a(I454
I16
I0
S'mobile'
p1497
tp1498
a(I464
I3
F0.75
g954
tp1499
a(I465
I24
F0.375
g1334
tp1500
as(S'pageplus'
p1501
tp1502
(lp1503
(I277
I9
F0.625
S'perfect'
p1504
tp1505
a(I295
I6
I0
S'cellular'
p1506
tp1507
a(I378
I1
F0.625
S'easy'
p1508
tp1509
a(I378
I3
I0
S'old'
p1510
tp1511
a(I407
I10
F-0.5
S'call'
p1512
tp1513
as(S'battery'
p1514
tp1515
(lp1516
(I14
I2
F-0.75
S'short'
p1517
tp1518
a(I56
I0
F0.125
S'last'
p1519
tp1520
a(I77
I5
F-0.75
S'stupid'
p1521
tp1522
a(I153
I21
I0
S'special'
p1523
tp1524
a(I156
I4
I0
g1364
tp1525
a(I180
I3
F0.5
g1366
tp1526
a(I194
I0
F0.125
S'charger'
p1527
tp1528
a(I203
I1
F-0.375
S'pull'
p1529
tp1530
a(I206
I7
F-0.75
S'dead'
p1531
tp1532
a(I235
I5
F0.375
S'extended'
p1533
tp1534
a(I235
I6
F0.375
S'extended'
p1535
tp1536
a(I271
I4
F0.375
S'extra'
p1537
tp1538
a(I289
I20
F0.125
S'last'
p1539
tp1540
a(I330
I2
F-0.625
S'bad'
p1541
tp1542
a(I333
I10
I0
S'handy'
p1543
tp1544
a(I333
I12
I0
S'special'
p1545
tp1546
a(I333
I13
I0
S'current'
p1547
tp1548
a(I337
I5
F1.0
g1380
tp1549
a(I349
I0
I0
g1382
tp1550
a(I376
I1
I0
S'full'
p1551
tp1552
a(I393
I0
F0.375
S'new'
p1553
tp1554
a(I434
I0
F0.375
S'new'
p1555
tp1556
a(I463
I2
F0.5
S'strong'
p1557
tp1558
a(I463
I3
F0.5
S'stronger'
p1559
tp1560
a(I470
I0
F-0.75
g1386
tp1561
a(I479
I0
F-0.625
S'other'
p1562
tp1563
as(S'smart'
p1564
tp1565
(lp1566
(I33
I2
I0
S'great'
p1567
tp1568
a(I55
I2
I0
S'android'
p1569
tp1570
a(I55
I10
I0
S'real'
p1571
tp1572
a(I61
I0
F0.125
S'first'
p1573
tp1574
a(I66
I0
F0.125
S'first'
p1575
tp1576
a(I91
I0
F1.0
S'good'
p1577
tp1578
a(I95
I1
F0.125
S'popular'
p1579
tp1580
a(I95
I1
F0.375
S'new'
p1581
tp1582
a(I165
I10
F0.375
S'early'
p1583
tp1584
a(I222
I1
I0
S'current'
p1585
tp1586
a(I230
I0
F0.375
S'early'
p1587
tp1588
a(I233
I4
F1.0
S'better'
p1589
tp1590
a(I235
I0
F0.125
S'first'
p1591
tp1592
a(I242
I0
F0.125
S'first'
p1593
tp1594
a(I278
I18
F0.375
S'new'
p1595
tp1596
a(I320
I4
I0
S'only'
p1597
tp1598
a(I367
I2
I0
S'many'
p1599
tp1600
a(I379
I2
F-0.625
S'other'
p1601
tp1602
a(I400
I0
I0
S'economical'
p1603
tp1604
a(I406
I1
F0.125
S'first'
p1605
tp1606
a(I465
I2
F-0.625
S'other'
p1607
tp1608
a(I465
I7
F-0.25
S'inexpensive'
p1609
tp1610
a(I468
I4
F-0.375
S'simple'
p1611
tp1612
as(S'cell'
p1613
tp1614
(lp1615
(I80
I13
F0.25
S'unlocked'
p1616
tp1617
a(I80
I21
F0.25
S'unlocked'
p1618
tp1619
a(I108
I16
F-0.375
S'nearest'
p1620
tp1621
a(I136
I0
I0
S'great'
p1622
tp1623
a(I165
I7
I0
S'many'
p1624
tp1625
a(I165
I7
I0
S'many'
p1626
tp1627
a(I179
I21
I0
S'basic'
p1628
tp1629
a(I268
I0
F-0.5
S'heavy'
p1630
tp1631
a(I292
I4
I0
S'old'
p1632
tp1633
a(I406
I0
F0.25
S'unlocked'
p1634
tp1635
a(I465
I10
I0
S'standard'
p1636
tp1637
a(I477
I5
I0
S'standard'
p1638
tp1639
a(I480
I1
F0.25
S'unlocked'
p1640
tp1641
as(S'e'
p1642
S'mail'
p1643
tp1644
(lp1645
(I12
I3
F-0.25
S'google'
p1646
tp1647
a(I22
I4
F-0.25
S'google'
p1648
tp1649
a(I410
I2
F1.0
S'better'
p1650
tp1651
as(S'calls'
p1652
tp1653
(lp1654
(I20
I6
I0
S'few'
p1655
tp1656
a(I368
I8
I0
S'few'
p1657
tp1658
a(I429
I17
F-0.375
S'daily'
p1659
tp1660
as(S'cheap'
p1661
tp1662
(lp1663
(I124
I3
F0.125
S'practical'
p1664
tp1665
a(I190
I0
F1.0
S'good'
p1666
tp1667
a(I190
I0
F-0.375
S'small'
p1668
tp1669
a(I190
I2
F1.0
S'good'
p1670
tp1671
a(I208
I15
I0
S'great'
p1672
tp1673
a(I213
I7
F-0.625
S'other'
p1674
tp1675
a(I284
I12
F1.0
S'good'
p1676
tp1677
a(I344
I0
I0
S'great'
p1678
tp1679
a(I410
I4
F1.0
S'best'
p1680
tp1681
as(S'contacts'
p1682
tp1683
(lp1684
(I125
I23
F1.0
S'better'
p1685
tp1686
a(I200
I2
F1.0
S'good'
p1687
tp1688
a(I285
I6
F-0.25
S'google'
p1689
tp1690
a(I286
I4
I0
S'upload'
p1691
tp1692
a(I294
I3
F0.125
S'able'
p1693
tp1694
a(I303
I11
I0
S'e-mail'
p1695
tp1696
as(S'pixi'
p1697
S'plus'
p1698
S'verizon'
p1699
tp1700
(lp1701
(I49
I0
F0.875
g340
tp1702
a(I292
I3
I0
g254
tp1703
a(I465
I12
F-0.5
g398
tp1704
as(S'without'
p1705
g270
S'contract'
p1706
tp1707
(lp1708
(I74
I2
F-0.25
g319
tp1709
a(I95
I0
F0.375
g321
tp1710
a(I381
I1
F0.5
g331
tp1711
a(I381
I1
I0
g333
tp1712
as(S'time'
p1713
tp1714
(lp1715
(I6
I2
F0.125
S'first'
p1716
tp1717
a(I16
I1
F-0.125
S'slow'
p1718
tp1719
a(I23
I4
I0
S'same'
p1720
tp1721
a(I31
I0
F-0.5
g1101
tp1722
a(I64
I1
F-0.875
S'trouble'
p1723
tp1724
a(I68
I12
I0
S'more'
p1725
tp1726
a(I104
I0
F0.125
S'first'
p1727
tp1728
a(I165
I5
F0.375
S'extra'
p1729
tp1730
a(I165
I7
I0
S'ample'
p1731
tp1732
a(I168
I6
F-0.5
g1103
tp1733
a(I179
I9
F-0.5
g1105
tp1734
a(I200
I0
I0
S'same'
p1735
tp1736
a(I208
I4
F0.875
S'nice'
p1737
tp1738
a(I208
I4
I0
S'only'
p1739
tp1740
a(I217
I3
F-0.5
g1107
tp1741
a(I246
I3
F0.125
S'first'
p1742
tp1743
a(I262
I11
I0
S'next'
p1744
tp1745
a(I269
I4
F1.0
S'good'
p1746
tp1747
a(I301
I4
I0
S'website'
p1748
tp1749
a(I312
I0
F1.0
S'good'
p1750
tp1751
a(I315
I1
F-0.75
S'unlucky'
p1752
tp1753
a(I315
I1
F0.125
S'first'
p1754
tp1755
a(I326
I0
I0
S'entire'
p1756
tp1757
a(I330
I1
F0.125
S'first'
p1758
tp1759
a(I333
I8
F-0.5
g1109
tp1760
a(I341
I3
I0
S'such'
p1761
tp1762
a(I341
I3
F-0.75
S'short'
p1763
tp1764
a(I350
I1
F0.125
S'last'
p1765
tp1766
a(I364
I2
I0
S'january'
p1767
tp1768
a(I369
I5
F0.125
g1111
tp1769
a(I369
I5
F-0.5
g1113
tp1770
a(I377
I4
I0
S'most'
p1771
tp1772
a(I407
I9
I0
S'different'
p1773
tp1774
a(I423
I4
F-0.625
S'other'
p1775
tp1776
a(I423
I4
F1.0
S'good'
p1777
tp1778
a(I439
I2
F0.5
S'careful'
p1779
tp1780
a(I439
I2
I0
S'next'
p1781
tp1782
a(I460
I2
F-0.5
g1115
tp1783
as(S'lot'
p1784
S'of'
p1785
S'money'
p1786
tp1787
(lp1788
(I425
I7
F0.125
g729
tp1789
as(S'deal'
p1790
tp1791
(lp1792
(I22
I3
F1.0
S'better'
p1793
tp1794
a(I49
I1
F1.0
g275
tp1795
a(I49
I10
I0
S'big'
p1796
tp1797
a(I53
I1
I0
S'great'
p1798
tp1799
a(I60
I0
F1.0
g277
tp1800
a(I150
I0
I0
g279
tp1801
a(I150
I0
F1.0
g281
tp1802
a(I154
I1
F1.0
S'better'
p1803
tp1804
a(I166
I8
F-0.5
S'afraid'
p1805
tp1806
a(I179
I19
F-0.625
S'bad'
p1807
tp1808
a(I179
I25
I0
S'big'
p1809
tp1810
a(I208
I1
I0
S'great'
p1811
tp1812
a(I217
I17
F-0.125
S'overall'
p1813
tp1814
a(I217
I17
F0.875
S'happy'
p1815
tp1816
a(I222
I0
I0
S'great'
p1817
tp1818
a(I226
I3
I0
S'big'
p1819
tp1820
a(I284
I11
I0
S'special'
p1821
tp1822
a(I315
I1
F1.0
g283
tp1823
a(I315
I2
F1.0
g285
tp1824
a(I330
I7
I0
S'great'
p1825
tp1826
a(I333
I8
I0
S'big'
p1827
tp1828
a(I343
I9
F-0.375
S'near'
p1829
tp1830
a(I343
I9
I0
S'great'
p1831
tp1832
a(I343
I10
F1.0
g287
tp1833
a(I345
I2
I0
S'incredible'
p1834
tp1835
a(I395
I1
F0.5
S'whole'
p1836
tp1837
a(I426
I7
F1.0
S'better'
p1838
tp1839
a(I445
I0
I0
g289
tp1840
a(I445
I0
F1.0
g291
tp1841
a(I457
I6
I0
S'such'
p1842
tp1843
a(I479
I0
F1.0
g293
tp1844
as(S'touch'
p1845
S'screen'
p1846
tp1847
(lp1848
(I7
I0
F0.5
S'touch'
p1849
tp1850
a(I45
I0
F0.5
S'touch'
p1851
tp1852
a(I61
I7
F0.625
S'kind'
p1853
tp1854
a(I68
I9
F-0.375
S'black'
p1855
tp1856
a(I73
I3
F0.25
S'responsive'
p1857
tp1858
a(I96
I5
I0
g174
tp1859
a(I96
I5
I0
S'most'
p1860
tp1861
a(I122
I7
F0.5
S'touch'
p1862
tp1863
a(I126
I1
F0.5
S'touch'
p1864
tp1865
a(I129
I5
F0.5
S'touch'
p1866
tp1867
a(I185
I3
F0.125
S'first'
p1868
tp1869
a(I185
I3
F0.5
S'touch'
p1870
tp1871
a(I187
I3
I0
g180
tp1872
a(I199
I2
F0.5
S'touch'
p1873
tp1874
a(I202
I16
F0.5
S'touch'
p1875
tp1876
a(I207
I7
F0.5
S'touch'
p1877
tp1878
a(I221
I1
F0.375
S'new'
p1879
tp1880
a(I229
I1
F0.5
S'touch'
p1881
tp1882
a(I231
I6
F0.5
S'touch'
p1883
tp1884
a(I231
I6
F-0.125
S'super'
p1885
tp1886
a(I231
I6
F0.25
S'responsive'
p1887
tp1888
a(I235
I0
F0.25
g182
tp1889
a(I235
I0
F0.625
S'easy'
p1890
tp1891
a(I238
I0
I0
S'full'
p1892
tp1893
a(I249
I3
F0.5
S'touch'
p1894
tp1895
a(I257
I3
F0.5
S'touch'
p1896
tp1897
a(I257
I3
F-0.5
S'less'
p1898
tp1899
a(I257
I3
F-0.5
S'less'
p1900
tp1901
a(I257
I3
F0.25
S'responsive'
p1902
tp1903
a(I257
I5
F0.5
S'touch'
p1904
tp1905
a(I278
I6
I0
S'sensitive'
p1906
tp1907
a(I302
I6
I0
g186
tp1908
a(I324
I0
F0.625
S'easy'
p1909
tp1910
a(I334
I3
F1.0
g188
tp1911
a(I343
I6
F0.125
S'able'
p1912
tp1913
a(I343
I6
F0.5
S'touch'
p1914
tp1915
a(I365
I9
F0.5
S'touch'
p1916
tp1917
a(I366
I6
F0.5
S'touch'
p1918
tp1919
a(I366
I6
I0
S'sensitive'
p1920
tp1921
a(I366
I6
F0.5
S'careful'
p1922
tp1923
a(I366
I8
F0.5
S'touch'
p1924
tp1925
a(I395
I2
F-0.5
S'sure'
p1926
tp1927
a(I406
I5
F-0.75
g190
tp1928
a(I428
I1
F0.5
S'touch'
p1929
tp1930
a(I436
I5
F0.5
S'touch'
p1931
tp1932
a(I478
I3
F0.5
S'touch'
p1933
tp1934
a(I480
I6
F-0.25
S'tanked'
p1935
tp1936
as(S'text'
p1937
tp1938
(lp1939
(I164
I4
F-0.375
S'small'
p1940
tp1941
a(I164
I4
I0
S'crystal'
p1942
tp1943
a(I164
I4
F0.5
S'clear'
p1944
tp1945
a(I222
I2
F-0.5
S'less'
p1946
tp1947
a(I262
I15
F-0.75
S'likely'
p1948
tp1949
a(I262
I15
I0
S'finished'
p1950
tp1951
a(I333
I8
F0.625
S'easy'
p1952
tp1953
as(S'working'
p1954
tp1955
(lp1956
(I51
I1
F-0.625
S'other'
p1957
tp1958
a(I51
I1
F1.0
S'good'
p1959
tp1960
as(S'went'
p1961
tp1962
(lp1963
(I143
I1
I0
S'old'
p1964
tp1965
as(S'year'
p1966
tp1967
(lp1968
(I61
I3
F0.5
S'expensive'
p1969
tp1970
a(I124
I0
F-0.125
S'mine'
p1971
tp1972
a(I132
I25
I0
S'old'
p1973
tp1974
a(I153
I21
I0
S'next'
p1975
tp1976
a(I175
I0
I0
S'old'
p1977
tp1978
a(I179
I9
F-0.25
S'past'
p1979
tp1980
a(I179
I27
I0
S'old'
p1981
tp1982
a(I184
I5
F-0.25
S'past'
p1983
tp1984
a(I184
I6
I0
S'next'
p1985
tp1986
a(I186
I6
I0
S'old'
p1987
tp1988
a(I202
I15
I0
S'next'
p1989
tp1990
a(I218
I0
I0
S'old'
p1991
tp1992
a(I282
I0
I0
S'old'
p1993
tp1994
a(I288
I1
I0
S'entire'
p1995
tp1996
a(I345
I8
I0
S'old'
p1997
tp1998
a(I366
I14
I0
S'old'
p1999
tp2000
a(I367
I0
F0.625
S'positive'
p2001
tp2002
a(I367
I30
I0
S'later'
p2003
tp2004
a(I407
I0
I0
S'old'
p2005
tp2006
a(I465
I8
F0.125
S'last'
p2007
tp2008
a(I480
I1
F0.125
S'last'
p2009
tp2010
as(S'screen'
p2011
tp2012
(lp2013
(I2
I0
F0.25
S'original'
p2014
tp2015
a(I7
I0
F0.5
g1849
tp2016
a(I45
I0
F0.5
g1851
tp2017
a(I49
I15
F-0.375
S'small'
p2018
tp2019
a(I61
I7
F0.625
g1853
tp2020
a(I68
I9
F-0.375
g1855
tp2021
a(I73
I3
F0.25
g1857
tp2022
a(I83
I6
F-0.375
S'small'
p2023
tp2024
a(I96
I5
I0
g1860
tp2025
a(I108
I17
I0
S'next'
p2026
tp2027
a(I122
I7
F0.5
g1862
tp2028
a(I126
I1
F0.5
g1864
tp2029
a(I128
I2
F-0.375
S'small'
p2030
tp2031
a(I129
I5
F0.5
g1866
tp2032
a(I153
I15
F-0.375
S'small'
p2033
tp2034
a(I153
I17
F-0.375
S'smaller'
p2035
tp2036
a(I155
I0
I0
S'blue'
p2037
tp2038
a(I184
I22
F0.125
S'first'
p2039
tp2040
a(I185
I3
F0.125
g1868
tp2041
a(I185
I3
F0.5
g1870
tp2042
a(I199
I2
F0.5
g1873
tp2043
a(I202
I16
F0.5
g1875
tp2044
a(I207
I7
F0.5
g1877
tp2045
a(I208
I4
F0.625
S'easy'
p2046
tp2047
a(I208
I4
F-0.375
S'small'
p2048
tp2049
a(I221
I1
F0.375
g1879
tp2050
a(I222
I1
F0.25
S'powerful'
p2051
tp2052
a(I222
I1
F-0.25
S'amazing'
p2053
tp2054
a(I222
I1
I0
S'great'
p2055
tp2056
a(I222
I5
F-0.375
S'smaller'
p2057
tp2058
a(I229
I1
F0.5
g1881
tp2059
a(I231
I6
F0.5
g1883
tp2060
a(I231
I6
F-0.125
g1885
tp2061
a(I231
I6
F0.25
g1887
tp2062
a(I234
I3
F-0.375
S'small'
p2063
tp2064
a(I235
I0
F0.625
g1890
tp2065
a(I238
I0
I0
g1892
tp2066
a(I246
I11
I0
S'sensitive'
p2067
tp2068
a(I246
I11
F-0.875
S'hard'
p2069
tp2070
a(I246
I11
I0
S'dial'
p2071
tp2072
a(I249
I3
F0.5
g1894
tp2073
a(I257
I3
F0.5
g1896
tp2074
a(I257
I3
F-0.5
g1898
tp2075
a(I257
I3
F-0.5
g1900
tp2076
a(I257
I3
F0.25
g1902
tp2077
a(I257
I5
F0.5
g1904
tp2078
a(I258
I9
I0
S'plastic'
p2079
tp2080
a(I259
I0
F-0.375
S'black'
p2081
tp2082
a(I277
I11
F-0.375
S'small'
p2083
tp2084
a(I278
I6
I0
g1906
tp2085
a(I303
I15
F-0.375
S'smaller'
p2086
tp2087
a(I320
I2
F-0.75
S'dark'
p2088
tp2089
a(I320
I2
F0.25
S'main'
p2090
tp2091
a(I324
I0
F0.625
g1909
tp2092
a(I330
I5
F-0.375
S'small'
p2093
tp2094
a(I343
I6
F0.125
g1912
tp2095
a(I343
I6
F0.5
g1914
tp2096
a(I345
I6
F0.875
S'nice'
p2097
tp2098
a(I345
I6
F-0.75
S'bright'
p2099
tp2100
a(I345
I6
F0.625
S'easy'
p2101
tp2102
a(I350
I1
F-0.5
S'less'
p2103
tp2104
a(I365
I9
F0.5
g1916
tp2105
a(I366
I6
F0.5
g1918
tp2106
a(I366
I6
I0
g1920
tp2107
a(I366
I6
F0.5
g1922
tp2108
a(I366
I8
F0.5
g1924
tp2109
a(I368
I2
F-0.375
S'black'
p2110
tp2111
a(I369
I6
F0.25
S'main'
p2112
tp2113
a(I392
I7
F0.25
S'responsive'
p2114
tp2115
a(I395
I2
F-0.5
g1926
tp2116
a(I406
I6
F-0.75
S'dead'
p2117
tp2118
a(I414
I3
F-0.375
S'small'
p2119
tp2120
a(I414
I3
I0
S'keyboard'
p2121
tp2122
a(I427
I1
F-0.25
S'giant'
p2123
tp2124
a(I428
I1
F0.5
g1929
tp2125
a(I436
I5
F0.5
g1931
tp2126
a(I453
I1
F0.125
S'first'
p2127
tp2128
a(I457
I4
F-0.375
S'small'
p2129
tp2130
a(I478
I3
F0.5
g1933
tp2131
a(I480
I5
F0.25
S'bigger'
p2132
tp2133
a(I480
I6
F-0.25
g1935
tp2134
as(S'everything'
p2135
tp2136
(lp2137
(I33
I0
I0
S'great'
p2138
tp2139
a(I33
I0
I0
S'great'
p2140
tp2141
a(I45
I21
F0.5
S'clear'
p2142
tp2143
a(I301
I7
I0
S'rapid'
p2144
tp2145
a(I420
I3
F-0.5
S'certain'
p2146
tp2147
as(S'camera'
p2148
tp2149
(lp2150
(I45
I2
I0
S'great'
p2151
tp2152
a(I52
I5
I0
S'passable'
p2153
tp2154
a(I222
I7
F-0.625
S'bad'
p2155
tp2156
a(I321
I2
F1.0
S'good'
p2157
tp2158
a(I361
I17
F-0.875
S'awful'
p2159
tp2160
a(I391
I48
F0.875
S'nice'
p2161
tp2162
a(I410
I2
F1.0
S'best'
p2163
tp2164
a(I426
I5
F0.25
S'responsive'
p2165
tp2166
a(I444
I0
F0.75
S'worth'
p2167
tp2168
a(I444
I0
F-0.625
S'bad'
p2169
tp2170
a(I480
I9
I0
S'adequate'
p2171
tp2172
as(S'plus'
p2173
tp2174
(lp2175
(I234
I1
F0.5
S'added'
p2176
tp2177
a(I337
I6
I0
S'big'
p2178
tp2179
as(S't'
p2180
S'works'
p2181
S'fine'
p2182
tp2183
(lp2184
(I453
I3
I0
S'internet'
p2185
tp2186
as(S'webos'
p2187
tp2188
(lp2189
(I24
I2
F0.625
S'easy'
p2190
tp2191
a(I73
I2
F0.125
S'impressive'
p2192
tp2193
a(I125
I26
F-0.625
S'bad'
p2194
tp2195
a(I129
I3
F0.625
S'easy'
p2196
tp2197
a(I153
I12
F0.625
S'fair'
p2198
tp2199
a(I153
I15
F0.375
S'similar'
p2200
tp2201
a(I179
I25
I0
S'faster'
p2202
tp2203
a(I179
I25
F1.0
S'better'
p2204
tp2205
a(I179
I25
F0.375
S'available'
p2206
tp2207
a(I186
I1
F-0.75
S'wrong'
p2208
tp2209
a(I339
I2
F0.25
S'responsive'
p2210
tp2211
a(I339
I2
F0.625
S'easy'
p2212
tp2213
a(I391
I5
F-0.75
S'bright'
p2214
tp2215
a(I391
I12
I0
S'android'
p2216
tp2217
a(I391
I34
F-0.125
S'overall'
p2218
tp2219
a(I465
I2
F-0.5
S'open'
p2220
tp2221
as(S'works'
p2222
tp2223
(lp2224
(I10
I1
I0
S'great'
p2225
tp2226
a(I12
I1
I0
S'great'
p2227
tp2228
a(I42
I1
F1.0
S'good'
p2229
tp2230
a(I71
I6
I0
S'great'
p2231
tp2232
a(I110
I1
I0
S'great'
p2233
tp2234
a(I139
I2
F0.375
S'new'
p2235
tp2236
a(I139
I2
I0
S'great'
p2237
tp2238
a(I150
I4
I0
S'great'
p2239
tp2240
a(I179
I11
F-0.375
S'simple'
p2241
tp2242
a(I214
I1
F-0.625
S'other'
p2243
tp2244
a(I332
I10
I0
S'translate'
p2245
tp2246
a(I333
I8
F0.625
S'convenient'
p2247
tp2248
a(I344
I3
I0
S'great'
p2249
tp2250
a(I344
I3
F-0.5
S'less'
p2251
tp2252
a(I361
I10
F-0.625
S'seamless'
p2253
tp2254
a(I361
I10
I0
S'great'
p2255
tp2256
a(I381
I3
I0
S'great'
p2257
tp2258
a(I391
I35
I0
S'great'
p2259
tp2260
a(I423
I0
I0
S'great'
p2261
tp2262
a(I465
I0
F0.5
S'slick'
p2263
tp2264
as(S'apps'
p2265
tp2266
(lp2267
(I14
I1
I0
S'relevant'
p2268
tp2269
a(I22
I2
F-0.625
S'free'
p2270
tp2271
a(I34
I0
F-0.125
S'slow'
p2272
tp2273
a(I44
I0
F0.375
S'new'
p2274
tp2275
a(I45
I0
F-0.625
S'other'
p2276
tp2277
a(I66
I1
F0.375
S'available'
p2278
tp2279
a(I68
I8
F-0.125
S'slow'
p2280
tp2281
a(I68
I8
F-0.875
S'bother'
p2282
tp2283
a(I69
I4
I0
S'such'
p2284
tp2285
a(I69
I5
I0
S'more'
p2286
tp2287
a(I69
I5
F0.375
S'available'
p2288
tp2289
a(I98
I11
F0.375
S'new'
p2290
tp2291
a(I109
I0
F0.375
S'new'
p2292
tp2293
a(I125
I20
F-0.5
S'open'
p2294
tp2295
a(I132
I24
F-0.625
S'free'
p2296
tp2297
a(I143
I3
F-0.875
S'awful'
p2298
tp2299
a(I147
I0
F-0.375
S'small'
p2300
tp2301
a(I147
I0
F-0.75
S'unable'
p2302
tp2303
a(I179
I16
F0.25
S'used'
p2304
tp2305
a(I192
I3
F-0.625
S'free'
p2306
tp2307
a(I192
I3
I0
S'android'
p2308
tp2309
a(I207
I12
I0
S'many'
p2310
tp2311
a(I213
I17
F-0.625
S'other'
p2312
tp2313
a(I215
I3
I0
S'few'
p2314
tp2315
a(I215
I3
I0
S'useful'
p2316
tp2317
a(I231
I6
F-0.375
S'crash'
p2318
tp2319
a(I242
I11
I0
S'many'
p2320
tp2321
a(I246
I2
F-0.625
S'other'
p2322
tp2323
a(I246
I4
F0.125
S'able'
p2324
tp2325
a(I271
I4
F-0.625
S'free'
p2326
tp2327
a(I303
I18
F-0.375
S'top'
p2328
tp2329
a(I303
I19
F1.0
S'better'
p2330
tp2331
a(I330
I6
I0
S'many'
p2332
tp2333
a(I330
I6
F0.375
S'available'
p2334
tp2335
a(I337
I7
F-0.625
S'free'
p2336
tp2337
a(I343
I4
F-0.625
S'free'
p2338
tp2339
a(I343
I4
F0.375
S'available'
p2340
tp2341
a(I367
I16
I0
S'such'
p2342
tp2343
a(I367
I18
F-0.625
S'other'
p2344
tp2345
a(I367
I27
I0
S'many'
p2346
tp2347
a(I367
I27
F-0.5
S'open'
p2348
tp2349
a(I367
I27
F-0.5
S'open'
p2350
tp2351
a(I368
I5
F0.375
S'available'
p2352
tp2353
a(I368
I6
F0.125
S'able'
p2354
tp2355
a(I368
I9
I0
S'many'
p2356
tp2357
a(I379
I2
I0
S'many'
p2358
tp2359
a(I379
I2
F-0.5
S'open'
p2360
tp2361
a(I391
I31
F-0.625
S'free'
p2362
tp2363
a(I391
I66
F-0.125
S'minimum'
p2364
tp2365
a(I391
I66
I0
S'many'
p2366
tp2367
a(I391
I66
F-0.5
S'open'
p2368
tp2369
a(I392
I7
F-0.625
S'other'
p2370
tp2371
a(I405
I0
I0
S'many'
p2372
tp2373
a(I405
I0
F-0.5
S'open'
p2374
tp2375
a(I425
I1
F-0.625
S'free'
p2376
tp2377
a(I429
I3
F0.625
S'easy'
p2378
tp2379
a(I429
I3
I0
S'many'
p2380
tp2381
a(I447
I2
I0
S'few'
p2382
tp2383
a(I447
I2
F-0.25
S'past'
p2384
tp2385
a(I465
I3
I0
S'most'
p2386
tp2387
a(I465
I3
F0.375
S'new'
p2388
tp2389
a(I465
I28
I0
S'few'
p2390
tp2391
a(I477
I4
F-0.375
S'disable'
p2392
tp2393
a(I480
I9
I0
S'more'
p2394
tp2395
as(S'better'
p2396
tp2397
(lp2398
(I341
I8
F0.375
S'much'
p2399
tp2400
as(S'page'
p2401
S'plus'
p2402
S'cellular'
p2403
tp2404
(lp2405
(I97
I1
I0
g300
tp2406
a(I123
I1
I0
g302
tp2407
a(I184
I5
I0
g304
tp2408
a(I258
I0
I0
g433
tp2409
a(I292
I3
I0
g310
tp2410
a(I340
I6
I0
g437
tp2411
a(I400
I2
I0
g441
tp2412
a(I446
I0
F-0.25
S'direct'
p2413
tp2414
as(S'device'
p2415
tp2416
(lp2417
(I83
I0
I0
S'android'
p2418
tp2419
a(I123
I4
F0.125
S'capable'
p2420
tp2421
a(I179
I15
F0.5
S'functional'
p2422
tp2423
a(I179
I29
F0.5
S'second'
p2424
tp2425
a(I181
I1
I0
S'english'
p2426
tp2427
a(I278
I2
I0
S'android'
p2428
tp2429
a(I284
I1
I0
S'useful'
p2430
tp2431
a(I298
I0
F0.125
S'first'
p2432
tp2433
a(I298
I0
I0
S'great'
p2434
tp2435
a(I298
I0
F-0.75
S'little'
p2436
tp2437
a(I303
I21
F0.5
S'possible'
p2438
tp2439
a(I313
I1
F-0.625
S'other'
p2440
tp2441
a(I313
I10
I0
S'file'
p2442
tp2443
a(I341
I6
F0.5
S'second'
p2444
tp2445
a(I341
I7
F0.5
S'second'
p2446
tp2447
a(I342
I3
F0.5
S'told'
p2448
tp2449
a(I346
I0
F0.375
S'interesting'
p2450
tp2451
a(I391
I13
I0
S'android'
p2452
tp2453
a(I476
I0
I0
S'great'
p2454
tp2455
as(S'music'
p2456
tp2457
(lp2458
(I165
I11
I0
S'own'
p2459
tp2460
a(I165
I27
F0.375
S'loud'
p2461
tp2462
a(I185
I5
I0
S'third'
p2463
tp2464
a(I185
I5
I0
S'great'
p2465
tp2466
a(I231
I8
F-0.875
S'hard'
p2467
tp2468
a(I231
I8
F0.5
S'drive'
p2469
tp2470
a(I292
I14
F1.0
S'good'
p2471
tp2472
as(S'pixi'
p2473
S'plus'
p2474
tp2475
(lp2476
(I49
I0
F0.875
g340
tp2477
a(I96
I1
I0
g347
tp2478
a(I177
I0
F0.375
g353
tp2479
a(I246
I0
F0.75
g355
tp2480
a(I246
I0
I0
g357
tp2481
a(I303
I2
F0.375
g373
tp2482
a(I353
I0
I0
g377
tp2483
a(I465
I10
F0.375
g396
tp2484
a(I465
I12
F-0.5
g398
tp2485
a(I465
I16
F-0.375
g400
tp2486
as(S'hotspot'
p2487
tp2488
(lp2489
(I13
I1
I0
S'mobile'
p2490
tp2491
a(I22
I4
I0
S'mobile'
p2492
tp2493
a(I38
I2
I0
S'great'
p2494
tp2495
a(I100
I4
I0
S'mobile'
p2496
tp2497
a(I101
I2
I0
S'mobile'
p2498
tp2499
a(I138
I4
F0.25
S'helpful'
p2500
tp2501
a(I138
I4
F0.125
S'entertaining'
p2502
tp2503
a(I179
I17
I0
S'mobile'
p2504
tp2505
a(I185
I6
I0
S'handy'
p2506
tp2507
a(I192
I6
I0
S'mobile'
p2508
tp2509
a(I246
I6
I0
S'mobile'
p2510
tp2511
a(I246
I6
F-0.375
S'top'
p2512
tp2513
a(I246
I7
F-0.625
S'free'
p2514
tp2515
a(I246
I8
I0
S'mobile'
p2516
tp2517
a(I284
I10
I0
S'mobile'
p2518
tp2519
a(I284
I10
I0
S'mobile'
p2520
tp2521
a(I284
I16
I0
S'mobile'
p2522
tp2523
a(I289
I21
I0
S'mobile'
p2524
tp2525
a(I289
I21
F-0.625
S'free'
p2526
tp2527
a(I303
I9
I0
S'mobile'
p2528
tp2529
a(I313
I14
I0
S'anymore'
p2530
tp2531
a(I368
I2
F-0.625
S'free'
p2532
tp2533
a(I377
I5
F-0.625
S'free'
p2534
tp2535
a(I445
I2
F-0.625
S'free'
p2536
tp2537
a(I470
I0
F-0.625
S'free'
p2538
tp2539
a(I480
I2
F-0.625
S'free'
p2540
tp2541
as(S'data'
p2542
S'plan'
p2543
tp2544
(lp2545
(I14
I1
I0
g950
tp2546
a(I45
I26
F0.375
g1235
tp2547
a(I66
I6
F0.125
g1237
tp2548
a(I72
I2
I0
g1312
tp2549
a(I123
I1
I0
g1241
tp2550
a(I137
I2
F-0.5
g1315
tp2551
a(I187
I6
I0
g1255
tp2552
a(I222
I8
F-0.5
g1259
tp2553
a(I222
I8
F-0.375
g1261
tp2554
a(I246
I6
F0.375
g1320
tp2555
a(I258
I3
F-0.375
g1263
tp2556
a(I262
I47
F0.25
g1323
tp2557
a(I284
I10
F-0.375
g1265
tp2558
a(I296
I1
F0.875
g1271
tp2559
a(I309
I2
F0.625
g1273
tp2560
a(I332
I10
F0.375
g1281
tp2561
a(I377
I2
F0.25
g1283
tp2562
a(I377
I2
F0.25
g1330
tp2563
a(I408
I0
I0
g1285
tp2564
a(I465
I24
I0
g1297
tp2565
a(I465
I24
F0.375
g1334
tp2566
a(I465
I24
I0
g1299
tp2567
a(I470
I0
F-0.125
g1301
tp2568
as(S'looking'
p2569
tp2570
(lp2571
(I136
I0
F1.0
g1143
tp2572
a(I136
I0
I0
g1145
tp2573
a(I440
I4
I0
g1147
tp2574
a(I440
I4
F0.625
g1149
tp2575
as(g270
S'great'
p2576
S'price'
p2577
tp2578
(lp2579
(I33
I2
I0
g738
tp2580
a(I61
I1
I0
g742
tp2581
a(I73
I6
I0
g744
tp2582
a(I99
I6
F-0.125
g754
tp2583
a(I99
I6
I0
g756
tp2584
a(I99
I6
F0.5
g758
tp2585
a(I131
I3
I0
g760
tp2586
a(I151
I7
I0
g766
tp2587
a(I193
I3
I0
g774
tp2588
a(I201
I0
F-0.125
g776
tp2589
a(I201
I0
I0
g778
tp2590
a(I288
I0
F-0.25
g788
tp2591
a(I360
I3
I0
g794
tp2592
a(I416
I2
I0
g808
tp2593
a(I471
I1
I0
g816
tp2594
as(S'from'
p2595
S'oem'
p2596
S'shop'
p2597
tp2598
(lp2599
(I72
I0
I0
g909
tp2600
a(I72
I0
F-0.25
g911
tp2601
a(I234
I4
F-0.125
g913
tp2602
as(S'days'
p2603
tp2604
(lp2605
(I87
I3
I0
S'least'
p2606
tp2607
a(I87
I3
F-0.625
S'free'
p2608
tp2609
a(I136
I2
I0
S'few'
p2610
tp2611
a(I138
I2
I0
S'least'
p2612
tp2613
a(I138
I2
F-0.625
S'moderate'
p2614
tp2615
a(I166
I3
I0
S'later'
p2616
tp2617
a(I177
I3
I0
S'few'
p2618
tp2619
a(I179
I33
I0
S'few'
p2620
tp2621
a(I213
I11
I0
S'few'
p2622
tp2623
a(I213
I11
F0.875
S'nice'
p2624
tp2625
a(I213
I11
F0.625
S'easy'
p2626
tp2627
a(I253
I0
I0
S'later'
p2628
tp2629
a(I253
I6
F-0.125
S'overall'
p2630
tp2631
a(I253
I6
I0
S'few'
p2632
tp2633
a(I253
I6
F0.125
S'able'
p2634
tp2635
a(I301
I2
F0.25
S'helpful'
p2636
tp2637
a(I301
I9
F-0.5
S'longer'
p2638
tp2639
a(I367
I27
I0
S'few'
p2640
tp2641
a(I381
I8
I0
S'few'
p2642
tp2643
a(I391
I2
F0.375
S'early'
p2644
tp2645
a(I394
I0
I0
S'few'
p2646
tp2647
a(I420
I5
I0
S'few'
p2648
tp2649
a(I420
I5
I0
S'later'
p2650
tp2651
as(S'connected'
p2652
S'to'
p2653
S'wifi'
p2654
tp2655
(lp2656
(I132
I23
F-0.5
g575
tp2657
a(I477
I3
I0
g601
tp2658
as(S'page'
p2659
S'plus'
p2660
tp2661
(lp2662
(I20
I0
F1.0
g421
tp2663
a(I61
I4
I0
g423
tp2664
a(I81
I2
F-0.125
g425
tp2665
a(I81
I2
I0
g427
tp2666
a(I97
I1
I0
g300
tp2667
a(I123
I1
I0
g302
tp2668
a(I184
I5
I0
g304
tp2669
a(I215
I1
F0.625
g306
tp2670
a(I258
I0
I0
g433
tp2671
a(I266
I0
I0
g308
tp2672
a(I292
I3
I0
g310
tp2673
a(I340
I6
I0
g437
tp2674
a(I400
I2
I0
g441
tp2675
as.