(dp0
(S'memory'
p1
S'card'
p2
tp3
(lp4
(I7
I63
I0
S'optional'
p5
I0
tp6
a(I7
I58
F0.875
S'nice'
p7
I5
tp8
a(I7
I63
I0
g5
I5
tp9
a(I7
I68
F0.375
S'available'
p10
I5
tp11
as(S'data'
p12
tp13
(lp14
(I1
I34
F-0.625
S'other'
p15
I13
tp16
a(I7
I38
F-0.75
S'likely'
p17
I13
tp18
a(I7
I61
I0
S'large'
p19
I13
tp20
as(S't'
p21
S'sim'
p22
S'card'
p23
tp24
(lp25
(I7
I6
I0
S'next'
p26
I0
tp27
a(I7
I9
F-0.625
S'other'
p28
I0
tp29
a(I7
I14
I0
S'different'
p30
I0
tp31
a(I7
I6
I0
g26
I0
tp32
a(I7
I9
F-0.625
g28
I0
tp33
a(I7
I14
I0
g30
I0
tp34
as(S'text'
p35
tp36
(lp37
(I1
I116
F0.75
S'receive'
p38
I18
tp39
as(S'internet'
p40
tp41
(lp42
(I9
I18
I0
S'least'
p43
I6
tp44
a(I9
I27
F-0.5
S'open'
p45
I6
tp46
as(S'foreign'
p47
S'language'
p48
tp49
(lp50
(I1
I52
F-0.125
S'foreign'
p51
I0
tp52
a(I1
I53
F-0.375
S'manual'
p53
I0
tp54
a(I1
I53
F-0.125
S'foreign'
p55
I0
tp56
a(I1
I88
F-0.125
S'foreign'
p57
I0
tp58
a(I1
I52
F-0.125
g51
I3
tp59
a(I1
I53
F-0.375
g53
I3
tp60
a(I1
I53
F-0.125
g55
I3
tp61
a(I1
I88
F-0.125
g57
I3
tp62
a(I4
I1
I0
S'italian'
p63
I3
tp64
a(I9
I22
I0
S'italian'
p65
I3
tp66
a(I9
I23
I0
S'keyboard'
p67
I3
tp68
as(S'wifi'
p69
tp70
(lp71
(I0
I31
I0
S'great'
p72
I0
tp73
a(I0
I31
F0.125
S'capable'
p74
I0
tp75
a(I7
I23
I0
S'great'
p76
I0
tp77
a(I7
I49
F0.125
S'capable'
p78
I0
tp79
a(I7
I60
I0
S'great'
p80
I0
tp81
as(S'samsung'
p82
tp83
(lp84
(I4
I6
F1.0
S'good'
p85
I7
tp86
a(I7
I27
I0
S'old'
p87
I7
tp88
a(I9
I23
I0
S'italian'
p89
I7
tp90
as(S'camera'
p91
tp92
(lp93
(I1
I38
F0.875
S'nice'
p94
I1
tp95
a(I11
I3
F0.875
S'music'
p96
I1
tp97
as(S'touch'
p98
S'screen'
p99
tp100
(lp101
(I1
I3
F0.125
S'first'
p102
I2
tp103
a(I1
I80
I0
S'resistive'
p104
I2
tp105
a(I1
I85
F-0.5
S'heavy'
p106
I2
tp107
a(I7
I45
F0.25
S'responsive'
p108
I2
tp109
a(I8
I6
F0.5
S'touch'
p110
I2
tp111
a(I13
I6
F-0.625
S'average'
p112
I2
tp113
as.