(dp0
(S'usb'
p1
S'cable'
p2
tp3
(lp4
(I16
I23
I0
S'cable'
p5
I2
tp6
as(S'functions'
p7
tp8
(lp9
(I4
I16
F0.625
S'easy'
p10
I4
tp11
a(I12
I19
I0
S'basic'
p12
I4
tp13
a(I12
I25
I0
S'such'
p14
I4
tp15
a(I12
I57
F0.5
S'welcome'
p16
I4
tp17
a(I29
I10
F0.625
S'easy'
p18
I4
tp19
a(I29
I19
F0.375
S'extra'
p20
I4
tp21
as(S'ring'
p22
S'tones'
p23
tp24
(lp25
(I10
I67
F0.25
S'original'
p26
I0
tp27
a(I32
I45
F-0.375
S'simple'
p28
I0
tp29
as(S'letters'
p30
tp31
(lp32
(I12
I45
F-0.375
S'black'
p33
I7
tp34
a(I12
I45
F0.125
S'visible'
p35
I7
tp36
as(S'old'
p37
S'nokia'
p38
tp39
(lp40
(I2
I4
F-0.625
S'free'
p41
I0
tp42
a(I4
I0
I0
S'close'
p43
I0
tp44
a(I8
I51
I0
S'old'
p45
I0
tp46
a(I8
I52
I0
S'old'
p47
I0
tp48
a(I11
I14
I0
S'great'
p49
I0
tp50
a(I11
I14
I0
S'sturdy'
p51
I0
tp52
a(I11
I14
I0
S'old'
p53
I0
tp54
a(I20
I53
I0
S'old'
p55
I0
tp56
a(I33
I7
I0
S'old'
p57
I0
tp58
a(I34
I0
I0
S'older'
p59
I0
tp60
a(I2
I4
F-0.625
g41
I0
tp61
a(I4
I0
I0
g43
I0
tp62
a(I5
I0
I0
S'great'
p63
I0
tp64
a(I8
I51
I0
g45
I0
tp65
a(I8
I52
I0
g47
I0
tp66
a(I10
I53
F-0.125
S'mine'
p67
I0
tp68
a(I11
I14
I0
g49
I0
tp69
a(I11
I14
I0
g51
I0
tp70
a(I11
I14
I0
g53
I0
tp71
a(I12
I21
F0.25
S'familiar'
p72
I0
tp73
a(I12
I29
I0
S'great'
p74
I0
tp75
a(I16
I19
F0.875
S'happy'
p76
I0
tp77
a(I19
I22
I0
S'sturdy'
p78
I0
tp79
a(I20
I53
I0
g55
I0
tp80
a(I20
I67
F1.0
S'best'
p81
I0
tp82
a(I22
I57
F-0.25
S'late'
p83
I0
tp84
a(I27
I35
I0
S'standard'
p85
I0
tp86
a(I29
I2
F-0.375
S'simple'
p87
I0
tp88
a(I33
I7
I0
g57
I0
tp89
a(I34
I0
I0
g59
I0
tp90
a(I34
I11
F-0.5
S'sure'
p91
I0
tp92
as(S'point'
p93
S'access'
p94
S'point'
p95
tp96
(lp97
(I18
I44
I0
S'active'
p98
I0
tp99
a(I18
I50
F0.375
S'new'
p100
I0
tp101
a(I18
I44
I0
g98
I0
tp102
a(I18
I50
F0.375
g100
I0
tp103
a(I18
I44
I0
g98
I0
tp104
a(I18
I50
F0.375
g100
I0
tp105
as(S'iphone'
p106
tp107
(lp108
(I6
I5
I0
S'user'
p109
I1
tp110
a(I6
I5
F0.375
S'friendly'
p111
I1
tp112
a(I8
I39
I0
S'great'
p113
I1
tp114
a(I10
I41
F-0.75
S'sick'
p115
I1
tp116
a(I12
I23
F0.125
S'popular'
p117
I1
tp118
a(I32
I55
I0
S'old'
p119
I1
tp120
as(S'configuration'
p121
tp122
(lp123
(I2
I8
F0.375
S'similar'
p124
I6
tp125
a(I18
I41
F0.625
S'easy'
p126
I6
tp127
a(I22
I1
I0
S'only'
p128
I6
tp129
as(S'reception'
p130
tp131
(lp132
(I2
I3
F1.0
S'better'
p133
I0
tp134
a(I8
I14
F1.0
S'best'
p135
I0
tp136
a(I15
I49
I0
S'darn'
p137
I0
tp138
a(I15
I49
F1.0
S'good'
p139
I0
tp140
a(I15
I49
I0
S'most'
p141
I0
tp142
a(I20
I24
I0
S'great'
p143
I0
tp144
a(I20
I27
F1.0
S'good'
p145
I0
tp146
a(I20
I47
F1.0
S'good'
p147
I0
tp148
a(I23
I3
F1.0
S'good'
p149
I0
tp150
a(I29
I32
F-0.125
S'super'
p151
I0
tp152
a(I29
I46
F1.0
S'best'
p153
I0
tp154
a(I32
I35
F1.0
S'good'
p155
I0
tp156
a(I33
I3
I0
S'great'
p157
I0
tp158
a(I33
I8
F-0.75
S'worse'
p159
I0
tp160
a(I36
I3
I0
S'great'
p161
I0
tp162
as(S'internet'
p163
tp164
(lp165
(I18
I11
I0
S'basic'
p166
I6
tp167
a(I20
I71
F-0.75
S'dependent'
p168
I6
tp169
a(I22
I44
F-0.75
S'unable'
p170
I6
tp171
as(S'access'
p172
S'point'
p173
S'settings'
p174
tp175
(lp176
(I18
I44
I0
g98
I0
tp177
a(I18
I50
F0.375
g100
I0
tp178
a(I2
I10
I0
S'few'
p179
I1
tp180
as(S'great'
p181
S'battery'
p182
S'life'
p183
tp184
(lp185
(I15
I5
I0
S'great'
p186
I0
tp187
a(I15
I40
I0
S'great'
p188
I0
tp189
a(I15
I45
I0
S'great'
p190
I0
tp191
a(I20
I46
I0
S'great'
p192
I0
tp193
a(I15
I5
I0
g186
I0
tp194
a(I15
I40
I0
g188
I0
tp195
a(I15
I45
I0
g190
I0
tp196
a(I20
I46
I0
g192
I0
tp197
a(I10
I7
F-0.5
S'ordinary'
p198
I1
tp199
a(I10
I13
F1.0
S'good'
p200
I1
tp201
a(I10
I46
F-0.5
S'long'
p202
I1
tp203
a(I15
I5
I0
g186
I1
tp204
a(I15
I13
F-0.625
S'average'
p205
I1
tp206
a(I15
I40
I0
g188
I1
tp207
a(I15
I45
I0
g190
I1
tp208
a(I17
I25
F-0.625
S'average'
p209
I1
tp210
a(I18
I24
F1.0
S'good'
p211
I1
tp212
a(I19
I6
F1.0
S'good'
p213
I1
tp214
a(I20
I46
I0
g192
I1
tp215
a(I22
I55
F-0.5
S'long'
p216
I1
tp217
a(I22
I58
F-0.5
S'long'
p218
I1
tp219
a(I26
I1
F1.0
S'good'
p220
I1
tp221
a(I27
I23
F1.0
S'good'
p222
I1
tp223
a(I32
I30
F1.0
S'good'
p224
I1
tp225
a(I33
I7
F1.0
S'good'
p226
I1
tp227
a(I33
I7
I0
S'same'
p228
I1
tp229
a(I33
I21
F0.25
S'read'
p230
I1
tp231
a(I33
I21
F1.0
S'good'
p232
I1
tp233
a(I33
I21
F-0.5
S'sure'
p234
I1
tp235
a(I15
I13
F-0.625
g205
I19
tp236
a(I17
I25
F-0.625
g209
I19
tp237
a(I19
I6
F1.0
g213
I19
tp238
a(I33
I7
F1.0
g226
I19
tp239
a(I33
I8
F1.0
S'good'
p240
I19
tp241
a(I33
I21
F1.0
g232
I19
tp242
a(I33
I21
F-0.5
g234
I19
tp243
a(I1
I16
F0.375
S'new'
p244
I15
tp245
a(I8
I52
F-0.5
S'complaint'
p246
I15
tp247
a(I10
I7
F-0.5
g198
I15
tp248
a(I10
I13
F1.0
g200
I15
tp249
a(I10
I46
F-0.5
g202
I15
tp250
a(I13
I15
F0.625
S'cover'
p251
I15
tp252
a(I15
I4
I0
S'full'
p253
I15
tp254
a(I15
I5
I0
g186
I15
tp255
a(I15
I40
I0
g188
I15
tp256
a(I15
I45
I0
g190
I15
tp257
a(I16
I23
F0.125
S'charger'
p258
I15
tp259
a(I18
I24
F1.0
g211
I15
tp260
a(I20
I46
I0
g192
I15
tp261
a(I22
I2
I0
S'more'
p262
I15
tp263
a(I22
I2
I0
S'full'
p264
I15
tp265
a(I22
I2
I0
S'large'
p266
I15
tp267
a(I22
I40
F0.375
S'new'
p268
I15
tp269
a(I22
I55
F-0.5
g216
I15
tp270
a(I22
I58
F-0.5
g218
I15
tp271
a(I25
I14
F1.0
S'good'
p272
I15
tp273
a(I26
I1
F1.0
g220
I15
tp274
a(I27
I23
F1.0
g222
I15
tp275
a(I29
I32
F0.5
S'clear'
p276
I15
tp277
a(I32
I30
F1.0
g224
I15
tp278
a(I33
I7
I0
g228
I15
tp279
a(I33
I21
F0.25
g230
I15
tp280
a(I35
I1
F0.375
S'new'
p281
I15
tp282
as(S'good'
p283
S'battery'
p284
S'life'
p285
tp286
(lp287
(I10
I13
F1.0
g200
I0
tp288
a(I18
I24
F1.0
g211
I0
tp289
a(I19
I6
F1.0
g213
I0
tp290
a(I20
I46
I0
g192
I0
tp291
a(I26
I1
F1.0
g220
I0
tp292
a(I27
I23
F1.0
g222
I0
tp293
a(I32
I30
F1.0
g224
I0
tp294
a(I33
I7
F1.0
g226
I0
tp295
a(I33
I7
I0
g228
I0
tp296
a(I33
I21
F0.25
g230
I0
tp297
a(I33
I21
F1.0
g232
I0
tp298
a(I33
I21
F-0.5
g234
I0
tp299
as(S'radio'
p300
tp301
(lp302
(I33
I15
F0.125
S'able'
p303
I0
tp304
a(I33
I15
F0.25
S'favorite'
p305
I0
tp306
as(S'access'
p307
S'pt'
p308
tp309
(lp310
(I18
I44
I0
g98
I0
tp311
a(I18
I50
F0.375
g100
I0
tp312
as(S'music'
p313
S'and'
p314
S'video'
p315
tp316
(lp317
(I13
I4
F0.875
S'music'
p318
I0
tp319
a(I20
I4
I0
S'passable'
p320
I0
tp321
a(I20
I17
I0
S'substantial'
p322
I0
tp323
as(S'voice'
p324
tp325
(lp326
(I8
I5
I0
S'own'
p327
I4
tp328
a(I12
I44
F1.0
S'good'
p329
I4
tp330
a(I27
I11
F0.5
S'clear'
p331
I4
tp332
as(S'calls'
p333
tp334
(lp335
(I10
I9
F0.625
S'easy'
p336
I0
tp337
a(I10
I30
F0.5
S'clear'
p338
I0
tp339
a(I12
I58
F0.5
S'clear'
p340
I0
tp341
as(S'interface'
p342
tp343
(lp344
(I10
I32
F-0.375
S'simple'
p345
I1
tp346
a(I10
I32
F0.625
S'easy'
p347
I1
tp348
a(I12
I22
I0
S'indicate'
p349
I1
tp350
a(I15
I46
F0.625
S'easy'
p351
I1
tp352
a(I22
I55
F-0.375
S'simple'
p353
I1
tp354
a(I22
I59
I-100
S'ill-suited'
p355
I1
tp356
as(S'text'
p357
S'messages'
p358
tp359
(lp360
(I6
I3
I0
S'few'
p361
I0
tp362
a(I6
I3
I0
g361
I18
tp363
a(I8
I36
I0
S'great'
p364
I18
tp365
a(I8
I36
F0.5
S'drive'
p366
I18
tp367
a(I11
I7
F0.75
S'receive'
p368
I18
tp369
a(I19
I16
I0
S'great'
p370
I18
tp371
as(S'smartphone'
p372
tp373
(lp374
(I9
I6
F0.5
S'rid'
p375
I0
tp376
a(I9
I6
F0.875
S'happier'
p377
I0
tp378
a(I27
I20
F1.0
S'better'
p379
I0
tp380
as(S'camera'
p381
S'and'
p382
S'music'
p383
tp384
(lp385
(I12
I32
F0.875
S'music'
p386
I0
tp387
a(I20
I4
F1.0
S'good'
p388
I0
tp389
a(I20
I4
I0
g320
I0
tp390
a(I4
I20
F0.625
S'accessible'
p391
I1
tp392
a(I6
I0
F-0.625
S'bad'
p393
I1
tp394
a(I12
I32
F0.875
g386
I1
tp395
a(I12
I34
F1.0
S'good'
p396
I1
tp397
a(I16
I25
F1.0
S'good'
p398
I1
tp399
a(I16
I25
F0.625
S'easy'
p400
I1
tp401
a(I18
I27
F-0.375
S'simple'
p402
I1
tp403
a(I19
I5
F1.0
S'good'
p404
I1
tp405
a(I20
I4
F1.0
g388
I1
tp406
a(I20
I46
F0.625
S'decent'
p407
I1
tp408
a(I20
I46
F-0.375
S'top'
p409
I1
tp410
a(I25
I0
F1.0
S'good'
p411
I1
tp412
a(I25
I0
F0.625
S'easy'
p413
I1
tp414
a(I33
I1
F-0.375
S'small'
p415
I1
tp416
as(S'a'
p417
S'sim'
p418
S'card'
p419
tp420
(lp421
(I10
I20
F0.5
S'bought'
p422
I0
tp423
a(I10
I20
F-0.5
S'international'
p424
I0
tp425
a(I15
I1
F0.375
S'new'
p426
I0
tp427
a(I15
I34
I0
S'local'
p428
I0
tp429
a(I19
I29
I0
S'chinese'
p430
I0
tp431
a(I20
I28
F0.625
S'easy'
p432
I0
tp433
a(I22
I58
I0
S'prepaid'
p434
I0
tp435
a(I23
I1
I0
S'european'
p436
I0
tp437
a(I27
I40
I0
S'prepaid'
p438
I0
tp439
a(I29
I12
I0
S'local'
p440
I0
tp441
a(I34
I16
I0
S'charged'
p442
I0
tp443
a(I10
I20
F0.5
g422
I0
tp444
a(I10
I20
F-0.5
g424
I0
tp445
a(I15
I1
F0.375
g426
I0
tp446
a(I15
I34
I0
g428
I0
tp447
a(I19
I29
I0
g430
I0
tp448
a(I20
I28
F0.625
g432
I0
tp449
a(I22
I58
I0
g434
I0
tp450
a(I23
I1
I0
g436
I0
tp451
a(I27
I40
I0
g438
I0
tp452
a(I29
I12
I0
g440
I0
tp453
a(I34
I16
I0
g442
I0
tp454
as(S'data'
p455
S'plan'
p456
tp457
(lp458
(I20
I23
F0.875
S'nice'
p459
I0
tp460
a(I20
I23
F0.5
S'expensive'
p461
I0
tp462
a(I10
I1
F-0.375
S'double'
p463
I13
tp464
a(I20
I23
F0.875
g459
I13
tp465
a(I20
I23
F0.5
g461
I13
tp466
as(S'le'
p467
S'coloque'
p468
tp469
(lp470
(I28
I1
F-0.375
S'le'
p471
I0
tp472
as(S'volume'
p473
tp474
(lp475
(I11
I2
F0.625
S'find'
p476
I6
tp477
a(I18
I13
F0.625
S'easy'
p478
I6
tp479
a(I20
I37
F-0.25
S'low'
p480
I6
tp481
a(I20
I65
F0.625
S'easy'
p482
I6
tp483
as(S'texting'
p484
tp485
(lp486
(I4
I22
F-0.375
S'simple'
p487
I0
tp488
a(I10
I42
I0
S'great'
p489
I0
tp490
a(I34
I13
F1.0
S'good'
p491
I0
tp492
as(S'sound'
p493
S'quality'
p494
tp495
(lp496
(I16
I18
F0.75
S'sound'
p497
I0
tp498
a(I20
I15
I0
S'only'
p499
I0
tp500
a(I20
I15
F-0.875
S'negative'
p501
I0
tp502
a(I20
I66
F1.0
S'good'
p503
I0
tp504
a(I29
I43
I0
S'great'
p505
I0
tp506
a(I32
I44
F1.0
S'good'
p507
I0
tp508
as(S'mp'
p509
S'camera'
p510
tp511
(lp512
(I12
I32
F0.875
g386
I0
tp513
a(I18
I27
F-0.375
g402
I0
tp514
as.