(dp0
(S'battery'
p1
S'life'
p2
tp3
(lp4
(I13
I3
F1.0
S'good'
p5
I1
tp6
a(I21
I21
F1.0
S'good'
p7
I1
tp8
a(I22
I8
F1.0
S'good'
p9
I1
tp10
a(I22
I8
F1.0
g9
I15
tp11
as(S'service'
p12
tp13
(lp14
(I3
I11
F-0.5
S'poor'
p15
I16
tp16
a(I16
I5
I0
S'same'
p17
I16
tp18
a(I21
I26
F0.25
S'professional'
p19
I16
tp20
as(S'sim'
p21
S'card'
p22
tp23
(lp24
(I17
I46
I0
S'old'
p25
I0
tp26
a(I21
I4
F0.375
S'new'
p27
I0
tp28
as(S'samsung'
p29
tp30
(lp31
(I13
I21
F0.875
S'nice'
p32
I7
tp33
a(I24
I16
F-0.75
S'little'
p34
I7
tp35
a(I24
I16
I0
S'great'
p36
I7
tp37
as(S'amazon'
p38
tp39
(lp40
(I13
I34
F0.375
S'available'
p41
I13
tp42
a(I16
I3
F0.5
S'told'
p43
I13
tp44
as(S'flip'
p45
tp46
(lp47
(I13
I49
F-0.375
S'simple'
p48
I4
tp49
a(I17
I4
F-0.375
S'simple'
p50
I4
tp51
a(I17
I7
F-0.375
S'simple'
p52
I4
tp53
a(I17
I15
F1.0
S'good'
p54
I4
tp55
a(I17
I28
I0
S'basic'
p56
I4
tp57
as(S'camera'
p58
tp59
(lp60
(I13
I22
F0.375
S'much'
p61
I1
tp62
a(I14
I16
I0
S'real'
p63
I1
tp64
a(I17
I67
F1.0
S'good'
p65
I1
tp66
as(S'calls'
p67
tp68
(lp69
(I12
I10
F1.0
S'good'
p70
I0
tp71
a(I12
I14
F0.75
S'receive'
p72
I0
tp73
a(I24
I4
F0.75
S'receive'
p74
I0
tp75
as.