(dp0
(S'battery'
p1
S'life'
p2
tp3
(lp4
(I7
I42
F1.0
S'good'
p5
I1
tp6
as(S'internet'
p7
tp8
(lp9
(I8
I37
I0
S'entire'
p10
I6
tp11
as(S'text'
p12
tp13
(lp14
(I0
I4
F0.5
S'clear'
p15
I18
tp16
a(I3
I2
I0
S'more'
p17
I18
tp18
a(I15
I14
I0
S'instant'
p19
I18
tp20
as(S'new'
p21
S'sim'
p22
S'card'
p23
tp24
(lp25
(I7
I7
F0.375
S'new'
p26
I0
tp27
a(I7
I35
F0.375
S'new'
p28
I0
tp29
a(I10
I30
F0.375
S'new'
p30
I0
tp31
a(I15
I10
F0.375
S'new'
p32
I0
tp33
a(I15
I11
F0.375
S'new'
p34
I0
tp35
a(I6
I2
I0
S'own'
p36
I0
tp37
a(I7
I7
F0.375
g26
I0
tp38
a(I7
I35
F0.375
g28
I0
tp39
a(I10
I30
F0.375
g30
I0
tp40
a(I15
I10
F0.375
g32
I0
tp41
a(I15
I11
F0.375
g34
I0
tp42
a(I7
I7
F0.375
g26
I0
tp43
a(I7
I35
F0.375
g28
I0
tp44
a(I10
I30
F0.375
g30
I0
tp45
a(I15
I10
F0.375
g32
I0
tp46
a(I15
I11
F0.375
g34
I0
tp47
as(S'customer'
p48
S'service'
p49
tp50
(lp51
(I13
I42
F-0.5
S'poor'
p52
I3
tp53
a(I13
I50
I0
S'same'
p54
I3
tp55
a(I18
I15
I0
S'great'
p56
I3
tp57
a(I18
I16
F0.875
S'nice'
p58
I3
tp59
a(I18
I16
F0.125
S'capable'
p60
I3
tp61
a(I7
I48
F1.0
S'good'
p62
I16
tp63
a(I8
I34
I0
S'only'
p64
I16
tp65
a(I9
I10
I0
S'dial'
p66
I16
tp67
a(I10
I14
F0.375
S'new'
p68
I16
tp69
a(I10
I14
I0
S'automatic'
p70
I16
tp71
a(I13
I10
F1.0
S'good'
p72
I16
tp73
a(I13
I10
I0
S'same'
p74
I16
tp75
a(I13
I38
F1.0
S'good'
p76
I16
tp77
a(I13
I39
I0
S'standard'
p78
I16
tp79
a(I13
I42
F-0.5
g52
I16
tp80
a(I13
I71
F-0.5
S'regular'
p81
I16
tp82
a(I15
I5
I0
S'nationwide'
p83
I16
tp84
a(I18
I15
I0
g56
I16
tp85
a(I18
I16
F0.875
g58
I16
tp86
a(I18
I16
F0.125
g60
I16
tp87
a(I18
I31
F0.875
S'happy'
p88
I16
tp89
a(I13
I50
I0
g54
I11
tp90
as(S'net10'
p91
tp92
(lp93
(I10
I27
F0.375
S'new'
p94
I0
tp95
a(I13
I38
F-0.125
S'overall'
p96
I0
tp97
a(I18
I5
I0
S'minute'
p98
I0
tp99
a(I18
I36
F-0.875
S'awful'
p100
I0
tp101
as(S'telephone'
p102
tp103
(lp104
(I8
I7
F0.5
S'second'
p105
I1
tp106
a(I8
I15
F0.5
S'primary'
p107
I1
tp108
a(I8
I21
F1.0
S'better'
p109
I1
tp110
as(S'camera'
p111
tp112
(lp113
(I9
I19
F1.0
S'good'
p114
I1
tp115
a(I9
I22
I0
S'adequate'
p116
I1
tp117
a(I13
I78
F0.875
S'nice'
p118
I1
tp119
a(I16
I12
F1.0
S'good'
p120
I1
tp121
as(S'touch'
p122
S'screen'
p123
tp124
(lp125
(I8
I9
F0.25
S'larger'
p126
I2
tp127
a(I10
I37
F0.5
S'touch'
p128
I2
tp129
a(I16
I31
F0.5
S'touch'
p130
I2
tp131
a(I18
I24
F0.25
S'larger'
p132
I2
tp133
as.