(dp0
(S'keyboard'
p1
tp2
(lp3
(I2
I11
F-0.375
S'small'
p4
tp5
a(I4
I10
F-0.375
S'small'
p6
tp7
a(I4
I10
F-0.625
S'other'
p8
tp9
a(I12
I2
F0.625
S'easy'
p10
tp11
a(I17
I3
F0.625
S'easier'
p12
tp13
a(I18
I50
I0
S'full'
p14
tp15
a(I19
I0
F0.875
S'nice'
p16
tp17
a(I41
I2
F0.625
S'easier'
p18
tp19
a(I47
I2
I0
S'full'
p20
tp21
a(I50
I0
I0
S'more'
p22
tp23
a(I54
I0
I0
S'full'
p24
tp25
a(I80
I2
F0.375
S'much'
p26
tp27
a(I81
I6
F0.375
S'much'
p28
tp29
a(I82
I4
F1.0
S'good'
p30
tp31
a(I97
I2
F0.625
S'easy'
p32
tp33
a(I108
I1
I0
S'full'
p34
tp35
a(I111
I0
I0
S'great'
p36
tp37
a(I133
I0
I0
S'great'
p38
tp39
a(I137
I0
I0
S'full'
p40
tp41
a(I149
I4
I0
S'more'
p42
tp43
a(I153
I0
I0
S'full'
p44
tp45
a(I153
I16
F-0.75
S'uncomfortable'
p46
tp47
a(I165
I1
F1.0
S'good'
p48
tp49
a(I165
I1
F0.625
S'easy'
p50
tp51
a(I192
I5
F0.625
S'easy'
p52
tp53
a(I210
I1
I0
S'large'
p54
tp55
a(I221
I5
F-0.375
S'small'
p56
tp57
a(I253
I3
F1.0
S'good'
p58
tp59
a(I257
I0
F0.625
S'easier'
p60
tp61
as(S'keys'
p62
tp63
(lp64
(I14
I7
I0
S'standard'
p65
tp66
a(I28
I0
F-0.375
S'small'
p67
tp68
a(I28
I3
F0.25
S'larger'
p69
tp70
a(I28
I3
I0
S'least'
p71
tp72
a(I31
I20
F-0.375
S'small'
p73
tp74
a(I42
I7
F-0.375
S'small'
p75
tp76
a(I45
I6
F-0.375
S'small'
p77
tp78
a(I86
I1
F-0.375
S'small'
p79
tp80
a(I99
I6
F-0.375
S'small'
p81
tp82
a(I110
I7
I0
S'soft'
p83
tp84
a(I130
I4
F-0.375
S'small'
p85
tp86
a(I139
I0
F-0.375
S'small'
p87
tp88
a(I175
I2
F0.625
S'easy'
p89
tp90
a(I196
I0
F-0.375
S'small'
p91
tp92
a(I196
I3
I0
S'large'
p93
tp94
a(I213
I2
F0.125
S'first'
p95
tp96
a(I213
I2
F-0.375
S'small'
p97
tp98
a(I214
I45
F-0.375
S'small'
p99
tp100
a(I214
I46
F-0.375
S'small'
p101
tp102
a(I220
I1
F-0.375
S'small'
p103
tp104
as(S'nice'
p105
tp106
(lp107
(I18
I50
I0
S'few'
p108
tp109
as(S'tech'
p110
S'support'
p111
tp112
(lp113
(I45
I9
I0
S'tech'
p114
tp115
as(S'couple'
p116
S'of'
p117
S'times'
p118
tp119
(lp120
(I243
I2
F-0.875
S'trouble'
p121
tp122
as(S'qwerty'
p123
S'keyboard'
p124
tp125
(lp126
(I19
I0
F0.875
g16
tp127
a(I41
I2
F0.625
g18
tp128
a(I50
I0
I0
g22
tp129
a(I55
I11
F0.625
S'easier'
p130
tp131
a(I55
I11
I0
S'physical'
p132
tp133
a(I80
I2
I0
S'full'
p134
tp135
a(I80
I2
F0.375
g26
tp136
a(I111
I0
I0
g36
tp137
a(I122
I4
F0.625
S'easier'
p138
tp139
a(I122
I4
F0.875
S'nice'
p140
tp141
a(I133
I0
I0
g38
tp142
a(I149
I4
I0
S'full'
p143
tp144
a(I149
I4
I0
g42
tp145
a(I177
I1
F0.625
S'easy'
p146
tp147
a(I192
I5
F0.625
g52
tp148
a(I245
I2
F0.625
S'easy'
p149
tp150
a(I253
I3
F1.0
g58
tp151
a(I257
I0
F0.625
g60
tp152
as(S'lg500g'
p153
tp154
(lp155
(I18
I38
F0.5
S'second'
p156
tp157
a(I26
I0
I0
S'february'
p158
tp159
a(I32
I1
I0
S'many'
p160
tp161
a(I72
I6
F0.375
S'much'
p162
tp163
a(I242
I8
I0
S'total'
p164
tp165
as(S'quality'
p166
tp167
(lp168
(I14
I4
I0
S'great'
p169
tp170
a(I18
I3
F1.0
S'good'
p171
tp172
a(I18
I7
F1.0
S'good'
p173
tp174
a(I18
I11
I0
S'great'
p175
tp176
a(I20
I3
F1.0
S'good'
p177
tp178
a(I20
I20
F-0.625
S'bad'
p179
tp180
a(I24
I2
F-0.125
S'overall'
p181
tp182
a(I35
I1
F-0.5
S'poor'
p183
tp184
a(I65
I2
F1.0
S'good'
p185
tp186
a(I72
I5
F-0.125
S'overall'
p187
tp188
a(I97
I2
I0
S'high'
p189
tp190
a(I102
I2
F1.0
S'good'
p191
tp192
a(I147
I2
I0
S'high'
p193
tp194
a(I150
I0
F0.5
S'clear'
p195
tp196
a(I175
I1
F1.0
S'good'
p197
tp198
a(I177
I1
F1.0
S'good'
p199
tp200
a(I180
I4
F1.0
S'good'
p201
tp202
a(I187
I3
F-0.5
S'poor'
p203
tp204
a(I243
I2
I0
S'great'
p205
tp206
a(I245
I2
I0
S'great'
p207
tp208
as(S'with'
p209
S'qwerty'
p210
S'keyboard'
p211
tp212
(lp213
(I80
I2
I0
g134
tp214
a(I80
I2
F0.375
g26
tp215
a(I177
I1
F0.625
g146
tp216
a(I245
I2
F0.625
g149
tp217
a(I253
I3
F1.0
g58
tp218
a(I257
I0
F0.625
g60
tp219
as(S'with'
p220
S'double'
p221
S'minutes'
p222
tp223
(lp224
(I4
I12
F-0.375
S'double'
p225
tp226
a(I8
I16
F-0.375
S'double'
p227
tp228
a(I10
I5
F-0.375
S'double'
p229
tp230
a(I39
I10
F-0.375
S'double'
p231
tp232
a(I44
I5
F-0.375
S'double'
p233
tp234
a(I45
I4
F-0.25
S'doubled'
p235
tp236
a(I85
I2
F-0.375
S'double'
p237
tp238
a(I86
I0
F-0.375
S'double'
p239
tp240
a(I88
I0
F-0.375
S'double'
p241
tp242
a(I118
I0
F-0.375
S'double'
p243
tp244
a(I175
I4
F-0.375
S'double'
p245
tp246
a(I214
I6
F-0.375
S'double'
p247
tp248
a(I214
I11
F-0.375
S'double'
p249
tp250
a(I224
I2
F-0.375
S'double'
p251
tp252
a(I245
I4
F-0.375
S'double'
p253
tp254
a(I252
I2
F-0.375
S'double'
p255
tp256
a(I252
I2
F-0.375
S'double'
p257
tp258
as(S'double'
p259
S'minutes'
p260
tp261
(lp262
(I4
I12
F-0.375
g225
tp263
a(I8
I16
F-0.375
g227
tp264
a(I10
I5
F-0.375
g229
tp265
a(I19
I0
F-0.375
S'double'
p266
tp267
a(I23
I5
F-0.375
S'double'
p268
tp269
a(I23
I5
I0
S'great'
p270
tp271
a(I39
I10
F-0.375
g231
tp272
a(I44
I5
F-0.375
g233
tp273
a(I45
I4
F-0.25
g235
tp274
a(I59
I4
F-0.375
S'double'
p275
tp276
a(I85
I2
F-0.375
g237
tp277
a(I86
I0
F-0.375
g239
tp278
a(I88
I0
F-0.375
g241
tp279
a(I118
I0
F-0.375
g243
tp280
a(I121
I4
F-0.375
S'double'
p281
tp282
a(I140
I2
F-0.375
S'double'
p283
tp284
a(I150
I0
F-0.375
S'double'
p285
tp286
a(I175
I4
F-0.375
g245
tp287
a(I192
I6
F-0.375
S'double'
p288
tp289
a(I204
I4
F-0.375
S'double'
p290
tp291
a(I213
I12
F-0.375
S'double'
p292
tp293
a(I214
I6
F-0.375
g247
tp294
a(I214
I11
F-0.375
g249
tp295
a(I219
I12
F-0.375
S'double'
p296
tp297
a(I223
I1
F-0.375
S'double'
p298
tp299
a(I224
I2
F-0.375
g251
tp300
a(I232
I2
F-0.375
S'double'
p301
tp302
a(I245
I4
F-0.375
g253
tp303
a(I252
I2
F-0.375
g255
tp304
a(I252
I2
F-0.375
g257
tp305
a(I253
I7
F-0.375
S'double'
p306
tp307
a(I258
I5
F-0.375
S'double'
p308
tp309
as(S'sd'
p310
S'card'
p311
tp312
(lp313
(I175
I9
F0.875
S'nice'
p314
tp315
as(S'customer'
p316
tp317
(lp318
(I99
I4
I0
S'website'
p319
tp320
a(I102
I8
F-0.25
S'nightmare'
p321
tp322
a(I146
I3
F-0.875
S'awful'
p323
tp324
a(I188
I5
F-0.625
S'bad'
p325
tp326
as(S'sim'
p327
S'card'
p328
tp329
(lp330
(I1
I7
F0.375
S'new'
p331
tp332
a(I1
I10
F0.375
S'new'
p333
tp334
a(I1
I14
F0.5
S'second'
p335
tp336
a(I20
I26
I0
S'included'
p337
tp338
a(I143
I3
F0.375
S'new'
p339
tp340
as(S'charge'
p341
tp342
(lp343
(I56
I12
F1.0
S'good'
p344
tp345
a(I104
I12
F-0.5
S'sure'
p346
tp347
a(I120
I0
F-0.25
S'low'
p348
tp349
a(I244
I1
F-0.5
S'separate'
p350
tp351
as(S'called'
p352
S'customer'
p353
S'service'
p354
tp355
(lp356
(I9
I3
F-0.25
S'unaware'
p357
tp358
as(S'gb'
p359
S'cards'
p360
tp361
(lp362
(I121
I17
F0.5
S'odd'
p363
tp364
a(I121
I17
F-0.75
S'little'
p365
tp366
as(S'card'
p367
tp368
(lp369
(I26
I11
F1.0
S'good'
p370
tp371
a(I175
I9
F0.875
g314
tp372
a(I244
I4
I0
S'different'
p373
tp374
as(S'customer'
p375
S'service'
p376
tp377
(lp378
(I9
I3
F-0.25
g357
tp379
a(I77
I1
F-0.875
S'worst'
p380
tp381
a(I83
I3
F-0.75
S'unreliable'
p382
tp383
a(I92
I12
I0
S'most'
p384
tp385
a(I92
I12
F-0.5
S'unsatisfactory'
p386
tp387
a(I99
I4
I0
g319
tp388
a(I101
I3
F1.0
S'good'
p389
tp390
a(I102
I8
F-0.25
g321
tp391
a(I146
I3
F-0.875
g323
tp392
a(I188
I5
F-0.625
g325
tp393
a(I208
I9
F-0.875
S'worst'
p394
tp395
as(S'cost'
p396
tp397
(lp398
(I36
I5
F0.75
S'due'
p399
tp400
a(I36
I5
F-0.25
S'low'
p401
tp402
a(I108
I0
F-0.25
S'low'
p403
tp404
a(I108
I5
F-0.25
S'low'
p405
tp406
a(I121
I26
I0
S'same'
p407
tp408
a(I170
I1
F0.25
S'effective'
p409
tp410
a(I187
I4
F-0.125
S'mine'
p411
tp412
as(S'every'
p413
tp414
(lp415
(I185
I0
F0.75
S'worth'
p416
tp417
as(S'times'
p418
tp419
(lp420
(I11
I3
F0.125
S'key'
p421
tp422
a(I17
I3
I0
S'few'
p423
tp424
a(I41
I4
I0
S'few'
p425
tp426
a(I53
I3
I0
S'many'
p427
tp428
a(I110
I3
I0
S'few'
p429
tp430
a(I153
I5
F-0.75
S'unable'
p431
tp432
a(I169
I1
I0
S'many'
p433
tp434
a(I219
I5
I0
S'useful'
p435
tp436
a(I221
I2
F0.125
S'first'
p437
tp438
a(I255
I3
F-0.5
S'open'
p439
tp440
as(S'problem'
p441
tp442
(lp443
(I27
I2
I0
S'only'
p444
tp445
a(I31
I20
I0
S'such'
p446
tp447
a(I31
I20
I0
S'most'
p448
tp449
a(I42
I12
F-0.75
S'single'
p450
tp451
a(I53
I2
I0
S'big'
p452
tp453
a(I60
I1
F0.625
S'easy'
p454
tp455
a(I70
I10
I0
S'big'
p456
tp457
a(I99
I2
F0.5
S'second'
p458
tp459
a(I102
I10
I0
S'website'
p460
tp461
a(I102
I10
I0
S'e-mail'
p462
tp463
a(I104
I8
I0
S'same'
p464
tp465
a(I110
I11
I0
S'only'
p466
tp467
a(I146
I8
F0.125
S'able'
p468
tp469
a(I173
I5
F0.25
S'biggest'
p470
tp471
a(I214
I27
I0
S'common'
p472
tp473
a(I214
I46
F-0.25
S'past'
p474
tp475
a(I220
I1
I0
S'only'
p476
tp477
as(S'get'
p478
S'double'
p479
S'minutes'
p480
tp481
(lp482
(I4
I12
F-0.375
g225
tp483
a(I8
I16
F-0.375
g227
tp484
a(I23
I5
F-0.375
g268
tp485
a(I23
I5
I0
g270
tp486
a(I44
I5
F-0.375
g233
tp487
a(I118
I0
F-0.375
g243
tp488
a(I204
I4
F-0.375
g290
tp489
a(I214
I11
F-0.375
g249
tp490
a(I252
I2
F-0.375
g255
tp491
a(I252
I2
F-0.375
g257
tp492
a(I253
I7
F-0.375
g306
tp493
as(S'money'
p494
tp495
(lp496
(I23
I13
I0
S'more'
p497
tp498
a(I23
I13
I0
S'many'
p499
tp500
a(I26
I15
I0
S'more'
p501
tp502
a(I223
I2
I0
S'more'
p503
tp504
a(I250
I3
F-0.375
S'serious'
p505
tp506
as(S'great'
p507
S'for'
p508
S'texting'
p509
tp510
(lp511
(I21
I2
I0
S'great'
p512
tp513
a(I140
I1
I0
S'great'
p514
tp515
as(S'price'
p516
tp517
(lp518
(I10
I5
I0
S'special'
p519
tp520
a(I23
I4
I0
S'high'
p521
tp522
a(I42
I12
F0.25
S'original'
p523
tp524
a(I45
I6
I0
S'great'
p525
tp526
a(I51
I0
F1.0
S'good'
p527
tp528
a(I73
I0
I0
S'great'
p529
tp530
a(I88
I0
F1.0
S'good'
p531
tp532
a(I93
I0
F1.0
S'better'
p533
tp534
a(I97
I1
I0
S'great'
p535
tp536
a(I100
I1
F0.875
S'happy'
p537
tp538
a(I103
I19
F-0.75
S'comfortable'
p539
tp540
a(I123
I9
F1.0
S'best'
p541
tp542
a(I128
I2
F1.0
S'good'
p543
tp544
a(I129
I19
I0
S'great'
p545
tp546
a(I147
I0
F-0.25
S'low'
p547
tp548
a(I148
I0
F1.0
S'good'
p549
tp550
a(I159
I8
F-0.125
S'overall'
p551
tp552
a(I159
I8
F1.0
S'good'
p553
tp554
a(I161
I7
I0
S'great'
p555
tp556
a(I168
I0
F0.75
S'worth'
p557
tp558
a(I182
I1
I0
S'great'
p559
tp560
a(I185
I1
F0.75
S'worth'
p561
tp562
a(I199
I1
I0
S'large'
p563
tp564
a(I216
I3
I0
S'great'
p565
tp566
a(I216
I3
I0
S'even'
p567
tp568
a(I216
I3
F1.0
S'better'
p569
tp570
a(I223
I2
I0
S'unbelievable'
p571
tp572
a(I232
I2
F1.0
S'best'
p573
tp574
a(I234
I0
I0
S'great'
p575
tp576
a(I238
I0
I0
S'great'
p577
tp578
a(I238
I1
I0
S'full'
p579
tp580
as(S'service'
p581
tp582
(lp583
(I9
I3
F-0.25
g357
tp584
a(I10
I28
F0.625
S'perfect'
p585
tp586
a(I31
I9
I0
S'prepaid'
p587
tp588
a(I31
I14
I0
S'close'
p589
tp590
a(I31
I18
F0.75
S'worth'
p591
tp592
a(I77
I1
F-0.875
g380
tp593
a(I83
I3
F-0.75
g382
tp594
a(I87
I5
I0
S'incredible'
p595
tp596
a(I92
I0
F0.75
S'due'
p597
tp598
a(I92
I0
F0.125
S'expired'
p599
tp600
a(I92
I12
I0
g384
tp601
a(I92
I12
F-0.5
g386
tp602
a(I101
I3
F1.0
g389
tp603
a(I104
I13
I0
S'high'
p604
tp605
a(I129
I1
I0
S'great'
p606
tp607
a(I129
I1
I0
S'on-site'
p608
tp609
a(I172
I1
I0
S'different'
p610
tp611
a(I208
I9
F-0.875
g394
tp612
a(I211
I0
F-0.5
S'poor'
p613
tp614
a(I211
I1
F0.375
S'available'
p615
tp616
a(I219
I5
F0.125
S'enough'
p617
tp618
a(I219
I5
F0.25
S'incentive'
p619
tp620
a(I250
I7
I0
S'full'
p621
tp622
as(S'usb'
p623
S'data'
p624
S'cable'
p625
tp626
(lp627
(I31
I5
I0
S'cable'
p628
tp629
a(I83
I5
F-0.25
S'inexpensive'
p630
tp631
a(I83
I5
I0
S'cable'
p632
tp633
a(I83
I5
I0
S'cable'
p634
tp635
a(I179
I2
I0
S'cable'
p636
tp637
as(S'a'
p638
S'text'
p639
S'message'
p640
tp641
(lp642
(I55
I15
F0.5
S'taught'
p643
tp644
a(I103
I5
I0
S'many'
p645
tp646
a(I119
I5
F-0.75
S'short'
p647
tp648
a(I189
I3
F-0.5
S'open'
p649
tp650
a(I202
I5
I0
S'text'
p651
tp652
as(S'number'
p653
tp654
(lp655
(I20
I25
I0
S'old'
p656
tp657
a(I20
I29
I0
S'old'
p658
tp659
a(I44
I3
I0
S'more'
p660
tp661
a(I44
I3
I0
S'website'
p662
tp663
a(I61
I2
F0.25
S'larger'
p664
tp665
a(I78
I6
I0
S'current'
p666
tp667
a(I121
I0
F0.125
S'first'
p668
tp669
a(I121
I20
F0.25
S'used'
p670
tp671
a(I157
I1
F-0.375
S'small'
p672
tp673
a(I209
I1
F0.375
S'new'
p674
tp675
a(I209
I2
I0
S'own'
p676
tp677
a(I209
I3
F0.375
S'new'
p678
tp679
a(I214
I21
F0.375
S'new'
p680
tp681
a(I243
I2
F0.375
S'significant'
p682
tp683
as(S'data'
p684
S'cable'
p685
tp686
(lp687
(I26
I9
I0
S'cable'
p688
tp689
a(I31
I5
I0
g628
tp690
a(I83
I5
I0
g632
tp691
a(I83
I5
I0
g634
tp692
a(I179
I2
I0
g636
tp693
as(S'right'
p694
tp695
(lp696
(I15
I1
F0.625
S'easy'
p697
tp698
a(I20
I9
F0.125
S'key'
p699
tp700
as(S'tracfone'
p701
tp702
(lp703
(I2
I1
F0.125
S'first'
p704
tp705
a(I2
I18
F-0.625
S'glad'
p706
tp707
a(I8
I8
I0
S'more'
p708
tp709
a(I11
I0
F1.0
S'best'
p710
tp711
a(I18
I44
F-0.875
S'hard'
p712
tp713
a(I31
I2
F-0.625
S'glad'
p714
tp715
a(I34
I0
I0
S'fourth'
p716
tp717
a(I42
I6
I0
S'more'
p718
tp719
a(I42
I9
I0
S'song'
p720
tp721
a(I42
I9
F0.375
S'new'
p722
tp723
a(I45
I4
I0
S'special'
p724
tp725
a(I55
I16
F1.0
S'good'
p726
tp727
a(I55
I17
F0.375
S'new'
p728
tp729
a(I65
I3
F1.0
S'good'
p730
tp731
a(I67
I0
I0
S'great'
p732
tp733
a(I74
I0
F-0.25
S'ready'
p734
tp735
a(I78
I1
F1.0
S'good'
p736
tp737
a(I78
I1
F0.5
S'true'
p738
tp739
a(I79
I0
F-0.25
S'cheaper'
p740
tp741
a(I80
I3
F0.125
S'informative'
p742
tp743
a(I85
I0
F1.0
S'best'
p744
tp745
a(I92
I6
F0.375
S'new'
p746
tp747
a(I99
I0
I0
S'old'
p748
tp749
a(I102
I0
F-0.25
S'direct'
p750
tp751
a(I105
I2
I0
S'more'
p752
tp753
a(I105
I3
F-0.625
S'hostile'
p754
tp755
a(I106
I2
F0.375
S'new'
p756
tp757
a(I108
I5
F-0.625
S'other'
p758
tp759
a(I110
I0
F0.25
S'used'
p760
tp761
a(I110
I1
F0.375
S'new'
p762
tp763
a(I119
I6
I0
S'such'
p764
tp765
a(I121
I7
I0
S'quick'
p766
tp767
a(I130
I0
I0
S'young'
p768
tp769
a(I132
I0
F0.5
S'second'
p770
tp771
a(I133
I0
I0
S'useful'
p772
tp773
a(I165
I0
F1.0
S'best'
p774
tp775
a(I185
I3
F-0.125
S'overall'
p776
tp777
a(I185
I3
F1.0
S'good'
p778
tp779
a(I190
I2
I0
S'different'
p780
tp781
a(I190
I2
F-0.25
S'late'
p782
tp783
a(I194
I0
F1.0
S'best'
p784
tp785
a(I195
I0
F-0.75
S'wrong'
p786
tp787
a(I205
I3
F-0.625
S'sorry'
p788
tp789
a(I214
I19
I0
S'tactic'
p790
tp791
a(I217
I28
F-0.75
S'shorter'
p792
tp793
a(I227
I3
F-0.125
S'mine'
p794
tp795
a(I227
I3
F-0.5
S'less'
p796
tp797
a(I231
I14
F0.125
S'last'
p798
tp799
a(I242
I7
F1.0
S'best'
p800
tp801
as(S'features'
p802
tp803
(lp804
(I8
I13
I0
S'many'
p805
tp806
a(I11
I1
F0.625
S'easy'
p807
tp808
a(I11
I1
F1.0
S'good'
p809
tp810
a(I14
I3
I0
S'basic'
p811
tp812
a(I32
I1
F0.875
S'nice'
p813
tp814
a(I45
I0
I0
S'many'
p815
tp816
a(I45
I0
F0.5
S'possible'
p817
tp818
a(I65
I3
F1.0
S'better'
p819
tp820
a(I68
I4
I0
S'more'
p821
tp822
a(I70
I2
F1.0
S'better'
p823
tp824
a(I71
I0
F0.375
S'new'
p825
tp826
a(I72
I5
I0
S'great'
p827
tp828
a(I78
I7
I0
S'many'
p829
tp830
a(I82
I8
F-0.625
S'other'
p831
tp832
a(I97
I2
I0
S'cool'
p833
tp834
a(I110
I7
I0
S'great'
p835
tp836
a(I111
I0
F1.0
S'good'
p837
tp838
a(I113
I10
F0.125
S'able'
p839
tp840
a(I118
I0
F-0.625
S'surprising'
p841
tp842
a(I118
I0
I0
S'such'
p843
tp844
a(I120
I6
I0
S'many'
p845
tp846
a(I120
I6
I0
S'great'
p847
tp848
a(I132
I2
I0
S'many'
p849
tp850
a(I132
I2
F0.375
S'friendly'
p851
tp852
a(I153
I0
I0
S'more'
p853
tp854
a(I153
I0
I0
S'text'
p855
tp856
a(I153
I0
F0.375
S'friendly'
p857
tp858
a(I166
I1
I0
S'same'
p859
tp860
a(I173
I4
I0
S'basic'
p861
tp862
a(I175
I21
F0.375
S'extra'
p863
tp864
a(I175
I21
F-0.875
S'hard'
p865
tp866
a(I196
I1
F0.375
S'senior'
p867
tp868
a(I219
I12
F-0.625
S'other'
p869
tp870
a(I219
I12
F0.5
S'grateful'
p871
tp872
a(I223
I4
I0
S'many'
p873
tp874
a(I224
I10
F1.0
S'best'
p875
tp876
a(I229
I2
I0
S'update'
p877
tp878
a(I233
I11
F-0.625
S'other'
p879
tp880
as(S'video'
p881
tp882
(lp883
(I6
I1
F1.0
S'good'
p884
tp885
a(I52
I11
F0.5
S'strong'
p886
tp887
a(I52
I11
I0
S'signal'
p888
tp889
a(I121
I7
I0
S'adequate'
p890
tp891
as(S'month'
p892
tp893
(lp894
(I29
I3
F0.125
S'last'
p895
tp896
a(I81
I10
I0
S'close'
p897
tp898
a(I189
I1
F-0.625
S'average'
p899
tp900
a(I203
I1
F0.5
S'second'
p901
tp902
a(I224
I14
F-0.5
S'less'
p903
tp904
a(I224
I14
F-0.625
S'average'
p905
tp906
as(S'thing'
p907
tp908
(lp909
(I10
I22
I0
S'great'
p910
tp911
a(I17
I2
F-0.625
S'other'
p912
tp913
a(I38
I0
I0
S'only'
p914
tp915
a(I38
I0
F1.0
S'good'
p916
tp917
a(I57
I2
F-0.625
S'bad'
p918
tp919
a(I62
I12
I0
S'only'
p920
tp921
a(I76
I4
F-0.625
S'other'
p922
tp923
a(I104
I7
I0
S'same'
p924
tp925
a(I123
I1
I0
S'only'
p926
tp927
a(I125
I6
I0
S'same'
p928
tp929
a(I142
I1
I0
S'only'
p930
tp931
a(I142
I1
F-0.875
S'negative'
p932
tp933
a(I145
I2
I0
S'only'
p934
tp935
a(I145
I2
F-0.625
S'bad'
p936
tp937
a(I173
I6
I0
S'same'
p938
tp939
a(I209
I0
I0
S'same'
p940
tp941
a(I255
I5
F0.125
S'last'
p942
tp943
as(S'signal'
p944
S'strength'
p945
tp946
(lp947
(I212
I9
F0.5
S'strong'
p948
tp949
a(I212
I9
I0
S'signal'
p950
tp951
a(I213
I14
F1.0
S'good'
p952
tp953
as(S'micro'
p954
S'sd'
p955
S'card'
p956
tp957
(lp958
(I175
I9
F0.875
g314
tp959
a(I243
I3
I0
S'most'
p960
tp961
as(S'make'
p962
tp963
(lp964
(I45
I9
I0
S'english'
p965
tp966
as(S'player'
p967
tp968
(lp969
(I23
I1
F1.0
S'good'
p970
tp971
a(I82
I6
F-0.75
S'crude'
p972
tp973
a(I123
I7
I0
S'great'
p974
tp975
as(S'seems'
p976
tp977
(lp978
(I18
I40
F1.0
S'good'
p979
tp980
as(S'tracphone'
p981
tp982
(lp983
(I19
I1
I0
S'old'
p984
tp985
a(I160
I8
F-0.875
S'worst'
p986
tp987
a(I160
I9
F0.375
S'new'
p988
tp989
a(I160
I9
I0
S'old'
p990
tp991
as(S'battery'
p992
S'life'
p993
tp994
(lp995
(I7
I2
F-0.5
S'long'
p996
tp997
a(I14
I2
I0
S'great'
p998
tp999
a(I33
I0
F-0.125
S'overall'
p1000
tp1001
a(I33
I0
F1.0
S'good'
p1002
tp1003
a(I55
I8
F1.0
S'good'
p1004
tp1005
a(I108
I2
F1.0
S'good'
p1006
tp1007
a(I212
I4
F-0.5
S'long'
p1008
tp1009
a(I214
I44
I0
S'great'
p1010
tp1011
as(S'minutes'
p1012
tp1013
(lp1014
(I4
I12
F-0.375
g225
tp1015
a(I8
I16
F-0.375
g227
tp1016
a(I10
I5
F-0.375
g229
tp1017
a(I18
I29
F0.375
S'extra'
p1018
tp1019
a(I19
I0
F-0.375
g266
tp1020
a(I20
I7
I0
S'few'
p1021
tp1022
a(I23
I5
F-0.375
g268
tp1023
a(I23
I5
I0
g270
tp1024
a(I39
I10
F-0.375
g231
tp1025
a(I43
I2
I0
S'few'
p1026
tp1027
a(I44
I3
I0
S'more'
p1028
tp1029
a(I44
I5
F-0.375
g233
tp1030
a(I45
I4
F-0.25
g235
tp1031
a(I45
I10
I0
S'least'
p1032
tp1033
a(I49
I0
F0.625
S'easy'
p1034
tp1035
a(I56
I2
F-0.625
S'average'
p1036
tp1037
a(I56
I6
I0
S'many'
p1038
tp1039
a(I57
I4
I0
S'waste'
p1040
tp1041
a(I59
I4
F-0.375
g275
tp1042
a(I76
I3
F0.125
S'able'
p1043
tp1044
a(I78
I3
I0
S'more'
p1045
tp1046
a(I85
I2
F-0.375
g237
tp1047
a(I86
I0
F-0.375
g239
tp1048
a(I88
I0
F-0.375
g241
tp1049
a(I98
I1
I0
S'faster'
p1050
tp1051
a(I102
I1
F1.0
S'good'
p1052
tp1053
a(I105
I1
I0
S'more'
p1054
tp1055
a(I106
I2
F0.625
S'easy'
p1056
tp1057
a(I106
I2
I0
S'old'
p1058
tp1059
a(I110
I1
I0
S'most'
p1060
tp1061
a(I110
I4
I0
S'many'
p1062
tp1063
a(I118
I0
F-0.375
g243
tp1064
a(I121
I4
F-0.375
g281
tp1065
a(I121
I26
F0.375
S'extra'
p1066
tp1067
a(I125
I2
I0
S'many'
p1068
tp1069
a(I125
I2
F0.5
S'possible'
p1070
tp1071
a(I129
I10
I0
S'more'
p1072
tp1073
a(I134
I4
I0
S'many'
p1074
tp1075
a(I140
I2
F-0.375
g283
tp1076
a(I149
I11
I0
S'few'
p1077
tp1078
a(I150
I0
F-0.375
g285
tp1079
a(I160
I9
I0
S'least'
p1080
tp1081
a(I171
I0
I0
S'many'
p1082
tp1083
a(I175
I4
F-0.375
g245
tp1084
a(I182
I6
I0
S'old'
p1085
tp1086
a(I186
I3
I0
S'more'
p1087
tp1088
a(I186
I6
I0
S'more'
p1089
tp1090
a(I192
I6
F-0.375
g288
tp1091
a(I202
I12
I0
S'few'
p1092
tp1093
a(I204
I4
F-0.375
g290
tp1094
a(I213
I12
F-0.375
g292
tp1095
a(I214
I6
F-0.375
g247
tp1096
a(I214
I11
F-0.375
g249
tp1097
a(I219
I2
F-0.375
S'simple'
p1098
tp1099
a(I219
I12
F-0.375
g296
tp1100
a(I223
I1
F-0.375
g298
tp1101
a(I224
I2
F-0.375
g251
tp1102
a(I232
I2
F-0.375
g301
tp1103
a(I245
I4
F-0.375
g253
tp1104
a(I245
I5
I0
S'more'
p1105
tp1106
a(I252
I1
I0
S'many'
p1107
tp1108
a(I252
I2
F-0.375
g255
tp1109
a(I252
I2
F-0.375
g257
tp1110
a(I253
I7
F-0.375
g306
tp1111
a(I255
I4
I0
S'many'
p1112
tp1113
a(I258
I5
F-0.375
g308
tp1114
as(S'gon'
p1115
S'na'
p1116
tp1117
(lp1118
(I120
I0
F0.75
S'give'
p1119
tp1120
as(S'problems'
p1121
tp1122
(lp1123
(I1
I8
I0
S'many'
p1124
tp1125
a(I35
I1
I0
S'only'
p1126
tp1127
a(I36
I9
F-0.625
S'other'
p1128
tp1129
a(I102
I6
I0
S'website'
p1130
tp1131
a(I103
I9
F-0.625
S'other'
p1132
tp1133
a(I138
I0
F1.0
S'good'
p1134
tp1135
a(I138
I3
F-0.625
S'other'
p1136
tp1137
a(I153
I4
F0.5
S'primary'
p1138
tp1139
a(I175
I14
F0.375
S'similar'
p1140
tp1141
a(I222
I0
F0.625
S'major'
p1142
tp1143
a(I245
I1
F1.0
S'good'
p1144
tp1145
as(S'back'
p1146
tp1147
(lp1148
(I118
I1
F0.125
S'solid'
p1149
tp1150
a(I212
I13
F-0.375
S'pull'
p1151
tp1152
as(g638
S'touch'
p1153
S'screen'
p1154
tp1155
(lp1156
(I14
I7
F0.5
S'touch'
p1157
tp1158
a(I18
I0
F0.5
S'touch'
p1159
tp1160
a(I18
I1
F1.0
S'good'
p1161
tp1162
a(I26
I1
F0.625
S'easier'
p1163
tp1164
a(I42
I12
F0.5
S'touch'
p1165
tp1166
a(I108
I5
F0.5
S'touch'
p1167
tp1168
a(I110
I2
F0.5
S'touch'
p1169
tp1170
a(I204
I5
F0.5
S'touch'
p1171
tp1172
as(S'fine'
p1173
tp1174
(lp1175
(I69
I0
F0.875
S'nice'
p1176
tp1177
a(I203
I2
F0.125
S'last'
p1178
tp1179
as(S'life'
p1180
tp1181
(lp1182
(I14
I2
I0
g998
tp1183
a(I33
I0
F-0.125
g1000
tp1184
a(I33
I0
F1.0
g1002
tp1185
a(I55
I8
F1.0
g1004
tp1186
a(I108
I2
F1.0
g1006
tp1187
a(I217
I27
F-0.75
S'short'
p1188
tp1189
as(S'minutes'
p1190
S'for'
p1191
S'life'
p1192
tp1193
(lp1194
(I8
I16
F-0.375
g227
tp1195
a(I10
I5
F-0.375
g229
tp1196
a(I39
I10
F-0.375
g231
tp1197
a(I44
I5
F-0.375
g233
tp1198
a(I59
I4
F-0.375
g275
tp1199
a(I86
I0
F-0.375
g239
tp1200
a(I88
I0
F-0.375
g241
tp1201
a(I118
I0
F-0.375
g243
tp1202
a(I171
I0
I0
g1082
tp1203
a(I175
I4
F-0.375
g245
tp1204
a(I204
I4
F-0.375
g290
tp1205
a(I223
I1
F-0.375
g298
tp1206
a(I224
I2
F-0.375
g251
tp1207
a(I245
I4
F-0.375
g253
tp1208
a(I253
I7
F-0.375
g306
tp1209
a(I258
I5
F-0.375
g308
tp1210
as(S'prepaid'
p1211
tp1212
(lp1213
(I31
I1
F1.0
S'best'
p1214
tp1215
a(I31
I12
F-0.625
S'other'
p1216
tp1217
a(I88
I0
F-0.25
S'higher'
p1218
tp1219
a(I88
I0
F-0.625
S'other'
p1220
tp1221
a(I88
I0
I0
S'different'
p1222
tp1223
a(I214
I5
F1.0
S'best'
p1224
tp1225
a(I214
I44
F-0.625
S'other'
p1226
tp1227
a(I214
I83
F1.0
S'best'
p1228
tp1229
as(S'qwerty'
p1230
tp1231
(lp1232
(I55
I11
F0.625
g130
tp1233
a(I55
I11
I0
g132
tp1234
a(I69
I6
F0.625
S'easier'
p1235
tp1236
a(I80
I2
I0
g134
tp1237
a(I122
I4
F0.625
g138
tp1238
a(I122
I4
F0.875
g140
tp1239
a(I131
I0
F0.875
S'nice'
p1240
tp1241
a(I149
I4
I0
g143
tp1242
a(I177
I1
F0.625
g146
tp1243
a(I180
I0
I0
S'full'
p1244
tp1245
a(I219
I12
I0
S'full'
p1246
tp1247
a(I245
I2
F0.625
g149
tp1248
as(S'tracfone'
p1249
S'customer'
p1250
S'service'
p1251
tp1252
(lp1253
(I9
I3
F-0.25
g357
tp1254
a(I92
I12
I0
g384
tp1255
a(I92
I12
F-0.5
g386
tp1256
a(I146
I3
F-0.875
g323
tp1257
as(S'r'
p1258
S'minutes'
p1259
tp1260
(lp1261
(I4
I12
F-0.375
g225
tp1262
a(I8
I16
F-0.375
g227
tp1263
a(I10
I5
F-0.375
g229
tp1264
a(I18
I29
F0.375
g1018
tp1265
a(I19
I0
F-0.375
g266
tp1266
a(I23
I5
F-0.375
g268
tp1267
a(I23
I5
I0
g270
tp1268
a(I39
I10
F-0.375
g231
tp1269
a(I43
I2
I0
g1026
tp1270
a(I44
I3
I0
g1028
tp1271
a(I44
I5
F-0.375
g233
tp1272
a(I45
I4
F-0.25
g235
tp1273
a(I45
I10
I0
g1032
tp1274
a(I49
I0
F0.625
g1034
tp1275
a(I56
I2
F-0.625
g1036
tp1276
a(I56
I6
I0
g1038
tp1277
a(I57
I4
I0
g1040
tp1278
a(I59
I4
F-0.375
g275
tp1279
a(I76
I3
F0.125
g1043
tp1280
a(I78
I3
I0
g1045
tp1281
a(I85
I2
F-0.375
g237
tp1282
a(I86
I0
F-0.375
g239
tp1283
a(I88
I0
F-0.375
g241
tp1284
a(I98
I1
I0
g1050
tp1285
a(I102
I1
F1.0
g1052
tp1286
a(I105
I1
I0
g1054
tp1287
a(I106
I2
F0.625
g1056
tp1288
a(I106
I2
I0
g1058
tp1289
a(I110
I1
I0
g1060
tp1290
a(I110
I4
I0
g1062
tp1291
a(I118
I0
F-0.375
g243
tp1292
a(I121
I4
F-0.375
g281
tp1293
a(I121
I26
F0.375
g1066
tp1294
a(I125
I2
I0
g1068
tp1295
a(I125
I2
F0.5
g1070
tp1296
a(I129
I10
I0
g1072
tp1297
a(I134
I4
I0
g1074
tp1298
a(I149
I11
I0
g1077
tp1299
a(I150
I0
F-0.375
g285
tp1300
a(I160
I9
I0
g1080
tp1301
a(I171
I0
I0
g1082
tp1302
a(I175
I4
F-0.375
g245
tp1303
a(I182
I6
I0
g1085
tp1304
a(I186
I3
I0
g1087
tp1305
a(I186
I6
I0
g1089
tp1306
a(I192
I6
F-0.375
g288
tp1307
a(I202
I12
I0
g1092
tp1308
a(I204
I4
F-0.375
g290
tp1309
a(I214
I6
F-0.375
g247
tp1310
a(I214
I11
F-0.375
g249
tp1311
a(I219
I2
F-0.375
g1098
tp1312
a(I219
I12
F-0.375
g296
tp1313
a(I223
I1
F-0.375
g298
tp1314
a(I224
I2
F-0.375
g251
tp1315
a(I232
I2
F-0.375
g301
tp1316
a(I245
I4
F-0.375
g253
tp1317
a(I245
I5
I0
g1105
tp1318
a(I252
I1
I0
g1107
tp1319
a(I252
I2
F-0.375
g255
tp1320
a(I252
I2
F-0.375
g257
tp1321
a(I253
I7
F-0.375
g306
tp1322
a(I258
I5
F-0.375
g308
tp1323
as(S'n'
p1324
g1258
S'pocket'
p1325
tp1326
(lp1327
(I203
I4
F0.625
S'convenient'
p1328
tp1329
a(I203
I4
F-0.5
S'kept'
p1330
tp1331
as(S'battery'
p1332
tp1333
(lp1334
(I2
I6
F0.625
S'easy'
p1335
tp1336
a(I7
I2
F-0.5
g996
tp1337
a(I16
I1
F-0.25
S'low'
p1338
tp1339
a(I26
I5
F0.5
S'strong'
p1340
tp1341
a(I153
I2
F0.125
S'able'
p1342
tp1343
a(I168
I3
I0
S'full'
p1344
tp1345
a(I191
I2
F-0.5
S'sure'
p1346
tp1347
a(I202
I8
F0.625
S'easy'
p1348
tp1349
a(I212
I4
F-0.5
g1008
tp1350
a(I214
I44
I0
g1010
tp1351
as(S'cell'
p1352
tp1353
(lp1354
(I39
I3
I0
S'old'
p1355
tp1356
a(I52
I5
I0
S'same'
p1357
tp1358
a(I73
I2
F-0.625
S'other'
p1359
tp1360
a(I78
I5
I0
S'many'
p1361
tp1362
a(I83
I3
F0.5
S'second'
p1363
tp1364
a(I110
I17
F-0.75
S'dependent'
p1365
tp1366
a(I119
I1
F0.625
S'interested'
p1367
tp1368
a(I119
I2
F-0.5
S'longer'
p1369
tp1370
a(I119
I5
I0
S'contractual'
p1371
tp1372
a(I121
I3
F0.25
S'tired'
p1373
tp1374
a(I153
I2
F0.375
S'much'
p1375
tp1376
a(I153
I2
I0
S'very'
p1377
tp1378
a(I153
I2
I0
S'old'
p1379
tp1380
a(I217
I27
F0.875
S'nice'
p1381
tp1382
a(I219
I9
F0.375
S'much'
p1383
tp1384
a(I219
I9
F0.125
S'first'
p1385
tp1386
a(I230
I3
F-0.25
S'inexpensive'
p1387
tp1388
a(I233
I2
I0
S'great'
p1389
tp1390
a(I245
I6
F0.625
S'responsible'
p1391
tp1392
as(S'every'
p1393
S'3'
p1394
S'months'
p1395
tp1396
(lp1397
(I4
I12
I0
S'great'
p1398
tp1399
as(S'calls'
p1400
tp1401
(lp1402
(I14
I4
F-0.25
S'dropped'
p1403
tp1404
a(I26
I8
F0.625
S'easy'
p1405
tp1406
a(I31
I10
F-0.25
S'dropped'
p1407
tp1408
a(I45
I8
F-0.75
S'minor'
p1409
tp1410
a(I80
I6
F-0.5
S'international'
p1411
tp1412
a(I80
I7
I0
S'overseas'
p1413
tp1414
a(I87
I2
F0.875
S'important'
p1415
tp1416
a(I124
I8
I0
S'many'
p1417
tp1418
a(I129
I15
I0
S'such'
p1419
tp1420
a(I192
I1
I0
S'more'
p1421
tp1422
a(I192
I1
F-0.625
S'other'
p1423
tp1424
a(I192
I1
F-0.25
S'higher'
p1425
tp1426
a(I207
I0
I0
S'text'
p1427
tp1428
a(I224
I1
I0
S'few'
p1429
tp1430
a(I233
I3
I0
S'many'
p1431
tp1432
as(S'micro'
p1433
tp1434
(lp1435
(I243
I3
I0
g960
tp1436
as(S'cheap'
p1437
tp1438
(lp1439
(I110
I16
I0
S'such'
p1440
tp1441
as(S'micro'
p1442
S'sd'
p1443
tp1444
(lp1445
(I243
I3
I0
g960
tp1446
as(g638
S'qwerty'
p1447
S'keyboard'
p1448
tp1449
(lp1450
(I19
I0
F0.875
g16
tp1451
a(I41
I2
F0.625
g18
tp1452
a(I50
I0
I0
g22
tp1453
a(I55
I11
F0.625
g130
tp1454
a(I55
I11
I0
g132
tp1455
a(I80
I2
I0
g134
tp1456
a(I80
I2
F0.375
g26
tp1457
a(I111
I0
I0
g36
tp1458
a(I122
I4
F0.625
g138
tp1459
a(I122
I4
F0.875
g140
tp1460
a(I133
I0
I0
g38
tp1461
a(I149
I4
I0
g143
tp1462
a(I149
I4
I0
g42
tp1463
a(I177
I1
F0.625
g146
tp1464
a(I192
I5
F0.625
g52
tp1465
a(I245
I2
F0.625
g149
tp1466
a(I253
I3
F1.0
g58
tp1467
a(I257
I0
F0.625
g60
tp1468
as(S'time'
p1469
tp1470
(lp1471
(I3
I1
F-0.5
S'long'
p1472
tp1473
a(I28
I3
F-0.5
S'long'
p1474
tp1475
a(I29
I4
I0
S'next'
p1476
tp1477
a(I43
I2
F-0.75
S'difficult'
p1478
tp1479
a(I45
I12
I0
S'more'
p1480
tp1481
a(I73
I2
F-0.875
S'hard'
p1482
tp1483
a(I78
I11
I0
S'same'
p1484
tp1485
a(I83
I4
F-0.5
S'long'
p1486
tp1487
a(I104
I1
F-0.5
S'long'
p1488
tp1489
a(I104
I9
F0.375
S'mean'
p1490
tp1491
a(I104
I12
F0.375
S'mean'
p1492
tp1493
a(I106
I3
F0.5
S'second'
p1494
tp1495
a(I129
I9
I0
S'entire'
p1496
tp1497
a(I129
I15
I0
S'active'
p1498
tp1499
a(I129
I15
I0
S'entire'
p1500
tp1501
a(I131
I2
F0.125
S'first'
p1502
tp1503
a(I141
I6
I0
S'same'
p1504
tp1505
a(I149
I0
F0.75
S'worth'
p1506
tp1507
a(I160
I4
F0.125
S'last'
p1508
tp1509
a(I166
I3
F-0.875
S'hard'
p1510
tp1511
a(I168
I2
F-0.625
S'inactive'
p1512
tp1513
a(I183
I2
F0.875
S'happy'
p1514
tp1515
a(I214
I49
I0
S'only'
p1516
tp1517
a(I217
I0
F0.5
S'operable'
p1518
tp1519
a(I234
I1
F-0.875
S'hard'
p1520
tp1521
as(S'months'
p1522
tp1523
(lp1524
(I4
I12
I0
g1398
tp1525
a(I31
I15
I0
S'more'
p1526
tp1527
a(I33
I0
F0.875
S'happy'
p1528
tp1529
a(I53
I7
I0
S'few'
p1530
tp1531
a(I81
I11
F1.0
S'good'
p1532
tp1533
a(I119
I0
I0
S'few'
p1534
tp1535
a(I134
I4
F0.125
S'last'
p1536
tp1537
a(I138
I2
F-0.625
S'glad'
p1538
tp1539
as(S'mp3'
p1540
S'player'
p1541
tp1542
(lp1543
(I23
I1
F0.125
S'first'
p1544
tp1545
a(I23
I1
F1.0
g970
tp1546
a(I82
I6
F-0.75
g972
tp1547
a(I123
I7
I0
g974
tp1548
a(I219
I12
F1.0
S'good'
p1549
tp1550
as(S'land'
p1551
S'line'
p1552
tp1553
(lp1554
(I189
I3
I0
S'close'
p1555
tp1556
as(S'text'
p1557
tp1558
(lp1559
(I46
I0
I0
S'great'
p1560
tp1561
a(I103
I5
I0
g645
tp1562
a(I119
I5
F-0.75
g647
tp1563
a(I144
I1
I0
S'great'
p1564
tp1565
a(I153
I7
F0.5
S'personal'
p1566
tp1567
a(I153
I7
I0
S'promotional'
p1568
tp1569
a(I169
I2
I0
S'initial'
p1570
tp1571
as(S'year'
p1572
tp1573
(lp1574
(I37
I0
I0
S'old'
p1575
tp1576
a(I99
I7
I0
S'old'
p1577
tp1578
a(I129
I3
I0
S'great'
p1579
tp1580
a(I129
I3
F0.125
S'last'
p1581
tp1582
a(I129
I4
F0.125
S'first'
p1583
tp1584
a(I145
I0
F1.0
S'good'
p1585
tp1586
a(I199
I0
I0
S'old'
p1587
tp1588
a(I214
I6
I0
S'old'
p1589
tp1590
a(I214
I48
I0
S'old'
p1591
tp1592
a(I219
I5
F-0.5
S'less'
p1593
tp1594
a(I225
I1
F-0.375
S'small'
p1595
tp1596
a(I225
I1
I0
S'old'
p1597
tp1598
a(I245
I0
I0
S'old'
p1599
tp1600
as(S'minute'
p1601
tp1602
(lp1603
(I20
I19
F-0.25
S'cheaper'
p1604
tp1605
a(I70
I9
F0.125
S'first'
p1606
tp1607
a(I70
I9
F0.75
S'due'
p1608
tp1609
a(I214
I14
F-0.25
S'higher'
p1610
tp1611
a(I249
I0
F0.625
S'easy'
p1612
tp1613
as(S'screen'
p1614
tp1615
(lp1616
(I2
I5
I0
S'automatic'
p1617
tp1618
a(I14
I7
F0.5
g1157
tp1619
a(I18
I0
F0.5
g1159
tp1620
a(I20
I8
F0.125
S'first'
p1621
tp1622
a(I42
I12
F0.5
g1165
tp1623
a(I47
I0
F0.25
S'larger'
p1624
tp1625
a(I61
I2
I0
S'large'
p1626
tp1627
a(I70
I5
F0.25
S'larger'
p1628
tp1629
a(I108
I5
F0.5
g1167
tp1630
a(I110
I2
F0.5
g1169
tp1631
a(I114
I0
F0.875
S'nice'
p1632
tp1633
a(I168
I3
F0.25
S'main'
p1634
tp1635
a(I168
I3
F-0.5
S'sure'
p1636
tp1637
a(I190
I0
F-0.375
S'black'
p1638
tp1639
a(I204
I5
F0.5
g1171
tp1640
a(I212
I4
I0
S'big'
p1641
tp1642
a(I216
I13
I0
S'forth'
p1643
tp1644
a(I216
I13
F0.25
S'main'
p1645
tp1646
as(S'camera'
p1647
tp1648
(lp1649
(I26
I10
F1.0
S'best'
p1650
tp1651
a(I48
I0
F1.0
S'good'
p1652
tp1653
a(I49
I0
F-0.375
S'small'
p1654
tp1655
a(I50
I2
I0
S'great'
p1656
tp1657
a(I63
I1
F-0.25
S'low'
p1658
tp1659
a(I82
I5
I0
S'serviceable'
p1660
tp1661
a(I124
I0
F1.0
S'good'
p1662
tp1663
a(I124
I5
F1.0
S'good'
p1664
tp1665
a(I124
I5
F1.0
S'good'
p1666
tp1667
a(I147
I2
F1.0
S'good'
p1668
tp1669
a(I159
I1
F1.0
S'better'
p1670
tp1671
a(I159
I1
F-1.0
S'mislead'
p1672
tp1673
a(I175
I3
I0
S'real'
p1674
tp1675
as(S'using'
p1676
tp1677
(lp1678
(I50
I3
I0
S'same'
p1679
tp1680
as(g638
S'full'
p1681
S'keyboard'
p1682
tp1683
(lp1684
(I18
I50
I0
g14
tp1685
a(I47
I2
I0
g20
tp1686
a(I54
I0
I0
g24
tp1687
a(I80
I2
F0.375
g26
tp1688
a(I108
I1
I0
g34
tp1689
a(I137
I0
I0
g40
tp1690
a(I149
I4
I0
g42
tp1691
a(I153
I0
I0
g44
tp1692
as(S'an'
p1693
S'mp3'
p1694
S'player'
p1695
tp1696
(lp1697
(I23
I1
F0.125
g1544
tp1698
a(I23
I1
F1.0
g970
tp1699
a(I219
I12
F1.0
g1549
tp1700
as(S'messages'
p1701
tp1702
(lp1703
(I69
I2
F0.625
S'easy'
p1704
tp1705
a(I103
I14
F0.125
S'able'
p1706
tp1707
a(I207
I0
I0
S'pic'
p1708
tp1709
a(I255
I1
F-0.125
S'delete'
p1710
tp1711
as(S'feature'
p1712
tp1713
(lp1714
(I45
I7
F-0.125
S'overall'
p1715
tp1716
a(I45
I7
F0.625
S'major'
p1717
tp1718
a(I45
I7
F-0.625
S'bad'
p1719
tp1720
a(I94
I0
F1.0
S'good'
p1721
tp1722
a(I124
I3
F-0.25
S'inexpensive'
p1723
tp1724
a(I147
I3
F0.625
S'easy'
p1725
tp1726
a(I161
I3
F1.0
S'good'
p1727
tp1728
a(I161
I3
I0
S'editing'
p1729
tp1730
a(I175
I13
F-0.875
S'worst'
p1731
tp1732
a(I192
I6
F0.25
S'sweet'
p1733
tp1734
a(I192
I6
F1.0
S'good'
p1735
tp1736
a(I204
I4
I0
S'great'
p1737
tp1738
a(I214
I54
I0
S'great'
p1739
tp1740
as(S'up'
p1741
g1258
S'minutes'
p1742
tp1743
(lp1744
(I4
I12
F-0.375
g225
tp1745
a(I43
I2
I0
g1026
tp1746
a(I49
I0
F0.625
g1034
tp1747
a(I98
I1
I0
g1050
tp1748
a(I102
I1
F1.0
g1052
tp1749
a(I105
I1
I0
g1054
tp1750
a(I121
I26
F0.375
g1066
tp1751
a(I125
I2
I0
g1068
tp1752
a(I125
I2
F0.5
g1070
tp1753
a(I150
I0
F-0.375
g285
tp1754
a(I192
I6
F-0.375
g288
tp1755
a(I219
I2
F-0.375
g1098
tp1756
a(I245
I4
F-0.375
g253
tp1757
a(I252
I1
I0
g1107
tp1758
as(S'works'
p1759
tp1760
(lp1761
(I18
I5
I0
S'great'
p1762
tp1763
a(I18
I18
F-0.625
S'free'
p1764
tp1765
a(I116
I2
F0.625
S'easy'
p1766
tp1767
a(I136
I2
F0.625
S'easy'
p1768
tp1769
a(I137
I0
I0
S'great'
p1770
tp1771
a(I164
I2
I0
S'great'
p1772
tp1773
a(I169
I4
I0
S'great'
p1774
tp1775
as(S'rural'
p1776
S'area'
p1777
tp1778
(lp1779
(I52
I7
I0
S'rural'
p1780
tp1781
a(I213
I14
I0
S'rural'
p1782
tp1783
a(I224
I9
I0
S'rural'
p1784
tp1785
as(S'browser'
p1786
tp1787
(lp1788
(I10
I21
F0.125
S'able'
p1789
tp1790
a(I18
I25
F0.5
S'compatible'
p1791
tp1792
a(I49
I3
F0.625
S'easy'
p1793
tp1794
a(I82
I7
F-0.625
S'useless'
p1795
tp1796
a(I125
I9
F0.5
S'possible'
p1797
tp1798
a(I169
I1
F-0.5
S'open'
p1799
tp1800
a(I214
I49
F-0.75
S'stupid'
p1801
tp1802
a(I216
I12
I0
S'next'
p1803
tp1804
a(I216
I12
F0.125
S'key'
p1805
tp1806
a(I250
I3
F-0.5
S'open'
p1807
tp1808
as(S'bells'
p1809
S'and'
p1810
S'whistles'
p1811
tp1812
(lp1813
(I14
I3
F0.375
S'much'
p1814
tp1815
a(I56
I5
I0
S'more'
p1816
tp1817
as(S'text'
p1818
S'messages'
p1819
tp1820
(lp1821
(I103
I5
I0
g645
tp1822
a(I119
I5
F-0.75
g647
tp1823
a(I207
I0
I0
g1708
tp1824
as(S'call'
p1825
tp1826
(lp1827
(I56
I5
I0
S'great'
p1828
tp1829
a(I120
I4
F0.875
S'important'
p1830
tp1831
a(I189
I3
F-0.625
S'other'
p1832
tp1833
a(I191
I0
F0.5
S'clear'
p1834
tp1835
a(I191
I0
F0.75
S'break'
p1836
tp1837
a(I219
I16
F-0.75
S'single'
p1838
tp1839
a(I231
I6
F0.5
S'obvious'
p1840
tp1841
a(I231
I6
I0
S'overseas'
p1842
tp1843
as(g638
S'micro'
p1844
S'sd'
p1845
tp1846
(lp1847
(I243
I3
I0
g960
tp1848
as(S'texting'
p1849
tp1850
(lp1851
(I21
I2
I0
g512
tp1852
a(I33
I0
F0.625
S'easy'
p1853
tp1854
a(I140
I1
I0
g514
tp1855
a(I179
I0
F0.875
S'nice'
p1856
tp1857
a(I222
I3
F1.0
S'good'
p1858
tp1859
a(I243
I0
I0
S'efficient'
p1860
tp1861
as(S'days'
p1862
tp1863
(lp1864
(I1
I1
I0
S'few'
p1865
tp1866
a(I26
I5
F0.125
S'last'
p1867
tp1868
a(I31
I14
I0
S'close'
p1869
tp1870
a(I56
I15
F-0.5
S'longer'
p1871
tp1872
a(I95
I1
I0
S'few'
p1873
tp1874
a(I102
I7
I0
S'later'
p1875
tp1876
a(I102
I7
I0
S'e-mailed'
p1877
tp1878
a(I108
I2
I0
S'least'
p1879
tp1880
a(I171
I0
I0
S'most'
p1881
tp1882
a(I182
I3
F-0.625
S'bad'
p1883
tp1884
a(I209
I0
I0
S'later'
p1885
tp1886
as.