(dp0
(S'text'
p1
S'message'
p2
tp3
(lp4
(I3
I40
I0
S'different'
p5
I0
tp6
a(I7
I93
F-0.75
S'wrong'
p7
I0
tp8
a(I3
I40
I0
g5
I18
tp9
a(I3
I42
I0
S'full'
p10
I18
tp11
a(I7
I93
F-0.75
g7
I18
tp12
as(S'on'
p13
S'sd'
p14
S'card'
p15
tp16
(lp17
(I3
I65
F-0.625
S'other'
p18
I0
tp19
a(I3
I65
F-0.625
g18
I0
tp20
as(S'battery'
p21
S'life'
p22
tp23
(lp24
(I0
I4
F-0.5
S'poor'
p25
I1
tp26
a(I3
I41
F0.625
S'decent'
p27
I1
tp28
a(I7
I11
I0
S'great'
p29
I1
tp30
a(I7
I68
I0
S'quick'
p31
I1
tp32
a(I0
I4
F-0.5
g25
I15
tp33
a(I0
I30
F-0.25
S'low'
p34
I15
tp35
a(I4
I15
F-0.25
S'low'
p36
I15
tp37
a(I7
I11
I0
g29
I15
tp38
a(I7
I115
F-0.25
S'low'
p39
I15
tp40
a(I7
I147
F0.375
S'new'
p41
I15
tp42
a(I7
I147
I0
S'own'
p43
I15
tp44
as(S'apps'
p45
tp46
(lp47
(I0
I21
I0
S'few'
p48
I0
tp49
a(I0
I36
I0
S'few'
p50
I0
tp51
a(I0
I66
F0.125
S'able'
p52
I0
tp53
a(I0
I70
I0
S'useful'
p54
I0
tp55
a(I0
I70
F0.875
S'worthy'
p56
I0
tp57
a(I0
I71
F-0.625
S'free'
p58
I0
tp59
a(I0
I71
I0
S'useful'
p60
I0
tp61
a(I0
I71
I0
S'such'
p62
I0
tp63
a(I3
I41
I0
S'most'
p64
I0
tp65
a(I3
I53
I0
S'most'
p66
I0
tp67
a(I3
I65
I0
S'many'
p68
I0
tp69
a(I5
I4
F0.125
S'memory'
p70
I0
tp71
a(I7
I42
F0.625
S'interested'
p72
I0
tp73
a(I7
I42
I0
S'many'
p74
I0
tp75
a(I7
I42
F0.375
S'available'
p76
I0
tp77
a(I7
I43
F-0.625
S'free'
p78
I0
tp79
a(I7
I73
I0
S'most'
p80
I0
tp81
a(I7
I77
F0.5
S'clear'
p82
I0
tp83
as(S'storage'
p84
S'space'
p85
tp86
(lp87
(I0
I4
I0
S'internal'
p88
I0
tp89
a(I0
I4
F-0.25
S'precious'
p90
I0
tp91
a(I0
I4
I0
S'internal'
p92
I0
tp93
a(I0
I4
F-0.125
S'slow'
p94
I0
tp95
a(I3
I42
I0
S'full'
p96
I0
tp97
a(I3
I57
F-0.25
S'low'
p98
I0
tp99
a(I7
I163
F-0.25
S'low'
p100
I0
tp101
a(I0
I4
I0
g88
I1
tp102
a(I0
I14
F-0.75
S'little'
p103
I1
tp104
a(I0
I14
I0
S'internal'
p105
I1
tp106
a(I3
I42
I0
g96
I1
tp107
a(I3
I57
F-0.25
g98
I1
tp108
a(I7
I73
I0
S'most'
p109
I1
tp110
a(I7
I73
I0
S'internal'
p111
I1
tp112
a(I7
I76
I0
S'internal'
p113
I1
tp114
a(I7
I80
I0
S'internal'
p115
I1
tp116
a(I7
I163
F-0.25
g100
I1
tp117
as(S'smartphone'
p118
tp119
(lp120
(I0
I51
I0
S'great'
p121
I0
tp122
a(I3
I35
I0
S'particular'
p123
I0
tp124
a(I6
I0
F-0.125
S'slow'
p125
I0
tp126
a(I7
I110
F0.125
S'first'
p127
I0
tp128
as(S'verizon'
p129
S'store'
p130
tp131
(lp132
(I0
I44
F0.125
S'last'
p133
I0
tp134
a(I3
I41
I0
S'different'
p135
I0
tp136
a(I5
I13
F0.5
S'expensive'
p137
I0
tp138
as(S'android'
p139
tp140
(lp141
(I4
I33
F-0.625
S'other'
p142
I0
tp143
a(I7
I40
F0.375
S'newest'
p144
I0
tp145
as(S'internal'
p146
S'storage'
p147
tp148
(lp149
(I0
I4
I0
g88
I0
tp150
a(I0
I14
F-0.75
g103
I0
tp151
a(I0
I14
I0
g105
I0
tp152
a(I7
I73
I0
g109
I0
tp153
a(I7
I73
I0
g111
I0
tp154
a(I7
I76
I0
g113
I0
tp155
a(I7
I80
I0
g115
I0
tp156
as(S'service'
p157
tp158
(lp159
(I3
I40
F1.0
S'best'
p160
I16
tp161
a(I3
I41
I0
S'full'
p162
I16
tp163
a(I3
I74
I0
S'full'
p164
I16
tp165
a(I7
I6
I0
S'great'
p166
I16
tp167
a(I7
I161
F1.0
S'good'
p168
I16
tp169
as(S'keyboard'
p170
tp171
(lp172
(I7
I51
F0.625
S'easy'
p173
I2
tp174
as(S'internal'
p175
S'memory'
p176
tp177
(lp178
(I0
I36
F-0.75
S'little'
p179
I0
tp180
a(I0
I36
I0
S'internal'
p181
I0
tp182
a(I0
I57
I0
S'internal'
p183
I0
tp184
a(I0
I88
I0
S'internal'
p185
I0
tp186
a(I3
I53
I0
S'internal'
p187
I0
tp188
a(I7
I2
I0
S'internal'
p189
I0
tp190
a(I0
I15
I0
S'full'
p191
I5
tp192
a(I0
I18
I0
S'full'
p193
I5
tp194
a(I0
I36
F-0.75
g179
I5
tp195
a(I0
I36
I0
g181
I5
tp196
a(I0
I37
F-0.25
S'low'
p197
I5
tp198
a(I0
I38
F-0.25
S'low'
p199
I5
tp200
a(I0
I57
I0
g183
I5
tp201
a(I0
I68
I0
S'full'
p202
I5
tp203
a(I0
I73
F0.75
S'due'
p204
I5
tp205
a(I0
I88
I0
g185
I5
tp206
a(I3
I53
I0
g187
I5
tp207
a(I7
I2
I0
g189
I5
tp208
as(S'touch'
p209
S'screen'
p210
tp211
(lp212
(I0
I4
F0.5
S'touch'
p213
I2
tp214
a(I0
I4
F0.5
S'touch'
p215
I2
tp216
a(I1
I16
F-0.75
S'difficult'
p217
I2
tp218
a(I3
I43
F0.5
S'touch'
p219
I2
tp220
a(I3
I63
F0.5
S'touch'
p221
I2
tp222
a(I3
I82
F-0.75
S'unresponsive'
p223
I2
tp224
a(I7
I157
F0.5
S'touch'
p225
I2
tp226
a(I7
I159
F0.5
S'touch'
p227
I2
tp228
as.