(dp0
(S'virgin'
p1
S'mobile'
p2
tp3
(lp4
(I6
I14
I0
S'basic'
p5
I0
tp6
a(I6
I14
F-0.375
S'simple'
p7
I0
tp8
a(I10
I14
I0
S'mobile'
p9
I0
tp10
a(I10
I14
I0
g9
I0
tp11
a(I10
I22
F-0.25
S'past'
p12
I0
tp13
a(I6
I14
I0
g5
I0
tp14
a(I6
I14
F-0.375
g7
I0
tp15
as(S'battery'
p16
S'life'
p17
tp18
(lp19
(I2
I61
F-0.625
S'unreal'
p20
I1
tp21
a(I5
I11
F-0.75
S'short'
p22
I1
tp23
a(I3
I21
I0
S'reviewer'
p24
I15
tp25
a(I5
I11
F-0.75
g22
I15
tp26
as(S'reception'
p27
tp28
(lp29
(I2
I27
F1.0
S'good'
p30
I0
tp31
a(I8
I0
I0
S'great'
p32
I0
tp33
as(S'customer'
p34
S'service'
p35
tp36
(lp37
(I2
I21
F1.0
S'best'
p38
I3
tp39
a(I2
I55
F1.0
S'good'
p40
I3
tp41
a(I2
I0
I0
S'great'
p42
I16
tp43
a(I2
I55
F1.0
g40
I16
tp44
a(I2
I67
F-0.5
S'less'
p45
I16
tp46
a(I4
I47
F1.0
S'good'
p47
I16
tp48
a(I5
I2
I0
S'great'
p49
I16
tp50
a(I5
I17
F-0.625
S'free'
p51
I16
tp52
a(I6
I13
F0.375
S'reliable'
p53
I16
tp54
as(S'volume'
p55
tp56
(lp57
(I3
I13
F0.75
S'receive'
p58
I6
tp59
a(I4
I22
F-0.25
S'highest'
p60
I6
tp61
a(I10
I38
F0.75
S'classic'
p62
I6
tp63
a(I10
I38
I0
S'more'
p64
I6
tp65
as(S'flip'
p66
tp67
(lp68
(I6
I4
I0
S'great'
p69
I4
tp70
a(I6
I4
F-0.75
S'little'
p71
I4
tp72
a(I6
I7
F0.5
S'recommended'
p73
I4
tp74
a(I6
I7
I0
S'basic'
p75
I4
tp76
as(S'calls'
p77
tp78
(lp79
(I3
I9
F0.125
S'able'
p80
I0
tp81
a(I4
I16
F-0.25
S'dropped'
p82
I0
tp83
a(I4
I37
F-0.625
S'other'
p84
I0
tp85
a(I5
I10
F0.25
S'recent'
p86
I0
tp87
as.