(dp0
(S'on'
p1
S'screen'
p2
S'keyboard'
p3
tp4
(lp5
(I1
I7
I0
S'physical'
p6
I0
tp7
a(I7
I60
F0.5
S'touch'
p8
I0
tp9
a(I7
I111
I0
S'real'
p10
I0
tp11
a(I7
I136
F0.5
S'touch'
p12
I0
tp13
a(I7
I155
I0
S'physical'
p14
I0
tp15
a(I7
I188
F-0.5
S'actual'
p16
I0
tp17
a(I16
I165
F1.0
S'best'
p18
I0
tp19
a(I17
I20
F0.625
S'easy'
p20
I0
tp21
a(I17
I50
F0.25
S'larger'
p22
I0
tp23
a(I18
I138
I0
S'touchscreen'
p24
I0
tp25
a(I20
I100
F0.625
S'easier'
p26
I0
tp27
a(I20
I220
F0.25
S'sharp'
p28
I0
tp29
a(I20
I220
F-0.5
S'separate'
p30
I0
tp31
a(I22
I93
F0.125
S'solid'
p32
I0
tp33
a(I23
I128
F0.5
S'touch'
p34
I0
tp35
a(I23
I129
F0.25
S'larger'
p36
I0
tp37
a(I24
I24
I0
S'big'
p38
I0
tp39
a(I1
I2
I0
S'physical'
p40
I2
tp41
a(I1
I3
I0
S'physical'
p42
I2
tp43
a(I1
I6
F0.25
S'familiar'
p44
I2
tp45
a(I1
I7
I0
g6
I2
tp46
a(I2
I20
I0
S'physical'
p47
I2
tp48
a(I7
I43
F-0.75
S'comfortable'
p49
I2
tp50
a(I7
I110
F0.5
S'touch'
p51
I2
tp52
a(I7
I111
I0
g10
I2
tp53
a(I7
I155
I0
g14
I2
tp54
a(I7
I188
F-0.5
g16
I2
tp55
a(I15
I12
F0.125
S'spectacular'
p56
I2
tp57
a(I16
I0
F0.625
S'easy'
p58
I2
tp59
a(I16
I165
F1.0
g18
I2
tp60
a(I17
I20
F0.625
g20
I2
tp61
a(I18
I138
I0
g24
I2
tp62
a(I20
I100
F0.625
g26
I2
tp63
a(I20
I166
F1.0
S'best'
p64
I2
tp65
a(I20
I220
F-0.5
g30
I2
tp66
a(I22
I8
F0.75
S'beautiful'
p67
I2
tp68
a(I22
I33
F1.0
S'best'
p69
I2
tp70
a(I22
I80
F0.875
S'important'
p71
I2
tp72
a(I22
I80
I0
S'different'
p73
I2
tp74
a(I22
I92
I0
S'physical'
p75
I2
tp76
a(I22
I93
F0.125
g32
I2
tp77
a(I23
I74
F1.0
S'better'
p78
I2
tp79
a(I24
I30
I0
S'physical'
p80
I2
tp81
as(S'ovi'
p82
S'store'
p83
tp84
(lp85
(I1
I16
I0
S'cool'
p86
I0
tp87
a(I20
I205
F0.625
S'adventurous'
p88
I0
tp89
a(I23
I34
F0.125
S'enough'
p90
I0
tp91
a(I23
I34
F0.625
S'productive'
p92
I0
tp93
as(S'android'
p94
S'or'
p95
S'iphone'
p96
tp97
(lp98
(I2
I19
F-0.5
S'relative'
p99
I0
tp100
a(I7
I64
I0
S'older'
p101
I0
tp102
a(I11
I22
F-0.625
S'other'
p103
I0
tp104
a(I13
I10
I0
S'android'
p105
I0
tp106
a(I16
I38
F0.625
S'superior'
p107
I0
tp108
a(I16
I53
I0
S'android'
p109
I0
tp110
a(I2
I33
I-100
S"'magic"
p111
I1
tp112
a(I11
I36
I0
S'unblocked'
p113
I1
tp114
a(I11
I36
F0.625
S'easy'
p115
I1
tp116
a(I13
I10
I0
g105
I1
tp117
a(I16
I38
F0.625
g107
I1
tp118
a(I16
I53
I0
g109
I1
tp119
a(I16
I119
I0
S'own'
p120
I1
tp121
a(I16
I167
I0
S'different'
p122
I1
tp123
a(I18
I12
F0.25
S'larger'
p124
I1
tp125
a(I18
I12
F-0.5
S'heavier'
p126
I1
tp127
a(I22
I5
F0.375
S'new'
p128
I1
tp129
a(I23
I19
F0.875
S'nice'
p130
I1
tp131
a(I2
I19
F-0.5
g99
I0
tp132
a(I7
I64
I0
g101
I0
tp133
a(I11
I22
F-0.625
g103
I0
tp134
a(I11
I29
I0
S'chinese'
p135
I0
tp136
a(I16
I144
F1.0
S'better'
p137
I0
tp138
a(I18
I87
F1.0
S'good'
p139
I0
tp140
a(I21
I11
F0.125
S'able'
p141
I0
tp142
as(S'nokia'
p143
S'internet'
p144
S'radio'
p145
tp146
(lp147
(I7
I17
F-0.625
S'free'
p148
I0
tp149
a(I7
I19
I0
S'least'
p150
I0
tp151
a(I1
I61
I0
S'signal'
p152
I0
tp153
a(I1
I63
F0.5
S'obvious'
p154
I0
tp155
a(I1
I71
F0.5
S'loyal'
p156
I0
tp157
a(I1
I74
I0
S'own'
p158
I0
tp159
a(I1
I85
F1.0
S'good'
p160
I0
tp161
a(I5
I21
F1.0
S'better'
p162
I0
tp163
a(I7
I17
F-0.625
g148
I0
tp164
a(I7
I66
F0.5
S'loyal'
p165
I0
tp166
a(I7
I76
I0
S'old'
p167
I0
tp168
a(I7
I105
I0
S'ponder'
p169
I0
tp170
a(I7
I106
F1.0
S'best'
p171
I0
tp172
a(I7
I107
I0
S'more'
p173
I0
tp174
a(I7
I126
F-0.375
S'top'
p175
I0
tp176
a(I7
I167
I0
S'slim'
p177
I0
tp178
a(I7
I189
F1.0
S'good'
p179
I0
tp180
a(I13
I2
F0.875
S'lucky'
p181
I0
tp182
a(I16
I81
F-0.625
S'other'
p183
I0
tp184
a(I16
I102
I0
S'old'
p185
I0
tp186
a(I16
I127
F-0.625
S'bad'
p187
I0
tp188
a(I16
I143
I0
S'more'
p189
I0
tp190
a(I17
I30
F0.5
S'loyal'
p191
I0
tp192
a(I17
I31
F0.5
S'second'
p193
I0
tp194
a(I17
I46
I0
S'anymore'
p195
I0
tp196
a(I17
I53
F0.875
S'nice'
p197
I0
tp198
a(I18
I10
F0.5
S'stylish'
p199
I0
tp200
a(I18
I31
I0
S'standard'
p201
I0
tp202
a(I18
I59
F-0.625
S'bad'
p203
I0
tp204
a(I18
I193
F0.875
S'happy'
p205
I0
tp206
a(I20
I4
F-0.625
S'bad'
p207
I0
tp208
a(I20
I73
F-0.5
S'longer'
p209
I0
tp210
a(I21
I15
F1.0
S'good'
p211
I0
tp212
a(I22
I73
F0.875
S'happy'
p213
I0
tp214
a(I22
I97
I0
S'great'
p215
I0
tp216
a(I23
I127
F0.5
S'loyal'
p217
I0
tp218
a(I23
I129
I0
S'most'
p219
I0
tp220
a(I23
I129
F-0.625
S'other'
p221
I0
tp222
a(I26
I0
I0
S'only'
p223
I0
tp224
a(I26
I6
I0
S'third'
p225
I0
tp226
a(I26
I51
F1.0
S'best'
p227
I0
tp228
as(S'physical'
p229
S'keyboard'
p230
tp231
(lp232
(I1
I2
I0
g40
I0
tp233
a(I1
I3
I0
g42
I0
tp234
a(I1
I7
I0
g6
I0
tp235
a(I2
I20
I0
g47
I0
tp236
a(I7
I155
I0
g14
I0
tp237
a(I22
I92
I0
g75
I0
tp238
a(I24
I30
I0
g80
I0
tp239
as(S'maps'
p240
tp241
(lp242
(I1
I40
F0.5
S'clearer'
p243
I5
tp244
a(I7
I179
I0
S'great'
p245
I5
tp246
a(I16
I47
F-0.25
S'google'
p247
I5
tp248
a(I16
I105
I0
S'more'
p249
I5
tp250
a(I26
I18
I0
S'crisp'
p251
I5
tp252
as(S'angry'
p253
S'birds'
p254
tp255
(lp256
(I22
I52
F-0.625
S'free'
p257
I0
tp258
as(S'camera'
p259
tp260
(lp261
(I5
I18
F1.0
S'good'
p262
I1
tp263
a(I11
I10
F-0.75
S'sufficient'
p264
I1
tp265
a(I16
I27
F-0.5
S'poor'
p266
I1
tp267
a(I16
I164
F1.0
S'good'
p268
I1
tp269
a(I18
I29
F0.875
S'nice'
p270
I1
tp271
a(I18
I30
I0
S'rich'
p272
I1
tp273
a(I18
I108
I0
S'phenomenal'
p274
I1
tp275
a(I18
I130
I0
S'great'
p276
I1
tp277
a(I20
I180
F0.875
S'important'
p278
I1
tp279
a(I22
I99
I0
S'great'
p280
I1
tp281
a(I23
I0
F0.125
S'first'
p282
I1
tp283
a(I23
I11
I0
S'real'
p284
I1
tp285
a(I24
I27
I0
S'incredible'
p286
I1
tp287
a(I25
I8
F-0.625
S'bad'
p288
I1
tp289
a(I26
I49
I0
S'great'
p290
I1
tp291
as(S'mobile'
p292
tp293
(lp294
(I18
I186
I0
S'faster'
p295
I0
tp296
a(I18
I186
F1.0
S'better'
p297
I0
tp298
a(I23
I15
F-0.625
S'bad'
p299
I0
tp300
a(I23
I134
F0.875
S'nice'
p301
I0
tp302
as(S'battery'
p303
S'life'
p304
tp305
(lp306
(I2
I38
F1.0
S'good'
p307
I1
tp308
a(I5
I13
I0
S'great'
p309
I1
tp310
a(I6
I3
I0
S'great'
p311
I1
tp312
a(I7
I19
F-0.5
S'poor'
p313
I1
tp314
a(I7
I160
F0.875
S'nice'
p315
I1
tp316
a(I7
I160
F1.0
S'good'
p317
I1
tp318
a(I18
I97
F1.0
S'good'
p319
I1
tp320
a(I20
I11
I0
S'most'
p321
I1
tp322
a(I24
I27
F1.0
S'good'
p323
I1
tp324
a(I26
I22
F-0.875
S'worst'
p325
I1
tp326
a(I2
I38
F1.0
g307
I19
tp327
a(I5
I13
I0
g309
I19
tp328
a(I6
I3
I0
g311
I19
tp329
a(I7
I19
F-0.5
g313
I19
tp330
a(I7
I107
F0.125
S'enough'
p331
I19
tp332
a(I7
I107
F0.375
S'new'
p333
I19
tp334
a(I11
I23
F0.375
S'new'
p335
I19
tp336
a(I17
I39
F1.0
S'good'
p337
I19
tp338
a(I18
I97
F1.0
g319
I19
tp339
a(I20
I11
I0
g321
I19
tp340
a(I23
I126
F-0.625
S'other'
p341
I19
tp342
a(I26
I22
F-0.875
g325
I19
tp343
a(I7
I160
F0.875
g315
I15
tp344
a(I7
I160
F1.0
g317
I15
tp345
a(I16
I124
F-0.75
S'short'
p346
I15
tp347
a(I16
I127
F1.0
S'better'
p348
I15
tp349
a(I17
I1
F-0.25
S'low'
p350
I15
tp351
a(I18
I135
I0
S'earlier'
p352
I15
tp353
a(I20
I81
F-0.625
S'bad'
p354
I15
tp355
a(I20
I81
F0.125
S'able'
p356
I15
tp357
a(I21
I3
F-0.625
S'bad'
p358
I15
tp359
a(I21
I4
I0
S'internal'
p360
I15
tp361
a(I22
I83
I0
S'great'
p362
I15
tp363
a(I22
I108
F1.0
S'good'
p364
I15
tp365
a(I23
I29
F1.0
S'good'
p366
I15
tp367
a(I23
I130
F-0.75
S'hate'
p368
I15
tp369
a(I24
I27
F1.0
g323
I15
tp370
a(I25
I8
F0.75
S'exchangeable'
p371
I15
tp372
a(I26
I43
I0
S'quick'
p373
I15
tp374
as(S'qwerty'
p375
S'keyboard'
p376
tp377
(lp378
(I1
I26
I0
S'large'
p379
I0
tp380
a(I7
I188
F-0.5
g16
I0
tp381
a(I16
I0
F0.375
S'complete'
p382
I0
tp383
a(I16
I0
F0.625
g58
I0
tp384
a(I16
I87
I0
S'finest'
p385
I0
tp386
a(I20
I19
I0
S'full'
p387
I0
tp388
a(I20
I30
I0
S'full'
p389
I0
tp390
a(I22
I8
I0
S'full'
p391
I0
tp392
a(I22
I8
F0.75
g67
I0
tp393
a(I1
I26
I0
g379
I0
tp394
a(I16
I0
F0.375
g382
I0
tp395
a(I16
I87
I0
g385
I0
tp396
a(I20
I19
I0
g387
I0
tp397
a(I20
I30
I0
g389
I0
tp398
a(I20
I37
F0.875
S'nice'
p399
I0
tp400
a(I20
I37
I0
S'full'
p401
I0
tp402
a(I22
I8
I0
g391
I0
tp403
a(I26
I51
I0
S'full'
p404
I0
tp405
as(S'memory'
p406
tp407
(lp408
(I1
I49
I0
S'included'
p409
I5
tp410
a(I1
I49
F-0.25
S'low'
p411
I5
tp412
a(I1
I50
F-0.75
S'little'
p413
I5
tp414
a(I1
I50
F0.375
S'available'
p415
I5
tp416
a(I6
I10
I0
S'external'
p417
I5
tp418
a(I6
I10
I0
S'internal'
p419
I5
tp420
a(I20
I11
F-0.75
S'sufficient'
p421
I5
tp422
a(I20
I23
I0
S'internal'
p423
I5
tp424
a(I20
I83
I0
S'internal'
p425
I5
tp426
a(I22
I49
F0.375
S'much'
p427
I5
tp428
a(I24
I11
I0
S'internal'
p429
I5
tp430
as(S'windows'
p431
tp432
(lp433
(I1
I63
I0
S'mobile'
p434
I0
tp435
a(I7
I162
F-0.25
S'late'
p436
I0
tp437
a(I7
I193
F1.0
S'good'
p438
I0
tp439
a(I9
I15
I0
S'slower'
p440
I0
tp441
a(I23
I14
I0
S'mobile'
p442
I0
tp443
as(S'market'
p444
tp445
(lp446
(I20
I26
F-0.625
S'useless'
p447
I16
tp448
a(I23
I136
I0
S'mobile'
p449
I16
tp450
as(S'times'
p451
S'a'
p452
S'day'
p453
tp454
(lp455
(I20
I56
I0
S'more'
p456
I0
tp457
a(I20
I67
I0
S'more'
p458
I0
tp459
as(S'business'
p460
tp461
(lp462
(I7
I86
F0.875
S'nice'
p463
I9
tp464
a(I17
I45
F0.625
S'easier'
p465
I9
tp466
a(I19
I8
F1.0
S'good'
p467
I9
tp468
a(I19
I8
F0.375
S'reliable'
p469
I9
tp470
a(I23
I13
I0
S'great'
p471
I9
tp472
as(S'long'
p473
S'time'
p474
tp475
(lp476
(I7
I59
F-0.5
S'long'
p477
I13
tp478
a(I16
I15
F-0.5
S'long'
p479
I13
tp480
a(I17
I43
F-0.5
S'long'
p481
I13
tp482
a(I18
I125
F-0.5
S'long'
p483
I13
tp484
a(I20
I157
F-0.5
S'long'
p485
I13
tp486
a(I26
I36
F-0.5
S'long'
p487
I13
tp488
a(I26
I47
F-0.5
S'long'
p489
I13
tp490
as(S'many'
p491
S'apps'
p492
tp493
(lp494
(I1
I13
I0
S'many'
p495
I0
tp496
a(I1
I17
I0
S'many'
p497
I0
tp498
a(I7
I164
F1.0
S'good'
p499
I0
tp500
a(I7
I164
F0.375
S'available'
p501
I0
tp502
a(I13
I9
I0
S'many'
p503
I0
tp504
a(I13
I9
F0.375
S'available'
p505
I0
tp506
a(I13
I48
I0
S'many'
p507
I0
tp508
a(I16
I52
I0
S'many'
p509
I0
tp510
a(I16
I52
F-0.5
S'heavy'
p511
I0
tp512
a(I16
I52
I0
S'non-issue'
p513
I0
tp514
a(I16
I52
F0.125
S'essential'
p515
I0
tp516
a(I16
I52
F0.375
S'available'
p517
I0
tp518
a(I16
I107
F0.375
S'available'
p519
I0
tp520
a(I16
I107
I0
S'many'
p521
I0
tp522
a(I23
I135
I0
S'many'
p523
I0
tp524
a(I1
I13
I0
g495
I0
tp525
a(I1
I17
I0
g497
I0
tp526
a(I1
I18
F-0.625
S'other'
p527
I0
tp528
a(I2
I19
I0
S'few'
p529
I0
tp530
a(I7
I146
I0
S'more'
p531
I0
tp532
a(I7
I146
F-0.5
S'open'
p533
I0
tp534
a(I7
I164
F1.0
g499
I0
tp535
a(I7
I164
F0.375
g501
I0
tp536
a(I7
I183
I0
S'few'
p537
I0
tp538
a(I7
I183
F-0.5
S'open'
p539
I0
tp540
a(I13
I9
I0
g503
I0
tp541
a(I13
I9
F0.375
g505
I0
tp542
a(I13
I15
F-0.625
S'other'
p543
I0
tp544
a(I13
I18
F1.0
S'good'
p545
I0
tp546
a(I13
I47
I0
S'more'
p547
I0
tp548
a(I13
I48
I0
g507
I0
tp549
a(I13
I67
F0.625
S'easy'
p550
I0
tp551
a(I15
I17
I0
S'more'
p552
I0
tp553
a(I16
I46
F0.125
S'able'
p554
I0
tp555
a(I16
I47
I0
S'only'
p556
I0
tp557
a(I16
I51
F0.625
S'easy'
p558
I0
tp559
a(I16
I52
I0
g509
I0
tp560
a(I16
I52
F-0.5
g511
I0
tp561
a(I16
I52
I0
g513
I0
tp562
a(I16
I52
F0.125
g515
I0
tp563
a(I16
I52
F0.375
g517
I0
tp564
a(I16
I53
F-0.5
S'heavy'
p565
I0
tp566
a(I16
I70
F0.375
S'much'
p567
I0
tp568
a(I16
I107
F0.375
g519
I0
tp569
a(I16
I107
I0
g521
I0
tp570
a(I16
I140
F1.0
S'good'
p571
I0
tp572
a(I18
I38
F0.125
S'capable'
p573
I0
tp574
a(I18
I137
I0
S'more'
p575
I0
tp576
a(I20
I8
I0
S'fewer'
p577
I0
tp578
a(I20
I8
F0.375
S'available'
p579
I0
tp580
a(I20
I61
F0.375
S'available'
p581
I0
tp582
a(I20
I199
F0.375
S'new'
p583
I0
tp584
a(I20
I206
F0.375
S'much'
p585
I0
tp586
a(I20
I206
F0.125
S'essential'
p587
I0
tp588
a(I20
I213
F0.375
S'new'
p589
I0
tp590
a(I20
I213
I0
S'normal'
p591
I0
tp592
a(I22
I45
F-0.625
S'other'
p593
I0
tp594
a(I22
I45
F-0.625
S'free'
p595
I0
tp596
a(I22
I96
I0
S'rich'
p597
I0
tp598
a(I22
I96
F1.0
S'good'
p599
I0
tp600
a(I22
I96
I0
S'useful'
p601
I0
tp602
a(I23
I9
F-0.625
S'free'
p603
I0
tp604
a(I23
I69
F0.375
S'new'
p605
I0
tp606
a(I23
I118
F0.375
S'available'
p607
I0
tp608
a(I23
I135
I0
g523
I0
tp609
a(I26
I47
F-0.5
S'certain'
p610
I0
tp611
a(I26
I48
I0
S'few'
p612
I0
tp613
a(I26
I48
I0
S'same'
p614
I0
tp615
a(I26
I48
F0.375
S'similar'
p616
I0
tp617
as(S'bluetooth'
p618
tp619
(lp620
(I1
I59
F-0.625
S'free'
p621
I3
tp622
a(I20
I131
F0.375
S'new'
p623
I3
tp624
a(I20
I133
F-0.625
S'other'
p625
I3
tp626
as(S'us'
p627
S'version'
p628
tp629
(lp630
(I13
I68
F0.5
S'second'
p631
I0
tp632
a(I17
I4
I0
S'european'
p633
I0
tp634
a(I18
I168
I0
S'such'
p635
I0
tp636
a(I23
I12
I0
S'full'
p637
I0
tp638
as(S'sim'
p639
S'card'
p640
tp641
(lp642
(I11
I36
I0
S'different'
p643
I0
tp644
as(S'nokia'
p645
S'n8'
p646
tp647
(lp648
(I7
I87
F-0.5
S'heavier'
p649
I0
tp650
as(S'nokia'
p651
S'e7'
p652
tp653
(lp654
(I1
I63
F0.5
g154
I0
tp655
a(I1
I74
I0
g158
I0
tp656
a(I7
I105
I0
g169
I0
tp657
a(I7
I107
I0
g173
I0
tp658
a(I7
I167
I0
g177
I0
tp659
a(I7
I189
F1.0
g179
I0
tp660
a(I18
I10
F0.5
g199
I0
tp661
a(I22
I73
F0.875
g213
I0
tp662
a(I24
I0
I0
S'more'
p663
I0
tp664
a(I26
I0
I0
g223
I0
tp665
a(I26
I51
F1.0
g227
I0
tp666
a(I26
I51
F0.375
S'new'
p667
I0
tp668
as(S'amazon'
p669
tp670
(lp671
(I7
I157
I-100
S'avaialble'
p672
I13
tp673
as(S'music'
p674
S'player'
p675
tp676
(lp677
(I20
I171
F0.875
S'music'
p678
I0
tp679
as(S'warranty'
p680
tp681
(lp682
(I1
I20
F-0.5
S'longer'
p683
I2
tp684
a(I7
I39
F-0.375
S'manual'
p685
I2
tp686
a(I7
I39
F0.625
S'polish'
p687
I2
tp688
a(I18
I168
F0.125
S'valid'
p689
I2
tp690
a(I26
I34
F-0.375
S'void'
p691
I2
tp692
as(S'data'
p693
tp694
(lp695
(I11
I36
I0
S'local'
p696
I13
tp697
a(I11
I36
I0
S'competitive'
p698
I13
tp699
a(I20
I226
F0.875
S'worthy'
p700
I13
tp701
a(I22
I108
F0.375
S'much'
p702
I13
tp703
as(S'symbian'
p704
S'anna'
p705
tp706
(lp707
(I7
I184
F0.5
S'possible'
p708
I0
tp709
a(I7
I184
F0.375
S'new'
p710
I0
tp711
a(I17
I61
F0.75
S'due'
p712
I0
tp713
a(I23
I103
I0
S'later'
p714
I0
tp715
a(I1
I10
I0
S'update'
p716
I3
tp717
a(I16
I139
F-0.375
S'smooth'
p718
I3
tp719
a(I17
I61
F0.75
g712
I3
tp720
a(I23
I28
F-0.375
S'smooth'
p721
I3
tp722
as(S'negative'
p723
S'reviews'
p724
tp725
(lp726
(I13
I61
I0
S'only'
p727
I3
tp728
a(I13
I61
F-0.875
S'negative'
p729
I3
tp730
a(I20
I52
F-0.875
S'negative'
p731
I3
tp732
a(I23
I26
F-0.875
S'negative'
p733
I3
tp734
as(S'symbian'
p735
S'os'
p736
tp737
(lp738
(I7
I60
F0.375
S'available'
p739
I0
tp740
a(I7
I63
F0.125
S'solid'
p741
I0
tp742
a(I7
I63
F-0.5
S'tried'
p743
I0
tp744
a(I7
I115
I0
S'mobile'
p745
I0
tp746
a(I7
I124
F0.625
S'logical'
p747
I0
tp748
a(I7
I184
F0.5
g708
I0
tp749
a(I7
I184
F0.375
g710
I0
tp750
a(I11
I13
F1.0
S'good'
p751
I0
tp752
a(I20
I5
F0.125
S'first'
p753
I0
tp754
a(I20
I28
I0
S'different'
p755
I0
tp756
a(I22
I56
F0.375
S'much'
p757
I0
tp758
a(I23
I69
F0.5
S'whole'
p759
I0
tp760
a(I23
I69
F-0.125
S'slow'
p761
I0
tp762
a(I1
I75
F-0.875
S'awful'
p763
I0
tp764
a(I7
I63
F0.125
g741
I0
tp765
a(I7
I63
F-0.5
g743
I0
tp766
a(I7
I184
F0.5
g708
I0
tp767
a(I7
I184
F0.375
g710
I0
tp768
a(I13
I15
F0.375
S'available'
p769
I0
tp770
a(I18
I62
I0
S'great'
p771
I0
tp772
a(I20
I5
F0.125
g753
I0
tp773
a(I22
I77
F0.375
S'new'
p774
I0
tp775
a(I23
I56
F0.375
S'new'
p776
I0
tp777
a(I23
I69
F0.5
g759
I0
tp778
a(I23
I103
I0
g714
I0
tp779
as(S'symbian'
p780
S'belle'
p781
tp782
(lp783
(I20
I31
F0.375
S'available'
p784
I0
tp785
a(I22
I77
F0.375
g774
I0
tp786
a(I23
I111
F1.0
S'better'
p787
I0
tp788
a(I25
I8
I0
S'least'
p789
I0
tp790
a(I20
I31
F0.375
g784
I1
tp791
a(I23
I111
F1.0
g787
I1
tp792
a(I25
I8
I0
g789
I1
tp793
as(S'form'
p794
S'factor'
p795
tp796
(lp797
(I24
I26
F0.625
S'perfect'
p798
I1
tp799
as(S'menu'
p800
S'item'
p801
tp802
(lp803
(I18
I112
F-0.375
S'top'
p804
I1
tp805
a(I20
I193
I0
S'context'
p806
I1
tp807
as(S'operating'
p808
S'system'
p809
tp810
(lp811
(I7
I61
F-0.25
S'modern'
p812
I2
tp813
a(I7
I61
I0
S'mobile'
p814
I2
tp815
a(I7
I92
I0
S'android'
p816
I2
tp817
a(I7
I162
F0.25
S'favorite'
p818
I2
tp819
a(I9
I15
F-0.625
S'bad'
p820
I2
tp821
a(I20
I55
I0
S'android'
p822
I2
tp823
a(I23
I20
F0.375
S'flexible'
p824
I2
tp825
a(I23
I28
F0.375
S'new'
p826
I2
tp827
a(I24
I15
F-0.625
S'bad'
p828
I2
tp829
a(I7
I131
I0
S'operational'
p830
I12
tp831
a(I7
I132
I0
S'latest'
p832
I12
tp833
a(I7
I132
I0
S'operational'
p834
I12
tp835
a(I7
I133
I0
S'operational'
p836
I12
tp837
a(I7
I133
I0
S'operational'
p838
I12
tp839
a(I7
I135
I0
S'operational'
p840
I12
tp841
a(I7
I162
F0.25
g818
I12
tp842
a(I13
I6
I0
S'quick'
p843
I12
tp844
a(I13
I30
I0
S'satellite'
p845
I12
tp846
a(I13
I59
F1.0
S'good'
p847
I12
tp848
a(I18
I58
I0
S'visual'
p849
I12
tp850
a(I18
I176
I0
S'entire'
p851
I12
tp852
a(I18
I178
F0.5
S'clear'
p853
I12
tp854
a(I24
I15
F-0.625
g828
I12
tp855
a(I7
I61
F-0.25
g812
I2
tp856
a(I7
I61
I0
g814
I2
tp857
a(I7
I92
I0
g816
I2
tp858
a(I9
I15
F-0.625
g820
I2
tp859
a(I20
I55
I0
g822
I2
tp860
a(I23
I20
F0.375
g824
I2
tp861
a(I23
I28
F0.375
g826
I2
tp862
as(S'touch'
p863
S'screen'
p864
tp865
(lp866
(I1
I26
I0
S'large'
p867
I2
tp868
a(I2
I9
F0.25
S'responsive'
p869
I2
tp870
a(I7
I43
F0.5
S'touch'
p871
I2
tp872
a(I7
I60
F0.5
g8
I2
tp873
a(I7
I100
F0.5
S'touch'
p874
I2
tp875
a(I7
I102
F0.5
S'touch'
p876
I2
tp877
a(I7
I104
F0.5
S'touch'
p878
I2
tp879
a(I7
I136
F0.5
g12
I2
tp880
a(I7
I155
I0
S'big'
p881
I2
tp882
a(I7
I159
F0.25
S'sharp'
p883
I2
tp884
a(I7
I159
F0.25
S'responsive'
p885
I2
tp886
a(I17
I42
F0.5
S'touch'
p887
I2
tp888
a(I17
I42
F0.125
S'first'
p889
I2
tp890
a(I17
I42
F0.625
S'easy'
p891
I2
tp892
a(I20
I109
F0.5
S'touch'
p893
I2
tp894
a(I20
I109
F-0.125
S'present'
p895
I2
tp896
a(I20
I111
I0
S'sensitive'
p897
I2
tp898
a(I23
I128
F0.5
g34
I2
tp899
as.