(dp0
(S'iphone'
p1
tp2
(lp3
(I1
I3
F-0.25
S'white'
p4
I1
tp5
a(I3
I4
F0.375
S'new'
p6
I1
tp7
a(I4
I0
F0.875
S'happy'
p8
I1
tp9
a(I6
I17
F-0.25
S'white'
p10
I1
tp11
a(I18
I22
F0.375
S'new'
p12
I1
tp13
a(I24
I0
F1.0
S'good'
p14
I1
tp15
a(I26
I10
I0
S'earlier'
p16
I1
tp17
a(I28
I1
F-0.5
S'actual'
p18
I1
tp19
a(I28
I1
F-0.25
S'white'
p20
I1
tp21
a(I30
I1
F0.375
S'new'
p22
I1
tp23
a(I31
I16
F-0.125
S'overall'
p24
I1
tp25
as.