(dp0
(S'virgin'
p1
S'mobile'
p2
tp3
(lp4
(I12
I4
F-0.375
S'manual'
p5
I0
tp6
a(I18
I2
I0
S'website'
p7
I0
tp8
a(I21
I118
F-0.625
S'other'
p9
I0
tp10
a(I12
I4
F-0.375
g5
I0
tp11
a(I18
I45
F0.125
S'capable'
p12
I0
tp13
a(I18
I46
F-0.375
S'top'
p14
I0
tp15
a(I21
I118
F-0.625
g9
I0
tp16
a(I18
I2
I0
g7
I0
tp17
as(S'battery'
p18
S'life'
p19
tp20
(lp21
(I0
I26
F1.0
S'good'
p22
I1
tp23
a(I3
I5
F0.625
S'fair'
p24
I1
tp25
a(I3
I5
I0
S'online'
p26
I1
tp27
a(I4
I19
F1.0
S'good'
p28
I1
tp29
a(I5
I1
I0
S'own'
p30
I15
tp31
a(I9
I44
I0
S'terminal'
p32
I15
tp33
as(S'keyboard'
p34
tp35
(lp36
(I5
I4
F0.875
S'nice'
p37
I2
tp38
a(I18
I34
F1.0
S'best'
p39
I2
tp40
a(I21
I38
F0.875
S'nice'
p41
I2
tp42
as(S'email'
p43
tp44
(lp45
(I9
I54
F1.0
S'good'
p46
I5
tp47
a(I18
I7
I0
S'instant'
p48
I5
tp49
as(S'dial'
p50
S'pad'
p51
tp52
(lp53
(I15
I11
I0
S'dial'
p54
I0
tp55
a(I15
I12
F-0.5
S'open'
p56
I0
tp57
a(I15
I12
I0
S'dial'
p58
I0
tp59
a(I18
I23
I0
S'dial'
p60
I0
tp61
as(S'text'
p62
tp63
(lp64
(I21
I32
F0.875
S'music'
p65
I18
tp66
as(S'service'
p67
tp68
(lp69
(I7
I0
F-0.875
S'worst'
p70
I16
tp71
a(I7
I0
I0
S'cellular'
p72
I16
tp73
a(I7
I4
F-0.5
S'poor'
p74
I16
tp75
a(I7
I15
F-0.5
S'poor'
p76
I16
tp77
a(I10
I7
F1.0
S'good'
p78
I16
tp79
a(I17
I9
F0.75
S'worth'
p80
I16
tp81
as(S'beyond'
p82
S'talk'
p83
tp84
(lp85
(I2
I8
F0.75
S'worth'
p86
I0
tp87
a(I2
I8
F1.0
S'better'
p88
I0
tp89
as(S'camera'
p90
tp91
(lp92
(I9
I37
F-0.625
S'bad'
p93
I1
tp94
a(I15
I5
F0.625
S'decent'
p95
I1
tp96
as(S'internet'
p97
tp98
(lp99
(I3
I21
F-0.125
S'slow'
p100
I6
tp101
a(I4
I22
F-0.125
S'slow'
p102
I6
tp103
a(I7
I1
F-0.875
S'hard'
p104
I6
tp105
a(I7
I1
F-0.125
S'slow'
p106
I6
tp107
a(I9
I20
F0.625
S'easy'
p108
I6
tp109
a(I9
I33
F-0.5
S'less'
p110
I6
tp111
a(I17
I9
F-0.125
S'slow'
p112
I6
tp113
a(I17
I9
F1.0
S'good'
p114
I6
tp115
as(S'social'
p116
S'media'
p117
tp118
(lp119
(I18
I2
I0
S'social'
p120
I0
tp121
a(I18
I9
I0
S'social'
p122
I0
tp123
a(I18
I13
I0
S'social'
p124
I0
tp125
a(I18
I14
F-0.625
S'other'
p126
I0
tp127
a(I18
I14
I0
S'social'
p128
I0
tp129
as(S'messages'
p130
tp131
(lp132
(I13
I4
F-0.875
S'negative'
p133
I1
tp134
a(I18
I7
I0
S'most'
p135
I1
tp136
a(I18
I7
F0.25
S'recent'
p137
I1
tp138
a(I18
I13
F-0.75
S'unable'
p139
I1
tp140
as(S'sd'
p141
S'card'
p142
tp143
(lp144
(I21
I117
F0.125
S'able'
p145
I0
tp146
a(I21
I117
F0.875
S'music'
p147
I0
tp148
a(I21
I117
I0
S'sd'
p149
I0
tp150
as(S'android'
p151
tp152
(lp153
(I16
I5
F0.375
S'new'
p154
I0
tp155
a(I21
I33
F-0.625
S'bad'
p156
I0
tp157
a(I21
I51
I0
S'old'
p158
I0
tp159
as(S'smart'
p160
tp161
(lp162
(I3
I0
F0.125
S'first'
p163
I10
tp164
a(I13
I39
I0
S'android'
p165
I10
tp166
as(S'calls'
p167
tp168
(lp169
(I18
I22
F0.75
S'receive'
p170
I0
tp171
a(I21
I99
I0
S'later'
p172
I0
tp173
a(I21
I99
F0.25
S'recent'
p174
I0
tp175
as(S'lg'
p176
S'rumor'
p177
tp178
(lp179
(I13
I3
F0.5
S'upgraded'
p180
I0
tp181
as(S'touch'
p182
S'screen'
p183
tp184
(lp185
(I0
I10
F0.5
S'touch'
p186
I2
tp187
a(I3
I34
F0.875
S'nice'
p188
I2
tp189
a(I4
I3
F0.5
S'touch'
p190
I2
tp191
a(I9
I20
F0.5
S'touch'
p192
I2
tp193
a(I9
I20
F-0.125
S'slow'
p194
I2
tp195
a(I10
I3
I0
S'sensitive'
p196
I2
tp197
a(I10
I22
F0.5
S'touch'
p198
I2
tp199
a(I13
I33
F0.5
S'touch'
p200
I2
tp201
a(I15
I18
F0.5
S'touch'
p202
I2
tp203
a(I15
I26
F0.5
S'touch'
p204
I2
tp205
a(I15
I55
F0.5
S'touch'
p206
I2
tp207
a(I17
I1
F0.5
S'touch'
p208
I2
tp209
a(I18
I21
F0.5
S'touch'
p210
I2
tp211
a(I18
I21
F0.5
S'touch'
p212
I2
tp213
a(I18
I21
F-0.625
S'other'
p214
I2
tp215
a(I18
I22
F0.5
S'touch'
p216
I2
tp217
a(I18
I33
F0.5
S'touch'
p218
I2
tp219
a(I18
I33
F0.5
S'touch'
p220
I2
tp221
a(I18
I33
F0.25
S'responsive'
p222
I2
tp223
a(I18
I39
F0.625
S'easy'
p224
I2
tp225
a(I21
I24
F1.0
S'good'
p226
I2
tp227
as(S'apps'
p228
tp229
(lp230
(I9
I53
I0
S'only'
p231
I0
tp232
a(I18
I2
I0
S'navigational'
p233
I0
tp234
a(I18
I9
I0
S'latest'
p235
I0
tp236
a(I18
I9
F-0.5
S'longer'
p237
I0
tp238
a(I18
I18
F0.375
S'available'
p239
I0
tp240
a(I18
I18
I-100
S'droid/iphone'
p241
I0
tp242
a(I18
I41
F-0.5
S'actual'
p243
I0
tp244
as(S'amazon'
p245
tp246
(lp247
(I3
I31
I0
S'mobile'
p248
I13
tp249
a(I10
I10
I0
S'different'
p250
I13
tp251
a(I15
I2
I0
S'great'
p252
I13
tp253
a(I21
I52
F0.875
S'happy'
p254
I13
tp255
as(S'rumor'
p256
S'touch'
p257
tp258
(lp259
(I19
I9
F0.5
S'second'
p260
I0
tp261
a(I19
I9
F0.5
g260
I0
tp262
as(S'facebook'
p263
tp264
(lp265
(I21
I50
F0.875
S'happy'
p266
I0
tp267
as.