(dp0
(S'battery'
p1
S'life'
p2
tp3
(lp4
(I8
I39
F1.0
S'good'
p5
I1
tp6
a(I8
I76
F1.0
S'good'
p7
I1
tp8
a(I9
I3
I0
S'great'
p9
I1
tp10
a(I16
I2
F1.0
S'good'
p11
I1
tp12
a(I30
I14
I0
S'great'
p13
I1
tp14
a(I30
I19
F-0.5
S'long'
p15
I1
tp16
a(I41
I1
I0
S'great'
p17
I1
tp18
a(I30
I14
I0
g13
I19
tp19
a(I30
I24
F-0.25
S'low'
p20
I19
tp21
a(I41
I1
I0
g17
I19
tp22
a(I7
I12
F0.125
S'last'
p23
I15
tp24
a(I8
I39
F1.0
g5
I15
tp25
a(I8
I76
F1.0
g7
I15
tp26
a(I9
I3
I0
g9
I15
tp27
a(I15
I10
F-0.25
S'mug'
p28
I15
tp29
a(I16
I2
F1.0
g11
I15
tp30
a(I24
I33
F-0.375
S'daily'
p31
I15
tp32
a(I30
I19
F-0.5
g15
I15
tp33
a(I40
I23
F0.375
S'new'
p34
I15
tp35
as(S'sidekick'
p36
S'lx'
p37
tp38
(lp39
(I0
I11
F0.25
S'original'
p40
I0
tp41
a(I15
I31
F0.375
S'new'
p42
I0
tp43
a(I40
I8
F0.25
S'original'
p44
I0
tp45
a(I0
I11
F0.25
g40
I0
tp46
a(I0
I17
F0.25
S'original'
p47
I0
tp48
a(I8
I44
F-0.5
S'sure'
p49
I0
tp50
a(I8
I44
F-0.625
S'other'
p51
I0
tp52
a(I14
I0
F0.125
S'last'
p53
I0
tp54
a(I14
I16
I0
S'particular'
p55
I0
tp56
a(I14
I30
F0.375
S'new'
p57
I0
tp58
a(I15
I31
F0.375
g42
I0
tp59
a(I16
I6
I0
S'current'
p60
I0
tp61
a(I24
I15
I0
S'particular'
p62
I0
tp63
a(I24
I15
F0.5
S'compatible'
p64
I0
tp65
a(I24
I43
F0.375
S'new'
p66
I0
tp67
a(I30
I37
I0
S'particular'
p68
I0
tp69
a(I37
I18
F0.25
S'original'
p70
I0
tp71
a(I40
I8
F0.25
g44
I0
tp72
as(S'keyboard'
p73
tp74
(lp75
(I9
I3
I0
S'great'
p76
I2
tp77
a(I11
I29
F1.0
S'good'
p78
I2
tp79
a(I12
I1
I0
S'great'
p80
I2
tp81
a(I14
I3
F-0.75
S'difficult'
p82
I2
tp83
a(I15
I25
I0
S'large'
p84
I2
tp85
a(I15
I43
F-0.125
S'complicated'
p86
I2
tp87
a(I21
I13
F0.5
S'stylish'
p88
I2
tp89
a(I21
I13
F0.625
S'easy'
p90
I2
tp91
a(I24
I35
I0
S'only'
p92
I2
tp93
a(I24
I35
F0.625
S'positive'
p94
I2
tp95
a(I30
I17
F0.625
S'easier'
p96
I2
tp97
a(I39
I10
F-0.125
S'slow'
p98
I2
tp99
a(I39
I22
F0.125
S'able'
p100
I2
tp101
a(I42
I14
I0
S'full'
p102
I2
tp103
a(I43
I3
I0
S'large'
p104
I2
tp105
as(S'smartphone'
p106
tp107
(lp108
(I0
I32
F1.0
S'better'
p109
I0
tp110
a(I12
I10
F0.5
S'expensive'
p111
I0
tp112
a(I38
I29
F0.125
S'able'
p113
I0
tp114
a(I42
I19
F1.0
S'better'
p115
I0
tp116
as(S'tmobile'
p117
tp118
(lp119
(I14
I27
F0.5
S'compatible'
p120
I0
tp121
a(I18
I3
I0
S'same'
p122
I0
tp123
as(S'2'
p124
S'days'
p125
tp126
(lp127
(I13
I22
I0
S'more'
p128
I3
tp129
a(I13
I22
F-0.75
S'inoperable'
p130
I3
tp131
a(I19
I20
I0
S'later'
p132
I3
tp133
as(S'pv300'
p134
tp135
(lp136
(I40
I7
I0
S'normal'
p137
I0
tp138
a(I40
I8
F-0.5
S'regular'
p139
I0
tp140
as(S'big'
p141
S'deal'
p142
tp143
(lp144
(I8
I14
I0
S'big'
p145
I11
tp146
a(I27
I29
I0
S'big'
p147
I11
tp148
a(I41
I0
I0
S'big'
p149
I11
tp150
as(S'camera'
p151
tp152
(lp153
(I0
I7
I0
S'old'
p154
I1
tp155
as(S't'
p156
S'mobile'
p157
S'retail'
p158
tp159
(lp160
(I37
I26
F0.375
S'new'
p161
I0
tp162
as(S'cool'
p163
tp164
(lp165
(I29
I7
F-0.625
S'other'
p166
I11
tp167
a(I38
I28
I0
S'sturdy'
p168
I11
tp169
as(S'dont'
p170
tp171
(lp172
(I15
I10
I0
S'empty'
p173
I16
tp174
as(S'next'
p175
S'day'
p176
tp177
(lp178
(I30
I36
I0
S'next'
p179
I4
tp180
a(I36
I6
I0
S'next'
p181
I4
tp182
a(I40
I16
I0
S'next'
p183
I4
tp184
as(S'messaging'
p185
tp186
(lp187
(I0
I30
I0
S'threaded'
p188
I0
tp189
a(I40
I0
I0
S'normal'
p190
I0
tp191
as(S'a'
p192
S'memory'
p193
S'card'
p194
tp195
(lp196
(I15
I9
F-0.5
S'separate'
p197
I0
tp198
a(I15
I9
F-0.5
g197
I0
tp199
as(S'internet'
p200
S'access'
p201
tp202
(lp203
(I0
I0
F0.125
S'capable'
p204
I0
tp205
a(I16
I6
I0
S'different'
p206
I0
tp207
a(I0
I0
F0.125
g204
I6
tp208
a(I1
I10
I0
S'cool'
p209
I6
tp210
a(I8
I3
F-0.75
S'difficult'
p211
I6
tp212
a(I11
I21
F1.0
S'good'
p213
I6
tp214
a(I12
I14
F-0.5
S'heavy'
p215
I6
tp216
a(I15
I54
F0.75
S'worth'
p217
I6
tp218
a(I16
I6
I0
g206
I6
tp219
a(I24
I15
F-0.375
S'simple'
p220
I6
tp221
a(I24
I15
I0
S'mobile'
p222
I6
tp223
a(I24
I49
I0
S'great'
p224
I6
tp225
as(S'qwerty'
p226
S'keypad'
p227
tp228
(lp229
(I8
I30
I0
S'full'
p230
I0
tp231
a(I15
I2
F1.0
S'good'
p232
I0
tp233
as(S'media'
p234
S'player'
p235
tp236
(lp237
(I7
I6
F0.875
S'music'
p238
I0
tp239
as(S'sim'
p240
S'card'
p241
tp242
(lp243
(I24
I72
I0
S'old'
p244
I0
tp245
a(I30
I2
F0.375
S'new'
p246
I0
tp247
a(I40
I9
F1.0
S'good'
p248
I0
tp249
as(S'contacts'
p250
tp251
(lp252
(I8
I61
F0.5
S'illogical'
p253
I0
tp254
a(I10
I14
F1.0
S'good'
p255
I0
tp256
a(I11
I35
I0
S'most'
p257
I0
tp258
a(I11
I35
F0.875
S'important'
p259
I0
tp260
as(S'mp3'
p261
S'player'
p262
tp263
(lp264
(I42
I21
F0.25
S'used'
p265
I1
tp266
as(S'text'
p267
S'messages'
p268
tp269
(lp270
(I8
I41
F-0.5
S'regular'
p271
I0
tp272
a(I11
I32
F1.0
S'good'
p273
I0
tp274
a(I11
I32
F-0.375
S'simple'
p275
I0
tp276
a(I15
I39
I0
S'text'
p277
I0
tp278
a(I15
I39
I0
S'pic'
p279
I0
tp280
a(I2
I6
I0
S'total'
p281
I1
tp282
a(I11
I31
F-0.5
S'long'
p283
I1
tp284
a(I11
I32
F1.0
g273
I1
tp285
a(I11
I32
F-0.375
g275
I1
tp286
a(I15
I39
I0
g277
I1
tp287
a(I15
I39
I0
g279
I1
tp288
as(S'track'
p289
S'ball'
p290
tp291
(lp292
(I18
I8
F-0.625
S'other'
p293
I0
tp294
a(I37
I34
F-0.625
S'other'
p295
I0
tp296
as(S'talk'
p297
S'and'
p298
S'text'
p299
tp300
(lp301
(I42
I14
F0.875
S'nice'
p302
I0
tp303
a(I1
I5
F-0.75
S'difficult'
p304
I18
tp305
a(I8
I16
F0.375
S'new'
p306
I18
tp307
a(I8
I17
F0.375
S'new'
p308
I18
tp309
a(I8
I41
F-0.5
g271
I18
tp310
a(I15
I27
F-0.5
S'call'
p311
I18
tp312
a(I42
I14
F0.875
g302
I18
tp313
as(g192
S'data'
p314
S'plan'
p315
tp316
(lp317
(I7
I0
I0
S'latest'
p318
I0
tp319
a(I7
I0
I0
g318
I0
tp320
a(I0
I88
I0
S'cable'
p321
I13
tp322
a(I7
I0
I0
g318
I13
tp323
a(I37
I26
F0.125
S'charger'
p324
I13
tp325
as(S'micro'
p326
S'sd'
p327
S'card'
p328
tp329
(lp330
(I5
I0
I0
S'instructional'
p331
I0
tp332
a(I39
I27
I0
S'own'
p333
I0
tp334
a(I0
I82
F-0.125
S'overall'
p335
I0
tp336
a(I0
I82
F1.0
S'good'
p337
I0
tp338
a(I5
I0
I0
g331
I0
tp339
a(I39
I27
I0
g333
I0
tp340
as(S'texting'
p341
tp342
(lp343
(I12
I17
F0.625
S'perfect'
p344
I0
tp345
a(I19
I12
F-0.875
S'trouble'
p346
I0
tp347
a(I38
I33
F1.0
S'good'
p348
I0
tp349
a(I43
I3
F0.125
S'appropriate'
p350
I0
tp351
as(S'teenage'
p352
S'son'
p353
tp354
(lp355
(I3
I0
I0
S'standard'
p356
I0
tp357
as(S'amazon'
p358
tp359
(lp360
(I30
I27
F1.0
S'best'
p361
I13
tp362
as(S'calls'
p363
tp364
(lp365
(I8
I5
F-0.75
S'difficult'
p366
I0
tp367
a(I8
I61
F-0.625
S'bad'
p368
I0
tp369
a(I15
I25
F0.5
S'clear'
p370
I0
tp371
as.