(dp0
(S'something'
p1
tp2
(lp3
(I85
I6
I0
S'great'
p4
tp5
a(I108
I12
I0
S'more'
p6
tp7
as(S'battery'
p8
S'life'
p9
tp10
(lp11
(I4
I8
F1.0
S'good'
p12
tp13
a(I4
I8
F0.875
S'important'
p14
tp15
a(I26
I6
F-0.875
S'awful'
p16
tp17
a(I85
I4
F-0.625
S'bad'
p18
tp19
a(I92
I1
F1.0
S'good'
p20
tp21
a(I92
I1
F-0.25
S'battery'
p22
tp23
a(I95
I6
F-0.125
S'mine'
p24
tp25
a(I95
I6
F1.0
S'good'
p26
tp27
a(I97
I7
F-0.625
S'bad'
p28
tp29
a(I98
I0
F-0.75
S'short'
p30
tp31
a(I109
I2
F1.0
S'good'
p32
tp33
a(I138
I6
F1.0
S'good'
p34
tp35
as(S'plug'
p36
tp37
(lp38
(I80
I11
I0
S'most'
p39
tp40
a(I128
I5
F0.125
S'charger'
p41
tp42
as(S'minutes'
p43
tp44
(lp45
(I2
I9
I0
S'later'
p46
tp47
a(I50
I17
I0
S'next'
p48
tp49
a(I65
I0
I0
S'few'
p50
tp51
a(I138
I3
I0
S'few'
p52
tp53
as(S'problems'
p54
tp55
(lp56
(I62
I2
F-0.5
S'sure'
p57
tp58
as(S'money'
p59
tp60
(lp61
(I12
I4
F-0.75
S'sad'
p62
tp63
a(I73
I1
I0
S'full'
p64
tp65
a(I84
I7
F-0.625
S'glad'
p66
tp67
a(I94
I6
F0.375
S'extra'
p68
tp69
as(S'bought'
p70
tp71
(lp72
(I63
I0
F-0.625
S'other'
p73
tp74
a(I63
I0
F0.375
S'new'
p75
tp76
as(S'screen'
p77
tp78
(lp79
(I13
I3
F0.75
S'breaking'
p80
tp81
a(I17
I0
F0.5
S'touch'
p82
tp83
a(I32
I3
F0.375
S'extra'
p84
tp85
a(I50
I7
I0
S'finger'
p86
tp87
a(I51
I4
I0
S'sensitive'
p88
tp89
a(I51
I8
F1.0
S'better'
p90
tp91
a(I66
I0
F0.5
S'touch'
p92
tp93
a(I71
I2
F0.375
S'meant'
p94
tp95
a(I80
I7
F0.5
S'touch'
p96
tp97
a(I80
I7
F0.625
S'easy'
p98
tp99
a(I97
I5
F0.5
S'true'
p100
tp101
a(I131
I3
F-0.375
S'small'
p102
tp103
a(I131
I3
F0.5
S'touch'
p104
tp105
a(I138
I11
F0.5
S'touch'
p106
tp107
as(S'look'
p108
tp109
(lp110
(I96
I0
F0.875
S'nice'
p111
tp112
as(S'reviews'
p113
tp114
(lp115
(I19
I0
F0.125
S'first'
p116
tp117
a(I24
I2
F-0.875
S'negative'
p118
tp119
a(I45
I3
F-0.625
S'bad'
p120
tp121
a(I75
I4
I0
S'many'
p122
tp123
a(I75
I4
F-0.625
S'bad'
p124
tp125
a(I88
I1
F-0.625
S'bad'
p126
tp127
a(I106
I0
F-0.5
S'poor'
p128
tp129
a(I135
I1
F-0.625
S'bad'
p130
tp131
a(I143
I1
F1.0
S'good'
p132
tp133
as(S'liveview'
p134
tp135
(lp136
(I4
I2
F-0.625
S'light'
p137
tp138
a(I4
I8
I0
S'android'
p139
tp140
a(I6
I0
F0.625
S'easy'
p141
tp142
a(I6
I0
I0
S'more'
p143
tp144
a(I40
I2
I0
S'more'
p145
tp146
a(I51
I1
I0
S'android'
p147
tp148
a(I57
I12
F-0.75
S'difficult'
p149
tp150
a(I75
I9
F0.625
S'necessary'
p151
tp152
a(I79
I5
F0.625
S'necessary'
p153
tp154
a(I80
I13
F-0.5
S'open'
p155
tp156
a(I107
I0
F0.625
S'straight'
p157
tp158
as(S'watch'
p159
tp160
(lp161
(I2
I5
I0
S'next'
p162
tp163
a(I4
I5
I0
S'included'
p164
tp165
a(I7
I1
I0
S'pic'
p166
tp167
a(I7
I2
F-0.5
S'regular'
p168
tp169
a(I13
I0
I0
S'android'
p170
tp171
a(I14
I0
F0.875
S'attractive'
p172
tp173
a(I21
I8
I0
S'pebble'
p174
tp175
a(I26
I0
F1.0
S'best'
p176
tp177
a(I26
I5
I0
S'standard'
p178
tp179
a(I33
I0
F-0.125
S'overall'
p180
tp181
a(I44
I0
I0
S'great'
p182
tp183
a(I44
I0
F0.125
S'first'
p184
tp185
a(I81
I3
F0.875
S'nice'
p186
tp187
a(I93
I0
F0.75
S'worth'
p188
tp189
a(I111
I0
F1.0
S'best'
p190
tp191
a(I116
I8
F-0.625
S'other'
p192
tp193
a(I116
I22
F0.5
S'fashionable'
p194
tp195
a(I122
I0
F0.5
S'bought'
p196
tp197
a(I122
I0
F-0.5
S'regular'
p198
tp199
a(I128
I5
F-0.75
S'difficult'
p200
tp201
as(S'connection'
p202
tp203
(lp204
(I5
I0
F-0.75
S'short'
p205
tp206
a(I20
I1
F0.125
S'solid'
p207
tp208
a(I50
I11
F0.875
S'lucky'
p209
tp210
a(I53
I3
F0.375
S'reliable'
p211
tp212
a(I54
I1
I0
S'more'
p213
tp214
a(I58
I0
F1.0
S'good'
p215
tp216
a(I75
I6
F0.125
S'solid'
p217
tp218
a(I79
I6
I0
S'even'
p219
tp220
a(I95
I1
I0
S'minimal'
p221
tp222
a(I116
I3
I0
S'more'
p223
tp224
a(I142
I0
F0.375
S'reliable'
p225
tp226
as(S'sync'
p227
tp228
(lp229
(I75
I8
I0
S'signal'
p230
tp231
as(S'touch'
p232
tp233
(lp234
(I5
I1
F0.5
S'true'
p235
tp236
a(I21
I8
I0
S'full'
p237
tp238
a(I101
I0
F-0.125
S'overall'
p239
tp240
a(I101
I0
F-0.625
S'average'
p241
tp242
a(I101
I0
F-0.75
S'difficult'
p243
tp244
a(I138
I11
F0.25
S'responsive'
p245
tp246
as(S'range'
p247
tp248
(lp249
(I35
I5
F0.5
S'stronger'
p250
tp251
a(I75
I5
I0
S'signal'
p252
tp253
a(I97
I2
F-0.75
S'short'
p254
tp255
as(S'smartwatch'
p256
tp257
(lp258
(I44
I0
F0.375
S'watched'
p259
tp260
a(I49
I4
F0.125
S'able'
p261
tp262
a(I94
I2
I0
S'many'
p263
tp264
a(I94
I2
I0
S'more'
p265
tp266
a(I95
I14
F-0.375
S'fanciest'
p267
tp268
a(I95
I14
F0.375
S'available'
p269
tp270
a(I140
I3
F1.0
S'best'
p271
tp272
a(I140
I3
F0.375
S'available'
p273
tp274
a(I140
I4
F-0.25
S'google'
p275
tp276
a(I140
I4
F1.0
S'better'
p277
tp278
a(I140
I4
I0
S'appear'
p279
tp280
as(S'sony'
p281
tp282
(lp283
(I14
I0
F0.125
S'first'
p284
tp285
a(I75
I8
I0
S'cool'
p286
tp287
a(I84
I7
I0
S'pebble'
p288
tp289
a(I94
I6
I0
S'full'
p290
tp291
a(I140
I4
I0
S'same'
p292
tp293
a(I140
I4
F0.625
S'easier'
p294
tp295
as(S'view'
p296
tp297
(lp298
(I99
I0
F0.5
S'live'
p299
tp300
a(I99
I3
F0.5
S'live'
p301
tp302
a(I99
I3
F0.5
S'live'
p303
tp304
a(I129
I4
F0.5
S'live'
p305
tp306
as(S'bluetooth'
p307
tp308
(lp309
(I66
I2
I0
S'creative'
p310
tp311
a(I79
I3
F-0.625
S'other'
p312
tp313
a(I106
I8
F0.125
S'able'
p314
tp315
as(S'nothing'
p316
tp317
(lp318
(I70
I1
I0
S'more'
p319
tp320
a(I72
I2
F1.0
S'good'
p321
tp322
as(S'fine'
p323
tp324
(lp325
(I122
I0
F0.75
S'due'
p326
tp327
as(S'product'
p328
tp329
(lp330
(I4
I10
F-0.625
S'unfinished'
p331
tp332
a(I11
I0
I0
S'great'
p333
tp334
a(I22
I0
I0
S'old'
p335
tp336
a(I67
I1
F1.0
S'good'
p337
tp338
a(I69
I0
I0
S'great'
p339
tp340
a(I75
I3
I0
S'cool'
p341
tp342
a(I75
I10
I0
S'great'
p343
tp344
a(I75
I12
F-0.625
S'unfinished'
p345
tp346
a(I86
I2
I0
S'great'
p347
tp348
a(I89
I2
F1.0
S'good'
p349
tp350
a(I92
I0
F-0.125
S'overall'
p351
tp352
a(I92
I0
F0.75
S'worth'
p353
tp354
a(I92
I3
F-0.125
S'overall'
p355
tp356
a(I92
I3
I0
S'cool'
p357
tp358
a(I124
I3
F-0.25
S'ready'
p359
tp360
a(I135
I0
F0.75
S'worth'
p361
tp362
as(S'european'
p363
S'charger'
p364
tp365
(lp366
(I59
I0
I0
S'european'
p367
tp368
a(I80
I20
I0
S'european'
p369
tp370
a(I84
I2
I0
S'european'
p371
tp372
a(I128
I1
I0
S'european'
p373
tp374
as(S'right'
p375
tp376
(lp377
(I4
I7
F-0.375
S'top'
p378
tp379
a(I55
I0
F-0.5
S'sure'
p380
tp381
a(I66
I0
F-0.375
S'top'
p382
tp383
as(S'unit'
p384
tp385
(lp386
(I95
I6
F-0.625
S'free'
p387
tp388
as(S'things'
p389
tp390
(lp391
(I72
I2
F-0.625
S'bad'
p392
tp393
a(I116
I20
I0
S'many'
p394
tp395
as(S'find'
p396
tp397
(lp398
(I95
I7
F-0.125
S'cant'
p399
tp400
as(S'cool'
p401
tp402
(lp403
(I122
I0
I0
S'few'
p404
tp405
as(S'watch'
p406
S'band'
p407
tp408
(lp409
(I2
I5
I0
g162
tp410
a(I48
I1
F0.375
S'new'
p411
tp412
a(I128
I5
F-0.75
g200
tp413
as(S'band'
p414
tp415
(lp416
(I48
I1
F0.375
g411
tp417
a(I129
I5
I0
S'different'
p418
tp419
as(S'messages'
p420
tp421
(lp422
(I37
I2
I0
S'text'
p423
tp424
a(I52
I1
F-0.875
S'negative'
p425
tp426
a(I126
I6
F-0.5
S'sure'
p427
tp428
as(S'live'
p429
S'view'
p430
tp431
(lp432
(I99
I0
F0.5
g299
tp433
a(I99
I3
F0.5
g301
tp434
a(I99
I3
F0.5
g303
tp435
a(I129
I4
F0.5
g305
tp436
as(S'firmware'
p437
tp438
(lp439
(I37
I5
I0
S'latest'
p440
tp441
a(I37
I6
F-0.5
S'sure'
p442
tp443
a(I37
I6
I0
S'update'
p444
tp445
a(I37
I6
I0
S'latest'
p446
tp447
a(I75
I10
F0.375
S'new'
p448
tp449
a(I129
I0
F0.125
S'first'
p450
tp451
as(S'music'
p452
S'player'
p453
tp454
(lp455
(I84
I4
I0
S'android'
p456
tp457
as(S'liveview'
p458
S'application'
p459
tp460
(lp461
(I79
I5
F0.625
g153
tp462
as(S'strap'
p463
tp464
(lp465
(I95
I6
F-0.75
S'comfortable'
p466
tp467
a(I95
I6
F0.625
S'aesthetic'
p468
tp469
a(I95
I7
F0.25
S'original'
p470
tp471
as(S'micro'
p472
S'usb'
p473
tp474
(lp475
(I49
I2
I0
S'standard'
p476
tp477
a(I84
I3
I0
S'standard'
p478
tp479
as(S'play'
p480
S'store'
p481
tp482
(lp483
(I25
I0
F-0.875
S'awful'
p484
tp485
as(S'works'
p486
tp487
(lp488
(I98
I0
I0
S'great'
p489
tp490
a(I126
I0
I0
S'great'
p491
tp492
as(S'great'
p493
tp494
(lp495
(I86
I3
I0
S'great'
p496
tp497
a(I86
I3
F0.125
S'able'
p498
tp499
as(S'apps'
p500
tp501
(lp502
(I0
I1
I0
S'many'
p503
tp504
a(I49
I3
F0.625
S'easy'
p505
tp506
a(I56
I0
I0
S'useful'
p507
tp508
a(I94
I2
I0
S'more'
p509
tp510
a(I109
I1
F-0.375
S'simple'
p511
tp512
a(I128
I3
F-0.625
S'useless'
p513
tp514
as(S'design'
p515
S'flaw'
p516
tp517
(lp518
(I80
I4
F0.125
S'first'
p519
tp520
a(I122
I0
I0
S'many'
p521
tp522
as(S'smart'
p523
tp524
(lp525
(I64
I4
F0.375
S'new'
p526
tp527
a(I69
I0
F1.0
S'best'
p528
tp529
a(I70
I2
I0
S'promising'
p530
tp531
a(I75
I11
F0.375
S'new'
p532
tp533
a(I86
I4
I0
S'close'
p534
tp535
as(S'software'
p536
tp537
(lp538
(I94
I0
I0
S'different'
p539
tp540
a(I106
I2
I0
S'latest'
p541
tp542
as(S'read'
p543
S'text'
p544
S'messages'
p545
tp546
(lp547
(I37
I2
I0
g423
tp548
as(S'thing'
p549
tp550
(lp551
(I57
I10
F0.25
S'main'
p552
tp553
a(I60
I0
I0
S'only'
p554
tp555
a(I80
I19
I0
S'wish'
p556
tp557
a(I94
I0
F-0.875
S'negative'
p558
tp559
a(I122
I0
I0
S'same'
p560
tp561
as(S'play'
p562
tp563
(lp564
(I106
I7
F-0.25
S'google'
p565
tp566
a(I112
I2
F-0.25
S'google'
p567
tp568
as(S'update'
p569
tp570
(lp571
(I57
I10
F0.125
S'last'
p572
tp573
a(I57
I11
F-0.125
S'mine'
p574
tp575
a(I75
I8
F0.125
S'last'
p576
tp577
a(I95
I1
F0.25
S'recent'
p578
tp579
a(I95
I1
F0.375
S'new'
p580
tp581
a(I137
I5
F-0.5
S'sure'
p582
tp583
as(S'device'
p584
tp585
(lp586
(I1
I0
F0.375
S'interesting'
p587
tp588
a(I8
I0
F1.0
S'good'
p589
tp590
a(I34
I0
I0
S'great'
p591
tp592
a(I53
I4
F-0.5
S'regular'
p593
tp594
a(I55
I0
F-0.125
S'mine'
p595
tp596
a(I57
I6
I0
S'most'
p597
tp598
a(I57
I6
F-0.875
S'hard'
p599
tp600
a(I85
I0
I0
S'cool'
p601
tp602
a(I85
I1
I0
S'great'
p603
tp604
a(I85
I10
F-0.625
S'bad'
p605
tp606
a(I94
I5
F0.125
S'first'
p607
tp608
a(I94
I5
I0
S'real'
p609
tp610
a(I122
I0
F0.5
S'true'
p611
tp612
a(I122
I0
I0
S'more'
p613
tp614
a(I136
I0
F1.0
S'better'
p615
tp616
a(I138
I10
F0.625
S'easy'
p617
tp618
as(S'usb'
p619
S'port'
p620
tp621
(lp622
(I4
I8
I0
S'included'
p623
tp624
as(S'text'
p625
S'messages'
p626
tp627
(lp628
(I37
I2
I0
g423
tp629
a(I52
I1
F-0.875
g425
tp630
as(S'music'
p631
tp632
(lp633
(I84
I4
I0
g456
tp634
as(S'smart'
p635
S'watch'
p636
tp637
(lp638
(I21
I8
I0
g174
tp639
a(I44
I0
I0
g182
tp640
a(I44
I0
F0.125
g184
tp641
a(I64
I4
F0.375
g526
tp642
a(I69
I0
F1.0
g528
tp643
a(I70
I2
I0
g530
tp644
a(I75
I11
F0.375
g532
tp645
a(I86
I4
I0
g534
tp646
as(S'control'
p647
tp648
(lp649
(I44
I0
F0.125
S'able'
p650
tp651
a(I53
I2
F0.875
S'music'
p652
tp653
a(I80
I17
I0
S'full'
p654
tp655
a(I94
I3
F0.625
S'easy'
p656
tp657
as(S'calls'
p658
tp659
(lp660
(I85
I9
I0
S'great'
p661
tp662
a(I105
I6
I0
S'great'
p663
tp664
as(S'price'
p665
tp666
(lp667
(I8
I2
F-0.125
S'overall'
p668
tp669
a(I28
I0
I0
S'incredible'
p670
tp671
a(I42
I5
F0.375
S'much'
p672
tp673
a(I64
I2
F0.75
S'worth'
p674
tp675
a(I64
I4
F0.375
S'new'
p676
tp677
a(I69
I0
F-0.25
S'low'
p678
tp679
a(I70
I0
F0.75
S'worth'
p680
tp681
a(I84
I9
I0
S'great'
p682
tp683
a(I88
I1
F-0.25
S'low'
p684
tp685
a(I95
I0
F0.125
S'capable'
p686
tp687
a(I95
I4
I0
S'incredible'
p688
tp689
a(I97
I0
I0
S'great'
p690
tp691
as(S'liveview'
p692
S'app'
p693
tp694
(lp695
(I4
I2
F0.375
S'available'
p696
tp697
a(I4
I2
F-0.625
g137
tp698
a(I4
I8
I0
g139
tp699
a(I79
I5
F0.625
g153
tp700
a(I80
I13
F-0.5
g155
tp701
a(I107
I0
F0.625
g157
tp702
as(S'battery'
p703
tp704
(lp705
(I26
I6
F-0.875
g16
tp706
a(I58
I0
F1.0
S'good'
p707
tp708
a(I63
I1
F-0.625
S'green'
p709
tp710
a(I70
I1
I0
S'fast'
p711
tp712
a(I93
I2
I0
S'great'
p713
tp714
a(I109
I2
F1.0
g32
tp715
a(I131
I0
F0.125
S'last'
p716
tp717
a(I131
I2
F0.125
S'last'
p718
tp719
as(S'control'
p720
S'music'
p721
tp722
(lp723
(I53
I2
F0.875
g652
tp724
a(I84
I4
I0
g456
tp725
as(S'good'
p726
tp727
(lp728
(I108
I7
F-0.75
S'bright'
p729
tp730
as(S'last'
p731
S'year'
p732
tp733
(lp734
(I137
I5
F0.125
S'last'
p735
tp736
as(S'charger'
p737
tp738
(lp739
(I59
I0
I0
g367
tp740
a(I66
I3
I0
S'same'
p741
tp742
a(I80
I20
I0
g369
tp743
a(I84
I2
I0
g371
tp744
a(I93
I9
F0.625
S'easy'
p745
tp746
a(I93
I9
F-0.75
S'hate'
p747
tp748
a(I128
I1
I0
g373
tp749
as(S'time'
p750
tp751
(lp752
(I50
I3
F-0.5
S'long'
p753
tp754
a(I50
I16
F0.125
S'first'
p755
tp756
a(I50
I16
F0.125
S'able'
p757
tp758
a(I50
I19
F-0.75
S'short'
p759
tp760
a(I51
I1
F0.625
S'positive'
p761
tp762
a(I53
I6
I0
S'least'
p763
tp764
a(I53
I6
I0
S'least'
p765
tp766
a(I63
I2
F0.75
S'worth'
p767
tp768
a(I71
I5
I0
S'real'
p769
tp770
a(I79
I3
F0.125
S'first'
p771
tp772
a(I97
I11
F0.125
S'first'
p773
tp774
a(I97
I13
F0.125
S'first'
p775
tp776
a(I100
I5
F0.5
S'expensive'
p777
tp778
a(I122
I0
F-0.5
S'long'
p779
tp780
as(S'hours'
p781
tp782
(lp783
(I1
I2
I0
S'few'
p784
tp785
a(I14
I0
I0
S'few'
p786
tp787
a(I45
I2
I0
S'few'
p788
tp789
a(I50
I18
F-0.125
S'frustrate'
p790
tp791
a(I117
I0
F-0.5
S'less'
p792
tp793
as(S'work'
p794
tp795
(lp796
(I80
I10
I0
S'few'
p797
tp798
a(I80
I10
F0.875
S'nice'
p799
tp800
a(I84
I2
I0
S'big'
p801
tp802
a(I84
I2
F-0.875
S'negative'
p803
tp804
a(I131
I2
F0.375
S'much'
p805
tp806
as(S'clip'
p807
tp808
(lp809
(I49
I1
F0.375
S'much'
p810
tp811
a(I49
I1
I0
S'very'
p812
tp813
a(I49
I2
F-0.5
S'sure'
p814
tp815
a(I116
I19
F-0.25
S'perpendicular'
p816
tp817
as(S'life'
p818
tp819
(lp820
(I4
I8
F1.0
g12
tp821
a(I4
I8
F0.875
g14
tp822
a(I85
I1
I0
S'real'
p823
tp824
a(I85
I1
F-0.125
S'slow'
p825
tp826
a(I85
I4
F-0.625
g18
tp827
a(I92
I1
F1.0
g20
tp828
a(I92
I1
F-0.25
g22
tp829
a(I95
I6
F-0.125
g24
tp830
a(I95
I6
F1.0
g26
tp831
a(I97
I7
F-0.625
g28
tp832
a(I98
I0
F-0.75
g30
tp833
a(I138
I6
F1.0
g34
tp834
as(S'facebook'
p835
tp836
(lp837
(I137
I4
F0.125
S'able'
p838
tp839
as(S'touch'
p840
S'screen'
p841
tp842
(lp843
(I5
I1
F0.5
g235
tp844
a(I17
I0
F0.5
g82
tp845
a(I21
I8
I0
g237
tp846
a(I51
I4
I0
g88
tp847
a(I66
I0
F0.5
g92
tp848
a(I80
I7
F0.5
g96
tp849
a(I80
I7
F0.625
g98
tp850
a(I131
I3
F-0.375
g102
tp851
a(I131
I3
F0.5
g104
tp852
a(I138
I11
F0.25
g245
tp853
a(I138
I11
F0.5
g106
tp854
as(S'wrist'
p855
tp856
(lp857
(I28
I0
F0.625
S'easy'
p858
tp859
a(I70
I1
F-0.375
S'ugly'
p860
tp861
a(I95
I6
I0
S'standard'
p862
tp863
as.