(dp0
(S'mobile'
p1
tp2
(lp3
(I183
I1
I0
S'many'
p4
tp5
as(S'of'
p6
S'nternal'
p7
S'storage'
p8
tp9
(lp10
(I7
I9
I0
S'internal'
p11
tp12
a(I7
I10
I0
S'internal'
p13
tp14
a(I7
I10
F0.375
S'extra'
p15
tp16
a(I76
I11
I0
S'internal'
p17
tp18
a(I180
I4
F-0.375
S'smallest'
p19
tp20
a(I180
I4
I0
S'internal'
p21
tp22
a(I180
I4
F0.375
S'available'
p23
tp24
a(I180
I7
I0
S'internal'
p25
tp26
a(I196
I4
I0
S'internal'
p27
tp28
a(I196
I9
I0
S'internal'
p29
tp30
a(I196
I10
I0
S'internal'
p31
tp32
as(S'keyboard'
p33
tp34
(lp35
(I26
I15
I0
S'real'
p36
tp37
a(I117
I1
I0
S'physical'
p38
tp39
a(I117
I1
F0.875
S'happy'
p40
tp41
a(I120
I1
I0
S'android'
p42
tp43
a(I122
I4
I0
S'big'
p44
tp45
a(I186
I5
I0
S'great'
p46
tp47
a(I194
I0
I0
S'slider'
p48
tp49
a(I208
I2
F-0.375
S'small'
p50
tp51
as(S'touch'
p52
tp53
(lp54
(I19
I6
F0.125
S'first'
p55
tp56
a(I32
I3
F1.0
S'good'
p57
tp58
a(I40
I0
F0.125
S'first'
p59
tp60
a(I62
I2
F0.125
S'first'
p61
tp62
a(I86
I4
I0
S'haptic'
p63
tp64
a(I87
I21
F-0.375
S'double'
p65
tp66
a(I112
I0
I0
S'many'
p67
tp68
a(I160
I2
F-0.75
S'unresponsive'
p69
tp70
a(I175
I5
F0.25
S'responsive'
p71
tp72
as(S'years'
p73
tp74
(lp75
(I15
I1
F-0.625
S'bad'
p76
tp77
a(I30
I1
I0
S'many'
p78
tp79
a(I124
I6
I0
S'more'
p80
tp81
a(I131
I0
F0.125
S'last'
p82
tp83
a(I131
I41
F0.125
S'last'
p84
tp85
a(I155
I5
I0
S'few'
p86
tp87
a(I199
I3
I0
S'many'
p88
tp89
as(S'sprint'
p90
tp91
(lp92
(I87
I35
I0
S'weird'
p93
tp94
a(I189
I0
I0
S'merged'
p95
tp96
as(S'boost'
p97
S'mobile'
p98
S'service'
p99
tp100
(lp101
(I8
I1
F1.0
S'good'
p102
tp103
a(I21
I3
F0.25
S'boost'
p104
tp105
a(I21
I3
I0
S'mobile'
p106
tp107
a(I23
I0
I0
S'great'
p108
tp109
a(I26
I0
F0.625
S'easy'
p110
tp111
a(I43
I15
I0
S'great'
p112
tp113
a(I88
I19
F-0.5
S'sure'
p114
tp115
a(I96
I2
I0
S'mobile'
p116
tp117
a(I96
I2
F1.0
S'good'
p118
tp119
a(I190
I3
F-0.875
S'trouble'
p120
tp121
as(S'to'
p122
S'sd'
p123
S'card'
p124
tp125
(lp126
(I67
I5
F0.5
S'drive'
p127
tp128
a(I67
I5
I0
S'external'
p129
tp130
a(I67
I8
F0.25
S'larger'
p131
tp132
a(I67
I9
I0
S'external'
p133
tp134
a(I91
I2
I0
S'sd'
p135
tp136
a(I128
I6
F-0.25
S'higher'
p137
tp138
a(I128
I6
I0
S'sd'
p139
tp140
a(I196
I10
F1.0
S'good'
p141
tp142
a(I208
I5
I0
S'external'
p143
tp144
as(S'entry'
p145
S'level'
p146
S'android'
p147
tp148
(lp149
(I46
I16
F0.375
S'new'
p150
tp151
a(I46
I16
I0
S'entry'
p152
tp153
a(I87
I20
F-0.5
S'lesser'
p154
tp155
a(I186
I0
I0
S'mobile'
p156
tp157
a(I208
I0
F0.875
S'nice'
p158
tp159
a(I208
I0
F-0.75
S'little'
p160
tp161
as(S'on'
p162
S'boost'
p163
S'mobile'
p164
tp165
(lp166
(I88
I19
F-0.5
g114
tp167
a(I106
I3
F0.875
S'happy'
p168
tp169
a(I183
I1
I0
g4
tp170
as(S'sd'
p171
S'card'
p172
tp173
(lp174
(I67
I5
F0.5
g127
tp175
a(I67
I5
I0
g129
tp176
a(I67
I8
F0.25
g131
tp177
a(I67
I9
I0
g133
tp178
a(I91
I2
I0
g135
tp179
a(I128
I6
F-0.25
g137
tp180
a(I128
I6
I0
g139
tp181
a(I196
I10
F1.0
g141
tp182
a(I208
I5
I0
g143
tp183
as(S'customer'
p184
tp185
(lp186
(I64
I10
F-0.875
S'worst'
p187
tp188
a(I73
I2
I0
S'more'
p189
tp190
a(I182
I5
F1.0
S'good'
p191
tp192
a(I182
I29
F1.0
S'best'
p193
tp194
a(I188
I1
F0.125
S'first'
p195
tp196
a(I188
I1
F0.5
S'second'
p197
tp198
a(I188
I1
F-0.625
S'bad'
p199
tp200
as(S'apps'
p201
S'to'
p202
S'sd'
p203
tp204
(lp205
(I38
I2
I0
S'many'
p206
tp207
a(I38
I2
F0.5
S'possible'
p208
tp209
a(I49
I20
I0
S'most'
p210
tp211
a(I67
I5
I0
S'internal'
p212
tp213
a(I67
I5
F0.5
g127
tp214
a(I67
I5
I0
g129
tp215
a(I67
I8
F0.25
g131
tp216
a(I67
I8
I0
S'more'
p217
tp218
a(I88
I4
F-0.5
S'sure'
p219
tp220
a(I91
I2
F-0.5
S'certain'
p221
tp222
a(I113
I5
F-0.5
S'certain'
p223
tp224
a(I155
I13
I0
S'most'
p225
tp226
a(I178
I2
I0
S'such'
p227
tp228
a(I178
I3
F-0.25
S'google'
p229
tp230
a(I178
I3
I0
S'own'
p231
tp232
a(I178
I3
I0
S'such'
p233
tp234
a(I178
I8
F0.25
S'favorite'
p235
tp236
a(I185
I3
F0.875
S'nice'
p237
tp238
a(I196
I7
F-0.5
S'certain'
p239
tp240
a(I196
I9
I0
S'more'
p241
tp242
a(I208
I5
I0
g143
tp243
as(S'anything'
p244
tp245
(lp246
(I60
I0
I0
S'more'
p247
tp248
a(I100
I4
F1.0
S'good'
p249
tp250
a(I121
I9
I0
S'more'
p251
tp252
a(I124
I22
I0
S'more'
p253
tp254
a(I124
I33
F-0.25
S'intensive'
p255
tp256
a(I124
I33
I0
S'awhile'
p257
tp258
a(I124
I33
F0.125
S'key'
p259
tp260
as(S'charge'
p261
tp262
(lp263
(I9
I13
I0
S'full'
p264
tp265
a(I36
I2
F1.0
S'good'
p266
tp267
a(I43
I14
F0.25
S'original'
p268
tp269
a(I43
I14
I0
S'monthly'
p270
tp271
a(I94
I0
F0.625
S'hold'
p272
tp273
a(I148
I11
I0
S'full'
p274
tp275
a(I184
I7
F0.125
S'last'
p276
tp277
a(I186
I0
F-0.75
S'single'
p278
tp279
as(S'good'
p280
tp281
(lp282
(I61
I0
F-0.5
S'less'
p283
tp284
as(S'card'
p285
tp286
(lp287
(I2
I0
F-0.125
S'cant'
p288
tp289
a(I2
I0
F-0.875
S'load'
p290
tp291
a(I43
I9
I0
S'old'
p292
tp293
a(I63
I7
F0.625
S'easy'
p294
tp295
a(I91
I2
I0
g135
tp296
a(I123
I4
F0.125
S'able'
p297
tp298
a(I128
I6
F-0.25
g137
tp299
a(I128
I6
I0
g139
tp300
a(I196
I10
F1.0
g141
tp301
as(S'love'
p302
tp303
(lp304
(I19
I5
F-0.125
S'mine'
p305
tp306
as(S'customer'
p307
S'service'
p308
tp309
(lp310
(I21
I3
F0.25
g104
tp311
a(I21
I3
I0
g106
tp312
a(I43
I15
I0
g112
tp313
a(I64
I10
F-0.875
g187
tp314
a(I65
I7
F0.125
S'enough'
p315
tp316
a(I164
I4
I0
S'internet'
p317
tp318
a(I182
I5
F1.0
g191
tp319
a(I182
I29
F1.0
g193
tp320
a(I188
I1
F0.125
g195
tp321
a(I188
I1
F0.5
g197
tp322
a(I188
I1
F-0.625
g199
tp323
as(S'nternal'
p324
S'storage'
p325
tp326
(lp327
(I7
I3
I0
S'internal'
p328
tp329
a(I7
I9
I0
g11
tp330
a(I7
I10
I0
g13
tp331
a(I7
I10
F0.375
g15
tp332
a(I14
I2
I0
S'internal'
p333
tp334
a(I76
I10
I0
S'internal'
p335
tp336
a(I76
I11
I0
g17
tp337
a(I91
I1
I0
S'internal'
p338
tp339
a(I180
I4
F-0.375
g19
tp340
a(I180
I4
I0
g21
tp341
a(I180
I4
F0.375
g23
tp342
a(I180
I7
I0
g25
tp343
a(I196
I4
I0
g27
tp344
a(I196
I9
I0
g29
tp345
a(I196
I10
I0
g31
tp346
as(S'fast'
p347
tp348
(lp349
(I184
I3
F0.625
S'easy'
p350
tp351
as(S'every'
p352
tp353
(lp354
(I196
I4
F-0.75
S'single'
p355
tp356
as(S'times'
p357
tp358
(lp359
(I6
I0
I0
S'many'
p360
tp361
a(I6
I0
I0
S'many'
p362
tp363
a(I8
I9
I0
S'many'
p364
tp365
a(I20
I11
F1.0
S'better'
p366
tp367
a(I26
I10
I0
S'few'
p368
tp369
a(I32
I1
I0
S'sensitive'
p370
tp371
a(I32
I1
I0
S'many'
p372
tp373
a(I63
I15
F1.0
S'better'
p374
tp375
a(I73
I7
F0.125
S'able'
p376
tp377
a(I77
I3
F0.375
S'much'
p378
tp379
a(I87
I27
I0
S'total'
p380
tp381
a(I140
I1
F0.375
S'working'
p382
tp383
a(I174
I1
F0.5
S'clear'
p384
tp385
a(I176
I2
I0
S'few'
p386
tp387
as(S'problem'
p388
tp389
(lp390
(I26
I5
I0
S'solved'
p391
tp392
a(I33
I1
I0
S'only'
p393
tp394
a(I63
I10
I0
S'big'
p395
tp396
a(I64
I12
F-0.375
S'simple'
p397
tp398
a(I107
I0
F0.5
S'temporary'
p399
tp400
a(I123
I3
I0
S'only'
p401
tp402
a(I124
I7
F0.125
S'further'
p403
tp404
a(I158
I2
I0
S'only'
p405
tp406
a(I165
I5
F-0.625
S'other'
p407
tp408
a(I166
I1
I0
S'only'
p409
tp410
a(I203
I1
I0
S'same'
p411
tp412
as(S'smartphone'
p413
tp414
(lp415
(I12
I0
F0.125
S'first'
p416
tp417
a(I23
I0
I0
S'android'
p418
tp419
a(I23
I0
F0.625
S'aware'
p420
tp421
a(I46
I29
I0
S'latest'
p422
tp423
a(I46
I32
I0
S'latest'
p424
tp425
a(I46
I32
F0.75
S'worth'
p426
tp427
a(I86
I4
I0
S'basic'
p428
tp429
a(I122
I1
F0.125
S'first'
p430
tp431
a(I133
I0
I0
S'fast'
p432
tp433
a(I133
I0
I0
S'great'
p434
tp435
a(I134
I7
F0.125
S'first'
p436
tp437
a(I205
I1
I0
S'great'
p438
tp439
a(I206
I0
F0.125
S'first'
p440
tp441
as(S'email'
p442
tp443
(lp444
(I9
I7
F0.625
S'major'
p445
tp446
a(I77
I3
F0.875
S'music'
p447
tp448
a(I122
I13
I0
S'many'
p449
tp450
a(I141
I13
I0
S'least'
p451
tp452
a(I174
I4
F-0.25
S'google'
p453
tp454
as(S'money'
p455
tp456
(lp457
(I52
I6
F1.0
S'best'
p458
tp459
a(I62
I8
F1.0
S'better'
p460
tp461
as(S'price'
p462
tp463
(lp464
(I16
I1
F1.0
S'good'
p465
tp466
a(I16
I1
F1.0
S'good'
p467
tp468
a(I19
I8
F0.75
S'worth'
p469
tp470
a(I46
I43
I0
S'same'
p471
tp472
a(I47
I5
F0.625
S'right'
p473
tp474
a(I70
I7
I0
S'same'
p475
tp476
a(I75
I1
F-0.125
S'overall'
p477
tp478
a(I75
I1
I0
S'great'
p479
tp480
a(I75
I1
F0.25
S'boost'
p481
tp482
a(I95
I1
F1.0
S'good'
p483
tp484
a(I100
I7
I0
S'next'
p485
tp486
a(I100
I7
I0
S'big'
p487
tp488
a(I123
I7
I0
S'great'
p489
tp490
a(I128
I6
I0
S'same'
p491
tp492
a(I131
I38
I0
S'incredible'
p493
tp494
a(I142
I0
F-0.25
S'low'
p495
tp496
a(I168
I1
F1.0
S'better'
p497
tp498
a(I199
I4
F1.0
S'good'
p499
tp500
as(S'service'
p501
tp502
(lp503
(I8
I1
F1.0
g102
tp504
a(I18
I0
F-0.5
S'unlimited'
p505
tp506
a(I21
I3
F0.25
g104
tp507
a(I21
I3
I0
g106
tp508
a(I23
I0
I0
g108
tp509
a(I26
I0
F0.625
g110
tp510
a(I32
I2
I0
S'more'
p511
tp512
a(I43
I15
I0
g112
tp513
a(I46
I46
I0
S'prepaid'
p514
tp515
a(I65
I7
F0.125
g315
tp516
a(I81
I0
F1.0
S'good'
p517
tp518
a(I86
I8
I0
S'android'
p519
tp520
a(I90
I4
I0
S'great'
p521
tp522
a(I93
I11
I0
S'sprint'
p523
tp524
a(I93
I11
F0.75
S'due'
p525
tp526
a(I93
I11
F-0.5
S'poor'
p527
tp528
a(I93
I12
I0
S'least'
p529
tp530
a(I96
I2
I0
g116
tp531
a(I96
I2
F1.0
g118
tp532
a(I103
I2
I0
S'great'
p533
tp534
a(I121
I16
F1.0
S'good'
p535
tp536
a(I131
I13
F1.0
S'good'
p537
tp538
a(I160
I2
I0
S'internet'
p539
tp540
a(I160
I2
I0
S'later'
p541
tp542
a(I164
I4
I0
g317
tp543
a(I165
I13
F1.0
S'good'
p544
tp545
a(I169
I1
F1.0
S'better'
p546
tp547
a(I175
I4
I0
S'great'
p548
tp549
a(I190
I3
F-0.875
g120
tp550
a(I206
I5
I0
S'great'
p551
tp552
as(S'a'
p553
S'text'
p554
S'message'
p555
tp556
(lp557
(I32
I1
F-0.875
S'hard'
p558
tp559
as(S'memory'
p560
tp561
(lp562
(I8
I2
I0
S'full'
p563
tp564
a(I8
I2
I0
S'full'
p565
tp566
a(I23
I4
F-0.75
S'little'
p567
tp568
a(I23
I4
I0
S'internal'
p569
tp570
a(I23
I4
F-0.75
S'little'
p571
tp572
a(I25
I3
I0
S'full'
p573
tp574
a(I31
I2
I0
S'internal'
p575
tp576
a(I38
I2
F-0.375
S'small'
p577
tp578
a(I38
I2
F-0.375
S'small'
p579
tp580
a(I38
I2
I0
S'internal'
p581
tp582
a(I45
I2
I0
S'full'
p583
tp584
a(I45
I4
F-0.25
S'low'
p585
tp586
a(I45
I4
I0
S'internal'
p587
tp588
a(I46
I7
I0
S'big'
p589
tp590
a(I46
I7
F-0.875
S'negative'
p591
tp592
a(I46
I8
I0
S'internal'
p593
tp594
a(I46
I43
I0
S'internal'
p595
tp596
a(I48
I0
I0
S'internal'
p597
tp598
a(I56
I0
F-0.25
S'low'
p599
tp600
a(I63
I7
F0.375
S'new'
p601
tp602
a(I63
I7
F0.375
S'much'
p603
tp604
a(I83
I2
F0.75
S'due'
p605
tp606
a(I84
I3
I0
S'internal'
p607
tp608
a(I88
I4
I0
S'internal'
p609
tp610
a(I95
I2
I0
S'internal'
p611
tp612
a(I95
I2
F1.0
S'better'
p613
tp614
a(I103
I3
I0
S'internal'
p615
tp616
a(I104
I1
I0
S'internal'
p617
tp618
a(I105
I1
F-0.25
S'low'
p619
tp620
a(I105
I2
F0.25
S'larger'
p621
tp622
a(I105
I2
I0
S'high'
p623
tp624
a(I123
I3
I0
S'internal'
p625
tp626
a(I123
I4
I0
S'high'
p627
tp628
a(I124
I9
F0.25
S'bigger'
p629
tp630
a(I124
I9
I0
S'more'
p631
tp632
a(I131
I37
I0
S'internal'
p633
tp634
a(I131
I40
I0
S'internal'
p635
tp636
a(I138
I0
F0.375
S'much'
p637
tp638
a(I141
I2
F0.125
S'enough'
p639
tp640
a(I141
I2
I0
S'internal'
p641
tp642
a(I160
I0
I0
S'internal'
p643
tp644
a(I170
I0
I0
S'internal'
p645
tp646
a(I170
I1
F-0.25
S'low'
p647
tp648
a(I174
I2
I0
S'full'
p649
tp650
a(I178
I0
F-0.375
S'small'
p651
tp652
a(I178
I0
I0
S'internal'
p653
tp654
a(I178
I1
F0.375
S'available'
p655
tp656
a(I178
I1
I0
S'internal'
p657
tp658
a(I178
I9
F-0.5
S'open'
p659
tp660
a(I178
I9
I0
S'internal'
p661
tp662
a(I180
I1
F-0.75
S'wrong'
p663
tp664
a(I180
I3
I0
S'internal'
p665
tp666
a(I180
I5
F0.5
S'clear'
p667
tp668
a(I180
I5
F-0.25
S'low'
p669
tp670
a(I192
I2
I0
S'internal'
p671
tp672
a(I197
I2
I0
S'great'
p673
tp674
a(I197
I2
I0
S'internal'
p675
tp676
a(I207
I0
I0
S'internal'
p677
tp678
as(S'google'
p679
tp680
(lp681
(I38
I2
I0
S'standard'
p682
tp683
a(I84
I5
F-0.5
S'international'
p684
tp685
a(I178
I5
F-0.625
S'other'
p686
tp687
as(S'things'
p688
tp689
(lp690
(I9
I11
I0
S'many'
p691
tp692
a(I20
I12
F0.125
S'able'
p693
tp694
a(I36
I1
F-0.125
S'slow'
p695
tp696
a(I39
I0
I0
S'many'
p697
tp698
a(I49
I2
I0
S'coolest'
p699
tp700
a(I49
I2
F-0.625
S'earth'
p701
tp702
a(I49
I16
I0
S'only'
p703
tp704
a(I64
I1
I0
S'few'
p705
tp706
a(I69
I5
F-0.75
S'little'
p707
tp708
a(I87
I17
F0.5
S'expensive'
p709
tp710
a(I88
I3
I0
S'few'
p711
tp712
a(I88
I3
F1.0
S'best'
p713
tp714
a(I94
I0
I0
S'different'
p715
tp716
a(I122
I13
F-0.75
S'little'
p717
tp718
a(I136
I6
F-0.75
S'short'
p719
tp720
a(I141
I6
I0
S'different'
p721
tp722
a(I185
I2
I0
S'only'
p723
tp724
as(S'features'
p725
tp726
(lp727
(I24
I0
F1.0
S'good'
p728
tp729
a(I55
I1
F1.0
S'best'
p730
tp731
a(I117
I12
I0
S'hot'
p732
tp733
a(I117
I12
F0.375
S'new'
p734
tp735
a(I124
I27
F0.5
S'obvious'
p736
tp737
a(I127
I16
I0
S'many'
p738
tp739
a(I127
I16
F-0.625
S'other'
p740
tp741
a(I204
I1
I0
S'great'
p742
tp743
as(S'samsung'
p744
S'galaxy'
p745
S'prevail'
p746
tp747
(lp748
(I30
I3
F0.375
S'new'
p749
tp750
a(I203
I1
I0
S'galaxy'
p751
tp752
as(S'getting'
p753
tp754
(lp755
(I176
I5
F0.375
S'content'
p756
tp757
as(S'android'
p758
tp759
(lp760
(I20
I4
I0
S'great'
p761
tp762
a(I25
I0
F0.125
S'first'
p763
tp764
a(I38
I8
F-0.625
S'free'
p765
tp766
a(I46
I16
F0.375
g150
tp767
a(I48
I0
F1.0
S'best'
p768
tp769
a(I52
I0
F0.125
S'first'
p770
tp771
a(I52
I2
F-0.625
S'average'
p772
tp773
a(I61
I0
F0.125
S'first'
p774
tp775
a(I62
I1
F0.125
S'first'
p776
tp777
a(I73
I5
F0.125
S'first'
p778
tp779
a(I76
I2
F0.5
S'true'
p780
tp781
a(I92
I6
F0.5
S'reasonable'
p782
tp783
a(I101
I0
F0.125
S'first'
p784
tp785
a(I104
I3
I0
S'only'
p786
tp787
a(I138
I0
F0.5
S'loyal'
p788
tp789
a(I168
I3
F0.125
S'first'
p790
tp791
as(S'month'
p792
tp793
(lp794
(I29
I0
F0.125
S'last'
p795
tp796
a(I46
I30
I0
S'more'
p797
tp798
a(I61
I4
I0
S'monthly'
p799
tp800
a(I87
I32
F-0.625
S'average'
p801
tp802
a(I124
I6
I0
S'more'
p803
tp804
a(I138
I0
F0.5
S'whole'
p805
tp806
a(I165
I7
I0
S'next'
p807
tp808
a(I165
I8
F0.375
S'extra'
p809
tp810
a(I182
I29
F-0.5
S'unlimited'
p811
tp812
a(I186
I1
F-0.5
S'less'
p813
tp814
a(I201
I5
F0.125
S'last'
p815
tp816
as(S'network'
p817
tp818
(lp819
(I15
I1
F1.0
S'good'
p820
tp821
a(I18
I0
I0
S'national'
p822
tp823
a(I18
I0
F-0.5
S'less'
p824
tp825
a(I149
I0
I0
S'great'
p826
tp827
a(I149
I4
F0.375
S'honest'
p828
tp829
as(S'thing'
p830
tp831
(lp832
(I47
I3
I0
S'android'
p833
tp834
a(I63
I14
F1.0
S'good'
p835
tp836
a(I70
I6
I0
S'only'
p837
tp838
a(I74
I10
I0
S'android'
p839
tp840
a(I85
I2
F0.5
S'whole'
p841
tp842
a(I127
I14
I0
S'great'
p843
tp844
a(I128
I1
I0
S'more'
p845
tp846
a(I131
I42
F1.0
S'best'
p847
tp848
a(I165
I11
I0
S'great'
p849
tp850
a(I174
I3
F-0.75
S'stupid'
p851
tp852
a(I196
I10
I0
S'only'
p853
tp854
a(I200
I4
F-0.625
S'bad'
p855
tp856
as(g553
S'microsd'
p857
S'card'
p858
tp859
(lp860
(I196
I10
F1.0
g141
tp861
as(S'data'
p862
tp863
(lp864
(I46
I28
I0
S'most'
p865
tp866
a(I132
I2
F0.625
S'easy'
p867
tp868
as(S'00'
p869
g553
S'month'
p870
tp871
(lp872
(I124
I6
I0
g803
tp873
a(I138
I0
F0.5
g805
tp874
as(S'make'
p875
tp876
(lp877
(I69
I5
F0.75
S'wonder'
p878
tp879
as(S'work'
p880
tp881
(lp882
(I9
I5
F0.125
S'charger'
p883
tp884
a(I16
I0
I0
S'great'
p885
tp886
a(I50
I0
F0.375
S'new'
p887
tp888
a(I50
I0
I0
S'mobile'
p889
tp890
a(I107
I1
I0
S'signal'
p891
tp892
as(S'battery'
p893
S'life'
p894
tp895
(lp896
(I2
I0
F1.0
S'better'
p897
tp898
a(I24
I0
I0
S'very'
p899
tp900
a(I24
I0
F-0.75
S'short'
p901
tp902
a(I38
I4
F-0.375
S'double'
p903
tp904
a(I63
I9
F1.0
S'best'
p905
tp906
a(I73
I8
F1.0
S'good'
p907
tp908
a(I75
I0
I0
S'great'
p909
tp910
a(I84
I6
F1.0
S'good'
p911
tp912
a(I117
I7
I0
S'great'
p913
tp914
a(I118
I3
F-0.75
S'short'
p915
tp916
a(I120
I1
F0.5
S'told'
p917
tp918
a(I127
I2
F-0.625
S'bad'
p919
tp920
a(I129
I2
F-0.5
S'complaint'
p921
tp922
a(I129
I2
F-0.75
S'short'
p923
tp924
a(I142
I5
F-0.5
S'long'
p925
tp926
a(I155
I14
F-0.625
S'suck'
p927
tp928
a(I160
I0
F-0.875
S'awful'
p929
tp930
a(I164
I0
F-0.5
S'existent'
p931
tp932
a(I177
I4
F-0.75
S'short'
p933
tp934
a(I186
I0
F-0.625
S'bad'
p935
tp936
a(I206
I2
F-0.5
S'longest'
p937
tp938
as(g553
S'great'
p939
S'deal'
p940
tp941
(lp942
(I23
I0
I0
S'great'
p943
tp944
a(I49
I5
I0
S'great'
p945
tp946
a(I92
I4
I0
S'great'
p947
tp948
a(I122
I2
I0
S'great'
p949
tp950
a(I146
I0
I0
S'great'
p951
tp952
a(I172
I0
I0
S'mobile'
p953
tp954
as(S'bought'
p955
tp956
(lp957
(I109
I0
F0.375
S'went'
p958
tp959
as(S'with'
p960
S'boost'
p961
S'mobile'
p962
tp963
(lp964
(I106
I3
F0.875
g168
tp965
a(I183
I1
I0
g4
tp966
as(S'problems'
p967
tp968
(lp969
(I20
I3
I0
S'many'
p970
tp971
a(I24
I0
F-0.375
S'serious'
p972
tp973
a(I67
I10
F-0.125
S'present'
p974
tp975
a(I79
I2
I0
S'many'
p976
tp977
a(I84
I3
I0
S'few'
p978
tp979
a(I84
I3
F-0.375
S'small'
p980
tp981
a(I102
I1
I0
S'same'
p982
tp983
a(I151
I0
F0.5
S'technical'
p984
tp985
a(I151
I0
F0.125
S'able'
p986
tp987
a(I173
I0
I0
S'many'
p988
tp989
a(I173
I4
F0.25
S'biggest'
p990
tp991
a(I173
I17
I0
S'many'
p992
tp993
a(I173
I17
F0.625
S'major'
p994
tp995
a(I203
I1
F-0.125
S'mine'
p996
tp997
as(S'back'
p998
tp999
(lp1000
(I63
I16
I0
S'very'
p1001
tp1002
as(S'an'
p1003
S'entry'
p1004
S'level'
p1005
tp1006
(lp1007
(I46
I16
I0
g152
tp1008
a(I87
I20
F-0.5
g154
tp1009
a(I93
I9
I0
S'basic'
p1010
tp1011
a(I186
I0
I0
g156
tp1012
a(I208
I0
F0.875
g158
tp1013
a(I208
I0
F-0.75
g160
tp1014
as(S'galaxy'
p1015
S'prevail'
p1016
tp1017
(lp1018
(I203
I1
I0
g751
tp1019
as(S'life'
p1020
tp1021
(lp1022
(I2
I0
F1.0
g897
tp1023
a(I64
I14
I0
S'useful'
p1024
tp1025
a(I73
I8
F1.0
g907
tp1026
a(I84
I6
F1.0
g911
tp1027
a(I127
I2
F-0.625
g919
tp1028
a(I129
I2
F-0.75
g923
tp1029
a(I164
I0
F-0.5
g931
tp1030
a(I186
I0
F-0.625
g935
tp1031
as(S'bells'
p1032
S'and'
p1033
S'whistles'
p1034
tp1035
(lp1036
(I176
I4
F0.375
S'extra'
p1037
tp1038
as(S'of'
p1039
S'nternal'
p1040
S'memory'
p1041
tp1042
(lp1043
(I23
I4
F-0.75
g567
tp1044
a(I23
I4
I0
g569
tp1045
a(I23
I4
F-0.75
g571
tp1046
a(I45
I4
F-0.25
g585
tp1047
a(I45
I4
I0
g587
tp1048
a(I46
I43
I0
g595
tp1049
a(I48
I0
I0
g597
tp1050
a(I84
I3
I0
g607
tp1051
a(I95
I2
I0
g611
tp1052
a(I95
I2
F1.0
g613
tp1053
a(I103
I3
I0
g615
tp1054
a(I104
I1
I0
g617
tp1055
a(I131
I37
I0
g633
tp1056
a(I141
I2
F0.125
g639
tp1057
a(I141
I2
I0
g641
tp1058
a(I178
I1
F0.375
g655
tp1059
a(I178
I1
I0
g657
tp1060
a(I178
I9
F-0.5
g659
tp1061
a(I178
I9
I0
g661
tp1062
a(I192
I2
I0
g671
tp1063
as(S'2'
p1064
S'year'
p1065
S'contract'
p1066
tp1067
(lp1068
(I70
I8
F-0.625
S'free'
p1069
tp1070
a(I88
I1
I0
S'charged'
p1071
tp1072
as(S'plan'
p1073
tp1074
(lp1075
(I20
I4
I0
S'android'
p1076
tp1077
a(I20
I8
F0.375
S'new'
p1078
tp1079
a(I20
I8
I0
S'android'
p1080
tp1081
a(I20
I8
I0
S'android'
p1082
tp1083
a(I46
I26
F0.375
S'available'
p1084
tp1085
a(I84
I0
F0.75
S'due'
p1086
tp1087
a(I87
I33
F1.0
S'good'
p1088
tp1089
a(I124
I6
I0
S'least'
p1090
tp1091
a(I127
I10
F-0.25
S'inexpensive'
p1092
tp1093
a(I146
I3
I0
S'great'
p1094
tp1095
a(I176
I1
I0
S'great'
p1096
tp1097
a(I201
I5
F0.375
S'new'
p1098
tp1099
a(I201
I6
F0.375
S'new'
p1100
tp1101
as(S'battery'
p1102
tp1103
(lp1104
(I5
I1
F-0.5
S'separate'
p1105
tp1106
a(I9
I15
F0.625
S'accessible'
p1107
tp1108
a(I9
I16
I0
S'quick'
p1109
tp1110
a(I13
I0
F0.375
S'new'
p1111
tp1112
a(I24
I0
I0
g899
tp1113
a(I24
I0
F-0.75
g901
tp1114
a(I36
I2
F0.125
S'first'
p1115
tp1116
a(I38
I4
F-0.375
g903
tp1117
a(I43
I4
F0.125
S'last'
p1118
tp1119
a(I43
I4
F-0.5
S'long'
p1120
tp1121
a(I46
I19
F-0.625
S'bad'
p1122
tp1123
a(I46
I20
F0.625
S'major'
p1124
tp1125
a(I60
I0
I0
S'hot'
p1126
tp1127
a(I63
I9
F1.0
g905
tp1128
a(I75
I0
I0
g909
tp1129
a(I82
I1
F0.125
S'last'
p1130
tp1131
a(I99
I9
F-0.625
S'bad'
p1132
tp1133
a(I99
I9
F1.0
S'best'
p1134
tp1135
a(I117
I7
I0
g913
tp1136
a(I118
I3
F-0.75
g915
tp1137
a(I120
I1
F0.5
g917
tp1138
a(I122
I9
I0
S'least'
p1139
tp1140
a(I124
I42
F-0.375
S'small'
p1141
tp1142
a(I124
I45
F0.375
S'extra'
p1143
tp1144
a(I127
I15
F-0.5
S'weak'
p1145
tp1146
a(I128
I6
F0.375
S'extra'
p1147
tp1148
a(I129
I2
F-0.5
g921
tp1149
a(I142
I5
F-0.5
g925
tp1150
a(I148
I10
F0.375
S'extra'
p1151
tp1152
a(I150
I0
F0.125
S'last'
p1153
tp1154
a(I150
I0
F-0.5
S'long'
p1155
tp1156
a(I153
I3
F0.125
S'last'
p1157
tp1158
a(I155
I14
F-0.625
g927
tp1159
a(I160
I0
F-0.875
g929
tp1160
a(I177
I4
F-0.75
g933
tp1161
a(I187
I4
F0.125
S'able'
p1162
tp1163
a(I206
I2
F-0.5
g937
tp1164
as(S'smart'
p1165
tp1166
(lp1167
(I9
I9
F0.125
S'first'
p1168
tp1169
a(I23
I9
F1.0
S'good'
p1170
tp1171
a(I26
I13
F0.125
S'first'
p1172
tp1173
a(I36
I2
I0
S'most'
p1174
tp1175
a(I87
I29
F0.125
S'first'
p1176
tp1177
a(I88
I2
I0
S'great'
p1178
tp1179
a(I88
I2
I0
S'basic'
p1180
tp1181
a(I105
I0
F0.125
S'first'
p1182
tp1183
a(I111
I0
I0
S'most'
p1184
tp1185
a(I117
I12
F0.125
S'first'
p1186
tp1187
a(I127
I0
F0.125
S'first'
p1188
tp1189
a(I158
I1
F0.125
S'first'
p1190
tp1191
a(I158
I1
F-0.625
S'other'
p1192
tp1193
a(I168
I3
F0.375
S'new'
p1194
tp1195
a(I183
I0
F1.0
S'good'
p1196
tp1197
a(I183
I0
I0
S'basic'
p1198
tp1199
a(I186
I5
I0
S'few'
p1200
tp1201
a(I195
I0
F0.125
S'first'
p1202
tp1203
as(S'samsung'
p1204
S'galaxy'
p1205
tp1206
(lp1207
(I30
I3
F0.375
g749
tp1208
as(S'cell'
p1209
tp1210
(lp1211
(I20
I5
I0
S'basic'
p1212
tp1213
a(I23
I3
I0
S'android'
p1214
tp1215
a(I47
I0
F0.125
S'first'
p1216
tp1217
a(I68
I0
F1.0
S'good'
p1218
tp1219
a(I68
I0
I0
S'great'
p1220
tp1221
a(I87
I24
F-0.375
S'void'
p1222
tp1223
a(I98
I11
I0
S'monthly'
p1224
tp1225
a(I101
I1
I0
S'same'
p1226
tp1227
a(I124
I22
I0
S'most'
p1228
tp1229
a(I124
I26
F-0.375
S'simple'
p1230
tp1231
a(I127
I8
I0
S'real'
p1232
tp1233
a(I143
I1
I0
S'same'
p1234
tp1235
a(I148
I0
I0
S'old'
p1236
tp1237
as(S'text'
p1238
tp1239
(lp1240
(I26
I15
F0.5
S'accurate'
p1241
tp1242
as(S'space'
p1243
tp1244
(lp1245
(I37
I1
I0
S'fast'
p1246
tp1247
a(I48
I6
F-0.625
S'free'
p1248
tp1249
a(I48
I6
F-0.625
S'free'
p1250
tp1251
a(I67
I1
F-0.875
S'hard'
p1252
tp1253
a(I67
I1
F0.5
S'drive'
p1254
tp1255
a(I67
I4
I0
S'internal'
p1256
tp1257
a(I67
I5
I0
S'internal'
p1258
tp1259
a(I67
I5
F0.5
S'drive'
p1260
tp1261
a(I67
I8
I0
S'internal'
p1262
tp1263
a(I67
I8
F0.5
S'drive'
p1264
tp1265
a(I70
I5
F-0.25
S'highest'
p1266
tp1267
a(I73
I9
F-0.375
S'small'
p1268
tp1269
a(I73
I13
I0
S'more'
p1270
tp1271
a(I80
I1
I0
S'internal'
p1272
tp1273
a(I80
I3
F0.125
S'enough'
p1274
tp1275
a(I95
I2
F-0.25
S'low'
p1276
tp1277
a(I116
I3
I0
S'more'
p1278
tp1279
a(I134
I4
F-0.25
S'low'
p1280
tp1281
a(I185
I3
F-0.75
S'little'
p1282
tp1283
as(S'50'
p1284
g553
S'month'
p1285
tp1286
(lp1287
(I61
I4
I0
g799
tp1288
a(I124
I6
I0
g803
tp1289
a(I165
I7
I0
g807
tp1290
a(I182
I29
F-0.5
g811
tp1291
as(S'update'
p1292
tp1293
(lp1294
(I46
I39
I0
S'final'
p1295
tp1296
a(I87
I20
F-0.25
S'higher'
p1297
tp1298
a(I196
I15
I0
S'android'
p1299
tp1300
as(S'boost'
p1301
S'mobile'
p1302
tp1303
(lp1304
(I88
I19
F-0.5
g114
tp1305
a(I106
I3
F0.875
g168
tp1306
a(I183
I1
I0
g4
tp1307
as(S'moved'
p1308
S'to'
p1309
S'sd'
p1310
tp1311
(lp1312
(I208
I5
I0
g143
tp1313
as(S'time'
p1314
tp1315
(lp1316
(I26
I7
I0
S'weird'
p1317
tp1318
a(I62
I6
I0
S'next'
p1319
tp1320
a(I66
I1
F0.125
S'first'
p1321
tp1322
a(I76
I17
F-0.75
S'short'
p1323
tp1324
a(I76
I17
F1.0
S'good'
p1325
tp1326
a(I87
I7
I0
S'same'
p1327
tp1328
a(I108
I2
F0.125
S'first'
p1329
tp1330
a(I124
I19
F1.0
S'better'
p1331
tp1332
a(I124
I19
I0
S'real'
p1333
tp1334
a(I147
I2
I0
S'same'
p1335
tp1336
a(I153
I0
F1.0
S'good'
p1337
tp1338
a(I164
I0
F0.375
S'available'
p1339
tp1340
a(I208
I6
I0
S'android'
p1341
tp1342
a(I208
I6
F0.125
S'first'
p1343
tp1344
as(S'two'
p1345
S'years'
p1346
tp1347
(lp1348
(I15
I1
F-0.625
g76
tp1349
a(I124
I6
I0
g80
tp1350
a(I131
I41
F0.125
g84
tp1351
as(S'months'
p1352
tp1353
(lp1354
(I19
I1
I0
S'later'
p1355
tp1356
a(I19
I1
F0.375
S'much'
p1357
tp1358
a(I19
I1
F0.25
S'used'
p1359
tp1360
a(I46
I35
I0
S'few'
p1361
tp1362
a(I47
I5
F-0.25
S'past'
p1363
tp1364
a(I47
I5
I0
S'few'
p1365
tp1366
a(I52
I4
F-0.25
S'ready'
p1367
tp1368
a(I52
I4
F0.5
S'rid'
p1369
tp1370
a(I99
I7
F-0.5
S'press'
p1371
tp1372
a(I115
I1
F-0.125
S'mine'
p1373
tp1374
a(I126
I0
I0
S'few'
p1375
tp1376
a(I154
I0
F1.0
S'good'
p1377
tp1378
a(I173
I10
F-0.25
S'past'
p1379
tp1380
a(I173
I10
I0
S'few'
p1381
tp1382
a(I193
I1
I0
S'few'
p1383
tp1384
a(I196
I19
F-0.125
S'mine'
p1385
tp1386
as(S'storage'
p1387
tp1388
(lp1389
(I7
I3
I0
g328
tp1390
a(I7
I9
I0
g11
tp1391
a(I7
I10
I0
g13
tp1392
a(I7
I10
F0.375
g15
tp1393
a(I14
I2
I0
g333
tp1394
a(I36
I4
I0
S'more'
p1395
tp1396
a(I76
I10
I0
g335
tp1397
a(I76
I11
I0
g17
tp1398
a(I91
I1
I0
g338
tp1399
a(I180
I4
F-0.375
g19
tp1400
a(I180
I4
I0
g21
tp1401
a(I180
I4
F0.375
g23
tp1402
a(I180
I7
I0
g25
tp1403
a(I196
I4
I0
g27
tp1404
a(I196
I9
I0
g29
tp1405
a(I196
I10
I0
g31
tp1406
a(I196
I12
F-0.375
S'top'
p1407
tp1408
a(I196
I18
I0
S'more'
p1409
tp1410
a(I196
I18
F0.375
S'no-brainer'
p1411
tp1412
as(S'nternal'
p1413
S'memory'
p1414
tp1415
(lp1416
(I8
I2
I0
g563
tp1417
a(I8
I2
I0
g565
tp1418
a(I23
I4
F-0.75
g567
tp1419
a(I23
I4
I0
g569
tp1420
a(I23
I4
F-0.75
g571
tp1421
a(I31
I2
I0
g575
tp1422
a(I38
I2
F-0.375
g577
tp1423
a(I38
I2
F-0.375
g579
tp1424
a(I38
I2
I0
g581
tp1425
a(I45
I4
F-0.25
g585
tp1426
a(I45
I4
I0
g587
tp1427
a(I46
I7
I0
g589
tp1428
a(I46
I7
F-0.875
g591
tp1429
a(I46
I8
I0
g593
tp1430
a(I46
I43
I0
g595
tp1431
a(I48
I0
I0
g597
tp1432
a(I84
I3
I0
g607
tp1433
a(I88
I4
I0
g609
tp1434
a(I95
I2
I0
g611
tp1435
a(I95
I2
F1.0
g613
tp1436
a(I103
I3
I0
g615
tp1437
a(I104
I1
I0
g617
tp1438
a(I123
I3
I0
g625
tp1439
a(I131
I37
I0
g633
tp1440
a(I131
I40
I0
g635
tp1441
a(I141
I2
F0.125
g639
tp1442
a(I141
I2
I0
g641
tp1443
a(I160
I0
I0
g643
tp1444
a(I170
I0
I0
g645
tp1445
a(I178
I0
F-0.375
g651
tp1446
a(I178
I0
I0
g653
tp1447
a(I178
I1
F0.375
g655
tp1448
a(I178
I1
I0
g657
tp1449
a(I178
I9
F-0.5
g659
tp1450
a(I178
I9
I0
g661
tp1451
a(I180
I3
I0
g665
tp1452
a(I192
I2
I0
g671
tp1453
a(I197
I2
I0
g673
tp1454
a(I197
I2
I0
g675
tp1455
a(I207
I0
I0
g677
tp1456
as(S'touch'
p1457
S'screen'
p1458
tp1459
(lp1460
(I8
I8
F0.5
S'touch'
p1461
tp1462
a(I19
I6
F0.125
g55
tp1463
a(I40
I0
F0.125
g59
tp1464
a(I49
I22
F0.5
S'touch'
p1465
tp1466
a(I49
I22
F0.25
S'boost'
p1467
tp1468
a(I62
I2
F0.125
g61
tp1469
a(I62
I2
I0
S'next'
p1470
tp1471
a(I69
I2
F0.5
S'touch'
p1472
tp1473
a(I86
I4
I0
g63
tp1474
a(I86
I5
F-0.75
S'wrong'
p1475
tp1476
a(I87
I21
F-0.375
g65
tp1477
a(I106
I0
F0.5
S'touch'
p1478
tp1479
a(I106
I0
I0
S'android'
p1480
tp1481
a(I138
I0
F1.0
S'best'
p1482
tp1483
a(I141
I4
F0.5
S'touch'
p1484
tp1485
a(I157
I4
I0
S'great'
p1486
tp1487
a(I160
I2
F-0.75
g69
tp1488
a(I175
I5
F0.25
g71
tp1489
a(I185
I3
F0.5
S'touch'
p1490
tp1491
as(S'year'
p1492
tp1493
(lp1494
(I4
I3
I0
S'next'
p1495
tp1496
a(I15
I2
I0
S'least'
p1497
tp1498
a(I59
I0
I0
S'later'
p1499
tp1500
a(I64
I6
F0.125
S'first'
p1501
tp1502
a(I70
I8
F-0.625
g1069
tp1503
a(I78
I0
I0
S'old'
p1504
tp1505
a(I88
I1
I0
g1071
tp1506
a(I105
I2
I0
S'later'
p1507
tp1508
a(I122
I9
F0.875
S'happy'
p1509
tp1510
a(I125
I0
I0
S'old'
p1511
tp1512
a(I131
I2
F0.125
S'last'
p1513
tp1514
a(I155
I10
I0
S'old'
p1515
tp1516
as(S'little'
p1517
tp1518
(lp1519
(I14
I1
F1.0
S'good'
p1520
tp1521
as(S'first'
p1522
S'android'
p1523
tp1524
(lp1525
(I25
I0
F0.125
g763
tp1526
a(I52
I0
F0.125
g770
tp1527
a(I61
I0
F0.125
g774
tp1528
a(I62
I1
F0.125
g776
tp1529
a(I73
I5
F0.125
g778
tp1530
a(I101
I0
F0.125
g784
tp1531
a(I168
I3
F0.125
g790
tp1532
as(S'entry'
p1533
S'level'
p1534
tp1535
(lp1536
(I46
I16
I0
g152
tp1537
a(I87
I20
F-0.5
g154
tp1538
a(I93
I9
I0
g1010
tp1539
a(I186
I0
I0
g156
tp1540
a(I208
I0
F0.875
g158
tp1541
a(I208
I0
F-0.75
g160
tp1542
as(S'screen'
p1543
tp1544
(lp1545
(I2
I0
F0.25
S'bigger'
p1546
tp1547
a(I8
I8
F0.5
g1461
tp1548
a(I48
I2
F0.5
S'clear'
p1549
tp1550
a(I49
I20
F-0.375
S'smaller'
p1551
tp1552
a(I49
I22
F0.5
g1465
tp1553
a(I49
I22
F0.25
g1467
tp1554
a(I49
I25
F0.25
S'bigger'
p1555
tp1556
a(I49
I25
F0.5
S'willing'
p1557
tp1558
a(I62
I2
I0
g1470
tp1559
a(I62
I5
I0
S'next'
p1560
tp1561
a(I69
I2
F0.5
g1472
tp1562
a(I69
I3
F-0.375
S'black'
p1563
tp1564
a(I73
I13
F0.25
S'bigger'
p1565
tp1566
a(I86
I5
F-0.75
g1475
tp1567
a(I88
I14
F-0.5
S'sure'
p1568
tp1569
a(I101
I2
F0.25
S'bigger'
p1570
tp1571
a(I104
I3
F-0.375
S'small'
p1572
tp1573
a(I106
I0
F0.5
g1478
tp1574
a(I106
I0
I0
g1480
tp1575
a(I124
I37
F-0.375
S'small'
p1576
tp1577
a(I128
I4
F-0.5
S'sure'
p1578
tp1579
a(I131
I3
F0.5
S'clear'
p1580
tp1581
a(I135
I4
I0
S'big'
p1582
tp1583
a(I138
I0
F1.0
g1482
tp1584
a(I141
I4
F0.5
g1484
tp1585
a(I157
I4
I0
g1486
tp1586
a(I185
I3
F0.5
g1490
tp1587
as(S'unlimited'
p1588
S'everything'
p1589
tp1590
(lp1591
(I145
I0
I0
S'great'
p1592
tp1593
as(S'everything'
p1594
tp1595
(lp1596
(I8
I0
I0
S'android'
p1597
tp1598
a(I145
I0
I0
g1592
tp1599
a(I166
I3
F0.875
S'happy'
p1600
tp1601
as(S'samsung'
p1602
tp1603
(lp1604
(I30
I3
F0.375
g749
tp1605
a(I92
I5
F1.0
S'best'
p1606
tp1607
a(I92
I5
F0.125
S'electric'
p1608
tp1609
as(S'camera'
p1610
tp1611
(lp1612
(I49
I16
I0
S'great'
p1613
tp1614
a(I49
I25
F1.0
S'better'
p1615
tp1616
a(I70
I1
I0
S'great'
p1617
tp1618
a(I73
I12
I0
S'great'
p1619
tp1620
a(I73
I13
F1.0
S'better'
p1621
tp1622
a(I121
I6
F1.0
S'good'
p1623
tp1624
a(I121
I8
I0
S'few'
p1625
tp1626
a(I124
I4
F1.0
S'better'
p1627
tp1628
a(I124
I30
F0.625
S'necessary'
p1629
tp1630
a(I127
I12
F1.0
S'good'
p1631
tp1632
a(I155
I9
F-0.625
S'bad'
p1633
tp1634
a(I192
I7
F-0.5
S'weak'
p1635
tp1636
a(I200
I2
I0
S'great'
p1637
tp1638
as(S'prevail'
p1639
tp1640
(lp1641
(I124
I3
F0.625
S'credible'
p1642
tp1643
a(I155
I14
F-0.75
S'wrong'
p1644
tp1645
a(I203
I1
I0
g751
tp1646
as(S'boost'
p1647
tp1648
(lp1649
(I2
I0
F0.5
S'greater'
p1650
tp1651
a(I49
I11
F0.875
S'happy'
p1652
tp1653
a(I73
I1
F0.875
S'happy'
p1654
tp1655
a(I73
I3
I0
S'great'
p1656
tp1657
a(I76
I14
F0.375
S'new'
p1658
tp1659
a(I88
I19
F-0.5
g114
tp1660
a(I99
I11
F-0.625
S'other'
p1661
tp1662
a(I106
I3
F0.875
g168
tp1663
a(I117
I13
F-0.5
S'sure'
p1664
tp1665
a(I131
I13
I0
S'sprint'
p1666
tp1667
a(I174
I0
F1.0
S'good'
p1668
tp1669
a(I208
I7
F0.375
S'much'
p1670
tp1671
as(S'people'
p1672
tp1673
(lp1674
(I46
I12
I0
S'most'
p1675
tp1676
a(I46
I51
I0
S'most'
p1677
tp1678
a(I56
I3
I0
S'most'
p1679
tp1680
a(I87
I10
F-0.125
S'slow'
p1681
tp1682
a(I87
I13
I0
S'more'
p1683
tp1684
a(I174
I1
I0
S'different'
p1685
tp1686
a(I175
I12
F-0.375
S'manual'
p1687
tp1688
a(I175
I12
I0
S'most'
p1689
tp1690
as(S'per'
p1691
S'month'
p1692
tp1693
(lp1694
(I29
I0
F0.125
g795
tp1695
a(I46
I30
I0
g797
tp1696
a(I61
I4
I0
g799
tp1697
a(I87
I32
F-0.625
g801
tp1698
a(I124
I6
I0
g803
tp1699
a(I138
I0
F0.5
g805
tp1700
a(I186
I1
F-0.5
g813
tp1701
as(S'unlimited'
p1702
S'plan'
p1703
tp1704
(lp1705
(I20
I4
I0
g1076
tp1706
a(I20
I8
F0.375
g1078
tp1707
a(I20
I8
I0
g1080
tp1708
a(I20
I8
I0
g1082
tp1709
a(I84
I0
F0.75
g1086
tp1710
a(I146
I3
I0
g1094
tp1711
a(I176
I1
I0
g1096
tp1712
as(S'works'
p1713
tp1714
(lp1715
(I46
I48
I0
S'most'
p1716
tp1717
a(I124
I20
I0
S'great'
p1718
tp1719
a(I124
I20
I0
S'faster'
p1720
tp1721
a(I125
I0
I0
S'great'
p1722
tp1723
a(I202
I0
I0
S'great'
p1724
tp1725
as(S'think'
p1726
tp1727
(lp1728
(I87
I37
F-0.875
S'hard'
p1729
tp1730
a(I121
I16
F-0.625
S'free'
p1731
tp1732
as(S'better'
p1733
tp1734
(lp1735
(I106
I3
F0.375
S'much'
p1736
tp1737
a(I183
I2
F0.375
S'much'
p1738
tp1739
as(g553
g1064
S'year'
p1740
tp1741
(lp1742
(I70
I8
F-0.625
g1069
tp1743
a(I88
I1
I0
g1071
tp1744
a(I122
I9
F0.875
g1509
tp1745
as(S'call'
p1746
tp1747
(lp1748
(I8
I4
F-0.625
S'free'
p1749
tp1750
a(I26
I1
F1.0
S'good'
p1751
tp1752
a(I107
I0
I0
S'many'
p1753
tp1754
a(I131
I11
I0
S'signal'
p1755
tp1756
a(I169
I12
I0
S'only'
p1757
tp1758
a(I169
I12
I0
S'real'
p1759
tp1760
a(I173
I14
F0.125
S'last'
p1761
tp1762
a(I173
I14
F0.625
S'successful'
p1763
tp1764
as(S'apps'
p1765
tp1766
(lp1767
(I2
I0
I0
S'more'
p1768
tp1769
a(I10
I1
I0
S'useful'
p1770
tp1771
a(I23
I5
I0
S'more'
p1772
tp1773
a(I23
I7
F1.0
S'good'
p1774
tp1775
a(I23
I7
I0
S'most'
p1776
tp1777
a(I23
I8
F0.125
S'able'
p1778
tp1779
a(I30
I5
I0
S'great'
p1780
tp1781
a(I38
I2
I0
g206
tp1782
a(I38
I2
F0.5
g208
tp1783
a(I46
I18
I0
S'many'
p1784
tp1785
a(I46
I18
F-0.625
S'free'
p1786
tp1787
a(I46
I19
I0
S'many'
p1788
tp1789
a(I46
I43
I0
S'many'
p1790
tp1791
a(I48
I0
F-0.75
S'bloat'
p1792
tp1793
a(I48
I1
I0
S'most'
p1794
tp1795
a(I48
I1
F-0.375
S'smooth'
p1796
tp1797
a(I49
I20
I0
g210
tp1798
a(I67
I5
I0
g212
tp1799
a(I67
I8
I0
g217
tp1800
a(I72
I2
F-0.625
S'free'
p1801
tp1802
a(I73
I7
F-0.125
S'slow'
p1803
tp1804
a(I76
I2
F-0.625
S'other'
p1805
tp1806
a(I76
I8
I0
S'close'
p1807
tp1808
a(I76
I8
F-0.625
S'other'
p1809
tp1810
a(I76
I8
I0
S'few'
p1811
tp1812
a(I76
I13
I0
S'few'
p1813
tp1814
a(I80
I3
I0
S'most'
p1815
tp1816
a(I88
I4
F-0.5
g219
tp1817
a(I91
I0
I0
S'basic'
p1818
tp1819
a(I91
I2
F-0.5
g221
tp1820
a(I98
I2
F0.125
S'first'
p1821
tp1822
a(I99
I3
I0
S'faster'
p1823
tp1824
a(I100
I5
I0
S'great'
p1825
tp1826
a(I105
I0
I0
S'most'
p1827
tp1828
a(I105
I0
I0
S'android'
p1829
tp1830
a(I105
I0
F-0.625
S'free'
p1831
tp1832
a(I113
I5
F-0.5
g223
tp1833
a(I122
I11
I0
S'many'
p1834
tp1835
a(I122
I11
I0
S'useful'
p1836
tp1837
a(I122
I11
I0
S'great'
p1838
tp1839
a(I123
I1
I0
S'great'
p1840
tp1841
a(I134
I4
I0
S'few'
p1842
tp1843
a(I141
I4
F0.125
S'able'
p1844
tp1845
a(I155
I13
I0
g225
tp1846
a(I155
I14
I0
S'particular'
p1847
tp1848
a(I156
I0
F-0.625
S'free'
p1849
tp1850
a(I167
I1
F-0.125
S'slow'
p1851
tp1852
a(I170
I1
I0
S'basic'
p1853
tp1854
a(I177
I2
F0.625
S'aware'
p1855
tp1856
a(I178
I2
I0
g227
tp1857
a(I178
I3
F-0.25
g229
tp1858
a(I178
I3
I0
g231
tp1859
a(I178
I3
I0
g233
tp1860
a(I178
I6
F-0.25
S'google'
p1861
tp1862
a(I178
I6
I0
S'faster'
p1863
tp1864
a(I178
I6
I0
S'more'
p1865
tp1866
a(I178
I8
F0.25
g235
tp1867
a(I180
I0
F-0.625
S'want'
p1868
tp1869
a(I181
I5
F0.375
S'new'
p1870
tp1871
a(I183
I1
I0
S'many'
p1872
tp1873
a(I184
I4
I0
S'great'
p1874
tp1875
a(I184
I4
I0
S'great'
p1876
tp1877
a(I185
I3
F0.875
g237
tp1878
a(I192
I4
I0
S'basic'
p1879
tp1880
a(I196
I2
I0
S'many'
p1881
tp1882
a(I196
I7
F-0.5
g239
tp1883
a(I196
I9
I0
g241
tp1884
a(I196
I17
F0.375
S'new'
p1885
tp1886
a(I201
I4
I0
S'android'
p1887
tp1888
a(I201
I4
I0
S'great'
p1889
tp1890
a(I205
I2
F-0.625
S'free'
p1891
tp1892
a(I208
I3
I0
S'many'
p1893
tp1894
as(S'days'
p1895
tp1896
(lp1897
(I46
I0
I0
S'few'
p1898
tp1899
a(I86
I4
I0
S'few'
p1900
tp1901
a(I107
I0
I0
S'more'
p1902
tp1903
a(I107
I1
I0
S'more'
p1904
tp1905
a(I139
I0
F0.5
S'whole'
p1906
tp1907
a(I164
I0
F0.125
S'able'
p1908
tp1909
a(I182
I8
I0
S'later'
p1910
tp1911
a(I182
I14
I0
S'few'
p1912
tp1913
a(I206
I3
I0
S'few'
p1914
tp1915
as(S'calls'
p1916
tp1917
(lp1918
(I65
I4
F-0.25
S'dropped'
p1919
tp1920
a(I91
I3
I0
S'many'
p1921
tp1922
a(I99
I14
I0
S'many'
p1923
tp1924
as.