(dp0
(S'virgin'
p1
S'mobile'
p2
tp3
(lp4
(I0
I7
I0
S'mobile'
p5
I0
tp6
a(I0
I9
I0
S'mobile'
p7
I0
tp8
a(I1
I9
I0
S'next'
p9
I0
tp10
a(I1
I15
F0.125
S'solid'
p11
I0
tp12
a(I3
I2
F0.875
S'happy'
p13
I0
tp14
a(I4
I39
I0
S'such'
p15
I0
tp16
a(I4
I41
I0
S'site'
p17
I0
tp18
a(I5
I7
F0.125
S'solid'
p19
I0
tp20
a(I0
I7
I0
g5
I0
tp21
a(I0
I9
I0
g7
I0
tp22
a(I1
I9
I0
g9
I0
tp23
a(I1
I15
F0.125
g11
I0
tp24
a(I3
I2
F0.875
g13
I0
tp25
a(I5
I7
F0.125
g19
I0
tp26
a(I6
I42
I0
S'close'
p27
I0
tp28
a(I4
I39
I0
g15
I0
tp29
a(I4
I41
I0
g17
I0
tp30
as(S'keyboard'
p31
tp32
(lp33
(I3
I13
F-0.375
S'small'
p34
I2
tp35
a(I5
I9
F0.125
S'solid'
p36
I2
tp37
a(I5
I9
I0
S'full'
p38
I2
tp39
a(I5
I15
F0.625
S'easy'
p40
I2
tp41
a(I6
I4
F-0.375
S'small'
p42
I2
tp43
as(S'keys'
p44
tp45
(lp46
(I2
I5
F-0.375
S'small'
p47
I9
tp48
a(I3
I10
F0.875
S'important'
p49
I9
tp50
a(I3
I27
F-0.375
S'small'
p51
I9
tp52
a(I4
I11
F-0.75
S'wrong'
p53
I9
tp54
a(I4
I28
F0.125
S'usual'
p55
I9
tp56
a(I6
I38
F-0.375
S'small'
p57
I9
tp58
a(I6
I39
F-0.625
S'other'
p59
I9
tp60
a(I6
I49
F-0.375
S'small'
p61
I9
tp62
as(S'text'
p63
tp64
(lp65
(I0
I8
I0
S'great'
p66
I18
tp67
a(I6
I29
I0
S'more'
p68
I18
tp69
a(I6
I29
I0
S'text'
p70
I18
tp71
a(I6
I29
F0.375
S'friendly'
p72
I18
tp73
as(S'opera'
p74
S'mini'
p75
tp76
(lp77
(I4
I26
F1.0
S'good'
p78
I0
tp79
as(S'calls'
p80
tp81
(lp82
(I0
I8
F0.375
S'dependable'
p83
I0
tp84
a(I0
I8
F0.375
S'dependable'
p85
I0
tp86
a(I1
I5
F0.5
S'clear'
p87
I0
tp88
a(I4
I22
F1.0
S'good'
p89
I0
tp90
a(I5
I7
I0
S'fewer'
p91
I0
tp92
a(I7
I4
F0.5
S'clear'
p93
I0
tp94
as(S'texting'
p95
tp96
(lp97
(I6
I51
F1.0
S'good'
p98
I0
tp99
as(S'mobile'
p100
S'service'
p101
tp102
(lp103
(I2
I8
I0
S'mobile'
p104
I0
tp105
a(I5
I7
F1.0
S'best'
p106
I0
tp107
as(S'big'
p108
S'deal'
p109
tp110
(lp111
(I1
I8
I0
S'big'
p112
I11
tp113
a(I1
I9
I0
S'big'
p114
I11
tp115
a(I4
I60
I0
S'big'
p116
I11
tp117
as.