(dp0
(S'back'
p1
S'cover'
p2
tp3
(lp4
(I19
I4
F-0.75
S'impossible'
p5
I2
tp6
as(S'straight'
p7
S'talk'
p8
tp9
(lp10
(I6
I21
F0.625
S'straight'
p11
I0
tp12
a(I6
I22
F0.625
S'straight'
p13
I0
tp14
as(S'battery'
p15
tp16
(lp17
(I10
I6
I0
S'closing'
p18
I15
tp19
a(I15
I9
I0
S'more'
p20
I15
tp21
a(I15
I10
F0.375
S'new'
p22
I15
tp23
as(S'sd'
p24
S'card'
p25
tp26
(lp27
(I6
I49
I0
S'sd'
p28
I0
tp29
as(S'dell'
p30
S'streak'
p31
tp32
(lp33
(I14
I8
F0.5
S'susceptible'
p34
I0
tp35
a(I14
I9
F-0.375
S'black'
p36
I0
tp37
a(I14
I8
F0.5
g34
I1
tp38
a(I6
I1
I0
S'generic'
p39
I0
tp40
a(I14
I9
F-0.375
g36
I0
tp41
a(I14
I11
F0.375
S'extra'
p42
I0
tp43
a(I19
I9
I0
S'tutorial'
p44
I0
tp45
a(I19
I11
F0.25
S'helpful'
p46
I0
tp47
as.