(dp0
(S'battery'
p1
S'life'
p2
tp3
(lp4
(I0
I11
I0
S'great'
p5
I1
tp6
a(I0
I13
F0.375
S'much'
p7
I1
tp8
a(I0
I11
I0
g5
I19
tp9
a(I14
I23
F0.625
S'easier'
p10
I19
tp11
a(I17
I20
F0.25
S'professional'
p12
I19
tp13
a(I22
I1
F0.625
S'easier'
p14
I19
tp15
a(I0
I13
F0.375
g7
I15
tp16
a(I6
I66
I0
S'most'
p17
I15
tp18
as(S'text'
p19
tp20
(lp21
(I5
I18
F-0.375
S'small'
p22
I18
tp23
as(S'told'
p24
tp25
(lp26
(I6
I28
F0.125
S'first'
p27
I12
tp28
as(S'ipod'
p29
tp30
(lp31
(I2
I48
F0.375
S'similar'
p32
I0
tp33
a(I3
I53
I0
S'such'
p34
I0
tp35
a(I5
I8
F0.75
S'classic'
p36
I0
tp37
a(I22
I36
I0
S'old'
p38
I0
tp39
a(I22
I37
I0
S'old'
p40
I0
tp41
as(S'app'
p42
S'store'
p43
tp44
(lp45
(I10
I32
F0.75
S'beautiful'
p46
I0
tp47
as(S'service'
p48
tp49
(lp50
(I2
I35
F0.5
S'true'
p51
I16
tp52
a(I10
I0
F1.0
S'good'
p53
I16
tp54
as(S'operating'
p55
S'system'
p56
tp57
(lp58
(I1
I3
F0.375
S'new'
p59
I2
tp60
a(I1
I10
F0.375
S'new'
p61
I2
tp62
as(S'reception'
p63
tp64
(lp65
(I1
I22
F-0.5
S'poor'
p66
I0
tp67
a(I1
I24
F-0.5
S'poor'
p68
I0
tp69
a(I10
I96
F1.0
S'better'
p70
I0
tp71
a(I16
I8
F1.0
S'better'
p72
I0
tp73
as(S'memory'
p74
tp75
(lp76
(I6
I48
F0.375
S'extra'
p77
I5
tp78
a(I21
I24
I0
S'more'
p79
I5
tp80
a(I21
I26
I0
S'more'
p81
I5
tp82
as(S'signal'
p83
tp84
(lp85
(I10
I93
F-0.5
S'poorest'
p86
I1
tp87
a(I17
I32
F-0.625
S'bad'
p88
I1
tp89
as(S'apple'
p90
S'iphone'
p91
tp92
(lp93
(I3
I89
F-0.625
S'other'
p94
I0
tp95
a(I4
I0
F-0.636
S'genuine'
p96
I0
tp97
a(I4
I0
I0
S'real'
p98
I0
tp99
a(I6
I8
F1.0
S'best'
p100
I0
tp101
a(I10
I144
F0.75
S'beautiful'
p102
I0
tp103
a(I0
I29
F0.375
S'new'
p104
I1
tp105
a(I3
I19
F0.75
S'beautiful'
p106
I1
tp107
a(I3
I76
I0
S'earlier'
p108
I1
tp109
a(I3
I76
F0.125
S'able'
p110
I1
tp111
a(I3
I85
I0
S'full'
p112
I1
tp113
a(I3
I92
F0.125
S'able'
p114
I1
tp115
a(I4
I0
F-0.636
g96
I1
tp116
a(I4
I0
I0
g98
I1
tp117
a(I5
I3
F-0.125
S'mine'
p118
I1
tp119
a(I6
I8
F1.0
g100
I1
tp120
a(I6
I10
F0.375
S'new'
p121
I1
tp122
a(I6
I16
I0
S'old'
p123
I1
tp124
a(I10
I9
F0.125
S'first'
p125
I1
tp126
a(I10
I23
F0.125
S'first'
p127
I1
tp128
a(I10
I83
I0
S'own'
p129
I1
tp130
a(I10
I124
F-0.625
S'other'
p131
I1
tp132
a(I10
I140
F0.5
S'second'
p133
I1
tp134
a(I10
I144
F0.75
g102
I1
tp135
a(I10
I145
F0.5
S'second'
p136
I1
tp137
a(I10
I147
I0
S'next'
p138
I1
tp139
a(I10
I158
F0.375
S'new'
p140
I1
tp141
a(I11
I12
F0.25
S'used'
p142
I1
tp143
a(I17
I24
F-0.375
S'locked'
p144
I1
tp145
a(I17
I26
F0.125
S'first'
p146
I1
tp147
a(I21
I24
F-0.625
S'other'
p148
I1
tp149
a(I22
I38
F0.75
S'fit'
p150
I1
tp151
a(I3
I39
I0
S'local'
p152
I4
tp153
a(I3
I89
F-0.625
g94
I4
tp154
a(I6
I4
F1.0
S'better'
p155
I4
tp156
a(I6
I4
F-0.75
S'little'
p157
I4
tp158
a(I10
I64
I0
S'great'
p159
I4
tp160
as(S'applications'
p161
tp162
(lp163
(I2
I65
F0.375
S'available'
p164
I3
tp165
a(I14
I3
F0.25
S'helpful'
p166
I3
tp167
a(I14
I20
I0
S'more'
p168
I3
tp169
a(I14
I21
F0.25
S'helpful'
p170
I3
tp171
a(I14
I22
I0
S'such'
p172
I3
tp173
a(I20
I12
F-0.625
S'other'
p174
I3
tp175
a(I20
I12
F1.0
S'good'
p176
I3
tp177
as(S'beauty'
p178
tp179
(lp180
(I10
I149
I0
S'many'
p181
I1
tp182
as(S'seller'
p183
tp184
(lp185
(I5
I25
F1.0
S'good'
p186
I19
tp187
a(I5
I25
F0.375
S'new'
p188
I19
tp189
a(I6
I17
F0.75
S'due'
p190
I19
tp191
as(S'customer'
p192
tp193
(lp194
(I3
I71
I0
S'standard'
p195
I11
tp196
a(I10
I69
I-100
S'apple/steve'
p197
I11
tp198
a(I10
I142
F-0.625
S'other'
p199
I11
tp200
as(S'network'
p201
tp202
(lp203
(I10
I96
F-0.875
S'worst'
p204
I0
tp205
a(I10
I99
F-0.5
S'regular'
p206
I0
tp207
a(I14
I46
I0
S'social'
p208
I0
tp209
as(S'sim'
p210
S'card'
p211
tp212
(lp213
(I1
I21
F0.5
S'functional'
p214
I0
tp215
as(S'facing'
p216
S'camera'
p217
tp218
(lp219
(I14
I27
I0
S'rear'
p220
I0
tp221
a(I22
I2
F0.125
S'digital'
p222
I0
tp223
a(I2
I66
I0
S'useful'
p224
I1
tp225
a(I10
I11
I0
S'great'
p226
I1
tp227
a(I10
I153
I0
S'great'
p228
I1
tp229
a(I14
I29
F-0.5
S'heavy'
p230
I1
tp231
a(I17
I1
F1.0
S'good'
p232
I1
tp233
a(I19
I28
I0
S'more'
p234
I1
tp235
a(I20
I18
F1.0
S'better'
p236
I1
tp237
a(I22
I2
F0.125
g222
I1
tp238
as(S'lady'
p239
tp240
(lp241
(I10
I23
F0.75
S'beautiful'
p242
I9
tp243
a(I10
I29
F0.75
S'beautiful'
p244
I9
tp245
a(I10
I31
F-0.75
S'hate'
p246
I9
tp247
as(S'basic'
p248
S'things'
p249
tp250
(lp251
(I10
I108
I0
S'basic'
p252
I2
tp253
a(I10
I129
I0
S'basic'
p254
I2
tp255
a(I10
I136
I0
S'basic'
p256
I2
tp257
a(I10
I137
I0
S'basic'
p258
I2
tp259
as(S'data'
p260
S'plan'
p261
tp262
(lp263
(I1
I6
I0
S'apple'
p264
I0
tp265
a(I1
I6
I0
g264
I13
tp266
a(I2
I58
F-0.625
S'other'
p267
I13
tp268
a(I5
I16
F-0.125
S'private'
p269
I13
tp270
a(I10
I99
I0
S'cellular'
p271
I13
tp272
as(S'users'
p273
tp274
(lp275
(I14
I37
I0
S'many'
p276
I3
tp277
a(I14
I42
F-0.625
S'other'
p278
I3
tp279
as(S'apps'
p280
tp281
(lp282
(I0
I23
I0
S'cool'
p283
I0
tp284
a(I3
I22
I0
S'fast'
p285
I0
tp286
a(I6
I54
I0
S'great'
p287
I0
tp288
a(I10
I10
F0.375
S'available'
p289
I0
tp290
a(I14
I61
F0.25
S'sharp'
p291
I0
tp292
a(I14
I61
I0
S'fast'
p293
I0
tp294
a(I14
I73
F0.875
S'music'
p295
I0
tp296
a(I17
I34
I0
S'great'
p297
I0
tp298
a(I20
I18
I0
S'more'
p299
I0
tp300
a(I22
I22
I0
S'cool'
p301
I0
tp302
a(I22
I22
F0.375
S'available'
p303
I0
tp304
as(S'dropped'
p305
S'calls'
p306
tp307
(lp308
(I2
I10
F-0.25
S'dropped'
p309
I0
tp310
a(I3
I22
F-0.25
S'dropped'
p311
I0
tp312
a(I2
I10
F-0.25
g309
I0
tp313
a(I3
I22
F-0.25
g311
I0
tp314
a(I6
I31
I0
S'only'
p315
I0
tp316
as(S'amazon'
p317
tp318
(lp319
(I2
I28
F0.125
S'last'
p320
I13
tp321
a(I14
I52
F-0.25
S'cheaper'
p322
I13
tp323
a(I14
I83
I0
S'site'
p324
I13
tp325
as.