(dp0
(S'battery'
p1
S'life'
p2
tp3
(lp4
(I0
I7
F0.25
S'stellar'
p5
I1
tp6
a(I5
I90
I0
S'great'
p7
I1
tp8
a(I13
I40
I0
S'least'
p9
I1
tp10
a(I18
I5
F-0.625
S'bad'
p11
I1
tp12
a(I24
I7
F-0.5
S'poor'
p13
I1
tp14
a(I25
I75
F-0.5
S'afraid'
p15
I1
tp16
a(I25
I75
F0.5
S'true'
p17
I1
tp18
a(I5
I90
I0
g7
I19
tp19
a(I6
I49
F-0.5
S'long'
p20
I19
tp21
a(I18
I5
F-0.625
g11
I19
tp22
a(I24
I7
F-0.5
g13
I19
tp23
a(I25
I75
F-0.5
g15
I19
tp24
a(I25
I75
F0.5
g17
I19
tp25
a(I0
I7
F0.25
g5
I15
tp26
a(I5
I19
F-0.25
S'lowest'
p27
I15
tp28
a(I5
I73
F0.375
S'much'
p29
I15
tp30
a(I9
I5
F0.125
S'last'
p31
I15
tp32
a(I13
I40
I0
g9
I15
tp33
a(I15
I23
F-0.375
S'small'
p34
I15
tp35
a(I18
I7
F0.375
S'new'
p36
I15
tp37
a(I25
I48
I0
S'quick'
p38
I15
tp39
a(I25
I53
F1.0
S'good'
p40
I15
tp41
a(I25
I121
F0.125
S'last'
p42
I15
tp43
as(S'bad'
p44
S'thing'
p45
tp46
(lp47
(I0
I0
F-0.625
S'bad'
p48
I2
tp49
a(I25
I121
I0
S'only'
p50
I2
tp51
a(I25
I121
F-0.625
S'bad'
p52
I2
tp53
a(I26
I17
I0
S'only'
p54
I2
tp55
a(I26
I17
F-0.625
S'bad'
p56
I2
tp57
as(S'service'
p58
tp59
(lp60
(I13
I52
I0
S'term'
p61
I16
tp62
a(I13
I77
I0
S'faster'
p63
I16
tp64
a(I13
I77
F0.125
S'typical'
p65
I16
tp66
a(I13
I77
F-0.125
S'slow'
p67
I16
tp68
a(I13
I80
I0
S'high'
p69
I16
tp70
as(S'mini'
p71
tp72
(lp73
(I5
I7
F0.375
S'new'
p74
I13
tp75
as(S'google'
p76
tp77
(lp78
(I13
I63
I0
S'updated'
p79
I4
tp80
as(S'sd'
p81
S'card'
p82
tp83
(lp84
(I25
I101
I0
S'external'
p85
I0
tp86
as(S'light'
p87
S'weight'
p88
tp89
(lp90
(I5
I1
F-0.625
S'light'
p91
I5
tp92
a(I27
I26
F-0.625
S'light'
p93
I5
tp94
as(S'usb'
p95
S'micro'
p96
tp97
(lp98
(I13
I6
I0
S'female'
p99
I0
tp100
a(I13
I6
I0
S'male'
p101
I0
tp102
a(I13
I17
I0
S'standard'
p103
I0
tp104
a(I23
I4
I0
S'cable'
p105
I0
tp106
as(S'smart'
p107
tp108
(lp109
(I18
I30
F0.125
S'first'
p110
I10
tp111
a(I25
I17
F-0.375
S'small'
p112
I10
tp113
a(I25
I17
F0.5
S'reasonable'
p114
I10
tp115
a(I25
I27
F0.125
S'first'
p116
I10
tp117
a(I25
I30
F0.125
S'first'
p118
I10
tp119
a(I25
I68
F-0.625
S'other'
p120
I10
tp121
a(I27
I7
F-0.625
S'other'
p122
I10
tp123
as(S'price'
p124
S'range'
p125
tp126
(lp127
(I15
I19
I0
S'different'
p128
I1
tp129
as(S'samsung'
p130
S'galaxy'
p131
tp132
(lp133
(I5
I38
F0.875
S'happy'
p134
I0
tp135
a(I6
I49
F0.375
S'new'
p136
I0
tp137
a(I21
I15
F0.75
S'receive'
p138
I0
tp139
a(I21
I15
I0
S'next'
p140
I0
tp141
a(I5
I52
I0
S'standard'
p142
I7
tp143
a(I6
I49
F0.375
g136
I7
tp144
a(I13
I8
F-0.636
S'genuine'
p145
I7
tp146
a(I13
I62
F-0.375
S'small'
p147
I7
tp148
a(I13
I62
F-0.25
S'inexpensive'
p149
I7
tp150
a(I14
I0
F1.0
S'best'
p151
I7
tp152
a(I18
I29
F1.0
S'better'
p153
I7
tp154
a(I21
I15
F0.75
g138
I7
tp155
a(I0
I9
F-0.5
S'regular'
p156
I0
tp157
a(I5
I38
F0.875
g134
I0
tp158
a(I21
I15
I0
g140
I0
tp159
as(S'language'
p160
tp161
(lp162
(I0
I2
F-0.625
S'other'
p163
I3
tp164
a(I0
I3
F-0.125
S'foreign'
p165
I3
tp166
a(I16
I1
I0
S'different'
p167
I3
tp168
a(I25
I15
F-0.375
S'manual'
p169
I3
tp170
a(I25
I15
F1.0
S'good'
p171
I3
tp172
a(I25
I15
F0.625
S'correct'
p173
I3
tp174
a(I25
I36
I0
S'english'
p175
I3
tp176
as(S'sim'
p177
S'card'
p178
tp179
(lp180
(I15
I27
F-0.125
S'foreign'
p181
I0
tp182
as(S'data'
p183
tp184
(lp185
(I5
I19
I0
S'most'
p186
I13
tp187
a(I13
I13
I0
S'cable'
p188
I13
tp189
a(I13
I78
I0
S'fastest'
p190
I13
tp191
a(I13
I80
I0
S'such'
p192
I13
tp193
a(I23
I10
F-0.5
S'sure'
p194
I13
tp195
as(S'smartphone'
p196
tp197
(lp198
(I5
I65
F1.0
S'good'
p199
I0
tp200
a(I6
I46
F0.125
S'first'
p201
I0
tp202
a(I18
I0
F1.0
S'good'
p203
I0
tp204
a(I18
I0
F-0.375
S'small'
p205
I0
tp206
a(I19
I15
F-0.375
S'small'
p207
I0
tp208
a(I19
I15
F-0.375
S'simple'
p209
I0
tp210
a(I25
I123
F-0.375
S'small'
p211
I0
tp212
as(S'network'
p213
tp214
(lp215
(I4
I3
I0
S'american'
p216
I0
tp217
a(I4
I5
F0.5
S'clear'
p218
I0
tp219
a(I25
I6
I0
S'mobile'
p220
I0
tp221
as(S'wifi'
p222
tp223
(lp224
(I13
I81
F0.375
S'available'
p225
I0
tp226
as(S'apps'
p227
tp228
(lp229
(I5
I79
F-0.5
S'heavy'
p230
I0
tp231
a(I13
I22
F0.5
S'compatible'
p232
I0
tp233
a(I18
I27
I0
S'russian'
p234
I0
tp235
a(I19
I8
I0
S'few'
p236
I0
tp237
a(I19
I9
I0
S'most'
p238
I0
tp239
a(I19
I15
I0
S'useful'
p240
I0
tp241
a(I25
I3
I0
S'french'
p242
I0
tp243
a(I26
I5
I0
S'few'
p244
I0
tp245
as(S'internal'
p246
S'memory'
p247
tp248
(lp249
(I5
I37
I0
S'internal'
p250
I0
tp251
a(I6
I41
I0
S'internal'
p252
I0
tp253
a(I19
I8
I0
S'internal'
p254
I0
tp255
a(I25
I101
I0
S'internal'
p256
I0
tp257
a(I25
I102
F-0.375
S'small'
p258
I0
tp259
a(I25
I102
F0.125
S'enough'
p260
I0
tp261
a(I25
I102
I0
S'more'
p262
I0
tp263
a(I5
I36
I0
S'external'
p264
I5
tp265
a(I5
I36
I0
S'large'
p266
I5
tp267
a(I5
I37
I0
g250
I5
tp268
a(I6
I41
I0
g252
I5
tp269
a(I19
I8
I0
g254
I5
tp270
a(I19
I10
F0.375
S'available'
p271
I5
tp272
a(I25
I101
I0
g256
I5
tp273
a(I25
I102
F-0.375
g258
I5
tp274
a(I25
I102
F0.125
g260
I5
tp275
a(I25
I102
I0
g262
I5
tp276
as(S'touch'
p277
S'screen'
p278
tp279
(lp280
(I5
I39
F-0.375
S'small'
p281
I2
tp282
a(I5
I39
F0.625
S'easy'
p283
I2
tp284
a(I13
I65
F-0.375
S'small'
p285
I2
tp286
a(I13
I65
F0.125
S'low-resolution'
p287
I2
tp288
a(I18
I22
F0.5
S'touch'
p289
I2
tp290
a(I18
I22
F0.25
S'responsive'
p291
I2
tp292
a(I25
I74
F0.125
S'first'
p293
I2
tp294
as.