(dp0
(S'seller'
p1
tp2
(lp3
(I2
I10
F-0.5
S'answer'
p4
I19
tp5
as(S'de'
p6
S'la'
p7
tp8
(lp9
(I13
I6
F0.375
S'soy'
p10
I2
tp11
as(S'trackpad'
p12
tp13
(lp14
(I15
I19
F0.5
S'touch'
p15
I0
tp16
as(S'digitel'
p17
tp18
(lp19
(I4
I13
F0.25
S'powerful'
p20
I0
tp21
a(I17
I0
F1.0
S'good'
p22
I0
tp23
as(S'cellphone'
p24
tp25
(lp26
(I31
I21
F-0.625
S'bad'
p27
I0
tp28
a(I31
I21
F0.5
S'elegant'
p29
I0
tp30
a(I31
I21
F0.875
S'nice'
p31
I0
tp32
a(I31
I23
F0.875
S'nice'
p33
I0
tp34
as(S'happy'
p35
S'mart'
p36
tp37
(lp38
(I20
I12
F0.875
S'happy'
p39
I0
tp40
as(S'international'
p41
S'version'
p42
tp43
(lp44
(I25
I4
F-0.5
S'international'
p45
I0
tp46
a(I25
I5
F-0.5
S'international'
p47
I0
tp48
as(S'vendedor'
p49
tp50
(lp51
(I8
I5
I0
S'al'
p52
I0
tp53
as(S'first'
p54
S'time'
p55
tp56
(lp57
(I2
I9
F0.125
S'first'
p58
I10
tp59
a(I2
I9
I0
S'angry'
p60
I10
tp61
a(I7
I11
F0.125
S'first'
p62
I10
tp63
a(I15
I29
F0.125
S'first'
p64
I10
tp65
a(I29
I2
F0.25
S'read'
p66
I10
tp67
a(I29
I2
F0.125
S'first'
p68
I10
tp69
a(I29
I3
F0.125
S'first'
p70
I10
tp71
as(S'es'
p72
S'un'
p73
tp74
(lp75
(I20
I14
F-0.125
S'blackberry'
p76
I5
tp77
as(S'blackberry'
p78
S'pearl'
p79
tp80
(lp81
(I0
I5
F0.875
S'happy'
p82
I0
tp83
a(I20
I9
F-0.625
S'other'
p84
I0
tp85
a(I0
I5
F0.875
g82
I1
tp86
a(I11
I2
F0.25
S'original'
p87
I1
tp88
a(I11
I4
F0.375
S'new'
p89
I1
tp90
a(I11
I4
F0.375
S'new'
p91
I1
tp92
a(I11
I4
I0
S'old'
p93
I1
tp94
a(I20
I9
F-0.625
g84
I1
tp95
a(I20
I8
F-0.375
S'smaller'
p96
I1
tp97
as(S'soy'
p98
S'de'
p99
S'venezuela'
p100
tp101
(lp102
(I13
I6
F0.375
g10
I0
tp103
a(I13
I6
F0.375
g10
I0
tp104
as(S'cable'
p105
S'usb'
p106
tp107
(lp108
(I13
I5
I0
S'cable'
p109
I0
tp110
a(I20
I1
I0
S'cable'
p111
I0
tp112
as.