(dp0
(S'android'
p1
tp2
(lp3
(I2
I36
F0.375
S'new'
p4
I0
tp5
a(I6
I25
F0.25
S'unlocked'
p6
I0
tp7
a(I8
I41
F-0.5
S'sure'
p8
I0
tp9
as(S'iphone'
p10
tp11
(lp12
(I8
I39
F0.125
S'able'
p13
I1
tp14
a(I8
I61
F0.25
S'responsive'
p15
I1
tp16
a(I8
I75
F-0.625
S'sorry'
p17
I1
tp18
as(S'battery'
p19
S'life'
p20
tp21
(lp22
(I2
I33
F-0.75
S'short'
p23
I1
tp24
a(I3
I6
F-0.75
S'short'
p25
I1
tp26
a(I6
I45
F0.125
S'first'
p27
I1
tp28
a(I7
I7
F-0.75
S'short'
p29
I1
tp30
a(I8
I80
I0
S'great'
p31
I1
tp32
a(I8
I83
I0
S'pic'
p33
I1
tp34
a(I8
I84
I0
S'full'
p35
I1
tp36
a(I2
I33
F-0.75
g23
I19
tp37
a(I3
I6
F-0.75
g25
I19
tp38
a(I6
I22
F0.625
S'easier'
p39
I19
tp40
a(I7
I7
F-0.75
g29
I19
tp41
a(I8
I80
I0
g31
I19
tp42
a(I8
I84
I0
g35
I19
tp43
a(I0
I7
F-0.375
S'small'
p44
I15
tp45
a(I2
I14
F0.125
S'last'
p46
I15
tp47
a(I2
I16
F-0.375
S'small'
p48
I15
tp49
a(I4
I2
F0.125
S'last'
p50
I15
tp51
a(I6
I45
F0.125
g27
I15
tp52
a(I8
I36
F-0.5
S'flimsy'
p53
I15
tp54
a(I8
I36
F-0.5
S'less'
p55
I15
tp56
a(I8
I83
I0
g33
I15
tp57
as(S'little'
p58
S'things'
p59
tp60
(lp61
(I7
I19
I0
S'such'
p62
I0
tp63
a(I7
I19
F-0.75
S'little'
p64
I0
tp65
a(I7
I20
I0
S'many'
p66
I0
tp67
a(I7
I20
F-0.75
S'little'
p68
I0
tp69
a(I8
I16
F-0.75
S'little'
p70
I0
tp71
a(I8
I45
F-0.75
S'little'
p72
I0
tp73
a(I8
I46
F-0.75
S'little'
p74
I0
tp75
a(I8
I66
F-0.75
S'little'
p76
I0
tp77
a(I8
I66
F-0.875
S'bother'
p78
I0
tp79
as(S'sim'
p80
S'card'
p81
tp82
(lp83
(I7
I12
F-0.25
S'lid'
p84
I0
tp85
as(S'web'
p86
S'browser'
p87
tp88
(lp89
(I8
I43
F0.25
S'responsive'
p90
I0
tp91
as(S'camera'
p92
tp93
(lp94
(I4
I46
F-0.125
S'overall'
p95
I1
tp96
a(I6
I1
F0.125
S'impressive'
p97
I1
tp98
a(I8
I27
I0
S'nervous'
p99
I1
tp100
a(I8
I76
F0.875
S'nice'
p101
I1
tp102
as(S'htc'
p103
S'desire'
p104
tp105
(lp106
(I6
I5
F-0.125
S'former'
p107
I0
tp108
a(I7
I0
F0.375
S'new'
p109
I0
tp110
as.