(dp0
(S'battery'
p1
S'life'
p2
tp3
(lp4
(I6
I9
F1.0
S'good'
p5
I1
tp6
a(I0
I34
F0.125
S'last'
p7
I15
tp8
a(I0
I34
F-0.5
S'long'
p9
I15
tp10
a(I8
I23
F0.125
S'last'
p11
I15
tp12
as(S'keyboard'
p13
tp14
(lp15
(I2
I18
F-0.75
S'little'
p16
I2
tp17
a(I2
I18
F0.625
S'perfect'
p18
I2
tp19
a(I2
I18
I0
S'big'
p20
I2
tp21
a(I2
I18
F-0.375
S'small'
p22
I2
tp23
a(I4
I30
I0
S'physical'
p24
I2
tp25
a(I6
I41
F-0.75
S'comfortable'
p26
I2
tp27
a(I23
I16
I0
S'full'
p28
I2
tp29
as(S'motorola'
p30
tp31
(lp32
(I4
I12
F0.5
S'compatible'
p33
I0
tp34
a(I15
I0
F1.0
S'good'
p35
I0
tp36
as(S'dual'
p37
S'sim'
p38
S'feature'
p39
tp40
(lp41
(I11
I8
F0.625
S'interested'
p42
I0
tp43
a(I11
I14
I0
S'cool'
p44
I0
tp45
a(I19
I9
I0
S'great'
p46
I0
tp47
a(I2
I12
F0.375
S'reliable'
p48
I0
tp49
a(I4
I23
I0
S'great'
p50
I0
tp51
a(I13
I11
F0.25
S'unlocked'
p52
I0
tp53
a(I13
I11
I0
S'useful'
p54
I0
tp55
a(I17
I9
F-0.625
S'other'
p56
I0
tp57
a(I23
I0
I0
S'great'
p58
I0
tp59
a(I23
I8
I0
S'basic'
p60
I0
tp61
as(S'camera'
p62
tp63
(lp64
(I0
I26
F1.0
S'better'
p65
I1
tp66
a(I2
I6
F1.0
S'good'
p67
I1
tp68
a(I11
I4
I0
S'close'
p69
I1
tp70
as(S'internet'
p71
tp72
(lp73
(I6
I30
F-0.75
S'difficult'
p74
I6
tp75
as(S'social'
p76
S'networks'
p77
tp78
(lp79
(I17
I11
I0
S'few'
p80
I0
tp81
a(I17
I11
I0
S'social'
p82
I0
tp83
a(I19
I20
I0
S'social'
p84
I0
tp85
as(S'radio'
p86
tp87
(lp88
(I6
I32
F-0.625
S'other'
p89
I0
tp90
a(I6
I32
F-0.625
S'light'
p91
I0
tp92
as(S'sound'
p93
tp94
(lp95
(I6
I33
F1.0
S'good'
p96
I7
tp97
a(I10
I13
I0
S'hear'
p98
I7
tp99
a(I11
I2
I0
S'particular'
p100
I7
tp101
as(S'media'
p102
S'player'
p103
tp104
(lp105
(I17
I11
I0
S'basic'
p106
I0
tp107
as(S'sim'
p108
S'card'
p109
tp110
(lp111
(I8
I20
I0
S'useful'
p112
I0
tp113
a(I18
I2
F0.625
S'extraordinary'
p114
I0
tp115
as(S'contact'
p116
tp117
(lp118
(I0
I10
F0.375
S'new'
p119
I10
tp120
a(I13
I14
F1.0
S'better'
p121
I10
tp122
as(S'text'
p123
S'messages'
p124
tp125
(lp126
(I17
I6
I0
S'text'
p127
I0
tp128
a(I2
I69
I0
S'big'
p129
I18
tp130
a(I2
I69
F-0.625
S'want'
p131
I18
tp132
a(I17
I6
I0
g127
I1
tp133
a(I17
I21
I0
S'pic'
p134
I1
tp135
a(I17
I21
I0
S'full'
p136
I1
tp137
a(I17
I21
I0
S'pic'
p138
I1
tp139
as(S'sim'
p140
S'to'
p141
S'use'
p142
tp143
(lp144
(I2
I12
F0.375
g48
I0
tp145
a(I2
I67
I-100
S'single-sim'
p146
I0
tp147
a(I13
I11
F0.25
g52
I0
tp148
a(I13
I11
I0
g54
I0
tp149
a(I17
I9
F-0.625
g56
I0
tp150
as(S'international'
p151
S'version'
p152
tp153
(lp154
(I4
I46
F-0.5
S'international'
p155
I0
tp156
as(S'data'
p157
S'plan'
p158
tp159
(lp160
(I2
I43
I0
S'internet'
p161
I0
tp162
as(S'a'
p163
S'dual'
p164
S'sim'
p165
tp166
(lp167
(I2
I12
F0.375
g48
I0
tp168
a(I4
I23
I0
g50
I0
tp169
a(I13
I11
F0.25
g52
I0
tp170
a(I13
I11
I0
g54
I0
tp171
a(I17
I9
F-0.625
g56
I0
tp172
a(I23
I0
I0
g58
I0
tp173
a(I23
I8
I0
g60
I0
tp174
as(S'calls'
p175
tp176
(lp177
(I0
I28
I0
S'few'
p178
I0
tp179
a(I4
I20
F0.75
S'receive'
p180
I0
tp181
a(I4
I27
F0.75
S'receive'
p182
I0
tp183
a(I6
I28
F0.5
S'clear'
p184
I0
tp185
a(I9
I3
I0
S'different'
p186
I0
tp187
as.