(dp0
(S'require'
p1
S'a'
p2
S'data'
p3
tp4
(lp5
(I12
I136
I0
S'monthly'
p6
I0
tp7
a(I12
I208
I0
S'two-year'
p8
I0
tp9
a(I9
I61
F-0.75
S'hate'
p10
I13
tp11
a(I9
I75
F-0.625
S'other'
p12
I13
tp13
a(I10
I23
I0
S'rear'
p14
I13
tp15
a(I10
I23
I0
S'automatic'
p16
I13
tp17
a(I12
I92
F0.5
S'willing'
p18
I13
tp19
a(I12
I136
I0
g6
I13
tp20
a(I12
I183
F0.5
S'expensive'
p21
I13
tp22
a(I12
I208
I0
g8
I13
tp23
a(I16
I4
I0
S'high'
p24
I13
tp25
a(I16
I6
F0.375
S'available'
p26
I13
tp27
a(I16
I7
I0
S'incredible'
p28
I13
tp29
a(I19
I192
I0
S'full'
p30
I13
tp31
as(S'battery'
p32
S'life'
p33
tp34
(lp35
(I3
I54
F0.375
S'new'
p36
I1
tp37
a(I3
I54
F-0.5
S'did'
p38
I1
tp39
a(I8
I9
F-0.5
S'less'
p40
I1
tp41
a(I13
I3
F0.125
S'last'
p42
I1
tp43
a(I15
I156
I0
S'great'
p44
I1
tp45
a(I16
I75
F1.0
S'good'
p46
I1
tp47
a(I18
I61
F0.875
S'lucky'
p48
I1
tp49
a(I18
I61
I0
S'weird'
p50
I1
tp51
a(I20
I3
I0
S'full'
p52
I1
tp53
a(I8
I9
F-0.5
g40
I19
tp54
a(I13
I3
F0.125
g42
I19
tp55
a(I16
I75
F1.0
g46
I19
tp56
a(I18
I61
I0
g50
I19
tp57
as(S'3'
p58
S'times'
p59
tp60
(lp61
(I7
I36
F-0.375
S'daily'
p62
I3
tp63
a(I15
I164
F-0.625
S'glad'
p64
I3
tp65
a(I18
I102
I0
S'least'
p66
I3
tp67
as(S'several'
p68
S'times'
p69
tp70
(lp71
(I7
I36
F-0.375
g62
I4
tp72
a(I15
I85
I0
S'few'
p73
I4
tp74
a(I19
I100
I0
S'own'
p75
I4
tp76
as(S'freestyle'
p77
tp78
(lp79
(I2
I30
F0.5
S'second'
p80
I0
tp81
a(I7
I16
F-0.625
S'sorry'
p82
I0
tp83
a(I7
I136
F0.875
S'happy'
p84
I0
tp85
a(I9
I15
I0
S'common'
p86
I0
tp87
a(I9
I18
F0.5
S'possible'
p88
I0
tp89
a(I9
I18
F0.5
S'second'
p90
I0
tp91
a(I9
I18
F-0.75
S'worse'
p92
I0
tp93
a(I9
I18
F0.125
S'first'
p94
I0
tp95
a(I9
I74
I0
S'great'
p96
I0
tp97
a(I12
I122
F-0.875
S'hard'
p98
I0
tp99
a(I13
I15
F0.125
S'last'
p100
I0
tp101
a(I13
I17
F0.375
S'new'
p102
I0
tp103
a(I18
I80
F0.375
S'new'
p104
I0
tp105
as(S'smartphone'
p106
tp107
(lp108
(I12
I148
I0
S'close'
p109
I0
tp110
a(I12
I181
I0
S'extensive'
p111
I0
tp112
a(I12
I239
F1.0
S'good'
p113
I0
tp114
a(I19
I56
I0
S'only'
p115
I0
tp116
as(S'steer'
p117
S'clear'
p118
tp119
(lp120
(I7
I24
F-0.625
S'grief'
p121
I0
tp122
as(g2
S'text'
p123
S'message'
p124
tp125
(lp126
(I1
I9
F0.75
S'receive'
p127
I0
tp128
a(I1
I18
F0.75
S'receive'
p129
I0
tp130
a(I1
I18
I0
S'same'
p131
I0
tp132
a(I2
I37
F0.25
S'duplicate'
p133
I0
tp134
a(I2
I64
I0
S'same'
p135
I0
tp136
a(I2
I84
F0.25
S'duplicate'
p137
I0
tp138
a(I3
I41
F0.375
S'new'
p139
I0
tp140
a(I8
I28
I0
S'same'
p141
I0
tp142
a(I10
I69
F0.25
S'duplicate'
p143
I0
tp144
a(I11
I6
I0
S'same'
p145
I0
tp146
a(I12
I137
I0
S'same'
p147
I0
tp148
a(I13
I12
F-0.75
S'single'
p149
I0
tp150
a(I15
I96
I0
S'same'
p151
I0
tp152
a(I16
I9
I0
S'same'
p153
I0
tp154
a(I16
I60
F0.25
S'duplicate'
p155
I0
tp156
a(I16
I76
I0
S'common'
p157
I0
tp158
a(I18
I196
F0.25
S'duplicate'
p159
I0
tp160
a(I19
I61
I0
S'multiple'
p161
I0
tp162
a(I19
I61
F-0.875
S'worst'
p163
I0
tp164
a(I19
I125
I0
S'same'
p165
I0
tp166
as(S'exact'
p167
S'same'
p168
S'problems'
p169
tp170
(lp171
(I12
I238
I0
S'exact'
p172
I0
tp173
a(I15
I19
I0
S'exact'
p174
I0
tp175
a(I15
I19
F-0.75
S'worse'
p176
I0
tp177
a(I18
I93
F0.5
S'second'
p178
I0
tp179
a(I18
I93
I0
S'exact'
p180
I0
tp181
a(I18
I93
F0.125
S'first'
p182
I0
tp183
a(I19
I60
I0
S'exact'
p184
I0
tp185
a(I19
I60
F-0.875
S'worst'
p186
I0
tp187
as(S'piece'
p188
S'of'
p189
S'crap'
p190
tp191
(lp192
(I10
I0
F0.25
S'biggest'
p193
I0
tp194
as(S'freeze'
p195
tp196
(lp197
(I7
I3
F0.375
S'working'
p198
I9
tp199
as(g2
S'touch'
p200
S'screen'
p201
tp202
(lp203
(I2
I10
F-0.375
S'small'
p204
I0
tp205
a(I2
I17
F0.5
S'touch'
p206
I0
tp207
a(I2
I48
I0
S'large'
p208
I0
tp209
a(I2
I77
F0.5
S'touch'
p210
I0
tp211
a(I2
I77
F0.25
S'responsive'
p212
I0
tp213
a(I2
I97
F0.5
S'touch'
p214
I0
tp215
a(I7
I26
F0.5
S'touch'
p216
I0
tp217
a(I8
I38
I0
S'great'
p218
I0
tp219
a(I9
I20
F0.5
S'touch'
p220
I0
tp221
a(I9
I88
F0.5
S'touch'
p222
I0
tp223
a(I9
I116
F0.25
S'inductive'
p224
I0
tp225
a(I10
I65
F0.5
S'touch'
p226
I0
tp227
a(I10
I65
F0.75
S'beautiful'
p228
I0
tp229
a(I10
I100
F0.5
S'touch'
p230
I0
tp231
a(I12
I126
F0.25
S'responsive'
p232
I0
tp233
a(I12
I167
F0.25
S'responsive'
p234
I0
tp235
a(I12
I254
F0.875
S'nice'
p236
I0
tp237
a(I13
I0
F0.5
S'touch'
p238
I0
tp239
a(I15
I3
F0.5
S'touch'
p240
I0
tp241
a(I15
I30
F0.5
S'touch'
p242
I0
tp243
a(I15
I116
F0.5
S'touch'
p244
I0
tp245
a(I15
I154
F1.0
S'best'
p246
I0
tp247
a(I15
I164
F0.5
S'touch'
p248
I0
tp249
a(I18
I68
I0
S'great'
p250
I0
tp251
a(I18
I110
F0.25
S'responsive'
p252
I0
tp253
a(I18
I174
F0.5
S'touch'
p254
I0
tp255
a(I18
I174
I0
S'sensitive'
p256
I0
tp257
a(I2
I10
F-0.375
g204
I2
tp258
a(I2
I17
F0.5
g206
I2
tp259
a(I2
I48
I0
g208
I2
tp260
a(I2
I77
F0.5
g210
I2
tp261
a(I2
I77
F0.25
g212
I2
tp262
a(I2
I97
F0.5
g214
I2
tp263
a(I7
I26
F0.5
g216
I2
tp264
a(I8
I38
I0
g218
I2
tp265
a(I9
I20
F0.5
g220
I2
tp266
a(I9
I88
F0.5
g222
I2
tp267
a(I9
I116
F0.25
g224
I2
tp268
a(I10
I65
F0.5
g226
I2
tp269
a(I10
I65
F0.75
g228
I2
tp270
a(I10
I100
F0.5
g230
I2
tp271
a(I12
I126
F0.25
g232
I2
tp272
a(I12
I167
F0.25
g234
I2
tp273
a(I12
I254
F0.875
g236
I2
tp274
a(I13
I0
F0.5
g238
I2
tp275
a(I15
I3
F0.5
g240
I2
tp276
a(I15
I30
F0.5
g242
I2
tp277
a(I15
I116
F0.5
g244
I2
tp278
a(I15
I154
F1.0
g246
I2
tp279
a(I15
I164
F0.5
g248
I2
tp280
a(I18
I68
I0
g250
I2
tp281
a(I18
I110
F0.25
g252
I2
tp282
a(I18
I174
F0.5
g254
I2
tp283
a(I18
I174
I0
g256
I2
tp284
as(S'amazon'
p285
S'wireless'
p286
tp287
(lp288
(I12
I51
F1.0
S'good'
p289
I0
tp290
a(I12
I193
F0.5
S'suggest'
p291
I0
tp292
a(I3
I2
F-0.75
S'worse'
p293
I13
tp294
a(I7
I134
F0.875
S'nice'
p295
I13
tp296
a(I12
I109
I0
S'great'
p297
I13
tp298
a(I12
I110
I0
S'great'
p299
I13
tp300
a(I12
I193
F0.5
g291
I13
tp301
a(I12
I235
I0
S'great'
p302
I13
tp303
a(I12
I288
I0
S'great'
p304
I13
tp305
as(S'fm'
p306
S'radio'
p307
tp308
(lp309
(I15
I70
F1.0
S'good'
p310
I0
tp311
as(S'times'
p312
g2
S'day'
p313
tp314
(lp315
(I1
I25
F0.125
S'first'
p316
I0
tp317
a(I1
I25
I0
S'different'
p318
I0
tp319
a(I2
I71
I0
S'least'
p320
I0
tp321
a(I7
I5
F-0.75
S'single'
p322
I0
tp323
a(I7
I36
F-0.375
S'daily'
p324
I0
tp325
a(I7
I36
F-0.375
g62
I0
tp326
a(I7
I36
F1.0
S'best'
p327
I0
tp328
a(I12
I162
I0
S'least'
p329
I0
tp330
a(I18
I102
I0
g66
I0
tp331
a(I19
I100
I0
g75
I0
tp332
as(S'twice'
p333
g2
S'day'
p334
tp335
(lp336
(I12
I0
I0
S'least'
p337
I0
tp338
a(I18
I171
I0
S'least'
p339
I0
tp340
as(S'duplicate'
p341
S'text'
p342
S'messages'
p343
tp344
(lp345
(I2
I37
F0.25
g133
I0
tp346
a(I2
I84
F0.25
g137
I0
tp347
a(I10
I69
F0.25
g143
I0
tp348
a(I16
I60
F0.25
g155
I0
tp349
a(I18
I147
F-0.5
S'complaint'
p350
I0
tp351
a(I18
I147
F0.625
S'major'
p352
I0
tp353
a(I18
I196
F0.25
g159
I0
tp354
a(I18
I196
I0
S'many'
p355
I0
tp356
a(I2
I37
F0.25
g133
I0
tp357
a(I2
I84
F0.25
g137
I0
tp358
a(I10
I69
F0.25
g143
I0
tp359
a(I16
I60
F0.25
g155
I0
tp360
a(I18
I124
F0.75
S'receive'
p361
I0
tp362
a(I18
I147
F-0.5
g350
I0
tp363
a(I18
I147
F0.625
g352
I0
tp364
a(I18
I160
I0
S'very'
p365
I0
tp366
a(I18
I196
F0.25
g159
I0
tp367
as(S'messaging'
p368
tp369
(lp370
(I9
I74
I0
S'quick'
p371
I0
tp372
a(I14
I10
F0.25
S'duplicate'
p373
I0
tp374
a(I15
I96
I0
S'text'
p375
I0
tp376
a(I18
I176
F0.875
S'nice'
p377
I0
tp378
as(S'voice'
p379
S'dialing'
p380
tp381
(lp382
(I12
I263
I0
S'great'
p383
I0
tp384
as(S'freezes'
p385
tp386
(lp387
(I12
I26
F-0.875
S'hard'
p388
I0
tp389
as(S'on'
p390
S'first'
p391
S'day'
p392
tp393
(lp394
(I1
I25
F0.125
g316
I0
tp395
a(I2
I70
F0.125
S'first'
p396
I0
tp397
a(I7
I94
F0.125
S'first'
p398
I0
tp399
a(I15
I110
I0
S'least'
p400
I0
tp401
a(I16
I46
F0.125
S'first'
p402
I0
tp403
a(I18
I76
F0.125
S'first'
p404
I0
tp405
a(I18
I82
F0.125
S'first'
p406
I0
tp407
a(I19
I161
F0.125
S'first'
p408
I0
tp409
as(S'to'
p410
S'take'
p411
S'battery'
p412
tp413
(lp414
(I20
I3
I0
g52
I0
tp415
a(I20
I3
I0
g52
I0
tp416
a(I1
I38
F-0.5
S'longer'
p417
I15
tp418
a(I3
I54
F0.375
g36
I15
tp419
a(I3
I54
F-0.5
g38
I15
tp420
a(I6
I3
F0.125
S'protective'
p421
I15
tp422
a(I7
I11
F-0.75
S'dead'
p423
I15
tp424
a(I7
I20
F-0.25
S'low'
p425
I15
tp426
a(I7
I21
F-0.25
S'low'
p427
I15
tp428
a(I7
I21
F-0.25
S'low'
p429
I15
tp430
a(I7
I22
F0.375
S'new'
p431
I15
tp432
a(I7
I23
F-0.25
S'low'
p433
I15
tp434
a(I8
I18
F0.125
S'last'
p435
I15
tp436
a(I8
I20
F-0.75
S'dead'
p437
I15
tp438
a(I12
I227
I0
S'more'
p439
I15
tp440
a(I13
I11
I0
S'overnight'
p441
I15
tp442
a(I15
I139
I0
S'hot'
p443
I15
tp444
a(I15
I156
I0
g44
I15
tp445
a(I18
I29
F-0.5
S'open'
p446
I15
tp447
a(I18
I29
I0
S'close'
p448
I15
tp449
a(I18
I61
F0.875
g48
I15
tp450
a(I18
I63
I0
S'full'
p451
I15
tp452
a(I18
I63
F-0.75
S'dead'
p453
I15
tp454
a(I18
I64
I0
S'full'
p455
I15
tp456
a(I20
I3
I0
g52
I15
tp457
as(S'multiple'
p458
S'times'
p459
tp460
(lp461
(I7
I36
F-0.375
g62
I2
tp462
a(I18
I35
I0
S'multiple'
p463
I2
tp464
as(S'smart'
p465
tp466
(lp467
(I9
I79
F0.625
S'easy'
p468
I10
tp469
a(I12
I248
F0.375
S'similar'
p470
I10
tp471
a(I18
I146
F1.0
S'best'
p472
I10
tp473
as(S'receive'
p474
S'same'
p475
S'text'
p476
tp477
(lp478
(I3
I23
I0
S'same'
p479
I0
tp480
a(I8
I28
I0
g141
I0
tp481
a(I15
I164
I0
S'same'
p482
I0
tp483
a(I16
I9
I0
g153
I0
tp484
a(I16
I13
I0
S'same'
p485
I0
tp486
a(I17
I1
F0.75
S'receive'
p487
I0
tp488
a(I17
I1
I0
S'same'
p489
I0
tp490
as(S'email'
p491
S'address'
p492
tp493
(lp494
(I19
I233
I0
S'full'
p495
I0
tp496
as(S'replacement'
p497
tp498
(lp499
(I5
I3
F0.25
S'recent'
p500
I13
tp501
a(I7
I66
I0
S'fast'
p502
I13
tp503
a(I19
I20
F0.375
S'new'
p504
I13
tp505
as(S'same'
p506
S'text'
p507
S'message'
p508
tp509
(lp510
(I1
I18
F0.75
g129
I0
tp511
a(I1
I18
I0
g131
I0
tp512
a(I2
I64
I0
g135
I0
tp513
a(I8
I28
I0
g141
I0
tp514
a(I11
I6
I0
g145
I0
tp515
a(I12
I137
I0
g147
I0
tp516
a(I15
I96
I0
g151
I0
tp517
a(I16
I9
I0
g153
I0
tp518
a(I19
I125
I0
g165
I0
tp519
a(I1
I9
F0.75
g127
I0
tp520
a(I1
I18
F0.75
g129
I0
tp521
a(I1
I18
I0
g131
I0
tp522
a(I2
I37
F0.25
g133
I0
tp523
a(I2
I64
I0
g135
I0
tp524
a(I2
I84
F0.25
g137
I0
tp525
a(I3
I41
F0.375
g139
I0
tp526
a(I8
I28
I0
g141
I0
tp527
a(I10
I69
F0.25
g143
I0
tp528
a(I11
I6
I0
g145
I0
tp529
a(I12
I137
I0
g147
I0
tp530
a(I13
I12
F-0.75
g149
I0
tp531
a(I15
I96
I0
g151
I0
tp532
a(I16
I9
I0
g153
I0
tp533
a(I16
I60
F0.25
g155
I0
tp534
a(I16
I76
I0
g157
I0
tp535
a(I18
I196
F0.25
g159
I0
tp536
a(I19
I61
I0
g161
I0
tp537
a(I19
I61
F-0.875
g163
I0
tp538
a(I19
I125
I0
g165
I0
tp539
a(I1
I9
F0.75
g127
I18
tp540
a(I2
I37
F0.25
g133
I18
tp541
a(I2
I45
I0
S'great'
p542
I18
tp543
a(I2
I64
I0
g135
I18
tp544
a(I2
I84
F0.25
g137
I18
tp545
a(I3
I23
I0
g479
I18
tp546
a(I3
I41
F0.375
g139
I18
tp547
a(I8
I28
I0
g141
I18
tp548
a(I10
I69
F0.25
g143
I18
tp549
a(I11
I6
I0
g145
I18
tp550
a(I12
I137
I0
g147
I18
tp551
a(I13
I12
F-0.75
g149
I18
tp552
a(I15
I164
I0
g482
I18
tp553
a(I16
I9
I0
g153
I18
tp554
a(I16
I13
I0
g485
I18
tp555
a(I16
I19
I0
S'same'
p556
I18
tp557
a(I16
I40
I0
S'same'
p558
I18
tp559
a(I16
I60
F0.25
g155
I18
tp560
a(I16
I76
I0
g157
I18
tp561
a(I17
I1
F0.75
g487
I18
tp562
a(I17
I1
I0
g489
I18
tp563
a(I18
I115
I0
S'same'
p564
I18
tp565
a(I18
I196
F0.25
g159
I18
tp566
a(I19
I61
I0
g161
I18
tp567
a(I19
I61
F-0.875
g163
I18
tp568
a(I19
I89
F-0.5
S'call'
p569
I18
tp570
a(I19
I125
I0
g165
I18
tp571
a(I1
I18
F0.75
g129
I1
tp572
a(I1
I18
I0
g131
I1
tp573
a(I2
I38
I0
S'same'
p574
I1
tp575
a(I15
I96
I0
g151
I1
tp576
a(I15
I97
I0
S'more'
p577
I1
tp578
a(I16
I10
F1.0
S'better'
p579
I1
tp580
a(I19
I11
F0.125
S'able'
p581
I1
tp582
as(S'calls'
p583
tp584
(lp585
(I1
I6
F0.125
S'able'
p586
I0
tp587
a(I7
I44
I0
S'more'
p588
I0
tp589
a(I7
I44
F0.125
S'able'
p590
I0
tp591
a(I7
I132
F0.5
S'clear'
p592
I0
tp593
a(I12
I94
F0.25
S'recent'
p594
I0
tp595
a(I18
I13
F-0.5
S'less'
p596
I0
tp597
as(S'sim'
p598
S'card'
p599
tp600
(lp601
(I10
I105
F0.5
S'second'
p602
I0
tp603
as(S'weak'
p604
S'signal'
p605
tp606
(lp607
(I13
I14
F-0.5
S'weak'
p608
I0
tp609
a(I13
I14
F-0.5
g608
I1
tp610
a(I19
I7
I0
S'more'
p611
I1
tp612
a(I19
I94
I0
S'third'
p613
I1
tp614
as(S'high'
p615
S'hopes'
p616
tp617
(lp618
(I2
I67
I0
S'high'
p619
I0
tp620
a(I3
I45
I0
S'high'
p621
I0
tp622
a(I9
I87
I0
S'high'
p623
I0
tp624
a(I9
I101
I0
S'high'
p625
I0
tp626
as(S'signal'
p627
S'strength'
p628
tp629
(lp630
(I11
I31
I0
S'signal'
p631
I0
tp632
a(I11
I31
I0
S'signal'
p633
I0
tp634
a(I12
I231
I0
S'signal'
p635
I0
tp636
a(I12
I231
F-0.5
S'poor'
p637
I0
tp638
a(I19
I6
I0
S'signal'
p639
I0
tp640
a(I19
I183
I0
S'signal'
p641
I0
tp642
as(S'remove'
p643
S'battery'
p644
tp645
(lp646
(I8
I18
F0.125
g435
I0
tp647
a(I12
I227
I0
g439
I0
tp648
a(I12
I82
F0.125
S'first'
p649
I19
tp650
as(g2
S'system'
p651
S'error'
p652
tp653
(lp654
(I2
I93
I0
S'such'
p655
I0
tp656
a(I12
I93
F-0.625
S'other'
p657
I0
tp658
a(I18
I59
F-0.5
S'long'
p659
I0
tp660
a(I19
I138
F0.75
S'constant'
p661
I0
tp662
as(g2
S'data'
p663
S'plan'
p664
tp665
(lp666
(I2
I48
F-0.75
S'wrong'
p667
I0
tp668
a(I9
I61
F-0.75
g10
I0
tp669
a(I9
I75
F-0.625
g12
I0
tp670
a(I10
I23
I0
g14
I0
tp671
a(I10
I23
I0
g16
I0
tp672
a(I12
I92
F0.5
g18
I0
tp673
a(I12
I136
I0
g6
I0
tp674
a(I12
I183
F0.5
g21
I0
tp675
a(I12
I208
I0
g8
I0
tp676
a(I15
I157
I0
S'optional'
p677
I0
tp678
a(I16
I6
F0.375
g26
I0
tp679
a(I16
I7
I0
g28
I0
tp680
a(I19
I148
F0.5
S'expensive'
p681
I0
tp682
a(I19
I192
I0
g30
I0
tp683
as(S'customer'
p684
S'service'
p685
tp686
(lp687
(I11
I20
F-0.625
S'glad'
p688
I3
tp689
a(I12
I106
F-0.75
S'worse'
p690
I3
tp691
a(I10
I102
F0.375
S'style'
p692
I16
tp693
a(I10
I102
F-0.25
S'grate'
p694
I16
tp695
a(I12
I231
F0.125
S'able'
p696
I16
tp697
as(S'oops'
p698
S'an'
p699
S'error'
p700
tp701
(lp702
(I12
I93
F-0.625
g657
I0
tp703
as(S'call'
p704
S'quality'
p705
tp706
(lp707
(I9
I69
I0
S'great'
p708
I0
tp709
a(I9
I69
F0.375
S'loud'
p710
I0
tp711
a(I12
I240
F1.0
S'good'
p712
I0
tp713
a(I18
I113
F-0.125
S'overall'
p714
I0
tp715
a(I18
I136
I0
S'great'
p716
I0
tp717
a(I19
I54
F-0.5
S'poor'
p718
I0
tp719
as(S'oops'
p720
S'system'
p721
S'error'
p722
tp723
(lp724
(I12
I93
F-0.625
g657
I0
tp725
a(I2
I93
I0
g655
I0
tp726
a(I12
I93
F-0.625
g657
I0
tp727
a(I18
I59
F-0.5
g659
I0
tp728
a(I19
I138
F0.75
g661
I0
tp729
a(I13
I26
F-0.75
S'unreliable'
p730
I12
tp731
a(I15
I117
F0.375
S'new'
p732
I12
tp733
a(I15
I164
F0.5
S'whole'
p734
I12
tp735
a(I19
I138
F0.75
g661
I12
tp736
a(I2
I93
I0
g655
I5
tp737
a(I12
I93
F-0.625
g657
I5
tp738
a(I18
I59
F-0.5
g659
I5
tp739
a(I18
I127
I0
S'later'
p740
I5
tp741
as(S'no'
p742
S'data'
p743
S'plan'
p744
tp745
(lp746
(I2
I48
F-0.75
g667
I0
tp747
a(I9
I61
F-0.75
g10
I0
tp748
a(I12
I136
I0
g6
I0
tp749
a(I12
I183
F0.5
g21
I0
tp750
a(I19
I148
F0.5
g681
I0
tp751
a(I2
I48
F-0.75
g667
I0
tp752
a(I9
I61
F-0.75
g10
I0
tp753
a(I9
I75
F-0.625
g12
I0
tp754
a(I10
I23
I0
g14
I0
tp755
a(I10
I23
I0
g16
I0
tp756
a(I12
I92
F0.5
g18
I0
tp757
a(I12
I136
I0
g6
I0
tp758
a(I12
I183
F0.5
g21
I0
tp759
a(I12
I208
I0
g8
I0
tp760
a(I15
I157
I0
g677
I0
tp761
a(I16
I6
F0.375
g26
I0
tp762
a(I16
I7
I0
g28
I0
tp763
a(I19
I148
F0.5
g681
I0
tp764
a(I19
I192
I0
g30
I0
tp765
as(S'texts'
p766
tp767
(lp768
(I2
I25
I0
S'same'
p769
I0
tp770
a(I2
I37
F0.75
S'receive'
p771
I0
tp772
a(I3
I15
I0
S'many'
p773
I0
tp774
a(I8
I18
F0.25
S'duplicate'
p775
I0
tp776
a(I9
I77
I0
S'multiple'
p777
I0
tp778
a(I9
I77
I0
S'many'
p779
I0
tp780
a(I9
I86
F0.25
S'duplicate'
p781
I0
tp782
a(I10
I43
F0.75
S'receive'
p783
I0
tp784
a(I10
I43
I0
S'wont'
p785
I0
tp786
a(I10
I43
F0.75
S'receive'
p787
I0
tp788
a(I12
I281
I0
S'same'
p789
I0
tp790
a(I16
I17
F-0.25
S'late'
p791
I0
tp792
a(I18
I118
I0
S'same'
p793
I0
tp794
a(I20
I3
I0
S'few'
p795
I0
tp796
as(S'texting'
p797
tp798
(lp799
(I10
I9
F-0.125
S'slow'
p800
I0
tp801
a(I12
I140
F-0.75
S'difficult'
p802
I0
tp803
a(I19
I148
F-0.25
S'past'
p804
I0
tp805
as(S'worst'
p806
tp807
(lp808
(I3
I17
I0
S'very'
p809
I5
tp810
a(I16
I57
F0.5
S'absolute'
p811
I5
tp812
as(S'user'
p813
S'interface'
p814
tp815
(lp816
(I2
I47
F0.625
S'decent'
p817
I0
tp818
a(I18
I69
F0.875
S'nice'
p819
I0
tp820
as(S'of'
p821
S'text'
p822
S'messages'
p823
tp824
(lp825
(I2
I37
F0.25
g133
I0
tp826
a(I12
I137
I0
g147
I0
tp827
a(I15
I15
I0
S'text'
p828
I0
tp829
a(I18
I194
I0
S'more'
p830
I0
tp831
a(I19
I61
I0
g161
I0
tp832
a(I19
I61
F-0.875
g163
I0
tp833
a(I1
I9
F0.75
g127
I0
tp834
a(I2
I37
F0.25
g133
I0
tp835
a(I2
I84
F0.25
g137
I0
tp836
a(I3
I41
F0.375
g139
I0
tp837
a(I10
I69
F0.25
g143
I0
tp838
a(I12
I137
I0
g147
I0
tp839
a(I13
I12
I0
S'more'
p840
I0
tp841
a(I13
I12
I0
S'text'
p842
I0
tp843
a(I13
I12
F-0.75
g149
I0
tp844
a(I15
I15
I0
g828
I0
tp845
a(I16
I60
F0.25
g155
I0
tp846
a(I18
I194
I0
g830
I0
tp847
a(I18
I196
F0.25
g159
I0
tp848
a(I18
I196
I0
g355
I0
tp849
a(I19
I61
I0
g161
I0
tp850
a(I19
I61
F-0.875
g163
I0
tp851
a(I1
I34
I0
S'old'
p852
I1
tp853
a(I12
I270
I0
S'identical'
p854
I1
tp855
a(I12
I272
F1.0
S'best'
p856
I1
tp857
a(I13
I12
I0
g840
I1
tp858
a(I13
I12
I0
g842
I1
tp859
a(I15
I15
I0
g828
I1
tp860
a(I15
I98
F0.875
S'important'
p861
I1
tp862
a(I18
I36
F0.75
S'receive'
p863
I1
tp864
a(I18
I36
F0.25
S'duplicate'
p865
I1
tp866
a(I18
I148
F0.25
S'original'
p867
I1
tp868
a(I18
I194
I0
g830
I1
tp869
a(I18
I196
I0
g355
I1
tp870
a(I19
I112
I0
S'same'
p871
I1
tp872
as.