(dp0
(S'6'
p1
S'hours'
p2
tp3
(lp4
(I0
I55
F0.75
S'give'
p5
I1
tp6
a(I0
I88
F0.375
S'complete'
p7
I1
tp8
a(I0
I90
F-0.5
S'sure'
p9
I1
tp10
as(S'battery'
p11
S'life'
p12
tp13
(lp14
(I1
I14
F0.375
S'extended'
p15
I1
tp16
a(I2
I30
F-0.5
S'poor'
p17
I1
tp18
a(I2
I35
F0.875
S'lucky'
p19
I1
tp20
a(I7
I2
F-0.5
S'complaint'
p21
I1
tp22
a(I7
I2
F-0.875
S'awful'
p23
I1
tp24
a(I1
I14
F0.375
g15
I19
tp25
a(I2
I35
F0.875
g19
I19
tp26
a(I7
I2
F-0.875
g23
I19
tp27
a(I8
I9
F1.0
S'good'
p28
I19
tp29
a(I0
I2
F0.375
S'new'
p30
I15
tp31
a(I0
I5
F0.125
S'last'
p32
I15
tp33
a(I0
I5
F-0.5
S'long'
p34
I15
tp35
a(I2
I30
F-0.5
g17
I15
tp36
a(I7
I2
F-0.5
g21
I15
tp37
as(S'customer'
p38
S'service'
p39
tp40
(lp41
(I0
I97
I0
S'such'
p42
I3
tp43
a(I7
I1
I0
S'same'
p44
I16
tp45
a(I8
I3
I0
S'great'
p46
I16
tp47
as(S'network'
p48
tp49
(lp50
(I0
I34
F-0.25
S'lean'
p51
I0
tp52
as(S'shrinkage'
p53
S'plan'
p54
tp55
(lp56
(I6
I13
I0
S'monthly'
p57
I0
tp58
a(I8
I6
I0
S'great'
p59
I0
tp60
as(S'apps'
p61
tp62
(lp63
(I0
I65
F-0.625
S'other'
p64
I0
tp65
a(I0
I68
F0.375
S'similar'
p66
I0
tp67
a(I2
I58
F0.625
S'decent'
p68
I0
tp69
a(I4
I12
F0.875
S'nice'
p70
I0
tp71
a(I4
I12
I0
S'many'
p72
I0
tp73
a(I4
I31
I0
S'many'
p74
I0
tp75
a(I4
I31
F-0.625
S'other'
p76
I0
tp77
as(S'boost'
p78
S'mobile'
p79
S'blackberry'
p80
tp81
(lp82
(I7
I0
F0.125
S'enough'
p83
I0
tp84
a(I1
I5
F1.0
S'best'
p85
I0
tp86
a(I2
I24
F0.25
S'original'
p87
I0
tp88
a(I4
I34
F-0.625
S'other'
p89
I0
tp90
a(I7
I0
F0.125
g83
I0
tp91
a(I7
I1
I0
S'competitive'
p92
I0
tp93
a(I1
I5
F1.0
g85
I0
tp94
a(I2
I24
F0.25
g87
I0
tp95
a(I7
I1
I0
g92
I0
tp96
a(I0
I20
F0.375
S'new'
p97
I0
tp98
a(I0
I39
I0
S'operational'
p99
I0
tp100
a(I0
I43
F0.125
S'first'
p101
I0
tp102
a(I0
I89
I0
S'old'
p103
I0
tp104
a(I0
I90
I0
S'old'
p105
I0
tp106
a(I4
I34
F-0.625
g89
I0
tp107
a(I7
I0
F0.125
g83
I0
tp108
a(I0
I90
F0.375
S'new'
p109
I1
tp110
as.