(dp0
(S'memory'
p1
S'card'
p2
tp3
(lp4
(I0
I115
F-0.5
S'less'
p5
I0
tp6
a(I7
I219
I0
S'internal'
p7
I0
tp8
a(I10
I27
I0
S'external'
p9
I0
tp10
a(I0
I115
F-0.5
g5
I5
tp11
a(I0
I116
I0
S'external'
p12
I5
tp13
a(I7
I219
I0
g7
I5
tp14
a(I8
I13
I0
S'external'
p15
I5
tp16
a(I8
I14
I0
S'external'
p17
I5
tp18
a(I10
I27
I0
g9
I5
tp19
as(S'battery'
p20
S'life'
p21
tp22
(lp23
(I0
I273
F-0.5
S'long'
p24
I1
tp25
a(I3
I18
F-0.5
S'long'
p26
I1
tp27
a(I4
I75
F1.0
S'good'
p28
I1
tp29
a(I0
I44
F0.125
S'last'
p30
I15
tp31
a(I0
I230
F1.0
S'good'
p32
I15
tp33
a(I0
I273
F-0.5
g24
I15
tp34
a(I3
I17
I0
S'same'
p35
I15
tp36
a(I3
I18
F-0.5
g26
I15
tp37
a(I4
I9
I0
S'full'
p38
I15
tp39
a(I7
I245
F-0.25
S'low'
p40
I15
tp41
a(I7
I247
I0
S'full'
p42
I15
tp43
a(I8
I6
F1.0
S'good'
p44
I15
tp45
as(S'keys'
p46
tp47
(lp48
(I0
I195
F-0.375
S'black'
p49
I9
tp50
a(I7
I3
F-0.375
S'small'
p51
I9
tp52
a(I9
I5
F-0.375
S'small'
p53
I9
tp54
a(I13
I6
I0
S'dial'
p55
I9
tp56
as(S'talk'
p57
tp58
(lp59
(I16
I40
F-0.125
S'co-worker'
p60
I13
tp61
as(S'text'
p62
tp63
(lp64
(I0
I55
I0
S'basic'
p65
I18
tp66
a(I4
I26
F-0.5
S'regular'
p67
I18
tp68
a(I9
I15
F-0.5
S'international'
p69
I18
tp70
as(S'camera'
p71
tp72
(lp73
(I0
I107
F0.625
S'decent'
p74
I1
tp75
a(I9
I19
F1.0
S'good'
p76
I1
tp77
a(I10
I33
I0
S'later'
p78
I1
tp79
a(I14
I39
F0.625
S'decent'
p80
I1
tp81
a(I16
I1
F-0.375
S'small'
p82
I1
tp83
a(I16
I1
F0.5
S'careful'
p84
I1
tp85
as(S'qwerty'
p86
S'keyboard'
p87
tp88
(lp89
(I0
I88
I0
S'full'
p90
I0
tp91
a(I7
I20
F0.625
S'easy'
p92
I0
tp93
a(I11
I83
I0
S'full'
p94
I0
tp95
a(I15
I17
F0.625
S'easy'
p96
I0
tp97
a(I0
I69
F0.25
S'bigger'
p98
I2
tp99
a(I0
I97
F0.625
S'easy'
p100
I2
tp101
a(I0
I126
I0
S'physical'
p102
I2
tp103
a(I0
I141
F-0.375
S'small'
p104
I2
tp105
a(I0
I262
I0
S'full'
p106
I2
tp107
a(I4
I2
I0
S'full'
p108
I2
tp109
a(I6
I2
F1.0
S'good'
p110
I2
tp111
a(I11
I27
I0
S'real'
p112
I2
tp113
a(I13
I2
F0.25
S'helpful'
p114
I2
tp115
a(I14
I32
I0
S'only'
p116
I2
tp117
a(I14
I32
F0.625
S'positive'
p118
I2
tp119
a(I14
I42
I0
S'female'
p120
I2
tp121
as(S'apps'
p122
tp123
(lp124
(I3
I3
F0.375
S'available'
p125
I0
tp126
a(I3
I3
I0
S'many'
p127
I0
tp128
a(I3
I3
F0.875
S'important'
p129
I0
tp130
a(I8
I25
F-0.75
S'impossible'
p131
I0
tp132
a(I10
I39
I0
S'few'
p133
I0
tp134
a(I10
I39
I0
S'useful'
p135
I0
tp136
a(I10
I40
I0
S'many'
p137
I0
tp138
a(I11
I26
F-0.375
S'crashed'
p139
I0
tp140
a(I17
I1
I0
S'great'
p141
I0
tp142
as(S'1'
p143
S'minute'
p144
tp145
(lp146
(I7
I75
I0
S'total'
p147
I1
tp148
a(I11
I0
I0
S'great'
p149
I1
tp150
a(I11
I0
I0
S'net'
p151
I1
tp152
as(S'fm'
p153
S'radio'
p154
tp155
(lp156
(I7
I81
I0
S'internet'
p157
I0
tp158
a(I8
I4
I0
S'local'
p159
I0
tp160
as(S'external'
p161
S'memory'
p162
tp163
(lp164
(I0
I116
I0
g12
I0
tp165
a(I8
I13
I0
g15
I0
tp166
a(I8
I14
I0
g17
I0
tp167
a(I10
I27
I0
g9
I0
tp168
as(S'decent'
p169
tp170
(lp171
(I0
I155
I0
S'great'
p172
I10
tp173
as(S'button'
p174
tp175
(lp176
(I4
I27
I-100
S'-browser'
p177
I19
tp178
a(I11
I43
F0.625
S'easy'
p179
I19
tp180
as(S'prepaid'
p181
tp182
(lp183
(I5
I15
I0
S'monthly'
p184
I0
tp185
a(I11
I79
I0
S'nervous'
p186
I0
tp187
as(S'sd'
p188
S'card'
p189
tp190
(lp191
(I13
I4
F0.375
S'extra'
p192
I0
tp193
as(S'music'
p194
tp195
(lp196
(I0
I273
F-0.25
S'd'
p197
I0
tp198
as(S'contract'
p199
tp200
(lp201
(I6
I9
I0
S'most'
p202
I0
tp203
a(I6
I9
F0.25
S'recent'
p204
I0
tp205
a(I7
I51
I0
S'current'
p206
I0
tp207
a(I13
I9
F0.375
S'much'
p208
I0
tp209
as(S'unlimited'
p210
S'plan'
p211
tp212
(lp213
(I5
I19
F-0.5
S'unlimited'
p214
I0
tp215
a(I7
I26
F1.0
S'best'
p216
I0
tp217
as(S'web'
p218
S'browsing'
p219
tp220
(lp221
(I0
I221
I0
S'mobile'
p222
I0
tp223
a(I14
I29
I0
S'fast'
p224
I0
tp225
a(I3
I14
F1.0
S'good'
p226
I1
tp227
as(S'hands'
p228
tp229
(lp230
(I0
I265
F0.375
S'busy'
p231
I15
tp232
a(I0
I268
I0
S'big'
p233
I15
tp234
a(I0
I268
F-0.375
S'small'
p235
I15
tp236
a(I3
I26
F-0.625
S'bad'
p237
I15
tp238
a(I9
I5
I0
S'big'
p239
I15
tp240
a(I16
I18
I0
S'big'
p241
I15
tp242
as(S'smart'
p243
tp244
(lp245
(I4
I55
F0.5
S'true'
p246
I10
tp247
a(I7
I110
F0.5
S'true'
p248
I10
tp249
a(I7
I168
I0
S'least'
p250
I10
tp251
a(I9
I4
F0.5
S'expensive'
p252
I10
tp253
as(S'net10'
p254
S'service'
p255
tp256
(lp257
(I0
I200
F-0.5
S'poor'
p258
I0
tp259
a(I3
I4
F0.875
S'happy'
p260
I0
tp261
a(I7
I212
F0.625
S'decent'
p262
I0
tp263
a(I7
I212
I0
S'nationwide'
p264
I0
tp265
a(I7
I231
F0.5
S'true'
p266
I0
tp267
a(I0
I200
F-0.5
g258
I16
tp268
a(I7
I149
I0
S'many'
p269
I16
tp270
a(I7
I149
I0
S'more'
p271
I16
tp272
a(I7
I192
I0
S'active'
p273
I16
tp274
a(I7
I212
F0.625
g262
I16
tp275
a(I7
I212
I0
g264
I16
tp276
a(I8
I30
F1.0
S'good'
p277
I16
tp278
a(I9
I21
F0.5
S'willing'
p279
I16
tp280
a(I9
I38
F1.0
S'good'
p281
I16
tp282
a(I10
I52
I0
S'same'
p283
I16
tp284
a(I10
I64
F1.0
S'good'
p285
I16
tp286
a(I10
I90
F0.375
S'extra'
p287
I16
tp288
a(I11
I55
I0
S'net'
p289
I16
tp290
a(I11
I55
F1.0
S'good'
p291
I16
tp292
a(I16
I67
I0
S'great'
p293
I16
tp294
a(I0
I219
I0
S'unfair'
p295
I0
tp296
a(I3
I4
F0.875
g260
I0
tp297
a(I4
I7
F0.5
S'reasonable'
p298
I0
tp299
a(I7
I78
F0.75
S'worth'
p300
I0
tp301
a(I7
I78
F-0.25
S'cheaper'
p302
I0
tp303
a(I7
I231
F0.5
g266
I0
tp304
a(I10
I9
F0.25
S'helpful'
p305
I0
tp306
a(I11
I77
I0
S'great'
p307
I0
tp308
as(S'browser'
p309
tp310
(lp311
(I0
I11
I0
S'internet'
p312
I0
tp313
a(I3
I12
F0.125
S'supplied'
p314
I0
tp315
a(I7
I125
I0
S'faster'
p316
I0
tp317
a(I7
I200
F0.125
S'able'
p318
I0
tp319
a(I10
I40
F0.125
S'native'
p320
I0
tp321
as(S'calls'
p322
tp323
(lp324
(I0
I98
F0.25
S'recent'
p325
I0
tp326
a(I4
I79
F-0.25
S'inexpensive'
p327
I0
tp328
a(I7
I90
I0
S'most'
p329
I0
tp330
a(I7
I116
F0.5
S'clear'
p331
I0
tp332
a(I9
I15
F-0.5
S'international'
p333
I0
tp334
a(I11
I27
F0.625
S'easy'
p335
I0
tp336
a(I15
I1
I0
S'more'
p337
I0
tp338
as(S'sim'
p339
S'card'
p340
tp341
(lp342
(I0
I130
I0
S'net'
p343
I0
tp344
a(I0
I255
F0.375
S'new'
p345
I0
tp346
a(I15
I4
F0.375
S'new'
p347
I0
tp348
as(S'internet'
p349
tp350
(lp351
(I0
I176
F1.0
S'best'
p352
I6
tp353
a(I11
I96
F-0.125
S'slow'
p354
I6
tp355
a(I17
I4
F0.5
S'second'
p356
I6
tp357
as(S'low'
p358
S'cost'
p359
tp360
(lp361
(I7
I213
F-0.25
S'low'
p362
I2
tp363
a(I7
I223
F-0.25
S'low'
p364
I2
tp365
a(I11
I92
F-0.25
S'low'
p366
I2
tp367
as(S'smartphone'
p368
tp369
(lp370
(I0
I124
F0.5
S'high-tech'
p371
I0
tp372
a(I7
I14
I0
S'touchscreen'
p373
I0
tp374
a(I7
I123
F0.5
S'true'
p375
I0
tp376
a(I7
I210
I0
S'close'
p377
I0
tp378
a(I11
I30
F0.875
S'nice'
p379
I0
tp380
as(S'customer'
p381
S'service'
p382
tp383
(lp384
(I0
I200
F-0.5
g258
I3
tp385
a(I0
I242
I0
S'same'
p386
I3
tp387
a(I7
I98
I0
S'same'
p388
I3
tp389
a(I7
I216
F-0.625
S'bad'
p390
I3
tp391
a(I8
I26
F-0.375
S'top'
p392
I3
tp393
a(I9
I21
F0.5
g279
I3
tp394
a(I10
I64
F1.0
g285
I3
tp395
a(I0
I242
I0
g386
I11
tp396
a(I7
I98
I0
g388
I11
tp397
a(I7
I216
F-0.625
g390
I11
tp398
a(I7
I228
F0.625
S'fair'
p399
I11
tp400
a(I7
I228
F-0.625
S'bad'
p401
I11
tp402
a(I8
I26
F-0.375
g392
I11
tp403
a(I11
I60
I0
S'net'
p404
I11
tp405
as(S'return'
p406
S'policy'
p407
tp408
(lp409
(I7
I64
F1.0
S'good'
p410
I0
tp411
as(S'texting'
p412
tp413
(lp414
(I0
I69
F0.625
S'decent'
p415
I0
tp416
a(I2
I2
I0
S'serviceable'
p417
I0
tp418
a(I4
I2
I0
S'quick'
p419
I0
tp420
a(I16
I69
I0
S'quick'
p421
I0
tp422
as.