(dp0
(S'keyboard'
p1
tp2
(lp3
(I5
I6
F0.625
S'convenient'
p4
I2
tp5
a(I10
I0
I0
S'full'
p6
I2
tp7
a(I11
I10
F0.625
S'convenient'
p8
I2
tp9
a(I12
I18
F-0.5
S'weak'
p10
I2
tp11
a(I12
I41
F-0.375
S'simple'
p12
I2
tp13
a(I12
I41
I0
S'big'
p14
I2
tp15
as(S'battery'
p16
tp17
(lp18
(I12
I31
F0.625
S'decent'
p19
I15
tp20
as(S'touch'
p21
S'screen'
p22
tp23
(lp24
(I0
I5
F0.25
S'responsive'
p25
I2
tp26
a(I0
I12
F0.5
S'touch'
p27
I2
tp28
a(I0
I13
F0.5
S'touch'
p29
I2
tp30
a(I0
I13
F0.5
S'touch'
p31
I2
tp32
a(I4
I1
F0.875
S'nice'
p33
I2
tp34
a(I4
I1
I0
S'large'
p35
I2
tp36
a(I4
I1
F0.625
S'easy'
p37
I2
tp38
a(I5
I7
F0.5
S'touch'
p39
I2
tp40
a(I5
I7
F0.625
S'perfect'
p41
I2
tp42
a(I7
I6
F0.5
S'touch'
p43
I2
tp44
a(I10
I0
F0.5
S'touch'
p45
I2
tp46
a(I11
I2
F0.5
S'touch'
p47
I2
tp48
a(I11
I3
F0.5
S'touch'
p49
I2
tp50
as.