(dp0
(S'qwerty'
p1
S'keyboard'
p2
tp3
(lp4
(I23
I22
I0
S'useful'
p5
I0
tp6
as(S'slide'
p7
S'out'
p8
S'keyboard'
p9
tp10
(lp11
(I7
I1
I0
S'great'
p12
I0
tp13
a(I21
I84
F0.375
S'new'
p14
I0
tp15
a(I23
I22
I0
g5
I0
tp16
a(I7
I1
I0
g12
I6
tp17
a(I9
I10
F0.625
S'easy'
p18
I6
tp19
a(I21
I84
F0.375
g14
I6
tp20
a(I11
I2
F0.625
S'easier'
p21
I2
tp22
a(I14
I2
F0.875
S'nice'
p23
I2
tp24
a(I19
I7
I0
S'great'
p25
I2
tp26
a(I23
I22
I0
g5
I2
tp27
as(S'net10'
p28
tp29
(lp30
(I2
I7
F0.375
S'new'
p31
I0
tp32
a(I8
I9
F0.5
S'told'
p33
I0
tp34
a(I21
I9
I0
S'site'
p35
I0
tp36
as(S'battery'
p37
tp38
(lp39
(I1
I4
F0.625
S'decent'
p40
I15
tp41
a(I4
I6
I0
S'incredible'
p42
I15
tp43
a(I16
I27
F-0.75
S'dead'
p44
I15
tp45
a(I21
I19
I0
S'close'
p46
I15
tp47
as(S'texting'
p48
tp49
(lp50
(I4
I13
F0.625
S'easy'
p51
I0
tp52
a(I7
I1
F0.625
S'easy'
p53
I0
tp54
a(I12
I68
I0
S'great'
p55
I0
tp56
a(I18
I1
I0
S'very'
p57
I0
tp58
a(I18
I1
I0
S'limited'
p59
I0
tp60
a(I19
I14
F1.0
S'good'
p61
I0
tp62
as(S'text'
p63
tp64
(lp65
(I21
I57
I0
S'great'
p66
I18
tp67
a(I22
I21
I0
S'same'
p68
I18
tp69
as(S'customer'
p70
S'service'
p71
tp72
(lp73
(I12
I45
F0.5
S'willing'
p74
I3
tp75
a(I23
I25
I0
S'net'
p76
I3
tp77
a(I23
I25
F0.75
S'due'
p78
I3
tp79
a(I23
I25
F-0.5
S'poor'
p80
I3
tp81
a(I12
I45
F0.5
g74
I11
tp82
a(I23
I25
F-0.5
g80
I11
tp83
as(S'service'
p84
S'days'
p85
tp86
(lp87
(I21
I25
F0.75
S'give'
p88
I0
tp89
a(I21
I25
I0
S'more'
p90
I0
tp91
a(I0
I16
I0
S'net'
p92
I16
tp93
a(I7
I9
F0.625
S'easy'
p94
I16
tp95
a(I7
I9
F-0.25
S'inexpensive'
p96
I16
tp97
a(I9
I9
I0
S'net'
p98
I16
tp99
a(I9
I9
F1.0
S'better'
p100
I16
tp101
a(I12
I54
F0.125
S'practical'
p102
I16
tp103
a(I12
I54
I0
S'economical'
p104
I16
tp105
a(I19
I3
I0
S'great'
p106
I16
tp107
a(I21
I6
I0
S'active'
p108
I16
tp109
a(I21
I25
F0.75
g88
I16
tp110
a(I21
I25
I0
g90
I16
tp111
a(I23
I25
I0
g76
I16
tp112
a(I23
I25
F0.75
g78
I16
tp113
as(S'sim'
p114
S'card'
p115
tp116
(lp117
(I2
I9
F0.375
S'new'
p118
I0
tp119
a(I5
I11
F0.875
S'happy'
p120
I0
tp121
a(I8
I9
F-0.625
S'bad'
p122
I0
tp123
a(I8
I10
F0.375
S'new'
p124
I0
tp125
a(I18
I26
F-0.5
S'certain'
p126
I0
tp127
as(S'samsung'
p128
tp129
(lp130
(I21
I113
F1.0
S'best'
p131
I7
tp132
as(S'cards'
p133
tp134
(lp135
(I21
I25
F1.0
S'best'
p136
I15
tp137
a(I21
I28
I0
S'monthly'
p138
I15
tp139
a(I21
I31
I0
S'rollover'
p140
I15
tp141
as(S'camera'
p142
tp143
(lp144
(I1
I12
F-0.375
S'simple'
p145
I1
tp146
a(I7
I2
F1.0
S'good'
p147
I1
tp148
a(I14
I5
F-0.5
S'poor'
p149
I1
tp150
a(I18
I1
F-0.5
S'poor'
p151
I1
tp152
as(S'calls'
p153
tp154
(lp155
(I0
I30
F-0.5
S'international'
p156
I0
tp157
a(I0
I33
F-0.5
S'international'
p158
I0
tp159
a(I0
I33
F1.0
S'good'
p160
I0
tp161
a(I12
I35
I0
S'few'
p162
I0
tp163
a(I18
I27
F0.75
S'receive'
p164
I0
tp165
a(I20
I4
F0.5
S'strongest'
p166
I0
tp167
a(I20
I4
F-0.5
S'miss'
p168
I0
tp169
as.