(dp0
(S'seller'
p1
tp2
(lp3
(I28
I6
F0.75
S'due'
p4
I19
tp5
a(I47
I1
F0.875
S'happy'
p6
I19
tp7
as(S'android'
p8
tp9
(lp10
(I6
I49
I0
S'latest'
p11
I0
tp12
a(I16
I0
F0.125
S'first'
p13
I0
tp14
a(I17
I0
F0.375
S'newer'
p15
I0
tp16
a(I37
I2
F-0.25
S'modern'
p17
I0
tp18
a(I46
I28
F0.125
S'first'
p19
I0
tp20
a(I50
I12
F0.125
S'first'
p21
I0
tp22
as(S'battery'
p23
S'life'
p24
tp25
(lp26
(I3
I0
I0
S'signal'
p27
I1
tp28
a(I3
I0
F-0.5
S'poor'
p29
I1
tp30
a(I6
I18
F-0.625
S'average'
p31
I1
tp32
a(I6
I18
I0
S'great'
p33
I1
tp34
a(I21
I0
F-0.75
S'short'
p35
I1
tp36
a(I28
I11
F-0.75
S'dead'
p37
I1
tp38
a(I33
I22
F-0.5
S'poor'
p39
I1
tp40
a(I36
I13
F-0.75
S'short'
p41
I1
tp42
a(I46
I31
F-0.5
S'weak'
p43
I1
tp44
a(I3
I0
I0
g27
I19
tp45
a(I3
I0
F-0.5
g29
I19
tp46
a(I6
I18
F-0.625
g31
I19
tp47
a(I6
I18
I0
g33
I19
tp48
a(I21
I0
F-0.75
g35
I19
tp49
a(I33
I22
F-0.5
g39
I19
tp50
a(I46
I31
F-0.5
g43
I19
tp51
a(I5
I3
F0.875
S'attractive'
p52
I15
tp53
a(I6
I36
F0.125
S'last'
p54
I15
tp55
a(I7
I24
I0
S'great'
p56
I15
tp57
a(I14
I6
F0.125
S'last'
p58
I15
tp59
a(I25
I5
I0
S'quick'
p60
I15
tp61
a(I28
I11
F-0.75
g37
I15
tp62
a(I36
I13
F-0.75
g41
I15
tp63
as(S'dell'
p64
tp65
(lp66
(I11
I1
I0
S'most'
p67
I0
tp68
a(I11
I1
F-0.75
S'likely'
p69
I0
tp70
a(I11
I10
F0.5
S'technical'
p71
I0
tp72
a(I14
I1
I0
S'most'
p73
I0
tp74
a(I22
I16
F0.5
S'bought'
p75
I0
tp76
a(I22
I16
F0.375
S'new'
p77
I0
tp78
a(I36
I10
F-0.375
S'simple'
p79
I0
tp80
a(I36
I25
F0.375
S'new'
p81
I0
tp82
as(S'internet'
p83
tp84
(lp85
(I8
I1
I0
S'more'
p86
I6
tp87
as(S'sim'
p88
S'card'
p89
tp90
(lp91
(I47
I7
F-0.125
S'overall'
p92
I0
tp93
as(S'dont'
p94
tp95
(lp96
(I7
I22
I0
S'latest'
p97
I16
tp98
as(S'network'
p99
tp100
(lp101
(I6
I9
F-0.75
S'dead'
p102
I0
tp103
a(I6
I9
F0.375
S'alive'
p104
I0
tp105
as(S'wifi'
p106
tp107
(lp108
(I43
I9
F-0.625
S'light'
p109
I0
tp110
a(I44
I14
I0
S'great'
p111
I0
tp112
as(S'service'
p113
tp114
(lp115
(I11
I13
I0
S'same'
p116
I16
tp117
a(I46
I19
F0.25
S'consistent'
p118
I16
tp119
a(I46
I21
F0.125
S'flaky'
p120
I16
tp121
as(S'applications'
p122
tp123
(lp124
(I1
I13
F-0.75
S'little'
p125
I3
tp126
a(I1
I13
I0
S'active'
p127
I3
tp128
a(I4
I0
F0.375
S'similar'
p129
I3
tp130
a(I6
I25
I0
S'social'
p131
I3
tp132
a(I16
I2
I0
S'many'
p133
I3
tp134
a(I16
I2
F-0.625
S'free'
p135
I3
tp136
a(I26
I3
I0
S'many'
p137
I3
tp138
a(I34
I8
I0
S'useful'
p139
I3
tp140
a(I34
I8
I0
S'few'
p141
I3
tp142
a(I36
I15
F0.5
S'possible'
p143
I3
tp144
as(S'apps'
p145
tp146
(lp147
(I0
I0
F0.25
S'favorite'
p148
I0
tp149
a(I0
I0
I0
S'android'
p150
I0
tp151
a(I0
I0
I0
S'few'
p152
I0
tp153
a(I4
I1
I0
S'few'
p154
I0
tp155
a(I4
I1
F-0.625
S'other'
p156
I0
tp157
a(I4
I3
F-0.625
S'bad'
p158
I0
tp159
a(I6
I34
I0
S'android'
p160
I0
tp161
a(I6
I34
I0
S'many'
p162
I0
tp163
a(I6
I64
I0
S'many'
p164
I0
tp165
a(I16
I7
I0
S'old'
p166
I0
tp167
a(I16
I7
I0
S'website'
p168
I0
tp169
a(I16
I9
I0
S'many'
p170
I0
tp171
a(I22
I12
I0
S'great'
p172
I0
tp173
a(I30
I47
I0
S'basic'
p174
I0
tp175
a(I33
I16
I0
S'many'
p176
I0
tp177
a(I33
I16
I0
S'very'
p178
I0
tp179
a(I33
I16
F-0.125
S'slow'
p180
I0
tp181
a(I44
I6
I0
S'useful'
p182
I0
tp183
a(I46
I22
I0
S'most'
p184
I0
tp185
a(I46
I22
F0.125
S'able'
p186
I0
tp187
a(I48
I2
I0
S'e-mail'
p188
I0
tp189
as(S'works'
p190
S'fine'
p191
tp192
(lp193
(I5
I6
F0.625
S'easy'
p194
I9
tp195
a(I6
I17
I0
S'android'
p196
I9
tp197
as(S'camera'
p198
tp199
(lp200
(I0
I2
F0.5
S'clear'
p201
I1
tp202
a(I7
I6
F0.625
S'decent'
p203
I1
tp204
a(I21
I6
F1.0
S'good'
p205
I1
tp206
a(I38
I1
F1.0
S'good'
p207
I1
tp208
a(I50
I12
F1.0
S'good'
p209
I1
tp210
as(S'touch'
p211
S'screen'
p212
tp213
(lp214
(I6
I40
F0.5
S'touch'
p215
I2
tp216
a(I16
I2
F1.0
S'good'
p217
I2
tp218
a(I19
I3
F0.5
S'touch'
p219
I2
tp220
a(I19
I3
F0.625
S'perfect'
p221
I2
tp222
a(I26
I2
F0.5
S'touch'
p223
I2
tp224
a(I26
I2
F0.5
S'touch'
p225
I2
tp226
a(I29
I25
F-0.75
S'bright'
p227
I2
tp228
a(I29
I25
F0.25
S'responsive'
p229
I2
tp230
a(I33
I5
F0.5
S'touch'
p231
I2
tp232
as(S'calls'
p233
tp234
(lp235
(I14
I18
F0.5
S'clear'
p236
I0
tp237
as.