(dp0
(S'call'
p1
S'quality'
p2
tp3
(lp4
(I0
I39
F1.0
S'good'
p5
I0
tp6
as(S'service'
p7
tp8
(lp9
(I7
I12
F-0.75
S'difficult'
p10
I16
tp11
a(I9
I42
F0.5
S'trusty'
p12
I16
tp13
a(I11
I40
F0.875
S'important'
p14
I16
tp15
as(S'audio'
p16
S'quality'
p17
tp18
(lp19
(I16
I18
I0
S'such'
p20
I0
tp21
a(I16
I18
F-0.5
S'poor'
p22
I0
tp23
a(I16
I22
F1.0
S'good'
p24
I0
tp25
as(S'reception'
p26
tp27
(lp28
(I0
I31
I0
S'great'
p29
I0
tp30
a(I7
I24
I0
S'great'
p31
I0
tp32
a(I9
I59
F0.125
S'solid'
p33
I0
tp34
a(I9
I69
F0.125
S'typical'
p35
I0
tp36
a(I10
I35
F1.0
S'good'
p37
I0
tp38
a(I16
I22
F0.875
S'nice'
p39
I0
tp40
as(S'good'
p41
S'battery'
p42
S'life'
p43
tp44
(lp45
(I0
I39
I0
S'great'
p46
I0
tp47
a(I3
I7
F1.0
S'good'
p48
I0
tp49
a(I6
I30
F1.0
S'good'
p50
I0
tp51
a(I9
I2
F1.0
S'good'
p52
I0
tp53
a(I9
I16
F1.0
S'good'
p54
I0
tp55
a(I0
I39
I0
g46
I1
tp56
a(I3
I7
F1.0
g48
I1
tp57
a(I3
I36
F0.625
S'acceptable'
p58
I1
tp59
a(I6
I30
F1.0
g50
I1
tp60
a(I9
I2
F1.0
g52
I1
tp61
a(I9
I16
F1.0
g54
I1
tp62
a(I9
I56
F-0.5
S'sure'
p63
I1
tp64
a(I10
I22
F-0.625
S'bad'
p65
I1
tp66
a(I10
I71
F-0.5
S'long'
p67
I1
tp68
a(I11
I14
F-0.5
S'long'
p69
I1
tp70
a(I3
I36
F0.625
g58
I19
tp71
a(I9
I56
F-0.5
g63
I19
tp72
a(I0
I39
I0
g46
I15
tp73
a(I3
I7
F1.0
g48
I15
tp74
a(I6
I30
F1.0
g50
I15
tp75
a(I9
I2
F1.0
g52
I15
tp76
a(I9
I16
F1.0
g54
I15
tp77
a(I10
I22
F-0.625
g65
I15
tp78
a(I10
I71
F-0.5
g67
I15
tp79
a(I11
I12
F0.125
S'last'
p80
I15
tp81
a(I11
I14
F-0.5
g69
I15
tp82
a(I16
I42
F1.0
S'better'
p83
I15
tp84
a(I16
I43
F1.0
S'better'
p85
I15
tp86
a(I16
I44
F1.0
S'better'
p87
I15
tp88
as(S'sim'
p89
S'cards'
p90
tp91
(lp92
(I16
I56
F-0.5
S'international'
p93
I0
tp94
as(S'radio'
p95
tp96
(lp97
(I9
I74
I0
S'great'
p98
I0
tp99
as(S'picture'
p100
S'texts'
p101
tp102
(lp103
(I7
I4
F0.125
S'able'
p104
I0
tp105
as(S'nokia'
p106
tp107
(lp108
(I0
I6
F-0.375
S'simple'
p109
I0
tp110
a(I0
I31
F0.125
S'typical'
p111
I0
tp112
a(I0
I54
I0
S'user'
p113
I0
tp114
a(I0
I54
F-0.375
S'small'
p115
I0
tp116
a(I1
I5
F0.25
S'original'
p117
I0
tp118
a(I3
I21
I0
S'chose'
p119
I0
tp120
a(I6
I34
F0.875
S'happy'
p121
I0
tp122
a(I8
I38
I0
S'basic'
p123
I0
tp124
a(I8
I39
F0.375
S'new'
p125
I0
tp126
a(I9
I4
F0.5
S'true'
p127
I0
tp128
a(I9
I33
I0
S'older'
p129
I0
tp130
a(I10
I24
F1.0
S'good'
p131
I0
tp132
a(I10
I51
I0
S'old'
p133
I0
tp134
a(I11
I17
F0.375
S'new'
p135
I0
tp136
a(I16
I38
F-0.75
S'little'
p137
I0
tp138
as(S'calls'
p139
tp140
(lp141
(I0
I21
F-0.25
S'dropped'
p142
I0
tp143
a(I2
I2
I0
S'few'
p144
I0
tp145
a(I9
I26
F0.75
S'receive'
p146
I0
tp147
a(I9
I80
F-0.75
S'short'
p148
I0
tp149
a(I11
I19
I0
S'most'
p150
I0
tp151
as(S'in'
p152
S'sim'
p153
S'card'
p154
tp155
(lp156
(I16
I20
F-0.25
S'ready'
p157
I0
tp158
a(I16
I56
F-0.5
g93
I0
tp159
a(I16
I20
F-0.25
g157
I0
tp160
a(I16
I56
F-0.5
g93
I0
tp161
as(S'text'
p162
S'messages'
p163
tp164
(lp165
(I10
I49
I0
S'text'
p166
I0
tp167
a(I10
I54
I0
S'text'
p168
I0
tp169
a(I9
I3
I0
S'pic'
p170
I1
tp171
a(I9
I7
I0
S'pic'
p172
I1
tp173
a(I10
I49
I0
g166
I1
tp174
a(I10
I54
I0
g168
I1
tp175
as(S'camera'
p176
tp177
(lp178
(I7
I19
F1.0
S'good'
p179
I1
tp180
a(I9
I8
F0.375
S'much'
p181
I1
tp182
a(I9
I53
F0.375
S'much'
p183
I1
tp184
a(I9
I54
F1.0
S'better'
p185
I1
tp186
a(I10
I9
I0
S'great'
p187
I1
tp188
a(I11
I13
I0
S'minimal'
p189
I1
tp190
a(I15
I13
F-0.375
S'simple'
p191
I1
tp192
a(I16
I52
F1.0
S'better'
p193
I1
tp194
as(S'texting'
p195
tp196
(lp197
(I0
I55
F0.375
S'much'
p198
I0
tp199
a(I3
I6
F1.0
S'good'
p200
I0
tp201
a(I6
I45
I0
S'basic'
p202
I0
tp203
as(S'amazon'
p204
tp205
(lp206
(I6
I17
I0
S'economical'
p207
I13
tp208
a(I10
I31
F0.556
S'delicate'
p209
I13
tp210
a(I10
I53
F0.375
S'available'
p211
I13
tp212
a(I16
I53
I0
S'full'
p213
I13
tp214
as(S'sound'
p215
S'quality'
p216
tp217
(lp218
(I8
I18
F1.0
S'good'
p219
I0
tp220
a(I9
I2
F1.0
S'good'
p221
I0
tp222
a(I9
I69
F1.0
S'good'
p223
I0
tp224
a(I15
I13
F1.0
S'good'
p225
I0
tp226
a(I10
I71
F0.5
S'clear'
p227
I7
tp228
a(I12
I0
F0.5
S'clear'
p229
I7
tp230
as.