(dp0
(S'something'
p1
tp2
(lp3
(I6
I12
F0.875
S'important'
p4
tp5
a(I37
I8
F-0.625
S'other'
p6
tp7
a(I55
I8
F0.375
S'similar'
p8
tp9
a(I84
I1
F0.5
S'rate'
p10
tp11
a(I92
I13
I0
S'forever'
p12
tp13
a(I92
I13
F0.375
S'newer'
p14
tp15
a(I92
I13
I0
S'faster'
p16
tp17
a(I100
I3
I0
S'android'
p18
tp19
a(I100
I3
F0.5
S'expensive'
p20
tp21
a(I148
I3
F-0.75
S'wrong'
p22
tp23
a(I156
I1
F0.375
S'much'
p24
tp25
a(I189
I0
F0.5
S'bought'
p26
tp27
as(S'charging'
p28
S'port'
p29
tp30
(lp31
(I27
I50
F-0.375
S'top'
p32
tp33
as(S'keyboard'
p34
tp35
(lp36
(I0
I8
F-0.5
S'open'
p37
tp38
a(I3
I1
I0
S'handy'
p39
tp40
a(I27
I19
I0
S'android'
p41
tp42
a(I27
I23
F0.875
S'nice'
p43
tp44
a(I27
I24
I0
S'farthest'
p45
tp46
a(I31
I2
F0.625
S'easy'
p47
tp48
a(I32
I0
I0
S'many'
p49
tp50
a(I32
I0
I0
S'physical'
p51
tp52
a(I34
I3
I0
S'physical'
p53
tp54
a(I35
I1
I0
S'full'
p55
tp56
a(I38
I11
I0
S'physical'
p57
tp58
a(I40
I0
F1.0
S'good'
p59
tp60
a(I42
I0
F1.0
S'good'
p61
tp62
a(I52
I9
F0.25
S'used'
p63
tp64
a(I52
I9
I0
S'physical'
p65
tp66
a(I52
I9
F-0.5
S'miss'
p67
tp68
a(I62
I1
F0.875
S'nice'
p69
tp70
a(I72
I4
F-0.625
S'impractical'
p71
tp72
a(I82
I1
F0.625
S'easier'
p73
tp74
a(I92
I8
F-0.5
S'separate'
p75
tp76
a(I100
I13
F0.875
S'nice'
p77
tp78
a(I114
I3
I0
S'great'
p79
tp80
a(I115
I0
F0.625
S'easy'
p81
tp82
a(I119
I3
I0
S'physical'
p83
tp84
a(I138
I4
I0
S'more'
p85
tp86
a(I138
I5
F0.875
S'nice'
p87
tp88
a(I138
I5
F1.0
S'better'
p89
tp90
a(I139
I2
F-0.125
S'slow'
p91
tp92
a(I142
I0
F1.0
S'good'
p93
tp94
a(I186
I28
F-0.25
S'cheaper'
p95
tp96
a(I195
I9
I0
S'such'
p97
tp98
a(I195
I15
F0.5
S'whole'
p99
tp100
a(I210
I0
F-0.5
S'actual'
p101
tp102
a(I215
I8
I0
S'physical'
p103
tp104
as(S'motorola'
p105
S'triumph'
p106
tp107
(lp108
(I8
I32
I0
S'such'
p109
tp110
a(I8
I32
F1.0
S'good'
p111
tp112
as(S'touch'
p113
tp114
(lp115
(I0
I7
F-0.75
S'little'
p116
tp117
a(I35
I3
F-0.5
S'open'
p118
tp119
a(I63
I1
F0.125
S'first'
p120
tp121
a(I128
I0
I0
S'latest'
p122
tp123
a(I173
I5
F0.125
S'able'
p124
tp125
a(I176
I17
I0
S'great'
p126
tp127
a(I186
I15
F-0.75
S'sufficient'
p128
tp129
a(I190
I4
F0.125
S'first'
p130
tp131
as(S'lot'
p132
S'of'
p133
S'times'
p134
tp135
(lp136
(I56
I5
F0.5
S'whole'
p137
tp138
as(S'battery'
p139
S'life'
p140
tp141
(lp142
(I13
I20
F-0.625
S'bad'
p143
tp144
a(I27
I38
I0
S'rural'
p145
tp146
a(I38
I16
F-0.125
S'mine'
p147
tp148
a(I40
I0
F1.0
S'best'
p149
tp150
a(I62
I2
F-0.75
S'short'
p151
tp152
a(I75
I0
F1.0
S'good'
p153
tp154
a(I110
I1
F1.0
S'good'
p155
tp156
a(I178
I1
F-0.125
S'slow'
p157
tp158
a(I178
I1
F-0.5
S'poor'
p159
tp160
a(I181
I6
I0
S'android'
p161
tp162
a(I201
I4
F1.0
S'good'
p163
tp164
as(S'operating'
p165
S'system'
p166
tp167
(lp168
(I12
I0
I0
S'older'
p169
tp170
a(I12
I0
F-0.125
S'slow'
p171
tp172
a(I12
I0
F-0.75
S'unresponsive'
p173
tp174
as(S'sprint'
p175
tp176
(lp177
(I94
I5
F0.375
S'new'
p178
tp179
as(S'sd'
p180
S'card'
p181
tp182
(lp183
(I194
I1
F0.25
S'bigger'
p184
tp185
as(S'contract'
p186
tp187
(lp188
(I92
I0
I0
S'monthly'
p189
tp190
a(I110
I2
F-0.625
S'sorry'
p191
tp192
a(I169
I6
F1.0
S'good'
p193
tp194
as(S'freezes'
p195
tp196
(lp197
(I208
I2
F-0.75
S'worse'
p198
tp199
a(I208
I2
F-0.375
S'daily'
p200
tp201
as(S'customer'
p202
tp203
(lp204
(I27
I9
I0
S'sprint'
p205
tp206
a(I79
I8
I0
S'least'
p207
tp208
a(I152
I7
F-0.5
S'call'
p209
tp210
a(I174
I3
F-0.625
S'bad'
p211
tp212
a(I215
I1
F1.0
S'good'
p213
tp214
a(I217
I2
I0
S'great'
p215
tp216
as(S'want'
p217
tp218
(lp219
(I200
I4
F0.875
S'music'
p220
tp221
as(S'optimus'
p222
S'v'
p223
tp224
(lp225
(I40
I8
F0.25
S'responsive'
p226
tp227
as(S'optimus'
p228
tp229
(lp230
(I40
I8
F0.25
g226
tp231
as(S'virgin'
p232
S'mobile'
p233
S'service'
p234
tp235
(lp236
(I36
I4
F-0.625
S'push'
p237
tp238
a(I42
I0
I0
S'monthly'
p239
tp240
a(I42
I0
F-0.875
S'worst'
p241
tp242
a(I79
I13
F-0.25
S'google'
p243
tp244
a(I85
I1
F0.625
S'decent'
p245
tp246
a(I85
I1
F1.0
S'better'
p247
tp248
a(I98
I12
I0
S'great'
p249
tp250
a(I174
I12
F-0.5
S'open'
p251
tp252
a(I183
I6
I0
S'least'
p253
tp254
as(S'customer'
p255
S'service'
p256
tp257
(lp258
(I27
I9
I0
g205
tp259
a(I42
I0
F-0.875
g241
tp260
a(I79
I8
I0
g207
tp261
a(I152
I7
F-0.5
g209
tp262
a(I174
I3
F-0.625
g211
tp263
a(I174
I12
F-0.5
g251
tp264
a(I174
I18
F0.5
S'polite'
p265
tp266
a(I217
I2
I0
g215
tp267
as(S'from'
p268
S'virgin'
p269
S'mobile'
p270
tp271
(lp272
(I99
I0
I0
S'site'
p273
tp274
a(I181
I2
I0
S'android'
p275
tp276
as(S'on'
p277
S'virgin'
p278
S'mobile'
p279
tp280
(lp281
(I1
I4
I0
S'great'
p282
tp283
a(I27
I33
F-0.5
S'less'
p284
tp285
a(I40
I0
I0
S'monthly'
p286
tp287
a(I42
I0
I0
g239
tp288
a(I61
I0
F0.375
S'new'
p289
tp290
a(I79
I13
F-0.25
g243
tp291
a(I101
I0
I0
S'different'
p292
tp293
a(I151
I1
F0.125
S'first'
p294
tp295
a(I172
I0
F-0.625
S'other'
p296
tp297
a(I174
I22
F-0.375
S'manual'
p298
tp299
a(I174
I22
I0
S'website'
p300
tp301
a(I177
I0
I0
S'mobile'
p302
tp303
a(I181
I2
I0
g275
tp304
a(I198
I1
F0.5
S'live'
p305
tp306
a(I214
I10
F0.875
S'lucky'
p307
tp308
as(S'times'
p309
tp310
(lp311
(I2
I3
I0
S'least'
p312
tp313
a(I14
I1
F-0.625
S'average'
p314
tp315
a(I14
I1
I0
S'least'
p316
tp317
a(I38
I10
F0.5
S'second'
p318
tp319
a(I38
I10
F0.5
S'touch'
p320
tp321
a(I71
I10
I0
S'faster'
p322
tp323
a(I77
I7
I0
S'many'
p324
tp325
a(I81
I4
F-0.625
S'bad'
p326
tp327
a(I94
I2
I0
S'many'
p328
tp329
a(I151
I28
I0
S'more'
p330
tp331
a(I156
I3
I0
S'sprint'
p332
tp333
a(I158
I2
F-0.625
S'other'
p334
tp335
a(I176
I9
F-0.75
S'inappropriate'
p336
tp337
a(I176
I23
I0
S'many'
p338
tp339
a(I177
I4
F-0.625
S'other'
p340
tp341
a(I177
I8
I0
S'messaged'
p342
tp343
a(I177
I8
I0
S'least'
p344
tp345
a(I179
I4
I0
S'many'
p346
tp347
a(I182
I2
I0
S'many'
p348
tp349
a(I182
I5
F-0.625
S'other'
p350
tp351
a(I223
I5
I0
S'many'
p352
tp353
as(S'problem'
p354
tp355
(lp356
(I17
I1
F0.25
S'biggest'
p357
tp358
a(I18
I6
I0
S'standard'
p359
tp360
a(I24
I3
I0
S'only'
p361
tp362
a(I27
I46
F-0.5
S'actual'
p363
tp364
a(I77
I8
I0
S'common'
p365
tp366
a(I98
I5
F0.25
S'main'
p367
tp368
a(I98
I5
F-0.125
S'slow'
p369
tp370
a(I158
I1
I0
S'big'
p371
tp372
a(I170
I2
I0
S'only'
p373
tp374
as(S'f'
p375
S'are'
p376
S'looking'
p377
tp378
(lp379
(I133
I5
I0
S'relic'
p380
tp381
as(S'android'
p382
tp383
(lp384
(I21
I2
F0.125
S'first'
p385
tp386
a(I34
I3
F0.875
S'happy'
p387
tp388
a(I37
I0
F0.125
S'first'
p389
tp390
a(I40
I0
F0.125
S'first'
p391
tp392
a(I41
I12
F1.0
S'good'
p393
tp394
a(I49
I20
I0
S'keypad'
p395
tp396
a(I55
I6
I0
S'same'
p397
tp398
a(I63
I0
F0.125
S'first'
p399
tp400
a(I89
I0
F0.125
S'first'
p401
tp402
a(I92
I0
I0
S'serviceable'
p403
tp404
a(I130
I6
I0
S'standard'
p405
tp406
a(I138
I0
F0.125
S'first'
p407
tp408
a(I138
I0
F0.125
S'first'
p409
tp410
a(I141
I0
I0
S'only'
p411
tp412
a(I179
I1
F0.125
S'first'
p413
tp414
a(I192
I1
F0.125
S'first'
p415
tp416
a(I207
I0
F0.125
S'first'
p417
tp418
a(I207
I2
F1.0
S'best'
p419
tp420
a(I215
I7
I0
S'basic'
p421
tp422
as(S'text'
p423
tp424
(lp425
(I1
I5
F-0.5
S'unlimited'
p426
tp427
a(I6
I2
F-0.125
S'slow'
p428
tp429
a(I6
I6
I0
S'different'
p430
tp431
a(I35
I8
I0
S'blue'
p432
tp433
a(I68
I3
F-0.75
S'short'
p434
tp435
a(I68
I3
I0
S'soft'
p436
tp437
a(I112
I9
F-0.75
S'impossible'
p438
tp439
a(I112
I12
I0
S'old'
p440
tp441
a(I141
I2
F-0.375
S'simple'
p442
tp443
a(I151
I25
F-0.75
S'single'
p444
tp445
a(I157
I14
F0.875
S'music'
p446
tp447
a(I184
I1
F0.125
S'able'
p448
tp449
a(I186
I16
F0.5
S'clear'
p450
tp451
as(S'price'
p452
tp453
(lp454
(I19
I1
I0
S'same'
p455
tp456
a(I22
I3
F0.75
S'worth'
p457
tp458
a(I22
I7
I0
S'same'
p459
tp460
a(I27
I4
F0.5
S'reasonable'
p461
tp462
a(I47
I7
I0
S'android'
p463
tp464
a(I67
I1
I0
S'great'
p465
tp466
a(I81
I11
F-0.375
S'top'
p467
tp468
a(I81
I12
F-0.5
S'less'
p469
tp470
a(I97
I3
F0.75
S'worth'
p471
tp472
a(I99
I2
F-0.25
S'lower'
p473
tp474
a(I134
I2
F0.75
S'worth'
p475
tp476
a(I144
I7
F0.75
S'worth'
p477
tp478
a(I174
I4
F0.5
S'willing'
p479
tp480
a(I186
I34
I0
S'monthly'
p481
tp482
a(I197
I1
F1.0
S'good'
p483
tp484
as(S'like'
p485
tp486
(lp487
(I177
I2
F-0.375
S'top'
p488
tp489
as(S'service'
p490
tp491
(lp492
(I25
I21
F1.0
S'good'
p493
tp494
a(I27
I34
I0
S'same'
p495
tp496
a(I27
I34
I0
S'sprint'
p497
tp498
a(I27
I37
F-0.875
S'inferior'
p499
tp500
a(I36
I4
F-0.625
g237
tp501
a(I37
I16
I0
S'great'
p502
tp503
a(I42
I0
F-0.875
g241
tp504
a(I78
I0
F1.0
S'good'
p505
tp506
a(I78
I0
F0.125
S'spent'
p507
tp508
a(I85
I1
F0.625
g245
tp509
a(I85
I1
F1.0
g247
tp510
a(I98
I12
I0
g249
tp511
a(I116
I3
I0
S'internet'
p512
tp513
a(I165
I0
I0
S'great'
p514
tp515
a(I174
I12
F-0.5
g251
tp516
a(I174
I18
F0.5
g265
tp517
a(I176
I1
F-0.25
S'google'
p518
tp519
a(I183
I6
I0
g253
tp520
a(I192
I10
F1.0
S'good'
p521
tp522
a(I215
I31
F-0.625
S'bad'
p523
tp524
a(I220
I3
F0.875
S'happy'
p525
tp526
as(S'angry'
p527
S'birds'
p528
tp529
(lp530
(I0
I3
I0
S'play'
p531
tp532
a(I27
I26
I0
S'angry'
p533
tp534
a(I27
I27
I0
S'angry'
p535
tp536
a(I41
I5
I0
S'angry'
p537
tp538
a(I71
I7
I0
S'angry'
p539
tp540
a(I157
I13
I0
S'most'
p541
tp542
a(I173
I8
F-0.625
S'addictive'
p543
tp544
a(I177
I7
I0
S'angry'
p545
tp546
a(I223
I1
I0
S'angry'
p547
tp548
a(I223
I3
I0
S'angry'
p549
tp550
as(S'lg'
p551
S'optimus'
p552
g223
tp553
(lp554
(I3
I4
I0
S'more'
p555
tp556
a(I3
I4
F0.625
S'positive'
p557
tp558
a(I157
I9
F1.0
S'better'
p559
tp560
as(S'going'
p561
tp562
(lp563
(I14
I2
I0
S'most'
p564
tp565
a(I14
I2
F-0.75
S'likely'
p566
tp567
as(S'droid'
p568
S'x'
p569
tp570
(lp571
(I13
I22
I0
S'close'
p572
tp573
as(S'memory'
p574
tp575
(lp576
(I35
I7
I0
S'more'
p577
tp578
a(I35
I7
I0
S'more'
p579
tp580
a(I35
I8
I0
S'full'
p581
tp582
a(I35
I10
F0.125
S'plenty'
p583
tp584
a(I35
I10
F-0.625
S'free'
p585
tp586
a(I52
I6
F0.5
S'careful'
p587
tp588
a(I52
I6
I0
S'internal'
p589
tp590
a(I81
I5
I0
S'internal'
p591
tp592
a(I81
I5
I0
S'internal'
p593
tp594
as(S'fat'
p595
S'fingers'
p596
tp597
(lp598
(I49
I21
F0.125
S'fat'
p599
tp600
a(I92
I9
F0.125
S'fat'
p601
tp602
as(S'times'
p603
S'a'
p604
S'day'
p605
tp606
(lp607
(I2
I3
I0
g312
tp608
a(I14
I1
F-0.625
g314
tp609
a(I14
I1
I0
g316
tp610
a(I71
I10
I0
g322
tp611
a(I77
I12
I0
S'normal'
p612
tp613
as(S'virgin'
p614
S'mobile'
p615
S'samsung'
p616
tp617
(lp618
(I61
I0
F0.375
g289
tp619
a(I61
I0
F-0.625
S'other'
p620
tp621
as(g604
S'long'
p622
S'time'
p623
tp624
(lp625
(I0
I8
F-0.5
S'long'
p626
tp627
a(I25
I16
F-0.5
S'long'
p628
tp629
a(I100
I6
F-0.5
S'long'
p630
tp631
a(I106
I6
F-0.5
S'long'
p632
tp633
a(I152
I21
F0.125
S'last'
p634
tp635
a(I152
I21
F0.5
S'told'
p636
tp637
a(I167
I1
F-0.5
S'long'
p638
tp639
a(I214
I10
F-0.5
S'long'
p640
tp641
as(S'month'
p642
tp643
(lp644
(I13
I23
F-0.75
S'wrong'
p645
tp646
a(I27
I8
F-0.625
S'free'
p647
tp648
a(I35
I12
F0.125
S'last'
p649
tp650
a(I60
I0
F0.125
S'first'
p651
tp652
a(I63
I2
I0
S'later'
p653
tp654
a(I72
I1
F0.125
S'first'
p655
tp656
a(I77
I31
F0.5
S'second'
p657
tp658
a(I110
I3
F-0.625
S'other'
p659
tp660
a(I116
I1
F0.125
S'first'
p661
tp662
a(I116
I3
F0.5
S'second'
p663
tp664
a(I137
I3
F-0.375
S'slightest'
p665
tp666
a(I156
I0
F0.125
S'first'
p667
tp668
a(I202
I5
F0.125
S'last'
p669
tp670
as(S'thing'
p671
tp672
(lp673
(I0
I1
F0.875
S'nice'
p674
tp675
a(I0
I1
F-0.125
S'overall'
p676
tp677
a(I0
I9
I0
S'great'
p678
tp679
a(I0
I9
F1.0
S'best'
p680
tp681
a(I6
I1
I0
S'most'
p682
tp683
a(I6
I10
I0
S'only'
p684
tp685
a(I6
I10
F1.0
S'good'
p686
tp687
a(I13
I1
I0
S'such'
p688
tp689
a(I19
I1
F0.25
S'main'
p690
tp691
a(I25
I18
I0
S'only'
p692
tp693
a(I25
I25
F0.125
S'first'
p694
tp695
a(I31
I2
I0
S'only'
p696
tp697
a(I31
I2
F0.25
S'responsive'
p698
tp699
a(I40
I3
F0.5
S'whole'
p700
tp701
a(I47
I7
I0
S'same'
p702
tp703
a(I79
I10
I0
S'same'
p704
tp705
a(I80
I3
I0
S'only'
p706
tp707
a(I80
I3
F1.0
S'good'
p708
tp709
a(I85
I4
F-0.625
S'corrupt'
p710
tp711
a(I100
I5
F0.5
S'whole'
p712
tp713
a(I102
I3
F-0.75
S'stupid'
p714
tp715
a(I102
I7
I0
S'only'
p716
tp717
a(I133
I2
F1.0
S'best'
p718
tp719
a(I152
I21
I0
S'same'
p720
tp721
a(I158
I1
I0
S'same'
p722
tp723
a(I174
I23
I0
S'closest'
p724
tp725
a(I186
I24
I0
S'only'
p726
tp727
a(I195
I16
F1.0
S'good'
p728
tp729
a(I201
I9
I0
S'only'
p730
tp731
a(I207
I1
F0.125
S'first'
p732
tp733
a(I210
I0
I0
S'only'
p734
tp735
a(I210
I0
F1.0
S'good'
p736
tp737
a(I215
I13
F-0.625
S'other'
p738
tp739
a(I215
I21
F-0.625
S'other'
p740
tp741
as(S'notification'
p742
S'bar'
p743
tp744
(lp745
(I37
I10
F-0.375
S'top'
p746
tp747
a(I37
I10
I0
S'slide'
p748
tp749
as(S'data'
p750
tp751
(lp752
(I76
I1
I0
S'cable'
p753
tp754
a(I208
I0
F-0.25
S'low'
p755
tp756
as(S'work'
p757
tp758
(lp759
(I158
I19
F-0.25
S'disappointed'
p760
tp761
as(S'google'
p762
S'maps'
p763
tp764
(lp765
(I186
I12
F-0.25
S'google'
p766
tp767
a(I186
I13
F-0.5
S'regular'
p768
tp769
a(I219
I1
F-0.75
S'unresponsive'
p770
tp771
as(S'virgin'
p772
S'mobile'
p773
tp774
(lp775
(I1
I4
I0
g282
tp776
a(I27
I33
F-0.5
g284
tp777
a(I37
I18
F0.875
S'nice'
p778
tp779
a(I37
I18
F0.25
S'helpful'
p780
tp781
a(I40
I0
I0
g286
tp782
a(I42
I0
I0
g239
tp783
a(I61
I0
F0.375
g289
tp784
a(I79
I13
F-0.25
g243
tp785
a(I85
I8
I0
S'mobile'
p786
tp787
a(I99
I0
I0
g273
tp788
a(I101
I0
I0
g292
tp789
a(I151
I1
F0.125
g294
tp790
a(I172
I0
F-0.625
g296
tp791
a(I174
I22
F-0.375
g298
tp792
a(I174
I22
I0
g300
tp793
a(I177
I0
I0
g302
tp794
a(I181
I2
I0
g275
tp795
a(I198
I1
F0.5
g305
tp796
a(I214
I10
F0.875
g307
tp797
as(S'and'
p798
S'touch'
p799
S'screen'
p800
tp801
(lp802
(I25
I21
F0.25
S'responsive'
p803
tp804
a(I35
I3
F-0.5
g118
tp805
a(I55
I5
F0.5
S'touch'
p806
tp807
a(I63
I1
F0.125
g120
tp808
a(I63
I1
F0.25
S'responsive'
p809
tp810
a(I64
I1
F0.5
S'touch'
p811
tp812
a(I122
I12
F0.5
S'touch'
p813
tp814
a(I128
I0
I0
g122
tp815
a(I159
I3
I0
S'most'
p816
tp817
a(I159
I3
F0.5
S'touch'
p818
tp819
a(I177
I0
F0.5
S'touch'
p820
tp821
a(I177
I4
I0
S'sensitive'
p822
tp823
a(I190
I4
F0.125
g130
tp824
a(I195
I18
F0.5
S'touch'
p825
tp826
a(I203
I0
F0.5
S'touch'
p827
tp828
a(I210
I2
F-0.375
S'near'
p829
tp830
a(I210
I2
F0.25
S'responsive'
p831
tp832
as(S'minutes'
p833
tp834
(lp835
(I8
I17
I0
S'more'
p836
tp837
a(I34
I4
I0
S'forever'
p838
tp839
a(I56
I9
F-0.5
S'less'
p840
tp841
a(I148
I2
I0
S'many'
p842
tp843
a(I151
I18
I0
S'later'
p844
tp845
a(I152
I13
F-0.75
S'short'
p846
tp847
a(I152
I17
F0.125
S'last'
p848
tp849
a(I169
I0
F-0.625
S'bad'
p850
tp851
a(I173
I24
I0
S'full'
p852
tp853
a(I173
I25
I0
S'many'
p854
tp855
a(I173
I27
I0
S'more'
p856
tp857
a(I216
I0
I0
S'few'
p858
tp859
as(S'to'
p860
S'virgin'
p861
S'mobile'
p862
tp863
(lp864
(I1
I4
I0
g282
tp865
a(I40
I0
I0
g286
tp866
a(I42
I0
I0
g239
tp867
a(I61
I0
F0.375
g289
tp868
a(I79
I13
F-0.25
g243
tp869
a(I151
I1
F0.125
g294
tp870
a(I174
I22
F-0.375
g298
tp871
a(I174
I22
I0
g300
tp872
a(I177
I0
I0
g302
tp873
a(I181
I2
I0
g275
tp874
a(I198
I1
F0.5
g305
tp875
as(g604
S'great'
p876
S'deal'
p877
tp878
(lp879
(I1
I6
I0
S'great'
p880
tp881
a(I22
I2
I0
S'great'
p882
tp883
a(I41
I5
I0
S'great'
p884
tp885
a(I71
I10
F1.0
S'best'
p886
tp887
a(I112
I19
I0
S'great'
p888
tp889
a(I133
I5
I0
S'great'
p890
tp891
a(I177
I0
I0
S'great'
p892
tp893
a(I198
I0
I0
S'great'
p894
tp895
as(S'piece'
p896
S'of'
p897
S'junk'
p898
tp899
(lp900
(I146
I0
F-0.875
S'worst'
p901
tp902
a(I168
I0
I0
S'such'
p903
tp904
as(S'gon'
p905
S'na'
p906
tp907
(lp908
(I213
I2
F0.5
S'drive'
p909
tp910
as(S'virgin'
p911
tp912
(lp913
(I1
I4
I0
g282
tp914
a(I37
I18
F0.875
g778
tp915
a(I37
I18
F0.25
g780
tp916
a(I40
I0
I0
g286
tp917
a(I42
I0
I0
g239
tp918
a(I61
I0
F0.375
g289
tp919
a(I79
I13
F-0.25
g243
tp920
a(I85
I8
I0
g786
tp921
a(I101
I0
I0
g292
tp922
a(I151
I1
F0.125
g294
tp923
a(I172
I0
F-0.625
g296
tp924
a(I174
I22
F-0.375
g298
tp925
a(I177
I0
I0
g302
tp926
a(I186
I14
F0.375
S'newer'
p927
tp928
a(I198
I1
F0.5
g305
tp929
a(I214
I10
F0.875
g307
tp930
as(S'problems'
p931
tp932
(lp933
(I37
I4
F0.375
S'similar'
p934
tp935
a(I81
I1
I0
S'many'
p936
tp937
a(I108
I2
F0.75
S'constant'
p938
tp939
a(I146
I2
F-0.25
S'google'
p940
tp941
a(I172
I6
I0
S'same'
p942
tp943
a(I203
I1
F0.25
S'biggest'
p944
tp945
a(I213
I4
F-0.5
S'less'
p946
tp947
as(S'send'
p948
g604
S'text'
p949
tp950
(lp951
(I112
I9
F-0.75
g438
tp952
a(I112
I12
I0
g440
tp953
a(I141
I2
F-0.375
g442
tp954
a(I151
I25
F-0.75
g444
tp955
as(S'life'
p956
tp957
(lp958
(I13
I20
F-0.625
g143
tp959
a(I38
I16
F-0.125
g147
tp960
a(I40
I0
F1.0
g149
tp961
a(I62
I2
F-0.75
g151
tp962
a(I66
I0
F0.5
S'expensive'
p963
tp964
a(I106
I6
F0.125
S'last'
p965
tp966
a(I181
I6
I0
g161
tp967
as(S'an'
p968
S'lg'
p969
S'optimus'
p970
tp971
(lp972
(I3
I4
I0
g555
tp973
a(I3
I4
F0.625
g557
tp974
a(I157
I9
F1.0
g559
tp975
as(S'lg'
p976
S'optimus'
p977
tp978
(lp979
(I3
I4
I0
g555
tp980
a(I3
I4
F0.625
g557
tp981
a(I157
I9
F1.0
g559
tp982
as(S'plan'
p983
tp984
(lp985
(I36
I16
I0
S'android'
p986
tp987
a(I71
I10
I0
S'incredible'
p988
tp989
a(I175
I1
F1.0
S'good'
p990
tp991
a(I180
I5
F1.0
S'good'
p992
tp993
a(I190
I2
F-0.5
S'unlimited'
p994
tp995
a(I204
I3
I0
S'android'
p996
tp997
as(S'slide'
p998
S'out'
p999
S'keyboard'
p1000
tp1001
(lp1002
(I3
I1
I0
g39
tp1003
a(I27
I23
F0.875
g43
tp1004
a(I32
I0
I0
g49
tp1005
a(I32
I0
I0
g51
tp1006
a(I35
I1
I0
g55
tp1007
a(I72
I4
F-0.625
g71
tp1008
a(I82
I1
F0.625
g73
tp1009
a(I100
I13
F0.875
g77
tp1010
a(I138
I4
I0
g85
tp1011
a(I158
I14
F0.875
S'nice'
p1012
tp1013
a(I158
I14
I0
S'big'
p1014
tp1015
a(I195
I9
I0
g97
tp1016
as(S'to'
p1017
S'take'
p1018
S'battery'
p1019
tp1020
(lp1021
(I0
I9
F-0.75
S'unresponsive'
p1022
tp1023
as(S'2'
p1024
g1024
S'update'
p1025
tp1026
(lp1027
(I71
I10
I0
S'few'
p1028
tp1029
a(I92
I6
I0
S'android'
p1030
tp1031
a(I202
I5
F0.125
S'received'
p1032
tp1033
as(S'great'
p1034
tp1035
(lp1036
(I198
I0
I0
g894
tp1037
as(S'battery'
p1038
tp1039
(lp1040
(I0
I9
F-0.75
g1022
tp1041
a(I27
I38
I0
g145
tp1042
a(I59
I2
I0
S'common'
p1043
tp1044
a(I70
I0
I0
S'full'
p1045
tp1046
a(I70
I0
F0.375
S'new'
p1047
tp1048
a(I75
I0
F1.0
g153
tp1049
a(I77
I7
I0
S'full'
p1050
tp1051
a(I110
I1
F1.0
g155
tp1052
a(I173
I7
I0
S'least'
p1053
tp1054
a(I178
I1
F-0.125
g157
tp1055
a(I178
I1
F-0.5
g159
tp1056
a(I189
I2
I0
S'full'
p1057
tp1058
a(I201
I4
F1.0
g163
tp1059
a(I204
I12
I0
S'many'
p1060
tp1061
a(I215
I4
F0.375
S'extra'
p1062
tp1063
a(I216
I5
F0.625
S'removable'
p1064
tp1065
as(S'smart'
p1066
tp1067
(lp1068
(I6
I13
I0
S'different'
p1069
tp1070
a(I27
I10
F1.0
S'best'
p1071
tp1072
a(I40
I0
F0.125
S'typical'
p1073
tp1074
a(I40
I0
I0
S'most'
p1075
tp1076
a(I40
I0
F0.5
S'second'
p1077
tp1078
a(I40
I1
F0.125
S'first'
p1079
tp1080
a(I89
I2
F0.875
S'nice'
p1081
tp1082
a(I89
I2
F0.125
S'first'
p1083
tp1084
a(I133
I2
F0.5
S'functional'
p1085
tp1086
a(I145
I1
F0.125
S'first'
p1087
tp1088
a(I173
I0
F0.125
S'first'
p1089
tp1090
a(I185
I0
I0
S'basic'
p1091
tp1092
as(S'money'
p1093
tp1094
(lp1095
(I6
I14
F0.75
S'worth'
p1096
tp1097
a(I32
I0
I0
S'more'
p1098
tp1099
a(I53
I1
F0.75
S'worth'
p1100
tp1101
a(I78
I3
F0.375
S'extra'
p1102
tp1103
a(I81
I12
F0.375
S'extra'
p1104
tp1105
a(I89
I7
F0.375
S'extra'
p1106
tp1107
a(I100
I11
I0
S'own'
p1108
tp1109
a(I102
I0
F0.75
S'worth'
p1110
tp1111
a(I139
I11
F0.375
S'extra'
p1112
tp1113
a(I192
I9
F0.375
S'extra'
p1114
tp1115
a(I192
I9
F1.0
S'better'
p1116
tp1117
a(I192
I9
I0
S'mobile'
p1118
tp1119
a(I213
I4
I0
S'ur'
p1120
tp1121
as(S'cheap'
p1122
tp1123
(lp1124
(I31
I3
I0
S'great'
p1125
tp1126
a(I195
I2
F-0.75
S'worse'
p1127
tp1128
a(I195
I2
F-0.5
S'poor'
p1129
tp1130
as(S'was'
p1131
S'first'
p1132
S'android'
p1133
tp1134
(lp1135
(I37
I0
F0.125
g389
tp1136
a(I40
I0
F0.125
g391
tp1137
a(I63
I0
F0.125
g399
tp1138
a(I89
I0
F0.125
g401
tp1139
a(I138
I0
F0.125
g407
tp1140
a(I138
I0
F0.125
g409
tp1141
a(I179
I1
F0.125
g413
tp1142
a(I192
I1
F0.125
g415
tp1143
as(S'25'
p1144
g604
S'month'
p1145
tp1146
(lp1147
(I13
I23
F-0.75
g645
tp1148
as(S'time'
p1149
tp1150
(lp1151
(I0
I8
F-0.5
g626
tp1152
a(I2
I4
F0.125
S'able'
p1153
tp1154
a(I3
I2
I0
S'slower'
p1155
tp1156
a(I3
I2
I0
S'dial'
p1157
tp1158
a(I3
I2
I0
S'most'
p1159
tp1160
a(I19
I1
F1.0
S'better'
p1161
tp1162
a(I25
I16
F-0.5
g628
tp1163
a(I26
I1
F0.125
S'first'
p1164
tp1165
a(I33
I1
I0
S'own'
p1166
tp1167
a(I35
I14
I0
S'same'
p1168
tp1169
a(I38
I1
I0
S'most'
p1170
tp1171
a(I38
I1
F-0.75
S'unresponsive'
p1172
tp1173
a(I38
I8
F0.875
S'music'
p1174
tp1175
a(I40
I6
I0
S'more'
p1176
tp1177
a(I41
I5
F0.75
S'due'
p1178
tp1179
a(I47
I4
F0.625
S'fair'
p1180
tp1181
a(I47
I4
F0.75
S'due'
p1182
tp1183
a(I49
I13
F0.5
S'second'
p1184
tp1185
a(I50
I2
F-0.125
S'slow'
p1186
tp1187
a(I71
I10
I0
S'most'
p1188
tp1189
a(I81
I10
F0.125
S'first'
p1190
tp1191
a(I89
I3
F0.75
S'worth'
p1192
tp1193
a(I89
I8
F0.75
S'worth'
p1194
tp1195
a(I99
I1
I0
S'same'
p1196
tp1197
a(I100
I6
F-0.5
g630
tp1198
a(I106
I6
F-0.5
g632
tp1199
a(I106
I13
I0
S'same'
p1200
tp1201
a(I112
I4
F-0.125
S'slow'
p1202
tp1203
a(I118
I21
F0.125
S'first'
p1204
tp1205
a(I124
I1
I0
S'great'
p1206
tp1207
a(I130
I5
I0
S'most'
p1208
tp1209
a(I130
I10
F0.875
S'music'
p1210
tp1211
a(I131
I2
F-0.375
S'top'
p1212
tp1213
a(I138
I2
F0.125
S'first'
p1214
tp1215
a(I138
I2
F-0.75
S'minor'
p1216
tp1217
a(I152
I21
F0.125
g634
tp1218
a(I152
I21
F0.5
g636
tp1219
a(I165
I0
F0.125
S'first'
p1220
tp1221
a(I167
I1
F-0.5
g638
tp1222
a(I169
I2
I0
S'most'
p1223
tp1224
a(I172
I8
F0.75
S'worth'
p1225
tp1226
a(I174
I12
I0
S'pacific'
p1227
tp1228
a(I175
I1
F-0.125
S'slow'
p1229
tp1230
a(I214
I10
F-0.5
g640
tp1231
a(I217
I5
I0
S'same'
p1232
tp1233
a(I217
I13
I0
S'most'
p1234
tp1235
as(S'n'
p1236
S'an'
p1237
S'emergency'
p1238
tp1239
(lp1240
(I195
I20
F-0.625
S'bad'
p1241
tp1242
as(S'for'
p1243
S'virgin'
p1244
S'mobile'
p1245
tp1246
(lp1247
(I1
I4
I0
g282
tp1248
a(I27
I33
F-0.5
g284
tp1249
a(I40
I0
I0
g286
tp1250
a(I42
I0
I0
g239
tp1251
a(I61
I0
F0.375
g289
tp1252
a(I79
I13
F-0.25
g243
tp1253
a(I101
I0
I0
g292
tp1254
a(I174
I22
F-0.375
g298
tp1255
a(I174
I22
I0
g300
tp1256
a(I177
I0
I0
g302
tp1257
a(I214
I10
F0.875
g307
tp1258
as(S'plans'
p1259
tp1260
(lp1261
(I25
I9
F-0.625
S'other'
p1262
tp1263
a(I27
I10
F0.625
S'perfect'
p1264
tp1265
a(I41
I2
F-0.25
S'cheapest'
p1266
tp1267
a(I78
I2
F0.5
S'expensive'
p1268
tp1269
a(I79
I19
I0
S'prepaid'
p1270
tp1271
a(I84
I1
F1.0
S'better'
p1272
tp1273
a(I99
I7
F0.625
S'decent'
p1274
tp1275
a(I101
I0
I0
S'great'
p1276
tp1277
a(I101
I0
F-0.5
S'sure'
p1278
tp1279
a(I101
I0
F1.0
S'good'
p1280
tp1281
a(I186
I36
F-0.25
S'cheaper'
p1282
tp1283
as(S'months'
p1284
tp1285
(lp1286
(I2
I1
I0
S'few'
p1287
tp1288
a(I16
I2
F0.125
S'first'
p1289
tp1290
a(I16
I2
I0
S'few'
p1291
tp1292
a(I23
I0
I0
S'few'
p1293
tp1294
a(I46
I1
F0.5
S'second'
p1295
tp1296
a(I46
I1
I0
S'lasted'
p1297
tp1298
a(I59
I0
I0
S'more'
p1299
tp1300
a(I70
I0
F0.125
S'first'
p1301
tp1302
a(I71
I0
F1.0
S'good'
p1303
tp1304
a(I72
I3
I0
S'few'
p1305
tp1306
a(I76
I1
I0
S'few'
p1307
tp1308
a(I105
I7
I0
S'few'
p1309
tp1310
a(I112
I8
I0
S'later'
p1311
tp1312
a(I112
I8
I0
S'signal'
p1313
tp1314
a(I117
I0
F0.125
S'received'
p1315
tp1316
a(I141
I5
I0
S'few'
p1317
tp1318
a(I173
I10
I0
S'next'
p1319
tp1320
a(I173
I10
I0
S'few'
p1321
tp1322
a(I204
I0
I0
S'few'
p1323
tp1324
as(S'lg'
p1325
S'rumor'
p1326
S'touch'
p1327
tp1328
(lp1329
(I173
I0
I0
S'old'
p1330
tp1331
a(I173
I5
F0.125
g124
tp1332
a(I186
I15
F-0.75
g128
tp1333
as(S'reason'
p1334
tp1335
(lp1336
(I68
I6
I0
S'only'
p1337
tp1338
a(I68
I6
F-0.75
S'single'
p1339
tp1340
a(I68
I6
F0.75
S'due'
p1341
tp1342
a(I81
I2
I0
S'such'
p1343
tp1344
a(I100
I13
F0.25
S'main'
p1345
tp1346
a(I179
I5
F1.0
S'good'
p1347
tp1348
a(I186
I21
I0
S'only'
p1349
tp1350
a(I215
I3
F0.5
S'true'
p1351
tp1352
as(S'touch'
p1353
S'screen'
p1354
tp1355
(lp1356
(I25
I21
F0.25
g803
tp1357
a(I35
I3
F-0.5
g118
tp1358
a(I55
I5
F0.5
g806
tp1359
a(I63
I1
F0.125
g120
tp1360
a(I63
I1
F0.25
g809
tp1361
a(I64
I1
F0.5
g811
tp1362
a(I119
I4
F0.25
S'responsive'
p1363
tp1364
a(I122
I12
F0.5
g813
tp1365
a(I128
I0
I0
g122
tp1366
a(I159
I3
I0
g816
tp1367
a(I159
I3
F0.5
g818
tp1368
a(I177
I0
F0.5
g820
tp1369
a(I177
I4
I0
g822
tp1370
a(I179
I4
F-0.75
S'unresponsive'
p1371
tp1372
a(I179
I7
F0.5
S'touch'
p1373
tp1374
a(I183
I2
F-0.125
S'slow'
p1375
tp1376
a(I183
I2
F-0.5
S'poor'
p1377
tp1378
a(I190
I4
F0.125
g130
tp1379
a(I195
I18
F0.5
g825
tp1380
a(I203
I0
F0.5
g827
tp1381
a(I210
I2
F-0.375
g829
tp1382
a(I210
I2
F0.25
g831
tp1383
as(S'beyond'
p1384
S'talk'
p1385
tp1386
(lp1387
(I202
I8
I0
S'mobile'
p1388
tp1389
as(S'year'
p1390
tp1391
(lp1392
(I25
I31
I0
S'great'
p1393
tp1394
a(I25
I31
I0
S'old'
p1395
tp1396
a(I80
I1
F0.5
S'whole'
p1397
tp1398
a(I151
I0
F0.625
S'pleasant'
p1399
tp1400
a(I192
I0
I0
S'great'
p1401
tp1402
a(I192
I0
F0.125
S'first'
p1403
tp1404
a(I195
I0
I0
S'more'
p1405
tp1406
a(I204
I7
I0
S'more'
p1407
tp1408
as(S'little'
p1409
tp1410
(lp1411
(I97
I0
F1.0
S'good'
p1412
tp1413
as(S'first'
p1414
S'android'
p1415
tp1416
(lp1417
(I21
I2
F0.125
g385
tp1418
a(I37
I0
F0.125
g389
tp1419
a(I40
I0
F0.125
g391
tp1420
a(I63
I0
F0.125
g399
tp1421
a(I89
I0
F0.125
g401
tp1422
a(I138
I0
F0.125
g407
tp1423
a(I138
I0
F0.125
g409
tp1424
a(I179
I1
F0.125
g413
tp1425
a(I192
I1
F0.125
g415
tp1426
a(I207
I0
F0.125
g417
tp1427
as(S'screen'
p1428
tp1429
(lp1430
(I20
I1
F-0.25
S'white'
p1431
tp1432
a(I22
I5
F0.125
S'first'
p1433
tp1434
a(I25
I21
F0.25
g803
tp1435
a(I42
I3
F-0.75
S'impossible'
p1436
tp1437
a(I55
I5
F0.5
g806
tp1438
a(I63
I1
F0.25
g809
tp1439
a(I64
I1
F0.5
g811
tp1440
a(I68
I0
F0.875
S'important'
p1441
tp1442
a(I68
I4
F-0.625
S'light'
p1443
tp1444
a(I72
I6
F0.75
S'give'
p1445
tp1446
a(I74
I2
F-0.75
S'unresponsive'
p1447
tp1448
a(I101
I17
F-0.375
S'small'
p1449
tp1450
a(I101
I17
F-0.75
S'impossible'
p1451
tp1452
a(I109
I8
F0.5
S'functional'
p1453
tp1454
a(I114
I3
F0.25
S'biggest'
p1455
tp1456
a(I118
I9
F1.0
S'best'
p1457
tp1458
a(I119
I4
F0.25
g1363
tp1459
a(I122
I2
I0
S'vertical'
p1460
tp1461
a(I122
I12
F0.5
g813
tp1462
a(I135
I13
F0.625
S'easy'
p1463
tp1464
a(I135
I13
I0
S'such'
p1465
tp1466
a(I135
I13
F-0.375
S'small'
p1467
tp1468
a(I138
I5
I0
S'faster'
p1469
tp1470
a(I138
I5
F0.25
S'bigger'
p1471
tp1472
a(I138
I5
F0.375
S'newest'
p1473
tp1474
a(I142
I1
F1.0
S'good'
p1475
tp1476
a(I159
I3
I0
g816
tp1477
a(I159
I3
F0.5
g818
tp1478
a(I162
I3
F-0.375
S'black'
p1479
tp1480
a(I177
I0
F0.5
g820
tp1481
a(I177
I4
I0
g822
tp1482
a(I179
I4
F-0.75
g1371
tp1483
a(I179
I7
F0.5
g1373
tp1484
a(I181
I5
F0.25
S'responsive'
p1485
tp1486
a(I181
I10
F0.25
S'responsive'
p1487
tp1488
a(I181
I10
F-0.625
S'glad'
p1489
tp1490
a(I183
I2
F-0.125
g1375
tp1491
a(I183
I2
F-0.5
g1377
tp1492
a(I195
I4
F-0.375
S'smaller'
p1493
tp1494
a(I195
I18
F0.5
g825
tp1495
a(I203
I0
F0.5
g827
tp1496
a(I204
I22
F0.25
S'main'
p1497
tp1498
a(I210
I2
F-0.375
g829
tp1499
a(I210
I2
F0.25
g831
tp1500
as(S'r'
p1501
S'money'
p1502
tp1503
(lp1504
(I6
I14
F0.75
g1096
tp1505
a(I32
I0
I0
g1098
tp1506
a(I53
I1
F0.75
g1100
tp1507
a(I78
I3
F0.375
g1102
tp1508
a(I81
I12
F0.375
g1104
tp1509
a(I89
I7
F0.375
g1106
tp1510
a(I100
I11
I0
g1108
tp1511
a(I102
I0
F0.75
g1110
tp1512
a(I139
I11
F0.375
g1112
tp1513
a(I192
I9
F0.375
g1114
tp1514
a(I192
I9
F1.0
g1116
tp1515
a(I192
I9
I0
g1118
tp1516
a(I213
I4
I0
g1120
tp1517
as(S'everything'
p1518
tp1519
(lp1520
(I6
I9
F-0.125
S'slow'
p1521
tp1522
a(I77
I31
I0
S'great'
p1523
tp1524
a(I90
I1
I0
S'mobile'
p1525
tp1526
a(I144
I5
F-0.125
S'slow'
p1527
tp1528
a(I173
I26
F-0.5
S'unlimited'
p1529
tp1530
a(I174
I8
F0.125
S'able'
p1531
tp1532
as(S'samsung'
p1533
tp1534
(lp1535
(I27
I52
I0
S'wish'
p1536
tp1537
a(I34
I4
F-0.75
S'hate'
p1538
tp1539
a(I61
I0
F-0.625
g620
tp1540
a(I71
I1
F0.125
S'first'
p1541
tp1542
a(I100
I7
F0.125
S'last'
p1543
tp1544
a(I141
I6
F0.125
S'first'
p1545
tp1546
a(I141
I6
F-0.625
S'other'
p1547
tp1548
a(I145
I0
F0.375
S'new'
p1549
tp1550
a(I166
I9
F-0.625
S'glad'
p1551
tp1552
as(S'slide'
p1553
tp1554
(lp1555
(I158
I14
F0.875
g1012
tp1556
a(I158
I14
I0
g1014
tp1557
as(S'camera'
p1558
tp1559
(lp1560
(I6
I6
F-0.125
S'slow'
p1561
tp1562
a(I38
I5
F1.0
S'good'
p1563
tp1564
a(I157
I8
F0.625
S'decent'
p1565
tp1566
a(I163
I2
F1.0
S'good'
p1567
tp1568
a(I163
I2
F-0.5
S'complaint'
p1569
tp1570
a(I186
I17
F0.5
S'clear'
p1571
tp1572
a(I186
I17
F0.625
S'easy'
p1573
tp1574
as(S'take'
p1575
tp1576
(lp1577
(I192
I5
F-0.5
S'long'
p1578
tp1579
as(S'need'
p1580
tp1581
(lp1582
(I217
I5
I0
S'android'
p1583
tp1584
as(S'mobile'
p1585
tp1586
(lp1587
(I27
I33
F-0.5
g284
tp1588
a(I99
I0
I0
g273
tp1589
a(I174
I22
I0
g300
tp1590
a(I181
I2
I0
g275
tp1591
a(I186
I4
F-0.375
S'modified'
p1592
tp1593
as(S'and'
p1594
S'300'
p1595
S'minutes'
p1596
tp1597
(lp1598
(I169
I0
F-0.625
g850
tp1599
a(I173
I25
I0
g854
tp1600
as(S'works'
p1601
tp1602
(lp1603
(I1
I1
I0
S'great'
p1604
tp1605
a(I18
I5
I0
S'great'
p1606
tp1607
a(I71
I10
I0
S'great'
p1608
tp1609
a(I93
I0
I0
S'great'
p1610
tp1611
a(I106
I10
I0
S'great'
p1612
tp1613
a(I211
I0
F1.0
S'good'
p1614
tp1615
a(I211
I1
I0
S'great'
p1616
tp1617
as(S'apps'
p1618
tp1619
(lp1620
(I2
I8
F-0.625
S'free'
p1621
tp1622
a(I4
I2
F-0.125
S'slow'
p1623
tp1624
a(I9
I6
F-0.125
S'slow'
p1625
tp1626
a(I18
I6
I0
S'many'
p1627
tp1628
a(I35
I7
F0.25
S'used'
p1629
tp1630
a(I38
I4
I0
S'great'
p1631
tp1632
a(I39
I3
I0
S'few'
p1633
tp1634
a(I45
I2
I0
S'current'
p1635
tp1636
a(I45
I2
I0
S'basic'
p1637
tp1638
a(I52
I1
I0
S'few'
p1639
tp1640
a(I52
I5
F0.125
S'able'
p1641
tp1642
a(I52
I5
I0
S'few'
p1643
tp1644
a(I55
I3
I0
S'most'
p1645
tp1646
a(I59
I1
I0
S'few'
p1647
tp1648
a(I59
I1
F0.125
S'able'
p1649
tp1650
a(I71
I10
F-0.625
S'free'
p1651
tp1652
a(I71
I10
I0
S'android'
p1653
tp1654
a(I71
I12
I0
S'great'
p1655
tp1656
a(I80
I2
I0
S'more'
p1657
tp1658
a(I92
I5
I0
S'more'
p1659
tp1660
a(I98
I9
I0
S'many'
p1661
tp1662
a(I98
I9
F-0.375
S'crash'
p1663
tp1664
a(I99
I1
I0
S'multiple'
p1665
tp1666
a(I117
I0
F-0.125
S'minimum'
p1667
tp1668
a(I118
I17
I0
S'many'
p1669
tp1670
a(I119
I6
F-0.125
S'slow'
p1671
tp1672
a(I122
I8
F-0.625
S'free'
p1673
tp1674
a(I122
I8
F0.375
S'much'
p1675
tp1676
a(I130
I6
I0
S'narrower'
p1677
tp1678
a(I130
I6
I0
S'many'
p1679
tp1680
a(I130
I10
I0
S'android'
p1681
tp1682
a(I133
I2
I0
S'few'
p1683
tp1684
a(I146
I1
I0
S'few'
p1685
tp1686
a(I146
I1
F0.375
S'available'
p1687
tp1688
a(I146
I1
F-0.625
S'other'
p1689
tp1690
a(I149
I3
F-0.625
S'other'
p1691
tp1692
a(I158
I17
I0
S'most'
p1693
tp1694
a(I158
I17
F-0.625
S'useless'
p1695
tp1696
a(I158
I17
F1.0
S'good'
p1697
tp1698
a(I158
I18
F0.625
S'find'
p1699
tp1700
a(I158
I18
F0.625
S'convenient'
p1701
tp1702
a(I168
I2
I0
S'faster'
p1703
tp1704
a(I171
I3
I0
S'few'
p1705
tp1706
a(I173
I28
I0
S'real'
p1707
tp1708
a(I174
I19
I0
S'different'
p1709
tp1710
a(I186
I20
F-0.625
S'free'
p1711
tp1712
a(I190
I1
I0
S'great'
p1713
tp1714
a(I190
I3
I0
S'great'
p1715
tp1716
a(I195
I21
I0
S'few'
p1717
tp1718
a(I195
I21
F-0.75
S'little'
p1719
tp1720
a(I222
I6
F0.125
S'last'
p1721
tp1722
as(S'with'
p1723
S'virgin'
p1724
S'mobile'
p1725
tp1726
(lp1727
(I61
I0
F0.375
g289
tp1728
a(I79
I13
F-0.25
g243
tp1729
a(I101
I0
I0
g292
tp1730
a(I214
I10
F0.875
g307
tp1731
as(g604
S'virgin'
p1732
S'mobile'
p1733
tp1734
(lp1735
(I1
I4
I0
g282
tp1736
a(I27
I33
F-0.5
g284
tp1737
a(I37
I18
F0.875
g778
tp1738
a(I37
I18
F0.25
g780
tp1739
a(I40
I0
I0
g286
tp1740
a(I42
I0
I0
g239
tp1741
a(I61
I0
F0.375
g289
tp1742
a(I79
I13
F-0.25
g243
tp1743
a(I85
I8
I0
g786
tp1744
a(I101
I0
I0
g292
tp1745
a(I151
I1
F0.125
g294
tp1746
a(I172
I0
F-0.625
g296
tp1747
a(I174
I22
F-0.375
g298
tp1748
a(I174
I22
I0
g300
tp1749
a(I177
I0
I0
g302
tp1750
a(I181
I2
I0
g275
tp1751
a(I198
I1
F0.5
g305
tp1752
a(I214
I10
F0.875
g307
tp1753
as(S'better'
p1754
tp1755
(lp1756
(I16
I4
F0.375
S'much'
p1757
tp1758
a(I22
I7
F0.375
S'much'
p1759
tp1760
a(I171
I6
F0.375
S'much'
p1761
tp1762
as(S'update'
p1763
tp1764
(lp1765
(I71
I10
I0
g1028
tp1766
a(I92
I6
I0
g1030
tp1767
a(I202
I5
F0.125
g1032
tp1768
as(S'call'
p1769
tp1770
(lp1771
(I141
I3
F0.125
S'able'
p1772
tp1773
a(I173
I1
I0
S'incredible'
p1774
tp1775
a(I174
I7
F-0.5
S'actual'
p1776
tp1777
a(I195
I24
I0
S'great'
p1778
tp1779
as(S'texting'
p1780
tp1781
(lp1782
(I87
I2
I0
S'great'
p1783
tp1784
a(I87
I2
F-0.375
S'daily'
p1785
tp1786
a(I95
I0
I0
S'lag'
p1787
tp1788
as(S'calls'
p1789
tp1790
(lp1791
(I22
I4
F-0.125
S'slow'
p1792
tp1793
a(I22
I4
F0.75
S'due'
p1794
tp1795
a(I81
I5
F0.125
S'last'
p1796
tp1797
a(I151
I3
I0
S'more'
p1798
tp1799
a(I212
I1
F-0.125
S'slow'
p1800
tp1801
a(I212
I1
F-0.5
S'answer'
p1802
tp1803
as.