(dp0
(S'battery'
p1
S'life'
p2
tp3
(lp4
(I3
I11
F1.0
S'good'
p5
I1
tp6
a(I3
I38
F-0.75
S'short'
p7
I1
tp8
a(I3
I43
I0
S'more'
p9
I1
tp10
a(I3
I103
F0.125
S'first'
p11
I1
tp12
a(I3
I104
F0.125
S'last'
p13
I1
tp14
a(I3
I104
I0
S'same'
p15
I1
tp16
a(I3
I186
F-0.625
S'bad'
p17
I1
tp18
a(I3
I11
F1.0
g5
I19
tp19
a(I3
I38
F-0.75
g7
I19
tp20
a(I3
I104
I0
g15
I19
tp21
a(I0
I17
F0.125
S'last'
p22
I15
tp23
a(I0
I17
F-0.5
S'long'
p24
I15
tp25
a(I2
I4
I0
S'great'
p26
I15
tp27
a(I3
I27
F1.0
S'good'
p28
I15
tp29
a(I3
I27
I0
S'least'
p30
I15
tp31
a(I3
I43
I0
g9
I15
tp32
a(I3
I68
I0
S'rapid'
p33
I15
tp34
a(I3
I103
F0.125
g11
I15
tp35
a(I3
I104
F0.125
g13
I15
tp36
a(I3
I150
F0.125
S'last'
p37
I15
tp38
a(I3
I186
F-0.625
g17
I15
tp39
a(I3
I239
F-0.375
S'pull'
p40
I15
tp41
a(I3
I350
I0
S'great'
p42
I15
tp43
as(S'a'
p44
S'dual'
p45
S'core'
p46
tp47
(lp48
(I2
I36
I0
S'more'
p49
I0
tp50
a(I3
I399
F-0.625
S'other'
p51
I0
tp52
a(I2
I36
I0
g49
I0
tp53
a(I3
I399
F-0.625
g51
I0
tp54
a(I2
I36
I0
g49
I3
tp55
a(I3
I399
F-0.625
g51
I3
tp56
as(S'call'
p57
S'quality'
p58
tp59
(lp60
(I0
I104
F-0.875
S'inferior'
p61
I0
tp62
a(I0
I120
F-0.5
S'call'
p63
I0
tp64
a(I1
I27
I0
S'great'
p65
I0
tp66
a(I3
I299
F1.0
S'good'
p67
I0
tp68
a(I3
I365
I0
S'great'
p69
I0
tp70
as(S'camera'
p71
tp72
(lp73
(I0
I83
F0.5
S'comparable'
p74
I1
tp75
a(I0
I83
F0.125
S'digital'
p76
I1
tp77
a(I0
I115
F0.125
S'solid'
p78
I1
tp79
a(I1
I26
I0
S'great'
p80
I1
tp81
a(I3
I51
I0
S'standard'
p82
I1
tp83
a(I3
I51
F0.875
S'nice'
p84
I1
tp85
a(I3
I51
F-0.625
S'other'
p86
I1
tp87
a(I3
I51
F0.875
S'nice'
p88
I1
tp89
a(I3
I51
I0
S'physical'
p90
I1
tp91
a(I3
I372
F-0.5
S'sure'
p92
I1
tp93
a(I3
I372
F0.125
S'capable'
p94
I1
tp95
as(S'games'
p96
tp97
(lp98
(I0
I66
I0
S'3d'
p99
I19
tp100
a(I3
I267
I0
S'great'
p101
I19
tp102
as(S'reboots'
p103
tp104
(lp105
(I3
I376
F0.125
S'first'
p106
I0
tp107
a(I3
I376
I0
S'many'
p108
I0
tp109
as(S'reception'
p110
tp111
(lp112
(I0
I106
F-0.5
S'weak'
p113
I0
tp114
a(I0
I130
F1.0
S'good'
p115
I0
tp116
a(I0
I148
I0
S'great'
p117
I0
tp118
a(I0
I153
F-0.5
S'poor'
p119
I0
tp120
a(I0
I153
F1.0
S'good'
p121
I0
tp122
a(I1
I18
F0.625
S'perfect'
p123
I0
tp124
a(I2
I84
F-0.625
S'bad'
p125
I0
tp126
a(I3
I182
F1.0
S'better'
p127
I0
tp128
a(I3
I186
F-0.625
S'bad'
p129
I0
tp130
a(I3
I449
F-0.5
S'poor'
p131
I0
tp132
as(S'apps'
p133
tp134
(lp135
(I3
I207
F0.5
S'rid'
p136
I0
tp137
as(S'google'
p138
tp139
(lp140
(I3
I298
F1.0
S'best'
p141
I4
tp142
as(S'cyanogenmod'
p143
tp144
(lp145
(I1
I89
F0.125
S'able'
p146
I0
tp147
as(S'signal'
p148
tp149
(lp150
(I0
I107
F-0.625
S'other'
p151
I1
tp152
as(S'next'
p153
S'day'
p154
tp155
(lp156
(I0
I130
I0
S'next'
p157
I4
tp158
a(I3
I139
I0
S'next'
p159
I4
tp160
a(I3
I142
I0
S'next'
p161
I4
tp162
a(I3
I146
I0
S'next'
p163
I4
tp164
a(I3
I344
I0
S'next'
p165
I4
tp166
as(S'stock'
p167
S'android'
p168
tp169
(lp170
(I3
I333
I0
S'close'
p171
I0
tp172
a(I3
I333
F-0.75
S'likely'
p173
I0
tp174
a(I3
I454
F-0.625
S'clean'
p175
I0
tp176
a(I0
I70
F0.5
S'rid'
p177
I6
tp178
a(I3
I140
F0.125
S'last'
p179
I6
tp180
a(I3
I140
F0.375
S'new'
p181
I6
tp182
a(I3
I333
I0
g171
I6
tp183
a(I3
I454
F-0.625
g175
I6
tp184
a(I0
I164
F0.125
S'first'
p185
I0
tp186
a(I1
I45
I0
S'most'
p187
I0
tp188
a(I1
I108
F0.125
S'first'
p189
I0
tp190
a(I3
I40
F0.5
S'second'
p191
I0
tp192
a(I3
I333
F-0.75
g173
I0
tp193
a(I3
I447
F-0.625
S'want'
p194
I0
tp195
as(S'data'
p196
tp197
(lp198
(I3
I72
I0
S'most'
p199
I13
tp200
as(S'customer'
p201
S'service'
p202
tp203
(lp204
(I1
I5
F-0.25
S'hung'
p205
I3
tp206
a(I1
I15
I0
S'great'
p207
I3
tp208
a(I3
I74
F0.625
S'acceptable'
p209
I3
tp210
a(I1
I5
F-0.25
g205
I16
tp211
a(I1
I12
F-0.5
S'regular'
p212
I16
tp213
a(I1
I15
I0
g207
I16
tp214
as(S'wifi'
p215
tp216
(lp217
(I2
I26
F-0.625
S'free'
p218
I0
tp219
a(I2
I26
F0.375
S'available'
p220
I0
tp221
a(I2
I70
F0.625
S'convenient'
p222
I0
tp223
a(I3
I53
I0
S'great'
p224
I0
tp225
a(I3
I54
I0
S'most'
p226
I0
tp227
a(I3
I451
F-0.5
S'open'
p228
I0
tp229
as(S'quality'
p230
S'control'
p231
tp232
(lp233
(I0
I163
F1.0
S'better'
p234
I1
tp235
a(I3
I282
F-0.625
S'bad'
p236
I1
tp237
as.