(dp0
(S'times'
p1
tp2
(lp3
(I34
I4
I0
S'many'
p4
tp5
a(I123
I27
F0.125
S'last'
p6
tp7
a(I123
I27
F-0.5
S'long'
p8
tp9
a(I123
I27
F-0.75
S'single'
p10
tp11
a(I123
I40
I0
S'few'
p12
tp13
as(S'problem'
p14
tp15
(lp16
(I6
I0
F-0.375
S'manual'
p17
tp18
a(I15
I2
I0
S'only'
p19
tp20
a(I58
I14
I0
S'same'
p21
tp22
a(I100
I2
I0
S'same'
p23
tp24
a(I104
I1
I0
S'only'
p25
tp26
a(I129
I1
I0
S'only'
p27
tp28
as(S'something'
p29
tp30
(lp31
(I19
I0
F-0.75
S'wrong'
p32
tp33
a(I50
I23
F0.375
S'similar'
p34
tp35
a(I126
I0
F0.375
S'new'
p36
tp37
a(I126
I0
F0.375
S'new'
p38
tp39
as(S'on'
p40
S'screen'
p41
S'keyboard'
p42
tp43
(lp44
(I5
I15
F0.5
S'touch'
p45
tp46
a(I11
I10
F1.0
S'best'
p47
tp48
a(I58
I1
F0.5
S'touch'
p49
tp50
a(I58
I1
I0
S'physical'
p51
tp52
a(I73
I0
I0
S'fast'
p53
tp54
a(I73
I0
I0
S'touchscreen'
p55
tp56
a(I74
I3
F-0.125
S'blackberry'
p57
tp58
a(I74
I3
F0.5
S'touch'
p59
tp60
a(I74
I3
I0
S'full'
p61
tp62
a(I100
I4
F0.5
S'touch'
p63
tp64
a(I100
I5
F0.5
S'touch'
p65
tp66
a(I110
I6
F-0.375
S'small'
p67
tp68
a(I111
I0
F0.875
S'nice'
p69
tp70
a(I111
I0
I0
S'big'
p71
tp72
a(I134
I0
F1.0
S'better'
p73
tp74
a(I171
I5
F0.5
S'touch'
p75
tp76
as(S'battery'
p77
S'life'
p78
tp79
(lp80
(I5
I8
I0
S'great'
p81
tp82
a(I97
I5
F-0.5
S'less'
p83
tp84
a(I105
I1
F-0.5
S'less'
p85
tp86
a(I135
I0
F1.0
S'good'
p87
tp88
as(S'purchase'
p89
tp90
(lp91
(I28
I5
F0.875
S'happy'
p92
tp93
a(I57
I0
F-0.875
S'worst'
p94
tp95
a(I66
I0
F0.875
S'happy'
p96
tp97
a(I89
I0
F0.5
S'satisfied'
p98
tp99
a(I108
I3
F0.5
S'satisfied'
p100
tp101
a(I128
I1
F-0.5
S'international'
p102
tp103
a(I160
I2
F1.0
S'good'
p104
tp105
a(I183
I0
F0.5
S'second'
p106
tp107
a(I196
I6
F-0.875
S'regret'
p108
tp109
as(S'year'
p110
tp111
(lp112
(I3
I3
I0
S'more'
p113
tp114
a(I162
I15
I0
S'later'
p115
tp116
as(S'a'
p117
S'data'
p118
S'plan'
p119
tp120
(lp121
(I73
I1
I0
S'faster'
p122
tp123
as(S'email'
p124
tp125
(lp126
(I96
I2
F-0.125
S'public'
p127
tp128
a(I103
I17
I0
S'pic'
p129
tp130
a(I103
I18
F0.625
S'positive'
p131
tp132
as(S'nice'
p133
tp134
(lp135
(I115
I1
F0.5
S'stylish'
p136
tp137
as(S'screen'
p138
tp139
(lp140
(I3
I4
F0.5
S'bold'
p141
tp142
a(I3
I4
F0.75
S'beautiful'
p143
tp144
a(I5
I11
F-0.25
S'white'
p145
tp146
a(I5
I15
F0.5
g45
tp147
a(I16
I0
I0
S'great'
p148
tp149
a(I16
I0
F0.5
S'touch'
p150
tp151
a(I58
I1
F0.5
g49
tp152
a(I58
I3
F0.25
S'larger'
p153
tp154
a(I72
I1
F0.5
S'touch'
p155
tp156
a(I74
I3
F-0.125
g57
tp157
a(I74
I3
F0.5
g59
tp158
a(I74
I7
F0.5
S'touch'
p159
tp160
a(I88
I0
F0.5
S'touch'
p161
tp162
a(I95
I0
I0
S'sensitive'
p163
tp164
a(I97
I4
F0.5
S'touch'
p165
tp166
a(I100
I4
F0.5
g63
tp167
a(I100
I5
F0.5
g65
tp168
a(I103
I20
F0.875
S'nice'
p169
tp170
a(I103
I20
F0.25
S'larger'
p171
tp172
a(I105
I2
F0.625
S'easy'
p173
tp174
a(I110
I7
F0.125
S'first'
p175
tp176
a(I111
I0
F0.875
g69
tp177
a(I111
I0
I0
g71
tp178
a(I120
I1
F0.625
S'easy'
p179
tp180
a(I120
I1
I0
S'sensitive'
p181
tp182
a(I134
I0
F1.0
g73
tp183
a(I139
I9
F-0.375
S'black'
p184
tp185
a(I150
I3
F-0.75
S'unresponsive'
p186
tp187
a(I162
I9
I0
S'great'
p188
tp189
a(I189
I2
I0
S'same'
p190
tp191
as(S'torch'
p192
tp193
(lp194
(I5
I8
F0.5
S'true'
p195
tp196
a(I5
I12
F-0.125
S'slow'
p197
tp198
a(I5
I13
I0
S'great'
p199
tp200
a(I58
I14
I0
S'many'
p201
tp202
a(I86
I0
F0.375
S'new'
p203
tp204
a(I112
I0
F0.5
S'bold'
p205
tp206
a(I123
I8
I0
S'third'
p207
tp208
a(I123
I14
I0
S'fourth'
p209
tp210
a(I123
I25
F0.25
S'refurbished'
p211
tp212
a(I123
I43
I0
S'nervous'
p213
tp214
a(I137
I1
F0.125
S'popular'
p215
tp216
a(I146
I0
F0.25
S'original'
p217
tp218
as(S'service'
p219
tp220
(lp221
(I4
I3
F-0.875
S'worst'
p222
tp223
a(I33
I6
I0
S'local'
p224
tp225
a(I118
I9
I0
S'great'
p226
tp227
a(I120
I9
F-0.75
S'unable'
p228
tp229
a(I130
I2
F0.5
S'technical'
p230
tp231
as(S'social'
p232
S'feeds'
p233
tp234
(lp235
(I11
I4
I0
S'social'
p236
tp237
a(I11
I5
I0
S'social'
p238
tp239
a(I74
I19
I0
S'social'
p240
tp241
as(S'problems'
p242
tp243
(lp244
(I5
I10
I0
S'same'
p245
tp246
a(I27
I1
I0
S'many'
p247
tp248
a(I173
I0
F-0.625
S'other'
p249
tp250
as(S'screen'
p251
S'keyboard'
p252
tp253
(lp254
(I5
I15
F0.5
g45
tp255
a(I11
I10
F1.0
g47
tp256
a(I58
I1
F0.5
g49
tp257
a(I58
I1
I0
g51
tp258
a(I72
I1
F0.5
g155
tp259
a(I73
I0
I0
g53
tp260
a(I73
I0
I0
g55
tp261
a(I74
I3
F-0.125
g57
tp262
a(I74
I3
F0.5
g59
tp263
a(I74
I3
I0
g61
tp264
a(I97
I4
F0.5
g165
tp265
a(I100
I4
F0.5
g63
tp266
a(I100
I5
F0.5
g65
tp267
a(I110
I6
F-0.375
g67
tp268
a(I111
I0
F0.875
g69
tp269
a(I111
I0
I0
g71
tp270
a(I134
I0
F1.0
g73
tp271
a(I139
I1
I0
S'touchscreen'
p272
tp273
a(I171
I5
F0.5
g75
tp274
as(S'back'
p275
tp276
(lp277
(I119
I0
F0.375
S'new'
p278
tp279
as(S'touch'
p280
tp281
(lp282
(I158
I0
F0.125
S'first'
p283
tp284
a(I162
I2
F0.125
S'first'
p285
tp286
a(I180
I2
I0
S'total'
p287
tp288
as(S'camera'
p289
tp290
(lp291
(I11
I3
F0.375
S'much'
p292
tp293
a(I50
I26
F-0.5
S'weak'
p294
tp295
a(I58
I4
F1.0
S'good'
p296
tp297
a(I103
I13
F1.0
S'good'
p298
tp299
a(I165
I0
F1.0
S'good'
p300
tp301
a(I178
I0
F1.0
S'good'
p302
tp303
a(I178
I0
F1.0
S'better'
p304
tp305
a(I189
I7
F1.0
S'good'
p306
tp307
as(S'life'
p308
tp309
(lp310
(I97
I5
F-0.5
g83
tp311
a(I105
I1
F-0.5
g85
tp312
a(I150
I3
F0.375
S'busy'
p313
tp314
as(S'qwerty'
p315
S'keyboard'
p316
tp317
(lp318
(I11
I10
F1.0
g47
tp319
a(I17
I0
I0
S'full'
p320
tp321
a(I22
I1
I0
S'great'
p322
tp323
a(I110
I6
F-0.375
g67
tp324
a(I139
I1
I0
S'full'
p325
tp326
a(I139
I1
I0
g272
tp327
a(I144
I3
F-0.125
S'super'
p328
tp329
a(I144
I3
F0.625
S'easy'
p330
tp331
a(I144
I3
F0.625
S'easy'
p332
tp333
a(I144
I3
I0
S'full'
p334
tp335
a(I166
I0
I0
S'full'
p336
tp337
a(I171
I5
F0.5
g75
tp338
as(S'n'
p339
S'venezuela'
p340
tp341
(lp342
(I174
I0
F1.0
S'good'
p343
tp344
as(g117
S'touch'
p345
S'screen'
p346
tp347
(lp348
(I5
I15
F0.5
g45
tp349
a(I16
I0
I0
g148
tp350
a(I16
I0
F0.5
g150
tp351
a(I58
I1
F0.5
g49
tp352
a(I72
I1
F0.5
g155
tp353
a(I74
I3
F-0.125
g57
tp354
a(I74
I3
F0.5
g59
tp355
a(I74
I7
F0.5
g159
tp356
a(I88
I0
F0.5
g161
tp357
a(I97
I4
F0.5
g165
tp358
a(I100
I4
F0.5
g63
tp359
a(I100
I5
F0.5
g65
tp360
a(I103
I20
F0.875
g169
tp361
a(I103
I20
F0.25
g171
tp362
a(I105
I2
F0.625
g173
tp363
a(I110
I7
F0.125
g175
tp364
a(I120
I1
F0.625
g179
tp365
a(I120
I1
I0
g181
tp366
a(I134
I0
F1.0
g73
tp367
a(I150
I3
F-0.75
g186
tp368
a(I158
I0
F0.125
g283
tp369
a(I162
I2
F0.125
g285
tp370
a(I180
I2
I0
g287
tp371
as(S'fine'
p372
tp373
(lp374
(I103
I5
I0
S'quick'
p375
tp376
as(S'product'
p377
tp378
(lp379
(I23
I0
F1.0
S'good'
p380
tp381
a(I39
I0
I0
S'great'
p382
tp383
a(I59
I2
F-0.625
S'bad'
p384
tp385
a(I61
I4
F0.375
S'new'
p386
tp387
a(I74
I0
I0
S'write'
p388
tp389
a(I96
I0
I0
S'great'
p390
tp391
a(I143
I0
F0.375
S'new'
p392
tp393
a(I174
I0
F0.375
S'new'
p394
tp395
as(S'features'
p396
tp397
(lp398
(I36
I2
F1.0
S'best'
p399
tp400
a(I39
I2
F1.0
S'good'
p401
tp402
a(I39
I2
F1.0
S'good'
p403
tp404
a(I39
I2
I0
S'android'
p405
tp406
a(I58
I1
I0
S'such'
p407
tp408
a(I58
I1
F1.0
S'best'
p409
tp410
as(S'things'
p411
tp412
(lp413
(I65
I1
F-0.625
S'other'
p414
tp415
a(I65
I1
F0.625
S'perfect'
p416
tp417
a(I110
I4
I0
S'few'
p418
tp419
a(I110
I9
F0.125
S'able'
p420
tp421
a(I120
I3
I0
S'many'
p422
tp423
a(I150
I1
F-0.75
S'wrong'
p424
tp425
as(S'keyboard'
p426
tp427
(lp428
(I11
I10
F1.0
g47
tp429
a(I58
I1
I0
g51
tp430
a(I73
I0
I0
g53
tp431
a(I73
I0
I0
g55
tp432
a(I74
I3
I0
g61
tp433
a(I106
I7
I0
S'physical'
p434
tp435
a(I110
I6
F-0.375
g67
tp436
a(I136
I3
F1.0
S'best'
p437
tp438
a(I139
I1
I0
g272
tp439
a(I139
I2
I0
S'full'
p440
tp441
a(I171
I5
F0.5
g75
tp442
as(S'full'
p443
S'qwerty'
p444
tp445
(lp446
(I17
I0
I0
g320
tp447
a(I139
I1
I0
g325
tp448
a(I144
I3
F-0.125
g328
tp449
a(I144
I3
F0.625
g330
tp450
a(I144
I3
F0.625
g332
tp451
a(I144
I3
I0
g334
tp452
a(I165
I0
I0
S'full'
p453
tp454
a(I166
I0
I0
g336
tp455
as(S'business'
p456
tp457
(lp458
(I0
I3
F1.0
S'good'
p459
tp460
a(I97
I7
I0
S'corporate'
p461
tp462
a(I119
I2
F-0.375
S'serious'
p463
tp464
a(I119
I2
F-0.375
S'serious'
p465
tp466
a(I134
I0
I0
S'great'
p467
tp468
as(S'everything'
p469
tp470
(lp471
(I115
I0
I0
S'more'
p472
tp473
a(I122
I0
F1.0
S'good'
p474
tp475
as(S'blackberry'
p476
S'torch'
p477
tp478
(lp479
(I5
I4
F0.375
S'new'
p480
tp481
a(I5
I8
F0.5
g195
tp482
a(I47
I2
F0.375
S'new'
p483
tp484
a(I86
I0
F0.375
g203
tp485
a(I86
I0
F-0.625
S'other'
p486
tp487
a(I106
I11
F0.375
S'available'
p488
tp489
a(I123
I8
I0
g207
tp490
a(I123
I43
I0
g213
tp491
a(I137
I1
F0.125
S'first'
p492
tp493
a(I137
I1
F0.125
g215
tp494
a(I146
I0
F0.25
g217
tp495
a(I146
I0
F0.25
S'original'
p496
tp497
a(I146
I0
F0.375
S'complete'
p498
tp499
a(I166
I0
F0.375
S'new'
p500
tp501
as(S'people'
p502
tp503
(lp504
(I74
I25
F0.875
S'happy'
p505
tp506
a(I116
I0
F-0.375
S'serious'
p507
tp508
a(I118
I1
I0
S'many'
p509
tp510
a(I123
I49
F-0.5
S'sure'
p511
tp512
a(I134
I0
I0
S'normal'
p513
tp514
a(I176
I2
I0
S'most'
p515
tp516
a(I176
I2
I0
S'android'
p517
tp518
as(S'qwerty'
p519
tp520
(lp521
(I17
I0
I0
g320
tp522
a(I22
I1
I0
g322
tp523
a(I139
I1
I0
g325
tp524
a(I144
I3
F-0.125
g328
tp525
a(I144
I3
F0.625
g330
tp526
a(I144
I3
F0.625
g332
tp527
a(I144
I3
I0
g334
tp528
a(I165
I0
I0
g453
tp529
a(I166
I0
I0
g336
tp530
as(S'seller'
p531
tp532
(lp533
(I63
I2
F-0.75
S'difficult'
p534
tp535
a(I98
I0
F1.0
S'good'
p536
tp537
a(I119
I2
F-0.625
S'other'
p538
tp539
as(S'works'
p540
tp541
(lp542
(I70
I0
I0
S'great'
p543
tp544
as(S'venezuela'
p545
tp546
(lp547
(I174
I0
F1.0
g343
tp548
as(S'full'
p549
S'refund'
p550
tp551
(lp552
(I58
I17
I0
S'full'
p553
tp554
a(I119
I3
I0
S'full'
p555
tp556
a(I185
I3
I0
S'full'
p557
tp558
as(S'battery'
p559
tp560
(lp561
(I5
I8
I0
g81
tp562
a(I5
I9
F1.0
S'good'
p563
tp564
a(I120
I6
F-0.625
S'fresh'
p565
tp566
a(I120
I7
F0.125
S'able'
p567
tp568
a(I134
I0
F-0.75
S'short'
p569
tp570
a(I135
I0
F1.0
g87
tp571
a(I153
I0
F-0.75
S'damaged'
p572
tp573
a(I156
I1
F-0.75
S'dead'
p574
tp575
a(I182
I1
I0
S'wish'
p576
tp577
as(S'cell'
p578
tp579
(lp580
(I118
I1
F0.625
S'major'
p581
tp582
a(I127
I0
F-0.625
S'bad'
p583
tp584
as(S'thing'
p585
tp586
(lp587
(I85
I0
I0
S'next'
p588
tp589
a(I85
I0
F1.0
S'best'
p590
tp591
a(I107
I3
I0
S'only'
p592
tp593
a(I107
I3
F0.625
S'positive'
p594
tp595
a(I119
I0
I0
S'very'
p596
tp597
a(I119
I0
F0.125
S'first'
p598
tp599
a(I144
I4
F-0.625
S'bad'
p600
tp601
as(S'sim'
p602
S'card'
p603
tp604
(lp605
(I58
I8
F-0.125
S'foreign'
p606
tp607
a(I77
I1
I0
S'different'
p608
tp609
as(S'working'
p610
tp611
(lp612
(I180
I5
F1.0
S'good'
p613
tp614
as(S'call'
p615
tp616
(lp617
(I110
I5
F0.125
S'first'
p618
tp619
as(S'blackberry'
p620
tp621
(lp622
(I5
I4
F0.375
g480
tp623
a(I11
I0
F1.0
S'best'
p624
tp625
a(I15
I0
F0.125
S'first'
p626
tp627
a(I39
I2
I0
S'many'
p628
tp629
a(I42
I0
F1.0
S'best'
p630
tp631
a(I47
I2
F0.375
g483
tp632
a(I58
I1
I0
S'traditional'
p633
tp634
a(I58
I3
I0
S'traditional'
p635
tp636
a(I58
I5
I0
S'traditional'
p637
tp638
a(I62
I0
F1.0
S'best'
p639
tp640
a(I72
I1
F-0.625
S'glad'
p641
tp642
a(I85
I0
F0.125
S'first'
p643
tp644
a(I86
I0
F-0.625
g486
tp645
a(I106
I3
F0.25
S'recent'
p646
tp647
a(I106
I11
F0.375
g488
tp648
a(I137
I1
F0.125
g492
tp649
a(I144
I2
F0.125
S'first'
p650
tp651
a(I146
I0
F0.25
g496
tp652
a(I146
I0
F0.375
g498
tp653
a(I158
I0
F0.5
S'second'
p654
tp655
a(I160
I1
F-0.375
S'robust'
p656
tp657
a(I160
I1
F0.125
S'practical'
p658
tp659
a(I162
I2
F0.125
S'first'
p660
tp661
a(I166
I0
F0.375
g500
tp662
a(I170
I2
F1.0
S'best'
p663
tp664
a(I181
I1
F1.0
S'good'
p665
tp666
a(I189
I1
I0
S'traditional'
p667
tp668
as(S'time'
p669
tp670
(lp671
(I5
I10
I0
S'same'
p672
tp673
a(I40
I2
F-0.75
S'short'
p674
tp675
a(I50
I3
F0.125
S'last'
p676
tp677
a(I54
I0
F-0.75
S'wrong'
p678
tp679
a(I58
I6
F-0.75
S'little'
p680
tp681
a(I59
I2
F0.125
S'first'
p682
tp683
a(I59
I2
F0.125
S'first'
p684
tp685
a(I115
I4
F-0.5
S'long'
p686
tp687
a(I121
I1
F0.875
S'agree'
p688
tp689
a(I137
I5
F0.125
S'first'
p690
tp691
a(I150
I4
F0.125
S'last'
p692
tp693
a(I186
I4
F-0.875
S'hard'
p694
tp695
as(S'international'
p696
S'version'
p697
tp698
(lp699
(I58
I8
F-0.5
S'international'
p700
tp701
a(I147
I1
F-0.5
S'international'
p702
tp703
a(I147
I2
F-0.5
S'international'
p704
tp705
a(I166
I0
F-0.5
S'international'
p706
tp707
as(S'smartphone'
p708
tp709
(lp710
(I14
I0
F0.25
S'unlocked'
p711
tp712
a(I46
I0
F0.875
S'nice'
p713
tp714
a(I110
I1
F0.125
S'first'
p715
tp716
a(I110
I1
I0
S'real'
p717
tp718
a(I121
I1
F1.0
S'best'
p719
tp720
a(I123
I2
F0.5
S'second'
p721
tp722
a(I123
I48
F-0.625
S'other'
p723
tp724
a(I123
I53
F1.0
S'best'
p725
tp726
as(S'condition'
p727
tp728
(lp729
(I9
I1
F1.0
S'good'
p730
tp731
a(I19
I0
F1.0
S'good'
p732
tp733
a(I185
I0
F1.0
S'good'
p734
tp735
as(S'data'
p736
S'plan'
p737
tp738
(lp739
(I73
I1
I0
g122
tp740
as(S'customer'
p741
S'service'
p742
tp743
(lp744
(I25
I5
F-0.125
S'blackberry'
p745
tp746
as(S'work'
p747
tp748
(lp749
(I123
I54
F-0.625
S'other'
p750
tp751
as(S'100'
p752
S'%'
p753
tp754
(lp755
(I148
I0
F0.375
S'new'
p756
tp757
a(I148
I0
F0.125
S'sealed'
p758
tp759
as(S'apps'
p760
tp761
(lp762
(I11
I7
I0
S'few'
p763
tp764
a(I11
I7
F1.0
S'good'
p765
tp766
a(I11
I7
F-0.625
S'free'
p767
tp768
a(I28
I3
F0.625
S'easy'
p769
tp770
a(I103
I10
F0.125
S'popular'
p771
tp772
a(I106
I11
I0
S'such'
p773
tp774
a(I112
I4
I0
S'many'
p775
tp776
a(I112
I4
F0.375
S'available'
p777
tp778
a(I112
I4
F0.5
S'bold'
p779
tp780
a(I123
I50
I0
S'many'
p781
tp782
a(I123
I50
I0
S'more'
p783
tp784
a(I129
I1
F0.375
S'available'
p785
tp786
a(I137
I4
F0.375
S'available'
p787
tp788
as(S'days'
p789
tp790
(lp791
(I7
I0
I0
S'few'
p792
tp793
a(I27
I7
I0
S'old'
p794
tp795
a(I123
I4
I0
S'later'
p796
tp797
a(I123
I9
I0
S'next'
p798
tp799
a(I150
I0
F0.125
S'first'
p800
tp801
as(S'touch'
p802
S'screen'
p803
tp804
(lp805
(I5
I15
F0.5
g45
tp806
a(I16
I0
I0
g148
tp807
a(I16
I0
F0.5
g150
tp808
a(I58
I1
F0.5
g49
tp809
a(I72
I1
F0.5
g155
tp810
a(I74
I3
F-0.125
g57
tp811
a(I74
I3
F0.5
g59
tp812
a(I74
I7
F0.5
g159
tp813
a(I88
I0
F0.5
g161
tp814
a(I97
I4
F0.5
g165
tp815
a(I100
I4
F0.5
g63
tp816
a(I100
I5
F0.5
g65
tp817
a(I103
I20
F0.875
g169
tp818
a(I103
I20
F0.25
g171
tp819
a(I105
I2
F0.625
g173
tp820
a(I110
I7
F0.125
g175
tp821
a(I120
I1
F0.625
g179
tp822
a(I120
I1
I0
g181
tp823
a(I134
I0
F1.0
g73
tp824
a(I150
I3
F-0.75
g186
tp825
a(I158
I0
F0.125
g283
tp826
a(I162
I2
F0.125
g285
tp827
a(I180
I2
I0
g287
tp828
as(S'screen'
p829
S'lock'
p830
tp831
(lp832
(I134
I0
F1.0
g73
tp833
as(S'full'
p834
S'qwerty'
p835
S'keyboard'
p836
tp837
(lp838
(I17
I0
I0
g320
tp839
a(I139
I1
I0
g325
tp840
a(I139
I1
I0
g272
tp841
a(I144
I3
F-0.125
g328
tp842
a(I144
I3
F0.625
g330
tp843
a(I144
I3
F0.625
g332
tp844
a(I144
I3
I0
g334
tp845
a(I166
I0
I0
g336
tp846
as.