(dp0
(S'operating'
p1
S'system'
p2
tp3
(lp4
(I14
I61
F0.25
S'recent'
p5
I2
tp6
as(S'android'
p7
tp8
(lp9
(I0
I5
F-0.125
S'slow'
p10
I0
tp11
a(I4
I67
I0
S'old'
p12
I0
tp13
a(I5
I3
I0
S'closer'
p14
I0
tp15
a(I5
I10
F-0.125
S'minimum'
p16
I0
tp17
a(I14
I33
I0
S'older'
p18
I0
tp19
a(I14
I84
F0.25
S'familiar'
p20
I0
tp21
a(I14
I84
F-0.625
S'want'
p22
I0
tp23
as(S'battery'
p24
S'life'
p25
tp26
(lp27
(I0
I8
F-0.5
S'poor'
p28
I1
tp29
a(I5
I6
F0.375
S'extended'
p30
I1
tp31
a(I6
I5
F1.0
S'best'
p32
I1
tp33
a(I14
I9
F0.625
S'decent'
p34
I1
tp35
a(I4
I46
I0
S'full'
p36
I15
tp37
a(I5
I7
I0
S'least'
p38
I15
tp39
a(I14
I58
F0.5
S'second'
p40
I15
tp41
as(S'service'
p42
tp43
(lp44
(I0
I12
F0.5
S'whole'
p45
I16
tp46
a(I0
I12
F0.375
S'new'
p47
I16
tp48
a(I4
I49
F1.0
S'best'
p49
I16
tp50
a(I14
I66
F0.875
S'music'
p51
I16
tp52
a(I14
I68
F0.875
S'music'
p53
I16
tp54
a(I14
I69
F0.875
S'music'
p55
I16
tp56
as(S'apps'
p57
tp58
(lp59
(I1
I21
I0
S'such'
p60
I0
tp61
a(I6
I6
I0
S'unnecessary'
p62
I0
tp63
as(S'sd'
p64
S'card'
p65
tp66
(lp67
(I2
I0
F0.875
S'important'
p68
I0
tp69
as(S'camera'
p70
tp71
(lp72
(I1
I38
F1.0
S'good'
p73
I1
tp74
a(I2
I12
F0.5
S'comparable'
p75
I1
tp76
a(I6
I43
F0.25
S'main'
p77
I1
tp78
a(I14
I87
F0.5
S'so-so'
p79
I1
tp80
as(S'os'
p81
S'version'
p82
tp83
(lp84
(I4
I8
F1.0
S'good'
p85
I0
tp86
as(S'music'
p87
tp88
(lp89
(I14
I75
F-0.625
S'other'
p90
I0
tp91
a(I14
I79
F0.375
S'much'
p92
I0
tp93
as.