(dp0
(S'text'
p1
S'message'
p2
tp3
(lp4
(I14
I2
F-0.125
S'slow'
p5
I0
tp6
as(S'android'
p7
tp8
(lp9
(I13
I32
F-0.625
S'free'
p10
I0
tp11
a(I24
I0
F0.25
S'recent'
p12
I0
tp13
as(S'full'
p14
S'bars'
p15
tp16
(lp17
(I3
I5
I0
S'full'
p18
I0
tp19
a(I3
I6
I0
S'full'
p20
I0
tp21
a(I22
I30
I0
S'full'
p22
I0
tp23
as(S'battery'
p24
S'life'
p25
tp26
(lp27
(I5
I1
F-0.5
S'poor'
p28
I1
tp29
a(I7
I11
F-0.25
S'low'
p30
I1
tp31
a(I10
I3
F1.0
S'good'
p32
I1
tp33
a(I13
I38
F0.5
S'second'
p34
I1
tp35
a(I13
I39
F-0.25
S'low'
p36
I1
tp37
a(I14
I1
F0.125
S'last'
p38
I1
tp39
a(I19
I2
F-0.625
S'average'
p40
I1
tp41
a(I21
I17
I0
S'only'
p42
I1
tp43
a(I21
I17
F-0.875
S'negative'
p44
I1
tp45
a(I21
I17
F-0.75
S'short'
p46
I1
tp47
a(I5
I1
F-0.5
g28
I19
tp48
a(I10
I3
F1.0
g32
I19
tp49
a(I13
I39
F-0.25
g36
I19
tp50
a(I14
I1
F0.125
g38
I19
tp51
a(I19
I2
F-0.625
g40
I19
tp52
a(I7
I11
F-0.25
g30
I15
tp53
a(I11
I18
F0.125
S'last'
p54
I15
tp55
a(I12
I34
F-0.75
S'short'
p56
I15
tp57
a(I13
I38
F0.5
g34
I15
tp58
a(I21
I17
I0
g42
I15
tp59
a(I21
I17
F-0.875
g44
I15
tp60
a(I21
I17
F-0.75
g46
I15
tp61
a(I22
I0
F1.0
S'good'
p62
I15
tp63
a(I22
I0
I0
S'screen'
p64
I15
tp65
a(I22
I0
F1.0
S'good'
p66
I15
tp67
a(I22
I2
F0.625
S'easy'
p68
I15
tp69
as(S'aria'
p70
tp71
(lp72
(I5
I6
I0
S'android'
p73
I2
tp74
as(S'faulty'
p75
S'unit'
p76
tp77
(lp78
(I13
I76
F-0.375
S'unacceptable'
p79
I0
tp80
as(S'apps'
p81
tp82
(lp83
(I6
I16
F-0.125
S'slow'
p84
I0
tp85
a(I7
I11
F0.125
S'conservative'
p86
I0
tp87
a(I14
I10
F1.0
S'good'
p88
I0
tp89
a(I23
I0
I0
S'more'
p90
I0
tp91
as(S'internal'
p92
S'memory'
p93
tp94
(lp95
(I10
I6
I0
S'internal'
p96
I0
tp97
a(I10
I6
F-0.375
S'small'
p98
I0
tp99
a(I22
I9
I0
S'internal'
p100
I0
tp101
a(I22
I12
I0
S'internal'
p102
I0
tp103
a(I8
I20
I0
S'full'
p104
I5
tp105
a(I8
I22
F-0.25
S'low'
p106
I5
tp107
a(I10
I6
I0
g96
I5
tp108
a(I10
I6
F-0.375
g98
I5
tp109
a(I22
I9
I0
g100
I5
tp110
a(I22
I12
I0
g102
I5
tp111
a(I22
I29
I0
S'great'
p112
I5
tp113
a(I23
I0
I0
S'full'
p114
I5
tp115
a(I23
I0
F-0.75
S'short'
p116
I5
tp117
as(S'sd'
p118
S'card'
p119
tp120
(lp121
(I8
I21
F0.5
S'possible'
p122
I0
tp123
a(I22
I12
I0
S'add-on'
p124
I0
tp125
as(S'touch'
p126
S'screen'
p127
tp128
(lp129
(I5
I3
F0.5
S'touch'
p130
I2
tp131
a(I5
I3
F0.625
S'easy'
p132
I2
tp133
a(I12
I24
F0.5
S'touch'
p134
I2
tp135
a(I22
I8
F0.5
S'touch'
p136
I2
tp137
as.