(dp0
(S'qwerty'
p1
S'keyboard'
p2
tp3
(lp4
(I7
I17
I0
S'full'
p5
I0
tp6
a(I10
I29
I0
S'full'
p7
I0
tp8
a(I1
I19
I0
S'internet'
p9
I2
tp10
a(I5
I0
I-100
S'backlightinbox/sent'
p11
I2
tp12
a(I5
I0
I0
S'full'
p13
I2
tp14
as(S'memory'
p15
S'card'
p16
tp17
(lp18
(I1
I8
F0.125
S'charger'
p19
I0
tp20
a(I7
I89
I0
S'pic'
p21
I0
tp22
a(I1
I8
F0.125
g19
I5
tp23
a(I7
I89
I0
g21
I5
tp24
as(S'battery'
p25
S'life'
p26
tp27
(lp28
(I4
I13
F-0.625
S'bad'
p29
I1
tp30
a(I4
I15
F-0.625
S'bad'
p31
I1
tp32
a(I10
I46
F-0.5
S'longer'
p33
I1
tp34
a(I25
I4
F1.0
S'better'
p35
I1
tp36
a(I4
I13
F-0.625
g29
I15
tp37
a(I4
I15
F-0.625
g31
I15
tp38
a(I7
I32
F-0.25
S'low'
p39
I15
tp40
a(I10
I46
F-0.5
g33
I15
tp41
as(S'data'
p42
tp43
(lp44
(I17
I6
F-0.375
S'simple'
p45
I13
tp46
a(I17
I6
I0
S'mobile'
p47
I13
tp48
as(S'sim'
p49
S'card'
p50
tp51
(lp52
(I7
I55
I0
S'few'
p53
I0
tp54
a(I10
I85
F-0.5
S'sure'
p55
I0
tp56
as(S'texting'
p57
tp58
(lp59
(I24
I0
F1.0
S'good'
p60
I0
tp61
as(S'micro'
p62
S'sd'
p63
S'card'
p64
tp65
(lp66
(I0
I3
F-0.5
S'separate'
p67
I0
tp68
a(I3
I7
I0
S'same'
p69
I0
tp70
a(I25
I3
F0.25
S'larger'
p71
I0
tp72
a(I25
I3
F-0.25
S'ready'
p73
I0
tp74
a(I0
I3
F-0.5
g67
I0
tp75
a(I25
I3
F0.25
g71
I0
tp76
a(I25
I3
F-0.25
g73
I0
tp77
a(I3
I7
I0
g69
I0
tp78
as(S'text'
p79
tp80
(lp81
(I3
I6
F0.875
S'music'
p82
I18
tp83
a(I19
I21
F0.75
S'receive'
p84
I18
tp85
as(S'side'
p86
S'kick'
p87
tp88
(lp89
(I24
I0
F0.375
S'newest'
p90
I0
tp91
as(S'sidekick'
p92
tp93
(lp94
(I4
I5
F0.25
S'original'
p95
I0
tp96
as(S'messages'
p97
tp98
(lp99
(I7
I25
I0
S'total'
p100
I1
tp101
a(I7
I56
F0.375
S'much'
p102
I1
tp103
a(I14
I44
I0
S'pic'
p104
I1
tp105
as(S'contacts'
p106
tp107
(lp108
(I1
I13
F-0.5
S'sure'
p109
I0
tp110
a(I7
I38
I0
S'funny'
p111
I0
tp112
a(I7
I38
I0
S'individual'
p113
I0
tp114
a(I7
I55
F0.375
S'new'
p115
I0
tp116
a(I9
I10
F0.5
S'primary'
p117
I0
tp118
a(I10
I1
I0
S'own'
p119
I0
tp120
a(I10
I1
F-0.125
S'delete'
p121
I0
tp122
a(I10
I1
F-0.125
S'delete'
p123
I0
tp124
as(S'internet'
p125
tp126
(lp127
(I21
I6
F0.125
S'provide'
p128
I6
tp129
as.