(dp0
(S'memory'
p1
S'card'
p2
tp3
(lp4
(I4
I8
I0
S'internal'
p5
I0
tp6
a(I4
I8
I0
S'internal'
p7
I0
tp8
a(I10
I50
I0
S'full'
p9
I0
tp10
a(I15
I12
F-0.25
S'low'
p11
I0
tp12
a(I15
I12
I0
S'internal'
p13
I0
tp14
a(I28
I16
I0
S'internal'
p15
I0
tp16
a(I53
I9
I0
S'internal'
p17
I0
tp18
a(I53
I9
I0
S'full'
p19
I0
tp20
a(I2
I0
I0
S'internal'
p21
I5
tp22
a(I4
I5
I0
S'internal'
p23
I5
tp24
a(I4
I7
I0
S'internal'
p25
I5
tp26
a(I4
I8
I0
g5
I5
tp27
a(I4
I8
I0
g7
I5
tp28
a(I10
I50
I0
g9
I5
tp29
a(I12
I0
I0
S'more'
p30
I5
tp31
a(I12
I0
I0
S'internal'
p32
I5
tp33
a(I15
I12
F-0.25
g11
I5
tp34
a(I15
I12
I0
g13
I5
tp35
a(I20
I2
I0
S'internal'
p36
I5
tp37
a(I20
I2
I0
S'full'
p38
I5
tp39
a(I20
I3
I0
S'more'
p40
I5
tp41
a(I20
I3
I0
S'internal'
p42
I5
tp43
a(I24
I33
I0
S'internal'
p44
I5
tp45
a(I28
I12
I0
S'internal'
p46
I5
tp47
a(I28
I16
I0
g15
I5
tp48
a(I39
I14
F0.25
S'helpful'
p49
I5
tp50
a(I41
I18
I0
S'internal'
p51
I5
tp52
a(I53
I7
I0
S'internal'
p53
I5
tp54
a(I53
I9
I0
g17
I5
tp55
a(I53
I9
I0
g19
I5
tp56
a(I60
I6
I0
S'internal'
p57
I5
tp58
a(I60
I6
F0.625
S'easy'
p59
I5
tp60
as(S'battery'
p61
S'life'
p62
tp63
(lp64
(I10
I1
F-0.625
S'average'
p65
I1
tp66
a(I19
I8
F-0.5
S'less'
p67
I1
tp68
a(I20
I4
F1.0
S'better'
p69
I1
tp70
a(I20
I4
F-0.5
S'less'
p71
I1
tp72
a(I24
I38
F-0.5
S'long'
p73
I1
tp74
a(I24
I38
F0.5
S'clear'
p75
I1
tp76
a(I40
I2
F-0.25
S'low'
p77
I1
tp78
a(I58
I5
I0
S'great'
p79
I1
tp80
a(I10
I1
F-0.625
g65
I19
tp81
a(I20
I4
F1.0
g69
I19
tp82
a(I24
I38
F0.5
g75
I19
tp83
a(I58
I5
I0
g79
I19
tp84
a(I10
I27
F-0.25
S'low'
p85
I15
tp86
a(I19
I8
F-0.5
g67
I15
tp87
a(I20
I4
F-0.5
g71
I15
tp88
a(I21
I4
F0.25
S'read'
p89
I15
tp90
a(I24
I24
I0
S'full'
p91
I15
tp92
a(I24
I24
I0
S'charged'
p93
I15
tp94
a(I24
I26
F-0.75
S'dead'
p95
I15
tp96
a(I24
I38
F-0.5
g73
I15
tp97
a(I40
I2
F-0.25
g77
I15
tp98
a(I47
I36
F0.125
S'last'
p99
I15
tp100
a(I47
I40
F-0.5
S'long'
p101
I15
tp102
as(S'cellphone'
p103
tp104
(lp105
(I7
I15
F-1.0
S'disrespect'
p106
I0
tp107
a(I24
I35
F1.0
S'good'
p108
I0
tp109
a(I36
I0
I0
S'economic'
p110
I0
tp111
as(S'thanks'
p112
tp113
(lp114
(I14
I0
F0.75
S'worth'
p115
I12
tp116
a(I29
I2
F0.375
S'honest'
p117
I12
tp118
as(S'samsung'
p119
tp120
(lp121
(I4
I15
F0.5
S'technical'
p122
I7
tp123
a(I4
I16
I0
S'next'
p124
I7
tp125
as(S'camera'
p126
tp127
(lp128
(I7
I5
I0
S'great'
p129
I1
tp130
a(I47
I41
I0
S'great'
p131
I1
tp132
a(I50
I5
I0
S'many'
p133
I1
tp134
a(I58
I6
F1.0
S'good'
p135
I1
tp136
as(S'operating'
p137
S'system'
p138
tp139
(lp140
(I0
I12
F1.0
S'best'
p141
I2
tp142
a(I51
I8
I0
S'latest'
p143
I2
tp144
as(S'android'
p145
tp146
(lp147
(I39
I8
I0
S'latest'
p148
I0
tp149
as(S'venezuela'
p150
tp151
(lp152
(I18
I0
I0
S'most'
p153
I0
tp154
as(S'smart'
p155
tp156
(lp157
(I2
I9
I0
S'normal'
p158
I10
tp159
a(I10
I14
F0.5
S'second'
p160
I10
tp161
a(I32
I1
F0.125
S'first'
p162
I10
tp163
a(I33
I10
I0
S'android'
p164
I10
tp165
as(S'international'
p166
S'version'
p167
tp168
(lp169
(I4
I0
F-0.5
S'international'
p170
I0
tp171
a(I4
I1
F-0.5
S'international'
p172
I0
tp173
a(I4
I3
F-0.5
S'international'
p174
I0
tp175
a(I4
I3
F1.0
S'best'
p176
I0
tp177
a(I4
I3
F-0.5
S'international'
p178
I0
tp179
as(S'smartphone'
p180
tp181
(lp182
(I50
I15
I0
S'signal'
p183
I0
tp184
as(S'customer'
p185
S'service'
p186
tp187
(lp188
(I15
I7
F-0.5
S'poor'
p189
I3
tp190
a(I15
I7
F-0.5
g189
I16
tp191
a(I19
I35
F1.0
S'good'
p192
I16
tp193
as(S'apps'
p194
tp195
(lp196
(I4
I6
F-0.375
S'small'
p197
I0
tp198
a(I4
I8
I0
S'most'
p199
I0
tp200
a(I10
I18
I0
S'more'
p201
I0
tp202
a(I10
I50
I0
S'few'
p203
I0
tp204
a(I17
I3
F0.625
S'easy'
p205
I0
tp206
a(I24
I34
I0
S'few'
p207
I0
tp208
a(I24
I35
I0
S'many'
p209
I0
tp210
a(I33
I13
F-0.625
S'free'
p211
I0
tp212
a(I41
I5
F1.0
S'good'
p213
I0
tp214
a(I41
I5
F0.625
S'easy'
p215
I0
tp216
a(I51
I2
I0
S'critical'
p217
I0
tp218
a(I53
I11
I0
S'many'
p219
I0
tp220
a(I61
I5
F-0.75
S'difficult'
p221
I0
tp222
a(I61
I5
F0.125
S'first'
p223
I0
tp224
as(S'internal'
p225
S'memory'
p226
tp227
(lp228
(I2
I0
I0
g21
I0
tp229
a(I4
I5
I0
g23
I0
tp230
a(I4
I7
I0
g25
I0
tp231
a(I4
I8
I0
g5
I0
tp232
a(I4
I8
I0
g7
I0
tp233
a(I12
I0
I0
g30
I0
tp234
a(I12
I0
I0
g32
I0
tp235
a(I15
I12
F-0.25
g11
I0
tp236
a(I15
I12
I0
g13
I0
tp237
a(I20
I2
I0
g36
I0
tp238
a(I20
I2
I0
g38
I0
tp239
a(I20
I3
I0
g40
I0
tp240
a(I20
I3
I0
g42
I0
tp241
a(I24
I33
I0
g44
I0
tp242
a(I28
I12
I0
g46
I0
tp243
a(I28
I16
I0
g15
I0
tp244
a(I41
I18
I0
g51
I0
tp245
a(I53
I7
I0
g53
I0
tp246
a(I53
I9
I0
g17
I0
tp247
a(I53
I9
I0
g19
I0
tp248
a(I60
I6
I0
g57
I0
tp249
a(I60
I6
F0.625
g59
I0
tp250
as(S'touch'
p251
S'screen'
p252
tp253
(lp254
(I15
I16
F-0.125
S'complex'
p255
I2
tp256
a(I47
I1
I0
S'internet'
p257
I2
tp258
a(I47
I1
F0.5
S'touch'
p259
I2
tp260
a(I56
I0
F1.0
S'good'
p261
I2
tp262
as(S'taking'
p263
S'pictures'
p264
tp265
(lp266
(I14
I4
F0.5
S'clear'
p267
I0
tp268
as(S'galaxy'
p269
S'ace'
p270
tp271
(lp272
(I36
I5
F0.375
S'new'
p273
I0
tp274
a(I36
I5
F0.375
g273
I0
tp275
as.