(dp0
(S'flip'
p1
tp2
(lp3
(I3
I19
I0
S'old'
p4
I4
tp5
a(I3
I19
F1.0
S'best'
p6
I4
tp7
a(I9
I51
F0.125
S'rugged'
p8
I4
tp9
as(S'battery'
p10
tp11
(lp12
(I0
I5
F0.375
S'new'
p13
I15
tp14
a(I0
I17
F-0.625
S'bad'
p15
I15
tp16
a(I0
I17
F-0.625
S'bad'
p17
I15
tp18
a(I4
I10
F-0.75
S'dead'
p19
I15
tp20
a(I4
I13
F-0.625
S'bad'
p21
I15
tp22
a(I7
I7
F-0.75
S'dead'
p23
I15
tp24
a(I9
I51
F-0.5
S'flimsy'
p25
I15
tp26
as(S'motorola'
p27
tp28
(lp29
(I0
I5
F0.375
S'new'
p30
I0
tp31
a(I7
I32
F-0.375
S'manual'
p32
I0
tp33
a(I9
I47
F0.625
S'partial'
p34
I0
tp35
as(S'smart'
p36
tp37
(lp38
(I0
I8
F0.375
S'new'
p39
I10
tp40
a(I7
I6
F0.375
S'new'
p41
I10
tp42
as(S'verizon'
p43
tp44
(lp45
(I0
I17
F-0.25
S'battery'
p46
I0
tp47
a(I0
I17
F-0.625
S'bad'
p48
I0
tp49
as.