(dp0
(S'home'
p1
S'button'
p2
tp3
(lp4
(I73
I0
F-0.125
S'mine'
p5
tp6
as(S'apple'
p7
S'store'
p8
tp9
(lp10
(I140
I2
I0
S'local'
p11
tp12
as(S'thanks'
p13
tp14
(lp15
(I40
I0
I0
S'great'
p16
tp17
as(S'purchase'
p18
tp19
(lp20
(I72
I0
F0.375
S'new'
p21
tp22
a(I79
I2
I0
S'great'
p23
tp24
a(I124
I0
F-0.875
S'worst'
p25
tp26
a(I140
I5
F-0.875
S'unhappy'
p27
tp28
a(I151
I1
F0.375
S'similar'
p29
tp30
as(S'a'
p31
S'great'
p32
S'deal'
p33
tp34
(lp35
(I61
I1
I0
S'great'
p36
tp37
a(I82
I1
I0
S'great'
p38
tp39
a(I91
I0
I0
S'great'
p40
tp41
a(I91
I2
I0
S'great'
p42
tp43
a(I97
I2
I0
S'great'
p44
tp45
a(I104
I0
I0
S'great'
p46
tp47
as(S'brand'
p48
tp49
(lp50
(I16
I1
F0.375
S'new'
p51
tp52
a(I19
I0
F0.375
S'new'
p53
tp54
a(I50
I0
F0.375
S'new'
p55
tp56
a(I88
I1
F0.375
S'new'
p57
tp58
a(I100
I1
F0.375
S'new'
p59
tp60
a(I110
I0
F0.375
S'new'
p61
tp62
a(I127
I1
F0.375
S'new'
p63
tp64
a(I127
I1
F0.625
S'perfect'
p65
tp66
as(S'service'
p67
tp68
(lp69
(I35
I2
F-0.125
S'mine'
p70
tp71
as(S'everything'
p72
tp73
(lp74
(I20
I0
I0
S'earlier'
p75
tp76
a(I94
I2
F-0.125
S'slow'
p77
tp78
a(I100
I0
F-0.5
S'sure'
p79
tp80
a(I126
I1
F0.125
S'amazon'
p81
tp82
a(I134
I0
F1.0
S'best'
p83
tp84
a(I151
I0
I0
S'earlier'
p85
tp86
as(S'problems'
p87
tp88
(lp89
(I3
I2
I0
S'most'
p90
tp91
a(I9
I0
I0
S'internal'
p92
tp93
a(I35
I3
I0
S'great'
p94
tp95
a(I47
I0
I0
S'unnecessary'
p96
tp97
as(S'great'
p98
S'deal'
p99
tp100
(lp101
(I61
I1
I0
g36
tp102
a(I82
I1
I0
g38
tp103
a(I91
I0
I0
g40
tp104
a(I91
I2
I0
g42
tp105
a(I97
I2
I0
g44
tp106
a(I104
I0
I0
g46
tp107
as(S'product'
p108
tp109
(lp110
(I67
I2
F1.0
S'good'
p111
tp112
a(I78
I0
I0
S'great'
p113
tp114
a(I146
I0
F1.0
S'good'
p115
tp116
as(S'return'
p117
tp118
(lp119
(I63
I0
F-0.5
S'actual'
p120
tp121
as(S'apple'
p122
tp123
(lp124
(I3
I0
F0.125
S'first'
p125
tp126
a(I3
I7
F0.375
S'much'
p127
tp128
a(I54
I1
F0.5
S'personal'
p129
tp130
a(I77
I1
I0
S'apple'
p131
tp132
a(I93
I0
F1.0
S'better'
p133
tp134
a(I113
I3
F0.25
S'original'
p135
tp136
a(I140
I2
I0
g11
tp137
as(S'verizon'
p138
tp139
(lp140
(I99
I2
I0
S'only'
p141
tp142
as(S'screen'
p143
tp144
(lp145
(I6
I0
F0.625
S'easy'
p146
tp147
a(I6
I0
F0.625
S'easy'
p148
tp149
a(I7
I0
F-0.625
S'green'
p150
tp151
a(I93
I1
I0
S'great'
p152
tp153
a(I93
I1
I0
S'real'
p154
tp155
a(I93
I1
F-0.875
S'negative'
p156
tp157
a(I138
I0
F-0.375
S'black'
p158
tp159
a(I146
I0
I0
S'big'
p160
tp161
a(I146
I0
F0.5
S'touch'
p162
tp163
as(S'work'
p164
tp165
(lp166
(I100
I4
I0
S'great'
p167
tp168
as(S'seller'
p169
tp170
(lp171
(I36
I0
I0
S'great'
p172
tp173
a(I41
I9
I0
S'great'
p174
tp175
as(S'plan'
p176
tp177
(lp178
(I3
I16
F0.625
S'necessary'
p179
tp180
a(I158
I0
F0.125
S'renewal'
p181
tp182
as(S'works'
p183
tp184
(lp185
(I11
I0
I0
S'great'
p186
tp187
a(I12
I0
F0.375
S'new'
p188
tp189
a(I12
I0
I0
S'great'
p190
tp191
a(I36
I0
I0
S'great'
p192
tp193
a(I61
I2
I0
S'great'
p194
tp195
a(I110
I0
I0
S'great'
p196
tp197
a(I143
I1
I0
S'great'
p198
tp199
as(S'good'
p200
S'condition'
p201
tp202
(lp203
(I2
I3
F1.0
S'good'
p204
tp205
a(I2
I4
F1.0
S'good'
p206
tp207
a(I18
I0
F1.0
S'good'
p208
tp209
a(I55
I0
F1.0
S'good'
p210
tp211
a(I62
I0
F1.0
S'good'
p212
tp213
a(I64
I0
F1.0
S'good'
p214
tp215
a(I149
I0
F1.0
S'good'
p216
tp217
as(S'sim'
p218
S'card'
p219
tp220
(lp221
(I137
I4
F-0.125
S'overall'
p222
tp223
as(S'device'
p224
tp225
(lp226
(I3
I0
I0
S'adequate'
p227
tp228
as(S'data'
p229
tp230
(lp231
(I3
I10
F-0.375
S'avoid'
p232
tp233
as(S'time'
p234
tp235
(lp236
(I96
I0
F-0.5
S'long'
p237
tp238
as(S'price'
p239
tp240
(lp241
(I26
I1
F1.0
S'good'
p242
tp243
a(I35
I1
I0
S'full'
p244
tp245
a(I57
I1
F0.375
S'similar'
p246
tp247
a(I57
I1
F1.0
S'better'
p248
tp249
a(I67
I2
F1.0
S'good'
p250
tp251
a(I83
I0
I0
S'great'
p252
tp253
a(I97
I1
I0
S'great'
p254
tp255
a(I126
I0
F0.75
S'worth'
p256
tp257
a(I132
I0
I0
S'great'
p258
tp259
a(I144
I1
F-0.25
S'low'
p260
tp261
a(I144
I1
F0.5
S'functional'
p262
tp263
a(I146
I0
F0.5
S'reasonable'
p264
tp265
as(g31
S'data'
p266
S'plan'
p267
tp268
(lp269
(I3
I10
F-0.375
g232
tp270
a(I3
I16
F0.625
g179
tp271
as(S'condition'
p272
tp273
(lp274
(I2
I3
F1.0
g204
tp275
a(I2
I4
F1.0
g206
tp276
a(I4
I0
F0.375
S'new'
p277
tp278
a(I18
I0
F1.0
g208
tp279
a(I45
I1
F0.375
S'new'
p280
tp281
a(I55
I0
F1.0
g210
tp282
a(I57
I0
I0
S'great'
p283
tp284
a(I58
I0
F0.375
S'new'
p285
tp286
a(I62
I0
F1.0
g212
tp287
a(I64
I0
F1.0
g214
tp288
a(I68
I0
I0
S'great'
p289
tp290
a(I137
I1
I0
S'great'
p291
tp292
a(I149
I0
F1.0
g216
tp293
as(S'love'
p294
tp295
(lp296
(I16
I1
F1.0
S'love'
p297
tp298
as(S'data'
p299
S'plan'
p300
tp301
(lp302
(I3
I10
F-0.375
g232
tp303
a(I3
I16
F0.625
g179
tp304
as(S'months'
p305
tp306
(lp307
(I17
I4
I0
S'next'
p308
tp309
a(I17
I4
I0
S'few'
p310
tp311
a(I38
I1
I0
S'more'
p312
tp313
a(I41
I6
I0
S'few'
p314
tp315
a(I64
I2
F-0.625
S'other'
p316
tp317
a(I94
I2
I0
S'later'
p318
tp319
as(S'deal'
p320
tp321
(lp322
(I61
I1
I0
g36
tp323
a(I76
I1
F1.0
S'good'
p324
tp325
a(I82
I1
I0
g38
tp326
a(I91
I0
I0
g40
tp327
a(I91
I2
I0
g42
tp328
a(I97
I2
I0
g44
tp329
a(I104
I0
I0
g46
tp330
as(S'working'
p331
tp332
(lp333
(I87
I0
F1.0
S'good'
p334
tp335
as.