(dp0
(S'sound'
p1
tp2
(lp3
(I1
I8
F1.0
S'best'
p4
I7
tp5
a(I1
I15
F0.625
S'interested'
p6
I7
tp7
a(I1
I52
F1.0
S'good'
p8
I7
tp9
a(I3
I35
F0.625
S'perfect'
p10
I7
tp11
as(S'hinge'
p12
tp13
(lp14
(I3
I3
F-0.5
S'open'
p15
I9
tp16
a(I3
I3
F-0.625
S'other'
p17
I9
tp18
as(S'battery'
p19
tp20
(lp21
(I4
I6
F-0.625
S'average'
p22
I15
tp23
as(S'great'
p24
S'reception'
p25
tp26
(lp27
(I1
I42
I0
S'great'
p28
I0
tp29
a(I1
I52
I0
S'great'
p30
I0
tp31
a(I1
I67
I0
S'great'
p32
I0
tp33
a(I4
I6
I0
S'great'
p34
I0
tp35
a(I9
I45
I0
S'great'
p36
I0
tp37
a(I10
I32
I0
S'great'
p38
I0
tp39
a(I1
I32
F1.0
S'good'
p40
I0
tp41
a(I1
I42
I0
g28
I0
tp42
a(I1
I52
I0
g30
I0
tp43
a(I1
I67
I0
g32
I0
tp44
a(I4
I6
I0
g34
I0
tp45
a(I4
I18
F1.0
S'good'
p46
I0
tp47
a(I4
I21
F-0.125
S'jungle'
p48
I0
tp49
a(I9
I45
I0
g36
I0
tp50
a(I10
I28
F1.0
S'good'
p51
I0
tp52
a(I10
I32
I0
g38
I0
tp53
a(I10
I35
F1.0
S'best'
p54
I0
tp55
as(S'calls'
p56
tp57
(lp58
(I4
I6
I0
S'few'
p59
I0
tp60
a(I4
I6
F-0.25
S'dropped'
p61
I0
tp62
a(I4
I14
F-0.25
S'dropped'
p63
I0
tp64
a(I9
I46
F-0.75
S'wrong'
p65
I0
tp66
as(S'voice'
p67
S'quality'
p68
tp69
(lp70
(I3
I31
F-0.625
S'bad'
p71
I0
tp72
a(I3
I41
F0.625
S'extraordinary'
p73
I0
tp74
a(I9
I10
F1.0
S'best'
p75
I0
tp76
a(I10
I44
F1.0
S'good'
p77
I0
tp78
as(S'motorola'
p79
S'tundra'
p80
tp81
(lp82
(I1
I37
F0.25
S'refurbished'
p83
I0
tp84
a(I4
I20
F0.125
S'first'
p85
I0
tp86
a(I9
I83
F0.5
S'second'
p87
I0
tp88
a(I10
I13
F0.125
S'equal'
p89
I0
tp90
a(I10
I20
F0.375
S'much'
p91
I0
tp92
a(I1
I37
F0.25
g83
I0
tp93
a(I3
I11
I0
S'many'
p94
I0
tp95
a(I3
I34
F0.375
S'honest'
p96
I0
tp97
a(I10
I44
I0
S'old'
p98
I0
tp99
a(I10
I52
F0.625
S'aware'
p100
I0
tp101
as.