(dp0
(S'battery'
p1
S'life'
p2
tp3
(lp4
(I4
I47
I0
S'very'
p5
I1
tp6
a(I4
I47
F-0.75
S'short'
p7
I1
tp8
a(I8
I6
F0.125
S'able'
p9
I1
tp10
a(I8
I6
F-0.375
S'double'
p11
I1
tp12
a(I12
I76
F1.0
S'best'
p13
I1
tp14
a(I15
I9
F1.0
S'good'
p15
I1
tp16
a(I15
I28
I0
S'great'
p17
I1
tp18
a(I17
I34
F1.0
S'good'
p19
I1
tp20
a(I24
I16
I0
S'great'
p21
I1
tp22
a(I24
I26
F-0.75
S'short'
p23
I1
tp24
a(I24
I35
F0.5
S'told'
p25
I1
tp26
a(I24
I169
F-0.625
S'bad'
p27
I1
tp28
a(I25
I2
F-0.5
S'complaint'
p29
I1
tp30
a(I25
I2
F-0.75
S'short'
p31
I1
tp32
a(I26
I117
F-0.5
S'long'
p33
I1
tp34
a(I32
I14
F-0.5
S'existent'
p35
I1
tp36
a(I34
I65
F-0.75
S'short'
p37
I1
tp38
a(I37
I12
F-0.625
S'bad'
p39
I1
tp40
a(I40
I11
F-0.5
S'longest'
p41
I1
tp42
a(I12
I105
I0
S'useful'
p43
I19
tp44
a(I15
I9
F1.0
g15
I19
tp45
a(I17
I34
F1.0
g19
I19
tp46
a(I24
I169
F-0.625
g27
I19
tp47
a(I25
I2
F-0.75
g31
I19
tp48
a(I32
I14
F-0.5
g35
I19
tp49
a(I37
I12
F-0.625
g39
I19
tp50
a(I0
I33
F-0.5
S'separate'
p51
I15
tp52
a(I1
I49
F0.625
S'accessible'
p53
I15
tp54
a(I1
I50
I0
S'quick'
p55
I15
tp56
a(I1
I67
F0.375
S'new'
p57
I15
tp58
a(I2
I10
I0
S'hot'
p59
I15
tp60
a(I4
I47
I0
g5
I15
tp61
a(I4
I47
F-0.75
g7
I15
tp62
a(I8
I6
F0.125
g9
I15
tp63
a(I8
I6
F-0.375
g11
I15
tp64
a(I10
I4
F0.125
S'last'
p65
I15
tp66
a(I10
I4
F-0.5
S'long'
p67
I15
tp68
a(I10
I58
F-0.625
S'bad'
p69
I15
tp70
a(I10
I59
F0.625
S'major'
p71
I15
tp72
a(I12
I45
I0
S'hot'
p73
I15
tp74
a(I12
I76
F1.0
g13
I15
tp75
a(I15
I28
I0
g17
I15
tp76
a(I17
I21
F0.125
S'last'
p77
I15
tp78
a(I18
I81
F-0.625
S'bad'
p79
I15
tp80
a(I18
I81
F1.0
S'best'
p81
I15
tp82
a(I24
I16
I0
g21
I15
tp83
a(I24
I26
F-0.75
g23
I15
tp84
a(I24
I35
F0.5
g25
I15
tp85
a(I24
I152
F-0.375
S'small'
p86
I15
tp87
a(I24
I155
F0.375
S'extra'
p88
I15
tp89
a(I24
I192
F-0.5
S'weak'
p90
I15
tp91
a(I24
I201
F0.375
S'extra'
p92
I15
tp93
a(I25
I2
F-0.5
g29
I15
tp94
a(I26
I117
F-0.5
g33
I15
tp95
a(I27
I23
F-0.125
S'invest'
p96
I15
tp97
a(I27
I23
F0.375
S'extra'
p98
I15
tp99
a(I27
I35
F0.125
S'last'
p100
I15
tp101
a(I27
I35
F-0.5
S'long'
p102
I15
tp103
a(I29
I5
F0.125
S'last'
p104
I15
tp105
a(I34
I65
F-0.75
g37
I15
tp106
a(I37
I27
F0.125
S'able'
p107
I15
tp108
a(I40
I11
F-0.5
g41
I15
tp109
as(S'keyboard'
p110
tp111
(lp112
(I4
I83
I0
S'real'
p113
I2
tp114
a(I24
I10
I0
S'physical'
p115
I2
tp116
a(I24
I10
F0.875
S'happy'
p117
I2
tp118
a(I24
I38
I0
S'android'
p119
I2
tp120
a(I24
I76
I0
S'big'
p121
I2
tp122
a(I37
I18
I0
S'great'
p123
I2
tp124
a(I39
I19
I0
S'slider'
p125
I2
tp126
a(I40
I22
F-0.375
S'small'
p127
I2
tp128
as(S'email'
p129
tp130
(lp131
(I1
I40
F0.625
S'major'
p132
I5
tp133
a(I16
I29
F0.875
S'music'
p134
I5
tp135
a(I24
I87
I0
S'many'
p136
I5
tp137
a(I26
I109
I0
S'least'
p138
I5
tp139
a(I34
I23
F-0.25
S'google'
p140
I5
tp141
as(S'first'
p142
S'android'
p143
tp144
(lp145
(I4
I59
F0.125
S'first'
p146
I0
tp147
a(I12
I0
F0.125
S'first'
p148
I0
tp149
a(I12
I48
F0.125
S'first'
p150
I0
tp151
a(I12
I54
F0.125
S'first'
p152
I0
tp153
a(I15
I6
F0.125
S'first'
p154
I0
tp155
a(I18
I98
F0.125
S'first'
p156
I0
tp157
a(I32
I59
F0.125
S'first'
p158
I0
tp159
a(I4
I4
I0
S'great'
p160
I0
tp161
a(I4
I8
F0.375
S'new'
p162
I0
tp163
a(I4
I59
F0.125
g146
I0
tp164
a(I4
I105
F-0.875
S'worst'
p165
I0
tp166
a(I8
I10
F-0.625
S'free'
p167
I0
tp168
a(I10
I54
F0.375
S'new'
p169
I0
tp170
a(I10
I93
F-0.625
S'other'
p171
I0
tp172
a(I10
I135
F1.0
S'best'
p173
I0
tp174
a(I12
I0
F0.125
g148
I0
tp175
a(I12
I2
F-0.625
S'average'
p176
I0
tp177
a(I12
I48
F0.125
g150
I0
tp178
a(I12
I54
F0.125
g152
I0
tp179
a(I15
I6
F0.125
g154
I0
tp180
a(I16
I3
F0.5
S'true'
p181
I0
tp182
a(I17
I35
F-0.625
S'free'
p183
I0
tp184
a(I18
I19
F0.5
S'reasonable'
p185
I0
tp186
a(I18
I98
F0.125
g156
I0
tp187
a(I20
I4
I0
S'only'
p188
I0
tp189
a(I24
I106
F0.5
S'functional'
p190
I0
tp191
a(I24
I118
F0.5
S'desirable'
p192
I0
tp193
a(I24
I172
I0
S'many'
p194
I0
tp195
a(I26
I85
F0.5
S'loyal'
p196
I0
tp197
a(I32
I59
F0.125
g158
I0
tp198
as(S'a'
p199
S'text'
p200
S'message'
p201
tp202
(lp203
(I4
I111
F-0.875
S'hard'
p204
I0
tp205
a(I4
I83
F0.5
S'accurate'
p206
I18
tp207
as(S'with'
p208
S'boost'
p209
S'mobile'
p210
tp211
(lp212
(I4
I67
I0
S'mobile'
p213
I0
tp214
a(I20
I13
F0.875
S'happy'
p215
I0
tp216
a(I36
I44
I0
S'many'
p217
I0
tp218
a(I4
I67
I0
g213
I0
tp219
a(I17
I125
F-0.5
S'sure'
p220
I0
tp221
a(I20
I13
F0.875
g215
I0
tp222
a(I35
I14
I0
S'mobile'
p223
I0
tp224
a(I36
I44
I0
g217
I0
tp225
a(I24
I127
I0
S'great'
p226
I0
tp227
a(I24
I127
I0
S'faster'
p228
I0
tp229
a(I36
I44
I0
g217
I0
tp230
a(I0
I7
F0.5
S'greater'
p231
I0
tp232
a(I4
I67
I0
g213
I0
tp233
a(I10
I165
F0.875
S'happy'
p234
I0
tp235
a(I15
I1
F0.875
S'happy'
p236
I0
tp237
a(I15
I3
I0
S'great'
p238
I0
tp239
a(I16
I21
F0.375
S'new'
p240
I0
tp241
a(I17
I78
F-0.25
S'higher'
p242
I0
tp243
a(I17
I125
F-0.5
g220
I0
tp244
a(I18
I83
F-0.625
S'other'
p245
I0
tp246
a(I20
I13
F0.875
g215
I0
tp247
a(I24
I22
F-0.5
S'sure'
p248
I0
tp249
a(I32
I70
I0
S'site'
p250
I0
tp251
a(I34
I19
F1.0
S'good'
p252
I0
tp253
a(I35
I14
I0
g223
I0
tp254
a(I40
I30
F0.375
S'much'
p255
I0
tp256
as(S'bells'
p257
S'and'
p258
S'whistles'
p259
tp260
(lp261
(I34
I57
F0.375
S'extra'
p262
I0
tp263
as(S'camera'
p264
tp265
(lp266
(I10
I171
I0
S'great'
p267
I1
tp268
a(I10
I183
F1.0
S'better'
p269
I1
tp270
a(I14
I10
I0
S'great'
p271
I1
tp272
a(I15
I13
I0
S'great'
p273
I1
tp274
a(I15
I15
F1.0
S'better'
p275
I1
tp276
a(I24
I49
F1.0
S'good'
p277
I1
tp278
a(I24
I52
I0
S'few'
p279
I1
tp280
a(I24
I108
F1.0
S'better'
p281
I1
tp282
a(I24
I138
F0.625
S'necessary'
p283
I1
tp284
a(I24
I187
F1.0
S'good'
p285
I1
tp286
a(I30
I11
F-0.625
S'bad'
p287
I1
tp288
a(I39
I16
F-0.5
S'weak'
p289
I1
tp290
a(I39
I63
I0
S'great'
p291
I1
tp292
as(S'sprint'
p293
tp294
(lp295
(I17
I95
I0
S'weird'
p296
I0
tp297
a(I18
I99
I0
S'switched'
p298
I0
tp299
a(I37
I32
I0
S'merged'
p300
I0
tp301
as(S'boost'
p302
S'mobile'
p303
S'service'
p304
tp305
(lp306
(I1
I18
F1.0
S'good'
p307
I0
tp308
a(I4
I30
I0
S'great'
p309
I0
tp310
a(I4
I67
I0
g213
I0
tp311
a(I17
I125
F-0.5
g220
I0
tp312
a(I18
I53
F1.0
S'good'
p313
I0
tp314
a(I38
I3
F-0.875
S'trouble'
p315
I0
tp316
a(I1
I18
F1.0
g307
I16
tp317
a(I3
I8
F-0.5
S'unlimited'
p318
I16
tp319
a(I4
I30
I0
g309
I16
tp320
a(I4
I112
I0
S'more'
p321
I16
tp322
a(I10
I16
I0
S'great'
p323
I16
tp324
a(I10
I98
I0
S'prepaid'
p325
I16
tp326
a(I12
I122
F0.125
S'enough'
p327
I16
tp328
a(I17
I16
F1.0
S'good'
p329
I16
tp330
a(I18
I4
I0
S'great'
p331
I16
tp332
a(I18
I37
I0
S'sprint'
p333
I16
tp334
a(I18
I37
F0.75
S'due'
p335
I16
tp336
a(I18
I37
F-0.5
S'poor'
p337
I16
tp338
a(I18
I38
I0
S'least'
p339
I16
tp340
a(I18
I53
F1.0
g313
I16
tp341
a(I19
I2
I0
S'great'
p342
I16
tp343
a(I20
I15
F1.0
S'good'
p344
I16
tp345
a(I24
I67
F1.0
S'good'
p346
I16
tp347
a(I26
I16
F1.0
S'good'
p348
I16
tp349
a(I31
I10
I0
S'internet'
p350
I16
tp351
a(I31
I10
I0
S'later'
p352
I16
tp353
a(I32
I22
I0
S'internet'
p354
I16
tp355
a(I32
I44
F1.0
S'good'
p356
I16
tp357
a(I32
I62
F1.0
S'better'
p358
I16
tp359
a(I38
I3
F-0.875
g315
I16
tp360
a(I40
I14
I0
S'great'
p361
I16
tp362
as(S'an'
p363
S'entry'
p364
S'level'
p365
tp366
(lp367
(I10
I54
I0
S'entry'
p368
I0
tp369
a(I17
I79
F-0.5
S'lesser'
p370
I0
tp371
a(I18
I33
I0
S'basic'
p372
I0
tp373
a(I40
I20
F0.875
S'nice'
p374
I0
tp375
a(I40
I20
F-0.75
S'little'
p376
I0
tp377
a(I10
I54
I0
g368
I0
tp378
a(I17
I79
F-0.5
g370
I0
tp379
a(I18
I33
I0
g372
I0
tp380
a(I40
I20
F0.875
g374
I0
tp381
a(I40
I20
F-0.75
g376
I0
tp382
as(S'prevail'
p383
tp384
(lp385
(I24
I106
F0.625
S'credible'
p386
I0
tp387
a(I30
I18
F-0.75
S'wrong'
p388
I0
tp389
as(S'apps'
p390
S'to'
p391
S'sd'
p392
tp393
(lp394
(I8
I3
I0
S'many'
p395
I0
tp396
a(I8
I3
F0.5
S'possible'
p397
I0
tp398
a(I10
I176
I0
S'most'
p399
I0
tp400
a(I13
I6
I0
S'internal'
p401
I0
tp402
a(I13
I6
F0.5
S'drive'
p403
I0
tp404
a(I13
I6
I0
S'external'
p405
I0
tp406
a(I13
I10
F0.25
S'larger'
p407
I0
tp408
a(I13
I10
I0
S'more'
p409
I0
tp410
a(I17
I107
F-0.5
S'sure'
p411
I0
tp412
a(I18
I8
F-0.5
S'certain'
p413
I0
tp414
a(I23
I9
F-0.5
S'certain'
p415
I0
tp416
a(I30
I15
I0
S'most'
p417
I0
tp418
a(I35
I2
I0
S'such'
p419
I0
tp420
a(I35
I12
F0.25
S'favorite'
p421
I0
tp422
a(I39
I33
F-0.5
S'certain'
p423
I0
tp424
a(I39
I35
I0
S'more'
p425
I0
tp426
a(I40
I26
I0
S'external'
p427
I0
tp428
a(I0
I17
I0
S'more'
p429
I0
tp430
a(I1
I56
I0
S'useful'
p431
I0
tp432
a(I4
I38
I0
S'more'
p433
I0
tp434
a(I4
I40
F1.0
S'good'
p435
I0
tp436
a(I4
I40
I0
S'most'
p437
I0
tp438
a(I4
I41
F0.125
S'able'
p439
I0
tp440
a(I4
I103
I0
S'great'
p441
I0
tp442
a(I8
I3
I0
g395
I0
tp443
a(I8
I3
F0.5
g397
I0
tp444
a(I10
I56
I0
S'many'
p445
I0
tp446
a(I10
I56
F-0.625
S'free'
p447
I0
tp448
a(I10
I58
I0
S'many'
p449
I0
tp450
a(I10
I92
I0
S'many'
p451
I0
tp452
a(I10
I139
I0
S'most'
p453
I0
tp454
a(I10
I139
F-0.375
S'smooth'
p455
I0
tp456
a(I10
I176
I0
g399
I0
tp457
a(I13
I6
I0
g401
I0
tp458
a(I13
I10
I0
g409
I0
tp459
a(I14
I27
F-0.625
S'free'
p460
I0
tp461
a(I15
I8
F-0.125
S'slow'
p462
I0
tp463
a(I16
I3
F-0.625
S'other'
p464
I0
tp465
a(I16
I11
I0
S'close'
p466
I0
tp467
a(I16
I11
F-0.625
S'other'
p468
I0
tp469
a(I16
I12
I0
S'few'
p470
I0
tp471
a(I16
I19
I0
S'few'
p472
I0
tp473
a(I17
I9
I0
S'most'
p474
I0
tp475
a(I17
I107
F-0.5
g411
I0
tp476
a(I18
I6
I0
S'basic'
p477
I0
tp478
a(I18
I8
F-0.5
g413
I0
tp479
a(I18
I60
F0.125
S'first'
p480
I0
tp481
a(I18
I75
I0
S'faster'
p482
I0
tp483
a(I18
I93
I0
S'great'
p484
I0
tp485
a(I20
I6
I0
S'most'
p486
I0
tp487
a(I20
I6
I0
S'android'
p488
I0
tp489
a(I20
I6
F-0.625
S'free'
p490
I0
tp491
a(I23
I9
F-0.5
g415
I0
tp492
a(I24
I82
I0
S'own'
p493
I0
tp494
a(I24
I85
I0
S'many'
p495
I0
tp496
a(I24
I85
I0
S'useful'
p497
I0
tp498
a(I24
I85
I0
S'great'
p499
I0
tp500
a(I24
I95
I0
S'great'
p501
I0
tp502
a(I26
I64
I0
S'few'
p503
I0
tp504
a(I26
I100
F0.125
S'able'
p505
I0
tp506
a(I30
I15
I0
g417
I0
tp507
a(I30
I17
I0
S'particular'
p508
I0
tp509
a(I30
I20
F-0.625
S'free'
p510
I0
tp511
a(I32
I53
F-0.125
S'slow'
p512
I0
tp513
a(I32
I77
I0
S'basic'
p514
I0
tp515
a(I34
I63
F0.625
S'aware'
p516
I0
tp517
a(I35
I2
I0
g419
I0
tp518
a(I35
I3
I0
S'own'
p519
I0
tp520
a(I35
I3
I0
S'such'
p521
I0
tp522
a(I35
I8
I0
S'faster'
p523
I0
tp524
a(I35
I8
I0
S'more'
p525
I0
tp526
a(I35
I12
F0.25
g421
I0
tp527
a(I35
I16
F-0.625
S'want'
p528
I0
tp529
a(I36
I5
F0.375
S'new'
p530
I0
tp531
a(I36
I44
I0
S'many'
p532
I0
tp533
a(I36
I50
I0
S'great'
p534
I0
tp535
a(I36
I50
I0
S'great'
p536
I0
tp537
a(I39
I11
I0
S'basic'
p538
I0
tp539
a(I39
I27
I0
S'many'
p540
I0
tp541
a(I39
I33
F-0.5
g423
I0
tp542
a(I39
I35
I0
g425
I0
tp543
a(I39
I46
F0.375
S'new'
p544
I0
tp545
a(I40
I8
F-0.625
S'free'
p546
I0
tp547
a(I40
I24
I0
S'many'
p548
I0
tp549
as(S'google'
p550
tp551
(lp552
(I8
I2
I0
S'standard'
p553
I4
tp554
a(I17
I33
F-0.5
S'international'
p555
I4
tp556
a(I26
I102
I0
S'update'
p557
I4
tp558
a(I35
I7
F-0.625
S'other'
p559
I4
tp560
as(S'to'
p561
S'sd'
p562
S'card'
p563
tp564
(lp565
(I13
I6
F0.5
g403
I0
tp566
a(I13
I6
I0
g405
I0
tp567
a(I13
I10
F0.25
g407
I0
tp568
a(I13
I12
I0
S'external'
p569
I0
tp570
a(I24
I201
F-0.25
S'higher'
p571
I0
tp572
a(I24
I201
I0
S'sd'
p573
I0
tp574
a(I39
I36
F1.0
S'good'
p575
I0
tp576
a(I40
I26
I0
g427
I0
tp577
a(I13
I6
F0.5
g403
I0
tp578
a(I13
I6
I0
g405
I0
tp579
a(I13
I10
F0.25
g407
I0
tp580
a(I13
I12
I0
g569
I0
tp581
a(I24
I201
F-0.25
g571
I0
tp582
a(I24
I201
I0
g573
I0
tp583
a(I39
I36
F1.0
g575
I0
tp584
a(I40
I26
I0
g427
I0
tp585
as(g199
S'2'
p586
S'year'
p587
tp588
(lp589
(I14
I20
F-0.625
S'free'
p590
I0
tp591
a(I17
I104
I0
S'charged'
p592
I0
tp593
a(I24
I83
F0.875
S'happy'
p594
I0
tp595
as(S'on'
p596
S'boost'
p597
S'mobile'
p598
tp599
(lp600
(I17
I125
F-0.5
g220
I0
tp601
a(I20
I13
F0.875
g215
I0
tp602
a(I35
I14
I0
g223
I0
tp603
a(I36
I44
I0
g217
I0
tp604
as(S'per'
p605
S'month'
p606
tp607
(lp608
(I10
I72
I0
S'more'
p609
I0
tp610
a(I12
I52
I0
S'monthly'
p611
I0
tp612
a(I17
I92
F-0.625
S'average'
p613
I0
tp614
a(I24
I110
I0
S'more'
p615
I0
tp616
a(I24
I184
I0
S'more'
p617
I0
tp618
a(I26
I85
F0.5
S'whole'
p619
I0
tp620
a(I37
I13
F-0.5
S'less'
p621
I0
tp622
as(S'of'
p623
S'internal'
p624
S'memory'
p625
tp626
(lp627
(I10
I30
F-0.25
S'low'
p628
I0
tp629
a(I10
I30
I0
S'internal'
p630
I0
tp631
a(I10
I137
I0
S'internal'
p632
I0
tp633
a(I17
I30
I0
S'internal'
p634
I0
tp635
a(I18
I49
I0
S'internal'
p636
I0
tp637
a(I18
I49
F1.0
S'better'
p638
I0
tp639
a(I19
I3
I0
S'internal'
p640
I0
tp641
a(I20
I1
I0
S'internal'
p642
I0
tp643
a(I26
I44
I0
S'internal'
p644
I0
tp645
a(I26
I98
F0.125
S'enough'
p646
I0
tp647
a(I26
I98
I0
S'internal'
p648
I0
tp649
a(I35
I1
F0.375
S'available'
p650
I0
tp651
a(I35
I1
I0
S'internal'
p652
I0
tp653
a(I35
I13
F-0.5
S'open'
p654
I0
tp655
a(I35
I13
I0
S'internal'
p656
I0
tp657
a(I1
I20
I0
S'internal'
p658
I0
tp659
a(I1
I20
I0
S'full'
p660
I0
tp661
a(I4
I37
F-0.75
S'little'
p662
I0
tp663
a(I4
I37
I0
S'internal'
p664
I0
tp665
a(I4
I37
F-0.75
S'little'
p666
I0
tp667
a(I4
I107
I0
S'internal'
p668
I0
tp669
a(I8
I3
F-0.375
S'small'
p670
I0
tp671
a(I8
I3
I0
S'internal'
p672
I0
tp673
a(I10
I30
F-0.25
g628
I0
tp674
a(I10
I30
I0
g630
I0
tp675
a(I10
I42
I0
S'big'
p676
I0
tp677
a(I10
I42
F-0.875
S'negative'
p678
I0
tp679
a(I10
I43
I0
S'internal'
p680
I0
tp681
a(I10
I137
I0
g632
I0
tp682
a(I17
I30
I0
g634
I0
tp683
a(I17
I107
I0
S'internal'
p684
I0
tp685
a(I18
I49
I0
g636
I0
tp686
a(I18
I49
F1.0
g638
I0
tp687
a(I19
I3
I0
g640
I0
tp688
a(I20
I1
I0
g642
I0
tp689
a(I24
I97
I0
S'internal'
p690
I0
tp691
a(I26
I44
I0
g644
I0
tp692
a(I26
I47
I0
S'internal'
p693
I0
tp694
a(I26
I98
F0.125
g646
I0
tp695
a(I26
I98
I0
g648
I0
tp696
a(I31
I5
I0
S'internal'
p697
I0
tp698
a(I32
I76
I0
S'internal'
p699
I0
tp700
a(I35
I0
F-0.375
S'small'
p701
I0
tp702
a(I35
I0
I0
S'internal'
p703
I0
tp704
a(I35
I1
F0.375
g650
I0
tp705
a(I35
I1
I0
g652
I0
tp706
a(I35
I3
I0
S'internal'
p707
I0
tp708
a(I35
I13
F-0.5
g654
I0
tp709
a(I35
I13
I0
g656
I0
tp710
a(I35
I19
I0
S'internal'
p711
I0
tp712
a(I39
I9
I0
S'internal'
p713
I0
tp714
a(I39
I52
I0
S'great'
p715
I0
tp716
a(I39
I52
I0
S'internal'
p717
I0
tp718
a(I40
I16
I0
S'internal'
p719
I0
tp720
a(I1
I20
I0
g658
I5
tp721
a(I1
I20
I0
g660
I5
tp722
a(I1
I21
I0
S'full'
p723
I5
tp724
a(I4
I37
F-0.75
g662
I5
tp725
a(I4
I37
I0
g664
I5
tp726
a(I4
I37
F-0.75
g666
I5
tp727
a(I4
I62
I0
S'full'
p728
I5
tp729
a(I4
I107
I0
g668
I5
tp730
a(I8
I2
F-0.375
S'small'
p731
I5
tp732
a(I8
I3
F-0.375
g670
I5
tp733
a(I8
I3
I0
g672
I5
tp734
a(I10
I28
I0
S'full'
p735
I5
tp736
a(I10
I30
F-0.25
g628
I5
tp737
a(I10
I30
I0
g630
I5
tp738
a(I10
I42
I0
g676
I5
tp739
a(I10
I42
F-0.875
g678
I5
tp740
a(I10
I43
I0
g680
I5
tp741
a(I10
I137
I0
g632
I5
tp742
a(I12
I73
F0.375
S'new'
p743
I5
tp744
a(I12
I73
F0.375
S'much'
p745
I5
tp746
a(I17
I24
F0.75
S'due'
p747
I5
tp748
a(I17
I30
I0
g634
I5
tp749
a(I17
I107
I0
g684
I5
tp750
a(I18
I49
I0
g636
I5
tp751
a(I18
I49
F1.0
g638
I5
tp752
a(I19
I3
I0
g640
I5
tp753
a(I20
I1
I0
g642
I5
tp754
a(I20
I8
F-0.25
S'low'
p755
I5
tp756
a(I20
I9
F0.25
S'larger'
p757
I5
tp758
a(I20
I9
I0
S'high'
p759
I5
tp760
a(I24
I97
I0
g690
I5
tp761
a(I24
I98
I0
S'high'
p762
I5
tp763
a(I24
I114
F0.25
S'bigger'
p764
I5
tp765
a(I24
I114
I0
S'more'
p766
I5
tp767
a(I26
I44
I0
g644
I5
tp768
a(I26
I47
I0
g693
I5
tp769
a(I26
I86
F0.375
S'much'
p770
I5
tp771
a(I26
I98
F0.125
g646
I5
tp772
a(I26
I98
I0
g648
I5
tp773
a(I31
I5
I0
g697
I5
tp774
a(I32
I76
I0
g699
I5
tp775
a(I32
I77
F-0.25
S'low'
p776
I5
tp777
a(I34
I21
I0
S'full'
p778
I5
tp779
a(I35
I0
F-0.375
g701
I5
tp780
a(I35
I0
I0
g703
I5
tp781
a(I35
I1
F0.375
g650
I5
tp782
a(I35
I1
I0
g652
I5
tp783
a(I35
I3
I0
g707
I5
tp784
a(I35
I10
F-0.625
S'free'
p785
I5
tp786
a(I35
I13
F-0.5
g654
I5
tp787
a(I35
I13
I0
g656
I5
tp788
a(I35
I17
F-0.75
S'wrong'
p789
I5
tp790
a(I35
I19
I0
g711
I5
tp791
a(I35
I21
F0.5
S'clear'
p792
I5
tp793
a(I35
I21
F-0.25
S'low'
p794
I5
tp795
a(I39
I9
I0
g713
I5
tp796
a(I39
I52
I0
g715
I5
tp797
a(I39
I52
I0
g717
I5
tp798
a(I40
I16
I0
g719
I5
tp799
as(S'many'
p800
S'apps'
p801
tp802
(lp803
(I8
I3
I0
g395
I0
tp804
a(I8
I3
F0.5
g397
I0
tp805
a(I10
I56
I0
g445
I0
tp806
a(I10
I56
F-0.625
g447
I0
tp807
a(I10
I58
I0
g449
I0
tp808
a(I10
I92
I0
g451
I0
tp809
a(I24
I85
I0
g495
I0
tp810
a(I24
I85
I0
g497
I0
tp811
a(I24
I85
I0
g499
I0
tp812
a(I36
I44
I0
g532
I0
tp813
a(I39
I27
I0
g540
I0
tp814
a(I40
I24
I0
g548
I0
tp815
as(S'unlimited'
p816
S'plan'
p817
tp818
(lp819
(I4
I4
I0
S'android'
p820
I0
tp821
a(I17
I78
F-0.5
S'unlimited'
p822
I0
tp823
a(I27
I7
I0
S'great'
p824
I0
tp825
a(I34
I54
I0
S'great'
p826
I0
tp827
as(S'smart'
p828
tp829
(lp830
(I1
I42
F0.125
S'first'
p831
I10
tp832
a(I4
I44
F1.0
S'good'
p833
I10
tp834
a(I4
I81
F0.125
S'first'
p835
I10
tp836
a(I6
I6
I0
S'most'
p837
I10
tp838
a(I17
I89
F0.125
S'first'
p839
I10
tp840
a(I17
I105
I0
S'great'
p841
I10
tp842
a(I17
I105
I0
S'basic'
p843
I10
tp844
a(I20
I6
F0.125
S'first'
p845
I10
tp846
a(I23
I0
I0
S'most'
p847
I10
tp848
a(I24
I21
F0.125
S'first'
p849
I10
tp850
a(I24
I167
F0.125
S'first'
p851
I10
tp852
a(I30
I35
F0.125
S'first'
p853
I10
tp854
a(I30
I35
F-0.625
S'other'
p855
I10
tp856
a(I32
I59
F0.375
S'new'
p857
I10
tp858
a(I33
I0
F-0.75
S'little'
p859
I10
tp860
a(I37
I19
I0
S'few'
p861
I10
tp862
a(I39
I21
F0.125
S'first'
p863
I10
tp864
as(S'network'
p865
tp866
(lp867
(I2
I6
F1.0
S'good'
p868
I0
tp869
a(I3
I8
I0
S'national'
p870
I0
tp871
a(I3
I8
F-0.5
S'less'
p872
I0
tp873
a(I27
I28
I0
S'great'
p874
I0
tp875
as(S'internet'
p876
tp877
(lp878
(I17
I47
F-0.125
S'slow'
p879
I6
tp880
a(I24
I55
F0.5
S'true'
p881
I6
tp882
a(I24
I96
I0
S'faster'
p883
I6
tp884
as(S'data'
p885
tp886
(lp887
(I10
I70
I0
S'most'
p888
I13
tp889
a(I26
I54
F0.625
S'easy'
p890
I13
tp891
as(S'smartphone'
p892
tp893
(lp894
(I1
I61
F0.125
S'first'
p895
I0
tp896
a(I4
I29
F0.625
S'aware'
p897
I0
tp898
a(I10
I71
I0
S'latest'
p899
I0
tp900
a(I10
I74
I0
S'latest'
p901
I0
tp902
a(I10
I74
F0.75
S'worth'
p903
I0
tp904
a(I10
I74
I0
S'more'
p905
I0
tp906
a(I17
I46
I0
S'basic'
p907
I0
tp908
a(I24
I72
F0.125
S'first'
p909
I0
tp910
a(I26
I56
I0
S'fast'
p911
I0
tp912
a(I26
I56
I0
S'great'
p913
I0
tp914
a(I26
I67
F0.125
S'first'
p915
I0
tp916
a(I40
I7
I0
S'great'
p917
I0
tp918
a(I40
I9
F0.125
S'first'
p919
I0
tp920
as(S'samsung'
p921
S'galaxy'
p922
tp923
(lp924
(I4
I101
F0.375
S'new'
p925
I0
tp926
a(I4
I101
F0.375
g925
I7
tp927
a(I18
I18
F1.0
S'best'
p928
I7
tp929
a(I18
I18
F0.125
S'electric'
p930
I7
tp931
a(I27
I32
F0.375
S'honest'
p932
I7
tp933
a(I37
I31
F0.125
S'first'
p934
I7
tp935
a(I37
I31
F0.5
S'second'
p936
I7
tp937
a(I37
I31
F-0.625
S'bad'
p938
I7
tp939
a(I37
I35
F-0.5
S'sudden'
p940
I7
tp941
a(I37
I35
F0.625
S'necessary'
p942
I7
tp943
a(I24
I42
I0
S'slower'
p944
I0
tp945
as(S'customer'
p946
S'service'
p947
tp948
(lp949
(I10
I16
I0
g323
I3
tp950
a(I12
I100
F-0.875
S'worst'
p951
I3
tp952
a(I12
I122
F0.125
g327
I3
tp953
a(I32
I22
I0
g354
I3
tp954
a(I36
I13
F1.0
S'good'
p955
I3
tp956
a(I36
I41
F1.0
S'best'
p957
I3
tp958
a(I12
I100
F-0.875
g951
I11
tp959
a(I15
I2
I0
S'more'
p960
I11
tp961
a(I36
I13
F1.0
g955
I11
tp962
a(I36
I41
F1.0
g957
I11
tp963
as(S'internal'
p964
S'storage'
p965
tp966
(lp967
(I1
I4
I0
S'internal'
p968
I0
tp969
a(I1
I13
I0
S'internal'
p970
I0
tp971
a(I1
I14
I0
S'internal'
p972
I0
tp973
a(I2
I2
I0
S'internal'
p974
I0
tp975
a(I16
I15
I0
S'internal'
p976
I0
tp977
a(I16
I16
I0
S'internal'
p978
I0
tp979
a(I18
I7
I0
S'internal'
p980
I0
tp981
a(I35
I20
F-0.375
S'smallest'
p982
I0
tp983
a(I35
I20
I0
S'internal'
p984
I0
tp985
a(I35
I20
F0.375
S'available'
p986
I0
tp987
a(I35
I23
I0
S'internal'
p988
I0
tp989
a(I39
I30
I0
S'internal'
p990
I0
tp991
a(I39
I35
I0
S'internal'
p992
I0
tp993
a(I39
I37
I0
S'internal'
p994
I0
tp995
a(I39
I42
I0
S'internal'
p996
I0
tp997
a(I1
I4
I0
g968
I1
tp998
a(I1
I13
I0
g970
I1
tp999
a(I1
I14
I0
g972
I1
tp1000
a(I1
I15
F0.375
S'extra'
p1001
I1
tp1002
a(I2
I2
I0
g974
I1
tp1003
a(I6
I8
I0
S'more'
p1004
I1
tp1005
a(I16
I15
I0
g976
I1
tp1006
a(I16
I16
I0
g978
I1
tp1007
a(I18
I7
I0
g980
I1
tp1008
a(I35
I20
F-0.375
g982
I1
tp1009
a(I35
I20
I0
g984
I1
tp1010
a(I35
I20
F0.375
g986
I1
tp1011
a(I35
I23
I0
g988
I1
tp1012
a(I39
I30
I0
g990
I1
tp1013
a(I39
I35
I0
g992
I1
tp1014
a(I39
I37
I0
g994
I1
tp1015
a(I39
I39
F-0.375
S'top'
p1016
I1
tp1017
a(I39
I42
I0
g996
I1
tp1018
a(I39
I48
I0
S'more'
p1019
I1
tp1020
a(I39
I48
F0.375
S'no-brainer'
p1021
I1
tp1022
as(S'touch'
p1023
S'screen'
p1024
tp1025
(lp1026
(I1
I28
F0.5
S'touch'
p1027
I2
tp1028
a(I3
I19
F0.125
S'first'
p1029
I2
tp1030
a(I8
I15
F0.125
S'first'
p1031
I2
tp1032
a(I10
I179
F0.5
S'touch'
p1033
I2
tp1034
a(I10
I179
F-0.75
S'difficult'
p1035
I2
tp1036
a(I12
I55
I0
S'next'
p1037
I2
tp1038
a(I14
I2
F0.5
S'touch'
p1039
I2
tp1040
a(I17
I46
I0
S'haptic'
p1041
I2
tp1042
a(I17
I47
F-0.75
S'wrong'
p1043
I2
tp1044
a(I17
I80
F-0.375
S'double'
p1045
I2
tp1046
a(I20
I10
F0.5
S'touch'
p1047
I2
tp1048
a(I20
I10
I0
S'android'
p1049
I2
tp1050
a(I26
I86
F1.0
S'best'
p1051
I2
tp1052
a(I26
I100
F0.5
S'touch'
p1053
I2
tp1054
a(I27
I21
F0.5
S'touch'
p1055
I2
tp1056
a(I30
I30
I0
S'great'
p1057
I2
tp1058
a(I34
I34
F0.5
S'touch'
p1059
I2
tp1060
a(I37
I7
F0.5
S'touch'
p1061
I2
tp1062
as(S'calls'
p1063
tp1064
(lp1065
(I10
I138
F0.5
S'clear'
p1066
I0
tp1067
a(I12
I117
F-0.25
S'dropped'
p1068
I0
tp1069
a(I18
I12
I0
S'many'
p1070
I0
tp1071
a(I18
I86
I0
S'many'
p1072
I0
tp1073
as.