(dp0
(S'purchase'
p1
tp2
(lp3
(I0
I0
F1.0
S'best'
p4
tp5
a(I14
I4
F0.125
S'first'
p6
tp7
a(I14
I5
F-0.875
S'worst'
p8
tp9
a(I72
I2
F-0.625
S'bad'
p10
tp11
a(I72
I3
I0
S'same'
p12
tp13
a(I152
I4
I0
S'great'
p14
tp15
a(I162
I5
I0
S'particular'
p16
tp17
as(S'motorola'
p18
tp19
(lp20
(I6
I2
F0.75
S'due'
p21
tp22
a(I27
I10
F-0.875
S'unhappy'
p23
tp24
a(I29
I0
F-0.625
S'bad'
p25
tp26
a(I58
I0
F0.375
S'contact'
p27
tp28
a(I58
I3
I0
S'mobile'
p29
tp30
a(I61
I1
I0
S'generic'
p31
tp32
a(I61
I18
F0.375
S'new'
p33
tp34
a(I99
I2
F-0.75
S'unable'
p35
tp36
a(I136
I1
I0
S'generic'
p37
tp38
a(I136
I18
F0.375
S'new'
p39
tp40
a(I167
I7
F0.5
S'technical'
p41
tp42
a(I173
I1
F0.375
S'available'
p43
tp44
a(I182
I8
F0.125
S'last'
p45
tp46
a(I216
I0
F-0.625
S'other'
p47
tp48
a(I239
I10
F-0.5
S'sure'
p49
tp50
a(I254
I0
F0.25
S'repair'
p51
tp52
a(I254
I0
I0
S'american'
p53
tp54
a(I254
I0
F0.125
S'first'
p55
tp56
a(I320
I2
F0.375
S'complete'
p57
tp58
a(I360
I10
I0
S'android'
p59
tp60
a(I361
I20
F0.125
S'first'
p61
tp62
a(I361
I20
F0.125
S'last'
p63
tp64
a(I364
I0
I0
S'generic'
p65
tp66
a(I372
I12
F0.125
S'able'
p67
tp68
a(I373
I0
I0
S'most'
p69
tp70
as(S'nice'
p71
tp72
(lp73
(I116
I0
F-0.375
S'small'
p74
tp75
a(I116
I0
F0.25
S'powerful'
p76
tp77
a(I116
I0
F1.0
S'good'
p78
tp79
as(S'touch'
p80
tp81
(lp82
(I24
I1
I0
S'great'
p83
tp84
a(I168
I67
F0.875
S'nice'
p85
tp86
a(I173
I5
F0.375
S'allow'
p87
tp88
a(I176
I2
F0.125
S'first'
p89
tp90
a(I341
I4
F0.75
S'due'
p91
tp92
as(S'plan'
p93
S'to'
p94
S'use'
p95
tp96
(lp97
(I85
I4
I0
S'normal'
p98
tp99
a(I280
I0
I0
S'great'
p100
tp101
as(S'quality'
p102
tp103
(lp104
(I51
I1
I0
S'high'
p105
tp106
a(I55
I1
F0.125
S'enough'
p107
tp108
a(I77
I0
F1.0
S'best'
p109
tp110
a(I77
I0
F-0.25
S'low'
p111
tp112
a(I156
I7
I0
S'great'
p113
tp114
a(I168
I21
I0
S'great'
p115
tp116
a(I168
I70
F0.125
S'solid'
p117
tp118
a(I180
I3
I0
S'high'
p119
tp120
a(I257
I13
I0
S'great'
p121
tp122
a(I271
I10
F0.25
S'sharp'
p123
tp124
a(I271
I11
I0
S'great'
p125
tp126
a(I314
I2
F1.0
S'good'
p127
tp128
a(I329
I24
F-0.5
S'poor'
p129
tp130
a(I336
I0
F0.875
S'nice'
p131
tp132
a(I360
I9
F-0.25
S'low'
p133
tp134
a(I371
I0
F1.0
S'good'
p135
tp136
as(S'a'
p137
S'samsung'
p138
S'galaxy'
p139
tp140
(lp141
(I257
I1
F-0.25
S'thin'
p142
tp143
a(I294
I15
F1.0
S'good'
p144
tp145
a(I309
I0
I0
S'old'
p146
tp147
as(S'sd'
p148
S'card'
p149
tp150
(lp151
(I27
I21
F0.375
S'reliable'
p152
tp153
a(I283
I12
F0.875
S'happy'
p154
tp155
as(S'excellent'
p156
tp157
(lp158
(I29
I0
I0
S'great'
p159
tp160
a(I200
I0
I0
S'many'
p161
tp162
a(I200
I0
F-0.625
S'other'
p163
tp164
as(S'fingerprint'
p165
S'reader'
p166
tp167
(lp168
(I131
I1
I0
S'most'
p169
tp170
a(I162
I28
F1.0
S'better'
p171
tp172
a(I296
I3
F0.875
S'nice'
p173
tp174
a(I360
I0
F-0.625
S'fingerprint'
p175
tp176
a(I360
I13
F-0.25
S'tear'
p177
tp178
a(I360
I13
F-0.5
S'separate'
p179
tp180
as(S'samsung'
p181
S'galaxy'
p182
S's2'
p183
tp184
(lp185
(I257
I1
F-0.25
g142
tp186
a(I351
I15
F-0.75
S'little'
p187
tp188
as(S'software'
p189
tp190
(lp191
(I27
I12
I0
S'minimal'
p192
tp193
a(I132
I1
I0
S'android'
p194
tp195
a(I186
I4
I0
S'android'
p196
tp197
a(I186
I4
F-0.75
S'difficult'
p198
tp199
a(I229
I6
I0
S'multiple'
p200
tp201
a(I230
I2
I0
S'close'
p202
tp203
a(I291
I2
F1.0
S'better'
p204
tp205
a(I329
I21
F-0.25
S'defect'
p206
tp207
a(I361
I4
F0.125
S'first'
p208
tp209
as(S'tel'
p210
S'eacute'
p211
S'fono'
p212
tp213
(lp214
(I16
I1
F-0.5
S'actual'
p215
tp216
as(S'sim'
p217
S'card'
p218
tp219
(lp220
(I22
I13
I0
S'older'
p221
tp222
a(I22
I13
F0.375
S'newer'
p223
tp224
a(I27
I21
F0.375
g152
tp225
a(I310
I11
I0
S'next'
p226
tp227
as(S'charge'
p228
tp229
(lp230
(I86
I6
I0
S'full'
p231
tp232
a(I168
I33
F-0.75
S'single'
p233
tp234
a(I168
I41
I0
S'initial'
p235
tp236
a(I186
I84
I0
S'full'
p237
tp238
as(S'ce'
p239
S'cream'
p240
S'sandwich'
p241
tp242
(lp243
(I356
I2
I0
S'own'
p244
tp245
as(S'waste'
p246
S'of'
p247
S'money'
p248
tp249
(lp250
(I163
I0
I0
S'total'
p251
tp252
a(I341
I2
F0.25
S'polished'
p253
tp254
as(S'good'
p255
tp256
(lp257
(I166
I5
F1.0
S'good'
p258
tp259
a(I306
I0
F1.0
S'good'
p260
tp261
a(I306
I0
F1.0
S'good'
p262
tp263
a(I306
I0
F1.0
S'good'
p264
tp265
a(I306
I0
F1.0
S'good'
p266
tp267
as(S'card'
p268
tp269
(lp270
(I27
I21
F0.375
g152
tp271
a(I138
I3
F-0.625
S'other'
p272
tp273
a(I233
I4
F-0.125
S'mine'
p274
tp275
a(I283
I12
F0.875
g154
tp276
a(I310
I11
I0
g226
tp277
as(S'love'
p278
tp279
(lp280
(I162
I5
F0.375
S'alive'
p281
tp282
as(S'wifi'
p283
tp284
(lp285
(I27
I8
F0.5
S'strong'
p286
tp287
a(I299
I8
I0
S'hot'
p288
tp289
as(S'skin'
p290
S'and'
p291
S'battery'
p292
tp293
(lp294
(I171
I13
F-0.375
S'pull'
p295
tp296
as(S'fast'
p297
tp298
(lp299
(I64
I1
I0
S'very'
p300
tp301
a(I230
I1
F0.875
S'attractive'
p302
tp303
a(I294
I1
F0.375
S'extra'
p304
tp305
a(I310
I5
F0.625
S'easy'
p306
tp307
a(I328
I4
F-0.125
S'super'
p308
tp309
as(S'times'
p310
tp311
(lp312
(I33
I0
F-0.125
S'overall'
p313
tp314
a(I72
I3
F-0.875
S'stuck'
p315
tp316
a(I114
I5
I0
S'more'
p317
tp318
a(I122
I1
I0
S'few'
p319
tp320
a(I193
I2
F0.5
S'odd'
p321
tp322
a(I270
I2
I0
S'more'
p323
tp324
a(I290
I1
I0
S'least'
p325
tp326
a(I290
I1
F-0.5
S'less'
p327
tp328
a(I346
I11
I0
S'more'
p329
tp330
as(S'problem'
p331
tp332
(lp333
(I0
I6
F0.25
S'main'
p334
tp335
a(I0
I7
I0
S'relevant'
p336
tp337
a(I5
I8
I0
S'only'
p338
tp339
a(I32
I1
I0
S'common'
p340
tp341
a(I111
I5
I0
S'common'
p342
tp343
a(I111
I8
I0
S'more'
p344
tp345
a(I111
I8
F0.25
S'recent'
p346
tp347
a(I150
I4
I0
S'only'
p348
tp349
a(I178
I0
F0.25
S'biggest'
p350
tp351
a(I186
I75
I0
S'solved'
p352
tp353
a(I186
I81
F-0.875
S'negative'
p354
tp355
a(I240
I1
F0.5
S'recommended'
p356
tp357
a(I254
I0
F0.625
S'necessary'
p358
tp359
a(I254
I0
I0
S'american'
p360
tp361
a(I271
I12
F0.25
S'biggest'
p362
tp363
a(I271
I14
F0.625
S'major'
p364
tp365
a(I275
I0
I0
S'big'
p366
tp367
a(I317
I0
I0
S'common'
p368
tp369
a(I320
I3
F-0.625
S'want'
p370
tp371
a(I320
I3
F-0.25
S'google'
p372
tp373
as(S'smartphone'
p374
tp375
(lp376
(I37
I0
I0
S'great'
p377
tp378
a(I108
I2
F1.0
S'good'
p379
tp380
a(I126
I0
F0.125
S'first'
p381
tp382
a(I173
I0
F0.125
S'first'
p383
tp384
a(I185
I0
F1.0
S'good'
p385
tp386
a(I296
I1
F0.125
S'first'
p387
tp388
a(I347
I7
F0.875
S'happy'
p389
tp390
a(I347
I7
F-0.625
S'other'
p391
tp392
a(I368
I0
F1.0
S'best'
p393
tp394
as(S'price'
p395
tp396
(lp397
(I2
I0
I0
S'great'
p398
tp399
a(I8
I1
I0
S'great'
p400
tp401
a(I22
I1
F-0.25
S'low'
p402
tp403
a(I44
I0
F0.75
S'worth'
p404
tp405
a(I44
I0
I0
S'least'
p406
tp407
a(I55
I0
F1.0
S'good'
p408
tp409
a(I57
I0
F-0.375
S'small'
p410
tp411
a(I69
I1
F0.125
S'practical'
p412
tp413
a(I69
I1
F0.625
S'easy'
p414
tp415
a(I104
I1
F-0.25
S'low'
p416
tp417
a(I171
I57
F-0.25
S'higher'
p418
tp419
a(I186
I43
I0
S'high'
p420
tp421
a(I197
I4
F0.75
S'worth'
p422
tp423
a(I207
I0
I0
S'great'
p424
tp425
a(I222
I1
F1.0
S'good'
p426
tp427
a(I222
I1
F1.0
S'good'
p428
tp429
a(I264
I1
I0
S'more'
p430
tp431
a(I285
I0
F1.0
S'best'
p432
tp433
a(I337
I0
I0
S'same'
p434
tp435
a(I343
I9
I0
S'full'
p436
tp437
a(I345
I9
F1.0
S'best'
p438
tp439
a(I368
I2
F0.625
S'beat'
p440
tp441
as(S'service'
p442
tp443
(lp444
(I19
I2
F0.875
S'nice'
p445
tp446
a(I27
I8
I0
S'full'
p447
tp448
a(I58
I2
F-0.5
S'poor'
p449
tp450
a(I81
I0
F-0.625
S'bad'
p451
tp452
a(I84
I0
I0
S'current'
p453
tp454
a(I130
I0
I0
S'great'
p455
tp456
a(I148
I0
F1.0
S'good'
p457
tp458
a(I186
I52
F0.25
S'main'
p459
tp460
as(S'finger'
p461
S'print'
p462
S'scanner'
p463
tp464
(lp465
(I11
I2
I0
S'finger'
p466
tp467
a(I11
I2
I0
S'great'
p468
tp469
a(I358
I1
I0
S'finger'
p470
tp471
as(S'front'
p472
S'facing'
p473
S'camera'
p474
tp475
(lp476
(I257
I13
F1.0
S'best'
p477
tp478
as(S'product'
p479
tp480
(lp481
(I2
I0
F1.0
S'good'
p482
tp483
a(I3
I3
F0.375
S'complete'
p484
tp485
a(I67
I0
F-0.25
S'late'
p486
tp487
a(I107
I0
F1.0
S'good'
p488
tp489
a(I155
I12
F-0.5
S'long'
p490
tp491
a(I189
I5
F-0.125
S'overall'
p492
tp493
a(I210
I0
F0.5
S'compatible'
p494
tp495
a(I223
I0
I0
S'great'
p496
tp497
a(I251
I2
F0.375
S'new'
p498
tp499
a(I252
I3
F0.5
S'expensive'
p500
tp501
a(I322
I0
I0
S'great'
p502
tp503
a(I354
I0
F1.0
S'good'
p504
tp505
a(I363
I0
F-0.125
S'super'
p506
tp507
a(I363
I0
I0
S'full'
p508
tp509
a(I363
I0
F1.0
S'good'
p510
tp511
a(I363
I0
F-0.625
S'addictive'
p512
tp513
as(S'market'
p514
tp515
(lp516
(I114
I3
I0
S'android'
p517
tp518
a(I162
I33
F1.0
S'good'
p519
tp520
a(I261
I1
I0
S'oriental'
p521
tp522
a(I275
I0
F1.0
S'better'
p523
tp524
a(I275
I0
I0
S'only'
p525
tp526
a(I275
I0
F-0.25
S'disappointed'
p527
tp528
a(I305
I2
I0
S'asian'
p529
tp530
a(I338
I0
F0.125
S'first'
p531
tp532
a(I346
I7
I0
S'internet'
p533
tp534
as(S'things'
p535
tp536
(lp537
(I13
I8
I0
S'many'
p538
tp539
a(I68
I9
F-0.625
S'other'
p540
tp541
a(I78
I41
F0.375
S'new'
p542
tp543
a(I78
I43
F0.375
S'loud'
p544
tp545
a(I212
I1
F0.875
S'important'
p546
tp547
a(I233
I3
I0
S'many'
p548
tp549
a(I233
I3
F-0.125
S'overall'
p550
tp551
a(I257
I19
F-0.625
S'other'
p552
tp553
a(I308
I0
I0
S'many'
p554
tp555
a(I369
I11
F0.25
S'favorite'
p556
tp557
as(S'times'
p558
g137
S'day'
p559
tp560
(lp561
(I201
I0
F0.5
S'second'
p562
tp563
as(S'features'
p564
tp565
(lp566
(I68
I4
F0.375
S'friendly'
p567
tp568
a(I168
I16
F0.125
S'key'
p569
tp570
a(I186
I45
F-0.625
S'other'
p571
tp572
a(I186
I45
I0
S'great'
p573
tp574
a(I197
I0
I0
S'sturdy'
p575
tp576
a(I257
I9
F1.0
S'good'
p577
tp578
a(I257
I9
F0.875
S'nice'
p579
tp580
a(I257
I9
I0
S'such'
p581
tp582
a(I318
I0
F0.875
S'nice'
p583
tp584
a(I358
I1
I0
S'cool'
p585
tp586
as(S'power'
p587
tp588
(lp589
(I176
I12
I0
S'more'
p590
tp591
a(I186
I16
F-0.375
S'simple'
p592
tp593
a(I186
I44
I0
S'more'
p594
tp595
a(I239
I9
I0
S'real'
p596
tp597
a(I275
I0
F0.375
S'new'
p598
tp599
a(I360
I13
F-0.5
S'separate'
p600
tp601
as(S'months'
p602
S'of'
p603
S'use'
p604
tp605
(lp606
(I111
I2
F0.125
S'first'
p607
tp608
a(I111
I2
I0
S'few'
p609
tp610
a(I341
I6
I0
S'few'
p611
tp612
as(g137
S'long'
p613
S'time'
p614
tp615
(lp616
(I86
I8
F-0.5
S'long'
p617
tp618
a(I86
I8
I0
S'passerby'
p619
tp620
a(I104
I2
F-0.5
S'long'
p621
tp622
a(I167
I14
I0
S'same'
p623
tp624
a(I168
I31
F-0.5
S'long'
p625
tp626
a(I296
I14
F-0.5
S'long'
p627
tp628
as(S'android'
p629
tp630
(lp631
(I11
I1
F0.125
S'first'
p632
tp633
a(I11
I1
F-0.125
S'blackberry'
p634
tp635
a(I168
I9
I0
S'standard'
p636
tp637
a(I168
I18
F1.0
S'best'
p638
tp639
a(I230
I5
F1.0
S'best'
p640
tp641
a(I239
I0
I0
S'fourth'
p642
tp643
a(I239
I4
F0.125
S'native'
p644
tp645
a(I335
I5
F0.125
S'first'
p646
tp647
a(I346
I10
I0
S'sandwich'
p648
tp649
a(I372
I1
F0.125
S'first'
p650
tp651
as(S't'
p652
S'came'
p653
S'n'
p654
tp655
(lp656
(I310
I0
I0
S'great'
p657
tp658
as(S'thing'
p659
tp660
(lp661
(I39
I0
I0
S'only'
p662
tp663
a(I61
I12
I0
S'only'
p664
tp665
a(I61
I12
F1.0
S'good'
p666
tp667
a(I78
I23
I0
S'same'
p668
tp669
a(I83
I3
I0
S'only'
p670
tp671
a(I86
I6
I0
S'same'
p672
tp673
a(I86
I8
F0.125
S'last'
p674
tp675
a(I104
I2
I0
S'only'
p676
tp677
a(I116
I1
I0
S'only'
p678
tp679
a(I118
I2
F-0.625
S'bad'
p680
tp681
a(I136
I12
I0
S'only'
p682
tp683
a(I136
I12
F1.0
S'good'
p684
tp685
a(I137
I4
I0
S'great'
p686
tp687
a(I155
I7
I0
S'only'
p688
tp689
a(I162
I29
I0
S'only'
p690
tp691
a(I162
I29
F0.125
S'able'
p692
tp693
a(I162
I33
I0
S'next'
p694
tp695
a(I162
I33
F0.375
S'new'
p696
tp697
a(I171
I19
I0
S'same'
p698
tp699
a(I175
I2
I0
S'only'
p700
tp701
a(I186
I67
I0
S'same'
p702
tp703
a(I186
I88
F1.0
S'good'
p704
tp705
a(I264
I1
I0
S'only'
p706
tp707
a(I270
I2
I0
S'same'
p708
tp709
a(I285
I0
I0
S'only'
p710
tp711
a(I287
I10
F0.125
S'first'
p712
tp713
a(I294
I18
I0
S'jan'
p714
tp715
a(I296
I5
F0.125
S'first'
p716
tp717
a(I296
I5
F0.375
S'working'
p718
tp719
a(I296
I7
I0
S'next'
p720
tp721
a(I303
I3
F-0.75
S'dependent'
p722
tp723
a(I331
I0
F1.0
S'good'
p724
tp725
a(I334
I3
I0
S'only'
p726
tp727
a(I341
I5
I0
S'same'
p728
tp729
as(S'data'
p730
tp731
(lp732
(I22
I1
F-0.375
S'small'
p733
tp734
a(I125
I3
I0
S'cable'
p735
tp736
a(I186
I34
F0.125
S'able'
p737
tp738
a(I320
I2
I0
S'cable'
p739
tp740
as(S'micro'
p741
S'sd'
p742
S'card'
p743
tp744
(lp745
(I27
I21
F0.375
g152
tp746
as(S'about'
p747
S'3'
p748
S'months'
p749
tp750
(lp751
(I266
I0
F-0.75
S'little'
p752
tp753
as(S'hours'
p754
tp755
(lp756
(I168
I35
I0
S'few'
p757
tp758
a(I168
I35
I0
S'most'
p759
tp760
a(I171
I25
I0
S'few'
p761
tp762
a(I171
I33
I0
S'few'
p763
tp764
a(I171
I38
I0
S'few'
p765
tp766
a(I178
I0
F0.125
S'last'
p767
tp768
a(I178
I0
I0
S'more'
p769
tp770
a(I178
I3
I0
S'few'
p771
tp772
a(I186
I5
I0
S'few'
p773
tp774
a(I186
I5
I0
S'few'
p775
tp776
a(I186
I5
F0.5
S'whole'
p777
tp778
a(I367
I3
F0.875
S'music'
p779
tp780
as(S'work'
p781
tp782
(lp783
(I17
I1
F0.125
S'first'
p784
tp785
a(I108
I1
F-0.25
S'cheaper'
p786
tp787
a(I257
I7
F0.375
S'much'
p788
tp789
a(I355
I1
F-0.625
S'glad'
p790
tp791
as(g137
S'factory'
p792
S'reset'
p793
tp794
(lp795
(I25
I3
F-0.75
S'dead'
p796
tp797
a(I25
I3
F-0.875
S'hard'
p798
tp799
a(I114
I8
F-0.875
S'hard'
p800
tp801
a(I283
I7
I0
S'january'
p802
tp803
a(I287
I1
I0
S'full'
p804
tp805
as(S'with'
p806
S'motorola'
p807
S'atrix'
p808
tp809
(lp810
(I27
I10
F-0.875
g23
tp811
a(I320
I2
F0.375
g57
tp812
a(I361
I20
F0.125
g61
tp813
a(I361
I20
F0.125
g63
tp814
as(S'battery'
p815
S'life'
p816
tp817
(lp818
(I115
I4
F-0.625
S'bad'
p819
tp820
a(I168
I39
F-0.75
S'dependent'
p821
tp822
a(I168
I39
F1.0
S'best'
p823
tp824
a(I174
I0
F0.625
S'easy'
p825
tp826
a(I186
I53
I0
S'normal'
p827
tp828
a(I186
I54
F-0.5
S'poor'
p829
tp830
a(I186
I54
F-0.75
S'shorter'
p831
tp832
a(I206
I1
I0
S'great'
p833
tp834
a(I271
I18
F-0.5
S'longer'
p835
tp836
a(I287
I0
I0
S'great'
p837
tp838
a(I299
I7
F-0.5
S'long'
p839
tp840
a(I345
I5
F1.0
S'good'
p841
tp842
a(I345
I6
F1.0
S'better'
p843
tp844
a(I351
I7
F1.0
S'good'
p845
tp846
a(I360
I5
F-0.625
S'average'
p847
tp848
as(S'bought'
p849
tp850
(lp851
(I35
I6
F0.375
S'cheaply'
p852
tp853
a(I370
I7
F-0.25
S'google'
p854
tp855
as(S'problems'
p856
tp857
(lp858
(I9
I0
I0
S'site'
p859
tp860
a(I82
I0
I0
S'operational'
p861
tp862
a(I158
I2
I0
S'more'
p863
tp864
a(I158
I3
F0.625
S'major'
p865
tp866
a(I222
I0
I0
S'fast'
p867
tp868
a(I272
I1
I0
S'east'
p869
tp870
a(I279
I1
F0.75
S'due'
p871
tp872
a(I283
I8
F0.625
S'easy'
p873
tp874
a(I316
I8
F-0.5
S'sure'
p875
tp876
a(I343
I4
F0.625
S'major'
p877
tp878
a(I343
I5
F0.625
S'major'
p879
tp880
a(I343
I5
I0
S'own'
p881
tp882
as(S'straight'
p883
S'talk'
p884
tp885
(lp886
(I20
I0
F0.625
S'straight'
p887
tp888
a(I196
I0
F0.625
S'straight'
p889
tp890
a(I196
I4
I0
S'same'
p891
tp892
a(I196
I4
F-0.625
S'bad'
p893
tp894
a(I313
I2
F0.625
S'straight'
p895
tp896
a(I327
I2
F0.625
S'straight'
p897
tp898
a(I366
I7
F0.625
S'straight'
p899
tp900
a(I366
I10
F0.625
S'straight'
p901
tp902
a(I366
I12
F0.625
S'straight'
p903
tp904
as(S'life'
p905
tp906
(lp907
(I13
I12
F0.375
S'much'
p908
tp909
a(I115
I4
F-0.625
g819
tp910
a(I168
I39
F-0.75
g821
tp911
a(I186
I53
I0
g827
tp912
a(I186
I54
F-0.75
g831
tp913
a(I271
I18
F-0.5
g835
tp914
a(I299
I7
F-0.5
g839
tp915
a(I335
I7
F-0.5
S'long'
p916
tp917
a(I345
I5
F1.0
g841
tp918
a(I360
I5
F-0.625
g847
tp919
as(S'dual'
p920
S'core'
p921
tp922
(lp923
(I154
I1
I0
S'great'
p924
tp925
as(S'fingerprint'
p926
tp927
(lp928
(I360
I13
F-0.5
g179
tp929
as(S'for'
p930
S'motorola'
p931
S'atrix'
p932
tp933
(lp934
(I167
I7
F0.5
g41
tp935
a(I168
I61
F-0.25
S'past'
p936
tp937
a(I287
I20
F-0.25
S'potential'
p938
tp939
a(I361
I20
F0.125
g61
tp940
a(I361
I20
F0.125
g63
tp941
as(S'battery'
p942
tp943
(lp944
(I1
I0
F-0.75
S'worse'
p945
tp946
a(I11
I10
F0.25
S'eat'
p947
tp948
a(I11
I11
F0.625
S'removable'
p949
tp950
a(I20
I1
F0.375
S'new'
p951
tp952
a(I26
I5
F-0.75
S'little'
p953
tp954
a(I26
I6
I0
S'more'
p955
tp956
a(I78
I46
I0
S'full'
p957
tp958
a(I110
I1
F0.125
S'last'
p959
tp960
a(I140
I4
I0
S'numeric'
p961
tp962
a(I158
I1
F0.625
S'removable'
p963
tp964
a(I162
I3
F0.625
S'removable'
p965
tp966
a(I168
I34
I0
S'most'
p967
tp968
a(I168
I34
F-0.375
S'daily'
p969
tp970
a(I168
I39
F1.0
g823
tp971
a(I171
I11
I0
S'full'
p972
tp973
a(I171
I25
F-0.25
S'low'
p974
tp975
a(I171
I35
F0.875
S'happy'
p976
tp977
a(I171
I35
F0.375
S'new'
p978
tp979
a(I171
I53
F0.75
S'constant'
p980
tp981
a(I171
I65
F-0.75
S'dangerous'
p982
tp983
a(I173
I7
F0.625
S'aware'
p984
tp985
a(I174
I0
F0.625
g825
tp986
a(I176
I11
F0.375
S'new'
p987
tp988
a(I178
I2
I0
S'quick'
p989
tp990
a(I186
I54
F-0.5
g829
tp991
a(I186
I82
I0
S'least'
p992
tp993
a(I192
I1
F0.125
S'last'
p994
tp995
a(I206
I1
I0
g833
tp996
a(I208
I2
F-0.75
S'dead'
p997
tp998
a(I257
I3
I0
S'large'
p999
tp1000
a(I271
I15
F1.0
S'better'
p1001
tp1002
a(I281
I1
F0.125
S'last'
p1003
tp1004
a(I281
I1
F-0.5
S'long'
p1005
tp1006
a(I287
I0
I0
g837
tp1007
a(I290
I0
F0.125
S'received'
p1008
tp1009
a(I310
I11
F0.375
S'new'
p1010
tp1011
a(I314
I5
F0.125
S'last'
p1012
tp1013
a(I320
I1
I0
S'more'
p1014
tp1015
a(I345
I6
F1.0
g843
tp1016
a(I346
I5
F0.625
S'easy'
p1017
tp1018
a(I351
I7
F1.0
g845
tp1019
a(I358
I1
F1.0
S'good'
p1020
tp1021
a(I369
I14
F0.375
S'extended'
p1022
tp1023
as(S'samsung'
p1024
S'galaxy'
p1025
tp1026
(lp1027
(I257
I1
F-0.25
g142
tp1028
a(I294
I15
F1.0
g144
tp1029
a(I309
I0
I0
g146
tp1030
as(S'cell'
p1031
tp1032
(lp1033
(I17
I0
I0
S'great'
p1034
tp1035
a(I26
I0
I0
S'fourth'
p1036
tp1037
a(I26
I0
I0
S'fifth'
p1038
tp1039
a(I168
I18
F1.0
S'best'
p1040
tp1041
a(I168
I22
F0.125
S'digital'
p1042
tp1043
a(I186
I36
F0.375
S'new'
p1044
tp1045
a(I299
I5
I0
S'large'
p1046
tp1047
a(I314
I6
I0
S'fast'
p1048
tp1049
a(I339
I0
F0.125
S'first'
p1050
tp1051
a(I344
I0
F1.0
S'best'
p1052
tp1053
as(S'calls'
p1054
tp1055
(lp1056
(I245
I0
I0
S'predictable'
p1057
tp1058
a(I287
I7
F0.875
S'music'
p1059
tp1060
a(I313
I1
F0.5
S'clear'
p1061
tp1062
a(I346
I9
F1.0
S'good'
p1063
tp1064
a(I360
I3
I0
S'few'
p1065
tp1066
a(I360
I3
F-0.25
S'dropped'
p1067
tp1068
as(S'update'
p1069
tp1070
(lp1071
(I155
I5
F0.125
S'last'
p1072
tp1073
a(I155
I5
F1.0
S'good'
p1074
tp1075
a(I291
I2
I0
S'gingerbread'
p1076
tp1077
a(I369
I1
F0.25
S'recent'
p1078
tp1079
a(I369
I1
I0
S'more'
p1080
tp1081
a(I369
I1
F0.5
S'accurate'
p1082
tp1083
as(S'atrix'
p1084
tp1085
(lp1086
(I22
I16
F0.125
S'first'
p1087
tp1088
a(I52
I0
F0.375
S'new'
p1089
tp1090
a(I52
I0
F0.375
S'new'
p1091
tp1092
a(I118
I0
F1.0
S'good'
p1093
tp1094
a(I131
I0
F0.125
S'last'
p1095
tp1096
a(I137
I1
I0
S'faster'
p1097
tp1098
a(I162
I9
F0.375
S'new'
p1099
tp1100
a(I162
I18
F0.5
S'compatible'
p1101
tp1102
a(I162
I18
F0.625
S'aware'
p1103
tp1104
a(I162
I34
F-0.125
S'overall'
p1105
tp1106
a(I162
I34
F0.875
S'happy'
p1107
tp1108
a(I168
I2
F1.0
S'best'
p1109
tp1110
a(I168
I5
F1.0
S'best'
p1111
tp1112
a(I168
I55
I0
S'automatic'
p1113
tp1114
a(I168
I61
F-0.25
g936
tp1115
a(I171
I6
I0
S'android'
p1116
tp1117
a(I176
I0
F0.375
S'new'
p1118
tp1119
a(I186
I76
I0
S'appear'
p1120
tp1121
a(I255
I2
I0
S'old'
p1122
tp1123
a(I256
I10
F0.75
S'worth'
p1124
tp1125
a(I257
I10
F0.75
S'beautiful'
p1126
tp1127
a(I257
I13
F-0.25
S'low'
p1128
tp1129
a(I283
I20
F-0.5
S'sure'
p1130
tp1131
a(I287
I2
F-0.75
S'unreliable'
p1132
tp1133
a(I287
I20
F-0.25
g938
tp1134
a(I310
I8
F1.0
S'better'
p1135
tp1136
a(I327
I5
F-0.5
S'complaint'
p1137
tp1138
as(S'warranty'
p1139
tp1140
(lp1141
(I20
I1
F-0.5
S'tried'
p1142
tp1143
a(I61
I4
F0.375
S'new'
p1144
tp1145
a(I61
I13
F0.25
S'original'
p1146
tp1147
a(I61
I19
I0
S'such'
p1148
tp1149
a(I136
I4
F0.375
S'new'
p1150
tp1151
a(I136
I13
F0.25
S'original'
p1152
tp1153
a(I136
I19
I0
S'such'
p1154
tp1155
a(I296
I9
F-0.25
S'past'
p1156
tp1157
as(S'core'
p1158
tp1159
(lp1160
(I154
I1
I0
g924
tp1161
as(S'time'
p1162
tp1163
(lp1164
(I13
I5
I0
S'same'
p1165
tp1166
a(I59
I0
I0
S'more'
p1167
tp1168
a(I72
I3
F-0.75
S'impossible'
p1169
tp1170
a(I85
I4
F0.125
S'first'
p1171
tp1172
a(I86
I0
F-0.75
S'short'
p1173
tp1174
a(I86
I8
F-0.5
g617
tp1175
a(I86
I8
I0
g619
tp1176
a(I104
I2
F-0.5
g621
tp1177
a(I114
I5
F0.375
S'much'
p1178
tp1179
a(I158
I22
I0
S'next'
p1180
tp1181
a(I167
I14
I0
g623
tp1182
a(I168
I31
F-0.5
g625
tp1183
a(I168
I37
I0
S'most'
p1184
tp1185
a(I168
I40
F0.125
S'first'
p1186
tp1187
a(I168
I50
F-0.75
S'little'
p1188
tp1189
a(I168
I55
I0
S'most'
p1190
tp1191
a(I171
I18
F-0.75
S'short'
p1192
tp1193
a(I171
I18
I0
S'later'
p1194
tp1195
a(I171
I20
F-0.75
S'short'
p1196
tp1197
a(I171
I22
I0
S'more'
p1198
tp1199
a(I186
I35
F0.125
S'first'
p1200
tp1201
a(I200
I0
I0
S'arrive'
p1202
tp1203
a(I296
I14
F-0.5
g627
tp1204
a(I310
I10
F0.75
S'due'
p1205
tp1206
a(I317
I1
I0
S'next'
p1207
tp1208
a(I318
I0
I0
S'same'
p1209
tp1210
a(I330
I0
I0
S'third'
p1211
tp1212
a(I330
I3
I0
S'same'
p1213
tp1214
a(I337
I1
I0
S'same'
p1215
tp1216
a(I342
I0
F0.125
S'first'
p1217
tp1218
a(I349
I0
F0.125
S'first'
p1219
tp1220
a(I349
I0
F0.125
S'first'
p1221
tp1222
a(I351
I6
I0
S'great'
p1223
tp1224
a(I361
I3
I0
S'most'
p1225
tp1226
a(I367
I4
F1.0
S'good'
p1227
tp1228
as(S'eacute'
p1229
S'fono'
p1230
tp1231
(lp1232
(I16
I1
F-0.5
g215
tp1233
as(S'months'
p1234
tp1235
(lp1236
(I15
I1
I0
S'few'
p1237
tp1238
a(I26
I4
I0
S'few'
p1239
tp1240
a(I96
I1
I0
S'later'
p1241
tp1242
a(I111
I2
F0.125
g607
tp1243
a(I111
I2
I0
g609
tp1244
a(I145
I0
I0
S'few'
p1245
tp1246
a(I171
I36
I0
S'few'
p1247
tp1248
a(I186
I0
I0
S'few'
p1249
tp1250
a(I205
I0
I0
S'great'
p1251
tp1252
a(I256
I6
I0
S'later'
p1253
tp1254
a(I266
I0
F-0.75
g752
tp1255
a(I303
I3
I0
S'few'
p1256
tp1257
a(I316
I2
F0.375
S'new'
p1258
tp1259
a(I316
I2
F0.375
S'worked'
p1260
tp1261
a(I341
I6
I0
g611
tp1262
a(I343
I5
I0
S'more'
p1263
tp1264
a(I353
I2
I0
S'few'
p1265
tp1266
a(I353
I4
I0
S'few'
p1267
tp1268
as(g748
S'months'
p1269
tp1270
(lp1271
(I205
I0
I0
g1251
tp1272
a(I266
I0
F-0.75
g752
tp1273
as(S'touch'
p1274
S'screen'
p1275
tp1276
(lp1277
(I24
I1
I0
g83
tp1278
a(I25
I2
F0.5
S'touch'
p1279
tp1280
a(I34
I4
F0.5
S'touch'
p1281
tp1282
a(I59
I0
F1.0
S'best'
p1283
tp1284
a(I135
I1
I0
S'anymore'
p1285
tp1286
a(I158
I16
F0.5
S'touch'
p1287
tp1288
a(I173
I5
F0.375
g87
tp1289
a(I176
I2
F0.125
g89
tp1290
a(I189
I5
F0.5
S'touch'
p1291
tp1292
a(I246
I2
F0.5
S'touch'
p1293
tp1294
a(I246
I2
I0
S'more'
p1295
tp1296
a(I249
I1
F0.5
S'touch'
p1297
tp1298
a(I257
I2
F0.75
S'beautiful'
p1299
tp1300
a(I257
I2
F-0.25
S'thin'
p1301
tp1302
a(I257
I2
I0
S'capacitive'
p1303
tp1304
a(I341
I4
F0.75
g91
tp1305
a(I341
I5
F0.5
S'touch'
p1306
tp1307
a(I343
I6
F0.5
S'touch'
p1308
tp1309
a(I351
I27
F0.5
S'touch'
p1310
tp1311
as(S'year'
p1312
tp1313
(lp1314
(I6
I1
F0.125
S'last'
p1315
tp1316
a(I11
I7
F0.25
S'bigger'
p1317
tp1318
a(I11
I7
F1.0
S'better'
p1319
tp1320
a(I11
I7
I0
S'faster'
p1321
tp1322
a(I11
I7
I0
S'old'
p1323
tp1324
a(I122
I4
I0
S'old'
p1325
tp1326
a(I158
I13
I0
S'old'
p1327
tp1328
a(I171
I33
I0
S'anniversary'
p1329
tp1330
a(I189
I5
I0
S'later'
p1331
tp1332
a(I197
I1
F0.125
S'first'
p1333
tp1334
a(I197
I2
F-0.25
S'past'
p1335
tp1336
a(I239
I0
F0.125
S'last'
p1337
tp1338
a(I341
I4
F0.125
S'first'
p1339
tp1340
a(I343
I10
F-0.5
S'less'
p1341
tp1342
as(S'screen'
p1343
tp1344
(lp1345
(I7
I0
F-0.75
S'bright'
p1346
tp1347
a(I22
I4
F0.25
S'larger'
p1348
tp1349
a(I22
I9
I0
S'large'
p1350
tp1351
a(I22
I12
F0.25
S'larger'
p1352
tp1353
a(I25
I2
F0.5
g1279
tp1354
a(I34
I4
F0.5
g1281
tp1355
a(I40
I7
F-0.125
S'present'
p1356
tp1357
a(I53
I5
F0.875
S'nice'
p1358
tp1359
a(I59
I0
F1.0
g1283
tp1360
a(I93
I0
F-0.75
S'damaged'
p1361
tp1362
a(I135
I1
I0
g1285
tp1363
a(I158
I16
F0.5
g1287
tp1364
a(I168
I54
I0
S'great'
p1365
tp1366
a(I173
I3
I0
S'big'
p1367
tp1368
a(I173
I6
F-0.625
S'clean'
p1369
tp1370
a(I176
I4
F-0.25
S'plugged'
p1371
tp1372
a(I186
I6
F0.25
S'responsive'
p1373
tp1374
a(I189
I5
F0.5
g1291
tp1375
a(I200
I0
F0.25
S'responsive'
p1376
tp1377
a(I200
I0
F0.5
S'elegant'
p1378
tp1379
a(I204
I0
F-0.625
S'light'
p1380
tp1381
a(I204
I0
I0
S'big'
p1382
tp1383
a(I238
I1
F0.5
S'rate'
p1384
tp1385
a(I238
I1
F-0.875
S'negative'
p1386
tp1387
a(I246
I2
F0.5
g1293
tp1388
a(I246
I2
I0
g1295
tp1389
a(I249
I1
F0.5
g1297
tp1390
a(I257
I2
F0.75
g1299
tp1391
a(I257
I2
F-0.25
g1301
tp1392
a(I257
I2
I0
g1303
tp1393
a(I286
I1
I0
S'great'
p1394
tp1395
a(I286
I1
F-0.125
S'slow'
p1396
tp1397
a(I286
I4
F0.25
S'larger'
p1398
tp1399
a(I325
I1
I0
S'big'
p1400
tp1401
a(I325
I1
F-0.375
S'smaller'
p1402
tp1403
a(I327
I7
F0.25
S'larger'
p1404
tp1405
a(I327
I7
I0
S'incredible'
p1406
tp1407
a(I330
I5
F-0.75
S'worse'
p1408
tp1409
a(I334
I1
I0
S'wide'
p1410
tp1411
a(I335
I1
I0
S'large'
p1412
tp1413
a(I341
I5
F0.5
g1306
tp1414
a(I343
I6
F0.5
g1308
tp1415
a(I345
I2
I0
S'large'
p1416
tp1417
a(I351
I27
F0.5
g1310
tp1418
a(I351
I28
F-0.625
S'clean'
p1419
tp1420
a(I351
I28
I0
S'normal'
p1421
tp1422
a(I361
I2
F0.5
S'clear'
p1423
tp1424
a(I367
I4
F1.0
S'good'
p1425
tp1426
as(S'one'
p1427
S'of'
p1428
S'm'
p1429
tp1430
(lp1431
(I334
I0
F0.875
S'happy'
p1432
tp1433
as(S'camera'
p1434
tp1435
(lp1436
(I0
I4
F1.0
S'good'
p1437
tp1438
a(I22
I4
F1.0
S'better'
p1439
tp1440
a(I46
I3
F1.0
S'good'
p1441
tp1442
a(I55
I1
F1.0
S'good'
p1443
tp1444
a(I68
I5
F1.0
S'good'
p1445
tp1446
a(I122
I2
F0.75
S'competent'
p1447
tp1448
a(I123
I2
I0
S'great'
p1449
tp1450
a(I168
I25
I0
S'adequate'
p1451
tp1452
a(I207
I0
I0
S'great'
p1453
tp1454
a(I233
I2
F1.0
S'good'
p1455
tp1456
a(I257
I13
F1.0
g477
tp1457
a(I294
I19
F1.0
S'good'
p1458
tp1459
a(I318
I0
F1.0
S'best'
p1460
tp1461
a(I329
I27
F1.0
S'good'
p1462
tp1463
a(I346
I10
F1.0
S'best'
p1464
tp1465
a(I347
I0
F0.875
S'nice'
p1466
tp1467
a(I351
I11
F1.0
S'good'
p1468
tp1469
a(I357
I0
I0
S'great'
p1470
tp1471
a(I360
I10
F-0.75
S'sufficient'
p1472
tp1473
a(I367
I4
I0
S'great'
p1474
tp1475
a(I368
I1
I0
S'rear'
p1476
tp1477
a(I369
I7
F1.0
S'good'
p1478
tp1479
as(S'using'
p1480
tp1481
(lp1482
(I346
I2
F-0.625
S'average'
p1483
tp1484
as(S'dock'
p1485
tp1486
(lp1487
(I22
I6
I0
S'standard'
p1488
tp1489
a(I283
I18
I0
S'standard'
p1490
tp1491
as(S'motoblur'
p1492
tp1493
(lp1494
(I168
I58
F0.125
S'first'
p1495
tp1496
as(S'factory'
p1497
S'reset'
p1498
tp1499
(lp1500
(I25
I3
F-0.75
g796
tp1501
a(I25
I3
F-0.875
g798
tp1502
a(I114
I8
F-0.875
g800
tp1503
a(I283
I7
I0
g802
tp1504
a(I287
I1
I0
g804
tp1505
as(S'works'
p1506
tp1507
(lp1508
(I18
I0
I0
S'great'
p1509
tp1510
a(I103
I0
F0.375
S'new'
p1511
tp1512
a(I129
I1
I0
S'great'
p1513
tp1514
a(I173
I3
F1.0
S'good'
p1515
tp1516
a(I183
I0
I0
S'fast'
p1517
tp1518
a(I183
I0
I0
S'great'
p1519
tp1520
a(I186
I18
F1.0
S'good'
p1521
tp1522
a(I231
I0
I0
S'great'
p1523
tp1524
a(I271
I3
I0
S'great'
p1525
tp1526
a(I275
I0
I0
S'great'
p1527
tp1528
a(I278
I0
I0
S'great'
p1529
tp1530
a(I325
I1
F1.0
S'good'
p1531
tp1532
a(I328
I6
F0.625
S'easy'
p1533
tp1534
as(S'better'
p1535
tp1536
(lp1537
(I356
I4
F0.375
S'much'
p1538
tp1539
as(S'device'
p1540
tp1541
(lp1542
(I69
I1
F1.0
S'good'
p1543
tp1544
a(I114
I10
I0
S'great'
p1545
tp1546
a(I114
I12
F-0.625
S'other'
p1547
tp1548
a(I186
I58
I0
S'android'
p1549
tp1550
a(I213
I3
I0
S'great'
p1551
tp1552
a(I241
I1
F-0.625
S'bad'
p1553
tp1554
a(I279
I0
F1.0
S'good'
p1555
tp1556
a(I287
I19
I0
S'android'
p1557
tp1558
a(I287
I20
I0
S'great'
p1559
tp1560
a(I312
I0
F1.0
S'good'
p1561
tp1562
a(I316
I2
I0
S'more'
p1563
tp1564
a(I316
I2
F-0.875
S'trouble'
p1565
tp1566
a(I316
I8
I0
S'old'
p1567
tp1568
a(I332
I0
I0
S'most'
p1569
tp1570
as(S'good'
p1571
S'good'
p1572
S'good'
p1573
tp1574
(lp1575
(I166
I5
F1.0
g258
tp1576
a(I306
I0
F1.0
g260
tp1577
a(I306
I0
F1.0
g262
tp1578
a(I306
I0
F1.0
g264
tp1579
a(I306
I0
F1.0
g266
tp1580
as(S'motorola'
p1581
S'atrix'
p1582
tp1583
(lp1584
(I27
I10
F-0.875
g23
tp1585
a(I118
I0
F1.0
g1093
tp1586
a(I131
I0
F0.125
g1095
tp1587
a(I137
I1
I0
g1097
tp1588
a(I167
I7
F0.5
g41
tp1589
a(I168
I61
F-0.25
g936
tp1590
a(I256
I10
F0.75
g1124
tp1591
a(I287
I20
F-0.25
g938
tp1592
a(I320
I2
F0.375
g57
tp1593
a(I361
I20
F0.125
g61
tp1594
a(I361
I20
F0.125
g63
tp1595
as(g137
S'new'
p1596
S'battery'
p1597
tp1598
(lp1599
(I20
I1
F0.375
g951
tp1600
a(I171
I35
F0.875
g976
tp1601
a(I171
I35
F0.375
g978
tp1602
a(I176
I11
F0.375
g987
tp1603
a(I310
I11
F0.375
g1010
tp1604
as(S'charger'
p1605
tp1606
(lp1607
(I251
I1
I0
S'generic'
p1608
tp1609
as(S'apps'
p1610
tp1611
(lp1612
(I7
I1
F-0.625
S'free'
p1613
tp1614
a(I13
I11
I0
S'multiple'
p1615
tp1616
a(I27
I26
F-0.625
S'other'
p1617
tp1618
a(I27
I26
F0.875
S'music'
p1619
tp1620
a(I122
I3
I0
S'many'
p1621
tp1622
a(I168
I65
I0
S'own'
p1623
tp1624
a(I179
I2
F-0.75
S'impossible'
p1625
tp1626
a(I180
I3
F0.375
S'much'
p1627
tp1628
a(I180
I3
F-0.625
S'other'
p1629
tp1630
a(I186
I26
I0
S'few'
p1631
tp1632
a(I256
I2
I0
S'close'
p1633
tp1634
a(I280
I6
F-0.25
S'google'
p1635
tp1636
a(I283
I9
I0
S'most'
p1637
tp1638
a(I283
I9
I0
S'android'
p1639
tp1640
a(I283
I10
I0
S'android'
p1641
tp1642
a(I283
I10
I0
S'most'
p1643
tp1644
a(I283
I10
I0
S'many'
p1645
tp1646
a(I294
I3
F-0.625
S'other'
p1647
tp1648
a(I294
I7
I0
S'more'
p1649
tp1650
a(I294
I14
F-0.5
S'open'
p1651
tp1652
a(I294
I14
F0.5
S'second'
p1653
tp1654
a(I351
I11
I0
S'such'
p1655
tp1656
a(I351
I17
I0
S'many'
p1657
tp1658
a(I361
I11
F0.25
S'professional'
p1659
tp1660
a(I361
I11
I0
S'more'
p1661
tp1662
a(I361
I11
F0.375
S'much'
p1663
tp1664
a(I361
I12
I0
S'android'
p1665
tp1666
as(S'days'
p1667
tp1668
(lp1669
(I20
I1
F0.125
S'first'
p1670
tp1671
a(I20
I1
I0
S'few'
p1672
tp1673
a(I27
I28
I0
S'great'
p1674
tp1675
a(I61
I9
I0
S'own'
p1676
tp1677
a(I114
I2
F0.125
S'first'
p1678
tp1679
a(I114
I3
F0.125
S'first'
p1680
tp1681
a(I136
I9
I0
S'own'
p1682
tp1683
a(I171
I39
I0
S'few'
p1684
tp1685
a(I171
I40
I0
S'few'
p1686
tp1687
a(I181
I2
F0.125
S'charger'
p1688
tp1689
a(I186
I50
I0
S'few'
p1690
tp1691
a(I186
I50
F0.625
S'prudent'
p1692
tp1693
a(I229
I4
I0
S'few'
p1694
tp1695
a(I235
I0
I0
S'few'
p1696
tp1697
a(I235
I0
I0
S'later'
p1698
tp1699
a(I331
I0
I0
S'asian'
p1700
tp1701
a(I331
I0
I0
S'european'
p1702
tp1703
as.