(dp0
(S'battery'
p1
S'life'
p2
tp3
(lp4
(I8
I4
F1.0
S'good'
p5
I1
tp6
a(I5
I12
F-0.5
S'poor'
p7
I15
tp8
a(I5
I43
F-0.75
S'wrong'
p9
I15
tp10
a(I5
I69
I0
S'more'
p11
I15
tp12
a(I8
I4
F1.0
g5
I15
tp13
as.