(dp0
(S'mobile'
p1
tp2
(lp3
(I17
I23
F1.0
S'good'
p4
I0
tp5
as(S'service'
p6
S'providers'
p7
tp8
(lp9
(I6
I35
I0
S'limited'
p10
I0
tp11
as(S'battery'
p12
S'life'
p13
tp14
(lp15
(I2
I14
F1.0
S'good'
p16
I1
tp17
a(I5
I5
F-0.5
S'longer'
p18
I1
tp19
a(I15
I19
F-0.5
S'less'
p20
I1
tp21
a(I17
I35
F1.0
S'good'
p22
I1
tp23
a(I17
I35
F0.375
S'similar'
p24
I1
tp25
a(I15
I19
F-0.5
g20
I19
tp26
a(I17
I35
F1.0
g22
I19
tp27
a(I17
I35
F0.375
g24
I19
tp28
a(I0
I19
F-0.5
S'longer'
p29
I15
tp30
a(I0
I19
I0
S'great'
p31
I15
tp32
a(I2
I14
F1.0
g16
I15
tp33
a(I5
I5
F-0.5
g18
I15
tp34
a(I6
I45
F1.0
S'good'
p35
I15
tp36
a(I15
I70
F-0.75
S'unable'
p37
I15
tp38
as(S'touchscreen'
p39
tp40
(lp41
(I10
I1
I0
S'full'
p42
I0
tp43
a(I15
I70
I0
S'touchscreen'
p44
I0
tp45
a(I15
I70
F-0.75
S'unresponsive'
p46
I0
tp47
as(S'physical'
p48
S'keys'
p49
tp50
(lp51
(I10
I1
I0
S'physical'
p52
I0
tp53
a(I10
I1
I0
S'physical'
p54
I0
tp55
a(I10
I14
I0
S'physical'
p56
I0
tp57
a(I10
I91
I0
S'physical'
p58
I0
tp59
as(S'smart'
p60
tp61
(lp62
(I10
I3
F0.5
S'true'
p63
I10
tp64
as(S'call'
p65
S'quality'
p66
tp67
(lp68
(I10
I4
I0
S'such'
p69
I0
tp70
as(S'keypad'
p71
tp72
(lp73
(I0
I26
F0.125
S'key'
p74
I0
tp75
a(I0
I26
I0
S'wide'
p76
I0
tp77
a(I0
I26
F1.0
S'good'
p78
I0
tp79
a(I6
I6
I0
S'weird'
p80
I0
tp81
a(I6
I6
F-0.875
S'hard'
p82
I0
tp83
a(I11
I11
F0.125
S'able'
p84
I0
tp85
as(S'apps'
p86
tp87
(lp88
(I10
I74
F0.375
S'available'
p89
I0
tp90
a(I15
I31
F-0.625
S'other'
p91
I0
tp92
a(I15
I37
I0
S'many'
p93
I0
tp94
a(I15
I40
F0.25
S'helpful'
p95
I0
tp96
as(S'few'
p97
S'days'
p98
tp99
(lp100
(I0
I39
I0
S'few'
p101
I10
tp102
a(I0
I46
I0
S'few'
p103
I10
tp104
a(I7
I25
I0
S'few'
p105
I10
tp106
as(S'nokia'
p107
S'x3'
p108
tp109
(lp110
(I7
I11
F0.375
S'similar'
p111
I0
tp112
a(I11
I5
F0.375
S'new'
p113
I0
tp114
a(I2
I13
F-0.625
S'sorry'
p115
I0
tp116
a(I6
I29
F0.625
S'perfect'
p117
I0
tp118
a(I7
I11
F0.375
g111
I0
tp119
a(I8
I0
I0
S'incredible'
p120
I0
tp121
a(I11
I1
I-100
S'outles/store'
p122
I0
tp123
a(I11
I14
F0.375
S'reliable'
p124
I0
tp125
a(I12
I1
F-0.75
S'wrong'
p126
I0
tp127
a(I15
I3
I0
S'incredible'
p128
I0
tp129
a(I15
I49
F-0.375
S'simple'
p130
I0
tp131
a(I15
I49
F0.5
S'elegant'
p132
I0
tp133
a(I15
I49
I0
S'mobile'
p134
I0
tp135
a(I15
I65
I0
S'particular'
p136
I0
tp137
as(S'camera'
p138
tp139
(lp140
(I6
I45
F-0.625
S'bad'
p141
I1
tp142
a(I15
I9
F0.375
S'much'
p143
I1
tp144
as(S'touch'
p145
S'screen'
p146
tp147
(lp148
(I0
I3
F0.5
S'touch'
p149
I2
tp150
a(I0
I4
F0.125
S'key'
p151
I2
tp152
a(I0
I4
F0.5
S'touch'
p153
I2
tp154
a(I0
I4
F-0.625
S'bad'
p155
I2
tp156
a(I0
I8
F0.5
S'touch'
p157
I2
tp158
a(I0
I9
F0.5
S'touch'
p159
I2
tp160
a(I0
I14
I0
S'resistive'
p161
I2
tp162
a(I0
I14
F0.25
S'responsive'
p163
I2
tp164
a(I0
I36
F0.25
S'consistent'
p165
I2
tp166
a(I0
I50
F0.5
S'touch'
p167
I2
tp168
a(I2
I1
F0.375
S'new'
p169
I2
tp170
a(I2
I1
F0.5
S'touch'
p171
I2
tp172
a(I2
I10
F0.125
S'key'
p173
I2
tp174
a(I2
I10
F0.5
S'touch'
p175
I2
tp176
a(I2
I10
F-0.625
S'bad'
p177
I2
tp178
a(I6
I9
F0.5
S'touch'
p179
I2
tp180
a(I6
I16
I0
S'basic'
p181
I2
tp182
a(I6
I45
I0
S'keyboard'
p183
I2
tp184
a(I6
I45
F0.5
S'touch'
p185
I2
tp186
a(I10
I0
F0.5
S'touch'
p187
I2
tp188
a(I10
I43
F-0.625
S'light'
p189
I2
tp190
a(I10
I44
F-0.5
S'sure'
p191
I2
tp192
a(I10
I44
I0
S'initial'
p193
I2
tp194
a(I11
I1
F-0.625
S'bad'
p195
I2
tp196
a(I11
I8
F-0.625
S'other'
p197
I2
tp198
a(I11
I8
F-0.5
S'heavy'
p199
I2
tp200
a(I11
I10
F0.5
S'touch'
p201
I2
tp202
a(I11
I25
F0.5
S'second'
p203
I2
tp204
a(I11
I25
F0.5
S'touch'
p205
I2
tp206
a(I11
I35
F-0.125
S'overall'
p207
I2
tp208
a(I17
I6
I0
S'immediate'
p209
I2
tp210
a(I17
I6
F0.5
S'touch'
p211
I2
tp212
a(I17
I7
F0.5
S'touch'
p213
I2
tp214
a(I17
I8
F0.5
S'touch'
p215
I2
tp216
a(I17
I12
F0.5
S'touch'
p217
I2
tp218
a(I17
I17
F0.875
S'nice'
p219
I2
tp220
a(I17
I17
F-0.75
S'little'
p221
I2
tp222
a(I17
I17
I0
S'full'
p223
I2
tp224
a(I17
I18
F-0.375
S'smaller'
p225
I2
tp226
a(I17
I18
F-0.625
S'other'
p227
I2
tp228
as(S'music'
p229
S'player'
p230
tp231
(lp232
(I10
I61
F0.875
S'nice'
p233
I0
tp234
a(I15
I12
F0.875
S'music'
p235
I0
tp236
as.