(dp0
(S'an'
p1
S'iphone'
p2
tp3
(lp4
(I4
I150
I0
S'old'
p5
I1
tp6
a(I12
I13
F0.375
S'reliable'
p7
I1
tp8
a(I4
I150
I0
g5
I1
tp9
a(I12
I13
F0.375
g7
I1
tp10
as(S'battery'
p11
S'life'
p12
tp13
(lp14
(I0
I7
F-0.5
S'poor'
p15
I1
tp16
a(I4
I53
I0
S'volatile'
p17
I1
tp18
a(I11
I9
F0.625
S'decent'
p19
I1
tp20
a(I0
I7
F-0.5
g15
I15
tp21
a(I4
I53
I0
g17
I15
tp22
a(I4
I168
I0
S'big'
p23
I15
tp24
a(I4
I168
F-0.875
S'negative'
p25
I15
tp26
a(I9
I5
I0
S'great'
p27
I15
tp28
a(I9
I5
F-0.5
S'international'
p29
I15
tp30
a(I10
I0
F0.125
S'last'
p31
I15
tp32
a(I11
I9
F0.625
g19
I15
tp33
a(I13
I16
F1.0
S'best'
p34
I15
tp35
as(S'smartphone'
p36
tp37
(lp38
(I0
I4
F0.125
S'first'
p39
I0
tp40
a(I4
I51
F0.375
S'much'
p41
I0
tp42
a(I4
I81
F1.0
S'good'
p43
I0
tp44
a(I11
I9
F-0.625
S'other'
p45
I0
tp46
as(S'or'
p47
S'something'
p48
tp49
(lp50
(I11
I10
F0.375
S'similar'
p51
I9
tp52
as(S'data'
p53
S'plan'
p54
tp55
(lp56
(I7
I25
F0.125
S'enough'
p57
I0
tp58
as(S'internet'
p59
tp60
(lp61
(I7
I36
I0
S'initial'
p62
I6
tp63
as(S'android'
p64
S'market'
p65
tp66
(lp67
(I2
I32
F-0.625
S'free'
p68
I0
tp69
a(I2
I32
I0
S'android'
p70
I0
tp71
a(I4
I99
I0
S'full'
p72
I0
tp73
a(I13
I14
I0
S'android'
p74
I0
tp75
a(I0
I13
F0.625
S'easy'
p76
I0
tp77
a(I2
I35
I0
S'full'
p78
I0
tp79
a(I2
I35
I0
S'fledged'
p80
I0
tp81
a(I4
I14
F0.125
S'first'
p82
I0
tp83
a(I4
I45
F0.875
S'nice'
p84
I0
tp85
a(I4
I68
I0
S'basic'
p86
I0
tp87
a(I4
I117
I0
S'later'
p88
I0
tp89
a(I7
I30
F1.0
S'good'
p90
I0
tp91
a(I9
I4
F0.5
S'second'
p92
I0
tp93
a(I10
I1
F1.0
S'good'
p94
I0
tp95
a(I12
I6
F-0.375
S'simple'
p96
I0
tp97
a(I12
I18
F0.625
S'easiest'
p98
I0
tp99
a(I13
I1
F0.125
S'first'
p100
I0
tp101
as(S'apps'
p102
tp103
(lp104
(I4
I43
F0.375
S'available'
p105
I0
tp106
a(I4
I43
F-0.625
S'free'
p107
I0
tp108
a(I4
I64
I0
S'many'
p109
I0
tp110
a(I4
I72
F-0.5
S'regular'
p111
I0
tp112
a(I4
I99
F1.0
S'good'
p113
I0
tp114
a(I4
I121
I0
S'android'
p115
I0
tp116
a(I7
I8
I0
S'many'
p117
I0
tp118
a(I7
I51
F1.0
S'enjoy'
p119
I0
tp120
a(I7
I55
F-0.625
S'other'
p121
I0
tp122
a(I11
I7
I0
S'android'
p123
I0
tp124
a(I11
I7
F-0.625
S'free'
p125
I0
tp126
a(I12
I13
I0
S'many'
p127
I0
tp128
a(I12
I13
I0
S'android'
p129
I0
tp130
a(I13
I14
I0
S'many'
p131
I0
tp132
a(I13
I14
F-0.625
S'free'
p133
I0
tp134
as(S'internal'
p135
S'memory'
p136
tp137
(lp138
(I6
I3
F-0.375
S'small'
p139
I0
tp140
a(I7
I8
I0
S'internal'
p141
I0
tp142
a(I7
I12
I0
S'more'
p143
I0
tp144
a(I7
I12
I0
S'internal'
p145
I0
tp146
a(I7
I19
I0
S'internal'
p147
I0
tp148
a(I7
I19
F0.25
S'bigger'
p149
I0
tp150
a(I7
I39
I0
S'internal'
p151
I0
tp152
a(I7
I50
I0
S'internal'
p153
I0
tp154
a(I6
I3
F-0.375
g139
I5
tp155
a(I7
I8
I0
g141
I5
tp156
a(I7
I12
I0
g143
I5
tp157
a(I7
I12
I0
g145
I5
tp158
a(I7
I17
F-0.625
S'free'
p159
I5
tp160
a(I7
I19
I0
g147
I5
tp161
a(I7
I19
F0.25
g149
I5
tp162
a(I7
I39
I0
g151
I5
tp163
a(I7
I41
F-0.375
S'double'
p164
I5
tp165
a(I7
I50
I0
g153
I5
tp166
as(S'sd'
p167
S'card'
p168
tp169
(lp170
(I4
I19
F-0.625
S'free'
p171
I0
tp172
a(I11
I3
F0.25
S'bigger'
p173
I0
tp174
as(S'samsung'
p175
S'galaxy'
p176
S'ace'
p177
tp178
(lp179
(I4
I83
I0
S'different'
p180
I0
tp181
a(I5
I0
F0.375
S'new'
p182
I0
tp183
a(I4
I83
I0
g180
I0
tp184
a(I5
I0
F0.375
g182
I0
tp185
a(I4
I92
F-0.625
S'other'
p186
I0
tp187
a(I4
I83
I0
g180
I7
tp188
a(I5
I0
F0.375
g182
I7
tp189
a(I4
I92
F-0.625
g186
I0
tp190
as.