(dp0
(S'size'
p1
S'and'
p2
S'weight'
p3
tp4
(lp5
(I13
I131
I0
S'big'
p6
I0
tp7
a(I13
I132
F-0.75
S'uncomfortable'
p8
I0
tp9
as(S'mobile'
p10
tp11
(lp12
(I8
I28
F-0.5
S'heavy'
p13
I0
tp14
as(S'battery'
p15
S'life'
p16
tp17
(lp18
(I1
I52
F-0.75
S'short'
p19
I1
tp20
a(I7
I33
F0.375
S'extra'
p21
I1
tp22
a(I7
I60
F1.0
S'good'
p23
I1
tp24
a(I7
I90
I0
S'great'
p25
I1
tp26
a(I8
I23
F0.5
S'second'
p27
I1
tp28
a(I10
I28
F0.125
S'last'
p29
I1
tp30
a(I1
I52
F-0.75
g19
I19
tp31
a(I7
I60
F1.0
g23
I19
tp32
a(I7
I90
I0
g25
I19
tp33
a(I10
I28
F0.125
g29
I19
tp34
a(I7
I33
F0.375
g21
I15
tp35
a(I7
I123
I0
S'inside'
p36
I15
tp37
a(I8
I23
F0.5
g27
I15
tp38
a(I8
I31
F-0.875
S'worst'
p39
I15
tp40
a(I13
I133
I0
S'heavy-duty'
p41
I15
tp42
a(I13
I207
F-0.25
S'low'
p43
I15
tp44
a(I15
I13
F0.125
S'last'
p45
I15
tp46
a(I15
I13
F-0.5
S'long'
p47
I15
tp48
a(I18
I46
F0.125
S'last'
p49
I15
tp50
a(I18
I82
F-0.375
S'small'
p51
I15
tp52
a(I22
I8
F1.0
S'good'
p53
I15
tp54
as(S'power'
p55
S'button'
p56
tp57
(lp58
(I7
I93
F-0.375
S'top'
p59
I0
tp60
a(I7
I93
F-0.75
S'difficult'
p61
I0
tp62
a(I13
I14
F-0.375
S'top'
p63
I0
tp64
a(I13
I15
F-0.75
S'difficult'
p65
I0
tp66
a(I18
I79
F-0.875
S'hard'
p67
I0
tp68
a(I7
I93
F-0.375
g59
I19
tp69
a(I7
I93
F-0.75
g61
I19
tp70
a(I7
I95
I0
S'flush'
p71
I19
tp72
a(I7
I95
F0.5
S'awkward'
p73
I19
tp74
a(I8
I94
F-0.875
S'hard'
p75
I19
tp76
a(I13
I14
F-0.375
g63
I19
tp77
a(I13
I15
F-0.75
g65
I19
tp78
a(I13
I135
F0.5
S'touch'
p79
I19
tp80
a(I18
I79
F-0.875
g67
I19
tp81
as(S'call'
p82
S'quality'
p83
tp84
(lp85
(I7
I63
F1.0
S'good'
p86
I0
tp87
a(I9
I17
I0
S'great'
p88
I0
tp89
a(I10
I26
I0
S'great'
p90
I0
tp91
as(S'physical'
p92
S'keyboard'
p93
tp94
(lp95
(I3
I49
I0
S'physical'
p96
I0
tp97
a(I3
I49
I0
S'large'
p98
I0
tp99
a(I7
I29
I0
S'physical'
p100
I0
tp101
a(I11
I63
I0
S'physical'
p102
I0
tp103
a(I11
I63
F-0.625
S'bad'
p104
I0
tp105
a(I18
I9
I0
S'physical'
p106
I0
tp107
a(I21
I29
I0
S'physical'
p108
I0
tp109
as(S'camera'
p110
tp111
(lp112
(I1
I5
F1.0
S'good'
p113
I1
tp114
a(I1
I8
F-0.625
S'bad'
p115
I1
tp116
a(I2
I1
F1.0
S'better'
p117
I1
tp118
a(I3
I12
F1.0
S'good'
p119
I1
tp120
a(I3
I12
F0.125
S'enough'
p121
I1
tp122
a(I3
I12
F-0.625
S'light'
p123
I1
tp124
a(I7
I85
I0
S'external'
p125
I1
tp126
a(I7
I117
F0.375
S'much'
p127
I1
tp128
a(I9
I23
F0.125
S'solid'
p129
I1
tp130
a(I11
I23
F-0.5
S'poor'
p131
I1
tp132
a(I11
I23
F1.0
S'good'
p133
I1
tp134
a(I11
I33
F1.0
S'good'
p135
I1
tp136
a(I13
I57
I0
S'high'
p137
I1
tp138
a(I13
I157
F1.0
S'good'
p139
I1
tp140
a(I18
I78
F-0.625
S'bad'
p141
I1
tp142
a(I18
I81
F-0.625
S'other'
p143
I1
tp144
a(I19
I10
I0
S'great'
p145
I1
tp146
a(I20
I8
F0.5
S'so-so'
p147
I1
tp148
a(I20
I130
F-0.625
S'bad'
p149
I1
tp150
as(S'gorilla'
p151
S'glass'
p152
tp153
(lp154
(I9
I4
F0.125
S'key'
p155
I0
tp156
a(I9
I4
F0.125
g155
I9
tp157
as(S'firmware'
p158
S'update'
p159
tp160
(lp161
(I13
I4
F0.375
S'new'
p162
I0
tp163
a(I13
I23
F0.375
S'new'
p164
I0
tp165
a(I13
I64
F0.375
S'new'
p166
I0
tp167
a(I19
I10
I0
S'latest'
p168
I0
tp169
a(I13
I4
F0.375
g162
I0
tp170
a(I13
I23
F0.375
g164
I0
tp171
a(I13
I64
F0.375
g166
I0
tp172
a(I19
I10
I0
g168
I0
tp173
as(S'operating'
p174
S'system'
p175
tp176
(lp177
(I7
I126
I0
S'great'
p178
I2
tp179
as(S'zune'
p180
S'software'
p181
tp182
(lp183
(I3
I7
F1.0
S'good'
p184
I0
tp185
a(I3
I7
F1.0
S'better'
p186
I0
tp187
a(I7
I7
F-0.625
S'seamless'
p188
I0
tp189
a(I16
I3
I0
S'update'
p190
I0
tp191
a(I16
I3
F0.375
S'available'
p192
I0
tp193
a(I7
I7
F-0.625
g188
I0
tp194
as(S'build'
p195
S'quality'
p196
tp197
(lp198
(I8
I106
I0
S'high'
p199
I2
tp200
a(I20
I35
I0
S'high'
p201
I2
tp202
as(S'windows'
p203
tp204
(lp205
(I3
I58
I0
S'lastest'
p206
I0
tp207
a(I5
I0
F0.125
S'first'
p208
I0
tp209
a(I6
I3
I0
S'few'
p210
I0
tp211
a(I7
I116
F0.375
S'new'
p212
I0
tp213
a(I7
I131
I0
S'only'
p214
I0
tp215
a(I8
I39
F1.0
S'best'
p216
I0
tp217
a(I8
I44
F-0.625
S'free'
p218
I0
tp219
a(I10
I44
F0.25
S'elite'
p220
I0
tp221
a(I13
I150
I0
S'latest'
p222
I0
tp223
a(I13
I195
F-0.625
S'other'
p224
I0
tp225
a(I20
I22
I0
S'old'
p226
I0
tp227
a(I21
I29
F0.375
S'new'
p228
I0
tp229
as(S'email'
p230
S'inboxes'
p231
tp232
(lp233
(I13
I97
F-0.5
S'separate'
p234
I0
tp235
a(I13
I97
F0.5
S'personal'
p236
I0
tp237
as(S'third'
p238
S'party'
p239
tp240
(lp241
(I5
I3
I0
S'third'
p242
I0
tp243
a(I13
I21
I0
S'third'
p244
I0
tp245
a(I13
I60
I0
S'third'
p246
I0
tp247
as(S'gps'
p248
S'unit'
p249
tp250
(lp251
(I13
I120
F0.375
S'reliable'
p252
I1
tp253
a(I13
I126
F0.375
S'reliable'
p254
I1
tp255
a(I13
I138
F0.375
S'reliable'
p256
I1
tp257
as(S'seller'
p258
tp259
(lp260
(I1
I42
F0.375
S'reliable'
p261
I19
tp262
a(I22
I32
F0.625
S'aware'
p263
I19
tp264
as(S'qwerty'
p265
S'keyboard'
p266
tp267
(lp268
(I9
I21
I0
S'great'
p269
I0
tp270
as(S'slide'
p271
S'out'
p272
S'keyboard'
p273
tp274
(lp275
(I3
I14
I0
S'faster'
p276
I0
tp277
a(I7
I80
I0
S'vertical'
p278
I0
tp279
a(I7
I80
I0
S'great'
p280
I0
tp281
a(I9
I32
I0
S'thick'
p282
I0
tp283
a(I3
I14
I-100
S'keyboard/screen'
p284
I6
tp285
a(I3
I14
I0
g276
I6
tp286
a(I7
I80
I0
g278
I6
tp287
a(I3
I49
I0
g96
I2
tp288
a(I3
I49
I0
g98
I2
tp289
a(I6
I26
F-0.375
S'small'
p290
I2
tp291
a(I6
I26
I0
S'useful'
p292
I2
tp293
a(I6
I26
F0.5
S'touch'
p294
I2
tp295
a(I7
I29
I0
g100
I2
tp296
a(I7
I80
I0
g280
I2
tp297
a(I7
I83
F0.375
S'extended'
p298
I2
tp299
a(I8
I94
I0
S'soft'
p300
I2
tp301
a(I8
I94
F1.0
S'good'
p302
I2
tp303
a(I8
I94
F-0.875
S'hard'
p304
I2
tp305
a(I8
I94
F0.75
S'due'
p306
I2
tp307
a(I8
I95
I0
S'soft'
p308
I2
tp309
a(I8
I97
F-0.875
S'hard'
p310
I2
tp311
a(I9
I21
I0
g269
I2
tp312
a(I9
I32
I0
g282
I2
tp313
a(I11
I63
I0
g102
I2
tp314
a(I11
I63
F-0.625
g104
I2
tp315
a(I13
I30
F-0.5
S'open'
p316
I2
tp317
a(I16
I1
F0.5
S'touch'
p318
I2
tp319
a(I18
I9
I0
g106
I2
tp320
a(I18
I24
F-0.375
S'smaller'
p321
I2
tp322
a(I20
I59
F-0.375
S'top'
p323
I2
tp324
a(I20
I59
F-0.5
S'heavy'
p325
I2
tp326
a(I20
I89
I0
S'stiff'
p327
I2
tp328
a(I20
I89
F0.125
S'first'
p329
I2
tp330
a(I21
I29
I0
g108
I2
tp331
a(I21
I38
F-0.75
S'comfortable'
p332
I2
tp333
a(I22
I4
F0.875
S'nice'
p334
I2
tp335
as(S'iphone'
p336
tp337
(lp338
(I7
I70
F0.375
S'similar'
p339
I1
tp340
a(I8
I109
I0
S'faster'
p341
I1
tp342
a(I13
I99
F0.375
S'available'
p343
I1
tp344
a(I20
I138
F0.75
S'beautiful'
p345
I1
tp346
as(S'feels'
p347
tp348
(lp349
(I13
I7
I0
S'great'
p350
I14
tp351
as(S'sim'
p352
S'card'
p353
tp354
(lp355
(I8
I50
F0.5
S'temporary'
p356
I0
tp357
a(I8
I50
I0
S'local'
p358
I0
tp359
as(S'mango'
p360
tp361
(lp362
(I8
I57
I0
S'latest'
p363
I1
tp364
a(I10
I25
F1.0
S'better'
p365
I1
tp366
a(I21
I18
F-0.125
S'mine'
p367
I1
tp368
as(S'unlock'
p369
S'code'
p370
tp371
(lp372
(I22
I26
I0
S'real'
p373
I0
tp374
as(S'much'
p375
S'better'
p376
tp377
(lp378
(I3
I31
F0.375
S'much'
p379
I9
tp380
a(I7
I66
F0.375
S'much'
p381
I9
tp382
a(I7
I171
F0.375
S'much'
p383
I9
tp384
a(I10
I21
F0.375
S'much'
p385
I9
tp386
a(I13
I193
F0.375
S'much'
p387
I9
tp388
a(I13
I193
I0
S'most'
p389
I9
tp390
as(S'dell'
p391
S'venue'
p392
S'pro'
p393
tp394
(lp395
(I13
I0
F-0.75
S'difficult'
p396
I0
tp397
a(I8
I2
F0.375
S'much'
p398
I0
tp399
a(I13
I0
F-0.75
g396
I0
tp400
a(I0
I0
F0.375
S'working'
p401
I0
tp402
a(I3
I59
I0
S'latest'
p403
I0
tp404
a(I8
I105
F1.0
S'good'
p405
I0
tp406
a(I11
I27
F1.0
S'best'
p407
I0
tp408
a(I13
I3
F0.25
S'recent'
p409
I0
tp410
a(I18
I11
I0
S'website'
p411
I0
tp412
a(I18
I16
F-0.125
S'mine'
p413
I0
tp414
as(S'wifi'
p415
tp416
(lp417
(I1
I7
F0.625
S'easy'
p418
I0
tp419
as(S'office'
p420
tp421
(lp422
(I13
I66
I0
S'mobile'
p423
I15
tp424
a(I17
I8
I0
S'integrated'
p425
I15
tp426
as(S'apps'
p427
tp428
(lp429
(I4
I0
F1.0
S'good'
p430
I0
tp431
a(I4
I0
F0.625
S'easy'
p432
I0
tp433
a(I4
I0
F0.625
S'easy'
p434
I0
tp435
a(I7
I12
F0.5
S'true'
p436
I0
tp437
a(I7
I12
F-0.5
S'less'
p438
I0
tp439
a(I7
I12
I0
S'few'
p440
I0
tp441
a(I7
I15
F0.375
S'new'
p442
I0
tp443
a(I8
I18
I0
S'few'
p444
I0
tp445
a(I13
I22
F0.125
S'able'
p446
I0
tp447
a(I13
I28
F0.125
S'native'
p448
I0
tp449
a(I13
I120
F0.75
S'due'
p450
I0
tp451
a(I13
I152
F0.875
S'important'
p452
I0
tp453
a(I18
I27
I0
S'cool'
p454
I0
tp455
a(I18
I27
F-0.625
S'free'
p456
I0
tp457
a(I20
I84
I0
S'useful'
p458
I0
tp459
as(S'amazon'
p460
tp461
(lp462
(I1
I38
F0.375
S'new'
p463
I13
tp464
a(I1
I38
F0.25
S'used'
p465
I13
tp466
a(I6
I24
F0.375
S'available'
p467
I13
tp468
a(I13
I200
F-0.5
S'less'
p469
I13
tp470
a(I15
I5
I0
S'site'
p471
I13
tp472
as(S'slider'
p473
S'mechanism'
p474
tp475
(lp476
(I13
I27
F0.125
S'solid'
p477
I0
tp478
as(S'touch'
p479
S'screen'
p480
tp481
(lp482
(I3
I14
F0.5
S'touch'
p483
I2
tp484
a(I6
I26
F0.5
S'clear'
p485
I2
tp486
a(I6
I26
F-0.75
S'bright'
p487
I2
tp488
a(I7
I162
F0.5
S'touch'
p489
I2
tp490
a(I11
I31
F0.875
S'nice'
p491
I2
tp492
a(I11
I31
I0
S'great'
p493
I2
tp494
a(I18
I8
F0.5
S'touch'
p495
I2
tp496
a(I18
I8
F0.5
S'touch'
p497
I2
tp498
a(I18
I22
F0.5
S'touch'
p499
I2
tp500
a(I18
I22
F0.25
S'responsive'
p501
I2
tp502
a(I20
I40
F0.5
S'touch'
p503
I2
tp504
a(I21
I14
F0.5
S'touch'
p505
I2
tp506
a(I21
I14
F0.75
S'due'
p507
I2
tp508
a(I21
I27
F-0.5
S'poor'
p509
I2
tp510
a(I21
I27
I0
S'thick'
p511
I2
tp512
a(I21
I34
I0
S'sensitive'
p513
I2
tp514
as.