(dp0
(S'purchase'
p1
tp2
(lp3
(I30
I6
F-0.75
S'wrong'
p4
tp5
a(I33
I7
F-0.625
S'sorry'
p6
tp7
a(I35
I0
I0
S'great'
p8
tp9
a(I122
I0
F0.875
S'happier'
p10
tp11
a(I179
I0
F1.0
S'good'
p12
tp13
a(I232
I36
F0.875
S'happy'
p14
tp15
a(I240
I0
F0.125
S'first'
p16
tp17
a(I253
I24
F0.5
S'satisfied'
p18
tp19
as(S'google'
p20
tp21
(lp22
(I231
I51
F0.125
S'typical'
p23
tp24
as(S'thin'
p25
S'and'
p26
S'light'
p27
tp28
(lp29
(I201
I1
I0
S'great'
p30
tp31
as(S'comes'
p32
tp33
(lp34
(I121
I2
I0
S'android'
p35
tp36
a(I121
I2
I0
S'english'
p37
tp38
as(S'reviews'
p39
tp40
(lp41
(I15
I0
I0
S'many'
p42
tp43
a(I15
I0
I0
S'most'
p44
tp45
a(I15
I0
F0.625
S'positive'
p46
tp47
a(I24
I0
I0
S'net'
p48
tp49
a(I24
I1
F0.625
S'decent'
p50
tp51
a(I29
I0
F-0.625
S'other'
p52
tp53
a(I76
I6
F-0.625
S'other'
p54
tp55
a(I92
I1
F0.5
S'technical'
p56
tp57
a(I110
I1
F0.25
S'read'
p58
tp59
a(I171
I0
I0
S'great'
p60
tp61
a(I182
I1
I0
S'more'
p62
tp63
a(I218
I1
F-0.625
S'other'
p64
tp65
a(I251
I22
I0
S'most'
p66
tp67
a(I261
I0
F0.625
S'positive'
p68
tp69
a(I262
I0
I0
S'most'
p70
tp71
a(I262
I0
F0.75
S'favorable'
p72
tp73
a(I266
I0
I0
S'great'
p74
tp75
a(I273
I6
F-0.625
S'bad'
p76
tp77
as(S'version'
p78
tp79
(lp80
(I1
I1
F-0.5
S'international'
p81
tp82
a(I16
I0
I0
S'android'
p83
tp84
a(I37
I6
F1.0
S'good'
p85
tp86
a(I37
I6
I0
S'android'
p87
tp88
a(I39
I14
F-0.5
S'international'
p89
tp90
a(I75
I1
I0
S'chilean'
p91
tp92
a(I87
I0
F0.375
S'new'
p93
tp94
a(I98
I0
F-0.5
S'international'
p95
tp96
a(I109
I1
F0.75
S'beautiful'
p97
tp98
a(I109
I1
I0
S'european'
p99
tp100
a(I122
I1
F0.375
S'newest'
p101
tp102
a(I122
I1
I0
S'android'
p103
tp104
a(I147
I0
I0
S'android'
p105
tp106
a(I156
I10
I0
S'french'
p107
tp108
a(I156
I12
I0
S'english'
p109
tp110
a(I161
I9
F-0.5
S'international'
p111
tp112
a(I161
I9
I0
S'many'
p113
tp114
a(I161
I9
I0
S'different'
p115
tp116
a(I184
I1
F0.375
S'newer'
p117
tp118
a(I201
I1
F0.125
S'last'
p119
tp120
a(I204
I0
F-0.5
S'international'
p121
tp122
a(I225
I1
I0
S'english'
p123
tp124
a(I225
I1
I0
S'english'
p125
tp126
a(I231
I49
F-0.5
S'international'
p127
tp128
a(I231
I51
I0
S'android'
p129
tp130
a(I231
I55
F-0.5
S'international'
p131
tp132
a(I231
I59
F0.375
S'newest'
p133
tp134
a(I254
I0
I0
S'android'
p135
tp136
a(I271
I1
I0
S'latest'
p137
tp138
a(I271
I1
I0
S'android'
p139
tp140
a(I276
I0
F-0.5
S'international'
p141
tp142
as(S'updated'
p143
S'to'
p144
S'android'
p145
tp146
(lp147
(I231
I144
F-0.75
S'single'
p148
tp149
as(S'keep'
p150
S'n'
p151
S'mind'
p152
tp153
(lp154
(I230
I2
F0.25
S'noted'
p155
tp156
as(S'super'
p157
S'oled'
p158
S'plus'
p159
tp160
(lp161
(I232
I9
F0.75
S'due'
p162
tp163
a(I232
I9
I0
S'patented'
p164
tp165
as(S'quality'
p166
tp167
(lp168
(I35
I0
I0
S'high'
p169
tp170
a(I36
I23
I0
S'great'
p171
tp172
a(I65
I4
I0
S'same'
p173
tp174
a(I70
I0
F1.0
S'good'
p175
tp176
a(I70
I0
F-0.25
S'thin'
p177
tp178
a(I107
I2
F1.0
S'good'
p179
tp180
a(I147
I0
F0.25
S'refurbished'
p181
tp182
a(I156
I9
F0.625
S'decent'
p183
tp184
a(I157
I1
F0.375
S'extra'
p185
tp186
a(I157
I1
F1.0
S'good'
p187
tp188
a(I161
I4
F0.5
S'clear'
p189
tp190
a(I179
I0
F1.0
S'good'
p191
tp192
a(I185
I6
I0
S'high'
p193
tp194
a(I189
I0
F-0.625
S'bad'
p195
tp196
a(I189
I0
F1.0
S'good'
p197
tp198
a(I231
I41
F1.0
S'good'
p199
tp200
a(I232
I27
F0.625
S'decent'
p201
tp202
a(I261
I9
F-0.25
S'dropped'
p203
tp204
a(I263
I0
F0.25
S'refurbished'
p205
tp206
a(I266
I2
F1.0
S'good'
p207
tp208
a(I274
I3
F-0.375
S'top'
p209
tp210
a(I285
I0
F1.0
S'good'
p211
tp212
a(I288
I20
I0
S'high'
p213
tp214
as(S'features'
p215
tp216
(lp217
(I15
I2
I0
S'many'
p218
tp219
a(I113
I2
I0
S'many'
p220
tp221
a(I113
I2
I0
S'different'
p222
tp223
a(I138
I0
I0
S'many'
p224
tp225
a(I211
I12
I0
S'such'
p226
tp227
a(I223
I0
F0.125
S'able'
p228
tp229
a(I231
I39
F0.375
S'newer'
p230
tp231
a(I231
I39
I0
S'android'
p232
tp233
a(I231
I75
F-0.25
S'potential'
p234
tp235
a(I261
I8
I0
S'summary'
p236
tp237
a(I261
I8
F0.25
S'main'
p238
tp239
as(S'samsung'
p240
S'galaxy'
p241
S's'
p242
tp243
(lp244
(I49
I0
F0.375
S'new'
p245
tp246
a(I92
I1
I0
S'galaxy'
p247
tp248
a(I114
I0
F0.375
S'new'
p249
tp250
a(I114
I1
F0.875
S'happy'
p251
tp252
a(I157
I0
I0
S'nexus'
p253
tp254
a(I160
I0
I0
S'real'
p255
tp256
a(I185
I1
F-0.25
S'epic'
p257
tp258
a(I185
I11
I0
S'old'
p259
tp260
a(I290
I0
F0.125
S'first'
p261
tp262
a(I294
I1
I0
S'old'
p263
tp264
as(S'sd'
p265
S'card'
p266
tp267
(lp268
(I79
I3
I0
S'external'
p269
tp270
a(I185
I4
F-0.5
S'sure'
p271
tp272
a(I234
I2
I0
S'most'
p273
tp274
as(S'sim'
p275
S'cards'
p276
tp277
(lp278
(I78
I0
F0.375
S'new'
p279
tp280
a(I228
I5
F0.125
S'able'
p281
tp282
as(S'want'
p283
tp284
(lp285
(I90
I4
F0.5
S'possible'
p286
tp287
as(S'samsung'
p288
S'galaxy'
p289
S's2'
p290
tp291
(lp292
(I49
I0
F0.375
g245
tp293
a(I114
I1
F0.875
g251
tp294
a(I262
I3
F0.5
S'comparable'
p295
tp296
as(S'software'
p297
tp298
(lp299
(I34
I3
F0.125
S'last'
p300
tp301
a(I40
I1
I0
S'android'
p302
tp303
a(I81
I4
I0
S'appear'
p304
tp305
a(I109
I6
I0
S'android'
p306
tp307
a(I201
I1
F-0.75
S'hate'
p308
tp309
a(I231
I61
F0.625
S'add'
p310
tp311
a(I261
I12
I0
S'optional'
p312
tp313
a(I271
I1
F1.0
S'good'
p314
tp315
a(I295
I21
I0
S'update'
p316
tp317
a(I295
I21
I0
S'android'
p318
tp319
as(S'task'
p320
S'manager'
p321
tp322
(lp323
(I2
I4
I0
S'own'
p324
tp325
a(I2
I4
I0
S'cool'
p326
tp327
a(I130
I2
I0
S'blue'
p328
tp329
as(S'sim'
p330
S'card'
p331
tp332
(lp333
(I4
I2
F0.375
S'new'
p334
tp335
a(I78
I0
F0.375
g279
tp336
a(I140
I4
F-0.5
S'international'
p337
tp338
a(I228
I5
F0.125
g281
tp339
a(I270
I1
F0.125
S'able'
p340
tp341
as(S'first'
p342
S'android'
p343
S'device'
p344
tp345
(lp346
(I150
I0
F0.125
S'first'
p347
tp348
a(I210
I0
F0.125
S'first'
p349
tp350
a(I231
I104
F0.125
S'first'
p351
tp352
a(I301
I6
F0.125
S'first'
p353
tp354
as(S'dual'
p355
S'core'
p356
S'cpu'
p357
tp358
(lp359
(I205
I1
F0.25
S'responsive'
p360
tp361
as(S'samsung'
p362
S'kies'
p363
tp364
(lp365
(I120
I0
I0
S'update'
p366
tp367
a(I231
I67
I0
S'useful'
p368
tp369
a(I231
I67
I0
S'integrated'
p370
tp371
a(I295
I13
F0.125
S'able'
p372
tp373
as(S'smartphone'
p374
tp375
(lp376
(I21
I0
F1.0
S'best'
p377
tp378
a(I30
I0
F-0.25
S'thinnest'
p379
tp380
a(I36
I15
F-0.25
S'thinnest'
p381
tp382
a(I50
I0
F-0.625
S'other'
p383
tp384
a(I92
I0
F1.0
S'best'
p385
tp386
a(I92
I1
F0.375
S'much'
p387
tp388
a(I92
I1
F0.625
S'successful'
p389
tp390
a(I136
I1
F1.0
S'best'
p391
tp392
a(I175
I3
F1.0
S'best'
p393
tp394
a(I225
I0
F0.125
S'first'
p395
tp396
a(I231
I48
F-0.625
S'other'
p397
tp398
a(I231
I83
I0
S'most'
p399
tp400
a(I231
I83
F0.125
S'popular'
p401
tp402
a(I251
I1
I0
S'next'
p403
tp404
a(I256
I1
F-0.625
S'other'
p405
tp406
a(I298
I0
F0.125
S'first'
p407
tp408
as(S'card'
p409
tp410
(lp411
(I140
I4
F-0.5
g337
tp412
a(I185
I4
F-0.5
g271
tp413
a(I234
I2
I0
g273
tp414
a(I253
I6
I0
S'wish'
p415
tp416
as(g151
S'usa'
p417
tp418
(lp419
(I75
I16
F0.125
S'outside'
p420
tp421
as(S'fast'
p422
tp423
(lp424
(I122
I1
F-0.125
S'super'
p425
tp426
a(I171
I3
F-0.125
S'super'
p427
tp428
a(I192
I30
F-0.5
S'sure'
p429
tp430
as(S'problem'
p431
tp432
(lp433
(I23
I0
F0.5
S'drive'
p434
tp435
a(I24
I1
F-0.75
S'single'
p436
tp437
a(I33
I4
F0.25
S'biggest'
p438
tp439
a(I38
I5
I0
S'only'
p440
tp441
a(I43
I0
F1.0
S'good'
p442
tp443
a(I75
I11
F-0.125
S'present'
p444
tp445
a(I87
I0
F0.25
S'main'
p446
tp447
a(I110
I2
F-0.75
S'little'
p448
tp449
a(I133
I1
I0
S'same'
p450
tp451
a(I133
I1
F0.875
S'music'
p452
tp453
a(I133
I1
I0
S'internet'
p454
tp455
a(I159
I1
I0
S'only'
p456
tp457
a(I210
I5
I0
S'only'
p458
tp459
a(I265
I5
I0
S'same'
p460
tp461
as(S'good'
p462
tp463
(lp464
(I301
I0
F-0.5
S'sure'
p465
tp466
as(S'galaxy'
p467
S's2'
p468
tp469
(lp470
(I66
I7
F0.125
S'protective'
p471
tp472
a(I114
I1
F0.875
g251
tp473
a(I164
I0
F0.5
S'bought'
p474
tp475
a(I176
I0
I0
S'great'
p476
tp477
a(I201
I0
I0
S'galaxy'
p478
tp479
a(I231
I139
I0
S'own'
p480
tp481
a(I231
I143
F0.625
S'easy'
p482
tp483
a(I261
I1
F0.375
S'new'
p484
tp485
a(I262
I3
F0.5
g295
tp486
as(S'price'
p487
tp488
(lp489
(I12
I5
F0.375
S'new'
p490
tp491
a(I12
I5
I0
S'android'
p492
tp493
a(I64
I0
F1.0
S'good'
p494
tp495
a(I86
I0
F1.0
S'good'
p496
tp497
a(I96
I3
F-0.25
S'low'
p498
tp499
a(I96
I4
I0
S'full'
p500
tp501
a(I140
I5
I0
S'competitive'
p502
tp503
a(I231
I145
I0
S'same'
p504
tp505
a(I277
I2
F0.75
S'worth'
p506
tp507
a(I284
I4
F0.75
S'worth'
p508
tp509
a(I284
I4
F1.0
S'good'
p510
tp511
as(S'need'
p512
tp513
(lp514
(I145
I5
I0
S'android'
p515
tp516
as(S'gb'
p517
S'nternal'
p518
S'memory'
p519
tp520
(lp521
(I5
I1
I0
S'internal'
p522
tp523
a(I6
I1
I0
S'internal'
p524
tp525
a(I79
I2
I0
S'internal'
p526
tp527
a(I88
I1
I0
S'internal'
p528
tp529
a(I91
I0
I0
S'internal'
p530
tp531
a(I95
I0
I0
S'internal'
p532
tp533
a(I172
I4
F-0.625
S'free'
p534
tp535
a(I172
I4
I0
S'internal'
p536
tp537
a(I234
I3
I0
S'internal'
p538
tp539
a(I299
I0
I0
S'internal'
p540
tp541
as(S'memory'
p542
tp543
(lp544
(I6
I1
I0
g524
tp545
a(I79
I2
I0
g526
tp546
a(I88
I1
I0
g528
tp547
a(I94
I0
I0
S'external'
p548
tp549
a(I103
I2
I0
S'internal'
p550
tp551
a(I133
I1
I0
S'big'
p552
tp553
a(I172
I4
F-0.625
g534
tp554
a(I172
I4
I0
g536
tp555
a(I203
I5
F0.375
S'extra'
p556
tp557
a(I234
I3
I0
g538
tp558
a(I295
I20
I0
S'internal'
p559
tp560
as(S'product'
p561
tp562
(lp563
(I18
I2
I0
S'different'
p564
tp565
a(I19
I0
F-0.5
S'actual'
p566
tp567
a(I57
I0
F1.0
S'good'
p568
tp569
a(I80
I0
I0
S'great'
p570
tp571
a(I138
I3
F1.0
S'good'
p572
tp573
a(I155
I0
I0
S'cool'
p574
tp575
a(I170
I1
F0.375
S'new'
p576
tp577
a(I219
I0
F-0.5
S'less'
p578
tp579
a(I270
I1
I0
S'chinese'
p580
tp581
a(I272
I2
F1.0
S'good'
p582
tp583
a(I280
I6
I0
S'great'
p584
tp585
a(I299
I0
F0.125
S'received'
p586
tp587
as(S'8'
p588
S'mp'
p589
S'camera'
p590
tp591
(lp592
(I192
I20
F0.375
S'superlative'
p593
tp594
a(I256
I1
F1.0
S'best'
p595
tp596
as(S'market'
p597
tp598
(lp599
(I7
I6
I0
S'android'
p600
tp601
a(I37
I6
I0
S'android'
p602
tp603
a(I48
I2
I0
S'android'
p604
tp605
a(I62
I1
I0
S'android'
p606
tp607
a(I75
I16
I0
S'android'
p608
tp609
a(I110
I4
I0
S'european'
p610
tp611
a(I222
I8
I0
S'android'
p612
tp613
a(I222
I8
I0
S'apple'
p614
tp615
a(I229
I5
I0
S'android'
p616
tp617
a(I231
I84
I0
S'android'
p618
tp619
a(I231
I86
I0
S'android'
p620
tp621
a(I280
I5
I0
S'android'
p622
tp623
a(I301
I15
F-0.625
S'bad'
p624
tp625
a(I301
I17
I0
S'mobile'
p626
tp627
as(S'apple'
p628
tp629
(lp630
(I189
I11
I0
S'least'
p631
tp632
a(I203
I7
F0.5
S'obvious'
p633
tp634
a(I203
I22
F0.375
S'new'
p635
tp636
as(S'well'
p637
tp638
(lp639
(I222
I0
F-0.125
S'overall'
p640
tp641
as(S'video'
p642
tp643
(lp644
(I62
I2
I0
S'great'
p645
tp646
a(I173
I1
I0
S'fast'
p647
tp648
a(I231
I49
F0.125
S'able'
p649
tp650
a(I231
I49
I0
S'substantial'
p651
tp652
as(S'android'
p653
tp654
(lp655
(I2
I2
I0
S'fast'
p656
tp657
a(I30
I0
F1.0
S'best'
p658
tp659
a(I58
I0
F0.375
S'new'
p660
tp661
a(I58
I0
F-0.125
S'bean'
p662
tp663
a(I80
I2
F0.5
S'second'
p664
tp665
a(I145
I10
F0.5
S'satisfactory'
p666
tp667
a(I150
I0
F0.125
g347
tp668
a(I157
I1
F1.0
S'best'
p669
tp670
a(I171
I0
F0.125
S'first'
p671
tp672
a(I210
I0
F0.125
g349
tp673
a(I231
I70
F1.0
S'best'
p674
tp675
a(I231
I75
F0.625
S'enthusiastic'
p676
tp677
a(I231
I77
I0
S'different'
p678
tp679
a(I231
I144
F-0.75
g148
tp680
a(I252
I1
F0.25
S'powerful'
p681
tp682
a(I253
I26
F1.0
S'best'
p683
tp684
a(I288
I22
F1.0
S'best'
p685
tp686
a(I295
I17
F0.125
S'first'
p687
tp688
a(I301
I6
F0.125
g353
tp689
as(S'know'
p690
tp691
(lp692
(I92
I1
F0.5
S'possible'
p693
tp694
as(S'network'
p695
tp696
(lp697
(I2
I10
F0.5
S'compatible'
p698
tp699
a(I58
I3
I0
S'mobile'
p700
tp701
a(I88
I2
I0
S'mobile'
p702
tp703
a(I145
I4
F0.5
S'compatible'
p704
tp705
a(I244
I2
F0.625
S'perfect'
p706
tp707
a(I273
I2
I0
S'mobile'
p708
tp709
a(I273
I3
I0
S'mobile'
p710
tp711
as(S'thing'
p712
tp713
(lp714
(I9
I1
I0
S'only'
p715
tp716
a(I9
I1
F-0.75
S'wrong'
p717
tp718
a(I19
I2
F0.625
S'positive'
p719
tp720
a(I19
I2
F0.5
S'true'
p721
tp722
a(I19
I11
F0.375
S'strangest'
p723
tp724
a(I26
I5
I0
S'own'
p725
tp726
a(I26
I12
F-0.5
S'poor'
p727
tp728
a(I39
I11
I0
S'same'
p729
tp730
a(I75
I25
F1.0
S'good'
p731
tp732
a(I75
I26
I0
S'big'
p733
tp734
a(I98
I4
F-0.25
S'past'
p735
tp736
a(I132
I8
I0
S'only'
p737
tp738
a(I140
I9
F0.125
S'first'
p739
tp740
a(I183
I0
I0
S'next'
p741
tp742
a(I184
I1
I0
S'only'
p743
tp744
a(I184
I1
F0.125
S'able'
p745
tp746
a(I211
I7
F-0.875
S'hard'
p747
tp748
a(I211
I10
F-0.125
S'overall'
p749
tp750
a(I223
I0
F-0.625
S'bad'
p751
tp752
a(I236
I1
I0
S'only'
p753
tp754
a(I254
I0
I0
S'only'
p755
tp756
a(I255
I6
F1.0
S'good'
p757
tp758
a(I260
I1
F-0.625
S'bad'
p759
tp760
a(I274
I3
I0
S'only'
p761
tp762
a(I274
I3
F-0.625
S'bad'
p763
tp764
a(I277
I1
I0
S'many'
p765
tp766
as(S'os'
p767
S'16'
p768
S'gb'
p769
tp770
(lp771
(I5
I1
I0
g522
tp772
a(I91
I0
I0
g530
tp773
a(I95
I0
I0
g532
tp774
a(I299
I0
I0
g540
tp775
as(S'16'
p776
S'gb'
p777
tp778
(lp779
(I5
I1
I0
g522
tp780
a(I91
I0
I0
g530
tp781
a(I95
I0
I0
g532
tp782
a(I299
I0
I0
g540
tp783
as(S'a'
p784
S'samsung'
p785
S'galaxy'
p786
tp787
(lp788
(I49
I0
F0.375
g245
tp789
a(I114
I0
F0.375
g249
tp790
a(I114
I1
F0.875
g251
tp791
a(I160
I0
I0
g255
tp792
a(I185
I11
I0
g259
tp793
a(I290
I0
F0.125
g261
tp794
a(I294
I1
I0
g263
tp795
as(S'work'
p796
tp797
(lp798
(I231
I68
F1.0
S'better'
p799
tp800
a(I248
I0
I0
S'useful'
p801
tp802
as(S'battery'
p803
S'life'
p804
tp805
(lp806
(I30
I4
F-0.25
S'low'
p807
tp808
a(I72
I3
F0.375
S'extra'
p809
tp810
a(I75
I17
F0.625
S'interested'
p811
tp812
a(I144
I4
F-0.875
S'negative'
p813
tp814
a(I146
I3
F-0.5
S'poor'
p815
tp816
a(I174
I1
F-0.625
S'average'
p817
tp818
a(I197
I2
F-0.125
S'overall'
p819
tp820
a(I211
I14
F1.0
S'good'
p821
tp822
a(I231
I47
F1.0
S'good'
p823
tp824
a(I232
I20
F0.125
S'impressive'
p825
tp826
a(I234
I1
F-0.75
S'short'
p827
tp828
a(I256
I2
F-0.625
S'other'
p829
tp830
a(I261
I6
F-0.25
S'battery'
p831
tp832
a(I261
I13
F0.625
S'acceptable'
p833
tp834
a(I275
I4
I0
S'adequate'
p835
tp836
a(I275
I4
F1.0
S'better'
p837
tp838
a(I288
I23
F1.0
S'better'
p839
tp840
a(I288
I23
I0
S'close'
p841
tp842
as(S'back'
p843
tp844
(lp845
(I51
I0
F-0.875
S'hard'
p846
tp847
a(I51
I0
F-0.5
S'open'
p848
tp849
as(S'life'
p850
tp851
(lp852
(I30
I4
F-0.25
g807
tp853
a(I92
I0
I0
S'mobile'
p854
tp855
a(I146
I3
F-0.5
g815
tp856
a(I174
I1
F-0.625
g817
tp857
a(I185
I7
F-0.375
S'simpler'
p858
tp859
a(I211
I14
F1.0
g821
tp860
a(I231
I47
F1.0
g823
tp861
a(I231
I131
F0.5
S'whole'
p862
tp863
a(I231
I131
F0.375
S'new'
p864
tp865
a(I232
I20
F0.125
g825
tp866
a(I234
I1
F-0.75
g827
tp867
a(I253
I4
F0.25
S'bigger'
p868
tp869
a(I253
I4
I0
S'real'
p870
tp871
a(I256
I2
F-0.625
g829
tp872
a(I261
I6
F-0.25
g831
tp873
a(I275
I4
I0
g835
tp874
a(I275
I4
F1.0
g837
tp875
a(I288
I23
I0
g841
tp876
as(S'leave'
p877
S'blank'
p878
tp879
(lp880
(I4
I8
F-0.25
S'leave'
p881
tp882
as(S'third'
p883
S'party'
p884
tp885
(lp886
(I54
I1
I0
S'third'
p887
tp888
a(I234
I4
I0
S'third'
p889
tp890
a(I260
I1
I0
S'third'
p891
tp892
as(S'dual'
p893
S'core'
p894
tp895
(lp896
(I6
I1
I0
S'great'
p897
tp898
a(I231
I60
F0.75
S'due'
p899
tp900
a(I256
I2
F0.5
S'comparable'
p901
tp902
as(S'seller'
p903
tp904
(lp905
(I91
I1
F-0.625
S'bad'
p906
tp907
a(I108
I1
F0.375
S'new'
p908
tp909
a(I170
I0
I0
S'fast'
p910
tp911
a(I170
I0
F0.875
S'happy'
p912
tp913
a(I230
I5
I0
S'more'
p914
tp915
a(I230
I5
F0.25
S'helpful'
p916
tp917
a(I276
I0
F0.5
S'considerate'
p918
tp919
as(S'user'
p920
tp921
(lp922
(I29
I0
F-0.375
S'manual'
p923
tp924
a(I29
I1
F-0.375
S'manual'
p925
tp926
a(I29
I1
I0
S'russian'
p927
tp928
a(I29
I4
F-0.375
S'manual'
p929
tp930
a(I29
I5
F-0.375
S'manual'
p931
tp932
a(I72
I3
F-0.5
S'heavy'
p933
tp934
a(I88
I1
F0.875
S'nice'
p935
tp936
a(I133
I1
F-0.375
S'manual'
p937
tp938
a(I172
I1
I0
S'english'
p939
tp940
a(I177
I2
I0
S'common'
p941
tp942
a(I185
I8
I0
S'many'
p943
tp944
a(I231
I97
F0.25
S'broader'
p945
tp946
a(I231
I98
F0.375
S'new'
p947
tp948
as(g151
S'r'
p949
S'pocket'
p950
tp951
(lp952
(I259
I0
F0.75
S'fit'
p953
tp954
as(S'feel'
p955
tp956
(lp957
(I75
I37
F-0.625
S'free'
p958
tp959
a(I186
I2
F-0.625
S'light'
p960
tp961
a(I240
I2
F0.875
S'nice'
p962
tp963
a(I240
I2
F0.375
S'friendly'
p964
tp965
as(S'samsung'
p966
S'galaxy'
p967
tp968
(lp969
(I49
I0
F0.375
g245
tp970
a(I114
I0
F0.375
g249
tp971
a(I114
I1
F0.875
g251
tp972
a(I160
I0
I0
g255
tp973
a(I185
I11
I0
g259
tp974
a(I290
I0
F0.125
g261
tp975
a(I294
I1
I0
g263
tp976
as(S'galaxy'
p977
S'sii'
p978
tp979
(lp980
(I294
I1
I0
g263
tp981
a(I294
I1
F0.875
S'nice'
p982
tp983
as(S'update'
p984
tp985
(lp986
(I7
I2
I0
S'android'
p987
tp988
a(I7
I13
F0.5
S'whole'
p989
tp990
a(I26
I40
F0.125
S'last'
p991
tp992
a(I145
I7
I0
S'least'
p993
tp994
a(I145
I7
I0
S'android'
p995
tp996
as(S'dual'
p997
S'core'
p998
S'processor'
p999
tp1000
(lp1001
(I103
I2
F0.25
S'powerful'
p1002
tp1003
a(I103
I2
I0
S'great'
p1004
tp1005
a(I231
I60
F0.75
g899
tp1006
as(S'core'
p1007
tp1008
(lp1009
(I6
I1
I0
g897
tp1010
a(I231
I60
F0.75
g899
tp1011
a(I253
I11
F-0.75
S'single'
p1012
tp1013
a(I256
I2
F0.5
g901
tp1014
as(S'time'
p1015
tp1016
(lp1017
(I1
I10
I0
S'next'
p1018
tp1019
a(I5
I0
F-0.75
S'short'
p1020
tp1021
a(I24
I3
F-0.5
S'long'
p1022
tp1023
a(I37
I5
F-0.5
S'sure'
p1024
tp1025
a(I38
I1
F-0.5
S'long'
p1026
tp1027
a(I38
I1
F0.875
S'happy'
p1028
tp1029
a(I44
I1
I0
S'many'
p1030
tp1031
a(I47
I3
I0
S'next'
p1032
tp1033
a(I47
I5
F-0.875
S'negative'
p1034
tp1035
a(I75
I23
I0
S'common'
p1036
tp1037
a(I172
I1
F0.125
S'first'
p1038
tp1039
a(I181
I1
F0.125
S'first'
p1040
tp1041
a(I181
I1
F0.125
S'first'
p1042
tp1043
a(I188
I2
I0
S'same'
p1044
tp1045
a(I192
I0
F0.125
S'first'
p1046
tp1047
a(I192
I10
F0.125
S'first'
p1048
tp1049
a(I192
I24
I0
S'most'
p1050
tp1051
a(I192
I24
F1.0
S'good'
p1052
tp1053
a(I194
I1
F-0.5
S'long'
p1054
tp1055
a(I211
I8
F0.125
S'first'
p1056
tp1057
a(I211
I8
I0
S'more'
p1058
tp1059
a(I211
I8
F0.125
S'solid'
p1060
tp1061
a(I211
I8
F-0.25
S'thin'
p1062
tp1063
a(I232
I33
I0
S'entire'
p1064
tp1065
a(I241
I0
I0
S'next'
p1066
tp1067
a(I241
I0
F1.0
S'better'
p1068
tp1069
a(I242
I7
F0.125
S'first'
p1070
tp1071
a(I269
I1
F-0.375
S'manual'
p1072
tp1073
a(I298
I2
I0
S'awhile'
p1074
tp1075
as(S'camera'
p1076
S'android'
p1077
S'os'
p1078
tp1079
(lp1080
(I256
I1
F1.0
g595
tp1081
as(S'support'
p1082
tp1083
(lp1084
(I87
I1
F0.5
S'possible'
p1085
tp1086
as(S'android'
p1087
S'market'
p1088
tp1089
(lp1090
(I7
I6
I0
g600
tp1091
a(I37
I6
I0
g602
tp1092
a(I48
I2
I0
g604
tp1093
a(I62
I1
I0
g606
tp1094
a(I75
I16
I0
g608
tp1095
a(I222
I8
I0
g612
tp1096
a(I222
I8
I0
g614
tp1097
a(I229
I5
I0
g616
tp1098
a(I231
I75
F0.625
g676
tp1099
a(I231
I84
I0
g618
tp1100
a(I231
I86
I0
g620
tp1101
a(I280
I5
I0
g622
tp1102
a(I301
I15
F-0.625
g624
tp1103
a(I301
I17
I0
g626
tp1104
as(S'months'
p1105
tp1106
(lp1107
(I30
I4
I0
S'next'
p1108
tp1109
a(I231
I0
I0
S'next'
p1110
tp1111
a(I231
I11
F-0.25
S'past'
p1112
tp1113
a(I231
I11
I0
S'few'
p1114
tp1115
a(I231
I105
I0
S'old'
p1116
tp1117
a(I231
I109
I0
S'many'
p1118
tp1119
a(I231
I109
I0
S'many'
p1120
tp1121
a(I231
I109
I0
S'later'
p1122
tp1123
a(I231
I125
I0
S'few'
p1124
tp1125
a(I231
I134
F-0.25
S'past'
p1126
tp1127
a(I231
I134
I0
S'few'
p1128
tp1129
a(I239
I3
I0
S'few'
p1130
tp1131
a(I298
I2
I0
S'many'
p1132
tp1133
as(S'nternal'
p1134
S'memory'
p1135
tp1136
(lp1137
(I6
I1
I0
g524
tp1138
a(I79
I2
I0
g526
tp1139
a(I88
I1
I0
g528
tp1140
a(I103
I2
I0
g550
tp1141
a(I172
I4
F-0.625
g534
tp1142
a(I172
I4
I0
g536
tp1143
a(I234
I3
I0
g538
tp1144
a(I295
I20
I0
g559
tp1145
as(S'kies'
p1146
tp1147
(lp1148
(I120
I0
I0
g366
tp1149
a(I266
I2
F0.625
S'convenient'
p1150
tp1151
a(I295
I13
F0.125
g372
tp1152
as(S'year'
p1153
tp1154
(lp1155
(I0
I0
F0.125
S'last'
p1156
tp1157
a(I1
I3
F-0.5
S'less'
p1158
tp1159
a(I1
I3
I0
S'later'
p1160
tp1161
a(I1
I9
I0
S'later'
p1162
tp1163
a(I44
I0
F-0.5
S'less'
p1164
tp1165
a(I92
I1
I0
S'old'
p1166
tp1167
a(I96
I4
F-0.125
S'rip-off'
p1168
tp1169
a(I203
I21
I0
S'old'
p1170
tp1171
a(I222
I7
F0.5
S'true'
p1172
tp1173
a(I231
I145
I0
S'old'
p1174
tp1175
a(I255
I2
I0
S'later'
p1176
tp1177
a(I255
I2
F-0.125
S'mine'
p1178
tp1179
a(I255
I2
I0
S'earlier'
p1180
tp1181
a(I255
I3
I0
S'earlier'
p1182
tp1183
a(I274
I0
F-0.125
S'mine'
p1184
tp1185
a(I274
I0
F0.125
S'last'
p1186
tp1187
a(I274
I0
F0.5
S'strong'
p1188
tp1189
a(I290
I3
F0.5
S'whole'
p1190
tp1191
as(g151
S'market'
p1192
tp1193
(lp1194
(I7
I6
I0
g600
tp1195
a(I37
I6
I0
g602
tp1196
a(I48
I2
I0
g604
tp1197
a(I62
I1
I0
g606
tp1198
a(I75
I16
I0
g608
tp1199
a(I110
I4
I0
g610
tp1200
a(I222
I8
I0
g612
tp1201
a(I222
I8
I0
g614
tp1202
a(I229
I5
I0
g616
tp1203
a(I231
I84
I0
g618
tp1204
a(I231
I86
I0
g620
tp1205
a(I280
I5
I0
g622
tp1206
a(I301
I15
F-0.625
g624
tp1207
a(I301
I17
I0
g626
tp1208
as(S'screen'
p1209
tp1210
(lp1211
(I8
I2
F0.5
S'second'
p1212
tp1213
a(I8
I2
I0
S'creak'
p1214
tp1215
a(I26
I6
F-0.375
S'black'
p1216
tp1217
a(I28
I1
F-0.25
S'giant'
p1218
tp1219
a(I30
I0
I0
S'individual'
p1220
tp1221
a(I30
I1
F1.0
S'best'
p1222
tp1223
a(I30
I1
F-0.75
S'brightest'
p1224
tp1225
a(I30
I2
I0
S'great'
p1226
tp1227
a(I36
I6
F0.5
S'whole'
p1228
tp1229
a(I36
I7
F-0.375
S'black'
p1230
tp1231
a(I57
I1
F1.0
S'best'
p1232
tp1233
a(I68
I3
F0.25
S'bigger'
p1234
tp1235
a(I71
I1
I0
S'large'
p1236
tp1237
a(I85
I1
F-0.375
S'black'
p1238
tp1239
a(I88
I1
F0.5
S'touch'
p1240
tp1241
a(I88
I1
F0.75
S'due'
p1242
tp1243
a(I88
I1
I0
S'big'
p1244
tp1245
a(I88
I1
F-0.375
S'small'
p1246
tp1247
a(I98
I3
I0
S'large'
p1248
tp1249
a(I101
I2
F0.375
S'much'
p1250
tp1251
a(I101
I2
F1.0
S'better'
p1252
tp1253
a(I114
I0
I0
S'quickest'
p1254
tp1255
a(I115
I2
I0
S'phenomenal'
p1256
tp1257
a(I132
I7
I0
S'big'
p1258
tp1259
a(I136
I7
I0
S'large'
p1260
tp1261
a(I150
I1
F-0.125
S'super'
p1262
tp1263
a(I150
I1
I0
S'fast'
p1264
tp1265
a(I150
I1
F-0.125
S'super'
p1266
tp1267
a(I168
I0
I0
S'incredible'
p1268
tp1269
a(I175
I3
I0
S'big'
p1270
tp1271
a(I181
I6
F0.125
S'impressive'
p1272
tp1273
a(I190
I0
F1.0
S'good'
p1274
tp1275
a(I198
I0
F-0.375
S'top'
p1276
tp1277
a(I199
I3
F0.125
S'key'
p1278
tp1279
a(I212
I1
F0.625
S'perfect'
p1280
tp1281
a(I213
I4
F0.75
S'beautiful'
p1282
tp1283
a(I224
I1
I0
S'great'
p1284
tp1285
a(I231
I138
F0.125
S'impressive'
p1286
tp1287
a(I236
I0
F-0.625
S'unreal'
p1288
tp1289
a(I242
I8
I0
S'such'
p1290
tp1291
a(I242
I8
I0
S'large'
p1292
tp1293
a(I251
I9
I0
S'great'
p1294
tp1295
a(I258
I2
I0
S'large'
p1296
tp1297
a(I261
I13
F0.5
S'clear'
p1298
tp1299
a(I261
I15
F-0.25
S'cheaper'
p1300
tp1301
a(I269
I6
F-0.125
S'super'
p1302
tp1303
a(I269
I6
I0
S'fast'
p1304
tp1305
a(I288
I7
F0.375
S'new'
p1306
tp1307
a(I290
I4
F0.25
S'bigger'
p1308
tp1309
a(I295
I20
F-0.375
S'top'
p1310
tp1311
a(I301
I3
F0.75
S'beautiful'
p1312
tp1313
as(S'everything'
p1314
tp1315
(lp1316
(I21
I0
F0.25
S'professional'
p1317
tp1318
a(I36
I14
F0.625
S'perfect'
p1319
tp1320
a(I42
I0
I0
S'great'
p1321
tp1322
a(I75
I11
I0
S'spanish'
p1323
tp1324
a(I82
I1
F-0.75
S'dead'
p1325
tp1326
a(I88
I1
F-0.5
S'long'
p1327
tp1328
a(I88
I1
F1.0
S'good'
p1329
tp1330
a(I88
I1
F0.625
S'easy'
p1331
tp1332
a(I88
I1
F0.875
S'nice'
p1333
tp1334
a(I127
I2
I0
S'great'
p1335
tp1336
a(I139
I0
F0.625
S'kind'
p1337
tp1338
a(I146
I4
I0
S'android'
p1339
tp1340
a(I212
I1
F0.875
S'happy'
p1341
tp1342
a(I269
I2
I0
S'great'
p1343
tp1344
a(I300
I0
F0.625
S'perfect'
p1345
tp1346
as(S'samsung'
p1347
tp1348
(lp1349
(I0
I0
F0.125
S'last'
p1350
tp1351
a(I0
I0
F0.125
S'last'
p1352
tp1353
a(I7
I3
F0.125
S'last'
p1354
tp1355
a(I34
I8
F0.5
S'technical'
p1356
tp1357
a(I49
I0
F0.375
g245
tp1358
a(I74
I0
I0
S'android'
p1359
tp1360
a(I114
I0
F0.375
g249
tp1361
a(I152
I1
F0.25
S'original'
p1362
tp1363
a(I153
I0
I0
S'least'
p1364
tp1365
a(I160
I0
I0
g255
tp1366
a(I185
I11
I0
g259
tp1367
a(I230
I6
I0
S'latin'
p1368
tp1369
a(I231
I67
I0
g368
tp1370
a(I231
I67
I0
g370
tp1371
a(I247
I8
F0.125
S'last'
p1372
tp1373
a(I261
I4
F1.0
S'good'
p1374
tp1375
a(I290
I0
F0.125
g261
tp1376
a(I290
I2
F1.0
S'best'
p1377
tp1378
as(S'camera'
p1379
tp1380
(lp1381
(I21
I0
I0
S'great'
p1382
tp1383
a(I21
I0
F0.875
S'music'
p1384
tp1385
a(I21
I0
F0.625
S'easier'
p1386
tp1387
a(I36
I20
F-0.625
S'unreal'
p1388
tp1389
a(I68
I2
F1.0
S'better'
p1390
tp1391
a(I90
I1
F-0.75
S'unable'
p1392
tp1393
a(I97
I0
I0
S'most'
p1394
tp1395
a(I122
I1
I0
S'great'
p1396
tp1397
a(I150
I1
F0.875
S'nice'
p1398
tp1399
a(I156
I2
F0.125
S'digital'
p1400
tp1401
a(I192
I20
F0.375
g593
tp1402
a(I200
I2
F-0.875
S'worst'
p1403
tp1404
a(I201
I1
F0.375
S'honest'
p1405
tp1406
a(I201
I1
I0
S'real'
p1407
tp1408
a(I210
I2
F0.5
S'second'
p1409
tp1410
a(I210
I2
I0
S'phenomenal'
p1411
tp1412
a(I251
I2
F-0.625
S'bad'
p1413
tp1414
a(I252
I0
F-0.125
S'xenon'
p1415
tp1416
a(I256
I1
F1.0
g595
tp1417
as(S'samsung'
p1418
S'galaxy'
p1419
S'sii'
p1420
tp1421
(lp1422
(I185
I11
I0
g259
tp1423
a(I294
I1
I0
g263
tp1424
a(I294
I1
F0.875
g982
tp1425
as(S'galaxy'
p1426
tp1427
(lp1428
(I114
I1
F0.875
g251
tp1429
a(I164
I0
F0.5
g474
tp1430
a(I176
I0
I0
g476
tp1431
a(I222
I2
F0.125
S'first'
p1432
tp1433
a(I224
I2
F1.0
S'better'
p1434
tp1435
a(I231
I88
F0.5
S'captivate'
p1436
tp1437
a(I231
I125
F-0.125
S'refresh'
p1438
tp1439
a(I231
I143
F0.625
g482
tp1440
a(I234
I0
F0.75
S'beautiful'
p1441
tp1442
a(I261
I1
F0.375
g484
tp1443
a(I273
I7
I0
S'own'
p1444
tp1445
a(I273
I7
F0.5
S'expensive'
p1446
tp1447
a(I280
I2
F-0.5
S'afraid'
p1448
tp1449
a(I294
I1
I0
g263
tp1450
as(S'people'
p1451
tp1452
(lp1453
(I174
I0
I0
S'dare'
p1454
tp1455
a(I211
I30
I0
S'many'
p1456
tp1457
a(I232
I29
F0.5
S'strong'
p1458
tp1459
as(S'battery'
p1460
tp1461
(lp1462
(I2
I3
I0
S'great'
p1463
tp1464
a(I5
I0
I0
S'mobile'
p1465
tp1466
a(I13
I0
F0.25
S'powerful'
p1467
tp1468
a(I26
I0
F0.375
S'complete'
p1469
tp1470
a(I27
I1
F-0.5
S'weak'
p1471
tp1472
a(I36
I8
I0
S'incredible'
p1473
tp1474
a(I36
I10
I0
S'incredible'
p1475
tp1476
a(I72
I3
F0.375
g809
tp1477
a(I73
I0
F0.125
S'last'
p1478
tp1479
a(I73
I0
F0.375
S'extra'
p1480
tp1481
a(I75
I17
F0.625
g811
tp1482
a(I84
I0
F-0.125
S'foreign'
p1483
tp1484
a(I101
I2
I0
S'more'
p1485
tp1486
a(I119
I0
F-0.5
S'weak'
p1487
tp1488
a(I125
I1
I0
S'full'
p1489
tp1490
a(I128
I5
F1.0
S'good'
p1491
tp1492
a(I144
I4
F-0.875
g813
tp1493
a(I192
I15
F-0.625
S'other'
p1494
tp1495
a(I197
I2
F-0.125
g819
tp1496
a(I208
I1
I0
S'blue'
p1497
tp1498
a(I220
I4
F0.5
S'true'
p1499
tp1500
a(I221
I0
F0.125
S'last'
p1501
tp1502
a(I231
I34
I0
S'rear'
p1503
tp1504
a(I243
I1
I0
S'hot'
p1505
tp1506
a(I243
I1
I0
S'cool'
p1507
tp1508
a(I261
I13
F0.625
g833
tp1509
a(I282
I0
F-0.75
S'dead'
p1510
tp1511
a(I288
I21
F-0.625
S'average'
p1512
tp1513
a(I288
I23
F1.0
g839
tp1514
a(I298
I6
F0.375
S'new'
p1515
tp1516
a(I298
I7
F1.0
S'good'
p1517
tp1518
as(S'works'
p1519
tp1520
(lp1521
(I251
I12
I0
S'great'
p1522
tp1523
a(I268
I1
F0.125
S'first'
p1524
tp1525
a(I294
I0
F-0.375
S'simple'
p1526
tp1527
a(I294
I0
I0
S'mobile'
p1528
tp1529
as(S'better'
p1530
tp1531
(lp1532
(I96
I7
I0
S'more'
p1533
tp1534
a(I203
I15
F0.375
S'much'
p1535
tp1536
a(I295
I10
F-0.5
S'sure'
p1537
tp1538
a(I295
I10
F-0.625
S'other'
p1539
tp1540
a(I295
I10
I0
S'android'
p1541
tp1542
as(S'device'
p1543
tp1544
(lp1545
(I36
I23
F1.0
S'best'
p1546
tp1547
a(I72
I0
I0
S'android'
p1548
tp1549
a(I75
I33
F-0.375
S'simple'
p1550
tp1551
a(I145
I1
I0
S'english'
p1552
tp1553
a(I145
I6
F0.375
S'new'
p1554
tp1555
a(I155
I2
F-0.5
S'poor'
p1556
tp1557
a(I155
I2
I0
S'such'
p1558
tp1559
a(I183
I0
F1.0
S'best'
p1560
tp1561
a(I183
I0
I0
S'big'
p1562
tp1563
a(I183
I0
F-0.125
S'super'
p1564
tp1565
a(I183
I0
F-0.25
S'thin'
p1566
tp1567
a(I231
I10
F1.0
S'best'
p1568
tp1569
a(I231
I16
F-0.625
S'other'
p1570
tp1571
a(I231
I16
I0
S'android'
p1572
tp1573
a(I231
I38
I0
S'more'
p1574
tp1575
a(I231
I82
I0
S'update'
p1576
tp1577
a(I231
I103
I0
S'current'
p1578
tp1579
a(I231
I104
F0.125
g351
tp1580
a(I231
I142
F-0.375
S'small'
p1581
tp1582
a(I245
I1
F-0.625
S'light'
p1583
tp1584
as(S'of'
p1585
S'samsung'
p1586
S'galaxy'
p1587
tp1588
(lp1589
(I49
I0
F0.375
g245
tp1590
a(I114
I0
F0.375
g249
tp1591
a(I114
I1
F0.875
g251
tp1592
a(I185
I11
I0
g259
tp1593
as(S'call'
p1594
tp1595
(lp1596
(I36
I21
F0.5
S'clear'
p1597
tp1598
a(I36
I21
F0.375
S'loud'
p1599
tp1600
a(I150
I1
F1.0
S'good'
p1601
tp1602
a(I184
I0
F0.125
S'able'
p1603
tp1604
a(I184
I0
F-0.5
S'answer'
p1605
tp1606
a(I301
I10
F1.0
S'good'
p1607
tp1608
as(S'light'
p1609
tp1610
(lp1611
(I201
I1
I0
g30
tp1612
as(S'recommend'
p1613
tp1614
(lp1615
(I295
I6
F0.375
S'extra'
p1616
tp1617
a(I295
I6
F-0.5
S'long'
p1618
tp1619
as(S't'
p1620
S'mobile'
p1621
S'sim'
p1622
tp1623
(lp1624
(I32
I2
F-0.875
S'trouble'
p1625
tp1626
a(I228
I5
F0.125
g281
tp1627
a(I228
I5
I0
S'american'
p1628
tp1629
as(S'apps'
p1630
tp1631
(lp1632
(I37
I6
I0
S'full'
p1633
tp1634
a(I37
I6
I0
S'useful'
p1635
tp1636
a(I145
I5
F0.25
S'favorite'
p1637
tp1638
a(I156
I7
I0
S'fast'
p1639
tp1640
a(I156
I7
F0.25
S'responsive'
p1641
tp1642
a(I171
I2
F0.375
S'available'
p1643
tp1644
a(I179
I1
I0
S'more'
p1645
tp1646
a(I181
I10
F-0.625
S'other'
p1647
tp1648
a(I185
I9
I0
S'unnecessary'
p1649
tp1650
a(I203
I10
I0
S'same'
p1651
tp1652
a(I220
I4
I0
S'many'
p1653
tp1654
a(I231
I68
F0.375
S'available'
p1655
tp1656
a(I234
I4
I0
S'useful'
p1657
tp1658
a(I258
I2
F1.0
S'good'
p1659
tp1660
a(I275
I5
F-0.375
S'top'
p1661
tp1662
a(I302
I0
F0.75
S'receive'
p1663
tp1664
a(I302
I0
F-0.625
S'free'
p1665
tp1666
a(I302
I0
I0
S'most'
p1667
tp1668
as(S'days'
p1669
tp1670
(lp1671
(I12
I3
I0
S'later'
p1672
tp1673
a(I26
I36
F0.125
S'last'
p1674
tp1675
a(I30
I3
F0.875
S'important'
p1676
tp1677
a(I128
I5
F-0.625
S'lasting'
p1678
tp1679
a(I138
I2
F0.125
S'able'
p1680
tp1681
a(I161
I11
F0.125
S'able'
p1682
tp1683
a(I189
I9
I0
S'few'
p1684
tp1685
a(I192
I15
F0.125
S'last'
p1686
tp1687
a(I232
I23
F0.125
S'able'
p1688
tp1689
a(I232
I23
I0
S'least'
p1690
tp1691
as.