(dp0
(S'4'
p1
S'years'
p2
tp3
(lp4
(I0
I29
F0.5
S'strong'
p5
I1
tp6
a(I14
I2
F0.125
S'last'
p7
I1
tp8
as(S'battery'
p9
S'life'
p10
tp11
(lp12
(I0
I5
F1.0
S'good'
p13
I1
tp14
a(I4
I9
F1.0
S'good'
p15
I1
tp16
a(I4
I15
F0.625
S'decent'
p17
I1
tp18
a(I4
I17
I0
S'full'
p19
I1
tp20
a(I9
I11
F-0.5
S'long'
p21
I1
tp22
a(I15
I2
I0
S'great'
p23
I1
tp24
a(I15
I32
F-0.5
S'long'
p25
I1
tp26
a(I15
I83
F-0.5
S'long'
p27
I1
tp28
a(I20
I38
F1.0
S'best'
p29
I1
tp30
a(I21
I3
F0.375
S'extended'
p31
I1
tp32
a(I0
I5
F1.0
g13
I19
tp33
a(I4
I9
F1.0
g15
I19
tp34
a(I4
I15
F0.625
g17
I19
tp35
a(I20
I38
F1.0
g29
I19
tp36
a(I21
I3
F0.375
g31
I19
tp37
as(S'text'
p38
tp39
(lp40
(I15
I78
F0.125
S'able'
p41
I18
tp42
a(I15
I78
F0.25
S'original'
p43
I18
tp44
a(I21
I23
F-0.125
S'communicate'
p45
I18
tp46
as(S'service'
p47
tp48
(lp49
(I6
I5
F0.375
S'much'
p50
I16
tp51
a(I15
I86
F-0.75
S'difficult'
p52
I16
tp53
a(I15
I95
I0
S'great'
p54
I16
tp55
a(I20
I43
F1.0
S'good'
p56
I16
tp57
as(S'samsung'
p58
tp59
(lp60
(I5
I0
I0
S'same'
p61
I7
tp62
a(I5
I58
F0.125
S'first'
p63
I7
tp64
a(I10
I17
F0.25
S'original'
p65
I7
tp66
as(S'few'
p67
S'months'
p68
tp69
(lp70
(I11
I16
I0
S'few'
p71
I5
tp72
a(I14
I34
I0
S'few'
p73
I5
tp74
a(I14
I40
I0
S'few'
p75
I5
tp76
as(S'camera'
p77
tp78
(lp79
(I20
I8
F0.625
S'decent'
p80
I1
tp81
as(S'love'
p82
S'love'
p83
tp84
(lp85
(I10
I36
F1.0
S'love'
p86
I2
tp87
as(S'a'
p88
S'data'
p89
S'package'
p90
tp91
(lp92
(I21
I26
I0
S'optional'
p93
I0
tp94
a(I21
I26
I0
g93
I0
tp95
a(I5
I14
I0
S'monthly'
p96
I13
tp97
a(I5
I35
F0.375
S'interesting'
p98
I13
tp99
a(I10
I31
F0.375
S'much'
p100
I13
tp101
as(S'extended'
p102
S'battery'
p103
tp104
(lp105
(I8
I6
I0
S'own'
p106
I0
tp107
a(I13
I23
F0.375
S'extended'
p108
I0
tp109
a(I4
I17
I0
g19
I15
tp110
a(I7
I48
F-0.5
S'sure'
p111
I15
tp112
a(I7
I48
F-0.5
S'long'
p113
I15
tp114
a(I7
I48
F0.125
S'charger'
p115
I15
tp116
a(I8
I6
I0
g106
I15
tp117
a(I9
I11
F-0.5
g21
I15
tp118
a(I13
I23
F0.375
g108
I15
tp119
a(I15
I2
I0
g23
I15
tp120
a(I15
I32
F-0.5
g25
I15
tp121
a(I15
I83
F-0.5
g27
I15
tp122
a(I18
I74
F-0.25
S'low'
p123
I15
tp124
a(I18
I76
F-0.25
S'low'
p125
I15
tp126
a(I18
I77
F-0.25
S'low'
p127
I15
tp128
a(I18
I81
F-0.25
S'low'
p129
I15
tp130
as(S'2'
p131
S'years'
p132
tp133
(lp134
(I0
I29
F0.5
g5
I3
tp135
a(I2
I3
F0.125
S'first'
p136
I3
tp137
a(I18
I112
F-0.125
S'mine'
p138
I3
tp139
as(S'verizon'
p140
tp141
(lp142
(I20
I1
I0
S'local'
p143
I0
tp144
as(S'seller'
p145
tp146
(lp147
(I16
I52
I0
S'great'
p148
I19
tp149
a(I21
I8
I0
S'more'
p150
I19
tp151
as(S'keyboard'
p152
S'for'
p153
S'texting'
p154
tp155
(lp156
(I12
I19
I0
S'quick'
p157
I0
tp158
a(I12
I19
F0.625
S'easy'
p159
I0
tp160
a(I14
I11
I0
S'great'
p161
I0
tp162
a(I16
I64
I0
S'fast'
p163
I0
tp164
a(I16
I64
F-0.5
S'open'
p165
I0
tp166
a(I18
I128
I0
S'full'
p167
I0
tp168
a(I20
I8
I0
S'great'
p169
I0
tp170
a(I20
I8
I0
S'big'
p171
I0
tp172
a(I3
I6
F0.625
S'convenient'
p173
I0
tp174
a(I5
I4
I0
S'basic'
p175
I0
tp176
a(I5
I43
I0
S'great'
p177
I0
tp178
a(I12
I19
I0
g157
I0
tp179
a(I12
I19
F0.625
g159
I0
tp180
a(I14
I11
I0
g161
I0
tp181
a(I15
I56
F-0.5
S'heavy'
p182
I0
tp183
a(I4
I8
F-0.625
S'quite'
p184
I2
tp185
a(I5
I5
I0
S'great'
p186
I2
tp187
a(I5
I41
F-0.5
S'actual'
p188
I2
tp189
a(I9
I4
F0.625
S'easy'
p190
I2
tp191
a(I14
I6
I0
S'full'
p192
I2
tp193
a(I14
I18
I0
S'great'
p194
I2
tp195
a(I14
I19
I0
S'normal'
p196
I2
tp197
a(I15
I15
I0
S'adaptable'
p198
I2
tp199
a(I16
I64
I0
g163
I2
tp200
a(I16
I64
F-0.5
g165
I2
tp201
a(I18
I75
I-100
S'lit-up'
p202
I2
tp203
a(I18
I75
F0.25
S'sweet'
p204
I2
tp205
a(I18
I78
F-0.625
S'light'
p206
I2
tp207
a(I18
I106
I0
S'full'
p208
I2
tp209
a(I18
I128
I0
g167
I2
tp210
a(I20
I8
I0
g169
I2
tp211
a(I20
I8
I0
g171
I2
tp212
as(S'smart'
p213
tp214
(lp215
(I5
I13
F-0.5
S'longer'
p216
I10
tp217
a(I7
I62
F-0.625
S'want'
p218
I10
tp219
a(I16
I1
F0.625
S'interested'
p220
I10
tp221
a(I16
I1
F0.375
S'new'
p222
I10
tp223
as(S'button'
p224
S'on'
p225
S'side'
p226
tp227
(lp228
(I18
I56
F0.5
S'second'
p229
I0
tp230
a(I18
I69
F-0.75
S'little'
p231
I19
tp232
as(S'buttons'
p233
tp234
(lp235
(I5
I62
F-0.375
S'top'
p236
I13
tp237
a(I7
I33
F0.25
S'hang-up'
p238
I13
tp239
a(I7
I67
I0
S'large'
p240
I13
tp241
a(I12
I8
F-0.375
S'small'
p242
I13
tp243
a(I21
I39
F-0.375
S'small'
p244
I13
tp245
a(I21
I44
F-0.375
S'smaller'
p246
I13
tp247
as(S'calls'
p248
tp249
(lp250
(I16
I65
F1.0
S'good'
p251
I0
tp252
as(S'alias'
p253
tp254
(lp255
(I5
I25
F0.75
S'due'
p256
I0
tp257
a(I5
I32
F-0.5
S'less'
p258
I0
tp259
a(I5
I36
F1.0
S'best'
p260
I0
tp261
a(I6
I0
I0
S'third'
p262
I0
tp263
a(I13
I8
I0
S'older'
p264
I0
tp265
a(I14
I17
F0.5
S'upgraded'
p266
I0
tp267
a(I14
I35
F0.125
S'first'
p268
I0
tp269
a(I15
I95
F-0.5
S'began'
p270
I0
tp271
a(I16
I59
F0.125
S'first'
p272
I0
tp273
as(S'smartphone'
p274
tp275
(lp276
(I7
I39
F0.375
S'much'
p277
I0
tp278
as(S'data'
p279
S'plan'
p280
tp281
(lp282
(I10
I31
F0.375
g100
I0
tp283
as(S'pocket'
p284
tp285
(lp286
(I15
I87
F0.75
S'fitting'
p287
I17
tp288
as(S'amazon'
p289
tp290
(lp291
(I15
I97
F0.375
S'new'
p292
I13
tp293
a(I16
I10
F0.5
S'thankful'
p294
I13
tp295
as(S'flip'
p296
tp297
(lp298
(I4
I15
I0
S'normal'
p299
I4
tp300
a(I5
I27
F-0.5
S'regular'
p301
I4
tp302
a(I6
I10
F-0.5
S'open'
p303
I4
tp304
a(I6
I10
I0
S'great'
p305
I4
tp306
a(I7
I24
F-0.625
S'other'
p307
I4
tp308
a(I7
I29
F-0.625
S'other'
p309
I4
tp310
a(I7
I30
F-0.625
S'bad'
p311
I4
tp312
a(I7
I67
F-0.5
S'open'
p313
I4
tp314
a(I15
I3
I0
S'most'
p315
I4
tp316
a(I21
I28
I0
S'upright'
p317
I4
tp318
as(S'sound'
p319
S'quality'
p320
tp321
(lp322
(I5
I35
F1.0
S'good'
p323
I0
tp324
a(I11
I29
F1.0
S'good'
p325
I0
tp326
as(S'touch'
p327
S'screen'
p328
tp329
(lp330
(I15
I87
F0.5
S'touch'
p331
I2
tp332
a(I21
I0
F0.375
S'new'
p333
I2
tp334
as(S'full'
p335
S'qwerty'
p336
S'keyboard'
p337
tp338
(lp339
(I5
I27
I0
S'full'
p340
I0
tp341
a(I5
I63
I0
S'full'
p342
I0
tp343
a(I7
I58
I0
S'full'
p344
I0
tp345
a(I11
I3
I0
S'full'
p346
I0
tp347
a(I0
I29
I0
S'physical'
p348
I0
tp349
a(I5
I5
I0
g186
I0
tp350
a(I5
I27
I0
g340
I0
tp351
a(I5
I63
I0
g342
I0
tp352
a(I7
I58
I0
g344
I0
tp353
a(I11
I3
I0
g346
I0
tp354
a(I21
I27
F-0.5
S'open'
p355
I0
tp356
a(I21
I27
F0.875
S'nice'
p357
I0
tp358
a(I5
I27
I0
g340
I0
tp359
a(I5
I63
I0
g342
I0
tp360
a(I7
I58
I0
g344
I0
tp361
a(I11
I3
I0
g346
I0
tp362
a(I15
I51
I0
S'full'
p363
I0
tp364
a(I0
I29
I0
g348
I0
tp365
a(I5
I27
I0
g340
I0
tp366
a(I5
I63
I0
g342
I0
tp367
a(I7
I58
I0
g344
I0
tp368
a(I11
I3
I0
g346
I0
tp369
a(I15
I51
I0
g363
I0
tp370
a(I21
I27
F-0.5
g355
I0
tp371
a(I21
I27
F0.875
g357
I0
tp372
as.