(dp0
(S'home'
p1
S'button'
p2
tp3
(lp4
(I16
I2
F-0.875
S'harder'
p5
I0
tp6
a(I39
I0
F0.5
S'reasonable'
p7
I0
tp8
a(I39
I0
F-0.5
S'long'
p9
I0
tp10
a(I41
I1
I0
S'great'
p11
I0
tp12
a(I54
I4
F0.375
S'register'
p13
I0
tp14
a(I39
I0
F0.5
g7
I19
tp15
a(I39
I0
F-0.5
g9
I19
tp16
a(I41
I1
I0
g11
I19
tp17
a(I54
I4
F0.375
g13
I19
tp18
a(I91
I5
F0.625
S'easy'
p19
I19
tp20
as(S'battery'
p21
S'life'
p22
tp23
(lp24
(I13
I3
F-0.75
S'short'
p25
I1
tp26
a(I16
I9
F1.0
S'good'
p27
I1
tp28
a(I75
I0
F0.125
S'last'
p29
I1
tp30
a(I75
I0
F-0.5
S'long'
p31
I1
tp32
a(I13
I3
F-0.75
g25
I15
tp33
a(I20
I19
I0
S'faster'
p34
I15
tp35
a(I50
I3
I0
S'great'
p36
I15
tp37
a(I53
I14
F0.125
S'able'
p38
I15
tp39
a(I53
I14
I0
S'least'
p40
I15
tp41
a(I54
I2
F-0.625
S'bad'
p42
I15
tp43
a(I68
I40
I0
S'ran'
p44
I15
tp45
a(I76
I1
F0.375
S'new'
p46
I15
tp47
as(S'happy'
p48
S'with'
p49
S'purchase'
p50
tp51
(lp52
(I28
I13
F0.875
S'happy'
p53
I0
tp54
a(I89
I2
F-0.625
S'other'
p55
I0
tp56
a(I89
I2
F0.875
S'happy'
p57
I0
tp58
as(S'scratch'
p59
tp60
(lp61
(I3
I1
F-0.375
S'small'
p62
I8
tp63
a(I69
I0
I0
S'big'
p64
I8
tp65
as(S'apple'
p66
S'products'
p67
tp68
(lp69
(I0
I18
F0.25
S'used'
p70
I0
tp71
a(I0
I18
I0
S'more'
p72
I0
tp73
a(I29
I8
F-0.25
S'direct'
p74
I0
tp75
a(I90
I0
F0.25
S'consistent'
p76
I0
tp77
a(I90
I0
I0
S'apple'
p78
I0
tp79
a(I92
I63
F0.375
S'much'
p80
I0
tp81
a(I92
I63
I0
S'few'
p82
I0
tp83
as(S'service'
p84
tp85
(lp86
(I45
I11
I0
S'quick'
p87
I16
tp88
a(I48
I0
I0
S'great'
p89
I16
tp90
a(I53
I15
I0
S'least'
p91
I16
tp92
as(S'camera'
p93
tp94
(lp95
(I4
I12
F0.875
S'music'
p96
I1
tp97
as(S'otter'
p98
S'box'
p99
tp100
(lp101
(I0
I15
I0
S'own'
p102
I0
tp103
as(S'to'
p104
S'apple'
p105
S'store'
p106
tp107
(lp108
(I0
I4
F-0.5
S'sure'
p109
I0
tp110
a(I0
I4
F0.375
S'new'
p111
I0
tp112
a(I39
I12
I0
S'great'
p113
I0
tp114
a(I0
I4
F-0.5
g109
I0
tp115
a(I0
I4
F0.375
g111
I0
tp116
a(I39
I12
I0
g113
I0
tp117
a(I0
I18
F0.25
g70
I4
tp118
a(I5
I3
I0
S'cable'
p119
I4
tp120
a(I20
I26
I0
S'general'
p121
I4
tp122
a(I20
I26
F-0.125
S'public'
p123
I4
tp124
a(I29
I8
F-0.25
g74
I4
tp125
a(I50
I19
F0.125
S'first'
p126
I4
tp127
a(I53
I18
I0
S'very'
p128
I4
tp129
a(I53
I18
F0.125
S'first'
p130
I4
tp131
a(I79
I3
F0.25
S'original'
p132
I4
tp133
a(I92
I63
F0.375
g80
I4
tp134
a(I92
I63
I0
g82
I4
tp135
as(S'perfect'
p136
S'condition'
p137
tp138
(lp139
(I69
I1
F0.625
S'perfect'
p140
I3
tp141
a(I92
I78
F0.375
S'new'
p142
I3
tp143
as(S'seller'
p144
tp145
(lp146
(I26
I6
F-0.25
S'white'
p147
I19
tp148
a(I26
I6
F0.375
S'available'
p149
I19
tp150
a(I59
I7
F1.0
S'better'
p151
I19
tp152
a(I63
I55
F0.375
S'reliable'
p153
I19
tp154
a(I76
I17
F0.375
S'new'
p155
I19
tp156
as(S'great'
p157
S'condition'
p158
tp159
(lp160
(I7
I2
I0
S'great'
p161
I7
tp162
a(I10
I0
I0
S'great'
p163
I7
tp164
a(I29
I1
I0
S'great'
p165
I7
tp166
a(I37
I1
I0
S'great'
p167
I7
tp168
a(I50
I9
I0
S'great'
p169
I7
tp170
a(I54
I0
I0
S'great'
p171
I7
tp172
a(I69
I0
I0
S'great'
p173
I7
tp174
a(I69
I8
F1.0
S'good'
p175
I7
tp176
a(I76
I6
F1.0
S'good'
p177
I7
tp178
a(I93
I0
I0
S'great'
p179
I7
tp180
as(S'a'
p181
S'new'
p182
S'iphone'
p183
tp184
(lp185
(I0
I0
F0.375
S'new'
p186
I0
tp187
a(I0
I2
F0.375
S'new'
p188
I0
tp189
a(I14
I3
F0.375
S'new'
p190
I0
tp191
a(I14
I3
F-0.25
S'white'
p192
I0
tp193
a(I28
I34
F1.0
S'good'
p194
I0
tp195
a(I28
I34
F0.375
S'new'
p196
I0
tp197
a(I46
I0
F0.375
S'new'
p198
I0
tp199
a(I46
I12
F0.375
S'new'
p200
I0
tp201
a(I49
I0
F-0.625
S'other'
p202
I0
tp203
a(I50
I0
I0
S'prospective'
p204
I0
tp205
a(I57
I1
F0.375
S'new'
p206
I0
tp207
a(I65
I0
F0.375
S'new'
p208
I0
tp209
a(I76
I3
F0.375
S'new'
p210
I0
tp211
a(I79
I12
F0.375
S'new'
p212
I0
tp213
a(I91
I2
F0.375
S'new'
p214
I0
tp215
a(I91
I2
F0.25
S'used'
p216
I0
tp217
a(I0
I0
F0.375
g186
I0
tp218
a(I0
I2
F0.375
g188
I0
tp219
a(I14
I3
F0.375
g190
I0
tp220
a(I14
I3
F-0.25
g192
I0
tp221
a(I28
I34
F1.0
g194
I0
tp222
a(I28
I34
F0.375
g196
I0
tp223
a(I46
I0
F0.375
g198
I0
tp224
a(I46
I12
F0.375
g200
I0
tp225
a(I49
I0
F-0.625
g202
I0
tp226
a(I50
I0
I0
g204
I0
tp227
a(I57
I1
F0.375
g206
I0
tp228
a(I65
I0
F0.375
g208
I0
tp229
a(I76
I3
F0.375
g210
I0
tp230
a(I79
I12
F0.375
g212
I0
tp231
a(I91
I2
F0.375
g214
I0
tp232
a(I91
I2
F0.25
g216
I0
tp233
a(I0
I0
F0.375
g186
I1
tp234
a(I0
I2
F0.375
g188
I1
tp235
a(I14
I3
F0.375
g190
I1
tp236
a(I14
I3
F-0.25
g192
I1
tp237
a(I19
I23
I0
S'trash'
p238
I1
tp239
a(I24
I6
I0
S'more'
p240
I1
tp241
a(I28
I34
F1.0
g194
I1
tp242
a(I28
I34
F0.375
g196
I1
tp243
a(I35
I1
I0
S'great'
p244
I1
tp245
a(I36
I22
F-0.125
S'slow'
p246
I1
tp247
a(I36
I23
I0
S'quick'
p248
I1
tp249
a(I45
I5
F0.875
S'happy'
p250
I1
tp251
a(I46
I0
F0.375
g198
I1
tp252
a(I46
I1
F0.875
S'nice'
p253
I1
tp254
a(I46
I12
F0.375
g200
I1
tp255
a(I49
I0
F-0.625
g202
I1
tp256
a(I50
I0
I0
g204
I1
tp257
a(I53
I7
I0
S'stable'
p258
I1
tp259
a(I54
I3
I0
S'quick'
p260
I1
tp261
a(I57
I1
F0.375
g206
I1
tp262
a(I59
I10
I0
S'great'
p263
I1
tp264
a(I63
I21
F0.25
S'refurbished'
p265
I1
tp266
a(I65
I0
F0.375
g208
I1
tp267
a(I69
I11
F0.75
S'worth'
p268
I1
tp269
a(I73
I4
F1.0
S'good'
p270
I1
tp271
a(I76
I3
F0.375
g210
I1
tp272
a(I79
I1
F0.25
S'used'
p273
I1
tp274
a(I79
I12
F0.375
g212
I1
tp275
a(I91
I2
F0.375
g214
I1
tp276
a(I91
I2
F0.25
g216
I1
tp277
a(I92
I64
I0
S'general'
p278
I1
tp279
a(I94
I10
F0.5
S'buy'
p280
I1
tp281
as(S'in'
p282
S'good'
p283
S'condition'
p284
tp285
(lp286
(I6
I4
F1.0
S'good'
p287
I6
tp288
a(I6
I4
F1.0
S'good'
p289
I6
tp290
a(I16
I13
F1.0
S'good'
p291
I6
tp292
a(I20
I2
F1.0
S'good'
p293
I6
tp294
a(I21
I0
F1.0
S'good'
p295
I6
tp296
a(I22
I0
F1.0
S'good'
p297
I6
tp298
a(I28
I8
F1.0
S'good'
p299
I6
tp300
a(I35
I7
F1.0
S'good'
p301
I6
tp302
a(I48
I17
F1.0
S'good'
p303
I6
tp304
a(I50
I10
F1.0
S'good'
p305
I6
tp306
a(I58
I2
F1.0
S'good'
p307
I6
tp308
a(I58
I2
F0.625
S'kind'
p309
I6
tp310
a(I61
I6
F1.0
S'good'
p311
I6
tp312
a(I63
I1
F1.0
S'good'
p313
I6
tp314
a(I69
I8
F1.0
g175
I6
tp315
a(I73
I27
F1.0
S'good'
p316
I6
tp317
a(I76
I6
F1.0
g177
I6
tp318
a(I79
I13
F1.0
S'good'
p319
I6
tp320
a(I95
I0
F1.0
S'good'
p321
I6
tp322
a(I6
I4
F1.0
g287
I6
tp323
a(I6
I4
F1.0
g289
I6
tp324
a(I16
I13
F1.0
g291
I6
tp325
a(I20
I2
F1.0
g293
I6
tp326
a(I21
I0
F1.0
g295
I6
tp327
a(I22
I0
F1.0
g297
I6
tp328
a(I28
I8
F1.0
g299
I6
tp329
a(I35
I7
F1.0
g301
I6
tp330
a(I48
I17
F1.0
g303
I6
tp331
a(I50
I10
F1.0
g305
I6
tp332
a(I58
I2
F1.0
g307
I6
tp333
a(I58
I2
F0.625
g309
I6
tp334
a(I61
I6
F1.0
g311
I6
tp335
a(I63
I1
F1.0
g313
I6
tp336
a(I69
I8
F1.0
g175
I6
tp337
a(I73
I27
F1.0
g316
I6
tp338
a(I76
I6
F1.0
g177
I6
tp339
a(I79
I13
F1.0
g319
I6
tp340
a(I95
I0
F1.0
g321
I6
tp341
as(S'scratches'
p342
tp343
(lp344
(I17
I2
F0.375
S'new'
p345
I4
tp346
a(I30
I2
F-0.625
S'other'
p347
I4
tp348
a(I46
I10
F0.375
S'new'
p349
I4
tp350
a(I50
I23
I0
S'few'
p351
I4
tp352
a(I50
I23
F-0.625
S'light'
p353
I4
tp354
a(I50
I30
F-0.75
S'minor'
p355
I4
tp356
a(I50
I30
F0.5
S'functional'
p357
I4
tp358
a(I53
I12
F0.375
S'new'
p359
I4
tp360
a(I63
I51
I0
S'more'
p361
I4
tp362
a(I66
I0
F0.125
S'visible'
p363
I4
tp364
a(I83
I0
I0
S'few'
p365
I4
tp366
a(I83
I0
F0.5
S'obvious'
p367
I4
tp368
as(S'sim'
p369
S'card'
p370
tp371
(lp372
(I14
I25
F-0.375
S'smaller'
p373
I0
tp374
a(I46
I11
F-0.5
S'sure'
p375
I0
tp376
as(S'serial'
p377
S'number'
p378
tp379
(lp380
(I0
I4
I0
S'serial'
p381
I0
tp382
a(I68
I31
I0
S'serial'
p383
I0
tp384
a(I68
I31
F0.375
S'new'
p385
I0
tp386
a(I68
I44
I0
S'serial'
p387
I0
tp388
a(I76
I4
I0
S'serial'
p389
I0
tp390
as(S'old'
p391
S'ones'
p392
tp393
(lp394
(I36
I24
F0.375
S'much'
p395
I0
tp396
a(I36
I24
I0
S'old'
p397
I0
tp398
a(I36
I25
I0
S'old'
p399
I0
tp400
a(I36
I26
I0
S'old'
p401
I0
tp402
as(S'new'
p403
S'and'
p404
S'works'
p405
tp406
(lp407
(I28
I9
F0.375
S'new'
p408
I0
tp409
a(I45
I2
F0.375
S'new'
p410
I0
tp411
a(I93
I0
I0
S'great'
p412
I0
tp413
as(S'apps'
p414
tp415
(lp416
(I20
I9
I0
S'organizational'
p417
I0
tp418
a(I36
I23
I0
S'many'
p419
I0
tp420
a(I36
I23
I0
S'useful'
p421
I0
tp422
a(I52
I0
F0.125
S'key'
p423
I0
tp424
a(I92
I48
I0
S'basic'
p425
I0
tp426
as(S'amazon'
p427
tp428
(lp429
(I32
I0
F0.625
S'easy'
p430
I13
tp431
a(I54
I7
F0.125
S'first'
p432
I13
tp433
as(S'home'
p434
S'key'
p435
tp436
(lp437
(I47
I4
F-0.625
S'bad'
p438
I0
tp439
a(I47
I4
F1.0
S'good'
p440
I0
tp441
as.