(dp0
(S'problem'
p1
tp2
(lp3
(I14
I0
F-0.625
S'sorry'
p4
tp5
a(I71
I0
F-0.625
S'want'
p6
tp7
a(I86
I1
F0.25
S'main'
p8
tp9
a(I98
I10
I0
S'signal'
p10
tp11
a(I126
I6
I0
S'real'
p12
tp13
as(S'seems'
p14
tp15
(lp16
(I73
I2
F0.5
S'reasonable'
p17
tp18
as(S'battery'
p19
S'life'
p20
tp21
(lp22
(I0
I8
I0
S'more'
p23
tp24
a(I0
I8
F1.0
S'good'
p25
tp26
a(I1
I4
F1.0
S'good'
p27
tp28
a(I28
I17
F1.0
S'good'
p29
tp30
a(I33
I2
I0
S'great'
p31
tp32
a(I40
I13
F-0.75
S'bright'
p33
tp34
a(I40
I18
F-0.5
S'poor'
p35
tp36
a(I51
I3
F1.0
S'good'
p37
tp38
a(I59
I14
I0
S'more'
p39
tp40
a(I85
I1
F-0.75
S'short'
p41
tp42
a(I110
I11
F1.0
S'good'
p43
tp44
a(I140
I0
F-0.5
S'poor'
p45
tp46
a(I164
I1
F-0.875
S'unhappy'
p47
tp48
a(I164
I1
F-0.5
S'poor'
p49
tp50
as(S'model'
p51
tp52
(lp53
(I14
I0
I0
S'specific'
p54
tp55
a(I23
I0
F-0.25
S'cheaper'
p56
tp57
a(I32
I0
I0
S'older'
p58
tp59
a(I55
I2
I0
S'august'
p60
tp61
a(I81
I5
F-0.75
S'wrong'
p62
tp63
a(I96
I1
I0
S'exact'
p64
tp65
a(I142
I0
F-0.75
S'wrong'
p66
tp67
as(S'network'
p68
tp69
(lp70
(I100
I2
I0
S'same'
p71
tp72
as(S'google'
p73
tp74
(lp75
(I73
I13
F1.0
S'better'
p76
tp77
a(I118
I6
F0.75
S'give'
p78
tp79
as(S'android'
p80
S'os'
p81
tp82
(lp83
(I7
I25
F0.875
S'nice'
p84
tp85
a(I28
I1
F-0.625
S'clean'
p86
tp87
a(I35
I14
F0.25
S'original'
p88
tp89
a(I35
I19
I0
S'android'
p90
tp91
a(I35
I19
F0.125
S'first'
p92
tp93
a(I38
I15
F-0.5
S'actual'
p94
tp95
a(I47
I1
I0
S'android'
p96
tp97
a(I50
I11
I0
S'android'
p98
tp99
a(I75
I0
I0
S'latest'
p100
tp101
a(I75
I0
I0
S'android'
p102
tp103
a(I98
I6
I0
S'android'
p104
tp105
a(I121
I1
F0.375
S'newest'
p106
tp107
a(I121
I1
I0
S'android'
p108
tp109
a(I130
I2
I0
S'android'
p110
tp111
a(I133
I1
I0
S'android'
p112
tp113
as(S'deal'
p114
S'breaker'
p115
tp116
(lp117
(I100
I3
F-0.25
S'disappointing'
p118
tp119
as(S'support'
p120
tp121
(lp122
(I42
I1
F-0.125
S'bean'
p123
tp124
a(I58
I1
I0
S'external'
p125
tp126
as(S'screen'
p127
tp128
(lp129
(I0
I13
F0.125
S'able'
p130
tp131
a(I6
I3
I0
S'big'
p132
tp133
a(I6
I3
F-0.75
S'bright'
p134
tp135
a(I6
I14
F0.5
S'flat'
p136
tp137
a(I7
I21
I0
S'more'
p138
tp139
a(I7
I21
I0
S'more'
p140
tp141
a(I7
I21
F0.75
S'beautiful'
p142
tp143
a(I18
I2
I0
S'plastic'
p144
tp145
a(I33
I1
I0
S'great'
p146
tp147
a(I37
I5
I0
S'great'
p148
tp149
a(I37
I6
F-0.375
S'small'
p150
tp151
a(I37
I8
F0.875
S'nice'
p152
tp153
a(I40
I10
F-0.25
S'higher'
p154
tp155
a(I52
I5
I0
S'rear'
p156
tp157
a(I59
I5
F-0.75
S'uncomfortable'
p158
tp159
a(I65
I0
F0.25
S'bigger'
p160
tp161
a(I75
I1
F-0.75
S'bright'
p162
tp163
a(I86
I1
F0.5
S'touch'
p164
tp165
a(I92
I3
F-0.25
S'white'
p166
tp167
a(I96
I11
F0.875
S'nice'
p168
tp169
a(I96
I16
F0.75
S'beautiful'
p170
tp171
a(I115
I5
F0.25
S'bigger'
p172
tp173
a(I115
I5
F0.375
S'much'
p174
tp175
a(I116
I19
F0.5
S'touch'
p176
tp177
a(I118
I1
F0.25
S'responsive'
p178
tp179
a(I136
I2
F0.875
S'nice'
p180
tp181
a(I136
I2
I0
S'big'
p182
tp183
a(I155
I3
F-0.375
S'smaller'
p184
tp185
a(I155
I14
F0.5
S'expensive'
p186
tp187
a(I155
I14
F0.25
S'bigger'
p188
tp189
a(I155
I14
F0.25
S'larger'
p190
tp191
a(I158
I0
I0
S'fast'
p192
tp193
a(I159
I12
I0
S'big'
p194
tp195
as(S'samsung'
p196
tp197
(lp198
(I11
I4
F-0.375
S'top'
p199
tp200
a(I35
I1
I0
S'optional'
p201
tp202
a(I73
I10
F-0.625
S'other'
p203
tp204
a(I73
I43
F-0.25
S'google'
p205
tp206
a(I110
I4
F-0.25
S'google'
p207
tp208
as(S'cream'
p209
S'sandwich'
p210
tp211
(lp212
(I85
I0
I0
S'quick'
p213
tp214
as(S'back'
p215
tp216
(lp217
(I97
I8
F-0.125
S'mine'
p218
tp219
as(S'version'
p220
tp221
(lp222
(I11
I3
I0
S'latest'
p223
tp224
a(I38
I8
I0
S'android'
p225
tp226
a(I38
I34
I0
S'android'
p227
tp228
a(I40
I1
I0
S'latest'
p229
tp230
a(I40
I1
I0
S'android'
p231
tp232
a(I48
I11
F0.125
S'able'
p233
tp234
a(I66
I3
I0
S'latest'
p235
tp236
a(I66
I3
I0
S'android'
p237
tp238
a(I81
I4
F-0.5
S'sure'
p239
tp240
a(I96
I0
F-0.75
S'wrong'
p241
tp242
a(I96
I2
F-0.75
S'wrong'
p243
tp244
a(I98
I1
I0
S'old'
p245
tp246
a(I108
I0
I0
S'european'
p247
tp248
a(I140
I3
F0.875
S'nice'
p249
tp250
a(I140
I3
F0.375
S'newest'
p251
tp252
a(I140
I3
I0
S'android'
p253
tp254
a(I153
I23
I0
S'wish'
p255
tp256
a(I155
I6
I0
S'latest'
p257
tp258
a(I155
I6
I0
S'android'
p259
tp260
a(I156
I0
I0
S'european'
p261
tp262
as(S'apps'
p263
tp264
(lp265
(I35
I10
I0
S'many'
p266
tp267
a(I38
I7
F-0.625
S'bad'
p268
tp269
a(I38
I10
I0
S'hungry'
p270
tp271
a(I38
I34
F-0.5
S'certain'
p272
tp273
a(I46
I1
F1.0
S'good'
p274
tp275
a(I47
I0
I0
S'android'
p276
tp277
a(I47
I1
I0
S'many'
p278
tp279
a(I54
I6
I0
S'more'
p280
tp281
a(I59
I4
F0.375
S'new'
p282
tp283
a(I59
I9
I0
S'local'
p284
tp285
a(I93
I5
F0.375
S'available'
p286
tp287
a(I98
I6
I0
S'few'
p288
tp289
a(I98
I6
F-0.375
S'unstable'
p290
tp291
a(I112
I1
F0.375
S'newer'
p292
tp293
a(I112
I1
I0
S'great'
p294
tp295
a(I150
I1
F0.375
S'similar'
p296
tp297
as(S'droid'
p298
S'x'
p299
tp300
(lp301
(I0
I7
I0
S'fast'
p302
tp303
a(I155
I18
I0
S'same'
p304
tp305
as(S'quality'
p306
tp307
(lp308
(I0
I5
F-0.5
S'poor'
p309
tp310
a(I28
I19
F1.0
S'good'
p311
tp312
a(I29
I2
F1.0
S'good'
p313
tp314
a(I38
I32
F-0.25
S'low'
p315
tp316
a(I40
I14
F1.0
S'good'
p317
tp318
a(I40
I26
F1.0
S'better'
p319
tp320
a(I51
I3
I0
S'general'
p321
tp322
a(I59
I11
F1.0
S'good'
p323
tp324
a(I59
I12
F1.0
S'good'
p325
tp326
a(I98
I2
F1.0
S'good'
p327
tp328
a(I162
I0
F0.625
S'perfect'
p329
tp330
as(S'life'
p331
tp332
(lp333
(I0
I8
F1.0
g25
tp334
a(I7
I17
F-0.875
S'hard'
p335
tp336
a(I28
I17
F1.0
g29
tp337
a(I33
I2
I0
g31
tp338
a(I40
I13
F-0.75
g33
tp339
a(I51
I3
F1.0
g37
tp340
a(I59
I14
I0
g39
tp341
a(I85
I1
F-0.75
g41
tp342
a(I110
I11
F1.0
g43
tp343
a(I126
I5
F0.125
S'able'
p344
tp345
a(I126
I5
I0
S'later'
p346
tp347
as(S'mobile'
p348
tp349
(lp350
(I87
I4
I0
S'local'
p351
tp352
a(I116
I20
F0.875
S'important'
p353
tp354
a(I121
I0
F0.375
S'new'
p355
tp356
a(I121
I1
F0.125
S'first'
p357
tp358
as(S'samsung'
p359
S'nexus'
p360
S's'
p361
tp362
(lp363
(I35
I1
F-0.75
S'bright'
p364
tp365
a(I35
I1
I0
g201
tp366
a(I35
I17
F0.125
S'first'
p367
tp368
a(I73
I1
F-0.5
S'sure'
p369
tp370
as(S'galaxy'
p371
tp372
(lp373
(I73
I35
F-0.625
S'other'
p374
tp375
as(S'features'
p376
tp377
(lp378
(I38
I9
F-0.625
S'other'
p379
tp380
a(I38
I30
I0
S'android'
p381
tp382
a(I58
I0
F0.375
S'available'
p383
tp384
a(I116
I19
I0
S'cool'
p385
tp386
a(I116
I22
F0.375
S'much'
p387
tp388
a(I116
I22
I0
S'basic'
p389
tp390
a(I150
I1
F0.125
S'first'
p391
tp392
as(S'samsung'
p393
S'nexus'
p394
tp395
(lp396
(I35
I1
I0
g201
tp397
a(I35
I17
F0.125
g367
tp398
a(I73
I1
F-0.5
g369
tp399
as(S'great'
p400
tp401
(lp402
(I73
I48
I0
S'least'
p403
tp404
a(I73
I48
I0
S'next'
p405
tp406
as(S'people'
p407
tp408
(lp409
(I1
I12
I0
S'most'
p410
tp411
a(I94
I0
I0
S'most'
p412
tp413
a(I94
I7
I0
S'many'
p414
tp415
as(S'work'
p416
tp417
(lp418
(I1
I5
F0.125
S'able'
p419
tp420
as(S'sd'
p421
S'card'
p422
tp423
(lp424
(I7
I29
I0
S'internal'
p425
tp426
a(I97
I4
I0
S'external'
p427
tp428
a(I98
I3
I0
S'sd'
p429
tp430
as(S'experience'
p431
tp432
(lp433
(I26
I0
F1.0
S'good'
p434
tp435
a(I35
I4
F-0.5
S'long'
p436
tp437
a(I38
I22
I0
S'many'
p438
tp439
a(I86
I0
F0.5
S'satisfactory'
p440
tp441
a(I92
I3
I0
S'android'
p442
tp443
a(I129
I8
F-0.5
S'less'
p444
tp445
a(I147
I0
I0
S'great'
p446
tp447
a(I159
I18
F1.0
S'better'
p448
tp449
as(S'gingerbread'
p450
tp451
(lp452
(I41
I2
I0
S'gingerbread'
p453
tp454
a(I41
I2
I0
S'latest'
p455
tp456
a(I54
I8
I0
S'android'
p457
tp458
a(I68
I6
F-0.25
S'modern'
p459
tp460
a(I88
I4
I0
S'latest'
p461
tp462
as(S'a'
p463
S'long'
p464
S'time'
p465
tp466
(lp467
(I16
I1
F-0.5
S'long'
p468
tp469
a(I37
I11
F-0.5
S'long'
p470
tp471
a(I77
I1
F-0.5
S'long'
p472
tp473
a(I83
I3
F-0.5
S'long'
p474
tp475
a(I85
I3
I0
S'entire'
p476
tp477
as(S'android'
p478
tp479
(lp480
(I28
I1
F-0.625
g86
tp481
a(I28
I4
F-0.625
S'clean'
p482
tp483
a(I35
I14
F0.25
g88
tp484
a(I38
I15
F-0.5
g94
tp485
a(I50
I1
I0
S'only'
p486
tp487
a(I75
I1
F0.375
S'new'
p488
tp489
a(I96
I15
F1.0
S'best'
p490
tp491
a(I97
I5
F1.0
S'best'
p492
tp493
a(I119
I0
F1.0
S'best'
p494
tp495
a(I163
I2
F0.375
S'new'
p496
tp497
a(I163
I2
I0
S'3d'
p498
tp499
as(S'updates'
p500
tp501
(lp502
(I38
I27
I0
S'android'
p503
tp504
a(I40
I2
I0
S'android'
p505
tp506
a(I59
I1
I0
S'android'
p507
tp508
a(I59
I3
F-0.25
S'google'
p509
tp510
a(I88
I1
F-0.25
S'google'
p511
tp512
a(I159
I3
F0.625
S'major'
p513
tp514
a(I159
I3
F-0.25
S'google'
p515
tp516
a(I164
I5
I0
S'latest'
p517
tp518
as(S'nexus'
p519
tp520
(lp521
(I1
I3
F0.125
S'able'
p522
tp523
a(I6
I20
F-0.625
S'glad'
p524
tp525
a(I6
I20
F-0.25
S'google'
p526
tp527
a(I18
I3
I0
S'faster'
p528
tp529
a(I18
I3
F-0.625
S'lighter'
p530
tp531
a(I26
I0
F-0.625
S'other'
p532
tp533
a(I28
I3
F0.625
S'perfect'
p534
tp535
a(I35
I17
F0.125
g367
tp536
a(I37
I0
F1.0
S'better'
p537
tp538
a(I40
I11
F0.75
S'beautiful'
p539
tp540
a(I40
I28
I0
S'next'
p541
tp542
a(I41
I0
F-0.25
S'google'
p543
tp544
a(I58
I3
F0.25
S'powerful'
p545
tp546
a(I73
I1
F-0.5
g369
tp547
a(I88
I39
F0.375
S'new'
p548
tp549
a(I111
I0
F-0.25
S'google'
p550
tp551
a(I155
I1
F-0.75
S'comfortable'
p552
tp553
a(I159
I3
F0.125
S'able'
p554
tp555
a(I165
I2
I0
S'american'
p556
tp557
a(I165
I2
I0
S'european'
p558
tp559
as(S'works'
p560
tp561
(lp562
(I116
I2
I0
S'android'
p563
tp564
as(S'card'
p565
S'slot'
p566
tp567
(lp568
(I98
I2
F-0.375
S'manual'
p569
tp570
a(I98
I3
I0
g429
tp571
a(I98
I3
I0
S'printed'
p572
tp573
as(S'card'
p574
tp575
(lp576
(I98
I3
I0
g429
tp577
as(S'sd'
p578
S'card'
p579
S'slot'
p580
tp581
(lp582
(I97
I4
I0
g427
tp583
a(I98
I2
F-0.375
g569
tp584
a(I98
I3
I0
g429
tp585
a(I98
I3
I0
g572
tp586
as(S'product'
p587
tp588
(lp589
(I52
I4
F0.375
S'new'
p590
tp591
a(I66
I4
I0
S'integrated'
p592
tp593
a(I102
I0
I0
S'great'
p594
tp595
a(I102
I0
F0.625
S'easy'
p596
tp597
a(I167
I6
I0
S'real'
p598
tp599
as(S'display'
p600
tp601
(lp602
(I39
I1
F-0.125
S'super'
p603
tp604
a(I69
I2
F0.625
S'convenient'
p605
tp606
a(I98
I1
F1.0
S'good'
p607
tp608
a(I106
I0
F-0.25
S'lowest'
p609
tp610
a(I110
I3
F0.75
S'beautiful'
p611
tp612
a(I110
I13
I0
S'incredible'
p613
tp614
a(I110
I13
I0
S'fast'
p615
tp616
as(S'battery'
p617
tp618
(lp619
(I0
I8
I0
g23
tp620
a(I1
I4
F1.0
g27
tp621
a(I23
I0
F-0.625
S'average'
p622
tp623
a(I26
I0
F-0.625
S'bad'
p624
tp625
a(I35
I11
F0.25
S'original'
p626
tp627
a(I40
I18
F-0.5
g35
tp628
a(I50
I4
F0.125
S'charger'
p629
tp630
a(I50
I4
F0.125
S'charger'
p631
tp632
a(I50
I4
F0.5
S'flat'
p633
tp634
a(I83
I6
F1.0
S'better'
p635
tp636
a(I94
I7
F-0.75
S'unlucky'
p637
tp638
a(I94
I7
I0
S'few'
p639
tp640
a(I94
I7
I0
S'more'
p641
tp642
a(I138
I0
F0.125
S'last'
p643
tp644
a(I140
I0
F-0.5
g45
tp645
a(I164
I1
F-0.875
g47
tp646
a(I164
I1
F-0.5
g49
tp647
a(I164
I2
F0.375
S'extended'
p648
tp649
as(S'stock'
p650
S'android'
p651
tp652
(lp653
(I6
I0
F0.875
S'happy'
p654
tp655
a(I96
I11
F-0.25
S'google'
p656
tp657
a(I126
I5
I0
S'android'
p658
tp659
a(I150
I1
F0.875
S'nice'
p660
tp661
as(S'software'
p662
tp663
(lp664
(I9
I0
F0.5
S'possible'
p665
tp666
a(I38
I10
F0.125
S'impressive'
p667
tp668
a(I38
I28
I0
S'latest'
p669
tp670
a(I38
I28
I0
S'android'
p671
tp672
a(I41
I3
F0.625
S'aware'
p673
tp674
a(I53
I8
I0
S'own'
p675
tp676
a(I59
I15
F0.125
S'solid'
p677
tp678
a(I61
I2
I0
S'android'
p679
tp680
a(I85
I0
I0
S'great'
p681
tp682
a(I88
I13
I0
S'specific'
p683
tp684
a(I136
I5
F0.375
S'new'
p685
tp686
as(S'external'
p687
S'sd'
p688
tp689
(lp690
(I97
I4
I0
g427
tp691
a(I97
I5
I0
S'external'
p692
tp693
as(S'better'
p694
tp695
(lp696
(I40
I4
I0
S'android'
p697
tp698
a(I40
I17
F0.375
S'much'
p699
tp700
as(S'ms'
p701
S'exchange'
p702
tp703
(lp704
(I2
I4
F-0.625
S'other'
p705
tp706
as(S'thing'
p707
tp708
(lp709
(I0
I5
F-0.625
S'bad'
p710
tp711
a(I0
I10
F0.375
S'reliable'
p712
tp713
a(I21
I3
I0
S'only'
p714
tp715
a(I28
I7
I0
S'only'
p716
tp717
a(I38
I15
F0.375
S'interesting'
p718
tp719
a(I38
I34
I0
S'only'
p720
tp721
a(I72
I0
I0
S'only'
p722
tp723
a(I77
I1
F-0.625
S'other'
p724
tp725
a(I85
I5
I0
S'same'
p726
tp727
a(I126
I5
F0.375
S'loud'
p728
tp729
a(I144
I2
I0
S'same'
p730
tp731
a(I149
I0
I0
S'only'
p732
tp733
a(I153
I3
F0.125
S'first'
p734
tp735
a(I163
I2
I0
S'only'
p736
tp737
a(I165
I2
I0
S'basic'
p738
tp739
a(I167
I5
F0.5
S'second'
p740
tp741
as(S'sim'
p742
S'card'
p743
tp744
(lp745
(I7
I1
I0
S'own'
p746
tp747
a(I106
I0
I0
S'same'
p748
tp749
a(I110
I6
F0.875
S'happy'
p750
tp751
a(I155
I13
I0
S'local'
p752
tp753
as(S'update'
p754
tp755
(lp756
(I38
I36
I0
S'next'
p757
tp758
a(I40
I3
I0
S'android'
p759
tp760
a(I88
I9
I0
S'latest'
p761
tp762
a(I98
I5
F-0.75
S'little'
p763
tp764
a(I164
I6
I0
S'latest'
p765
tp766
as(S'device'
p767
tp768
(lp769
(I17
I3
F0.5
S'slick'
p770
tp771
a(I34
I6
F-0.875
S'inferior'
p772
tp773
a(I34
I7
I0
S'android'
p774
tp775
a(I38
I23
I0
S'mobile'
p776
tp777
a(I82
I0
F1.0
S'best'
p778
tp779
a(I97
I4
F0.375
S'new'
p780
tp781
a(I100
I5
F0.875
S'happy'
p782
tp783
a(I130
I1
F-0.125
S'overall'
p784
tp785
a(I158
I0
F1.0
S'good'
p786
tp787
a(I166
I5
F0.125
S'first'
p788
tp789
as(S'carrier'
p790
tp791
(lp792
(I7
I10
I0
S'fast'
p793
tp794
as(S'call'
p795
tp796
(lp797
(I98
I8
I0
S'real'
p798
tp799
a(I164
I3
F1.0
S'good'
p800
tp801
as(S'ce'
p802
S'cream'
p803
S'sandwich'
p804
tp805
(lp806
(I85
I0
I0
g213
tp807
as(S'warranty'
p808
tp809
(lp810
(I81
I5
I0
S'full'
p811
tp812
a(I108
I0
F0.125
S'valid'
p813
tp814
as(S'price'
p815
tp816
(lp817
(I56
I2
F-0.25
S'low'
p818
tp819
a(I62
I0
F0.75
S'worth'
p820
tp821
a(I67
I1
F0.875
S'happy'
p822
tp823
a(I98
I4
F-0.25
S'lower'
p824
tp825
a(I114
I0
F1.0
S'good'
p826
tp827
a(I163
I5
F-0.625
S'steal'
p828
tp829
as(S'time'
p830
tp831
(lp832
(I1
I8
F-0.875
S'hard'
p833
tp834
a(I9
I3
I0
S'big'
p835
tp836
a(I16
I1
F-0.5
g468
tp837
a(I37
I11
F-0.5
g470
tp838
a(I50
I9
I0
S'more'
p839
tp840
a(I73
I45
F-0.625
S'unspecified'
p841
tp842
a(I77
I1
F-0.5
g472
tp843
a(I83
I3
F-0.5
g474
tp844
a(I85
I3
I0
g476
tp845
a(I86
I1
F0.5
S'accurate'
p846
tp847
a(I111
I5
I0
S'same'
p848
tp849
a(I132
I2
F0.125
S'first'
p850
tp851
a(I152
I3
F0.375
S'available'
p852
tp853
a(I166
I4
F0.75
S'fortunate'
p854
tp855
as(S'months'
p856
tp857
(lp858
(I38
I31
I0
S'few'
p859
tp860
a(I80
I0
I0
S'few'
p861
tp862
a(I88
I4
F0.125
S'last'
p863
tp864
a(I88
I4
I0
S'few'
p865
tp866
a(I88
I39
I0
S'few'
p867
tp868
a(I100
I4
I0
S'few'
p869
tp870
a(I141
I15
I0
S'later'
p871
tp872
as(S'camera'
p873
tp874
(lp875
(I29
I0
I0
S'great'
p876
tp877
a(I29
I0
I0
S'great'
p878
tp879
a(I29
I2
F1.0
S'best'
p880
tp881
a(I33
I1
I0
S'great'
p882
tp883
a(I72
I0
F-0.75
S'dirty'
p884
tp885
a(I115
I5
F1.0
S'better'
p886
tp887
a(I126
I0
F-0.5
S'poor'
p888
tp889
a(I132
I2
F1.0
S'good'
p890
tp891
a(I132
I2
I0
S'great'
p892
tp893
a(I152
I2
I0
S'great'
p894
tp895
as(S'htc'
p896
S'hero'
p897
tp898
(lp899
(I96
I3
I0
S'old'
p900
tp901
as(S'version'
p902
S'of'
p903
S'android'
p904
tp905
(lp906
(I28
I4
F-0.625
g482
tp907
a(I38
I8
I0
g225
tp908
a(I38
I34
I0
g227
tp909
a(I40
I1
I0
g229
tp910
a(I40
I1
I0
g231
tp911
a(I66
I3
I0
g235
tp912
a(I66
I3
I0
g237
tp913
a(I98
I1
I0
g245
tp914
a(I140
I3
F0.875
g249
tp915
a(I140
I3
F0.375
g251
tp916
a(I140
I3
I0
g253
tp917
as(S'light'
p918
tp919
(lp920
(I59
I12
F-0.25
S'low'
p921
tp922
as(S'love'
p923
tp924
(lp925
(I8
I0
F1.0
S'love'
p926
tp927
as(S'customer'
p928
S'service'
p929
tp930
(lp931
(I19
I0
F-0.625
S'bad'
p932
tp933
a(I30
I7
I0
S'apple'
p934
tp935
as(S't'
p936
S'mobile'
p937
S'sim'
p938
tp939
(lp940
(I7
I1
I0
g746
tp941
a(I98
I1
F-0.625
S'free'
p942
tp943
as(S'an'
p944
S'sd'
p945
S'card'
p946
tp947
(lp948
(I97
I4
I0
g427
tp949
a(I98
I3
I0
g429
tp950
as(S'wifi'
p951
tp952
(lp953
(I1
I3
F0.125
S'able'
p954
tp955
a(I1
I7
F-0.25
S'battery'
p956
tp957
a(I6
I11
I0
S'instant'
p958
tp959
a(I17
I2
I0
S'most'
p960
tp961
a(I38
I22
F0.5
S'compatible'
p962
tp963
a(I47
I0
F0.125
S'capable'
p964
tp965
a(I59
I10
I0
S'quick'
p966
tp967
a(I59
I10
F0.375
S'reliable'
p968
tp969
a(I64
I2
F-0.5
S'regular'
p970
tp971
as(S'storage'
p972
tp973
(lp974
(I7
I29
I0
S'general'
p975
tp976
a(I7
I32
F0.125
S'able'
p977
tp978
a(I29
I0
F1.0
S'good'
p979
tp980
a(I86
I3
I0
S'finite'
p981
tp982
a(I155
I11
I0
S'wish'
p983
tp984
as(S'days'
p985
tp986
(lp987
(I0
I9
I0
S'full'
p988
tp989
a(I0
I16
F-0.5
S'heavy'
p990
tp991
a(I98
I1
F0.125
S'last'
p992
tp993
a(I114
I1
I0
S'more'
p994
tp995
a(I130
I3
I0
S'few'
p996
tp997
a(I166
I13
I0
S'later'
p998
tp999
as(S'oled'
p1000
S'screen'
p1001
tp1002
(lp1003
(I7
I21
I0
g138
tp1004
a(I7
I21
I0
g140
tp1005
a(I7
I21
F0.75
g142
tp1006
as.