(dp0
(S'text'
p1
S'message'
p2
tp3
(lp4
(I14
I6
F0.125
S'able'
p5
I0
tp6
a(I8
I31
I0
S'internet'
p7
I18
tp8
a(I13
I8
F-0.5
S'unlimited'
p9
I18
tp10
a(I14
I6
F0.125
g5
I18
tp11
a(I14
I66
F-0.5
S'heavy'
p12
I18
tp13
as(S'android'
p14
tp15
(lp16
(I5
I30
F0.125
S'first'
p17
I0
tp18
a(I6
I27
F0.875
S'important'
p19
I0
tp20
a(I13
I14
F0.375
S'newest'
p21
I0
tp22
a(I14
I46
F0.125
S'first'
p23
I0
tp24
as(S'google'
p25
S'account'
p26
tp27
(lp28
(I11
I43
F-0.25
S'google'
p29
I0
tp30
a(I11
I43
F-0.25
g29
I3
tp31
as(S'mobile'
p32
tp33
(lp34
(I0
I9
I-100
S're-seller'
p35
I0
tp36
as(S'battery'
p37
S'life'
p38
tp39
(lp40
(I6
I20
F0.375
S'extended'
p41
I1
tp42
a(I14
I66
F-0.125
S'overall'
p43
I1
tp44
as(S'internet'
p45
tp46
(lp47
(I0
I4
F-0.75
S'comfortable'
p48
I6
tp49
a(I13
I11
I0
S'automatic'
p50
I6
tp51
as(S'motorola'
p52
tp53
(lp54
(I16
I1
F-0.125
S'overall'
p55
I0
tp56
a(I16
I1
F-0.875
S'worst'
p57
I0
tp58
as(S'memory'
p59
S'card'
p60
tp61
(lp62
(I14
I65
F-0.25
S'low'
p63
I0
tp64
a(I14
I65
I0
S'internal'
p65
I0
tp66
as(S'extended'
p67
S'battery'
p68
tp69
(lp70
(I1
I4
F0.375
S'extra'
p71
I0
tp72
a(I1
I4
F0.375
S'extended'
p73
I0
tp74
a(I6
I20
F0.375
g41
I0
tp75
a(I10
I13
F0.375
S'extended'
p76
I0
tp77
a(I14
I73
F0.375
S'extended'
p78
I0
tp79
a(I0
I0
F0.5
S'true'
p80
I15
tp81
a(I0
I0
I0
S'standard'
p82
I15
tp83
a(I1
I4
F0.375
g71
I15
tp84
a(I1
I4
F0.375
g73
I15
tp85
a(I6
I20
F0.375
g41
I15
tp86
a(I6
I21
F0.375
S'extra'
p87
I15
tp88
a(I6
I21
F0.625
S'convenient'
p89
I15
tp90
a(I10
I7
F-0.5
S'regular'
p91
I15
tp92
a(I10
I13
F0.375
g76
I15
tp93
a(I12
I5
F0.125
S'last'
p94
I15
tp95
a(I14
I66
F-0.125
g43
I15
tp96
a(I14
I73
F0.375
g78
I15
tp97
as(S'other'
p98
S'reviews'
p99
tp100
(lp101
(I5
I7
F0.25
S'read'
p102
I9
tp103
a(I5
I7
F-0.625
S'other'
p104
I9
tp105
a(I8
I23
F-0.625
S'other'
p106
I9
tp107
a(I8
I24
F0.25
S'read'
p108
I9
tp109
a(I8
I24
F-0.625
S'other'
p110
I9
tp111
as(S'wifi'
p112
tp113
(lp114
(I11
I45
F-0.5
S'heavy'
p115
I0
tp116
a(I13
I11
F0.375
S'available'
p117
I0
tp118
as(S'data'
p119
S'plan'
p120
tp121
(lp122
(I13
I10
F0.375
S'extra'
p123
I0
tp124
as(S'touch'
p125
S'screen'
p126
tp127
(lp128
(I5
I4
F0.5
S'touch'
p129
I2
tp130
a(I6
I23
F0.5
S'touch'
p131
I2
tp132
a(I13
I13
I0
S'big'
p133
I2
tp134
a(I16
I0
F0.5
S'touch'
p135
I2
tp136
a(I16
I2
F0.5
S'touch'
p137
I2
tp138
as(S'charm'
p139
tp140
(lp141
(I14
I56
F0.625
S'easy'
p142
I6
tp143
as.