(dp0
(S'problem'
p1
tp2
(lp3
(I6
I0
I0
S'technician'
p4
tp5
a(I137
I14
I0
S'real'
p6
tp7
as(S'purchase'
p8
tp9
(lp10
(I3
I1
F0.125
S'able'
p11
tp12
a(I3
I1
I0
S'next'
p13
tp14
a(I72
I3
F0.125
S'far'
p15
tp16
a(I187
I0
I0
S'january'
p17
tp18
a(I205
I3
F0.875
S'happy'
p19
tp20
as(S'usb'
p21
S'cable'
p22
tp23
(lp24
(I61
I2
I0
S'cable'
p25
tp26
a(I131
I0
F0.25
S'original'
p27
tp28
a(I131
I0
I0
S'cable'
p29
tp30
a(I231
I0
I0
S'cable'
p31
tp32
as(S'smartphone'
p33
tp34
(lp35
(I84
I3
F0.125
S'popular'
p36
tp37
a(I84
I3
I0
S'slower'
p38
tp39
a(I84
I3
I0
S'slower'
p40
tp41
as(S'movistar'
p42
tp43
(lp44
(I181
I0
F0.625
S'perfect'
p45
tp46
as(S'money'
p47
tp48
(lp49
(I38
I2
F0.75
S'worth'
p50
tp51
a(I75
I2
F0.5
S'expensive'
p52
tp53
as(S'track'
p54
S'pad'
p55
tp56
(lp57
(I191
I0
F-0.125
S'slow'
p58
tp59
a(I191
I1
F0.125
S'first'
p60
tp61
a(I218
I4
F0.25
S'responsive'
p62
tp63
as(S'happy'
p64
tp65
(lp66
(I212
I0
F0.375
S'new'
p67
tp68
as(S'brand'
p69
tp70
(lp71
(I13
I0
F0.375
S'new'
p72
tp73
a(I20
I2
F0.375
S'new'
p74
tp75
a(I52
I0
F0.375
S'new'
p76
tp77
a(I61
I1
F0.375
S'new'
p78
tp79
a(I70
I3
F0.375
S'new'
p80
tp81
a(I103
I0
I0
S'arrive'
p82
tp83
a(I103
I0
F0.375
S'new'
p84
tp85
a(I137
I2
F0.375
S'new'
p86
tp87
a(I231
I0
F-0.125
S'blackberry'
p88
tp89
as(S'a'
p90
S'blackberry'
p91
S'curve'
p92
tp93
(lp94
(I54
I0
F-0.125
S'blackberry'
p95
tp96
a(I132
I0
F-0.125
S'blackberry'
p97
tp98
a(I140
I1
F0.875
S'happy'
p99
tp100
a(I172
I0
F1.0
S'good'
p101
tp102
a(I193
I1
F0.875
S'happy'
p103
tp104
a(I218
I1
I0
S'old'
p105
tp106
as(S'service'
p107
tp108
(lp109
(I0
I0
F-0.125
S'public'
p110
tp111
a(I103
I1
I0
S'great'
p112
tp113
a(I133
I1
F0.375
S'new'
p114
tp115
a(I197
I1
F1.0
S'best'
p116
tp117
a(I235
I1
I0
S'efficient'
p118
tp119
as(S'everything'
p120
tp121
(lp122
(I168
I0
F-0.625
S'clean'
p123
tp124
a(I171
I0
F0.625
S'perfect'
p125
tp126
as(S'nternational'
p127
S'version'
p128
tp129
(lp130
(I1
I1
F-0.5
S'international'
p131
tp132
a(I31
I0
F-0.5
S'international'
p133
tp134
a(I34
I0
F-0.5
S'international'
p135
tp136
a(I40
I0
F-0.5
S'international'
p137
tp138
a(I40
I0
F-0.5
S'international'
p139
tp140
a(I95
I0
F-0.5
S'international'
p141
tp142
a(I111
I6
F-0.5
S'international'
p143
tp144
a(I132
I0
F-0.5
S'international'
p145
tp146
a(I198
I1
F-0.5
S'international'
p147
tp148
as(S'version'
p149
tp150
(lp151
(I1
I1
F-0.5
g131
tp152
a(I31
I0
F-0.5
g133
tp153
a(I34
I0
F-0.5
g135
tp154
a(I40
I0
F-0.5
g137
tp155
a(I40
I0
F-0.5
g139
tp156
a(I95
I0
F-0.5
g141
tp157
a(I111
I6
F-0.5
g143
tp158
a(I132
I0
F-0.5
g145
tp159
a(I198
I1
F-0.5
g147
tp160
as(S'seller'
p161
tp162
(lp163
(I24
I0
F0.625
S'kind'
p164
tp165
a(I86
I0
F0.25
S'responsive'
p166
tp167
a(I127
I2
F0.625
S'easy'
p168
tp169
a(I127
I2
F0.625
S'responsible'
p170
tp171
a(I151
I2
F0.625
S'kind'
p172
tp173
a(I219
I2
I0
S'great'
p174
tp175
a(I221
I5
F-0.625
S'bad'
p176
tp177
as(S'n'
p178
S'venezuela'
p179
tp180
(lp181
(I14
I1
F0.5
S'second'
p182
tp183
a(I31
I2
I0
S'full'
p184
tp185
a(I136
I0
I0
S'great'
p186
tp187
as(S'cellphone'
p188
tp189
(lp190
(I51
I0
I0
S'old'
p191
tp192
a(I110
I1
F1.0
S'good'
p193
tp194
a(I168
I0
F-0.75
S'wrong'
p195
tp196
a(I205
I0
F1.0
S'good'
p197
tp198
a(I227
I0
F-0.75
S'damaged'
p199
tp200
as(S'product'
p201
tp202
(lp203
(I14
I0
F1.0
S'good'
p204
tp205
a(I17
I1
F1.0
S'good'
p206
tp207
a(I24
I0
I0
S'great'
p208
tp209
a(I26
I0
I0
S'cool'
p210
tp211
a(I26
I0
I0
S'great'
p212
tp213
a(I43
I0
I0
S'fast'
p214
tp215
a(I43
I0
F1.0
S'good'
p216
tp217
a(I49
I3
I0
S'great'
p218
tp219
a(I52
I3
I0
S'general'
p220
tp221
a(I59
I3
F1.0
S'better'
p222
tp223
a(I75
I1
F1.0
S'best'
p224
tp225
a(I75
I1
F0.375
S'new'
p226
tp227
a(I80
I0
F0.375
S'new'
p228
tp229
a(I93
I0
F1.0
S'good'
p230
tp231
a(I93
I0
I0
S'fast'
p232
tp233
a(I93
I0
F1.0
S'good'
p234
tp235
a(I108
I4
F0.375
S'new'
p236
tp237
a(I108
I4
I0
S'real'
p238
tp239
a(I109
I0
F1.0
S'good'
p240
tp241
a(I138
I1
F-0.75
S'dirty'
p242
tp243
a(I183
I1
F0.875
S'happy'
p244
tp245
as(S'worldwide'
p246
S'distributors'
p247
tp248
(lp249
(I140
I3
F0.625
S'easy'
p250
tp251
a(I140
I6
F0.625
S'easy'
p252
tp253
as(S'curve'
p254
tp255
(lp256
(I0
I3
F-0.625
S'lighter'
p257
tp258
a(I54
I0
F-0.125
g95
tp259
a(I132
I0
F-0.125
g97
tp260
a(I172
I0
F1.0
g101
tp261
a(I218
I1
I0
g105
tp262
as(S'people'
p263
tp264
(lp265
(I11
I0
F-0.75
S'care'
p266
tp267
a(I11
I0
F-0.625
S'other'
p268
tp269
a(I11
I0
F0.875
S'happy'
p270
tp271
a(I82
I1
F-0.625
S'want'
p272
tp273
a(I137
I0
F0.125
S'first'
p274
tp275
a(I137
I0
F0.625
S'aware'
p276
tp277
a(I137
I14
I0
S'many'
p278
tp279
a(I149
I0
F-0.375
S'serious'
p280
tp281
a(I168
I0
F0.5
S'buy'
p282
tp283
a(I168
I0
F-0.625
S'secure'
p284
tp285
a(I175
I2
I0
S'many'
p286
tp287
as(S'en'
p288
S'venezuela'
p289
tp290
(lp291
(I14
I1
F0.5
g182
tp292
a(I31
I2
I0
g184
tp293
a(I136
I0
I0
g186
tp294
as(S'blackberry'
p295
S'curve'
p296
tp297
(lp298
(I54
I0
F-0.125
g95
tp299
a(I132
I0
F-0.125
g97
tp300
a(I140
I1
F0.875
g99
tp301
a(I172
I0
F1.0
g101
tp302
a(I193
I1
F0.875
g103
tp303
a(I218
I1
I0
g105
tp304
as(S'graphite'
p305
S'grey'
p306
tp307
(lp308
(I5
I1
I0
S'graphite'
p309
tp310
a(I34
I0
I0
S'graphite'
p311
tp312
a(I95
I0
I0
S'graphite'
p313
tp314
a(I111
I6
I0
S'graphite'
p315
tp316
a(I115
I1
I0
S'graphite'
p317
tp318
a(I198
I1
I0
S'graphite'
p319
tp320
as(S'good'
p321
S'product'
p322
tp323
(lp324
(I14
I0
F1.0
g204
tp325
a(I17
I1
F1.0
g206
tp326
a(I43
I0
I0
g214
tp327
a(I43
I0
F1.0
g216
tp328
a(I93
I0
F1.0
g230
tp329
a(I93
I0
I0
g232
tp330
a(I93
I0
F1.0
g234
tp331
a(I109
I0
F1.0
g240
tp332
as(S'works'
p333
tp334
(lp335
(I44
I0
F-0.5
S'less'
p336
tp337
a(I44
I0
F-0.5
S'less'
p338
tp339
a(I86
I1
I0
S'great'
p340
tp341
as(S'venezuela'
p342
tp343
(lp344
(I14
I1
F0.5
g182
tp345
a(I31
I2
I0
g184
tp346
a(I136
I0
I0
g186
tp347
as(S'excellent'
p348
tp349
(lp350
(I5
I1
F-0.625
S'other'
p351
tp352
a(I22
I1
I0
S'great'
p353
tp354
as(S'battery'
p355
tp356
(lp357
(I0
I3
F-0.375
S'smaller'
p358
tp359
a(I0
I3
F0.5
S'bold'
p360
tp361
a(I54
I1
F0.125
S'first'
p362
tp363
a(I54
I1
I0
S'arrive'
p364
tp365
a(I62
I0
F-0.625
S'other'
p366
tp367
a(I190
I0
F-0.625
S'bad'
p368
tp369
a(I216
I1
F-0.25
S'low'
p370
tp371
a(I224
I1
F0.125
S'last'
p372
tp373
as(S'friend'
p374
tp375
(lp376
(I33
I0
F-0.125
S'mine'
p377
tp378
a(I90
I1
I0
S'old'
p379
tp380
a(I145
I0
F1.0
S'good'
p381
tp382
a(I145
I0
F-0.125
S'mine'
p383
tp384
a(I174
I3
F-0.625
S'useless'
p385
tp386
as(S'good'
p387
S'condition'
p388
tp389
(lp390
(I9
I0
F1.0
S'good'
p391
tp392
a(I17
I2
F1.0
S'good'
p393
tp394
a(I60
I0
F1.0
S'good'
p395
tp396
a(I69
I0
F-0.625
S'bad'
p397
tp398
a(I201
I0
F1.0
S'good'
p399
tp400
a(I216
I0
F1.0
S'good'
p401
tp402
as(S'sent'
p403
tp404
(lp405
(I83
I0
F0.25
S'used'
p406
tp407
a(I231
I0
I0
S'same'
p408
tp409
as(S'cell'
p410
tp411
(lp412
(I22
I1
F-0.125
S'mine'
p413
tp414
a(I117
I0
F0.375
S'new'
p415
tp416
a(I149
I1
F-0.75
S'damaged'
p417
tp418
as(S'few'
p419
S'days'
p420
tp421
(lp422
(I18
I0
I0
S'few'
p423
tp424
a(I105
I1
F0.375
S'much'
p425
tp426
a(I105
I1
I0
S'few'
p427
tp428
a(I129
I1
I0
S'few'
p429
tp430
as(S'device'
p431
tp432
(lp433
(I0
I0
I0
S'electronic'
p434
tp435
a(I32
I0
F0.375
S'complete'
p436
tp437
a(I49
I3
I0
S'full'
p438
tp439
a(I218
I2
F0.5
S'temporary'
p440
tp441
as(S'blackberry'
p442
tp443
(lp444
(I0
I2
F-0.5
S'tried'
p445
tp446
a(I0
I2
F0.5
S'true'
p447
tp448
a(I4
I1
F0.25
S'original'
p449
tp450
a(I67
I3
F0.375
S'new'
p451
tp452
a(I80
I1
F0.375
S'new'
p453
tp454
a(I99
I0
I0
S'caribbean'
p455
tp456
a(I140
I1
F0.875
g99
tp457
a(I193
I1
F0.875
g103
tp458
a(I220
I0
I0
S'old'
p459
tp460
as(S'warranty'
p461
tp462
(lp463
(I6
I0
F-0.5
S'international'
p464
tp465
a(I70
I1
F-0.5
S'international'
p466
tp467
a(I115
I1
F-0.5
S'international'
p468
tp469
a(I221
I4
F-0.5
S'international'
p470
tp471
as(S'arrived'
p472
S'on'
p473
S'time'
p474
tp475
(lp476
(I6
I0
I0
S'arrived'
p477
tp478
a(I72
I0
F0.375
S'new'
p479
tp480
as(S'time'
p481
tp482
(lp483
(I6
I0
I0
g477
tp484
a(I12
I4
I0
S'same'
p485
tp486
a(I53
I2
F-0.5
S'long'
p487
tp488
a(I60
I2
F-0.75
S'short'
p489
tp490
a(I72
I0
F0.375
g479
tp491
a(I77
I3
F0.125
S'first'
p492
tp493
a(I78
I2
F-0.5
S'long'
p494
tp495
a(I81
I0
F0.125
S'first'
p496
tp497
a(I92
I0
F0.125
S'last'
p498
tp499
a(I92
I0
F0.375
S'much'
p500
tp501
a(I97
I7
F0.125
S'last'
p502
tp503
a(I101
I2
F-0.5
S'long'
p504
tp505
a(I129
I3
F0.125
S'first'
p506
tp507
a(I164
I2
F-0.75
S'impossible'
p508
tp509
as(g178
S'box'
p510
tp511
(lp512
(I26
I6
I0
S'opened'
p513
tp514
a(I31
I0
F0.25
S'original'
p515
tp516
a(I47
I0
F0.25
S'original'
p517
tp518
a(I143
I0
I0
S'old'
p519
tp520
a(I221
I1
F-0.5
S'open'
p521
tp522
as(S'condition'
p523
tp524
(lp525
(I9
I0
F1.0
g391
tp526
a(I17
I2
F1.0
g393
tp527
a(I49
I1
I0
S'mint'
p528
tp529
a(I60
I0
F1.0
g395
tp530
a(I69
I0
F-0.625
g397
tp531
a(I143
I1
F-0.625
S'bad'
p532
tp533
a(I201
I0
F1.0
g399
tp534
a(I216
I0
F1.0
g401
tp535
as(S'screen'
p536
tp537
(lp538
(I0
I11
F-0.375
S'smaller'
p539
tp540
a(I0
I11
F0.5
S'bold'
p541
tp542
a(I44
I2
F0.5
S'touch'
p543
tp544
a(I49
I3
F0.25
S'larger'
p545
tp546
a(I77
I4
I0
S'plastic'
p547
tp548
a(I105
I0
I0
S'great'
p549
tp550
a(I147
I2
F-0.375
S'small'
p551
tp552
a(I223
I0
F0.5
S'touch'
p553
tp554
as(S'version'
p555
S'graphite'
p556
S'grey'
p557
tp558
(lp559
(I31
I0
F-0.5
g133
tp560
a(I34
I0
F-0.5
g135
tp561
a(I34
I0
I0
g311
tp562
a(I95
I0
F-0.5
g141
tp563
a(I95
I0
I0
g313
tp564
a(I111
I6
F-0.5
g143
tp565
a(I111
I6
I0
g315
tp566
a(I132
I0
F-0.5
g145
tp567
a(I198
I1
F-0.5
g147
tp568
a(I198
I1
I0
g319
tp569
as(S'work'
p570
tp571
(lp572
(I14
I1
F0.125
S'first'
p573
tp574
a(I155
I1
F0.375
S'new'
p575
tp576
as(S'en'
p577
S'la'
p578
tp579
(lp580
(I87
I0
I0
S'y'
p581
tp582
as.