(dp0
(S'problem'
p1
tp2
(lp3
(I35
I0
I0
S'common'
p4
tp5
a(I122
I6
I0
S'only'
p6
tp7
a(I123
I0
F-0.625
S'bad'
p8
tp9
a(I123
I0
I0
S'only'
p10
tp11
a(I128
I3
I0
S'big'
p12
tp13
a(I147
I2
F-0.375
S'small'
p14
tp15
as(S'something'
p16
tp17
(lp18
(I70
I1
F1.0
S'good'
p19
tp20
as(S'battery'
p21
S'life'
p22
tp23
(lp24
(I5
I1
F-0.5
S'longer'
p25
tp26
a(I5
I1
I0
S'more'
p27
tp28
a(I62
I2
F0.5
S'flat'
p29
tp30
a(I62
I2
F-0.75
S'short'
p31
tp32
a(I89
I0
F-0.25
S'low'
p33
tp34
a(I89
I0
F-0.125
S'slow'
p35
tp36
a(I142
I1
F-0.5
S'poor'
p37
tp38
as(S'purchase'
p39
tp40
(lp41
(I7
I0
F0.125
S'first'
p42
tp43
a(I22
I0
F0.125
S'first'
p44
tp45
a(I86
I1
F0.875
S'happy'
p46
tp47
as(S'charging'
p48
tp49
(lp50
(I34
I1
F0.125
S'first'
p51
tp52
a(I115
I0
I0
S'great'
p53
tp54
as(S'anything'
p55
tp56
(lp57
(I113
I4
I0
S'next'
p58
tp59
a(I113
I4
F-0.75
S'impossible'
p60
tp61
a(I122
I10
F1.0
S'better'
p62
tp63
a(I168
I1
F0.375
S'new'
p64
tp65
as(S'card'
p66
tp67
(lp68
(I49
I2
I0
S'inside'
p69
tp70
as(S'brand'
p71
tp72
(lp73
(I7
I3
F0.375
S'new'
p74
tp75
a(I14
I0
F0.375
S'new'
p76
tp77
a(I19
I0
F0.375
S'new'
p78
tp79
a(I38
I0
F0.375
S'new'
p80
tp81
a(I49
I0
F0.375
S'new'
p82
tp83
a(I50
I7
F0.375
S'new'
p84
tp85
a(I56
I0
F0.375
S'new'
p86
tp87
a(I86
I0
F0.375
S'new'
p88
tp89
a(I96
I0
F0.375
S'new'
p90
tp91
a(I103
I2
F0.375
S'new'
p92
tp93
a(I116
I5
F0.375
S'new'
p94
tp95
as(S'service'
p96
tp97
(lp98
(I21
I5
F1.0
S'good'
p99
tp100
a(I120
I6
F0.625
S'easy'
p101
tp102
as(S'problems'
p103
tp104
(lp105
(I13
I9
F0.125
S'first'
p106
tp107
a(I48
I19
F0.125
S'first'
p108
tp109
a(I48
I19
I0
S'many'
p110
tp111
a(I48
I19
I0
S'same'
p112
tp113
a(I61
I0
F-0.625
S'other'
p114
tp115
a(I151
I4
F0.625
S'major'
p116
tp117
as(S'back'
p118
tp119
(lp120
(I134
I1
F-0.5
S'long'
p121
tp122
as(S'delivery'
p123
S'date'
p124
tp125
(lp126
(I19
I0
I0
S'great'
p127
tp128
as(S'company'
p129
tp130
(lp131
(I113
I0
F0.875
S'happy'
p132
tp133
a(I122
I15
I0
S'great'
p134
tp135
as(S'charging'
p136
S'port'
p137
tp138
(lp139
(I34
I1
F0.125
g51
tp140
a(I34
I1
F-0.25
S'loose'
p141
tp142
a(I115
I0
I0
g53
tp143
as(S'month'
p144
tp145
(lp146
(I34
I8
I0
S'most'
p147
tp148
a(I62
I0
F0.125
S'first'
p149
tp150
a(I136
I1
F0.125
S'first'
p151
tp152
a(I161
I3
F0.125
S'last'
p153
tp154
as(S'sprint'
p155
tp156
(lp157
(I21
I1
F-0.625
S'clean'
p158
tp159
a(I49
I1
I0
S'activate'
p160
tp161
a(I120
I4
F-0.625
S'other'
p162
tp163
a(I152
I1
F0.375
S'new'
p164
tp165
a(I164
I2
F0.625
S'easy'
p166
tp167
as(S'htc'
p168
S'evo'
p169
tp170
(lp171
(I86
I0
I0
S'faster'
p172
tp173
a(I104
I0
F1.0
S'good'
p174
tp175
as(S'week'
p176
tp177
(lp178
(I150
I0
I0
S'hear'
p179
tp180
as(S'review'
p181
tp182
(lp183
(I48
I19
I0
S'such'
p184
tp185
a(I48
I19
F-0.625
S'bad'
p186
tp187
a(I122
I8
I0
S'later'
p188
tp189
a(I161
I1
F-0.625
S'bad'
p190
tp191
as(S'life'
p192
tp193
(lp194
(I5
I1
I0
g27
tp195
a(I89
I0
F-0.125
g35
tp196
a(I142
I1
F-0.5
g37
tp197
as(S'right'
p198
tp199
(lp200
(I111
I0
F0.75
S'broke'
p201
tp202
as(S'return'
p203
tp204
(lp205
(I140
I0
F0.875
S'happy'
p206
tp207
a(I141
I3
F0.375
S'available'
p208
tp209
as(S'sprint'
p210
S'store'
p211
tp212
(lp213
(I120
I4
F-0.625
g162
tp214
a(I124
I3
I0
S'sprint'
p215
tp216
a(I124
I3
F0.125
S'able'
p217
tp218
as(S'a'
p219
S'great'
p220
S'price'
p221
tp222
(lp223
(I86
I1
I0
S'great'
p224
tp225
a(I89
I0
I0
S'great'
p226
tp227
a(I97
I0
I0
S'great'
p228
tp229
a(I97
I0
F0.375
S'new'
p230
tp231
a(I162
I1
I0
S'great'
p232
tp233
as(S'few'
p234
S'weeks'
p235
tp236
(lp237
(I34
I5
I0
S'few'
p238
tp239
a(I71
I2
I0
S'few'
p240
tp241
a(I112
I1
I0
S'few'
p242
tp243
as(S'batteries'
p244
tp245
(lp246
(I7
I2
F-0.625
S'irrelevant'
p247
tp248
a(I97
I4
F-0.625
S'other'
p249
tp250
a(I130
I6
F0.125
S'last'
p251
tp252
a(I156
I0
F0.375
S'new'
p253
tp254
a(I161
I2
I0
S'more'
p255
tp256
a(I163
I13
I0
S'standard'
p257
tp258
as(S'sd'
p259
S'card'
p260
tp261
(lp262
(I49
I2
I0
g69
tp263
as(S'buying'
p264
tp265
(lp266
(I146
I3
F0.25
S'weary'
p267
tp268
as(S'contract'
p269
tp270
(lp271
(I52
I3
F0.375
S'new'
p272
tp273
a(I52
I3
I0
S'two-year'
p274
tp275
a(I52
I3
F0.375
S'new'
p276
tp277
a(I52
I3
F0.375
S'new'
p278
tp279
as(S'seller'
p280
tp281
(lp282
(I32
I3
I0
S'great'
p283
tp284
as(S'customer'
p285
tp286
(lp287
(I26
I3
I0
S'great'
p288
tp289
a(I95
I2
F0.875
S'happy'
p290
tp291
as(S'works'
p292
tp293
(lp294
(I130
I7
I0
S'great'
p295
tp296
as(S'order'
p297
tp298
(lp299
(I156
I0
F0.375
S'new'
p300
tp301
as(S'battery'
p302
tp303
(lp304
(I0
I2
F-0.75
S'dead'
p305
tp306
a(I0
I3
F0.375
S'new'
p307
tp308
a(I5
I1
F-0.5
g25
tp309
a(I7
I1
F0.375
S'new'
p310
tp311
a(I12
I0
F-0.625
S'bad'
p312
tp313
a(I15
I2
F0.375
S'extended'
p314
tp315
a(I15
I2
F0.25
S'original'
p316
tp317
a(I45
I2
F0.125
S'last'
p318
tp319
a(I61
I0
F-0.75
S'short'
p320
tp321
a(I62
I2
F0.5
g29
tp322
a(I62
I2
F-0.75
g31
tp323
a(I64
I0
F1.0
S'good'
p324
tp325
a(I65
I3
F0.375
S'new'
p326
tp327
a(I67
I0
I0
S'old'
p328
tp329
a(I67
I0
F0.375
S'new'
p330
tp331
a(I69
I1
F1.0
S'better'
p332
tp333
a(I89
I0
F-0.25
g33
tp334
a(I92
I4
F0.375
S'new'
p335
tp336
a(I97
I0
F-0.75
S'dead'
p337
tp338
a(I98
I1
F0.125
S'last'
p339
tp340
a(I142
I2
F-0.375
S'red'
p341
tp342
a(I152
I4
F0.375
S'extended'
p343
tp344
a(I161
I0
F0.125
S'first'
p345
tp346
as(S'store'
p347
tp348
(lp349
(I83
I3
F1.0
S'good'
p350
tp351
a(I124
I3
I0
g215
tp352
a(I124
I3
F0.125
g217
tp353
as(S'refund'
p354
tp355
(lp356
(I39
I5
I0
S'full'
p357
tp358
a(I120
I6
I0
S'full'
p359
tp360
as(S'first'
p361
S'time'
p362
tp363
(lp364
(I41
I1
F0.125
S'first'
p365
tp366
a(I52
I10
F0.125
S'first'
p367
tp368
a(I66
I10
F0.125
S'first'
p369
tp370
a(I152
I0
F0.125
S'first'
p371
tp372
as(S'thing'
p373
tp374
(lp375
(I26
I1
I0
S'only'
p376
tp377
a(I34
I7
F-0.5
S'regular'
p378
tp379
a(I52
I7
I0
S'only'
p380
tp381
a(I63
I3
I0
S'more'
p382
tp383
a(I76
I2
F-0.75
S'stupid'
p384
tp385
a(I88
I3
I0
S'only'
p386
tp387
a(I88
I3
F-0.625
S'shot'
p388
tp389
a(I116
I4
I0
S'only'
p390
tp391
a(I152
I3
F-0.875
S'worst'
p392
tp393
a(I163
I7
I0
S'same'
p394
tp395
as(S'charge'
p396
tp397
(lp398
(I48
I6
F1.0
S'good'
p399
tp400
a(I80
I3
I0
S'full'
p401
tp402
as(S'work'
p403
tp404
(lp405
(I70
I1
F0.875
S'music'
p406
tp407
a(I70
I1
I0
S'full'
p408
tp409
as(S'call'
p410
tp411
(lp412
(I44
I0
F-0.5
S'answer'
p413
tp414
as(S'black'
p415
S'lines'
p416
tp417
(lp418
(I29
I0
F-0.375
S'black'
p419
tp420
a(I128
I4
F-0.5
S'long'
p421
tp422
as(S'discount'
p423
S'program'
p424
tp425
(lp426
(I52
I7
I0
S'useful'
p427
tp428
a(I52
I7
F0.5
S'eligible'
p429
tp430
a(I52
I7
F0.125
S'first'
p431
tp432
as(S'screen'
p433
tp434
(lp435
(I5
I0
F0.25
S'bigger'
p436
tp437
a(I5
I0
F0.625
S'easy'
p438
tp439
a(I23
I2
I0
S'most'
p440
tp441
a(I23
I2
F0.5
S'obvious'
p442
tp443
a(I44
I0
F-0.625
S'light'
p444
tp445
a(I50
I3
F-0.375
S'top'
p446
tp447
a(I50
I3
F0.5
S'touch'
p448
tp449
a(I50
I3
F1.0
S'good'
p450
tp451
a(I110
I0
F0.5
S'touch'
p452
tp453
a(I128
I2
F0.75
S'beautiful'
p454
tp455
a(I130
I6
I0
S'big'
p456
tp457
a(I163
I0
F1.0
S'good'
p458
tp459
as(S'time'
p460
tp461
(lp462
(I39
I3
F-0.875
S'trouble'
p463
tp464
a(I41
I1
F0.125
g365
tp465
a(I46
I1
I0
S'same'
p466
tp467
a(I48
I4
F0.125
S'last'
p468
tp469
a(I52
I3
I0
S'same'
p470
tp471
a(I52
I10
F0.125
g367
tp472
a(I57
I6
I0
S'only'
p473
tp474
a(I66
I10
F0.125
g369
tp475
a(I107
I1
I0
S'more'
p476
tp477
a(I131
I0
F-0.75
S'short'
p478
tp479
a(I136
I6
F-0.5
S'long'
p480
tp481
a(I152
I0
F0.125
g371
tp482
as(S'price'
p483
tp484
(lp485
(I86
I1
I0
g224
tp486
a(I89
I0
I0
g226
tp487
a(I97
I0
I0
g228
tp488
a(I97
I0
F0.375
g230
tp489
a(I103
I2
I0
S'same'
p490
tp491
a(I121
I0
I0
S'total'
p492
tp493
a(I126
I0
I0
S'economical'
p494
tp495
a(I146
I4
I0
S'same'
p496
tp497
a(I162
I1
I0
g232
tp498
as(S'make'
p499
tp500
(lp501
(I62
I4
F0.375
S'reliable'
p502
tp503
as(S'condition'
p504
tp505
(lp506
(I15
I0
I0
S'great'
p507
tp508
a(I17
I0
I0
S'great'
p509
tp510
a(I79
I0
F1.0
S'good'
p511
tp512
a(I91
I5
I0
S'great'
p513
tp514
a(I91
I5
F-0.125
S'overall'
p515
tp516
a(I106
I2
I0
S'earlier'
p517
tp518
a(I106
I2
F1.0
S'good'
p519
tp520
a(I132
I1
F1.0
S'good'
p521
tp522
a(I157
I2
F1.0
S'good'
p523
tp524
as(S'charger'
p525
tp526
(lp527
(I19
I0
F0.25
S'original'
p528
tp529
a(I48
I7
F-0.25
S'loose'
p530
tp531
a(I136
I2
I0
S'external'
p532
tp533
a(I163
I12
F-0.625
S'wall'
p534
tp535
as(S'love'
p536
tp537
(lp538
(I4
I0
I0
S'great'
p539
tp540
as(S'customer'
p541
S'service'
p542
tp543
(lp544
(I21
I5
F1.0
g99
tp545
a(I26
I3
I0
g288
tp546
a(I120
I6
F0.625
g101
tp547
as(S'months'
p548
tp549
(lp550
(I18
I1
I0
S'later'
p551
tp552
a(I32
I1
I0
S'few'
p553
tp554
a(I52
I3
I0
S'later'
p555
tp556
a(I64
I0
I0
S'later'
p557
tp558
a(I83
I0
I0
S'few'
p559
tp560
a(I83
I0
F-0.5
S'sure'
p561
tp562
a(I112
I5
I0
S'later'
p563
tp564
a(I112
I8
I0
S'few'
p565
tp566
as(S'product'
p567
tp568
(lp569
(I6
I3
F1.0
S'good'
p570
tp571
a(I31
I0
F1.0
S'good'
p572
tp573
a(I31
I0
F0.25
S'used'
p574
tp575
a(I39
I0
F0.375
S'new'
p576
tp577
a(I54
I2
F1.0
S'better'
p578
tp579
a(I89
I1
I0
S'different'
p580
tp581
a(I104
I1
F1.0
S'good'
p582
tp583
a(I106
I0
F1.0
S'good'
p584
tp585
a(I106
I1
F0.375
S'new'
p586
tp587
a(I122
I22
F-0.625
S'bad'
p588
tp589
a(I126
I1
F1.0
S'good'
p590
tp591
as(S'days'
p592
tp593
(lp594
(I34
I0
F-0.75
S'worse'
p595
tp596
a(I48
I15
I0
S'later'
p597
tp598
a(I66
I8
I0
S'later'
p599
tp600
a(I128
I4
I0
S'later'
p601
tp602
as(S'n'
p603
S'good'
p604
S'condition'
p605
tp606
(lp607
(I79
I0
F1.0
g511
tp608
a(I106
I2
I0
g517
tp609
a(I106
I2
F1.0
g519
tp610
a(I132
I1
F1.0
g521
tp611
a(I157
I2
F1.0
g523
tp612
as.