(dp0
(S'battery'
p1
S'life'
p2
tp3
(lp4
(I5
I24
F-0.75
S'short'
p5
I1
tp6
a(I5
I61
I0
S'great'
p7
I1
tp8
a(I7
I17
I0
S'great'
p9
I1
tp10
a(I10
I22
F1.0
S'good'
p11
I1
tp12
a(I15
I56
I0
S'very'
p13
I1
tp14
a(I15
I56
F-0.75
S'short'
p15
I1
tp16
a(I5
I61
I0
g7
I19
tp17
a(I7
I17
I0
g9
I19
tp18
a(I10
I22
F1.0
g11
I19
tp19
a(I5
I24
F-0.75
g5
I15
tp20
a(I5
I128
I0
S'fast'
p21
I15
tp22
a(I5
I128
F1.0
S'good'
p23
I15
tp24
a(I6
I79
F0.625
S'convenient'
p25
I15
tp26
a(I6
I79
F0.5
S'accurate'
p27
I15
tp28
a(I9
I25
F0.125
S'first'
p29
I15
tp30
a(I9
I25
F-0.75
S'dead'
p31
I15
tp32
a(I9
I26
F0.375
S'new'
p33
I15
tp34
a(I15
I56
I0
g13
I15
tp35
a(I15
I56
F-0.75
g15
I15
tp36
a(I20
I10
F-0.625
S'free'
p37
I15
tp38
as(S'service'
p39
tp40
(lp41
(I1
I0
F0.25
S'helpful'
p42
I16
tp43
a(I11
I3
I0
S'slower'
p44
I16
tp45
a(I22
I1
F1.0
S'good'
p46
I16
tp47
as(S'camera'
p48
tp49
(lp50
(I2
I0
F1.0
S'good'
p51
I1
tp52
a(I4
I6
I0
S'sensitive'
p53
I1
tp54
a(I5
I13
F-0.125
S'frontal'
p55
I1
tp56
a(I5
I13
F-0.125
S'frontal'
p57
I1
tp58
a(I5
I128
F1.0
S'good'
p59
I1
tp60
a(I5
I159
F0.125
S'first'
p61
I1
tp62
a(I5
I159
F1.0
S'good'
p63
I1
tp64
a(I5
I159
I0
S'only'
p65
I1
tp66
a(I5
I159
F-0.625
S'bad'
p67
I1
tp68
a(I6
I96
I0
S'least'
p69
I1
tp70
a(I12
I11
I0
S'rear'
p71
I1
tp72
a(I15
I8
F1.0
S'good'
p73
I1
tp74
as(S'internet'
p75
tp76
(lp77
(I9
I30
F-0.125
S'slow'
p78
I6
tp79
a(I23
I28
I-100
S'v-e-r-y'
p80
I6
tp81
a(I23
I28
F-0.125
S'slow'
p82
I6
tp83
a(I23
I28
F0.75
S'due'
p84
I6
tp85
as(S'glass'
p86
tp87
(lp88
(I6
I20
F-0.375
S'top'
p89
I9
tp90
as(S'motorola'
p91
S'defy'
p92
S'mb525'
p93
tp94
(lp95
(I23
I16
F0.25
S'original'
p96
I0
tp97
a(I15
I71
F-0.625
S'other'
p98
I0
tp99
a(I22
I0
F0.375
S'new'
p100
I0
tp101
a(I23
I16
F0.25
g96
I0
tp102
a(I5
I5
F-0.125
S'overall'
p103
I0
tp104
a(I5
I5
F0.875
S'happy'
p105
I0
tp106
a(I15
I71
F-0.625
g98
I0
tp107
a(I15
I154
F0.25
S'lovely'
p108
I0
tp109
a(I22
I0
F0.375
g100
I0
tp110
a(I23
I16
F0.25
g96
I0
tp111
a(I5
I142
F-0.375
S'smaller'
p112
I0
tp113
as(S'android'
p114
tp115
(lp116
(I6
I109
F-0.625
S'bad'
p117
I0
tp118
a(I10
I23
I0
S'very'
p119
I0
tp120
a(I10
I23
I0
S'latest'
p121
I0
tp122
a(I11
I12
F0.125
S'first'
p123
I0
tp124
a(I12
I13
F1.0
S'best'
p125
I0
tp126
a(I14
I18
F1.0
S'better'
p127
I0
tp128
a(I15
I0
F0.5
S'second'
p129
I0
tp130
a(I15
I94
F0.125
S'first'
p131
I0
tp132
as(S'water'
p133
S'resistant'
p134
tp135
(lp136
(I5
I175
I0
S'water'
p137
I0
tp138
a(I11
I4
I0
S'least'
p139
I0
tp140
a(I15
I82
F-0.375
S'small'
p141
I0
tp142
a(I15
I82
F0.125
S'rugged'
p143
I0
tp144
a(I15
I82
F0.625
S'easy'
p145
I0
tp146
a(I6
I13
F-0.25
S'bubble'
p147
I6
tp148
a(I6
I127
F-0.5
S'less'
p149
I6
tp150
a(I6
I139
F0.375
S'new'
p151
I6
tp152
a(I7
I6
F0.875
S'music'
p153
I6
tp154
a(I11
I4
I0
g139
I6
tp155
a(I5
I175
I0
g137
I0
tp156
a(I15
I82
F-0.375
g141
I0
tp157
a(I15
I82
F0.125
g143
I0
tp158
a(I15
I82
F0.625
g145
I0
tp159
as(S'network'
p160
tp161
(lp162
(I10
I20
F0.625
S'superior'
p163
I0
tp164
a(I15
I91
I0
S'full'
p165
I0
tp166
a(I15
I95
I0
S'european'
p167
I0
tp168
as(S'data'
p169
tp170
(lp171
(I5
I148
I0
S'fast'
p172
I13
tp173
a(I10
I21
I0
S'mobile'
p174
I13
tp175
a(I16
I37
F-0.125
S'slow'
p176
I13
tp177
as(S'smartphone'
p178
tp179
(lp180
(I5
I149
I0
S'least'
p181
I0
tp182
a(I7
I0
F0.125
S'first'
p183
I0
tp184
a(I10
I23
F0.5
S'functional'
p185
I0
tp186
a(I15
I61
F0.125
S'first'
p187
I0
tp188
a(I23
I17
I0
S'quick'
p189
I0
tp190
as(S'wifi'
p191
tp192
(lp193
(I6
I159
I0
S'internet'
p194
I0
tp195
as(S'apps'
p196
tp197
(lp198
(I5
I14
F-0.5
S'heavy'
p199
I0
tp200
a(I5
I84
I0
S'great'
p201
I0
tp202
a(I6
I65
I0
S'many'
p203
I0
tp204
a(I6
I69
F0.875
S'important'
p205
I0
tp206
a(I6
I70
I0
S'many'
p207
I0
tp208
a(I6
I71
F-0.625
S'other'
p209
I0
tp210
a(I6
I72
I0
S'more'
p211
I0
tp212
a(I11
I12
I0
S'more'
p213
I0
tp214
a(I15
I60
F0.625
S'easy'
p215
I0
tp216
a(I15
I146
I0
S'great'
p217
I0
tp218
a(I16
I24
I0
S'english'
p219
I0
tp220
a(I20
I19
I0
S'such'
p221
I0
tp222
as(S'waterproof'
p223
tp224
(lp225
(I15
I103
F0.5
S'reasonable'
p226
I0
tp227
as(S'touch'
p228
S'screen'
p229
tp230
(lp231
(I5
I30
F0.5
S'touch'
p232
I2
tp233
a(I5
I94
F0.5
S'touch'
p234
I2
tp235
a(I23
I12
I0
S'sensitive'
p236
I2
tp237
as.