(dp0
(S'a'
p1
S'data'
p2
S'plan'
p3
tp4
(lp5
(I16
I18
F0.5
S'told'
p6
I0
tp7
a(I19
I16
F0.5
S'expensive'
p8
I0
tp9
a(I16
I18
F0.5
g6
I0
tp10
a(I19
I16
F0.5
g8
I0
tp11
a(I16
I18
F0.5
g6
I13
tp12
a(I16
I46
I0
S'normal'
p13
I13
tp14
a(I19
I16
F0.5
g8
I13
tp15
a(I27
I10
I0
S'cable'
p16
I13
tp17
a(I38
I8
F0.5
S'personal'
p18
I13
tp19
as(S'in'
p20
S'sd'
p21
S'card'
p22
tp23
(lp24
(I29
I31
I0
S'sd'
p25
I0
tp26
a(I29
I31
I0
g25
I0
tp27
as(S'resistive'
p28
S'screen'
p29
tp30
(lp31
(I2
I1
I0
S'resistive'
p32
I0
tp33
a(I2
I7
I0
S'resistive'
p34
I0
tp35
a(I2
I7
F1.0
S'better'
p36
I0
tp37
a(I7
I21
F0.25
S'responsive'
p38
I0
tp39
a(I7
I21
I0
S'resistive'
p40
I0
tp41
a(I7
I42
I0
S'resistive'
p42
I0
tp43
a(I7
I54
I0
S'resistive'
p44
I0
tp45
a(I11
I5
F0.875
S'nice'
p46
I0
tp47
a(I18
I54
I0
S'resistive'
p48
I0
tp49
a(I18
I54
F-0.75
S'difficult'
p50
I0
tp51
a(I18
I54
F0.25
S'responsive'
p52
I0
tp53
a(I23
I10
I0
S'resistive'
p54
I0
tp55
a(I26
I39
I0
S'resistive'
p56
I0
tp57
a(I27
I29
I0
S'resistive'
p58
I0
tp59
a(I38
I14
I0
S'resistive'
p60
I0
tp61
a(I38
I14
I0
S'soft'
p62
I0
tp63
as(S'tech'
p64
S'support'
p65
tp66
(lp67
(I24
I14
I0
S'tech'
p68
I1
tp69
a(I24
I16
F0.5
S'technical'
p70
I1
tp71
a(I24
I32
I0
S'tech'
p72
I1
tp73
as(S'call'
p74
S'quality'
p75
tp76
(lp77
(I6
I1
I0
S'great'
p78
I0
tp79
a(I29
I25
I0
S'great'
p80
I0
tp81
a(I41
I6
F0.5
S'clear'
p82
I0
tp83
as(S'camera'
p84
tp85
(lp86
(I15
I227
F0.625
S'acceptable'
p87
I1
tp88
a(I24
I60
F1.0
S'good'
p89
I1
tp90
a(I26
I36
F1.0
S'good'
p91
I1
tp92
a(I36
I5
I0
S'basic'
p93
I1
tp94
as(S'operating'
p95
S'system'
p96
tp97
(lp98
(I16
I49
I0
S'android'
p99
I2
tp100
as(S'memory'
p101
tp102
(lp103
(I3
I10
I0
S'internal'
p104
I5
tp105
a(I7
I36
I0
S'internal'
p106
I5
tp107
a(I8
I10
I0
S'internal'
p108
I5
tp109
a(I13
I0
F-0.25
S'low'
p110
I5
tp111
a(I13
I0
I0
S'quick'
p112
I5
tp113
a(I18
I27
F-0.25
S'low'
p114
I5
tp115
a(I39
I24
F-0.25
S'low'
p116
I5
tp117
as(S'works'
p118
S'fine'
p119
tp120
(lp121
(I14
I6
I0
S'great'
p122
I9
tp123
as(S'wifi'
p124
S'works'
p125
tp126
(lp127
(I6
I0
I0
S'great'
p128
I0
tp129
a(I7
I5
I0
S'great'
p130
I0
tp131
a(I29
I3
F1.0
S'good'
p132
I0
tp133
a(I7
I5
I0
g130
I0
tp134
a(I7
I53
F-0.25
S'cheapest'
p135
I0
tp136
a(I15
I21
F-0.375
S'near'
p137
I0
tp138
a(I29
I38
F1.0
S'good'
p139
I0
tp140
a(I29
I38
I0
S'internet'
p141
I0
tp142
a(I29
I38
I0
S'fast'
p143
I0
tp144
a(I30
I74
F1.0
S'good'
p145
I0
tp146
as(S'many'
p147
S'apps'
p148
tp149
(lp150
(I25
I7
I0
S'many'
p151
I0
tp152
a(I25
I7
F0.375
S'available'
p153
I0
tp154
a(I26
I30
I0
S'many'
p155
I0
tp156
a(I29
I39
I0
S'many'
p157
I0
tp158
a(I34
I13
I0
S'many'
p159
I0
tp160
a(I36
I17
I0
S'many'
p161
I0
tp162
a(I2
I10
F-0.625
S'free'
p163
I0
tp164
a(I7
I14
I0
S'portuguese'
p165
I0
tp166
a(I9
I5
I0
S'more'
p167
I0
tp168
a(I18
I26
I0
S'more'
p169
I0
tp170
a(I18
I27
F0.375
S'new'
p171
I0
tp172
a(I19
I17
I0
S'educational'
p173
I0
tp174
a(I25
I4
I0
S'either'
p175
I0
tp176
a(I25
I7
I0
g151
I0
tp177
a(I25
I7
F0.375
g153
I0
tp178
a(I26
I30
I0
g155
I0
tp179
a(I29
I30
I0
S'great'
p180
I0
tp181
a(I29
I30
F-0.625
S'free'
p182
I0
tp183
a(I29
I39
I0
g157
I0
tp184
a(I30
I68
F-0.625
S'free'
p185
I0
tp186
a(I30
I74
F1.0
S'good'
p187
I0
tp188
a(I34
I13
I0
g159
I0
tp189
a(I36
I17
I0
g161
I0
tp190
a(I38
I7
F0.125
S'first'
p191
I0
tp192
a(I39
I10
I0
S'such'
p193
I0
tp194
a(I39
I24
F-0.125
S'minimum'
p195
I0
tp196
a(I39
I27
I0
S'minimal'
p197
I0
tp198
a(I39
I27
I0
S'great'
p199
I0
tp200
as(S'picture'
p201
S'messages'
p202
tp203
(lp204
(I16
I17
F0.125
S'able'
p205
I0
tp206
as(S'battery'
p207
tp208
(lp209
(I3
I25
F0.375
S'new'
p210
I15
tp211
a(I3
I27
F0.375
S'new'
p212
I15
tp213
a(I6
I1
I0
S'great'
p214
I15
tp215
a(I11
I6
F-0.625
S'bad'
p216
I15
tp217
a(I15
I155
F-0.375
S'pull'
p218
I15
tp219
a(I15
I187
F-0.625
S'idle'
p220
I15
tp221
a(I30
I52
F0.125
S'last'
p222
I15
tp223
as(S'upgrade'
p224
tp225
(lp226
(I16
I15
F0.875
S'happy'
p227
I3
tp228
as(S'language'
p229
tp230
(lp231
(I18
I34
F-0.125
S'foreign'
p232
I3
tp233
a(I18
I48
F-0.75
S'insurmountable'
p234
I3
tp235
a(I18
I48
I0
S'english'
p236
I3
tp237
a(I18
I48
F-0.375
S'manual'
p238
I3
tp239
a(I19
I17
I0
S'more'
p240
I3
tp241
as(S'sim'
p242
S'card'
p243
tp244
(lp245
(I7
I3
F-0.25
S'ready'
p246
I0
tp247
a(I15
I9
F0.625
S'easy'
p248
I0
tp249
a(I29
I31
I0
g25
I0
tp250
a(I30
I3
F0.125
S'first'
p251
I0
tp252
as(S'airplane'
p253
S'mode'
p254
tp255
(lp256
(I30
I10
I0
S'normal'
p257
I0
tp258
as(S'smartphone'
p259
tp260
(lp261
(I8
I16
F0.125
S'first'
p262
I0
tp263
a(I17
I7
F1.0
S'best'
p264
I0
tp265
a(I29
I26
I0
S'great'
p266
I0
tp267
a(I30
I56
F-0.125
S'overall'
p268
I0
tp269
a(I30
I61
F0.5
S'second'
p270
I0
tp271
a(I36
I4
F0.875
S'happy'
p272
I0
tp273
as(S'android'
p274
S'market'
p275
tp276
(lp277
(I29
I30
I0
S'android'
p278
I0
tp279
a(I9
I0
F0.125
S'able'
p280
I0
tp281
a(I10
I10
F0.25
S'unlocked'
p282
I0
tp283
a(I11
I2
F0.75
S'classic'
p284
I0
tp285
a(I15
I38
F0.125
S'able'
p286
I0
tp287
a(I15
I177
I0
S'blue'
p288
I0
tp289
a(I15
I177
I0
S'blue'
p290
I0
tp291
a(I15
I199
F0.375
S'newer'
p292
I0
tp293
a(I16
I7
F-0.25
S'cheaper'
p294
I0
tp295
a(I16
I7
F-0.25
S'cheapest'
p296
I0
tp297
a(I27
I12
F-0.25
S'inexpensive'
p298
I0
tp299
a(I30
I77
F0.875
S'lucky'
p300
I0
tp301
a(I30
I77
F0.125
S'able'
p302
I0
tp303
a(I31
I17
I0
S'next'
p304
I0
tp305
a(I36
I1
I0
S'old'
p306
I0
tp307
a(I38
I6
I0
S'great'
p308
I0
tp309
a(I39
I18
I0
S'own'
p310
I0
tp311
as(S'amazon'
p312
tp313
(lp314
(I18
I20
F0.125
S'enough'
p315
I13
tp316
a(I27
I11
I0
S'least'
p317
I13
tp318
a(I30
I43
F-0.5
S'unavailable'
p319
I13
tp320
as(S'touch'
p321
S'screen'
p322
tp323
(lp324
(I1
I1
F0.25
S'responsive'
p325
I2
tp326
a(I7
I21
F0.25
g38
I2
tp327
a(I7
I21
I0
g40
I2
tp328
a(I7
I42
I0
g42
I2
tp329
a(I11
I5
I0
S'resistive'
p330
I2
tp331
a(I11
I5
I0
S'resistive'
p332
I2
tp333
a(I11
I5
F0.875
g46
I2
tp334
a(I15
I200
F-0.375
S'smaller'
p335
I2
tp336
a(I18
I7
F0.5
S'touch'
p337
I2
tp338
a(I21
I2
F0.5
S'touch'
p339
I2
tp340
a(I23
I17
F0.5
S'touch'
p341
I2
tp342
a(I30
I74
F0.5
S'touch'
p343
I2
tp344
a(I35
I2
F0.5
S'touch'
p345
I2
tp346
a(I38
I14
I0
g60
I2
tp347
a(I38
I14
I0
g62
I2
tp348
as(S'calls'
p349
tp350
(lp351
(I7
I22
F0.875
S'music'
p352
I0
tp353
a(I9
I3
F0.5
S'clear'
p354
I0
tp355
a(I26
I31
I0
S'few'
p356
I0
tp357
a(I26
I31
F0.5
S'rid'
p358
I0
tp359
as.