(dp0
(S'problem'
p1
tp2
(lp3
(I26
I3
F0.625
S'major'
p4
tp5
a(I30
I1
I0
S'common'
p6
tp7
a(I46
I2
I0
S'only'
p8
tp9
a(I108
I15
I0
S'very'
p10
tp11
as(S'battery'
p12
S'life'
p13
tp14
(lp15
(I14
I0
I0
S'signal'
p16
tp17
a(I14
I0
F-0.5
S'poor'
p18
tp19
a(I27
I5
F-0.625
S'average'
p20
tp21
a(I27
I5
I0
S'great'
p22
tp23
a(I76
I0
F-0.75
S'short'
p24
tp25
a(I93
I2
F-0.25
S'low'
p26
tp27
a(I93
I2
F-0.75
S'dead'
p28
tp29
a(I108
I19
F-0.5
S'poor'
p30
tp31
a(I115
I0
F-0.75
S'short'
p32
tp33
a(I139
I3
F-0.5
S'weak'
p34
tp35
as(S'money'
p36
tp37
(lp38
(I26
I5
I0
S'unnecessary'
p39
tp40
a(I63
I8
F0.375
S'extra'
p41
tp42
a(I63
I8
F0.75
S'worth'
p43
tp44
as(S'screen'
p45
tp46
(lp47
(I4
I4
F1.0
S'better'
p48
tp49
a(I27
I3
F0.25
S'bigger'
p50
tp51
a(I33
I0
F0.5
S'touch'
p52
tp53
a(I62
I5
I0
S'great'
p54
tp55
a(I68
I1
F1.0
S'good'
p56
tp57
a(I73
I0
F0.5
S'touch'
p58
tp59
a(I73
I0
F0.625
S'perfect'
p60
tp61
a(I84
I1
F0.25
S'responsive'
p62
tp63
a(I89
I2
F0.5
S'touch'
p64
tp65
a(I89
I2
F0.5
S'touch'
p66
tp67
a(I99
I0
F-0.75
S'bright'
p68
tp69
a(I99
I0
F0.25
S'responsive'
p70
tp71
a(I99
I2
F-0.125
S'mine'
p72
tp73
a(I108
I5
F0.5
S'touch'
p74
tp75
a(I123
I0
F0.25
S'responsive'
p76
tp77
a(I129
I2
F-0.375
S'small'
p78
tp79
a(I139
I2
F0.875
S'nice'
p80
tp81
as(S'reviews'
p82
tp83
(lp84
(I15
I0
F-0.625
S'other'
p85
tp86
a(I27
I0
F-0.625
S'bad'
p87
tp88
a(I27
I0
F-0.889
S'unfortunate'
p89
tp90
a(I73
I0
F-0.875
S'negative'
p91
tp92
a(I79
I2
F-0.875
S'negative'
p93
tp94
a(I79
I10
F-0.875
S'negative'
p95
tp96
a(I111
I0
F-0.625
S'bad'
p97
tp98
a(I111
I1
F-0.625
S'bad'
p99
tp100
a(I133
I2
F-0.625
S'other'
p101
tp102
as(S'service'
p103
tp104
(lp105
(I138
I3
F0.25
S'consistent'
p106
tp107
a(I138
I5
F0.125
S'flaky'
p108
tp109
as(S'works'
p110
S'fine'
p111
tp112
(lp113
(I21
I0
F0.625
S'easy'
p114
tp115
a(I27
I4
I0
S'android'
p116
tp117
a(I68
I5
I0
S'old'
p118
tp119
a(I122
I2
I0
S'android'
p120
tp121
as(S'dell'
p122
tp123
(lp124
(I62
I1
I0
S'most'
p125
tp126
a(I81
I0
F0.5
S'bought'
p127
tp128
a(I81
I0
F0.375
S'new'
p129
tp130
a(I114
I4
F-0.375
S'simple'
p131
tp132
a(I117
I0
F0.375
S'new'
p133
tp134
as(S'fine'
p135
tp136
(lp137
(I21
I0
F0.625
g114
tp138
a(I122
I2
I0
g120
tp139
as(S'life'
p140
tp141
(lp142
(I14
I0
I0
g16
tp143
a(I14
I0
F-0.5
g18
tp144
a(I27
I5
F-0.625
g20
tp145
a(I27
I5
I0
g22
tp146
a(I76
I0
F-0.75
g24
tp147
a(I93
I2
F-0.25
g26
tp148
a(I108
I19
F-0.5
g30
tp149
a(I139
I3
F-0.5
g34
tp150
as(S'dont'
p151
tp152
(lp153
(I43
I3
I0
S'latest'
p154
tp155
as(S'features'
p156
tp157
(lp158
(I10
I1
I0
S'many'
p159
tp160
a(I22
I0
I0
S'great'
p161
tp162
a(I78
I0
F-0.25
S'modern'
p163
tp164
a(I86
I1
I0
S'same'
p165
tp166
a(I151
I0
F1.0
S'good'
p167
tp168
as(S'applications'
p169
tp170
(lp171
(I3
I5
F-0.75
S'little'
p172
tp173
a(I3
I5
I0
S'active'
p174
tp175
a(I17
I0
F0.375
S'similar'
p176
tp177
a(I29
I0
I0
S'social'
p178
tp179
a(I68
I1
I0
S'many'
p180
tp181
a(I68
I1
F-0.625
S'free'
p182
tp183
a(I89
I3
I0
S'many'
p184
tp185
a(I111
I5
I0
S'useful'
p186
tp187
a(I111
I5
I0
S'few'
p188
tp189
a(I115
I2
F0.5
S'possible'
p190
tp191
as(S'wifi'
p192
tp193
(lp194
(I129
I3
F-0.625
S'light'
p195
tp196
a(I131
I12
I0
S'great'
p197
tp198
as(S'dell'
p199
S'aero'
p200
tp201
(lp202
(I52
I3
F-0.5
S'call'
p203
tp204
a(I81
I0
F0.5
g127
tp205
a(I81
I0
F0.375
g129
tp206
a(I117
I0
F0.375
g133
tp207
as(S'seller'
p208
tp209
(lp210
(I92
I6
F0.75
S'due'
p211
tp212
a(I141
I1
F0.875
S'happy'
p213
tp214
as(S'android'
p215
tp216
(lp217
(I68
I0
F0.125
S'first'
p218
tp219
a(I69
I0
F0.375
S'newer'
p220
tp221
a(I119
I2
F-0.25
S'modern'
p222
tp223
a(I139
I1
F0.125
S'first'
p224
tp225
a(I151
I0
F0.125
S'first'
p226
tp227
as(S'works'
p228
tp229
(lp230
(I26
I2
F1.0
S'good'
p231
tp232
a(I27
I4
I0
g116
tp233
a(I43
I2
I0
S'great'
p234
tp235
a(I68
I1
F1.0
S'good'
p236
tp237
a(I68
I5
I0
g118
tp238
a(I131
I18
I0
S'great'
p239
tp240
as(S'product'
p241
tp242
(lp243
(I34
I0
F1.0
S'best'
p244
tp245
a(I42
I4
F-0.125
S'overall'
p246
tp247
a(I42
I4
F0.75
S'worth'
p248
tp249
a(I46
I0
F1.0
S'good'
p250
tp251
a(I64
I0
F1.0
S'good'
p252
tp253
a(I88
I0
I0
S'great'
p254
tp255
a(I92
I1
F0.125
S'outlet'
p256
tp257
a(I144
I1
F-0.25
S'unaware'
p258
tp259
a(I144
I1
F-0.125
S'foreign'
p260
tp261
as(S'battery'
p262
tp263
(lp264
(I19
I3
F0.875
S'attractive'
p265
tp266
a(I32
I1
F0.125
S'last'
p267
tp268
a(I43
I5
I0
S'great'
p269
tp270
a(I62
I5
F0.125
S'last'
p271
tp272
a(I87
I2
I0
S'quick'
p273
tp274
a(I93
I2
F-0.75
g28
tp275
a(I115
I0
F-0.75
g32
tp276
as(S'network'
p277
tp278
(lp279
(I26
I3
F-0.75
S'dead'
p280
tp281
a(I26
I3
F0.375
S'alive'
p282
tp283
as(S'looking'
p284
tp285
(lp286
(I22
I1
F1.0
S'good'
p287
tp288
a(I113
I0
F0.875
S'nice'
p289
tp290
as(S'calls'
p291
tp292
(lp293
(I64
I0
F0.5
S'clear'
p294
tp295
as(S'thing'
p296
tp297
(lp298
(I4
I1
F-0.875
S'worst'
p299
tp300
a(I8
I0
I0
S'only'
p301
tp302
a(I36
I2
I0
S'interim'
p303
tp304
as(S'charge'
p305
tp306
(lp307
(I52
I0
F0.625
S'hold'
p308
tp309
a(I66
I3
I0
S'full'
p310
tp311
as(S'update'
p312
tp313
(lp314
(I37
I0
F-0.625
S'other'
p315
tp316
a(I37
I0
F1.0
S'good'
p317
tp318
a(I84
I5
I0
S'android'
p319
tp320
as(S'call'
p321
tp322
(lp323
(I4
I1
F-0.25
S'dropped'
p324
tp325
a(I4
I3
I0
S'quick'
p326
tp327
a(I5
I1
F-0.75
S'single'
p328
tp329
a(I104
I23
I0
S'close'
p330
tp331
as(S'price'
p332
tp333
(lp334
(I24
I0
F1.0
S'good'
p335
tp336
a(I34
I0
F1.0
S'best'
p337
tp338
a(I43
I10
F-0.375
S'small'
p339
tp340
a(I59
I1
I0
S'more'
p341
tp342
a(I59
I1
F-0.625
S'bad'
p343
tp344
a(I97
I0
F0.75
S'worth'
p345
tp346
a(I108
I16
F-0.25
S'low'
p347
tp348
a(I113
I1
F1.0
S'good'
p349
tp350
a(I119
I2
F0.5
S'comparable'
p351
tp352
a(I131
I24
F1.0
S'best'
p353
tp354
a(I133
I4
F-0.25
S'low'
p355
tp356
a(I145
I1
I0
S'great'
p357
tp358
a(I145
I1
F0.875
S'happy'
p359
tp360
as(S'time'
p361
tp362
(lp363
(I3
I9
F0.125
S'first'
p364
tp365
a(I3
I10
I0
S'limited'
p366
tp367
a(I66
I5
F0.75
S'worth'
p368
tp369
a(I76
I0
F0.125
S'last'
p370
tp371
a(I76
I0
F-0.5
S'long'
p372
tp373
a(I93
I1
F-0.875
S'hard'
p374
tp375
a(I106
I0
F-0.5
S'long'
p376
tp377
a(I119
I8
I0
S'european'
p378
tp379
a(I119
I11
I0
S'english'
p380
tp381
a(I128
I5
I0
S'big'
p382
tp383
as(S'camera'
p384
tp385
(lp386
(I0
I2
F0.5
S'clear'
p387
tp388
a(I39
I0
F0.625
S'decent'
p389
tp390
a(I78
I1
F1.0
S'good'
p391
tp392
a(I122
I1
F1.0
S'good'
p393
tp394
a(I151
I0
F1.0
S'good'
p395
tp396
as(S'quality'
p397
tp398
(lp399
(I16
I0
F-0.5
S'poor'
p400
tp401
a(I62
I0
F-0.375
S'top'
p402
tp403
a(I62
I2
F1.0
S'good'
p404
tp405
a(I82
I0
I0
S'high'
p406
tp407
as(S'charger'
p408
tp409
(lp410
(I54
I1
I0
S'european'
p411
tp412
a(I54
I1
I0
S'adapter'
p413
tp414
a(I69
I0
I0
S'turkish'
p415
tp416
a(I69
I0
I0
S'adapter'
p417
tp418
a(I128
I3
I0
S'hot'
p419
tp420
as(S'hours'
p421
tp422
(lp423
(I14
I2
I0
S'signal'
p424
tp425
a(I25
I1
F0.125
S'first'
p426
tp427
a(I25
I1
I0
S'few'
p428
tp429
a(I91
I2
F0.625
S'straight'
p430
tp431
as(S'months'
p432
tp433
(lp434
(I3
I4
I0
S'few'
p435
tp436
a(I3
I4
I0
S'later'
p437
tp438
a(I3
I11
I0
S'few'
p439
tp440
a(I15
I0
I0
S'later'
p441
tp442
a(I98
I1
F0.75
S'due'
p443
tp444
a(I98
I1
I0
S'next'
p445
tp446
a(I129
I6
I0
S'least'
p447
tp448
as(S'apps'
p449
tp450
(lp451
(I0
I0
F0.25
S'favorite'
p452
tp453
a(I0
I0
I0
S'android'
p454
tp455
a(I0
I0
I0
S'few'
p456
tp457
a(I17
I1
I0
S'few'
p458
tp459
a(I17
I1
F-0.625
S'other'
p460
tp461
a(I17
I1
F-0.625
S'bad'
p462
tp463
a(I31
I4
I0
S'android'
p464
tp465
a(I31
I4
I0
S'many'
p466
tp467
a(I36
I10
I0
S'many'
p468
tp469
a(I68
I5
I0
S'website'
p470
tp471
a(I68
I5
I0
S'many'
p472
tp473
a(I80
I1
I0
S'great'
p474
tp475
a(I104
I29
I0
S'basic'
p476
tp477
a(I108
I13
I0
S'many'
p478
tp479
a(I108
I13
I0
S'very'
p480
tp481
a(I108
I13
F-0.125
S'slow'
p482
tp483
a(I131
I4
I0
S'useful'
p484
tp485
a(I138
I6
I0
S'most'
p486
tp487
a(I138
I6
F0.125
S'able'
p488
tp489
a(I143
I1
I0
S'e-mail'
p490
tp491
as(S'days'
p492
tp493
(lp494
(I3
I11
I0
S'few'
p495
tp496
a(I3
I11
F1.0
S'best'
p497
tp498
a(I3
I11
F0.875
S'lucky'
p499
tp500
a(I101
I0
F0.125
S'last'
p501
tp502
a(I141
I4
F0.125
S'first'
p503
tp504
a(I146
I0
F0.125
S'first'
p505
tp506
a(I146
I0
I0
S'slower'
p507
tp508
as(S'touch'
p509
S'screen'
p510
tp511
(lp512
(I33
I0
F0.5
g52
tp513
a(I68
I1
F1.0
g56
tp514
a(I73
I0
F0.5
g58
tp515
a(I73
I0
F0.625
g60
tp516
a(I89
I2
F0.5
g64
tp517
a(I89
I2
F0.5
g66
tp518
a(I99
I0
F-0.75
g68
tp519
a(I99
I0
F0.25
g70
tp520
a(I108
I5
F0.5
g74
tp521
as.