(dp0
(S'seller'
p1
tp2
(lp3
(I25
I4
F0.625
S'assertive'
p4
I19
tp5
as(S'happy'
p6
S'with'
p7
S'purchase'
p8
tp9
(lp10
(I3
I18
F0.875
S'happy'
p11
I0
tp12
a(I24
I11
F0.875
S'happy'
p13
I0
tp14
a(I27
I0
F0.875
S'happy'
p15
I0
tp16
a(I39
I8
F0.875
S'happy'
p17
I0
tp18
as(S'iphone'
p19
tp20
(lp21
(I2
I6
F0.375
S'new'
p22
I1
tp23
a(I2
I8
F0.75
S'classic'
p24
I1
tp25
a(I4
I12
F0.125
S'first'
p26
I1
tp27
a(I6
I9
F-0.5
S'less'
p28
I1
tp29
a(I6
I9
F0.25
S'original'
p30
I1
tp31
a(I8
I13
F-0.125
S'overall'
p32
I1
tp33
a(I8
I13
F0.875
S'happy'
p34
I1
tp35
a(I12
I18
F0.25
S'used'
p36
I1
tp37
a(I22
I0
F1.0
S'good'
p38
I1
tp39
a(I31
I8
F1.0
S'love'
p40
I1
tp41
a(I37
I2
F-0.5
S'complaint'
p42
I1
tp43
a(I37
I10
F0.375
S'new'
p44
I1
tp45
a(I39
I1
F-0.5
S'try'
p46
I1
tp47
a(I39
I14
F0.375
S'new'
p48
I1
tp49
a(I40
I0
I0
S'on-line'
p50
I1
tp51
a(I40
I0
F-0.625
S'glad'
p52
I1
tp53
a(I42
I2
F0.25
S'unlocked'
p54
I1
tp55
as(S'unlock'
p56
tp57
(lp58
(I11
I18
I0
S'jailbreak'
p59
I0
tp60
as(S'usb'
p61
S'cable'
p62
tp63
(lp64
(I11
I13
I0
S'cable'
p65
I2
tp66
a(I27
I3
F0.375
S'new'
p67
I2
tp68
a(I27
I3
I0
S'cable'
p69
I2
tp70
as(S'scratches'
p71
S'on'
p72
S'back'
p73
tp74
(lp75
(I8
I7
F0.375
S'new'
p76
I0
tp77
as(S'good'
p78
S'condition'
p79
tp80
(lp81
(I4
I4
F1.0
S'good'
p82
I6
tp83
a(I5
I39
F1.0
S'good'
p84
I6
tp85
a(I5
I39
F0.25
S'repair'
p86
I6
tp87
a(I8
I1
F1.0
S'good'
p88
I6
tp89
a(I11
I22
F1.0
S'good'
p90
I6
tp91
a(I16
I19
F1.0
S'good'
p92
I6
tp93
a(I17
I2
F1.0
S'good'
p94
I6
tp95
a(I26
I8
F1.0
S'good'
p96
I6
tp97
a(I27
I6
F-0.375
S'vary'
p98
I6
tp99
a(I27
I6
F1.0
S'good'
p100
I6
tp101
a(I27
I10
F1.0
S'good'
p102
I6
tp103
a(I27
I10
F0.5
S'incomplete'
p104
I6
tp105
a(I42
I11
F1.0
S'good'
p106
I6
tp107
as(S'wall'
p108
S'charger'
p109
tp110
(lp111
(I25
I12
F-0.625
S'wall'
p112
I1
tp113
a(I25
I12
I0
S'cable'
p114
I1
tp115
a(I27
I3
I0
S'included'
p116
I1
tp117
a(I27
I3
F0.375
S'new'
p118
I1
tp119
as(S'apple'
p120
S'store'
p121
tp122
(lp123
(I29
I23
I0
S'local'
p124
I0
tp125
a(I29
I23
I0
g124
I4
tp126
as(S'sim'
p127
S'card'
p128
tp129
(lp130
(I9
I3
I0
S'different'
p131
I0
tp132
a(I39
I7
F0.375
S'new'
p133
I0
tp134
as(S'amazon'
p135
tp136
(lp137
(I8
I11
I0
S'special'
p138
I13
tp139
a(I19
I25
F0.75
S'due'
p140
I13
tp141
a(I23
I8
F0.375
S'much'
p142
I13
tp143
as(S'otter'
p144
S'box'
p145
tp146
(lp147
(I25
I8
F0.25
S'original'
p148
I0
tp149
as(S'battery'
p150
S'life'
p151
tp152
(lp153
(I24
I2
I0
S'great'
p154
I1
tp155
a(I3
I10
F1.0
S'good'
p156
I15
tp157
a(I16
I10
F1.0
S'good'
p158
I15
tp159
a(I16
I17
F0.125
S'last'
p160
I15
tp161
a(I25
I4
F-0.625
S'bad'
p162
I15
tp163
a(I25
I4
F0.375
S'new'
p164
I15
tp165
a(I25
I6
F0.375
S'new'
p166
I15
tp167
a(I31
I2
F-0.625
S'bad'
p168
I15
tp169
a(I40
I4
F-0.75
S'worse'
p170
I15
tp171
a(I40
I4
F-0.75
S'dead'
p172
I15
tp173
as.