(dp0
(S'battery'
p1
S'life'
p2
tp3
(lp4
(I3
I8
F-0.5
S'complaint'
p5
I1
tp6
a(I3
I8
F-0.25
S'battery'
p7
I1
tp8
a(I4
I9
F1.0
S'good'
p9
I1
tp10
a(I5
I33
F-0.875
S'worst'
p11
I1
tp12
a(I5
I33
F-0.375
S'happen'
p13
I1
tp14
a(I5
I46
F0.25
S'original'
p15
I1
tp16
a(I5
I47
F0.625
S'fair'
p17
I1
tp18
a(I6
I2
F0.375
S'extended'
p19
I1
tp20
a(I7
I12
F-0.75
S'short'
p21
I1
tp22
a(I13
I14
F-0.5
S'weak'
p23
I1
tp24
a(I16
I6
F-0.75
S'short'
p25
I1
tp26
a(I3
I8
F-0.5
g5
I19
tp27
a(I3
I8
F-0.25
g7
I19
tp28
a(I13
I14
F-0.5
g23
I19
tp29
a(I22
I22
F0.375
S'extended'
p30
I19
tp31
a(I1
I32
F1.0
S'good'
p32
I15
tp33
a(I3
I10
F0.375
S'new'
p34
I15
tp35
a(I3
I22
I0
S'generic'
p36
I15
tp37
a(I4
I9
F1.0
g9
I15
tp38
a(I5
I33
F-0.875
g11
I15
tp39
a(I5
I33
F-0.375
g13
I15
tp40
a(I5
I46
F0.25
g15
I15
tp41
a(I5
I47
F0.625
g17
I15
tp42
a(I5
I52
F-0.25
S'low'
p43
I15
tp44
a(I5
I55
F-0.25
S'low'
p45
I15
tp46
a(I5
I56
F-0.25
S'low'
p47
I15
tp48
a(I5
I56
F-0.25
S'low'
p49
I15
tp50
a(I5
I56
F1.0
S'good'
p51
I15
tp52
a(I5
I84
F0.125
S'last'
p53
I15
tp54
a(I6
I2
F0.375
g19
I15
tp55
a(I7
I12
F-0.75
g21
I15
tp56
a(I11
I9
F0.25
S'changed'
p57
I15
tp58
a(I11
I9
F0.375
S'new'
p59
I15
tp60
a(I15
I11
F0.375
S'new'
p61
I15
tp62
a(I16
I6
F-0.75
g25
I15
tp63
a(I16
I12
F0.375
S'new'
p64
I15
tp65
a(I16
I17
I0
S'wish'
p66
I15
tp67
a(I26
I7
F0.75
S'due'
p68
I15
tp69
as(S'customer'
p70
S'service'
p71
tp72
(lp73
(I23
I15
F-0.5
S'hassle'
p74
I3
tp75
a(I11
I13
I0
S'great'
p76
I16
tp77
a(I11
I13
I0
S'more'
p78
I16
tp79
a(I12
I0
I0
S'great'
p80
I16
tp81
a(I12
I0
I0
S'great'
p82
I16
tp83
a(I23
I15
F-0.5
g74
I16
tp84
a(I27
I3
F1.0
S'good'
p85
I16
tp86
as(S'verizon'
p87
tp88
(lp89
(I5
I6
I0
S'old'
p90
I0
tp91
a(I11
I20
I0
S'different'
p92
I0
tp93
as(S'casio'
p94
tp95
(lp96
(I10
I4
F0.875
S'happy'
p97
I11
tp98
a(I11
I1
I0
S'old'
p99
I11
tp100
a(I15
I0
F0.5
S'second'
p101
I11
tp102
a(I15
I3
I0
S'same'
p103
I11
tp104
as(S'speaker'
p105
tp106
(lp107
(I0
I2
F-0.375
S'daily'
p108
I8
tp109
a(I0
I2
I0
S'full'
p110
I8
tp111
a(I0
I2
F-0.375
S'static'
p112
I8
tp113
a(I16
I24
F-0.375
S'small'
p114
I8
tp115
a(I16
I24
F-0.75
S'little'
p116
I8
tp117
a(I18
I22
I0
S'great'
p118
I8
tp119
a(I18
I25
F-0.625
S'other'
p120
I8
tp121
a(I23
I10
F0.125
S'smile'
p122
I8
tp123
a(I27
I15
F-0.875
S'hard'
p124
I8
tp125
as.