(dp0
(S'live'
p1
S'advisor'
p2
tp3
(lp4
(I7
I35
F0.375
S'new'
p5
I0
tp6
a(I7
I36
F-0.5
S'sure'
p7
I0
tp8
a(I7
I36
F0.5
S'live'
p9
I0
tp10
as(S'memory'
p11
S'card'
p12
tp13
(lp14
(I7
I64
F0.875
S'music'
p15
I0
tp16
as(S'battery'
p17
S'life'
p18
tp19
(lp20
(I1
I32
F-0.5
S'long'
p21
I1
tp22
a(I3
I99
F1.0
S'good'
p23
I1
tp24
a(I4
I68
F1.0
S'good'
p25
I1
tp26
a(I5
I7
F1.0
S'good'
p27
I1
tp28
a(I1
I60
I0
S'more'
p29
I19
tp30
a(I1
I60
F0.625
S'aware'
p31
I19
tp32
a(I1
I60
F-0.5
S'actual'
p33
I19
tp34
a(I3
I99
F1.0
g23
I19
tp35
a(I1
I14
I0
S'great'
p36
I15
tp37
a(I1
I32
F-0.5
g21
I15
tp38
a(I1
I75
F0.125
S'last'
p39
I15
tp40
a(I4
I68
F1.0
g25
I15
tp41
a(I5
I7
F1.0
g27
I15
tp42
as(S'calls'
p43
tp44
(lp45
(I6
I4
I0
S'few'
p46
I0
tp47
a(I6
I4
F-0.5
S'international'
p48
I0
tp49
as(S'internet'
p50
tp51
(lp52
(I3
I100
I0
S'text'
p53
I6
tp54
as(S'right'
p55
S'away'
p56
tp57
(lp58
(I10
I0
F0.625
S'right'
p59
I7
tp60
as(S'text'
p61
tp62
(lp63
(I3
I49
F1.0
S'good'
p64
I18
tp65
as(S'usb'
p66
S'cable'
p67
tp68
(lp69
(I4
I69
I0
S'included'
p70
I2
tp71
as(S'volume'
p72
S'control'
p73
tp74
(lp75
(I7
I45
F-0.5
S'poor'
p76
I0
tp77
a(I7
I48
I0
S'different'
p78
I0
tp79
as(S'nokia'
p80
tp81
(lp82
(I0
I0
I0
S'old'
p83
I0
tp84
a(I1
I8
F-0.625
S'other'
p85
I0
tp86
a(I1
I9
I0
S'old'
p87
I0
tp88
a(I3
I10
F-0.625
S'glad'
p89
I0
tp90
a(I3
I34
F-0.625
S'other'
p91
I0
tp92
a(I3
I80
F0.875
S'happy'
p93
I0
tp94
a(I3
I81
F-0.125
S'super'
p95
I0
tp96
a(I3
I84
F0.375
S'much'
p97
I0
tp98
a(I6
I12
F0.125
S'usual'
p99
I0
tp100
a(I7
I5
F0.125
S'typical'
p101
I0
tp102
a(I7
I6
F0.625
S'easy'
p103
I0
tp104
a(I7
I6
I0
S'next'
p105
I0
tp106
a(I7
I9
F-0.625
S'other'
p107
I0
tp108
a(I7
I18
F0.375
S'new'
p109
I0
tp110
a(I8
I3
I0
S'cellular'
p111
I0
tp112
a(I9
I3
F0.625
S'perfect'
p113
I0
tp114
a(I12
I24
F0.5
S'told'
p115
I0
tp116
as(S'media'
p117
S'player'
p118
tp119
(lp120
(I3
I22
F-0.25
S'direct'
p121
I0
tp122
as(S'sim'
p123
S'card'
p124
tp125
(lp126
(I5
I4
F0.125
S'able'
p127
I0
tp128
a(I6
I0
I0
S'different'
p129
I0
tp130
a(I6
I3
I0
S'different'
p131
I0
tp132
a(I6
I12
I0
S'different'
p133
I0
tp134
a(I7
I64
F0.875
g15
I0
tp135
as(S'old'
p136
S'school'
p137
tp138
(lp139
(I4
I9
I0
S'old'
p140
I0
tp141
a(I4
I14
I0
S'old'
p142
I0
tp143
a(I7
I25
I0
S'old'
p144
I0
tp145
as(S'camera'
p146
tp147
(lp148
(I1
I77
F1.0
S'good'
p149
I1
tp150
a(I3
I8
I0
S'great'
p151
I1
tp152
a(I5
I2
F-0.625
S'average'
p153
I1
tp154
a(I6
I3
F0.625
S'decent'
p155
I1
tp156
a(I7
I7
I0
S'such'
p157
I1
tp158
a(I7
I7
I0
S'great'
p159
I1
tp160
as(S'sim'
p161
S'cards'
p162
tp163
(lp164
(I6
I0
I0
g129
I0
tp165
a(I6
I3
I0
g131
I0
tp166
as(S'music'
p167
tp168
(lp169
(I5
I23
F0.5
S'clear'
p170
I0
tp171
as.