(dp0
(S'require'
p1
S'a'
p2
S'data'
p3
tp4
(lp5
(I115
I2
F0.625
S'easy'
p6
tp7
as(S'something'
p8
tp9
(lp10
(I57
I1
F-0.5
S'sure'
p11
tp12
a(I153
I1
F-0.75
S'wrong'
p13
tp14
a(I287
I2
F1.0
S'good'
p15
tp16
a(I287
I2
F1.0
S'better'
p17
tp18
a(I385
I28
F-0.5
S'less'
p19
tp20
as(S'purchase'
p21
tp22
(lp23
(I2
I3
F0.875
S'happy'
p24
tp25
a(I3
I3
F0.25
S'favorite'
p26
tp27
a(I21
I1
F0.875
S'happy'
p28
tp29
a(I58
I1
F0.875
S'lucky'
p30
tp31
a(I73
I0
F0.875
S'happy'
p32
tp33
a(I214
I0
F1.0
S'good'
p34
tp35
a(I382
I0
F1.0
S'good'
p36
tp37
a(I394
I0
I0
S'more'
p38
tp39
a(I397
I2
I0
S'great'
p40
tp41
as(S'keyboard'
p42
tp43
(lp44
(I0
I6
I0
S'great'
p45
tp46
a(I7
I0
F-0.5
S'open'
p47
tp48
a(I28
I1
F0.625
S'easy'
p49
tp50
a(I43
I11
F0.625
S'easy'
p51
tp52
a(I43
I11
F-0.625
S'other'
p53
tp54
a(I43
I11
F-0.875
S'bother'
p55
tp56
a(I46
I4
I0
S'full'
p57
tp58
a(I46
I4
F-0.625
S'glad'
p59
tp60
a(I46
I8
I0
S'full'
p61
tp62
a(I46
I8
I0
S'physical'
p63
tp64
a(I46
I12
I0
S'touchscreen'
p65
tp66
a(I80
I1
I0
S'great'
p67
tp68
a(I106
I3
F0.875
S'nice'
p69
tp70
a(I122
I3
F0.625
S'easy'
p71
tp72
a(I137
I2
I0
S'full'
p73
tp74
a(I158
I0
I0
S'great'
p75
tp76
a(I173
I4
F-0.375
S'simple'
p77
tp78
a(I200
I5
I0
S'large'
p79
tp80
a(I201
I0
F-0.375
S'small'
p81
tp82
a(I240
I6
F0.25
S'larger'
p83
tp84
a(I241
I3
I0
S'physical'
p85
tp86
a(I241
I4
F1.0
S'best'
p87
tp88
a(I249
I2
I0
S'great'
p89
tp90
a(I269
I3
I0
S'handy'
p91
tp92
a(I269
I3
F0.625
S'easy'
p93
tp94
a(I277
I18
I0
S'touchscreen'
p95
tp96
a(I287
I0
F0.25
S'bigger'
p97
tp98
a(I304
I0
F1.0
S'good'
p99
tp100
a(I370
I2
I0
S'physical'
p101
tp102
a(I405
I5
F1.0
S'good'
p103
tp104
as(S'txt'
p105
S'messages'
p106
tp107
(lp108
(I230
I1
I0
S'many'
p109
tp110
a(I230
I3
I0
S'empty'
p111
tp112
as(S'nice'
p113
tp114
(lp115
(I350
I0
F0.125
S'able'
p116
tp117
as(S'touch'
p118
tp119
(lp120
(I0
I4
I0
S'resistive'
p121
tp122
a(I12
I2
F-0.625
S'bad'
p123
tp124
a(I14
I5
I0
S'old'
p125
tp126
a(I43
I0
F0.125
S'first'
p127
tp128
a(I46
I9
F0.25
S'main'
p129
tp130
a(I80
I1
F0.25
S'effective'
p131
tp132
a(I91
I8
F-0.5
S'sure'
p133
tp134
a(I137
I8
I0
S'great'
p135
tp136
a(I152
I6
I0
S'great'
p137
tp138
a(I175
I4
F-0.75
S'unresponsive'
p139
tp140
a(I191
I0
F1.0
S'good'
p141
tp142
a(I241
I0
I0
S'primitive'
p143
tp144
a(I259
I0
F1.0
S'good'
p145
tp146
a(I283
I4
F0.125
S'first'
p147
tp148
a(I324
I0
F0.875
S'nice'
p149
tp150
a(I331
I0
F0.125
S'first'
p151
tp152
a(I339
I0
F0.875
S'nice'
p153
tp154
a(I369
I5
I0
S'next'
p155
tp156
a(I369
I5
I0
S'different'
p157
tp158
as(S'battery'
p159
S'life'
p160
tp161
(lp162
(I12
I2
F-0.625
S'bad'
p163
tp164
a(I143
I1
I0
S'adequate'
p165
tp166
a(I143
I1
F0.125
S'spectacular'
p167
tp168
a(I175
I5
F0.625
S'decent'
p169
tp170
a(I187
I13
F0.375
S'much'
p171
tp172
a(I209
I2
F0.125
S'able'
p173
tp174
a(I214
I0
I0
S'great'
p175
tp176
a(I228
I6
F-0.75
S'short'
p177
tp178
a(I250
I2
I0
S'great'
p179
tp180
a(I250
I2
I0
S'great'
p181
tp182
a(I298
I1
F-0.75
S'short'
p183
tp184
a(I332
I1
F0.125
S'last'
p185
tp186
a(I332
I1
F-0.5
S'long'
p187
tp188
a(I361
I0
F1.0
S'good'
p189
tp190
a(I370
I3
F1.0
S'good'
p191
tp192
a(I425
I2
F-0.75
S'short'
p193
tp194
as(S'years'
p195
tp196
(lp197
(I13
I1
I0
S'close'
p198
tp199
a(I58
I0
F0.25
S'renew'
p200
tp201
a(I131
I6
F-0.625
S'light'
p202
tp203
a(I264
I1
I0
S'least'
p204
tp205
a(I264
I1
I0
S'contract'
p206
tp207
a(I283
I8
I0
S'full'
p208
tp209
as(S'lg'
p210
S'env'
p211
tp212
(lp213
(I137
I6
I0
S'old'
p214
tp215
a(I337
I0
I0
S'old'
p216
tp217
as(S'verizon'
p218
tp219
(lp220
(I54
I5
F0.125
S'first'
p221
tp222
a(I54
I5
F0.125
S'last'
p223
tp224
a(I55
I1
F0.625
S'straight'
p225
tp226
a(I71
I0
F-0.375
S'nearest'
p227
tp228
a(I71
I3
I0
S'closest'
p229
tp230
a(I113
I0
I0
S'local'
p231
tp232
a(I116
I8
F0.375
S'new'
p233
tp234
a(I136
I3
I0
S'anymore'
p235
tp236
a(I144
I1
F0.125
S'able'
p237
tp238
a(I228
I1
F0.25
S'original'
p239
tp240
a(I236
I1
F0.125
S'first'
p241
tp242
a(I296
I0
I0
S'local'
p243
tp244
a(I357
I1
I0
S'website'
p245
tp246
a(I357
I2
F-0.5
S'actual'
p247
tp248
a(I363
I2
F-0.25
S'cheaper'
p249
tp250
a(I365
I22
F0.25
S'used'
p251
tp252
a(I385
I3
I0
S'local'
p253
tp254
a(I385
I8
I0
S'different'
p255
tp256
a(I399
I7
F-0.5
S'sure'
p257
tp258
a(I427
I0
F0.625
S'easy'
p259
tp260
as(S'sd'
p261
S'card'
p262
tp263
(lp264
(I91
I12
F0.625
S'removable'
p265
tp266
as(S'contract'
p267
tp268
(lp269
(I372
I2
F0.375
S'new'
p270
tp271
a(I385
I21
F0.125
S'renewal'
p272
tp273
as(S'ever'
p274
tp275
(lp276
(I91
I2
F0.125
S'first'
p277
tp278
as(S'charge'
p279
tp280
(lp281
(I15
I0
F0.625
S'fair'
p282
tp283
a(I57
I5
F-0.625
S'free'
p284
tp285
a(I74
I0
F1.0
S'good'
p286
tp287
a(I169
I3
I0
S'full'
p288
tp289
a(I174
I0
I0
S'full'
p290
tp291
a(I174
I0
F-0.25
S'plugged'
p292
tp293
a(I213
I0
I0
S'more'
p294
tp295
a(I262
I0
F0.125
S'last'
p296
tp297
a(I262
I1
F0.125
S'last'
p298
tp299
a(I266
I2
I0
S'full'
p300
tp301
a(I357
I4
I0
S'full'
p302
tp303
a(I381
I5
I0
S'full'
p304
tp305
a(I381
I6
F0.375
S'complete'
p306
tp307
a(I402
I2
F-0.5
S'longer'
p308
tp309
a(I421
I1
I0
S'more'
p310
tp311
as(S'arrived'
p312
S'on'
p313
S'time'
p314
tp315
(lp316
(I253
I0
F-0.5
S'long'
p317
tp318
as(S'love'
p319
tp320
(lp321
(I48
I1
F1.0
S'love'
p322
tp323
a(I384
I0
I0
S'tech'
p324
tp325
as(S'env'
p326
S'touch'
p327
S'vx11000'
p328
tp329
(lp330
(I213
I0
F0.125
S'first'
p331
tp332
as(S'customer'
p333
S'service'
p334
tp335
(lp336
(I2
I2
F1.0
S'good'
p337
tp338
a(I432
I0
F1.0
S'good'
p339
tp340
as(S'sometimes'
p341
tp342
(lp343
(I282
I0
F-0.875
S'hard'
p344
tp345
as(S'no'
p346
S'data'
p347
S'plan'
p348
tp349
(lp350
(I274
I2
I0
S'monthly'
p351
tp352
a(I387
I7
F0.375
S'extra'
p353
tp354
a(I403
I5
F-0.5
S'miss'
p355
tp356
a(I403
I18
F0.5
S'expensive'
p357
tp358
as(S'times'
p359
tp360
(lp361
(I91
I1
F0.5
S'second'
p362
tp363
a(I91
I1
F0.125
S'first'
p364
tp365
a(I91
I1
I0
S'many'
p366
tp367
a(I98
I1
I0
S'multiple'
p368
tp369
a(I98
I5
I0
S'many'
p370
tp371
a(I119
I1
F0.625
S'acceptable'
p372
tp373
a(I188
I5
I0
S'least'
p374
tp375
a(I315
I0
F1.0
S'better'
p376
tp377
a(I316
I1
I0
S'few'
p378
tp379
a(I385
I33
I0
S'many'
p380
tp381
a(I385
I33
I0
S'many'
p382
tp383
a(I409
I2
I0
S'many'
p384
tp385
a(I430
I0
I0
S'few'
p386
tp387
as(S'problem'
p388
tp389
(lp390
(I40
I1
F-0.625
S'other'
p391
tp392
a(I40
I1
F0.625
S'major'
p393
tp394
a(I71
I3
I0
S'same'
p395
tp396
a(I94
I1
I0
S'only'
p397
tp398
a(I173
I2
F0.375
S'much'
p399
tp400
a(I266
I2
I0
S'only'
p401
tp402
a(I282
I0
I0
S'only'
p403
tp404
a(I309
I1
I0
S'only'
p405
tp406
a(I322
I14
I0
S'only'
p407
tp408
a(I357
I3
F-0.75
S'little'
p409
tp410
a(I363
I0
F-0.75
S'single'
p411
tp412
a(I363
I0
F0.625
S'easy'
p413
tp414
a(I409
I5
I0
S'only'
p415
tp416
a(I411
I1
F-0.375
S'small'
p417
tp418
as(S'money'
p419
tp420
(lp421
(I36
I2
I0
S'more'
p422
tp423
a(I58
I4
F0.375
S'extra'
p424
tp425
a(I59
I2
F0.75
S'worth'
p426
tp427
a(I307
I9
F0.75
S'worth'
p428
tp429
a(I409
I6
F0.375
S'extra'
p430
tp431
a(I415
I0
F0.75
S'worth'
p432
tp433
a(I423
I5
F0.75
S'worth'
p434
tp435
as(S'micro'
p436
S'sd'
p437
tp438
(lp439
(I241
I2
F-0.5
S'long'
p440
tp441
as(S'happy'
p442
tp443
(lp444
(I238
I0
F-0.125
S'super'
p445
tp446
a(I238
I0
I0
S'fast'
p447
tp448
a(I238
I0
I0
S'fast'
p449
tp450
as(S'price'
p451
tp452
(lp453
(I21
I1
I0
S'great'
p454
tp455
a(I70
I0
F-0.25
S'higher'
p456
tp457
a(I116
I14
F0.375
S'new'
p458
tp459
a(I135
I1
I0
S'great'
p460
tp461
a(I137
I3
F0.5
S'reasonable'
p462
tp463
a(I153
I0
I0
S'great'
p464
tp465
a(I156
I0
F0.5
S'satisfied'
p466
tp467
a(I157
I1
I0
S'high'
p468
tp469
a(I174
I1
I0
S'great'
p470
tp471
a(I186
I1
I0
S'same'
p472
tp473
a(I231
I5
F-0.625
S'other'
p474
tp475
a(I267
I1
I0
S'more'
p476
tp477
a(I335
I0
F1.0
S'good'
p478
tp479
a(I370
I3
I0
S'great'
p480
tp481
a(I385
I10
I0
S'full'
p482
tp483
as(S'service'
p484
tp485
(lp486
(I2
I2
F1.0
g337
tp487
a(I167
I0
F0.875
S'happy'
p488
tp489
a(I198
I0
F0.625
S'perfect'
p490
tp491
a(I212
I0
I0
S'great'
p492
tp493
a(I377
I9
F1.0
S'good'
p494
tp495
a(I391
I0
I0
S'fast'
p496
tp497
a(I431
I2
I0
S'great'
p498
tp499
as(S'getting'
p500
tp501
(lp502
(I136
I2
F0.625
S'interested'
p503
tp504
as(S'product'
p505
tp506
(lp507
(I59
I2
F-0.25
S'disappointed'
p508
tp509
a(I167
I1
F0.125
S'first'
p510
tp511
a(I167
I1
F0.5
S'second'
p512
tp513
a(I200
I3
F0.25
S'used'
p514
tp515
a(I200
I7
F-0.125
S'overall'
p516
tp517
a(I202
I0
F-0.875
S'unhappy'
p518
tp519
a(I210
I0
F0.375
S'new'
p520
tp521
a(I279
I0
F0.875
S'happy'
p522
tp523
a(I380
I0
I0
S'great'
p524
tp525
a(I380
I0
I0
S'along'
p526
tp527
as(S'times'
p528
g2
S'day'
p529
tp530
(lp531
(I188
I5
I0
g374
tp532
as(S'features'
p533
tp534
(lp535
(I14
I4
F-0.625
S'other'
p536
tp537
a(I46
I1
F0.625
S'necessary'
p538
tp539
a(I73
I2
F0.25
S'favorite'
p540
tp541
a(I175
I6
I0
S'close'
p542
tp543
a(I254
I0
I0
S'many'
p544
tp545
a(I324
I2
F0.625
S'easy'
p546
tp547
a(I339
I0
I0
S'great'
p548
tp549
a(I350
I2
F0.625
S'decent'
p550
tp551
a(I416
I0
I0
S'great'
p552
tp553
as(S'hold'
p554
g2
S'charge'
p555
tp556
(lp557
(I15
I0
F0.625
g282
tp558
a(I74
I0
F1.0
g286
tp559
a(I169
I3
I0
g288
tp560
a(I213
I0
I0
g294
tp561
a(I357
I4
I0
g302
tp562
a(I402
I2
F-0.5
g308
tp563
a(I421
I1
I0
g310
tp564
as(S'data'
p565
S'package'
p566
tp567
(lp568
(I115
I2
F0.625
g6
tp569
as(S'touch'
p570
S'screen'
p571
S'works'
p572
tp573
(lp574
(I14
I5
I0
g125
tp575
a(I14
I5
I0
S'sensitive'
p576
tp577
a(I16
I2
I0
S'great'
p578
tp579
a(I111
I9
F0.5
S'touch'
p580
tp581
a(I111
I9
I0
S'least'
p582
tp583
a(I146
I3
F0.875
S'nice'
p584
tp585
a(I172
I4
F0.5
S'touch'
p586
tp587
a(I269
I4
F1.0
S'good'
p588
tp589
a(I336
I0
F0.5
S'touch'
p590
tp591
a(I337
I2
F0.5
S'touch'
p592
tp593
a(I337
I2
I0
S'sensitive'
p594
tp595
as(S'month'
p596
tp597
(lp598
(I63
I2
F-0.5
S'less'
p599
tp600
a(I277
I10
I0
S'next'
p601
tp602
as(S'on'
p603
S'touch'
p604
S'screen'
p605
tp606
(lp607
(I0
I4
I0
g121
tp608
a(I12
I2
F-0.625
g123
tp609
a(I13
I6
I0
S'crisp'
p610
tp611
a(I13
I6
F0.5
S'clear'
p612
tp613
a(I16
I1
F0.5
S'touch'
p614
tp615
a(I19
I7
F0.5
S'touch'
p616
tp617
a(I22
I0
F0.5
S'touch'
p618
tp619
a(I22
I0
F-0.5
S'weak'
p620
tp621
a(I27
I0
F0.5
S'touch'
p622
tp623
a(I30
I2
F0.5
S'touch'
p624
tp625
a(I30
I8
F0.5
S'touch'
p626
tp627
a(I32
I1
F0.5
S'touch'
p628
tp629
a(I40
I0
F0.5
S'touch'
p630
tp631
a(I40
I1
F0.5
S'touch'
p632
tp633
a(I40
I1
F0.875
S'important'
p634
tp635
a(I43
I0
F0.125
g127
tp636
a(I46
I7
F0.5
S'touch'
p637
tp638
a(I46
I9
F0.25
g129
tp639
a(I74
I0
F0.5
S'touch'
p640
tp641
a(I80
I1
F0.25
g131
tp642
a(I91
I11
F0.5
S'touch'
p643
tp644
a(I95
I4
F0.5
S'touch'
p645
tp646
a(I111
I9
F0.5
g580
tp647
a(I111
I9
I0
g582
tp648
a(I117
I0
F0.5
S'touch'
p649
tp650
a(I123
I1
F0.5
S'touch'
p651
tp652
a(I137
I17
F0.5
S'touch'
p653
tp654
a(I143
I3
F0.5
S'touch'
p655
tp656
a(I143
I4
F0.5
S'touch'
p657
tp658
a(I152
I6
I0
g137
tp659
a(I152
I6
F0.5
S'touch'
p660
tp661
a(I159
I0
F0.5
S'touch'
p662
tp663
a(I160
I11
F0.5
S'touch'
p664
tp665
a(I160
I12
F0.5
S'touch'
p666
tp667
a(I172
I2
F0.5
S'touch'
p668
tp669
a(I175
I4
F-0.75
g139
tp670
a(I183
I0
F1.0
S'good'
p671
tp672
a(I183
I0
F0.5
S'touch'
p673
tp674
a(I183
I0
F0.625
S'easy'
p675
tp676
a(I188
I3
F0.5
S'touch'
p677
tp678
a(I193
I0
F0.5
S'touch'
p679
tp680
a(I198
I1
F0.5
S'touch'
p681
tp682
a(I198
I11
F0.5
S'touch'
p683
tp684
a(I241
I0
I0
g143
tp685
a(I241
I1
F0.5
S'touch'
p686
tp687
a(I254
I1
F0.5
S'touch'
p688
tp689
a(I264
I0
F0.5
S'touch'
p690
tp691
a(I264
I0
F-0.625
S'other'
p692
tp693
a(I278
I1
F0.5
S'touch'
p694
tp695
a(I291
I0
F0.5
S'touch'
p696
tp697
a(I302
I2
F0.5
S'touch'
p698
tp699
a(I309
I1
F0.75
S'due'
p700
tp701
a(I309
I1
I0
S'sensitive'
p702
tp703
a(I322
I5
F0.5
S'touch'
p704
tp705
a(I324
I0
F0.875
g149
tp706
a(I324
I0
I0
S'external'
p707
tp708
a(I336
I0
F0.5
g590
tp709
a(I337
I2
F0.5
g592
tp710
a(I339
I0
F0.875
g153
tp711
a(I369
I3
F0.125
S'able'
p712
tp713
a(I369
I3
F0.5
S'touch'
p714
tp715
a(I369
I5
I0
g155
tp716
a(I369
I5
I0
g157
tp717
a(I379
I0
F0.5
S'touch'
p718
tp719
a(I385
I26
F-0.75
S'impossible'
p720
tp721
a(I387
I0
F0.5
S'touch'
p722
tp723
a(I390
I0
F0.5
S'touch'
p724
tp725
a(I390
I0
F0.5
S'touch'
p726
tp727
a(I399
I6
F0.5
S'touch'
p728
tp729
a(I414
I1
F0.5
S'touch'
p730
tp731
a(I424
I0
F0.5
S'touch'
p732
tp733
a(I424
I2
F-0.375
S'black'
p734
tp735
a(I425
I0
F0.5
S'touch'
p736
tp737
a(I425
I3
F0.5
S'touch'
p738
tp739
as(S'good'
p740
S'condition'
p741
tp742
(lp743
(I15
I0
F1.0
S'good'
p744
tp745
a(I25
I0
F1.0
S'good'
p746
tp747
a(I35
I2
F1.0
S'good'
p748
tp749
a(I35
I4
F1.0
S'good'
p750
tp751
a(I132
I0
F1.0
S'good'
p752
tp753
a(I253
I0
F1.0
S'good'
p754
tp755
a(I265
I2
F1.0
S'good'
p756
tp757
a(I267
I0
F1.0
S'good'
p758
tp759
a(I284
I8
F1.0
S'good'
p760
tp761
a(I308
I1
F1.0
S'good'
p762
tp763
a(I308
I1
F0.375
S'new'
p764
tp765
a(I317
I1
F1.0
S'good'
p766
tp767
as(S'new'
p768
S'n'
p769
S'box'
p770
tp771
(lp772
(I89
I1
F0.375
S'new'
p773
tp774
a(I115
I1
F0.375
S'new'
p775
tp776
a(I260
I0
F0.375
S'new'
p777
tp778
as(S'replacement'
p779
tp780
(lp781
(I137
I23
I0
S'cool'
p782
tp783
a(I401
I1
F-0.5
S'complaint'
p784
tp785
as(S'thing'
p786
tp787
(lp788
(I43
I7
F0.125
S'first'
p789
tp790
a(I51
I2
F-0.625
S'bad'
p791
tp792
a(I58
I4
F0.875
S'important'
p793
tp794
a(I91
I12
F-0.875
S'negative'
p795
tp796
a(I95
I7
F0.5
S'possible'
p797
tp798
a(I123
I1
I0
S'only'
p799
tp800
a(I124
I2
I0
S'only'
p801
tp802
a(I124
I2
I0
S'keyboard'
p803
tp804
a(I124
I2
F0.875
S'nice'
p805
tp806
a(I160
I1
I0
S'next'
p807
tp808
a(I160
I1
I0
S'big'
p809
tp810
a(I189
I1
I0
S'same'
p811
tp812
a(I246
I0
I0
S'same'
p813
tp814
a(I246
I0
I0
S'old'
p815
tp816
a(I246
I0
F0.75
S'wonder'
p817
tp818
a(I246
I0
F0.375
S'new'
p819
tp820
a(I314
I4
I0
S'same'
p821
tp822
a(I314
I4
F0.125
S'last'
p823
tp824
a(I345
I12
I0
S'only'
p825
tp826
a(I345
I12
F1.0
S'good'
p827
tp828
a(I365
I23
I0
S'same'
p829
tp830
a(I387
I2
F0.5
S'rid'
p831
tp832
a(I399
I6
I0
S'only'
p833
tp834
as(S'mp3'
p835
S'player'
p836
tp837
(lp838
(I91
I12
I0
S'great'
p839
tp840
a(I351
I1
I0
S'great'
p841
tp842
as(S'data'
p843
tp844
(lp845
(I14
I3
I0
S'monthly'
p846
tp847
a(I28
I0
F0.625
S'easy'
p848
tp849
a(I34
I1
F0.375
S'worked'
p850
tp851
a(I46
I1
I0
S'most'
p852
tp853
a(I115
I2
F0.625
g6
tp854
a(I274
I2
I0
g351
tp855
a(I339
I0
F0.5
S'expensive'
p856
tp857
a(I381
I3
I0
S'dormant'
p858
tp859
a(I387
I7
F0.375
g353
tp860
a(I403
I5
F-0.5
g355
tp861
a(I403
I18
F0.5
g357
tp862
as(g2
S'data'
p863
S'plan'
p864
tp865
(lp866
(I55
I1
I0
S'more'
p867
tp868
a(I274
I2
I0
g351
tp869
a(I339
I0
F0.5
g856
tp870
a(I387
I7
F0.375
g353
tp871
a(I403
I5
F-0.5
g355
tp872
a(I403
I18
F0.5
g357
tp873
as(S'condition'
p874
tp875
(lp876
(I15
I0
F1.0
g744
tp877
a(I25
I0
F1.0
g746
tp878
a(I35
I2
F1.0
g748
tp879
a(I35
I4
F1.0
g750
tp880
a(I101
I0
I0
S'great'
p881
tp882
a(I132
I0
F1.0
g752
tp883
a(I151
I7
I0
S'great'
p884
tp885
a(I184
I0
F0.375
S'new'
p886
tp887
a(I253
I0
F1.0
g754
tp888
a(I265
I2
F1.0
g756
tp889
a(I267
I0
F1.0
g758
tp890
a(I284
I8
F1.0
g760
tp891
a(I308
I1
F1.0
g762
tp892
a(I308
I1
F0.375
g764
tp893
a(I317
I1
F1.0
g766
tp894
a(I357
I4
I0
S'great'
p895
tp896
a(I403
I10
F-0.875
S'unhappy'
p897
tp898
a(I403
I11
F0.375
S'new'
p899
tp900
a(I403
I11
F0.375
S'new'
p901
tp902
a(I411
I1
I0
S'great'
p903
tp904
as(S'work'
p905
tp906
(lp907
(I111
I2
F0.125
S'first'
p908
tp909
a(I168
I5
F-0.625
S'push'
p910
tp911
as(S'touch'
p912
S'screen'
p913
S'has'
p914
tp915
(lp916
(I13
I6
I0
g610
tp917
a(I13
I6
F0.5
g612
tp918
a(I19
I7
F0.5
g616
tp919
a(I43
I0
F0.125
g127
tp920
a(I183
I0
F1.0
g671
tp921
a(I183
I0
F0.5
g673
tp922
a(I183
I0
F0.625
g675
tp923
a(I198
I11
F0.5
g683
tp924
a(I253
I0
F0.375
S'new'
p925
tp926
a(I254
I1
F0.5
g688
tp927
a(I264
I0
F0.5
g690
tp928
a(I264
I0
F-0.625
g692
tp929
a(I322
I5
F0.5
g704
tp930
a(I336
I0
F0.5
g590
tp931
as(S'and'
p932
S'touch'
p933
S'screen'
p934
tp935
(lp936
(I12
I2
F-0.625
g123
tp937
a(I13
I6
I0
g610
tp938
a(I13
I6
F0.5
g612
tp939
a(I14
I5
I0
g125
tp940
a(I14
I5
I0
g576
tp941
a(I19
I5
I0
S'internal'
p942
tp943
a(I19
I7
F0.5
g616
tp944
a(I22
I0
F0.5
g618
tp945
a(I22
I0
F-0.5
g620
tp946
a(I30
I2
F0.5
g624
tp947
a(I30
I8
F0.5
g626
tp948
a(I32
I1
F0.5
g628
tp949
a(I46
I7
F0.5
g637
tp950
a(I46
I9
F0.25
g129
tp951
a(I74
I0
F0.5
g640
tp952
a(I80
I1
F0.25
g131
tp953
a(I91
I7
F0.5
S'touch'
p954
tp955
a(I91
I11
F0.5
g643
tp956
a(I96
I2
F0.5
S'touch'
p957
tp958
a(I152
I6
I0
g137
tp959
a(I152
I6
F0.5
g660
tp960
a(I159
I0
F0.5
g662
tp961
a(I175
I4
F-0.75
g139
tp962
a(I183
I0
F1.0
g671
tp963
a(I183
I0
F0.5
g673
tp964
a(I183
I0
F0.625
g675
tp965
a(I193
I0
F0.5
g679
tp966
a(I198
I1
F0.5
g681
tp967
a(I241
I0
I0
g143
tp968
a(I241
I1
F0.5
g686
tp969
a(I291
I0
F0.5
g696
tp970
a(I322
I5
F0.5
g704
tp971
a(I336
I0
F0.5
g590
tp972
a(I337
I2
F0.5
g592
tp973
a(I369
I3
F0.125
g712
tp974
a(I369
I3
F0.5
g714
tp975
a(I369
I5
I0
g155
tp976
a(I369
I5
I0
g157
tp977
a(I375
I2
F0.875
S'nice'
p978
tp979
a(I379
I0
F0.5
g718
tp980
a(I409
I4
I0
S'great'
p981
tp982
a(I424
I2
F-0.375
g734
tp983
a(I425
I0
F0.5
g736
tp984
as(S'qwerty'
p985
S'keyboard'
p986
tp987
(lp988
(I43
I11
F0.625
g51
tp989
a(I43
I11
F-0.625
g53
tp990
a(I43
I11
F-0.875
g55
tp991
a(I143
I0
I0
S'internal'
p992
tp993
a(I213
I0
F1.0
S'best'
p994
tp995
a(I213
I0
I0
S'physical'
p996
tp997
a(I255
I3
I0
S'hinged'
p998
tp999
as(S'piece'
p1000
S'of'
p1001
S'junk'
p1002
tp1003
(lp1004
(I119
I2
F0.375
S'much'
p1005
tp1006
as(S'to'
p1007
S'verizon'
p1008
S'store'
p1009
tp1010
(lp1011
(I71
I0
F-0.375
g227
tp1012
a(I296
I0
I0
g243
tp1013
a(I363
I2
F-0.25
g249
tp1014
a(I427
I0
F0.625
g259
tp1015
as(S'problems'
p1016
tp1017
(lp1018
(I32
I1
I0
S'few'
p1019
tp1020
a(I32
I1
I0
S'such'
p1021
tp1022
a(I60
I5
I0
S'old'
p1023
tp1024
a(I111
I1
I0
S'same'
p1025
tp1026
a(I111
I7
I0
S'same'
p1027
tp1028
a(I152
I2
F0.375
S'new'
p1029
tp1030
a(I184
I0
I0
S'many'
p1031
tp1032
a(I277
I6
I0
S'same'
p1033
tp1034
a(I332
I0
F1.0
S'good'
p1035
tp1036
a(I332
I0
F-0.75
S'minor'
p1037
tp1038
a(I367
I1
I0
S'old'
p1039
tp1040
a(I381
I0
I0
S'same'
p1041
tp1042
as(S'back'
p1043
tp1044
(lp1045
(I200
I4
F-0.75
S'minor'
p1046
tp1047
as(S'key'
p1048
S'board'
p1049
tp1050
(lp1051
(I73
I2
I0
S'full'
p1052
tp1053
a(I73
I2
F0.125
S'key'
p1054
tp1055
a(I73
I2
I0
S'great'
p1056
tp1057
a(I390
I0
F0.125
S'key'
p1058
tp1059
a(I420
I3
F0.125
S'key'
p1060
tp1061
as(g2
S'touch'
p1062
S'screen'
p1063
tp1064
(lp1065
(I0
I4
I0
g121
tp1066
a(I12
I2
F-0.625
g123
tp1067
a(I13
I6
I0
g610
tp1068
a(I13
I6
F0.5
g612
tp1069
a(I14
I5
I0
g125
tp1070
a(I14
I5
I0
g576
tp1071
a(I16
I1
F0.5
g614
tp1072
a(I19
I5
I0
g942
tp1073
a(I19
I7
F0.5
g616
tp1074
a(I22
I0
F0.5
g618
tp1075
a(I22
I0
F-0.5
g620
tp1076
a(I26
I0
F-0.625
S'want'
p1077
tp1078
a(I26
I0
F0.5
S'touch'
p1079
tp1080
a(I27
I0
F0.5
g622
tp1081
a(I30
I2
F0.5
g624
tp1082
a(I30
I8
F0.5
g626
tp1083
a(I32
I1
F0.5
g628
tp1084
a(I40
I0
F0.5
g630
tp1085
a(I40
I1
F0.5
g632
tp1086
a(I40
I1
F0.875
g634
tp1087
a(I43
I0
F0.125
g127
tp1088
a(I46
I7
F0.5
g637
tp1089
a(I46
I9
F0.25
g129
tp1090
a(I74
I0
F0.5
g640
tp1091
a(I80
I1
F0.25
g131
tp1092
a(I91
I7
F0.5
g954
tp1093
a(I91
I11
F0.5
g643
tp1094
a(I95
I4
F0.5
g645
tp1095
a(I96
I2
F0.5
g957
tp1096
a(I98
I1
F0.5
S'touch'
p1097
tp1098
a(I98
I1
F0.625
S'correct'
p1099
tp1100
a(I111
I9
F0.5
g580
tp1101
a(I111
I9
I0
g582
tp1102
a(I117
I0
F0.5
g649
tp1103
a(I123
I1
F0.5
g651
tp1104
a(I137
I8
I0
g135
tp1105
a(I137
I17
F0.5
g653
tp1106
a(I143
I3
F0.5
g655
tp1107
a(I143
I4
F0.5
g657
tp1108
a(I143
I5
F0.5
S'touch'
p1109
tp1110
a(I152
I6
I0
g137
tp1111
a(I152
I6
F0.5
g660
tp1112
a(I159
I0
F0.5
g662
tp1113
a(I160
I11
F0.5
g664
tp1114
a(I160
I12
F0.5
g666
tp1115
a(I172
I2
F0.5
g668
tp1116
a(I172
I4
F0.5
g586
tp1117
a(I175
I4
F-0.75
g139
tp1118
a(I183
I0
F1.0
g671
tp1119
a(I183
I0
F0.5
g673
tp1120
a(I183
I0
F0.625
g675
tp1121
a(I188
I3
F0.5
g677
tp1122
a(I193
I0
F0.5
g679
tp1123
a(I198
I1
F0.5
g681
tp1124
a(I198
I11
F0.5
g683
tp1125
a(I241
I0
I0
g143
tp1126
a(I241
I1
F0.5
g686
tp1127
a(I254
I1
F0.5
g688
tp1128
a(I259
I0
F1.0
g145
tp1129
a(I263
I0
F0.5
S'touch'
p1130
tp1131
a(I264
I0
F0.5
g690
tp1132
a(I264
I0
F-0.625
g692
tp1133
a(I278
I1
F0.5
g694
tp1134
a(I283
I4
F0.125
g147
tp1135
a(I291
I0
F0.5
g696
tp1136
a(I302
I2
F0.5
g698
tp1137
a(I309
I1
F0.75
g700
tp1138
a(I309
I1
I0
g702
tp1139
a(I322
I5
F0.5
g704
tp1140
a(I324
I0
F0.875
g149
tp1141
a(I324
I0
I0
g707
tp1142
a(I336
I0
F0.5
g590
tp1143
a(I337
I2
F0.5
g592
tp1144
a(I339
I0
F0.875
g153
tp1145
a(I344
I0
F0.5
S'touch'
p1146
tp1147
a(I346
I1
F0.5
S'touch'
p1148
tp1149
a(I351
I0
F0.5
S'touch'
p1150
tp1151
a(I351
I0
F-0.25
S'dropped'
p1152
tp1153
a(I369
I3
F0.125
g712
tp1154
a(I369
I3
F0.5
g714
tp1155
a(I369
I5
I0
g155
tp1156
a(I369
I5
I0
g157
tp1157
a(I375
I2
F0.875
g978
tp1158
a(I379
I0
F0.5
g718
tp1159
a(I385
I26
F-0.75
g720
tp1160
a(I387
I0
F0.5
g722
tp1161
a(I390
I0
F0.5
g724
tp1162
a(I390
I0
F0.5
g726
tp1163
a(I399
I6
F0.5
g728
tp1164
a(I409
I4
I0
g981
tp1165
a(I414
I1
F0.5
g730
tp1166
a(I424
I0
F0.5
g732
tp1167
a(I424
I2
F-0.375
g734
tp1168
a(I425
I0
F0.5
g736
tp1169
a(I425
I3
F0.5
g738
tp1170
as(S'life'
p1171
tp1172
(lp1173
(I100
I4
F-0.5
S'sure'
p1174
tp1175
a(I100
I4
F0.625
S'easy'
p1176
tp1177
a(I116
I7
I0
S'most'
p1178
tp1179
a(I143
I1
I0
g165
tp1180
a(I143
I1
F0.125
g167
tp1181
a(I175
I5
F0.625
g169
tp1182
a(I187
I13
F0.375
g171
tp1183
a(I214
I0
I0
g175
tp1184
a(I250
I2
I0
g181
tp1185
a(I298
I1
F-0.75
g183
tp1186
a(I314
I7
I0
S'such'
p1187
tp1188
a(I332
I1
F0.125
g185
tp1189
a(I332
I1
F-0.5
g187
tp1190
a(I370
I3
F1.0
g191
tp1191
a(I425
I2
F-0.75
g193
tp1192
as(S'front'
p1193
S'touch'
p1194
S'screen'
p1195
tp1196
(lp1197
(I143
I3
F0.5
g655
tp1198
a(I425
I0
F0.5
g736
tp1199
a(I425
I0
F0.25
S'bigger'
p1200
tp1201
as(g2
S'data'
p1202
S'package'
p1203
tp1204
(lp1205
(I115
I2
F0.625
g6
tp1206
as(S'qwerty'
p1207
tp1208
(lp1209
(I113
I0
F0.125
S'key'
p1210
tp1211
a(I143
I0
I0
g992
tp1212
a(I157
I7
I0
S'full'
p1213
tp1214
a(I213
I0
F1.0
g994
tp1215
a(I213
I0
I0
g996
tp1216
a(I255
I3
I0
g998
tp1217
a(I357
I1
I0
S'basic'
p1218
tp1219
as(S'new'
p1220
S'battery'
p1221
tp1222
(lp1223
(I20
I2
F0.375
S'new'
p1224
tp1225
a(I71
I3
F0.375
S'new'
p1226
tp1227
a(I74
I1
F0.375
S'new'
p1228
tp1229
a(I85
I2
F0.375
S'new'
p1230
tp1231
a(I85
I4
F0.375
S'new'
p1232
tp1233
a(I102
I1
F0.375
S'new'
p1234
tp1235
a(I235
I2
F0.375
S'new'
p1236
tp1237
a(I322
I12
F0.375
S'new'
p1238
tp1239
a(I377
I13
I0
S'own'
p1240
tp1241
a(I377
I13
F0.375
S'new'
p1242
tp1243
a(I387
I7
F-0.5
S'long'
p1244
tp1245
a(I387
I7
F0.375
S'new'
p1246
tp1247
a(I423
I4
F0.375
S'new'
p1248
tp1249
as(S'seller'
p1250
tp1251
(lp1252
(I77
I3
I0
S'e-mailed'
p1253
tp1254
a(I147
I1
F0.375
S'reliable'
p1255
tp1256
a(I152
I6
F0.5
S'recommend'
p1257
tp1258
a(I344
I1
I0
S'great'
p1259
tp1260
a(I369
I3
I0
S'more'
p1261
tp1262
a(I369
I3
F0.5
S'willing'
p1263
tp1264
as(S'plan'
p1265
tp1266
(lp1267
(I55
I1
I0
g867
tp1268
a(I239
I2
F0.375
S'much'
p1269
tp1270
a(I239
I2
I0
S'more'
p1271
tp1272
a(I239
I2
F0.375
S'extra'
p1273
tp1274
a(I321
I0
I0
S'basic'
p1275
tp1276
a(I399
I0
F0.5
S'expensive'
p1277
tp1278
as(g769
S'r'
p1279
S'pocket'
p1280
tp1281
(lp1282
(I188
I3
I0
S'fabric'
p1283
tp1284
a(I241
I0
I0
S'such'
p1285
tp1286
a(I345
I0
F-0.75
S'uncomfortable'
p1287
tp1288
a(I345
I0
F0.75
S'due'
p1289
tp1290
a(I365
I14
I0
S'close'
p1291
tp1292
as(S'battery'
p1293
tp1294
(lp1295
(I4
I3
F-0.667
S'incompatible'
p1296
tp1297
a(I5
I0
F0.375
S'extra'
p1298
tp1299
a(I12
I2
F-0.625
g163
tp1300
a(I12
I12
I0
S'critical'
p1301
tp1302
a(I15
I0
I0
S'own'
p1303
tp1304
a(I19
I8
I0
S'external'
p1305
tp1306
a(I20
I2
F0.375
g1224
tp1307
a(I49
I1
F-0.625
S'bad'
p1308
tp1309
a(I60
I7
I0
S'anymore'
p1310
tp1311
a(I71
I3
F0.375
g1226
tp1312
a(I74
I0
I0
S'great'
p1313
tp1314
a(I74
I1
F0.375
g1228
tp1315
a(I85
I2
F0.375
g1230
tp1316
a(I85
I4
F0.375
g1232
tp1317
a(I88
I1
F-0.625
S'bad'
p1318
tp1319
a(I102
I1
F0.375
g1234
tp1320
a(I128
I0
F0.375
S'extra'
p1321
tp1322
a(I128
I0
F0.625
S'aware'
p1323
tp1324
a(I166
I3
F-0.875
S'awful'
p1325
tp1326
a(I209
I2
F0.125
g173
tp1327
a(I220
I4
I0
S'old'
p1328
tp1329
a(I220
I5
F0.5
S'told'
p1330
tp1331
a(I228
I6
F-0.75
g177
tp1332
a(I235
I2
F0.375
g1236
tp1333
a(I250
I2
I0
g179
tp1334
a(I317
I3
F1.0
S'good'
p1335
tp1336
a(I322
I7
F-0.625
S'bad'
p1337
tp1338
a(I322
I11
I0
S'only'
p1339
tp1340
a(I322
I12
F0.375
g1238
tp1341
a(I333
I1
F0.125
S'supplied'
p1342
tp1343
a(I337
I3
F-0.5
S'open'
p1344
tp1345
a(I341
I4
F1.0
S'better'
p1346
tp1347
a(I361
I0
F1.0
g189
tp1348
a(I377
I13
I0
g1240
tp1349
a(I377
I13
F0.375
g1242
tp1350
a(I387
I7
F-0.5
g1244
tp1351
a(I387
I7
F0.375
g1246
tp1352
a(I405
I12
F-0.625
S'bad'
p1353
tp1354
a(I405
I12
F0.375
S'extra'
p1355
tp1356
a(I422
I1
F-0.25
S'low'
p1357
tp1358
a(I423
I4
F0.375
g1248
tp1359
as(S'keyboard'
p1360
S'for'
p1361
S'texting'
p1362
tp1363
(lp1364
(I80
I1
I0
g67
tp1365
a(I211
I4
I0
S'great'
p1366
tp1367
a(I249
I2
I0
g89
tp1368
a(I304
I0
F1.0
g99
tp1369
as(S'smart'
p1370
tp1371
(lp1372
(I120
I0
I0
S'basic'
p1373
tp1374
a(I122
I2
I0
S'cool'
p1375
tp1376
a(I278
I1
F-0.25
S'let'
p1377
tp1378
a(I384
I0
F-0.75
S'tough'
p1379
tp1380
a(I384
I0
I0
S'great'
p1381
tp1382
a(I384
I0
F0.125
S'first'
p1383
tp1384
a(I409
I7
I0
S'real'
p1385
tp1386
as(S'for'
p1387
S'touch'
p1388
S'screen'
p1389
tp1390
(lp1391
(I30
I8
F0.5
g626
tp1392
a(I46
I7
F0.5
g637
tp1393
a(I80
I1
F0.25
g131
tp1394
a(I91
I7
F0.5
g954
tp1395
a(I95
I4
F0.5
g645
tp1396
a(I96
I2
F0.5
g957
tp1397
a(I117
I0
F0.5
g649
tp1398
a(I123
I1
F0.5
g651
tp1399
a(I152
I6
I0
g137
tp1400
a(I152
I6
F0.5
g660
tp1401
a(I183
I0
F1.0
g671
tp1402
a(I183
I0
F0.5
g673
tp1403
a(I183
I0
F0.625
g675
tp1404
a(I198
I11
F0.5
g683
tp1405
a(I241
I1
F0.5
g686
tp1406
a(I324
I0
F0.875
g149
tp1407
a(I324
I0
I0
g707
tp1408
a(I337
I2
F0.5
g592
tp1409
a(I339
I0
F0.875
g153
tp1410
a(I369
I3
F0.125
g712
tp1411
a(I369
I3
F0.5
g714
tp1412
a(I369
I5
I0
g155
tp1413
a(I369
I5
I0
g157
tp1414
a(I375
I2
F0.875
g978
tp1415
a(I390
I0
F0.5
g724
tp1416
a(I390
I0
F0.5
g726
tp1417
a(I399
I6
F0.5
g728
tp1418
a(I425
I0
F0.5
g736
tp1419
as(S'looking'
p1420
tp1421
(lp1422
(I12
I13
F1.0
S'best'
p1423
tp1424
a(I48
I2
F0.875
S'nice'
p1425
tp1426
a(I356
I0
F0.25
S'sharp'
p1427
tp1428
as(S'calls'
p1429
tp1430
(lp1431
(I139
I1
I0
S'great'
p1432
tp1433
a(I139
I1
I0
S'same'
p1434
tp1435
a(I152
I3
I0
S'few'
p1436
tp1437
as(S'want'
p1438
g2
S'smart'
p1439
tp1440
(lp1441
(I122
I2
I0
g1375
tp1442
a(I278
I1
F-0.25
g1377
tp1443
as(g2
S'qwerty'
p1444
S'keyboard'
p1445
tp1446
(lp1447
(I43
I11
F0.625
g51
tp1448
a(I43
I11
F-0.625
g53
tp1449
a(I43
I11
F-0.875
g55
tp1450
a(I143
I0
I0
g992
tp1451
a(I213
I0
F1.0
g994
tp1452
a(I213
I0
I0
g996
tp1453
a(I255
I3
I0
g998
tp1454
as(S'env'
p1455
S'touch'
p1456
tp1457
(lp1458
(I136
I0
I0
S'old'
p1459
tp1460
a(I136
I2
F0.375
S'new'
p1461
tp1462
a(I187
I4
I0
S'great'
p1463
tp1464
a(I213
I0
F0.125
g331
tp1465
as(S'with'
p1466
S'touch'
p1467
S'screen'
p1468
tp1469
(lp1470
(I0
I4
I0
g121
tp1471
a(I14
I5
I0
g125
tp1472
a(I14
I5
I0
g576
tp1473
a(I19
I5
I0
g942
tp1474
a(I19
I7
F0.5
g616
tp1475
a(I30
I2
F0.5
g624
tp1476
a(I30
I8
F0.5
g626
tp1477
a(I46
I7
F0.5
g637
tp1478
a(I91
I11
F0.5
g643
tp1479
a(I95
I4
F0.5
g645
tp1480
a(I111
I9
F0.5
g580
tp1481
a(I111
I9
I0
g582
tp1482
a(I117
I0
F0.5
g649
tp1483
a(I143
I5
F0.5
g1109
tp1484
a(I152
I6
I0
g137
tp1485
a(I152
I6
F0.5
g660
tp1486
a(I160
I12
F0.5
g666
tp1487
a(I172
I2
F0.5
g668
tp1488
a(I193
I0
F0.5
g679
tp1489
a(I198
I11
F0.5
g683
tp1490
a(I241
I1
F0.5
g686
tp1491
a(I278
I1
F0.5
g694
tp1492
a(I309
I1
F0.75
g700
tp1493
a(I309
I1
I0
g702
tp1494
a(I339
I0
F0.875
g153
tp1495
a(I344
I0
F0.5
g1146
tp1496
a(I346
I1
F0.5
g1148
tp1497
a(I385
I26
F-0.75
g720
tp1498
a(I424
I2
F-0.375
g734
tp1499
as(S'time'
p1500
tp1501
(lp1502
(I1
I0
F0.625
S'easy'
p1503
tp1504
a(I30
I5
F0.5
S'whole'
p1505
tp1506
a(I30
I5
F0.5
S'strong'
p1507
tp1508
a(I71
I2
I0
S'only'
p1509
tp1510
a(I84
I5
I0
S'big'
p1511
tp1512
a(I87
I1
F0.5
S'whole'
p1513
tp1514
a(I88
I1
F0.125
S'first'
p1515
tp1516
a(I95
I0
I0
S'update'
p1517
tp1518
a(I131
I3
I0
S'big'
p1519
tp1520
a(I152
I6
F-0.5
S'sure'
p1521
tp1522
a(I152
I6
F0.125
S'first'
p1523
tp1524
a(I198
I13
F0.125
S'first'
p1525
tp1526
a(I207
I6
I0
S'only'
p1527
tp1528
a(I228
I4
F-0.5
S'long'
p1529
tp1530
a(I253
I0
F-0.5
g317
tp1531
a(I272
I3
F0.5
S'whole'
p1532
tp1533
a(I283
I9
F0.125
S'first'
p1534
tp1535
a(I316
I0
F-0.5
S'long'
p1536
tp1537
a(I322
I11
F-0.25
S'loose'
p1538
tp1539
a(I348
I2
F-0.625
S'generous'
p1540
tp1541
a(I365
I3
F0.125
S'drunk'
p1542
tp1543
a(I379
I0
I0
S'normal'
p1544
tp1545
a(I413
I3
F-0.5
S'long'
p1546
tp1547
a(I413
I5
F0.25
S'helpful'
p1548
tp1549
a(I417
I1
I0
S'valuable'
p1550
tp1551
a(I417
I1
F-0.875
S'worst'
p1552
tp1553
a(I417
I1
F0.5
S'possible'
p1554
tp1555
a(I420
I1
I0
S'brief'
p1556
tp1557
as(S'negative'
p1558
S'reviews'
p1559
tp1560
(lp1561
(I46
I2
F-0.875
S'negative'
p1562
tp1563
a(I91
I0
F-0.875
S'negative'
p1564
tp1565
a(I399
I4
I0
S'more'
p1566
tp1567
a(I399
I4
F-0.875
S'negative'
p1568
tp1569
a(I399
I4
F0.625
S'positive'
p1570
tp1571
as(S'verizon'
p1572
S'store'
p1573
tp1574
(lp1575
(I71
I0
F-0.375
g227
tp1576
a(I296
I0
I0
g243
tp1577
a(I363
I2
F-0.25
g249
tp1578
a(I427
I0
F0.625
g259
tp1579
as(S'pocket'
p1580
tp1581
(lp1582
(I188
I3
I0
g1283
tp1583
a(I241
I0
I0
g1285
tp1584
a(I345
I0
F-0.75
g1287
tp1585
a(I345
I0
F0.75
g1289
tp1586
a(I365
I14
I0
g1291
tp1587
as(S'months'
p1588
tp1589
(lp1590
(I32
I0
I0
S'few'
p1591
tp1592
a(I32
I0
F0.875
S'nice'
p1593
tp1594
a(I43
I2
F0.125
S'first'
p1595
tp1596
a(I43
I2
I0
S'few'
p1597
tp1598
a(I95
I7
I0
S'few'
p1599
tp1600
a(I110
I1
I0
S'later'
p1601
tp1602
a(I143
I3
I0
S'few'
p1603
tp1604
a(I143
I3
I0
S'least'
p1605
tp1606
a(I143
I3
F-0.375
S'daily'
p1607
tp1608
a(I177
I1
I0
S'few'
p1609
tp1610
a(I198
I5
I0
S'few'
p1611
tp1612
a(I203
I0
I0
S'few'
p1613
tp1614
a(I244
I0
F-0.5
S'less'
p1615
tp1616
a(I305
I1
F-0.25
S'past'
p1617
tp1618
a(I337
I6
I0
S'few'
p1619
tp1620
a(I385
I2
I0
S'few'
p1621
tp1622
a(I385
I15
I0
S'few'
p1623
tp1624
a(I385
I15
I0
S'later'
p1625
tp1626
a(I385
I23
I0
S'next'
p1627
tp1628
a(I387
I6
F-0.25
S'past'
p1629
tp1630
a(I388
I1
F1.0
S'good'
p1631
tp1632
a(I423
I1
I0
S'few'
p1633
tp1634
a(I423
I1
F-0.625
S'useless'
p1635
tp1636
as(S'had'
p1637
S'env'
p1638
S'touch'
p1639
tp1640
(lp1641
(I136
I0
I0
g1459
tp1642
a(I136
I2
F0.375
g1461
tp1643
a(I213
I0
F0.125
g331
tp1644
as(S'touch'
p1645
S'screen'
p1646
tp1647
(lp1648
(I0
I4
I0
g121
tp1649
a(I1
I1
F0.5
S'touch'
p1650
tp1651
a(I12
I2
F-0.625
g123
tp1652
a(I13
I6
I0
g610
tp1653
a(I13
I6
F0.5
g612
tp1654
a(I14
I5
I0
g125
tp1655
a(I14
I5
I0
g576
tp1656
a(I16
I1
F0.5
g614
tp1657
a(I19
I5
I0
g942
tp1658
a(I19
I7
F0.5
g616
tp1659
a(I22
I0
F0.5
g618
tp1660
a(I22
I0
F-0.5
g620
tp1661
a(I26
I0
F-0.625
g1077
tp1662
a(I26
I0
F0.5
g1079
tp1663
a(I27
I0
F0.5
g622
tp1664
a(I30
I2
F0.5
g624
tp1665
a(I30
I8
F0.5
g626
tp1666
a(I32
I1
F0.5
g628
tp1667
a(I40
I0
F0.5
g630
tp1668
a(I40
I1
F0.5
g632
tp1669
a(I40
I1
F0.875
g634
tp1670
a(I43
I0
F0.125
g127
tp1671
a(I45
I4
F-0.5
S'open'
p1672
tp1673
a(I46
I7
F0.5
g637
tp1674
a(I46
I9
F0.25
g129
tp1675
a(I74
I0
F0.5
g640
tp1676
a(I80
I1
F0.25
g131
tp1677
a(I91
I7
F0.5
g954
tp1678
a(I91
I11
F0.5
g643
tp1679
a(I95
I4
F0.5
g645
tp1680
a(I96
I2
F0.5
g957
tp1681
a(I98
I1
F0.5
g1097
tp1682
a(I98
I1
F0.625
g1099
tp1683
a(I111
I9
F0.5
g580
tp1684
a(I111
I9
I0
g582
tp1685
a(I117
I0
F0.5
g649
tp1686
a(I123
I1
F0.5
g651
tp1687
a(I137
I8
I0
g135
tp1688
a(I137
I17
F0.5
g653
tp1689
a(I143
I3
F0.5
g655
tp1690
a(I143
I4
F0.5
g657
tp1691
a(I143
I5
F0.5
g1109
tp1692
a(I152
I6
I0
g137
tp1693
a(I152
I6
F0.5
g660
tp1694
a(I159
I0
F0.5
g662
tp1695
a(I160
I11
F0.5
g664
tp1696
a(I160
I12
F0.5
g666
tp1697
a(I172
I2
F0.5
g668
tp1698
a(I172
I4
F0.5
g586
tp1699
a(I175
I4
F-0.75
g139
tp1700
a(I183
I0
F1.0
g671
tp1701
a(I183
I0
F0.5
g673
tp1702
a(I183
I0
F0.625
g675
tp1703
a(I188
I3
F0.5
g677
tp1704
a(I193
I0
F0.5
g679
tp1705
a(I198
I1
F0.5
g681
tp1706
a(I198
I11
F0.5
g683
tp1707
a(I241
I0
I0
g143
tp1708
a(I241
I1
F0.5
g686
tp1709
a(I254
I1
F0.5
g688
tp1710
a(I259
I0
F1.0
g145
tp1711
a(I263
I0
F0.5
g1130
tp1712
a(I264
I0
F0.5
g690
tp1713
a(I264
I0
F-0.625
g692
tp1714
a(I278
I1
F0.5
g694
tp1715
a(I283
I4
F0.125
g147
tp1716
a(I291
I0
F0.5
g696
tp1717
a(I302
I2
F0.5
g698
tp1718
a(I309
I1
F0.75
g700
tp1719
a(I309
I1
I0
g702
tp1720
a(I322
I5
F0.5
g704
tp1721
a(I324
I0
F0.875
g149
tp1722
a(I324
I0
I0
g707
tp1723
a(I336
I0
F0.5
g590
tp1724
a(I337
I2
F0.5
g592
tp1725
a(I339
I0
F0.875
g153
tp1726
a(I344
I0
F0.5
g1146
tp1727
a(I346
I1
F0.5
g1148
tp1728
a(I351
I0
F0.5
g1150
tp1729
a(I351
I0
F-0.25
g1152
tp1730
a(I369
I3
F0.125
g712
tp1731
a(I369
I3
F0.5
g714
tp1732
a(I369
I5
I0
g155
tp1733
a(I369
I5
I0
g157
tp1734
a(I375
I2
F0.875
g978
tp1735
a(I379
I0
F0.5
g718
tp1736
a(I385
I26
F-0.75
g720
tp1737
a(I387
I0
F0.5
g722
tp1738
a(I390
I0
F0.5
g724
tp1739
a(I390
I0
F0.5
g726
tp1740
a(I399
I6
F0.5
g728
tp1741
a(I409
I4
I0
g981
tp1742
a(I414
I1
F0.5
g730
tp1743
a(I424
I0
F0.5
g732
tp1744
a(I424
I2
F-0.375
g734
tp1745
a(I425
I0
F0.5
g736
tp1746
a(I425
I3
F0.5
g738
tp1747
as(S'text'
p1748
tp1749
(lp1750
(I157
I8
I0
S'quick'
p1751
tp1752
a(I187
I8
F-0.375
S'simple'
p1753
tp1754
a(I228
I5
I0
S'quicker'
p1755
tp1756
a(I241
I6
F0.125
S'dedicated'
p1757
tp1758
a(I343
I0
F-0.75
S'short'
p1759
tp1760
a(I365
I6
F-0.5
S'international'
p1761
tp1762
a(I425
I1
F1.0
S'good'
p1763
tp1764
as(S'working'
p1765
tp1766
(lp1767
(I306
I0
F1.0
S'good'
p1768
tp1769
as(S'motorola'
p1770
S'droid'
p1771
tp1772
(lp1773
(I255
I7
F0.125
S'first'
p1774
tp1775
as(S'screen'
p1776
tp1777
(lp1778
(I0
I6
I0
S'external'
p1779
tp1780
a(I1
I1
F0.5
g1650
tp1781
a(I4
I3
F-0.375
S'black'
p1782
tp1783
a(I13
I6
I0
g610
tp1784
a(I13
I6
F0.5
g612
tp1785
a(I14
I5
I0
g576
tp1786
a(I16
I1
F0.5
g614
tp1787
a(I19
I0
F-0.25
S'highest'
p1788
tp1789
a(I19
I5
I0
g942
tp1790
a(I19
I7
F0.5
g616
tp1791
a(I22
I0
F0.5
g618
tp1792
a(I22
I0
F-0.5
g620
tp1793
a(I26
I0
F-0.625
g1077
tp1794
a(I26
I0
F0.5
g1079
tp1795
a(I27
I0
F0.5
g622
tp1796
a(I30
I2
F0.5
g624
tp1797
a(I30
I8
F0.5
g626
tp1798
a(I32
I1
F0.5
g628
tp1799
a(I40
I0
F0.5
g630
tp1800
a(I40
I1
F0.5
g632
tp1801
a(I40
I1
F0.875
g634
tp1802
a(I45
I4
F-0.5
g1672
tp1803
a(I46
I7
F0.5
g637
tp1804
a(I68
I1
I0
S'inside'
p1805
tp1806
a(I74
I0
F0.5
g640
tp1807
a(I91
I7
F0.5
g954
tp1808
a(I91
I11
F0.5
g643
tp1809
a(I95
I4
F0.5
g645
tp1810
a(I95
I5
I0
S'internal'
p1811
tp1812
a(I96
I2
F0.5
g957
tp1813
a(I98
I1
F0.5
g1097
tp1814
a(I98
I1
F0.625
g1099
tp1815
a(I111
I9
F0.5
g580
tp1816
a(I111
I9
I0
g582
tp1817
a(I117
I0
F0.5
g649
tp1818
a(I123
I1
F0.5
g651
tp1819
a(I126
I0
F-0.25
S'white'
p1820
tp1821
a(I132
I3
I0
S'same'
p1822
tp1823
a(I137
I10
F0.875
S'nice'
p1824
tp1825
a(I137
I10
I0
S'big'
p1826
tp1827
a(I137
I17
F0.5
g653
tp1828
a(I137
I18
F-0.375
S'static'
p1829
tp1830
a(I143
I2
F-0.375
S'small'
p1831
tp1832
a(I143
I3
F0.5
g655
tp1833
a(I143
I4
F0.5
g657
tp1834
a(I143
I5
F0.5
g1109
tp1835
a(I152
I2
F-0.125
S'front'
p1836
tp1837
a(I152
I6
F0.5
g660
tp1838
a(I159
I0
F0.5
g662
tp1839
a(I160
I11
F0.5
g664
tp1840
a(I160
I12
F0.5
g666
tp1841
a(I172
I2
F0.5
g668
tp1842
a(I172
I4
F0.5
g586
tp1843
a(I173
I3
F0.625
S'easy'
p1844
tp1845
a(I183
I0
F1.0
g671
tp1846
a(I183
I0
F0.5
g673
tp1847
a(I183
I0
F0.625
g675
tp1848
a(I187
I9
F-0.375
S'black'
p1849
tp1850
a(I188
I3
F0.5
g677
tp1851
a(I193
I0
F0.5
g679
tp1852
a(I194
I4
F0.875
S'nice'
p1853
tp1854
a(I198
I1
F0.5
g681
tp1855
a(I198
I11
F0.5
g683
tp1856
a(I207
I2
F-0.375
S'black'
p1857
tp1858
a(I241
I1
F0.5
g686
tp1859
a(I254
I1
F0.5
g688
tp1860
a(I261
I2
I0
S'wide'
p1861
tp1862
a(I263
I0
F0.5
g1130
tp1863
a(I264
I0
F0.5
g690
tp1864
a(I264
I0
F-0.625
g692
tp1865
a(I277
I15
F0.25
S'larger'
p1866
tp1867
a(I278
I1
F0.5
g694
tp1868
a(I291
I0
F0.5
g696
tp1869
a(I299
I2
I0
S'external'
p1870
tp1871
a(I299
I2
I0
S'internal'
p1872
tp1873
a(I302
I2
F0.5
g698
tp1874
a(I307
I1
F-0.25
S'white'
p1875
tp1876
a(I309
I1
F0.75
g700
tp1877
a(I309
I1
I0
g702
tp1878
a(I322
I5
F0.5
g704
tp1879
a(I324
I0
I0
g707
tp1880
a(I336
I0
F0.5
g590
tp1881
a(I337
I2
F0.5
g592
tp1882
a(I337
I3
F-0.375
S'stop'
p1883
tp1884
a(I344
I0
F0.5
g1146
tp1885
a(I346
I1
F0.5
g1148
tp1886
a(I351
I0
F0.5
g1150
tp1887
a(I351
I0
F-0.25
g1152
tp1888
a(I358
I7
F0.5
S'clearer'
p1889
tp1890
a(I369
I3
F0.125
g712
tp1891
a(I369
I3
F0.5
g714
tp1892
a(I375
I2
F0.875
g978
tp1893
a(I379
I0
F0.5
g718
tp1894
a(I381
I0
I0
S'external'
p1895
tp1896
a(I385
I26
F-0.75
g720
tp1897
a(I385
I32
F-0.25
S'white'
p1898
tp1899
a(I387
I0
F0.5
g722
tp1900
a(I390
I0
F0.5
g724
tp1901
a(I390
I0
F0.5
g726
tp1902
a(I398
I0
I0
S'internal'
p1903
tp1904
a(I399
I6
F0.5
g728
tp1905
a(I409
I4
I0
g981
tp1906
a(I414
I1
F0.5
g730
tp1907
a(I415
I2
F-0.25
S'white'
p1908
tp1909
a(I424
I0
F0.5
g732
tp1910
a(I424
I2
F-0.375
g734
tp1911
a(I425
I0
F0.5
g736
tp1912
a(I425
I3
F0.5
g738
tp1913
a(I429
I0
F-0.25
S'white'
p1914
tp1915
as(S'camera'
p1916
tp1917
(lp1918
(I30
I4
I0
S'downer'
p1919
tp1920
a(I32
I3
F1.0
S'good'
p1921
tp1922
a(I46
I10
F1.0
S'good'
p1923
tp1924
a(I121
I4
F1.0
S'good'
p1925
tp1926
a(I139
I1
F1.0
S'good'
p1927
tp1928
a(I163
I0
I0
S'internal'
p1929
tp1930
a(I166
I3
F1.0
S'good'
p1931
tp1932
a(I182
I2
F1.0
S'good'
p1933
tp1934
a(I182
I2
I0
S'keypad'
p1935
tp1936
a(I182
I2
F0.625
S'easy'
p1937
tp1938
a(I213
I2
F-0.375
S'small'
p1939
tp1940
a(I213
I2
F0.625
S'decent'
p1941
tp1942
a(I241
I2
I0
S'only'
p1943
tp1944
a(I241
I2
I0
S'most'
p1945
tp1946
a(I241
I2
F0.875
S'important'
p1947
tp1948
a(I249
I2
F1.0
S'good'
p1949
tp1950
a(I254
I3
F1.0
S'good'
p1951
tp1952
a(I337
I4
F1.0
S'good'
p1953
tp1954
a(I359
I1
F0.625
S'easy'
p1955
tp1956
a(I375
I2
I0
S'great'
p1957
tp1958
a(I405
I8
I0
S'great'
p1959
tp1960
as(g2
S'full'
p1961
S'charge'
p1962
tp1963
(lp1964
(I169
I3
I0
g288
tp1965
a(I174
I0
I0
g290
tp1966
a(I174
I0
F-0.25
g292
tp1967
a(I266
I2
I0
g300
tp1968
a(I357
I4
I0
g302
tp1969
a(I381
I5
I0
g304
tp1970
as(S'people'
p1971
tp1972
(lp1973
(I13
I1
I0
S'most'
p1974
tp1975
a(I93
I0
I0
S'different'
p1976
tp1977
a(I93
I0
I0
S'weird'
p1978
tp1979
a(I93
I0
I0
S'cool'
p1980
tp1981
a(I160
I13
I0
S'more'
p1982
tp1983
a(I175
I2
I0
S'least'
p1984
tp1985
a(I175
I2
F-0.625
S'other'
p1986
tp1987
a(I188
I1
I0
S'least'
p1988
tp1989
a(I399
I2
F-0.5
S'sure'
p1990
tp1991
a(I399
I4
F0.875
S'happy'
p1992
tp1993
as(S'works'
p1994
tp1995
(lp1996
(I16
I2
I0
g578
tp1997
a(I48
I2
I0
S'big'
p1998
tp1999
a(I48
I2
F0.5
S'touch'
p2000
tp2001
a(I48
I2
I0
S'great'
p2002
tp2003
a(I58
I3
F0.375
S'new'
p2004
tp2005
a(I58
I3
I0
S'great'
p2006
tp2007
a(I113
I0
I0
S'great'
p2008
tp2009
a(I136
I4
F0.875
S'happy'
p2010
tp2011
a(I136
I4
F0.375
S'new'
p2012
tp2013
a(I136
I4
I0
S'great'
p2014
tp2015
a(I146
I3
F0.875
g584
tp2016
a(I147
I0
I0
S'great'
p2017
tp2018
a(I269
I4
F1.0
g588
tp2019
a(I324
I2
F1.0
S'good'
p2020
tp2021
a(I337
I2
I0
g594
tp2022
a(I370
I1
F0.125
S'last'
p2023
tp2024
a(I427
I0
I0
S'same'
p2025
tp2026
a(I427
I0
F-0.625
S'other'
p2027
tp2028
a(I427
I0
F0.375
S'new'
p2029
tp2030
as(S'better'
p2031
tp2032
(lp2033
(I357
I2
F0.375
S'much'
p2034
tp2035
as(S'use'
p2036
S'touch'
p2037
S'screen'
p2038
tp2039
(lp2040
(I27
I0
F0.5
g622
tp2041
a(I30
I8
F0.5
g626
tp2042
a(I46
I9
F0.25
g129
tp2043
a(I91
I11
F0.5
g643
tp2044
a(I95
I4
F0.5
g645
tp2045
a(I123
I1
F0.5
g651
tp2046
a(I183
I0
F1.0
g671
tp2047
a(I183
I0
F0.5
g673
tp2048
a(I183
I0
F0.625
g675
tp2049
a(I193
I0
F0.5
g679
tp2050
a(I198
I1
F0.5
g681
tp2051
a(I198
I11
F0.5
g683
tp2052
a(I241
I1
F0.5
g686
tp2053
a(I322
I5
F0.5
g704
tp2054
a(I324
I0
F0.875
g149
tp2055
a(I324
I0
I0
g707
tp2056
a(I385
I26
F-0.75
g720
tp2057
a(I390
I0
F0.5
g724
tp2058
a(I390
I0
F0.5
g726
tp2059
a(I424
I2
F-0.375
g734
tp2060
as(g2
S'new'
p2061
S'battery'
p2062
tp2063
(lp2064
(I20
I2
F0.375
g1224
tp2065
a(I71
I3
F0.375
g1226
tp2066
a(I74
I1
F0.375
g1228
tp2067
a(I85
I2
F0.375
g1230
tp2068
a(I85
I4
F0.375
g1232
tp2069
a(I102
I1
F0.375
g1234
tp2070
a(I235
I2
F0.375
g1236
tp2071
a(I322
I12
F0.375
g1238
tp2072
a(I377
I13
I0
g1240
tp2073
a(I377
I13
F0.375
g1242
tp2074
a(I387
I7
F-0.5
g1244
tp2075
a(I387
I7
F0.375
g1246
tp2076
a(I423
I4
F0.375
g1248
tp2077
as(S'charger'
p2078
tp2079
(lp2080
(I19
I7
F0.5
S'compatible'
p2081
tp2082
a(I51
I1
I0
S'same'
p2083
tp2084
a(I169
I3
F0.125
S'able'
p2085
tp2086
a(I211
I3
I0
S'more'
p2087
tp2088
a(I285
I4
F0.75
S'receive'
p2089
tp2090
a(I285
I4
F0.5
S'compatible'
p2091
tp2092
as(S'data'
p2093
S'plan'
p2094
tp2095
(lp2096
(I55
I1
I0
g867
tp2097
a(I274
I2
I0
g351
tp2098
a(I339
I0
F0.5
g856
tp2099
a(I387
I7
F0.375
g353
tp2100
a(I403
I5
F-0.5
g355
tp2101
a(I403
I18
F0.5
g357
tp2102
as(S'contact'
p2103
S'list'
p2104
tp2105
(lp2106
(I413
I2
F0.375
S'complete'
p2107
tp2108
as(S'texting'
p2109
tp2110
(lp2111
(I89
I4
I0
S'great'
p2112
tp2113
a(I211
I4
I0
g1366
tp2114
a(I243
I1
I0
S'great'
p2115
tp2116
a(I324
I4
I0
S'great'
p2117
tp2118
a(I361
I0
F1.0
S'good'
p2119
tp2120
a(I403
I10
I0
S'great'
p2121
tp2122
as(S'days'
p2123
tp2124
(lp2125
(I132
I2
I0
S'few'
p2126
tp2127
a(I137
I17
F-0.625
S'other'
p2128
tp2129
a(I146
I4
F1.0
S'good'
p2130
tp2131
a(I152
I6
I0
S'few'
p2132
tp2133
a(I184
I0
I0
S'few'
p2134
tp2135
a(I231
I5
I0
S'few'
p2136
tp2137
a(I293
I0
I0
S'later'
p2138
tp2139
a(I391
I1
I0
S'few'
p2140
tp2141
as(g769
S'good'
p2142
S'condition'
p2143
tp2144
(lp2145
(I15
I0
F1.0
g744
tp2146
a(I25
I0
F1.0
g746
tp2147
a(I35
I2
F1.0
g748
tp2148
a(I35
I4
F1.0
g750
tp2149
a(I132
I0
F1.0
g752
tp2150
a(I253
I0
F1.0
g754
tp2151
a(I265
I2
F1.0
g756
tp2152
a(I267
I0
F1.0
g758
tp2153
a(I284
I8
F1.0
g760
tp2154
a(I308
I1
F1.0
g762
tp2155
a(I308
I1
F0.375
g764
tp2156
a(I317
I1
F1.0
g766
tp2157
as.