(dp0
(S'browser'
p1
tp2
(lp3
(I6
I23
F-0.25
S'desperate'
p4
I0
tp5
a(I6
I23
F-0.5
S'tried'
p6
I0
tp7
as(S'battery'
p8
S'life'
p9
tp10
(lp11
(I4
I17
F0.875
S'nice'
p12
I1
tp13
a(I6
I50
F-0.125
S'mine'
p14
I1
tp15
as(S'fm'
p16
S'radio'
p17
tp18
(lp19
(I6
I15
F0.25
S'portable'
p20
I0
tp21
a(I6
I15
F0.25
g20
I0
tp22
as(S'error'
p23
S'message'
p24
tp25
(lp26
(I6
I18
F0.25
S'forbidden'
p27
I0
tp28
as(S'new'
p29
S'sim'
p30
S'card'
p31
tp32
(lp33
(I2
I28
F0.375
S'new'
p34
I0
tp35
a(I2
I28
I0
S'activate'
p36
I0
tp37
a(I3
I3
F0.375
S'new'
p38
I0
tp39
a(I2
I0
I0
S'same'
p40
I0
tp41
a(I2
I21
F-0.75
S'incorrect'
p42
I0
tp43
a(I2
I28
F0.375
g34
I0
tp44
a(I2
I28
I0
g36
I0
tp45
a(I3
I3
F0.375
g38
I0
tp46
a(I2
I28
F0.375
g34
I0
tp47
a(I3
I3
F0.375
g38
I0
tp48
a(I4
I14
F0.375
S'new'
p49
I0
tp50
a(I4
I14
F0.125
S'first'
p51
I0
tp52
as(S'customer'
p53
S'service'
p54
tp55
(lp56
(I2
I27
F0.5
S'told'
p57
I3
tp58
a(I12
I38
F-0.625
S'bad'
p59
I3
tp60
a(I2
I27
F0.5
g57
I16
tp61
a(I2
I39
F-0.625
S'other'
p62
I16
tp63
a(I6
I30
F0.625
S'decent'
p64
I16
tp65
a(I11
I0
F-0.5
S'sure'
p66
I16
tp67
a(I12
I19
I0
S'mobile'
p68
I16
tp69
a(I12
I19
F0.875
S'important'
p70
I16
tp71
a(I12
I19
I0
S'most'
p72
I16
tp73
a(I17
I39
F-0.625
S'bad'
p74
I16
tp75
as(S'net10'
p76
tp77
(lp78
(I4
I14
I0
S'current'
p79
I0
tp80
a(I9
I13
F-0.625
S'other'
p81
I0
tp82
a(I9
I32
F-0.625
S'other'
p83
I0
tp84
a(I12
I30
F0.375
S'new'
p85
I0
tp86
a(I14
I13
F0.625
S'kind'
p87
I0
tp88
a(I14
I17
F-0.75
S'short'
p89
I0
tp90
as(S'a'
p91
S'new'
p92
S'sim'
p93
tp94
(lp95
(I2
I28
F0.375
g34
I0
tp96
a(I3
I3
F0.375
g38
I0
tp97
a(I4
I14
F0.375
g49
I0
tp98
a(I4
I14
F0.125
g51
I0
tp99
as(S'camera'
p100
tp101
(lp102
(I6
I12
F1.0
S'good'
p103
I1
tp104
a(I9
I11
I0
S'great'
p105
I1
tp106
a(I17
I10
F0.375
S'new'
p107
I1
tp108
as.