(dp0
(S'cosmos'
p1
tp2
(lp3
(I0
I0
F0.875
S'happy'
p4
I0
tp5
a(I1
I28
F-0.5
S'regular'
p6
I0
tp7
a(I1
I47
F-0.5
S'regular'
p8
I0
tp9
a(I1
I82
F-0.5
S'regular'
p10
I0
tp11
a(I1
I82
F0.375
S'new'
p12
I0
tp13
as(S'other'
p14
S'reviewers'
p15
tp16
(lp17
(I3
I18
F-0.625
S'other'
p18
I2
tp19
a(I3
I157
F-0.5
S'sure'
p20
I2
tp21
a(I3
I157
F-0.625
S'other'
p22
I2
tp23
a(I4
I67
F-0.625
S'other'
p24
I2
tp25
a(I4
I67
I0
S'such'
p26
I2
tp27
as(S'touchscreen'
p28
tp29
(lp30
(I1
I200
F0.5
S'accurate'
p31
I0
tp32
a(I2
I310
I0
S'only'
p33
I0
tp34
a(I2
I310
I0
S'basic'
p35
I0
tp36
as(S'keyboard'
p37
tp38
(lp39
(I0
I8
F0.875
S'nice'
p40
I2
tp41
a(I1
I20
I0
S'more'
p42
I2
tp43
a(I1
I28
I0
S'great'
p44
I2
tp45
a(I1
I50
F-0.625
S'light'
p46
I2
tp47
a(I1
I67
F0.875
S'nice'
p48
I2
tp49
a(I1
I202
F0.875
S'nice'
p50
I2
tp51
a(I1
I216
F0.875
S'nice'
p52
I2
tp53
a(I2
I349
F1.0
S'good'
p54
I2
tp55
a(I2
I364
F0.875
S'happy'
p56
I2
tp57
a(I3
I70
I0
S'physical'
p58
I2
tp59
a(I3
I96
F0.625
S'easy'
p60
I2
tp61
a(I3
I154
F-0.375
S'small'
p62
I2
tp63
a(I3
I166
F1.0
S'good'
p64
I2
tp65
a(I4
I65
F0.125
S'fan'
p66
I2
tp67
a(I4
I65
I0
S'slippery'
p68
I2
tp69
as(S'middle'
p70
S'of'
p71
S'night'
p72
tp73
(lp74
(I2
I331
F0.875
S'happy'
p75
I0
tp76
a(I2
I331
I0
S'more'
p77
I0
tp78
a(I3
I180
F0.875
S'happy'
p79
I0
tp80
a(I3
I180
I0
S'more'
p81
I0
tp82
a(I2
I331
F0.875
g75
I15
tp83
a(I3
I180
F0.875
g79
I15
tp84
as(S'tech'
p85
S'support'
p86
tp87
(lp88
(I1
I210
F0.125
S'key'
p89
I1
tp90
a(I2
I22
I0
S'many'
p91
I1
tp92
as(S'random'
p93
tp94
(lp95
(I3
I153
I0
S'few'
p96
I5
tp97
as(S'early'
p98
S'morning'
p99
tp100
(lp101
(I1
I142
F0.375
S'early'
p102
I0
tp103
a(I2
I5
F0.375
S'early'
p104
I0
tp105
a(I2
I108
F0.375
S'early'
p106
I0
tp107
a(I1
I142
F0.375
g102
I4
tp108
a(I2
I5
F0.375
g104
I4
tp109
a(I2
I108
F0.375
g106
I4
tp110
a(I2
I274
I0
S'commercial'
p111
I4
tp112
as(S'camera'
p113
tp114
(lp115
(I4
I68
F1.0
S'good'
p116
I1
tp117
as(S'text'
p118
S'message'
p119
tp120
(lp121
(I1
I225
I0
S'different'
p122
I0
tp123
a(I2
I132
F0.125
S'able'
p124
I0
tp125
a(I1
I221
I0
S'buggy'
p126
I18
tp127
a(I2
I132
F0.125
g124
I18
tp128
a(I4
I43
F-0.5
S'long'
p129
I18
tp130
a(I1
I225
I0
g122
I1
tp131
a(I2
I147
F0.375
S'new'
p132
I1
tp133
a(I4
I9
I0
S'same'
p134
I1
tp135
as(S'battery'
p136
S'life'
p137
tp138
(lp139
(I1
I79
F1.0
S'good'
p140
I1
tp141
a(I2
I104
F-0.5
S'nonlinear'
p142
I1
tp143
a(I2
I174
F1.0
S'good'
p144
I1
tp145
a(I2
I365
F1.0
S'good'
p146
I1
tp147
a(I3
I166
I0
S'great'
p148
I1
tp149
a(I0
I19
F-0.75
S'alien'
p150
I19
tp151
a(I1
I79
F1.0
g140
I19
tp152
a(I2
I105
F-0.875
S'negative'
p153
I19
tp154
a(I2
I174
F1.0
g144
I19
tp155
a(I2
I365
F1.0
g146
I19
tp156
a(I1
I48
I0
S'great'
p157
I15
tp158
a(I2
I14
F0.125
S'first'
p159
I15
tp160
a(I2
I104
F-0.5
g142
I15
tp161
a(I2
I158
I0
S'faster'
p162
I15
tp163
a(I2
I344
F-0.75
S'secondary'
p164
I15
tp165
a(I3
I128
F-0.75
S'dead'
p166
I15
tp167
a(I3
I166
I0
g148
I15
tp168
a(I4
I56
I0
S'fast'
p169
I15
tp170
as(S'a'
p171
S'touch'
p172
S'screen'
p173
tp174
(lp175
(I1
I20
F0.5
S'touch'
p176
I0
tp177
a(I1
I46
F0.5
S'touch'
p178
I0
tp179
a(I1
I46
F0.5
S'functional'
p180
I0
tp181
a(I1
I75
F0.5
S'touch'
p182
I0
tp183
a(I2
I7
I0
S'basic'
p184
I0
tp185
a(I2
I7
F0.5
S'touch'
p186
I0
tp187
a(I2
I43
F0.125
S'last'
p188
I0
tp189
a(I2
I70
F0.5
S'touch'
p190
I0
tp191
a(I2
I73
F0.5
S'touch'
p192
I0
tp193
a(I2
I110
F-0.75
S'unresponsive'
p194
I0
tp195
a(I2
I110
F1.0
S'good'
p196
I0
tp197
a(I2
I150
F0.5
S'touch'
p198
I0
tp199
a(I2
I167
F-0.875
S'trouble'
p200
I0
tp201
a(I2
I167
F0.5
S'touch'
p202
I0
tp203
a(I2
I186
F0.5
S'touch'
p204
I0
tp205
a(I2
I193
F0.5
S'touch'
p206
I0
tp207
a(I2
I198
F0.5
S'touch'
p208
I0
tp209
a(I2
I198
F0.5
S'touch'
p210
I0
tp211
a(I2
I349
F0.5
S'touch'
p212
I0
tp213
a(I2
I349
F0.625
S'easy'
p214
I0
tp215
a(I2
I364
F-0.5
S'sure'
p216
I0
tp217
a(I2
I364
F0.5
S'touch'
p218
I0
tp219
a(I2
I374
F0.5
S'touch'
p220
I0
tp221
a(I3
I46
F0.5
S'touch'
p222
I0
tp223
a(I3
I86
F0.5
S'touch'
p224
I0
tp225
a(I3
I97
F0.5
S'clear'
p226
I0
tp227
a(I3
I136
F0.5
S'touch'
p228
I0
tp229
a(I3
I136
F-0.75
S'unresponsive'
p230
I0
tp231
a(I4
I0
F0.5
S'touch'
p232
I0
tp233
a(I4
I34
F0.5
S'touch'
p234
I0
tp235
a(I1
I20
F0.5
g176
I2
tp236
a(I1
I46
F0.5
g178
I2
tp237
a(I1
I46
F0.5
g180
I2
tp238
a(I1
I75
F0.5
g182
I2
tp239
a(I2
I7
I0
g184
I2
tp240
a(I2
I7
F0.5
g186
I2
tp241
a(I2
I43
F0.125
g188
I2
tp242
a(I2
I70
F0.5
g190
I2
tp243
a(I2
I73
F0.5
g192
I2
tp244
a(I2
I110
F-0.75
g194
I2
tp245
a(I2
I110
F1.0
g196
I2
tp246
a(I2
I150
F0.5
g198
I2
tp247
a(I2
I167
F-0.875
g200
I2
tp248
a(I2
I167
F0.5
g202
I2
tp249
a(I2
I186
F0.5
g204
I2
tp250
a(I2
I193
F0.5
g206
I2
tp251
a(I2
I198
F0.5
g208
I2
tp252
a(I2
I198
F0.5
g210
I2
tp253
a(I2
I349
F0.5
g212
I2
tp254
a(I2
I349
F0.625
g214
I2
tp255
a(I2
I364
F-0.5
g216
I2
tp256
a(I2
I364
F0.5
g218
I2
tp257
a(I2
I374
F0.5
g220
I2
tp258
a(I3
I46
F0.5
g222
I2
tp259
a(I3
I86
F0.5
g224
I2
tp260
a(I3
I97
F0.5
g226
I2
tp261
a(I3
I136
F0.5
g228
I2
tp262
a(I3
I136
F-0.75
g230
I2
tp263
a(I4
I0
F0.5
g232
I2
tp264
a(I4
I34
F0.5
g234
I2
tp265
as(S'monthly'
p266
S'fees'
p267
tp268
(lp269
(I1
I24
F0.375
S'extra'
p270
I0
tp271
a(I1
I24
I0
S'monthly'
p272
I0
tp273
a(I1
I75
I0
S'monthly'
p274
I0
tp275
as(S'apps'
p276
tp277
(lp278
(I1
I34
I0
S'brew'
p279
I0
tp280
a(I1
I51
F-0.5
S'heavy'
p281
I0
tp282
a(I1
I100
F-0.75
S'stupid'
p283
I0
tp284
a(I1
I100
I0
S'most'
p285
I0
tp286
a(I1
I149
I0
S'cool'
p287
I0
tp288
a(I2
I53
F-0.625
S'free'
p289
I0
tp290
as(S'internet'
p291
tp292
(lp293
(I1
I149
I0
S'monthly'
p294
I6
tp295
a(I1
I150
F0.5
S'expensive'
p296
I6
tp297
as(S'lock'
p298
S'button'
p299
tp300
(lp301
(I3
I61
F0.25
S'effective'
p302
I0
tp303
as(S'verizon'
p304
tp305
(lp306
(I1
I103
F0.5
S'compatible'
p307
I0
tp308
a(I2
I63
I0
S'rebate'
p309
I0
tp310
a(I2
I338
F0.5
S'compatible'
p311
I0
tp312
a(I3
I187
F0.5
S'compatible'
p313
I0
tp314
as(S'messages'
p315
tp316
(lp317
(I2
I28
F0.875
S'important'
p318
I1
tp319
a(I2
I112
F-0.125
S'delete'
p320
I1
tp321
a(I2
I211
F-0.25
S'past'
p322
I1
tp323
a(I4
I7
I0
S'more'
p324
I1
tp325
as(S'media'
p326
S'center'
p327
tp328
(lp329
(I3
I9
I0
S'basic'
p330
I0
tp331
as(S'daily'
p332
S'scoop'
p333
tp334
(lp335
(I3
I136
F-0.375
S'daily'
p336
I0
tp337
a(I3
I136
F-0.375
g336
I0
tp338
as(S'texts'
p339
tp340
(lp341
(I3
I53
F-0.625
S'other'
p342
I0
tp343
a(I3
I69
F0.75
S'receive'
p344
I0
tp345
as(S'pop'
p346
S'up'
p347
S'ads'
p348
tp349
(lp350
(I2
I0
F-0.25
S'pop-up'
p351
I0
tp352
a(I2
I61
F-0.25
S'pop-up'
p353
I0
tp354
a(I2
I128
F-0.25
S'pop-up'
p355
I0
tp356
a(I2
I136
F-0.25
S'pop-up'
p357
I0
tp358
a(I2
I239
F-0.25
S'pop-up'
p359
I0
tp360
as(S'calls'
p361
tp362
(lp363
(I2
I353
I0
S'great'
p364
I0
tp365
a(I3
I63
F1.0
S'good'
p366
I0
tp367
a(I3
I106
I0
S'real'
p368
I0
tp369
as(S'pop-up'
p370
S'ads'
p371
tp372
(lp373
(I2
I0
F-0.25
g351
I0
tp374
a(I2
I61
F-0.25
g353
I0
tp375
a(I2
I128
F-0.25
g355
I0
tp376
a(I2
I136
F-0.25
g357
I0
tp377
a(I2
I239
F-0.25
g359
I0
tp378
as(g171
S'data'
p379
S'plan'
p380
tp381
(lp382
(I1
I178
F-0.625
S'want'
p383
I0
tp384
a(I2
I170
F-0.625
S'want'
p385
I0
tp386
a(I1
I178
F-0.625
g383
I0
tp387
a(I2
I170
F-0.625
g385
I0
tp388
a(I0
I13
I0
S'more'
p389
I13
tp390
a(I2
I170
F-0.625
g385
I13
tp391
a(I3
I99
F0.125
S'capable'
p392
I13
tp393
as(S'customer'
p394
S'service'
p395
tp396
(lp397
(I1
I4
F0.5
S'told'
p398
I3
tp399
a(I3
I93
F1.0
S'good'
p400
I3
tp401
as(S'texting'
p402
tp403
(lp404
(I1
I202
F1.0
S'good'
p405
I0
tp406
a(I2
I17
F1.0
S'good'
p407
I0
tp408
a(I2
I343
I0
S'big'
p409
I0
tp410
a(I2
I356
I0
S'great'
p411
I0
tp412
as(S'mp3'
p413
S'player'
p414
tp415
(lp416
(I1
I38
F0.375
S'complete'
p417
I1
tp418
a(I1
I38
F0.5
S'functional'
p419
I1
tp420
as(S'worst'
p421
tp422
(lp423
(I2
I42
F0.5
S'absolute'
p424
I5
tp425
as.