(dp0
(S'times'
p1
tp2
(lp3
(I50
I1
I0
S'least'
p4
tp5
a(I102
I0
I0
S'many'
p6
tp7
a(I257
I5
I0
S'many'
p8
tp9
as(S'problem'
p10
tp11
(lp12
(I3
I4
I0
S'common'
p13
tp14
a(I5
I3
I0
S'french'
p15
tp16
a(I12
I7
F0.625
S'major'
p17
tp18
a(I15
I12
I0
S'same'
p19
tp20
a(I28
I9
F0.25
S'biggest'
p21
tp22
a(I86
I4
I0
S'common'
p23
tp24
a(I155
I0
F-0.125
S'present'
p25
tp26
a(I199
I3
I0
S'only'
p27
tp28
a(I202
I0
F-0.625
S'other'
p29
tp30
a(I224
I6
F0.125
S'first'
p31
tp32
a(I224
I10
F0.5
S'second'
p33
tp34
a(I238
I0
I0
S'only'
p35
tp36
as(S'memory'
p37
S'card'
p38
tp39
(lp40
(I12
I8
I0
S'internal'
p41
tp42
a(I39
I5
F-0.625
S'corrupted'
p43
tp44
a(I73
I5
I0
S'internal'
p45
tp46
a(I88
I0
F0.375
S'extra'
p47
tp48
a(I117
I2
I0
S'internal'
p49
tp50
a(I145
I0
I0
S'full'
p51
tp52
a(I206
I0
I0
S'internal'
p53
tp54
a(I206
I0
F-0.375
S'small'
p55
tp56
a(I261
I1
I0
S'normal'
p57
tp58
a(I265
I3
I0
S'internal'
p59
tp60
a(I265
I3
F-0.375
S'small'
p61
tp62
as(S'perfect'
p63
tp64
(lp65
(I240
I1
F0.5
S'functional'
p66
tp67
as(S'battery'
p68
S'life'
p69
tp70
(lp71
(I3
I4
F-0.75
S'short'
p72
tp73
a(I12
I2
F1.0
S'good'
p74
tp75
a(I13
I0
F0.375
S'reliable'
p76
tp77
a(I13
I0
F1.0
S'good'
p78
tp79
a(I15
I12
F-0.25
S'low'
p80
tp81
a(I28
I2
F1.0
S'good'
p82
tp83
a(I28
I2
F-0.5
S'poor'
p84
tp85
a(I28
I3
F-0.5
S'poor'
p86
tp87
a(I86
I4
F-0.75
S'short'
p88
tp89
a(I108
I0
F-0.5
S'long'
p90
tp91
a(I123
I8
I0
S'many'
p92
tp93
a(I132
I1
F-0.75
S'short'
p94
tp95
a(I139
I1
F1.0
S'better'
p96
tp97
a(I139
I1
I0
S'more'
p98
tp99
a(I188
I0
F1.0
S'good'
p100
tp101
a(I330
I1
F1.0
S'good'
p102
tp103
as(S'purchase'
p104
tp105
(lp106
(I106
I3
F1.0
S'good'
p107
tp108
a(I152
I3
F-0.625
S'other'
p109
tp110
a(I168
I2
F0.875
S'happy'
p111
tp112
a(I253
I0
F-0.875
S'worst'
p113
tp114
a(I288
I0
F-0.875
S'worst'
p115
tp116
a(I290
I6
F1.0
S'good'
p117
tp118
as(S'model'
p119
tp120
(lp121
(I23
I1
I0
S'different'
p122
tp123
a(I26
I10
I0
S'such'
p124
tp125
a(I191
I0
F-0.25
S'cheaper'
p126
tp127
a(I191
I0
F-0.25
S'cheaper'
p128
tp129
a(I265
I1
F0.5
S'comparable'
p130
tp131
as(S'back'
p132
S'cover'
p133
tp134
(lp135
(I33
I2
F-0.25
S'white'
p136
tp137
a(I298
I0
F0.875
S'nice'
p138
tp139
a(I298
I0
F-0.25
S'white'
p140
tp141
a(I298
I0
I0
S'cool'
p142
tp143
a(I338
I0
F0.375
S'extra'
p144
tp145
a(I338
I0
F-0.25
S'white'
p146
tp147
as(S'money'
p148
tp149
(lp150
(I65
I1
F0.75
S'worth'
p151
tp152
a(I120
I8
F0.625
S'necessary'
p153
tp154
a(I227
I2
F-0.25
S'let'
p155
tp156
a(I274
I7
F-0.375
S'simple'
p157
tp158
a(I274
I7
I0
S'mobile'
p159
tp160
as(S'micro'
p161
S'sd'
p162
tp163
(lp164
(I17
I0
I0
S'included'
p165
tp166
as(S'nice'
p167
tp168
(lp169
(I138
I1
I0
S'handy'
p170
tp171
a(I305
I0
F0.125
S'first'
p172
tp173
as(S'price'
p174
tp175
(lp176
(I6
I0
F0.625
S'fair'
p177
tp178
a(I8
I1
F0.625
S'convenient'
p179
tp180
a(I34
I1
I0
S'great'
p181
tp182
a(I115
I9
F-0.25
S'lower'
p183
tp184
a(I164
I0
F1.0
S'good'
p185
tp186
a(I164
I0
F1.0
S'good'
p187
tp188
a(I171
I3
I0
S'great'
p189
tp190
a(I227
I0
I0
S'high'
p191
tp192
a(I252
I0
F-0.25
S'low'
p193
tp194
a(I254
I2
F1.0
S'best'
p195
tp196
as(S'work'
p197
tp198
(lp199
(I240
I2
F1.0
S'good'
p200
tp201
a(I308
I13
I0
S'most'
p202
tp203
a(I319
I0
I0
S'useful'
p204
tp205
as(S'everything'
p206
tp207
(lp208
(I27
I7
I0
S'great'
p209
tp210
a(I149
I5
I0
S'more'
p211
tp212
a(I278
I4
F0.375
S'new'
p213
tp214
as(S'samsung'
p215
tp216
(lp217
(I2
I1
F0.5
S'recommend'
p218
tp219
a(I28
I11
F-0.125
S'mine'
p220
tp221
a(I81
I0
F0.25
S'original'
p222
tp223
a(I169
I0
F0.375
S'new'
p224
tp225
a(I221
I5
F1.0
S'good'
p226
tp227
a(I234
I0
F0.25
S'original'
p228
tp229
a(I286
I4
F-0.625
S'other'
p230
tp231
a(I291
I15
I0
S'next'
p232
tp233
a(I301
I5
I0
S'identical'
p234
tp235
a(I314
I2
F0.25
S'original'
p236
tp237
as(S'back'
p238
tp239
(lp240
(I33
I2
F-0.25
g136
tp241
a(I298
I0
F0.875
g138
tp242
a(I298
I0
F-0.25
g140
tp243
a(I338
I0
F0.375
g144
tp244
a(I338
I0
F-0.25
g146
tp245
as(S'camera'
p246
tp247
(lp248
(I8
I0
F1.0
S'good'
p249
tp250
a(I12
I3
F1.0
S'good'
p251
tp252
a(I42
I3
I0
S'great'
p253
tp254
a(I42
I4
F0.125
S'digital'
p255
tp256
a(I140
I2
F-0.75
S'secondary'
p257
tp258
a(I149
I2
I0
S'great'
p259
tp260
a(I158
I1
F1.0
S'good'
p261
tp262
a(I167
I0
F0.625
S'acceptable'
p263
tp264
a(I169
I1
I0
S'great'
p265
tp266
a(I176
I8
F0.625
S'decent'
p267
tp268
a(I221
I5
F1.0
S'good'
p269
tp270
a(I232
I0
I0
S'great'
p271
tp272
a(I232
I0
F-0.625
S'light'
p273
tp274
a(I238
I0
I0
S'android'
p275
tp276
a(I238
I0
F0.875
S'nice'
p277
tp278
a(I241
I0
F1.0
S'good'
p279
tp280
a(I260
I0
F-0.625
S'bad'
p281
tp282
a(I284
I0
F1.0
S'good'
p283
tp284
a(I336
I0
F0.875
S'nice'
p285
tp286
as(S'number'
p287
tp288
(lp289
(I68
I2
F-0.75
S'invalid'
p290
tp291
a(I68
I2
I0
S'real'
p292
tp293
a(I71
I0
F-0.625
S'other'
p294
tp295
a(I87
I1
I0
S'serial'
p296
tp297
a(I120
I1
I0
S'current'
p298
tp299
a(I277
I0
F-0.5
S'toll-free'
p300
tp301
as(S'screen'
p302
tp303
(lp304
(I49
I0
I0
S'general'
p305
tp306
a(I58
I1
F-0.375
S'smaller'
p307
tp308
a(I60
I6
F0.5
S'touch'
p309
tp310
a(I115
I2
F0.875
S'nice'
p311
tp312
a(I117
I8
F0.625
S'notice'
p313
tp314
a(I117
I14
I0
S'wish'
p315
tp316
a(I125
I3
I0
S'mobile'
p317
tp318
a(I129
I2
F0.5
S'touch'
p319
tp320
a(I131
I1
I0
S'great'
p321
tp322
a(I139
I1
F-0.75
S'bright'
p323
tp324
a(I139
I1
F0.25
S'sharp'
p325
tp326
a(I139
I3
F0.5
S'sensible'
p327
tp328
a(I143
I4
F1.0
S'good'
p329
tp330
a(I156
I0
F-0.375
S'small'
p331
tp332
a(I165
I14
I0
S'sensitive'
p333
tp334
a(I179
I2
F0.5
S'touch'
p335
tp336
a(I195
I2
F0.5
S'touch'
p337
tp338
a(I199
I2
F-0.75
S'bright'
p339
tp340
a(I220
I2
F0.25
S'responsive'
p341
tp342
a(I228
I1
F-0.375
S'crazy'
p343
tp344
a(I228
I2
F-0.375
S'crazy'
p345
tp346
a(I236
I7
F-0.375
S'black'
p347
tp348
a(I275
I0
I0
S'big'
p349
tp350
a(I275
I0
I0
S'big'
p351
tp352
a(I290
I5
I0
S'large'
p353
tp354
a(I303
I1
F0.875
S'nice'
p355
tp356
a(I322
I0
F-0.375
S'smaller'
p357
tp358
a(I334
I1
F1.0
S'good'
p359
tp360
as(S'data'
p361
S'plan'
p362
tp363
(lp364
(I175
I0
F0.625
S'perfect'
p365
tp366
as(S'n'
p367
S'costa'
p368
S'rica'
p369
tp370
(lp371
(I120
I5
F0.25
S'recent'
p372
tp373
a(I120
I7
I0
S'local'
p374
tp375
a(I120
I7
F-0.375
S'daily'
p376
tp377
as(S'quality'
p378
tp379
(lp380
(I3
I1
F1.0
S'good'
p381
tp382
a(I3
I1
F0.5
S'sensible'
p383
tp384
a(I3
I2
F0.625
S'acceptable'
p385
tp386
a(I39
I4
I0
S'great'
p387
tp388
a(I66
I0
F1.0
S'good'
p389
tp390
a(I86
I1
F1.0
S'good'
p391
tp392
a(I86
I1
F0.5
S'sensible'
p393
tp394
a(I86
I2
F0.625
S'acceptable'
p395
tp396
a(I102
I5
F0.625
S'major'
p397
tp398
a(I114
I2
I0
S'great'
p399
tp400
a(I149
I2
F-0.25
S'low'
p401
tp402
a(I153
I0
F1.0
S'good'
p403
tp404
a(I170
I0
F-0.375
S'manual'
p405
tp406
a(I205
I1
F-0.5
S'poor'
p407
tp408
a(I227
I1
F-0.25
S'lower'
p409
tp410
a(I240
I0
F0.875
S'happy'
p411
tp412
a(I305
I13
F0.875
S'nice'
p413
tp414
a(I308
I14
F1.0
S'good'
p415
tp416
as(S'memory'
p417
tp418
(lp419
(I1
I2
I0
S'internal'
p420
tp421
a(I12
I4
I0
S'internal'
p422
tp423
a(I12
I6
F-0.25
S'low'
p424
tp425
a(I12
I8
I0
g41
tp426
a(I15
I20
I0
S'full'
p427
tp428
a(I15
I22
I0
S'internal'
p429
tp430
a(I15
I22
I0
S'full'
p431
tp432
a(I30
I0
I0
S'internal'
p433
tp434
a(I39
I5
F-0.625
g43
tp435
a(I73
I4
I0
S'limited'
p436
tp437
a(I73
I4
I0
S'internal'
p438
tp439
a(I73
I5
I0
g45
tp440
a(I88
I0
F0.375
g47
tp441
a(I100
I1
F-0.25
S'low'
p442
tp443
a(I110
I0
F-0.375
S'small'
p444
tp445
a(I117
I1
F0.625
S'perfect'
p446
tp447
a(I117
I1
I0
S'more'
p448
tp449
a(I117
I1
I0
S'internal'
p450
tp451
a(I117
I2
I0
g49
tp452
a(I117
I14
I0
S'internal'
p453
tp454
a(I120
I11
I0
S'internal'
p455
tp456
a(I120
I11
F-0.375
S'small'
p457
tp458
a(I137
I0
F-0.75
S'little'
p459
tp460
a(I137
I0
I0
S'internal'
p461
tp462
a(I144
I0
I0
S'internal'
p463
tp464
a(I145
I0
I0
g51
tp465
a(I150
I0
I0
S'external'
p466
tp467
a(I165
I11
I0
S'internal'
p468
tp469
a(I165
I11
F-0.375
S'small'
p470
tp471
a(I172
I0
I0
S'internal'
p472
tp473
a(I182
I1
F0.125
S'first'
p474
tp475
a(I182
I1
F0.875
S'happy'
p476
tp477
a(I182
I1
I0
S'internal'
p478
tp479
a(I183
I0
I0
S'internal'
p480
tp481
a(I184
I0
F1.0
S'good'
p482
tp483
a(I184
I0
F-0.625
S'bad'
p484
tp485
a(I184
I0
I0
S'internal'
p486
tp487
a(I192
I0
I0
S'internal'
p488
tp489
a(I193
I0
F-0.25
S'low'
p490
tp491
a(I198
I1
F-0.375
S'small'
p492
tp493
a(I198
I1
I0
S'fast'
p494
tp495
a(I206
I0
I0
g53
tp496
a(I206
I0
F-0.375
g55
tp497
a(I211
I2
I0
S'internal'
p498
tp499
a(I211
I2
F-0.25
S'low'
p500
tp501
a(I211
I4
I0
S'internal'
p502
tp503
a(I211
I4
F0.5
S'possible'
p504
tp505
a(I229
I1
I0
S'internal'
p506
tp507
a(I232
I1
F-0.25
S'low'
p508
tp509
a(I238
I0
I0
S'internal'
p510
tp511
a(I238
I0
F-0.25
S'low'
p512
tp513
a(I241
I0
F1.0
S'better'
p514
tp515
a(I257
I5
F0.875
S'music'
p516
tp517
a(I265
I3
I0
g59
tp518
a(I265
I3
F-0.375
g61
tp519
a(I276
I0
I0
S'internal'
p520
tp521
a(I276
I0
I0
S'internal'
p522
tp523
a(I303
I3
I0
S'internal'
p524
tp525
a(I303
I4
I0
S'more'
p526
tp527
as(S'life'
p528
tp529
(lp530
(I12
I2
F1.0
g74
tp531
a(I15
I12
F-0.25
g80
tp532
a(I28
I2
F1.0
g82
tp533
a(I28
I2
F-0.5
g84
tp534
a(I28
I3
F-0.5
g86
tp535
a(I123
I8
I0
g92
tp536
a(I148
I0
F-0.5
S'poor'
p537
tp538
a(I188
I0
F1.0
g100
tp539
a(I319
I0
F-0.375
S'daily'
p540
tp541
as(S'mobile'
p542
tp543
(lp544
(I122
I3
I0
S'prepaid'
p545
tp546
a(I293
I4
I0
S'local'
p547
tp548
a(I308
I4
I0
S'canadian'
p549
tp550
as(S'galaxy'
p551
tp552
(lp553
(I0
I3
F-0.5
S'less'
p554
tp555
a(I0
I3
F-0.5
S'tried'
p556
tp557
as(S'language'
p558
tp559
(lp560
(I25
I1
I0
S'spanish'
p561
tp562
a(I44
I0
I0
S'chinese'
p563
tp564
a(I60
I3
I0
S'only'
p565
tp566
a(I60
I3
F-0.875
S'negative'
p567
tp568
a(I64
I1
I0
S'spanish'
p569
tp570
a(I121
I0
I0
S'spanish'
p571
tp572
a(I121
I0
F1.0
S'good'
p573
tp574
a(I194
I2
I0
S'chinese'
p575
tp576
a(I194
I2
I0
S'english'
p577
tp578
a(I199
I3
I0
S'russian'
p579
tp580
a(I199
I3
I0
S'english'
p581
tp582
a(I199
I3
I0
S'russian'
p583
tp584
a(I202
I0
I0
S'spanish'
p585
tp586
a(I224
I5
I0
S'english'
p587
tp588
a(I291
I13
F0.125
S'native'
p589
tp590
as(S'without'
p591
S'a'
p592
S'problem'
p593
tp594
(lp595
(I3
I4
I0
g13
tp596
a(I86
I4
I0
g23
tp597
a(I202
I0
F-0.625
g29
tp598
as(S'wifi'
p599
tp600
(lp601
(I60
I1
I0
S'more'
p602
tp603
a(I120
I7
F-0.625
S'free'
p604
tp605
a(I127
I2
F-0.625
S'free'
p606
tp607
a(I127
I3
F-0.625
S'free'
p608
tp609
a(I127
I3
F-0.625
S'free'
p610
tp611
a(I127
I3
F0.375
S'available'
p612
tp613
a(I187
I0
F0.875
S'important'
p614
tp615
as(S'of'
p616
S'nternal'
p617
S'memory'
p618
tp619
(lp620
(I12
I8
I0
g41
tp621
a(I15
I22
I0
g429
tp622
a(I15
I22
I0
g431
tp623
a(I30
I0
I0
g433
tp624
a(I144
I0
I0
g463
tp625
a(I172
I0
I0
g472
tp626
a(I184
I0
F1.0
g482
tp627
a(I184
I0
F-0.625
g484
tp628
a(I184
I0
I0
g486
tp629
a(I206
I0
I0
g53
tp630
a(I206
I0
F-0.375
g55
tp631
a(I211
I2
I0
g498
tp632
a(I211
I2
F-0.25
g500
tp633
a(I229
I1
I0
g506
tp634
a(I303
I3
I0
g524
tp635
as(S'costa'
p636
S'rica'
p637
tp638
(lp639
(I120
I5
F0.25
g372
tp640
a(I120
I7
I0
g374
tp641
a(I120
I7
F-0.375
g376
tp642
as(S'many'
p643
S'apps'
p644
tp645
(lp646
(I28
I1
F-0.875
S'load'
p647
tp648
a(I28
I1
I0
S'many'
p649
tp650
a(I117
I2
I0
S'many'
p651
tp652
a(I144
I0
I0
S'many'
p653
tp654
a(I183
I0
I0
S'many'
p655
tp656
a(I189
I2
I0
S'many'
p657
tp658
a(I257
I8
I0
S'many'
p659
tp660
a(I301
I0
I0
S'many'
p661
tp662
as(S'seller'
p663
tp664
(lp665
(I33
I3
I0
S'different'
p666
tp667
a(I44
I2
F0.5
S'careful'
p668
tp669
a(I44
I2
F1.0
S'good'
p670
tp671
a(I247
I9
F1.0
S'good'
p672
tp673
a(I293
I5
F-0.625
S'want'
p674
tp675
a(I308
I11
F0.875
S'happy'
p676
tp677
as(S'android'
p678
tp679
(lp680
(I7
I0
F0.125
S'first'
p681
tp682
a(I18
I0
F0.375
S'new'
p683
tp684
a(I78
I3
I0
S'basic'
p685
tp686
a(I123
I3
F0.125
S'first'
p687
tp688
a(I127
I0
F0.125
S'first'
p689
tp690
a(I149
I4
I0
S'basic'
p691
tp692
a(I158
I0
I0
S'great'
p693
tp694
a(I216
I1
F0.125
S'first'
p695
tp696
a(I334
I2
F0.125
S'first'
p697
tp698
as(S'works'
p699
tp700
(lp701
(I3
I3
I0
S'great'
p702
tp703
a(I10
I1
I0
S'great'
p704
tp705
a(I12
I0
I0
S'great'
p706
tp707
a(I22
I0
F0.625
S'perfect'
p708
tp709
a(I22
I0
I0
S'great'
p710
tp711
a(I27
I2
I0
S'great'
p712
tp713
a(I86
I3
I0
S'great'
p714
tp715
a(I139
I2
I0
S'great'
p716
tp717
a(I275
I2
I0
S'butter'
p718
tp719
as(g367
S'r'
p720
S'pocket'
p721
tp722
(lp723
(I254
I0
I0
S'big'
p724
tp725
a(I254
I0
F-0.375
S'small'
p726
tp727
as(S'product'
p728
tp729
(lp730
(I19
I0
F0.75
S'worth'
p731
tp732
a(I48
I5
F0.375
S'new'
p733
tp734
a(I48
I5
F0.375
S'new'
p735
tp736
a(I66
I0
I0
S'many'
p737
tp738
a(I72
I0
F1.0
S'good'
p739
tp740
a(I79
I0
I0
S'great'
p741
tp742
a(I80
I0
F1.0
S'good'
p743
tp744
a(I164
I0
F1.0
S'good'
p745
tp746
a(I184
I0
I0
S'great'
p747
tp748
a(I199
I5
I0
S'general'
p749
tp750
a(I199
I5
F0.875
S'happy'
p751
tp752
a(I239
I0
F0.375
S'new'
p753
tp754
a(I242
I2
F1.0
S'good'
p755
tp756
a(I250
I0
I0
S'great'
p757
tp758
a(I251
I0
F1.0
S'good'
p759
tp760
a(I279
I0
F1.0
S'good'
p761
tp762
as(S'think'
p763
tp764
(lp765
(I198
I1
I0
S'only'
p766
tp767
as(S'battery'
p768
tp769
(lp770
(I3
I4
F-0.75
g72
tp771
a(I13
I0
F0.375
g76
tp772
a(I13
I0
F1.0
g78
tp773
a(I15
I11
F0.375
S'new'
p774
tp775
a(I15
I13
F-0.75
S'dead'
p776
tp777
a(I26
I4
F0.375
S'new'
p778
tp779
a(I43
I0
I0
S'full'
p780
tp781
a(I58
I1
F0.125
S'last'
p782
tp783
a(I86
I4
F-0.75
g88
tp784
a(I106
I2
I0
S'full'
p785
tp786
a(I108
I0
F-0.5
g90
tp787
a(I132
I1
F-0.75
g94
tp788
a(I139
I1
F1.0
g96
tp789
a(I139
I1
I0
g98
tp790
a(I211
I4
F0.5
S'stronger'
p791
tp792
a(I255
I1
F1.0
S'good'
p793
tp794
a(I255
I1
I0
S'charged'
p795
tp796
a(I330
I1
F1.0
g102
tp797
a(I331
I1
F0.375
S'new'
p798
tp799
a(I336
I2
F1.0
S'better'
p800
tp801
as(S'smart'
p802
tp803
(lp804
(I32
I0
F-0.625
S'other'
p805
tp806
a(I62
I2
F1.0
S'best'
p807
tp808
a(I99
I0
F1.0
S'good'
p809
tp810
a(I99
I0
F0.125
S'solid'
p811
tp812
a(I99
I2
I0
S'great'
p813
tp814
a(I99
I2
F0.375
S'new'
p815
tp816
a(I102
I4
F-0.625
S'other'
p817
tp818
a(I150
I0
F0.125
S'first'
p819
tp820
a(I169
I1
I0
S'great'
p821
tp822
a(I180
I0
F-0.625
S'other'
p823
tp824
a(I281
I0
F0.125
S'first'
p825
tp826
a(I290
I6
F0.125
S'first'
p827
tp828
a(I291
I0
F0.125
S'first'
p829
tp830
a(I296
I0
F0.125
S'first'
p831
tp832
as(S'samsung'
p833
S's5830'
p834
S'galaxy'
p835
tp836
(lp837
(I169
I0
F0.375
g224
tp838
as(S'english'
p839
tp840
(lp841
(I308
I4
I0
S'canadian'
p842
tp843
a(I308
I6
I0
S'canadian'
p844
tp845
a(I308
I7
I0
S'canadian'
p846
tp847
as(S'samsung'
p848
S'galaxy'
p849
tp850
(lp851
(I81
I0
F0.25
g222
tp852
a(I169
I0
F0.375
g224
tp853
a(I221
I5
F1.0
g226
tp854
a(I286
I4
F-0.625
g230
tp855
a(I301
I5
I0
g234
tp856
as(S'cell'
p857
tp858
(lp859
(I173
I1
F0.875
S'happy'
p860
tp861
a(I180
I0
F1.0
S'good'
p862
tp863
a(I256
I5
F-0.25
S'past'
p864
tp865
a(I261
I1
F0.375
S'new'
p866
tp867
a(I267
I0
F1.0
S'good'
p868
tp869
a(I336
I0
F1.0
S'good'
p870
tp871
as(S'calls'
p872
tp873
(lp874
(I15
I15
F0.75
S'receive'
p875
tp876
a(I106
I1
I0
S'hear'
p877
tp878
a(I120
I10
F0.125
S'able'
p879
tp880
a(I195
I2
F1.0
S'good'
p881
tp882
a(I205
I1
I0
S'soft'
p883
tp884
a(I235
I1
I0
S'great'
p885
tp886
as(S'thing'
p887
tp888
(lp889
(I3
I4
F-0.375
S'simple'
p890
tp891
a(I3
I4
F0.375
S'honest'
p892
tp893
a(I3
I4
I0
S'only'
p894
tp895
a(I3
I4
F-0.875
S'negative'
p896
tp897
a(I4
I4
I0
S'weird'
p898
tp899
a(I37
I5
I0
S'only'
p900
tp901
a(I59
I0
F-0.625
S'bad'
p902
tp903
a(I86
I4
F-0.375
S'simple'
p904
tp905
a(I86
I4
F0.375
S'honest'
p906
tp907
a(I86
I4
I0
S'only'
p908
tp909
a(I86
I4
F-0.875
S'negative'
p910
tp911
a(I100
I1
I0
S'only'
p912
tp913
a(I168
I3
I0
S'only'
p914
tp915
a(I281
I1
I0
S'only'
p916
tp917
a(I336
I2
I0
S'only'
p918
tp919
as(S'sim'
p920
S'card'
p921
tp922
(lp923
(I27
I4
I0
S'local'
p924
tp925
a(I60
I5
F0.625
S'easy'
p926
tp927
a(I168
I1
I0
S'spanish'
p928
tp929
a(I246
I3
F-0.5
S'sure'
p930
tp931
a(I257
I6
F-0.625
S'other'
p932
tp933
a(I273
I3
F0.25
S'larger'
p934
tp935
a(I277
I0
I0
S'different'
p936
tp937
as(S'sd'
p938
S'card'
p939
tp940
(lp941
(I33
I4
I0
S'sd'
p942
tp943
a(I165
I13
I0
S'external'
p944
tp945
a(I206
I0
I0
S'external'
p946
tp947
as(S'samsung'
p948
S'galaxy'
p949
S'ace'
p950
tp951
(lp952
(I81
I0
F0.25
g222
tp953
a(I169
I0
F0.375
g224
tp954
as(S'call'
p955
tp956
(lp957
(I6
I0
F1.0
S'good'
p958
tp959
a(I28
I15
F-0.5
S'international'
p960
tp961
a(I105
I1
F-0.75
S'difficult'
p962
tp963
a(I120
I2
I0
S'many'
p964
tp965
as(S'happy'
p966
tp967
(lp968
(I297
I3
F-0.125
S'overall'
p969
tp970
as(S'data'
p971
tp972
(lp973
(I16
I0
I0
S'great'
p974
tp975
a(I139
I1
I0
S'mobile'
p976
tp977
a(I144
I0
I0
S'full'
p978
tp979
a(I175
I0
F0.625
g365
tp980
a(I332
I0
F0.5
S'personal'
p981
tp982
as(S'time'
p983
tp984
(lp985
(I13
I1
I0
S'same'
p986
tp987
a(I28
I19
I0
S'next'
p988
tp989
a(I34
I1
F0.125
S'spent'
p990
tp991
a(I39
I0
F0.125
S'first'
p992
tp993
a(I50
I3
I0
S'third'
p994
tp995
a(I58
I1
F-0.5
S'long'
p996
tp997
a(I143
I1
F0.125
S'first'
p998
tp999
a(I171
I6
F0.125
S'first'
p1000
tp1001
a(I176
I5
I0
S'most'
p1002
tp1003
a(I216
I3
F0.125
S'first'
p1004
tp1005
a(I228
I1
F0.125
S'first'
p1006
tp1007
a(I239
I0
F-0.5
S'open'
p1008
tp1009
a(I272
I0
F1.0
S'good'
p1010
tp1011
a(I272
I0
F0.125
S'first'
p1012
tp1013
a(I273
I0
F-0.5
S'long'
p1014
tp1015
a(I283
I0
I0
S'same'
p1016
tp1017
as(S'smartphone'
p1018
tp1019
(lp1020
(I8
I0
F0.375
S'complete'
p1021
tp1022
a(I117
I12
F-0.5
S'actual'
p1023
tp1024
a(I143
I0
F0.125
S'first'
p1025
tp1026
a(I143
I6
F0.125
S'first'
p1027
tp1028
a(I214
I0
F1.0
S'good'
p1029
tp1030
a(I221
I1
F0.125
S'first'
p1031
tp1032
a(I247
I0
F0.125
S'first'
p1033
tp1034
a(I283
I0
F0.5
S'functional'
p1035
tp1036
a(I322
I0
F1.0
S'good'
p1037
tp1038
as(S'card'
p1039
tp1040
(lp1041
(I33
I4
I0
g942
tp1042
a(I60
I5
F0.625
g926
tp1043
a(I261
I1
I0
g57
tp1044
as(S'love'
p1045
tp1046
(lp1047
(I2
I0
I0
S'mobile'
p1048
tp1049
as(S'size'
p1050
tp1051
(lp1052
(I12
I0
F1.0
S'good'
p1053
tp1054
a(I12
I0
I0
S'same'
p1055
tp1056
a(I117
I1
I0
S'screen'
p1057
tp1058
a(I149
I0
F0.375
S'similar'
p1059
tp1060
a(I165
I8
F0.625
S'perfect'
p1061
tp1062
a(I169
I1
F0.625
S'perfect'
p1063
tp1064
a(I198
I1
F0.625
S'easy'
p1065
tp1066
a(I198
I1
I0
S'funny'
p1067
tp1068
a(I246
I4
I0
S'same'
p1069
tp1070
a(I269
I0
F1.0
S'good'
p1071
tp1072
a(I269
I0
I0
S'useful'
p1073
tp1074
as(S'support'
p1075
tp1076
(lp1077
(I220
I4
F0.5
S'told'
p1078
tp1079
a(I220
I4
F0.5
S'technical'
p1080
tp1081
a(I332
I3
F0.125
S'able'
p1082
tp1083
a(I336
I1
F1.0
S'good'
p1084
tp1085
as(S'better'
p1086
tp1087
(lp1088
(I275
I5
F0.375
S'much'
p1089
tp1090
a(I275
I5
I0
S'more'
p1091
tp1092
as(S'months'
p1093
tp1094
(lp1095
(I3
I0
F0.375
S'honest'
p1096
tp1097
a(I13
I0
I0
S'mobile'
p1098
tp1099
a(I86
I0
F0.375
S'honest'
p1100
tp1101
a(I119
I1
I0
S'few'
p1102
tp1103
a(I131
I0
I0
S'few'
p1104
tp1105
a(I176
I4
I0
S'few'
p1106
tp1107
a(I176
I12
I0
S'few'
p1108
tp1109
a(I181
I0
I0
S'more'
p1110
tp1111
a(I235
I0
F0.125
S'first'
p1112
tp1113
as(S'apps'
p1114
tp1115
(lp1116
(I0
I1
I0
S'only'
p1117
tp1118
a(I1
I3
I0
S'few'
p1119
tp1120
a(I1
I3
I0
S'full'
p1121
tp1122
a(I13
I1
I0
S'few'
p1123
tp1124
a(I13
I1
I0
S'different'
p1125
tp1126
a(I19
I2
I0
S'install'
p1127
tp1128
a(I19
I2
F0.375
S'new'
p1129
tp1130
a(I20
I0
I0
S'update'
p1131
tp1132
a(I28
I1
F-0.875
g647
tp1133
a(I28
I1
I0
g649
tp1134
a(I37
I4
F0.625
S'easy'
p1135
tp1136
a(I48
I2
I0
S'owner'
p1137
tp1138
a(I60
I6
I0
S'android'
p1139
tp1140
a(I73
I5
F-0.625
S'other'
p1141
tp1142
a(I117
I2
I0
g651
tp1143
a(I119
I3
F-0.125
S'alternative'
p1144
tp1145
a(I127
I6
I0
S'great'
p1146
tp1147
a(I128
I1
F0.375
S'standby'
p1148
tp1149
a(I144
I0
I0
g653
tp1150
a(I157
I0
I0
S'most'
p1151
tp1152
a(I165
I10
F-0.625
S'free'
p1153
tp1154
a(I183
I0
I0
g655
tp1155
a(I186
I3
F0.125
S'able'
p1156
tp1157
a(I189
I2
I0
g657
tp1158
a(I203
I1
F0.625
S'easy'
p1159
tp1160
a(I203
I1
F1.0
S'good'
p1161
tp1162
a(I211
I2
I0
S'download'
p1163
tp1164
a(I211
I2
I0
S'most'
p1165
tp1166
a(I211
I3
I0
S'most'
p1167
tp1168
a(I238
I0
F-0.625
S'free'
p1169
tp1170
a(I257
I6
F0.5
S'compatible'
p1171
tp1172
a(I257
I6
I0
S'few'
p1173
tp1174
a(I257
I8
I0
g659
tp1175
a(I268
I2
F-0.625
S'other'
p1176
tp1177
a(I297
I2
I0
S'slower'
p1178
tp1179
a(I297
I2
I0
S'more'
p1180
tp1181
a(I301
I0
I0
g661
tp1182
a(I325
I1
F0.875
S'important'
p1183
tp1184
a(I336
I0
F0.375
S'available'
p1185
tp1186
as(S'nternal'
p1187
S'memory'
p1188
tp1189
(lp1190
(I1
I2
I0
g420
tp1191
a(I12
I4
I0
g422
tp1192
a(I12
I8
I0
g41
tp1193
a(I15
I20
I0
g427
tp1194
a(I15
I22
I0
g429
tp1195
a(I15
I22
I0
g431
tp1196
a(I30
I0
I0
g433
tp1197
a(I73
I4
I0
g436
tp1198
a(I73
I4
I0
g438
tp1199
a(I73
I5
I0
g45
tp1200
a(I117
I1
F0.625
g446
tp1201
a(I117
I1
I0
g448
tp1202
a(I117
I1
I0
g450
tp1203
a(I117
I2
I0
g49
tp1204
a(I117
I14
I0
g453
tp1205
a(I120
I11
I0
g455
tp1206
a(I120
I11
F-0.375
g457
tp1207
a(I137
I0
F-0.75
g459
tp1208
a(I137
I0
I0
g461
tp1209
a(I144
I0
I0
g463
tp1210
a(I165
I11
I0
g468
tp1211
a(I165
I11
F-0.375
g470
tp1212
a(I172
I0
I0
g472
tp1213
a(I182
I1
F0.125
g474
tp1214
a(I182
I1
F0.875
g476
tp1215
a(I182
I1
I0
g478
tp1216
a(I183
I0
I0
g480
tp1217
a(I184
I0
F1.0
g482
tp1218
a(I184
I0
F-0.625
g484
tp1219
a(I184
I0
I0
g486
tp1220
a(I192
I0
I0
g488
tp1221
a(I206
I0
I0
g53
tp1222
a(I206
I0
F-0.375
g55
tp1223
a(I211
I2
I0
g498
tp1224
a(I211
I2
F-0.25
g500
tp1225
a(I211
I4
I0
g502
tp1226
a(I211
I4
F0.5
g504
tp1227
a(I229
I1
I0
g506
tp1228
a(I238
I0
I0
g510
tp1229
a(I238
I0
F-0.25
g512
tp1230
a(I265
I3
I0
g59
tp1231
a(I265
I3
F-0.375
g61
tp1232
a(I276
I0
I0
g520
tp1233
a(I276
I0
I0
g522
tp1234
a(I303
I3
I0
g524
tp1235
as(S'days'
p1236
tp1237
(lp1238
(I3
I0
F0.25
S'familiar'
p1239
tp1240
a(I86
I0
F0.25
S'familiar'
p1241
tp1242
a(I105
I2
I0
S'few'
p1243
tp1244
a(I161
I0
F0.25
S'familiar'
p1245
tp1246
a(I235
I3
I0
S'least'
p1247
tp1248
a(I274
I5
I0
S'full'
p1249
tp1250
as(S'touch'
p1251
S'screen'
p1252
tp1253
(lp1254
(I49
I0
I0
g305
tp1255
a(I60
I6
F0.5
g309
tp1256
a(I129
I2
F0.5
g319
tp1257
a(I139
I2
I0
S'older'
p1258
tp1259
a(I143
I4
F1.0
g329
tp1260
a(I165
I14
I0
g333
tp1261
a(I179
I2
F0.5
g335
tp1262
a(I186
I3
I0
S'great'
p1263
tp1264
a(I195
I2
F0.5
g337
tp1265
a(I275
I0
I0
g349
tp1266
a(I275
I0
I0
g351
tp1267
as(S'looks'
p1268
tp1269
(lp1270
(I42
I3
I0
S'great'
p1271
tp1272
a(I131
I2
F0.375
S'new'
p1273
tp1274
as(S'galaxy'
p1275
S'ace'
p1276
tp1277
(lp1278
(I0
I3
F-0.5
g554
tp1279
a(I0
I3
F-0.5
g556
tp1280
a(I311
I1
I0
S'galaxy'
p1281
tp1282
as.