(dp0
(S'a'
p1
S'long'
p2
S'time'
p3
tp4
(lp5
(I105
I46
F-0.5
S'long'
p6
I12
tp7
a(I125
I19
F-0.5
S'long'
p8
I12
tp9
a(I125
I19
F0.125
S'last'
p10
I12
tp11
a(I183
I6
F-0.5
S'long'
p12
I12
tp13
a(I190
I6
F-0.5
S'long'
p14
I12
tp15
a(I216
I2
F-0.5
S'long'
p16
I12
tp17
as(S'battery'
p18
S'life'
p19
tp20
(lp21
(I17
I27
F-0.75
S'short'
p22
I1
tp23
a(I19
I5
F-0.5
S'poor'
p24
I1
tp25
a(I26
I21
F-0.5
S'poor'
p26
I1
tp27
a(I40
I0
F1.0
S'good'
p28
I1
tp29
a(I41
I12
I0
S'great'
p30
I1
tp31
a(I42
I14
F1.0
S'good'
p32
I1
tp33
a(I43
I3
F1.0
S'good'
p34
I1
tp35
a(I71
I5
F-0.75
S'short'
p36
I1
tp37
a(I86
I11
F1.0
S'good'
p38
I1
tp39
a(I87
I4
F-0.75
S'stupid'
p40
I1
tp41
a(I105
I47
F-0.875
S'worst'
p42
I1
tp43
a(I120
I15
F0.375
S'extra'
p44
I1
tp45
a(I129
I3
F0.375
S'extra'
p46
I1
tp47
a(I132
I59
F1.0
S'good'
p48
I1
tp49
a(I146
I5
I0
S'close'
p50
I1
tp51
a(I146
I5
I0
S'nominal'
p52
I1
tp53
a(I169
I8
F1.0
S'good'
p54
I1
tp55
a(I187
I28
I0
S'great'
p56
I1
tp57
a(I191
I0
F-0.625
S'bad'
p58
I1
tp59
a(I193
I43
I0
S'standard'
p60
I1
tp61
a(I216
I17
I0
S'great'
p62
I1
tp63
a(I216
I17
F-0.625
S'bad'
p64
I1
tp65
a(I17
I27
F-0.75
g22
I19
tp66
a(I40
I0
F1.0
g28
I19
tp67
a(I41
I12
I0
g30
I19
tp68
a(I43
I3
F1.0
g34
I19
tp69
a(I71
I5
F-0.75
g36
I19
tp70
a(I86
I11
F1.0
g38
I19
tp71
a(I96
I12
F-0.5
S'sure'
p72
I19
tp73
a(I105
I47
F-0.875
g42
I19
tp74
a(I146
I5
I0
g50
I19
tp75
a(I146
I5
I0
g52
I19
tp76
a(I187
I28
I0
g56
I19
tp77
a(I191
I0
F-0.625
g58
I19
tp78
a(I193
I43
I0
g60
I19
tp79
a(I216
I17
I0
g62
I19
tp80
a(I216
I17
F-0.625
g64
I19
tp81
as(S'service'
p82
tp83
(lp84
(I15
I2
F1.0
S'good'
p85
I16
tp86
a(I36
I9
I0
S'internet'
p87
I16
tp88
a(I38
I47
F-0.5
S'unavailable'
p89
I16
tp90
a(I59
I2
I0
S'net'
p91
I16
tp92
a(I62
I13
I0
S'quick'
p93
I16
tp94
a(I62
I13
F0.875
S'courteous'
p95
I16
tp96
a(I112
I21
F1.0
S'best'
p97
I16
tp98
as(S'iphone'
p99
tp100
(lp101
(I17
I26
I0
S'old'
p102
I1
tp103
a(I40
I0
F-0.375
S'top'
p104
I1
tp105
a(I41
I10
F0.125
S'first'
p106
I1
tp107
a(I41
I16
I0
S'old'
p108
I1
tp109
a(I76
I8
F0.25
S'bigger'
p110
I1
tp111
a(I132
I0
F-0.375
S'top'
p112
I1
tp113
a(I183
I6
F1.0
S'better'
p114
I1
tp115
a(I216
I24
F-0.375
S'top'
p116
I1
tp117
as(g1
S'front'
p118
S'camera'
p119
tp120
(lp121
(I26
I42
F-0.75
S'difficult'
p122
I0
tp123
a(I141
I3
I0
S'rear'
p124
I0
tp125
a(I141
I3
F-0.625
S'average'
p126
I0
tp127
as(S'internet'
p128
tp129
(lp130
(I12
I6
F0.875
S'important'
p131
I6
tp132
a(I43
I1
F0.125
S'able'
p133
I6
tp134
a(I58
I11
F0.75
S'due'
p135
I6
tp136
a(I175
I13
F-0.125
S'slow'
p137
I6
tp138
a(I190
I1
F0.125
S'able'
p139
I6
tp140
a(I193
I22
I0
S'fast'
p141
I6
tp142
as(S'mobile'
p143
tp144
(lp145
(I18
I4
F0.875
S'nice'
p146
I0
tp147
a(I203
I8
F1.0
S'good'
p148
I0
tp149
as(S'8'
p150
S'mp'
p151
S'camera'
p152
tp153
(lp154
(I14
I10
F1.0
S'good'
p155
I0
tp156
a(I14
I10
F1.0
S'good'
p157
I0
tp158
a(I118
I5
F1.0
S'good'
p159
I0
tp160
a(I187
I18
I0
S'great'
p161
I0
tp162
as(S'htc'
p163
S'a9192'
p164
tp165
(lp166
(I12
I6
F1.0
S'better'
p167
I0
tp168
a(I193
I0
F-0.625
S'other'
p169
I0
tp170
as(S'signal'
p171
tp172
(lp173
(I26
I53
F0.625
S'easy'
p174
I1
tp175
a(I71
I6
F-0.5
S'poor'
p176
I1
tp177
a(I74
I4
F-0.5
S'weak'
p178
I1
tp179
a(I83
I0
F1.0
S'good'
p180
I1
tp181
a(I118
I4
F1.0
S'good'
p182
I1
tp183
a(I125
I22
F-0.5
S'poor'
p184
I1
tp185
a(I137
I9
I0
S'predictable'
p186
I1
tp187
a(I138
I84
F0.25
S'original'
p188
I1
tp189
a(I138
I84
F-0.625
S'bad'
p190
I1
tp191
as(S'seller'
p192
tp193
(lp194
(I2
I36
F0.5
S'careful'
p195
I19
tp196
a(I8
I23
F-0.625
S'free'
p197
I19
tp198
a(I12
I12
I0
S'wish'
p199
I19
tp200
a(I18
I3
F-0.125
S'overall'
p201
I19
tp202
a(I18
I3
I0
S'great'
p203
I19
tp204
a(I34
I3
I0
S'great'
p205
I19
tp206
a(I38
I10
F0.25
S'helpful'
p207
I19
tp208
a(I47
I64
F-0.625
S'bad'
p209
I19
tp210
a(I105
I23
F0.25
S'helpful'
p211
I19
tp212
a(I137
I0
F-0.125
S'overall'
p213
I19
tp214
a(I138
I22
F0.125
S'first'
p215
I19
tp216
a(I138
I37
F0.5
S'second'
p217
I19
tp218
a(I169
I16
I0
S'later'
p219
I19
tp220
a(I169
I16
F0.5
S'willing'
p221
I19
tp222
a(I193
I14
F-0.25
S'late'
p223
I19
tp224
a(I193
I60
F1.0
S'good'
p225
I19
tp226
as(S'android'
p227
tp228
(lp229
(I4
I10
I0
S'old'
p230
I0
tp231
a(I18
I4
I0
S'more'
p232
I0
tp233
a(I18
I4
F-0.5
S'heavy'
p234
I0
tp235
a(I140
I1
F0.125
S'first'
p236
I0
tp237
a(I193
I40
F1.0
S'best'
p238
I0
tp239
a(I193
I42
I0
S'most'
p240
I0
tp241
a(I203
I10
F1.0
S'good'
p242
I0
tp243
a(I215
I7
F0.125
S'popular'
p244
I0
tp245
a(I224
I12
F-0.625
S'free'
p246
I0
tp247
a(I224
I12
F-0.75
S'little'
p248
I0
tp249
a(I225
I10
F0.125
S'able'
p250
I0
tp251
a(I225
I10
I0
S'latest'
p252
I0
tp253
as(S'htc'
p254
S'inspire'
p255
tp256
(lp257
(I41
I0
F0.375
S'new'
p258
I0
tp259
a(I105
I32
F0.125
S'able'
p260
I0
tp261
a(I108
I21
I0
S'great'
p262
I0
tp263
a(I138
I0
F0.375
S'new'
p264
I0
tp265
a(I157
I16
I0
S'fastest'
p266
I0
tp267
a(I193
I0
F-0.625
g169
I0
tp268
a(I199
I10
I0
S'indicate'
p269
I0
tp270
a(I199
I20
F-0.125
S'overall'
p271
I0
tp272
a(I94
I6
F-0.125
S'slow'
p273
I7
tp274
a(I108
I21
I0
g262
I7
tp275
a(I108
I30
F0.375
S'new'
p276
I7
tp277
a(I112
I16
F1.0
S'better'
p278
I7
tp279
a(I138
I12
F0.375
S'new'
p280
I7
tp281
as(S'network'
p282
tp283
(lp284
(I2
I13
I0
S'mobile'
p285
I0
tp286
a(I2
I13
F0.125
S'able'
p287
I0
tp288
a(I2
I16
I0
S'mobile'
p289
I0
tp290
a(I2
I17
I0
S'mobile'
p291
I0
tp292
a(I2
I20
I0
S'mobile'
p293
I0
tp294
a(I48
I7
I0
S'great'
p295
I0
tp296
a(I109
I7
I0
S'mobile'
p297
I0
tp298
a(I109
I7
F-0.625
S'bad'
p299
I0
tp300
a(I125
I24
I0
S'same'
p301
I0
tp302
a(I137
I6
F0.375
S'new'
p303
I0
tp304
a(I146
I22
F-0.625
S'want'
p305
I0
tp306
a(I180
I6
I0
S'mobile'
p307
I0
tp308
as(S'calls'
p309
tp310
(lp311
(I47
I5
F-0.25
S'hang'
p312
I0
tp313
a(I47
I24
F0.25
S'wind'
p314
I0
tp315
a(I143
I28
F-0.5
S'international'
p316
I0
tp317
a(I153
I11
F-0.5
S'international'
p318
I0
tp319
a(I159
I0
F0.125
S'first'
p320
I0
tp321
a(I173
I0
F-0.5
S'miss'
p322
I0
tp323
as(S'sim'
p324
S'card'
p325
tp326
(lp327
(I7
I14
F0.125
S'able'
p328
I0
tp329
a(I24
I19
I0
S'next'
p330
I0
tp331
a(I38
I8
I0
S'old'
p332
I0
tp333
a(I82
I34
F0.125
S'able'
p334
I0
tp335
a(I82
I45
F-0.125
S'foreign'
p336
I0
tp337
a(I138
I50
F0.375
S'new'
p338
I0
tp339
a(I181
I3
I0
S'many'
p340
I0
tp341
a(I212
I1
F-0.5
S'sure'
p342
I0
tp343
a(I225
I13
F0.625
S'necessary'
p344
I0
tp345
as(S'remove'
p346
S'battery'
p347
tp348
(lp349
(I143
I14
F-0.75
S'panic'
p350
I0
tp351
a(I215
I11
F0.125
S'last'
p352
I0
tp353
as(S'front'
p354
S'facing'
p355
S'camera'
p356
tp357
(lp358
(I26
I42
F-0.75
g122
I0
tp359
a(I3
I12
F-0.375
S'beast'
p360
I1
tp361
a(I14
I10
F1.0
g155
I1
tp362
a(I14
I10
F1.0
g157
I1
tp363
a(I26
I42
F-0.75
g122
I1
tp364
a(I34
I37
F0.25
S'sharp'
p365
I1
tp366
a(I38
I39
I0
S'great'
p367
I1
tp368
a(I47
I1
I0
S'great'
p369
I1
tp370
a(I62
I11
F1.0
S'better'
p371
I1
tp372
a(I69
I18
I0
S'great'
p373
I1
tp374
a(I69
I18
I0
S'great'
p375
I1
tp376
a(I92
I28
I0
S'great'
p377
I1
tp378
a(I105
I54
F0.875
S'nice'
p379
I1
tp380
a(I118
I5
F1.0
g159
I1
tp381
a(I141
I3
I0
g124
I1
tp382
a(I141
I3
F-0.625
g126
I1
tp383
a(I143
I12
I-100
S'sure.-the'
p384
I1
tp385
a(I143
I12
F0.125
S'capable'
p386
I1
tp387
a(I143
I12
F0.125
S'digital'
p388
I1
tp389
a(I154
I7
F-0.875
S'worst'
p390
I1
tp391
a(I154
I9
F1.0
S'better'
p392
I1
tp393
a(I164
I5
I0
S'great'
p394
I1
tp395
a(I178
I4
F1.0
S'good'
p396
I1
tp397
a(I180
I2
I0
S'great'
p398
I1
tp399
a(I187
I12
F1.0
S'good'
p400
I1
tp401
a(I187
I18
I0
g161
I1
tp402
a(I205
I4
F-0.5
S'poor'
p403
I1
tp404
a(I210
I2
F1.0
S'good'
p405
I1
tp406
as(g1
S'new'
p407
S'battery'
p408
tp409
(lp410
(I26
I0
F-0.75
S'damaged'
p411
I1
tp412
a(I88
I0
F0.375
S'new'
p413
I1
tp414
a(I88
I0
F0.375
S'new'
p415
I1
tp416
a(I94
I17
F0.375
S'new'
p417
I1
tp418
a(I130
I8
F-0.75
S'unable'
p419
I1
tp420
a(I130
I8
F0.375
S'new'
p421
I1
tp422
a(I132
I54
F0.125
S'able'
p423
I1
tp424
a(I132
I54
F0.375
S'new'
p425
I1
tp426
a(I132
I54
F0.75
S'receive'
p427
I1
tp428
a(I132
I57
F0.375
S'new'
p429
I1
tp430
a(I138
I68
F0.375
S'new'
p431
I1
tp432
a(I178
I8
F0.375
S'new'
p433
I1
tp434
a(I183
I16
F0.375
S'new'
p435
I1
tp436
a(I193
I13
F0.375
S'new'
p437
I1
tp438
a(I14
I2
F0.125
S'first'
p439
I15
tp440
a(I19
I5
F-0.5
g24
I15
tp441
a(I23
I1
I0
S'great'
p442
I15
tp443
a(I23
I1
F0.625
S'easy'
p444
I15
tp445
a(I26
I0
F-0.75
g411
I15
tp446
a(I26
I21
F-0.5
g26
I15
tp447
a(I38
I27
F1.0
S'good'
p448
I15
tp449
a(I39
I1
F0.125
S'last'
p450
I15
tp451
a(I41
I13
F0.625
S'replaceable'
p452
I15
tp453
a(I41
I13
F0.5
S'second'
p454
I15
tp455
a(I42
I14
F1.0
g32
I15
tp456
a(I47
I35
I0
S'great'
p457
I15
tp458
a(I50
I8
F-0.75
S'dead'
p459
I15
tp460
a(I55
I10
F-0.5
S'less'
p461
I15
tp462
a(I60
I8
I0
S'internal'
p463
I15
tp464
a(I64
I12
F0.5
S'so-so'
p465
I15
tp466
a(I69
I0
F0.625
S'easy'
p467
I15
tp468
a(I69
I1
F0.5
S'careful'
p469
I15
tp470
a(I87
I4
F-0.75
g40
I15
tp471
a(I88
I0
F0.375
g413
I15
tp472
a(I88
I0
F0.375
g415
I15
tp473
a(I94
I17
F0.375
g417
I15
tp474
a(I96
I2
F1.0
S'good'
p475
I15
tp476
a(I108
I8
I0
S'mobile'
p477
I15
tp478
a(I108
I39
F0.125
S'last'
p479
I15
tp480
a(I120
I15
F0.375
g44
I15
tp481
a(I125
I19
F0.125
S'first'
p482
I15
tp483
a(I129
I3
F0.375
g46
I15
tp484
a(I130
I8
F-0.75
g419
I15
tp485
a(I130
I8
F0.375
g421
I15
tp486
a(I132
I10
F0.5
S'stronger'
p487
I15
tp488
a(I132
I54
F0.125
g423
I15
tp489
a(I132
I54
F0.375
g425
I15
tp490
a(I132
I54
F0.75
g427
I15
tp491
a(I132
I57
F0.375
g429
I15
tp492
a(I132
I59
F1.0
g48
I15
tp493
a(I137
I28
F1.0
S'better'
p494
I15
tp495
a(I138
I68
F0.375
g431
I15
tp496
a(I138
I84
F0.25
S'original'
p497
I15
tp498
a(I138
I89
F-0.75
S'dead'
p499
I15
tp500
a(I141
I1
F-0.625
S'bad'
p501
I15
tp502
a(I143
I14
F-0.75
g350
I15
tp503
a(I146
I14
F-0.625
S'other'
p504
I15
tp505
a(I153
I0
F1.0
S'good'
p506
I15
tp507
a(I153
I5
F1.0
S'good'
p508
I15
tp509
a(I157
I10
F1.0
S'good'
p510
I15
tp511
a(I169
I8
F1.0
g54
I15
tp512
a(I178
I8
F0.375
g433
I15
tp513
a(I183
I2
F0.125
S'last'
p514
I15
tp515
a(I183
I16
F0.375
g435
I15
tp516
a(I190
I22
F0.5
S'strong'
p517
I15
tp518
a(I191
I2
F-0.25
S'low'
p519
I15
tp520
a(I193
I11
F0.375
S'extra'
p521
I15
tp522
a(I193
I13
F0.375
g437
I15
tp523
a(I203
I11
F0.375
S'extra'
p524
I15
tp525
a(I207
I7
F0.25
S'portable'
p526
I15
tp527
a(I213
I2
F1.0
S'good'
p528
I15
tp529
a(I215
I11
F0.125
g352
I15
tp530
a(I216
I34
F0.5
S'stronger'
p531
I15
tp532
a(I220
I9
F1.0
S'good'
p533
I15
tp534
a(I227
I2
F-0.75
S'unable'
p535
I15
tp536
as(S'micro'
p537
S'sd'
p538
S'card'
p539
tp540
(lp541
(I2
I9
I0
S'gig'
p542
I0
tp543
a(I82
I5
F0.5
S'possible'
p544
I0
tp545
a(I103
I2
I0
S'big'
p546
I0
tp547
a(I144
I1
F0.5
S'second'
p548
I0
tp549
a(I36
I3
F0.125
S'valid'
p550
I0
tp551
a(I82
I5
F0.5
g544
I0
tp552
a(I82
I42
I0
S'full'
p553
I0
tp554
a(I82
I42
I0
S'empty'
p555
I0
tp556
a(I138
I19
F0.5
S'possible'
p557
I0
tp558
a(I177
I5
F-0.5
S'sure'
p559
I0
tp560
a(I193
I55
F0.25
S'larger'
p561
I0
tp562
a(I212
I1
F-0.5
g342
I0
tp563
a(I215
I1
F0.625
S'aware'
p564
I0
tp565
as(S'wifi'
p566
tp567
(lp568
(I2
I13
F0.375
S'available'
p569
I0
tp570
a(I2
I15
F0.375
S'available'
p571
I0
tp572
a(I14
I13
F0.875
S'music'
p573
I0
tp574
a(I17
I12
F0.25
S'stellar'
p575
I0
tp576
a(I42
I21
I0
S'most'
p577
I0
tp578
a(I69
I6
I0
S'great'
p579
I0
tp580
a(I69
I6
I0
S'signal'
p581
I0
tp582
a(I69
I7
F0.375
S'much'
p583
I0
tp584
a(I99
I18
F1.0
S'good'
p585
I0
tp586
a(I99
I18
F-0.625
S'useless'
p587
I0
tp588
a(I105
I43
F-0.5
S'weak'
p589
I0
tp590
a(I137
I29
F-0.125
S'slow'
p591
I0
tp592
a(I146
I7
F-0.625
S'useless'
p593
I0
tp594
a(I179
I35
F0.5
S'clear'
p595
I0
tp596
a(I203
I8
F0.5
S'strong'
p597
I0
tp598
as(S'apps'
p599
tp600
(lp601
(I3
I11
I0
S'such'
p602
I0
tp603
a(I18
I5
I0
S'such'
p604
I0
tp605
a(I34
I10
I0
S'fifty'
p606
I0
tp607
a(I36
I4
F-0.625
S'free'
p608
I0
tp609
a(I64
I4
F0.25
S'favorite'
p610
I0
tp611
a(I69
I4
I0
S'fast'
p612
I0
tp613
a(I92
I25
F-0.667
S'incompatible'
p614
I0
tp615
a(I92
I26
F0.375
S'meant'
p616
I0
tp617
a(I92
I26
I0
S'android'
p618
I0
tp619
a(I108
I38
F-0.5
S'certain'
p620
I0
tp621
a(I110
I9
I0
S'user'
p622
I0
tp623
a(I133
I16
F0.125
S'enough'
p624
I0
tp625
a(I143
I4
I0
S'useful'
p626
I0
tp627
a(I143
I15
I0
S'many'
p628
I0
tp629
a(I146
I6
F-0.625
S'other'
p630
I0
tp631
a(I147
I1
F-0.25
S'google'
p632
I0
tp633
a(I175
I10
F-0.5
S'certain'
p634
I0
tp635
a(I179
I32
I0
S'many'
p636
I0
tp637
a(I179
I38
I0
S'many'
p638
I0
tp639
a(I181
I12
F-0.5
S'open'
p640
I0
tp641
as(S'amazon'
p642
tp643
(lp644
(I71
I14
F0.375
S'new'
p645
I13
tp646
a(I87
I5
I0
S'great'
p647
I13
tp648
a(I138
I62
F0.5
S'thankful'
p649
I13
tp650
as(S'wi'
p651
S'fi'
p652
tp653
(lp654
(I217
I17
F0.25
S'portable'
p655
I0
tp656
as.