(dp0
(S'home'
p1
S'screens'
p2
tp3
(lp4
(I8
I25
I0
S'different'
p5
I0
tp6
as(S'battery'
p7
S'life'
p8
tp9
(lp10
(I0
I124
F-0.75
S'short'
p11
I1
tp12
a(I0
I124
F1.0
S'better'
p13
I1
tp14
a(I0
I168
F1.0
S'good'
p15
I1
tp16
a(I0
I223
F-0.625
S'light'
p17
I1
tp18
a(I1
I83
F0.375
S'significant'
p19
I1
tp20
a(I2
I23
I0
S'great'
p21
I1
tp22
a(I6
I80
F-0.25
S'low'
p23
I1
tp24
a(I6
I270
F-0.625
S'average'
p25
I1
tp26
a(I6
I437
F-0.625
S'average'
p27
I1
tp28
a(I7
I4
F-0.5
S'longer'
p29
I1
tp30
a(I8
I13
F0.5
S'reasonable'
p31
I1
tp32
a(I8
I44
F0.125
S'impressive'
p33
I1
tp34
a(I8
I45
F-0.125
S'overall'
p35
I1
tp36
a(I8
I168
F-0.25
S'low'
p37
I1
tp38
a(I0
I124
F1.0
g13
I19
tp39
a(I0
I168
F1.0
g15
I19
tp40
a(I0
I223
F-0.625
g17
I19
tp41
a(I2
I23
I0
g21
I19
tp42
a(I6
I270
F-0.625
g25
I19
tp43
a(I6
I422
I0
S'real'
p44
I19
tp45
a(I6
I437
F-0.625
g27
I19
tp46
a(I8
I44
F0.125
g33
I19
tp47
a(I8
I168
F-0.25
g37
I19
tp48
a(I0
I78
F0.5
S'second'
p49
I15
tp50
a(I0
I111
F0.375
S'extended'
p51
I15
tp52
a(I0
I124
F-0.75
g11
I15
tp53
a(I1
I46
F0.5
S'strong'
p54
I15
tp55
a(I1
I83
F0.375
g19
I15
tp56
a(I1
I85
F-0.625
S'other'
p57
I15
tp58
a(I2
I77
F0.875
S'music'
p59
I15
tp60
a(I2
I77
I0
S'text'
p61
I15
tp62
a(I2
I87
F-0.375
S'pull'
p63
I15
tp64
a(I6
I80
F-0.25
g23
I15
tp65
a(I6
I95
F0.5
S'beware'
p66
I15
tp67
a(I6
I144
F0.375
S'extended'
p68
I15
tp69
a(I6
I144
F0.375
S'available'
p70
I15
tp71
a(I7
I4
F-0.5
g29
I15
tp72
a(I8
I13
F0.5
g31
I15
tp73
a(I8
I15
F0.375
S'extended'
p74
I15
tp75
a(I8
I45
F-0.125
g35
I15
tp76
a(I8
I47
F0.125
S'solid'
p77
I15
tp78
a(I8
I124
I0
S'more'
p79
I15
tp80
a(I8
I237
I0
S'useful'
p81
I15
tp82
as(S'keyboard'
p83
tp84
(lp85
(I2
I16
F-0.5
S'regular'
p86
I2
tp87
a(I3
I132
I0
S'physical'
p88
I2
tp89
a(I3
I133
F-0.5
S'actual'
p90
I2
tp91
a(I6
I5
F0.375
S'available'
p92
I2
tp93
a(I6
I5
I0
S'android'
p94
I2
tp95
a(I6
I44
I0
S'dial'
p96
I2
tp97
a(I6
I93
I0
S'physical'
p98
I2
tp99
a(I6
I127
I0
S'physical'
p100
I2
tp101
a(I6
I188
I0
S'physical'
p102
I2
tp103
a(I8
I111
F0.375
S'much'
p104
I2
tp105
a(I8
I133
F-0.5
S'actual'
p106
I2
tp107
a(I8
I136
I0
S'finger'
p108
I2
tp109
a(I8
I148
I0
S'more'
p110
I2
tp111
as(S'power'
p112
S'button'
p113
tp114
(lp115
(I6
I195
F-0.375
S'small'
p116
I0
tp117
a(I0
I324
F0.5
S'touch'
p118
I19
tp119
a(I1
I41
I0
S'capacitive'
p120
I19
tp121
a(I6
I67
F-0.5
S'separate'
p122
I19
tp123
a(I6
I195
F-0.375
g116
I19
tp124
a(I6
I271
F-0.125
S'opposite'
p125
I19
tp126
as(S'search'
p127
S'engine'
p128
tp129
(lp130
(I3
I55
F0.375
S'available'
p131
I0
tp132
a(I5
I50
F-0.889
S'unfortunate'
p133
I0
tp134
as(S'call'
p135
S'quality'
p136
tp137
(lp138
(I0
I163
F-0.5
S'call'
p139
I0
tp140
a(I6
I105
F-0.125
S'overall'
p141
I0
tp142
a(I6
I259
F0.5
S'strong'
p143
I0
tp144
a(I6
I321
F-0.375
S'top'
p145
I0
tp146
a(I6
I321
F-0.5
S'poor'
p147
I0
tp148
a(I8
I52
F0.125
S'solid'
p149
I0
tp150
as(S'overall'
p151
tp152
(lp153
(I3
I160
F0.25
S'responsive'
p154
I12
tp155
as(S'camera'
p156
tp157
(lp158
(I1
I39
I0
S'wish'
p159
I1
tp160
a(I1
I39
I0
S'physical'
p161
I1
tp162
a(I3
I95
F0.875
S'nice'
p163
I1
tp164
a(I3
I158
F0.875
S'happy'
p165
I1
tp166
a(I6
I6
F1.0
S'good'
p167
I1
tp168
a(I6
I165
F1.0
S'best'
p169
I1
tp170
a(I8
I55
I0
S'great'
p171
I1
tp172
a(I8
I208
I0
S'phenomenal'
p173
I1
tp174
as(S'iphone'
p175
tp176
(lp177
(I0
I38
F0.375
S'available'
p178
I1
tp179
a(I0
I151
F-0.625
S'lighter'
p180
I1
tp181
a(I1
I6
F-0.5
S'less'
p182
I1
tp183
a(I2
I90
F1.0
S'best'
p184
I1
tp185
a(I5
I82
I0
S'own'
p186
I1
tp187
a(I5
I131
I0
S'hear'
p188
I1
tp189
a(I6
I214
I0
S'toe-to-toe'
p190
I1
tp191
a(I8
I42
F0.375
S'much'
p192
I1
tp193
a(I8
I51
F1.0
S'better'
p194
I1
tp195
a(I8
I51
F-0.5
S'sure'
p196
I1
tp197
as(S'droid'
p198
S'x'
p199
tp200
(lp201
(I0
I42
F0.375
S'significant'
p202
I0
tp203
a(I0
I42
F-0.625
S'other'
p204
I0
tp205
a(I0
I44
F1.0
S'best'
p206
I0
tp207
a(I0
I105
F1.0
S'better'
p208
I0
tp209
a(I2
I111
F1.0
S'good'
p210
I0
tp211
a(I2
I111
F1.0
S'better'
p212
I0
tp213
a(I2
I125
F-0.625
S'average'
p214
I0
tp215
a(I5
I58
F-0.375
S'small'
p216
I0
tp217
a(I5
I58
I0
S'big'
p218
I0
tp219
a(I6
I389
F1.0
S'better'
p220
I0
tp221
a(I6
I413
F-0.25
S'disappointed'
p222
I0
tp223
a(I7
I2
I0
S'many'
p224
I0
tp225
a(I8
I20
F0.375
S'reliable'
p226
I0
tp227
a(I8
I20
F0.375
S'dependable'
p228
I0
tp229
a(I0
I317
F0.125
S'popular'
p230
I0
tp231
a(I2
I111
F1.0
g210
I0
tp232
a(I5
I58
F-0.375
g216
I0
tp233
a(I6
I213
I0
S'own'
p234
I0
tp235
a(I6
I213
F0.25
S'original'
p236
I0
tp237
a(I6
I328
I0
S'prior'
p238
I0
tp239
a(I6
I413
F-0.25
g222
I0
tp240
a(I6
I443
F0.25
S'original'
p241
I0
tp242
a(I7
I2
I0
g224
I0
tp243
a(I8
I132
F0.125
S'first'
p244
I0
tp245
as(S'swype'
p246
tp247
(lp248
(I4
I31
F1.0
S'good'
p249
I0
tp250
a(I6
I45
F1.0
S'good'
p251
I0
tp252
a(I8
I110
I0
S'great'
p253
I0
tp254
as(S'froyo'
p255
tp256
(lp257
(I0
I331
F0.625
S'easy'
p258
I0
tp259
a(I1
I59
F0.125
S'able'
p260
I0
tp261
a(I5
I90
I0
S'faster'
p262
I0
tp263
a(I8
I277
F-0.25
S'wait'
p264
I0
tp265
as(S'verizon'
p266
tp267
(lp268
(I0
I182
F-0.5
S'unwanted'
p269
I0
tp270
a(I1
I74
F-0.625
S'other'
p271
I0
tp272
a(I1
I74
F-0.5
S'heavy'
p273
I0
tp274
a(I1
I77
I-100
S'pre-shipping'
p275
I0
tp276
a(I2
I7
F-0.625
S'tricked'
p277
I0
tp278
a(I2
I27
F0.75
S'consider'
p279
I0
tp280
a(I2
I27
F0.5
S'rid'
p281
I0
tp282
a(I3
I139
I0
S'local'
p283
I0
tp284
a(I3
I148
F-0.625
S'other'
p285
I0
tp286
a(I5
I15
F-0.25
S'past'
p287
I0
tp288
a(I5
I44
F0.75
S'due'
p289
I0
tp290
a(I5
I150
F-0.375
S'manual'
p291
I0
tp292
a(I6
I309
F0.5
S'loyal'
p293
I0
tp294
a(I6
I345
F-0.625
S'bad'
p295
I0
tp296
a(I8
I27
I0
S'standard'
p297
I0
tp298
a(I8
I261
I0
S'signal'
p299
I0
tp300
as(S'android'
p301
tp302
(lp303
(I0
I67
F-0.625
S'other'
p304
I0
tp305
a(I0
I83
F1.0
S'good'
p306
I0
tp307
a(I0
I124
I0
S'update'
p308
I0
tp309
a(I1
I34
I0
S'most'
p310
I0
tp311
a(I1
I34
F-0.625
S'other'
p312
I0
tp313
a(I2
I88
F-0.5
S'sure'
p314
I0
tp315
a(I2
I90
I0
S'different'
p316
I0
tp317
a(I2
I136
F-0.125
S'overall'
p318
I0
tp319
a(I2
I136
F1.0
S'best'
p320
I0
tp321
a(I3
I47
F1.0
S'best'
p322
I0
tp323
a(I3
I51
F0.5
S'possible'
p324
I0
tp325
a(I3
I140
F0.375
S'available'
p326
I0
tp327
a(I4
I4
F0.5
S'told'
p328
I0
tp329
a(I6
I193
F0.125
S'usual'
p330
I0
tp331
a(I6
I214
F1.0
S'best'
p332
I0
tp333
a(I6
I248
I0
S'latest'
p334
I0
tp335
a(I6
I426
I0
S'great'
p336
I0
tp337
a(I8
I230
I0
S'useful'
p338
I0
tp339
a(I8
I279
I0
S'most'
p340
I0
tp341
a(I8
I279
F-0.625
S'other'
p342
I0
tp343
a(I8
I279
F1.0
S'best'
p344
I0
tp345
as(S'voice'
p346
tp347
(lp348
(I5
I71
F0.875
S'lucky'
p349
I4
tp350
a(I6
I328
F0.125
S'able'
p351
I4
tp352
as(S'calls'
p353
tp354
(lp355
(I0
I88
F-0.5
S'separate'
p356
I0
tp357
a(I1
I66
I0
S'great'
p358
I0
tp359
a(I6
I42
F0.5
S'clear'
p360
I0
tp361
a(I6
I272
I0
S'great'
p362
I0
tp363
a(I8
I46
I0
S'many'
p364
I0
tp365
a(I8
I138
F-0.25
S'dropped'
p366
I0
tp367
as(S'google'
p368
S'search'
p369
tp370
(lp371
(I0
I3
I0
S'standard'
p372
I0
tp373
a(I0
I9
F-0.25
S'managed'
p374
I0
tp375
a(I0
I9
F-0.25
S'google'
p376
I0
tp377
a(I0
I331
F-0.25
S'google'
p378
I0
tp379
a(I2
I117
F-0.625
S'bad'
p380
I0
tp381
a(I3
I58
F-0.125
S'rip-off'
p382
I0
tp383
a(I6
I59
F0.375
S'available'
p384
I0
tp385
a(I8
I115
F0.125
S'native'
p386
I0
tp387
a(I0
I3
I0
g372
I4
tp388
a(I3
I58
F-0.125
g382
I4
tp389
a(I3
I69
F-0.625
S'free'
p390
I4
tp391
a(I6
I57
F1.0
S'better'
p392
I4
tp393
a(I6
I59
F0.375
g384
I4
tp394
a(I8
I115
F0.125
g386
I4
tp395
as(S'bing'
p396
S'default'
p397
S'search'
p398
tp399
(lp400
(I5
I50
F-0.5
S'unchangeable'
p401
I0
tp402
a(I5
I50
F-0.5
g401
I0
tp403
a(I1
I31
F1.0
S'good'
p404
I0
tp405
a(I2
I117
F-0.625
g380
I0
tp406
a(I6
I329
I0
S'navigate'
p407
I0
tp408
a(I5
I50
F-0.5
g401
I0
tp409
a(I1
I31
F1.0
g404
I4
tp410
a(I5
I57
F0.5
S'whole'
p411
I4
tp412
a(I6
I102
F0.5
S'whole'
p413
I4
tp414
as(S'samsung'
p415
S'fascinate'
p416
tp417
(lp418
(I0
I59
F0.5
S'second'
p419
I0
tp420
a(I1
I3
I0
S'later'
p421
I0
tp422
a(I0
I2
I0
S'such'
p423
I7
tp424
a(I0
I59
F0.5
g419
I7
tp425
a(I0
I77
F-0.5
S'poor'
p426
I7
tp427
a(I2
I79
F0.875
S'important'
p428
I7
tp429
a(I5
I120
F-0.75
S'likely'
p430
I7
tp431
a(I6
I80
F1.0
S'best'
p432
I7
tp433
a(I6
I268
I0
S'website'
p434
I7
tp435
a(I0
I201
F0.25
S'wind'
p436
I0
tp437
a(I0
I282
F1.0
S'good'
p438
I0
tp439
a(I1
I3
I0
g421
I0
tp440
a(I1
I61
F-0.125
S'overall'
p441
I0
tp442
a(I1
I61
F0.625
S'perfect'
p443
I0
tp444
a(I3
I9
F-0.625
S'free'
p445
I0
tp446
a(I5
I9
I0
S'least'
p447
I0
tp448
a(I5
I9
F1.0
S'better'
p449
I0
tp450
a(I6
I252
F-0.625
S'push'
p451
I0
tp452
as(S'apps'
p453
tp454
(lp455
(I0
I143
I0
S'many'
p456
I0
tp457
a(I0
I143
I0
S'unnecessary'
p458
I0
tp459
a(I0
I148
F0.625
S'easy'
p460
I0
tp461
a(I0
I331
F0.5
S'rid'
p462
I0
tp463
a(I0
I338
F0.375
S'available'
p464
I0
tp465
a(I2
I12
F0.625
S'interested'
p466
I0
tp467
a(I2
I65
F-0.5
S'open'
p468
I0
tp469
a(I2
I65
I0
S'such'
p470
I0
tp471
a(I2
I114
F-0.5
S'longer'
p472
I0
tp473
a(I2
I132
I0
S'most'
p474
I0
tp475
a(I2
I132
F0.25
S'used'
p476
I0
tp477
a(I5
I91
I0
S'more'
p478
I0
tp479
a(I6
I64
F0.375
S'available'
p480
I0
tp481
a(I6
I72
F-0.375
S'simple'
p482
I0
tp483
a(I6
I80
F-0.5
S'less'
p484
I0
tp485
a(I6
I299
F0.375
S'copy'
p486
I0
tp487
a(I6
I302
I0
S'great'
p488
I0
tp489
a(I6
I420
F-0.25
S'criminal'
p490
I0
tp491
a(I6
I454
I0
S'big'
p492
I0
tp493
a(I7
I9
F-0.25
S'abundant'
p494
I0
tp495
a(I8
I66
F-0.5
S'certain'
p496
I0
tp497
a(I8
I66
F-0.5
S'open'
p498
I0
tp499
as(S'google'
p500
S'maps'
p501
tp502
(lp503
(I0
I3
I0
g372
I1
tp504
a(I3
I65
F-0.625
S'free'
p505
I1
tp506
a(I4
I15
F-0.25
S'google'
p507
I1
tp508
a(I6
I57
F1.0
g392
I1
tp509
a(I3
I65
F-0.625
g505
I5
tp510
a(I4
I15
F-0.25
g507
I5
tp511
as(S'touch'
p512
S'screen'
p513
tp514
(lp515
(I2
I132
F0.125
S'first'
p516
I2
tp517
a(I4
I31
F0.5
S'touch'
p518
I2
tp519
a(I6
I392
F0.5
S'touch'
p520
I2
tp521
a(I6
I444
F0.5
S'touch'
p522
I2
tp523
a(I8
I226
F0.25
S'responsive'
p524
I2
tp525
a(I8
I249
F0.5
S'touch'
p526
I2
tp527
as.