(dp0
(S'times'
p1
tp2
(lp3
(I103
I0
I0
S'blue'
p4
tp5
a(I134
I2
F-0.125
S'mine'
p6
tp7
a(I237
I13
I0
S'few'
p8
tp9
a(I239
I10
I0
S'few'
p10
tp11
a(I241
I6
F-0.125
S'slow'
p12
tp13
a(I284
I1
I0
S'more'
p14
tp15
a(I284
I5
F-0.625
S'other'
p16
tp17
as(S'problem'
p18
tp19
(lp20
(I63
I3
I0
S'same'
p21
tp22
a(I68
I1
F0.125
S'outside'
p23
tp24
a(I68
I1
I0
S'caribbean'
p25
tp26
a(I80
I0
I0
S'same'
p27
tp28
a(I95
I4
I0
S'same'
p29
tp30
a(I107
I1
F-0.625
S'other'
p31
tp32
a(I129
I0
I0
S'real'
p33
tp34
a(I140
I3
F0.125
S'able'
p35
tp36
a(I140
I3
F-0.75
S'impossible'
p37
tp38
a(I154
I1
I0
S'only'
p39
tp40
a(I215
I1
I0
S'same'
p41
tp42
a(I227
I3
F-0.375
S'serious'
p43
tp44
as(S'memory'
p45
S'card'
p46
tp47
(lp48
(I215
I0
F-0.75
S'unable'
p49
tp50
a(I236
I3
F0.5
S'compatible'
p51
tp52
a(I236
I4
F0.5
S'compatible'
p53
tp54
as(S'perfect'
p55
tp56
(lp57
(I117
I0
F-0.375
S'small'
p58
tp59
a(I134
I12
F-0.375
S'near'
p60
tp61
as(S'7'
p62
S'5'
p63
S'mango'
p64
tp65
(lp66
(I121
I0
I0
S'update'
p67
tp68
as(S'battery'
p69
S'life'
p70
tp71
(lp72
(I9
I1
F-0.5
S'poor'
p73
tp74
a(I9
I1
F0.125
S'last'
p75
tp76
a(I29
I3
F0.625
S'perfect'
p77
tp78
a(I51
I0
F-0.25
S'past'
p79
tp80
a(I171
I9
F0.25
S'original'
p81
tp82
a(I211
I5
F-0.5
S'poor'
p83
tp84
a(I231
I16
F-0.625
S'bad'
p85
tp86
a(I265
I2
F-0.5
S'poor'
p87
tp88
a(I268
I1
I0
S'great'
p89
tp90
a(I274
I0
F-0.5
S'long'
p91
tp92
a(I284
I3
I0
S'inconsistent'
p93
tp94
as(S'usb'
p95
S'cable'
p96
tp97
(lp98
(I23
I1
I0
S'cable'
p99
tp100
a(I84
I0
I0
S'same'
p101
tp102
a(I103
I2
I0
S'cable'
p103
tp104
a(I166
I0
I0
S'cable'
p105
tp106
a(I280
I5
I0
S'cable'
p107
tp108
as(S'mango'
p109
S'update'
p110
tp111
(lp112
(I121
I0
I0
g67
tp113
a(I155
I4
I0
S'quick'
p114
tp115
as(S'android'
p116
S'or'
p117
S'os'
p118
tp119
(lp120
(I53
I0
F0.375
S'similar'
p121
tp122
a(I53
I0
I0
S'sized'
p123
tp124
a(I190
I1
I0
S'mobile'
p125
tp126
a(I273
I0
I0
S'android'
p127
tp128
as(S'came'
p129
tp130
(lp131
(I135
I0
F0.375
S'new'
p132
tp133
a(I135
I0
F0.5
S'second'
p134
tp135
as(S'camera'
p136
S'and'
p137
S'video'
p138
tp139
(lp140
(I151
I5
I0
S'great'
p141
tp142
as(S'data'
p143
tp144
(lp145
(I28
I8
F0.875
S'nice'
p146
tp147
a(I28
I8
I0
S'cellular'
p148
tp149
a(I72
I10
F0.375
S'available'
p150
tp151
a(I77
I4
F-0.5
S'worry'
p152
tp153
a(I218
I13
F0.5
S'personal'
p154
tp155
a(I237
I7
F0.125
S'enough'
p156
tp157
as(S'nice'
p158
tp159
(lp160
(I11
I1
F0.5
S'touch'
p161
tp162
as(S'screen'
p163
tp164
(lp165
(I12
I9
F-0.75
S'bright'
p166
tp167
a(I13
I1
F0.5
S'whole'
p168
tp169
a(I17
I3
F0.875
S'happy'
p170
tp171
a(I17
I3
F0.75
S'beautiful'
p172
tp173
a(I42
I10
F0.75
S'beautiful'
p174
tp175
a(I43
I17
I0
S'great'
p176
tp177
a(I54
I6
F0.25
S'main'
p178
tp179
a(I54
I6
F0.375
S'alive'
p180
tp181
a(I54
I9
F0.25
S'main'
p182
tp183
a(I54
I9
F0.875
S'attractive'
p184
tp185
a(I54
I26
F1.0
S'better'
p186
tp187
a(I54
I26
F-0.625
S'lighter'
p188
tp189
a(I67
I8
F-0.75
S'bright'
p190
tp191
a(I67
I8
I0
S'plastic'
p192
tp193
a(I67
I8
I0
S'fast'
p194
tp195
a(I68
I4
F0.25
S'responsive'
p196
tp197
a(I76
I1
I0
S'large'
p198
tp199
a(I89
I5
I0
S'big'
p200
tp201
a(I90
I0
F0.625
S'perfect'
p202
tp203
a(I108
I4
I0
S'same'
p204
tp205
a(I132
I4
F0.875
S'nice'
p206
tp207
a(I137
I3
I0
S'same'
p208
tp209
a(I145
I2
I0
S'large'
p210
tp211
a(I151
I7
I0
S'oled'
p212
tp213
a(I186
I0
F0.75
S'beautiful'
p214
tp215
a(I196
I0
F0.75
S'beautiful'
p216
tp217
a(I199
I2
F-0.375
S'black'
p218
tp219
a(I199
I2
F-0.375
S'black'
p220
tp221
a(I204
I3
F-0.625
S'light'
p222
tp223
a(I205
I1
I0
S'great'
p224
tp225
a(I210
I3
F-0.75
S'bright'
p226
tp227
a(I214
I2
I0
S'great'
p228
tp229
a(I217
I5
I0
S'different'
p230
tp231
a(I227
I1
F0.75
S'beautiful'
p232
tp233
a(I228
I3
F-0.25
S'scratched'
p234
tp235
a(I237
I15
F0.5
S'touch'
p236
tp237
a(I239
I6
F0.75
S'beautiful'
p238
tp239
a(I249
I3
I0
S'same'
p240
tp241
a(I252
I3
F0.25
S'bigger'
p242
tp243
a(I255
I2
F0.75
S'beautiful'
p244
tp245
a(I264
I2
F1.0
S'better'
p246
tp247
a(I280
I4
F0.625
S'easy'
p248
tp249
a(I290
I1
F0.5
S'touch'
p250
tp251
as(S'work'
p252
tp253
(lp254
(I218
I5
I0
S'real'
p255
tp256
as(S'better'
p257
S'than'
p258
S'android'
p259
tp260
(lp261
(I53
I0
F0.375
g121
tp262
a(I53
I0
I0
g123
tp263
a(I151
I9
F0.375
S'much'
p264
tp265
as(S'everything'
p266
tp267
(lp268
(I19
I0
F0.375
S'new'
p269
tp270
a(I54
I24
F0.625
S'perfect'
p271
tp272
a(I70
I1
I0
S'forever'
p273
tp274
a(I158
I1
F0.375
S'new'
p275
tp276
as(S'problems'
p277
tp278
(lp279
(I62
I1
I0
S'many'
p280
tp281
a(I148
I4
I0
S'many'
p282
tp283
a(I186
I0
F0.25
S'main'
p284
tp285
as(S'samsung'
p286
tp287
(lp288
(I7
I0
I0
S'fourth'
p289
tp290
a(I71
I1
F0.25
S'original'
p291
tp292
a(I76
I13
I0
S'current'
p293
tp294
a(I93
I1
F0.5
S'second'
p295
tp296
a(I93
I7
F0.125
S'first'
p297
tp298
a(I123
I0
F0.25
S'responsive'
p299
tp300
a(I123
I0
I0
S'old'
p301
tp302
a(I134
I6
I0
S'most'
p303
tp304
a(I167
I3
F0.125
S'last'
p305
tp306
a(I168
I0
F0.375
S'new'
p307
tp308
a(I269
I0
F-0.625
S'other'
p309
tp310
as(S'focus'
p311
tp312
(lp313
(I6
I1
F0.25
S'responsive'
p314
tp315
a(I12
I2
F0.125
S'first'
p316
tp317
a(I12
I6
F0.375
S'new'
p318
tp319
a(I12
I6
F-0.75
S'tough'
p320
tp321
a(I93
I1
F0.125
S'first'
p322
tp323
a(I93
I5
F0.25
S'original'
p324
tp325
a(I93
I10
I0
S'same'
p326
tp327
a(I93
I10
F0.25
S'original'
p328
tp329
a(I123
I0
F1.0
S'good'
p330
tp331
a(I218
I12
I0
S'older'
p332
tp333
a(I239
I4
F0.625
S'easy'
p334
tp335
as(S'camera'
p336
tp337
(lp338
(I11
I0
I0
S'great'
p339
tp340
a(I29
I2
F0.875
S'nice'
p341
tp342
a(I43
I5
F1.0
S'good'
p343
tp344
a(I44
I0
F-0.125
S'front'
p345
tp346
a(I53
I0
F0.625
S'easy'
p347
tp348
a(I54
I5
F1.0
S'good'
p349
tp350
a(I54
I26
F1.0
S'better'
p351
tp352
a(I73
I0
F-0.625
S'bad'
p353
tp354
a(I181
I0
F1.0
S'good'
p355
tp356
a(I198
I0
I0
S'mind'
p357
tp358
a(I198
I0
F0.375
S'much'
p359
tp360
a(I210
I6
F-0.5
S'poor'
p361
tp362
a(I229
I0
F0.25
S'sharp'
p363
tp364
a(I231
I14
I0
S'great'
p365
tp366
a(I251
I5
F-0.625
S'bad'
p367
tp368
a(I255
I3
F0.875
S'nice'
p369
tp370
a(I280
I2
F0.125
S'usual'
p371
tp372
a(I293
I4
I0
S'adequate'
p373
tp374
as(S'back'
p375
tp376
(lp377
(I88
I0
F0.875
S'happy'
p378
tp379
a(I88
I0
F0.125
S'first'
p380
tp381
a(I131
I3
I0
S'plastic'
p382
tp383
as(S'a'
p384
S'great'
p385
S'job'
p386
tp387
(lp388
(I54
I5
I0
S'great'
p389
tp390
a(I54
I14
I0
S'great'
p391
tp392
a(I190
I0
I0
S'great'
p393
tp394
a(I286
I1
I0
S'great'
p395
tp396
as(S'operating'
p397
S'system'
p398
tp399
(lp400
(I152
I8
I0
S'old'
p401
tp402
a(I243
I0
F-0.625
S'light'
p403
tp404
a(I243
I0
I0
S'efficient'
p405
tp406
as(S'windows'
p407
S'operating'
p408
S'system'
p409
tp410
(lp411
(I243
I0
F-0.625
g403
tp412
a(I243
I0
I0
g405
tp413
as(S'live'
p414
S'tiles'
p415
tp416
(lp417
(I10
I1
F0.5
S'live'
p418
tp419
a(I43
I9
F-0.75
S'stupid'
p420
tp421
a(I43
I12
F0.5
S'live'
p422
tp423
a(I54
I8
F0.5
S'live'
p424
tp425
a(I54
I24
F0.5
S'live'
p426
tp427
a(I137
I11
F0.5
S'live'
p428
tp429
a(I138
I1
F0.5
S'live'
p430
tp431
a(I214
I3
F0.5
S'live'
p432
tp433
a(I249
I11
F0.5
S'live'
p434
tp435
as(S'memory'
p436
tp437
(lp438
(I215
I0
F-0.75
g49
tp439
as(S'life'
p440
tp441
(lp442
(I9
I1
F0.125
g75
tp443
a(I51
I0
F-0.25
g79
tp444
a(I211
I5
F-0.5
g83
tp445
a(I284
I3
I0
g93
tp446
as(S'windows'
p447
tp448
(lp449
(I12
I12
I0
S'only'
p450
tp451
a(I22
I5
I0
S'real'
p452
tp453
a(I22
I5
F-0.75
S'comfortable'
p454
tp455
a(I42
I2
I0
S'mobile'
p456
tp457
a(I54
I21
I0
S'different'
p458
tp459
a(I54
I21
I0
S'mobile'
p460
tp461
a(I76
I10
I0
S'older'
p462
tp463
a(I93
I15
F0.5
S'whole'
p464
tp465
a(I97
I1
F0.125
S'first'
p466
tp467
a(I98
I5
I0
S'restrictive'
p468
tp469
a(I137
I15
I0
S'latest'
p470
tp471
a(I139
I1
F0.625
S'easy'
p472
tp473
a(I145
I0
F0.375
S'new'
p474
tp475
a(I156
I0
F0.125
S'first'
p476
tp477
a(I161
I0
I0
S'id'
p478
tp479
a(I161
I1
I0
S'id'
p480
tp481
a(I161
I2
I0
S'id'
p482
tp483
a(I161
I8
I0
S'id'
p484
tp485
a(I172
I1
F0.125
S'first'
p486
tp487
a(I204
I9
F0.375
S'new'
p488
tp489
a(I205
I0
I0
S'great'
p490
tp491
a(I218
I2
F0.125
S'first'
p492
tp493
a(I227
I14
I0
S'android'
p494
tp495
a(I232
I0
F0.625
S'easy'
p496
tp497
a(I243
I1
F0.5
S'compatible'
p498
tp499
a(I244
I5
I0
S'current'
p500
tp501
a(I252
I8
F-0.25
S'scarce'
p502
tp503
a(I252
I19
F0.625
S'kind'
p504
tp505
a(I276
I1
F0.375
S'new'
p506
tp507
as(S'right'
p508
tp509
(lp510
(I155
I3
F-0.5
S'sure'
p511
tp512
as(S'takes'
p513
S'great'
p514
S'pictures'
p515
tp516
(lp517
(I151
I5
I0
S'great'
p518
tp519
a(I199
I4
I0
S'great'
p520
tp521
a(I199
I4
I0
S'quick'
p522
tp523
a(I241
I2
I0
S'great'
p524
tp525
a(I241
I2
F-0.25
S'low'
p526
tp527
a(I241
I2
F-0.625
S'light'
p528
tp529
a(I271
I1
I0
S'great'
p530
tp531
as(S'pictures'
p532
tp533
(lp534
(I53
I0
F0.75
S'beautiful'
p535
tp536
a(I84
I0
F0.875
S'music'
p537
tp538
a(I88
I2
F0.75
S'beautiful'
p539
tp540
a(I151
I5
I0
g518
tp541
a(I199
I4
I0
g520
tp542
a(I199
I4
I0
g522
tp543
a(I214
I2
F0.375
S'alive'
p544
tp545
a(I231
I15
F1.0
S'better'
p546
tp547
a(I239
I11
F1.0
S'good'
p548
tp549
a(I241
I2
I0
g524
tp550
a(I241
I2
F-0.25
g526
tp551
a(I241
I2
F-0.625
g528
tp552
a(I271
I1
I0
g530
tp553
as(S'features'
p554
tp555
(lp556
(I9
I2
F-0.375
S'disable'
p557
tp558
a(I9
I2
I0
S'more'
p559
tp560
a(I22
I2
F-0.625
S'other'
p561
tp562
a(I29
I8
F1.0
S'good'
p563
tp564
a(I34
I0
F0.875
S'important'
p565
tp566
a(I35
I0
I0
S'many'
p567
tp568
a(I113
I0
F-0.625
S'other'
p569
tp570
a(I113
I0
F0.875
S'nice'
p571
tp572
a(I137
I13
I0
S'more'
p573
tp574
a(I150
I3
F0.125
S'able'
p575
tp576
a(I150
I3
I0
S'basic'
p577
tp578
a(I160
I1
I0
S'many'
p579
tp580
a(I241
I2
I0
S'many'
p581
tp582
a(I241
I7
I0
S'many'
p583
tp584
a(I241
I7
I0
S'such'
p585
tp586
a(I249
I13
I0
S'more'
p587
tp588
a(I278
I1
I0
S'great'
p589
tp590
a(I278
I1
F0.75
S'beautiful'
p591
tp592
a(I278
I1
F0.625
S'easy'
p593
tp594
as(S'windows'
p595
S'live'
p596
tp597
(lp598
(I161
I0
I0
g478
tp599
a(I161
I1
I0
g480
tp600
a(I161
I2
I0
g482
tp601
a(I161
I8
I0
g484
tp602
a(I239
I5
I0
S'later'
p603
tp604
as(S'people'
p605
tp606
(lp607
(I3
I2
F0.625
S'perfect'
p608
tp609
a(I3
I2
I0
S'older'
p610
tp611
a(I63
I3
I0
S'net'
p612
tp613
a(I90
I0
F0.125
S'able'
p614
tp615
a(I103
I4
F-0.625
S'other'
p616
tp617
a(I218
I20
I0
S'many'
p618
tp619
a(I218
I20
I0
S'many'
p620
tp621
a(I218
I21
I0
S'many'
p622
tp623
a(I250
I2
I0
S'more'
p624
tp625
a(I252
I20
I0
S'more'
p626
tp627
a(I273
I9
I0
S'great'
p628
tp629
a(I288
I6
F0.75
S'due'
p630
tp631
as(S'wifi'
p632
tp633
(lp634
(I14
I1
F-0.5
S'open'
p635
tp636
a(I34
I0
I0
S'fast'
p637
tp638
a(I72
I7
F-0.125
S'present'
p639
tp640
a(I141
I3
F0.125
S'able'
p641
tp642
a(I251
I7
F0.125
S'able'
p643
tp644
a(I263
I4
F1.0
S'good'
p645
tp646
as(S'sd'
p647
S'card'
p648
tp649
(lp650
(I12
I11
I0
S'faster'
p651
tp652
a(I12
I11
I0
S'many'
p653
tp654
a(I42
I4
F1.0
S'good'
p655
tp656
a(I122
I6
F0.375
S'available'
p657
tp658
a(I152
I7
I0
S'external'
p659
tp660
a(I218
I7
F0.125
S'able'
p661
tp662
a(I255
I3
F0.375
S'extra'
p663
tp664
a(I255
I3
I0
S'sd'
p665
tp666
a(I288
I2
I0
S'sd'
p667
tp668
as(S'music'
p669
tp670
(lp671
(I122
I4
I0
S'great'
p672
tp673
a(I244
I0
F-0.625
S'free'
p674
tp675
a(I244
I8
F-0.625
S'free'
p676
tp677
as(S'looking'
p678
tp679
(lp680
(I131
I3
F1.0
S'good'
p681
tp682
a(I131
I6
F1.0
S'good'
p683
tp684
a(I229
I0
I0
S'great'
p685
tp686
as(S'android'
p687
tp688
(lp689
(I53
I0
F0.375
g121
tp690
a(I53
I0
I0
g123
tp691
as(S'battery'
p692
tp693
(lp694
(I0
I0
F0.125
S'last'
p695
tp696
a(I9
I1
F-0.5
g73
tp697
a(I12
I12
F0.625
S'removable'
p698
tp699
a(I29
I3
F0.625
g77
tp700
a(I44
I0
F0.125
S'last'
p701
tp702
a(I44
I0
F-0.5
S'long'
p703
tp704
a(I51
I1
I0
S'large'
p705
tp706
a(I63
I1
I0
S'fast'
p707
tp708
a(I76
I15
F-0.5
S'longer'
p709
tp710
a(I132
I4
F0.125
S'last'
p711
tp712
a(I146
I2
I0
S'empty'
p713
tp714
a(I171
I3
F-0.625
S'spare'
p715
tp716
a(I171
I9
F0.25
g81
tp717
a(I174
I1
F1.0
S'good'
p718
tp719
a(I231
I16
F-0.625
g85
tp720
a(I248
I1
F0.375
S'extended'
p721
tp722
a(I263
I8
F-0.5
S'weak'
p723
tp724
a(I265
I2
F-0.5
g87
tp725
a(I266
I7
F0.375
S'new'
p726
tp727
a(I268
I1
I0
g89
tp728
a(I274
I0
F-0.5
g91
tp729
as(S'works'
p730
tp731
(lp732
(I1
I0
F1.0
S'good'
p733
tp734
a(I58
I0
I0
S'great'
p735
tp736
a(I115
I0
I0
S'big'
p737
tp738
a(I134
I1
I0
S'great'
p739
tp740
a(I167
I0
F-0.375
S'smooth'
p741
tp742
a(I171
I2
I0
S'great'
p743
tp744
a(I251
I9
F0.375
S'new'
p745
tp746
a(I257
I1
F1.0
S'good'
p747
tp748
as(S'product'
p749
tp750
(lp751
(I93
I6
F-0.375
S'manual'
p752
tp753
a(I96
I0
I0
S'great'
p754
tp755
a(I128
I1
F0.125
S'amazon'
p756
tp757
a(I128
I1
F-0.875
S'worst'
p758
tp759
a(I162
I3
F0.375
S'new'
p760
tp761
a(I180
I0
I0
S'great'
p762
tp763
a(I212
I8
I0
S'great'
p764
tp765
a(I212
I8
F-0.5
S'fun'
p766
tp767
a(I216
I0
I0
S'great'
p768
tp769
a(I223
I0
F1.0
S'good'
p770
tp771
a(I247
I2
I0
S'great'
p772
tp773
as(S'samsung'
p774
S'focus'
p775
tp776
(lp777
(I7
I0
I0
g289
tp778
a(I76
I13
I0
g293
tp779
a(I93
I1
F0.5
g295
tp780
a(I93
I1
F0.125
g322
tp781
a(I93
I5
F0.25
g324
tp782
a(I93
I7
F0.125
g297
tp783
a(I123
I0
F1.0
g330
tp784
a(I123
I0
F0.25
g299
tp785
a(I123
I0
I0
g301
tp786
a(I168
I0
F0.375
g307
tp787
a(I239
I4
F0.625
g334
tp788
as(S'smart'
p789
tp790
(lp791
(I8
I0
F1.0
S'good'
p792
tp793
a(I17
I3
F-0.625
S'other'
p794
tp795
a(I145
I0
F1.0
S'best'
p796
tp797
a(I168
I1
F0.125
S'first'
p798
tp799
a(I261
I0
F0.125
S'first'
p800
tp801
a(I263
I0
I0
S'serviceable'
p802
tp803
a(I263
I2
F-0.25
S'cheap'
p804
tp805
as(S'software'
p806
tp807
(lp808
(I23
I1
F0.875
S'nice'
p809
tp810
a(I23
I1
F0.625
S'easy'
p811
tp812
a(I145
I0
F0.625
S'easy'
p813
tp814
a(I181
I0
F-0.75
S'single'
p815
tp816
a(I194
I1
I0
S'update'
p817
tp818
a(I199
I1
F0.875
S'nice'
p819
tp820
a(I266
I8
F-0.625
S'bad'
p821
tp822
as(S'better'
p823
tp824
(lp825
(I5
I0
I0
S'android'
p826
tp827
a(I151
I9
F0.375
g264
tp828
a(I189
I1
F0.375
S'much'
p829
tp830
a(I227
I12
F0.375
S'much'
p831
tp832
as(S'thing'
p833
tp834
(lp835
(I15
I5
I0
S'only'
p836
tp837
a(I21
I0
I0
S'great'
p838
tp839
a(I31
I8
F1.0
S'good'
p840
tp841
a(I43
I13
F-0.625
S'other'
p842
tp843
a(I48
I1
I0
S'only'
p844
tp845
a(I65
I2
I0
S'only'
p846
tp847
a(I65
I2
F1.0
S'good'
p848
tp849
a(I65
I2
I0
S'text'
p850
tp851
a(I68
I3
F0.125
S'first'
p852
tp853
a(I72
I1
I0
S'only'
p854
tp855
a(I72
I1
F1.0
S'better'
p856
tp857
a(I76
I5
I0
S'only'
p858
tp859
a(I104
I2
I0
S'only'
p860
tp861
a(I116
I5
I0
S'only'
p862
tp863
a(I131
I29
F0.5
S'whole'
p864
tp865
a(I165
I2
F0.25
S'duplicate'
p866
tp867
a(I181
I0
I0
S'only'
p868
tp869
a(I219
I0
F0.875
S'important'
p870
tp871
a(I231
I18
F-0.625
S'other'
p872
tp873
a(I231
I18
I0
S'full'
p874
tp875
a(I231
I18
I0
S'plastic'
p876
tp877
a(I252
I21
I0
S'only'
p878
tp879
a(I285
I4
I0
S'only'
p880
tp881
as(S'sim'
p882
S'card'
p883
tp884
(lp885
(I119
I0
F-0.125
S'slow'
p886
tp887
a(I151
I2
F1.0
S'good'
p888
tp889
as(S'live'
p890
tp891
(lp892
(I239
I5
I0
g603
tp893
as(S'update'
p894
tp895
(lp896
(I40
I3
F-0.125
S'cant'
p897
tp898
a(I116
I3
F0.375
S'available'
p899
tp900
a(I116
I5
F0.875
S'nice'
p901
tp902
a(I116
I5
I0
S'text'
p903
tp904
a(I177
I1
I0
S'cable'
p905
tp906
a(I225
I1
I0
S'latest'
p907
tp908
a(I225
I1
F0.375
S'available'
p909
tp910
a(I225
I1
I0
S'february'
p911
tp912
as(S'device'
p913
tp914
(lp915
(I151
I2
I0
S'great'
p916
tp917
a(I151
I4
F0.875
S'nice'
p918
tp919
a(I235
I2
I0
S'signal'
p920
tp921
a(I243
I0
I0
S'android'
p922
tp923
a(I273
I12
F-0.25
S'thin'
p924
tp925
a(I274
I0
I0
S'great'
p926
tp927
as(S'mango'
p928
tp929
(lp930
(I121
I0
I0
g67
tp931
a(I155
I4
I0
g114
tp932
as(S'system'
p933
tp934
(lp935
(I86
I2
F0.125
S'impressive'
p936
tp937
a(I243
I0
F-0.625
g403
tp938
a(I243
I0
I0
g405
tp939
as(S'call'
p940
tp941
(lp942
(I31
I3
F-0.25
S'hang'
p943
tp944
a(I43
I17
I0
S'great'
p945
tp946
a(I69
I0
F-0.625
S'other'
p947
tp948
a(I134
I10
F-0.625
S'free'
p949
tp950
a(I166
I0
I0
S'great'
p951
tp952
a(I192
I0
F-0.25
S'hang'
p953
tp954
a(I253
I4
F1.0
S'good'
p955
tp956
a(I284
I1
F0.75
S'receive'
p957
tp958
as(S'price'
p959
tp960
(lp961
(I21
I0
F1.0
S'good'
p962
tp963
a(I28
I0
F1.0
S'good'
p964
tp965
a(I34
I4
F0.875
S'attractive'
p966
tp967
a(I68
I11
F-0.125
S'overall'
p968
tp969
a(I89
I4
I0
S'high'
p970
tp971
a(I111
I4
I0
S'same'
p972
tp973
a(I122
I2
I0
S'high'
p974
tp975
a(I122
I7
I0
S'current'
p976
tp977
a(I125
I1
I0
S'same'
p978
tp979
a(I125
I1
F-0.25
S'white'
p980
tp981
a(I151
I1
I0
S'same'
p982
tp983
a(I152
I5
F0.5
S'reasonable'
p984
tp985
a(I152
I6
I0
S'such'
p986
tp987
a(I155
I3
F1.0
S'good'
p988
tp989
a(I200
I5
I0
S'high'
p990
tp991
a(I203
I0
F0.25
S'original'
p992
tp993
a(I211
I7
I0
S'great'
p994
tp995
a(I216
I0
F0.5
S'reasonable'
p996
tp997
a(I218
I13
F-0.5
S'less'
p998
tp999
a(I223
I0
F1.0
S'good'
p1000
tp1001
a(I223
I0
F-0.375
S'small'
p1002
tp1003
a(I228
I0
I0
S'great'
p1004
tp1005
a(I233
I0
F0.625
S'perfect'
p1006
tp1007
a(I241
I7
F-0.25
S'low'
p1008
tp1009
a(I250
I1
F1.0
S'good'
p1010
tp1011
a(I250
I1
I0
S'such'
p1012
tp1013
a(I250
I1
F-0.25
S'low'
p1014
tp1015
a(I264
I0
F1.0
S'good'
p1016
tp1017
as(S'time'
p1018
tp1019
(lp1020
(I4
I0
F0.125
S'first'
p1021
tp1022
a(I15
I4
F0.125
S'first'
p1023
tp1024
a(I22
I6
I0
S'android'
p1025
tp1026
a(I42
I7
I0
S'same'
p1027
tp1028
a(I54
I20
I0
S'spanish'
p1029
tp1030
a(I92
I2
F0.125
S'able'
p1031
tp1032
a(I105
I0
F0.75
S'due'
p1033
tp1034
a(I131
I14
I0
S'same'
p1035
tp1036
a(I132
I3
I0
S'same'
p1037
tp1038
a(I154
I1
F0.125
S'first'
p1039
tp1040
a(I171
I7
F0.125
S'first'
p1041
tp1042
a(I171
I8
F0.5
S'second'
p1043
tp1044
a(I183
I0
F0.125
S'first'
p1045
tp1046
a(I187
I0
F0.125
S'first'
p1047
tp1048
a(I217
I0
F-0.5
S'long'
p1049
tp1050
a(I228
I0
F0.5
S'second'
p1051
tp1052
a(I228
I3
F0.5
S'second'
p1053
tp1054
a(I235
I9
F-0.5
S'long'
p1055
tp1056
a(I244
I19
F0.125
S'last'
p1057
tp1058
a(I273
I17
I0
S'different'
p1059
tp1060
a(I273
I17
F0.75
S'beautiful'
p1061
tp1062
a(I273
I17
F-0.5
S'long'
p1063
tp1064
as(S'marketplace'
p1065
tp1066
(lp1067
(I29
I3
F0.875
S'music'
p1068
tp1069
a(I179
I11
F0.75
S'ideal'
p1070
tp1071
a(I214
I3
F0.625
S'easy'
p1072
tp1073
a(I214
I3
F0.5
S'drag'
p1074
tp1075
as(S'easy'
p1076
S'to'
p1077
S'use'
p1078
tp1079
(lp1080
(I86
I2
I0
S'basic'
p1081
tp1082
a(I86
I2
F0.75
S'ear'
p1083
tp1084
as(S'quality'
p1085
tp1086
(lp1087
(I11
I0
F1.0
S'good'
p1088
tp1089
a(I18
I0
F-0.625
S'bad'
p1090
tp1091
a(I22
I1
F0.625
S'decent'
p1092
tp1093
a(I54
I5
F0.375
S'much'
p1094
tp1095
a(I54
I5
F-0.25
S'lower'
p1096
tp1097
a(I67
I14
F1.0
S'good'
p1098
tp1099
a(I68
I4
I0
S'great'
p1100
tp1101
a(I92
I1
F-0.5
S'poor'
p1102
tp1103
a(I105
I0
I0
S'high'
p1104
tp1105
a(I117
I0
I0
S'great'
p1106
tp1107
a(I132
I4
F-0.25
S'low'
p1108
tp1109
a(I137
I4
F1.0
S'good'
p1110
tp1111
a(I137
I17
I0
S'high'
p1112
tp1113
a(I166
I0
I0
S'signal'
p1114
tp1115
a(I181
I0
I0
S'high'
p1116
tp1117
a(I218
I11
F1.0
S'good'
p1118
tp1119
a(I222
I1
I0
S'high'
p1120
tp1121
a(I249
I4
F1.0
S'good'
p1122
tp1123
a(I253
I4
I0
S'signal'
p1124
tp1125
a(I268
I0
I0
S'great'
p1126
tp1127
a(I273
I14
F1.0
S'good'
p1128
tp1129
a(I292
I2
F0.5
S'clear'
p1130
tp1131
as(S'card'
p1132
tp1133
(lp1134
(I42
I4
F1.0
g655
tp1135
a(I119
I0
F-0.125
g886
tp1136
a(I122
I6
F0.375
g657
tp1137
a(I151
I2
F1.0
g888
tp1138
a(I236
I3
F0.5
g51
tp1139
a(I236
I4
F0.5
g53
tp1140
a(I255
I3
F0.375
g663
tp1141
a(I255
I3
I0
g665
tp1142
a(I288
I2
I0
g667
tp1143
as(S'light'
p1144
tp1145
(lp1146
(I54
I5
F0.875
S'nice'
p1147
tp1148
as(g384
S'sim'
p1149
S'card'
p1150
tp1151
(lp1152
(I119
I0
F-0.125
g886
tp1153
a(I151
I2
F1.0
g888
tp1154
as(S'much'
p1155
S'better'
p1156
tp1157
(lp1158
(I151
I9
F0.375
g264
tp1159
a(I189
I1
F0.375
g829
tp1160
a(I227
I12
F0.375
g831
tp1161
as(S'zune'
p1162
tp1163
(lp1164
(I31
I10
F0.125
S'able'
p1165
tp1166
a(I269
I0
F0.625
S'easy'
p1167
tp1168
as(S'cell'
p1169
tp1170
(lp1171
(I86
I2
F0.25
S'unlocked'
p1172
tp1173
a(I101
I1
F0.875
S'nice'
p1174
tp1175
a(I101
I1
F1.0
S'good'
p1176
tp1177
a(I237
I18
F-0.5
S'heavy'
p1178
tp1179
as(S'months'
p1180
tp1181
(lp1182
(I2
I1
I0
S'few'
p1183
tp1184
a(I87
I0
F1.0
S'good'
p1185
tp1186
a(I131
I2
F-0.125
S'mine'
p1187
tp1188
a(I131
I2
F0.875
S'happy'
p1189
tp1190
a(I134
I12
I0
S'few'
p1191
tp1192
a(I154
I0
I0
S'few'
p1193
tp1194
a(I188
I0
F-0.25
S'past'
p1195
tp1196
as(S'apps'
p1197
tp1198
(lp1199
(I5
I1
I0
S'same'
p1200
tp1201
a(I5
I1
I0
S'android'
p1202
tp1203
a(I31
I3
F1.0
S'better'
p1204
tp1205
a(I31
I3
I0
S'same'
p1206
tp1207
a(I43
I14
I0
S'many'
p1208
tp1209
a(I46
I1
F0.375
S'available'
p1210
tp1211
a(I68
I5
I0
S'many'
p1212
tp1213
a(I72
I13
F0.375
S'available'
p1214
tp1215
a(I72
I13
F-0.125
S'overall'
p1216
tp1217
a(I77
I2
I0
S'fewer'
p1218
tp1219
a(I77
I2
I0
S'many'
p1220
tp1221
a(I85
I0
I0
S'most'
p1222
tp1223
a(I86
I3
F0.375
S'available'
p1224
tp1225
a(I94
I2
I0
S'few'
p1226
tp1227
a(I116
I5
F-0.625
S'free'
p1228
tp1229
a(I116
I6
F0.375
S'available'
p1230
tp1231
a(I122
I4
I0
S'great'
p1232
tp1233
a(I123
I2
F0.875
S'music'
p1234
tp1235
a(I130
I2
F1.0
S'good'
p1236
tp1237
a(I137
I17
F0.375
S'available'
p1238
tp1239
a(I138
I2
I0
S'many'
p1240
tp1241
a(I138
I3
I0
S'such'
p1242
tp1243
a(I138
I6
F0.375
S'available'
p1244
tp1245
a(I141
I3
F0.875
S'music'
p1246
tp1247
a(I145
I1
F1.0
S'good'
p1248
tp1249
a(I151
I8
F0.125
S'popular'
p1250
tp1251
a(I152
I8
F0.375
S'available'
p1252
tp1253
a(I170
I1
I0
S'such'
p1254
tp1255
a(I171
I3
I0
S'fewer'
p1256
tp1257
a(I183
I1
I0
S'wish'
p1258
tp1259
a(I183
I1
I0
S'more'
p1260
tp1261
a(I183
I1
I0
S'same'
p1262
tp1263
a(I198
I0
F-0.5
S'less'
p1264
tp1265
a(I232
I0
I0
S'more'
p1266
tp1267
a(I240
I1
F0.875
S'music'
p1268
tp1269
a(I252
I8
F-0.375
S'robust'
p1270
tp1271
a(I252
I8
F0.25
S'medical'
p1272
tp1273
a(I252
I20
I0
S'great'
p1274
tp1275
as(S'fast'
p1276
tp1277
(lp1278
(I54
I12
I0
S'incredible'
p1279
tp1280
as(S'mobile'
p1281
tp1282
(lp1283
(I231
I7
F1.0
S'good'
p1284
tp1285
as(S'oled'
p1286
S'screen'
p1287
tp1288
(lp1289
(I12
I9
F-0.75
g166
tp1290
a(I151
I7
I0
g212
tp1291
a(I199
I2
F-0.375
g218
tp1292
a(I199
I2
F-0.375
g220
tp1293
a(I239
I6
F0.75
g238
tp1294
as.