(dp0
(S'talk'
p1
S'customer'
p2
tp3
(lp4
(I9
I19
F0.625
S'straight'
p5
I0
tp6
a(I3
I2
I0
S'great'
p7
I11
tp8
a(I5
I68
F-0.25
S'hang'
p9
I11
tp10
a(I9
I20
F0.75
S'due'
p11
I11
tp12
a(I9
I20
F-0.625
S'bad'
p13
I11
tp14
as(S'customer'
p15
S'service'
p16
tp17
(lp18
(I3
I2
I0
g7
I3
tp19
a(I5
I68
F-0.25
g9
I3
tp20
as(S'wireless'
p21
tp22
(lp23
(I6
I23
I0
S'subsidiary'
p24
I0
tp25
a(I6
I23
F0.25
S'largest'
p26
I0
tp27
as(S'data'
p28
tp29
(lp30
(I5
I20
F-0.375
S'serious'
p31
I13
tp32
a(I5
I20
F-0.5
S'less'
p33
I13
tp34
a(I6
I32
F-0.5
S'less'
p35
I13
tp36
a(I6
I41
I0
S'capped'
p37
I13
tp38
a(I8
I52
F-0.5
S'unlimited'
p39
I13
tp40
a(I10
I2
F-0.5
S'less'
p41
I13
tp42
as(S'service'
p43
S'card'
p44
tp45
(lp46
(I4
I0
I0
S'great'
p47
I0
tp48
a(I6
I9
F0.875
S'lucky'
p49
I0
tp50
a(I1
I69
I0
S'quick'
p51
I16
tp52
a(I4
I0
I0
g47
I16
tp53
a(I4
I30
F1.0
S'good'
p54
I16
tp55
a(I5
I58
F1.0
S'good'
p56
I16
tp57
a(I5
I79
I0
S'great'
p58
I16
tp59
a(I6
I9
F0.875
g49
I16
tp60
a(I9
I11
F0.125
S'able'
p61
I16
tp62
a(I9
I11
F0.375
S'new'
p63
I16
tp64
a(I9
I11
I0
S'current'
p65
I16
tp66
a(I10
I11
I0
S'same'
p67
I16
tp68
a(I10
I11
I0
S'more'
p69
I16
tp70
as(S'real'
p71
S'person'
p72
tp73
(lp74
(I5
I30
I0
S'real'
p75
I0
tp76
a(I5
I30
F1.0
S'better'
p77
I0
tp78
a(I5
I30
I0
S'real'
p79
I0
tp80
a(I9
I14
I0
S'real'
p81
I0
tp82
as(S'on'
p83
S'straight'
p84
S'talk'
p85
tp86
(lp87
(I0
I0
F0.625
S'straight'
p88
I0
tp89
a(I1
I26
F0.125
S'able'
p90
I0
tp91
a(I2
I0
F0.625
S'straight'
p92
I0
tp93
a(I5
I1
F0.625
S'straight'
p94
I0
tp95
a(I5
I24
F0.625
S'straight'
p96
I0
tp97
a(I6
I49
F-0.375
S'authorized'
p98
I0
tp99
a(I6
I60
F0.625
S'straight'
p100
I0
tp101
a(I9
I19
F0.625
g5
I0
tp102
a(I9
I37
F0.625
S'straight'
p103
I0
tp104
a(I9
I43
F0.625
S'straight'
p105
I0
tp106
as(S'sim'
p107
S'card'
p108
tp109
(lp110
(I6
I9
F0.375
S'new'
p111
I0
tp112
as(S'cards'
p113
tp114
(lp115
(I8
I55
I0
S'great'
p116
I15
tp117
as(S'walmart'
p118
tp119
(lp120
(I4
I0
F-0.25
S'cheaper'
p121
I5
tp122
a(I12
I5
F-0.5
S'beef'
p123
I5
tp124
as(S'with'
p125
S'straight'
p126
S'talk'
p127
tp128
(lp129
(I6
I60
F0.625
g100
I0
tp130
a(I8
I19
F0.625
S'straight'
p131
I0
tp132
a(I9
I19
F0.625
g5
I0
tp133
a(I9
I31
F0.625
S'straight'
p134
I0
tp135
a(I9
I43
F0.625
g105
I0
tp136
a(I0
I0
F0.625
g88
I0
tp137
a(I1
I20
F-0.375
S'nearest'
p138
I0
tp139
a(I1
I26
F0.125
g90
I0
tp140
a(I2
I0
F0.625
g92
I0
tp141
a(I5
I1
F0.625
g94
I0
tp142
a(I5
I24
F0.625
g96
I0
tp143
a(I6
I49
F-0.375
g98
I0
tp144
a(I6
I60
F0.625
g100
I0
tp145
a(I8
I19
F0.625
g131
I0
tp146
a(I9
I19
F0.625
g5
I0
tp147
a(I9
I31
F0.625
g134
I0
tp148
a(I9
I37
F0.625
g103
I0
tp149
a(I9
I43
F0.625
g105
I0
tp150
a(I0
I0
F0.625
g88
I13
tp151
a(I1
I26
F0.125
g90
I13
tp152
a(I2
I0
F0.625
g92
I13
tp153
a(I5
I1
F0.625
g94
I13
tp154
a(I5
I24
F0.625
g96
I13
tp155
a(I6
I60
F0.625
g100
I13
tp156
a(I8
I19
F0.625
g131
I13
tp157
a(I9
I19
F0.625
g5
I13
tp158
a(I9
I31
F0.625
g134
I13
tp159
a(I9
I37
F0.625
g103
I13
tp160
a(I9
I43
F0.625
g105
I13
tp161
a(I1
I20
F-0.375
g138
I17
tp162
a(I6
I49
F-0.375
g98
I17
tp163
as.