(dp0
(S'for'
p1
S'unlimited'
p2
S'data'
p3
tp4
(lp5
(I127
I6
F0.125
S'impressive'
p6
tp7
a(I249
I0
I0
S'monthly'
p8
tp9
a(I404
I5
F0.875
S'lucky'
p10
tp11
a(I454
I4
F1.0
S'best'
p12
tp13
a(I465
I6
F-0.5
S'unlimited'
p14
tp15
a(I512
I11
F0.5
S'personal'
p16
tp17
as(S'35'
p18
S'a'
p19
S'month'
p20
tp21
(lp22
(I75
I4
I0
S'basic'
p23
tp24
a(I486
I2
F-0.375
S'top'
p25
tp26
as(S'keyboard'
p27
tp28
(lp29
(I10
I0
F-0.875
S'worst'
p30
tp31
a(I10
I1
F-0.5
S'poor'
p32
tp33
a(I11
I1
I0
S'physical'
p34
tp35
a(I11
I37
I0
S'physical'
p36
tp37
a(I25
I14
I0
S'android'
p38
tp39
a(I114
I3
F-0.375
S'small'
p40
tp41
a(I126
I2
I0
S'real'
p42
tp43
a(I130
I15
I0
S'quick'
p44
tp45
a(I140
I2
I0
S'physical'
p46
tp47
a(I161
I10
F-0.75
S'difficult'
p48
tp49
a(I203
I15
I0
S'android'
p50
tp51
a(I204
I2
F-0.75
S'impossible'
p52
tp53
a(I228
I4
F1.0
S'good'
p54
tp55
a(I228
I4
I0
S'real'
p56
tp57
a(I317
I3
F-0.375
S'small'
p58
tp59
a(I414
I11
F-0.375
S'small'
p60
tp61
a(I414
I12
F0.375
S'similar'
p62
tp63
a(I414
I12
F0.5
S'possible'
p64
tp65
a(I416
I3
F-0.375
S'smaller'
p66
tp67
a(I449
I12
F0.5
S'accurate'
p68
tp69
a(I486
I5
F-0.5
S'regular'
p70
tp71
a(I489
I3
F1.0
S'good'
p72
tp73
a(I536
I1
F-0.625
S'bad'
p74
tp75
as(S'nice'
p76
tp77
(lp78
(I416
I3
F0.5
S'clear'
p79
tp80
as(S'call'
p81
S'quality'
p82
tp83
(lp84
(I11
I31
F-0.75
S'stupid'
p85
tp86
a(I16
I3
F1.0
S'good'
p87
tp88
a(I27
I7
F-0.5
S'poor'
p89
tp90
a(I38
I3
F0.25
S'sharp'
p91
tp92
a(I47
I3
F1.0
S'good'
p93
tp94
a(I54
I3
F1.0
S'good'
p95
tp96
a(I83
I7
F0.875
S'nice'
p97
tp98
a(I114
I9
F-0.5
S'poor'
p99
tp100
a(I117
I7
F-0.25
S'higher'
p101
tp102
a(I121
I24
F-0.5
S'regular'
p103
tp104
a(I140
I11
F0.625
S'decent'
p105
tp106
a(I210
I9
F1.0
S'good'
p107
tp108
a(I253
I10
F1.0
S'good'
p109
tp110
a(I271
I10
I0
S'great'
p111
tp112
a(I274
I9
I0
S'great'
p113
tp114
a(I414
I4
F1.0
S'good'
p115
tp116
a(I449
I5
F-0.125
S'overall'
p117
tp118
a(I486
I9
I0
S'great'
p119
tp120
a(I512
I11
F-0.5
S'poor'
p121
tp122
a(I540
I0
I0
S'great'
p123
tp124
a(I569
I4
I0
S'great'
p125
tp126
as(S'short'
p127
S'battery'
p128
S'life'
p129
tp130
(lp131
(I6
I4
F-0.75
S'short'
p132
tp133
a(I23
I1
F-0.75
S'short'
p134
tp135
a(I27
I1
F-0.625
S'moderate'
p136
tp137
a(I27
I1
F-0.75
S'short'
p138
tp139
a(I75
I13
F-0.75
S'short'
p140
tp141
a(I108
I2
F-0.75
S'short'
p142
tp143
a(I230
I1
F-0.75
S'short'
p144
tp145
a(I259
I2
F-0.75
S'short'
p146
tp147
a(I273
I4
F-0.75
S'short'
p148
tp149
a(I318
I3
F-0.75
S'short'
p150
tp151
a(I332
I2
F-0.75
S'short'
p152
tp153
a(I335
I16
F-0.75
S'short'
p154
tp155
a(I364
I1
F-0.75
S'short'
p156
tp157
a(I392
I1
F-0.75
S'short'
p158
tp159
a(I393
I38
F-0.75
S'short'
p160
tp161
a(I482
I2
F-0.5
S'poor'
p162
tp163
a(I539
I1
F-0.75
S'short'
p164
tp165
a(I539
I7
F-0.75
S'short'
p166
tp167
a(I577
I4
F-0.75
S'short'
p168
tp169
as(S'touch'
p170
tp171
(lp172
(I46
I9
F-0.75
S'single'
p173
tp174
a(I117
I19
I0
S'more'
p175
tp176
a(I330
I1
I0
S'fast'
p177
tp178
a(I360
I6
I0
S'android'
p179
tp180
a(I381
I3
I0
S'great'
p181
tp182
a(I434
I0
F0.25
S'responsive'
p183
tp184
as(S'month'
p185
tp186
(lp187
(I6
I0
F0.375
S'extra'
p188
tp189
a(I8
I2
F0.125
S'able'
p190
tp191
a(I8
I2
I0
S'next'
p192
tp193
a(I75
I4
I0
g23
tp194
a(I76
I123
I0
S'more'
p195
tp196
a(I77
I21
F0.75
S'worth'
p197
tp198
a(I142
I1
I0
S'least'
p199
tp200
a(I145
I3
I0
S'old'
p201
tp202
a(I181
I3
F0.125
S'last'
p203
tp204
a(I215
I4
I0
S'great'
p205
tp206
a(I221
I0
I0
S'february'
p207
tp208
a(I221
I0
I0
S'old'
p209
tp210
a(I250
I0
I0
S'great'
p211
tp212
a(I254
I2
I0
S'next'
p213
tp214
a(I287
I4
I0
S'least'
p215
tp216
a(I324
I22
F-0.625
S'free'
p217
tp218
a(I351
I8
F1.0
S'good'
p219
tp220
a(I381
I2
F0.875
S'nice'
p221
tp222
a(I398
I0
I0
S'old'
p223
tp224
a(I415
I3
F-0.625
S'bad'
p225
tp226
a(I477
I15
F0.125
S'last'
p227
tp228
a(I486
I2
F-0.375
g25
tp229
a(I490
I2
I0
S'more'
p230
tp231
a(I494
I12
F-0.5
S'less'
p232
tp233
a(I506
I1
I0
S'later'
p234
tp235
a(I524
I2
F-0.75
S'little'
p236
tp237
a(I552
I7
F-0.25
S'past'
p238
tp239
a(I569
I9
I0
S'next'
p240
tp241
a(I579
I0
I0
S'more'
p242
tp243
a(I579
I0
F0.75
S'give'
p244
tp245
as(S'virgin'
p246
S'mobile'
p247
S'has'
p248
tp249
(lp250
(I20
I33
I0
S'least'
p251
tp252
a(I20
I33
I0
S'minimal'
p253
tp254
a(I51
I4
F-0.125
S'overall'
p255
tp256
a(I51
I4
I0
S'mobile'
p257
tp258
a(I300
I1
I0
S'mobile'
p259
tp260
a(I320
I4
F-0.25
S'direct'
p261
tp262
a(I343
I1
F0.625
S'easy'
p263
tp264
a(I343
I1
I0
S'mobile'
p265
tp266
a(I451
I0
F0.5
S'satisfied'
p267
tp268
as(S'quality'
p269
tp270
(lp271
(I16
I3
F1.0
g87
tp272
a(I27
I7
F-0.5
g89
tp273
a(I46
I12
I0
S'high'
p274
tp275
a(I47
I3
F1.0
g93
tp276
a(I48
I14
I0
S'high'
p277
tp278
a(I68
I13
F0.625
S'acceptable'
p279
tp280
a(I83
I7
F0.875
g97
tp281
a(I83
I8
F0.375
S'similar'
p282
tp283
a(I83
I8
F-0.625
S'free'
p284
tp285
a(I98
I2
I0
S'great'
p286
tp287
a(I111
I6
F1.0
S'better'
p288
tp289
a(I114
I9
F-0.5
g99
tp290
a(I117
I7
F-0.25
g101
tp291
a(I140
I11
F0.625
g105
tp292
a(I146
I21
F-0.625
S'bad'
p293
tp294
a(I210
I9
F1.0
g107
tp295
a(I253
I10
F1.0
g109
tp296
a(I274
I9
I0
g113
tp297
a(I287
I7
I0
S'great'
p298
tp299
a(I306
I11
I0
S'great'
p300
tp301
a(I340
I2
I0
S'very'
p302
tp303
a(I340
I2
F0.625
S'easy'
p304
tp305
a(I359
I2
F1.0
S'good'
p306
tp307
a(I397
I3
F-0.625
S'bad'
p308
tp309
a(I414
I4
F1.0
g115
tp310
a(I432
I5
F-0.125
S'overall'
p311
tp312
a(I449
I0
F1.0
S'good'
p313
tp314
a(I475
I4
F1.0
S'better'
p315
tp316
a(I486
I9
I0
g119
tp317
a(I512
I11
F-0.5
g121
tp318
a(I540
I0
I0
g123
tp319
a(I540
I5
I0
S'great'
p320
tp321
a(I540
I16
I0
S'high'
p322
tp323
a(I555
I7
F1.0
S'good'
p324
tp325
a(I555
I8
F0.125
S'above'
p326
tp327
as(S'to'
p328
S'sd'
p329
S'card'
p330
tp331
(lp332
(I36
I31
I0
S'external'
p333
tp334
a(I55
I16
F0.125
S'able'
p335
tp336
a(I119
I4
F0.375
S'new'
p337
tp338
a(I211
I16
I0
S'least'
p339
tp340
a(I211
I16
F0.25
S'larger'
p341
tp342
a(I263
I5
F0.5
S'possible'
p343
tp344
a(I416
I13
I0
S'sd'
p345
tp346
a(I416
I15
I0
S'sd'
p347
tp348
a(I555
I3
F0.5
S'possible'
p349
tp350
a(I557
I20
I0
S'most'
p351
tp352
a(I557
I20
I0
S'many'
p353
tp354
a(I584
I6
F0.25
S'larger'
p355
tp356
as(S'entry'
p357
S'level'
p358
S'android'
p359
tp360
(lp361
(I130
I18
I0
S'great'
p362
tp363
a(I194
I7
F0.125
S'first'
p364
tp365
a(I274
I17
F-0.125
S'alternative'
p366
tp367
a(I274
I17
F0.875
S'happy'
p368
tp369
as(S'beyond'
p370
S'talk'
p371
S'plan'
p372
tp373
(lp374
(I21
I0
F-0.125
S'minimum'
p375
tp376
a(I61
I4
F0.5
S'true'
p377
tp378
a(I451
I2
I0
S'old'
p379
tp380
a(I451
I2
F0.375
S'new'
p381
tp382
as(S'less'
p383
tp384
(lp385
(I191
I5
I0
S'third'
p386
tp387
a(I367
I1
F0.125
S'last'
p388
tp389
a(I512
I35
F0.25
S'responsive'
p390
tp391
as(S'sd'
p392
S'card'
p393
tp394
(lp395
(I36
I31
I0
g333
tp396
a(I55
I16
F0.125
g335
tp397
a(I119
I4
F0.375
g337
tp398
a(I211
I16
I0
g339
tp399
a(I211
I16
F0.25
g341
tp400
a(I263
I5
F0.5
g343
tp401
a(I416
I13
I0
g345
tp402
a(I416
I15
I0
g347
tp403
a(I491
I4
F0.25
S'bigger'
p404
tp405
a(I555
I3
F0.5
g349
tp406
a(I557
I20
I0
g351
tp407
a(I557
I20
I0
g353
tp408
a(I569
I6
I0
S'external'
p409
tp410
a(I584
I6
F0.25
g355
tp411
as(S'unlimited'
p412
S'data'
p413
tp414
(lp415
(I51
I3
F0.125
S'digital'
p416
tp417
a(I127
I6
F0.125
g6
tp418
a(I203
I12
F-0.5
S'unlimited'
p419
tp420
a(I249
I0
I0
g8
tp421
a(I404
I5
F0.875
g10
tp422
a(I454
I4
F1.0
g12
tp423
a(I465
I6
F-0.5
g14
tp424
a(I512
I11
F0.5
g16
tp425
as(S'contract'
p426
tp427
(lp428
(I40
I16
F-0.5
S'less'
p429
tp430
a(I48
I2
I0
S'more'
p431
tp432
a(I48
I4
I0
S'mere'
p433
tp434
a(I75
I2
I0
S'two-year'
p435
tp436
a(I85
I9
F-0.25
S'ready'
p437
tp438
a(I88
I8
F1.0
S'good'
p439
tp440
a(I95
I10
I0
S'annual'
p441
tp442
a(I206
I9
I0
S'close'
p443
tp444
a(I211
I39
F-0.5
S'sure'
p445
tp446
a(I211
I40
F-0.625
S'want'
p447
tp448
a(I270
I12
I0
S'monthly'
p449
tp450
a(I349
I21
F0.625
S'perfect'
p451
tp452
a(I349
I21
F-0.25
S'cheap'
p453
tp454
a(I557
I0
F-0.125
S'minimum'
p455
tp456
a(I569
I2
F-0.25
S'cheaper'
p457
tp458
as(S'apps'
p459
S'to'
p460
S'sd'
p461
tp462
(lp463
(I27
I4
I0
S'downloaded'
p464
tp465
a(I36
I31
I0
S'most'
p466
tp467
a(I36
I31
I0
g333
tp468
a(I56
I7
F0.375
S'much'
p469
tp470
a(I56
I7
I0
S'many'
p471
tp472
a(I72
I1
F0.125
S'able'
p473
tp474
a(I88
I3
F-0.625
S'free'
p475
tp476
a(I119
I6
F-0.5
S'sure'
p477
tp478
a(I119
I12
F0.25
S'largest'
p479
tp480
a(I172
I14
F0.375
S'forcing'
p481
tp482
a(I172
I14
I0
S'close'
p483
tp484
a(I172
I14
F-0.125
S'delete'
p485
tp486
a(I182
I9
I0
S'download'
p487
tp488
a(I210
I8
I0
S'many'
p489
tp490
a(I263
I9
I0
S'many'
p491
tp492
a(I281
I1
F0.125
S'able'
p493
tp494
a(I281
I1
I0
S'many'
p495
tp496
a(I317
I13
I0
S'own'
p497
tp498
a(I317
I13
F0.375
S'much'
p499
tp500
a(I317
I15
I0
S'such'
p501
tp502
a(I324
I6
I0
S'many'
p503
tp504
a(I412
I4
F0.125
S'able'
p505
tp506
a(I416
I11
I0
S'only'
p507
tp508
a(I416
I11
I0
S'update'
p509
tp510
a(I416
I11
F-0.625
S'fresh'
p511
tp512
a(I416
I13
F0.125
S'able'
p513
tp514
a(I416
I17
I0
S'most'
p515
tp516
a(I426
I3
I0
S'many'
p517
tp518
a(I426
I3
F0.5
S'possible'
p519
tp520
a(I437
I8
I0
S'many'
p521
tp522
a(I437
I8
F0.5
S'possible'
p523
tp524
a(I461
I6
I0
S'few'
p525
tp526
a(I461
I6
F-0.375
S'crash'
p527
tp528
a(I498
I5
I0
S'many'
p529
tp530
a(I506
I21
F0.125
S'able'
p531
tp532
a(I585
I15
F0.125
S'able'
p533
tp534
as(S'optimus'
p535
S'v'
p536
tp537
(lp538
(I11
I11
F0.875
S'happier'
p539
tp540
a(I11
I11
F1.0
S'better'
p541
tp542
a(I20
I12
F0.375
S'new'
p543
tp544
a(I36
I29
I0
S'rooted'
p545
tp546
a(I48
I6
F0.5
S'reasonable'
p547
tp548
a(I75
I17
F1.0
S'best'
p549
tp550
a(I76
I76
F1.0
S'best'
p551
tp552
a(I107
I4
F0.125
S'able'
p553
tp554
a(I107
I4
I0
S'close'
p555
tp556
a(I111
I0
F0.625
S'decent'
p557
tp558
a(I120
I0
I0
S'february'
p559
tp560
a(I131
I17
F-0.625
S'other'
p561
tp562
a(I140
I11
I0
S'same'
p563
tp564
a(I140
I11
F0.375
S'new'
p565
tp566
a(I140
I11
I0
S'mobile'
p567
tp568
a(I211
I36
F0.125
S'able'
p569
tp570
a(I211
I66
F-0.5
S'sure'
p571
tp572
a(I211
I66
F-0.125
S'mine'
p573
tp574
a(I211
I96
I0
S'great'
p575
tp576
a(I218
I2
F0.25
S'powerful'
p577
tp578
a(I218
I7
F-0.75
S'wrong'
p579
tp580
a(I219
I0
F0.75
S'due'
p581
tp582
a(I277
I1
I0
S'basic'
p583
tp584
a(I277
I3
F0.875
S'happy'
p585
tp586
a(I350
I15
F1.0
S'better'
p587
tp588
a(I360
I0
I0
S'february'
p589
tp590
a(I370
I0
I0
S'mobile'
p591
tp592
a(I370
I1
F1.0
S'good'
p593
tp594
a(I370
I26
I0
S'great'
p595
tp596
a(I380
I1
F1.0
S'good'
p597
tp598
a(I380
I3
I0
S'basic'
p599
tp600
a(I394
I4
F0.5
S'second'
p601
tp602
a(I404
I0
F0.875
S'lucky'
p603
tp604
a(I408
I2
F0.375
S'similar'
p605
tp606
a(I408
I6
F0.375
S'new'
p607
tp608
a(I437
I1
I0
S'android'
p609
tp610
a(I486
I3
F-0.375
S'black'
p611
tp612
as(S'virgin'
p613
S'mobile'
p614
S'customer'
p615
tp616
(lp617
(I81
I8
I0
S'only'
p618
tp619
a(I142
I1
I0
S'most'
p620
tp621
a(I142
I1
F0.5
S'polite'
p622
tp623
a(I262
I11
F0.5
S'loyal'
p624
tp625
a(I451
I0
F0.5
g267
tp626
a(I548
I17
I0
S'mobile'
p627
tp628
a(I570
I2
I0
S'great'
p629
tp630
as(S'charge'
p631
tp632
(lp633
(I50
I1
F-0.5
S'less'
p634
tp635
a(I95
I5
F-0.375
S'daily'
p636
tp637
a(I145
I4
I0
S'full'
p638
tp639
a(I211
I63
F1.0
S'good'
p640
tp641
a(I229
I0
I0
S'full'
p642
tp643
a(I248
I7
F-0.75
S'single'
p644
tp645
a(I345
I2
I0
S'full'
p646
tp647
a(I477
I13
F0.375
S'extra'
p648
tp649
a(I542
I1
F0.375
S'complete'
p650
tp651
a(I569
I14
I0
S'full'
p652
tp653
as(S'however'
p654
tp655
(lp656
(I147
I0
I0
S'great'
p657
tp658
as(S'25'
p659
g19
S'month'
p660
tp661
(lp662
(I142
I1
I0
g199
tp663
a(I415
I3
F-0.625
g225
tp664
a(I569
I9
I0
g240
tp665
as(S'optimus'
p666
tp667
(lp668
(I20
I12
F0.375
g543
tp669
a(I36
I29
I0
g545
tp670
a(I76
I76
F1.0
g551
tp671
a(I120
I0
I0
g559
tp672
a(I131
I17
F-0.625
g561
tp673
a(I140
I11
I0
g563
tp674
a(I140
I11
F0.375
g565
tp675
a(I140
I11
I0
g567
tp676
a(I218
I2
F0.25
g577
tp677
a(I218
I7
F-0.75
g579
tp678
a(I350
I15
F1.0
g587
tp679
a(I350
I16
F0.5
S'functional'
p680
tp681
a(I350
I16
I0
S'close'
p682
tp683
a(I370
I26
I0
g595
tp684
a(I380
I3
I0
g599
tp685
a(I394
I4
F0.5
g601
tp686
a(I404
I0
F0.875
g603
tp687
a(I408
I2
F0.375
g605
tp688
a(I408
I6
F0.375
g607
tp689
a(I408
I18
F1.0
S'good'
p690
tp691
a(I486
I3
F-0.375
g611
tp692
as(S'wi'
p693
S'fi'
p694
tp695
(lp696
(I335
I14
I0
S'great'
p697
tp698
as(S'smartphone'
p699
tp700
(lp701
(I0
I0
F0.125
S'first'
p702
tp703
a(I16
I0
I0
S'real'
p704
tp705
a(I16
I8
F0.875
S'nice'
p706
tp707
a(I22
I6
F-0.5
S'call'
p708
tp709
a(I48
I16
F0.5
S'reasonable'
p710
tp711
a(I57
I1
I0
S'very'
p712
tp713
a(I57
I1
F0.125
S'first'
p714
tp715
a(I75
I8
F-0.25
S'thin'
p716
tp717
a(I75
I8
F-0.375
S'small'
p718
tp719
a(I75
I8
F-0.625
S'light'
p720
tp721
a(I75
I17
I0
S'most'
p722
tp723
a(I75
I17
F-0.25
S'inexpensive'
p724
tp725
a(I76
I8
F0.375
S'much'
p726
tp727
a(I76
I22
F0.125
S'able'
p728
tp729
a(I77
I11
I0
S'great'
p730
tp731
a(I83
I4
F0.125
S'first'
p732
tp733
a(I92
I14
F0.625
S'easy'
p734
tp735
a(I93
I0
I0
S'great'
p736
tp737
a(I102
I1
I0
S'android'
p738
tp739
a(I109
I0
F0.875
S'nice'
p740
tp741
a(I109
I0
F0.875
S'nice'
p742
tp743
a(I109
I0
F1.0
S'best'
p744
tp745
a(I118
I0
F0.125
S'first'
p746
tp747
a(I119
I0
F0.125
S'first'
p748
tp749
a(I119
I0
I0
S'great'
p750
tp751
a(I126
I1
F1.0
S'best'
p752
tp753
a(I185
I0
F0.125
S'first'
p754
tp755
a(I195
I4
F0.125
S'first'
p756
tp757
a(I210
I4
F0.125
S'first'
p758
tp759
a(I214
I0
F1.0
S'good'
p760
tp761
a(I222
I3
F-0.25
S'modern'
p762
tp763
a(I233
I0
F0.125
S'first'
p764
tp765
a(I249
I1
I0
S'great'
p766
tp767
a(I249
I1
F0.125
S'first'
p768
tp769
a(I249
I10
I0
S'next'
p770
tp771
a(I252
I13
F0.375
S'new'
p772
tp773
a(I306
I2
F0.125
S'first'
p774
tp775
a(I310
I2
I0
S'android'
p776
tp777
a(I310
I3
F0.625
S'perfect'
p778
tp779
a(I350
I0
F0.125
S'first'
p780
tp781
a(I356
I3
F0.125
S'first'
p782
tp783
a(I356
I3
I0
S'real'
p784
tp785
a(I357
I0
I0
S'notable'
p786
tp787
a(I365
I0
F0.125
S'first'
p788
tp789
a(I380
I1
I0
S'basic'
p790
tp791
a(I380
I2
I0
S'basic'
p792
tp793
a(I388
I13
F-0.5
S'heavy'
p794
tp795
a(I421
I1
F-0.375
S'simple'
p796
tp797
a(I426
I11
I0
S'basic'
p798
tp799
a(I439
I0
F0.125
S'first'
p800
tp801
a(I460
I7
I0
S'great'
p802
tp803
a(I484
I14
F0.125
S'first'
p804
tp805
a(I512
I4
F-0.25
S'inexpensive'
p806
tp807
a(I540
I25
I0
S'great'
p808
tp809
a(I540
I62
I0
S'android'
p810
tp811
a(I548
I1
F1.0
S'best'
p812
tp813
a(I563
I1
F0.125
S'first'
p814
tp815
a(I563
I1
F0.125
S'first'
p816
tp817
a(I567
I0
F0.125
S'first'
p818
tp819
as(S'card'
p820
tp821
(lp822
(I55
I16
F0.125
g335
tp823
a(I211
I16
I0
g339
tp824
a(I211
I16
F0.25
g341
tp825
a(I263
I5
F0.5
g343
tp826
a(I338
I11
F0.25
S'larger'
p827
tp828
a(I416
I13
I0
g345
tp829
a(I416
I15
I0
g347
tp830
a(I424
I9
I0
S'faster'
p831
tp832
a(I479
I5
F0.375
S'extra'
p833
tp834
a(I555
I3
F0.5
g349
tp835
a(I557
I20
I0
g353
tp836
as(S'virgin'
p837
S'mobile'
p838
S'service'
p839
tp840
(lp841
(I11
I6
I0
S'mobile'
p842
tp843
a(I14
I1
F0.375
S'new'
p844
tp845
a(I24
I8
I0
S'monthly'
p846
tp847
a(I74
I5
F0.125
S'able'
p848
tp849
a(I74
I5
F-0.125
S'overall'
p850
tp851
a(I78
I1
I0
S'great'
p852
tp853
a(I142
I1
I0
S'phenomenal'
p854
tp855
a(I146
I17
F-0.5
S'pointless'
p856
tp857
a(I211
I37
F-0.5
S'sure'
p858
tp859
a(I212
I14
F-0.5
S'regular'
p860
tp861
a(I219
I8
F-0.125
S'virgin'
p862
tp863
a(I219
I8
I0
S'current'
p864
tp865
a(I219
I8
I0
S'standard'
p866
tp867
a(I295
I1
F-0.125
S'virgin'
p868
tp869
a(I295
I1
I0
S'only'
p870
tp871
a(I301
I0
I0
S'basic'
p872
tp873
a(I310
I9
I0
S'cellular'
p874
tp875
a(I310
I13
I0
S'draconian'
p876
tp877
a(I310
I42
F0.625
S'sexiest'
p878
tp879
a(I369
I3
F0.5
S'thankful'
p880
tp881
a(I370
I27
I0
S'adequate'
p882
tp883
a(I370
I27
I0
S'least'
p884
tp885
a(I416
I30
F1.0
S'good'
p886
tp887
a(I428
I22
F-0.75
S'dead'
p888
tp889
a(I428
I22
F0.125
S'last'
p890
tp891
a(I449
I14
I0
S'mobile'
p892
tp893
a(I492
I4
F0.125
S'first'
p894
tp895
a(I492
I4
F1.0
S'best'
p896
tp897
a(I541
I12
F-0.625
S'bad'
p898
tp899
a(I585
I2
I0
S'mobile'
p900
tp901
as(S'love'
p902
tp903
(lp904
(I8
I4
F1.0
S'love'
p905
tp906
a(I408
I4
F1.0
S'better'
p907
tp908
as(S'customer'
p909
S'service'
p910
tp911
(lp912
(I10
I4
F-0.875
S'worst'
p913
tp914
a(I35
I4
F0.5
S'expensive'
p915
tp916
a(I78
I2
I0
S'great'
p917
tp918
a(I85
I10
I0
S'great'
p919
tp920
a(I88
I8
F1.0
S'good'
p921
tp922
a(I142
I1
I0
g854
tp923
a(I142
I1
I0
g620
tp924
a(I142
I1
F0.5
g622
tp925
a(I262
I2
F1.0
S'good'
p926
tp927
a(I262
I12
F-0.5
S'poor'
p928
tp929
a(I310
I9
I0
g874
tp930
a(I370
I27
I0
g882
tp931
a(I370
I27
I0
g884
tp932
a(I509
I6
I0
S'signal'
p933
tp934
a(I541
I12
F-0.625
g898
tp935
a(I570
I2
I0
g629
tp936
as(S'wifi'
p937
tp938
(lp939
(I20
I37
F0.625
S'easy'
p940
tp941
a(I24
I12
F0.125
S'outside'
p942
tp943
a(I24
I16
F-0.625
S'free'
p944
tp945
a(I24
I16
F-0.5
S'open'
p946
tp947
a(I46
I42
I0
S'particular'
p948
tp949
a(I54
I3
F0.375
S'available'
p950
tp951
a(I92
I4
F0.125
S'capable'
p952
tp953
a(I92
I13
F-0.625
S'free'
p954
tp955
a(I107
I12
F0.375
S'enable'
p956
tp957
a(I131
I12
I0
S'great'
p958
tp959
a(I135
I2
I0
S'connect'
p960
tp961
a(I194
I1
F0.875
S'happy'
p962
tp963
a(I194
I4
I0
S'great'
p964
tp965
a(I211
I49
F0.375
S'much'
p966
tp967
a(I248
I1
I0
S'net'
p968
tp969
a(I255
I13
F1.0
S'good'
p970
tp971
a(I268
I3
I0
S'great'
p972
tp973
a(I372
I2
F0.375
S'much'
p974
tp975
a(I393
I53
I0
S'faster'
p976
tp977
a(I408
I6
I0
S'common'
p978
tp979
a(I408
I6
I0
S'large'
p980
tp981
a(I449
I0
I0
S'mobile'
p982
tp983
a(I495
I1
F0.875
S'nice'
p984
tp985
a(I526
I1
I0
S'great'
p986
tp987
a(I587
I3
I0
S'own'
p988
tp989
as(S'from'
p990
S'virgin'
p991
S'mobile'
p992
tp993
(lp994
(I20
I33
I0
g251
tp995
a(I20
I33
I0
g253
tp996
a(I418
I11
I0
S'latest'
p997
tp998
a(I533
I0
F0.125
S'last'
p999
tp1000
as(S'on'
p1001
S'virgin'
p1002
S'mobile'
p1003
tp1004
(lp1005
(I6
I1
I0
S'mobile'
p1006
tp1007
a(I11
I6
I0
g842
tp1008
a(I20
I33
I0
g251
tp1009
a(I20
I33
I0
g253
tp1010
a(I35
I13
F0.75
S'worth'
p1011
tp1012
a(I48
I9
I0
S'website'
p1013
tp1014
a(I48
I9
F1.0
S'good'
p1015
tp1016
a(I51
I4
F-0.125
g255
tp1017
a(I51
I4
I0
g257
tp1018
a(I76
I50
I0
S'cool'
p1019
tp1020
a(I95
I10
F0.125
S'able'
p1021
tp1022
a(I117
I2
I0
S'mobile'
p1023
tp1024
a(I211
I34
I0
S'website'
p1025
tp1026
a(I219
I8
F-0.125
g862
tp1027
a(I275
I2
F0.125
S'able'
p1028
tp1029
a(I279
I11
F0.125
S'able'
p1030
tp1031
a(I294
I0
I0
S'awhile'
p1032
tp1033
a(I295
I1
F-0.125
g868
tp1034
a(I301
I0
I0
g872
tp1035
a(I320
I4
F-0.25
g261
tp1036
a(I369
I3
F0.5
g880
tp1037
a(I408
I12
F-0.125
S'former'
p1038
tp1039
a(I418
I11
I0
g997
tp1040
a(I449
I0
I0
S'mobile'
p1041
tp1042
a(I449
I26
F0.375
S'much'
p1043
tp1044
a(I451
I0
F0.5
g267
tp1045
a(I466
I4
F0.125
S'able'
p1046
tp1047
a(I489
I3
I0
S'mobile'
p1048
tp1049
a(I489
I3
F-0.75
S'wrong'
p1050
tp1051
a(I492
I4
F0.125
g894
tp1052
a(I502
I3
F0.875
S'happy'
p1053
tp1054
a(I533
I0
F0.125
g999
tp1055
as(S'fast'
p1056
tp1057
(lp1058
(I27
I5
F-0.125
S'slow'
p1059
tp1060
a(I40
I9
F0.125
S'plenty'
p1061
tp1062
a(I132
I0
F0.125
S'mighty'
p1063
tp1064
a(I132
I0
F1.0
S'good'
p1065
tp1066
a(I163
I4
F-0.125
S'super'
p1067
tp1068
a(I163
I4
F0.625
S'easy'
p1069
tp1070
as(S'times'
p1071
tp1072
(lp1073
(I27
I1
I0
S'many'
p1074
tp1075
a(I37
I2
I0
S'signal'
p1076
tp1077
a(I97
I0
I0
S'many'
p1078
tp1079
a(I104
I0
I0
S'many'
p1080
tp1081
a(I108
I0
I0
S'high'
p1082
tp1083
a(I108
I0
I0
S'many'
p1084
tp1085
a(I108
I0
I0
S'many'
p1086
tp1087
a(I108
I0
F1.0
S'good'
p1088
tp1089
a(I108
I0
F0.375
S'new'
p1090
tp1091
a(I114
I3
F-0.75
S'unreliable'
p1092
tp1093
a(I117
I9
I0
S'few'
p1094
tp1095
a(I119
I14
I0
S'more'
p1096
tp1097
a(I127
I8
I0
S'many'
p1098
tp1099
a(I176
I5
I0
S'many'
p1100
tp1101
a(I187
I5
F-0.125
S'slow'
p1102
tp1103
a(I195
I1
F-0.125
S'slow'
p1104
tp1105
a(I261
I3
I0
S'many'
p1106
tp1107
a(I353
I5
F-0.625
S'bad'
p1108
tp1109
a(I380
I24
F0.25
S'larger'
p1110
tp1111
a(I396
I7
I0
S'few'
p1112
tp1113
a(I412
I8
I0
S'least'
p1114
tp1115
a(I424
I7
F-0.625
S'other'
p1116
tp1117
a(I461
I3
F-0.5
S'long'
p1118
tp1119
a(I471
I5
I0
S'many'
p1120
tp1121
a(I555
I0
F-0.375
S'daily'
p1122
tp1123
a(I576
I2
F-0.5
S'less'
p1124
tp1125
as(S'problem'
p1126
tp1127
(lp1128
(I20
I17
F0.5
S'obvious'
p1129
tp1130
a(I46
I32
I0
S'prepaid'
p1131
tp1132
a(I46
I62
F-0.5
S'sure'
p1133
tp1134
a(I74
I4
I0
S'only'
p1135
tp1136
a(I74
I4
F-0.75
S'little'
p1137
tp1138
a(I75
I13
I0
S'common'
p1139
tp1140
a(I76
I60
I0
S'big'
p1141
tp1142
a(I80
I0
I0
S'only'
p1143
tp1144
a(I81
I8
I0
S'common'
p1145
tp1146
a(I121
I25
F0.25
S'biggest'
p1147
tp1148
a(I136
I1
I0
S'same'
p1149
tp1150
a(I139
I0
F-0.375
S'serious'
p1151
tp1152
a(I139
I2
F-0.375
S'serious'
p1153
tp1154
a(I140
I7
I0
S'only'
p1155
tp1156
a(I146
I2
F0.25
S'biggest'
p1157
tp1158
a(I146
I14
F0.625
S'major'
p1159
tp1160
a(I226
I1
I0
S'only'
p1161
tp1162
a(I261
I2
I0
S'most'
p1163
tp1164
a(I287
I21
F-0.875
S'worst'
p1165
tp1166
a(I303
I3
I0
S'common'
p1167
tp1168
a(I333
I9
F-0.5
S'sure'
p1169
tp1170
a(I335
I25
F0.5
S'absolute'
p1171
tp1172
a(I349
I20
F-0.75
S'minor'
p1173
tp1174
a(I358
I2
F0.25
S'biggest'
p1175
tp1176
a(I370
I29
I0
S'quick'
p1177
tp1178
a(I382
I2
I0
S'same'
p1179
tp1180
a(I390
I1
F0.625
S'major'
p1181
tp1182
a(I393
I14
F0.625
S'major'
p1183
tp1184
a(I404
I7
I0
S'such'
p1185
tp1186
a(I424
I11
F-0.625
S'infrequent'
p1187
tp1188
a(I466
I18
F0.625
S'aware'
p1189
tp1190
a(I466
I54
I0
S'only'
p1191
tp1192
a(I491
I4
F0.125
S'first'
p1193
tp1194
a(I494
I19
F-0.75
S'single'
p1195
tp1196
a(I509
I2
I0
S'many'
p1197
tp1198
a(I509
I2
F0.25
S'biggest'
p1199
tp1200
a(I553
I5
I0
S'only'
p1201
tp1202
a(I554
I10
I0
S'same'
p1203
tp1204
a(I562
I1
F-0.75
S'dead'
p1205
tp1206
a(I562
I1
F-0.625
S'other'
p1207
tp1208
a(I562
I1
I0
S'big'
p1209
tp1210
a(I569
I14
I0
S'big'
p1211
tp1212
as(S'text'
p1213
tp1214
(lp1215
(I25
I9
F1.0
S'good'
p1216
tp1217
a(I30
I1
F-0.5
S'unlimited'
p1218
tp1219
a(I75
I13
F0.375
S'new'
p1220
tp1221
a(I83
I13
I0
S'big'
p1222
tp1223
a(I95
I11
F-0.5
S'unlimited'
p1224
tp1225
a(I194
I5
F0.625
S'easy'
p1226
tp1227
a(I251
I3
F0.75
S'receive'
p1228
tp1229
a(I356
I1
I0
S'mobile'
p1230
tp1231
a(I416
I25
F0.375
S'new'
p1232
tp1233
a(I426
I5
F-0.625
S'other'
p1234
tp1235
a(I426
I5
I0
S'elective'
p1236
tp1237
a(I428
I1
I0
S'e-mail'
p1238
tp1239
a(I508
I3
F0.5
S'possible'
p1240
tp1241
a(I582
I1
F-0.5
S'unlimited'
p1242
tp1243
a(I585
I6
F0.125
S'able'
p1244
tp1245
a(I585
I6
I0
S'song'
p1246
tp1247
as(S'price'
p1248
tp1249
(lp1250
(I1
I2
I0
S'such'
p1251
tp1252
a(I13
I16
I0
S'retail'
p1253
tp1254
a(I15
I2
F0.5
S'reasonable'
p1255
tp1256
a(I30
I13
I0
S'great'
p1257
tp1258
a(I39
I6
I0
S'great'
p1259
tp1260
a(I46
I56
I0
S'close'
p1261
tp1262
a(I49
I6
F0.25
S'recent'
p1263
tp1264
a(I66
I4
F1.0
S'good'
p1265
tp1266
a(I75
I2
F0.625
S'fair'
p1267
tp1268
a(I76
I3
F-0.25
S'cheapest'
p1269
tp1270
a(I76
I3
F0.375
S'available'
p1271
tp1272
a(I76
I38
I0
S'internet'
p1273
tp1274
a(I76
I95
I0
S'same'
p1275
tp1276
a(I76
I105
F-0.25
S'cheapest'
p1277
tp1278
a(I76
I105
F0.375
S'available'
p1279
tp1280
a(I83
I13
F0.5
S'expensive'
p1281
tp1282
a(I85
I2
I0
S'great'
p1283
tp1284
a(I93
I1
F0.875
S'attractive'
p1285
tp1286
a(I98
I3
F0.75
S'worth'
p1287
tp1288
a(I106
I9
F-0.875
S'hard'
p1289
tp1290
a(I114
I12
F1.0
S'best'
p1291
tp1292
a(I117
I1
F0.375
S'much'
p1293
tp1294
a(I120
I2
F0.5
S'reasonable'
p1295
tp1296
a(I130
I1
I0
S'such'
p1297
tp1298
a(I130
I1
I0
S'great'
p1299
tp1300
a(I178
I4
I0
S'great'
p1301
tp1302
a(I183
I2
F0.625
S'easy'
p1303
tp1304
a(I194
I7
I0
S'great'
p1305
tp1306
a(I207
I2
F1.0
S'good'
p1307
tp1308
a(I211
I40
F0.5
S'reasonable'
p1309
tp1310
a(I211
I43
F1.0
S'best'
p1311
tp1312
a(I214
I1
F-0.25
S'cheaper'
p1313
tp1314
a(I216
I3
I0
S'such'
p1315
tp1316
a(I216
I3
F1.0
S'good'
p1317
tp1318
a(I232
I0
F1.0
S'best'
p1319
tp1320
a(I237
I2
I0
S'great'
p1321
tp1322
a(I242
I0
I0
S'great'
p1323
tp1324
a(I247
I3
F-0.25
S'low'
p1325
tp1326
a(I254
I1
F-0.25
S'higher'
p1327
tp1328
a(I255
I16
F-0.375
S'simple'
p1329
tp1330
a(I255
I16
F-0.375
S'simple'
p1331
tp1332
a(I255
I16
I0
S'great'
p1333
tp1334
a(I299
I2
F1.0
S'good'
p1335
tp1336
a(I302
I9
F0.75
S'worth'
p1337
tp1338
a(I318
I0
F0.5
S'reasonable'
p1339
tp1340
a(I321
I0
I0
S'high'
p1341
tp1342
a(I324
I4
F-0.25
S'cheap'
p1343
tp1344
a(I327
I1
F1.0
S'good'
p1345
tp1346
a(I349
I10
F-0.75
S'minor'
p1347
tp1348
a(I350
I14
I0
S'standard'
p1349
tp1350
a(I350
I14
I0
S'retail'
p1351
tp1352
a(I353
I5
F-0.625
S'glad'
p1353
tp1354
a(I353
I5
I0
S'full'
p1355
tp1356
a(I357
I3
F-0.25
S'higher'
p1357
tp1358
a(I361
I18
F-0.625
S'glad'
p1359
tp1360
a(I361
I18
I0
S'full'
p1361
tp1362
a(I381
I6
F-0.125
S'overall'
p1363
tp1364
a(I381
I8
F0.875
S'nice'
p1365
tp1366
a(I381
I8
F1.0
S'good'
p1367
tp1368
a(I381
I8
F0.125
S'last'
p1369
tp1370
a(I382
I0
I0
S'great'
p1371
tp1372
a(I393
I62
I0
S'such'
p1373
tp1374
a(I393
I62
I0
S'great'
p1375
tp1376
a(I393
I62
F0.375
S'much'
p1377
tp1378
a(I402
I1
F1.0
S'better'
p1379
tp1380
a(I404
I1
F0.75
S'due'
p1381
tp1382
a(I418
I12
I0
S'old'
p1383
tp1384
a(I418
I33
I0
S'current'
p1385
tp1386
a(I425
I8
I0
S'great'
p1387
tp1388
a(I433
I1
F-0.375
S'top'
p1389
tp1390
a(I441
I0
F0.25
S'tired'
p1391
tp1392
a(I441
I0
I0
S'full'
p1393
tp1394
a(I452
I6
F-0.375
S'unacceptable'
p1395
tp1396
a(I506
I8
F1.0
S'best'
p1397
tp1398
a(I517
I8
F1.0
S'better'
p1399
tp1400
a(I521
I0
F-0.5
S'regular'
p1401
tp1402
a(I525
I8
F0.875
S'nice'
p1403
tp1404
a(I527
I1
F0.5
S'reasonable'
p1405
tp1406
a(I534
I3
F-0.25
S'low'
p1407
tp1408
a(I552
I5
F1.0
S'good'
p1409
tp1410
a(I568
I1
I0
S'great'
p1411
tp1412
a(I569
I12
F0.375
S'mean'
p1413
tp1414
a(I569
I12
I0
S'full'
p1415
tp1416
a(I576
I6
I0
S'great'
p1417
tp1418
a(I581
I0
F-0.25
S'cheaper'
p1419
tp1420
as(S'service'
p1421
tp1422
(lp1423
(I10
I4
F-0.875
g913
tp1424
a(I14
I1
F0.375
g844
tp1425
a(I24
I8
I0
g846
tp1426
a(I24
I20
I0
S'internet'
p1427
tp1428
a(I35
I4
F0.5
g915
tp1429
a(I35
I7
I0
S'own'
p1430
tp1431
a(I46
I2
I0
S'prepaid'
p1432
tp1433
a(I46
I3
I0
S'prepaid'
p1434
tp1435
a(I46
I3
I0
S'representative'
p1436
tp1437
a(I49
I3
F-0.75
S'unable'
p1438
tp1439
a(I49
I4
I0
S'initial'
p1440
tp1441
a(I51
I6
F-0.125
S'overall'
p1442
tp1443
a(I51
I6
F0.875
S'happy'
p1444
tp1445
a(I57
I4
F1.0
S'good'
p1446
tp1447
a(I57
I21
F1.0
S'good'
p1448
tp1449
a(I57
I21
F0.625
S'easy'
p1450
tp1451
a(I74
I5
F0.125
g848
tp1452
a(I74
I5
F-0.125
g850
tp1453
a(I76
I16
F1.0
S'better'
p1454
tp1455
a(I76
I23
I0
S'mobile'
p1456
tp1457
a(I78
I1
I0
g852
tp1458
a(I78
I2
I0
g917
tp1459
a(I78
I3
I0
S'different'
p1460
tp1461
a(I78
I6
F0.5
S'expensive'
p1462
tp1463
a(I83
I1
F0.375
S'available'
p1464
tp1465
a(I95
I0
F-0.75
S'unreliable'
p1466
tp1467
a(I95
I12
F0.5
S'expensive'
p1468
tp1469
a(I95
I12
F-0.75
S'unreliable'
p1470
tp1471
a(I95
I12
F-0.25
S'cheaper'
p1472
tp1473
a(I95
I12
I0
S'more'
p1474
tp1475
a(I95
I12
F0.375
S'reliable'
p1476
tp1477
a(I100
I11
F1.0
S'better'
p1478
tp1479
a(I127
I3
F-0.875
S'awful'
p1480
tp1481
a(I127
I4
F0.625
S'decent'
p1482
tp1483
a(I127
I5
F0.625
S'decent'
p1484
tp1485
a(I128
I0
I0
S'fast'
p1486
tp1487
a(I128
I0
F0.125
S'impressive'
p1488
tp1489
a(I142
I1
I0
g854
tp1490
a(I146
I17
F-0.5
g856
tp1491
a(I157
I2
I0
S'fast'
p1492
tp1493
a(I188
I2
I0
S'monthly'
p1494
tp1495
a(I206
I16
F0.375
S'much'
p1496
tp1497
a(I206
I16
F0.5
S'possible'
p1498
tp1499
a(I210
I12
F1.0
S'good'
p1500
tp1501
a(I211
I36
I0
S'old'
p1502
tp1503
a(I211
I37
F-0.5
g858
tp1504
a(I211
I76
I0
S'great'
p1505
tp1506
a(I211
I76
I0
S'dial'
p1507
tp1508
a(I212
I7
I0
S'most'
p1509
tp1510
a(I212
I14
F-0.5
g860
tp1511
a(I212
I21
F1.0
S'best'
p1512
tp1513
a(I212
I23
F0.75
S'worth'
p1514
tp1515
a(I212
I23
F0.375
S'much'
p1516
tp1517
a(I219
I8
I0
g864
tp1518
a(I219
I8
I0
g866
tp1519
a(I222
I3
I0
S'more'
p1520
tp1521
a(I288
I1
I0
S'internet'
p1522
tp1523
a(I288
I1
I0
S'great'
p1524
tp1525
a(I295
I1
I0
g870
tp1526
a(I301
I6
F-0.375
S'top'
p1527
tp1528
a(I310
I9
I0
g874
tp1529
a(I310
I10
F0.5
S'comparable'
p1530
tp1531
a(I310
I11
F-0.625
S'other'
p1532
tp1533
a(I310
I13
I0
g876
tp1534
a(I310
I42
F0.625
g878
tp1535
a(I349
I21
F1.0
S'good'
p1536
tp1537
a(I370
I27
I0
g882
tp1538
a(I370
I27
I0
g884
tp1539
a(I385
I2
I0
S'great'
p1540
tp1541
a(I416
I30
F1.0
g886
tp1542
a(I423
I3
F0.875
S'happy'
p1543
tp1544
a(I428
I22
F-0.75
g888
tp1545
a(I428
I22
F0.125
g890
tp1546
a(I449
I22
F0.625
S'decent'
p1547
tp1548
a(I449
I22
I0
S'most'
p1549
tp1550
a(I451
I2
F0.875
S'happy'
p1551
tp1552
a(I477
I1
F0.5
S'careful'
p1553
tp1554
a(I477
I3
F0.875
S'nice'
p1555
tp1556
a(I486
I11
F-0.875
S'stuck'
p1557
tp1558
a(I487
I0
F-0.25
S'inexpensive'
p1559
tp1560
a(I487
I0
F0.375
S'reliable'
p1561
tp1562
a(I487
I3
F-0.625
S'unpredictable'
p1563
tp1564
a(I487
I5
I0
S'different'
p1565
tp1566
a(I487
I6
F0.375
S'reliable'
p1567
tp1568
a(I492
I4
F1.0
g896
tp1569
a(I509
I9
I0
S'great'
p1570
tp1571
a(I517
I3
I0
S'incredible'
p1572
tp1573
a(I525
I6
F0.375
S'enable'
p1574
tp1575
a(I540
I3
F0.375
S'similar'
p1576
tp1577
a(I540
I3
I0
S'signal'
p1578
tp1579
a(I541
I12
F-0.625
g898
tp1580
a(I572
I4
F0.125
S'outside'
p1581
tp1582
a(I572
I5
F-0.625
S'bad'
p1583
tp1584
a(I585
I2
I0
g900
tp1585
a(I585
I8
F0.375
S'similar'
p1586
tp1587
a(I585
I19
F0.875
S'happy'
p1588
tp1589
a(I585
I24
I0
S'great'
p1590
tp1591
as(S'getting'
p1592
tp1593
(lp1594
(I256
I2
F0.625
S'interested'
p1595
tp1596
a(I302
I1
F-0.75
S'little'
p1597
tp1598
a(I569
I33
F0.625
S'interested'
p1599
tp1600
as(S'number'
p1601
tp1602
(lp1603
(I20
I7
F0.375
S'new'
p1604
tp1605
a(I20
I11
I0
S'later'
p1606
tp1607
a(I20
I11
I0
S'real'
p1608
tp1609
a(I121
I19
F0.5
S'touch'
p1610
tp1611
a(I211
I31
I0
S'old'
p1612
tp1613
a(I211
I35
I0
S'old'
p1614
tp1615
a(I211
I35
I0
S'old'
p1616
tp1617
a(I211
I38
I0
S'old'
p1618
tp1619
a(I211
I91
I0
S'current'
p1620
tp1621
a(I308
I2
F0.375
S'new'
p1622
tp1623
a(I308
I2
F0.5
S'willing'
p1624
tp1625
a(I324
I21
I0
S'old'
p1626
tp1627
a(I350
I5
I0
S'large'
p1628
tp1629
a(I418
I10
I0
S'more'
p1630
tp1631
a(I466
I10
F0.375
S'similar'
p1632
tp1633
a(I509
I5
I0
S'old'
p1634
tp1635
a(I512
I11
I0
S'large'
p1636
tp1637
a(I512
I11
F-0.625
S'free'
p1638
tp1639
as(S'lg'
p1640
S'optimus'
p1641
g536
tp1642
(lp1643
(I11
I11
F0.875
g539
tp1644
a(I11
I11
F1.0
g541
tp1645
a(I20
I36
F0.375
S'new'
p1646
tp1647
a(I48
I6
F0.5
g547
tp1648
a(I49
I6
I0
S'gingerbread'
p1649
tp1650
a(I111
I0
F0.625
g557
tp1651
a(I131
I13
F-0.75
S'short'
p1652
tp1653
a(I131
I22
F0.375
S'new'
p1654
tp1655
a(I211
I0
I0
S'android'
p1656
tp1657
a(I211
I36
F0.125
g569
tp1658
a(I211
I93
F0.5
S'optimistic'
p1659
tp1660
a(I211
I96
F1.0
S'good'
p1661
tp1662
a(I211
I96
F-0.625
S'glad'
p1663
tp1664
a(I211
I96
I0
g575
tp1665
a(I219
I0
F0.75
g581
tp1666
a(I233
I5
I0
S'old'
p1667
tp1668
a(I252
I10
F0.5
S'odd'
p1669
tp1670
a(I260
I0
I0
S'android'
p1671
tp1672
a(I277
I1
I0
g583
tp1673
a(I277
I3
F0.875
g585
tp1674
a(I360
I0
I0
g589
tp1675
a(I370
I0
I0
g591
tp1676
a(I486
I3
F-0.375
g611
tp1677
as(S'virgin'
p1678
S'mobile'
p1679
S'have'
p1680
tp1681
(lp1682
(I20
I33
I0
g251
tp1683
a(I20
I33
I0
g253
tp1684
a(I294
I0
I0
g1032
tp1685
a(I348
I1
F-0.5
S'poor'
p1686
tp1687
a(I418
I11
I0
g997
tp1688
a(I451
I0
F0.5
g267
tp1689
a(I502
I3
F0.875
g1053
tp1690
as(S'memory'
p1691
tp1692
(lp1693
(I20
I41
F-0.625
S'other'
p1694
tp1695
a(I20
I42
F-0.375
S'small'
p1696
tp1697
a(I27
I3
I0
S'internal'
p1698
tp1699
a(I56
I7
I0
S'internal'
p1700
tp1701
a(I72
I1
I0
S'external'
p1702
tp1703
a(I72
I2
F0.375
S'available'
p1704
tp1705
a(I105
I7
I0
S'great'
p1706
tp1707
a(I105
I10
F0.375
S'extra'
p1708
tp1709
a(I107
I8
F0.25
S'larger'
p1710
tp1711
a(I118
I2
F-0.25
S'low'
p1712
tp1713
a(I119
I4
I0
S'internal'
p1714
tp1715
a(I119
I8
I0
S'close'
p1716
tp1717
a(I119
I13
F-0.375
S'small'
p1718
tp1719
a(I121
I3
I0
S'internal'
p1720
tp1721
a(I134
I3
F-0.25
S'low'
p1722
tp1723
a(I146
I4
I0
S'full'
p1724
tp1725
a(I154
I1
F-0.25
S'low'
p1726
tp1727
a(I172
I13
F-0.25
S'low'
p1728
tp1729
a(I173
I6
F-0.75
S'little'
p1730
tp1731
a(I173
I6
I0
S'internal'
p1732
tp1733
a(I181
I2
I0
S'internal'
p1734
tp1735
a(I181
I5
F1.0
S'better'
p1736
tp1737
a(I182
I11
I0
S'internal'
p1738
tp1739
a(I203
I8
I0
S'internal'
p1740
tp1741
a(I203
I9
F0.25
S'bigger'
p1742
tp1743
a(I210
I7
I0
S'internal'
p1744
tp1745
a(I251
I2
F0.375
S'available'
p1746
tp1747
a(I251
I4
I0
S'more'
p1748
tp1749
a(I253
I5
I0
S'internal'
p1750
tp1751
a(I253
I6
I0
S'internal'
p1752
tp1753
a(I253
I16
I0
S'internal'
p1754
tp1755
a(I253
I16
F-0.75
S'sufficient'
p1756
tp1757
a(I263
I4
I0
S'internal'
p1758
tp1759
a(I285
I9
I0
S'internal'
p1760
tp1761
a(I306
I0
I0
S'big'
p1762
tp1763
a(I306
I0
I0
S'internal'
p1764
tp1765
a(I306
I0
F-0.375
S'small'
p1766
tp1767
a(I306
I1
I0
S'internal'
p1768
tp1769
a(I306
I4
I0
S'internal'
p1770
tp1771
a(I306
I6
I0
S'full'
p1772
tp1773
a(I306
I16
I0
S'more'
p1774
tp1775
a(I306
I16
I0
S'internal'
p1776
tp1777
a(I310
I15
I0
S'internal'
p1778
tp1779
a(I323
I5
F0.375
S'much'
p1780
tp1781
a(I324
I25
F-0.25
S'low'
p1782
tp1783
a(I338
I10
F-0.375
S'small'
p1784
tp1785
a(I338
I10
I0
S'gig'
p1786
tp1787
a(I355
I3
F0.375
S'much'
p1788
tp1789
a(I368
I9
I0
S'internal'
p1790
tp1791
a(I372
I8
I0
S'internal'
p1792
tp1793
a(I374
I4
I0
S'internal'
p1794
tp1795
a(I374
I7
I0
S'internal'
p1796
tp1797
a(I374
I9
F-0.75
S'short'
p1798
tp1799
a(I380
I4
I0
S'internal'
p1800
tp1801
a(I381
I4
I0
S'internal'
p1802
tp1803
a(I389
I0
F0.25
S'main'
p1804
tp1805
a(I389
I1
F-0.25
S'low'
p1806
tp1807
a(I389
I2
F0.25
S'main'
p1808
tp1809
a(I389
I3
F0.25
S'main'
p1810
tp1811
a(I389
I3
F-0.875
S'stuck'
p1812
tp1813
a(I393
I64
F-0.25
S'low'
p1814
tp1815
a(I416
I11
I0
S'internal'
p1816
tp1817
a(I416
I11
F-0.25
S'low'
p1818
tp1819
a(I416
I12
I0
S'internal'
p1820
tp1821
a(I416
I25
F-0.25
S'low'
p1822
tp1823
a(I418
I6
F0.375
S'much'
p1824
tp1825
a(I418
I6
I0
S'internal'
p1826
tp1827
a(I425
I4
I0
S'more'
p1828
tp1829
a(I428
I3
I0
S'internal'
p1830
tp1831
a(I428
I8
I0
S'internal'
p1832
tp1833
a(I428
I18
I0
S'internal'
p1834
tp1835
a(I431
I3
F0.625
S'removable'
p1836
tp1837
a(I431
I9
I0
S'more'
p1838
tp1839
a(I436
I2
F0.75
S'due'
p1840
tp1841
a(I437
I6
I0
S'internal'
p1842
tp1843
a(I437
I7
I0
S'internal'
p1844
tp1845
a(I442
I2
I0
S'internal'
p1846
tp1847
a(I459
I2
F-0.25
S'low'
p1848
tp1849
a(I462
I5
I0
S'internal'
p1850
tp1851
a(I482
I2
F-0.25
S'low'
p1852
tp1853
a(I484
I5
I0
S'more'
p1854
tp1855
a(I484
I13
I0
S'more'
p1856
tp1857
a(I486
I15
I0
S'internal'
p1858
tp1859
a(I491
I1
I0
S'internal'
p1860
tp1861
a(I491
I1
F0.375
S'available'
p1862
tp1863
a(I491
I3
I0
S'most'
p1864
tp1865
a(I491
I3
I0
S'internal'
p1866
tp1867
a(I491
I6
I0
S'more'
p1868
tp1869
a(I491
I8
I0
S'internal'
p1870
tp1871
a(I491
I9
I0
S'more'
p1872
tp1873
a(I491
I9
F0.75
S'worth'
p1874
tp1875
a(I491
I9
I0
S'internal'
p1876
tp1877
a(I501
I0
I0
S'internal'
p1878
tp1879
a(I501
I0
I0
S'big'
p1880
tp1881
a(I501
I2
I0
S'internal'
p1882
tp1883
a(I504
I3
I0
S'fast'
p1884
tp1885
a(I512
I15
F-0.25
S'low'
p1886
tp1887
a(I512
I23
I0
S'internal'
p1888
tp1889
a(I513
I2
F-0.5
S'sure'
p1890
tp1891
a(I540
I19
F0.25
S'main'
p1892
tp1893
a(I540
I36
I0
S'more'
p1894
tp1895
a(I540
I36
F0.375
S'available'
p1896
tp1897
a(I551
I4
I0
S'internal'
p1898
tp1899
a(I557
I18
I0
S'internal'
p1900
tp1901
a(I563
I3
F-0.125
S'slow'
p1902
tp1903
a(I588
I2
I0
S'internal'
p1904
tp1905
a(I588
I9
I0
S'internal'
p1906
tp1907
a(I588
I9
F0.375
S'available'
p1908
tp1909
as(S'google'
p1910
tp1911
(lp1912
(I8
I8
I0
S'cool'
p1913
tp1914
a(I20
I16
I0
S'download'
p1915
tp1916
a(I114
I3
F-0.625
S'free'
p1917
tp1918
a(I323
I4
F0.125
S'first'
p1919
tp1920
as(S'on'
p1921
S'sd'
p1922
S'card'
p1923
tp1924
(lp1925
(I55
I16
F0.125
g335
tp1926
a(I119
I4
F0.375
g337
tp1927
a(I416
I15
I0
g347
tp1928
a(I491
I4
F0.25
g404
tp1929
a(I555
I3
F0.5
g349
tp1930
a(I569
I6
I0
g409
tp1931
as(g19
S'long'
p1932
S'time'
p1933
tp1934
(lp1935
(I10
I4
F-0.5
S'long'
p1936
tp1937
a(I13
I9
F-0.5
S'long'
p1938
tp1939
a(I16
I4
F-0.5
S'long'
p1940
tp1941
a(I21
I11
F-0.75
S'single'
p1942
tp1943
a(I21
I11
F-0.5
S'longer'
p1944
tp1945
a(I63
I4
F-0.5
S'long'
p1946
tp1947
a(I117
I6
F-0.5
S'long'
p1948
tp1949
a(I161
I9
F-0.5
S'long'
p1950
tp1951
a(I180
I11
F-0.5
S'long'
p1952
tp1953
a(I211
I71
I0
S'mobile'
p1954
tp1955
a(I211
I71
F-0.5
S'long'
p1956
tp1957
a(I344
I0
I0
S'same'
p1958
tp1959
a(I393
I45
F-0.5
S'long'
p1960
tp1961
a(I431
I10
F-0.5
S'long'
p1962
tp1963
a(I476
I0
F-0.5
S'long'
p1964
tp1965
as(S'android'
p1966
tp1967
(lp1968
(I1
I1
F0.125
S'first'
p1969
tp1970
a(I11
I6
I0
S'only'
p1971
tp1972
a(I33
I0
F0.125
S'first'
p1973
tp1974
a(I51
I0
I0
S'great'
p1975
tp1976
a(I55
I16
F0.375
S'enable'
p1977
tp1978
a(I56
I7
I0
S'basic'
p1979
tp1980
a(I75
I4
F1.0
S'best'
p1981
tp1982
a(I98
I0
F0.125
S'first'
p1983
tp1984
a(I107
I0
F0.5
S'second'
p1985
tp1986
a(I109
I0
I0
S'old'
p1987
tp1988
a(I120
I0
F0.375
S'available'
p1989
tp1990
a(I130
I5
F0.125
S'first'
p1991
tp1992
a(I173
I5
I0
S'old'
p1993
tp1994
a(I194
I0
F0.125
S'first'
p1995
tp1996
a(I194
I5
F0.125
S'first'
p1997
tp1998
a(I194
I7
F0.125
g364
tp1999
a(I204
I0
F0.125
S'first'
p2000
tp2001
a(I204
I19
I0
S'next'
p2002
tp2003
a(I211
I38
F0.125
S'first'
p2004
tp2005
a(I214
I2
I0
S'later'
p2006
tp2007
a(I222
I1
F0.125
S'solid'
p2008
tp2009
a(I224
I6
F1.0
S'good'
p2010
tp2011
a(I239
I0
I0
S'basic'
p2012
tp2013
a(I248
I5
I0
S'real'
p2014
tp2015
a(I251
I0
F0.125
S'first'
p2016
tp2017
a(I253
I0
F0.125
S'solid'
p2018
tp2019
a(I266
I0
F0.875
S'happy'
p2020
tp2021
a(I268
I1
I0
S'own'
p2022
tp2023
a(I271
I1
F0.125
S'first'
p2024
tp2025
a(I349
I10
F-0.625
S'clean'
p2026
tp2027
a(I350
I17
F1.0
S'better'
p2028
tp2029
a(I364
I0
I0
S'great'
p2030
tp2031
a(I388
I0
F0.125
S'first'
p2032
tp2033
a(I427
I6
F0.125
S'solid'
p2034
tp2035
a(I427
I6
F-0.25
S'inexpensive'
p2036
tp2037
a(I432
I0
F1.0
S'best'
p2038
tp2039
a(I449
I0
F0.125
S'first'
p2040
tp2041
a(I449
I4
F0.125
S'first'
p2042
tp2043
a(I534
I0
F0.125
S'first'
p2044
tp2045
a(I534
I3
F0.125
S'first'
p2046
tp2047
a(I543
I10
F0.125
S'first'
p2048
tp2049
a(I553
I0
I0
S'great'
p2050
tp2051
a(I562
I2
F1.0
S'good'
p2052
tp2053
a(I570
I0
F0.125
S'first'
p2054
tp2055
a(I582
I1
I0
S'serviceable'
p2056
tp2057
a(I582
I1
F0.5
S'functional'
p2058
tp2059
a(I585
I12
F-0.5
S'certain'
p2060
tp2061
a(I587
I1
F0.125
S'first'
p2062
tp2063
as(S'voice'
p2064
tp2065
(lp2066
(I20
I0
F-0.25
S'google'
p2067
tp2068
a(I20
I7
F-0.25
S'google'
p2069
tp2070
a(I20
I39
F-0.25
S'google'
p2071
tp2072
a(I20
I46
F1.0
S'better'
p2073
tp2074
a(I24
I8
F-0.25
S'google'
p2075
tp2076
a(I24
I34
F-0.25
S'google'
p2077
tp2078
a(I27
I7
F0.625
S'easy'
p2079
tp2080
a(I29
I12
I0
S'great'
p2081
tp2082
a(I35
I10
F-0.25
S'google'
p2083
tp2084
a(I73
I8
I0
S'enter'
p2085
tp2086
a(I125
I0
I0
S'automatic'
p2087
tp2088
a(I131
I15
F0.5
S'clear'
p2089
tp2090
a(I176
I13
F-0.75
S'unable'
p2091
tp2092
a(I176
I13
F-0.375
S'disable'
p2093
tp2094
a(I180
I11
F-0.25
S'google'
p2095
tp2096
a(I180
I15
F0.75
S'worth'
p2097
tp2098
a(I191
I5
F-0.25
S'google'
p2099
tp2100
a(I203
I6
I0
S'such'
p2101
tp2102
a(I203
I6
F-0.25
S'google'
p2103
tp2104
a(I212
I16
I0
S'many'
p2105
tp2106
a(I255
I9
F-0.25
S'google'
p2107
tp2108
a(I261
I1
F-0.25
S'hang'
p2109
tp2110
a(I308
I0
F-0.25
S'low'
p2111
tp2112
a(I370
I11
F0.5
S'clear'
p2113
tp2114
a(I418
I25
F-0.25
S'google'
p2115
tp2116
a(I443
I2
F-0.25
S'google'
p2117
tp2118
a(I473
I6
F-0.25
S'google'
p2119
tp2120
a(I473
I7
F-0.25
S'google'
p2121
tp2122
a(I512
I9
F-0.25
S'google'
p2123
tp2124
a(I512
I36
F-0.25
S'google'
p2125
tp2126
as(S'sprint'
p2127
tp2128
(lp2129
(I25
I7
F0.75
S'due'
p2130
tp2131
a(I49
I1
F-0.625
S'bad'
p2132
tp2133
a(I106
I1
I0
S'old'
p2134
tp2135
a(I120
I3
I0
S'same'
p2136
tp2137
a(I191
I5
I0
S'full'
p2138
tp2139
a(I222
I3
F1.0
S'good'
p2140
tp2141
a(I321
I0
I0
S'signal'
p2142
tp2143
a(I321
I0
F-0.5
S'weak'
p2144
tp2145
a(I449
I15
I0
S'close'
p2146
tp2147
a(I449
I15
F0.625
S'major'
p2148
tp2149
a(I449
I15
I0
S'interstate'
p2150
tp2151
a(I466
I1
F-0.125
S'private'
p2152
tp2153
a(I467
I2
F-0.5
S'weak'
p2154
tp2155
a(I507
I7
I0
S'android'
p2156
tp2157
a(I525
I6
F-0.5
S'regular'
p2158
tp2159
a(I525
I10
F0.375
S'much'
p2160
tp2161
a(I536
I0
I0
S'great'
p2162
tp2163
as(S'network'
p2164
tp2165
(lp2166
(I3
I11
I0
S'same'
p2167
tp2168
a(I20
I39
I0
S'cellular'
p2169
tp2170
a(I24
I16
I0
S'many'
p2171
tp2172
a(I25
I7
F-0.125
S'clogged'
p2173
tp2174
a(I41
I7
F0.125
S'spectacular'
p2175
tp2176
a(I48
I11
F0.375
S'reliable'
p2177
tp2178
a(I77
I19
I0
S'same'
p2179
tp2180
a(I77
I20
F0.5
S'strong'
p2181
tp2182
a(I88
I8
F1.0
S'good'
p2183
tp2184
a(I107
I4
F1.0
S'good'
p2185
tp2186
a(I122
I4
F0.375
S'reliable'
p2187
tp2188
a(I201
I10
I0
S'great'
p2189
tp2190
a(I211
I49
I0
S'faster'
p2191
tp2192
a(I212
I7
F1.0
S'best'
p2193
tp2194
a(I212
I17
F0.5
S'dish'
p2195
tp2196
a(I226
I1
I0
S'mobile'
p2197
tp2198
a(I335
I20
I0
S'mobile'
p2199
tp2200
a(I385
I12
I0
S'local'
p2201
tp2202
a(I393
I55
I0
S'faster'
p2203
tp2204
a(I393
I57
F-0.375
S'unstable'
p2205
tp2206
a(I408
I12
I0
S'more'
p2207
tp2208
a(I466
I1
F-0.125
S'private'
p2209
tp2210
a(I503
I7
F-0.125
S'slow'
p2211
tp2212
a(I569
I15
I0
S'mobile'
p2213
tp2214
as(S'thing'
p2215
tp2216
(lp2217
(I13
I2
I0
S'next'
p2218
tp2219
a(I13
I2
F1.0
S'best'
p2220
tp2221
a(I25
I5
I0
S'only'
p2222
tp2223
a(I25
I5
F-0.625
S'bad'
p2224
tp2225
a(I27
I7
F1.0
S'good'
p2226
tp2227
a(I35
I2
F-0.125
S'slow'
p2228
tp2229
a(I35
I10
F1.0
S'good'
p2230
tp2231
a(I37
I0
F1.0
S'good'
p2232
tp2233
a(I43
I4
I0
S'only'
p2234
tp2235
a(I44
I17
I0
S'more'
p2236
tp2237
a(I46
I19
I0
S'great'
p2238
tp2239
a(I46
I19
I0
S'android'
p2240
tp2241
a(I46
I37
I0
S'weird'
p2242
tp2243
a(I54
I5
I0
S'only'
p2244
tp2245
a(I66
I3
F-0.625
S'other'
p2246
tp2247
a(I76
I39
I0
S'same'
p2248
tp2249
a(I76
I129
I0
S'more'
p2250
tp2251
a(I76
I129
F-0.5
S'less'
p2252
tp2253
a(I76
I129
I0
S'same'
p2254
tp2255
a(I121
I14
I0
S'only'
p2256
tp2257
a(I121
I15
I0
S'only'
p2258
tp2259
a(I124
I12
I0
S'only'
p2260
tp2261
a(I142
I1
F1.0
S'best'
p2262
tp2263
a(I145
I0
I0
S'same'
p2264
tp2265
a(I174
I2
I0
S'only'
p2266
tp2267
a(I203
I4
F0.5
S'second'
p2268
tp2269
a(I206
I25
I0
S'more'
p2270
tp2271
a(I210
I21
I0
S'only'
p2272
tp2273
a(I211
I1
F-0.375
S'smooth'
p2274
tp2275
a(I225
I4
F1.0
S'best'
p2276
tp2277
a(I225
I5
F-0.75
S'impossible'
p2278
tp2279
a(I238
I2
I0
S'only'
p2280
tp2281
a(I239
I2
I0
S'only'
p2282
tp2283
a(I239
I2
F-0.625
S'bad'
p2284
tp2285
a(I280
I3
I0
S'only'
p2286
tp2287
a(I305
I4
F1.0
S'good'
p2288
tp2289
a(I324
I10
I0
S'same'
p2290
tp2291
a(I324
I11
F-0.625
S'bad'
p2292
tp2293
a(I324
I11
I0
S'different'
p2294
tp2295
a(I324
I16
I0
S'processor'
p2296
tp2297
a(I324
I16
F-0.25
S'intensive'
p2298
tp2299
a(I329
I0
F1.0
S'good'
p2300
tp2301
a(I331
I3
I0
S'wish'
p2302
tp2303
a(I338
I6
I0
S'only'
p2304
tp2305
a(I340
I4
I0
S'only'
p2306
tp2307
a(I340
I4
F-0.625
S'bad'
p2308
tp2309
a(I358
I3
I0
S'only'
p2310
tp2311
a(I385
I12
I0
S'same'
p2312
tp2313
a(I407
I3
I0
S'only'
p2314
tp2315
a(I412
I4
I0
S'only'
p2316
tp2317
a(I439
I6
F1.0
S'best'
p2318
tp2319
a(I443
I7
I0
S'great'
p2320
tp2321
a(I453
I0
I0
S'only'
p2322
tp2323
a(I465
I5
F1.0
S'best'
p2324
tp2325
a(I469
I3
F-0.25
S'google'
p2326
tp2327
a(I557
I16
F1.0
S'good'
p2328
tp2329
a(I563
I5
I0
S'only'
p2330
tp2331
a(I563
I5
F1.0
S'good'
p2332
tp2333
a(I576
I2
I0
S'same'
p2334
tp2335
as(S'google'
p2336
S'voice'
p2337
tp2338
(lp2339
(I20
I0
F-0.25
g2067
tp2340
a(I20
I7
F-0.25
g2069
tp2341
a(I20
I16
I0
g1915
tp2342
a(I20
I39
F-0.25
g2071
tp2343
a(I24
I8
F-0.25
g2075
tp2344
a(I24
I34
F-0.25
g2077
tp2345
a(I35
I10
F-0.25
g2083
tp2346
a(I114
I3
F-0.625
g1917
tp2347
a(I180
I11
F-0.25
g2095
tp2348
a(I180
I15
F0.75
g2097
tp2349
a(I191
I5
F-0.25
g2099
tp2350
a(I203
I6
I0
g2101
tp2351
a(I203
I6
F-0.25
g2103
tp2352
a(I255
I9
F-0.25
g2107
tp2353
a(I418
I25
F-0.25
g2115
tp2354
a(I443
I2
F-0.25
g2117
tp2355
a(I473
I6
F-0.25
g2119
tp2356
a(I473
I7
F-0.25
g2121
tp2357
a(I512
I9
F-0.25
g2123
tp2358
a(I512
I36
F-0.25
g2125
tp2359
as(S'data'
p2360
tp2361
(lp2362
(I20
I38
I0
S'cellular'
p2363
tp2364
a(I46
I46
F0.25
S'helpful'
p2365
tp2366
a(I46
I70
I0
S'e-mail'
p2367
tp2368
a(I49
I8
F0.625
S'correct'
p2369
tp2370
a(I51
I3
F0.125
g416
tp2371
a(I68
I1
I0
S'own'
p2372
tp2373
a(I127
I6
F0.125
g6
tp2374
a(I172
I10
I0
S'general'
p2375
tp2376
a(I172
I14
I0
S'old'
p2377
tp2378
a(I203
I12
F-0.5
g419
tp2379
a(I211
I85
F0.375
S'much'
p2380
tp2381
a(I249
I0
I0
g8
tp2382
a(I287
I12
I0
S'signal'
p2383
tp2384
a(I287
I19
F0.375
S'reliable'
p2385
tp2386
a(I324
I19
I0
S'signal'
p2387
tp2388
a(I367
I5
F0.375
S'enable'
p2389
tp2390
a(I370
I30
F-0.25
S'late'
p2391
tp2392
a(I404
I5
F0.875
g10
tp2393
a(I454
I4
F1.0
g12
tp2394
a(I465
I6
F-0.5
g14
tp2395
a(I508
I14
I0
S'cable'
p2396
tp2397
a(I508
I14
F1.0
S'good'
p2398
tp2399
a(I512
I11
F0.5
g16
tp2400
a(I540
I3
F1.0
S'good'
p2401
tp2402
a(I579
I0
F-0.125
S'slow'
p2403
tp2404
as(S'micro'
p2405
S'sd'
p2406
S'card'
p2407
tp2408
(lp2409
(I145
I16
F0.125
S'able'
p2410
tp2411
a(I211
I16
I0
g339
tp2412
a(I211
I16
F0.25
g341
tp2413
a(I381
I4
F0.25
S'larger'
p2414
tp2415
a(I416
I13
I0
g345
tp2416
a(I431
I9
F0.375
S'new'
p2417
tp2418
as(S'make'
p2419
tp2420
(lp2421
(I449
I5
F0.625
S'easy'
p2422
tp2423
as(S'hours'
p2424
tp2425
(lp2426
(I46
I39
I0
S'few'
p2427
tp2428
a(I68
I4
F-0.5
S'less'
p2429
tp2430
a(I105
I6
I0
S'few'
p2431
tp2432
a(I117
I16
I0
S'later'
p2433
tp2434
a(I127
I10
F0.875
S'music'
p2435
tp2436
a(I145
I5
F1.0
S'good'
p2437
tp2438
a(I147
I0
I0
S'few'
p2439
tp2440
a(I172
I2
I0
S'few'
p2441
tp2442
a(I225
I15
I0
S'full'
p2443
tp2444
a(I225
I15
I0
S'few'
p2445
tp2446
a(I234
I5
I0
S'more'
p2447
tp2448
a(I271
I11
I0
S'more'
p2449
tp2450
a(I339
I8
I0
S'more'
p2451
tp2452
a(I342
I1
F0.125
S'last'
p2453
tp2454
a(I342
I1
I0
S'more'
p2455
tp2456
a(I366
I4
F-0.5
S'less'
p2457
tp2458
a(I397
I1
F-0.5
S'less'
p2459
tp2460
a(I404
I11
I0
S'more'
p2461
tp2462
a(I466
I37
F-0.75
S'likely'
p2463
tp2464
a(I471
I6
F0.375
S'mean'
p2465
tp2466
a(I512
I19
I0
S'few'
p2467
tp2468
a(I528
I0
I0
S'few'
p2469
tp2470
a(I528
I0
I0
S'few'
p2471
tp2472
a(I540
I24
F0.875
S'lucky'
p2473
tp2474
a(I540
I24
F-0.5
S'less'
p2475
tp2476
a(I550
I8
I0
S'few'
p2477
tp2478
a(I572
I1
I0
S'few'
p2479
tp2480
as(S'work'
p2481
tp2482
(lp2483
(I46
I33
F0.125
S'first'
p2484
tp2485
a(I56
I6
F0.75
S'due'
p2486
tp2487
a(I417
I4
I0
S'own'
p2488
tp2489
a(I418
I28
I0
S'great'
p2490
tp2491
as(S'virgin'
p2492
S'mobile'
p2493
tp2494
(lp2495
(I6
I1
I0
g1006
tp2496
a(I6
I10
I0
S'great'
p2497
tp2498
a(I11
I6
I0
g842
tp2499
a(I20
I33
I0
g251
tp2500
a(I20
I33
I0
g253
tp2501
a(I35
I13
F0.75
g1011
tp2502
a(I48
I9
I0
g1013
tp2503
a(I48
I9
F1.0
g1015
tp2504
a(I51
I4
F-0.125
g255
tp2505
a(I51
I4
I0
g257
tp2506
a(I76
I50
I0
g1019
tp2507
a(I95
I10
F0.125
g1021
tp2508
a(I117
I2
I0
g1023
tp2509
a(I154
I1
F-0.75
S'unreliable'
p2510
tp2511
a(I211
I34
I0
g1025
tp2512
a(I212
I18
F-0.625
S'bad'
p2513
tp2514
a(I219
I8
F-0.125
g862
tp2515
a(I275
I2
F0.125
g1028
tp2516
a(I279
I11
F0.125
g1030
tp2517
a(I294
I0
I0
g1032
tp2518
a(I295
I1
F-0.125
g868
tp2519
a(I301
I0
I0
g872
tp2520
a(I320
I4
F-0.25
g261
tp2521
a(I348
I1
F-0.5
g1686
tp2522
a(I369
I3
F0.5
g880
tp2523
a(I408
I12
F-0.125
g1038
tp2524
a(I418
I11
I0
g997
tp2525
a(I449
I0
I0
g1041
tp2526
a(I449
I14
I0
g892
tp2527
a(I449
I26
F0.375
g1043
tp2528
a(I451
I0
F0.5
g267
tp2529
a(I466
I4
F0.125
g1046
tp2530
a(I471
I7
I0
S'next'
p2531
tp2532
a(I489
I3
I0
g1048
tp2533
a(I489
I3
F-0.75
g1050
tp2534
a(I492
I4
F0.125
g894
tp2535
a(I502
I3
F0.875
g1053
tp2536
a(I533
I0
F0.125
g999
tp2537
a(I541
I5
I0
S'website'
p2538
tp2539
as(S'battery'
p2540
S'life'
p2541
tp2542
(lp2543
(I3
I2
F0.75
S'due'
p2544
tp2545
a(I3
I6
F-0.625
S'bad'
p2546
tp2547
a(I3
I8
I0
S'more'
p2548
tp2549
a(I3
I8
F0.875
S'happy'
p2550
tp2551
a(I6
I4
F-0.75
g132
tp2552
a(I21
I6
I0
S'great'
p2553
tp2554
a(I23
I1
F-0.75
g134
tp2555
a(I25
I9
F-0.25
S'disappointing'
p2556
tp2557
a(I27
I1
F-0.625
g136
tp2558
a(I27
I1
F-0.75
g138
tp2559
a(I36
I34
F1.0
S'better'
p2560
tp2561
a(I36
I34
F-0.75
S'worse'
p2562
tp2563
a(I44
I18
F0.25
S'familiar'
p2564
tp2565
a(I44
I18
F0.125
S'first'
p2566
tp2567
a(I54
I6
F-0.5
S'poor'
p2568
tp2569
a(I57
I9
F-0.625
S'bad'
p2570
tp2571
a(I70
I2
F1.0
S'best'
p2572
tp2573
a(I74
I3
I0
S'close'
p2574
tp2575
a(I75
I13
F-0.75
g140
tp2576
a(I76
I117
F0.875
S'important'
p2577
tp2578
a(I102
I2
I0
S'great'
p2579
tp2580
a(I108
I2
F-0.75
g142
tp2581
a(I114
I9
F0.875
S'lucky'
p2582
tp2583
a(I114
I10
F0.375
S'much'
p2584
tp2585
a(I117
I12
F-0.5
S'poor'
p2586
tp2587
a(I151
I0
F-0.625
S'bad'
p2588
tp2589
a(I187
I1
I0
S'great'
p2590
tp2591
a(I193
I10
F-0.5
S'sure'
p2592
tp2593
a(I194
I14
F0.375
S'extended'
p2594
tp2595
a(I218
I4
F-0.5
S'poor'
p2596
tp2597
a(I221
I1
I0
S'great'
p2598
tp2599
a(I224
I2
F-0.875
S'unhappy'
p2600
tp2601
a(I224
I2
F1.0
S'good'
p2602
tp2603
a(I230
I1
F-0.75
g144
tp2604
a(I233
I2
F0.375
S'reliable'
p2605
tp2606
a(I233
I2
F1.0
S'good'
p2607
tp2608
a(I259
I2
F-0.75
g146
tp2609
a(I266
I20
F0.875
S'important'
p2610
tp2611
a(I272
I5
F0.75
S'worth'
p2612
tp2613
a(I273
I4
F-0.75
g148
tp2614
a(I278
I4
I0
S'great'
p2615
tp2616
a(I287
I42
F1.0
S'good'
p2617
tp2618
a(I287
I44
I0
S'many'
p2619
tp2620
a(I300
I8
F-0.25
S'low'
p2621
tp2622
a(I307
I1
I0
S'great'
p2623
tp2624
a(I309
I3
F-0.125
S'slow'
p2625
tp2626
a(I316
I1
I0
S'great'
p2627
tp2628
a(I318
I3
F-0.75
g150
tp2629
a(I324
I22
F-0.625
S'bad'
p2630
tp2631
a(I332
I2
F-0.75
g152
tp2632
a(I335
I16
F-0.75
g154
tp2633
a(I335
I20
F-0.25
S'low'
p2634
tp2635
a(I364
I1
F-0.75
g156
tp2636
a(I370
I18
I0
S'more'
p2637
tp2638
a(I388
I7
I0
S'great'
p2639
tp2640
a(I388
I8
I0
S'great'
p2641
tp2642
a(I392
I1
F-0.75
g158
tp2643
a(I393
I38
F-0.75
g160
tp2644
a(I415
I9
F1.0
S'better'
p2645
tp2646
a(I416
I20
F-0.5
S'poor'
p2647
tp2648
a(I449
I11
F1.0
S'best'
p2649
tp2650
a(I449
I25
F0.5
S'second'
p2651
tp2652
a(I464
I1
F0.125
S'solid'
p2653
tp2654
a(I464
I1
I0
S'great'
p2655
tp2656
a(I480
I0
F0.5
S'comparable'
p2657
tp2658
a(I482
I2
F-0.5
g162
tp2659
a(I514
I13
F0.375
S'extended'
p2660
tp2661
a(I514
I13
F-0.125
S'mine'
p2662
tp2663
a(I526
I3
F1.0
S'good'
p2664
tp2665
a(I534
I1
F0.125
S'first'
p2666
tp2667
a(I534
I1
F1.0
S'better'
p2668
tp2669
a(I539
I1
F-0.75
g164
tp2670
a(I539
I7
F-0.75
g166
tp2671
a(I543
I4
F-0.875
S'awful'
p2672
tp2673
a(I556
I2
F-0.5
S'long'
p2674
tp2675
a(I557
I8
I0
S'great'
p2676
tp2677
a(I568
I1
F1.0
S'best'
p2678
tp2679
a(I568
I1
I0
S'adequate'
p2680
tp2681
a(I569
I25
F0.5
S'so-so'
p2682
tp2683
a(I572
I0
F0.625
S'straight'
p2684
tp2685
a(I572
I0
F-0.625
S'bad'
p2686
tp2687
a(I572
I0
F0.625
S'perfect'
p2688
tp2689
a(I572
I0
F-0.625
S'other'
p2690
tp2691
a(I577
I4
F-0.75
g168
tp2692
a(I583
I0
I0
S'great'
p2693
tp2694
a(I588
I2
I0
S'closer'
p2695
tp2696
as(S'minutes'
p2697
tp2698
(lp2699
(I24
I8
I0
S'limited'
p2700
tp2701
a(I24
I34
I0
S'many'
p2702
tp2703
a(I76
I123
I0
S'more'
p2704
tp2705
a(I78
I7
F-0.625
S'free'
p2706
tp2707
a(I161
I2
F0.125
S'first'
p2708
tp2709
a(I161
I11
I0
S'few'
p2710
tp2711
a(I180
I26
I0
S'most'
p2712
tp2713
a(I209
I1
I0
S'few'
p2714
tp2715
a(I255
I21
F0.375
S'extra'
p2716
tp2717
a(I255
I21
F-0.625
S'free'
p2718
tp2719
a(I274
I7
I0
S'more'
p2720
tp2721
a(I274
I18
F-0.625
S'free'
p2722
tp2723
a(I381
I0
F-0.5
S'actual'
p2724
tp2725
a(I401
I9
F0.375
S'extra'
p2726
tp2727
a(I423
I4
F0.375
S'extra'
p2728
tp2729
a(I473
I12
F1.0
S'good'
p2730
tp2731
a(I479
I4
I0
S'many'
p2732
tp2733
a(I479
I5
F-0.5
S'actual'
p2734
tp2735
a(I503
I7
F-0.25
S'low'
p2736
tp2737
a(I512
I7
F-0.25
S'low'
p2738
tp2739
a(I512
I13
I0
S'few'
p2740
tp2741
a(I525
I9
I0
S'more'
p2742
tp2743
a(I540
I35
F1.0
S'better'
p2744
tp2745
a(I585
I31
I0
S'mobile'
p2746
tp2747
as(S'to'
p2748
S'virgin'
p2749
S'mobile'
p2750
tp2751
(lp2752
(I6
I1
I0
g1006
tp2753
a(I20
I33
I0
g251
tp2754
a(I20
I33
I0
g253
tp2755
a(I48
I9
I0
g1013
tp2756
a(I48
I9
F1.0
g1015
tp2757
a(I76
I50
I0
g1019
tp2758
a(I95
I10
F0.125
g1021
tp2759
a(I211
I34
I0
g1025
tp2760
a(I212
I18
F-0.625
g2513
tp2761
a(I219
I8
F-0.125
g862
tp2762
a(I275
I2
F0.125
g1028
tp2763
a(I279
I11
F0.125
g1030
tp2764
a(I294
I0
I0
g1032
tp2765
a(I320
I4
F-0.25
g261
tp2766
a(I348
I1
F-0.5
g1686
tp2767
a(I369
I3
F0.5
g880
tp2768
a(I408
I12
F-0.125
g1038
tp2769
a(I418
I11
I0
g997
tp2770
a(I449
I0
I0
g1041
tp2771
a(I449
I14
I0
g892
tp2772
a(I449
I26
F0.375
g1043
tp2773
a(I451
I0
F0.5
g267
tp2774
a(I466
I4
F0.125
g1046
tp2775
a(I471
I7
I0
g2531
tp2776
a(I489
I3
I0
g1048
tp2777
a(I489
I3
F-0.75
g1050
tp2778
a(I541
I5
I0
g2538
tp2779
as(g19
S'great'
p2780
S'deal'
p2781
tp2782
(lp2783
(I0
I1
I0
S'great'
p2784
tp2785
a(I11
I5
I0
S'great'
p2786
tp2787
a(I24
I36
F1.0
S'best'
p2788
tp2789
a(I171
I0
F1.0
S'good'
p2790
tp2791
a(I178
I1
I0
S'great'
p2792
tp2793
a(I182
I12
I0
S'great'
p2794
tp2795
a(I211
I22
I0
S'great'
p2796
tp2797
a(I245
I2
I0
S'great'
p2798
tp2799
a(I260
I6
I0
S'great'
p2800
tp2801
a(I287
I2
I0
S'great'
p2802
tp2803
a(I320
I5
I0
S'great'
p2804
tp2805
a(I455
I4
I0
S'great'
p2806
tp2807
a(I544
I0
I0
S'great'
p2808
tp2809
a(I559
I0
F1.0
S'better'
p2810
tp2811
a(I567
I2
I0
S'great'
p2812
tp2813
as(S'talk'
p2814
tp2815
(lp2816
(I8
I1
I0
S'monthly'
p2817
tp2818
a(I8
I2
I0
S'text'
p2819
tp2820
a(I21
I0
F-0.125
g375
tp2821
a(I46
I76
F0.375
S'much'
p2822
tp2823
a(I51
I3
F-0.25
S'google'
p2824
tp2825
a(I75
I4
I0
S'more'
p2826
tp2827
a(I85
I6
I0
S'more'
p2828
tp2829
a(I192
I1
I0
S'more'
p2830
tp2831
a(I211
I79
F-0.5
S'unlimited'
p2832
tp2833
a(I479
I5
F0.375
S'new'
p2834
tp2835
as(S'bought'
p2836
tp2837
(lp2838
(I433
I0
F-0.125
S'mine'
p2839
tp2840
as(S'virgin'
p2841
tp2842
(lp2843
(I6
I1
I0
g1006
tp2844
a(I6
I10
I0
g2497
tp2845
a(I11
I6
I0
g842
tp2846
a(I20
I33
I0
g251
tp2847
a(I20
I33
I0
g253
tp2848
a(I21
I12
F0.125
S'able'
p2849
tp2850
a(I38
I4
I0
S'same'
p2851
tp2852
a(I47
I11
I0
S'great'
p2853
tp2854
a(I51
I4
F-0.125
g255
tp2855
a(I51
I4
I0
g257
tp2856
a(I76
I38
I0
S'old'
p2857
tp2858
a(I76
I50
I0
g1019
tp2859
a(I95
I10
F0.125
g1021
tp2860
a(I117
I2
I0
g1023
tp2861
a(I160
I9
F0.125
S'first'
p2862
tp2863
a(I167
I18
I0
S'only'
p2864
tp2865
a(I185
I4
I0
S'old'
p2866
tp2867
a(I206
I5
F-0.375
S'small'
p2868
tp2869
a(I212
I18
F-0.625
g2513
tp2870
a(I236
I2
I0
S'old'
p2871
tp2872
a(I294
I0
I0
g1032
tp2873
a(I301
I0
I0
g872
tp2874
a(I320
I4
F-0.25
g261
tp2875
a(I348
I1
F-0.5
g1686
tp2876
a(I369
I3
F0.5
g880
tp2877
a(I408
I12
F-0.125
g1038
tp2878
a(I418
I11
I0
g997
tp2879
a(I449
I0
I0
g1041
tp2880
a(I449
I14
I0
g892
tp2881
a(I451
I0
F0.5
g267
tp2882
a(I466
I4
F0.125
g1046
tp2883
a(I471
I2
F-0.625
S'bad'
p2884
tp2885
a(I489
I3
I0
g1048
tp2886
a(I489
I3
F-0.75
g1050
tp2887
a(I492
I4
F0.125
g894
tp2888
a(I494
I4
F0.875
S'happy'
p2889
tp2890
a(I502
I3
F0.875
g1053
tp2891
a(I537
I3
I0
S'later'
p2892
tp2893
a(I569
I7
I0
S'general'
p2894
tp2895
as(S'problems'
p2896
tp2897
(lp2898
(I20
I25
I0
S'own'
p2899
tp2900
a(I104
I0
I0
S'few'
p2901
tp2902
a(I119
I15
F-0.625
S'bad'
p2903
tp2904
a(I119
I15
F-0.625
S'other'
p2905
tp2906
a(I122
I3
I0
S'signal'
p2907
tp2908
a(I134
I3
I0
S'more'
p2909
tp2910
a(I171
I1
I0
S'multiple'
p2911
tp2912
a(I202
I0
I0
S'many'
p2913
tp2914
a(I202
I0
I0
S'many'
p2915
tp2916
a(I203
I10
F-0.625
S'other'
p2917
tp2918
a(I313
I3
I0
S'common'
p2919
tp2920
a(I351
I7
F-0.75
S'minor'
p2921
tp2922
a(I385
I11
F0.75
S'constant'
p2923
tp2924
a(I387
I0
I0
S'few'
p2925
tp2926
a(I467
I1
I0
S'most'
p2927
tp2928
a(I475
I0
F-0.5
S'less'
p2929
tp2930
a(I494
I21
I0
S'few'
p2931
tp2932
a(I512
I0
I0
S'few'
p2933
tp2934
a(I512
I31
F-0.375
S'simple'
p2935
tp2936
a(I549
I4
F1.0
S'better'
p2937
tp2938
as(S'back'
p2939
tp2940
(lp2941
(I370
I10
F0.25
S'powerful'
p2942
tp2943
a(I514
I15
F0.375
S'new'
p2944
tp2945
as(S'life'
p2946
tp2947
(lp2948
(I3
I2
F0.75
g2544
tp2949
a(I3
I6
F-0.625
g2546
tp2950
a(I21
I6
I0
g2553
tp2951
a(I25
I9
F-0.25
g2556
tp2952
a(I27
I1
F-0.75
g138
tp2953
a(I36
I34
F1.0
g2560
tp2954
a(I36
I34
F-0.75
g2562
tp2955
a(I44
I16
F-0.75
S'short'
p2956
tp2957
a(I54
I3
F0.125
S'able'
p2958
tp2959
a(I54
I6
F-0.5
g2568
tp2960
a(I57
I9
F-0.625
g2570
tp2961
a(I70
I2
F1.0
g2572
tp2962
a(I76
I6
F-0.75
S'unconventional'
p2963
tp2964
a(I76
I22
I0
S'more'
p2965
tp2966
a(I76
I117
F0.875
g2577
tp2967
a(I102
I2
I0
g2579
tp2968
a(I108
I2
F-0.75
g142
tp2969
a(I114
I10
F0.375
g2584
tp2970
a(I117
I12
F-0.5
g2586
tp2971
a(I151
I0
F-0.625
g2588
tp2972
a(I182
I5
F0.625
S'easier'
p2973
tp2974
a(I187
I1
I0
g2590
tp2975
a(I193
I10
F-0.5
g2592
tp2976
a(I194
I14
F0.375
g2594
tp2977
a(I209
I3
F1.0
S'good'
p2978
tp2979
a(I221
I1
I0
g2598
tp2980
a(I224
I2
F1.0
g2602
tp2981
a(I259
I2
F-0.75
g146
tp2982
a(I266
I20
F0.875
g2610
tp2983
a(I273
I4
F-0.75
g148
tp2984
a(I287
I44
I0
g2619
tp2985
a(I304
I0
F0.125
S'capable'
p2986
tp2987
a(I304
I0
I0
S'high'
p2988
tp2989
a(I307
I1
I0
g2623
tp2990
a(I310
I1
I0
S'social'
p2991
tp2992
a(I316
I1
I0
g2627
tp2993
a(I324
I22
F-0.625
g2630
tp2994
a(I332
I2
F-0.75
g152
tp2995
a(I364
I1
F-0.75
g156
tp2996
a(I393
I38
F-0.75
g160
tp2997
a(I415
I9
F1.0
g2645
tp2998
a(I464
I1
F0.125
g2653
tp2999
a(I464
I1
I0
g2655
tp3000
a(I480
I0
F0.5
g2657
tp3001
a(I487
I2
I0
S'own'
p3002
tp3003
a(I514
I13
F0.375
g2660
tp3004
a(I526
I3
F1.0
g2664
tp3005
a(I543
I4
F-0.875
g2672
tp3006
a(I557
I8
I0
g2676
tp3007
a(I568
I1
F1.0
g2678
tp3008
a(I568
I1
I0
g2680
tp3009
a(I569
I25
F0.5
g2682
tp3010
a(I583
I0
I0
g2693
tp3011
a(I588
I2
I0
g2695
tp3012
as(S'pay'
p3013
S'as'
p3014
S'go'
p3015
tp3016
(lp3017
(I189
I6
I0
S'mobile'
p3018
tp3019
as(S'of'
p3020
S'nternal'
p3021
S'memory'
p3022
tp3023
(lp3024
(I20
I41
F-0.625
g1694
tp3025
a(I27
I3
I0
g1698
tp3026
a(I56
I7
I0
g1700
tp3027
a(I173
I6
F-0.75
g1730
tp3028
a(I173
I6
I0
g1732
tp3029
a(I182
I11
I0
g1738
tp3030
a(I210
I7
I0
g1744
tp3031
a(I253
I5
I0
g1750
tp3032
a(I253
I6
I0
g1752
tp3033
a(I263
I4
I0
g1758
tp3034
a(I285
I9
I0
g1760
tp3035
a(I372
I8
I0
g1792
tp3036
a(I374
I7
I0
g1796
tp3037
a(I380
I4
I0
g1800
tp3038
a(I381
I4
I0
g1802
tp3039
a(I416
I12
I0
g1820
tp3040
a(I418
I6
F0.375
g1824
tp3041
a(I418
I6
I0
g1826
tp3042
a(I428
I18
I0
g1834
tp3043
a(I437
I6
I0
g1842
tp3044
a(I442
I2
I0
g1846
tp3045
a(I462
I5
I0
g1850
tp3046
a(I486
I15
I0
g1858
tp3047
a(I491
I1
I0
g1860
tp3048
a(I491
I1
F0.375
g1862
tp3049
a(I491
I3
I0
g1864
tp3050
a(I491
I3
I0
g1866
tp3051
a(I491
I9
I0
g1872
tp3052
a(I491
I9
F0.75
g1874
tp3053
a(I491
I9
I0
g1876
tp3054
a(I512
I23
I0
g1888
tp3055
a(I551
I4
I0
g1898
tp3056
a(I588
I2
I0
g1904
tp3057
a(I588
I9
I0
g1906
tp3058
a(I588
I9
F0.375
g1908
tp3059
as(S'2'
p3060
S'year'
p3061
S'contract'
p3062
tp3063
(lp3064
(I274
I2
F-0.25
S'ready'
p3065
tp3066
a(I520
I0
F0.5
S'expensive'
p3067
tp3068
as(S'lg'
p3069
S'optimus'
p3070
tp3071
(lp3072
(I20
I36
F0.375
g1646
tp3073
a(I49
I6
I0
g1649
tp3074
a(I131
I13
F-0.75
g1652
tp3075
a(I131
I22
F0.375
g1654
tp3076
a(I211
I0
I0
g1656
tp3077
a(I211
I93
F0.5
g1659
tp3078
a(I211
I96
F1.0
g1661
tp3079
a(I211
I96
F-0.625
g1663
tp3080
a(I233
I5
I0
g1667
tp3081
a(I252
I10
F0.5
g1669
tp3082
a(I260
I0
I0
g1671
tp3083
a(I456
I4
F0.5
S'second'
p3084
tp3085
a(I486
I3
F-0.375
g611
tp3086
a(I560
I2
I0
S'old'
p3087
tp3088
as(S'plan'
p3089
tp3090
(lp3091
(I13
I14
I0
S'great'
p3092
tp3093
a(I31
I1
I0
S'monthly'
p3094
tp3095
a(I54
I1
F0.625
S'perfect'
p3096
tp3097
a(I68
I0
I0
S'incredible'
p3098
tp3099
a(I76
I11
F-0.5
S'unlimited'
p3100
tp3101
a(I85
I4
F0.875
S'happy'
p3102
tp3103
a(I85
I5
F-0.25
S'cheapest'
p3104
tp3105
a(I119
I16
I0
S'same'
p3106
tp3107
a(I119
I16
F-0.5
S'sure'
p3108
tp3109
a(I131
I16
I0
S'great'
p3110
tp3111
a(I182
I7
F-0.25
S'cheapest'
p3112
tp3113
a(I182
I11
I0
S'monthly'
p3114
tp3115
a(I182
I12
F-0.125
S'mine'
p3116
tp3117
a(I189
I8
F0.625
S'perfect'
p3118
tp3119
a(I193
I12
F0.125
S'able'
p3120
tp3121
a(I206
I9
F-0.25
S'cheaper'
p3122
tp3123
a(I211
I86
F1.0
S'good'
p3124
tp3125
a(I249
I1
I0
S'two-year'
p3126
tp3127
a(I265
I2
F0.375
S'new'
p3128
tp3129
a(I274
I5
I0
S'monthly'
p3130
tp3131
a(I274
I5
I0
S'mere'
p3132
tp3133
a(I274
I18
F-0.125
S'minimum'
p3134
tp3135
a(I280
I0
I0
S'mobile'
p3136
tp3137
a(I280
I0
F-0.5
S'unlimited'
p3138
tp3139
a(I294
I0
F0.875
S'lucky'
p3140
tp3141
a(I294
I0
F0.125
S'enough'
p3142
tp3143
a(I306
I16
F-0.25
S'cheaper'
p3144
tp3145
a(I318
I0
F-0.25
S'cheaper'
p3146
tp3147
a(I334
I6
F-0.375
S'pick'
p3148
tp3149
a(I340
I1
I0
S'prepaid'
p3150
tp3151
a(I354
I1
F-0.125
S'minimum'
p3152
tp3153
a(I354
I1
I0
S'monthly'
p3154
tp3155
a(I369
I3
F0.375
S'honest'
p3156
tp3157
a(I381
I0
F0.625
S'perfect'
p3158
tp3159
a(I381
I0
I0
S'same'
p3160
tp3161
a(I386
I0
F1.0
S'good'
p3162
tp3163
a(I401
I4
F0.875
S'happier'
p3164
tp3165
a(I403
I2
F1.0
S'good'
p3166
tp3167
a(I409
I1
F-0.5
S'long'
p3168
tp3169
a(I409
I1
F0.5
S'possible'
p3170
tp3171
a(I413
I3
I0
S'great'
p3172
tp3173
a(I423
I0
I0
S'prepaid'
p3174
tp3175
a(I423
I0
F0.875
S'happy'
p3176
tp3177
a(I439
I4
I0
S'monthly'
p3178
tp3179
a(I440
I6
I0
S'great'
p3180
tp3181
a(I451
I2
I0
g379
tp3182
a(I451
I2
F0.375
g381
tp3183
a(I454
I5
F0.5
S'expensive'
p3184
tp3185
a(I454
I5
F-0.5
S'less'
p3186
tp3187
a(I465
I7
F0.375
S'forcing'
p3188
tp3189
a(I479
I0
F-0.375
S'top'
p3190
tp3191
a(I479
I1
I0
S're-start'
p3192
tp3193
a(I496
I3
I0
S'great'
p3194
tp3195
a(I531
I6
F1.0
S'better'
p3196
tp3197
a(I531
I6
F-0.5
S'less'
p3198
tp3199
a(I539
I4
F-0.625
S'other'
p3200
tp3201
a(I548
I12
F-0.25
S'cheapest'
p3202
tp3203
a(I586
I0
F-0.125
S'minimum'
p3204
tp3205
as(S'battery'
p3206
tp3207
(lp3208
(I3
I8
I0
g2548
tp3209
a(I3
I8
F0.875
g2550
tp3210
a(I6
I4
F-0.75
g132
tp3211
a(I6
I8
F-0.5
S'long'
p3212
tp3213
a(I23
I1
F-0.75
g134
tp3214
a(I27
I1
F-0.625
g136
tp3215
a(I44
I18
F0.25
g2564
tp3216
a(I44
I18
F0.125
g2566
tp3217
a(I50
I1
F-0.625
S'bad'
p3218
tp3219
a(I52
I4
F-0.75
S'dead'
p3220
tp3221
a(I74
I3
I0
g2574
tp3222
a(I75
I13
F-0.75
g140
tp3223
a(I76
I115
F0.375
S'extra'
p3224
tp3225
a(I76
I115
F-0.5
S'less'
p3226
tp3227
a(I95
I7
I0
S'more'
p3228
tp3229
a(I114
I9
F0.875
g2582
tp3230
a(I117
I19
I0
S'hot'
p3231
tp3232
a(I118
I7
F0.125
S'able'
p3233
tp3234
a(I163
I5
F0.125
S'last'
p3235
tp3236
a(I211
I65
F-0.375
S'manual'
p3237
tp3238
a(I211
I67
F-0.25
S'loose'
p3239
tp3240
a(I211
I79
F0.375
S'new'
p3241
tp3242
a(I218
I4
F-0.5
g2596
tp3243
a(I224
I2
F-0.875
g2600
tp3244
a(I225
I16
I0
S'overnight'
p3245
tp3246
a(I225
I16
F0.125
S'last'
p3247
tp3248
a(I230
I1
F-0.75
g144
tp3249
a(I233
I2
F0.375
g2605
tp3250
a(I233
I2
F1.0
g2607
tp3251
a(I250
I0
I0
S'wish'
p3252
tp3253
a(I271
I16
F0.375
S'extended'
p3254
tp3255
a(I272
I3
I0
S'full'
p3256
tp3257
a(I272
I5
F0.75
g2612
tp3258
a(I278
I4
I0
g2615
tp3259
a(I287
I42
F1.0
g2617
tp3260
a(I300
I8
F-0.25
g2621
tp3261
a(I302
I8
F-0.5
S'less'
p3262
tp3263
a(I303
I1
F0.5
S'flat'
p3264
tp3265
a(I309
I3
F-0.125
g2625
tp3266
a(I318
I3
F-0.75
g150
tp3267
a(I333
I6
I0
S'most'
p3268
tp3269
a(I335
I16
F-0.75
g154
tp3270
a(I335
I19
F-0.75
S'short'
p3271
tp3272
a(I335
I20
F-0.25
g2634
tp3273
a(I349
I22
F0.125
S'last'
p3274
tp3275
a(I349
I22
F-0.5
S'long'
p3276
tp3277
a(I353
I2
I0
S'overnight'
p3278
tp3279
a(I353
I3
F0.375
S'extra'
p3280
tp3281
a(I353
I3
F0.375
S'new'
p3282
tp3283
a(I361
I14
I0
S'faster'
p3284
tp3285
a(I365
I1
F0.625
S'easy'
p3286
tp3287
a(I365
I1
F-0.5
S'complaint'
p3288
tp3289
a(I370
I18
I0
g2637
tp3290
a(I382
I1
F-0.25
S'order'
p3291
tp3292
a(I385
I7
F0.625
S'accessible'
p3293
tp3294
a(I385
I10
I0
S'normal'
p3295
tp3296
a(I388
I7
I0
g2639
tp3297
a(I388
I8
I0
g2641
tp3298
a(I392
I1
F-0.75
g158
tp3299
a(I393
I40
I0
S'close'
p3300
tp3301
a(I397
I1
F-0.75
S'dead'
p3302
tp3303
a(I397
I2
F-0.625
S'bad'
p3304
tp3305
a(I404
I13
F1.0
S'best'
p3306
tp3307
a(I416
I20
F-0.5
g2647
tp3308
a(I429
I2
F0.125
S'last'
p3309
tp3310
a(I445
I0
F0.375
S'new'
p3311
tp3312
a(I449
I11
F1.0
g2649
tp3313
a(I449
I25
F0.5
g2651
tp3314
a(I451
I0
I0
S'quick'
p3315
tp3316
a(I451
I2
I0
S'quick'
p3317
tp3318
a(I452
I8
F0.375
S'new'
p3319
tp3320
a(I482
I2
F-0.5
g162
tp3321
a(I508
I8
I0
S'useful'
p3322
tp3323
a(I512
I34
F-0.25
S'low'
p3324
tp3325
a(I514
I13
F-0.125
g2662
tp3326
a(I516
I5
F-0.75
S'dead'
p3327
tp3328
a(I528
I0
F-0.5
S'less'
p3329
tp3330
a(I534
I1
F0.125
g2666
tp3331
a(I534
I1
F1.0
g2668
tp3332
a(I539
I1
F-0.75
g164
tp3333
a(I539
I7
F-0.75
g166
tp3334
a(I540
I73
F0.25
S'original'
p3335
tp3336
a(I543
I6
F-0.625
S'bad'
p3337
tp3338
a(I543
I7
F0.5
S'second'
p3339
tp3340
a(I543
I7
I0
S'old'
p3341
tp3342
a(I543
I7
F-0.625
S'bad'
p3343
tp3344
a(I548
I10
F0.375
S'available'
p3345
tp3346
a(I552
I17
F-0.625
S'bad'
p3347
tp3348
a(I552
I19
F0.375
S'new'
p3349
tp3350
a(I554
I6
F-0.75
S'short'
p3351
tp3352
a(I556
I2
F-0.5
g2674
tp3353
a(I572
I0
F0.625
g2684
tp3354
a(I572
I0
F-0.625
g2686
tp3355
a(I572
I0
F0.625
g2688
tp3356
a(I572
I0
F-0.625
g2690
tp3357
a(I572
I5
F-0.625
S'bad'
p3358
tp3359
a(I577
I4
F-0.75
g168
tp3360
as(S'smart'
p3361
tp3362
(lp3363
(I8
I0
F0.125
S'first'
p3364
tp3365
a(I14
I0
F0.125
S'first'
p3366
tp3367
a(I23
I0
F0.125
S'first'
p3368
tp3369
a(I29
I7
F-0.625
S'other'
p3370
tp3371
a(I39
I0
F0.125
S'first'
p3372
tp3373
a(I43
I0
F0.125
S'first'
p3374
tp3375
a(I45
I1
F0.125
S'first'
p3376
tp3377
a(I45
I8
I0
S'basic'
p3378
tp3379
a(I62
I0
I0
S'great'
p3380
tp3381
a(I72
I8
F-0.625
S'average'
p3382
tp3383
a(I80
I0
F0.125
S'first'
p3384
tp3385
a(I84
I1
F0.125
S'first'
p3386
tp3387
a(I91
I0
I0
S'android'
p3388
tp3389
a(I99
I0
F0.125
S'first'
p3390
tp3391
a(I117
I4
F0.5
S'grateful'
p3392
tp3393
a(I160
I14
I0
S'general'
p3394
tp3395
a(I160
I14
F1.0
S'good'
p3396
tp3397
a(I160
I14
I0
S'basic'
p3398
tp3399
a(I168
I0
F0.125
S'able'
p3400
tp3401
a(I176
I0
F0.125
S'first'
p3402
tp3403
a(I181
I0
F0.125
S'first'
p3404
tp3405
a(I187
I1
I0
S'most'
p3406
tp3407
a(I187
I9
I0
S'great'
p3408
tp3409
a(I189
I3
F0.125
S'first'
p3410
tp3411
a(I225
I2
I0
S'great'
p3412
tp3413
a(I225
I2
I0
S'basic'
p3414
tp3415
a(I248
I0
I0
S'third'
p3416
tp3417
a(I253
I14
F0.375
S'newer'
p3418
tp3419
a(I263
I0
F0.125
S'first'
p3420
tp3421
a(I265
I1
F0.125
S'first'
p3422
tp3423
a(I267
I1
F-0.375
S'simple'
p3424
tp3425
a(I278
I0
F0.125
S'first'
p3426
tp3427
a(I282
I0
F-0.75
S'little'
p3428
tp3429
a(I294
I0
F0.125
S'first'
p3430
tp3431
a(I294
I0
F0.125
S'first'
p3432
tp3433
a(I301
I0
F0.875
S'nice'
p3434
tp3435
a(I343
I0
F0.125
S'first'
p3436
tp3437
a(I358
I6
F0.125
S'typical'
p3438
tp3439
a(I408
I0
F0.125
S'first'
p3440
tp3441
a(I408
I11
F-0.625
S'other'
p3442
tp3443
a(I433
I1
F0.125
S'first'
p3444
tp3445
a(I451
I0
F0.125
S'first'
p3446
tp3447
a(I451
I2
I0
S'next'
p3448
tp3449
a(I502
I0
F0.125
S'first'
p3450
tp3451
a(I543
I3
F0.125
S'first'
p3452
tp3453
a(I552
I1
F0.125
S'first'
p3454
tp3455
a(I554
I0
F0.125
S'first'
p3456
tp3457
a(I557
I5
F0.125
S'first'
p3458
tp3459
a(I557
I23
F0.5
S'functional'
p3460
tp3461
a(I559
I0
I0
S'great'
p3462
tp3463
a(I578
I0
F1.0
S'better'
p3464
tp3465
a(I580
I2
F-0.625
S'other'
p3466
tp3467
as(S't'
p3468
S'works'
p3469
S'great'
p3470
tp3471
(lp3472
(I24
I14
F0.375
S'available'
p3473
tp3474
a(I64
I24
I0
S'great'
p3475
tp3476
a(I83
I6
F-0.75
S'tough'
p3477
tp3478
a(I90
I0
I0
S'great'
p3479
tp3480
a(I106
I12
I0
S'great'
p3481
tp3482
a(I137
I0
I0
S'great'
p3483
tp3484
a(I162
I0
I0
S'great'
p3485
tp3486
a(I167
I4
I0
S'great'
p3487
tp3488
a(I167
I7
I0
S'great'
p3489
tp3490
a(I216
I2
I0
S'great'
p3491
tp3492
a(I278
I0
I0
S'great'
p3493
tp3494
a(I308
I2
I0
S'great'
p3495
tp3496
a(I398
I1
F-0.625
S'other'
p3497
tp3498
a(I398
I1
I0
S'great'
p3499
tp3500
a(I418
I26
I0
S'great'
p3501
tp3502
a(I437
I4
I0
S'great'
p3503
tp3504
a(I526
I3
I0
S'great'
p3505
tp3506
a(I536
I1
I0
S'great'
p3507
tp3508
a(I580
I1
I0
S'useful'
p3509
tp3510
a(I580
I1
I0
S'great'
p3511
tp3512
as(S'calls'
p3513
tp3514
(lp3515
(I16
I3
F-0.625
S'other'
p3516
tp3517
a(I20
I16
F0.75
S'receive'
p3518
tp3519
a(I20
I37
I0
S'such'
p3520
tp3521
a(I27
I7
I0
S'text'
p3522
tp3523
a(I46
I52
I0
S'few'
p3524
tp3525
a(I46
I52
F-0.25
S'dropped'
p3526
tp3527
a(I117
I17
F-0.5
S'less'
p3528
tp3529
a(I121
I22
F0.75
S'receive'
p3530
tp3531
a(I131
I6
F0.5
S'clear'
p3532
tp3533
a(I165
I2
I0
S'many'
p3534
tp3535
a(I182
I6
F-0.625
S'free'
p3536
tp3537
a(I204
I1
F0.125
S'able'
p3538
tp3539
a(I204
I1
F0.375
S'complete'
p3540
tp3541
a(I211
I74
F0.5
S'clear'
p3542
tp3543
a(I255
I8
F0.75
S'receive'
p3544
tp3545
a(I317
I1
I0
S'more'
p3546
tp3547
a(I414
I5
F0.5
S'clearer'
p3548
tp3549
a(I437
I3
F1.0
S'good'
p3550
tp3551
a(I443
I2
F-0.625
S'free'
p3552
tp3553
a(I473
I6
F-0.625
S'free'
p3554
tp3555
a(I473
I7
F-0.625
S'free'
p3556
tp3557
a(I489
I2
F0.5
S'clear'
p3558
tp3559
a(I509
I5
I0
S'mobile'
p3560
tp3561
a(I512
I36
F-0.625
S'free'
p3562
tp3563
a(I518
I8
F-0.25
S'direct'
p3564
tp3565
a(I551
I5
F-0.625
S'other'
p3566
tp3567
a(I557
I8
F0.75
S'due'
p3568
tp3569
as(S'300'
p3570
S'minutes'
p3571
tp3572
(lp3573
(I24
I8
I0
g2700
tp3574
a(I24
I34
I0
g2702
tp3575
a(I161
I2
F0.125
g2708
tp3576
a(I473
I12
F1.0
g2730
tp3577
as(S'works'
p3578
S'great'
p3579
tp3580
(lp3581
(I24
I14
F0.375
g3473
tp3582
a(I64
I24
I0
g3475
tp3583
a(I83
I6
F-0.75
g3477
tp3584
a(I90
I0
I0
g3479
tp3585
a(I106
I12
I0
g3481
tp3586
a(I137
I0
I0
g3483
tp3587
a(I162
I0
I0
g3485
tp3588
a(I167
I4
I0
g3487
tp3589
a(I167
I7
I0
g3489
tp3590
a(I216
I2
I0
g3491
tp3591
a(I278
I0
I0
g3493
tp3592
a(I308
I2
I0
g3495
tp3593
a(I398
I1
F-0.625
g3497
tp3594
a(I398
I1
I0
g3499
tp3595
a(I418
I26
I0
g3501
tp3596
a(I437
I4
I0
g3503
tp3597
a(I526
I3
I0
g3505
tp3598
a(I536
I1
I0
g3507
tp3599
a(I580
I1
I0
g3509
tp3600
a(I580
I1
I0
g3511
tp3601
as(S'unlimited'
p3602
S'text'
p3603
tp3604
(lp3605
(I25
I9
F1.0
g1216
tp3606
a(I30
I1
F-0.5
g1218
tp3607
a(I95
I11
F-0.5
g1224
tp3608
a(I356
I1
I0
g1230
tp3609
a(I428
I1
I0
g1238
tp3610
a(I582
I1
F-0.5
g1242
tp3611
as(S'pretty'
p3612
tp3613
(lp3614
(I106
I8
F1.0
S'good'
p3615
tp3616
as(S'time'
p3617
tp3618
(lp3619
(I5
I7
F1.0
S'better'
p3620
tp3621
a(I10
I4
F-0.5
g1936
tp3622
a(I11
I10
F-0.5
S'less'
p3623
tp3624
a(I13
I9
F-0.5
g1938
tp3625
a(I16
I4
F-0.5
g1940
tp3626
a(I21
I11
F-0.75
g1942
tp3627
a(I21
I11
F-0.5
g1944
tp3628
a(I35
I5
F-0.75
S'difficult'
p3629
tp3630
a(I35
I8
F-0.75
S'lost'
p3631
tp3632
a(I40
I8
I0
S'great'
p3633
tp3634
a(I46
I53
I0
S'particular'
p3635
tp3636
a(I46
I69
F-0.125
S'slow'
p3637
tp3638
a(I63
I4
F-0.5
g1946
tp3639
a(I76
I97
F0.125
S'first'
p3640
tp3641
a(I76
I106
F0.125
S'last'
p3642
tp3643
a(I81
I8
F0.625
S'compensate'
p3644
tp3645
a(I108
I1
F-0.625
S'bad'
p3646
tp3647
a(I113
I9
F0.75
S'worth'
p3648
tp3649
a(I114
I10
I0
S'more'
p3650
tp3651
a(I117
I6
F-0.5
g1948
tp3652
a(I135
I2
F-0.625
S'want'
p3653
tp3654
a(I140
I1
F-0.875
S'hard'
p3655
tp3656
a(I148
I10
I0
S'next'
p3657
tp3658
a(I160
I10
F0.125
S'first'
p3659
tp3660
a(I161
I7
I0
S'particular'
p3661
tp3662
a(I161
I9
F-0.5
g1950
tp3663
a(I167
I14
I0
S'solitaire'
p3664
tp3665
a(I180
I11
F-0.5
g1952
tp3666
a(I192
I5
I0
S'most'
p3667
tp3668
a(I192
I5
I0
S'wish'
p3669
tp3670
a(I193
I5
F-0.875
S'hard'
p3671
tp3672
a(I198
I2
F-0.875
S'hard'
p3673
tp3674
a(I206
I8
I0
S'same'
p3675
tp3676
a(I206
I13
I0
S'least'
p3677
tp3678
a(I209
I0
I0
S'same'
p3679
tp3680
a(I211
I51
I0
S'real'
p3681
tp3682
a(I211
I71
I0
g1954
tp3683
a(I211
I71
F-0.5
g1956
tp3684
a(I231
I0
F1.0
S'good'
p3685
tp3686
a(I312
I0
F0.125
S'first'
p3687
tp3688
a(I324
I25
I0
S'most'
p3689
tp3690
a(I335
I26
I0
S'third'
p3691
tp3692
a(I344
I0
I0
g1958
tp3693
a(I350
I5
I0
S'signal'
p3694
tp3695
a(I380
I22
I0
S'same'
p3696
tp3697
a(I393
I45
F-0.5
g1960
tp3698
a(I396
I11
I0
S'most'
p3699
tp3700
a(I397
I2
F0.5
S'second'
p3701
tp3702
a(I397
I2
I0
S'same'
p3703
tp3704
a(I423
I0
F0.125
S'first'
p3705
tp3706
a(I424
I34
I0
S'third'
p3707
tp3708
a(I424
I37
F0.5
S'whole'
p3709
tp3710
a(I428
I11
F-0.5
S'certain'
p3711
tp3712
a(I431
I10
F-0.5
g1962
tp3713
a(I451
I2
F-0.5
S'less'
p3714
tp3715
a(I461
I7
I0
S'least'
p3716
tp3717
a(I461
I7
F-0.5
S'open'
p3718
tp3719
a(I476
I0
F-0.5
g1964
tp3720
a(I482
I2
F-0.75
S'short'
p3721
tp3722
a(I525
I2
F-0.75
S'little'
p3723
tp3724
a(I549
I5
I0
S'song'
p3725
tp3726
a(I549
I5
I0
S'song'
p3727
tp3728
a(I557
I1
F0.75
S'due'
p3729
tp3730
a(I570
I2
I0
S'same'
p3731
tp3732
a(I571
I0
F0.125
S'first'
p3733
tp3734
as(S'for'
p3735
S'virgin'
p3736
S'mobile'
p3737
tp3738
(lp3739
(I6
I1
I0
g1006
tp3740
a(I20
I33
I0
g251
tp3741
a(I20
I33
I0
g253
tp3742
a(I35
I13
F0.75
g1011
tp3743
a(I76
I50
I0
g1019
tp3744
a(I95
I10
F0.125
g1021
tp3745
a(I117
I2
I0
g1023
tp3746
a(I154
I1
F-0.75
g2510
tp3747
a(I294
I0
I0
g1032
tp3748
a(I301
I0
I0
g872
tp3749
a(I348
I1
F-0.5
g1686
tp3750
a(I369
I3
F0.5
g880
tp3751
a(I408
I12
F-0.125
g1038
tp3752
a(I418
I11
I0
g997
tp3753
a(I449
I0
I0
g1041
tp3754
a(I449
I26
F0.375
g1043
tp3755
a(I451
I0
F0.5
g267
tp3756
a(I489
I3
I0
g1048
tp3757
a(I489
I3
F-0.75
g1050
tp3758
as(S'android'
p3759
S'market'
p3760
tp3761
(lp3762
(I14
I1
I0
S'android'
p3763
tp3764
a(I14
I1
I0
S'android'
p3765
tp3766
a(I23
I3
I0
S'android'
p3767
tp3768
a(I24
I5
I0
S'android'
p3769
tp3770
a(I24
I7
F-0.625
S'free'
p3771
tp3772
a(I24
I7
I0
S'android'
p3773
tp3774
a(I24
I19
I0
S'android'
p3775
tp3776
a(I29
I8
I0
S'android'
p3777
tp3778
a(I56
I7
I0
g1979
tp3779
a(I120
I4
I0
S'android'
p3780
tp3781
a(I177
I10
I0
S'android'
p3782
tp3783
a(I180
I16
I0
S'android'
p3784
tp3785
a(I185
I16
I0
S'android'
p3786
tp3787
a(I206
I15
I0
S'android'
p3788
tp3789
a(I249
I3
I0
S'android'
p3790
tp3791
a(I275
I7
I0
S'android'
p3792
tp3793
a(I336
I1
I0
S'android'
p3794
tp3795
a(I370
I8
I0
S'android'
p3796
tp3797
a(I370
I23
I0
S'android'
p3798
tp3799
a(I433
I6
I0
S'android'
p3800
tp3801
a(I437
I1
I0
S'android'
p3802
tp3803
a(I439
I3
I0
S'android'
p3804
tp3805
a(I449
I5
I0
S'android'
p3806
tp3807
a(I518
I4
I0
S'android'
p3808
tp3809
a(I518
I13
I0
S'android'
p3810
tp3811
a(I518
I13
F-0.625
S'free'
p3812
tp3813
a(I527
I3
I0
S'android'
p3814
tp3815
a(I531
I5
I0
S'android'
p3816
tp3817
as(S'months'
p3818
tp3819
(lp3820
(I19
I0
F0.125
S'first'
p3821
tp3822
a(I23
I5
I0
S'few'
p3823
tp3824
a(I46
I78
I0
S'few'
p3825
tp3826
a(I57
I20
F-0.125
S'mine'
p3827
tp3828
a(I60
I3
I0
S'few'
p3829
tp3830
a(I76
I4
I0
S'few'
p3831
tp3832
a(I126
I5
I0
S'few'
p3833
tp3834
a(I168
I0
F0.875
S'happy'
p3835
tp3836
a(I173
I0
I0
S'few'
p3837
tp3838
a(I185
I14
F0.125
S'first'
p3839
tp3840
a(I211
I39
I0
S'few'
p3841
tp3842
a(I211
I86
F-0.25
S'past'
p3843
tp3844
a(I217
I0
F1.0
S'better'
p3845
tp3846
a(I221
I3
I0
S'old'
p3847
tp3848
a(I249
I1
I0
S'later'
p3849
tp3850
a(I310
I40
F-0.375
S'crash'
p3851
tp3852
a(I385
I0
F0.125
S'last'
p3853
tp3854
a(I385
I3
F0.125
S'first'
p3855
tp3856
a(I418
I33
F1.0
S'better'
p3857
tp3858
a(I431
I10
I0
S'next'
p3859
tp3860
a(I461
I2
I0
S'few'
p3861
tp3862
a(I466
I1
I0
S'blue'
p3863
tp3864
a(I466
I52
F-0.5
S'less'
p3865
tp3866
a(I494
I0
I0
S'later'
p3867
tp3868
a(I494
I5
I0
S'later'
p3869
tp3870
a(I494
I10
I0
S'few'
p3871
tp3872
a(I540
I43
I0
S'few'
p3873
tp3874
a(I540
I57
F0.375
S'new'
p3875
tp3876
a(I540
I57
I0
S'few'
p3877
tp3878
as(S'nternal'
p3879
S'memory'
p3880
tp3881
(lp3882
(I20
I41
F-0.625
g1694
tp3883
a(I27
I3
I0
g1698
tp3884
a(I56
I7
I0
g1700
tp3885
a(I119
I4
I0
g1714
tp3886
a(I121
I3
I0
g1720
tp3887
a(I173
I6
F-0.75
g1730
tp3888
a(I173
I6
I0
g1732
tp3889
a(I181
I2
I0
g1734
tp3890
a(I182
I11
I0
g1738
tp3891
a(I203
I8
I0
g1740
tp3892
a(I210
I7
I0
g1744
tp3893
a(I253
I5
I0
g1750
tp3894
a(I253
I6
I0
g1752
tp3895
a(I253
I16
I0
g1754
tp3896
a(I253
I16
F-0.75
g1756
tp3897
a(I263
I4
I0
g1758
tp3898
a(I285
I9
I0
g1760
tp3899
a(I306
I0
I0
g1762
tp3900
a(I306
I0
I0
g1764
tp3901
a(I306
I0
F-0.375
g1766
tp3902
a(I306
I1
I0
g1768
tp3903
a(I306
I4
I0
g1770
tp3904
a(I306
I16
I0
g1774
tp3905
a(I306
I16
I0
g1776
tp3906
a(I310
I15
I0
g1778
tp3907
a(I368
I9
I0
g1790
tp3908
a(I372
I8
I0
g1792
tp3909
a(I374
I4
I0
g1794
tp3910
a(I374
I7
I0
g1796
tp3911
a(I380
I4
I0
g1800
tp3912
a(I381
I4
I0
g1802
tp3913
a(I393
I64
F-0.25
g1814
tp3914
a(I416
I11
I0
g1816
tp3915
a(I416
I11
F-0.25
g1818
tp3916
a(I416
I12
I0
g1820
tp3917
a(I418
I6
F0.375
g1824
tp3918
a(I418
I6
I0
g1826
tp3919
a(I428
I3
I0
g1830
tp3920
a(I428
I8
I0
g1832
tp3921
a(I428
I18
I0
g1834
tp3922
a(I437
I6
I0
g1842
tp3923
a(I437
I7
I0
g1844
tp3924
a(I442
I2
I0
g1846
tp3925
a(I462
I5
I0
g1850
tp3926
a(I486
I15
I0
g1858
tp3927
a(I491
I1
I0
g1860
tp3928
a(I491
I1
F0.375
g1862
tp3929
a(I491
I3
I0
g1864
tp3930
a(I491
I3
I0
g1866
tp3931
a(I491
I8
I0
g1870
tp3932
a(I491
I9
I0
g1872
tp3933
a(I491
I9
F0.75
g1874
tp3934
a(I491
I9
I0
g1876
tp3935
a(I501
I0
I0
g1878
tp3936
a(I501
I0
I0
g1880
tp3937
a(I501
I2
I0
g1882
tp3938
a(I512
I23
I0
g1888
tp3939
a(I551
I4
I0
g1898
tp3940
a(I557
I18
I0
g1900
tp3941
a(I588
I2
I0
g1904
tp3942
a(I588
I9
I0
g1906
tp3943
a(I588
I9
F0.375
g1908
tp3944
as(S'touch'
p3945
S'screen'
p3946
tp3947
(lp3948
(I25
I15
F-0.375
S'small'
p3949
tp3950
a(I25
I15
F0.5
S'touch'
p3951
tp3952
a(I30
I7
F0.25
S'responsive'
p3953
tp3954
a(I48
I10
F0.25
S'responsive'
p3955
tp3956
a(I61
I1
F0.5
S'touch'
p3957
tp3958
a(I95
I10
F-0.875
S'hard'
p3959
tp3960
a(I95
I10
F0.5
S'touch'
p3961
tp3962
a(I95
I10
F0.25
S'responsive'
p3963
tp3964
a(I105
I4
F0.25
S'responsive'
p3965
tp3966
a(I142
I0
F0.5
S'touch'
p3967
tp3968
a(I142
I0
F0.25
S'bigger'
p3969
tp3970
a(I167
I6
F0.25
S'responsive'
p3971
tp3972
a(I175
I0
F0.5
S'touch'
p3973
tp3974
a(I194
I6
F0.5
S'touch'
p3975
tp3976
a(I207
I1
F0.625
S'easy'
p3977
tp3978
a(I217
I2
I0
S'dial'
p3979
tp3980
a(I248
I5
F0.5
S'touch'
p3981
tp3982
a(I317
I6
I0
S'plastic'
p3983
tp3984
a(I330
I1
I0
g177
tp3985
a(I330
I1
F0.25
S'receptive'
p3986
tp3987
a(I367
I7
F0.25
S'responsive'
p3988
tp3989
a(I381
I3
I0
g181
tp3990
a(I381
I3
F0.25
S'responsive'
p3991
tp3992
a(I387
I2
F0.5
S'touch'
p3993
tp3994
a(I415
I7
F0.5
S'accurate'
p3995
tp3996
a(I415
I7
F0.25
S'responsive'
p3997
tp3998
a(I416
I7
F-0.375
S'black'
p3999
tp4000
a(I433
I6
F0.625
S'easy'
p4001
tp4002
a(I433
I6
F0.5
S'touch'
p4003
tp4004
a(I481
I1
F0.5
S'touch'
p4005
tp4006
a(I481
I1
I0
S'plastic'
p4007
tp4008
a(I511
I9
F0.25
S'responsive'
p4009
tp4010
as(S'text'
p4011
S'and'
p4012
S'data'
p4013
tp4014
(lp4015
(I25
I9
F1.0
g1216
tp4016
a(I30
I1
F-0.5
g1218
tp4017
a(I127
I6
F0.125
g6
tp4018
a(I172
I14
I0
g2377
tp4019
a(I249
I0
I0
g8
tp4020
a(I356
I1
I0
g1230
tp4021
a(I465
I6
F-0.5
g14
tp4022
a(I579
I0
F-0.125
g2403
tp4023
a(I582
I1
F-0.5
g1242
tp4024
as(S'year'
p4025
tp4026
(lp4027
(I20
I2
I0
S'earlier'
p4028
tp4029
a(I22
I1
I0
S'more'
p4030
tp4031
a(I25
I0
I0
S'great'
p4032
tp4033
a(I25
I4
F-0.25
S'past'
p4034
tp4035
a(I63
I0
I0
S'old'
p4036
tp4037
a(I76
I48
I0
S'next'
p4038
tp4039
a(I105
I0
F-0.5
S'longest'
p4040
tp4041
a(I150
I0
F0.125
S'last'
p4042
tp4043
a(I172
I14
I0
S'old'
p4044
tp4045
a(I181
I6
F0.375
S'new'
p4046
tp4047
a(I181
I6
F0.125
S'last'
p4048
tp4049
a(I181
I6
I0
S'more'
p4050
tp4051
a(I224
I0
F0.125
S'last'
p4052
tp4053
a(I274
I2
F-0.25
g3065
tp4054
a(I313
I5
I0
S'old'
p4055
tp4056
a(I320
I3
I0
S'later'
p4057
tp4058
a(I382
I8
I0
S'old'
p4059
tp4060
a(I396
I0
F-0.125
S'mine'
p4061
tp4062
a(I414
I14
F0.125
S'last'
p4063
tp4064
a(I449
I27
F-0.5
S'sure'
p4065
tp4066
a(I466
I27
I0
S'old'
p4067
tp4068
a(I476
I2
F0.125
S'last'
p4069
tp4070
a(I492
I12
I0
S'old'
p4071
tp4072
a(I514
I11
F-0.125
S'mine'
p4073
tp4074
a(I514
I11
I0
S'earlier'
p4075
tp4076
a(I520
I0
F0.5
g3067
tp4077
a(I550
I2
I0
S'old'
p4078
tp4079
as(S'little'
p4080
tp4081
(lp4082
(I374
I23
F1.0
S'good'
p4083
tp4084
as(S'screen'
p4085
tp4086
(lp4087
(I3
I2
I0
S'large'
p4088
tp4089
a(I3
I2
F0.125
S'weigh'
p4090
tp4091
a(I3
I2
F0.375
S'much'
p4092
tp4093
a(I11
I22
F0.25
S'bigger'
p4094
tp4095
a(I11
I32
I0
S'plastic'
p4096
tp4097
a(I21
I4
F0.125
S'capable'
p4098
tp4099
a(I25
I15
F-0.375
g3949
tp4100
a(I25
I15
F0.5
g3951
tp4101
a(I30
I7
F0.25
g3953
tp4102
a(I30
I9
F-0.5
S'separate'
p4103
tp4104
a(I38
I3
F0.5
S'clear'
p4105
tp4106
a(I40
I8
F0.75
S'beautiful'
p4107
tp4108
a(I48
I10
F0.25
g3955
tp4109
a(I61
I1
F0.5
g3957
tp4110
a(I65
I2
F0.375
S'new'
p4111
tp4112
a(I95
I10
F-0.875
g3959
tp4113
a(I95
I10
F0.5
g3961
tp4114
a(I95
I10
F0.25
g3963
tp4115
a(I105
I4
F0.25
g3965
tp4116
a(I107
I10
F1.0
S'good'
p4117
tp4118
a(I114
I5
F-0.375
S'smaller'
p4119
tp4120
a(I114
I6
F-0.375
S'small'
p4121
tp4122
a(I121
I13
F0.25
S'larger'
p4123
tp4124
a(I131
I21
F-0.75
S'bright'
p4125
tp4126
a(I142
I0
F0.5
g3967
tp4127
a(I142
I0
F0.25
g3969
tp4128
a(I146
I13
F-0.375
S'black'
p4129
tp4130
a(I167
I6
F0.25
g3971
tp4131
a(I175
I0
F0.5
g3973
tp4132
a(I177
I16
F-0.625
S'free'
p4133
tp4134
a(I180
I8
F0.625
S'easier'
p4135
tp4136
a(I182
I8
F-0.375
S'smaller'
p4137
tp4138
a(I187
I7
F-0.5
S'sure'
p4139
tp4140
a(I194
I6
F0.5
g3975
tp4141
a(I202
I0
F-0.375
S'black'
p4142
tp4143
a(I207
I1
F0.625
g3977
tp4144
a(I210
I17
F0.625
S'kind'
p4145
tp4146
a(I211
I2
F-0.75
S'bright'
p4147
tp4148
a(I211
I2
F0.5
S'clear'
p4149
tp4150
a(I211
I67
F-0.375
S'black'
p4151
tp4152
a(I217
I2
I0
g3979
tp4153
a(I217
I3
F-0.375
S'small'
p4154
tp4155
a(I225
I9
F0.25
S'bigger'
p4156
tp4157
a(I248
I5
F0.5
g3981
tp4158
a(I253
I13
F0.25
S'bigger'
p4159
tp4160
a(I262
I4
F-0.375
S'black'
p4161
tp4162
a(I277
I0
F-0.375
S'small'
p4163
tp4164
a(I287
I42
F-0.375
S'small'
p4165
tp4166
a(I288
I1
F0.625
S'easy'
p4167
tp4168
a(I289
I0
F0.125
S'able'
p4169
tp4170
a(I289
I0
F-0.375
S'small'
p4171
tp4172
a(I293
I1
I0
S'big'
p4173
tp4174
a(I309
I7
F0.25
S'larger'
p4175
tp4176
a(I317
I6
I0
g3983
tp4177
a(I324
I11
F-0.5
S'less'
p4178
tp4179
a(I324
I11
F0.25
S'responsive'
p4180
tp4181
a(I324
I16
F-0.375
S'small'
p4182
tp4183
a(I330
I1
F0.25
g3986
tp4184
a(I349
I13
F-0.375
S'small'
p4185
tp4186
a(I367
I7
F0.25
g3988
tp4187
a(I368
I10
F-0.375
S'small'
p4188
tp4189
a(I370
I8
F0.75
S'beautiful'
p4190
tp4191
a(I370
I17
F-0.125
S'super'
p4192
tp4193
a(I374
I9
F-0.375
S'smaller'
p4194
tp4195
a(I381
I3
F0.25
g3991
tp4196
a(I385
I12
F-0.75
S'unresponsive'
p4197
tp4198
a(I387
I2
F0.5
g3993
tp4199
a(I388
I7
I0
S'android'
p4200
tp4201
a(I393
I10
F-0.375
S'small'
p4202
tp4203
a(I393
I11
F0.25
S'bigger'
p4204
tp4205
a(I410
I0
I0
S'wide'
p4206
tp4207
a(I413
I3
F0.875
S'nice'
p4208
tp4209
a(I415
I7
F0.5
g3995
tp4210
a(I415
I7
F0.25
g3997
tp4211
a(I416
I3
F-0.375
S'smaller'
p4212
tp4213
a(I416
I7
F-0.375
g3999
tp4214
a(I432
I5
F1.0
S'better'
p4215
tp4216
a(I433
I6
F0.625
g4001
tp4217
a(I433
I6
F0.5
g4003
tp4218
a(I437
I1
F-0.375
S'smaller'
p4219
tp4220
a(I437
I1
I0
S'most'
p4221
tp4222
a(I437
I1
F0.375
S'newer'
p4223
tp4224
a(I437
I5
F-0.375
S'smaller'
p4225
tp4226
a(I443
I8
I0
S'big'
p4227
tp4228
a(I454
I2
F0.25
S'bigger'
p4229
tp4230
a(I476
I4
F0.25
S'bigger'
p4231
tp4232
a(I481
I1
F0.5
g4005
tp4233
a(I481
I1
I0
g4007
tp4234
a(I486
I3
F-0.75
S'bright'
p4235
tp4236
a(I492
I2
F0.625
S'perfect'
p4237
tp4238
a(I511
I9
F0.25
g4009
tp4239
a(I540
I47
F1.0
S'good'
p4240
tp4241
a(I553
I4
F-0.75
S'bright'
p4242
tp4243
a(I555
I6
F-0.375
S'small'
p4244
tp4245
a(I556
I2
F0.875
S'nice'
p4246
tp4247
a(I589
I3
F-0.375
S'black'
p4248
tp4249
a(I589
I3
F-0.75
S'fumble'
p4250
tp4251
as(S'everything'
p4252
tp4253
(lp4254
(I24
I35
F0.125
S'able'
p4255
tp4256
a(I46
I40
F-0.5
S'long'
p4257
tp4258
a(I66
I1
I0
S'great'
p4259
tp4260
a(I118
I2
F1.0
S'good'
p4261
tp4262
a(I118
I2
F0.375
S'new'
p4263
tp4264
a(I217
I3
F-0.875
S'hard'
p4265
tp4266
a(I236
I2
F0.625
S'easy'
p4267
tp4268
a(I285
I2
I0
S'great'
p4269
tp4270
a(I288
I3
F0.875
S'happy'
p4271
tp4272
a(I302
I8
F0.75
S'due'
p4273
tp4274
a(I320
I2
F-0.375
S'simple'
p4275
tp4276
a(I324
I26
F-0.75
S'stupid'
p4277
tp4278
a(I349
I6
I0
S'fast'
p4279
tp4280
a(I349
I13
F0.125
S'able'
p4281
tp4282
a(I367
I1
F0.875
S'happy'
p4283
tp4284
a(I378
I2
F1.0
S'good'
p4285
tp4286
a(I449
I8
F-0.25
S'ready'
p4287
tp4288
a(I540
I24
I0
S'full'
p4289
tp4290
a(I541
I6
F-0.375
S'smooth'
p4291
tp4292
as(S'download'
p4293
tp4294
(lp4295
(I230
I0
F0.875
S'music'
p4296
tp4297
a(I347
I0
I0
S'quick'
p4298
tp4299
a(I424
I12
F0.375
S'new'
p4300
tp4301
as(S'camera'
p4302
tp4303
(lp4304
(I8
I10
I0
S'great'
p4305
tp4306
a(I11
I29
F1.0
S'better'
p4307
tp4308
a(I56
I6
F0.125
S'impressive'
p4309
tp4310
a(I56
I6
F1.0
S'good'
p4311
tp4312
a(I145
I24
F1.0
S'better'
p4313
tp4314
a(I192
I5
I0
S'real'
p4315
tp4316
a(I211
I8
F0.5
S'primary'
p4317
tp4318
a(I220
I0
I0
S'many'
p4319
tp4320
a(I229
I0
F-0.625
S'other'
p4321
tp4322
a(I236
I3
I0
S'great'
p4323
tp4324
a(I247
I3
I0
S'great'
p4325
tp4326
a(I253
I8
F0.5
S'so-so'
p4327
tp4328
a(I258
I6
F0.875
S'nice'
p4329
tp4330
a(I266
I13
F1.0
S'good'
p4331
tp4332
a(I281
I2
F0.375
S'flash'
p4333
tp4334
a(I287
I47
I0
S'noisy'
p4335
tp4336
a(I306
I17
F1.0
S'better'
p4337
tp4338
a(I310
I37
I0
S'adequate'
p4339
tp4340
a(I349
I14
F-0.625
S'bad'
p4341
tp4342
a(I359
I3
I0
S'wish'
p4343
tp4344
a(I359
I3
F1.0
S'better'
p4345
tp4346
a(I360
I16
F0.625
S'fair'
p4347
tp4348
a(I386
I0
I0
S'great'
p4349
tp4350
a(I396
I8
F1.0
S'good'
p4351
tp4352
a(I399
I1
F0.5
S'clear'
p4353
tp4354
a(I407
I0
F0.875
S'music'
p4355
tp4356
a(I408
I5
I0
S'big'
p4357
tp4358
a(I408
I11
I0
S'more'
p4359
tp4360
a(I555
I9
I0
S'pic'
p4361
tp4362
a(I557
I5
F-0.5
S'poor'
p4363
tp4364
a(I557
I5
F-0.25
S'low'
p4365
tp4366
a(I570
I7
F0.625
S'kind'
p4367
tp4368
as(S'using'
p4369
tp4370
(lp4371
(I75
I9
F-0.75
S'comfortable'
p4372
tp4373
as(S'need'
p4374
tp4375
(lp4376
(I287
I35
I0
S'most'
p4377
tp4378
a(I287
I35
F-0.75
S'likely'
p4379
tp4380
a(I339
I2
I0
S'least'
p4381
tp4382
a(I344
I0
F0.5
S'possible'
p4383
tp4384
a(I345
I0
F-0.75
S'ill'
p4385
tp4386
as(S'mobile'
p4387
tp4388
(lp4389
(I35
I13
F0.75
g1011
tp4390
a(I48
I9
I0
g1013
tp4391
a(I48
I9
F1.0
g1015
tp4392
a(I154
I1
F-0.75
g2510
tp4393
a(I211
I34
I0
g1025
tp4394
a(I219
I8
F-0.125
g862
tp4395
a(I275
I2
F0.125
g1028
tp4396
a(I279
I11
F0.125
g1030
tp4397
a(I295
I1
F-0.125
g868
tp4398
a(I449
I26
F0.375
g1043
tp4399
a(I471
I7
I0
g2531
tp4400
a(I533
I0
F0.125
g999
tp4401
a(I541
I3
I0
S'own'
p4402
tp4403
a(I541
I5
I0
g2538
tp4404
as(S'and'
p4405
S'virgin'
p4406
S'mobile'
p4407
tp4408
(lp4409
(I6
I1
I0
g1006
tp4410
a(I11
I6
I0
g842
tp4411
a(I48
I9
I0
g1013
tp4412
a(I48
I9
F1.0
g1015
tp4413
a(I95
I10
F0.125
g1021
tp4414
a(I117
I2
I0
g1023
tp4415
a(I154
I1
F-0.75
g2510
tp4416
a(I219
I8
F-0.125
g862
tp4417
a(I295
I1
F-0.125
g868
tp4418
a(I348
I1
F-0.5
g1686
tp4419
a(I369
I3
F0.5
g880
tp4420
a(I408
I12
F-0.125
g1038
tp4421
a(I418
I11
I0
g997
tp4422
a(I449
I0
I0
g1041
tp4423
a(I449
I26
F0.375
g1043
tp4424
a(I451
I0
F0.5
g267
tp4425
a(I471
I7
I0
g2531
tp4426
a(I489
I3
I0
g1048
tp4427
a(I489
I3
F-0.75
g1050
tp4428
a(I502
I3
F0.875
g1053
tp4429
a(I533
I0
F0.125
g999
tp4430
as(S'and'
p4431
S'300'
p4432
S'minutes'
p4433
tp4434
(lp4435
(I24
I8
I0
g2700
tp4436
a(I24
I34
I0
g2702
tp4437
a(I161
I2
F0.125
g2708
tp4438
a(I473
I12
F1.0
g2730
tp4439
as(S'people'
p4440
tp4441
(lp4442
(I29
I5
I0
S'many'
p4443
tp4444
a(I58
I1
I0
S'most'
p4445
tp4446
a(I58
I1
I0
S'text'
p4447
tp4448
a(I64
I0
I0
S'most'
p4449
tp4450
a(I75
I11
I0
S'most'
p4451
tp4452
a(I76
I30
I0
S'many'
p4453
tp4454
a(I76
I129
I0
S'most'
p4455
tp4456
a(I121
I23
F-0.625
S'other'
p4457
tp4458
a(I136
I1
F-0.625
S'other'
p4459
tp4460
a(I145
I23
F-0.5
S'fun'
p4461
tp4462
a(I161
I0
I0
S'few'
p4463
tp4464
a(I172
I14
I0
S'many'
p4465
tp4466
a(I236
I9
I0
S'normal'
p4467
tp4468
a(I335
I3
I0
S'many'
p4469
tp4470
a(I380
I14
I0
S'many'
p4471
tp4472
a(I388
I6
F-0.625
S'other'
p4473
tp4474
a(I388
I13
I0
S'most'
p4475
tp4476
a(I415
I9
F-0.25
S'turned'
p4477
tp4478
a(I444
I0
F0.125
S'first'
p4479
tp4480
a(I449
I16
I0
S'many'
p4481
tp4482
a(I494
I18
F0.125
S'able'
p4483
tp4484
a(I516
I12
I0
S'most'
p4485
tp4486
a(I517
I9
I0
S'many'
p4487
tp4488
a(I517
I16
I0
S'many'
p4489
tp4490
a(I517
I16
I0
S'many'
p4491
tp4492
a(I517
I16
I0
S'own'
p4493
tp4494
a(I554
I10
F-0.625
S'other'
p4495
tp4496
a(I582
I0
I0
S'cool'
p4497
tp4498
a(I582
I2
I0
S'most'
p4499
tp4500
a(I588
I12
F-0.625
S'want'
p4501
tp4502
as(S'per'
p4503
S'month'
p4504
tp4505
(lp4506
(I75
I4
I0
g23
tp4507
a(I77
I21
F0.75
g197
tp4508
a(I142
I1
I0
g199
tp4509
a(I351
I8
F1.0
g219
tp4510
a(I490
I2
F0.375
S'much'
p4511
tp4512
a(I490
I2
I0
g230
tp4513
a(I494
I12
F-0.5
g232
tp4514
as(S'to'
p4515
S'make'
p4516
S'calls'
p4517
tp4518
(lp4519
(I182
I6
F-0.625
g3536
tp4520
a(I443
I2
F-0.625
g3552
tp4521
a(I449
I5
F0.625
g2422
tp4522
a(I473
I6
F-0.625
g3554
tp4523
a(I473
I7
F-0.625
g3556
tp4524
a(I512
I36
F-0.625
g3562
tp4525
as(S'works'
p4526
tp4527
(lp4528
(I11
I16
I0
S'update'
p4529
tp4530
a(I24
I14
F0.375
g3473
tp4531
a(I64
I24
I0
g3475
tp4532
a(I83
I6
F-0.75
g3477
tp4533
a(I90
I0
I0
g3479
tp4534
a(I106
I12
I0
g3481
tp4535
a(I137
I0
I0
g3483
tp4536
a(I148
I5
F-0.125
S'mine'
p4537
tp4538
a(I162
I0
I0
g3485
tp4539
a(I167
I4
I0
g3487
tp4540
a(I167
I7
I0
g3489
tp4541
a(I200
I1
I0
S'same'
p4542
tp4543
a(I216
I2
I0
g3491
tp4544
a(I262
I4
F1.0
S'good'
p4545
tp4546
a(I268
I4
I0
S'android'
p4547
tp4548
a(I274
I27
F0.875
S'nice'
p4549
tp4550
a(I278
I0
I0
g3493
tp4551
a(I308
I2
I0
g3495
tp4552
a(I338
I15
F-0.5
S'less'
p4553
tp4554
a(I398
I1
F-0.625
g3497
tp4555
a(I398
I1
I0
g3499
tp4556
a(I418
I19
I0
S'al'
p4557
tp4558
a(I418
I26
I0
g3501
tp4559
a(I437
I4
I0
g3503
tp4560
a(I526
I3
I0
g3505
tp4561
a(I536
I1
I0
g3507
tp4562
a(I580
I0
F1.0
S'better'
p4563
tp4564
a(I580
I1
I0
g3509
tp4565
a(I580
I1
I0
g3511
tp4566
as(S'with'
p4567
S'virgin'
p4568
S'mobile'
p4569
tp4570
(lp4571
(I11
I6
I0
g842
tp4572
a(I35
I13
F0.75
g1011
tp4573
a(I48
I9
I0
g1013
tp4574
a(I48
I9
F1.0
g1015
tp4575
a(I76
I50
I0
g1019
tp4576
a(I95
I10
F0.125
g1021
tp4577
a(I294
I0
I0
g1032
tp4578
a(I301
I0
I0
g872
tp4579
a(I348
I1
F-0.5
g1686
tp4580
a(I418
I11
I0
g997
tp4581
a(I449
I14
I0
g892
tp4582
a(I451
I0
F0.5
g267
tp4583
a(I502
I3
F0.875
g1053
tp4584
as(g19
S'virgin'
p4585
S'mobile'
p4586
tp4587
(lp4588
(I6
I1
I0
g1006
tp4589
a(I6
I10
I0
g2497
tp4590
a(I11
I6
I0
g842
tp4591
a(I20
I33
I0
g251
tp4592
a(I20
I33
I0
g253
tp4593
a(I35
I13
F0.75
g1011
tp4594
a(I48
I9
I0
g1013
tp4595
a(I48
I9
F1.0
g1015
tp4596
a(I51
I4
F-0.125
g255
tp4597
a(I51
I4
I0
g257
tp4598
a(I76
I50
I0
g1019
tp4599
a(I95
I10
F0.125
g1021
tp4600
a(I117
I2
I0
g1023
tp4601
a(I154
I1
F-0.75
g2510
tp4602
a(I211
I34
I0
g1025
tp4603
a(I212
I18
F-0.625
g2513
tp4604
a(I219
I8
F-0.125
g862
tp4605
a(I275
I2
F0.125
g1028
tp4606
a(I279
I11
F0.125
g1030
tp4607
a(I294
I0
I0
g1032
tp4608
a(I295
I1
F-0.125
g868
tp4609
a(I301
I0
I0
g872
tp4610
a(I320
I4
F-0.25
g261
tp4611
a(I348
I1
F-0.5
g1686
tp4612
a(I369
I3
F0.5
g880
tp4613
a(I408
I12
F-0.125
g1038
tp4614
a(I418
I11
I0
g997
tp4615
a(I449
I0
I0
g1041
tp4616
a(I449
I14
I0
g892
tp4617
a(I449
I26
F0.375
g1043
tp4618
a(I451
I0
F0.5
g267
tp4619
a(I466
I4
F0.125
g1046
tp4620
a(I471
I7
I0
g2531
tp4621
a(I489
I3
I0
g1048
tp4622
a(I489
I3
F-0.75
g1050
tp4623
a(I492
I4
F0.125
g894
tp4624
a(I502
I3
F0.875
g1053
tp4625
a(I533
I0
F0.125
g999
tp4626
a(I541
I5
I0
g2538
tp4627
as(S'better'
p4628
tp4629
(lp4630
(I94
I1
F0.375
S'much'
p4631
tp4632
a(I274
I21
F0.375
S'much'
p4633
tp4634
a(I277
I3
F0.375
S'much'
p4635
tp4636
a(I311
I10
F0.375
S'much'
p4637
tp4638
a(I316
I0
F-0.625
S'glad'
p4639
tp4640
a(I408
I12
F0.375
S'much'
p4641
tp4642
a(I494
I17
F0.375
S'much'
p4643
tp4644
a(I555
I9
F0.125
S'subject'
p4645
tp4646
a(I558
I0
F0.375
S'much'
p4647
tp4648
as(S'bells'
p4649
S'and'
p4650
S'whistles'
p4651
tp4652
(lp4653
(I159
I0
F0.625
S'necessary'
p4654
tp4655
a(I476
I4
F-0.625
S'other'
p4656
tp4657
a(I512
I5
I0
S'more'
p4658
tp4659
a(I528
I0
F-0.625
S'other'
p4660
tp4661
as(S'call'
p4662
tp4663
(lp4664
(I11
I31
F-0.75
g85
tp4665
a(I38
I3
F0.25
g91
tp4666
a(I54
I3
F1.0
g95
tp4667
a(I57
I4
F0.875
S'happy'
p4668
tp4669
a(I121
I24
F-0.5
g103
tp4670
a(I168
I2
F0.125
S'able'
p4671
tp4672
a(I191
I5
I0
S'conditional'
p4673
tp4674
a(I211
I87
F-0.75
S'impossible'
p4675
tp4676
a(I271
I10
I0
g111
tp4677
a(I385
I6
I0
S'dial'
p4678
tp4679
a(I449
I5
F-0.125
g117
tp4680
a(I477
I4
I0
S'more'
p4681
tp4682
a(I512
I14
F0.375
S'blinked'
p4683
tp4684
a(I569
I4
I0
g125
tp4685
as(S'lot'
p4686
S'of'
p4687
S'apps'
p4688
tp4689
(lp4690
(I45
I7
F0.25
S'tired'
p4691
tp4692
a(I111
I1
I0
S'useful'
p4693
tp4694
a(I131
I15
F0.25
S'responsive'
p4695
tp4696
a(I163
I5
F-0.5
S'sure'
p4697
tp4698
a(I182
I4
F-0.625
S'free'
p4699
tp4700
a(I182
I9
I0
g487
tp4701
a(I273
I4
I0
S'great'
p4702
tp4703
a(I273
I4
I0
S'most'
p4704
tp4705
a(I373
I2
F0.5
S'compatible'
p4706
tp4707
a(I373
I2
I0
S'great'
p4708
tp4709
a(I404
I14
F0.375
S'enable'
p4710
tp4711
a(I413
I2
I0
S'same'
p4712
tp4713
a(I512
I11
I0
S'useful'
p4714
tp4715
a(I512
I23
F-0.375
S'small'
p4716
tp4717
as(S'easy'
p4718
S'to'
p4719
S'use'
p4720
tp4721
(lp4722
(I512
I33
I0
S'full'
p4723
tp4724
as(S'apps'
p4725
tp4726
(lp4727
(I8
I5
I0
S'android'
p4728
tp4729
a(I8
I6
F-0.625
S'free'
p4730
tp4731
a(I8
I6
F-0.375
S'top'
p4732
tp4733
a(I11
I7
I0
S'quick'
p4734
tp4735
a(I11
I23
I0
S'more'
p4736
tp4737
a(I11
I23
I0
S'android'
p4738
tp4739
a(I14
I1
F-0.625
S'free'
p4740
tp4741
a(I21
I5
F-0.625
S'free'
p4742
tp4743
a(I25
I11
F0.875
S'music'
p4744
tp4745
a(I27
I4
I0
g464
tp4746
a(I27
I6
I0
S'close'
p4747
tp4748
a(I27
I6
F-0.625
S'other'
p4749
tp4750
a(I36
I31
I0
g466
tp4751
a(I39
I3
F-0.75
S'unable'
p4752
tp4753
a(I39
I3
I0
S'more'
p4754
tp4755
a(I45
I7
F0.25
g4691
tp4756
a(I46
I41
I0
S'different'
p4757
tp4758
a(I46
I44
F-0.625
S'other'
p4759
tp4760
a(I56
I4
F0.125
S'popular'
p4761
tp4762
a(I56
I7
F0.375
g469
tp4763
a(I56
I7
I0
g471
tp4764
a(I59
I2
F0.25
S'favorite'
p4765
tp4766
a(I70
I1
I0
S'many'
p4767
tp4768
a(I72
I1
F0.125
g473
tp4769
a(I76
I22
I0
S'useful'
p4770
tp4771
a(I76
I26
F0.125
S'able'
p4772
tp4773
a(I76
I26
I0
S'most'
p4774
tp4775
a(I76
I26
F0.375
S'new'
p4776
tp4777
a(I76
I26
F0.5
S'compatible'
p4778
tp4779
a(I76
I108
I0
S'many'
p4780
tp4781
a(I77
I8
I0
S'most'
p4782
tp4783
a(I88
I3
F-0.625
g475
tp4784
a(I92
I6
I0
S'different'
p4785
tp4786
a(I92
I6
F-0.375
S'smooth'
p4787
tp4788
a(I102
I9
I0
S'most'
p4789
tp4790
a(I105
I8
I0
S'many'
p4791
tp4792
a(I105
I9
I0
S'few'
p4793
tp4794
a(I105
I9
F0.375
S'extra'
p4795
tp4796
a(I106
I15
F-0.625
S'free'
p4797
tp4798
a(I111
I1
I0
g4693
tp4799
a(I113
I6
F0.875
S'music'
p4800
tp4801
a(I114
I3
F-0.125
S'mapquest'
p4802
tp4803
a(I114
I3
F-0.625
S'free'
p4804
tp4805
a(I114
I10
I0
S'most'
p4806
tp4807
a(I118
I2
I0
S'many'
p4808
tp4809
a(I119
I6
F-0.5
g477
tp4810
a(I119
I12
F0.25
g479
tp4811
a(I121
I13
I0
S'android'
p4812
tp4813
a(I127
I0
I0
S'more'
p4814
tp4815
a(I127
I1
I0
S'few'
p4816
tp4817
a(I131
I15
F0.25
g4695
tp4818
a(I136
I0
I0
S'many'
p4819
tp4820
a(I142
I0
I0
S'many'
p4821
tp4822
a(I142
I0
I0
S'more'
p4823
tp4824
a(I145
I4
I0
S'many'
p4825
tp4826
a(I146
I6
F-0.125
S'delete'
p4827
tp4828
a(I146
I8
I0
S'most'
p4829
tp4830
a(I161
I0
F0.125
S'able'
p4831
tp4832
a(I161
I9
F-0.5
S'certain'
p4833
tp4834
a(I164
I10
F-0.125
S'delete'
p4835
tp4836
a(I172
I13
F0.375
S'new'
p4837
tp4838
a(I172
I14
F0.375
g481
tp4839
a(I172
I14
I0
g483
tp4840
a(I172
I14
F-0.125
g485
tp4841
a(I177
I4
I0
S'android'
p4842
tp4843
a(I179
I4
I0
S'most'
p4844
tp4845
a(I182
I4
F-0.625
g4699
tp4846
a(I182
I9
I0
g487
tp4847
a(I182
I10
F0.875
S'important'
p4848
tp4849
a(I187
I0
I0
S'useful'
p4850
tp4851
a(I187
I5
I0
S'many'
p4852
tp4853
a(I192
I11
I0
S'fewer'
p4854
tp4855
a(I192
I19
I0
S'few'
p4856
tp4857
a(I192
I19
I0
S'stable'
p4858
tp4859
a(I198
I1
I0
S'great'
p4860
tp4861
a(I203
I3
F0.125
S'able'
p4862
tp4863
a(I203
I3
F-0.5
S'certain'
p4864
tp4865
a(I203
I3
F-0.625
S'free'
p4866
tp4867
a(I203
I6
F0.125
S'able'
p4868
tp4869
a(I203
I6
F-0.375
S'daily'
p4870
tp4871
a(I203
I6
F-0.5
S'regular'
p4872
tp4873
a(I206
I21
I0
S'many'
p4874
tp4875
a(I206
I21
I0
S'android'
p4876
tp4877
a(I210
I1
I0
S'many'
p4878
tp4879
a(I210
I6
F-0.667
S'incompatible'
p4880
tp4881
a(I210
I8
I0
g489
tp4882
a(I211
I42
F-0.625
S'free'
p4883
tp4884
a(I212
I2
I0
S'many'
p4885
tp4886
a(I212
I2
F0.5
S'compatible'
p4887
tp4888
a(I213
I4
F-0.125
S'slow'
p4889
tp4890
a(I219
I1
F-0.625
S'free'
p4891
tp4892
a(I225
I8
I0
S'many'
p4893
tp4894
a(I230
I0
F0.875
S'nice'
p4895
tp4896
a(I247
I3
F0.5
S'expensive'
p4897
tp4898
a(I249
I2
I0
S'most'
p4899
tp4900
a(I249
I3
I0
S'many'
p4901
tp4902
a(I251
I3
I0
S'few'
p4903
tp4904
a(I253
I6
F0.875
S'important'
p4905
tp4906
a(I253
I6
I0
S'many'
p4907
tp4908
a(I255
I23
I0
S'most'
p4909
tp4910
a(I255
I23
F0.375
S'new'
p4911
tp4912
a(I255
I23
F0.25
S'favorite'
p4913
tp4914
a(I263
I9
I0
g491
tp4915
a(I265
I3
I0
S'useful'
p4916
tp4917
a(I271
I4
I0
S'few'
p4918
tp4919
a(I271
I7
I0
S'few'
p4920
tp4921
a(I273
I4
I0
g4702
tp4922
a(I273
I4
I0
g4704
tp4923
a(I274
I14
F0.375
S'extra'
p4924
tp4925
a(I275
I1
I0
S'great'
p4926
tp4927
a(I275
I7
F-0.625
S'free'
p4928
tp4929
a(I279
I8
F0.125
S'able'
p4930
tp4931
a(I281
I1
F0.125
g493
tp4932
a(I281
I1
I0
g495
tp4933
a(I281
I3
F-0.75
S'wrong'
p4934
tp4935
a(I281
I3
F-0.625
S'free'
p4936
tp4937
a(I281
I3
I0
S'android'
p4938
tp4939
a(I310
I19
I0
S'many'
p4940
tp4941
a(I310
I19
F-0.625
S'other'
p4942
tp4943
a(I317
I10
I0
S'such'
p4944
tp4945
a(I317
I13
I0
g497
tp4946
a(I317
I13
F0.375
g499
tp4947
a(I317
I14
I0
S'many'
p4948
tp4949
a(I317
I15
I0
g501
tp4950
a(I317
I16
I0
S'many'
p4951
tp4952
a(I317
I16
F-0.625
S'free'
p4953
tp4954
a(I323
I5
I0
S'anymore'
p4955
tp4956
a(I324
I6
I0
g503
tp4957
a(I324
I10
I0
S'android'
p4958
tp4959
a(I325
I0
I0
S'android'
p4960
tp4961
a(I329
I0
I0
S'useful'
p4962
tp4963
a(I333
I4
F0.5
S'possible'
p4964
tp4965
a(I334
I6
F0.375
S'available'
p4966
tp4967
a(I336
I4
F-0.625
S'free'
p4968
tp4969
a(I340
I3
I0
S'many'
p4970
tp4971
a(I349
I8
I0
S'few'
p4972
tp4973
a(I349
I8
F-0.625
S'other'
p4974
tp4975
a(I362
I2
I0
S'basic'
p4976
tp4977
a(I370
I20
I0
S'few'
p4978
tp4979
a(I370
I26
F0.375
S'newer'
p4980
tp4981
a(I373
I2
I0
g4708
tp4982
a(I376
I0
F1.0
S'good'
p4983
tp4984
a(I380
I9
I0
S'more'
p4985
tp4986
a(I381
I5
F0.375
S'newer'
p4987
tp4988
a(I381
I5
I0
S'more'
p4989
tp4990
a(I389
I4
I0
S'more'
p4991
tp4992
a(I389
I6
I0
S'many'
p4993
tp4994
a(I396
I14
I0
S'many'
p4995
tp4996
a(I401
I8
I0
S'many'
p4997
tp4998
a(I404
I14
F0.375
g4710
tp4999
a(I412
I4
F0.125
g505
tp5000
a(I416
I2
F0.875
S'music'
p5001
tp5002
a(I416
I11
I0
g507
tp5003
a(I416
I11
I0
g509
tp5004
a(I416
I11
F-0.625
g511
tp5005
a(I416
I13
F0.125
g513
tp5006
a(I416
I17
I0
g515
tp5007
a(I416
I21
F0.875
S'music'
p5008
tp5009
a(I416
I21
I0
S'great'
p5010
tp5011
a(I416
I23
F0.5
S'compatible'
p5012
tp5013
a(I418
I18
F-0.625
S'other'
p5014
tp5015
a(I418
I18
F0.375
S'much'
p5016
tp5017
a(I422
I2
I0
S'few'
p5018
tp5019
a(I426
I2
I0
S'basic'
p5020
tp5021
a(I426
I3
I0
g517
tp5022
a(I426
I3
F0.5
g519
tp5023
a(I431
I2
F0.125
S'able'
p5024
tp5025
a(I433
I6
F-0.625
S'free'
p5026
tp5027
a(I437
I8
I0
g521
tp5028
a(I437
I8
F0.5
g523
tp5029
a(I439
I3
I0
S'many'
p5030
tp5031
a(I439
I3
F-0.625
S'free'
p5032
tp5033
a(I439
I3
F0.375
S'available'
p5034
tp5035
a(I449
I5
F0.375
S'available'
p5036
tp5037
a(I449
I5
F0.125
S'further'
p5038
tp5039
a(I449
I24
I0
S'few'
p5040
tp5041
a(I451
I2
I0
S'many'
p5042
tp5043
a(I451
I2
F-0.625
S'free'
p5044
tp5045
a(I451
I2
I0
S'few'
p5046
tp5047
a(I451
I2
I0
S'useful'
p5048
tp5049
a(I461
I6
I0
g525
tp5050
a(I461
I6
F-0.375
g527
tp5051
a(I484
I2
F-0.5
S'limitless'
p5052
tp5053
a(I491
I4
I0
S'android'
p5054
tp5055
a(I491
I5
I0
S'optional'
p5056
tp5057
a(I496
I4
I0
S'android'
p5058
tp5059
a(I498
I5
I0
g529
tp5060
a(I504
I1
I0
S'android'
p5061
tp5062
a(I506
I15
I0
S'more'
p5063
tp5064
a(I506
I15
F0.875
S'important'
p5065
tp5066
a(I506
I18
F-0.625
S'clean'
p5067
tp5068
a(I506
I21
F0.125
g531
tp5069
a(I508
I6
F-0.125
S'slow'
p5070
tp5071
a(I512
I11
I0
g4714
tp5072
a(I512
I23
F-0.375
g4716
tp5073
a(I512
I35
I0
S'useful'
p5074
tp5075
a(I515
I1
I0
S'most'
p5076
tp5077
a(I531
I2
F0.875
S'music'
p5078
tp5079
a(I534
I1
I0
S'few'
p5080
tp5081
a(I539
I8
F0.25
S'read'
p5082
tp5083
a(I540
I41
I0
S'few'
p5084
tp5085
a(I543
I5
F-0.5
S'less'
p5086
tp5087
a(I546
I1
F-0.125
S'super'
p5088
tp5089
a(I546
I1
F-0.25
S'intensive'
p5090
tp5091
a(I551
I2
I0
S'few'
p5092
tp5093
a(I551
I3
I0
S'many'
p5094
tp5095
a(I552
I3
F-0.5
S'certain'
p5096
tp5097
a(I553
I1
I0
S'such'
p5098
tp5099
a(I554
I8
I0
S'many'
p5100
tp5101
a(I555
I5
I0
S'old'
p5102
tp5103
a(I558
I0
I0
S'close'
p5104
tp5105
a(I563
I4
I0
S'close'
p5106
tp5107
a(I569
I5
I0
S'most'
p5108
tp5109
a(I569
I19
I0
S'such'
p5110
tp5111
a(I569
I20
F-0.25
S'google'
p5112
tp5113
a(I583
I0
F-0.625
S'free'
p5114
tp5115
a(I585
I15
F0.125
g533
tp5116
as(S'days'
p5117
tp5118
(lp5119
(I20
I42
I0
S'few'
p5120
tp5121
a(I24
I37
I0
S'next'
p5122
tp5123
a(I25
I3
I0
S'few'
p5124
tp5125
a(I46
I61
F-0.75
S'unable'
p5126
tp5127
a(I47
I2
I0
S'few'
p5128
tp5129
a(I47
I2
I0
S'great'
p5130
tp5131
a(I77
I10
I0
S'few'
p5132
tp5133
a(I107
I1
I0
S'few'
p5134
tp5135
a(I114
I9
F0.125
S'solid'
p5136
tp5137
a(I142
I1
F0.75
S'give'
p5138
tp5139
a(I177
I16
I0
S'few'
p5140
tp5141
a(I180
I0
I0
S'final'
p5142
tp5143
a(I180
I10
I0
S'final'
p5144
tp5145
a(I194
I0
I0
S'few'
p5146
tp5147
a(I207
I0
I0
S'few'
p5148
tp5149
a(I207
I0
F1.0
S'good'
p5150
tp5151
a(I210
I18
I0
S'few'
p5152
tp5153
a(I241
I0
I0
S'fast'
p5154
tp5155
a(I248
I7
F0.125
S'able'
p5156
tp5157
a(I248
I7
F0.375
S'much'
p5158
tp5159
a(I266
I19
I0
S'most'
p5160
tp5161
a(I287
I5
F0.125
S'first'
p5162
tp5163
a(I287
I5
I0
S'few'
p5164
tp5165
a(I308
I2
I0
S'few'
p5166
tp5167
a(I324
I23
F1.0
S'good'
p5168
tp5169
a(I345
I2
I0
S'full'
p5170
tp5171
a(I350
I5
I0
S'few'
p5172
tp5173
a(I360
I0
I0
S'few'
p5174
tp5175
a(I396
I5
F-0.5
S'less'
p5176
tp5177
a(I396
I5
I0
S'full'
p5178
tp5179
a(I396
I6
I0
S'full'
p5180
tp5181
a(I397
I0
I0
S'later'
p5182
tp5183
a(I424
I10
F-0.125
S'mine'
p5184
tp5185
a(I424
I10
I0
S'few'
p5186
tp5187
a(I426
I2
I0
S'few'
p5188
tp5189
a(I428
I18
F0.125
S'last'
p5190
tp5191
a(I443
I12
I0
S'more'
p5192
tp5193
a(I466
I12
I0
S'few'
p5194
tp5195
a(I466
I16
I0
S'later'
p5196
tp5197
a(I476
I0
I0
S'mobile'
p5198
tp5199
a(I476
I0
I0
S'few'
p5200
tp5201
a(I542
I1
I0
S'few'
p5202
tp5203
a(I584
I0
I0
S'few'
p5204
tp5205
as.