(dp0
(S'touch'
p1
S'screen'
p2
tp3
(lp4
(I11
I5
F0.5
S'touch'
p5
I2
tp6
a(I11
I15
F-0.5
S'sure'
p7
I2
tp8
a(I11
I15
F0.5
S'touch'
p9
I2
tp10
as(S'sprint'
p11
tp12
(lp13
(I9
I39
F0.5
S'compatible'
p14
I0
tp15
as(S'battery'
p16
S'life'
p17
tp18
(lp19
(I5
I30
F-0.75
S'short'
p20
I1
tp21
a(I17
I32
F-0.125
S'slow'
p22
I1
tp23
a(I9
I32
F-0.75
S'dead'
p24
I15
tp25
a(I17
I32
F-0.125
g22
I15
tp26
as(S'apps'
p27
tp28
(lp29
(I8
I9
I0
S'general'
p30
I0
tp31
as.