(dp0
(S'life'
p1
tp2
(lp3
(I14
I2
F-0.5
S'long'
p4
tp5
a(I15
I1
F1.0
S'good'
p6
tp7
a(I215
I0
F1.0
S'good'
p8
tp9
a(I338
I0
F-0.25
S'battery'
p10
tp11
a(I339
I4
I0
S'great'
p12
tp13
as(S'problem'
p14
tp15
(lp16
(I14
I5
I0
S'such'
p17
tp18
a(I117
I1
I0
S'only'
p19
tp20
a(I118
I0
F-0.375
S'manual'
p21
tp22
a(I118
I0
I0
S'real'
p23
tp24
a(I127
I5
I0
S'same'
p25
tp26
a(I212
I1
I0
S'only'
p27
tp28
a(I227
I4
F-0.125
S'slow'
p29
tp30
a(I242
I2
F0.625
S'major'
p31
tp32
a(I242
I2
F-0.125
S'slow'
p33
tp34
a(I339
I5
I0
S'only'
p35
tp36
as(S'motorola'
p37
S'droid'
p38
tp39
(lp40
(I8
I1
I0
S'most'
p41
tp42
a(I12
I8
F0.25
S'original'
p43
tp44
a(I12
I15
I0
S'real'
p45
tp46
a(I13
I0
F0.5
S'second'
p47
tp48
as(S'purchase'
p49
tp50
(lp51
(I86
I0
F0.875
S'happy'
p52
tp53
a(I103
I0
F0.5
S'satisfied'
p54
tp55
a(I108
I0
F-0.875
S'worst'
p56
tp57
a(I252
I3
F0.625
S'major'
p58
tp59
a(I301
I3
F-0.125
S'overall'
p60
tp61
a(I301
I3
F0.875
S'happy'
p62
tp63
a(I335
I0
F0.875
S'happy'
p64
tp65
as(S'a'
p66
S'droid'
p67
S'x'
p68
tp69
(lp70
(I15
I0
I0
S'android'
p71
tp72
a(I33
I8
F0.5
S'expensive'
p73
tp74
a(I37
I3
F0.5
S'second'
p75
tp76
a(I62
I0
I0
S'old'
p77
tp78
a(I94
I0
I0
S'incredible'
p79
tp80
a(I127
I5
F0.5
S'second'
p81
tp82
a(I127
I5
F0.125
S'first'
p83
tp84
a(I142
I0
F1.0
S'good'
p85
tp86
a(I151
I2
I0
S'current'
p87
tp88
a(I208
I0
F0.875
S'happy'
p89
tp90
a(I208
I0
F0.125
S'last'
p91
tp92
a(I208
I0
I0
S'smoked'
p93
tp94
a(I244
I0
F0.375
S'new'
p95
tp96
a(I262
I1
I0
S'identical'
p97
tp98
a(I299
I2
F0.625
S'superior'
p99
tp100
a(I300
I0
I0
S'old'
p101
tp102
a(I300
I11
F0.375
S'new'
p103
tp104
a(I307
I0
F0.375
S'new'
p105
tp106
as(S'new'
p107
S'droid'
p108
g68
tp109
(lp110
(I244
I0
F0.375
g95
tp111
a(I300
I11
F0.375
g103
tp112
a(I307
I0
F0.375
g105
tp113
as(S'2'
p114
S'weeks'
p115
tp116
(lp117
(I126
I4
I0
S'wish'
p118
tp119
a(I126
I4
F0.125
S'sooner'
p120
tp121
as(S'motorola'
p122
tp123
(lp124
(I8
I1
I0
g41
tp125
a(I12
I8
F0.25
g43
tp126
a(I12
I10
I0
S'real'
p127
tp128
a(I12
I11
I0
S'real'
p129
tp130
a(I12
I14
I0
S'real'
p131
tp132
a(I12
I15
I0
g45
tp133
a(I13
I0
F0.5
g47
tp134
a(I249
I1
I0
S'update'
p135
tp136
as(S'came'
p137
tp138
(lp139
(I163
I5
F0.125
S'first'
p140
tp141
a(I200
I0
F0.125
S'first'
p142
tp143
as(S'condition'
p144
tp145
(lp146
(I87
I0
F-0.5
S'poor'
p147
tp148
a(I102
I4
F1.0
S'good'
p149
tp150
a(I102
I4
I0
S'signal'
p151
tp152
a(I102
I4
F1.0
S'good'
p153
tp154
a(I108
I1
F0.625
S'fair'
p155
tp156
a(I141
I1
F0.625
S'perfect'
p157
tp158
a(I149
I9
F-0.5
S'sure'
p159
tp160
a(I173
I0
I0
S'great'
p161
tp162
a(I198
I1
F0.375
S'new'
p163
tp164
a(I280
I1
I0
S'great'
p165
tp166
a(I280
I1
F1.0
S'good'
p167
tp168
a(I291
I1
F1.0
S'better'
p169
tp170
a(I329
I0
F-0.5
S'poor'
p171
tp172
a(I333
I0
F1.0
S'good'
p173
tp174
a(I336
I0
F0.375
S'new'
p175
tp176
as(S'happy'
p177
tp178
(lp179
(I308
I0
I0
S'real'
p180
tp181
a(I345
I0
F-0.375
S'vary'
p182
tp183
as(S'screen'
p184
tp185
(lp186
(I9
I4
I0
S'many'
p187
tp188
a(I12
I4
I0
S'dial'
p189
tp190
a(I27
I2
I0
S'large'
p191
tp192
a(I31
I9
I0
S'large'
p193
tp194
a(I58
I0
F-0.125
S'slow'
p195
tp196
a(I60
I0
F0.375
S'new'
p197
tp198
a(I72
I1
I0
S'big'
p199
tp200
a(I135
I4
F0.25
S'responsive'
p201
tp202
a(I151
I1
F-0.625
S'clean'
p203
tp204
a(I189
I2
F0.875
S'nice'
p205
tp206
a(I201
I7
F1.0
S'good'
p207
tp208
a(I207
I2
I0
S'large'
p209
tp210
a(I213
I3
F-0.75
S'unable'
p211
tp212
a(I237
I1
F-0.75
S'bright'
p213
tp214
a(I237
I1
F0.625
S'easy'
p215
tp216
a(I242
I10
F0.875
S'nice'
p217
tp218
a(I242
I10
F0.25
S'bigger'
p219
tp220
a(I259
I1
F-0.875
S'trouble'
p221
tp222
a(I259
I1
F-0.75
S'tough'
p223
tp224
a(I262
I1
F0.375
S'indestructible'
p225
tp226
a(I281
I1
F-0.625
S'clean'
p227
tp228
a(I288
I0
F-0.375
S'black'
p229
tp230
a(I288
I0
F-0.625
S'want'
p231
tp232
a(I300
I2
I0
S'large'
p233
tp234
a(I300
I3
F0.5
S'clear'
p235
tp236
a(I300
I3
F0.25
S'sharp'
p237
tp238
as(S'like'
p239
tp240
(lp241
(I332
I0
F0.375
S'new'
p242
tp243
as(S'case'
p244
tp245
(lp246
(I189
I1
F-0.636
S'genuine'
p247
tp248
a(I332
I0
F-0.5
S'open'
p249
tp250
as(S'company'
p251
tp252
(lp253
(I123
I5
I0
S'great'
p254
tp255
a(I277
I2
F0.5
S'told'
p256
tp257
as(S'service'
p258
tp259
(lp260
(I84
I1
F0.25
S'helpful'
p261
tp262
a(I303
I2
F1.0
S'better'
p263
tp264
as(S'everything'
p265
tp266
(lp267
(I8
I0
F1.0
S'best'
p268
tp269
a(I139
I0
F-0.5
S'unlimited'
p270
tp271
a(I143
I1
F-0.625
S'glad'
p272
tp273
as(S'problems'
p274
tp275
(lp276
(I9
I0
F-0.375
S'serious'
p277
tp278
a(I9
I5
I0
S'many'
p279
tp280
a(I66
I0
F0.625
S'major'
p281
tp282
a(I112
I1
I0
S'great'
p283
tp284
a(I299
I10
I0
S'close'
p285
tp286
a(I310
I1
F0.125
S'first'
p287
tp288
a(I310
I1
F0.625
S'major'
p289
tp290
a(I342
I2
F-0.5
S'sure'
p291
tp292
as(S'back'
p293
tp294
(lp295
(I0
I4
F-0.75
S'bright'
p296
tp297
a(I119
I1
F0.75
S'due'
p298
tp299
as(S'love'
p300
tp301
(lp302
(I164
I0
I0
S'great'
p303
tp304
as(S'camera'
p305
tp306
(lp307
(I1
I11
F-0.125
S'slow'
p308
tp309
a(I1
I11
F-0.5
S'open'
p310
tp311
a(I95
I0
F0.875
S'nice'
p312
tp313
a(I135
I4
I0
S'great'
p314
tp315
a(I153
I13
F0.125
S'able'
p316
tp317
a(I158
I1
F-0.625
S'other'
p318
tp319
a(I170
I0
F-0.5
S'poor'
p320
tp321
a(I181
I0
F0.375
S'new'
p322
tp323
a(I183
I0
I0
S'great'
p324
tp325
a(I213
I5
I0
S'real'
p326
tp327
a(I271
I1
F-0.125
S'slow'
p328
tp329
a(I318
I1
F0.5
S'second'
p330
tp331
a(I324
I1
F1.0
S'good'
p332
tp333
a(I324
I1
F0.625
S'easy'
p334
tp335
as(S'motorola'
p336
S'droid'
p337
g68
tp338
(lp339
(I12
I8
F0.25
g43
tp340
a(I12
I15
I0
g45
tp341
a(I13
I0
F0.5
g47
tp342
a(I142
I0
F1.0
g85
tp343
as(S'battery'
p344
S'life'
p345
tp346
(lp347
(I15
I1
F1.0
g6
tp348
a(I54
I0
F1.0
S'better'
p349
tp350
a(I113
I1
F0.375
S'reliable'
p351
tp352
a(I113
I1
F-0.5
S'longest'
p353
tp354
a(I215
I0
F1.0
g8
tp355
a(I216
I5
F-0.25
S'low'
p356
tp357
a(I316
I0
F0.875
S'happy'
p358
tp359
a(I338
I0
F-0.25
g10
tp360
a(I338
I0
F0.125
S'last'
p361
tp362
a(I339
I4
I0
g12
tp363
as(S'seller'
p364
tp365
(lp366
(I72
I4
F0.375
S'new'
p367
tp368
a(I228
I1
F0.125
S'able'
p369
tp370
a(I248
I0
I0
S'different'
p371
tp372
a(I263
I5
F0.375
S'honest'
p373
tp374
a(I266
I1
F0.875
S'happy'
p375
tp376
a(I281
I2
I0
S'only'
p377
tp378
a(I329
I2
F-0.875
S'unhappy'
p379
tp380
as(S'take'
p381
tp382
(lp383
(I3
I0
F-0.125
S'cant'
p384
tp385
a(I254
I0
F-0.5
S'long'
p386
tp387
as(S'droid'
p388
g68
tp389
(lp390
(I15
I0
I0
g71
tp391
a(I33
I8
F0.5
g73
tp392
a(I37
I3
F0.5
g75
tp393
a(I62
I0
I0
g77
tp394
a(I94
I0
I0
g79
tp395
a(I127
I5
F0.5
g81
tp396
a(I127
I5
F0.125
g83
tp397
a(I142
I0
F1.0
g85
tp398
a(I149
I14
F0.75
S'worth'
p399
tp400
a(I151
I2
I0
g87
tp401
a(I208
I0
F0.875
g89
tp402
a(I208
I0
F0.125
g91
tp403
a(I208
I0
I0
g93
tp404
a(I244
I0
F0.375
g95
tp405
a(I262
I1
I0
g97
tp406
a(I299
I2
F0.625
g99
tp407
a(I300
I0
I0
g101
tp408
a(I300
I11
F0.375
g103
tp409
a(I307
I0
F0.375
g105
tp410
as(S'fine'
p411
tp412
(lp413
(I100
I2
F-0.25
S'disappointing'
p414
tp415
as(S'weeks'
p416
tp417
(lp418
(I126
I4
I0
g118
tp419
a(I126
I4
F0.125
g120
tp420
a(I299
I10
I0
S'few'
p421
tp422
as(S'product'
p423
tp424
(lp425
(I6
I1
F0.875
S'happy'
p426
tp427
a(I12
I1
F-0.625
S'unusual'
p428
tp429
a(I21
I1
I0
S'great'
p430
tp431
a(I78
I5
F-0.5
S'complaint'
p432
tp433
a(I103
I0
I0
S'great'
p434
tp435
a(I114
I0
I0
S'great'
p436
tp437
a(I145
I3
F1.0
S'better'
p438
tp439
a(I160
I0
F0.375
S'new'
p440
tp441
a(I213
I15
F0.25
S'stellar'
p442
tp443
a(I222
I0
F0.875
S'nice'
p444
tp445
a(I281
I3
F-0.625
S'clean'
p446
tp447
a(I282
I0
F0.375
S'new'
p448
tp449
a(I282
I0
F0.375
S'new'
p450
tp451
a(I282
I4
I0
S'planet'
p452
tp453
a(I282
I4
I0
S'mobile'
p454
tp455
a(I342
I1
F-0.75
S'short'
p456
tp457
as(S'droid'
p458
tp459
(lp460
(I21
I0
F0.25
S'original'
p461
tp462
a(I21
I0
F0.875
S'happy'
p463
tp464
a(I24
I0
I0
S'incredible'
p465
tp466
a(I33
I8
F0.5
g73
tp467
a(I37
I3
F0.5
g75
tp468
a(I64
I0
F0.375
S'new'
p469
tp470
a(I71
I0
F0.5
S'reasonable'
p471
tp472
a(I93
I1
I0
S'old'
p473
tp474
a(I94
I0
I0
g79
tp475
a(I111
I0
F0.375
S'reliable'
p476
tp477
a(I127
I5
F0.5
g81
tp478
a(I151
I2
I0
g87
tp479
a(I227
I1
F-0.5
S'weak'
p480
tp481
a(I227
I10
F0.25
S'original'
p482
tp483
a(I242
I1
F0.125
S'first'
p484
tp485
a(I244
I0
F0.375
g95
tp486
a(I262
I1
I0
g97
tp487
a(I300
I0
I0
g101
tp488
a(I300
I11
F0.375
g103
tp489
a(I307
I0
F0.375
g105
tp490
a(I309
I0
F-0.625
S'other'
p491
tp492
a(I326
I0
F0.25
S'original'
p493
tp494
as(S'return'
p495
tp496
(lp497
(I12
I18
I0
S'great'
p498
tp499
a(I128
I1
F-0.25
S'past'
p500
tp501
as(S'features'
p502
tp503
(lp504
(I12
I5
I0
S'later'
p505
tp506
a(I12
I5
F-0.625
S'other'
p507
tp508
a(I72
I1
I0
S'great'
p509
tp510
a(I213
I7
I0
S'useful'
p511
tp512
a(I213
I12
I0
S'more'
p513
tp514
a(I300
I2
F0.25
S'favorite'
p515
tp516
as(S'verizon'
p517
tp518
(lp519
(I33
I9
I0
S'signal'
p520
tp521
a(I52
I3
F0.875
S'nice'
p522
tp523
a(I100
I0
F0.375
S'new'
p524
tp525
a(I131
I1
I0
S'local'
p526
tp527
a(I232
I1
F0.25
S'tier'
p528
tp529
a(I300
I9
F0.5
S'compatible'
p530
tp531
as(S'price'
p532
tp533
(lp534
(I16
I0
I0
S'great'
p535
tp536
a(I22
I4
I0
S'great'
p537
tp538
a(I44
I0
F0.5
S'reasonable'
p539
tp540
a(I45
I4
I0
S'same'
p541
tp542
a(I45
I4
F1.0
S'good'
p543
tp544
a(I45
I6
I0
S'great'
p545
tp546
a(I45
I6
F1.0
S'good'
p547
tp548
a(I45
I6
I0
S'real'
p549
tp550
a(I79
I0
F1.0
S'good'
p551
tp552
a(I112
I2
F0.5
S'reasonable'
p553
tp554
a(I112
I2
F1.0
S'best'
p555
tp556
a(I135
I4
I0
S'same'
p557
tp558
a(I136
I1
I0
S'great'
p559
tp560
a(I136
I1
I0
S'great'
p561
tp562
a(I156
I4
I0
S'great'
p563
tp564
a(I156
I5
I0
S'most'
p565
tp566
a(I156
I5
I0
S'full'
p567
tp568
a(I182
I1
I0
S'great'
p569
tp570
a(I250
I5
I0
S'full'
p571
tp572
a(I262
I5
F-0.25
S'low'
p573
tp574
a(I290
I4
I0
S'great'
p575
tp576
as(S'work'
p577
tp578
(lp579
(I73
I0
F1.0
S'best'
p580
tp581
as(S'times'
p582
tp583
(lp584
(I62
I1
I0
S'many'
p585
tp586
a(I66
I2
I0
S'few'
p587
tp588
a(I94
I4
I0
S'more'
p589
tp590
a(I242
I5
I0
S'many'
p591
tp592
a(I242
I11
I0
S'many'
p593
tp594
a(I259
I3
F-0.625
S'other'
p595
tp596
a(I261
I0
F-0.125
S'slow'
p597
tp598
as(S'buying'
p599
tp600
(lp601
(I135
I1
F-0.875
S'stuck'
p602
tp603
a(I135
I1
I0
S'older'
p604
tp605
a(I199
I1
F0.5
S'expensive'
p606
tp607
a(I199
I1
F0.375
S'new'
p608
tp609
a(I213
I2
I0
S'more'
p610
tp611
as(S'happy'
p612
S'with'
p613
S'purchase'
p614
tp615
(lp616
(I86
I0
F0.875
g52
tp617
a(I301
I3
F-0.125
g60
tp618
a(I301
I3
F0.875
g62
tp619
a(I335
I0
F0.875
g64
tp620
as(g66
S'long'
p621
S'time'
p622
tp623
(lp624
(I61
I1
F-0.5
S'long'
p625
tp626
a(I70
I0
F-0.5
S'long'
p627
tp628
a(I149
I3
F-0.5
S'long'
p629
tp630
a(I189
I1
F-0.5
S'long'
p631
tp632
a(I224
I0
F-0.5
S'long'
p633
tp634
a(I242
I8
F-0.5
S'long'
p635
tp636
as(S'android'
p637
tp638
(lp639
(I1
I12
F-0.625
S'other'
p640
tp641
a(I44
I0
I0
S'most'
p642
tp643
a(I44
I0
I0
S'current'
p644
tp645
a(I61
I1
F0.125
S'first'
p646
tp647
a(I81
I0
I0
S'old'
p648
tp649
a(I213
I5
I0
S'gingerbread'
p650
tp651
a(I301
I0
F1.0
S'good'
p652
tp653
as(S'customer'
p654
tp655
(lp656
(I60
I1
F0.875
S'happy'
p657
tp658
a(I98
I0
F1.0
S'good'
p659
tp660
a(I315
I2
F1.0
S'better'
p661
tp662
a(I318
I0
I0
S'great'
p663
tp664
as(S'works'
p665
tp666
(lp667
(I55
I0
I0
S'great'
p668
tp669
a(I78
I4
F1.0
S'good'
p670
tp671
a(I96
I1
F1.0
S'good'
p672
tp673
a(I103
I0
F-0.125
S'overall'
p674
tp675
a(I179
I0
F0.875
S'happy'
p676
tp677
a(I219
I0
I0
S'great'
p678
tp679
a(I308
I0
F0.375
S'new'
p680
tp681
as(S'ever'
p682
tp683
(lp684
(I252
I3
I0
S'only'
p685
tp686
a(I252
I3
I0
S'third'
p687
tp688
as(S'scratches'
p689
tp690
(lp691
(I6
I0
I0
S'few'
p692
tp693
a(I48
I1
I0
S'normal'
p694
tp695
a(I141
I1
F-0.75
S'minor'
p696
tp697
a(I155
I0
F-0.5
S'heavy'
p698
tp699
a(I180
I1
I0
S'great'
p700
tp701
a(I181
I0
I0
S'few'
p702
tp703
a(I198
I5
I0
S'many'
p704
tp705
a(I198
I14
I0
S'many'
p706
tp707
as(S'great'
p708
tp709
(lp710
(I299
I4
F0.375
S'new'
p711
tp712
as(S'battery'
p713
tp714
(lp715
(I9
I4
I0
S'full'
p716
tp717
a(I27
I3
F0.125
S'last'
p718
tp719
a(I30
I1
F0.625
S'decent'
p720
tp721
a(I54
I0
F1.0
g349
tp722
a(I57
I8
F1.0
S'best'
p723
tp724
a(I57
I9
F1.0
S'good'
p725
tp726
a(I67
I1
F0.125
S'last'
p727
tp728
a(I108
I1
F-0.25
S'plugged'
p729
tp730
a(I113
I1
F0.375
g351
tp731
a(I113
I1
F-0.5
g353
tp732
a(I125
I9
F0.375
S'extra'
p733
tp734
a(I138
I6
F-0.5
S'long'
p735
tp736
a(I138
I6
F0.125
S'last'
p737
tp738
a(I188
I0
F-0.625
S'average'
p739
tp740
a(I209
I0
F-0.625
S'bad'
p741
tp742
a(I216
I5
F-0.25
g356
tp743
a(I226
I1
F-0.75
S'dead'
p744
tp745
a(I282
I3
F0.375
S'new'
p746
tp747
a(I282
I3
I0
S'charged'
p748
tp749
a(I284
I0
F0.25
S'original'
p750
tp751
a(I286
I1
F0.375
S'new'
p752
tp753
a(I286
I2
F0.375
S'new'
p754
tp755
a(I306
I2
F0.375
S'extra'
p756
tp757
a(I312
I3
F0.375
S'new'
p758
tp759
a(I316
I0
F0.875
g358
tp760
a(I322
I1
F0.375
S'new'
p761
tp762
a(I323
I0
I0
S'third'
p763
tp764
a(I323
I1
F0.375
S'extra'
p765
tp766
a(I338
I0
F0.125
g361
tp767
as(S'smart'
p768
tp769
(lp770
(I27
I0
F0.375
S'new'
p771
tp772
a(I78
I2
F0.125
S'first'
p773
tp774
a(I78
I2
F0.5
S'whole'
p775
tp776
a(I134
I1
F0.125
S'first'
p777
tp778
a(I179
I0
F0.125
S'first'
p779
tp780
a(I207
I0
F0.125
S'first'
p781
tp782
a(I210
I1
F0.125
S'first'
p783
tp784
a(I215
I0
F0.125
S'first'
p785
tp786
a(I239
I7
F1.0
S'good'
p787
tp788
a(I242
I0
F0.125
S'first'
p789
tp790
as(S'replacement'
p791
tp792
(lp793
(I11
I0
F0.5
S'temporary'
p794
tp795
a(I75
I0
F0.875
S'happy'
p796
tp797
a(I184
I2
F0.125
S'able'
p798
tp799
a(I213
I5
F-0.5
S'poor'
p800
tp801
a(I233
I0
F-0.625
S'free'
p802
tp803
a(I300
I0
I0
S'exact'
p804
tp805
a(I300
I8
I0
S'exact'
p806
tp807
as(S'hold'
p808
g66
S'charge'
p809
tp810
(lp811
(I41
I1
F-0.5
S'long'
p812
tp813
a(I104
I0
I0
S'own'
p814
tp815
a(I106
I1
I0
S'great'
p816
tp817
a(I348
I0
I0
S'more'
p818
tp819
as(S'week'
p820
tp821
(lp822
(I42
I0
F-0.75
S'single'
p823
tp824
a(I72
I2
I0
S'later'
p825
tp826
a(I105
I0
F0.125
S'first'
p827
tp828
a(I153
I13
F1.0
S'good'
p829
tp830
a(I278
I8
F-0.5
S'try'
p831
tp832
a(I278
I8
I0
S'latest'
p833
tp834
a(I295
I1
I0
S'same'
p835
tp836
a(I311
I0
I0
S'later'
p837
tp838
as(S'anything'
p839
tp840
(lp841
(I111
I1
F-0.625
S'bad'
p842
tp843
a(I236
I0
F-0.625
S'bad'
p844
tp845
a(I243
I0
I0
S'download'
p846
tp847
a(I273
I1
F0.875
S'happier'
p848
tp849
a(I283
I3
F1.0
S'better'
p850
tp851
as(S'thing'
p852
tp853
(lp854
(I1
I7
I0
S'only'
p855
tp856
a(I1
I7
F-0.875
S'negative'
p857
tp858
a(I12
I8
I0
S'real'
p859
tp860
a(I70
I0
I0
S'only'
p861
tp862
a(I122
I1
I0
S'same'
p863
tp864
a(I125
I13
F-0.875
S'worst'
p865
tp866
a(I125
I18
F1.0
S'best'
p867
tp868
a(I130
I2
I0
S'only'
p869
tp870
a(I141
I1
F0.5
S'whole'
p871
tp872
a(I166
I12
I0
S'only'
p873
tp874
a(I214
I1
I0
S'only'
p875
tp876
a(I231
I4
I0
S'same'
p877
tp878
a(I289
I7
F-0.75
S'stupid'
p879
tp880
a(I299
I3
F1.0
S'best'
p881
tp882
as(S'make'
p883
g66
S'call'
p884
tp885
(lp886
(I227
I6
F0.125
S'first'
p887
tp888
as(S'charge'
p889
tp890
(lp891
(I41
I1
F-0.5
g812
tp892
a(I83
I0
I0
S'full'
p893
tp894
a(I104
I0
I0
g814
tp895
a(I106
I1
I0
g816
tp896
a(I108
I1
I0
S'more'
p897
tp898
a(I141
I2
I0
S'more'
p899
tp900
a(I231
I3
I0
S'full'
p901
tp902
a(I348
I0
I0
g818
tp903
as(S'call'
p904
tp905
(lp906
(I227
I6
F0.125
g887
tp907
as(S'sd'
p908
S'card'
p909
tp910
(lp911
(I66
I4
I0
S'sd'
p912
tp913
as(S'black'
p914
tp915
(lp916
(I52
I7
I0
S'same'
p917
tp918
a(I170
I0
I0
S'large'
p919
tp920
a(I225
I2
F-0.75
S'little'
p921
tp922
a(I235
I6
F0.375
S'new'
p923
tp924
a(I295
I0
F-0.75
S'little'
p925
tp926
as(S'half'
p927
S'of'
p928
S'screen'
p929
tp930
(lp931
(I174
I0
F-0.25
S'lower'
p932
tp933
a(I200
I0
F-0.25
S'lower'
p934
tp935
as(S'brand'
p936
tp937
(lp938
(I14
I0
F0.375
S'new'
p939
tp940
a(I14
I3
F0.375
S'new'
p941
tp942
a(I72
I9
F0.375
S'new'
p943
tp944
a(I76
I0
F0.375
S'new'
p945
tp946
a(I83
I0
F0.375
S'new'
p947
tp948
a(I136
I2
F0.375
S'new'
p949
tp950
a(I152
I0
F0.375
S'new'
p951
tp952
a(I181
I0
F0.375
S'new'
p953
tp954
a(I213
I1
F0.375
S'new'
p955
tp956
a(I238
I2
F0.375
S'new'
p957
tp958
a(I290
I0
F0.375
S'new'
p959
tp960
a(I290
I4
F0.375
S'new'
p961
tp962
a(I339
I0
F0.375
S'new'
p963
tp964
as(S'time'
p965
tp966
(lp967
(I13
I0
I0
S'great'
p968
tp969
a(I42
I0
I0
S'next'
p970
tp971
a(I61
I1
F-0.5
g625
tp972
a(I64
I1
F0.125
S'first'
p973
tp974
a(I70
I0
F-0.5
g627
tp975
a(I97
I0
I0
S'great'
p976
tp977
a(I115
I0
I0
S'great'
p978
tp979
a(I149
I3
F-0.5
g629
tp980
a(I156
I2
F1.0
S'good'
p981
tp982
a(I189
I1
F-0.5
g631
tp983
a(I224
I0
F-0.5
g633
tp984
a(I242
I3
F-0.875
S'hard'
p985
tp986
a(I242
I8
F-0.5
g635
tp987
a(I244
I6
I0
S'same'
p988
tp989
a(I244
I6
F0.25
S'helpful'
p990
tp991
as(S'quality'
p992
tp993
(lp994
(I127
I2
F-0.5
S'poor'
p995
tp996
a(I127
I8
F-0.5
S'poor'
p997
tp998
a(I135
I4
I0
S'great'
p999
tp1000
a(I300
I4
I0
S'great'
p1001
tp1002
as(S'card'
p1003
tp1004
(lp1005
(I12
I10
F-0.25
S'white'
p1006
tp1007
a(I66
I4
I0
g912
tp1008
a(I247
I1
I0
S'most'
p1009
tp1010
as(S'charger'
p1011
tp1012
(lp1013
(I5
I0
F0.25
S'original'
p1014
tp1015
a(I12
I2
F0.375
S'new'
p1016
tp1017
a(I78
I5
F-0.5
S'did'
p1018
tp1019
a(I79
I1
I0
S'generic'
p1020
tp1021
a(I88
I1
I0
S'plug-in'
p1022
tp1023
a(I99
I1
F-0.25
S'direct'
p1024
tp1025
a(I108
I1
F-0.75
S'impossible'
p1026
tp1027
a(I154
I0
F0.125
S'charger'
p1028
tp1029
a(I212
I2
I0
S'old'
p1030
tp1031
a(I212
I2
I0
S'great'
p1032
tp1033
a(I338
I0
F0.375
S'extra'
p1034
tp1035
as(S'fast'
p1036
tp1037
(lp1038
(I39
I1
F-0.25
S'thin'
p1039
tp1040
as(S'customer'
p1041
S'service'
p1042
tp1043
(lp1044
(I84
I1
F0.25
g261
tp1045
a(I315
I2
F1.0
g661
tp1046
a(I318
I0
I0
g663
tp1047
as(S'better'
p1048
tp1049
(lp1050
(I153
I15
F0.375
S'much'
p1051
tp1052
a(I166
I11
I0
S'android'
p1053
tp1054
a(I166
I11
I0
S'incredible'
p1055
tp1056
a(I166
I11
F0.375
S'much'
p1057
tp1058
a(I258
I1
F0.375
S'much'
p1059
tp1060
as(S'months'
p1061
tp1062
(lp1063
(I9
I4
I0
S'later'
p1064
tp1065
a(I29
I1
F0.125
S'first'
p1066
tp1067
a(I165
I4
I0
S'later'
p1068
tp1069
a(I211
I2
F0.375
S'new'
p1070
tp1071
a(I265
I1
F-0.625
S'other'
p1072
tp1073
a(I272
I2
I0
S'great'
p1074
tp1075
a(I281
I2
I0
S'few'
p1076
tp1077
a(I282
I1
F-0.5
S'less'
p1078
tp1079
a(I297
I1
F-0.75
S'short'
p1080
tp1081
a(I297
I1
F-0.75
S'unable'
p1082
tp1083
as(S'apps'
p1084
tp1085
(lp1086
(I1
I5
I0
S'great'
p1087
tp1088
a(I1
I6
I0
S'useful'
p1089
tp1090
a(I43
I0
F-0.75
S'hate'
p1091
tp1092
a(I43
I1
F0.125
S'able'
p1093
tp1094
a(I94
I1
I0
S'slower'
p1095
tp1096
a(I97
I1
I0
S'great'
p1097
tp1098
a(I125
I3
I0
S'few'
p1099
tp1100
a(I125
I10
I0
S'few'
p1101
tp1102
a(I133
I1
I0
S'limited'
p1103
tp1104
a(I176
I2
I0
S'different'
p1105
tp1106
a(I218
I5
F0.375
S'new'
p1107
tp1108
a(I220
I0
F-0.625
S'other'
p1109
tp1110
a(I226
I7
F-0.375
S'disable'
p1111
tp1112
a(I242
I2
I0
S'many'
p1113
tp1114
a(I247
I1
F0.375
S'available'
p1115
tp1116
a(I256
I1
F-0.625
S'other'
p1117
tp1118
a(I256
I1
F0.875
S'happy'
p1119
tp1120
as(S'days'
p1121
tp1122
(lp1123
(I52
I5
I0
S'few'
p1124
tp1125
a(I180
I1
I0
S'few'
p1126
tp1127
a(I186
I3
I0
S'few'
p1128
tp1129
a(I186
I3
I0
S'later'
p1130
tp1131
a(I263
I3
I0
S'more'
p1132
tp1133
a(I274
I0
I0
S'few'
p1134
tp1135
a(I277
I0
F0.125
S'first'
p1136
tp1137
a(I300
I5
I0
S'few'
p1138
tp1139
a(I300
I5
F0.375
S'much'
p1140
tp1141
a(I343
I0
I0
S'active'
p1142
tp1143
as(S'contract'
p1144
tp1145
(lp1146
(I111
I6
F0.375
S'reliable'
p1147
tp1148
a(I211
I2
I0
S'current'
p1149
tp1150
a(I223
I0
I0
S'prepaid'
p1151
tp1152
a(I223
I0
F-0.625
S'want'
p1153
tp1154
a(I320
I0
F0.375
S'new'
p1155
tp1156
as(S'touch'
p1157
S'screen'
p1158
tp1159
(lp1160
(I9
I4
F-0.75
S'unreliable'
p1161
tp1162
a(I9
I4
I0
g187
tp1163
a(I46
I1
F-0.625
S'other'
p1164
tp1165
a(I72
I1
I0
g199
tp1166
a(I72
I1
F0.125
S'first'
p1167
tp1168
a(I151
I1
F-0.625
g203
tp1169
as(S'working'
p1170
tp1171
(lp1172
(I185
I0
F1.0
S'good'
p1173
tp1174
a(I347
I0
F1.0
S'good'
p1175
tp1176
as.