(dp0
(S'life'
p1
tp2
(lp3
(I172
I8
I0
S'great'
p4
tp5
a(I194
I1
F1.0
S'good'
p6
tp7
a(I228
I0
F1.0
S'better'
p8
tp9
as(S'problem'
p10
tp11
(lp12
(I12
I40
I0
S'such'
p13
tp14
a(I34
I3
I0
S'only'
p15
tp16
a(I84
I0
I0
S'big'
p17
tp18
a(I154
I2
F-0.875
S'worst'
p19
tp20
a(I154
I3
I0
S'big'
p21
tp22
a(I162
I1
I0
S'solve'
p23
tp24
a(I166
I1
I0
S'only'
p25
tp26
a(I215
I17
F0.625
S'major'
p27
tp28
as(S'thanks'
p29
tp30
(lp31
(I150
I0
F0.125
S'last'
p32
tp33
a(I201
I1
F0.375
S'prime'
p34
tp35
a(I218
I5
F0.875
S'happy'
p36
tp37
as(S'ipad'
p38
S'baseband'
p39
tp40
(lp41
(I12
I9
F-0.375
S'loading'
p42
tp43
a(I12
I43
F0.375
S'available'
p44
tp45
as(S'purchase'
p46
tp47
(lp48
(I36
I1
F-0.5
S'sure'
p49
tp50
a(I61
I3
F0.875
S'happy'
p51
tp52
a(I120
I0
F0.875
S'happy'
p53
tp54
a(I125
I4
F0.875
S'happy'
p55
tp56
a(I172
I7
F0.5
S'satisfied'
p57
tp58
a(I184
I3
F0.875
S'happy'
p59
tp60
a(I185
I4
F0.875
S'happy'
p61
tp62
a(I199
I1
F0.875
S'happy'
p63
tp64
a(I215
I40
I0
S'initial'
p65
tp66
as(S'happy'
p67
S'with'
p68
S'purchase'
p69
tp70
(lp71
(I61
I3
F0.875
g51
tp72
a(I120
I0
F0.875
g53
tp73
a(I125
I4
F0.875
g55
tp74
a(I184
I3
F0.875
g59
tp75
a(I185
I4
F0.875
g61
tp76
a(I199
I1
F0.875
g63
tp77
as(S'good'
p78
tp79
(lp80
(I196
I8
F-0.625
S'bad'
p81
tp82
as(S'money'
p83
tp84
(lp85
(I215
I50
F0.375
S'new'
p86
tp87
as(S'buying'
p88
tp89
(lp90
(I12
I7
F0.5
S'careful'
p91
tp92
a(I86
I0
I0
S'unsure'
p93
tp94
as(S'screen'
p95
tp96
(lp97
(I8
I2
F0.25
S'responsive'
p98
tp99
a(I8
I2
F0.5
S'touch'
p100
tp101
a(I47
I0
F0.5
S'clear'
p102
tp103
a(I64
I3
F0.5
S'touch'
p104
tp105
a(I81
I12
F-0.375
S'double'
p106
tp107
a(I81
I12
F-0.375
S'double'
p108
tp109
a(I93
I1
F-0.375
S'black'
p110
tp111
a(I202
I1
F0.5
S'touch'
p112
tp113
a(I207
I3
F0.25
S'original'
p114
tp115
as(S'like'
p116
tp117
(lp118
(I215
I49
F0.375
S'new'
p119
tp120
a(I215
I49
F0.25
S'applied'
p121
tp122
as(S'n'
p123
S'order'
p124
tp125
(lp126
(I12
I0
F0.125
S'able'
p127
tp128
a(I132
I9
I0
S'entire'
p129
tp130
a(I189
I4
F0.125
S'able'
p131
tp132
as(S'service'
p133
tp134
(lp135
(I25
I0
F1.0
S'good'
p136
tp137
a(I25
I0
F1.0
S'good'
p138
tp139
a(I93
I0
F1.0
S'good'
p140
tp141
a(I138
I3
I0
S'great'
p142
tp143
a(I175
I4
I0
S'blue'
p144
tp145
a(I175
I4
F-0.625
S'free'
p146
tp147
a(I215
I11
I0
S'retail'
p148
tp149
a(I220
I0
F0.875
S'nice'
p150
tp151
as(S'everything'
p152
tp153
(lp154
(I7
I0
F1.0
S'good'
p155
tp156
a(I48
I1
F1.0
S'good'
p157
tp158
a(I109
I0
F0.625
S'perfect'
p159
tp160
a(I175
I1
I0
S'great'
p161
tp162
a(I210
I3
F0.375
S'new'
p163
tp164
a(I210
I13
I0
S'hot'
p165
tp166
a(I210
I13
I0
S'great'
p167
tp168
as(S'back'
p169
tp170
(lp171
(I64
I4
I0
S'forth'
p172
tp173
as(S'need'
p174
tp175
(lp176
(I81
I17
F-0.75
S'little'
p177
tp178
a(I132
I0
F0.375
S'much'
p179
tp180
as(S'accessories'
p181
tp182
(lp183
(I81
I6
I0
S'minimal'
p184
tp185
a(I81
I6
F0.375
S'available'
p186
tp187
a(I81
I7
I0
S'more'
p188
tp189
a(I81
I8
F-0.625
S'other'
p190
tp191
a(I81
I14
I0
S'more'
p192
tp193
a(I191
I0
I0
S'basic'
p194
tp195
a(I221
I0
F0.375
S'new'
p196
tp197
as(S'device'
p198
tp199
(lp200
(I38
I2
F-0.75
S'bare'
p201
tp202
a(I79
I4
F-0.625
S'other'
p203
tp204
a(I79
I4
F-0.625
S'other'
p205
tp206
a(I81
I1
I0
S'cellular'
p207
tp208
a(I81
I1
I0
S'great'
p209
tp210
a(I81
I5
F0.375
S'new'
p211
tp212
a(I92
I2
F0.5
S'live'
p213
tp214
a(I92
I2
F0.125
S'outside'
p215
tp216
as(S'battery'
p217
S'life'
p218
tp219
(lp220
(I13
I20
I0
S'normal'
p221
tp222
a(I172
I8
I0
g4
tp223
a(I194
I1
F1.0
g6
tp224
a(I203
I1
I0
S'great'
p225
tp226
a(I228
I0
F1.0
g8
tp227
as(S'operating'
p228
S'system'
p229
tp230
(lp231
(I13
I2
I0
S'exclusive'
p232
tp233
a(I13
I2
I0
S'mobile'
p234
tp235
a(I13
I20
F0.5
S'advanced'
p236
tp237
a(I13
I20
I0
S'exclusive'
p238
tp239
as(S'straight'
p240
S'talk'
p241
tp242
(lp243
(I33
I0
F0.625
S'straight'
p244
tp245
a(I214
I1
F0.625
S'straight'
p246
tp247
a(I215
I42
F0.625
S'straight'
p248
tp249
a(I215
I42
F0.625
S'straight'
p250
tp251
as(S'fine'
p252
tp253
(lp254
(I8
I2
I0
S'dandy'
p255
tp256
a(I83
I0
F1.0
S'good'
p257
tp258
a(I215
I37
F0.375
S'available'
p259
tp260
a(I215
I37
F0.125
S'first'
p261
tp262
a(I215
I37
F0.375
S'new'
p263
tp264
as(S'product'
p265
tp266
(lp267
(I65
I0
I0
S'great'
p268
tp269
a(I78
I2
F1.0
S'good'
p270
tp271
a(I86
I3
F0.875
S'happy'
p272
tp273
a(I107
I0
I0
S'angry'
p274
tp275
a(I122
I3
I0
S'great'
p276
tp277
a(I125
I2
I0
S'exact'
p278
tp279
a(I147
I1
F0.5
S'clear'
p280
tp281
a(I147
I1
I0
S'such'
p282
tp283
a(I147
I1
F0.625
S'acceptable'
p284
tp285
a(I162
I0
F-0.5
S'sure'
p286
tp287
a(I188
I1
F0.875
S'happy'
p288
tp289
a(I198
I0
F0.5
S'functional'
p290
tp291
a(I208
I0
F0.375
S'new'
p292
tp293
a(I208
I0
F0.5
S'functional'
p294
tp295
as(S'right'
p296
tp297
(lp298
(I104
I0
F0.625
S'find'
p299
tp300
as(S'apple'
p301
tp302
(lp303
(I13
I7
I0
S'exclusive'
p304
tp305
a(I41
I7
F-0.375
S'top'
p306
tp307
a(I63
I1
I0
S'great'
p308
tp309
a(I93
I1
F-0.375
S'authorized'
p310
tp311
a(I96
I7
F-0.875
S'stuck'
p312
tp313
a(I172
I1
F0.25
S'original'
p314
tp315
a(I179
I1
F-0.636
S'genuine'
p316
tp317
a(I215
I5
F0.25
S'unlocked'
p318
tp319
a(I215
I6
F0.125
S'able'
p320
tp321
a(I215
I6
I0
S'apple'
p322
tp323
a(I215
I6
F0.125
S'typical'
p324
tp325
a(I215
I6
F0.375
S'new'
p326
tp327
as(S'return'
p328
tp329
(lp330
(I87
I1
F0.5
S'reasonable'
p331
tp332
as(S'scratches'
p333
tp334
(lp335
(I41
I6
I0
S'full'
p336
tp337
as(S'features'
p338
tp339
(lp340
(I12
I23
I0
S'individual'
p341
tp342
a(I12
I37
I0
S'most'
p343
tp344
a(I12
I37
F0.875
S'important'
p345
tp346
a(I81
I2
I0
S'many'
p347
tp348
a(I92
I3
F0.375
S'new'
p349
tp350
a(I144
I1
I0
S'many'
p351
tp352
a(I144
I1
F0.375
S'new'
p353
tp354
a(I144
I1
I0
S'many'
p355
tp356
a(I161
I0
I0
S'many'
p357
tp358
as(S'fast'
p359
S'shipping'
p360
tp361
(lp362
(I93
I0
I0
S'fast'
p363
tp364
as(S'price'
p365
tp366
(lp367
(I37
I0
F1.0
S'good'
p368
tp369
a(I78
I1
F-0.25
S'cheapest'
p370
tp371
a(I94
I1
F0.625
S'fair'
p372
tp373
a(I98
I0
F-0.25
S'lower'
p374
tp375
a(I130
I0
F-0.25
S'cheaper'
p376
tp377
a(I130
I0
F-0.625
S'other'
p378
tp379
a(I139
I5
F-0.75
S'wrong'
p380
tp381
a(I142
I2
I0
S'great'
p382
tp383
a(I142
I3
F0.5
S'true'
p384
tp385
a(I142
I3
F1.0
S'good'
p386
tp387
a(I142
I3
F0.5
S'true'
p388
tp389
a(I144
I0
F-0.25
S'low'
p390
tp391
a(I168
I2
I0
S'great'
p392
tp393
a(I205
I1
I0
S'great'
p394
tp395
as(S'factory'
p396
tp397
(lp398
(I60
I2
I0
S'later'
p399
tp400
a(I215
I2
I0
S'apple'
p401
tp402
a(I215
I3
F0.625
S'aware'
p403
tp404
a(I215
I3
I0
S'only'
p405
tp406
a(I215
I24
I0
S'more'
p407
tp408
a(I215
I24
F0.375
S'vulnerable'
p409
tp410
a(I215
I28
F0.375
S'new'
p411
tp412
a(I215
I28
F0.375
S'new'
p413
tp414
as(S'generic'
p415
S're-seller'
p416
tp417
(lp418
(I215
I32
I0
S'generic'
p419
tp420
a(I215
I32
I0
S'generic'
p421
tp422
a(I215
I34
I0
S'generic'
p423
tp424
as(S'seller'
p425
tp426
(lp427
(I21
I0
F0.375
S'honest'
p428
tp429
a(I64
I8
F0.125
S'amazon'
p430
tp431
a(I78
I2
F1.0
S'good'
p432
tp433
a(I139
I6
F-0.5
S'sure'
p434
tp435
a(I139
I6
F0.875
S'reputable'
p436
tp437
a(I151
I0
F-0.625
S'glad'
p438
tp439
a(I178
I6
F-0.625
S'other'
p440
tp441
a(I184
I1
F0.125
S'able'
p442
tp443
a(I184
I1
F0.25
S'helpful'
p444
tp445
a(I184
I1
F0.375
S'friendly'
p446
tp447
as(S'android'
p448
tp449
(lp450
(I12
I35
F0.375
S'newer'
p451
tp452
as(S'battery'
p453
tp454
(lp455
(I13
I12
F1.0
S'best'
p456
tp457
a(I13
I20
I0
g221
tp458
a(I203
I1
I0
g225
tp459
as(S'works'
p460
tp461
(lp462
(I22
I3
F1.0
S'good'
p463
tp464
a(I23
I0
I0
S'great'
p465
tp466
a(I194
I2
I0
S'great'
p467
tp468
a(I228
I0
F-0.375
S'simple'
p469
tp470
as(S'full'
p471
S'refund'
p472
tp473
(lp474
(I33
I1
I0
S'full'
p475
tp476
a(I35
I5
I0
S'full'
p477
tp478
a(I60
I6
I0
S'full'
p479
tp480
as(S'order'
p481
tp482
(lp483
(I12
I0
F0.125
g127
tp484
a(I132
I9
I0
g129
tp485
a(I189
I4
F0.125
g131
tp486
as(S'great'
p487
S'condition'
p488
tp489
(lp490
(I4
I0
I0
S'great'
p491
tp492
a(I10
I1
I0
S'great'
p493
tp494
a(I23
I1
I0
S'great'
p495
tp496
a(I44
I1
I0
S'great'
p497
tp498
a(I127
I1
F0.875
S'happy'
p499
tp500
a(I127
I1
I0
S'great'
p501
tp502
a(I131
I0
F1.0
S'good'
p503
tp504
a(I141
I0
I0
S'great'
p505
tp506
a(I155
I0
F0.375
S'new'
p507
tp508
a(I194
I0
I0
S'great'
p509
tp510
a(I205
I1
I0
S'great'
p511
tp512
a(I227
I0
I0
S'great'
p513
tp514
as(S'store'
p515
tp516
(lp517
(I215
I32
F0.25
S'independent'
p518
tp519
as(S'apple'
p520
S'store'
p521
tp522
(lp523
(I215
I32
F0.25
g518
tp524
as(S'software'
p525
tp526
(lp527
(I12
I8
I0
S'later'
p528
tp529
a(I12
I26
F1.0
S'better'
p530
tp531
a(I12
I26
I0
S'pic'
p532
tp533
a(I131
I0
F0.375
S'newest'
p534
tp535
a(I176
I0
F0.375
S'newest'
p536
tp537
a(I176
I0
F-0.625
S'other'
p538
tp539
a(I186
I3
F0.25
S'original'
p540
tp541
a(I209
I2
F0.375
S'new'
p542
tp543
as(S'thank'
p544
tp545
(lp546
(I29
I2
F0.75
S'worth'
p547
tp548
a(I31
I0
F0.75
S'give'
p549
tp550
a(I31
I0
F-0.75
S'wrong'
p551
tp552
as(S'looking'
p553
tp554
(lp555
(I18
I0
F1.0
S'good'
p556
tp557
as(S'screen'
p558
S'protector'
p559
tp560
(lp561
(I47
I0
F0.5
g102
tp562
as(S'sim'
p563
S'card'
p564
tp565
(lp566
(I80
I2
F0.625
S'easy'
p567
tp568
a(I132
I4
F-0.75
S'invalid'
p569
tp570
a(I136
I1
I0
S'normal'
p571
tp572
a(I230
I7
F0.375
S'new'
p573
tp574
as(S'update'
p575
tp576
(lp577
(I79
I0
F0.125
S'last'
p578
tp579
as(S'nothing'
p580
tp581
(lp582
(I4
I0
F-0.625
S'bad'
p583
tp584
a(I62
I1
I0
S'more'
p585
tp586
a(I108
I0
F-0.625
S'bad'
p587
tp588
a(I123
I2
F1.0
S'good'
p589
tp590
as(S'carrier'
p591
tp592
(lp593
(I12
I2
F-0.75
S'single'
p594
tp595
a(I12
I13
I0
S'overseas'
p596
tp597
a(I12
I17
I0
S'european'
p598
tp599
a(I12
I17
F-0.5
S'sure'
p600
tp601
a(I154
I2
F0.25
S'original'
p602
tp603
a(I185
I0
I0
S'local'
p604
tp605
a(I215
I10
F-0.25
S'legitimate'
p606
tp607
a(I215
I16
F-0.75
S'likely'
p608
tp609
as(S'system'
p610
tp611
(lp612
(I215
I51
I0
S'android'
p613
tp614
as(S'brand'
p615
tp616
(lp617
(I15
I0
F0.375
S'new'
p618
tp619
a(I26
I0
F0.375
S'new'
p620
tp621
a(I50
I1
F0.375
S'new'
p622
tp623
a(I78
I1
F0.375
S'new'
p624
tp625
a(I86
I1
F0.375
S'new'
p626
tp627
a(I122
I1
F0.375
S'new'
p628
tp629
a(I125
I2
F0.375
S'new'
p630
tp631
a(I163
I2
F0.375
S'new'
p632
tp633
a(I181
I0
F0.375
S'new'
p634
tp635
a(I210
I1
F0.375
S'new'
p636
tp637
a(I230
I6
F0.375
S'new'
p638
tp639
a(I230
I8
F0.375
S'new'
p640
tp641
as(S'time'
p642
tp643
(lp644
(I13
I2
F0.375
S'much'
p645
tp646
a(I20
I3
F0.125
S'last'
p647
tp648
a(I25
I1
F-0.75
S'little'
p649
tp650
a(I29
I1
F0.125
S'first'
p651
tp652
a(I81
I12
F0.5
S'whole'
p653
tp654
a(I81
I12
F0.75
S'due'
p655
tp656
a(I132
I8
F0.5
S'second'
p657
tp658
a(I132
I9
F-0.625
S'other'
p659
tp660
a(I138
I0
F0.375
S'new'
p661
tp662
a(I151
I0
F-0.5
S'less'
p663
tp664
a(I226
I4
F-0.5
S'long'
p665
tp666
as(g123
S'great'
p667
S'condition'
p668
tp669
(lp670
(I4
I0
I0
g491
tp671
a(I10
I1
I0
g493
tp672
a(I23
I1
I0
g495
tp673
a(I44
I1
I0
g497
tp674
a(I127
I1
F0.875
g499
tp675
a(I127
I1
I0
g501
tp676
a(I131
I0
F1.0
g503
tp677
a(I141
I0
I0
g505
tp678
a(I155
I0
F0.375
g507
tp679
a(I194
I0
I0
g509
tp680
a(I205
I1
I0
g511
tp681
a(I227
I0
I0
g513
tp682
as(S'tablet'
p683
S'distributors'
p684
tp685
(lp686
(I215
I51
F0.125
S'tablet'
p687
tp688
a(I215
I52
F0.125
S'tablet'
p689
tp690
as(g123
S'box'
p691
tp692
(lp693
(I13
I0
F0.5
S'stylish'
p694
tp695
a(I66
I0
F0.375
S'new'
p696
tp697
a(I66
I0
F0.125
S'sealed'
p698
tp699
a(I100
I0
F0.25
S'original'
p700
tp701
a(I112
I0
F0.25
S'suppose'
p702
tp703
a(I112
I0
F0.375
S'new'
p704
tp705
a(I207
I1
I0
S'full'
p706
tp707
a(I209
I0
F0.375
S'new'
p708
tp709
a(I215
I37
F0.375
S'new'
p710
tp711
a(I215
I37
I0
S'same'
p712
tp713
as(S'condition'
p714
tp715
(lp716
(I4
I0
I0
g491
tp717
a(I10
I1
I0
g493
tp718
a(I21
I0
F-0.625
S'bad'
p719
tp720
a(I23
I1
I0
g495
tp721
a(I44
I1
I0
g497
tp722
a(I55
I1
F0.375
S'new'
p723
tp724
a(I64
I1
F0.375
S'new'
p725
tp726
a(I64
I1
F0.375
S'new'
p727
tp728
a(I105
I0
F1.0
S'good'
p729
tp730
a(I127
I1
F0.875
g499
tp731
a(I127
I1
I0
g501
tp732
a(I131
I0
F1.0
g503
tp733
a(I141
I0
I0
g505
tp734
a(I155
I0
F0.375
g507
tp735
a(I194
I0
I0
g509
tp736
a(I205
I1
I0
g511
tp737
a(I221
I0
F0.375
S'new'
p738
tp739
a(I227
I0
I0
g513
tp740
as(S'charger'
p741
tp742
(lp743
(I24
I0
F0.5
S'satisfied'
p744
tp745
a(I73
I1
F0.375
S'new'
p746
tp747
a(I172
I4
F0.375
S'new'
p748
tp749
a(I172
I4
I0
S'generic'
p750
tp751
a(I178
I2
I0
S'later'
p752
tp753
a(I203
I3
F0.375
S'new'
p754
tp755
as(S'a'
p756
S'sim'
p757
S'card'
p758
tp759
(lp760
(I80
I2
F0.625
g567
tp761
a(I132
I4
F-0.75
g569
tp762
a(I136
I1
I0
g571
tp763
a(I230
I7
F0.375
g573
tp764
as(S'working'
p765
tp766
(lp767
(I90
I5
F1.0
S'good'
p768
tp769
as(S'usb'
p770
S'power'
p771
tp772
(lp773
(I13
I0
I0
S'cable'
p774
tp775
a(I179
I2
I0
S'cable'
p776
tp777
as(S'better'
p778
tp779
(lp780
(I215
I50
F0.375
S'much'
p781
tp782
as(S'month'
p783
tp784
(lp785
(I124
I1
F0.75
S'wonder'
p786
tp787
a(I124
I1
F0.375
S'new'
p788
tp789
a(I164
I2
F-0.5
S'less'
p790
tp791
a(I215
I51
F0.125
S'last'
p792
tp793
as(S'apps'
p794
tp795
(lp796
(I52
I1
I0
S'many'
p797
tp798
a(I90
I4
I0
S'quicky'
p799
tp800
a(I196
I7
F0.375
S'available'
p801
tp802
a(I215
I25
F0.125
S'outside'
p803
tp804
as(S'days'
p805
tp806
(lp807
(I127
I3
F0.5
S'second'
p808
tp809
a(I127
I3
I0
S'few'
p810
tp811
a(I127
I3
I0
S'later'
p812
tp813
a(I127
I3
F0.875
S'happy'
p814
tp815
a(I127
I3
F0.125
S'first'
p816
tp817
a(I147
I0
I0
S'few'
p818
tp819
a(I164
I6
F0.125
S'first'
p820
tp821
a(I202
I3
I0
S'few'
p822
tp823
a(I209
I1
I0
S'few'
p824
tp825
as(S'operating'
p826
tp827
(lp828
(I13
I2
I0
g232
tp829
a(I13
I2
I0
g234
tp830
a(I13
I20
F0.5
g236
tp831
a(I13
I20
I0
g238
tp832
a(I191
I0
I0
S'full'
p833
tp834
as.