(dp0
(S'bluetooth'
p1
tp2
(lp3
(I2
I35
F1.0
S'best'
p4
I3
tp5
a(I3
I4
F0.125
S'pair'
p6
I3
tp7
as(S'blue'
p8
S'tooth'
p9
tp10
(lp11
(I3
I22
I0
S'blue'
p12
I0
tp13
a(I3
I25
F-0.375
S'small'
p14
I0
tp15
a(I3
I25
I0
S'blue'
p16
I0
tp17
a(I3
I47
I0
S'blue'
p18
I0
tp19
a(I3
I47
I0
S'blue'
p20
I0
tp21
as(S'battery'
p22
S'life'
p23
tp24
(lp25
(I2
I5
I0
S'same'
p26
I1
tp27
a(I3
I46
F1.0
S'good'
p28
I1
tp29
a(I15
I2
F-0.75
S'short'
p30
I1
tp31
a(I15
I30
F1.0
S'better'
p32
I1
tp33
a(I15
I34
F-0.5
S'poor'
p34
I1
tp35
a(I2
I5
I0
g26
I15
tp36
a(I12
I21
I0
S'charged'
p37
I15
tp38
a(I14
I3
F0.625
S'easy'
p39
I15
tp40
a(I14
I3
F-0.5
S'struggle'
p41
I15
tp42
a(I15
I30
F1.0
g32
I15
tp43
a(I15
I34
F-0.5
g34
I15
tp44
as(S'cellphone'
p45
tp46
(lp47
(I2
I1
F-0.5
S'actual'
p48
I0
tp49
a(I2
I4
F1.0
S'better'
p50
I0
tp51
as(S'sim'
p52
S'card'
p53
tp54
(lp55
(I8
I31
I0
S'along'
p56
I0
tp57
a(I15
I39
I0
S'old'
p58
I0
tp59
as(S'calls'
p60
tp61
(lp62
(I0
I7
F0.625
S'convenient'
p63
I0
tp64
a(I2
I34
F0.625
S'easy'
p65
I0
tp66
a(I3
I28
F0.75
S'receive'
p67
I0
tp68
a(I12
I0
F-0.5
S'international'
p69
I0
tp70
as(S'watch'
p71
S'cell'
p72
tp73
(lp74
(I0
I7
I0
S'such'
p75
I0
tp76
a(I12
I0
F0.5
S'second'
p77
I0
tp78
as(S'mp3'
p79
S'player'
p80
tp81
(lp82
(I3
I40
F1.0
S'good'
p83
I1
tp84
as(S'sound'
p85
S'quality'
p86
tp87
(lp88
(I2
I46
F0.5
S'clear'
p89
I0
tp90
as.