(dp0
(S'droid'
p1
tp2
(lp3
(I0
I0
F0.25
S'original'
p4
tp5
a(I0
I8
I0
S'old'
p6
tp7
a(I0
I8
F-0.875
S'trouble'
p8
tp9
a(I49
I1
F0.25
S'original'
p10
tp11
a(I60
I11
F0.25
S'original'
p12
tp13
a(I60
I16
F0.25
S'original'
p14
tp15
a(I60
I18
F0.25
S'original'
p16
tp17
a(I61
I1
I0
S'young'
p18
tp19
a(I83
I23
F-0.25
S'cheaper'
p20
tp21
a(I87
I0
F0.25
S'original'
p22
tp23
a(I114
I5
I0
S'incredible'
p24
tp25
a(I117
I16
F0.25
S'original'
p26
tp27
a(I117
I16
F-0.125
S'slow'
p28
tp29
a(I117
I18
F0.625
S'superior'
p30
tp31
a(I144
I0
F0.25
S'original'
p32
tp33
a(I183
I12
F-0.375
S'smaller'
p34
tp35
a(I183
I12
I0
S'old'
p36
tp37
a(I190
I9
I0
S'old'
p38
tp39
as(S'want'
p40
S'to'
p41
S'use'
p42
tp43
(lp44
(I88
I2
F-0.75
S'little'
p45
tp46
as(S'running'
p47
S'n'
p48
S'background'
p49
tp50
(lp51
(I3
I42
F-0.75
S'tough'
p52
tp53
a(I78
I2
F0.625
S'mindful'
p54
tp55
a(I116
I22
F0.5
S'live'
p56
tp57
as(S'nice'
p58
tp59
(lp60
(I103
I16
F0.375
S'new'
p61
tp62
as(S'call'
p63
S'quality'
p64
tp65
(lp66
(I43
I34
F-0.625
S'bad'
p67
tp68
a(I71
I18
I0
S'high'
p69
tp70
a(I72
I8
F-0.625
S'average'
p71
tp72
a(I74
I19
F1.0
S'good'
p73
tp74
a(I103
I5
F1.0
S'good'
p75
tp76
a(I114
I95
F1.0
S'best'
p77
tp78
a(I114
I98
F-0.5
S'call'
p79
tp80
a(I114
I102
F-0.5
S'call'
p81
tp82
a(I135
I1
F0.875
S'happy'
p83
tp84
a(I135
I1
I0
S'signal'
p85
tp86
a(I155
I2
F-0.5
S'less'
p87
tp88
a(I155
I2
I0
S'great'
p89
tp90
as(S'4'
p91
S'5'
p92
S'hours'
p93
tp94
(lp95
(I82
I5
I0
S'most'
p96
tp97
a(I176
I3
I0
S'more'
p98
tp99
as(S'quality'
p100
tp101
(lp102
(I15
I14
F0.875
S'music'
p103
tp104
a(I15
I15
F1.0
S'good'
p105
tp106
a(I23
I38
I0
S'same'
p107
tp108
a(I23
I47
F0.375
S'content'
p109
tp110
a(I43
I34
F-0.625
g67
tp111
a(I71
I18
I0
g69
tp112
a(I72
I4
F0.75
S'beautiful'
p113
tp114
a(I74
I19
F1.0
g73
tp115
a(I102
I1
F-0.5
S'poor'
p116
tp117
a(I103
I5
F1.0
g75
tp118
a(I114
I95
F1.0
g77
tp119
a(I114
I98
F-0.5
g79
tp120
a(I114
I102
F-0.5
g81
tp121
a(I135
I1
I0
g85
tp122
a(I144
I11
F-0.25
S'higher'
p123
tp124
a(I155
I2
F-0.5
g87
tp125
a(I155
I2
I0
g89
tp126
a(I176
I2
F1.0
S'good'
p127
tp128
a(I189
I20
F-0.125
S'overall'
p129
tp130
a(I193
I5
F1.0
S'good'
p131
tp132
as(S'y'
p133
S'told'
p134
S'me'
p135
tp136
(lp137
(I100
I4
F0.5
S'told'
p138
tp139
as(S'verizon'
p140
tp141
(lp142
(I0
I14
F0.5
S'told'
p143
tp144
a(I3
I43
F-0.625
S'other'
p145
tp146
a(I6
I2
I0
S'very'
p147
tp148
a(I6
I2
F0.125
S'first'
p149
tp150
a(I7
I2
I0
S'wireless'
p151
tp152
a(I23
I2
I0
S'update'
p153
tp154
a(I62
I7
I0
S'own'
p155
tp156
a(I65
I1
I0
S'local'
p157
tp158
a(I68
I5
F-0.625
S'free'
p159
tp160
a(I68
I7
F-0.25
S'cheaper'
p161
tp162
a(I100
I1
F0.125
S'able'
p163
tp164
a(I114
I2
F1.0
S'better'
p165
tp166
a(I114
I72
F-0.75
S'hate'
p167
tp168
a(I114
I119
F-0.625
S'other'
p169
tp170
a(I114
I119
F0.375
S'reserved'
p171
tp172
a(I115
I12
I0
S'wish'
p173
tp174
a(I117
I20
F0.75
S'give'
p175
tp176
a(I117
I20
I0
S'update'
p177
tp178
a(I141
I14
I0
S'local'
p179
tp180
a(I147
I6
F0.125
S'first'
p181
tp182
a(I154
I11
F0.375
S'reliable'
p183
tp184
a(I157
I0
F1.0
S'best'
p185
tp186
a(I157
I0
F-0.125
S'overall'
p187
tp188
a(I159
I1
I0
S'great'
p189
tp190
a(I161
I0
I0
S'local'
p191
tp192
a(I171
I19
F0.375
S'new'
p193
tp194
a(I171
I20
I0
S'fast'
p195
tp196
a(I181
I5
F-0.375
S'unstable'
p197
tp198
as(S'on'
p199
S'home'
p200
S'screen'
p201
tp202
(lp203
(I23
I20
F0.125
S'appropriate'
p204
tp205
a(I23
I20
F-0.5
S'sure'
p206
tp207
a(I42
I0
I0
S'big'
p208
tp209
a(I46
I24
I0
S'many'
p210
tp211
a(I92
I16
F-0.375
S'black'
p212
tp213
as(S'and'
p214
S'battery'
p215
S'life'
p216
tp217
(lp218
(I15
I10
F0.375
S'extended'
p219
tp220
a(I15
I24
F0.375
S'extended'
p221
tp222
a(I16
I9
F-0.625
S'bad'
p223
tp224
a(I24
I6
F-0.75
S'short'
p225
tp226
a(I33
I2
F-0.625
S'bad'
p227
tp228
a(I35
I11
F1.0
S'good'
p229
tp230
a(I35
I24
I0
S'forth'
p231
tp232
a(I50
I3
F1.0
S'good'
p233
tp234
a(I63
I0
F-0.625
S'bad'
p235
tp236
a(I67
I22
F-0.75
S'short'
p237
tp238
a(I68
I3
F0.375
S'extra'
p239
tp240
a(I71
I19
F0.5
S'satisfactory'
p241
tp242
a(I73
I1
F0.5
S'true'
p243
tp244
a(I73
I1
F-0.5
S'less'
p245
tp246
a(I73
I1
F0.25
S'stellar'
p247
tp248
a(I73
I1
F0.375
S'extended'
p249
tp250
a(I73
I1
F0.375
S'new'
p251
tp252
a(I76
I3
F1.0
S'better'
p253
tp254
a(I77
I8
F-0.375
S'double'
p255
tp256
a(I86
I3
F-0.875
S'worst'
p257
tp258
a(I86
I4
F1.0
S'best'
p259
tp260
a(I86
I4
I0
S'most'
p261
tp262
a(I86
I4
F-0.75
S'likely'
p263
tp264
a(I89
I15
F-0.25
S'battery'
p265
tp266
a(I91
I8
F1.0
S'good'
p267
tp268
a(I91
I9
F-0.25
S'low'
p269
tp270
a(I102
I1
F-0.625
S'bad'
p271
tp272
a(I104
I1
I0
S'many'
p273
tp274
a(I107
I0
F-0.875
S'awful'
p275
tp276
a(I109
I3
F-0.625
S'fresh'
p277
tp278
a(I115
I0
F-0.5
S'poor'
p279
tp280
a(I125
I5
F0.25
S'biggest'
p281
tp282
a(I125
I16
F0.125
S'key'
p283
tp284
a(I126
I1
F-0.875
S'awful'
p285
tp286
a(I128
I0
F-0.75
S'dead'
p287
tp288
a(I135
I3
I0
S'only'
p289
tp290
a(I135
I3
F-0.875
S'negative'
p291
tp292
a(I143
I16
F0.375
S'extended'
p293
tp294
a(I144
I8
F-0.625
S'bad'
p295
tp296
a(I147
I3
I0
S'efficient'
p297
tp298
a(I153
I2
F0.5
S'comparable'
p299
tp300
a(I156
I25
F-0.75
S'short'
p301
tp302
a(I160
I22
F0.5
S'obvious'
p303
tp304
a(I161
I1
F-0.75
S'short'
p305
tp306
a(I163
I0
I0
S'standard'
p307
tp308
a(I165
I0
F-0.25
S'anemic'
p309
tp310
a(I166
I23
F-0.625
S'bad'
p311
tp312
a(I166
I26
F0.125
S'able'
p313
tp314
a(I174
I6
F0.125
S'last'
p315
tp316
a(I187
I1
F-0.5
S'poor'
p317
tp318
a(I189
I4
F-0.75
S'sufficient'
p319
tp320
a(I195
I16
I0
S'large'
p321
tp322
a(I195
I16
F0.375
S'extended'
p323
tp324
a(I195
I17
I0
S'large'
p325
tp326
a(I195
I17
F-0.5
S'heavy'
p327
tp328
a(I195
I17
F0.375
S'extended'
p329
tp330
a(I196
I1
I0
S'prolong'
p331
tp332
a(I199
I9
F-0.5
S'long'
p333
tp334
a(I203
I13
F-0.125
S'overall'
p335
tp336
as(S'software'
p337
tp338
(lp339
(I0
I3
F0.5
S'technical'
p340
tp341
a(I0
I3
F-0.375
S'simple'
p342
tp343
a(I0
I24
F0.125
S'native'
p344
tp345
a(I23
I47
F-0.375
S'top'
p346
tp347
a(I35
I2
F0.375
S'newest'
p348
tp349
a(I60
I41
F-0.375
S'simple'
p350
tp351
a(I63
I0
F-0.75
S'stupid'
p352
tp353
a(I154
I3
F0.375
S'new'
p354
tp355
a(I185
I7
I0
S'many'
p356
tp357
a(I205
I11
F0.625
S'acceptable'
p358
tp359
a(I205
I11
F-0.75
S'stupid'
p360
tp361
as(S'sim'
p362
S'card'
p363
tp364
(lp365
(I19
I5
F0.375
S'new'
p366
tp367
as(S'charge'
p368
tp369
(lp370
(I2
I11
F-0.75
S'single'
p371
tp372
a(I16
I3
I0
S'full'
p373
tp374
a(I43
I12
F1.0
S'best'
p375
tp376
a(I44
I2
I0
S'full'
p377
tp378
a(I47
I9
I0
S'full'
p379
tp380
a(I63
I8
I0
S'full'
p381
tp382
a(I74
I26
I0
S'download'
p383
tp384
a(I108
I16
I0
S'full'
p385
tp386
a(I147
I4
F-0.75
S'single'
p387
tp388
a(I187
I4
F0.125
S'last'
p389
tp390
a(I203
I11
I0
S'full'
p391
tp392
a(I203
I15
I0
S'full'
p393
tp394
as(S'with'
p395
S'battery'
p396
S'life'
p397
tp398
(lp399
(I15
I24
F0.375
g221
tp400
a(I24
I6
F-0.75
g225
tp401
a(I37
I19
F-0.25
S'past'
p402
tp403
a(I46
I29
F0.125
S'far'
p404
tp405
a(I67
I22
F-0.75
g237
tp406
a(I68
I3
F0.375
g239
tp407
a(I73
I1
F0.5
g243
tp408
a(I73
I1
F-0.5
g245
tp409
a(I73
I1
F0.25
g247
tp410
a(I73
I1
F0.375
g249
tp411
a(I73
I1
F0.375
g251
tp412
a(I76
I3
F1.0
g253
tp413
a(I89
I15
F-0.25
g265
tp414
a(I91
I8
F1.0
g267
tp415
a(I91
I9
F-0.25
g269
tp416
a(I104
I1
I0
g273
tp417
a(I125
I16
F0.125
g283
tp418
a(I128
I0
F-0.75
g287
tp419
a(I135
I3
I0
g289
tp420
a(I135
I3
F-0.875
g291
tp421
a(I143
I16
F0.375
g293
tp422
a(I153
I2
F0.5
g299
tp423
a(I156
I25
F-0.75
g301
tp424
a(I160
I22
F0.5
g303
tp425
a(I163
I0
I0
g307
tp426
a(I165
I0
F-0.25
g309
tp427
a(I167
I1
F0.5
S'reasonable'
p428
tp429
a(I168
I7
I0
S'many'
p430
tp431
a(I174
I6
F0.125
g315
tp432
as(S'htc'
p433
S'thunderbolt'
p434
tp435
(lp436
(I23
I42
I0
S'standard'
p437
tp438
a(I28
I3
I0
S'common'
p439
tp440
a(I35
I18
I0
S'active'
p441
tp442
a(I47
I5
I0
S'incredible'
p443
tp444
a(I47
I5
F0.875
S'happy'
p445
tp446
a(I71
I4
F0.375
S'new'
p447
tp448
a(I94
I4
I0
S'incredible'
p449
tp450
a(I94
I4
F0.375
S'new'
p451
tp452
a(I118
I9
F-0.625
S'clean'
p453
tp454
a(I119
I6
F-0.5
S'complaint'
p455
tp456
a(I128
I1
I0
S'incredible'
p457
tp458
a(I174
I1
F0.375
S'new'
p459
tp460
a(I174
I1
I0
S'same'
p461
tp462
as(S'about'
p463
S'battery'
p464
S'life'
p465
tp466
(lp467
(I15
I10
F0.375
g219
tp468
a(I24
I0
F-0.5
S'poor'
p469
tp470
a(I24
I6
F-0.75
g225
tp471
a(I35
I24
I0
g231
tp472
a(I50
I3
F1.0
g233
tp473
a(I89
I15
F-0.25
g265
tp474
a(I91
I8
F1.0
g267
tp475
a(I104
I1
I0
g273
tp476
a(I107
I0
F-0.875
g275
tp477
a(I127
I1
F-0.75
S'short'
p478
tp479
a(I128
I0
F-0.75
g287
tp480
a(I139
I1
F-0.5
S'poor'
p481
tp482
a(I187
I1
F-0.5
g317
tp483
as(g91
S'hours'
p484
tp485
(lp486
(I26
I4
I0
S'least'
p487
tp488
a(I45
I2
F1.0
S'good'
p489
tp490
a(I82
I5
I0
g96
tp491
a(I100
I2
I0
S'most'
p492
tp493
a(I176
I3
I0
g98
tp494
as(S'fast'
p495
tp496
(lp497
(I5
I6
F-0.125
S'super'
p498
tp499
a(I42
I0
F0.375
S'new'
p500
tp501
a(I60
I8
I0
S'incredible'
p502
tp503
a(I76
I13
F-0.125
S'super'
p504
tp505
a(I103
I10
F-0.625
S'quiet'
p506
tp507
a(I139
I13
F-0.125
S'super'
p508
tp509
a(I194
I1
F-0.125
S'super'
p510
tp511
a(I199
I1
F-0.875
S'nasty'
p512
tp513
as(S'every'
p514
tp515
(lp516
(I135
I23
F0.375
S'new'
p517
tp518
as(S'times'
p519
tp520
(lp521
(I11
I12
I0
S'few'
p522
tp523
a(I12
I8
I0
S'many'
p524
tp525
a(I13
I1
I0
S'useful'
p526
tp527
a(I23
I16
F0.375
S'much'
p528
tp529
a(I39
I1
I0
S'few'
p530
tp531
a(I44
I6
I0
S'many'
p532
tp533
a(I74
I30
I0
S'few'
p534
tp535
a(I77
I1
I0
S'faster'
p536
tp537
a(I79
I2
I0
S'least'
p538
tp539
a(I91
I6
F0.25
S'responsive'
p540
tp541
a(I91
I6
F-0.5
S'open'
p542
tp543
a(I102
I1
F-0.5
S'long'
p544
tp545
a(I102
I1
F-0.75
S'unresponsive'
p546
tp547
a(I105
I3
I0
S'few'
p548
tp549
a(I114
I28
I0
S'faster'
p550
tp551
a(I141
I15
I0
S'faster'
p552
tp553
a(I143
I18
I0
S'few'
p554
tp555
a(I155
I13
F-0.375
S'happen'
p556
tp557
a(I155
I14
F0.125
S'last'
p558
tp559
a(I174
I2
I0
S'many'
p560
tp561
a(I184
I0
I0
S'incredible'
p562
tp563
a(I184
I0
I0
S'many'
p564
tp565
a(I200
I9
I0
S'mobile'
p566
tp567
as(S'problem'
p568
tp569
(lp570
(I28
I1
I0
S'same'
p571
tp572
a(I28
I3
I0
S'same'
p573
tp574
a(I60
I11
I0
S'big'
p575
tp576
a(I60
I18
F0.25
S'biggest'
p577
tp578
a(I60
I32
I0
S'most'
p579
tp580
a(I60
I32
I0
S'android'
p581
tp582
a(I61
I1
I0
S'same'
p583
tp584
a(I90
I1
F0.125
S'first'
p585
tp586
a(I90
I1
I0
S'most'
p587
tp588
a(I90
I1
F0.625
S'major'
p589
tp590
a(I92
I7
I0
S'next'
p591
tp592
a(I92
I13
I0
S'big'
p593
tp594
a(I130
I2
F0.25
S'main'
p595
tp596
a(I143
I10
I0
S'update'
p597
tp598
a(I143
I20
I0
S'big'
p599
tp600
a(I149
I2
F-0.5
S'less'
p601
tp602
a(I162
I0
F0.25
S'main'
p603
tp604
a(I196
I2
F0.625
S'major'
p605
tp606
a(I203
I26
F0.25
S'biggest'
p607
tp608
as(S'poor'
p609
S'battery'
p610
S'life'
p611
tp612
(lp613
(I13
I3
F-0.5
S'poor'
p614
tp615
a(I24
I0
F-0.5
g469
tp616
a(I55
I0
F-0.5
S'poor'
p617
tp618
a(I102
I1
F-0.625
g271
tp619
a(I115
I0
F-0.5
g279
tp620
a(I139
I1
F-0.5
g481
tp621
a(I187
I1
F-0.5
g317
tp622
as(S'text'
p623
tp624
(lp625
(I46
I16
I0
S'many'
p626
tp627
a(I75
I6
I0
S'song'
p628
tp629
a(I75
I7
F0.875
S'music'
p630
tp631
a(I90
I2
F0.125
S'able'
p632
tp633
a(I91
I8
F0.375
S'standby'
p634
tp635
a(I138
I7
F0.375
S'new'
p636
tp637
a(I203
I41
F-0.625
S'want'
p638
tp639
as(S'getting'
p640
tp641
(lp642
(I32
I0
I0
S'dough'
p643
tp644
as(S'need'
p645
tp646
(lp647
(I60
I8
F0.375
S'feel'
p648
tp649
as(S'going'
p650
tp651
(lp652
(I15
I6
F0.375
S'much'
p653
tp654
as(S'droid'
p655
S'x'
p656
tp657
(lp658
(I49
I1
F0.25
g10
tp659
a(I60
I11
F0.25
g12
tp660
a(I61
I1
I0
g18
tp661
a(I83
I23
F-0.25
g20
tp662
a(I114
I5
I0
g24
tp663
a(I114
I99
F0.625
S'superior'
p664
tp665
a(I117
I16
F0.25
g26
tp666
a(I117
I16
F-0.125
g28
tp667
a(I183
I12
F-0.375
g34
tp668
a(I183
I12
I0
g36
tp669
a(I190
I9
I0
g38
tp670
as(S'google'
p671
tp672
(lp673
(I4
I3
F-0.625
S'free'
p674
tp675
a(I9
I17
F-0.625
S'free'
p676
tp677
a(I32
I21
F-0.5
S'regular'
p678
tp679
a(I166
I14
I0
S'great'
p680
tp681
a(I166
I14
I0
S'standard'
p682
tp683
as(S'things'
p684
tp685
(lp686
(I0
I32
F-0.625
S'other'
p687
tp688
a(I11
I2
F-0.625
S'other'
p689
tp690
a(I11
I10
I0
S'cool'
p691
tp692
a(I15
I9
F-0.625
S'other'
p693
tp694
a(I23
I3
I0
S'android'
p695
tp696
a(I23
I3
I0
S'android'
p697
tp698
a(I26
I6
I0
S'different'
p699
tp700
a(I63
I26
I0
S'golf'
p701
tp702
a(I63
I26
F-0.625
S'other'
p703
tp704
a(I63
I26
F-0.625
S'useless'
p705
tp706
a(I63
I26
F0.5
S'told'
p707
tp708
a(I67
I30
F-0.625
S'other'
p709
tp710
a(I71
I25
I0
S'faster'
p711
tp712
a(I71
I25
F1.0
S'better'
p713
tp714
a(I83
I38
F0.375
S'appreciate'
p715
tp716
a(I83
I38
I0
S'basic'
p717
tp718
a(I83
I39
I0
S'many'
p719
tp720
a(I103
I1
I0
S'perspective'
p721
tp722
a(I117
I4
I0
S'many'
p723
tp724
a(I138
I6
I0
S'same'
p725
tp726
a(I138
I6
F0.125
S'first'
p727
tp728
a(I142
I2
I0
S'great'
p729
tp730
a(I164
I12
F-0.75
S'wrong'
p731
tp732
a(I164
I18
F-0.625
S'other'
p733
tp734
a(I166
I8
F-0.625
S'other'
p735
tp736
a(I166
I28
I0
S'few'
p737
tp738
a(I185
I15
F-0.375
S'happen'
p739
tp740
a(I189
I21
I0
S'most'
p741
tp742
a(I200
I7
F-0.625
S'bad'
p743
tp744
a(I203
I5
F-0.625
S'other'
p745
tp746
a(I203
I32
F0.875
S'important'
p747
tp748
a(I203
I51
I0
S'many'
p749
tp750
a(I203
I59
F0.375
S'perceive'
p751
tp752
a(I203
I60
F-0.625
S'other'
p753
tp754
as(S'features'
p755
tp756
(lp757
(I0
I5
I0
S'many'
p758
tp759
a(I3
I27
F0.375
S'available'
p760
tp761
a(I13
I1
I0
S'few'
p762
tp763
a(I26
I12
F0.5
S'added'
p764
tp765
a(I35
I17
I0
S'internet'
p766
tp767
a(I48
I0
F-0.625
S'other'
p768
tp769
a(I48
I0
I0
S'android'
p770
tp771
a(I79
I0
F0.875
S'nice'
p772
tp773
a(I111
I6
I0
S'such'
p774
tp775
a(I123
I0
F0.875
S'nice'
p776
tp777
a(I123
I0
I0
S'fast'
p778
tp779
a(I128
I4
F0.125
S'key'
p780
tp781
a(I147
I6
F0.875
S'nice'
p782
tp783
a(I156
I15
F-0.625
S'other'
p784
tp785
a(I156
I25
F0.375
S'extra'
p786
tp787
a(I156
I25
I0
S'many'
p788
tp789
a(I162
I0
I0
S'great'
p790
tp791
a(I162
I0
F1.0
S'better'
p792
tp793
a(I162
I2
F-0.625
S'other'
p794
tp795
a(I163
I1
I0
S'great'
p796
tp797
a(I164
I2
I0
S'many'
p798
tp799
a(I166
I8
F0.875
S'nice'
p800
tp801
a(I171
I15
I0
S'great'
p802
tp803
as(S'power'
p804
tp805
(lp806
(I3
I31
F0.875
S'nice'
p807
tp808
a(I13
I9
F1.0
S'better'
p809
tp810
a(I40
I4
I0
S'real'
p811
tp812
a(I47
I6
F-0.375
S'small'
p813
tp814
a(I61
I1
F-0.625
S'green'
p815
tp816
a(I196
I2
F-0.625
S'green'
p817
tp818
as(S'an'
p819
S'extended'
p820
S'battery'
p821
tp822
(lp823
(I0
I21
F0.375
S'extended'
p824
tp825
a(I6
I6
F0.125
S'last'
p826
tp827
a(I6
I11
I0
S'great'
p828
tp829
a(I15
I10
F0.375
g219
tp830
a(I23
I24
F0.375
S'extended'
p831
tp832
a(I35
I11
F1.0
g229
tp833
a(I43
I12
F0.375
S'extended'
p834
tp835
a(I43
I37
F0.375
S'extended'
p836
tp837
a(I60
I10
F0.375
S'extended'
p838
tp839
a(I60
I10
F0.375
S'new'
p840
tp841
a(I63
I10
F0.375
S'extended'
p842
tp843
a(I63
I11
F0.375
S'extended'
p844
tp845
a(I70
I2
F0.375
S'similar'
p846
tp847
a(I71
I21
F0.375
S'extended'
p848
tp849
a(I73
I1
F0.5
g243
tp850
a(I73
I1
F0.375
g249
tp851
a(I73
I1
F0.375
g251
tp852
a(I76
I15
F0.375
S'extended'
p853
tp854
a(I95
I4
F0.375
S'extended'
p855
tp856
a(I108
I14
F0.375
S'extended'
p857
tp858
a(I108
I14
F0.375
S'extended'
p859
tp860
a(I133
I0
F0.375
S'extended'
p861
tp862
a(I144
I9
F0.375
S'extended'
p863
tp864
a(I150
I8
F0.375
S'extended'
p865
tp866
a(I150
I9
I0
S'great'
p867
tp868
a(I150
I9
F0.375
S'extended'
p869
tp870
a(I150
I10
F0.375
S'extended'
p871
tp872
a(I158
I1
F0.375
S'extended'
p873
tp874
a(I161
I3
F0.375
S'extended'
p875
tp876
a(I161
I3
F0.375
S'extended'
p877
tp878
a(I176
I5
F-0.5
S'sure'
p879
tp880
a(I176
I5
F0.375
S'extended'
p881
tp882
a(I178
I8
F0.375
S'extended'
p883
tp884
a(I183
I5
I0
S'thick'
p885
tp886
as(S'video'
p887
tp888
(lp889
(I23
I9
F0.375
S'oomph'
p890
tp891
a(I144
I13
I0
S'more'
p892
tp893
a(I185
I14
F1.0
S'good'
p894
tp895
as(S'a'
p896
S'long'
p897
S'time'
p898
tp899
(lp900
(I6
I6
F-0.5
S'long'
p901
tp902
a(I6
I6
F-0.5
S'long'
p903
tp904
a(I16
I0
F-0.5
S'long'
p905
tp906
a(I73
I6
F-0.5
S'long'
p907
tp908
a(I74
I32
F-0.5
S'long'
p909
tp910
a(I83
I13
F-0.5
S'long'
p911
tp912
a(I203
I15
F-0.5
S'long'
p913
tp914
as(S'android'
p915
tp916
(lp917
(I44
I0
F0.125
S'first'
p918
tp919
a(I57
I2
I0
S'great'
p920
tp921
a(I91
I9
F-0.125
S'alternative'
p922
tp923
a(I114
I12
F0.125
S'first'
p924
tp925
a(I184
I2
F1.0
S'best'
p926
tp927
as(g896
S'third'
p928
S'party'
p929
tp930
(lp931
(I63
I18
F-0.125
S'mine'
p932
tp933
a(I63
I18
I0
S'third'
p934
tp935
a(I132
I2
I0
S'third'
p936
tp937
as(S'network'
p938
tp939
(lp940
(I60
I9
F-0.5
S'heavy'
p941
tp942
a(I62
I3
I0
S'faster'
p943
tp944
a(I63
I0
I0
S'great'
p945
tp946
a(I74
I17
F1.0
S'better'
p947
tp948
a(I82
I10
F0.375
S'new'
p949
tp950
a(I97
I11
I0
S'great'
p951
tp952
a(I114
I25
I0
S'faster'
p953
tp954
a(I114
I118
F-0.625
S'generous'
p955
tp956
a(I120
I3
I0
S'same'
p957
tp958
a(I120
I3
I0
S'same'
p959
tp960
a(I121
I17
I0
S'mobile'
p961
tp962
a(I121
I26
I0
S'social'
p963
tp964
a(I151
I1
I0
S'mobile'
p965
tp966
a(I156
I14
I0
S'mobile'
p967
tp968
a(I182
I3
F0.375
S'reliable'
p969
tp970
as(S'thing'
p971
tp972
(lp973
(I0
I8
I0
S'only'
p974
tp975
a(I3
I21
F1.0
S'good'
p976
tp977
a(I9
I21
F-0.375
S'small'
p978
tp979
a(I11
I4
F0.125
S'first'
p980
tp981
a(I17
I2
F0.125
S'first'
p982
tp983
a(I26
I1
I0
S'least'
p984
tp985
a(I28
I2
I0
S'same'
p986
tp987
a(I59
I9
I0
S'more'
p988
tp989
a(I62
I4
F0.125
S'first'
p990
tp991
a(I62
I6
F0.375
S'available'
p992
tp993
a(I66
I7
I0
S'only'
p994
tp995
a(I67
I16
F0.125
S'able'
p996
tp997
a(I74
I37
I0
S'same'
p998
tp999
a(I75
I8
F-0.875
S'worst'
p1000
tp1001
a(I82
I6
F0.5
S'second'
p1002
tp1003
a(I82
I6
I0
S'most'
p1004
tp1005
a(I82
I7
I0
S'most'
p1006
tp1007
a(I83
I42
F-0.375
S'beast'
p1008
tp1009
a(I86
I3
I0
S'only'
p1010
tp1011
a(I89
I17
F1.0
S'better'
p1012
tp1013
a(I92
I16
I0
S'big'
p1014
tp1015
a(I114
I13
F0.125
S'first'
p1016
tp1017
a(I114
I82
I0
S'same'
p1018
tp1019
a(I116
I6
I0
S'big'
p1020
tp1021
a(I139
I8
I0
S'same'
p1022
tp1023
a(I142
I3
F0.125
S'first'
p1024
tp1025
a(I142
I3
F0.375
S'similar'
p1026
tp1027
a(I150
I9
F-0.25
S'thin'
p1028
tp1029
a(I166
I3
F-0.125
S'slow'
p1030
tp1031
a(I168
I16
I0
S'same'
p1032
tp1033
a(I176
I9
I0
S'same'
p1034
tp1035
a(I179
I13
I0
S'same'
p1036
tp1037
a(I180
I0
F0.125
S'first'
p1038
tp1039
a(I189
I29
I0
S'only'
p1040
tp1041
a(I195
I16
I0
S'final'
p1042
tp1043
a(I199
I3
F-0.5
S'poor'
p1044
tp1045
as(S'4g'
p1046
S'lte'
p1047
S'network'
p1048
tp1049
(lp1050
(I154
I11
F0.375
S'new'
p1051
tp1052
as(S'better'
p1053
S'battery'
p1054
S'life'
p1055
tp1056
(lp1057
(I76
I3
F1.0
g253
tp1058
a(I113
I4
F1.0
S'better'
p1059
tp1060
a(I144
I8
F-0.625
g295
tp1061
a(I150
I7
F1.0
S'better'
p1062
tp1063
a(I161
I1
F-0.75
g305
tp1064
a(I185
I1
F0.375
S'extended'
p1065
tp1066
as(g48
S'background'
p1067
tp1068
(lp1069
(I3
I42
F-0.75
g52
tp1070
a(I65
I3
F0.375
S'significant'
p1071
tp1072
a(I65
I3
F-0.375
S'static'
p1073
tp1074
a(I78
I2
F0.625
g54
tp1075
a(I116
I22
F0.5
g56
tp1076
as(S'data'
p1077
tp1078
(lp1079
(I0
I6
I0
S'great'
p1080
tp1081
a(I23
I31
F-0.25
S'cheaper'
p1082
tp1083
a(I30
I1
F1.0
S'good'
p1084
tp1085
a(I60
I12
F-0.375
S'pull'
p1086
tp1087
a(I117
I16
F1.0
S'good'
p1088
tp1089
a(I118
I5
F-0.5
S'unlimited'
p1090
tp1091
a(I135
I23
F-0.5
S'unlimited'
p1092
tp1093
a(I156
I23
F-0.5
S'afraid'
p1094
tp1095
a(I156
I25
F0.625
S'safe'
p1096
tp1097
a(I160
I15
F-0.5
S'heavy'
p1098
tp1099
a(I179
I12
F-0.5
S'heavy'
p1100
tp1101
a(I203
I12
I0
S'continual'
p1102
tp1103
a(I203
I16
I0
S'brief'
p1104
tp1105
as(S'faster'
p1106
S'than'
p1107
S'home'
p1108
tp1109
(lp1110
(I43
I25
I0
S'faster'
p1111
tp1112
a(I49
I8
I0
S'faster'
p1113
tp1114
a(I185
I3
I0
S'faster'
p1115
tp1116
as(S'hours'
p1117
tp1118
(lp1119
(I23
I24
F0.625
S'straight'
p1120
tp1121
a(I26
I2
F0.125
S'able'
p1122
tp1123
a(I26
I4
I0
g487
tp1124
a(I32
I0
I0
S'few'
p1125
tp1126
a(I44
I2
F0.125
S'last'
p1127
tp1128
a(I45
I2
F1.0
g489
tp1129
a(I80
I1
F0.875
S'lucky'
p1130
tp1131
a(I80
I4
F0.125
S'able'
p1132
tp1133
a(I80
I4
I0
S'few'
p1134
tp1135
a(I82
I5
I0
g96
tp1136
a(I83
I9
F-0.125
S'mine'
p1137
tp1138
a(I100
I2
I0
g492
tp1139
a(I111
I8
F-0.75
S'dead'
p1140
tp1141
a(I143
I17
F-0.75
S'little'
p1142
tp1143
a(I155
I2
F-0.625
S'average'
p1144
tp1145
a(I161
I3
F-0.5
S'complaint'
p1146
tp1147
a(I176
I3
I0
g98
tp1148
a(I183
I8
I0
S'more'
p1149
tp1150
a(I183
I8
I0
S'few'
p1151
tp1152
a(I196
I1
F0.125
S'charger'
p1153
tp1154
a(I203
I12
I0
S'more'
p1155
tp1156
as(S'work'
p1157
tp1158
(lp1159
(I3
I18
F0.375
S'extra'
p1160
tp1161
a(I141
I11
F0.125
S'full-time'
p1162
tp1163
as(S'seems'
p1164
tp1165
(lp1166
(I203
I15
F-0.125
S'slow'
p1167
tp1168
as(S'extended'
p1169
S'life'
p1170
S'battery'
p1171
tp1172
(lp1173
(I15
I10
F0.375
g219
tp1174
a(I15
I24
F0.375
g221
tp1175
a(I35
I11
F1.0
g229
tp1176
a(I73
I1
F0.5
g243
tp1177
a(I73
I1
F-0.5
g245
tp1178
a(I73
I1
F0.25
g247
tp1179
a(I73
I1
F0.375
g249
tp1180
a(I73
I1
F0.375
g251
tp1181
a(I143
I16
F0.375
g293
tp1182
a(I185
I1
F0.375
g1065
tp1183
a(I195
I16
I0
g321
tp1184
a(I195
I16
F0.375
g323
tp1185
a(I195
I17
I0
g325
tp1186
a(I195
I17
F-0.5
g327
tp1187
a(I195
I17
F0.375
g329
tp1188
as(S'turn'
p1189
tp1190
(lp1191
(I77
I10
F-0.375
S'crazy'
p1192
tp1193
as(g896
S'4g'
p1194
S'area'
p1195
tp1196
(lp1197
(I59
I7
I0
S'awhile'
p1198
tp1199
a(I60
I8
F0.375
S'available'
p1200
tp1201
a(I65
I5
F-0.75
S'wrong'
p1202
tp1203
as(S'listening'
p1204
S'to'
p1205
S'music'
p1206
tp1207
(lp1208
(I15
I15
F0.875
S'music'
p1209
tp1210
a(I60
I22
F0.875
S'music'
p1211
tp1212
as(S'battery'
p1213
S'life'
p1214
tp1215
(lp1216
(I13
I3
F-0.5
g614
tp1217
a(I15
I10
F0.375
g219
tp1218
a(I15
I24
F0.375
g221
tp1219
a(I16
I9
F-0.625
g223
tp1220
a(I24
I0
F-0.5
g469
tp1221
a(I24
I6
F-0.75
g225
tp1222
a(I26
I3
F0.75
S'due'
p1223
tp1224
a(I33
I2
F-0.625
g227
tp1225
a(I35
I6
F0.625
S'acceptable'
p1226
tp1227
a(I35
I11
F1.0
g229
tp1228
a(I35
I24
I0
g231
tp1229
a(I37
I19
F-0.25
g402
tp1230
a(I46
I29
F0.125
g404
tp1231
a(I50
I3
F1.0
g233
tp1232
a(I55
I0
F-0.5
g617
tp1233
a(I62
I8
F-0.625
S'bad'
p1234
tp1235
a(I63
I0
F-0.625
g235
tp1236
a(I67
I22
F-0.75
g237
tp1237
a(I68
I3
F0.375
g239
tp1238
a(I71
I19
F0.5
g241
tp1239
a(I72
I9
F-0.625
S'average'
p1240
tp1241
a(I73
I1
F0.5
g243
tp1242
a(I73
I1
F-0.5
g245
tp1243
a(I73
I1
F0.25
g247
tp1244
a(I73
I1
F0.375
g249
tp1245
a(I73
I1
F0.375
g251
tp1246
a(I76
I1
F-0.875
S'worst'
p1247
tp1248
a(I76
I3
F1.0
g253
tp1249
a(I77
I8
F-0.375
g255
tp1250
a(I78
I0
F-0.625
S'bad'
p1251
tp1252
a(I83
I2
F-0.625
S'bad'
p1253
tp1254
a(I86
I3
F-0.875
g257
tp1255
a(I86
I4
F1.0
g259
tp1256
a(I86
I4
I0
g261
tp1257
a(I86
I4
F-0.75
g263
tp1258
a(I89
I15
F-0.25
g265
tp1259
a(I91
I8
F1.0
g267
tp1260
a(I91
I9
F-0.25
g269
tp1261
a(I95
I3
F-0.625
S'bad'
p1262
tp1263
a(I97
I12
F-0.625
S'bad'
p1264
tp1265
a(I102
I1
F-0.625
g271
tp1266
a(I104
I1
I0
g273
tp1267
a(I107
I0
F-0.875
g275
tp1268
a(I109
I3
F-0.625
g277
tp1269
a(I113
I4
F1.0
g1059
tp1270
a(I114
I91
F1.0
S'good'
p1271
tp1272
a(I114
I91
I0
S'mode'
p1273
tp1274
a(I115
I0
F-0.5
g279
tp1275
a(I116
I13
I0
S'very'
p1276
tp1277
a(I116
I13
F0.5
S'obvious'
p1278
tp1279
a(I119
I3
F-0.625
S'bad'
p1280
tp1281
a(I125
I5
F0.25
g281
tp1282
a(I125
I6
I0
S'great'
p1283
tp1284
a(I125
I6
F-0.625
S'bad'
p1285
tp1286
a(I125
I16
F0.125
g283
tp1287
a(I126
I1
F-0.875
g285
tp1288
a(I127
I1
F-0.75
g478
tp1289
a(I128
I0
F-0.75
g287
tp1290
a(I135
I3
I0
g289
tp1291
a(I135
I3
F-0.875
g291
tp1292
a(I139
I1
F-0.5
g481
tp1293
a(I139
I3
F0.625
S'fair'
p1294
tp1295
a(I143
I16
F0.375
g293
tp1296
a(I144
I8
F-0.625
g295
tp1297
a(I147
I3
I0
g297
tp1298
a(I150
I7
F1.0
g1062
tp1299
a(I153
I2
F0.5
g299
tp1300
a(I155
I4
F0.5
S'reasonable'
p1301
tp1302
a(I155
I4
F1.0
S'good'
p1303
tp1304
a(I156
I25
F-0.75
g301
tp1305
a(I160
I22
F0.5
g303
tp1306
a(I161
I1
F-0.75
g305
tp1307
a(I163
I0
I0
g307
tp1308
a(I165
I0
F-0.25
g309
tp1309
a(I166
I23
F-0.625
g311
tp1310
a(I166
I26
F0.125
g313
tp1311
a(I167
I1
F0.5
g428
tp1312
a(I168
I7
I0
g430
tp1313
a(I174
I6
F0.125
g315
tp1314
a(I183
I13
F0.125
S'first'
p1315
tp1316
a(I183
I13
F1.0
S'best'
p1317
tp1318
a(I185
I1
F0.375
g1065
tp1319
a(I187
I1
F-0.5
g317
tp1320
a(I189
I4
F-0.75
g319
tp1321
a(I195
I16
I0
g321
tp1322
a(I195
I16
F0.375
g323
tp1323
a(I195
I17
I0
g325
tp1324
a(I195
I17
F-0.5
g327
tp1325
a(I195
I17
F0.375
g329
tp1326
a(I196
I1
I0
g331
tp1327
a(I199
I9
F-0.5
g333
tp1328
a(I203
I13
F-0.125
g335
tp1329
a(I205
I19
F0.5
S'true'
p1330
tp1331
as(S'end'
p1332
S'of'
p1333
S'day'
p1334
tp1335
(lp1336
(I28
I4
F-0.125
S'mine'
p1337
tp1338
a(I71
I2
F-0.625
S'average'
p1339
tp1340
a(I112
I4
I0
S'more'
p1341
tp1342
a(I112
I4
I0
S'more'
p1343
tp1344
a(I155
I18
F0.875
S'happy'
p1345
tp1346
a(I194
I2
I0
S'full'
p1347
tp1348
as(g896
S'great'
p1349
S'deal'
p1350
tp1351
(lp1352
(I23
I12
I0
S'great'
p1353
tp1354
a(I60
I12
I0
S'great'
p1355
tp1356
a(I111
I1
I0
S'great'
p1357
tp1358
a(I143
I1
I0
S'great'
p1359
tp1360
a(I156
I6
I0
S'great'
p1361
tp1362
a(I201
I1
I0
S'great'
p1363
tp1364
as(S'to'
p1365
S'verizon'
p1366
S'store'
p1367
tp1368
(lp1369
(I65
I1
I0
g157
tp1370
a(I114
I12
I0
S'minimal'
p1371
tp1372
a(I161
I0
I0
g191
tp1373
as(S'faster'
p1374
tp1375
(lp1376
(I9
I19
F0.375
S'much'
p1377
tp1378
a(I27
I7
F0.5
S'second'
p1379
tp1380
a(I114
I26
F0.375
S'much'
p1381
tp1382
as(S'getting'
p1383
S'extended'
p1384
S'battery'
p1385
tp1386
(lp1387
(I15
I10
F0.375
g219
tp1388
a(I43
I37
F0.375
g836
tp1389
a(I95
I12
F0.375
S'extended'
p1390
tp1391
a(I150
I8
F0.375
g865
tp1392
as(S'problems'
p1393
tp1394
(lp1395
(I35
I25
I0
S'same'
p1396
tp1397
a(I50
I3
I0
S'toggle'
p1398
tp1399
a(I73
I4
I0
S'only'
p1400
tp1401
a(I88
I9
I0
S'fundamental'
p1402
tp1403
a(I98
I1
F-0.75
S'damaging'
p1404
tp1405
a(I110
I5
F0.625
S'major'
p1406
tp1407
a(I114
I8
F0.625
S'major'
p1408
tp1409
a(I114
I83
F0.625
S'major'
p1410
tp1411
a(I139
I1
I0
S'most'
p1412
tp1413
a(I143
I26
F-0.5
S'sure'
p1414
tp1415
a(I143
I26
F0.125
S'first'
p1416
tp1417
a(I174
I4
I0
S'few'
p1418
tp1419
a(I191
I1
I0
S'many'
p1420
tp1421
as(S'back'
p1422
tp1423
(lp1424
(I135
I13
I0
S'cool'
p1425
tp1426
a(I203
I19
F-0.75
S'shorter'
p1427
tp1428
as(S'speed'
p1429
tp1430
(lp1431
(I23
I50
I0
S'same'
p1432
tp1433
a(I28
I4
I0
S'closer'
p1434
tp1435
a(I28
I4
F-0.5
S'actual'
p1436
tp1437
a(I66
I0
I0
S'more'
p1438
tp1439
a(I69
I2
I0
S'faster'
p1440
tp1441
a(I121
I3
I0
S'different'
p1442
tp1443
a(I149
I1
I0
S'incredible'
p1444
tp1445
a(I162
I0
I0
S'great'
p1446
tp1447
a(I171
I6
I0
S'cable'
p1448
tp1449
a(I171
I10
F0.375
S'extra'
p1450
tp1451
a(I196
I0
I0
S'great'
p1452
tp1453
as(S'life'
p1454
tp1455
(lp1456
(I15
I24
F0.375
g221
tp1457
a(I16
I9
F-0.625
g223
tp1458
a(I26
I3
F0.75
g1223
tp1459
a(I35
I6
F0.625
g1226
tp1460
a(I35
I24
I0
g231
tp1461
a(I37
I19
F-0.25
g402
tp1462
a(I46
I29
F0.125
g404
tp1463
a(I50
I3
F1.0
g233
tp1464
a(I62
I8
F-0.625
g1234
tp1465
a(I67
I22
F-0.75
g237
tp1466
a(I71
I19
F0.5
g241
tp1467
a(I73
I1
F-0.5
g245
tp1468
a(I73
I1
F0.25
g247
tp1469
a(I76
I1
F-0.875
g1247
tp1470
a(I78
I0
F-0.625
g1251
tp1471
a(I82
I22
I0
S'least'
p1472
tp1473
a(I83
I2
F-0.625
g1253
tp1474
a(I89
I15
F-0.25
g265
tp1475
a(I91
I8
F1.0
g267
tp1476
a(I97
I12
F-0.625
g1264
tp1477
a(I102
I1
F-0.625
g271
tp1478
a(I104
I1
I0
g273
tp1479
a(I125
I6
I0
g1283
tp1480
a(I125
I6
F-0.625
g1285
tp1481
a(I126
I1
F-0.875
g285
tp1482
a(I135
I3
I0
g289
tp1483
a(I135
I3
F-0.875
g291
tp1484
a(I143
I16
F0.375
g293
tp1485
a(I144
I8
F-0.625
g295
tp1486
a(I153
I2
F0.5
g299
tp1487
a(I161
I1
F-0.75
g305
tp1488
a(I166
I23
F-0.625
g311
tp1489
a(I167
I1
F0.5
g428
tp1490
a(I168
I7
I0
g430
tp1491
a(I174
I6
F0.125
g315
tp1492
a(I183
I13
F1.0
g1317
tp1493
a(I185
I1
F0.375
g1065
tp1494
a(I187
I1
F-0.5
g317
tp1495
a(I189
I4
F-0.75
g319
tp1496
a(I195
I16
I0
g321
tp1497
a(I195
I16
F0.375
g323
tp1498
a(I195
I17
I0
g325
tp1499
a(I195
I17
F-0.5
g327
tp1500
a(I195
I17
F0.375
g329
tp1501
a(I199
I9
F-0.5
g333
tp1502
a(I205
I19
F0.5
g1330
tp1503
as(S'thunderbolt'
p1504
tp1505
(lp1506
(I2
I25
F0.875
S'happy'
p1507
tp1508
a(I4
I15
I0
S'great'
p1509
tp1510
a(I16
I7
I0
S'own'
p1511
tp1512
a(I23
I42
I0
g437
tp1513
a(I32
I13
F1.0
S'good'
p1514
tp1515
a(I35
I18
I0
g441
tp1516
a(I35
I20
F0.375
S'available'
p1517
tp1518
a(I43
I6
F-0.5
S'sure'
p1519
tp1520
a(I47
I5
F0.875
g445
tp1521
a(I71
I25
F0.125
S'far'
p1522
tp1523
a(I74
I35
F-0.875
S'worst'
p1524
tp1525
a(I86
I3
F-0.75
S'dead'
p1526
tp1527
a(I92
I9
I0
S'fastest'
p1528
tp1529
a(I94
I4
F0.375
g451
tp1530
a(I105
I0
I0
S'incredible'
p1531
tp1532
a(I110
I1
F0.375
S'new'
p1533
tp1534
a(I112
I5
F0.875
S'happier'
p1535
tp1536
a(I129
I14
I0
S'third'
p1537
tp1538
a(I138
I1
F0.125
S'first'
p1539
tp1540
a(I143
I25
F0.375
S'new'
p1541
tp1542
a(I143
I25
I0
S'very'
p1543
tp1544
a(I155
I18
F0.5
S'compatible'
p1545
tp1546
a(I155
I18
F-0.625
S'sorry'
p1547
tp1548
a(I158
I0
F0.125
S'first'
p1549
tp1550
a(I160
I2
F0.375
S'new'
p1551
tp1552
a(I171
I6
F0.125
S'last'
p1553
tp1554
a(I171
I14
F0.625
S'kind'
p1555
tp1556
a(I179
I5
F-0.625
S'glad'
p1557
tp1558
a(I179
I11
F0.625
S'easier'
p1559
tp1560
a(I183
I17
F-0.375
S'smooth'
p1561
tp1562
a(I183
I17
I0
S'jerky'
p1563
tp1564
a(I183
I17
F-0.125
S'slow'
p1565
tp1566
a(I185
I14
F-0.125
S'overall'
p1567
tp1568
a(I189
I3
F0.375
S'confident'
p1569
tp1570
as(S'quite'
p1571
g896
S'bit'
p1572
tp1573
(lp1574
(I95
I5
F-0.25
S'lower'
p1575
tp1576
as(g896
S'full'
p1577
S'day'
p1578
tp1579
(lp1580
(I35
I7
I0
S'full'
p1581
tp1582
a(I86
I2
I0
S'full'
p1583
tp1584
a(I142
I24
I0
S'full'
p1585
tp1586
a(I144
I9
I0
S'full'
p1587
tp1588
a(I167
I1
I0
S'full'
p1589
tp1590
a(I194
I2
I0
g1347
tp1591
as(S'great'
p1592
tp1593
(lp1594
(I4
I4
I0
S'next'
p1595
tp1596
as(S'battery'
p1597
tp1598
(lp1599
(I0
I21
F0.375
g824
tp1600
a(I0
I22
F1.0
S'good'
p1601
tp1602
a(I0
I22
F0.875
S'important'
p1603
tp1604
a(I4
I14
F0.375
S'extra'
p1605
tp1606
a(I5
I2
F-0.625
S'bad'
p1607
tp1608
a(I6
I6
F0.125
g826
tp1609
a(I6
I11
I0
g828
tp1610
a(I9
I5
F0.625
S'aware'
p1611
tp1612
a(I13
I3
F-0.5
g614
tp1613
a(I15
I8
F0.25
S'bigger'
p1614
tp1615
a(I15
I9
F-0.5
S'sure'
p1616
tp1617
a(I15
I9
I0
S'normal'
p1618
tp1619
a(I15
I9
F0.125
S'last'
p1620
tp1621
a(I15
I10
F0.375
g219
tp1622
a(I22
I3
F1.0
S'better'
p1623
tp1624
a(I23
I11
F0.25
S'bigger'
p1625
tp1626
a(I23
I20
I0
S'more'
p1627
tp1628
a(I23
I22
F0.125
S'last'
p1629
tp1630
a(I23
I22
F-0.5
S'long'
p1631
tp1632
a(I23
I24
F0.375
g831
tp1633
a(I24
I0
F-0.5
g469
tp1634
a(I24
I6
F-0.75
g225
tp1635
a(I26
I4
I0
S'great'
p1636
tp1637
a(I32
I17
I0
S'external'
p1638
tp1639
a(I33
I2
F-0.625
g227
tp1640
a(I34
I1
I0
S'great'
p1641
tp1642
a(I35
I11
F1.0
g229
tp1643
a(I37
I15
F-0.625
S'bad'
p1644
tp1645
a(I43
I3
F-0.875
S'stuck'
p1646
tp1647
a(I43
I3
I0
S'standard'
p1648
tp1649
a(I43
I8
F1.0
S'better'
p1650
tp1651
a(I43
I12
F0.375
g834
tp1652
a(I43
I15
F0.5
S'told'
p1653
tp1654
a(I43
I16
I0
S'big'
p1655
tp1656
a(I43
I37
F0.375
g836
tp1657
a(I44
I5
F0.5
S'stronger'
p1658
tp1659
a(I44
I5
I0
S'more'
p1660
tp1661
a(I49
I6
F-0.5
S'certain'
p1662
tp1663
a(I51
I0
F0.125
S'last'
p1664
tp1665
a(I55
I0
F-0.5
g617
tp1666
a(I57
I2
F1.0
S'good'
p1667
tp1668
a(I60
I10
F0.375
g838
tp1669
a(I60
I10
F0.375
g840
tp1670
a(I63
I0
F-0.625
g235
tp1671
a(I63
I10
F0.375
g842
tp1672
a(I63
I11
F0.375
g844
tp1673
a(I68
I3
F0.375
g239
tp1674
a(I70
I2
F0.375
g846
tp1675
a(I71
I21
F0.375
g848
tp1676
a(I71
I30
F0.875
S'nice'
p1677
tp1678
a(I72
I9
F-0.625
g1240
tp1679
a(I73
I1
F0.5
g243
tp1680
a(I73
I1
F0.375
g249
tp1681
a(I73
I1
F0.375
g251
tp1682
a(I73
I2
F0.375
S'extended'
p1683
tp1684
a(I73
I3
I0
S'lightweight'
p1685
tp1686
a(I74
I4
F0.5
S'told'
p1687
tp1688
a(I76
I3
F1.0
g253
tp1689
a(I76
I15
F0.375
g853
tp1690
a(I76
I16
F0.75
S'worth'
p1691
tp1692
a(I76
I17
F1.0
S'better'
p1693
tp1694
a(I77
I8
F-0.375
g255
tp1695
a(I80
I0
F0.75
S'due'
p1696
tp1697
a(I80
I4
F-0.75
S'dead'
p1698
tp1699
a(I81
I4
I0
S'great'
p1700
tp1701
a(I81
I5
I0
S'toggle'
p1702
tp1703
a(I83
I43
F0.25
S'powerful'
p1704
tp1705
a(I86
I1
F-0.75
S'dead'
p1706
tp1707
a(I86
I3
F-0.875
g257
tp1708
a(I86
I4
F1.0
g259
tp1709
a(I86
I4
I0
g261
tp1710
a(I86
I4
F-0.75
g263
tp1711
a(I91
I9
F-0.25
g269
tp1712
a(I95
I3
F-0.625
g1262
tp1713
a(I95
I4
F0.375
g855
tp1714
a(I95
I12
F0.375
g1390
tp1715
a(I99
I5
F-0.75
S'worse'
p1716
tp1717
a(I104
I6
F-0.5
S'less'
p1718
tp1719
a(I104
I20
I0
S'big'
p1720
tp1721
a(I107
I0
F-0.875
g275
tp1722
a(I108
I14
F0.375
g857
tp1723
a(I108
I14
F0.375
g859
tp1724
a(I109
I3
F-0.625
g277
tp1725
a(I110
I3
F0.375
S'extra'
p1726
tp1727
a(I113
I4
F1.0
g1059
tp1728
a(I114
I91
F1.0
g1271
tp1729
a(I114
I91
I0
g1273
tp1730
a(I115
I0
F-0.5
g279
tp1731
a(I115
I8
F-0.5
S'regular'
p1732
tp1733
a(I116
I13
I0
g1276
tp1734
a(I116
I13
F0.5
g1278
tp1735
a(I117
I18
F1.0
S'better'
p1736
tp1737
a(I117
I18
I0
S'great'
p1738
tp1739
a(I119
I3
F-0.625
g1280
tp1740
a(I121
I7
F0.25
S'bigger'
p1741
tp1742
a(I121
I8
I0
S'more'
p1743
tp1744
a(I125
I5
F0.25
g281
tp1745
a(I125
I16
F0.125
g283
tp1746
a(I125
I28
F0.375
S'extra'
p1747
tp1748
a(I127
I1
F-0.75
g478
tp1749
a(I128
I0
F-0.75
g287
tp1750
a(I128
I7
I0
S'old'
p1751
tp1752
a(I133
I0
F0.375
g861
tp1753
a(I139
I1
F-0.5
g481
tp1754
a(I139
I3
F0.625
g1294
tp1755
a(I142
I2
F-0.75
S'dead'
p1756
tp1757
a(I143
I17
F0.25
S'original'
p1758
tp1759
a(I144
I9
F0.375
g863
tp1760
a(I147
I3
I0
g297
tp1761
a(I150
I7
F1.0
g1062
tp1762
a(I150
I8
F0.375
g865
tp1763
a(I150
I9
I0
g867
tp1764
a(I150
I9
F0.375
g869
tp1765
a(I150
I10
F0.375
g871
tp1766
a(I155
I4
F0.5
g1301
tp1767
a(I155
I4
F1.0
g1303
tp1768
a(I156
I25
F-0.75
g301
tp1769
a(I158
I1
F0.375
g873
tp1770
a(I159
I5
F-0.75
S'dead'
p1771
tp1772
a(I160
I22
F0.5
g303
tp1773
a(I161
I3
F0.375
g875
tp1774
a(I161
I3
F0.375
g877
tp1775
a(I163
I0
I0
g307
tp1776
a(I164
I1
F-0.75
S'dead'
p1777
tp1778
a(I165
I0
F-0.25
g309
tp1779
a(I166
I8
F-0.5
S'less'
p1780
tp1781
a(I166
I26
F0.125
g313
tp1782
a(I168
I9
F-0.75
S'dead'
p1783
tp1784
a(I168
I17
I0
S'close'
p1785
tp1786
a(I168
I40
F-0.25
S'low'
p1787
tp1788
a(I175
I13
F-0.375
S'pull'
p1789
tp1790
a(I176
I3
F0.125
S'last'
p1791
tp1792
a(I176
I3
I0
S'active'
p1793
tp1794
a(I176
I5
F-0.5
g879
tp1795
a(I176
I5
F0.375
g881
tp1796
a(I178
I8
F0.375
g883
tp1797
a(I183
I5
I0
g885
tp1798
a(I183
I13
F0.125
g1315
tp1799
a(I185
I0
I0
S'least'
p1800
tp1801
a(I185
I0
F0.375
S'significant'
p1802
tp1803
a(I187
I4
I0
S'faster'
p1804
tp1805
a(I187
I4
F-0.5
S'weak'
p1806
tp1807
a(I189
I8
I0
S'most'
p1808
tp1809
a(I194
I1
F-0.625
S'bad'
p1810
tp1811
a(I194
I2
F0.375
S'much'
p1812
tp1813
a(I195
I3
F-0.75
S'dead'
p1814
tp1815
a(I195
I5
F-0.75
S'dead'
p1816
tp1817
a(I196
I1
I0
g331
tp1818
a(I199
I8
F0.375
S'extra'
p1819
tp1820
a(I199
I15
F0.25
S'larger'
p1821
tp1822
a(I203
I10
F-0.5
S'less'
p1823
tp1824
a(I203
I13
F-0.125
g335
tp1825
a(I207
I0
I0
S'fast'
p1826
tp1827
as(S'with'
p1828
S'moderate'
p1829
S'use'
p1830
tp1831
(lp1832
(I8
I3
F-0.625
S'moderate'
p1833
tp1834
a(I37
I19
F-0.625
S'moderate'
p1835
tp1836
a(I115
I5
F-0.5
S'heavy'
p1837
tp1838
a(I143
I16
F-0.625
S'light'
p1839
tp1840
a(I143
I16
F-0.5
S'heavy'
p1841
tp1842
a(I163
I1
F-0.625
S'moderate'
p1843
tp1844
a(I199
I14
F-0.5
S'heavy'
p1845
tp1846
as(S'calls'
p1847
tp1848
(lp1849
(I15
I7
F-0.5
S'sure'
p1850
tp1851
a(I16
I4
F0.375
S'alive'
p1852
tp1853
a(I56
I2
F0.5
S'clear'
p1854
tp1855
a(I185
I12
F0.125
S'first'
p1856
tp1857
a(I189
I5
F-0.5
S'longer'
p1858
tp1859
as(S'update'
p1860
tp1861
(lp1862
(I31
I0
F0.125
S'last'
p1863
tp1864
a(I35
I15
I0
S'latest'
p1865
tp1866
a(I35
I15
I0
S'many'
p1867
tp1868
a(I60
I31
F0.25
S'recent'
p1869
tp1870
a(I74
I5
F0.125
S'able'
p1871
tp1872
a(I74
I5
I0
S'update'
p1873
tp1874
a(I99
I0
F0.125
S'last'
p1875
tp1876
a(I117
I5
F-0.875
S'trouble'
p1877
tp1878
a(I164
I8
F0.125
S'last'
p1879
tp1880
a(I164
I8
F0.125
S'meaningful'
p1881
tp1882
a(I187
I0
F0.125
S'last'
p1883
tp1884
as(g896
S'car'
p1885
S'charger'
p1886
tp1887
(lp1888
(I125
I28
I0
S'least'
p1889
tp1890
a(I142
I25
F-0.5
S'sure'
p1891
tp1892
a(I142
I25
F0.125
S'capable'
p1893
tp1894
a(I148
I2
F-0.75
S'dead'
p1895
tp1896
as(S'pretty'
p1897
tp1898
(lp1899
(I114
I18
I0
S'signal'
p1900
tp1901
as(S'time'
p1902
tp1903
(lp1904
(I3
I25
F-0.25
S'plug'
p1905
tp1906
a(I6
I6
F-0.5
g901
tp1907
a(I6
I6
F-0.5
g903
tp1908
a(I8
I1
F0.375
S'prime'
p1909
tp1910
a(I9
I21
I0
S'same'
p1911
tp1912
a(I16
I0
F-0.5
g905
tp1913
a(I19
I7
F0.625
S'convenient'
p1914
tp1915
a(I23
I9
I0
S'same'
p1916
tp1917
a(I28
I4
F0.5
S'second'
p1918
tp1919
a(I28
I4
F0.125
S'first'
p1920
tp1921
a(I28
I4
F0.5
S'second'
p1922
tp1923
a(I28
I4
F-0.625
S'other'
p1924
tp1925
a(I28
I4
F-0.625
S'other'
p1926
tp1927
a(I43
I14
I0
S'same'
p1928
tp1929
a(I46
I3
F1.0
S'good'
p1930
tp1931
a(I52
I0
F-0.25
S'past'
p1932
tp1933
a(I56
I6
I0
S'same'
p1934
tp1935
a(I56
I10
F-0.5
S'sure'
p1936
tp1937
a(I60
I3
F-0.375
S'wear'
p1938
tp1939
a(I60
I22
F-0.25
S'ready'
p1940
tp1941
a(I63
I2
F0.125
S'first'
p1942
tp1943
a(I66
I5
I0
S'more'
p1944
tp1945
a(I71
I30
I0
S'same'
p1946
tp1947
a(I73
I6
F-0.5
g907
tp1948
a(I74
I18
F0.375
S'mean'
p1949
tp1950
a(I74
I32
F-0.5
g909
tp1951
a(I83
I13
F-0.5
g911
tp1952
a(I88
I10
I0
S'same'
p1953
tp1954
a(I92
I12
F0.125
S'first'
p1955
tp1956
a(I93
I6
F0.375
S'mean'
p1957
tp1958
a(I102
I0
I0
S'most'
p1959
tp1960
a(I104
I18
I0
S'most'
p1961
tp1962
a(I108
I17
F0.5
S'whole'
p1963
tp1964
a(I112
I1
F0.875
S'happy'
p1965
tp1966
a(I114
I4
F0.125
S'last'
p1967
tp1968
a(I114
I11
F0.125
S'last'
p1969
tp1970
a(I114
I11
F0.125
S'able'
p1971
tp1972
a(I114
I13
I0
S'extensive'
p1973
tp1974
a(I114
I15
I0
S'most'
p1975
tp1976
a(I114
I116
I0
S'more'
p1977
tp1978
a(I115
I0
I0
S'big'
p1979
tp1980
a(I116
I23
I0
S'same'
p1981
tp1982
a(I116
I33
F0.5
S'flat'
p1983
tp1984
a(I120
I1
I0
S'same'
p1985
tp1986
a(I124
I4
F0.125
S'enough'
p1987
tp1988
a(I135
I6
I0
S'most'
p1989
tp1990
a(I135
I6
F0.875
S'lucky'
p1991
tp1992
a(I135
I8
F0.5
S'second'
p1993
tp1994
a(I135
I9
I0
S'most'
p1995
tp1996
a(I141
I2
I0
S'same'
p1997
tp1998
a(I149
I7
I0
S'considerable'
p1999
tp2000
a(I149
I11
I0
S'different'
p2001
tp2002
a(I154
I4
F-0.75
S'difficult'
p2003
tp2004
a(I154
I8
F-0.875
S'hard'
p2005
tp2006
a(I155
I10
I0
S'reappear'
p2007
tp2008
a(I155
I14
F0.125
S'first'
p2009
tp2010
a(I155
I16
I0
S'same'
p2011
tp2012
a(I157
I3
I0
S'same'
p2013
tp2014
a(I157
I3
F0.625
S'necessary'
p2015
tp2016
a(I166
I10
F0.5
S'second'
p2017
tp2018
a(I168
I28
F0.125
S'first'
p2019
tp2020
a(I171
I11
I0
S'current'
p2021
tp2022
a(I171
I21
F0.25
S'familiar'
p2023
tp2024
a(I203
I15
F-0.5
g913
tp2025
a(I203
I16
F1.0
S'good'
p2026
tp2027
as(S'of'
p2028
S'battery'
p2029
S'life'
p2030
tp2031
(lp2032
(I15
I10
F0.375
g219
tp2033
a(I16
I9
F-0.625
g223
tp2034
a(I24
I0
F-0.5
g469
tp2035
a(I26
I3
F0.75
g1223
tp2036
a(I33
I2
F-0.625
g227
tp2037
a(I35
I11
F1.0
g229
tp2038
a(I35
I24
I0
g231
tp2039
a(I50
I3
F1.0
g233
tp2040
a(I55
I0
F-0.5
g617
tp2041
a(I63
I0
F-0.625
g235
tp2042
a(I68
I3
F0.375
g239
tp2043
a(I86
I4
F1.0
g259
tp2044
a(I86
I4
I0
g261
tp2045
a(I86
I4
F-0.75
g263
tp2046
a(I89
I15
F-0.25
g265
tp2047
a(I95
I3
F-0.625
g1262
tp2048
a(I104
I1
I0
g273
tp2049
a(I114
I91
F1.0
g1271
tp2050
a(I114
I91
I0
g1273
tp2051
a(I126
I1
F-0.875
g285
tp2052
a(I150
I7
F1.0
g1062
tp2053
a(I153
I2
F0.5
g299
tp2054
a(I161
I1
F-0.75
g305
tp2055
a(I165
I0
F-0.25
g309
tp2056
a(I166
I23
F-0.625
g311
tp2057
a(I166
I26
F0.125
g313
tp2058
a(I167
I1
F0.5
g428
tp2059
a(I168
I7
I0
g430
tp2060
a(I187
I1
F-0.5
g317
tp2061
a(I195
I17
I0
g325
tp2062
a(I195
I17
F-0.5
g327
tp2063
a(I195
I17
F0.375
g329
tp2064
a(I196
I1
I0
g331
tp2065
as(S'verizon'
p2066
S'store'
p2067
tp2068
(lp2069
(I65
I1
I0
g157
tp2070
a(I114
I12
I0
g1371
tp2071
a(I161
I0
I0
g191
tp2072
as(S'months'
p2073
tp2074
(lp2075
(I23
I1
I0
S'next'
p2076
tp2077
a(I40
I3
F-0.25
S'tear'
p2078
tp2079
a(I60
I0
F-0.5
S'longer'
p2080
tp2081
a(I62
I7
I0
S'next'
p2082
tp2083
a(I62
I7
I0
S'few'
p2084
tp2085
a(I82
I18
I0
S'update'
p2086
tp2087
a(I91
I0
I0
S'few'
p2088
tp2089
a(I100
I5
I0
S'few'
p2090
tp2091
a(I114
I123
I0
S'few'
p2092
tp2093
a(I135
I22
I0
S'later'
p2094
tp2095
a(I155
I2
F0.125
S'first'
p2096
tp2097
a(I155
I2
I0
S'few'
p2098
tp2099
a(I155
I6
F-0.25
S'past'
p2100
tp2101
a(I155
I6
I0
S'few'
p2102
tp2103
a(I164
I11
I0
S'few'
p2104
tp2105
as(S'1'
p2106
S'2'
p2107
S'hours'
p2108
tp2109
(lp2110
(I176
I3
I0
g98
tp2111
as(S'4g'
p2112
S'lte'
p2113
tp2114
(lp2115
(I50
I3
F-0.25
S'device'
p2116
tp2117
a(I57
I2
F0.375
S'available'
p2118
tp2119
a(I114
I41
I0
S'mobile'
p2120
tp2121
a(I154
I11
F0.375
g1051
tp2122
as(S'every'
p2123
S'time'
p2124
tp2125
(lp2126
(I3
I25
F-0.25
g1905
tp2127
a(I23
I9
I0
g1916
tp2128
a(I28
I4
F0.5
g1918
tp2129
a(I28
I4
F0.125
g1920
tp2130
a(I28
I4
F0.5
g1922
tp2131
a(I28
I4
F-0.625
g1924
tp2132
a(I28
I4
F-0.625
g1926
tp2133
a(I52
I0
F-0.25
g1932
tp2134
a(I114
I13
I0
g1973
tp2135
a(I149
I11
I0
g2001
tp2136
as(S'4g'
p2137
S'network'
p2138
tp2139
(lp2140
(I60
I9
F-0.5
g941
tp2141
a(I82
I10
F0.375
g949
tp2142
a(I114
I25
I0
g953
tp2143
as(S'screen'
p2144
tp2145
(lp2146
(I2
I1
F-0.375
S'smaller'
p2147
tp2148
a(I4
I14
F1.0
S'good'
p2149
tp2150
a(I4
I14
F0.25
S'biggest'
p2151
tp2152
a(I6
I7
F0.25
S'responsive'
p2153
tp2154
a(I11
I1
F-0.625
S'other'
p2155
tp2156
a(I16
I5
I0
S'big'
p2157
tp2158
a(I23
I16
F-0.75
S'bright'
p2159
tp2160
a(I23
I20
F0.125
g204
tp2161
a(I23
I20
F-0.5
g206
tp2162
a(I23
I22
F0.625
S'attributable'
p2163
tp2164
a(I23
I55
I0
S'wish'
p2165
tp2166
a(I23
I55
I0
S'entire'
p2167
tp2168
a(I23
I55
F-0.625
S'bad'
p2169
tp2170
a(I31
I4
I0
S'great'
p2171
tp2172
a(I32
I14
F0.5
S'touch'
p2173
tp2174
a(I35
I10
I0
S'big'
p2175
tp2176
a(I37
I22
F-0.75
S'brightest'
p2177
tp2178
a(I39
I3
I0
S'big'
p2179
tp2180
a(I42
I0
I0
g208
tp2181
a(I43
I30
F0.875
S'nice'
p2182
tp2183
a(I46
I7
I0
S'large'
p2184
tp2185
a(I48
I2
I0
S'large'
p2186
tp2187
a(I54
I1
I0
S'big'
p2188
tp2189
a(I55
I1
F0.875
S'nice'
p2190
tp2191
a(I60
I11
F0.25
S'bigger'
p2192
tp2193
a(I60
I19
I0
S'big'
p2194
tp2195
a(I60
I19
F0.75
S'beautiful'
p2196
tp2197
a(I64
I0
I0
S'big'
p2198
tp2199
a(I71
I17
I0
S'capacitive'
p2200
tp2201
a(I71
I17
F0.125
S'equal'
p2202
tp2203
a(I71
I26
F0.25
S'bigger'
p2204
tp2205
a(I73
I5
I0
S'large'
p2206
tp2207
a(I73
I5
F0.875
S'nice'
p2208
tp2209
a(I74
I18
F0.25
S'responsive'
p2210
tp2211
a(I76
I11
F0.75
S'beautiful'
p2212
tp2213
a(I78
I7
I0
S'big'
p2214
tp2215
a(I78
I7
F-0.75
S'bright'
p2216
tp2217
a(I89
I5
F-0.375
S'small'
p2218
tp2219
a(I91
I2
I0
S'big'
p2220
tp2221
a(I92
I16
F-0.375
g212
tp2222
a(I94
I0
F0.25
S'larger'
p2223
tp2224
a(I94
I0
F0.25
S'larger'
p2225
tp2226
a(I95
I1
I0
S'big'
p2227
tp2228
a(I95
I1
F0.5
S'clear'
p2229
tp2230
a(I95
I1
F0.25
S'responsive'
p2231
tp2232
a(I104
I25
F0.25
S'bigger'
p2233
tp2234
a(I108
I15
F0.5
S'touch'
p2235
tp2236
a(I108
I15
I0
S'sensitive'
p2237
tp2238
a(I114
I49
I0
S'big'
p2239
tp2240
a(I114
I49
F-0.75
S'bright'
p2241
tp2242
a(I114
I49
F0.75
S'beautiful'
p2243
tp2244
a(I114
I50
I0
S'latest'
p2245
tp2246
a(I116
I29
F0.5
S'touch'
p2247
tp2248
a(I118
I7
F0.5
S'touch'
p2249
tp2250
a(I121
I3
F0.5
S'touch'
p2251
tp2252
a(I125
I12
I0
S'standard'
p2253
tp2254
a(I133
I11
I0
S'big'
p2255
tp2256
a(I133
I11
F0.375
S'new'
p2257
tp2258
a(I133
I11
F0.5
S'whole'
p2259
tp2260
a(I140
I4
I0
S'big'
p2261
tp2262
a(I140
I4
F0.625
S'easy'
p2263
tp2264
a(I142
I27
F-0.25
S'plugged'
p2265
tp2266
a(I153
I1
I0
S'large'
p2267
tp2268
a(I156
I4
F0.5
S'touch'
p2269
tp2270
a(I156
I25
I0
S'legible'
p2271
tp2272
a(I156
I25
F1.0
S'good'
p2273
tp2274
a(I160
I17
F0.25
S'larger'
p2275
tp2276
a(I160
I17
F0.875
S'nice'
p2277
tp2278
a(I164
I13
F0.5
S'clear'
p2279
tp2280
a(I166
I3
I0
S'large'
p2281
tp2282
a(I166
I3
I0
S'big'
p2283
tp2284
a(I175
I5
F-0.75
S'tough'
p2285
tp2286
a(I175
I7
F0.625
S'washed'
p2287
tp2288
a(I176
I2
I0
S'large'
p2289
tp2290
a(I178
I15
F0.25
S'larger'
p2291
tp2292
a(I180
I2
I0
S'wide'
p2293
tp2294
a(I180
I2
I0
S'quick'
p2295
tp2296
a(I183
I11
F0.5
S'clear'
p2297
tp2298
a(I185
I15
F-0.25
S'lower'
p2299
tp2300
a(I186
I3
I0
S'incredible'
p2301
tp2302
a(I186
I4
F0.5
S'touch'
p2303
tp2304
a(I187
I3
F0.875
S'nice'
p2305
tp2306
a(I189
I8
F0.625
S'responsible'
p2307
tp2308
a(I189
I25
F0.25
S'larger'
p2309
tp2310
a(I190
I3
F0.75
S'beautiful'
p2311
tp2312
a(I193
I0
I0
S'big'
p2313
tp2314
a(I195
I11
I0
S'large'
p2315
tp2316
a(I196
I0
F0.75
S'beautiful'
p2317
tp2318
a(I198
I1
F0.5
S'rid'
p2319
tp2320
a(I203
I9
F0.5
S'touch'
p2321
tp2322
a(I203
I9
F-0.625
S'light'
p2323
tp2324
as(S'camera'
p2325
tp2326
(lp2327
(I11
I24
F-0.5
S'separate'
p2328
tp2329
a(I21
I0
I0
S'same'
p2330
tp2331
a(I21
I0
F0.875
S'nice'
p2332
tp2333
a(I21
I0
F0.875
S'nice'
p2334
tp2335
a(I54
I2
I0
S'great'
p2336
tp2337
a(I54
I2
F0.125
S'able'
p2338
tp2339
a(I60
I34
F0.875
S'nice'
p2340
tp2341
a(I60
I35
I0
S'most'
p2342
tp2343
a(I69
I3
F-0.5
S'regular'
p2344
tp2345
a(I69
I3
I0
S'more'
p2346
tp2347
a(I71
I18
F0.125
S'digital'
p2348
tp2349
a(I83
I29
I0
S'rear'
p2350
tp2351
a(I106
I1
F1.0
S'good'
p2352
tp2353
a(I118
I5
F-0.625
S'quite'
p2354
tp2355
a(I144
I10
I0
S'great'
p2356
tp2357
a(I144
I10
F-0.625
S'bad'
p2358
tp2359
a(I144
I11
F0.875
S'nice'
p2360
tp2361
a(I153
I2
I0
S'faster'
p2362
tp2363
a(I155
I10
F0.75
S'worth'
p2364
tp2365
a(I189
I18
I0
S'useful'
p2366
tp2367
a(I198
I0
I0
S'great'
p2368
tp2369
a(I203
I5
F1.0
S'good'
p2370
tp2371
a(I203
I34
F1.0
S'better'
p2372
tp2373
as(S'using'
p2374
tp2375
(lp2376
(I3
I13
F-0.75
S'comfortable'
p2377
tp2378
a(I189
I17
I0
S'quick'
p2379
tp2380
as(S'to'
p2381
S'save'
p2382
S'battery'
p2383
tp2384
(lp2385
(I81
I5
I0
g1702
tp2386
a(I147
I3
I0
g297
tp2387
a(I166
I26
F0.125
g313
tp2388
as(g896
S'full'
p2389
S'charge'
p2390
tp2391
(lp2392
(I16
I3
I0
g373
tp2393
a(I44
I2
I0
g377
tp2394
a(I47
I9
I0
g379
tp2395
a(I63
I8
I0
g381
tp2396
a(I108
I16
I0
g385
tp2397
a(I203
I11
I0
g391
tp2398
a(I203
I15
I0
g393
tp2399
as(S'lte'
p2400
S'network'
p2401
tp2402
(lp2403
(I62
I3
I0
g943
tp2404
a(I71
I4
F0.375
S'new'
p2405
tp2406
a(I97
I11
I0
g951
tp2407
a(I97
I11
F0.125
S'solid'
p2408
tp2409
a(I114
I118
F-0.625
g955
tp2410
a(I142
I10
I0
S'fastest'
p2411
tp2412
a(I154
I11
F0.375
g1051
tp2413
as(S'extended'
p2414
S'battery'
p2415
tp2416
(lp2417
(I0
I21
F0.375
g824
tp2418
a(I6
I6
F0.125
g826
tp2419
a(I6
I11
I0
g828
tp2420
a(I15
I10
F0.375
g219
tp2421
a(I23
I22
F0.125
g1629
tp2422
a(I23
I22
F-0.5
g1631
tp2423
a(I23
I24
F0.375
g831
tp2424
a(I35
I11
F1.0
g229
tp2425
a(I43
I12
F0.375
g834
tp2426
a(I43
I37
F0.375
g836
tp2427
a(I60
I10
F0.375
g838
tp2428
a(I60
I10
F0.375
g840
tp2429
a(I63
I10
F0.375
g842
tp2430
a(I63
I11
F0.375
g844
tp2431
a(I70
I2
F0.375
g846
tp2432
a(I71
I21
F0.375
g848
tp2433
a(I73
I1
F0.5
g243
tp2434
a(I73
I1
F0.375
g249
tp2435
a(I73
I1
F0.375
g251
tp2436
a(I73
I2
F0.375
g1683
tp2437
a(I76
I15
F0.375
g853
tp2438
a(I95
I4
F0.375
g855
tp2439
a(I95
I12
F0.375
g1390
tp2440
a(I108
I14
F0.375
g857
tp2441
a(I108
I14
F0.375
g859
tp2442
a(I133
I0
F0.375
g861
tp2443
a(I144
I9
F0.375
g863
tp2444
a(I150
I8
F0.375
g865
tp2445
a(I150
I9
I0
g867
tp2446
a(I150
I9
F0.375
g869
tp2447
a(I150
I10
F0.375
g871
tp2448
a(I158
I1
F0.375
g873
tp2449
a(I161
I3
F0.375
g875
tp2450
a(I161
I3
F0.375
g877
tp2451
a(I176
I5
F-0.5
g879
tp2452
a(I176
I5
F0.375
g881
tp2453
a(I178
I8
F0.375
g883
tp2454
a(I183
I5
I0
g885
tp2455
as(S'for'
p2456
S'htc'
p2457
S'thunderbolt'
p2458
tp2459
(lp2460
(I23
I42
I0
g437
tp2461
a(I28
I3
I0
g439
tp2462
a(I35
I18
I0
g441
tp2463
a(I71
I4
F0.375
g447
tp2464
a(I118
I9
F-0.625
g453
tp2465
a(I119
I6
F-0.5
g455
tp2466
a(I128
I1
I0
g457
tp2467
as(S'htc'
p2468
S'sense'
p2469
tp2470
(lp2471
(I52
I0
F-0.625
S'threw'
p2472
tp2473
a(I82
I17
F0.375
S'new'
p2474
tp2475
a(I82
I17
I0
S'gingerbread'
p2476
tp2477
a(I86
I6
I0
S'common'
p2478
tp2479
a(I97
I1
I0
S'quick'
p2480
tp2481
a(I97
I1
F0.25
S'responsive'
p2482
tp2483
a(I185
I11
F0.625
S'easy'
p2484
tp2485
as(S'people'
p2486
tp2487
(lp2488
(I5
I1
I0
S'big'
p2489
tp2490
a(I5
I1
F-0.5
S'heavy'
p2491
tp2492
a(I5
I1
I0
S'many'
p2493
tp2494
a(I12
I2
F-0.75
S'wrong'
p2495
tp2496
a(I12
I4
F-0.75
S'wrong'
p2497
tp2498
a(I15
I4
I0
S'most'
p2499
tp2500
a(I32
I6
F0.875
S'nice'
p2501
tp2502
a(I57
I2
F-0.625
S'other'
p2503
tp2504
a(I58
I3
F-0.25
S'unhelpful'
p2505
tp2506
a(I62
I5
I0
S'more'
p2507
tp2508
a(I83
I38
I0
S'most'
p2509
tp2510
a(I90
I3
I0
S'many'
p2511
tp2512
a(I92
I2
I0
S'many'
p2513
tp2514
a(I93
I6
F-0.625
S'other'
p2515
tp2516
a(I106
I3
I0
S'many'
p2517
tp2518
a(I114
I105
I0
S'tinny'
p2519
tp2520
a(I116
I2
I0
S'most'
p2521
tp2522
a(I116
I2
F-0.5
S'sure'
p2523
tp2524
a(I121
I1
F-0.625
S'other'
p2525
tp2526
a(I121
I2
F-0.625
S'other'
p2527
tp2528
a(I125
I6
I0
S'many'
p2529
tp2530
a(I140
I10
I0
S'different'
p2531
tp2532
a(I146
I2
I0
S'many'
p2533
tp2534
a(I146
I2
F-0.75
S'sad'
p2535
tp2536
a(I151
I1
F-0.75
S'wrong'
p2537
tp2538
a(I155
I2
F-0.25
S'hang'
p2539
tp2540
a(I155
I14
F0.125
S'enough'
p2541
tp2542
a(I155
I14
F-0.625
S'other'
p2543
tp2544
a(I162
I3
F0.125
S'charger'
p2545
tp2546
a(I179
I11
F-0.375
S'bitter'
p2547
tp2548
a(I180
I2
F-0.625
S'bad'
p2549
tp2550
a(I198
I2
I0
S'many'
p2551
tp2552
as(S'going'
p2553
S'to'
p2554
S'use'
p2555
tp2556
(lp2557
(I15
I6
F0.375
g653
tp2558
as(S'think'
p2559
tp2560
(lp2561
(I114
I115
F-0.5
S'sure'
p2562
tp2563
as(g896
S'big'
p2564
S'deal'
p2565
tp2566
(lp2567
(I8
I3
I0
S'big'
p2568
tp2569
a(I9
I22
I0
S'big'
p2570
tp2571
a(I71
I18
I0
S'big'
p2572
tp2573
a(I75
I2
I0
S'big'
p2574
tp2575
a(I89
I8
I0
S'big'
p2576
tp2577
a(I89
I14
I0
S'big'
p2578
tp2579
a(I94
I2
I0
S'such'
p2580
tp2581
a(I94
I2
I0
S'big'
p2582
tp2583
a(I109
I4
I0
S'big'
p2584
tp2585
a(I205
I19
I0
S'big'
p2586
tp2587
as(g896
S'3g'
p2588
S'area'
p2589
tp2590
(lp2591
(I65
I5
F-0.75
g1202
tp2592
as(S'store'
p2593
tp2594
(lp2595
(I87
I3
F0.5
S'true'
p2596
tp2597
a(I114
I12
I0
g1371
tp2598
a(I168
I36
I0
S'useful'
p2599
tp2600
as(S'better'
p2601
tp2602
(lp2603
(I47
I7
F0.375
S'much'
p2604
tp2605
a(I60
I22
I0
S'stride'
p2606
tp2607
a(I89
I5
F0.375
S'much'
p2608
tp2609
a(I115
I10
F0.375
S'much'
p2610
tp2611
a(I137
I10
I0
S'many'
p2612
tp2613
a(I179
I6
F0.375
S'much'
p2614
tp2615
as(S'device'
p2616
tp2617
(lp2618
(I0
I5
F1.0
S'better'
p2619
tp2620
a(I19
I1
I0
S'electronic'
p2621
tp2622
a(I32
I12
I0
S'great'
p2623
tp2624
a(I50
I9
F1.0
S'better'
p2625
tp2626
a(I111
I17
I0
S'great'
p2627
tp2628
a(I114
I98
F0.625
S'superior'
p2629
tp2630
a(I124
I0
I0
S'electronic'
p2631
tp2632
a(I124
I4
F0.5
S'whole'
p2633
tp2634
a(I124
I8
F-0.25
S'google'
p2635
tp2636
a(I128
I5
I0
S'attendant'
p2637
tp2638
a(I142
I15
I0
S'fastest'
p2639
tp2640
a(I152
I0
I0
S'fast'
p2641
tp2642
a(I166
I28
I0
S'same'
p2643
tp2644
a(I178
I15
F0.25
S'larger'
p2645
tp2646
a(I178
I22
F0.125
S'first'
p2647
tp2648
a(I190
I3
I0
S'old'
p2649
tp2650
a(I195
I13
F0.5
S'expensive'
p2651
tp2652
as(S'home'
p2653
tp2654
(lp2655
(I43
I25
I0
g1111
tp2656
a(I46
I24
I0
g210
tp2657
a(I49
I8
I0
g1113
tp2658
a(I77
I13
I0
S'drop-kicked'
p2659
tp2660
a(I185
I3
I0
g1115
tp2661
as(S'call'
p2662
tp2663
(lp2664
(I72
I8
F-0.625
g71
tp2665
a(I135
I1
F0.875
g83
tp2666
a(I135
I5
F0.125
S'first'
p2667
tp2668
a(I135
I5
I0
S'signal'
p2669
tp2670
a(I137
I7
F-0.75
S'single'
p2671
tp2672
a(I137
I7
F-0.25
S'dropped'
p2673
tp2674
a(I189
I5
I0
S'funny'
p2675
tp2676
as(S'r'
p2677
S'battery'
p2678
tp2679
(lp2680
(I0
I21
F0.375
g824
tp2681
a(I0
I22
F1.0
g1601
tp2682
a(I0
I22
F0.875
g1603
tp2683
a(I4
I14
F0.375
g1605
tp2684
a(I5
I2
F-0.625
g1607
tp2685
a(I6
I6
F0.125
g826
tp2686
a(I6
I11
I0
g828
tp2687
a(I9
I5
F0.625
g1611
tp2688
a(I13
I3
F-0.5
g614
tp2689
a(I15
I8
F0.25
g1614
tp2690
a(I15
I9
F-0.5
g1616
tp2691
a(I15
I9
I0
g1618
tp2692
a(I15
I9
F0.125
g1620
tp2693
a(I15
I10
F0.375
g219
tp2694
a(I22
I3
F1.0
g1623
tp2695
a(I23
I11
F0.25
g1625
tp2696
a(I23
I20
I0
g1627
tp2697
a(I23
I22
F0.125
g1629
tp2698
a(I23
I22
F-0.5
g1631
tp2699
a(I23
I24
F0.375
g831
tp2700
a(I24
I0
F-0.5
g469
tp2701
a(I24
I6
F-0.75
g225
tp2702
a(I26
I4
I0
g1636
tp2703
a(I32
I17
I0
g1638
tp2704
a(I33
I2
F-0.625
g227
tp2705
a(I34
I1
I0
g1641
tp2706
a(I35
I11
F1.0
g229
tp2707
a(I37
I15
F-0.625
g1644
tp2708
a(I43
I3
F-0.875
g1646
tp2709
a(I43
I3
I0
g1648
tp2710
a(I43
I8
F1.0
g1650
tp2711
a(I43
I12
F0.375
g834
tp2712
a(I43
I15
F0.5
g1653
tp2713
a(I43
I16
I0
g1655
tp2714
a(I43
I37
F0.375
g836
tp2715
a(I44
I5
F0.5
g1658
tp2716
a(I44
I5
I0
g1660
tp2717
a(I49
I6
F-0.5
g1662
tp2718
a(I51
I0
F0.125
g1664
tp2719
a(I55
I0
F-0.5
g617
tp2720
a(I57
I2
F1.0
g1667
tp2721
a(I60
I10
F0.375
g838
tp2722
a(I60
I10
F0.375
g840
tp2723
a(I63
I0
F-0.625
g235
tp2724
a(I63
I10
F0.375
g842
tp2725
a(I63
I11
F0.375
g844
tp2726
a(I68
I3
F0.375
g239
tp2727
a(I70
I2
F0.375
g846
tp2728
a(I71
I21
F0.375
g848
tp2729
a(I71
I30
F0.875
g1677
tp2730
a(I72
I9
F-0.625
g1240
tp2731
a(I73
I1
F0.5
g243
tp2732
a(I73
I1
F0.375
g249
tp2733
a(I73
I1
F0.375
g251
tp2734
a(I73
I2
F0.375
g1683
tp2735
a(I73
I3
I0
g1685
tp2736
a(I74
I4
F0.5
g1687
tp2737
a(I76
I3
F1.0
g253
tp2738
a(I76
I15
F0.375
g853
tp2739
a(I76
I16
F0.75
g1691
tp2740
a(I76
I17
F1.0
g1693
tp2741
a(I77
I8
F-0.375
g255
tp2742
a(I80
I0
F0.75
g1696
tp2743
a(I80
I4
F-0.75
g1698
tp2744
a(I81
I4
I0
g1700
tp2745
a(I81
I5
I0
g1702
tp2746
a(I83
I43
F0.25
g1704
tp2747
a(I86
I1
F-0.75
g1706
tp2748
a(I86
I3
F-0.875
g257
tp2749
a(I86
I4
F1.0
g259
tp2750
a(I86
I4
I0
g261
tp2751
a(I86
I4
F-0.75
g263
tp2752
a(I91
I9
F-0.25
g269
tp2753
a(I95
I3
F-0.625
g1262
tp2754
a(I95
I4
F0.375
g855
tp2755
a(I95
I12
F0.375
g1390
tp2756
a(I99
I5
F-0.75
g1716
tp2757
a(I104
I6
F-0.5
g1718
tp2758
a(I104
I20
I0
g1720
tp2759
a(I107
I0
F-0.875
g275
tp2760
a(I108
I14
F0.375
g857
tp2761
a(I108
I14
F0.375
g859
tp2762
a(I109
I3
F-0.625
g277
tp2763
a(I110
I3
F0.375
g1726
tp2764
a(I113
I4
F1.0
g1059
tp2765
a(I114
I91
F1.0
g1271
tp2766
a(I114
I91
I0
g1273
tp2767
a(I115
I0
F-0.5
g279
tp2768
a(I115
I8
F-0.5
g1732
tp2769
a(I116
I13
I0
g1276
tp2770
a(I116
I13
F0.5
g1278
tp2771
a(I117
I18
F1.0
g1736
tp2772
a(I117
I18
I0
g1738
tp2773
a(I119
I3
F-0.625
g1280
tp2774
a(I121
I7
F0.25
g1741
tp2775
a(I121
I8
I0
g1743
tp2776
a(I125
I5
F0.25
g281
tp2777
a(I125
I16
F0.125
g283
tp2778
a(I125
I28
F0.375
g1747
tp2779
a(I127
I1
F-0.75
g478
tp2780
a(I128
I0
F-0.75
g287
tp2781
a(I128
I7
I0
g1751
tp2782
a(I133
I0
F0.375
g861
tp2783
a(I139
I1
F-0.5
g481
tp2784
a(I139
I3
F0.625
g1294
tp2785
a(I142
I2
F-0.75
g1756
tp2786
a(I143
I17
F0.25
g1758
tp2787
a(I144
I9
F0.375
g863
tp2788
a(I147
I3
I0
g297
tp2789
a(I150
I7
F1.0
g1062
tp2790
a(I150
I8
F0.375
g865
tp2791
a(I150
I9
I0
g867
tp2792
a(I150
I9
F0.375
g869
tp2793
a(I150
I10
F0.375
g871
tp2794
a(I155
I4
F0.5
g1301
tp2795
a(I155
I4
F1.0
g1303
tp2796
a(I156
I25
F-0.75
g301
tp2797
a(I158
I1
F0.375
g873
tp2798
a(I159
I5
F-0.75
g1771
tp2799
a(I160
I22
F0.5
g303
tp2800
a(I161
I3
F0.375
g875
tp2801
a(I161
I3
F0.375
g877
tp2802
a(I163
I0
I0
g307
tp2803
a(I164
I1
F-0.75
g1777
tp2804
a(I165
I0
F-0.25
g309
tp2805
a(I166
I8
F-0.5
g1780
tp2806
a(I166
I26
F0.125
g313
tp2807
a(I168
I9
F-0.75
g1783
tp2808
a(I168
I17
I0
g1785
tp2809
a(I168
I40
F-0.25
g1787
tp2810
a(I175
I13
F-0.375
g1789
tp2811
a(I176
I3
F0.125
g1791
tp2812
a(I176
I3
I0
g1793
tp2813
a(I176
I5
F-0.5
g879
tp2814
a(I176
I5
F0.375
g881
tp2815
a(I178
I8
F0.375
g883
tp2816
a(I183
I5
I0
g885
tp2817
a(I183
I13
F0.125
g1315
tp2818
a(I185
I0
I0
g1800
tp2819
a(I185
I0
F0.375
g1802
tp2820
a(I187
I4
I0
g1804
tp2821
a(I187
I4
F-0.5
g1806
tp2822
a(I189
I8
I0
g1808
tp2823
a(I194
I1
F-0.625
g1810
tp2824
a(I194
I2
F0.375
g1812
tp2825
a(I195
I3
F-0.75
g1814
tp2826
a(I195
I5
F-0.75
g1816
tp2827
a(I196
I1
I0
g331
tp2828
a(I199
I8
F0.375
g1819
tp2829
a(I199
I15
F0.25
g1821
tp2830
a(I203
I10
F-0.5
g1823
tp2831
a(I203
I13
F-0.125
g335
tp2832
a(I207
I0
I0
g1826
tp2833
as(S'verizon'
p2834
S"'s"
p2835
S'lte'
p2836
S'network'
p2837
tp2838
(lp2839
(I71
I4
F0.375
g2405
tp2840
a(I114
I118
F-0.625
g955
tp2841
a(I142
I10
I0
g2411
tp2842
as(S'much'
p2843
S'better'
p2844
tp2845
(lp2846
(I47
I7
F0.375
g2604
tp2847
a(I89
I5
F0.375
g2608
tp2848
a(I115
I10
F0.375
g2610
tp2849
a(I179
I6
F0.375
g2614
tp2850
as(S'verizon'
p2851
S'and'
p2852
S'htc'
p2853
tp2854
(lp2855
(I23
I2
I0
g153
tp2856
a(I62
I7
I0
g155
tp2857
a(I71
I4
F0.375
g447
tp2858
a(I118
I9
F-0.625
g453
tp2859
a(I166
I4
F-0.5
S'insane'
p2860
tp2861
a(I181
I5
F-0.375
g197
tp2862
as(S'charger'
p2863
tp2864
(lp2865
(I50
I4
F-0.25
S'plugged'
p2866
tp2867
a(I109
I6
I0
S'external'
p2868
tp2869
a(I125
I28
I0
g1889
tp2870
a(I148
I2
F-0.75
g1895
tp2871
a(I160
I8
I0
S'least'
p2872
tp2873
a(I178
I8
F0.25
S'portable'
p2874
tp2875
as(S'htc'
p2876
S'and'
p2877
S'verizon'
p2878
tp2879
(lp2880
(I23
I2
I0
g153
tp2881
a(I62
I7
I0
g155
tp2882
a(I71
I4
F0.375
g447
tp2883
a(I118
I9
F-0.625
g453
tp2884
a(I166
I4
F-0.5
g2860
tp2885
a(I181
I5
F-0.375
g197
tp2886
as(S'fast'
p2887
S'4g'
p2888
S'lte'
p2889
tp2890
(lp2891
(I57
I2
F0.375
g2118
tp2892
a(I60
I8
I0
g502
tp2893
as(S'apps'
p2894
tp2895
(lp2896
(I9
I20
I0
S'multiple'
p2897
tp2898
a(I11
I2
F0.375
S'new'
p2899
tp2900
a(I23
I8
I0
S'many'
p2901
tp2902
a(I23
I52
F-0.625
S'bad'
p2903
tp2904
a(I23
I52
I0
S'close'
p2905
tp2906
a(I32
I14
I0
S'great'
p2907
tp2908
a(I34
I1
I0
S'great'
p2909
tp2910
a(I37
I7
I0
S'more'
p2911
tp2912
a(I37
I7
F-0.625
S'free'
p2913
tp2914
a(I37
I17
F-0.625
S'other'
p2915
tp2916
a(I41
I4
F-0.625
S'other'
p2917
tp2918
a(I41
I4
I0
S'update'
p2919
tp2920
a(I43
I13
I0
S'many'
p2921
tp2922
a(I43
I13
F0.375
S'allow'
p2923
tp2924
a(I52
I0
F-0.375
S'locked'
p2925
tp2926
a(I54
I9
F-0.625
S'free'
p2927
tp2928
a(I60
I27
F1.0
S'good'
p2929
tp2930
a(I60
I27
F0.125
S'tolerable'
p2931
tp2932
a(I60
I27
F-0.875
S'worst'
p2933
tp2934
a(I60
I29
F-0.625
S'other'
p2935
tp2936
a(I67
I23
I0
S'basic'
p2937
tp2938
a(I70
I1
F-0.75
S'stupid'
p2939
tp2940
a(I71
I13
I0
S'fluid'
p2941
tp2942
a(I71
I27
F-0.375
S'smooth'
p2943
tp2944
a(I71
I28
F-0.5
S'certain'
p2945
tp2946
a(I71
I28
I0
S'such'
p2947
tp2948
a(I82
I5
I0
S'many'
p2949
tp2950
a(I95
I8
F0.375
S'extra'
p2951
tp2952
a(I103
I14
F-0.625
S'other'
p2953
tp2954
a(I103
I14
F-0.5
S'regular'
p2955
tp2956
a(I104
I9
I0
S'toggle'
p2957
tp2958
a(I104
I9
I0
S'needed'
p2959
tp2960
a(I108
I5
F-0.625
S'bad'
p2961
tp2962
a(I108
I5
F0.125
S'popular'
p2963
tp2964
a(I114
I58
F0.625
S'removable'
p2965
tp2966
a(I114
I77
I0
S'more'
p2967
tp2968
a(I114
I85
I0
S'different'
p2969
tp2970
a(I116
I8
F-0.625
S'free'
p2971
tp2972
a(I121
I4
F-0.5
S'less'
p2973
tp2974
a(I121
I13
F0.125
S'essential'
p2975
tp2976
a(I121
I26
I0
S'closer'
p2977
tp2978
a(I122
I4
I0
S'least'
p2979
tp2980
a(I123
I2
I0
S'wish'
p2981
tp2982
a(I141
I15
I0
S'many'
p2983
tp2984
a(I141
I15
F-0.625
S'free'
p2985
tp2986
a(I141
I15
F0.375
S'available'
p2987
tp2988
a(I141
I15
F0.625
S'easier'
p2989
tp2990
a(I142
I7
I0
S'unnecessary'
p2991
tp2992
a(I142
I9
I0
S'valuable'
p2993
tp2994
a(I142
I9
F-0.625
S'free'
p2995
tp2996
a(I149
I7
I0
S'only'
p2997
tp2998
a(I156
I7
F0.375
S'similar'
p2999
tp3000
a(I156
I24
F-0.625
S'free'
p3001
tp3002
a(I157
I11
F-0.375
S'simple'
p3003
tp3004
a(I157
I12
F1.0
S'good'
p3005
tp3006
a(I160
I7
I0
S'many'
p3007
tp3008
a(I163
I2
F0.375
S'available'
p3009
tp3010
a(I166
I24
F1.0
S'better'
p3011
tp3012
a(I168
I37
F0.875
S'nice'
p3013
tp3014
a(I176
I9
I0
S'great'
p3015
tp3016
a(I178
I9
I0
S'android'
p3017
tp3018
a(I183
I20
I0
S'such'
p3019
tp3020
a(I190
I4
F0.25
S'responsive'
p3021
tp3022
a(I196
I4
F0.375
S'allow'
p3023
tp3024
a(I203
I38
I0
S'many'
p3025
tp3026
a(I203
I38
I0
S'least'
p3027
tp3028
as(S'3'
p3029
g91
S'hours'
p3030
tp3031
(lp3032
(I100
I2
I0
g492
tp3033
as(S'days'
p3034
tp3035
(lp3036
(I15
I7
I0
S'more'
p3037
tp3038
a(I43
I18
I0
S'few'
p3039
tp3040
a(I71
I30
I0
S'great'
p3041
tp3042
a(I92
I4
I0
S'great'
p3043
tp3044
a(I92
I4
I0
S'most'
p3045
tp3046
a(I112
I1
I0
S'few'
p3047
tp3048
a(I112
I2
I0
S'few'
p3049
tp3050
a(I112
I2
I0
S'more'
p3051
tp3052
a(I115
I4
F0.125
S'solid'
p3053
tp3054
a(I129
I9
I0
S'later'
p3055
tp3056
a(I130
I5
F0.75
S'worth'
p3057
tp3058
a(I143
I0
F0.125
S'last'
p3059
tp3060
a(I143
I0
I0
S'few'
p3061
tp3062
a(I143
I21
F0.125
S'last'
p3063
tp3064
a(I143
I21
I0
S'few'
p3065
tp3066
a(I149
I10
I0
S'normal'
p3067
tp3068
a(I151
I4
I0
S'few'
p3069
tp3070
a(I195
I15
F0.625
S'aware'
p3071
tp3072
a(I203
I2
I0
S'few'
p3073
tp3074
a(I203
I2
I0
S'later'
p3075
tp3076
a(I203
I2
F0.75
S'due'
p3077
tp3078
as(S'f'
p3079
S'battery'
p3080
S'life'
p3081
tp3082
(lp3083
(I13
I3
F-0.5
g614
tp3084
a(I15
I10
F0.375
g219
tp3085
a(I15
I24
F0.375
g221
tp3086
a(I16
I9
F-0.625
g223
tp3087
a(I24
I0
F-0.5
g469
tp3088
a(I24
I6
F-0.75
g225
tp3089
a(I26
I3
F0.75
g1223
tp3090
a(I33
I2
F-0.625
g227
tp3091
a(I35
I6
F0.625
g1226
tp3092
a(I35
I11
F1.0
g229
tp3093
a(I35
I24
I0
g231
tp3094
a(I37
I19
F-0.25
g402
tp3095
a(I46
I29
F0.125
g404
tp3096
a(I50
I3
F1.0
g233
tp3097
a(I55
I0
F-0.5
g617
tp3098
a(I62
I8
F-0.625
g1234
tp3099
a(I63
I0
F-0.625
g235
tp3100
a(I67
I22
F-0.75
g237
tp3101
a(I68
I3
F0.375
g239
tp3102
a(I71
I19
F0.5
g241
tp3103
a(I72
I9
F-0.625
g1240
tp3104
a(I73
I1
F0.5
g243
tp3105
a(I73
I1
F-0.5
g245
tp3106
a(I73
I1
F0.25
g247
tp3107
a(I73
I1
F0.375
g249
tp3108
a(I73
I1
F0.375
g251
tp3109
a(I76
I1
F-0.875
g1247
tp3110
a(I76
I3
F1.0
g253
tp3111
a(I77
I8
F-0.375
g255
tp3112
a(I78
I0
F-0.625
g1251
tp3113
a(I83
I2
F-0.625
g1253
tp3114
a(I86
I3
F-0.875
g257
tp3115
a(I86
I4
F1.0
g259
tp3116
a(I86
I4
I0
g261
tp3117
a(I86
I4
F-0.75
g263
tp3118
a(I89
I15
F-0.25
g265
tp3119
a(I91
I8
F1.0
g267
tp3120
a(I91
I9
F-0.25
g269
tp3121
a(I95
I3
F-0.625
g1262
tp3122
a(I97
I12
F-0.625
g1264
tp3123
a(I102
I1
F-0.625
g271
tp3124
a(I104
I1
I0
g273
tp3125
a(I107
I0
F-0.875
g275
tp3126
a(I109
I3
F-0.625
g277
tp3127
a(I113
I4
F1.0
g1059
tp3128
a(I114
I91
F1.0
g1271
tp3129
a(I114
I91
I0
g1273
tp3130
a(I115
I0
F-0.5
g279
tp3131
a(I116
I13
I0
g1276
tp3132
a(I116
I13
F0.5
g1278
tp3133
a(I119
I3
F-0.625
g1280
tp3134
a(I125
I5
F0.25
g281
tp3135
a(I125
I6
I0
g1283
tp3136
a(I125
I6
F-0.625
g1285
tp3137
a(I125
I16
F0.125
g283
tp3138
a(I126
I1
F-0.875
g285
tp3139
a(I127
I1
F-0.75
g478
tp3140
a(I128
I0
F-0.75
g287
tp3141
a(I135
I3
I0
g289
tp3142
a(I135
I3
F-0.875
g291
tp3143
a(I139
I1
F-0.5
g481
tp3144
a(I139
I3
F0.625
g1294
tp3145
a(I143
I16
F0.375
g293
tp3146
a(I144
I8
F-0.625
g295
tp3147
a(I147
I3
I0
g297
tp3148
a(I150
I7
F1.0
g1062
tp3149
a(I153
I2
F0.5
g299
tp3150
a(I155
I4
F0.5
g1301
tp3151
a(I155
I4
F1.0
g1303
tp3152
a(I156
I25
F-0.75
g301
tp3153
a(I160
I22
F0.5
g303
tp3154
a(I161
I1
F-0.75
g305
tp3155
a(I163
I0
I0
g307
tp3156
a(I165
I0
F-0.25
g309
tp3157
a(I166
I23
F-0.625
g311
tp3158
a(I166
I26
F0.125
g313
tp3159
a(I167
I1
F0.5
g428
tp3160
a(I168
I7
I0
g430
tp3161
a(I174
I6
F0.125
g315
tp3162
a(I183
I13
F0.125
g1315
tp3163
a(I183
I13
F1.0
g1317
tp3164
a(I185
I1
F0.375
g1065
tp3165
a(I187
I1
F-0.5
g317
tp3166
a(I189
I4
F-0.75
g319
tp3167
a(I195
I16
I0
g321
tp3168
a(I195
I16
F0.375
g323
tp3169
a(I195
I17
I0
g325
tp3170
a(I195
I17
F-0.5
g327
tp3171
a(I195
I17
F0.375
g329
tp3172
a(I196
I1
I0
g331
tp3173
a(I199
I9
F-0.5
g333
tp3174
a(I203
I13
F-0.125
g335
tp3175
a(I205
I19
F0.5
g1330
tp3176
as.