(dp0
(S'memory'
p1
S'card'
p2
tp3
(lp4
(I6
I140
I0
S'more'
p5
I0
tp6
as(S'battery'
p7
S'life'
p8
tp9
(lp10
(I3
I74
F-0.625
S'bad'
p11
I1
tp12
a(I3
I96
F0.25
S'bigger'
p13
I1
tp14
a(I5
I3
F1.0
S'good'
p15
I1
tp16
a(I6
I35
F1.0
S'good'
p17
I1
tp18
a(I6
I59
F-0.5
S'long'
p19
I1
tp20
a(I7
I28
F1.0
S'better'
p21
I1
tp22
a(I3
I74
F-0.625
g11
I19
tp23
a(I5
I3
F1.0
g15
I19
tp24
a(I7
I28
F1.0
g21
I19
tp25
a(I3
I96
F0.25
g13
I15
tp26
a(I6
I35
F1.0
g17
I15
tp27
a(I6
I59
F-0.5
g19
I15
tp28
as(S'voice'
p29
S'quality'
p30
tp31
(lp32
(I1
I0
F0.375
S'much'
p33
I0
tp34
a(I6
I82
F0.5
S'clear'
p35
I0
tp36
a(I6
I82
F0.5
S'strong'
p37
I0
tp38
a(I1
I0
F0.375
g33
I4
tp39
a(I3
I43
F0.5
S'clear'
p40
I4
tp41
a(I3
I122
I0
S'own'
p42
I4
tp43
a(I6
I82
F0.5
g35
I4
tp44
a(I6
I82
F0.5
g37
I4
tp45
a(I7
I55
F-0.5
S'sure'
p46
I4
tp47
as(S'keys'
p48
tp49
(lp50
(I3
I55
F-0.75
S'wrong'
p51
I9
tp52
a(I3
I174
F-0.5
S'press'
p53
I9
tp54
a(I6
I70
F0.5
S'flat'
p55
I9
tp56
a(I6
I124
I0
S'large'
p57
I9
tp58
a(I6
I124
F0.625
S'easy'
p59
I9
tp60
a(I7
I105
F0.625
S'easy'
p61
I9
tp62
a(I7
I131
F0.5
S'flat'
p63
I9
tp64
a(I7
I132
I0
S'large'
p65
I9
tp66
as(S'text'
p67
tp68
(lp69
(I3
I78
F0.625
S'easy'
p70
I18
tp71
a(I6
I174
I0
S'individual'
p72
I18
tp73
a(I6
I189
I0
S'great'
p74
I18
tp75
a(I7
I39
F0.375
S'new'
p76
I18
tp77
as(S'call'
p78
S'quality'
p79
tp80
(lp81
(I3
I78
F1.0
S'good'
p82
I0
tp83
a(I3
I99
F1.0
S'good'
p84
I0
tp85
a(I7
I137
F1.0
S'best'
p86
I0
tp87
as(S'deal'
p88
S'breaker'
p89
tp90
(lp91
(I3
I46
I0
S'big'
p92
I0
tp93
as(S'camera'
p94
tp95
(lp96
(I1
I13
F0.875
S'important'
p97
I1
tp98
a(I2
I4
F1.0
S'good'
p99
I1
tp100
a(I3
I13
F-0.625
S'light'
p101
I1
tp102
a(I4
I22
F1.0
S'good'
p103
I1
tp104
a(I7
I29
F0.5
S'clear'
p105
I1
tp106
a(I7
I30
F0.625
S'easy'
p107
I1
tp108
as(S'qwerty'
p109
S'keyboard'
p110
tp111
(lp112
(I3
I7
I0
S'full'
p113
I0
tp114
a(I3
I135
F-0.375
S'small'
p115
I0
tp116
a(I7
I54
I0
S'internal'
p117
I0
tp118
a(I7
I104
I0
S'great'
p119
I0
tp120
a(I3
I7
I0
g113
I0
tp121
a(I6
I35
I0
S'full'
p122
I0
tp123
a(I7
I72
F0.25
S'larger'
p124
I0
tp125
a(I3
I86
F0.125
S'able'
p126
I2
tp127
a(I3
I135
F-0.375
g115
I2
tp128
a(I3
I174
I0
S'internal'
p129
I2
tp130
a(I6
I97
F-0.375
S'small'
p131
I2
tp132
a(I7
I54
I0
g117
I2
tp133
a(I7
I74
I0
S'great'
p134
I2
tp135
a(I7
I104
I0
g119
I2
tp136
as(S'message'
p137
tp138
(lp139
(I3
I124
F0.5
S'whole'
p140
I1
tp141
a(I7
I2
F0.375
S'complete'
p142
I1
tp143
a(I7
I2
F-0.75
S'short'
p144
I1
tp145
a(I7
I3
I0
S'full'
p146
I1
tp147
a(I7
I40
I0
S'text'
p148
I1
tp149
as(S'stereo'
p150
S'speakers'
p151
tp152
(lp153
(I7
I106
F-0.5
S'open'
p154
I0
tp155
as(S'octane'
p156
tp157
(lp158
(I3
I29
F0.875
S'happy'
p159
I0
tp160
a(I3
I72
I0
S'most'
p161
I0
tp162
a(I6
I23
F0.5
S'second'
p163
I0
tp164
a(I6
I76
F-0.125
S'super'
p165
I0
tp166
a(I6
I76
F0.625
S'easy'
p167
I0
tp168
a(I7
I103
F0.625
S'perfect'
p169
I0
tp170
a(I7
I193
F-0.5
S'answer'
p171
I0
tp172
as(S'button'
p173
tp174
(lp175
(I3
I51
I0
S'next'
p176
I19
tp177
a(I3
I54
I0
S'next'
p178
I19
tp179
a(I3
I119
F0.125
S'first'
p180
I19
tp181
a(I3
I119
F-0.125
S'directional'
p182
I19
tp183
as(S'pocket'
p184
tp185
(lp186
(I6
I49
F-0.125
S'mine'
p187
I17
tp188
a(I6
I57
I0
S'same'
p189
I17
tp190
a(I6
I80
I0
S'dial'
p191
I17
tp192
a(I7
I2
I0
S'dial'
p193
I17
tp194
as(S'verizon'
p195
tp196
(lp197
(I3
I81
F-0.889
S'unfortunate'
p198
I0
tp199
a(I3
I110
F0.875
S'gracious'
p200
I0
tp201
a(I3
I154
I0
S'different'
p202
I0
tp203
a(I6
I4
F-0.625
S'other'
p204
I0
tp205
a(I6
I38
I0
S'standard'
p206
I0
tp207
a(I6
I41
F-0.625
S'other'
p208
I0
tp209
a(I6
I95
F0.375
S'much'
p210
I0
tp211
a(I6
I110
F0.875
S'nice'
p212
I0
tp213
a(I6
I157
F0.375
S'available'
p214
I0
tp215
as(S'messages'
p216
tp217
(lp218
(I3
I142
F0.75
S'receive'
p219
I1
tp220
a(I6
I6
F-0.125
S'delete'
p221
I1
tp222
a(I6
I6
F-0.125
S'delete'
p223
I1
tp224
a(I6
I10
I0
S'pic'
p225
I1
tp226
as(S'few'
p227
S'weeks'
p228
tp229
(lp230
(I4
I35
I0
S'few'
p231
I2
tp232
a(I6
I62
I0
S'few'
p233
I2
tp234
a(I6
I160
I0
S'few'
p235
I2
tp236
as(S'full'
p237
S'blast'
p238
tp239
(lp240
(I3
I61
I0
S'full'
p241
I0
tp242
a(I3
I61
F-0.25
S'low'
p243
I0
tp244
a(I3
I62
I0
S'full'
p245
I0
tp246
a(I3
I62
F-0.25
S'low'
p247
I0
tp248
a(I6
I134
I0
S'full'
p249
I0
tp250
as(S'voice'
p251
S'clarity'
p252
tp253
(lp254
(I7
I55
F-0.5
g46
I0
tp255
as(S'smart'
p256
tp257
(lp258
(I6
I153
I0
S'more'
p259
I10
tp260
a(I6
I153
F0.5
S'expensive'
p261
I10
tp262
as(S'other'
p263
S'line'
p264
tp265
(lp266
(I3
I63
F-0.625
S'other'
p267
I1
tp268
a(I6
I100
F-0.625
S'other'
p269
I1
tp270
a(I6
I113
F-0.625
S'other'
p271
I1
tp272
a(I6
I113
F-0.375
S'small'
p273
I1
tp274
a(I6
I113
F-0.375
S'small'
p275
I1
tp276
a(I6
I113
F0.625
S'perfect'
p277
I1
tp278
as(S'front'
p279
S'screen'
p280
tp281
(lp282
(I3
I58
F-0.375
S'small'
p283
I0
tp284
a(I3
I58
F0.5
S'functional'
p285
I0
tp286
a(I6
I30
F-0.75
S'impossible'
p287
I0
tp288
as(S'data'
p289
S'plan'
p290
tp291
(lp292
(I6
I153
F-0.375
S'top'
p293
I0
tp294
a(I6
I180
F0.375
S'new'
p295
I0
tp296
a(I6
I153
F-0.375
g293
I13
tp297
a(I6
I180
F0.375
g295
I13
tp298
a(I7
I97
F-0.5
S'less'
p299
I13
tp300
a(I7
I113
I0
S'full'
p301
I13
tp302
as(S'volume'
p303
tp304
(lp305
(I3
I60
F0.375
S'loud'
p306
I6
tp307
a(I3
I166
F-0.25
S'low'
p308
I6
tp309
a(I6
I83
F-0.5
S'weak'
p310
I6
tp311
a(I6
I103
I0
S'high'
p312
I6
tp313
a(I6
I103
F0.5
S'possible'
p314
I6
tp315
a(I6
I133
I0
S'full'
p316
I6
tp317
as(S'texting'
p318
tp319
(lp320
(I3
I149
F0.625
S'easy'
p321
I0
tp322
a(I3
I172
I0
S'great'
p323
I0
tp324
a(I6
I177
F0.625
S'easy'
p325
I0
tp326
as(S'dropped'
p327
S'calls'
p328
tp329
(lp330
(I6
I48
I0
S'few'
p331
I0
tp332
a(I6
I48
F-0.25
S'dropped'
p333
I0
tp334
a(I6
I48
I0
S'many'
p335
I0
tp336
a(I6
I159
F-0.125
S'mine'
p337
I0
tp338
a(I6
I159
I0
S'ended'
p339
I0
tp340
a(I3
I80
I0
S'frequent'
p341
I0
tp342
a(I3
I80
F1.0
S'better'
p343
I0
tp344
a(I6
I23
I0
S'many'
p345
I0
tp346
a(I6
I48
I0
g331
I0
tp347
a(I6
I48
F-0.25
g333
I0
tp348
a(I6
I48
I0
g335
I0
tp349
a(I6
I101
I0
S'many'
p350
I0
tp351
a(I6
I159
F-0.125
g337
I0
tp352
a(I6
I159
I0
g339
I0
tp353
as(S'sound'
p354
S'quality'
p355
tp356
(lp357
(I3
I136
F0.625
S'superior'
p358
I0
tp359
a(I7
I72
F1.0
S'good'
p360
I0
tp361
a(I7
I109
F1.0
S'good'
p362
I7
tp363
as.