(dp0
(S'times'
p1
tp2
(lp3
(I47
I0
I0
S'least'
p4
tp5
a(I211
I6
I0
S'least'
p6
tp7
a(I316
I4
I0
S'least'
p8
tp9
a(I398
I2
I0
S'few'
p10
tp11
a(I462
I2
F-0.625
S'other'
p12
tp13
a(I492
I10
I0
S'many'
p14
tp15
a(I530
I1
I0
S'many'
p16
tp17
a(I677
I10
I0
S'few'
p18
tp19
a(I698
I0
I0
S'signal'
p20
tp21
as(S'problem'
p22
tp23
(lp24
(I6
I1
I0
S'big'
p25
tp26
a(I6
I3
I0
S'only'
p27
tp28
a(I57
I0
F0.5
S'technical'
p29
tp30
a(I157
I0
I0
S'own'
p31
tp32
a(I157
I0
F0.5
S'possible'
p33
tp34
a(I161
I1
I0
S'big'
p35
tp36
a(I169
I8
I0
S'big'
p37
tp38
a(I215
I10
I0
S'big'
p39
tp40
a(I277
I0
I0
S'only'
p41
tp42
a(I292
I2
I0
S'common'
p43
tp44
a(I333
I4
F0.75
S'due'
p45
tp46
a(I343
I1
I0
S'different'
p47
tp48
a(I359
I4
I0
S'same'
p49
tp50
a(I397
I0
I0
S'only'
p51
tp52
a(I439
I7
I0
S'common'
p53
tp54
a(I448
I1
F-0.75
S'single'
p55
tp56
a(I466
I2
I0
S'only'
p57
tp58
a(I475
I2
I0
S'only'
p59
tp60
a(I490
I6
I0
S'same'
p61
tp62
a(I528
I0
F0.125
S'first'
p63
tp64
a(I577
I1
I0
S'only'
p65
tp66
a(I618
I0
F-0.5
S'sudden'
p67
tp68
a(I656
I1
I0
S'common'
p69
tp70
a(I656
I6
I0
S'technician'
p71
tp72
a(I656
I6
I0
S'common'
p73
tp74
a(I666
I1
F0.25
S'biggest'
p75
tp76
a(I680
I2
I0
S'big'
p77
tp78
a(I702
I5
I0
S'big'
p79
tp80
a(I714
I0
I0
S'only'
p81
tp82
a(I742
I2
F0.125
S'first'
p83
tp84
a(I742
I5
I0
S'same'
p85
tp86
as(S'battery'
p87
S'life'
p88
tp89
(lp90
(I58
I0
F-0.75
S'short'
p91
tp92
a(I63
I0
F-0.5
S'poor'
p93
tp94
a(I89
I4
F-0.5
S'poor'
p95
tp96
a(I116
I2
F-0.5
S'poor'
p97
tp98
a(I142
I0
F1.0
S'good'
p99
tp100
a(I144
I10
I0
S'great'
p101
tp102
a(I148
I3
F1.0
S'good'
p103
tp104
a(I150
I1
F1.0
S'good'
p105
tp106
a(I239
I5
F-0.75
S'short'
p107
tp108
a(I282
I2
F1.0
S'good'
p109
tp110
a(I285
I3
F-0.75
S'stupid'
p111
tp112
a(I355
I5
F-0.875
S'worst'
p113
tp114
a(I403
I7
F0.375
S'extra'
p115
tp116
a(I434
I3
F0.375
S'extra'
p117
tp118
a(I444
I0
F1.0
S'good'
p119
tp120
a(I502
I4
I0
S'close'
p121
tp122
a(I502
I4
I0
S'nominal'
p123
tp124
a(I562
I1
F0.625
S'easy'
p125
tp126
a(I562
I1
F1.0
S'good'
p127
tp128
a(I641
I3
I0
S'great'
p129
tp130
a(I658
I0
F-0.625
S'bad'
p131
tp132
a(I668
I6
I0
S'standard'
p133
tp134
a(I727
I3
I0
S'great'
p135
tp136
a(I727
I3
F-0.625
S'bad'
p137
tp138
as(S'purchase'
p139
tp140
(lp141
(I69
I0
F0.5
S'second'
p142
tp143
a(I69
I1
F0.5
S'second'
p144
tp145
a(I144
I13
F0.875
S'happy'
p146
tp147
a(I159
I0
F-0.75
S'worse'
p148
tp149
a(I177
I2
F0.5
S'satisfied'
p150
tp151
a(I257
I1
F1.0
S'good'
p152
tp153
a(I333
I7
F0.125
S'last'
p154
tp155
a(I333
I7
F-0.5
S'long'
p156
tp157
a(I364
I4
F-0.875
S'unhappy'
p158
tp159
a(I531
I1
F-0.625
S'sorry'
p160
tp161
a(I563
I6
F0.125
S'able'
p162
tp163
a(I599
I0
F-0.25
S'disappointed'
p164
tp165
a(I607
I0
F0.875
S'happy'
p166
tp167
as(S'pretty'
p168
tp169
(lp170
(I231
I3
I0
S'plastic'
p171
tp172
a(I658
I2
I0
S'internet'
p173
tp174
as(S'send'
p175
tp176
(lp177
(I744
I2
F0.125
S'able'
p178
tp179
a(I744
I2
F-0.5
S'call'
p180
tp181
as(S'came'
p182
tp183
(lp184
(I158
I0
F0.5
S'incomplete'
p185
tp186
as(S'money'
p187
tp188
(lp189
(I53
I6
F-0.875
S'hard'
p190
tp191
a(I67
I5
F0.75
S'worth'
p192
tp193
a(I355
I10
I0
S'waste'
p194
tp195
a(I458
I1
F0.75
S'worth'
p196
tp197
a(I472
I6
I0
S'normal'
p198
tp199
a(I512
I0
F-0.125
S'mine'
p200
tp201
a(I752
I2
F0.75
S'worth'
p202
tp203
a(I760
I2
F0.75
S'worth'
p204
tp205
a(I774
I1
F0.5
S'willing'
p206
tp207
as(S'card'
p208
tp209
(lp210
(I21
I0
F0.125
S'able'
p211
tp212
a(I120
I3
F0.125
S'valid'
p213
tp214
a(I269
I5
F0.5
S'possible'
p215
tp216
a(I273
I11
I0
S'empty'
p217
tp218
a(I418
I3
F0.375
S'extra'
p219
tp220
a(I469
I0
F0.375
S'new'
p221
tp222
a(I471
I9
F0.5
S'possible'
p223
tp224
a(I471
I9
I0
S'sd'
p225
tp226
a(I592
I2
F-0.5
S'sure'
p227
tp228
a(I713
I1
F-0.5
S'sure'
p229
tp230
a(I755
I4
F0.625
S'necessary'
p231
tp232
as(S'nice'
p233
tp234
(lp235
(I18
I0
I0
S'few'
p236
tp237
a(I62
I2
I0
S'older'
p238
tp239
a(I609
I1
I0
S'very'
p240
tp241
as(S'price'
p242
tp243
(lp244
(I8
I3
I0
S'high'
p245
tp246
a(I49
I0
F1.0
S'good'
p247
tp248
a(I89
I5
F0.75
S'worth'
p249
tp250
a(I89
I5
F-0.5
S'sure'
p251
tp252
a(I94
I0
F0.625
S'accessible'
p253
tp254
a(I151
I0
I0
S'great'
p255
tp256
a(I206
I3
F0.875
S'happy'
p257
tp258
a(I206
I3
F0.875
S'happy'
p259
tp260
a(I273
I14
F-0.625
S'free'
p261
tp262
a(I278
I4
I0
S'great'
p263
tp264
a(I316
I1
F0.5
S'reasonable'
p265
tp266
a(I336
I3
I0
S'real'
p267
tp268
a(I351
I0
F1.0
S'good'
p269
tp270
a(I351
I5
F0.75
S'worth'
p271
tp272
a(I359
I13
F0.375
S'new'
p273
tp274
a(I379
I2
I0
S'high'
p275
tp276
a(I438
I1
I0
S'full'
p277
tp278
a(I458
I7
F1.0
S'good'
p279
tp280
a(I471
I19
I0
S'generic'
p281
tp282
a(I473
I4
I0
S'great'
p283
tp284
a(I513
I0
F1.0
S'good'
p285
tp286
a(I520
I0
F1.0
S'best'
p287
tp288
a(I583
I4
F0.75
S'worth'
p289
tp290
a(I606
I2
I0
S'great'
p291
tp292
a(I653
I0
I0
S'great'
p293
tp294
a(I704
I1
F1.0
S'best'
p295
tp296
a(I728
I1
I0
S'full'
p297
tp298
a(I754
I1
F0.75
S'worth'
p299
tp300
a(I768
I0
I0
S'great'
p301
tp302
as(S'n'
p303
S'order'
p304
tp305
(lp306
(I220
I5
I0
S'full'
p307
tp308
a(I220
I5
F-0.25
S'potential'
p309
tp310
a(I367
I2
F0.75
S'receive'
p311
tp312
a(I412
I0
F0.125
S'first'
p313
tp314
a(I412
I0
F-0.25
S'defect'
p315
tp316
a(I471
I24
F-0.25
S'late'
p317
tp318
a(I617
I8
I0
S'chronological'
p319
tp320
a(I748
I1
F-0.5
S'sure'
p321
tp322
a(I748
I1
F1.0
S'good'
p323
tp324
as(S'service'
p325
tp326
(lp327
(I44
I1
F1.0
S'good'
p328
tp329
a(I121
I1
I0
S'internet'
p330
tp331
a(I137
I2
F-0.5
S'unavailable'
p332
tp333
a(I199
I0
I0
S'net'
p334
tp335
a(I211
I2
I0
S'quick'
p336
tp337
a(I211
I2
F0.875
S'courteous'
p338
tp339
a(I261
I0
I0
S'internet'
p340
tp341
a(I388
I0
F1.0
S'best'
p342
tp343
a(I734
I2
I0
S'dial'
p344
tp345
as(S'everything'
p346
tp347
(lp348
(I6
I1
I0
S'fast'
p349
tp350
a(I287
I0
I0
S'great'
p351
tp352
a(I356
I0
F0.125
S'first'
p353
tp354
a(I482
I1
F0.375
S'new'
p355
tp356
a(I577
I1
F-0.375
S'disable'
p357
tp358
a(I628
I0
F1.0
S'good'
p359
tp360
a(I628
I0
F0.375
S'new'
p361
tp362
a(I638
I0
I0
S'great'
p363
tp364
a(I685
I0
I0
S'fast'
p365
tp366
a(I733
I0
F0.875
S'nice'
p367
tp368
a(I733
I0
F0.375
S'new'
p369
tp370
a(I770
I2
F0.625
S'perfect'
p371
tp372
as(S'problems'
p373
tp374
(lp375
(I343
I6
I0
S'many'
p376
tp377
a(I359
I2
F0.375
S'following'
p378
tp379
a(I359
I12
F0.625
S'acceptable'
p380
tp381
a(I372
I3
I0
S'such'
p382
tp383
a(I490
I0
I0
S'many'
p384
tp385
a(I585
I1
F-0.625
S'other'
p386
tp387
a(I661
I4
I0
S'fundamental'
p388
tp389
a(I680
I2
F0.875
S'happy'
p390
tp391
a(I738
I0
I0
S'own'
p392
tp393
a(I742
I0
I0
S'more'
p394
tp395
as(S'love'
p396
tp397
(lp398
(I498
I0
I0
S'great'
p399
tp400
a(I759
I0
F0.125
S'first'
p401
tp402
as(S'camera'
p403
tp404
(lp405
(I41
I0
F1.0
S'good'
p406
tp407
a(I41
I0
F1.0
S'good'
p408
tp409
a(I92
I11
F-0.75
S'difficult'
p410
tp411
a(I116
I5
F0.25
S'sharp'
p412
tp413
a(I136
I2
F0.625
S'easy'
p414
tp415
a(I136
I2
I0
S'great'
p416
tp417
a(I160
I1
I0
S'great'
p418
tp419
a(I211
I0
F1.0
S'better'
p420
tp421
a(I235
I0
I0
S'great'
p422
tp423
a(I235
I0
I0
S'great'
p424
tp425
a(I342
I1
F1.0
S'good'
p426
tp427
a(I355
I10
F0.875
S'nice'
p428
tp429
a(I398
I3
F1.0
S'good'
p430
tp431
a(I487
I1
I0
S'rear'
p432
tp433
a(I487
I1
F-0.625
S'average'
p434
tp435
a(I492
I12
F0.125
S'capable'
p436
tp437
a(I492
I12
F0.125
S'digital'
p438
tp439
a(I524
I2
F-0.875
S'worst'
p440
tp441
a(I524
I4
F1.0
S'better'
p442
tp443
a(I548
I2
I0
S'great'
p444
tp445
a(I596
I0
F1.0
S'good'
p446
tp447
a(I606
I3
I0
S'great'
p448
tp449
a(I610
I0
I0
S'great'
p450
tp451
a(I637
I1
F1.0
S'good'
p452
tp453
a(I638
I2
I0
S'great'
p454
tp455
a(I697
I0
F-0.5
S'poor'
p456
tp457
a(I710
I0
F1.0
S'good'
p458
tp459
a(I712
I2
I0
S'great'
p460
tp461
as(S'works'
p462
S'great'
p463
tp464
(lp465
(I63
I0
I0
S'great'
p466
tp467
a(I288
I0
F0.625
S'easy'
p468
tp469
a(I304
I0
I0
S'great'
p470
tp471
a(I318
I0
F1.0
S'better'
p472
tp473
a(I344
I0
I0
S'great'
p474
tp475
a(I415
I4
I0
S'great'
p476
tp477
a(I461
I3
I0
S'great'
p478
tp479
a(I463
I0
I0
S'great'
p480
tp481
a(I482
I0
I0
S'great'
p482
tp483
a(I538
I0
F0.375
S'new'
p484
tp485
a(I747
I0
I0
S'great'
p486
tp487
as(S'using'
p488
tp489
(lp490
(I626
I0
I0
S'hot'
p491
tp492
a(I626
I0
I0
S'more'
p493
tp494
as(S'month'
p495
tp496
(lp497
(I252
I2
F0.125
S'first'
p498
tp499
a(I265
I4
F0.75
S'due'
p500
tp501
a(I358
I0
F-0.5
S'less'
p502
tp503
a(I580
I0
F-0.625
S'bad'
p504
tp505
a(I601
I9
I0
S'later'
p506
tp507
a(I678
I4
F-0.5
S'less'
p508
tp509
a(I749
I1
I0
S'great'
p510
tp511
as(S'apps'
p512
tp513
(lp514
(I61
I1
I0
S'such'
p515
tp516
a(I112
I6
I0
S'fifty'
p517
tp518
a(I120
I4
F-0.625
S'free'
p519
tp520
a(I215
I1
F0.25
S'favorite'
p521
tp522
a(I231
I4
I0
S'fast'
p523
tp524
a(I295
I13
F-0.667
S'incompatible'
p525
tp526
a(I295
I14
F0.375
S'meant'
p527
tp528
a(I295
I14
I0
S'android'
p529
tp530
a(I369
I0
F-0.5
S'certain'
p531
tp532
a(I376
I2
I0
S'user'
p533
tp534
a(I448
I2
F0.125
S'enough'
p535
tp536
a(I492
I4
I0
S'useful'
p537
tp538
a(I492
I15
I0
S'many'
p539
tp540
a(I502
I5
F-0.625
S'other'
p541
tp542
a(I506
I1
F-0.25
S'google'
p543
tp544
a(I584
I2
F-0.5
S'certain'
p545
tp546
a(I606
I2
I0
S'many'
p547
tp548
a(I606
I6
I0
S'many'
p549
tp550
a(I606
I6
F0.125
S'able'
p551
tp552
a(I617
I2
F-0.5
S'open'
p553
tp554
a(I668
I6
I0
S'most'
p555
tp556
a(I668
I6
I0
S'android'
p557
tp558
as(S'week'
p559
tp560
(lp561
(I70
I4
I0
S'update'
p562
tp563
a(I83
I0
I0
S'next'
p564
tp565
a(I93
I1
I0
S'old'
p566
tp567
a(I169
I1
F0.125
S'last'
p568
tp569
a(I176
I0
F0.125
S'last'
p570
tp571
a(I231
I10
F-0.5
S'less'
p572
tp573
a(I424
I0
F0.875
S'nice'
p574
tp575
a(I424
I0
F-0.125
S'slow'
p576
tp577
a(I608
I1
F0.125
S'first'
p578
tp579
a(I608
I1
F0.5
S'second'
p580
tp581
as(S'os'
p582
S'3g'
p583
S'support'
p584
tp585
(lp586
(I116
I0
I0
S'android'
p587
tp588
a(I307
I0
I0
S'android'
p589
tp590
a(I363
I2
I0
S'android'
p591
tp592
a(I471
I2
I0
S'android'
p593
tp594
a(I515
I0
I0
S'android'
p595
tp596
a(I734
I4
I0
S'android'
p597
tp598
as(S'a'
p599
S'front'
p600
S'camera'
p601
tp602
(lp603
(I92
I11
F-0.75
g410
tp604
a(I487
I1
I0
g432
tp605
a(I487
I1
F-0.625
g434
tp606
as(S'quality'
p607
tp608
(lp609
(I49
I0
F1.0
S'good'
p610
tp611
a(I67
I2
I0
S'great'
p612
tp613
a(I86
I1
I0
S'pic'
p614
tp615
a(I86
I1
F1.0
S'good'
p616
tp617
a(I151
I1
F1.0
S'good'
p618
tp619
a(I235
I2
F0.875
S'music'
p620
tp621
a(I235
I2
I0
S'headset'
p622
tp623
a(I235
I2
F1.0
S'good'
p624
tp625
a(I249
I0
I0
S'great'
p626
tp627
a(I295
I16
F1.0
S'better'
p628
tp629
a(I379
I2
F1.0
S'good'
p630
tp631
a(I438
I18
F1.0
S'best'
p632
tp633
a(I484
I1
F1.0
S'good'
p634
tp635
a(I606
I3
I0
S'many'
p636
tp637
a(I606
I3
I0
S'high'
p638
tp639
a(I644
I0
F1.0
S'good'
p640
tp641
a(I703
I6
F1.0
S'good'
p642
tp643
a(I704
I1
F1.0
S'best'
p644
tp645
a(I728
I18
F1.0
S'best'
p646
tp647
a(I739
I9
F0.875
S'music'
p648
tp649
a(I770
I5
F0.875
S'important'
p650
tp651
a(I770
I6
F0.125
S'impressive'
p652
tp653
as(S'order'
p654
tp655
(lp656
(I220
I5
I0
g307
tp657
a(I220
I5
F-0.25
g309
tp658
a(I367
I2
F0.75
g311
tp659
a(I412
I0
F0.125
g313
tp660
a(I412
I0
F-0.25
g315
tp661
a(I471
I24
F-0.25
g317
tp662
a(I617
I8
I0
g319
tp663
a(I748
I1
F-0.5
g321
tp664
a(I748
I1
F1.0
g323
tp665
as(S'product'
p666
tp667
(lp668
(I28
I1
F0.25
S'refurbished'
p669
tp670
a(I42
I2
I0
S'great'
p671
tp672
a(I88
I0
F0.875
S'happy'
p673
tp674
a(I111
I1
F0.75
S'due'
p675
tp676
a(I111
I3
I0
S'great'
p677
tp678
a(I128
I3
F1.0
S'good'
p679
tp680
a(I200
I6
F-0.375
S'manual'
p681
tp682
a(I200
I6
F-0.125
S'overall'
p683
tp684
a(I230
I0
I0
S'quick'
p685
tp686
a(I248
I0
F1.0
S'good'
p687
tp688
a(I248
I0
F0.875
S'happy'
p689
tp690
a(I299
I1
I0
S'more'
p691
tp692
a(I330
I1
F-0.75
S'wrong'
p693
tp694
a(I331
I0
F0.875
S'happy'
p695
tp696
a(I349
I3
F0.625
S'aware'
p697
tp698
a(I412
I0
F0.5
S'second'
p699
tp700
a(I437
I0
F1.0
S'good'
p701
tp702
a(I473
I4
I0
S'great'
p703
tp704
a(I485
I0
F1.0
S'good'
p705
tp706
a(I585
I2
F1.0
S'better'
p707
tp708
a(I755
I0
I0
S'great'
p709
tp710
as(S'ever'
p711
tp712
(lp713
(I342
I1
F1.0
S'best'
p714
tp715
as(S'mobile'
p716
tp717
(lp718
(I61
I0
F0.875
S'nice'
p719
tp720
a(I690
I1
F1.0
S'good'
p721
tp722
as(S'8'
p723
S'mp'
p724
S'camera'
p725
tp726
(lp727
(I41
I0
F1.0
g406
tp728
a(I41
I0
F1.0
g408
tp729
a(I398
I3
F1.0
g430
tp730
a(I638
I2
F1.0
S'better'
p731
tp732
a(I638
I2
I0
g454
tp733
as(S'things'
p734
tp735
(lp736
(I18
I4
I0
S'few'
p737
tp738
a(I18
I4
F-0.625
S'other'
p739
tp740
a(I163
I1
I0
S'most'
p741
tp742
a(I163
I1
F-0.375
S'simple'
p743
tp744
a(I215
I2
F-0.625
S'other'
p745
tp746
a(I215
I6
I0
S'most'
p747
tp748
a(I215
I6
F0.125
S'typical'
p749
tp750
a(I222
I0
I0
S'full'
p751
tp752
a(I239
I10
F-0.375
S'wear'
p753
tp754
a(I273
I14
I0
S'most'
p755
tp756
a(I273
I14
F-0.125
S'overall'
p757
tp758
a(I276
I0
I0
S'great'
p759
tp760
a(I301
I6
I0
S'multiple'
p761
tp762
a(I301
I6
I0
S'weird'
p763
tp764
a(I351
I6
I0
S'update'
p765
tp766
a(I410
I4
F-0.625
S'other'
p767
tp768
a(I495
I1
I0
S'most'
p769
tp770
a(I561
I2
I0
S'most'
p771
tp772
a(I668
I11
F-0.5
S'certain'
p773
tp774
a(I720
I5
F-0.75
S'little'
p775
tp776
a(I720
I5
I0
S'impress'
p777
tp778
as(S'sense'
p779
S'ui'
p780
tp781
(lp782
(I434
I4
F0.25
S'responsive'
p783
tp784
as(S'signal'
p785
tp786
(lp787
(I95
I0
F0.625
S'easy'
p788
tp789
a(I239
I6
F-0.5
S'poor'
p790
tp791
a(I245
I0
F-0.5
S'weak'
p792
tp793
a(I277
I0
F1.0
S'good'
p794
tp795
a(I398
I2
F1.0
S'good'
p796
tp797
a(I418
I4
F-0.5
S'poor'
p798
tp799
a(I462
I0
I0
S'predictable'
p800
tp801
a(I476
I0
F0.25
S'original'
p802
tp803
a(I476
I0
F-0.625
S'bad'
p804
tp805
a(I530
I8
F1.0
S'good'
p806
tp807
as(S'features'
p808
tp809
(lp810
(I34
I0
I0
S'many'
p811
tp812
a(I116
I6
F0.25
S'main'
p813
tp814
a(I151
I0
F0.625
S'easy'
p815
tp816
a(I151
I0
I0
S'many'
p817
tp818
a(I151
I0
I0
S'many'
p819
tp820
a(I274
I3
I0
S'least'
p821
tp822
a(I355
I9
I0
S'basic'
p823
tp824
a(I437
I0
I0
S'basic'
p825
tp826
a(I472
I1
I0
S'great'
p827
tp828
a(I475
I1
I0
S'great'
p829
tp830
a(I475
I1
F0.5
S'reasonable'
p831
tp832
a(I535
I2
F-0.625
S'other'
p833
tp834
a(I582
I0
F-0.625
S'other'
p835
tp836
a(I606
I5
F0.25
S'favorite'
p837
tp838
a(I632
I0
I0
S'basic'
p839
tp840
a(I706
I10
F1.0
S'good'
p841
tp842
a(I739
I16
I0
S'few'
p843
tp844
a(I739
I17
I0
S'many'
p845
tp846
a(I739
I17
I0
S'list'
p847
tp848
as(S'work'
p849
tp850
(lp851
(I37
I3
F0.625
S'easier'
p852
tp853
a(I398
I5
F-0.5
S'heavy'
p854
tp855
a(I398
I5
F1.0
S'good'
p856
tp857
a(I503
I3
F-0.625
S'other'
p858
tp859
as(S'sd'
p860
S'card'
p861
tp862
(lp863
(I120
I3
F0.125
g213
tp864
a(I269
I5
F0.5
g215
tp865
a(I273
I11
I0
S'full'
p866
tp867
a(I273
I11
I0
g217
tp868
a(I471
I9
F0.5
g223
tp869
a(I471
I9
I0
g225
tp870
a(I592
I2
F-0.5
g227
tp871
a(I606
I2
I0
S'external'
p872
tp873
a(I606
I6
I0
S'external'
p874
tp875
a(I668
I15
F0.25
S'larger'
p876
tp877
a(I713
I1
F-0.5
g229
tp878
a(I720
I1
F0.625
S'aware'
p879
tp880
as(S'to'
p881
S'remove'
p882
S'battery'
p883
tp884
(lp885
(I116
I2
F-0.5
g97
tp886
a(I492
I14
F-0.75
S'panic'
p887
tp888
as(S'sim'
p889
S'card'
p890
g303
tp891
(lp892
(I21
I0
F0.125
g211
tp893
a(I78
I3
I0
S'next'
p894
tp895
a(I130
I2
I0
S'old'
p896
tp897
a(I273
I4
F0.125
S'able'
p898
tp899
a(I273
I14
F-0.125
S'foreign'
p900
tp901
a(I471
I38
F0.375
S'new'
p902
tp903
a(I616
I2
I0
S'many'
p904
tp905
a(I713
I1
F-0.5
g229
tp906
a(I755
I4
F0.625
g231
tp907
as(S'seller'
p908
tp909
(lp910
(I26
I5
F-0.625
S'free'
p911
tp912
a(I37
I6
I0
S'wish'
p913
tp914
a(I59
I3
F-0.125
S'overall'
p915
tp916
a(I59
I3
I0
S'great'
p917
tp918
a(I111
I3
I0
S'great'
p919
tp920
a(I131
I0
F0.25
S'helpful'
p921
tp922
a(I166
I0
F-0.625
S'bad'
p923
tp924
a(I349
I1
F0.25
S'helpful'
p925
tp926
a(I459
I0
F-0.125
S'overall'
p927
tp928
a(I563
I5
I0
S'later'
p929
tp930
a(I563
I5
F0.5
S'willing'
p931
tp932
a(I662
I2
F-0.25
S'late'
p933
tp934
a(I670
I0
F1.0
S'good'
p935
tp936
a(I670
I0
F1.0
S'good'
p937
tp938
as(S'android'
p939
tp940
(lp941
(I14
I4
I0
S'old'
p942
tp943
a(I483
I0
F0.125
S'first'
p944
tp945
a(I720
I7
F0.125
S'popular'
p946
tp947
a(I750
I4
F-0.625
S'free'
p948
tp949
a(I750
I4
F-0.75
S'little'
p950
tp951
as(S'stock'
p952
S'rom'
p953
tp954
(lp955
(I668
I4
I0
S'great'
p956
tp957
a(I668
I6
F-0.75
S'unable'
p958
tp959
as(S'works'
p960
tp961
(lp962
(I63
I0
I0
g466
tp963
a(I203
I0
F-0.5
S'heavy'
p964
tp965
a(I288
I0
F0.625
g468
tp966
a(I304
I0
I0
g470
tp967
a(I318
I0
F1.0
g472
tp968
a(I344
I0
I0
g474
tp969
a(I415
I4
I0
g476
tp970
a(I461
I3
I0
g478
tp971
a(I463
I0
I0
g480
tp972
a(I482
I0
I0
g482
tp973
a(I538
I0
F0.375
g484
tp974
a(I747
I0
I0
g486
tp975
as(S'to'
p976
S'take'
p977
S'battery'
p978
tp979
(lp980
(I418
I1
F0.125
S'first'
p981
tp982
a(I690
I2
F0.375
S'extra'
p983
tp984
as(S'pictures'
p985
tp986
(lp987
(I67
I2
I0
S'great'
p988
tp989
a(I197
I0
F-0.75
S'unable'
p990
tp991
a(I197
I0
F-0.75
S'unable'
p992
tp993
a(I302
I3
I0
S'great'
p994
tp995
a(I399
I3
F1.0
S'good'
p996
tp997
a(I492
I5
F0.125
S'profile'
p998
tp999
a(I605
I0
I0
S'great'
p1000
tp1001
a(I606
I3
I0
S'many'
p1002
tp1003
a(I665
I0
I0
S'great'
p1004
tp1005
a(I668
I10
F1.0
S'good'
p1006
tp1007
as(S'excellent'
p1008
tp1009
(lp1010
(I160
I0
I0
S'such'
p1011
tp1012
a(I606
I5
I0
S'internal'
p1013
tp1014
as(S'great'
p1015
tp1016
(lp1017
(I399
I2
F-0.125
S'overall'
p1018
tp1019
as(S'water'
p1020
S'damage'
p1021
tp1022
(lp1023
(I132
I1
F0.75
S'due'
p1024
tp1025
as(S'battery'
p1026
tp1027
(lp1028
(I39
I2
F0.125
S'first'
p1029
tp1030
a(I63
I0
F-0.5
g93
tp1031
a(I72
I0
I0
S'great'
p1032
tp1033
a(I72
I0
F0.625
S'easy'
p1034
tp1035
a(I82
I0
F-0.75
S'damaged'
p1036
tp1037
a(I89
I4
F-0.5
g95
tp1038
a(I116
I2
F-0.5
g97
tp1039
a(I134
I1
F1.0
S'good'
p1040
tp1041
a(I141
I1
F0.125
S'last'
p1042
tp1043
a(I144
I11
F0.625
S'replaceable'
p1044
tp1045
a(I144
I11
F0.5
S'second'
p1046
tp1047
a(I147
I1
F0.125
S'last'
p1048
tp1049
a(I148
I3
F1.0
g103
tp1050
a(I161
I3
I0
S'great'
p1051
tp1052
a(I171
I2
F-0.75
S'dead'
p1053
tp1054
a(I185
I6
F-0.5
S'less'
p1055
tp1056
a(I200
I5
I0
S'internal'
p1057
tp1058
a(I215
I8
F0.5
S'so-so'
p1059
tp1060
a(I231
I0
F0.625
S'easy'
p1061
tp1062
a(I231
I1
F0.5
S'careful'
p1063
tp1064
a(I285
I3
F-0.75
g111
tp1065
a(I289
I0
F0.375
S'new'
p1066
tp1067
a(I289
I0
F0.375
S'new'
p1068
tp1069
a(I304
I0
F0.375
S'new'
p1070
tp1071
a(I309
I0
F1.0
S'good'
p1072
tp1073
a(I365
I0
I0
S'mobile'
p1074
tp1075
a(I369
I1
F0.125
S'last'
p1076
tp1077
a(I403
I7
F0.375
g115
tp1078
a(I418
I1
F0.125
g981
tp1079
a(I434
I3
F0.375
g117
tp1080
a(I436
I1
F-0.75
S'unable'
p1081
tp1082
a(I436
I1
F0.375
S'new'
p1083
tp1084
a(I438
I8
F0.5
S'stronger'
p1085
tp1086
a(I438
I11
F0.5
S'stronger'
p1087
tp1088
a(I442
I0
F0.125
S'able'
p1089
tp1090
a(I442
I0
F0.375
S'new'
p1091
tp1092
a(I442
I0
F0.75
S'receive'
p1093
tp1094
a(I443
I2
F0.375
S'new'
p1095
tp1096
a(I444
I0
F1.0
g119
tp1097
a(I467
I1
F1.0
S'better'
p1098
tp1099
a(I472
I4
F0.375
S'new'
p1100
tp1101
a(I476
I0
F0.25
S'original'
p1102
tp1103
a(I477
I1
F-0.75
S'dead'
p1104
tp1105
a(I486
I0
F-0.625
S'bad'
p1106
tp1107
a(I492
I14
F-0.75
g887
tp1108
a(I503
I2
F-0.625
S'other'
p1109
tp1110
a(I521
I0
F1.0
S'good'
p1111
tp1112
a(I521
I5
F1.0
S'good'
p1113
tp1114
a(I530
I8
F1.0
S'good'
p1115
tp1116
a(I562
I1
F0.625
g125
tp1117
a(I562
I1
F1.0
g127
tp1118
a(I597
I2
F0.375
S'new'
p1119
tp1120
a(I622
I2
F0.125
S'last'
p1121
tp1122
a(I623
I11
F0.375
S'new'
p1123
tp1124
a(I626
I1
F0.875
S'happy'
p1125
tp1126
a(I652
I0
F0.5
S'strong'
p1127
tp1128
a(I656
I5
F-0.5
S'long'
p1129
tp1130
a(I656
I5
I0
S'full'
p1131
tp1132
a(I658
I2
F-0.25
S'low'
p1133
tp1134
a(I661
I8
F0.375
S'extra'
p1135
tp1136
a(I662
I1
F0.375
S'new'
p1137
tp1138
a(I690
I2
F0.375
g983
tp1139
a(I701
I3
F0.25
S'portable'
p1140
tp1141
a(I715
I1
F1.0
S'good'
p1142
tp1143
a(I722
I0
F0.125
S'last'
p1144
tp1145
a(I728
I8
F0.5
S'stronger'
p1146
tp1147
a(I728
I11
F0.5
S'stronger'
p1148
tp1149
a(I739
I7
F1.0
S'good'
p1150
tp1151
a(I768
I2
F-0.75
S'unable'
p1152
tp1153
as(S'processing'
p1154
S'speed'
p1155
tp1156
(lp1157
(I317
I0
F1.0
S'good'
p1158
tp1159
a(I661
I3
F0.125
S'impressive'
p1160
tp1161
as(S't'
p1162
S'stopped'
p1163
S'working'
p1164
tp1165
(lp1166
(I627
I1
F-0.375
S'stopped'
p1167
tp1168
as(S'network'
p1169
tp1170
(lp1171
(I6
I3
I0
S'mobile'
p1172
tp1173
a(I6
I5
I0
S'mobile'
p1174
tp1175
a(I6
I6
I0
S'mobile'
p1176
tp1177
a(I6
I8
I0
S'mobile'
p1178
tp1179
a(I168
I3
I0
S'great'
p1180
tp1181
a(I372
I1
I0
S'mobile'
p1182
tp1183
a(I372
I1
F-0.625
S'bad'
p1184
tp1185
a(I418
I6
I0
S'same'
p1186
tp1187
a(I461
I3
F0.375
S'new'
p1188
tp1189
a(I504
I1
F-0.625
S'want'
p1190
tp1191
a(I613
I1
I0
S'mobile'
p1192
tp1193
as(S'cell'
p1194
tp1195
(lp1196
(I10
I2
F-0.5
S'sure'
p1197
tp1198
a(I48
I0
F1.0
S'good'
p1199
tp1200
a(I73
I1
F0.375
S'reliable'
p1201
tp1202
a(I73
I6
F0.375
S'reliable'
p1203
tp1204
a(I187
I0
F0.125
S'first'
p1205
tp1206
a(I187
I0
F0.375
S'new'
p1207
tp1208
a(I216
I0
F1.0
S'good'
p1209
tp1210
a(I231
I6
F1.0
S'good'
p1211
tp1212
a(I231
I6
I0
S'signal'
p1213
tp1214
a(I333
I0
F0.375
S'new'
p1215
tp1216
a(I455
I0
F0.375
S'new'
p1217
tp1218
a(I674
I0
F0.875
S'nice'
p1219
tp1220
as(S'void'
p1221
S'sticker'
p1222
tp1223
(lp1224
(I471
I42
F-0.375
S'void'
p1225
tp1226
a(I503
I1
F-0.375
S'void'
p1227
tp1228
a(I503
I1
F-0.125
S'present'
p1229
tp1230
a(I503
I2
F-0.375
S'void'
p1231
tp1232
as(S'calls'
p1233
tp1234
(lp1235
(I160
I3
F-0.25
S'hang'
p1236
tp1237
a(I160
I18
F0.25
S'wind'
p1238
tp1239
a(I494
I5
F-0.5
S'international'
p1240
tp1241
a(I521
I10
F-0.5
S'international'
p1242
tp1243
a(I534
I0
F0.125
S'first'
p1244
tp1245
a(I579
I0
F-0.5
S'miss'
p1246
tp1247
as(S'thing'
p1248
tp1249
(lp1250
(I18
I1
F0.625
S'easy'
p1251
tp1252
a(I26
I1
F0.125
S'first'
p1253
tp1254
a(I26
I3
I0
S'same'
p1255
tp1256
a(I45
I1
I0
S'only'
p1257
tp1258
a(I160
I19
I0
S'funny'
p1259
tp1260
a(I174
I1
F0.125
S'first'
p1261
tp1262
a(I195
I5
I0
S'own'
p1263
tp1264
a(I220
I4
I0
S'only'
p1265
tp1266
a(I222
I0
I0
S'only'
p1267
tp1268
a(I273
I10
F-0.625
S'other'
p1269
tp1270
a(I276
I0
I0
S'only'
p1271
tp1272
a(I276
I0
F-0.625
S'bad'
p1273
tp1274
a(I295
I4
I0
S'only'
p1275
tp1276
a(I295
I4
F0.875
S'attractive'
p1277
tp1278
a(I314
I2
F0.25
S'main'
p1279
tp1280
a(I366
I2
F0.5
S'whole'
p1281
tp1282
a(I367
I7
I0
S'only'
p1283
tp1284
a(I439
I6
F0.375
S'rant'
p1285
tp1286
a(I447
I2
I0
S'only'
p1287
tp1288
a(I447
I2
F-0.625
S'bad'
p1289
tp1290
a(I464
I0
I0
S'only'
p1291
tp1292
a(I490
I1
F0.125
S'first'
p1293
tp1294
a(I591
I1
I0
S'only'
p1295
tp1296
a(I634
I2
I0
S'only'
p1297
tp1298
a(I677
I5
F0.125
S'first'
p1299
tp1300
a(I677
I5
I0
S'same'
p1301
tp1302
a(I716
I1
I0
S'only'
p1303
tp1304
a(I750
I9
F-0.25
S'precious'
p1305
tp1306
a(I750
I11
I0
S'same'
p1307
tp1308
a(I757
I1
I0
S'only'
p1309
tp1310
a(I761
I1
I0
S'only'
p1311
tp1312
a(I770
I10
I0
S'only'
p1313
tp1314
as(S'sim'
p1315
S'card'
p1316
tp1317
(lp1318
(I21
I0
F0.125
g211
tp1319
a(I78
I3
I0
g894
tp1320
a(I130
I2
I0
g896
tp1321
a(I273
I4
F0.125
g898
tp1322
a(I273
I14
F-0.125
g900
tp1323
a(I471
I38
F0.375
g902
tp1324
a(I616
I2
I0
g904
tp1325
a(I713
I1
F-0.5
g229
tp1326
a(I755
I4
F0.625
g231
tp1327
as(S'charge'
p1328
tp1329
(lp1330
(I5
I0
F-0.25
S'low'
p1331
tp1332
a(I47
I1
F-0.5
S'long'
p1333
tp1334
a(I96
I0
I0
S'full'
p1335
tp1336
a(I291
I1
I0
S'full'
p1337
tp1338
a(I343
I6
F-0.375
S'wear'
p1339
tp1340
a(I382
I2
F-0.5
S'long'
p1341
tp1342
a(I445
I1
I0
S'full'
p1343
tp1344
a(I472
I4
F-0.625
S'free'
p1345
tp1346
a(I736
I1
I0
S'fast'
p1347
tp1348
as(S'however'
p1349
tp1350
(lp1351
(I39
I3
F0.5
S'second'
p1352
tp1353
a(I664
I0
F0.375
S'new'
p1354
tp1355
as(S'device'
p1356
tp1357
(lp1358
(I7
I2
I0
S'great'
p1359
tp1360
a(I26
I4
F-0.25
S'plugged'
p1361
tp1362
a(I26
I4
I0
S'mobile'
p1363
tp1364
a(I144
I3
F0.375
S'new'
p1365
tp1366
a(I144
I9
F0.625
S'correct'
p1367
tp1368
a(I171
I1
F0.125
S'charger'
p1369
tp1370
a(I191
I0
F1.0
S'good'
p1371
tp1372
a(I492
I21
F0.125
S'capable'
p1373
tp1374
a(I719
I0
F0.375
S'new'
p1375
tp1376
a(I757
I0
F0.875
S'nice'
p1377
tp1378
as(S'wi'
p1379
S'fi'
p1380
tp1381
(lp1382
(I734
I2
F0.25
S'portable'
p1383
tp1384
as(S'call'
p1385
tp1386
(lp1387
(I160
I18
F0.25
S'original'
p1388
tp1389
a(I165
I3
F0.75
S'receive'
p1390
tp1391
a(I727
I5
F-0.625
S'bad'
p1392
tp1393
a(I727
I8
F1.0
S'better'
p1394
tp1395
a(I750
I6
I0
S'great'
p1396
tp1397
as(S'with'
p1398
S'android'
p1399
S'os'
p1400
tp1401
(lp1402
(I116
I0
I0
g587
tp1403
a(I307
I0
I0
g589
tp1404
a(I363
I2
I0
g591
tp1405
a(I471
I2
I0
g593
tp1406
a(I515
I0
I0
g595
tp1407
a(I638
I2
I0
S'android'
p1408
tp1409
a(I734
I4
I0
g597
tp1410
a(I750
I4
F-0.625
g948
tp1411
a(I750
I4
F-0.75
g950
tp1412
a(I776
I9
I0
S'android'
p1413
tp1414
as(S'front'
p1415
S'facing'
p1416
S'camera'
p1417
tp1418
(lp1419
(I92
I11
F-0.75
g410
tp1420
as(g599
S'long'
p1421
S'time'
p1422
tp1423
(lp1424
(I355
I4
F-0.5
S'long'
p1425
tp1426
a(I418
I1
F-0.5
S'long'
p1427
tp1428
a(I418
I1
F0.125
S'last'
p1429
tp1430
a(I623
I2
F-0.5
S'long'
p1431
tp1432
a(I647
I3
F-0.5
S'long'
p1433
tp1434
a(I724
I0
F-0.5
S'long'
p1435
tp1436
as(S'screen'
p1437
tp1438
(lp1439
(I6
I2
I0
S'large'
p1440
tp1441
a(I11
I0
F0.25
S'responsive'
p1442
tp1443
a(I37
I1
I0
S'big'
p1444
tp1445
a(I72
I0
I0
S'big'
p1446
tp1447
a(I111
I1
F0.875
S'nice'
p1448
tp1449
a(I112
I2
I0
S'great'
p1450
tp1451
a(I162
I0
F-0.75
S'dirty'
p1452
tp1453
a(I163
I0
I0
S'big'
p1454
tp1455
a(I193
I0
F-0.875
S'trouble'
p1456
tp1457
a(I201
I2
I0
S'large'
p1458
tp1459
a(I201
I2
F0.625
S'easy'
p1460
tp1461
a(I219
I3
I0
S'cool'
p1462
tp1463
a(I251
I2
I0
S'big'
p1464
tp1465
a(I277
I0
F0.875
S'nice'
p1466
tp1467
a(I277
I0
I0
S'large'
p1468
tp1469
a(I295
I4
I0
S'big'
p1470
tp1471
a(I295
I18
I0
S'big'
p1472
tp1473
a(I309
I3
F1.0
S'good'
p1474
tp1475
a(I311
I3
F-0.875
S'harder'
p1476
tp1477
a(I351
I2
I0
S'sensitive'
p1478
tp1479
a(I351
I2
I0
S'stable'
p1480
tp1481
a(I359
I11
F0.625
S'perfect'
p1482
tp1483
a(I433
I0
I0
S'big'
p1484
tp1485
a(I458
I7
F0.375
S'new'
p1486
tp1487
a(I485
I0
I0
S'great'
p1488
tp1489
a(I492
I4
F-0.375
S'top'
p1490
tp1491
a(I500
I0
F-0.5
S'lose'
p1492
tp1493
a(I527
I1
I0
S'big'
p1494
tp1495
a(I533
I4
F-0.375
S'black'
p1496
tp1497
a(I563
I0
F0.75
S'beautiful'
p1498
tp1499
a(I598
I1
I0
S'old'
p1500
tp1501
a(I598
I1
I0
S'such'
p1502
tp1503
a(I598
I1
F-0.375
S'small'
p1504
tp1505
a(I605
I0
I0
S'great'
p1506
tp1507
a(I609
I1
I0
S'very'
p1508
tp1509
a(I609
I1
F0.25
S'powerful'
p1510
tp1511
a(I720
I8
I0
S'big'
p1512
tp1513
a(I737
I0
I0
S'big'
p1514
tp1515
a(I770
I4
F0.75
S'beautiful'
p1516
tp1517
as(S'time'
p1518
tp1519
(lp1520
(I3
I0
F-0.75
S'incorrect'
p1521
tp1522
a(I74
I1
F0.5
S'second'
p1523
tp1524
a(I83
I0
I0
S'many'
p1525
tp1526
a(I84
I1
F0.125
S'first'
p1527
tp1528
a(I89
I3
F0.125
S'first'
p1529
tp1530
a(I105
I9
F0.125
S'first'
p1531
tp1532
a(I147
I4
F-0.75
S'short'
p1533
tp1534
a(I176
I3
I0
S'most'
p1535
tp1536
a(I252
I7
F-0.5
S'afraid'
p1537
tp1538
a(I269
I0
F0.125
S'first'
p1539
tp1540
a(I273
I7
F-0.375
S'crazy'
p1541
tp1542
a(I301
I4
I0
S'big'
p1543
tp1544
a(I306
I0
I0
S'many'
p1545
tp1546
a(I335
I2
F1.0
S'good'
p1547
tp1548
a(I338
I2
I0
S'rapid'
p1549
tp1550
a(I355
I4
F-0.5
g1425
tp1551
a(I379
I2
F0.125
S'first'
p1552
tp1553
a(I391
I0
I0
S'mobile'
p1554
tp1555
a(I391
I0
F1.0
S'good'
p1556
tp1557
a(I418
I1
F-0.5
g1427
tp1558
a(I418
I1
F0.125
g1429
tp1559
a(I419
I0
F-0.875
S'hard'
p1560
tp1561
a(I433
I0
F0.625
S'easy'
p1562
tp1563
a(I463
I1
F-0.25
S'ready'
p1564
tp1565
a(I560
I1
I0
S'mobile'
p1566
tp1567
a(I595
I1
I0
S'next'
p1568
tp1569
a(I597
I3
F0.125
S'first'
p1570
tp1571
a(I608
I2
I0
S'big'
p1572
tp1573
a(I611
I0
I0
S'only'
p1574
tp1575
a(I623
I2
F-0.5
g1431
tp1576
a(I624
I0
F-0.5
S'afraid'
p1577
tp1578
a(I647
I3
F-0.5
g1433
tp1579
a(I660
I0
I0
S'great'
p1580
tp1581
a(I673
I3
I0
S'next'
p1582
tp1583
a(I684
I1
F0.625
S'easy'
p1584
tp1585
a(I684
I1
F-0.75
S'little'
p1586
tp1587
a(I687
I0
I0
S'same'
p1588
tp1589
a(I724
I0
F-0.5
g1435
tp1590
a(I732
I0
F-0.875
S'hard'
p1591
tp1592
a(I767
I0
F1.0
S'good'
p1593
tp1594
a(I774
I0
F0.125
S'first'
p1595
tp1596
as(S'months'
p1597
tp1598
(lp1599
(I40
I1
I0
S'later'
p1600
tp1601
a(I68
I1
F0.875
S'happy'
p1602
tp1603
a(I132
I4
F0.125
S'first'
p1604
tp1605
a(I132
I8
I0
S'later'
p1606
tp1607
a(I193
I0
I0
S'later'
p1608
tp1609
a(I243
I0
F0.125
S'first'
p1610
tp1611
a(I292
I0
I0
S'old'
p1612
tp1613
a(I326
I0
I0
S'few'
p1614
tp1615
a(I333
I2
I0
S'old'
p1616
tp1617
a(I343
I0
F-0.75
S'short'
p1618
tp1619
a(I418
I0
F-0.75
S'short'
p1620
tp1621
a(I439
I5
I0
S'later'
p1622
tp1623
a(I546
I1
I0
S'later'
p1624
tp1625
a(I678
I3
F-0.5
S'less'
p1626
tp1627
as(g599
S'new'
p1628
S'battery'
p1629
tp1630
(lp1631
(I82
I0
F-0.75
g1036
tp1632
a(I289
I0
F0.375
g1066
tp1633
a(I289
I0
F0.375
g1068
tp1634
a(I304
I0
F0.375
g1070
tp1635
a(I436
I1
F-0.75
g1081
tp1636
a(I436
I1
F0.375
g1083
tp1637
a(I442
I0
F0.125
g1089
tp1638
a(I442
I0
F0.375
g1091
tp1639
a(I442
I0
F0.75
g1093
tp1640
a(I443
I2
F0.375
g1095
tp1641
a(I472
I4
F0.375
g1100
tp1642
a(I597
I2
F0.375
g1119
tp1643
a(I623
I11
F0.375
g1123
tp1644
a(I662
I1
F0.375
g1137
tp1645
a(I715
I1
F1.0
g1142
tp1646
as(S'fine'
p1647
tp1648
(lp1649
(I77
I1
F0.125
S'first'
p1650
tp1651
a(I195
I7
F-0.375
S'small'
p1652
tp1653
a(I390
I2
F-0.625
S'other'
p1654
tp1655
a(I409
I0
F-0.75
S'unable'
p1656
tp1657
as(S'good'
p1658
tp1659
(lp1660
(I553
I6
I0
S'big'
p1661
tp1662
a(I553
I6
I0
S'own'
p1663
tp1664
as(S'micro'
p1665
S'sd'
p1666
S'card'
p1667
tp1668
(lp1669
(I6
I1
I0
S'gig'
p1670
tp1671
a(I269
I5
F0.5
g215
tp1672
a(I340
I2
I0
S'big'
p1673
tp1674
a(I499
I1
F0.5
S'second'
p1675
tp1676
as(S'charger'
p1677
tp1678
(lp1679
(I136
I3
F-0.5
S'sure'
p1680
tp1681
a(I588
I0
F0.375
S'new'
p1682
tp1683
a(I588
I0
F-0.375
S'manual'
p1684
tp1685
a(I588
I0
F-0.75
S'dirty'
p1686
tp1687
a(I706
I8
F0.625
S'alright'
p1688
tp1689
a(I768
I2
F0.25
S'original'
p1690
tp1691
a(I774
I0
F0.125
S'electrical'
p1692
tp1693
as(S'happy'
p1694
tp1695
(lp1696
(I220
I6
F-0.125
S'overall'
p1697
tp1698
as(S'better'
p1699
tp1700
(lp1701
(I471
I29
F0.375
S'much'
p1702
tp1703
a(I654
I0
F-0.5
S'less'
p1704
tp1705
as(S'wifi'
p1706
tp1707
(lp1708
(I6
I3
F0.375
S'available'
p1709
tp1710
a(I6
I4
F0.375
S'available'
p1711
tp1712
a(I42
I2
F0.875
S'music'
p1713
tp1714
a(I148
I8
I0
S'most'
p1715
tp1716
a(I231
I6
I0
S'great'
p1717
tp1718
a(I231
I7
F0.375
S'much'
p1719
tp1720
a(I327
I2
F1.0
S'good'
p1721
tp1722
a(I327
I2
F-0.625
S'useless'
p1723
tp1724
a(I355
I1
F-0.5
S'weak'
p1725
tp1726
a(I468
I0
F-0.125
S'slow'
p1727
tp1728
a(I502
I6
F-0.625
S'useless'
p1729
tp1730
a(I606
I4
F0.5
S'clear'
p1731
tp1732
a(I606
I4
F-0.125
S'overall'
p1733
tp1734
a(I606
I4
F0.625
S'easy'
p1735
tp1736
a(I690
I1
F0.5
S'strong'
p1737
tp1738
as(S'life'
p1739
tp1740
(lp1741
(I58
I0
F-0.75
g91
tp1742
a(I142
I0
F1.0
g99
tp1743
a(I144
I10
I0
g101
tp1744
a(I150
I1
F1.0
g105
tp1745
a(I239
I5
F-0.75
g107
tp1746
a(I282
I2
F1.0
g109
tp1747
a(I310
I6
F-0.5
S'sure'
p1748
tp1749
a(I355
I5
F-0.875
g113
tp1750
a(I502
I4
I0
g121
tp1751
a(I502
I4
I0
g123
tp1752
a(I641
I3
I0
g129
tp1753
a(I658
I0
F-0.625
g131
tp1754
a(I668
I6
I0
g133
tp1755
a(I727
I3
I0
g135
tp1756
a(I727
I3
F-0.625
g137
tp1757
as(S'days'
p1758
tp1759
(lp1760
(I8
I1
F-0.5
S'less'
p1761
tp1762
a(I178
I1
F-0.625
S'other'
p1763
tp1764
a(I269
I7
I0
S'later'
p1765
tp1766
a(I271
I1
I0
S'few'
p1767
tp1768
a(I383
I2
F0.125
S'buddy'
p1769
tp1770
a(I521
I4
I0
S'few'
p1771
tp1772
a(I623
I8
F0.375
S'new'
p1773
tp1774
a(I684
I0
F0.5
S'manner'
p1775
tp1776
a(I752
I1
I0
S'most'
p1777
tp1778
as(S'fast'
p1779
tp1780
(lp1781
(I31
I0
F0.5
S'strong'
p1782
tp1783
a(I31
I0
F-0.5
S'heavy'
p1784
tp1785
a(I31
I0
F-0.625
S'bad'
p1786
tp1787
a(I486
I0
I0
S'very'
p1788
tp1789
as(S'working'
p1790
tp1791
(lp1792
(I627
I1
F-0.375
g1167
tp1793
as.