(dp0
(S'iphone'
p1
tp2
(lp3
(I2
I81
F0.25
S'unlocked'
p4
I1
tp5
a(I3
I7
I0
S'same'
p6
I1
tp7
as(S'warranty'
p8
tp9
(lp10
(I1
I54
F-0.25
S'loose'
p11
I2
tp12
a(I25
I1
F0.875
S'happy'
p13
I2
tp14
as(S'battery'
p15
S'life'
p16
tp17
(lp18
(I0
I7
F0.125
S'last'
p19
I1
tp20
a(I10
I3
F-0.5
S'longer'
p21
I1
tp22
a(I26
I5
F0.625
S'acceptable'
p23
I1
tp24
a(I0
I7
F0.125
g19
I19
tp25
a(I10
I3
F-0.5
g21
I19
tp26
a(I26
I5
F0.625
g23
I19
tp27
a(I2
I16
F0.375
S'new'
p28
I15
tp29
a(I2
I94
F0.125
S'last'
p30
I15
tp31
a(I2
I94
F1.0
S'good'
p32
I15
tp33
a(I11
I12
F-0.75
S'wrong'
p34
I15
tp35
a(I23
I9
F-0.5
S'less'
p36
I15
tp37
a(I31
I4
F0.375
S'new'
p38
I15
tp39
as(S'apps'
p40
tp41
(lp42
(I0
I5
F-0.625
S'free'
p43
I0
tp44
a(I18
I29
I0
S'many'
p45
I0
tp46
a(I18
I29
F0.375
S'available'
p47
I0
tp48
a(I22
I23
F0.375
S'extra'
p49
I0
tp50
a(I25
I0
I0
S'many'
p51
I0
tp52
a(I27
I22
I0
S'many'
p53
I0
tp54
a(I31
I0
I0
S'great'
p55
I0
tp56
as(S'windows'
p57
tp58
(lp59
(I0
I9
F0.375
S'new'
p60
I0
tp61
a(I1
I18
F0.25
S'original'
p62
I0
tp63
a(I3
I61
F0.375
S'new'
p64
I0
tp65
a(I8
I15
F0.25
S'familiar'
p66
I0
tp67
a(I18
I15
F-0.625
S'other'
p68
I0
tp69
a(I22
I20
F0.625
S'interested'
p70
I0
tp71
a(I22
I21
F-0.5
S'sure'
p72
I0
tp73
as(S'surround'
p74
tp75
(lp76
(I3
I9
F0.25
S'bigger'
p77
I1
tp78
as(S'2'
p79
S'months'
p80
tp81
(lp82
(I2
I98
F-0.875
S'trouble'
p83
I0
tp84
a(I5
I1
I0
S'subjective'
p85
I0
tp86
as(S'sim'
p87
S'card'
p88
tp89
(lp90
(I20
I7
F1.0
S'good'
p91
I0
tp92
as(S'zune'
p93
tp94
(lp95
(I3
I18
I0
S'more'
p96
I0
tp97
a(I24
I9
F0.375
S'much'
p98
I0
tp99
as(S'sound'
p100
tp101
(lp102
(I2
I32
F1.0
S'good'
p103
I7
tp104
a(I3
I49
I0
S'great'
p105
I7
tp106
as(S'live'
p107
S'tiles'
p108
tp109
(lp110
(I3
I13
F0.5
S'live'
p111
I0
tp112
a(I3
I14
F0.5
S'live'
p113
I0
tp114
a(I3
I36
F0.5
S'live'
p115
I0
tp116
a(I3
I37
F0.5
S'live'
p117
I0
tp118
a(I27
I19
F0.5
S'live'
p119
I0
tp120
as(S'applications'
p121
tp122
(lp123
(I2
I84
I0
S'different'
p124
I3
tp125
a(I3
I23
I0
S'more'
p126
I3
tp127
a(I3
I25
F0.875
S'important'
p128
I3
tp129
a(I3
I31
I0
S'basic'
p130
I3
tp131
a(I11
I21
I0
S'many'
p132
I3
tp133
a(I11
I21
I0
S'useful'
p134
I3
tp135
a(I20
I26
F1.0
S'good'
p136
I3
tp137
as(S'speakers'
p138
tp139
(lp140
(I1
I2
I0
S'cool'
p141
I2
tp142
a(I1
I21
F-0.25
S'pop-up'
p143
I2
tp144
a(I1
I26
F-0.25
S'pop-up'
p145
I2
tp146
a(I17
I12
F0.875
S'music'
p147
I2
tp148
a(I26
I4
I0
S'great'
p149
I2
tp150
as(S'camera'
p151
tp152
(lp153
(I3
I10
F1.0
S'good'
p154
I1
tp155
a(I5
I1
F0.875
S'nice'
p156
I1
tp157
as(S'touch'
p158
S'screen'
p159
tp160
(lp161
(I2
I8
F0.5
S'touch'
p162
I2
tp163
a(I2
I11
F-0.75
S'unresponsive'
p164
I2
tp165
a(I13
I2
F1.0
S'good'
p166
I2
tp167
as(S'speaker'
p168
tp169
(lp170
(I2
I90
F0.875
S'music'
p171
I8
tp172
a(I2
I90
I0
S'wherever'
p173
I8
tp174
a(I5
I1
F0.75
S'worth'
p175
I8
tp176
a(I15
I14
I0
S'great'
p177
I8
tp178
a(I20
I10
F0.875
S'nice'
p179
I8
tp180
as.