(dp0
(S'battery'
p1
S'life'
p2
tp3
(lp4
(I1
I11
F1.0
S'good'
p5
I1
tp6
a(I1
I11
F0.875
S'important'
p7
I1
tp8
a(I22
I94
F-0.625
S'bad'
p9
I1
tp10
a(I22
I126
F1.0
S'good'
p11
I1
tp12
a(I22
I126
F-0.25
S'battery'
p13
I1
tp14
a(I22
I164
F-0.125
S'mine'
p15
I1
tp16
a(I22
I164
F1.0
S'good'
p17
I1
tp18
a(I23
I7
F-0.625
S'bad'
p19
I1
tp20
a(I23
I15
F-0.75
S'short'
p21
I1
tp22
a(I34
I41
F1.0
S'good'
p23
I1
tp24
a(I1
I11
F1.0
g5
I19
tp25
a(I1
I11
F0.875
g7
I19
tp26
a(I22
I89
I0
S'real'
p27
I19
tp28
a(I22
I94
F-0.625
g9
I19
tp29
a(I22
I126
F1.0
g11
I19
tp30
a(I22
I126
F-0.25
g13
I19
tp31
a(I22
I164
F-0.125
g15
I19
tp32
a(I22
I164
F1.0
g17
I19
tp33
a(I23
I7
F-0.625
g19
I19
tp34
a(I23
I15
F-0.75
g21
I19
tp35
a(I34
I41
F1.0
g23
I19
tp36
a(I21
I1
I0
S'fast'
p37
I15
tp38
a(I22
I131
I0
S'great'
p39
I15
tp40
a(I33
I12
F0.125
S'last'
p41
I15
tp42
a(I33
I14
F0.125
S'last'
p43
I15
tp44
as(S'android'
p45
tp46
(lp47
(I16
I35
F0.625
S'positive'
p48
I0
tp49
a(I26
I13
I0
S'latest'
p50
I0
tp51
as(S'last'
p52
S'year'
p53
tp54
(lp55
(I34
I31
F0.125
S'last'
p56
I3
tp57
as(S'sync'
p58
tp59
(lp60
(I10
I13
F-0.625
S'bad'
p61
I0
tp62
a(I22
I10
I0
S'signal'
p63
I0
tp64
as(S'smartwatch'
p65
tp66
(lp67
(I13
I0
F0.375
S'watched'
p68
I0
tp69
a(I16
I9
F0.125
S'able'
p70
I0
tp71
a(I22
I146
I0
S'many'
p72
I0
tp73
a(I22
I146
I0
S'more'
p74
I0
tp75
a(I22
I173
F-0.375
S'fanciest'
p76
I0
tp77
a(I22
I173
F0.375
S'available'
p78
I0
tp79
a(I34
I64
F1.0
S'best'
p80
I0
tp81
a(I34
I64
F0.375
S'available'
p82
I0
tp83
a(I34
I65
F-0.25
S'google'
p84
I0
tp85
a(I34
I65
F1.0
S'better'
p86
I0
tp87
a(I34
I65
I0
S'appear'
p88
I0
tp89
as(S'sony'
p90
tp91
(lp92
(I22
I10
I0
S'cool'
p93
I5
tp94
a(I22
I152
I0
S'full'
p95
I5
tp96
a(I34
I65
I0
S'same'
p97
I5
tp98
a(I34
I65
F-0.75
S'worse'
p99
I5
tp100
a(I34
I65
F0.5
S'expensive'
p101
I5
tp102
a(I34
I66
F0.625
S'easier'
p103
I5
tp104
as(S'bluetooth'
p105
tp106
(lp107
(I16
I24
F0.875
S'lucky'
p108
I3
tp109
a(I22
I33
F-0.625
S'other'
p110
I3
tp111
a(I26
I21
F0.125
S'able'
p112
I3
tp113
as(S'european'
p114
S'charger'
p115
tp116
(lp117
(I19
I0
I0
S'european'
p118
I0
tp119
a(I22
I60
I0
S'european'
p120
I0
tp121
a(I22
I77
I0
S'only'
p122
I0
tp123
a(I22
I77
I0
S'big'
p124
I0
tp125
a(I22
I77
F-0.875
S'negative'
p126
I0
tp127
a(I22
I77
I0
S'european'
p128
I0
tp129
a(I32
I16
I0
S'european'
p130
I0
tp131
as(S'google'
p132
tp133
(lp134
(I26
I20
F0.375
S'available'
p135
I4
tp136
as(S'cool'
p137
tp138
(lp139
(I30
I5
I0
S'few'
p140
I11
tp141
as(S'watch'
p142
S'band'
p143
tp144
(lp145
(I0
I9
I0
S'next'
p146
I0
tp147
a(I16
I1
F0.375
S'new'
p148
I0
tp149
a(I32
I22
F-0.75
S'difficult'
p150
I0
tp151
as(S'live'
p152
S'view'
p153
tp154
(lp155
(I23
I16
F0.5
S'live'
p156
I0
tp157
a(I23
I19
F0.5
S'live'
p158
I0
tp159
a(I23
I19
F0.5
S'live'
p160
I0
tp161
as(S'firmware'
p162
tp163
(lp164
(I11
I16
I0
S'latest'
p165
I0
tp166
a(I11
I18
I0
S'latest'
p167
I0
tp168
a(I22
I13
F0.375
S'new'
p169
I0
tp170
a(I33
I0
F0.125
S'first'
p171
I0
tp172
as(S'strap'
p173
tp174
(lp175
(I22
I164
F-0.75
S'comfortable'
p176
I5
tp177
a(I22
I164
F0.625
S'aesthetic'
p178
I5
tp179
a(I22
I165
F0.25
S'original'
p180
I5
tp181
as(S'micro'
p182
S'usb'
p183
tp184
(lp185
(I16
I5
I0
S'standard'
p186
I0
tp187
a(I22
I78
I0
S'standard'
p188
I0
tp189
as(S'play'
p190
S'store'
p191
tp192
(lp193
(I10
I5
F-0.875
S'awful'
p194
I0
tp195
as(S'design'
p196
S'flaw'
p197
tp198
(lp199
(I22
I44
F0.125
S'first'
p200
I3
tp201
a(I30
I6
I0
S'many'
p202
I3
tp203
as(S'calls'
p204
tp205
(lp206
(I22
I101
I0
S'great'
p207
I0
tp208
a(I26
I10
I0
S'great'
p209
I0
tp210
as(S'usb'
p211
S'port'
p212
tp213
(lp214
(I1
I11
I0
S'included'
p215
I0
tp216
a(I1
I11
I0
S'cable'
p217
I0
tp218
as(S'text'
p219
S'messages'
p220
tp221
(lp222
(I11
I12
I0
S'text'
p223
I0
tp224
a(I11
I12
I0
g223
I1
tp225
a(I32
I6
F-0.5
S'sure'
p226
I1
tp227
as(S'smart'
p228
S'watch'
p229
tp230
(lp231
(I8
I20
I0
S'pebble'
p232
I0
tp233
a(I13
I0
I0
S'great'
p234
I0
tp235
a(I13
I0
F0.125
S'first'
p236
I0
tp237
a(I20
I18
F0.375
S'new'
p238
I0
tp239
a(I20
I47
F1.0
S'best'
p240
I0
tp241
a(I21
I2
I0
S'promising'
p242
I0
tp243
a(I22
I14
F0.375
S'new'
p244
I0
tp245
a(I22
I109
I0
S'close'
p246
I0
tp247
a(I20
I18
F0.375
g238
I10
tp248
a(I20
I47
F1.0
g240
I10
tp249
a(I21
I2
I0
g242
I10
tp250
a(I22
I14
F0.375
g244
I10
tp251
a(I22
I109
I0
g246
I10
tp252
as(S'control'
p253
S'music'
p254
tp255
(lp256
(I16
I50
F0.875
S'music'
p257
I0
tp258
a(I18
I7
F-0.75
S'dangerous'
p259
I0
tp260
a(I18
I7
F-0.75
g259
I0
tp261
a(I13
I0
F0.125
S'able'
p262
I8
tp263
a(I16
I50
F0.875
g257
I8
tp264
a(I22
I57
I0
S'full'
p265
I8
tp266
a(I22
I148
F0.625
S'easy'
p267
I8
tp268
as(S'liveview'
p269
S'app'
p270
tp271
(lp272
(I1
I2
F0.375
S'available'
p273
I0
tp274
a(I22
I35
F0.625
S'necessary'
p275
I0
tp276
a(I26
I27
F0.625
S'straight'
p277
I0
tp278
a(I1
I3
F-0.625
S'light'
p279
I0
tp280
a(I1
I22
F0.625
S'easy'
p281
I0
tp282
a(I1
I22
I0
S'more'
p283
I0
tp284
a(I11
I36
I0
S'more'
p285
I0
tp286
a(I18
I19
F-0.75
S'difficult'
p287
I0
tp288
a(I18
I19
F0.5
S'possible'
p289
I0
tp290
a(I22
I12
F0.625
S'necessary'
p291
I0
tp292
a(I22
I35
F0.625
g275
I0
tp293
a(I26
I27
F0.625
g277
I0
tp294
as(S'clip'
p295
tp296
(lp297
(I16
I5
F-0.5
S'sure'
p298
I14
tp299
a(I29
I26
F-0.25
S'perpendicular'
p300
I14
tp301
as(S'apps'
p302
tp303
(lp304
(I0
I1
I0
S'many'
p305
I0
tp306
a(I16
I7
F0.625
S'easy'
p307
I0
tp308
a(I18
I0
I0
S'useful'
p309
I0
tp310
a(I22
I146
I0
S'more'
p311
I0
tp312
a(I26
I27
F-0.625
S'other'
p313
I0
tp314
a(I27
I20
F-0.375
S'simple'
p315
I0
tp316
a(I32
I20
I0
S'most'
p317
I0
tp318
a(I32
I20
F-0.625
S'useless'
p319
I0
tp320
as(S'connection'
p321
S'issues'
p322
tp323
(lp324
(I20
I45
I0
S'real'
p325
I0
tp326
a(I22
I156
I0
S'minimal'
p327
I0
tp328
as(S'touch'
p329
S'screen'
p330
tp331
(lp332
(I1
I19
F0.5
S'true'
p333
I2
tp334
a(I7
I7
F0.5
S'touch'
p335
I2
tp336
a(I8
I20
I0
S'full'
p337
I2
tp338
a(I16
I38
I0
S'sensitive'
p339
I2
tp340
a(I20
I26
F0.5
S'touch'
p341
I2
tp342
a(I22
I47
F0.5
S'touch'
p343
I2
tp344
a(I22
I47
F0.625
S'easy'
p345
I2
tp346
a(I33
I15
F-0.375
S'small'
p347
I2
tp348
a(I33
I15
F0.5
S'touch'
p349
I2
tp350
a(I34
I47
F0.25
S'responsive'
p351
I2
tp352
a(I34
I47
F0.5
S'touch'
p353
I2
tp354
as(S'wrist'
p355
tp356
(lp357
(I10
I20
F0.625
S'easy'
p358
I0
tp359
a(I21
I1
F-0.375
S'ugly'
p360
I0
tp361
a(I22
I164
I0
S'standard'
p362
I0
tp363
as.