(dp0
(S'blackberry'
p1
tp2
(lp3
(I35
I0
F0.625
S'fair'
p4
I1
tp5
a(I35
I0
F-0.5
S'poor'
p6
I1
tp7
a(I45
I13
F0.5
S'true'
p8
I1
tp9
as(S'data'
p10
S'plan'
p11
tp12
(lp13
(I13
I21
F-0.625
S'sorry'
p14
I0
tp15
a(I13
I29
F0.375
S'forcing'
p16
I0
tp17
as(S'le'
p18
S'coloque'
p19
tp20
(lp21
(I13
I3
F-0.375
S'le'
p22
I0
tp23
as(S'en'
p24
S'venezuela'
p25
tp26
(lp27
(I53
I0
F0.125
S'able'
p28
I0
tp29
as(S'muy'
p30
S'buen'
p31
tp32
(lp33
(I8
I0
I0
S'y'
p34
I1
tp35
a(I57
I5
I0
S'al'
p36
I1
tp37
as(S'pearl'
p38
tp39
(lp40
(I45
I11
I0
S'iconic'
p41
I1
tp42
as(S'y'
p43
S'el'
p44
tp45
(lp46
(I20
I7
I0
S'al'
p47
I2
tp48
as(S'venezuela'
p49
g43
tp50
(lp51
(I53
I0
F0.125
g28
I0
tp52
a(I53
I0
F0.125
g28
I0
tp53
as(S'movistar'
p54
g43
tp55
(lp56
(I20
I7
I0
g47
I0
tp57
as(S'service'
p58
tp59
(lp60
(I9
I4
F0.5
S'technical'
p61
I16
tp62
a(I24
I1
F0.5
S'technical'
p63
I16
tp64
a(I33
I0
F-0.125
S'blackberry'
p65
I16
tp66
a(I42
I9
I0
S'cellular'
p67
I16
tp68
a(I43
I4
F1.0
S'good'
p69
I16
tp70
a(I46
I3
F0.5
S'second'
p71
I16
tp72
a(I46
I3
I0
S'same'
p73
I16
tp74
a(I46
I3
I0
S'same'
p75
I16
tp76
a(I46
I3
I0
S'same'
p77
I16
tp78
a(I46
I7
F0.5
S'technical'
p79
I16
tp80
a(I46
I10
F0.125
S'able'
p81
I16
tp82
as.