(dp0
(S'home'
p1
S'button'
p2
tp3
(lp4
(I11
I71
F-0.125
S'slow'
p5
I0
tp6
a(I11
I71
F-0.125
g5
I19
tp7
as(S'apple'
p8
S'store'
p9
tp10
(lp11
(I24
I4
I0
S'apple'
p12
I0
tp13
a(I10
I16
F0.375
S'new'
p14
I4
tp15
a(I38
I41
I0
S'more'
p16
I4
tp17
a(I53
I6
I0
S'more'
p18
I4
tp19
as(S'battery'
p20
S'life'
p21
tp22
(lp23
(I4
I13
F-0.25
S'battery'
p24
I1
tp25
a(I38
I22
F-0.625
S'bad'
p26
I1
tp27
a(I45
I1
F-0.25
S'cheaper'
p28
I1
tp29
a(I45
I1
I0
S'android'
p30
I1
tp31
a(I4
I13
F-0.25
g24
I19
tp32
a(I38
I22
F-0.625
g26
I19
tp33
a(I6
I14
I0
S'old'
p34
I15
tp35
a(I28
I2
F-0.625
S'bad'
p36
I15
tp37
a(I28
I4
I0
S'great'
p38
I15
tp39
a(I44
I15
F-0.5
S'weak'
p40
I15
tp41
a(I45
I1
F-0.25
g28
I15
tp42
a(I45
I1
I0
g30
I15
tp43
a(I53
I26
F0.125
S'last'
p44
I15
tp45
a(I53
I26
F-0.5
S'long'
p46
I15
tp47
as(S'high'
p48
S'quality'
p49
tp50
(lp51
(I9
I9
I0
S'high'
p52
I12
tp53
a(I10
I5
F0.125
S'usual'
p54
I12
tp55
a(I10
I5
I0
S'high'
p56
I12
tp57
a(I10
I6
I0
S'high'
p58
I12
tp59
as(S'water'
p60
S'damage'
p61
tp62
(lp63
(I5
I12
F0.75
S'due'
p64
I0
tp65
a(I5
I12
I0
S'extensive'
p66
I0
tp67
a(I4
I3
F0.625
S'major'
p68
I10
tp69
a(I4
I8
I0
S'such'
p70
I10
tp71
a(I4
I8
F-0.75
S'likely'
p72
I10
tp73
a(I4
I8
I0
S'internal'
p74
I10
tp75
a(I5
I12
F0.75
g64
I10
tp76
a(I5
I12
I0
g66
I10
tp77
as(S'straight'
p78
S'talk'
p79
tp80
(lp81
(I15
I2
F0.625
S'straight'
p82
I0
tp83
as(S'in'
p84
S'great'
p85
S'condition'
p86
tp87
(lp88
(I4
I15
I0
S'great'
p89
I6
tp90
a(I39
I0
F1.0
S'good'
p91
I6
tp92
a(I39
I7
I0
S'great'
p93
I6
tp94
a(I45
I16
I0
S'great'
p95
I6
tp96
a(I48
I1
I0
S'great'
p97
I6
tp98
a(I52
I1
I0
S'great'
p99
I6
tp100
a(I54
I2
I0
S'great'
p101
I6
tp102
a(I54
I9
I0
S'great'
p103
I6
tp104
a(I57
I18
F1.0
S'like'
p105
I6
tp106
a(I57
I18
F0.375
S'new'
p107
I6
tp108
a(I57
I18
I0
S'great'
p109
I6
tp110
a(I4
I15
I0
g89
I7
tp111
a(I39
I0
F1.0
g91
I7
tp112
a(I39
I7
I0
g93
I7
tp113
a(I45
I16
I0
g95
I7
tp114
a(I48
I1
I0
g97
I7
tp115
a(I52
I1
I0
g99
I7
tp116
a(I54
I2
I0
g101
I7
tp117
a(I54
I9
I0
g103
I7
tp118
a(I57
I18
F1.0
g105
I7
tp119
a(I57
I18
F0.375
g107
I7
tp120
a(I57
I18
I0
g109
I7
tp121
as(S'verizon'
p122
tp123
(lp124
(I17
I4
I0
S'website'
p125
I0
tp126
a(I25
I16
I0
S'great'
p127
I0
tp128
a(I45
I12
I0
S'local'
p129
I0
tp130
a(I48
I29
F0.375
S'much'
p131
I0
tp132
a(I48
I29
F1.0
S'better'
p133
I0
tp134
as(S'apple'
p135
S'iphone'
p136
tp137
(lp138
(I10
I16
F0.375
g14
I0
tp139
a(I44
I30
I0
S'own'
p140
I0
tp141
a(I50
I28
F1.0
S'good'
p142
I0
tp143
as(S'seller'
p144
tp145
(lp146
(I21
I5
F0.375
S'new'
p147
I19
tp148
a(I32
I4
F0.625
S'easy'
p149
I19
tp150
a(I40
I10
F-0.625
S'free'
p151
I19
tp152
a(I44
I0
F0.125
S'first'
p153
I19
tp154
a(I45
I3
F0.25
S'helpful'
p155
I19
tp156
a(I45
I3
F0.25
S'responsive'
p157
I19
tp158
as(S'in'
p159
S'good'
p160
S'condition'
p161
tp162
(lp163
(I10
I21
F1.0
S'good'
p164
I6
tp165
a(I23
I0
F1.0
S'good'
p166
I6
tp167
a(I30
I2
F1.0
S'good'
p168
I6
tp169
a(I39
I0
F1.0
g91
I6
tp170
a(I44
I1
F1.0
S'good'
p171
I6
tp172
a(I51
I0
F1.0
S'good'
p173
I6
tp174
a(I51
I8
F1.0
S'good'
p175
I6
tp176
a(I51
I8
I0
S'physical'
p177
I6
tp178
a(I10
I21
F1.0
g164
I6
tp179
a(I23
I0
F1.0
g166
I6
tp180
a(I30
I2
F1.0
g168
I6
tp181
a(I39
I0
F1.0
g91
I6
tp182
a(I44
I1
F1.0
g171
I6
tp183
a(I51
I0
F1.0
g173
I6
tp184
a(I51
I8
F1.0
g175
I6
tp185
a(I51
I8
I0
g177
I6
tp186
as(S'scratches'
p187
tp188
(lp189
(I11
I26
I0
S'few'
p190
I4
tp191
a(I17
I4
F0.625
S'easy'
p192
I4
tp193
a(I44
I2
F-0.25
S'ready'
p194
I4
tp195
a(I44
I16
I0
S'few'
p196
I4
tp197
a(I51
I6
I0
S'many'
p198
I4
tp199
as(S'clean'
p200
S'esn'
p201
tp202
(lp203
(I40
I10
F-0.625
S'clean'
p204
I0
tp205
a(I40
I10
F-0.875
S'scratch'
p206
I0
tp207
a(I40
I11
F-0.625
S'clean'
p208
I0
tp209
a(I51
I2
F-0.625
S'clean'
p210
I0
tp211
as(S'replacement'
p212
tp213
(lp214
(I20
I3
I0
S'needed'
p215
I13
tp216
a(I47
I24
I0
S'needed'
p217
I13
tp218
a(I50
I24
F0.5
S'told'
p219
I13
tp220
as(S'previous'
p221
S'owner'
p222
tp223
(lp224
(I47
I1
F0.375
S'meant'
p225
I0
tp226
a(I56
I29
F0.375
S'new'
p227
I0
tp228
as(S'brand'
p229
S'new'
p230
tp231
(lp232
(I5
I4
F0.375
S'new'
p233
I9
tp234
a(I5
I10
F0.375
S'new'
p235
I9
tp236
a(I5
I10
F-0.5
S'aside'
p237
I9
tp238
a(I6
I13
F0.375
S'new'
p239
I9
tp240
a(I10
I22
F0.375
S'new'
p241
I9
tp242
a(I11
I18
F0.375
S'new'
p243
I9
tp244
a(I14
I3
F0.375
S'new'
p245
I9
tp246
a(I14
I3
F0.375
S'new'
p247
I9
tp248
a(I17
I13
F0.375
S'new'
p249
I9
tp250
a(I38
I49
F0.375
S'new'
p251
I9
tp252
a(I41
I2
F0.375
S'new'
p253
I9
tp254
a(I43
I4
F0.375
S'new'
p255
I9
tp256
a(I45
I4
F0.375
S'new'
p257
I9
tp258
a(I46
I2
F0.375
S'new'
p259
I9
tp260
a(I47
I6
F0.375
S'new'
p261
I9
tp262
a(I50
I8
F0.375
S'new'
p263
I9
tp264
a(I56
I9
F0.375
S'new'
p265
I9
tp266
as(S'sim'
p267
S'card'
p268
tp269
(lp270
(I5
I54
I0
S'external'
p271
I0
tp272
a(I11
I74
F0.125
S'able'
p273
I0
tp274
a(I58
I13
F-0.667
S'incompatible'
p275
I0
tp276
as(S'love'
p277
S'iphone'
p278
tp279
(lp280
(I16
I2
F0.5
S'second'
p281
I0
tp282
a(I32
I6
F-0.375
S'black'
p283
I0
tp284
a(I34
I1
F0.375
S'much'
p285
I0
tp286
a(I34
I1
I0
S'great'
p287
I0
tp288
a(I4
I10
F0.875
S'happy'
p289
I1
tp290
a(I4
I13
F0.125
S'first'
p291
I1
tp292
a(I4
I13
F0.125
S'first'
p293
I1
tp294
a(I5
I39
I0
S'quick'
p295
I1
tp296
a(I13
I0
F0.125
S'first'
p297
I1
tp298
a(I13
I3
F-0.125
S'overall'
p299
I1
tp300
a(I13
I3
F0.875
S'happy'
p301
I1
tp302
a(I13
I27
F1.0
S'best'
p303
I1
tp304
a(I13
I27
I0
S'ect'
p305
I1
tp306
a(I14
I2
F0.625
S'correct'
p307
I1
tp308
a(I15
I0
F0.375
S'new'
p309
I1
tp310
a(I15
I14
I0
S'such'
p311
I1
tp312
a(I15
I21
F0.25
S'original'
p313
I1
tp314
a(I16
I2
F0.5
g281
I1
tp315
a(I25
I14
F0.5
S'operable'
p316
I1
tp317
a(I25
I21
F0.375
S'new'
p318
I1
tp319
a(I31
I0
F-0.25
S'white'
p320
I1
tp321
a(I31
I0
F-0.375
S'black'
p322
I1
tp323
a(I32
I6
F-0.375
g283
I1
tp324
a(I33
I5
F-0.625
S'clean'
p325
I1
tp326
a(I34
I1
F0.375
g285
I1
tp327
a(I34
I1
I0
g287
I1
tp328
a(I37
I3
F-0.75
S'impossible'
p329
I1
tp330
a(I38
I21
I0
S'such'
p331
I1
tp332
a(I38
I21
F0.875
S'nice'
p333
I1
tp334
a(I38
I46
F0.875
S'happy'
p335
I1
tp336
a(I39
I4
F0.5
S'expensive'
p337
I1
tp338
a(I42
I0
I-100
S'aprehensive'
p339
I1
tp340
a(I42
I0
F0.125
S'first'
p341
I1
tp342
a(I44
I24
I-100
S'indifferent'
p343
I1
tp344
a(I44
I29
I0
S'close'
p345
I1
tp346
a(I44
I30
I0
g140
I1
tp347
a(I45
I32
F-0.75
S'dark'
p348
I1
tp349
a(I46
I2
F0.875
S'happy'
p350
I1
tp351
a(I46
I7
F0.5
S'rid'
p352
I1
tp353
a(I50
I0
I0
S'great'
p354
I1
tp355
a(I50
I26
F-0.375
S'black'
p356
I1
tp357
a(I50
I28
F1.0
g142
I1
tp358
a(I53
I14
F0.75
S'due'
p359
I1
tp360
a(I53
I14
F-0.5
S'actual'
p361
I1
tp362
a(I56
I22
F-0.125
S'overall'
p363
I1
tp364
a(I56
I22
I0
S'next'
p365
I1
tp366
a(I56
I32
F0.25
S'used'
p367
I1
tp368
a(I57
I0
F0.125
S'first'
p369
I1
tp370
as(S'serial'
p371
S'number'
p372
tp373
(lp374
(I37
I0
I0
S'serial'
p375
I0
tp376
a(I44
I21
I0
S'serial'
p377
I0
tp378
a(I56
I29
I0
S'serial'
p379
I0
tp380
as(S'amazon'
p381
S'warehouse'
p382
tp383
(lp384
(I44
I8
F0.125
S'amazon'
p385
I0
tp386
a(I25
I16
F-0.75
S'wrong'
p387
I13
tp388
a(I45
I2
I0
S'great'
p389
I13
tp390
as(S'customer'
p391
S'service'
p392
tp393
(lp394
(I27
I16
F1.0
S'better'
p395
I3
tp396
a(I9
I3
I0
S'local'
p397
I16
tp398
a(I27
I16
F1.0
g395
I16
tp399
a(I40
I1
I0
S'cellular'
p400
I16
tp401
a(I57
I10
I0
S'great'
p402
I16
tp403
a(I57
I31
I0
S'great'
p404
I16
tp405
as(S'apps'
p406
tp407
(lp408
(I58
I4
I0
S'many'
p409
I0
tp410
as.