(dp0
(S'home'
p1
S'button'
p2
tp3
(lp4
(I48
I23
F0.25
S'main'
p5
I0
tp6
a(I50
I2
F0.25
S'original'
p7
I0
tp8
a(I99
I1
F0.25
S'responsive'
p9
I0
tp10
a(I135
I17
F0.125
S'first'
p11
I0
tp12
a(I26
I14
F-0.625
S'bad'
p13
I19
tp14
a(I48
I23
F0.25
g5
I19
tp15
a(I50
I70
I0
S'portal'
p16
I19
tp17
a(I99
I1
F0.25
g9
I19
tp18
a(I127
I21
F0.25
S'main'
p19
I19
tp20
a(I141
I17
F-0.375
S'top'
p21
I19
tp22
as(S'timely'
p23
S'manner'
p24
tp25
(lp26
(I35
I5
I0
S'timely'
p27
I7
tp28
a(I99
I0
I0
S'timely'
p29
I7
tp30
a(I129
I20
I0
S'timely'
p31
I7
tp32
as(S'battery'
p33
S'life'
p34
tp35
(lp36
(I2
I17
F-0.5
S'long'
p37
I1
tp38
a(I6
I0
I0
S'great'
p39
I1
tp40
a(I60
I0
F1.0
S'good'
p41
I1
tp42
a(I66
I2
F0.125
S'impressive'
p43
I1
tp44
a(I69
I28
F-0.625
S'bad'
p45
I1
tp46
a(I90
I3
F-0.625
S'average'
p47
I1
tp48
a(I109
I8
F1.0
S'good'
p49
I1
tp50
a(I6
I0
I0
g39
I15
tp51
a(I46
I9
F-0.75
S'dead'
p52
I15
tp53
a(I48
I28
F-0.5
S'longer'
p54
I15
tp55
a(I51
I13
F-0.75
S'damaging'
p56
I15
tp57
a(I51
I14
F0.625
S'removable'
p58
I15
tp59
a(I52
I31
I0
S'great'
p60
I15
tp61
a(I60
I0
F1.0
g41
I15
tp62
a(I69
I27
F-0.75
S'little'
p63
I15
tp64
a(I69
I28
F-0.625
g45
I15
tp65
a(I79
I19
I0
S'more'
p66
I15
tp67
a(I90
I3
F-0.625
g47
I15
tp68
a(I97
I13
F1.0
S'good'
p69
I15
tp70
a(I109
I32
F0.125
S'last'
p71
I15
tp72
a(I137
I70
F0.375
S'new'
p73
I15
tp74
a(I137
I71
F-0.625
S'sporadic'
p75
I15
tp76
a(I137
I105
F1.0
S'good'
p77
I15
tp78
a(I138
I1
I0
S'wish'
p79
I15
tp80
as(S'happy'
p81
S'with'
p82
S'purchase'
p83
tp84
(lp85
(I50
I21
F0.875
S'happy'
p86
I0
tp87
a(I53
I31
F-0.875
S'unhappy'
p88
I0
tp89
a(I96
I23
F0.875
S'happy'
p90
I0
tp91
a(I132
I18
F-0.125
S'overall'
p92
I0
tp93
a(I132
I18
F0.875
S'happy'
p94
I0
tp95
a(I146
I4
F-0.125
S'overall'
p96
I0
tp97
as(S'operating'
p98
S'systems'
p99
tp100
(lp101
(I48
I11
I0
S'latest'
p102
I0
tp103
a(I48
I11
I0
S'most'
p104
I0
tp105
a(I48
I11
F0.125
S'popular'
p106
I0
tp107
a(I56
I51
I0
S'different'
p108
I0
tp109
a(I69
I14
F-0.625
S'other'
p110
I0
tp111
a(I69
I14
I0
S'mobile'
p112
I0
tp113
as(S'looks'
p114
S'and'
p115
S'works'
p116
tp117
(lp118
(I37
I31
F1.0
S'good'
p119
I1
tp120
a(I48
I43
F0.375
S'new'
p121
I1
tp122
a(I143
I13
I0
S'great'
p123
I1
tp124
as(S'service'
p125
tp126
(lp127
(I8
I22
F0.5
S'willing'
p128
I16
tp129
a(I16
I9
F0.625
S'major'
p130
I16
tp131
a(I18
I17
I0
S'next'
p132
I16
tp133
a(I37
I38
F-0.375
S'happen'
p134
I16
tp135
a(I49
I1
I0
S'great'
p136
I16
tp137
a(I54
I0
I0
S'great'
p138
I16
tp139
a(I58
I2
I0
S'such'
p140
I16
tp141
a(I58
I2
I0
S'great'
p142
I16
tp143
a(I93
I1
F1.0
S'better'
p144
I16
tp145
a(I94
I5
I0
S'quick'
p146
I16
tp147
a(I94
I5
F0.875
S'courteous'
p148
I16
tp149
a(I108
I12
F0.625
S'easy'
p150
I16
tp151
a(I121
I4
F1.0
S'good'
p152
I16
tp153
a(I149
I0
I0
S'only'
p154
I16
tp155
as(S'camera'
p156
tp157
(lp158
(I51
I7
I0
S'slower'
p159
I1
tp160
a(I56
I16
I0
S'flush'
p161
I1
tp162
a(I56
I73
F1.0
S'best'
p163
I1
tp164
a(I101
I12
I0
S'anymore'
p165
I1
tp166
a(I109
I37
F1.0
S'good'
p167
I1
tp168
a(I109
I37
F0.125
S'digital'
p169
I1
tp170
as(S'operating'
p171
S'system'
p172
tp173
(lp174
(I28
I47
F0.375
S'new'
p175
I2
tp176
a(I48
I11
I0
g102
I2
tp177
a(I48
I11
I0
g104
I2
tp178
a(I48
I11
F0.125
g106
I2
tp179
a(I56
I51
I0
g108
I2
tp180
a(I69
I14
F-0.625
g110
I2
tp181
a(I69
I14
I0
g112
I2
tp182
a(I79
I19
F0.375
S'newer'
p183
I2
tp184
a(I94
I24
F0.375
S'new'
p185
I2
tp186
a(I96
I12
I0
S'older'
p187
I2
tp188
a(I132
I70
F0.625
S'easy'
p189
I2
tp190
as(S'straight'
p191
S'talk'
p192
tp193
(lp194
(I37
I1
F0.625
S'straight'
p195
I0
tp196
a(I133
I4
F0.625
S'straight'
p197
I0
tp198
a(I133
I4
F-0.75
S'stupid'
p199
I0
tp200
as(S'game'
p201
S'selection'
p202
tp203
(lp204
(I48
I34
F1.0
S'better'
p205
I0
tp206
a(I48
I35
I0
S'wide'
p207
I0
tp208
as(S'new'
p209
S'in'
p210
S'box'
p211
tp212
(lp213
(I48
I45
F0.375
S'new'
p214
I0
tp215
a(I48
I45
F0.125
S'sealed'
p216
I0
tp217
a(I50
I22
F0.375
S'new'
p218
I0
tp219
a(I53
I15
F0.375
S'new'
p220
I0
tp221
a(I101
I32
I0
S'apple'
p222
I0
tp223
a(I101
I32
F0.375
S'new'
p224
I0
tp225
a(I136
I80
F0.25
S'original'
p226
I0
tp227
as(S'verizon'
p228
tp229
(lp230
(I6
I1
F0.625
S'easy'
p231
I0
tp232
a(I30
I21
F0.125
S'able'
p233
I0
tp234
a(I50
I42
F-0.375
S'black'
p235
I0
tp236
a(I52
I26
F-0.125
S'overall'
p237
I0
tp238
a(I56
I0
F1.0
S'best'
p239
I0
tp240
a(I56
I32
I0
S'many'
p241
I0
tp242
a(I56
I46
I0
S'normal'
p243
I0
tp244
a(I56
I46
I0
S'many'
p245
I0
tp246
a(I56
I47
F0.5
S'clear'
p247
I0
tp248
a(I74
I2
F0.625
S'easy'
p249
I0
tp250
a(I76
I7
F0.25
S'helpful'
p251
I0
tp252
a(I98
I15
F-0.5
S'insane'
p253
I0
tp254
a(I109
I23
F0.875
S'happy'
p255
I0
tp256
a(I123
I3
F-0.5
S'less'
p257
I0
tp258
a(I128
I5
I0
S'local'
p259
I0
tp260
a(I130
I5
I0
S'dial'
p261
I0
tp262
as(S'very'
p263
S'good'
p264
S'condition'
p265
tp266
(lp267
(I25
I5
I0
S'nervous'
p268
I0
tp269
a(I25
I5
I0
S'earlier'
p270
I0
tp271
a(I25
I5
I0
S'great'
p272
I0
tp273
a(I48
I45
F1.0
S'good'
p274
I0
tp275
a(I57
I7
I0
S'such'
p276
I0
tp277
a(I57
I7
F1.0
S'good'
p278
I0
tp279
a(I102
I14
F1.0
S'good'
p280
I0
tp281
a(I129
I28
F1.0
S'good'
p282
I0
tp283
a(I132
I43
F1.0
S'good'
p284
I0
tp285
a(I132
I43
F1.0
S'good'
p286
I0
tp287
a(I132
I64
F1.0
S'good'
p288
I0
tp289
a(I135
I1
F1.0
S'good'
p290
I0
tp291
a(I137
I19
F1.0
S'good'
p292
I0
tp293
a(I140
I25
F1.0
S'good'
p294
I0
tp295
a(I152
I5
F1.0
S'good'
p296
I0
tp297
a(I25
I5
I0
g270
I6
tp298
a(I25
I5
I0
g272
I6
tp299
a(I26
I6
F1.0
S'good'
p300
I6
tp301
a(I28
I38
F1.0
S'good'
p302
I6
tp303
a(I30
I1
F1.0
S'good'
p304
I6
tp305
a(I48
I45
F1.0
g274
I6
tp306
a(I57
I7
I0
g276
I6
tp307
a(I57
I7
F1.0
g278
I6
tp308
a(I80
I6
F1.0
S'good'
p309
I6
tp310
a(I86
I18
F1.0
S'good'
p311
I6
tp312
a(I102
I14
F1.0
g280
I6
tp313
a(I102
I15
F1.0
S'good'
p314
I6
tp315
a(I104
I22
F-0.625
S'clean'
p316
I6
tp317
a(I104
I22
F1.0
S'good'
p318
I6
tp319
a(I108
I26
F1.0
S'good'
p320
I6
tp321
a(I125
I14
F1.0
S'good'
p322
I6
tp323
a(I125
I14
I0
S'many'
p324
I6
tp325
a(I129
I28
F1.0
g282
I6
tp326
a(I131
I0
F1.0
S'good'
p327
I6
tp328
a(I132
I43
F1.0
g284
I6
tp329
a(I132
I43
F1.0
g286
I6
tp330
a(I132
I64
F1.0
g288
I6
tp331
a(I135
I1
F1.0
g290
I6
tp332
a(I137
I19
F1.0
g292
I6
tp333
a(I138
I0
F1.0
S'good'
p334
I6
tp335
a(I140
I25
F1.0
g294
I6
tp336
a(I148
I2
F1.0
S'good'
p337
I6
tp338
a(I152
I5
F1.0
g296
I6
tp339
as(S'to'
p340
S'apple'
p341
S'store'
p342
tp343
(lp344
(I44
I5
F0.5
S'told'
p345
I0
tp346
a(I44
I5
F0.5
g345
I0
tp347
a(I14
I7
I0
S'big'
p348
I4
tp349
a(I16
I21
I0
S'apple'
p350
I4
tp351
a(I36
I25
F0.125
S'first'
p352
I4
tp353
a(I48
I48
F-0.625
S'other'
p354
I4
tp355
a(I48
I48
F0.375
S'raved'
p356
I4
tp357
a(I69
I59
F0.375
S'follow'
p358
I4
tp359
a(I69
I60
F-0.5
S'actual'
p360
I4
tp361
a(I76
I8
I0
S'general'
p362
I4
tp363
a(I80
I10
F0.125
S'first'
p364
I4
tp365
a(I91
I4
I0
S'earlier'
p366
I4
tp367
a(I94
I39
F-0.875
S'unhappy'
p368
I4
tp369
a(I101
I20
F0.375
S'confident'
p370
I4
tp371
a(I111
I3
F1.0
S'better'
p372
I4
tp373
a(I121
I20
F0.125
S'sealed'
p374
I4
tp375
a(I121
I20
F0.25
S'original'
p376
I4
tp377
a(I125
I0
F-0.875
S'unhappy'
p378
I4
tp379
a(I126
I12
F0.125
S'first'
p380
I4
tp381
a(I127
I22
I0
S'real'
p382
I4
tp383
a(I136
I99
I0
S'basic'
p384
I4
tp385
a(I136
I99
F0.25
S'powerful'
p386
I4
tp387
a(I137
I115
F1.0
S'good'
p388
I4
tp389
a(I143
I4
F0.5
S'careful'
p390
I4
tp391
a(I154
I7
I0
S'many'
p392
I4
tp393
as(S'iphones'
p394
tp395
(lp396
(I8
I13
F0.375
S'new'
p397
I0
tp398
a(I44
I13
I0
S'website'
p399
I0
tp400
a(I45
I7
F1.0
S'good'
p401
I0
tp402
a(I61
I2
I0
S'slower'
p403
I0
tp404
a(I61
I2
F-0.625
S'other'
p405
I0
tp406
a(I74
I0
F0.375
S'new'
p407
I0
tp408
a(I76
I3
F0.375
S'friendly'
p409
I0
tp410
a(I84
I27
F0.5
S'expensive'
p411
I0
tp412
a(I93
I4
F0.375
S'early'
p413
I0
tp414
a(I154
I23
I0
S'least'
p415
I0
tp416
a(I155
I1
F0.125
S'last'
p417
I0
tp418
as(S'black'
p419
tp420
(lp421
(I116
I24
I0
S'blue'
p422
I19
tp423
as(S'apple'
p424
S'iphone'
p425
tp426
(lp427
(I36
I25
F0.125
g352
I0
tp428
a(I48
I48
F-0.625
g354
I0
tp429
a(I48
I48
F0.375
g356
I0
tp430
a(I56
I20
I0
S'next'
p431
I0
tp432
a(I76
I8
I0
g362
I0
tp433
a(I80
I10
F0.125
g364
I0
tp434
a(I94
I39
F-0.875
g368
I0
tp435
a(I94
I39
F0.5
S'loyal'
p436
I0
tp437
a(I110
I5
F0.25
S'refurbished'
p438
I0
tp439
a(I110
I5
F0.375
S'new'
p440
I0
tp441
a(I125
I0
F-0.875
g378
I0
tp442
a(I125
I1
F0.5
S'second'
p443
I0
tp444
a(I136
I94
F-0.25
S'cheaper'
p445
I0
tp446
as(S'seller'
p447
tp448
(lp449
(I36
I15
I0
S'particular'
p450
I19
tp451
a(I44
I11
F0.5
S'second'
p452
I19
tp453
a(I47
I8
I0
S'site'
p454
I19
tp455
a(I50
I87
F0.5
S'trustworthy'
p456
I19
tp457
a(I95
I8
F0.875
S'happy'
p458
I19
tp459
a(I121
I18
I0
S'specific'
p460
I19
tp461
a(I152
I28
I0
S'most'
p462
I19
tp463
a(I154
I8
F-0.125
S'mine'
p464
I19
tp465
as(S'android'
p466
tp467
(lp468
(I48
I32
F0.75
S'due'
p469
I0
tp470
a(I76
I11
F1.0
S'best'
p471
I0
tp472
a(I90
I5
F0.375
S'new'
p473
I0
tp474
a(I90
I16
F1.0
S'good'
p475
I0
tp476
a(I90
I16
I0
S'faster'
p477
I0
tp478
a(I91
I13
I0
S'more'
p479
I0
tp480
a(I91
I13
I0
S'fluid'
p481
I0
tp482
a(I136
I47
F-0.875
S'hard'
p483
I0
tp484
a(I136
I47
F1.0
S'good'
p485
I0
tp486
a(I136
I47
F-0.75
S'minor'
p487
I0
tp488
a(I136
I50
F-0.625
S'free'
p489
I0
tp490
a(I136
I76
F1.0
S'good'
p491
I0
tp492
a(I137
I8
F-0.75
S'damaged'
p493
I0
tp494
a(I155
I2
F1.0
S'better'
p495
I0
tp496
as(S'great'
p497
S'condition'
p498
tp499
(lp500
(I2
I20
I0
S'great'
p501
I7
tp502
a(I2
I20
F1.0
S'better'
p503
I7
tp504
a(I25
I5
I0
g270
I7
tp505
a(I25
I5
I0
g272
I7
tp506
a(I37
I33
I0
S'great'
p507
I7
tp508
a(I65
I6
I0
S'great'
p509
I7
tp510
a(I84
I36
F0.5
S'absolute'
p511
I7
tp512
a(I84
I36
I0
S'great'
p513
I7
tp514
a(I86
I22
I0
S'great'
p515
I7
tp516
a(I90
I18
I0
S'great'
p517
I7
tp518
a(I110
I6
I0
S'more'
p519
I7
tp520
a(I116
I6
I0
S'great'
p521
I7
tp522
a(I143
I14
I0
S'great'
p523
I7
tp524
a(I146
I3
I0
S'great'
p525
I7
tp526
as(S'in'
p527
S'mint'
p528
S'condition'
p529
tp530
(lp531
(I131
I6
F0.5
S'accurate'
p532
I0
tp533
as(S'a'
p534
S'new'
p535
S'iphone'
p536
tp537
(lp538
(I1
I4
F0.375
S'new'
p539
I0
tp540
a(I1
I4
I0
S'great'
p541
I0
tp542
a(I34
I5
F0.375
S'new'
p543
I0
tp544
a(I36
I0
F0.375
S'new'
p545
I0
tp546
a(I42
I5
F0.375
S'new'
p547
I0
tp548
a(I42
I5
F1.0
S'good'
p549
I0
tp550
a(I44
I3
F0.375
S'new'
p551
I0
tp552
a(I45
I6
F0.375
S'new'
p553
I0
tp554
a(I53
I4
F0.375
S'new'
p555
I0
tp556
a(I69
I88
F0.375
S'new'
p557
I0
tp558
a(I72
I1
F-0.625
S'glad'
p559
I0
tp560
a(I77
I18
F0.375
S'new'
p561
I0
tp562
a(I77
I26
F0.375
S'new'
p563
I0
tp564
a(I86
I19
F0.375
S'new'
p565
I0
tp566
a(I91
I8
F0.375
S'new'
p567
I0
tp568
a(I97
I17
F0.375
S'new'
p569
I0
tp570
a(I99
I16
F0.375
S'new'
p571
I0
tp572
a(I102
I2
F0.375
S'new'
p573
I0
tp574
a(I110
I3
F0.375
S'new'
p575
I0
tp576
a(I110
I5
F0.25
g438
I0
tp577
a(I110
I5
F0.375
g440
I0
tp578
a(I129
I4
F0.125
S'last'
p579
I0
tp580
a(I140
I34
F0.375
S'new'
p581
I0
tp582
a(I147
I0
F0.375
S'new'
p583
I0
tp584
a(I152
I7
F0.375
S'new'
p585
I0
tp586
a(I153
I0
F0.375
S'new'
p587
I0
tp588
a(I153
I0
F0.875
S'happy'
p589
I0
tp590
as(S'scratches'
p591
tp592
(lp593
(I8
I13
F-0.625
S'other'
p594
I4
tp595
a(I25
I15
F-0.75
S'little'
p596
I4
tp597
a(I28
I42
F0.125
S'visible'
p598
I4
tp599
a(I28
I42
I0
S'few'
p600
I4
tp601
a(I30
I2
I0
S'few'
p602
I4
tp603
a(I77
I5
F-0.75
S'minor'
p604
I4
tp605
a(I87
I2
I0
S'few'
p606
I4
tp607
a(I87
I2
F-0.75
S'minor'
p608
I4
tp609
a(I137
I48
I0
S'few'
p610
I4
tp611
as(g534
S'used'
p612
S'iphone'
p613
tp614
(lp615
(I69
I7
I0
S'great'
p616
I0
tp617
a(I77
I24
I0
S'normal'
p618
I0
tp619
a(I118
I2
F0.75
S'due'
p620
I0
tp621
a(I133
I10
I0
S'old'
p622
I0
tp623
a(I140
I43
F-0.125
S'mine'
p624
I0
tp625
a(I150
I4
F0.25
S'used'
p626
I0
tp627
a(I34
I6
F0.375
S'new'
p628
I0
tp629
a(I34
I6
F0.25
S'used'
p630
I0
tp631
a(I69
I7
I0
g616
I0
tp632
a(I77
I24
I0
g618
I0
tp633
a(I118
I2
F0.75
g620
I0
tp634
a(I133
I10
I0
g622
I0
tp635
a(I140
I43
F-0.125
g624
I0
tp636
a(I150
I4
F0.25
g626
I0
tp637
as(S'brand'
p638
S'new'
p639
S'iphone'
p640
tp641
(lp642
(I18
I5
F0.375
S'new'
p643
I0
tp644
a(I21
I4
F0.375
S'new'
p645
I0
tp646
a(I25
I1
F0.375
S'new'
p647
I0
tp648
a(I58
I0
F0.375
S'new'
p649
I0
tp650
a(I59
I7
F0.375
S'new'
p651
I0
tp652
a(I96
I16
F0.375
S'new'
p653
I0
tp654
a(I99
I16
F0.375
g571
I0
tp655
a(I131
I13
F0.375
S'new'
p656
I0
tp657
a(I140
I34
F0.375
S'new'
p658
I0
tp659
a(I140
I34
F0.375
g581
I0
tp660
a(I1
I4
F0.375
g539
I0
tp661
a(I1
I4
I0
g541
I0
tp662
a(I34
I5
F0.375
g543
I0
tp663
a(I34
I6
F0.375
g628
I0
tp664
a(I34
I6
F0.25
g630
I0
tp665
a(I36
I0
F0.375
g545
I0
tp666
a(I42
I5
F0.375
g547
I0
tp667
a(I42
I5
F1.0
g549
I0
tp668
a(I44
I3
F0.375
g551
I0
tp669
a(I45
I6
F0.375
g553
I0
tp670
a(I53
I4
F0.375
g555
I0
tp671
a(I69
I88
F0.375
g557
I0
tp672
a(I72
I1
F-0.625
g559
I0
tp673
a(I77
I18
F0.375
g561
I0
tp674
a(I77
I26
F0.375
g563
I0
tp675
a(I86
I19
F0.375
g565
I0
tp676
a(I91
I8
F0.375
g567
I0
tp677
a(I97
I17
F0.375
g569
I0
tp678
a(I99
I16
F0.375
g571
I0
tp679
a(I102
I2
F0.375
g573
I0
tp680
a(I110
I3
F0.375
g575
I0
tp681
a(I110
I5
F0.25
g438
I0
tp682
a(I110
I5
F0.375
g440
I0
tp683
a(I129
I4
F0.125
g579
I0
tp684
a(I140
I34
F0.375
g581
I0
tp685
a(I147
I0
F0.375
g583
I0
tp686
a(I152
I7
F0.375
g585
I0
tp687
a(I153
I0
F0.375
g587
I0
tp688
a(I153
I0
F0.875
g589
I0
tp689
a(I1
I4
F0.375
g539
I1
tp690
a(I1
I4
I0
g541
I1
tp691
a(I4
I5
I0
S'same'
p692
I1
tp693
a(I4
I15
F0.125
S'first'
p694
I1
tp695
a(I4
I15
I0
S'great'
p696
I1
tp697
a(I8
I5
F1.0
S'best'
p698
I1
tp699
a(I8
I6
F0.5
S'strong'
p700
I1
tp701
a(I14
I2
F-0.625
S'other'
p702
I1
tp703
a(I22
I0
F0.625
S'kind'
p704
I1
tp705
a(I22
I0
F-0.25
S'disappointed'
p706
I1
tp707
a(I27
I0
F0.125
S'first'
p708
I1
tp709
a(I28
I4
F0.125
S'first'
p710
I1
tp711
a(I28
I15
I0
S'more'
p712
I1
tp713
a(I28
I15
I0
S'great'
p714
I1
tp715
a(I28
I37
F-0.5
S'regular'
p716
I1
tp717
a(I30
I5
I0
S'prepaid'
p718
I1
tp719
a(I30
I11
F-0.25
S'inexpensive'
p720
I1
tp721
a(I34
I5
F0.375
g543
I1
tp722
a(I34
I6
F0.375
g628
I1
tp723
a(I34
I6
F0.25
g630
I1
tp724
a(I36
I0
F0.375
g545
I1
tp725
a(I37
I3
F-0.625
S'free'
p726
I1
tp727
a(I38
I5
I0
S'great'
p728
I1
tp729
a(I41
I12
I0
S'great'
p730
I1
tp731
a(I42
I5
F0.375
g547
I1
tp732
a(I42
I5
F1.0
g549
I1
tp733
a(I44
I3
F0.375
g551
I1
tp734
a(I45
I1
F-0.75
S'hate'
p735
I1
tp736
a(I45
I6
F0.375
g553
I1
tp737
a(I48
I13
F0.25
S'encouraged'
p738
I1
tp739
a(I48
I13
F0.75
S'due'
p740
I1
tp741
a(I48
I22
F0.125
S'able'
p742
I1
tp743
a(I49
I0
F0.875
S'nice'
p744
I1
tp745
a(I50
I3
F-0.375
S'black'
p746
I1
tp747
a(I50
I24
F0.5
S'compatible'
p748
I1
tp749
a(I50
I63
F0.375
S'available'
p750
I1
tp751
a(I50
I78
F-0.75
S'stupid'
p752
I1
tp753
a(I50
I79
F-0.875
S'hard'
p754
I1
tp755
a(I52
I13
F-0.5
S'weak'
p756
I1
tp757
a(I52
I19
F0.5
S'uncommon'
p758
I1
tp759
a(I53
I4
F0.375
g555
I1
tp760
a(I53
I17
F-0.25
S'inexpensive'
p761
I1
tp762
a(I53
I18
F0.375
S'much'
p763
I1
tp764
a(I53
I18
I0
S'slower'
p765
I1
tp766
a(I56
I20
I0
g431
I1
tp767
a(I56
I23
I0
S'many'
p768
I1
tp769
a(I56
I94
F1.0
S'good'
p770
I1
tp771
a(I57
I32
I0
S'later'
p772
I1
tp773
a(I65
I5
F1.0
S'best'
p774
I1
tp775
a(I66
I1
F0.25
S'favorite'
p776
I1
tp777
a(I69
I7
I0
g616
I1
tp778
a(I69
I30
F-0.5
S'intrusive'
p779
I1
tp780
a(I69
I51
F0.125
S'last'
p781
I1
tp782
a(I69
I88
F0.375
g557
I1
tp783
a(I72
I1
F-0.625
g559
I1
tp784
a(I76
I23
I0
S'update'
p785
I1
tp786
a(I77
I0
F-0.375
S'black'
p787
I1
tp788
a(I77
I9
F-0.625
S'other'
p789
I1
tp790
a(I77
I18
F0.375
g561
I1
tp791
a(I77
I24
I0
g618
I1
tp792
a(I77
I26
F0.375
g563
I1
tp793
a(I79
I3
F-0.5
S'heavier'
p794
I1
tp795
a(I79
I23
F-0.75
S'likely'
p796
I1
tp797
a(I86
I14
F0.125
S'first'
p798
I1
tp799
a(I86
I19
F0.375
g565
I1
tp800
a(I91
I8
F0.375
g567
I1
tp801
a(I92
I5
F1.0
S'good'
p802
I1
tp803
a(I94
I5
F0.875
S'happy'
p804
I1
tp805
a(I94
I23
I0
S'gig'
p806
I1
tp807
a(I94
I39
F0.5
g436
I1
tp808
a(I96
I6
F0.125
S'first'
p809
I1
tp810
a(I96
I11
F0.5
S'second'
p811
I1
tp812
a(I96
I25
F-0.75
S'wrong'
p813
I1
tp814
a(I97
I17
F0.375
g569
I1
tp815
a(I99
I16
F0.375
g571
I1
tp816
a(I101
I0
F0.125
S'first'
p817
I1
tp818
a(I101
I28
F0.125
S'first'
p819
I1
tp820
a(I102
I2
F0.375
g573
I1
tp821
a(I108
I12
F0.125
S'first'
p822
I1
tp823
a(I109
I29
F0.375
S'similar'
p824
I1
tp825
a(I110
I3
F0.375
g575
I1
tp826
a(I110
I5
F0.25
g438
I1
tp827
a(I110
I5
F0.375
g440
I1
tp828
a(I116
I20
F-0.375
S'black'
p829
I1
tp830
a(I116
I20
F-0.25
S'white'
p831
I1
tp832
a(I116
I20
F-0.375
S'black'
p833
I1
tp834
a(I118
I2
F0.75
g620
I1
tp835
a(I124
I18
I0
S'same'
p836
I1
tp837
a(I125
I1
F0.5
g443
I1
tp838
a(I125
I4
F0.125
S'first'
p839
I1
tp840
a(I129
I4
F0.125
g579
I1
tp841
a(I133
I10
I0
g622
I1
tp842
a(I135
I22
F0.25
S'refurbished'
p843
I1
tp844
a(I136
I27
I0
S'useful'
p845
I1
tp846
a(I136
I77
F0.625
S'aware'
p847
I1
tp848
a(I136
I85
F-0.875
S'hard'
p849
I1
tp850
a(I136
I94
F-0.25
g445
I1
tp851
a(I137
I56
I0
S'more'
p852
I1
tp853
a(I137
I66
F0.625
S'easy'
p854
I1
tp855
a(I137
I67
F0.25
S'refurbished'
p856
I1
tp857
a(I137
I69
F0.125
S'first'
p858
I1
tp859
a(I137
I89
I0
S'activated'
p860
I1
tp861
a(I140
I34
F0.375
g581
I1
tp862
a(I140
I43
F-0.125
g624
I1
tp863
a(I142
I2
I0
S'great'
p864
I1
tp865
a(I143
I8
I0
S'android'
p866
I1
tp867
a(I145
I2
F1.0
S'best'
p868
I1
tp869
a(I147
I0
F0.375
g583
I1
tp870
a(I150
I4
F0.25
g626
I1
tp871
a(I150
I10
F0.875
S'happy'
p872
I1
tp873
a(I152
I7
F0.375
g585
I1
tp874
a(I153
I0
F0.375
g587
I1
tp875
a(I153
I0
F0.875
g589
I1
tp876
a(I155
I1
F0.125
S'last'
p877
I1
tp878
a(I155
I2
I0
S'old'
p879
I1
tp880
a(I155
I2
I0
S'great'
p881
I1
tp882
as(S'apps'
p883
tp884
(lp885
(I1
I8
F-0.625
S'free'
p886
I0
tp887
a(I28
I9
I0
S'great'
p888
I0
tp889
a(I34
I12
I0
S'basic'
p890
I0
tp891
a(I39
I6
I0
S'download'
p892
I0
tp893
a(I48
I30
F-0.5
S'open'
p894
I0
tp895
a(I50
I32
I0
S'own'
p896
I0
tp897
a(I51
I8
F-0.125
S'slow'
p898
I0
tp899
a(I51
I8
F0.375
S'new'
p900
I0
tp901
a(I60
I10
F0.625
S'easy'
p902
I0
tp903
a(I60
I11
F0.625
S'easy'
p904
I0
tp905
a(I66
I2
I0
S'many'
p906
I0
tp907
a(I66
I2
F0.375
S'much'
p908
I0
tp909
a(I69
I23
F0.375
S'available'
p910
I0
tp911
a(I79
I18
F0.625
S'necessary'
p912
I0
tp913
a(I96
I25
I0
S'current'
p914
I0
tp915
a(I136
I50
F1.0
S'best'
p916
I0
tp917
a(I136
I101
I0
S'great'
p918
I0
tp919
a(I137
I104
I0
S'most'
p920
I0
tp921
a(I137
I104
F-0.375
S'crash'
p922
I0
tp923
a(I155
I2
F-0.625
S'free'
p924
I0
tp925
as(S'amazon'
p926
tp927
(lp928
(I36
I16
I-100
S'snarky'
p929
I13
tp930
a(I45
I6
F0.375
S'new'
p931
I13
tp932
a(I45
I18
F0.5
S'willing'
p933
I13
tp934
a(I69
I87
I0
S'more'
p935
I13
tp936
a(I96
I10
I0
S'great'
p937
I13
tp938
a(I102
I3
I0
S'third'
p939
I13
tp940
a(I132
I6
F-0.625
S'glad'
p941
I13
tp942
a(I132
I6
I0
S'such'
p943
I13
tp944
a(I135
I3
F0.375
S'prime'
p945
I13
tp946
a(I140
I38
F0.125
S'usual'
p947
I13
tp948
as(S'in'
p949
S'original'
p950
S'packaging'
p951
tp952
(lp953
(I21
I7
F0.25
S'original'
p954
I0
tp955
a(I28
I44
F0.25
S'original'
p956
I0
tp957
a(I47
I4
F0.25
S'original'
p958
I0
tp959
a(I48
I5
F0.25
S'original'
p960
I0
tp961
a(I50
I23
F0.25
S'original'
p962
I0
tp963
a(I53
I0
F0.25
S'original'
p964
I0
tp965
a(I132
I29
F0.25
S'original'
p966
I0
tp967
as.