(dp0
(S'seller'
p1
tp2
(lp3
(I16
I11
I0
S'cosmetic'
p4
I19
tp5
a(I16
I11
F-0.75
S'damaged'
p6
I19
tp7
a(I22
I3
F0.375
S'new'
p8
I19
tp9
as(S'samsung'
p10
S'convoy'
p11
tp12
(lp13
(I36
I7
F0.125
S'able'
p14
I0
tp15
a(I19
I2
F0.5
S'second'
p16
I7
tp17
a(I24
I0
F0.5
S'second'
p18
I0
tp19
a(I24
I9
I0
S'old'
p20
I0
tp21
a(I29
I0
F0.5
S'second'
p22
I0
tp23
a(I30
I4
F0.25
S'original'
p24
I0
tp25
a(I33
I37
F0.125
S'first'
p26
I0
tp27
a(I36
I7
F0.125
g14
I0
tp28
as(S'sound'
p29
tp30
(lp31
(I1
I39
F0.5
S'clear'
p32
I7
tp33
a(I1
I39
F0.25
S'sharp'
p34
I7
tp35
a(I7
I1
F0.5
S'clear'
p36
I7
tp37
a(I30
I19
F1.0
S'good'
p38
I7
tp39
a(I31
I25
F1.0
S'good'
p40
I7
tp41
a(I35
I35
F0.875
S'important'
p42
I7
tp43
as(S'in'
p44
S'good'
p45
S'condition'
p46
tp47
(lp48
(I1
I31
F1.0
S'good'
p49
I6
tp50
a(I31
I13
I0
S'great'
p51
I6
tp52
a(I32
I10
F1.0
S'good'
p53
I6
tp54
a(I32
I22
F1.0
S'good'
p55
I6
tp56
a(I33
I24
F1.0
S'good'
p57
I6
tp58
a(I34
I48
F1.0
S'good'
p59
I6
tp60
a(I1
I31
F1.0
g49
I6
tp61
a(I31
I13
I0
g51
I6
tp62
a(I32
I10
F1.0
g53
I6
tp63
a(I32
I17
F1.0
S'good'
p64
I6
tp65
a(I32
I22
F1.0
g55
I6
tp66
a(I33
I24
F1.0
g57
I6
tp67
a(I34
I48
F1.0
g59
I6
tp68
as(S'buttons'
p69
tp70
(lp71
(I4
I5
I0
S'big'
p72
I13
tp73
a(I10
I10
F0.25
S'larger'
p74
I13
tp75
a(I13
I8
F0.25
S'larger'
p76
I13
tp77
a(I26
I5
I0
S'big'
p78
I13
tp79
a(I32
I12
I0
S'most'
p80
I13
tp81
a(I32
I12
I0
S'flush'
p82
I13
tp83
a(I34
I1
I0
S'external'
p84
I13
tp85
as(S'loud'
p86
tp87
(lp88
(I10
I33
F0.875
S'nice'
p89
I10
tp90
as(S'calls'
p91
tp92
(lp93
(I34
I43
I0
S'most'
p94
I0
tp95
as(S'good'
p96
S'battery'
p97
S'life'
p98
tp99
(lp100
(I3
I56
F1.0
S'good'
p101
I0
tp102
a(I5
I19
F1.0
S'good'
p103
I0
tp104
a(I31
I25
F1.0
S'good'
p105
I0
tp106
a(I34
I49
F1.0
S'good'
p107
I0
tp108
a(I1
I33
F1.0
S'good'
p109
I0
tp110
a(I3
I56
F1.0
g101
I0
tp111
a(I5
I19
F1.0
g103
I0
tp112
a(I31
I25
F1.0
g105
I0
tp113
a(I34
I49
F1.0
g107
I0
tp114
a(I1
I18
I0
S'great'
p115
I1
tp116
a(I3
I2
F-0.5
S'long'
p117
I1
tp118
a(I3
I56
F1.0
g101
I1
tp119
a(I5
I19
F1.0
g103
I1
tp120
a(I28
I7
I0
S'unbelievable'
p121
I1
tp122
a(I30
I43
F1.0
S'best'
p123
I1
tp124
a(I31
I25
F1.0
g105
I1
tp125
a(I34
I19
F1.0
S'better'
p126
I1
tp127
a(I34
I49
F1.0
g107
I1
tp128
a(I35
I14
F-0.5
S'long'
p129
I1
tp130
a(I28
I7
I0
g121
I19
tp131
a(I30
I43
F1.0
g123
I19
tp132
a(I1
I18
I0
g115
I15
tp133
a(I1
I33
F1.0
g109
I15
tp134
a(I1
I43
I0
S'full'
p135
I15
tp136
a(I3
I2
F-0.5
g117
I15
tp137
a(I3
I56
F1.0
g101
I15
tp138
a(I5
I19
F1.0
g103
I15
tp139
a(I24
I4
I0
S'hot'
p140
I15
tp141
a(I31
I25
F1.0
g105
I15
tp142
a(I34
I19
F1.0
g126
I15
tp143
a(I34
I49
F1.0
g107
I15
tp144
a(I35
I14
F-0.5
g129
I15
tp145
as(S'flip'
p146
tp147
(lp148
(I1
I6
F0.125
S'rugged'
p149
I4
tp150
a(I1
I48
F-0.375
S'simple'
p151
I4
tp152
a(I10
I36
F-0.375
S'small'
p153
I4
tp154
a(I34
I28
F1.0
S'best'
p155
I4
tp156
a(I35
I2
I0
S'same'
p157
I4
tp158
a(I35
I2
I0
S'old'
p159
I4
tp160
a(I35
I21
F-0.625
S'other'
p161
I4
tp162
a(I36
I7
I0
S'basic'
p163
I4
tp164
as(S'contract'
p165
tp166
(lp167
(I3
I60
F0.375
S'new'
p168
I0
tp169
a(I10
I29
F0.375
S'new'
p170
I0
tp171
as.