(dp0
(S'text'
p1
S'message'
p2
tp3
(lp4
(I1
I38
I0
S'text'
p5
I0
tp6
a(I5
I85
I0
S'same'
p7
I0
tp8
as(S'battery'
p9
S'life'
p10
tp11
(lp12
(I5
I91
F1.0
S'good'
p13
I1
tp14
a(I6
I13
F-0.625
S'bad'
p15
I1
tp16
a(I7
I22
F1.0
S'better'
p17
I1
tp18
a(I8
I61
F0.125
S'solid'
p19
I1
tp20
a(I1
I97
F-0.25
S'low'
p21
I15
tp22
a(I2
I79
F1.0
S'good'
p23
I15
tp24
a(I5
I62
I0
S'minimal'
p25
I15
tp26
a(I5
I69
F0.25
S'original'
p27
I15
tp28
a(I6
I52
F1.0
S'better'
p29
I15
tp30
a(I7
I22
F1.0
g17
I15
tp31
a(I8
I61
F0.125
g19
I15
tp32
as(S'keyboard'
p33
tp34
(lp35
(I2
I50
I0
S'traditional'
p36
I2
tp37
a(I2
I50
F-0.75
S'tough'
p38
I2
tp39
a(I2
I93
F-0.375
S'small'
p40
I2
tp41
a(I7
I32
I0
S'most'
p42
I2
tp43
a(I7
I52
I0
S'quick'
p44
I2
tp45
a(I8
I71
I0
S'faster'
p46
I2
tp47
a(I9
I7
F-0.375
S'small'
p48
I2
tp49
a(I9
I7
F-0.875
S'hard'
p50
I2
tp51
as(S'smartphone'
p52
tp53
(lp54
(I2
I98
F-0.625
S'want'
p55
I0
tp56
a(I5
I53
F0.125
S'first'
p57
I0
tp58
a(I5
I60
F0.5
S'functional'
p59
I0
tp60
a(I6
I15
I0
S'basic'
p61
I0
tp62
a(I8
I36
F0.125
S'solid'
p63
I0
tp64
a(I8
I36
I0
S'android'
p65
I0
tp66
as(S'ipod'
p67
S'touch'
p68
tp69
(lp70
(I5
I9
F-0.625
S'unlike'
p71
I0
tp72
as(S'angry'
p73
S'birds'
p74
tp75
(lp76
(I1
I24
I0
S'angry'
p77
I0
tp78
as(S'camera'
p79
tp80
(lp81
(I1
I129
F-0.875
S'negative'
p82
I1
tp83
a(I1
I129
F0.625
S'aware'
p84
I1
tp85
a(I7
I76
I0
S'many'
p86
I1
tp87
a(I7
I76
F0.625
S'kind'
p88
I1
tp89
a(I7
I76
I0
S'integral'
p90
I1
tp91
a(I7
I89
F-0.5
S'poor'
p92
I1
tp93
a(I7
I122
I0
S'real'
p94
I1
tp95
a(I8
I56
F0.125
S'capable'
p96
I1
tp97
as(S'prepaid'
p98
tp99
(lp100
(I1
I37
F1.0
S'best'
p101
I0
tp102
as(S'applications'
p103
tp104
(lp105
(I1
I97
I0
S'android'
p106
I3
tp107
a(I5
I129
I0
S'many'
p108
I3
tp109
a(I5
I129
F-0.625
S'bad'
p110
I3
tp111
a(I8
I75
I0
S'more'
p112
I3
tp113
a(I8
I75
F-0.25
S'intensive'
p114
I3
tp115
as(S'per'
p116
S'month'
p117
tp118
(lp119
(I1
I106
F-0.625
S'average'
p120
I0
tp121
a(I1
I110
F-0.625
S'average'
p122
I0
tp123
a(I3
I3
F-0.5
S'less'
p124
I0
tp125
a(I7
I19
F-0.625
S'average'
p126
I0
tp127
a(I9
I1
F0.375
S'extra'
p128
I0
tp129
as(S'music'
p130
S'player'
p131
tp132
(lp133
(I1
I59
F0.875
S'music'
p134
I0
tp135
a(I5
I54
I0
S'few'
p136
I0
tp137
a(I5
I61
F0.375
S'much'
p138
I0
tp139
a(I7
I77
F-0.5
S'regular'
p140
I0
tp141
as(S'contract'
p142
tp143
(lp144
(I2
I67
F0.375
S'much'
p145
I0
tp146
as(S'android'
p147
tp148
(lp149
(I0
I3
F0.125
S'first'
p150
I0
tp151
a(I1
I108
F-0.625
S'other'
p152
I0
tp153
a(I2
I31
F0.75
S'competent'
p154
I0
tp155
a(I2
I34
I0
S'standard'
p156
I0
tp157
a(I2
I34
F1.0
S'good'
p158
I0
tp159
a(I2
I101
F0.125
S'first'
p160
I0
tp161
a(I3
I4
F-0.625
S'other'
p162
I0
tp163
a(I4
I1
I0
S'basic'
p164
I0
tp165
a(I5
I2
F0.125
S'first'
p166
I0
tp167
a(I5
I125
F0.375
S'early'
p168
I0
tp169
a(I7
I4
F-0.375
S'top'
p170
I0
tp171
a(I7
I23
F1.0
S'best'
p172
I0
tp173
a(I7
I61
I0
S'current'
p174
I0
tp175
a(I9
I1
F-0.625
S'other'
p176
I0
tp177
a(I9
I25
F0.125
S'first'
p178
I0
tp179
as(S'internet'
p180
S'access'
p181
tp182
(lp183
(I1
I115
I0
S'internet'
p184
I0
tp185
as(S'account'
p186
tp187
(lp188
(I7
I48
F-0.625
S'free'
p189
I3
tp190
as(S'smart'
p191
tp192
(lp193
(I1
I20
F0.125
S'first'
p194
I10
tp195
a(I1
I102
F0.375
S'much'
p196
I10
tp197
a(I2
I1
I0
S'most'
p198
I10
tp199
a(I2
I41
I0
S'android'
p200
I10
tp201
a(I2
I49
F-0.625
S'other'
p202
I10
tp203
a(I2
I54
F-0.375
S'small'
p204
I10
tp205
a(I7
I118
F1.0
S'good'
p206
I10
tp207
as(S'sim'
p208
S'card'
p209
tp210
(lp211
(I5
I96
I0
S'different'
p212
I0
tp213
a(I7
I70
F0.125
S'able'
p214
I0
tp215
a(I7
I70
I0
S'different'
p216
I0
tp217
as(S'google'
p218
S'voice'
p219
tp220
(lp221
(I7
I106
F-0.25
S'google'
p222
I0
tp223
a(I7
I111
F-0.25
S'google'
p224
I0
tp225
a(I7
I60
F-0.125
S'overall'
p226
I4
tp227
a(I7
I106
F-0.25
g222
I4
tp228
a(I7
I111
F-0.25
g224
I4
tp229
as(S't'
p230
S'mobile'
p231
S'comet'
p232
tp233
(lp234
(I1
I103
F0.875
S'happy'
p235
I0
tp236
a(I5
I63
F0.125
S'last'
p237
I0
tp238
a(I7
I69
I0
S'different'
p239
I0
tp240
a(I8
I63
F-0.625
S'average'
p241
I0
tp242
a(I9
I4
I0
S'next'
p243
I0
tp244
a(I2
I34
F1.0
S'better'
p245
I0
tp246
a(I2
I67
I0
S'mobile'
p247
I0
tp248
a(I1
I103
F0.875
g235
I0
tp249
a(I5
I63
F0.125
g237
I0
tp250
a(I7
I69
I0
g239
I0
tp251
a(I8
I63
F-0.625
g241
I0
tp252
a(I9
I4
I0
g243
I0
tp253
a(I2
I34
F1.0
g245
I0
tp254
a(I1
I103
F0.875
g235
I0
tp255
a(I4
I1
F-0.375
S'small'
p256
I0
tp257
a(I5
I63
F0.125
g237
I0
tp258
a(I5
I131
F0.375
S'much'
p259
I0
tp260
a(I7
I69
I0
g239
I0
tp261
a(I8
I63
F-0.625
g241
I0
tp262
a(I8
I69
I0
S'android'
p263
I0
tp264
a(I9
I4
I0
g243
I0
tp265
as(S'data'
p266
tp267
(lp268
(I7
I49
F1.0
S'good'
p269
I13
tp270
as(S'original'
p271
S'review'
p272
tp273
(lp274
(I1
I98
F0.25
S'original'
p275
I0
tp276
a(I1
I100
F0.25
S'original'
p277
I0
tp278
as(S'wifi'
p279
tp280
(lp281
(I1
I21
F-0.625
S'free'
p282
I0
tp283
a(I5
I41
F0.125
S'first'
p284
I0
tp285
a(I8
I24
I0
S'useful'
p286
I0
tp287
as(S'apps'
p288
tp289
(lp290
(I1
I0
F-0.125
S'slow'
p291
I0
tp292
a(I1
I31
I0
S'many'
p293
I0
tp294
a(I2
I75
I0
S'same'
p295
I0
tp296
a(I5
I61
F0.125
S'able'
p297
I0
tp298
a(I5
I61
I0
S'many'
p299
I0
tp300
a(I5
I101
F0.25
S'larger'
p301
I0
tp302
a(I5
I103
F-0.5
S'irremovable'
p303
I0
tp304
a(I5
I105
F0.125
S'able'
p305
I0
tp306
a(I5
I125
I0
S'many'
p307
I0
tp308
a(I5
I127
I0
S'big'
p309
I0
tp310
a(I5
I127
I0
S'such'
p311
I0
tp312
a(I7
I35
I0
S'useful'
p313
I0
tp314
a(I7
I80
F-0.625
S'other'
p315
I0
tp316
a(I8
I29
I0
S'general'
p317
I0
tp318
a(I9
I15
F0.375
S'available'
p319
I0
tp320
a(I9
I17
F0.5
S'careful'
p321
I0
tp322
a(I9
I17
F0.375
S'new'
p323
I0
tp324
a(I9
I17
I0
S'many'
p325
I0
tp326
a(I9
I17
F-0.625
S'free'
p327
I0
tp328
as(S'touch'
p329
S'screen'
p330
tp331
(lp332
(I1
I16
F0.25
S'responsive'
p333
I2
tp334
a(I1
I124
I0
S'capacitive'
p335
I2
tp336
a(I1
I124
I0
S'general'
p337
I2
tp338
a(I2
I106
F0.5
S'touch'
p339
I2
tp340
a(I6
I21
F0.875
S'happy'
p341
I2
tp342
a(I6
I21
I0
S'least'
p343
I2
tp344
a(I7
I58
F-0.125
S'slow'
p345
I2
tp346
a(I7
I58
F-0.375
S'black'
p347
I2
tp348
a(I8
I35
I0
S'capacitive'
p349
I2
tp350
a(I8
I47
F-0.375
S'small'
p351
I2
tp352
as.