(dp0
(S'social'
p1
S'networking'
p2
tp3
(lp4
(I8
I28
I0
S'social'
p5
I0
tp6
a(I34
I71
I0
S'social'
p7
I0
tp8
a(I38
I33
F-0.5
S'sure'
p9
I0
tp10
a(I38
I33
I0
S'social'
p11
I0
tp12
as(S'memory'
p13
S'card'
p14
tp15
(lp16
(I8
I46
F0.375
S'new'
p17
I0
tp18
a(I28
I57
I0
S'external'
p19
I0
tp20
a(I28
I57
I0
S'internal'
p21
I0
tp22
a(I36
I78
I0
S'most'
p23
I0
tp24
a(I5
I62
I0
S'internal'
p25
I5
tp26
a(I5
I62
F-0.25
S'disappointing'
p27
I5
tp28
a(I8
I46
F0.375
g17
I5
tp29
a(I28
I57
I0
g19
I5
tp30
a(I28
I57
I0
g21
I5
tp31
a(I36
I78
I0
g23
I5
tp32
as(S'battery'
p33
S'life'
p34
tp35
(lp36
(I3
I18
F1.0
S'good'
p37
I1
tp38
a(I12
I54
F-0.25
S'battery'
p39
I1
tp40
a(I16
I23
I0
S'great'
p41
I1
tp42
a(I16
I49
F1.0
S'good'
p43
I1
tp44
a(I17
I12
I0
S'great'
p45
I1
tp46
a(I17
I112
F0.125
S'last'
p47
I1
tp48
a(I17
I128
F-0.25
S'low'
p49
I1
tp50
a(I17
I130
F-0.5
S'longer'
p51
I1
tp52
a(I21
I18
F0.125
S'impressive'
p53
I1
tp54
a(I25
I49
F-0.625
S'bad'
p55
I1
tp56
a(I34
I7
F1.0
S'good'
p57
I1
tp58
a(I36
I46
F-0.75
S'short'
p59
I1
tp60
a(I36
I63
I0
S'great'
p61
I1
tp62
a(I36
I113
F-0.75
S'short'
p63
I1
tp64
a(I37
I17
F-0.5
S'long'
p65
I1
tp66
a(I37
I17
I0
S'full'
p67
I1
tp68
a(I37
I77
F1.0
S'good'
p69
I1
tp70
a(I38
I2
F1.0
S'good'
p71
I1
tp72
a(I38
I44
F0.375
S'much'
p73
I1
tp74
a(I38
I44
I0
S'most'
p75
I1
tp76
a(I39
I2
F-0.25
S'disappointing'
p77
I1
tp78
a(I40
I52
F-0.75
S'short'
p79
I1
tp80
a(I3
I18
F1.0
g37
I19
tp81
a(I8
I27
F-0.625
S'free'
p82
I19
tp83
a(I12
I54
F-0.25
g39
I19
tp84
a(I16
I23
I0
g41
I19
tp85
a(I16
I49
F1.0
g43
I19
tp86
a(I17
I112
F0.125
g47
I19
tp87
a(I21
I18
F0.125
g53
I19
tp88
a(I25
I49
F-0.625
g55
I19
tp89
a(I36
I63
I0
g61
I19
tp90
a(I36
I113
F-0.75
g63
I19
tp91
a(I37
I17
I0
g67
I19
tp92
a(I38
I2
F1.0
g71
I19
tp93
a(I38
I44
I0
g75
I19
tp94
a(I39
I2
F-0.25
g77
I19
tp95
a(I40
I52
F-0.75
g79
I19
tp96
a(I3
I1
F1.0
S'good'
p97
I15
tp98
a(I3
I2
I0
S'large'
p99
I15
tp100
a(I3
I388
F-0.75
S'bright'
p101
I15
tp102
a(I3
I388
F-0.625
S'light'
p103
I15
tp104
a(I5
I23
F-0.25
S'intensive'
p105
I15
tp106
a(I8
I31
F0.25
S'powerful'
p107
I15
tp108
a(I17
I10
F-0.625
S'bad'
p109
I15
tp110
a(I17
I12
I0
g45
I15
tp111
a(I17
I128
F-0.25
g49
I15
tp112
a(I17
I130
F-0.5
g51
I15
tp113
a(I17
I131
F-0.625
S'bad'
p114
I15
tp115
a(I28
I56
F0.375
S'extra'
p116
I15
tp117
a(I28
I56
F0.125
S'charger'
p118
I15
tp119
a(I32
I28
I0
S'metallic'
p120
I15
tp121
a(I32
I28
F-0.5
S'ordinary'
p122
I15
tp123
a(I34
I7
F1.0
g57
I15
tp124
a(I36
I46
F-0.75
g59
I15
tp125
a(I37
I17
F-0.5
g65
I15
tp126
a(I37
I67
I0
S'full'
p127
I15
tp128
a(I37
I71
F0.125
S'charger'
p129
I15
tp130
a(I37
I74
F0.125
S'charger'
p131
I15
tp132
a(I37
I75
F-0.625
S'unusual'
p133
I15
tp134
a(I37
I77
F1.0
g69
I15
tp135
a(I37
I101
F0.5
S'second'
p136
I15
tp137
a(I38
I44
F0.375
g73
I15
tp138
a(I38
I46
F-0.25
S'low'
p139
I15
tp140
a(I39
I33
F1.0
S'good'
p141
I15
tp142
as(S'navigation'
p143
tp144
(lp145
(I25
I50
F-0.625
S'free'
p146
I1
tp147
a(I28
I37
I0
S'latest'
p148
I1
tp149
a(I35
I134
F0.5
S'accurate'
p150
I1
tp151
as(S'keyboard'
p152
tp153
(lp154
(I5
I44
F-0.75
S'difficult'
p155
I2
tp156
a(I12
I52
F-0.75
S'little'
p157
I2
tp158
a(I17
I19
F0.625
S'easier'
p159
I2
tp160
a(I19
I23
F-0.375
S'small'
p161
I2
tp162
a(I19
I38
F-0.375
S'small'
p163
I2
tp164
a(I22
I34
I0
S'full'
p165
I2
tp166
a(I38
I7
F-0.875
S'awful'
p167
I2
tp168
a(I39
I10
I0
S'physical'
p169
I2
tp170
a(I39
I10
I0
S'full'
p171
I2
tp172
a(I40
I26
I0
S'physical'
p173
I2
tp174
as(S'smartphone'
p175
tp176
(lp177
(I3
I101
F-0.375
S'small'
p178
I0
tp179
a(I3
I101
F0.25
S'powerful'
p180
I0
tp181
a(I3
I329
F0.125
S'first'
p182
I0
tp183
a(I25
I50
F-0.625
S'other'
p184
I0
tp185
a(I25
I50
F-0.25
S'modern'
p186
I0
tp187
a(I25
I53
F-0.625
S'other'
p188
I0
tp189
a(I40
I84
I0
S'great'
p190
I0
tp191
a(I40
I84
F0.625
S'sophisticated'
p192
I0
tp193
as(S'u'
p194
S's'
p195
S'version'
p196
tp197
(lp198
(I3
I462
F0.375
S'newer'
p199
I0
tp200
a(I17
I42
I0
S'british'
p201
I0
tp202
a(I19
I74
F-0.375
S'black'
p203
I0
tp204
a(I21
I13
I0
S'updated'
p205
I0
tp206
a(I36
I93
I0
S'current'
p207
I0
tp208
as(S'3'
p209
S'2'
p210
S'screen'
p211
tp212
(lp213
(I40
I97
F-0.375
S'smaller'
p214
I0
tp215
as(S'call'
p216
S'quality'
p217
tp218
(lp219
(I3
I171
I0
S'great'
p220
I0
tp221
a(I3
I186
F1.0
S'good'
p222
I0
tp223
a(I3
I363
I0
S'great'
p224
I0
tp225
a(I3
I377
I0
S'great'
p226
I0
tp227
a(I17
I78
F1.0
S'good'
p228
I0
tp229
a(I25
I50
F1.0
S'good'
p230
I0
tp231
a(I32
I13
F1.0
S'good'
p232
I0
tp233
a(I32
I13
F0.625
S'easy'
p234
I0
tp235
a(I36
I56
F1.0
S'good'
p236
I0
tp237
a(I37
I106
F1.0
S'good'
p238
I0
tp239
a(I40
I8
F1.0
S'good'
p240
I0
tp241
as(S'download'
p242
tp243
(lp244
(I8
I44
I0
S'large'
p245
I1
tp246
as(S'operating'
p247
S'system'
p248
tp249
(lp250
(I3
I103
F-0.875
S'negative'
p251
I2
tp252
a(I3
I178
F-0.25
S'modern'
p253
I2
tp254
a(I3
I182
F0.375
S'flexible'
p255
I2
tp256
a(I3
I450
I0
S'updated'
p257
I2
tp258
a(I3
I465
F-0.625
S'other'
p259
I2
tp260
a(I3
I465
F0.625
S'major'
p261
I2
tp262
a(I19
I73
F0.375
S'new'
p263
I2
tp264
a(I19
I73
F0.375
S'much'
p265
I2
tp266
a(I37
I75
F1.0
S'good'
p267
I2
tp268
as(S'iphone'
p269
tp270
(lp271
(I3
I190
F0.25
S'unlocked'
p272
I1
tp273
a(I3
I191
F1.0
S'best'
p274
I1
tp275
a(I3
I274
I0
S'real'
p276
I1
tp277
a(I3
I278
F-0.375
S'smaller'
p278
I1
tp279
a(I8
I12
F0.875
S'worthy'
p280
I1
tp281
a(I35
I142
F0.625
S'perfect'
p282
I1
tp283
as(S'customer'
p284
S'service'
p285
tp286
(lp287
(I12
I8
F0.5
S'willing'
p288
I3
tp289
a(I40
I76
F0.25
S'helpful'
p290
I3
tp291
as(S'internet'
p292
tp293
(lp294
(I3
I323
F1.0
S'good'
p295
I6
tp296
a(I3
I449
I0
S'lat'
p297
I6
tp298
a(I36
I88
F0.375
S'reliable'
p299
I6
tp300
as(S'mobile'
p301
tp302
(lp303
(I34
I74
F1.0
S'good'
p304
I0
tp305
as(S'8'
p306
S'mp'
p307
S'camera'
p308
tp309
(lp310
(I3
I284
F1.0
S'good'
p311
I0
tp312
a(I5
I56
F0.875
S'nice'
p313
I0
tp314
a(I8
I21
I0
S'cool'
p315
I0
tp316
a(I17
I86
F1.0
S'good'
p317
I0
tp318
a(I40
I0
F0.625
S'easy'
p319
I0
tp320
as(S'belle'
p321
tp322
(lp323
(I3
I257
I0
S'next'
p324
I1
tp325
a(I28
I36
F-0.5
S'less'
p326
I1
tp327
a(I36
I98
I0
S'most'
p328
I1
tp329
a(I36
I110
F-0.375
S'smooth'
p330
I1
tp331
as(S'ovi'
p332
S'maps'
p333
tp334
(lp335
(I3
I23
F0.875
S'nice'
p336
I0
tp337
a(I17
I63
F-0.625
S'free'
p338
I0
tp339
a(I17
I94
F-0.625
S'free'
p340
I0
tp341
a(I34
I19
F-0.625
S'free'
p342
I0
tp343
a(I37
I29
F-0.625
S'free'
p344
I0
tp345
a(I3
I425
F1.0
S'good'
p346
I5
tp347
a(I3
I425
F0.125
S'enough'
p348
I5
tp349
a(I12
I49
F-0.625
S'free'
p350
I5
tp351
a(I12
I49
I0
S'great'
p352
I5
tp353
a(I17
I63
F-0.625
g338
I5
tp354
a(I34
I19
F-0.625
g342
I5
tp355
as(S'ovi'
p356
S'store'
p357
tp358
(lp359
(I28
I31
I0
S'most'
p360
I0
tp361
a(I28
I31
F-0.125
S'foreign'
p362
I0
tp363
a(I36
I66
F0.375
S'new'
p364
I0
tp365
a(I39
I27
F0.125
S'essential'
p366
I0
tp367
as(S'power'
p368
S'saving'
p369
S'mode'
p370
tp371
(lp372
(I32
I18
F0.375
S'new'
p373
I0
tp374
a(I37
I99
F-0.25
S'low'
p375
I0
tp376
as(S'a'
p377
S'long'
p378
S'time'
p379
tp380
(lp381
(I3
I385
F-0.5
S'long'
p382
I12
tp383
a(I8
I0
F-0.5
S'long'
p384
I12
tp385
a(I26
I6
F-0.5
S'long'
p386
I12
tp387
a(I35
I95
F-0.5
S'long'
p388
I12
tp389
as(S'address'
p390
S'book'
p391
tp392
(lp393
(I3
I59
F-0.375
S'small'
p394
I0
tp395
as(g377
S'data'
p396
S'connection'
p397
tp398
(lp399
(I37
I42
F0.125
S'solid'
p400
I0
tp401
as(S'voice'
p402
tp403
(lp404
(I19
I50
I0
S'cool'
p405
I4
tp406
a(I19
I50
F0.125
S'able'
p407
I4
tp408
a(I32
I21
F1.0
S'good'
p409
I4
tp410
a(I35
I134
F0.5
S'clear'
p411
I4
tp412
a(I36
I101
F0.125
S'last'
p413
I4
tp414
a(I36
I101
I0
S'least'
p415
I4
tp416
as(S'pictures'
p417
S'and'
p418
S'videos'
p419
tp420
(lp421
(I3
I123
F-0.25
S'low'
p422
I0
tp423
a(I3
I123
F-0.625
S'light'
p424
I0
tp425
a(I35
I134
I0
S'great'
p426
I0
tp427
a(I35
I134
I0
S'most'
p428
I0
tp429
a(I35
I134
F0.875
S'important'
p430
I0
tp431
a(I40
I0
F1.0
S'good'
p432
I0
tp433
as(S'smart'
p434
tp435
(lp436
(I3
I386
F0.125
S'first'
p437
I10
tp438
a(I3
I407
I0
S'most'
p439
I10
tp440
a(I3
I407
F-0.625
S'other'
p441
I10
tp442
a(I3
I412
F0.125
S'typical'
p443
I10
tp444
a(I3
I430
I0
S'most'
p445
I10
tp446
a(I19
I4
I0
S'big'
p447
I10
tp448
a(I24
I18
F-0.625
S'other'
p449
I10
tp450
a(I26
I11
F0.5
S'true'
p451
I10
tp452
a(I31
I43
F0.375
S'new'
p453
I10
tp454
a(I31
I43
I0
S'song'
p455
I10
tp456
a(I36
I114
F-0.625
S'other'
p457
I10
tp458
a(I40
I48
I0
S'real'
p459
I10
tp460
as(S'calls'
p461
tp462
(lp463
(I3
I297
F1.0
S'good'
p464
I0
tp465
a(I6
I4
F-0.625
S'average'
p466
I0
tp467
a(I12
I35
F-0.625
S'free'
p468
I0
tp469
a(I18
I15
F-0.75
S'short'
p470
I0
tp471
a(I19
I49
I0
S'great'
p472
I0
tp473
a(I31
I2
F0.125
S'able'
p474
I0
tp475
a(I34
I16
F0.5
S'possible'
p476
I0
tp477
a(I36
I65
F-0.625
S'other'
p478
I0
tp479
a(I37
I36
F-0.5
S'regular'
p480
I0
tp481
as(S'nokia'
p482
S'suite'
p483
tp484
(lp485
(I3
I400
I0
S'useful'
p486
I0
tp487
a(I34
I35
F0.875
S'nice'
p488
I0
tp489
a(I37
I83
I0
S'update'
p490
I0
tp491
a(I3
I107
F0.625
S'kind'
p492
I0
tp493
a(I3
I161
F0.5
S'loyal'
p494
I0
tp495
a(I3
I178
I0
S'relic'
p496
I0
tp497
a(I3
I368
F0.375
S'new'
p498
I0
tp499
a(I8
I7
F0.25
S'favorite'
p500
I0
tp501
a(I12
I19
I0
S'great'
p502
I0
tp503
a(I12
I19
F-0.625
S'other'
p504
I0
tp505
a(I12
I36
I0
S'old'
p506
I0
tp507
a(I12
I36
F0.125
S'typical'
p508
I0
tp509
a(I12
I47
F-0.625
S'bad'
p510
I0
tp511
a(I12
I47
I0
S'old'
p512
I0
tp513
a(I12
I55
I0
S'old'
p514
I0
tp515
a(I16
I10
I0
S'old'
p516
I0
tp517
a(I17
I51
I0
S'many'
p518
I0
tp519
a(I17
I118
I0
S'next'
p520
I0
tp521
a(I21
I2
I0
S'old'
p522
I0
tp523
a(I21
I15
I0
S'least'
p524
I0
tp525
a(I24
I2
I0
S'old'
p526
I0
tp527
a(I24
I11
F0.125
S'able'
p528
I0
tp529
a(I25
I54
F-0.125
S'overall'
p530
I0
tp531
a(I27
I9
F0.875
S'nice'
p532
I0
tp533
a(I31
I8
F-0.75
S'unable'
p534
I0
tp535
a(I31
I48
I0
S'social'
p536
I0
tp537
a(I31
I77
I0
S'third'
p538
I0
tp539
a(I32
I18
F0.375
S'new'
p540
I0
tp541
a(I34
I7
I0
S'fast'
p542
I0
tp543
a(I34
I19
F0.625
S'kind'
p544
I0
tp545
a(I34
I53
F-0.625
S'other'
p546
I0
tp547
a(I35
I27
I0
S'fifth'
p548
I0
tp549
a(I35
I27
I0
S'fourth'
p550
I0
tp551
a(I35
I47
I0
S'different'
p552
I0
tp553
a(I35
I61
F0.125
S'last'
p554
I0
tp555
a(I35
I64
F0.5
S'touch'
p556
I0
tp557
a(I35
I70
F1.0
S'best'
p558
I0
tp559
a(I35
I97
F1.0
S'best'
p560
I0
tp561
a(I36
I47
I0
S'old'
p562
I0
tp563
a(I36
I141
F0.75
S'beautiful'
p564
I0
tp565
a(I37
I51
F0.25
S'familiar'
p566
I0
tp567
a(I37
I76
F1.0
S'good'
p568
I0
tp569
a(I37
I83
I0
g490
I0
tp570
a(I38
I40
I0
S'special'
p571
I0
tp572
a(I39
I8
F-0.5
S'less'
p573
I0
tp574
a(I39
I8
F-0.75
S'likely'
p575
I0
tp576
a(I39
I21
F-0.25
S'past'
p577
I0
tp578
a(I40
I3
I0
S'more'
p579
I0
tp580
a(I40
I19
I0
S'anymore'
p581
I0
tp582
as(S'text'
p583
S'messages'
p584
tp585
(lp586
(I3
I402
F0.5
S'second'
p587
I0
tp588
a(I3
I402
I0
S'text'
p589
I0
tp590
a(I3
I68
F-0.375
S'small'
p591
I18
tp592
a(I3
I432
F-0.375
S'smaller'
p593
I18
tp594
a(I3
I450
I0
S'old'
p595
I18
tp596
a(I34
I57
F-0.875
S'hard'
p597
I18
tp598
a(I34
I58
F-0.875
S'hard'
p599
I18
tp600
a(I34
I59
F-0.875
S'hard'
p601
I18
tp602
as(S'music'
p603
tp604
(lp605
(I3
I227
I0
S'more'
p606
I0
tp607
a(I3
I227
F0.75
S'beautiful'
p608
I0
tp609
a(I3
I244
F0.375
S'new'
p610
I0
tp611
a(I31
I19
I0
S'next'
p612
I0
tp613
as(S'symbian'
p614
S'anna'
p615
tp616
(lp617
(I35
I99
I0
S'most'
p618
I0
tp619
a(I35
I99
I0
S'update'
p620
I0
tp621
a(I3
I178
F0.375
S'available'
p622
I3
tp623
a(I3
I456
F0.5
S'upgraded'
p624
I3
tp625
a(I3
I456
F0.375
S'new'
p626
I3
tp627
as(g377
S'data'
p628
S'plan'
p629
tp630
(lp631
(I3
I185
F0.5
S'expensive'
p632
I0
tp633
a(I27
I5
F-0.375
S'small'
p634
I0
tp635
a(I3
I185
F0.5
g632
I0
tp636
a(I27
I5
F-0.375
g634
I0
tp637
a(I3
I19
F-0.5
S'heavy'
p638
I13
tp639
a(I3
I185
F0.5
g632
I13
tp640
a(I8
I46
I0
S'old'
p641
I13
tp642
a(I16
I36
I0
S'quick'
p643
I13
tp644
a(I27
I5
F-0.375
g634
I13
tp645
a(I34
I21
I0
S'cable'
p646
I13
tp647
a(I37
I18
F-0.5
S'heavy'
p648
I13
tp649
a(I37
I42
F0.125
g400
I13
tp650
a(I37
I119
F-0.5
S'longer'
p651
I13
tp652
as(S'turn'
p653
S'by'
p654
S'turn'
p655
tp656
(lp657
(I40
I28
F-0.25
S'spoken'
p658
I0
tp659
as(g377
S'sim'
p660
S'card'
p661
tp662
(lp663
(I40
I68
I0
S'local'
p664
I0
tp665
a(I40
I68
I0
g664
I0
tp666
as(S'wifi'
p667
tp668
(lp669
(I7
I5
I0
S'own'
p670
I0
tp671
a(I10
I6
F-0.75
S'unable'
p672
I0
tp673
a(I27
I8
F-0.5
S'sure'
p674
I0
tp675
a(I31
I78
I0
S'more'
p676
I0
tp677
a(I36
I99
F0.25
S'favorite'
p678
I0
tp679
as(S'apps'
p680
tp681
(lp682
(I3
I183
I0
S'few'
p683
I0
tp684
a(I3
I183
F1.0
S'good'
p685
I0
tp686
a(I3
I288
F-0.625
S'other'
p687
I0
tp688
a(I3
I308
F0.625
S'easy'
p689
I0
tp690
a(I3
I393
F0.25
S'helpful'
p691
I0
tp692
a(I3
I397
F0.875
S'music'
p693
I0
tp694
a(I3
I397
I0
S'forth'
p695
I0
tp696
a(I3
I432
I0
S'fewer'
p697
I0
tp698
a(I5
I45
I0
S'many'
p699
I0
tp700
a(I12
I26
F0.5
S'rid'
p701
I0
tp702
a(I12
I33
F-0.125
S'opposite'
p703
I0
tp704
a(I12
I46
I0
S'many'
p705
I0
tp706
a(I12
I61
F0.375
S'new'
p707
I0
tp708
a(I18
I17
I0
S'included'
p709
I0
tp710
a(I24
I17
I0
S'more'
p711
I0
tp712
a(I28
I33
I0
S'android'
p713
I0
tp714
a(I28
I63
I0
S'more'
p715
I0
tp716
a(I31
I51
I0
S'social'
p717
I0
tp718
a(I31
I51
F-0.5
S'open'
p719
I0
tp720
a(I31
I58
F-0.75
S'unable'
p721
I0
tp722
a(I32
I23
F-0.625
S'free'
p723
I0
tp724
a(I34
I7
I0
S'many'
p725
I0
tp726
a(I34
I7
I0
S'android'
p727
I0
tp728
a(I35
I44
F-0.625
S'other'
p729
I0
tp730
a(I36
I147
F0.375
S'available'
p731
I0
tp732
a(I38
I2
F-0.25
S'abundant'
p733
I0
tp734
a(I38
I2
F-0.625
S'free'
p735
I0
tp736
a(I39
I27
I0
S'few'
p737
I0
tp738
as(g377
S'great'
p739
S'camera'
p740
tp741
(lp742
(I3
I25
I0
S'great'
p743
I0
tp744
a(I16
I19
I0
S'great'
p745
I0
tp746
a(I18
I10
I0
S'great'
p747
I0
tp748
a(I29
I0
I0
S'great'
p749
I0
tp750
a(I34
I62
I0
S'great'
p751
I0
tp752
a(I36
I4
I0
S'great'
p753
I0
tp754
a(I36
I23
I0
S'great'
p755
I0
tp756
a(I36
I147
F0.25
S'responsive'
p757
I0
tp758
a(I36
I147
I0
S'great'
p759
I0
tp760
a(I40
I85
I0
S'great'
p761
I0
tp762
a(I3
I25
I0
g743
I0
tp763
a(I16
I19
I0
g745
I0
tp764
a(I18
I10
I0
g747
I0
tp765
a(I29
I0
I0
g749
I0
tp766
a(I34
I62
I0
g751
I0
tp767
a(I36
I4
I0
g753
I0
tp768
a(I36
I23
I0
g755
I0
tp769
a(I36
I147
F0.25
g757
I0
tp770
a(I36
I147
I0
g759
I0
tp771
a(I40
I85
I0
g761
I0
tp772
a(I3
I25
I0
g743
I1
tp773
a(I3
I41
F-0.75
S'secondary'
p774
I1
tp775
a(I3
I72
F1.0
S'good'
p776
I1
tp777
a(I3
I156
F0.125
S'memory'
p778
I1
tp779
a(I3
I284
F1.0
g311
I1
tp780
a(I3
I285
I0
S'useful'
p781
I1
tp782
a(I3
I396
F0.625
S'easy'
p783
I1
tp784
a(I3
I396
F1.0
S'good'
p785
I1
tp786
a(I3
I396
F1.0
S'good'
p787
I1
tp788
a(I3
I427
F1.0
S'good'
p789
I1
tp790
a(I5
I56
F0.875
g313
I1
tp791
a(I8
I21
I0
g315
I1
tp792
a(I8
I34
F0.125
S'digital'
p793
I1
tp794
a(I11
I3
F1.0
S'good'
p795
I1
tp796
a(I12
I60
F-0.125
S'super'
p797
I1
tp798
a(I12
I60
F0.625
S'easy'
p799
I1
tp800
a(I13
I3
F1.0
S'good'
p801
I1
tp802
a(I16
I19
I0
g745
I1
tp803
a(I16
I30
F-0.375
S'disable'
p804
I1
tp805
a(I17
I86
F1.0
g317
I1
tp806
a(I18
I10
I0
g747
I1
tp807
a(I22
I31
F1.0
S'good'
p808
I1
tp809
a(I23
I2
F0.875
S'nice'
p810
I1
tp811
a(I29
I0
I0
g749
I1
tp812
a(I29
I2
F1.0
S'good'
p813
I1
tp814
a(I31
I0
I0
S'incredible'
p815
I1
tp816
a(I34
I62
I0
g751
I1
tp817
a(I35
I80
F1.0
S'good'
p818
I1
tp819
a(I36
I4
I0
g753
I1
tp820
a(I36
I23
I0
g755
I1
tp821
a(I36
I109
F1.0
S'good'
p822
I1
tp823
a(I36
I147
F0.25
g757
I1
tp824
a(I36
I147
I0
g759
I1
tp825
a(I38
I13
I0
S'fast'
p826
I1
tp827
a(I40
I0
F0.625
g319
I1
tp828
a(I40
I39
F-0.875
S'awful'
p829
I1
tp830
a(I40
I85
I0
g761
I1
tp831
as(S'amazon'
p832
tp833
(lp834
(I5
I0
F-0.625
S'other'
p835
I13
tp836
a(I19
I6
F0.625
S'easier'
p837
I13
tp838
a(I19
I72
F-0.625
S'inaccurate'
p839
I13
tp840
a(I21
I4
F-0.5
S'sure'
p841
I13
tp842
as(S'touch'
p843
S'screen'
p844
tp845
(lp846
(I3
I21
F0.5
S'touch'
p847
I2
tp848
a(I3
I341
I0
S'capacitive'
p849
I2
tp850
a(I3
I341
I0
S'resistive'
p851
I2
tp852
a(I8
I49
F0.5
S'touch'
p853
I2
tp854
a(I12
I27
F0.5
S'touch'
p855
I2
tp856
a(I17
I11
F1.0
S'good'
p857
I2
tp858
a(I17
I61
F-0.375
S'small'
p859
I2
tp860
a(I17
I61
F0.25
S'sharp'
p861
I2
tp862
a(I17
I61
F0.625
S'pleasant'
p863
I2
tp864
a(I17
I128
I0
S'most'
p865
I2
tp866
a(I17
I128
F0.5
S'touch'
p867
I2
tp868
a(I21
I0
F0.125
S'first'
p869
I2
tp870
a(I21
I0
I0
S'full'
p871
I2
tp872
a(I22
I33
F0.875
S'nice'
p873
I2
tp874
a(I25
I49
F0.625
S'positive'
p875
I2
tp876
a(I25
I49
F-0.375
S'small'
p877
I2
tp878
a(I25
I49
F0.25
S'responsive'
p879
I2
tp880
a(I28
I76
F-0.375
S'small'
p881
I2
tp882
a(I29
I0
F0.125
S'balanced'
p883
I2
tp884
a(I34
I0
F0.5
S'touch'
p885
I2
tp886
a(I34
I57
F0.5
S'touch'
p887
I2
tp888
a(I36
I58
I0
S'plastic'
p889
I2
tp890
a(I40
I35
F0.5
S'touch'
p891
I2
tp892
a(I40
I89
I0
S'sensitive'
p893
I2
tp894
as.