(dp0
(S'battery'
p1
S'life'
p2
tp3
(lp4
(I3
I47
F-0.625
S'bad'
p5
I1
tp6
a(I15
I41
I0
S'useful'
p7
I1
tp8
a(I46
I6
F0.625
S'acceptable'
p9
I1
tp10
a(I48
I6
I0
S'great'
p11
I1
tp12
a(I49
I10
F1.0
S'better'
p13
I1
tp14
a(I49
I11
F1.0
S'better'
p15
I1
tp16
a(I67
I6
F-0.625
S'bad'
p17
I1
tp18
a(I3
I47
F-0.625
g5
I19
tp19
a(I15
I41
I0
g7
I19
tp20
a(I46
I6
F0.625
g9
I19
tp21
a(I49
I11
F1.0
g15
I19
tp22
a(I62
I25
I0
S'metal'
p23
I19
tp24
a(I67
I6
F-0.625
g17
I19
tp25
as(S'power'
p26
S'button'
p27
tp28
(lp29
(I38
I48
I-100
S'unlock/power'
p30
I0
tp31
as(S'camera'
p32
tp33
(lp34
(I4
I0
F-0.375
S'black'
p35
I1
tp36
a(I38
I0
F1.0
S'best'
p37
I1
tp38
a(I44
I10
F-0.625
S'other'
p39
I1
tp40
a(I44
I19
F0.375
S'flash'
p41
I1
tp42
a(I46
I3
F1.0
S'good'
p43
I1
tp44
a(I48
I6
I0
S'great'
p45
I1
tp46
a(I70
I1
I0
S'blue'
p47
I1
tp48
as(S'straight'
p49
S'talk'
p50
tp51
(lp52
(I44
I26
F0.625
S'straight'
p53
I0
tp54
a(I56
I35
F-0.625
S'other'
p55
I0
tp56
a(I44
I26
F0.625
g53
I13
tp57
as(S'memory'
p58
tp59
(lp60
(I1
I5
I0
S'same'
p61
I5
tp62
a(I1
I5
F-0.75
S'sick'
p63
I5
tp64
a(I9
I9
I0
S'internal'
p65
I5
tp66
a(I17
I7
I0
S'internal'
p67
I5
tp68
a(I17
I18
F1.0
S'good'
p69
I5
tp70
a(I19
I77
I0
S'internal'
p71
I5
tp72
a(I38
I7
I0
S'more'
p73
I5
tp74
a(I38
I7
I0
S'internal'
p75
I5
tp76
a(I56
I2
F0.375
S'much'
p77
I5
tp78
a(I63
I1
I0
S'internal'
p79
I5
tp80
as(S'market'
p81
tp82
(lp83
(I3
I2
F1.0
S'best'
p84
I16
tp85
a(I21
I9
I0
S'android'
p86
I16
tp87
a(I69
I30
I0
S'cellular'
p88
I16
tp89
as(S'flash'
p90
tp91
(lp92
(I69
I33
F-0.625
S'useless'
p93
I2
tp94
as(S'samsung'
p95
S'captivate'
p96
tp97
(lp98
(I19
I52
F-0.625
S'other'
p99
I0
tp100
a(I66
I18
F-0.875
S'worst'
p101
I0
tp102
as(S'seller'
p103
tp104
(lp105
(I13
I1
F0.625
S'perfect'
p106
I19
tp107
a(I44
I36
I0
S'forth'
p108
I19
tp109
a(I59
I47
F0.625
S'responsible'
p110
I19
tp111
a(I61
I11
F0.375
S'reliable'
p112
I19
tp113
a(I69
I50
F1.0
S'good'
p114
I19
tp115
as(S'android'
p116
tp117
(lp118
(I3
I10
F0.375
S'new'
p119
I0
tp120
a(I15
I27
F0.25
S'unlocked'
p121
I0
tp122
a(I21
I29
F0.375
S'new'
p123
I0
tp124
a(I31
I46
I0
S'great'
p125
I0
tp126
a(I43
I5
I0
S'stable'
p127
I0
tp128
a(I62
I38
I0
S'old'
p129
I0
tp130
a(I71
I9
F0.125
S'first'
p131
I0
tp132
as(S'to'
p133
S'take'
p134
S'battery'
p135
tp136
(lp137
(I38
I64
F-0.5
S'power'
p138
I0
tp139
a(I38
I64
F-0.5
g138
I0
tp140
a(I10
I1
F0.125
S'last'
p141
I15
tp142
a(I17
I19
I0
S'least'
p143
I15
tp144
a(I34
I17
I0
S'full'
p145
I15
tp146
a(I38
I64
F-0.5
g138
I15
tp147
a(I44
I2
I0
S'same'
p148
I15
tp149
a(I48
I6
I0
g11
I15
tp150
a(I49
I0
I0
S'hot'
p151
I15
tp152
a(I49
I1
F0.375
S'new'
p153
I15
tp154
a(I49
I10
F1.0
g13
I15
tp155
a(I51
I4
I0
S'most'
p156
I15
tp157
a(I56
I17
F0.125
S'first'
p158
I15
tp159
a(I56
I17
F-0.75
S'difficult'
p160
I15
tp161
a(I58
I7
F0.125
S'last'
p162
I15
tp163
a(I58
I13
F0.625
S'easy'
p164
I15
tp165
as(S'samsung'
p166
S'galaxy'
p167
tp168
(lp169
(I18
I0
F0.125
S'first'
p170
I0
tp171
a(I61
I12
I0
S'old'
p172
I0
tp173
a(I18
I0
F0.125
g170
I7
tp174
a(I19
I20
I0
S'third'
p175
I7
tp176
a(I19
I52
F-0.625
g99
I7
tp177
a(I44
I4
F-0.625
S'other'
p178
I7
tp179
a(I44
I69
F0.375
S'new'
p180
I7
tp181
a(I44
I75
I0
S'old'
p182
I7
tp183
a(I51
I3
I-100
S'techinical'
p184
I7
tp185
a(I53
I5
I0
S'same'
p186
I7
tp187
a(I58
I14
F1.0
S'best'
p188
I7
tp189
a(I72
I34
F-0.5
S'less'
p190
I7
tp191
a(I29
I5
F0.375
S'new'
p192
I0
tp193
a(I30
I1
F0.375
S'new'
p194
I0
tp195
a(I56
I47
F1.0
S'good'
p196
I0
tp197
a(I61
I12
I0
g172
I0
tp198
a(I64
I0
F1.0
S'good'
p199
I0
tp200
as(S'sim'
p201
S'card'
p202
tp203
(lp204
(I19
I10
F-0.375
S'simple'
p205
I0
tp206
a(I56
I16
I0
S'along'
p207
I0
tp208
as(S'text'
p209
S'messages'
p210
tp211
(lp212
(I54
I4
F0.625
S'partial'
p213
I0
tp214
as(S'smartphone'
p215
tp216
(lp217
(I3
I51
I0
S'great'
p218
I0
tp219
a(I3
I52
I0
S'latest'
p220
I0
tp221
a(I57
I8
F0.25
S'powerful'
p222
I0
tp223
a(I58
I3
F1.0
S'best'
p224
I0
tp225
a(I69
I1
F0.125
S'typical'
p226
I0
tp227
as(S'wall'
p228
S'charger'
p229
tp230
(lp231
(I29
I6
F-0.625
S'wall'
p232
I1
tp233
as(S'apps'
p234
tp235
(lp236
(I17
I18
F-0.5
S'heavy'
p237
I0
tp238
a(I17
I18
I0
S'such'
p239
I0
tp240
a(I19
I65
F0.125
S'able'
p241
I0
tp242
a(I20
I1
I0
S'many'
p243
I0
tp244
a(I20
I6
F-0.5
S'certain'
p245
I0
tp246
a(I20
I9
I0
S'few'
p247
I0
tp248
a(I26
I51
I0
S'download'
p249
I0
tp250
a(I31
I80
I0
S'android'
p251
I0
tp252
a(I44
I50
F0.375
S'new'
p253
I0
tp254
a(I44
I50
F0.375
S'available'
p255
I0
tp256
a(I56
I4
I0
S'many'
p257
I0
tp258
a(I56
I4
F0.375
S'available'
p259
I0
tp260
a(I56
I30
I0
S'android'
p261
I0
tp262
a(I56
I30
F-0.625
S'want'
p263
I0
tp264
a(I62
I11
I0
S'many'
p265
I0
tp266
a(I69
I36
I0
S'proprietary'
p267
I0
tp268
a(I69
I38
F0.125
S'able'
p269
I0
tp270
a(I69
I38
F0.5
S'clear'
p271
I0
tp272
as(S'amazon'
p273
tp274
(lp275
(I19
I24
F-0.5
S'sure'
p276
I13
tp277
a(I31
I16
F0.5
S'rid'
p278
I13
tp279
a(I61
I16
F-0.25
S'past'
p280
I13
tp281
as.