(dp0
(S'problem'
p1
tp2
(lp3
(I7
I2
I0
S'only'
p4
tp5
a(I21
I0
F0.125
S'first'
p6
tp7
a(I105
I1
I0
S'big'
p8
tp9
a(I145
I1
I0
S'only'
p10
tp11
a(I174
I3
I0
S'same'
p12
tp13
as(S'memory'
p14
S'card'
p15
tp16
(lp17
(I13
I7
I0
S'internal'
p18
tp19
a(I13
I7
I0
S'internal'
p20
tp21
a(I44
I3
I0
S'full'
p22
tp23
a(I54
I2
F-0.25
S'low'
p24
tp25
a(I54
I2
I0
S'internal'
p26
tp27
a(I110
I8
I0
S'internal'
p28
tp29
a(I185
I2
I0
S'internal'
p30
tp31
a(I185
I2
I0
S'full'
p32
tp33
as(S'battery'
p34
S'life'
p35
tp36
(lp37
(I33
I1
F-0.625
S'average'
p38
tp39
a(I69
I4
F-0.5
S'less'
p40
tp41
a(I75
I4
F1.0
S'better'
p42
tp43
a(I75
I4
F-0.5
S'less'
p44
tp45
a(I94
I1
F-0.5
S'long'
p46
tp47
a(I94
I1
F0.5
S'clear'
p48
tp49
a(I146
I2
F-0.25
S'low'
p50
tp51
a(I149
I4
F1.0
S'good'
p52
tp53
a(I194
I5
I0
S'great'
p54
tp55
as(S'cellphone'
p56
tp57
(lp58
(I22
I0
F-1.0
S'disrespect'
p59
tp60
a(I92
I2
F1.0
S'good'
p61
tp62
a(I133
I0
I0
S'economic'
p63
tp64
as(S'screen'
p65
S'unlocked'
p66
S'world'
p67
tp68
(lp69
(I131
I4
F0.5
S'touch'
p70
tp71
a(I156
I0
F0.5
S'touch'
p72
tp73
a(I194
I13
F0.5
S'touch'
p74
tp75
a(I197
I0
F0.5
S'touch'
p76
tp77
as(S'gps'
p78
S'touch'
p79
S'screen'
p80
tp81
(lp82
(I131
I4
F0.5
g70
tp83
a(I156
I0
F0.5
g72
tp84
a(I194
I13
F0.5
g74
tp85
a(I197
I0
F0.5
g76
tp86
as(S'thanks'
p87
tp88
(lp89
(I50
I0
F0.75
S'worth'
p90
tp91
as(S'price'
p92
tp93
(lp94
(I26
I0
F-0.375
S'small'
p95
tp96
a(I62
I3
F0.75
S'worth'
p97
tp98
a(I81
I1
I0
S'great'
p99
tp100
a(I109
I3
F0.5
S'reasonable'
p101
tp102
a(I112
I3
F1.0
S'good'
p103
tp104
a(I117
I0
I0
S'same'
p105
tp106
a(I141
I1
F-0.25
S'low'
p107
tp108
a(I160
I0
F1.0
S'good'
p109
tp110
a(I196
I3
F1.0
S'good'
p111
tp112
a(I200
I2
F1.0
S'good'
p113
tp114
as(S'service'
p115
tp116
(lp117
(I53
I7
F-0.5
S'poor'
p118
tp119
a(I73
I9
F1.0
S'good'
p120
tp121
as(S'samsung'
p122
tp123
(lp124
(I14
I0
F0.5
S'technical'
p125
tp126
a(I14
I1
I0
S'next'
p127
tp128
a(I14
I1
F0.5
S'technical'
p129
tp130
as(S'back'
p131
tp132
(lp133
(I34
I7
F0.375
S'extra'
p134
tp135
a(I34
I7
F-0.25
S'white'
p136
tp137
as(S'nternational'
p138
S'version'
p139
tp140
(lp141
(I13
I0
F-0.5
S'international'
p142
tp143
a(I13
I1
F-0.5
S'international'
p144
tp145
a(I13
I3
F-0.5
S'international'
p146
tp147
a(I13
I3
F1.0
S'best'
p148
tp149
a(I13
I3
F-0.5
S'international'
p150
tp151
a(I156
I0
F0.125
S'first'
p152
tp153
a(I201
I0
F-0.5
S'international'
p154
tp155
as(S'camera'
p156
tp157
(lp158
(I18
I2
I0
S'great'
p159
tp160
a(I164
I7
I0
S'great'
p161
tp162
a(I174
I2
I0
S'many'
p163
tp164
a(I194
I6
F1.0
S'good'
p165
tp166
as(S'life'
p167
tp168
(lp169
(I33
I1
F-0.625
g38
tp170
a(I75
I4
F1.0
g42
tp171
a(I94
I1
F0.5
g48
tp172
a(I194
I5
I0
g54
tp173
as(S'version'
p174
tp175
(lp176
(I0
I5
I0
S'european'
p177
tp178
a(I13
I0
F-0.5
g142
tp179
a(I13
I1
F-0.5
g144
tp180
a(I13
I3
F-0.5
g146
tp181
a(I13
I3
F1.0
g148
tp182
a(I13
I3
F-0.5
g150
tp183
a(I156
I0
F0.125
g152
tp184
a(I176
I0
I0
S'older'
p185
tp186
a(I176
I0
I0
S'android'
p187
tp188
a(I201
I0
F-0.5
g154
tp189
as(S'operating'
p190
S'system'
p191
tp192
(lp193
(I2
I0
F1.0
S'best'
p194
tp195
a(I180
I0
I0
S'latest'
p196
tp197
as(S'touch'
p198
tp199
(lp200
(I56
I0
F-0.125
S'complex'
p201
tp202
a(I191
I0
F1.0
S'good'
p203
tp204
as(S'purchase'
p205
tp206
(lp207
(I10
I0
F1.0
S'good'
p208
tp209
a(I106
I2
F0.375
S'similar'
p210
tp211
a(I149
I2
F0.875
S'happy'
p212
tp213
as(S'quality'
p214
tp215
(lp216
(I13
I3
I0
S'high'
p217
tp218
a(I34
I5
F1.0
S'good'
p219
tp220
a(I59
I0
F1.0
S'good'
p221
tp222
a(I96
I3
F1.0
S'good'
p223
tp224
a(I126
I1
I0
S'great'
p225
tp226
a(I138
I0
F-0.375
S'top'
p227
tp228
a(I138
I0
F0.625
S'easy'
p229
tp230
as(S'memory'
p231
tp232
(lp233
(I4
I0
I0
S'internal'
p234
tp235
a(I13
I4
I0
S'internal'
p236
tp237
a(I13
I6
I0
S'internal'
p238
tp239
a(I13
I7
I0
g18
tp240
a(I13
I7
I0
g20
tp241
a(I44
I3
I0
g22
tp242
a(I47
I0
I0
S'more'
p243
tp244
a(I47
I0
I0
S'internal'
p245
tp246
a(I54
I2
F-0.25
g24
tp247
a(I54
I2
I0
g26
tp248
a(I67
I0
F1.0
S'good'
p249
tp250
a(I75
I2
I0
S'internal'
p251
tp252
a(I75
I2
I0
S'full'
p253
tp254
a(I75
I3
I0
S'more'
p255
tp256
a(I75
I3
I0
S'internal'
p257
tp258
a(I92
I0
I0
S'internal'
p259
tp260
a(I110
I4
I0
S'internal'
p261
tp262
a(I110
I8
I0
g28
tp263
a(I145
I2
F0.25
S'helpful'
p264
tp265
a(I151
I3
I0
S'internal'
p266
tp267
a(I185
I0
I0
S'internal'
p268
tp269
a(I185
I2
I0
g30
tp270
a(I185
I2
I0
g32
tp271
a(I199
I3
I0
S'internal'
p272
tp273
a(I199
I3
F0.625
S'easy'
p274
tp275
as(S'product'
p276
tp277
(lp278
(I1
I2
I0
S'great'
p279
tp280
a(I16
I2
F1.0
S'good'
p281
tp282
a(I79
I0
F1.0
S'good'
p283
tp284
a(I123
I0
I0
S'same'
p285
tp286
a(I156
I0
F-0.5
S'international'
p287
tp288
a(I163
I1
F0.625
S'easy'
p289
tp290
a(I202
I1
I0
S'canadian'
p291
tp292
as(S'galaxy'
p293
tp294
(lp295
(I131
I4
F0.75
S'beautiful'
p296
tp297
a(I133
I3
F0.375
S'new'
p298
tp299
as(S'features'
p300
tp301
(lp302
(I5
I1
I0
S'more'
p303
tp304
a(I18
I2
I0
S'great'
p305
tp306
a(I19
I0
I0
S'many'
p307
tp308
a(I64
I1
F1.0
S'good'
p309
tp310
a(I161
I2
I0
S'many'
p311
tp312
a(I173
I1
F1.0
S'good'
p313
tp314
as(S'smartphone'
p315
S'nternational'
p316
S'version'
p317
tp318
(lp319
(I131
I4
F-0.5
S'international'
p320
tp321
a(I156
I0
F-0.5
S'international'
p322
tp323
a(I156
I0
F0.125
g152
tp324
a(I190
I1
F-0.5
S'international'
p325
tp326
a(I194
I13
F-0.5
S'international'
p327
tp328
a(I197
I0
F-0.5
S'international'
p329
tp330
as(S'wifi'
p331
tp332
(lp333
(I176
I1
F0.125
S'able'
p334
tp335
as(S'galaxy'
p336
S'ace'
p337
S's5830'
p338
tp339
(lp340
(I108
I0
I0
S'galaxy'
p341
tp342
a(I131
I4
F0.75
g296
tp343
a(I156
I0
I0
S'galaxy'
p344
tp345
a(I194
I13
F-0.125
S'overall'
p346
tp347
as(S'unlocked'
p348
S'world'
p349
S'smartphone'
p350
tp351
(lp352
(I131
I4
F-0.5
g320
tp353
a(I156
I0
F-0.5
g322
tp354
a(I190
I1
F-0.5
g325
tp355
a(I194
I13
F-0.5
g327
tp356
a(I197
I0
F-0.5
g329
tp357
as(S'works'
p358
tp359
(lp360
(I68
I0
I0
S'great'
p361
tp362
a(I86
I0
F0.5
S'comparable'
p363
tp364
a(I104
I1
F-0.5
S'sure'
p365
tp366
a(I164
I8
F0.5
S'strong'
p367
tp368
a(I164
I8
I0
S'great'
p369
tp370
as(S'venezuela'
p371
tp372
(lp373
(I67
I0
I0
S'most'
p374
tp375
a(I159
I0
F0.5
S'live'
p376
tp377
as(S'excellent'
p378
tp379
(lp380
(I24
I0
F1.0
S'good'
p381
tp382
as(S'battery'
p383
tp384
(lp385
(I38
I1
F-0.25
S'low'
p386
tp387
a(I69
I4
F-0.5
g40
tp388
a(I75
I4
F-0.5
g44
tp389
a(I78
I2
F0.25
S'read'
p390
tp391
a(I91
I5
I0
S'full'
p392
tp393
a(I91
I5
I0
S'charged'
p394
tp395
a(I94
I1
F-0.5
g46
tp396
a(I146
I2
F-0.25
g50
tp397
a(I149
I4
F1.0
g52
tp398
a(I164
I4
F0.125
S'last'
p399
tp400
a(I164
I7
F-0.5
S'long'
p401
tp402
as(S'smart'
p403
tp404
(lp405
(I7
I2
I0
S'normal'
p406
tp407
a(I35
I1
F0.5
S'second'
p408
tp409
a(I119
I1
F0.125
S'first'
p410
tp411
a(I125
I7
I0
S'android'
p412
tp413
as(S'ace'
p414
S's5830'
p415
tp416
(lp417
(I108
I0
I0
g341
tp418
a(I156
I0
I0
g344
tp419
a(I194
I13
F-0.125
g346
tp420
as(S'software'
p421
tp422
(lp423
(I25
I1
I0
S'spanish'
p424
tp425
as(S'samsung'
p426
S'galaxy'
p427
tp428
(lp429
(I131
I4
F0.75
g296
tp430
as(S'cell'
p431
tp432
(lp433
(I29
I0
F-0.75
S'lost'
p434
tp435
a(I64
I0
F1.0
S'good'
p436
tp437
a(I73
I1
F0.375
S'new'
p438
tp439
a(I162
I11
F-0.25
S'inexpensive'
p440
tp441
a(I193
I0
I0
S'high'
p442
tp443
as(S'world'
p444
S'smartphone'
p445
tp446
(lp447
(I131
I4
F-0.5
g320
tp448
a(I156
I0
F-0.5
g322
tp449
a(I190
I1
F-0.5
g325
tp450
a(I194
I13
F-0.5
g327
tp451
a(I197
I0
F-0.5
g329
tp452
as(S'samsung'
p453
S'galaxy'
p454
S'ace'
p455
tp456
(lp457
(I108
I0
I0
g341
tp458
a(I131
I4
F0.75
g296
tp459
a(I156
I0
I0
g344
tp460
a(I194
I13
F-0.125
g346
tp461
as(S'came'
p462
tp463
(lp464
(I163
I2
F-0.125
S'mine'
p465
tp466
as(S'screen'
p467
tp468
(lp469
(I73
I6
F-0.375
S'black'
p470
tp471
a(I90
I1
F0.375
S'new'
p472
tp473
a(I90
I2
F0.5
S'clear'
p474
tp475
a(I90
I4
F-0.75
S'protect'
p476
tp477
a(I106
I0
F1.0
S'good'
p478
tp479
a(I131
I4
F0.5
g70
tp480
a(I148
I1
F1.0
S'good'
p481
tp482
a(I148
I1
I0
S'visual'
p483
tp484
a(I156
I0
F0.5
g72
tp485
a(I161
I1
I0
S'internet'
p486
tp487
a(I161
I1
F0.5
S'touch'
p488
tp489
a(I174
I2
F0.5
S'clear'
p490
tp491
a(I194
I13
F0.5
g74
tp492
a(I197
I0
F0.5
g76
tp493
a(I199
I1
F0.875
S'nice'
p494
tp495
as(S'time'
p496
tp497
(lp498
(I29
I0
F0.125
S'first'
p499
tp500
a(I50
I0
F0.125
S'first'
p501
tp502
a(I81
I0
F1.0
S'good'
p503
tp504
a(I81
I0
F-0.125
S'overall'
p505
tp506
as(S'fine'
p507
tp508
(lp509
(I61
I0
I0
S'overseas'
p510
tp511
as(S'smartphone'
p512
tp513
(lp514
(I131
I4
F-0.5
g320
tp515
a(I156
I0
F-0.5
g322
tp516
a(I175
I1
I0
S'signal'
p517
tp518
a(I190
I1
F-0.5
g325
tp519
a(I194
I13
F-0.5
g327
tp520
a(I197
I0
F-0.5
g329
tp521
as(S'card'
p522
tp523
(lp524
(I91
I4
I0
S'least'
p525
tp526
a(I91
I4
F0.25
S'read'
p527
tp528
a(I110
I5
F-0.625
S'other'
p529
tp530
as(S'n'
p531
S'venezuela'
p532
tp533
(lp534
(I67
I0
I0
g374
tp535
a(I159
I0
F0.5
g376
tp536
as(S'customer'
p537
S'service'
p538
tp539
(lp540
(I53
I7
F-0.5
g118
tp541
as(S'work'
p542
tp543
(lp544
(I19
I0
I0
S'great'
p545
tp546
as(S'apps'
p547
tp548
(lp549
(I13
I5
F-0.375
S'small'
p550
tp551
a(I13
I7
I0
S'most'
p552
tp553
a(I36
I0
I0
S'more'
p554
tp555
a(I44
I3
I0
S'few'
p556
tp557
a(I61
I1
F0.625
S'easy'
p558
tp559
a(I92
I1
I0
S'few'
p560
tp561
a(I92
I2
I0
S'many'
p562
tp563
a(I126
I1
F-0.625
S'free'
p564
tp565
a(I149
I4
F1.0
S'good'
p566
tp567
a(I149
I4
F0.625
S'easy'
p568
tp569
a(I177
I2
I0
S'critical'
p570
tp571
a(I185
I4
I0
S'many'
p572
tp573
a(I202
I0
F-0.75
S'difficult'
p574
tp575
a(I202
I0
F0.125
S'first'
p576
tp577
as(S'nternal'
p578
S'memory'
p579
tp580
(lp581
(I4
I0
I0
g234
tp582
a(I13
I4
I0
g236
tp583
a(I13
I6
I0
g238
tp584
a(I13
I7
I0
g18
tp585
a(I13
I7
I0
g20
tp586
a(I47
I0
I0
g243
tp587
a(I47
I0
I0
g245
tp588
a(I54
I2
F-0.25
g24
tp589
a(I54
I2
I0
g26
tp590
a(I75
I2
I0
g251
tp591
a(I75
I2
I0
g253
tp592
a(I75
I3
I0
g255
tp593
a(I75
I3
I0
g257
tp594
a(I92
I0
I0
g259
tp595
a(I110
I4
I0
g261
tp596
a(I110
I8
I0
g28
tp597
a(I151
I3
I0
g266
tp598
a(I185
I0
I0
g268
tp599
a(I185
I2
I0
g30
tp600
a(I185
I2
I0
g32
tp601
a(I199
I3
I0
g272
tp602
a(I199
I3
F0.625
g274
tp603
as(S'days'
p604
tp605
(lp606
(I23
I7
I0
S'more'
p607
tp608
a(I109
I0
I0
S'few'
p609
tp610
a(I109
I1
I0
S'few'
p611
tp612
a(I119
I1
F0.5
S'whole'
p613
tp614
as(S'touch'
p615
S'screen'
p616
tp617
(lp618
(I56
I0
F-0.125
g201
tp619
a(I131
I4
F0.5
g70
tp620
a(I156
I0
F0.5
g72
tp621
a(I161
I1
I0
g486
tp622
a(I161
I1
F0.5
g488
tp623
a(I191
I0
F1.0
g203
tp624
a(I194
I13
F0.5
g74
tp625
a(I197
I0
F0.5
g76
tp626
as(S'taking'
p627
S'pictures'
p628
tp629
(lp630
(I51
I3
F0.5
S'clear'
p631
tp632
as(S'galaxy'
p633
S'ace'
p634
tp635
(lp636
(I108
I0
I0
g341
tp637
a(I131
I4
F0.75
g296
tp638
a(I133
I3
F0.375
g298
tp639
a(I156
I0
I0
g344
tp640
a(I194
I13
F-0.125
g346
tp641
as.