(dp0
(S'something'
p1
tp2
(lp3
(I42
I16
I0
S'update'
p4
tp5
a(I48
I4
F0.375
S'new'
p6
tp7
a(I134
I170
F0.625
S'aware'
p8
tp9
a(I137
I8
F-0.875
S'hard'
p10
tp11
a(I165
I15
F-0.625
S'bad'
p12
tp13
as(S'a'
p14
S'spare'
p15
S'battery'
p16
tp17
(lp18
(I6
I2
F0.5
S'bought'
p19
tp20
a(I9
I13
F-0.625
S'glad'
p21
tp22
a(I9
I13
F0.375
S'available'
p23
tp24
as(S'droid'
p25
tp26
(lp27
(I10
I12
F0.25
S'original'
p28
tp29
a(I10
I12
F0.375
S'content'
p30
tp31
a(I19
I6
F0.125
S'first'
p32
tp33
a(I41
I5
I0
S'current'
p34
tp35
a(I46
I0
F0.25
S'original'
p36
tp37
a(I54
I5
F1.0
S'good'
p38
tp39
a(I134
I22
F0.875
S'happy'
p40
tp41
a(I140
I0
F0.375
S'new'
p42
tp43
a(I142
I4
I0
S'third'
p44
tp45
a(I142
I8
I0
S'old'
p46
tp47
a(I164
I5
F0.25
S'original'
p48
tp49
a(I171
I10
F0.125
S'last'
p50
tp51
as(S'8'
p52
S'megapixel'
p53
S'camera'
p54
tp55
(lp56
(I103
I0
F1.0
S'best'
p57
tp58
as(S'nice'
p59
tp60
(lp61
(I35
I2
I0
S'such'
p62
tp63
a(I35
I2
F0.625
S'easy'
p64
tp65
a(I156
I9
I0
S'only'
p66
tp67
as(S'reviews'
p68
tp69
(lp70
(I4
I8
F-0.625
S'other'
p71
tp72
a(I7
I1
I0
S'same'
p73
tp74
a(I7
I3
F1.0
S'good'
p75
tp76
a(I9
I11
F0.625
S'positive'
p77
tp78
a(I10
I34
F-0.625
S'other'
p79
tp80
a(I22
I7
I0
S'internet'
p81
tp82
a(I50
I0
F-0.875
S'negative'
p83
tp84
a(I53
I0
F-0.625
S'bad'
p85
tp86
a(I67
I2
F0.375
S'reliable'
p87
tp88
a(I67
I2
F-0.875
S'negative'
p89
tp90
a(I67
I4
F-0.875
S'negative'
p91
tp92
a(I71
I2
F-0.625
S'other'
p93
tp94
a(I73
I0
F0.125
S'plenty'
p95
tp96
a(I78
I1
I0
S'many'
p97
tp98
a(I78
I1
F-0.875
S'negative'
p99
tp100
a(I84
I10
F0.25
S'read'
p101
tp102
a(I99
I4
F-0.5
S'poor'
p103
tp104
a(I107
I0
F-0.625
S'bad'
p105
tp106
as(S'super'
p107
S'oled'
p108
S'plus'
p109
tp110
(lp111
(I59
I20
F-0.125
S'super'
p112
tp113
as(S'quality'
p114
tp115
(lp116
(I9
I6
F1.0
S'good'
p117
tp118
a(I10
I14
I0
S'great'
p119
tp120
a(I14
I25
I0
S'vocal'
p121
tp122
a(I32
I5
F1.0
S'good'
p123
tp124
a(I38
I19
I0
S'great'
p125
tp126
a(I43
I10
F-0.25
S'higher'
p127
tp128
a(I51
I2
F-0.125
S'overall'
p129
tp130
a(I65
I15
I0
S'great'
p131
tp132
a(I86
I5
F-0.5
S'poor'
p133
tp134
a(I86
I35
F-0.5
S'poor'
p135
tp136
a(I93
I7
F1.0
S'better'
p137
tp138
a(I111
I0
F-0.5
S'poor'
p139
tp140
a(I121
I6
F-0.125
S'mine'
p141
tp142
a(I130
I28
F-0.75
S'sufficient'
p143
tp144
a(I134
I35
F1.0
S'good'
p145
tp146
a(I137
I1
F-0.5
S'poor'
p147
tp148
a(I138
I2
F1.0
S'good'
p149
tp150
a(I138
I2
F1.0
S'better'
p151
tp152
a(I142
I3
F0.875
S'important'
p153
tp154
as(S'verizon'
p155
tp156
(lp157
(I0
I0
I0
S'most'
p158
tp159
a(I1
I1
I0
S'local'
p160
tp161
a(I1
I11
F0.125
S'able'
p162
tp163
a(I10
I41
F0.625
S'positive'
p164
tp165
a(I11
I4
I0
S'faster'
p166
tp167
a(I11
I22
F-0.25
S'cheaper'
p168
tp169
a(I11
I34
I0
S'faster'
p170
tp171
a(I14
I22
I0
S'local'
p172
tp173
a(I22
I6
F0.5
S'patient'
p174
tp175
a(I30
I0
I0
S'forth'
p176
tp177
a(I41
I10
F0.625
S'aware'
p178
tp179
a(I42
I9
I0
S'few'
p180
tp181
a(I42
I9
I0
S'own'
p182
tp183
a(I42
I19
I0
S'ballistic'
p184
tp185
a(I56
I5
F-0.625
S'other'
p186
tp187
a(I64
I8
F-0.625
S'other'
p188
tp189
a(I76
I2
F0.5
S'true'
p190
tp191
a(I78
I1
F-0.375
S'nearest'
p192
tp193
a(I88
I0
F-0.625
S'other'
p194
tp195
a(I95
I1
F0.875
S'happy'
p196
tp197
a(I121
I8
I0
S'signal'
p198
tp199
a(I130
I26
I0
S'close'
p200
tp201
a(I134
I169
F-0.625
S'other'
p202
tp203
a(I134
I179
F0.5
S'willing'
p204
tp205
a(I141
I14
I0
S'inconsistent'
p206
tp207
a(I150
I0
I0
S'local'
p208
tp209
as(S'samsung'
p210
S'droid'
p211
tp212
(lp213
(I41
I7
F-0.625
S'other'
p214
tp215
a(I134
I22
F0.875
g40
tp216
a(I171
I9
F0.375
S'new'
p217
tp218
as(S'and'
p219
S'battery'
p220
S'life'
p221
tp222
(lp223
(I2
I4
F-0.875
S'awful'
p224
tp225
a(I5
I5
F1.0
S'better'
p226
tp227
a(I10
I11
F-0.625
S'other'
p228
tp229
a(I10
I12
F1.0
S'better'
p230
tp231
a(I10
I55
F-0.625
S'other'
p232
tp233
a(I11
I42
I0
S'real'
p234
tp235
a(I19
I2
F1.0
S'good'
p236
tp237
a(I19
I10
I0
S'adequate'
p238
tp239
a(I25
I1
F0.375
S'extended'
p240
tp241
a(I28
I8
F-0.5
S'long'
p242
tp243
a(I28
I8
F1.0
S'better'
p244
tp245
a(I31
I0
F1.0
S'good'
p246
tp247
a(I33
I14
F1.0
S'better'
p248
tp249
a(I38
I14
I0
S'great'
p250
tp251
a(I42
I1
F1.0
S'good'
p252
tp253
a(I50
I3
I0
S'efficient'
p254
tp255
a(I50
I3
F0.25
S'larger'
p256
tp257
a(I50
I9
F1.0
S'better'
p258
tp259
a(I53
I0
F1.0
S'good'
p260
tp261
a(I53
I0
F0.375
S'much'
p262
tp263
a(I53
I0
F0.375
S'extra'
p264
tp265
a(I54
I24
I0
S'great'
p266
tp267
a(I71
I18
F0.625
S'acceptable'
p268
tp269
a(I71
I18
F-0.5
S'sure'
p270
tp271
a(I73
I17
F0.375
S'extra'
p272
tp273
a(I76
I1
F1.0
S'good'
p274
tp275
a(I87
I10
F1.0
S'good'
p276
tp277
a(I88
I1
F-0.875
S'awful'
p278
tp279
a(I93
I2
F1.0
S'best'
p280
tp281
a(I104
I3
F-0.5
S'poor'
p282
tp283
a(I123
I9
F-0.75
S'bright'
p284
tp285
a(I123
I19
F-0.5
S'less'
p286
tp287
a(I124
I0
F-0.25
S'battery'
p288
tp289
a(I124
I5
F-0.75
S'dry'
p290
tp291
a(I134
I220
F-0.375
S'bug'
p292
tp293
a(I134
I220
F-0.625
S'free'
p294
tp295
a(I134
I220
F1.0
S'good'
p296
tp297
a(I134
I220
I0
S'least'
p298
tp299
a(I134
I242
F-0.375
S'simple'
p300
tp301
a(I142
I6
F-0.625
S'unreal'
p302
tp303
a(I142
I6
F0.25
S'larger'
p304
tp305
a(I148
I1
F-0.625
S'bad'
p306
tp307
a(I148
I1
I0
S'great'
p308
tp309
a(I152
I20
F0.375
S'early'
p310
tp311
a(I152
I20
F1.0
S'better'
p312
tp313
a(I170
I1
F1.0
S'good'
p314
tp315
a(I171
I1
F-0.5
S'poor'
p316
tp317
a(I171
I12
F0.5
S'reasonable'
p318
tp319
as(S'samsung'
p320
S'charge'
p321
tp322
(lp323
(I26
I0
F0.125
S'first'
p324
tp325
a(I41
I7
F-0.625
g214
tp326
a(I73
I17
F-0.5
S'open'
p327
tp328
a(I80
I3
I0
S'different'
p329
tp330
a(I141
I17
F-0.25
S'google'
p331
tp332
a(I171
I9
F0.375
g217
tp333
as(S'software'
p334
tp335
(lp336
(I10
I11
F-0.625
S'other'
p337
tp338
a(I66
I4
I0
S'many'
p339
tp340
a(I104
I3
I0
S'old'
p341
tp342
a(I104
I4
I0
S'old'
p343
tp344
a(I104
I5
I0
S'old'
p345
tp346
a(I139
I3
I0
S'next'
p347
tp348
a(I141
I13
F-0.875
S'worst'
p349
tp350
a(I169
I3
F-0.625
S'bad'
p351
tp352
as(S'droid'
p353
S'charge'
p354
tp355
(lp356
(I10
I12
F0.25
g28
tp357
a(I10
I12
F0.375
g30
tp358
a(I24
I0
I0
S'only'
p359
tp360
a(I41
I4
I0
S'android'
p361
tp362
a(I41
I5
I0
g34
tp363
a(I41
I22
I0
S'android'
p364
tp365
a(I63
I0
I0
S'incredible'
p366
tp367
a(I73
I17
F-0.5
g327
tp368
a(I80
I3
I0
g329
tp369
a(I91
I4
I0
S'more'
p370
tp371
a(I94
I8
I0
S'incredible'
p372
tp373
a(I94
I10
I0
S'incredible'
p374
tp375
a(I126
I3
F-0.5
S'heavier'
p376
tp377
a(I134
I22
F0.875
g40
tp378
a(I140
I0
F0.375
g42
tp379
a(I142
I8
I0
g46
tp380
a(I153
I2
F0.125
S'able'
p381
tp382
a(I164
I5
F0.25
g48
tp383
as(S'charge'
p384
tp385
(lp386
(I0
I2
I0
S'robotic'
p387
tp388
a(I10
I45
I0
S'quick'
p389
tp390
a(I14
I7
I0
S'identical'
p391
tp392
a(I14
I14
I0
S'many'
p393
tp394
a(I14
I23
I0
S'such'
p395
tp396
a(I14
I34
F-0.5
S'sure'
p397
tp398
a(I14
I34
F0.875
S'happy'
p399
tp400
a(I24
I0
I0
g359
tp401
a(I41
I4
I0
g361
tp402
a(I41
I22
I0
g364
tp403
a(I63
I0
I0
g366
tp404
a(I73
I17
F-0.5
g327
tp405
a(I74
I11
I0
S'same'
p406
tp407
a(I80
I3
I0
g329
tp408
a(I84
I4
F0.625
S'superior'
p409
tp410
a(I91
I4
I0
g370
tp411
a(I94
I8
I0
g372
tp412
a(I94
I10
I0
g374
tp413
a(I95
I4
I0
S'common'
p414
tp415
a(I95
I5
I0
S'full'
p416
tp417
a(I98
I28
F0.5
S'second'
p418
tp419
a(I98
I28
F0.125
S'first'
p420
tp421
a(I98
I28
F-0.75
S'worse'
p422
tp423
a(I101
I0
F0.125
S'first'
p424
tp425
a(I101
I0
I0
S'own'
p426
tp427
a(I101
I1
F0.5
S'second'
p428
tp429
a(I113
I10
F-0.625
S'bad'
p430
tp431
a(I116
I22
F0.5
S'careful'
p432
tp433
a(I116
I27
F0.125
S'last'
p434
tp435
a(I126
I3
F-0.5
g376
tp436
a(I132
I2
F0.5
S'second'
p437
tp438
a(I134
I179
F0.375
S'new'
p439
tp440
a(I136
I4
F-0.75
S'single'
p441
tp442
a(I138
I0
F0.875
S'nice'
p443
tp444
a(I138
I17
F1.0
S'good'
p445
tp446
a(I141
I17
F-0.25
g331
tp447
a(I145
I7
I0
S'full'
p448
tp449
a(I153
I2
F0.125
g381
tp450
a(I154
I18
F0.375
S'extended'
p451
tp452
a(I154
I18
I0
S'internal'
p453
tp454
a(I154
I18
F0.25
S'bigger'
p455
tp456
a(I154
I25
F0.5
S'live'
p457
tp458
a(I159
I3
I0
S'least'
p459
tp460
as(S'on'
p461
S'samsung'
p462
S'droid'
p463
tp464
(lp465
(I41
I7
F-0.625
g214
tp466
a(I171
I9
F0.375
g217
tp467
as(S'1'
p468
S'battery'
p469
S'life'
p470
tp471
(lp472
(I5
I5
F1.0
g226
tp473
a(I10
I55
F-0.625
g232
tp474
a(I11
I42
I0
g234
tp475
a(I25
I1
F0.375
g240
tp476
a(I28
I8
F-0.5
g242
tp477
a(I28
I8
F1.0
g244
tp478
a(I50
I9
F1.0
g258
tp479
a(I93
I2
F1.0
g280
tp480
a(I124
I5
F-0.75
g290
tp481
a(I148
I1
F-0.625
g306
tp482
a(I148
I1
I0
g308
tp483
a(I152
I20
F0.375
g310
tp484
a(I152
I20
F1.0
g312
tp485
a(I171
I1
F-0.5
g316
tp486
as(S'with'
p487
S'battery'
p488
S'life'
p489
tp490
(lp491
(I11
I42
I0
g234
tp492
a(I25
I1
F0.375
g240
tp493
a(I28
I8
F-0.5
g242
tp494
a(I28
I8
F1.0
g244
tp495
a(I31
I0
F1.0
g246
tp496
a(I38
I14
I0
g250
tp497
a(I50
I3
I0
g254
tp498
a(I50
I3
F0.25
g256
tp499
a(I53
I0
F1.0
g260
tp500
a(I53
I0
F0.375
g262
tp501
a(I53
I0
F0.375
g264
tp502
a(I54
I24
I0
g266
tp503
a(I64
I1
F1.0
S'good'
p504
tp505
a(I68
I0
I0
S'more'
p506
tp507
a(I71
I18
F0.625
g268
tp508
a(I71
I18
F-0.5
g270
tp509
a(I72
I15
I0
S'same'
p510
tp511
a(I104
I3
F-0.5
g282
tp512
a(I123
I9
F-0.75
g284
tp513
a(I123
I19
F-0.5
g286
tp514
a(I124
I12
I0
S'adequate'
p515
tp516
a(I131
I1
I0
S'great'
p517
tp518
a(I134
I220
F-0.375
g292
tp519
a(I134
I220
F-0.625
g294
tp520
a(I134
I220
F1.0
g296
tp521
a(I134
I220
I0
g298
tp522
a(I158
I11
F0.5
S'comparable'
p523
tp524
a(I171
I1
F-0.5
g316
tp525
as(S'easy'
p526
S'to'
p527
S'use'
p528
tp529
(lp530
(I94
I8
F-0.625
S'moderate'
p531
tp532
a(I94
I8
F-0.5
S'heavy'
p533
tp534
as(S'good'
p535
tp536
(lp537
(I134
I2
F-0.625
S'bad'
p538
tp539
as(S'unlimited'
p540
S'data'
p541
S'plan'
p542
tp543
(lp544
(I64
I7
F-0.5
S'unlimited'
p545
tp546
a(I160
I13
F0.125
S'able'
p547
tp548
as(S'call'
p549
S'quality'
p550
tp551
(lp552
(I9
I6
F1.0
g117
tp553
a(I10
I14
I0
S'same'
p554
tp555
a(I10
I14
I0
g119
tp556
a(I16
I2
F-0.625
S'bad'
p557
tp558
a(I38
I19
I0
g125
tp559
a(I65
I15
I0
g131
tp560
a(I84
I9
F0.125
S'first'
p561
tp562
a(I94
I4
F-0.25
S'low'
p563
tp564
a(I111
I0
F-0.5
g139
tp565
a(I130
I28
F-0.75
g143
tp566
a(I134
I35
F1.0
g145
tp567
a(I138
I2
F1.0
g149
tp568
a(I138
I2
F1.0
g151
tp569
a(I142
I3
F0.875
g153
tp570
a(I159
I8
F0.25
S'responsive'
p571
tp572
a(I159
I8
F1.0
S'good'
p573
tp574
as(S'sometimes'
p575
tp576
(lp577
(I16
I13
F-0.75
S'dark'
p578
tp579
as(S'fast'
p580
tp581
(lp582
(I11
I34
I0
S'least'
p583
tp584
a(I118
I8
F1.0
S'good'
p585
tp586
a(I164
I6
F-0.125
S'super'
p587
tp588
as(S'times'
p589
tp590
(lp591
(I17
I7
I0
S'fast'
p592
tp593
a(I17
I7
I0
S'faster'
p594
tp595
a(I21
I5
F-0.5
S'unavailable'
p596
tp597
a(I49
I16
I0
S'few'
p598
tp599
a(I49
I16
F0.125
S'last'
p600
tp601
a(I56
I10
I0
S'many'
p602
tp603
a(I57
I7
I0
S'least'
p604
tp605
a(I65
I4
F-0.25
S'past'
p606
tp607
a(I83
I3
I0
S'few'
p608
tp609
a(I84
I13
F1.0
S'better'
p610
tp611
a(I106
I4
I0
S'few'
p612
tp613
a(I107
I3
I0
S'few'
p614
tp615
a(I111
I0
F0.75
S'due'
p616
tp617
a(I138
I15
F-0.875
S'awful'
p618
tp619
a(I143
I10
I0
S'many'
p620
tp621
as(S'problem'
p622
tp623
(lp624
(I8
I3
I0
S'big'
p625
tp626
a(I10
I53
I0
S'only'
p627
tp628
a(I24
I4
F0.875
S'happy'
p629
tp630
a(I36
I1
F-0.125
S'overall'
p631
tp632
a(I36
I1
I0
S'user'
p633
tp634
a(I71
I25
I0
S'next'
p635
tp636
a(I86
I10
F0.25
S'biggest'
p637
tp638
a(I94
I4
I0
S'such'
p639
tp640
a(I117
I3
I0
S'big'
p641
tp642
a(I129
I4
I0
S'same'
p643
tp644
a(I134
I54
F-0.625
S'other'
p645
tp646
a(I134
I54
F0.5
S'odd'
p647
tp648
a(I134
I102
F0.5
S'second'
p649
tp650
a(I145
I7
I0
S'big'
p651
tp652
a(I164
I13
F0.375
S'much'
p653
tp654
a(I168
I5
I0
S'big'
p655
tp656
as(g14
S'dual'
p657
S'core'
p658
tp659
(lp660
(I18
I2
F-0.875
S'bother'
p661
tp662
a(I118
I8
F1.0
S'good'
p663
tp664
a(I160
I16
F-0.75
S'single'
p665
tp666
as(S'email'
p667
tp668
(lp669
(I116
I29
I0
S'standard'
p670
tp671
a(I133
I2
F0.875
S'nice'
p672
tp673
a(I134
I16
I0
S'own'
p674
tp675
a(I134
I131
I0
S'included'
p676
tp677
a(I152
I9
I0
S'corporate'
p678
tp679
a(I170
I9
I0
S'phenomenal'
p680
tp681
as(S'poor'
p682
S'battery'
p683
S'life'
p684
tp685
(lp686
(I54
I4
F-0.5
S'poor'
p687
tp688
a(I104
I3
F-0.5
g282
tp689
a(I171
I1
F-0.5
g316
tp690
as(S'verizon'
p691
S'4g'
p692
S'lte'
p693
tp694
(lp695
(I137
I1
I0
S'least'
p696
tp697
a(I137
I1
F-0.625
S'other'
p698
tp699
as(S'price'
p700
tp701
(lp702
(I10
I42
I0
S'same'
p703
tp704
a(I27
I18
I0
S'retail'
p705
tp706
a(I27
I18
F0.5
S'rid'
p707
tp708
a(I28
I10
I0
S'current'
p709
tp710
a(I55
I4
F0.75
S'worth'
p711
tp712
a(I71
I30
I0
S'discounted'
p713
tp714
a(I84
I11
F-0.375
S'small'
p715
tp716
a(I115
I3
F0.375
S'much'
p717
tp718
a(I134
I191
F0.125
S'first'
p719
tp720
a(I142
I8
I0
S'high'
p721
tp722
a(I145
I0
I0
S'great'
p723
tp724
a(I146
I5
I0
S'great'
p725
tp726
a(I156
I8
I0
S'full'
p727
tp728
as(S'service'
p729
tp730
(lp731
(I10
I43
I0
S'more'
p732
tp733
a(I10
I57
I0
S'great'
p734
tp735
a(I21
I14
F-0.25
S'cheaper'
p736
tp737
a(I62
I0
F-0.625
S'glad'
p738
tp739
a(I71
I29
I0
S'fast'
p740
tp741
a(I71
I29
I0
S'efficient'
p742
tp743
a(I74
I2
F0.375
S'available'
p744
tp745
a(I74
I3
F0.375
S'reliable'
p746
tp747
a(I143
I7
F0.875
S'lucky'
p748
tp749
a(I153
I13
F0.375
S'confident'
p750
tp751
a(I159
I7
F-0.625
S'other'
p752
tp753
as(S'getting'
p754
tp755
(lp756
(I130
I4
F0.75
S'worth'
p757
tp758
a(I165
I37
I0
S'high'
p759
tp760
as(S'need'
p761
tp762
(lp763
(I134
I232
F-0.5
S'sure'
p764
tp765
as(g14
S'verizon'
p766
S'store'
p767
tp768
(lp769
(I1
I1
I0
g160
tp770
a(I9
I25
F-0.75
S'comfortable'
p771
tp772
a(I14
I22
I0
g172
tp773
a(I78
I1
F-0.375
g192
tp774
a(I99
I2
I0
S'more'
p775
tp776
a(I134
I236
F1.0
S'best'
p777
tp778
a(I135
I1
I0
S'latest'
p779
tp780
a(I150
I0
I0
g208
tp781
as(S'right'
p782
tp783
(lp784
(I18
I3
I0
S'android'
p785
tp786
a(I72
I5
F0.5
S'touch'
p787
tp788
a(I92
I4
F-0.375
S'top'
p789
tp790
as(S'times'
p791
g14
S'day'
p792
tp793
(lp794
(I48
I5
F0.125
S'first'
p795
tp796
a(I57
I7
I0
g604
tp797
a(I83
I3
I0
g608
tp798
a(I107
I3
I0
g614
tp799
a(I111
I0
F0.75
g616
tp800
a(I111
I0
F0.75
S'due'
p801
tp802
as(S'about'
p803
S'battery'
p804
S'life'
p805
tp806
(lp807
(I14
I13
F0.625
S'superior'
p808
tp809
a(I19
I10
I0
g238
tp810
a(I47
I2
F-0.25
S'legitimate'
p811
tp812
a(I53
I0
F1.0
g260
tp813
a(I53
I0
F0.375
g262
tp814
a(I53
I0
F0.375
g264
tp815
a(I63
I3
F0.625
S'fair'
p816
tp817
as(S'power'
p818
tp819
(lp820
(I10
I11
F-0.25
S'lower'
p821
tp822
a(I10
I12
I0
S'more'
p823
tp824
a(I10
I12
I0
S'such'
p825
tp826
a(I18
I2
I0
S'more'
p827
tp828
a(I33
I11
I0
S'more'
p829
tp830
a(I33
I12
I0
S'fast'
p831
tp832
a(I34
I29
F0.25
S'portable'
p833
tp834
a(I72
I16
F-0.5
S'regular'
p835
tp836
a(I72
I26
F-0.75
S'comfortable'
p837
tp838
a(I134
I227
I0
S'ample'
p839
tp840
a(I165
I19
F-0.75
S'little'
p841
tp842
a(I165
I39
I0
S'more'
p843
tp844
as(S'single'
p845
S'core'
p846
S'processor'
p847
tp848
(lp849
(I10
I51
F-0.75
S'single'
p850
tp851
a(I17
I3
F-0.75
S'single'
p852
tp853
a(I37
I9
F-0.75
S'single'
p854
tp855
a(I50
I1
F1.0
S'best'
p856
tp857
a(I50
I1
F-0.75
S'single'
p858
tp859
a(I71
I2
F-0.75
S'single'
p860
tp861
a(I160
I16
F-0.75
g665
tp862
a(I160
I16
F1.0
S'love'
p863
tp864
as(S'an'
p865
S'extended'
p866
S'battery'
p867
tp868
(lp869
(I25
I1
F0.375
g240
tp870
a(I34
I29
F0.375
S'extended'
p871
tp872
a(I73
I17
F0.375
g272
tp873
a(I74
I9
F0.375
S'extended'
p874
tp875
a(I92
I18
F0.375
S'extended'
p876
tp877
a(I93
I9
F0.375
S'extended'
p878
tp879
a(I93
I17
F0.375
S'extended'
p880
tp881
a(I122
I2
F0.375
S'extended'
p882
tp883
a(I134
I232
F0.375
S'extended'
p884
tp885
a(I138
I14
F0.375
S'extended'
p886
tp887
a(I154
I18
I0
S'external'
p888
tp889
as(S'android'
p890
tp891
(lp892
(I10
I15
F0.25
S'original'
p893
tp894
a(I10
I19
F0.25
S'recent'
p895
tp896
a(I10
I34
F-0.625
S'lighter'
p897
tp898
a(I10
I34
F0.25
S'original'
p899
tp900
a(I15
I0
F-0.625
S'free'
p901
tp902
a(I35
I1
F1.0
S'best'
p903
tp904
a(I126
I6
F1.0
S'better'
p905
tp906
a(I126
I9
F0.375
S'new'
p907
tp908
a(I166
I8
F-0.875
S'awful'
p909
tp910
as(S'to'
p911
S'home'
p912
S'screen'
p913
tp914
(lp915
(I106
I2
F0.375
S'extra'
p916
tp917
as(S'of'
p918
S'update'
p919
S'update'
p920
tp921
(lp922
(I41
I4
I0
S'next'
p923
tp924
a(I134
I100
I0
S'least'
p925
tp926
a(I134
I123
F0.125
S'last'
p927
tp928
a(I134
I130
I0
S'final'
p929
tp930
a(I134
I164
F-0.75
S'likely'
p931
tp932
a(I139
I3
F1.0
S'better'
p933
tp934
as(S'thing'
p935
tp936
(lp937
(I0
I6
I0
S'android'
p938
tp939
a(I1
I7
F-0.75
S'difficult'
p940
tp941
a(I22
I10
F0.125
S'first'
p942
tp943
a(I46
I1
I0
S'only'
p944
tp945
a(I48
I11
F0.625
S'convenient'
p946
tp947
a(I48
I23
F-0.5
S'sure'
p948
tp949
a(I63
I1
F0.125
S'first'
p950
tp951
a(I65
I4
F-0.625
S'other'
p952
tp953
a(I65
I4
F-0.125
S'slow'
p954
tp955
a(I68
I17
F-0.125
S'slow'
p956
tp957
a(I86
I34
F1.0
S'good'
p958
tp959
a(I89
I2
F0.625
S'kind'
p960
tp961
a(I93
I17
I0
S'next'
p962
tp963
a(I93
I17
I0
S'big'
p964
tp965
a(I96
I5
I0
S'same'
p966
tp967
a(I106
I0
F0.125
S'first'
p968
tp969
a(I106
I0
I0
S'third'
p970
tp971
a(I126
I5
F-0.625
S'other'
p972
tp973
a(I134
I7
F1.0
S'good'
p974
tp975
a(I134
I44
I0
S'same'
p976
tp977
a(I158
I13
I0
S'only'
p978
tp979
a(I164
I11
F-0.75
S'little'
p980
tp981
a(I171
I8
F1.0
S'good'
p982
tp983
as(S'area'
p984
tp985
(lp986
(I14
I26
F0.5
S'strong'
p987
tp988
a(I19
I7
F0.375
S'available'
p989
tp990
a(I53
I0
F-0.625
S'bad'
p991
tp992
a(I145
I6
I0
S'same'
p993
tp994
a(I156
I3
I0
S'signal'
p995
tp996
a(I168
I13
F0.125
S'enough'
p997
tp998
as(S'better'
p999
S'battery'
p1000
S'life'
p1001
tp1002
(lp1003
(I5
I5
F1.0
g226
tp1004
a(I10
I12
F1.0
g230
tp1005
a(I25
I1
F0.375
g240
tp1006
a(I28
I8
F-0.5
g242
tp1007
a(I28
I8
F1.0
g244
tp1008
a(I33
I14
F1.0
g248
tp1009
a(I34
I23
F1.0
S'better'
p1010
tp1011
a(I42
I3
F1.0
S'better'
p1012
tp1013
a(I47
I2
F-0.25
g811
tp1014
a(I50
I9
F1.0
g258
tp1015
a(I88
I0
F1.0
S'better'
p1016
tp1017
a(I105
I2
F0.375
S'much'
p1018
tp1019
a(I137
I1
F-0.125
S'overall'
p1020
tp1021
a(I152
I20
F0.375
g310
tp1022
a(I152
I20
F1.0
g312
tp1023
as(S'data'
p1024
tp1025
(lp1026
(I5
I5
I0
S'signal'
p1027
tp1028
a(I14
I33
F-0.5
S'less'
p1029
tp1030
a(I21
I8
F0.375
S'reliable'
p1031
tp1032
a(I21
I10
F-0.75
S'unreliable'
p1033
tp1034
a(I41
I13
F-0.5
S'lose'
p1035
tp1036
a(I41
I15
F-0.5
S'sure'
p1037
tp1038
a(I41
I17
F0.5
S'possible'
p1039
tp1040
a(I49
I12
F0.125
S'able'
p1041
tp1042
a(I64
I7
F-0.5
g545
tp1043
a(I72
I12
I0
S'mobile'
p1044
tp1045
a(I72
I15
I0
S'mobile'
p1046
tp1047
a(I74
I10
I0
S'few'
p1048
tp1049
a(I86
I1
I0
S'fast'
p1050
tp1051
a(I93
I14
I0
S'mobile'
p1052
tp1053
a(I124
I6
I0
S'mobile'
p1054
tp1055
a(I124
I13
I0
S'mobile'
p1056
tp1057
a(I141
I24
F0.375
S'confident'
p1058
tp1059
a(I141
I26
F0.25
S'familiar'
p1060
tp1061
a(I160
I13
F0.125
g547
tp1062
as(S'network'
p1063
tp1064
(lp1065
(I18
I5
F1.0
S'good'
p1066
tp1067
a(I21
I10
F-0.5
S'unavailable'
p1068
tp1069
a(I21
I10
I0
S'protracted'
p1070
tp1071
a(I27
I9
I0
S'faster'
p1072
tp1073
a(I50
I8
I0
S'entire'
p1074
tp1075
as(S'and'
p1076
S'call'
p1077
S'quality'
p1078
tp1079
(lp1080
(I9
I6
F1.0
g117
tp1081
a(I10
I14
I0
g554
tp1082
a(I10
I14
I0
g119
tp1083
a(I16
I2
F-0.625
g557
tp1084
a(I65
I15
I0
g131
tp1085
a(I84
I9
F0.125
g561
tp1086
a(I111
I0
F-0.5
g139
tp1087
a(I130
I28
F-0.75
g143
tp1088
a(I134
I35
F1.0
g145
tp1089
a(I138
I2
F1.0
g149
tp1090
a(I138
I2
F1.0
g151
tp1091
a(I159
I8
F0.25
g571
tp1092
a(I159
I8
F1.0
g573
tp1093
as(S'work'
p1094
tp1095
(lp1096
(I41
I13
F0.625
S'aware'
p1097
tp1098
a(I158
I14
F1.0
S'good'
p1099
tp1100
as(g14
S'4g'
p1101
S'area'
p1102
tp1103
(lp1104
(I14
I26
F0.5
g987
tp1105
a(I19
I7
F0.375
g989
tp1106
a(I53
I0
F-0.625
g991
tp1107
a(I168
I13
F0.125
g997
tp1108
as(S'battery'
p1109
S'life'
p1110
tp1111
(lp1112
(I2
I4
F-0.875
g224
tp1113
a(I5
I5
F1.0
g226
tp1114
a(I9
I11
I0
S'great'
p1115
tp1116
a(I10
I11
F-0.625
g228
tp1117
a(I10
I12
F1.0
g230
tp1118
a(I10
I55
F-0.625
g232
tp1119
a(I11
I1
I0
S'great'
p1120
tp1121
a(I11
I42
I0
g234
tp1122
a(I14
I13
F0.625
g808
tp1123
a(I17
I2
F0.125
S'solid'
p1124
tp1125
a(I19
I2
F1.0
g236
tp1126
a(I19
I10
I0
g238
tp1127
a(I25
I1
F0.375
g240
tp1128
a(I28
I8
F-0.5
g242
tp1129
a(I28
I8
F1.0
g244
tp1130
a(I29
I1
F-0.625
S'unbearable'
p1131
tp1132
a(I31
I0
F1.0
g246
tp1133
a(I33
I14
F1.0
g248
tp1134
a(I34
I23
F1.0
g1010
tp1135
a(I38
I14
I0
g250
tp1136
a(I39
I0
F-0.875
S'awful'
p1137
tp1138
a(I42
I1
F1.0
g252
tp1139
a(I42
I3
F1.0
g1012
tp1140
a(I47
I2
F-0.25
g811
tp1141
a(I50
I3
I0
g254
tp1142
a(I50
I3
F0.25
g256
tp1143
a(I50
I9
F1.0
g258
tp1144
a(I53
I0
F1.0
g260
tp1145
a(I53
I0
F0.375
g262
tp1146
a(I53
I0
F0.375
g264
tp1147
a(I54
I4
F-0.5
g687
tp1148
a(I54
I24
I0
g266
tp1149
a(I55
I10
I0
S'great'
p1150
tp1151
a(I63
I3
F0.625
g816
tp1152
a(I64
I1
F1.0
g504
tp1153
a(I68
I0
I0
g506
tp1154
a(I71
I18
F0.625
g268
tp1155
a(I71
I18
F-0.5
g270
tp1156
a(I72
I15
I0
g510
tp1157
a(I73
I17
F0.375
g272
tp1158
a(I76
I1
F1.0
g274
tp1159
a(I86
I34
F-0.5
S'less'
p1160
tp1161
a(I87
I10
F1.0
g276
tp1162
a(I88
I0
F1.0
g1016
tp1163
a(I88
I1
F-0.875
g278
tp1164
a(I92
I17
F1.0
S'good'
p1165
tp1166
a(I93
I2
F1.0
g280
tp1167
a(I93
I18
F-0.625
S'bad'
p1168
tp1169
a(I97
I2
F-0.875
S'awful'
p1170
tp1171
a(I104
I3
F-0.5
g282
tp1172
a(I122
I2
F0.375
g882
tp1173
a(I123
I9
F-0.75
g284
tp1174
a(I123
I19
F-0.5
g286
tp1175
a(I124
I0
F-0.25
g288
tp1176
a(I124
I5
F-0.75
g290
tp1177
a(I124
I12
I0
g515
tp1178
a(I131
I1
I0
g517
tp1179
a(I134
I176
F0.875
S'important'
p1180
tp1181
a(I134
I220
F-0.375
g292
tp1182
a(I134
I220
F-0.625
g294
tp1183
a(I134
I220
F1.0
g296
tp1184
a(I134
I220
I0
g298
tp1185
a(I134
I242
F-0.375
g300
tp1186
a(I142
I6
F-0.625
g302
tp1187
a(I142
I6
F0.25
g304
tp1188
a(I148
I1
F-0.625
g306
tp1189
a(I148
I1
I0
g308
tp1190
a(I152
I20
F0.375
g310
tp1191
a(I152
I20
F1.0
g312
tp1192
a(I158
I11
F0.5
g523
tp1193
a(I161
I1
F-0.625
S'bad'
p1194
tp1195
a(I166
I3
F-0.875
S'awful'
p1196
tp1197
a(I170
I1
F1.0
g314
tp1198
a(I171
I1
F-0.5
g316
tp1199
a(I171
I3
I0
S'least'
p1200
tp1201
a(I171
I12
F0.5
g318
tp1202
as(S'samsung'
p1203
S'droid'
p1204
S'charge'
p1205
tp1206
(lp1207
(I41
I7
F-0.625
g214
tp1208
a(I73
I17
F-0.5
g327
tp1209
a(I80
I3
I0
g329
tp1210
a(I134
I22
F0.875
g40
tp1211
a(I171
I9
F0.375
g217
tp1212
as(S'verizon'
p1213
S'tech'
p1214
S'support'
p1215
tp1216
(lp1217
(I134
I98
I0
S'tech'
p1218
tp1219
a(I134
I183
F0.875
S'nice'
p1220
tp1221
a(I134
I183
F0.25
S'helpful'
p1222
tp1223
as(S'problems'
p1224
tp1225
(lp1226
(I26
I22
F-0.375
S'smooth'
p1227
tp1228
a(I26
I22
I0
S'few'
p1229
tp1230
a(I29
I4
I0
S'same'
p1231
tp1232
a(I42
I17
F0.375
S'new'
p1233
tp1234
a(I42
I17
I0
S'own'
p1235
tp1236
a(I44
I0
I0
S'cool'
p1237
tp1238
a(I45
I3
I0
S'same'
p1239
tp1240
a(I49
I7
I0
S'many'
p1241
tp1242
a(I49
I10
I0
S'many'
p1243
tp1244
a(I54
I24
F-0.5
S'less'
p1245
tp1246
a(I57
I1
I0
S'same'
p1247
tp1248
a(I77
I12
F0.375
S'similar'
p1249
tp1250
a(I112
I4
F-0.625
S'other'
p1251
tp1252
a(I125
I8
I0
S'same'
p1253
tp1254
a(I131
I1
F-0.375
S'serious'
p1255
tp1256
a(I134
I33
F0.625
S'noticeable'
p1257
tp1258
a(I134
I48
I0
S'later'
p1259
tp1260
a(I134
I113
F0.125
S'first'
p1261
tp1262
a(I134
I113
I0
S'real'
p1263
tp1264
a(I134
I222
F-0.75
S'little'
p1265
tp1266
a(I158
I0
I0
S'same'
p1267
tp1268
a(I158
I8
I0
S'same'
p1269
tp1270
a(I164
I0
F-0.625
S'other'
p1271
tp1272
as(S'back'
p1273
tp1274
(lp1275
(I11
I37
F0.375
S'new'
p1276
tp1277
a(I126
I3
F0.25
S'bigger'
p1278
tp1279
as(S'life'
p1280
tp1281
(lp1282
(I2
I4
F-0.875
g224
tp1283
a(I9
I11
I0
g1115
tp1284
a(I10
I11
F-0.625
g228
tp1285
a(I10
I55
F-0.625
g232
tp1286
a(I11
I42
I0
g234
tp1287
a(I17
I2
F0.125
g1124
tp1288
a(I19
I2
F1.0
g236
tp1289
a(I38
I14
I0
g250
tp1290
a(I39
I0
F-0.875
g1137
tp1291
a(I47
I2
F-0.25
g811
tp1292
a(I53
I0
F1.0
g260
tp1293
a(I53
I0
F0.375
g262
tp1294
a(I54
I4
F-0.5
g687
tp1295
a(I54
I24
I0
g266
tp1296
a(I63
I3
F0.625
g816
tp1297
a(I68
I0
I0
g506
tp1298
a(I71
I18
F0.625
g268
tp1299
a(I71
I18
F-0.5
g270
tp1300
a(I87
I10
F1.0
g276
tp1301
a(I88
I1
F-0.875
g278
tp1302
a(I92
I17
F1.0
g1165
tp1303
a(I97
I2
F-0.875
g1170
tp1304
a(I123
I9
F-0.75
g284
tp1305
a(I123
I19
F-0.5
g286
tp1306
a(I124
I0
F-0.25
g288
tp1307
a(I124
I12
I0
g515
tp1308
a(I131
I1
I0
g517
tp1309
a(I134
I220
I0
g298
tp1310
a(I142
I6
F-0.625
g302
tp1311
a(I148
I1
I0
g308
tp1312
a(I158
I11
F0.5
g523
tp1313
a(I161
I1
F-0.625
g1194
tp1314
a(I166
I3
F-0.875
g1196
tp1315
a(I170
I1
F1.0
g314
tp1316
as(S'thunderbolt'
p1317
tp1318
(lp1319
(I5
I5
F-0.75
S'worse'
p1320
tp1321
a(I14
I18
I0
S'signal'
p1322
tp1323
a(I14
I18
I0
S'next'
p1324
tp1325
a(I14
I19
F0.125
S'capable'
p1326
tp1327
a(I14
I24
F0.375
S'loudest'
p1328
tp1329
a(I14
I25
F-0.125
S'present'
p1330
tp1331
a(I14
I28
I0
S'least'
p1332
tp1333
a(I34
I23
F-0.625
S'bad'
p1334
tp1335
a(I34
I23
F-0.75
S'worse'
p1336
tp1337
a(I60
I3
F0.125
S'last'
p1338
tp1339
a(I73
I16
F0.625
S'acceptable'
p1340
tp1341
a(I130
I1
I0
S'only'
p1342
tp1343
a(I154
I27
I0
S'least'
p1344
tp1345
a(I158
I6
I0
S'bionic'
p1346
tp1347
as(S'had'
p1348
S'droid'
p1349
S'charge'
p1350
tp1351
(lp1352
(I10
I12
F0.25
g28
tp1353
a(I10
I12
F0.375
g30
tp1354
as(S'good'
p1355
S'battery'
p1356
S'life'
p1357
tp1358
(lp1359
(I2
I4
F-0.875
g224
tp1360
a(I19
I2
F1.0
g236
tp1361
a(I31
I0
F1.0
g246
tp1362
a(I42
I1
F1.0
g252
tp1363
a(I53
I0
F1.0
g260
tp1364
a(I53
I0
F0.375
g262
tp1365
a(I53
I0
F0.375
g264
tp1366
a(I64
I1
F1.0
g504
tp1367
a(I68
I0
I0
g506
tp1368
a(I76
I1
F1.0
g274
tp1369
a(I86
I34
F-0.5
g1160
tp1370
a(I87
I10
F1.0
g276
tp1371
a(I92
I17
F1.0
g1165
tp1372
a(I123
I19
F-0.5
g286
tp1373
a(I134
I220
F-0.375
g292
tp1374
a(I134
I220
F-0.625
g294
tp1375
a(I134
I220
F1.0
g296
tp1376
a(I134
I220
I0
g298
tp1377
a(I170
I1
F1.0
g314
tp1378
a(I171
I12
F0.5
g318
tp1379
as(S'dual'
p1380
S'core'
p1381
tp1382
(lp1383
(I18
I2
F-0.875
g661
tp1384
a(I118
I8
F1.0
g663
tp1385
a(I160
I16
F-0.75
g665
tp1386
as(g14
S'full'
p1387
S'day'
p1388
tp1389
(lp1390
(I8
I7
I0
S'full'
p1391
tp1392
a(I11
I29
I0
S'full'
p1393
tp1394
a(I37
I7
I0
S'full'
p1395
tp1396
a(I42
I4
I0
S'full'
p1397
tp1398
a(I42
I7
I0
S'full'
p1399
tp1400
a(I65
I2
I0
S'full'
p1401
tp1402
a(I115
I1
I0
S'full'
p1403
tp1404
a(I134
I28
F0.125
S'first'
p1405
tp1406
a(I134
I28
I0
S'full'
p1407
tp1408
a(I134
I28
I0
S'entire'
p1409
tp1410
a(I152
I20
I0
S'full'
p1411
tp1412
a(I152
I20
F0.5
S'second'
p1413
tp1414
as(S'n'
p1415
S'r'
p1416
S'pocket'
p1417
tp1418
(lp1419
(I84
I13
F0.125
S'practical'
p1420
tp1421
as(S'display'
p1422
tp1423
(lp1424
(I5
I1
F0.75
S'beautiful'
p1425
tp1426
a(I5
I1
F-0.75
S'bright'
p1427
tp1428
a(I9
I1
F0.125
S'first'
p1429
tp1430
a(I9
I1
F0.75
S'beautiful'
p1431
tp1432
a(I10
I7
F0.625
S'easy'
p1433
tp1434
a(I10
I63
F0.125
S'popular'
p1435
tp1436
a(I17
I0
F0.875
S'nice'
p1437
tp1438
a(I17
I0
I0
S'quick'
p1439
tp1440
a(I38
I10
F-0.75
S'bright'
p1441
tp1442
a(I38
I10
F0.125
S'colorful'
p1443
tp1444
a(I38
I10
F0.625
S'easy'
p1445
tp1446
a(I42
I0
F1.0
S'good'
p1447
tp1448
a(I42
I0
F0.5
S'true'
p1449
tp1450
a(I42
I7
F0.875
S'nice'
p1451
tp1452
a(I59
I1
F0.75
S'beautiful'
p1453
tp1454
a(I59
I19
I0
S'outweigh'
p1455
tp1456
a(I71
I11
F1.0
S'best'
p1457
tp1458
a(I71
I29
I0
S'least'
p1459
tp1460
a(I71
I29
F1.0
S'good'
p1461
tp1462
a(I73
I4
F1.0
S'good'
p1463
tp1464
a(I74
I2
F0.875
S'nice'
p1465
tp1466
a(I115
I0
I0
S'horizontal'
p1467
tp1468
a(I116
I28
F0.375
S'standby'
p1469
tp1470
a(I142
I2
F0.75
S'beautiful'
p1471
tp1472
a(I142
I2
I0
S'fast'
p1473
tp1474
a(I152
I12
F0.875
S'nice'
p1475
tp1476
a(I152
I19
I0
S'great'
p1477
tp1478
as(S'battery'
p1479
tp1480
(lp1481
(I4
I4
F0.5
S'told'
p1482
tp1483
a(I5
I5
F1.0
g226
tp1484
a(I6
I3
F1.0
S'better'
p1485
tp1486
a(I7
I1
F1.0
S'good'
p1487
tp1488
a(I8
I4
F-0.25
S'low'
p1489
tp1490
a(I9
I13
F-0.625
g21
tp1491
a(I9
I13
F0.375
g23
tp1492
a(I10
I12
F1.0
g230
tp1493
a(I11
I1
I0
g1120
tp1494
a(I11
I19
I0
S'more'
p1495
tp1496
a(I11
I36
F0.625
S'cover'
p1497
tp1498
a(I14
I13
F0.625
g808
tp1499
a(I19
I10
I0
g238
tp1500
a(I22
I9
F0.625
S'replaceable'
p1501
tp1502
a(I24
I1
F0.5
S'true'
p1503
tp1504
a(I24
I1
I0
S'bionic'
p1505
tp1506
a(I24
I1
F1.0
S'better'
p1507
tp1508
a(I25
I1
F0.375
g240
tp1509
a(I28
I6
F-0.125
S'minimum'
p1510
tp1511
a(I28
I8
F-0.5
g242
tp1512
a(I28
I8
F1.0
g244
tp1513
a(I29
I1
F-0.625
g1131
tp1514
a(I31
I0
F1.0
g246
tp1515
a(I32
I13
F0.375
S'flash'
p1516
tp1517
a(I33
I14
F1.0
g248
tp1518
a(I34
I23
F1.0
g1010
tp1519
a(I34
I29
F0.375
g871
tp1520
a(I34
I30
F-0.625
S'bad'
p1521
tp1522
a(I37
I7
F1.0
S'good'
p1523
tp1524
a(I41
I10
F-0.625
S'other'
p1525
tp1526
a(I41
I15
F-0.625
S'bad'
p1527
tp1528
a(I42
I1
F1.0
g252
tp1529
a(I42
I3
F1.0
g1012
tp1530
a(I48
I6
I0
S'ran'
p1531
tp1532
a(I48
I11
F0.375
S'much'
p1533
tp1534
a(I48
I16
F0.125
S'last'
p1535
tp1536
a(I50
I3
I0
g254
tp1537
a(I50
I3
F0.25
g256
tp1538
a(I50
I9
F1.0
g258
tp1539
a(I53
I0
F0.375
g264
tp1540
a(I54
I6
F-0.5
S'less'
p1541
tp1542
a(I55
I10
I0
g1150
tp1543
a(I59
I13
F0.375
S'new'
p1544
tp1545
a(I59
I17
F0.375
S'extra'
p1546
tp1547
a(I64
I1
F1.0
g504
tp1548
a(I65
I4
F-0.75
S'little'
p1549
tp1550
a(I65
I4
F0.25
S'portable'
p1551
tp1552
a(I65
I4
I0
S'external'
p1553
tp1554
a(I65
I6
F0.5
S'second'
p1555
tp1556
a(I68
I5
F-0.25
S'low'
p1557
tp1558
a(I68
I12
F-0.25
S'low'
p1559
tp1560
a(I68
I13
F-0.625
S'bad'
p1561
tp1562
a(I72
I15
I0
g510
tp1563
a(I73
I17
F0.375
g272
tp1564
a(I74
I8
I0
S'standard'
p1565
tp1566
a(I74
I9
F0.375
g874
tp1567
a(I76
I1
F1.0
g274
tp1568
a(I79
I1
F0.375
S'extra'
p1569
tp1570
a(I85
I1
F0.75
S'give'
p1571
tp1572
a(I85
I1
F0.375
S'new'
p1573
tp1574
a(I86
I34
F-0.5
g1160
tp1575
a(I88
I0
F1.0
g1016
tp1576
a(I92
I18
F0.375
g876
tp1577
a(I93
I2
F1.0
g280
tp1578
a(I93
I9
F0.375
g878
tp1579
a(I93
I17
F0.375
g880
tp1580
a(I93
I18
F-0.625
g1168
tp1581
a(I97
I1
F0.125
S'last'
p1582
tp1583
a(I98
I19
F-0.25
S'anemic'
p1584
tp1585
a(I100
I13
F1.0
S'better'
p1586
tp1587
a(I102
I1
F0.125
S'last'
p1588
tp1589
a(I104
I3
F-0.5
g282
tp1590
a(I115
I1
I0
S'same'
p1591
tp1592
a(I115
I1
I0
S'standard'
p1593
tp1594
a(I117
I2
I0
S'more'
p1595
tp1596
a(I122
I2
F0.375
g882
tp1597
a(I123
I16
F1.0
S'better'
p1598
tp1599
a(I123
I21
I0
S'more'
p1600
tp1601
a(I124
I5
F-0.75
g290
tp1602
a(I124
I16
F0.375
S'extra'
p1603
tp1604
a(I124
I16
I0
S'charged'
p1605
tp1606
a(I126
I2
F-0.75
S'likely'
p1607
tp1608
a(I126
I2
F0.125
S'further'
p1609
tp1610
a(I130
I19
F0.5
S'second'
p1611
tp1612
a(I134
I45
F-0.25
S'low'
p1613
tp1614
a(I134
I176
F0.875
g1180
tp1615
a(I134
I220
F-0.375
g292
tp1616
a(I134
I220
F-0.625
g294
tp1617
a(I134
I220
F1.0
g296
tp1618
a(I134
I232
F0.375
g884
tp1619
a(I134
I242
F-0.375
g300
tp1620
a(I138
I4
F0.125
S'first'
p1621
tp1622
a(I138
I4
F-0.875
S'awful'
p1623
tp1624
a(I138
I7
I0
S'full'
p1625
tp1626
a(I138
I14
F0.375
g886
tp1627
a(I142
I6
F0.25
g304
tp1628
a(I143
I6
I0
S'great'
p1629
tp1630
a(I148
I1
F-0.625
g306
tp1631
a(I152
I20
F0.375
g310
tp1632
a(I152
I20
F1.0
g312
tp1633
a(I153
I7
F0.375
S'remember'
p1634
tp1635
a(I154
I12
F0.5
S'second'
p1636
tp1637
a(I154
I14
I0
S'external'
p1638
tp1639
a(I154
I15
I0
S'internal'
p1640
tp1641
a(I154
I18
I0
g888
tp1642
a(I164
I6
F0.25
S'larger'
p1643
tp1644
a(I168
I26
F-0.375
S'top'
p1645
tp1646
a(I171
I1
F-0.5
g316
tp1647
a(I171
I2
F0.5
S'second'
p1648
tp1649
a(I171
I2
I0
S'more'
p1650
tp1651
a(I171
I2
F0.25
S'responsive'
p1652
tp1653
a(I171
I2
I0
S'such'
p1654
tp1655
a(I171
I3
I0
g1200
tp1656
a(I171
I5
I0
S'same'
p1657
tp1658
a(I171
I12
F0.5
g318
tp1659
as(S'calls'
p1660
tp1661
(lp1662
(I62
I0
I0
S'many'
p1663
tp1664
a(I71
I26
F0.75
S'receive'
p1665
tp1666
a(I105
I10
I0
S'least'
p1667
tp1668
a(I105
I10
F-0.25
S'past'
p1669
tp1670
a(I114
I5
I0
S'more'
p1671
tp1672
a(I123
I19
F0.875
S'music'
p1673
tp1674
a(I123
I19
F1.0
S'good'
p1675
tp1676
a(I129
I2
I0
S'most'
p1677
tp1678
a(I134
I82
F0.125
S'last'
p1679
tp1680
a(I142
I3
F0.125
S'able'
p1681
tp1682
a(I142
I3
F0.5
S'clear'
p1683
tp1684
a(I155
I1
I0
S'most'
p1685
tp1686
as(S'update'
p1687
tp1688
(lp1689
(I41
I4
I0
g923
tp1690
a(I81
I20
I0
S'latest'
p1691
tp1692
a(I123
I25
I0
S'more'
p1693
tp1694
a(I134
I100
I0
g925
tp1695
a(I134
I123
F0.125
g927
tp1696
a(I134
I126
F0.375
S'new'
p1697
tp1698
a(I134
I130
I0
g929
tp1699
a(I134
I164
F-0.75
g931
tp1700
a(I134
I180
I0
S'big'
p1701
tp1702
a(I134
I199
I0
S'own'
p1703
tp1704
a(I139
I3
F1.0
g933
tp1705
as(g14
S'car'
p1706
S'charger'
p1707
tp1708
(lp1709
(I82
I4
F0.375
S'extra'
p1710
tp1711
a(I115
I2
F0.375
S'extra'
p1712
tp1713
a(I160
I10
F-0.625
S'free'
p1714
tp1715
a(I168
I11
F1.0
S'good'
p1716
tp1717
as(S'dual'
p1718
S'core'
p1719
S'processor'
p1720
tp1721
(lp1722
(I160
I16
F-0.75
g665
tp1723
a(I160
I16
F1.0
g863
tp1724
as(S'pretty'
p1725
tp1726
(lp1727
(I146
I2
F1.0
S'good'
p1728
tp1729
as(S'time'
p1730
tp1731
(lp1732
(I5
I5
F-0.125
S'mine'
p1733
tp1734
a(I10
I0
I0
S'most'
p1735
tp1736
a(I11
I33
I0
S'most'
p1737
tp1738
a(I56
I2
F-0.625
S'other'
p1739
tp1740
a(I59
I18
I0
S'trade-off'
p1741
tp1742
a(I60
I5
I0
S'only'
p1743
tp1744
a(I65
I7
F-0.75
S'single'
p1745
tp1746
a(I72
I12
F-0.5
S'long'
p1747
tp1748
a(I74
I23
F0.5
S'second'
p1749
tp1750
a(I86
I35
F-0.875
S'worst'
p1751
tp1752
a(I94
I0
I0
S'same'
p1753
tp1754
a(I107
I3
F0.125
S'last'
p1755
tp1756
a(I121
I10
F-0.125
S'mine'
p1757
tp1758
a(I121
I10
F-0.5
S'long'
p1759
tp1760
a(I134
I14
I0
S'included'
p1761
tp1762
a(I134
I14
I0
S'tutorial'
p1763
tp1764
a(I134
I73
F0.375
S'much'
p1765
tp1766
a(I134
I86
I0
S'third'
p1767
tp1768
a(I138
I19
F-0.875
S'hard'
p1769
tp1770
a(I154
I23
I0
S'same'
p1771
tp1772
a(I154
I23
F0.375
S'prime'
p1773
tp1774
a(I160
I16
I0
S'same'
p1775
tp1776
a(I164
I2
F-0.5
S'long'
p1777
tp1778
a(I164
I9
F-0.125
S'mine'
p1779
tp1780
a(I164
I9
I0
S'most'
p1781
tp1782
a(I165
I31
F0.125
S'first'
p1783
tp1784
as(S'verizon'
p1785
S'store'
p1786
tp1787
(lp1788
(I1
I1
I0
g160
tp1789
a(I9
I25
F-0.75
g771
tp1790
a(I14
I22
I0
g172
tp1791
a(I78
I1
F-0.375
g192
tp1792
a(I99
I2
I0
g775
tp1793
a(I134
I236
F1.0
g777
tp1794
a(I135
I1
I0
g779
tp1795
a(I150
I0
I0
g208
tp1796
as(S'months'
p1797
tp1798
(lp1799
(I1
I4
F-0.625
S'other'
p1800
tp1801
a(I2
I4
I0
S'later'
p1802
tp1803
a(I13
I5
I0
S'few'
p1804
tp1805
a(I49
I7
I0
S'great'
p1806
tp1807
a(I49
I7
F0.125
S'first'
p1808
tp1809
a(I49
I7
I0
S'few'
p1810
tp1811
a(I49
I11
I0
S'few'
p1812
tp1813
a(I71
I2
F-0.25
S'past'
p1814
tp1815
a(I80
I5
I0
S'few'
p1816
tp1817
a(I86
I41
I0
S'update'
p1818
tp1819
a(I95
I13
I0
S'old'
p1820
tp1821
a(I107
I1
I0
S'few'
p1822
tp1823
a(I119
I0
F-0.25
S'disappointed'
p1824
tp1825
a(I120
I1
F0.125
S'last'
p1826
tp1827
a(I123
I1
F0.75
S'due'
p1828
tp1829
a(I130
I7
I0
S'few'
p1830
tp1831
a(I130
I7
F0.5
S'obvious'
p1832
tp1833
a(I130
I23
I0
S'update'
p1834
tp1835
a(I134
I226
I0
S'few'
p1836
tp1837
a(I141
I3
I0
S'later'
p1838
tp1839
a(I164
I22
F-0.5
S'sure'
p1840
tp1841
a(I166
I6
F-0.25
S'past'
p1842
tp1843
as(S'4g'
p1844
S'lte'
p1845
tp1846
(lp1847
(I137
I1
I0
g696
tp1848
a(I137
I1
F-0.625
g698
tp1849
a(I162
I2
F0.375
S'new'
p1850
tp1851
as(S'motorola'
p1852
S'droid'
p1853
tp1854
(lp1855
(I49
I0
F0.25
S'original'
p1856
tp1857
a(I54
I1
I0
S'old'
p1858
tp1859
a(I54
I1
F0.25
S'original'
p1860
tp1861
a(I54
I5
F0.375
S'similar'
p1862
tp1863
a(I54
I5
I0
S'old'
p1864
tp1865
a(I54
I5
F1.0
g38
tp1866
a(I65
I6
I0
S'old'
p1867
tp1868
a(I65
I6
F0.25
S'original'
p1869
tp1870
a(I127
I0
F0.25
S'original'
p1871
tp1872
a(I164
I0
F0.25
S'original'
p1873
tp1874
as(S'better'
p1875
S'battery'
p1876
tp1877
(lp1878
(I5
I5
F1.0
g226
tp1879
a(I6
I3
F1.0
g1485
tp1880
a(I10
I12
F1.0
g230
tp1881
a(I24
I1
F0.5
g1503
tp1882
a(I24
I1
I0
g1505
tp1883
a(I24
I1
F1.0
g1507
tp1884
a(I25
I1
F0.375
g240
tp1885
a(I28
I8
F-0.5
g242
tp1886
a(I28
I8
F1.0
g244
tp1887
a(I33
I14
F1.0
g248
tp1888
a(I34
I23
F1.0
g1010
tp1889
a(I42
I3
F1.0
g1012
tp1890
a(I50
I9
F1.0
g258
tp1891
a(I88
I0
F1.0
g1016
tp1892
a(I100
I13
F1.0
g1586
tp1893
a(I102
I1
F0.125
g1588
tp1894
a(I105
I2
F0.375
g1018
tp1895
a(I123
I16
F1.0
g1598
tp1896
a(I137
I1
F-0.125
g1020
tp1897
a(I152
I20
F0.375
g310
tp1898
a(I152
I20
F1.0
g312
tp1899
as(S'to'
p1900
S'save'
p1901
S'battery'
p1902
tp1903
(lp1904
(I93
I18
F-0.625
g1168
tp1905
a(I115
I1
I0
g1591
tp1906
a(I115
I1
I0
g1593
tp1907
as(S'screen'
p1908
tp1909
(lp1910
(I5
I1
I0
S'big'
p1911
tp1912
a(I10
I16
F-0.25
S'past'
p1913
tp1914
a(I10
I16
F0.5
S'touch'
p1915
tp1916
a(I15
I2
F0.75
S'beautiful'
p1917
tp1918
a(I16
I2
F0.75
S'beautiful'
p1919
tp1920
a(I16
I7
I0
S'fast'
p1921
tp1922
a(I16
I13
F-0.75
S'bright'
p1923
tp1924
a(I18
I0
F1.0
S'best'
p1925
tp1926
a(I19
I10
F0.75
S'beautiful'
p1927
tp1928
a(I24
I2
I0
S'great'
p1929
tp1930
a(I32
I2
F-0.75
S'bright'
p1931
tp1932
a(I41
I15
F0.75
S'beautiful'
p1933
tp1934
a(I42
I3
F-0.75
S'short'
p1935
tp1936
a(I46
I3
I0
S'large'
p1937
tp1938
a(I46
I3
F-0.625
S'free'
p1939
tp1940
a(I48
I0
F0.25
S'larger'
p1941
tp1942
a(I55
I16
I0
S'great'
p1943
tp1944
a(I60
I10
F1.0
S'best'
p1945
tp1946
a(I60
I10
F0.375
S'available'
p1947
tp1948
a(I63
I3
F0.5
S'touch'
p1949
tp1950
a(I63
I4
F0.5
S'touch'
p1951
tp1952
a(I64
I4
I0
S'large'
p1953
tp1954
a(I65
I15
F0.75
S'beautiful'
p1955
tp1956
a(I66
I6
F0.875
S'nice'
p1957
tp1958
a(I68
I3
F0.75
S'beautiful'
p1959
tp1960
a(I68
I14
I0
S'big'
p1961
tp1962
a(I71
I10
F0.75
S'beautiful'
p1963
tp1964
a(I72
I2
F-0.75
S'bright'
p1965
tp1966
a(I72
I5
F-0.375
S'small'
p1967
tp1968
a(I72
I10
I0
S'real'
p1969
tp1970
a(I73
I13
I0
S'different'
p1971
tp1972
a(I73
I14
F0.125
S'able'
p1973
tp1974
a(I73
I14
F0.25
S'main'
p1975
tp1976
a(I73
I15
F-0.75
S'off'
p1977
tp1978
a(I74
I25
F-0.75
S'unresponsive'
p1979
tp1980
a(I76
I1
F0.75
S'beautiful'
p1981
tp1982
a(I77
I0
F0.25
S'bigger'
p1983
tp1984
a(I81
I11
F-0.875
S'negative'
p1985
tp1986
a(I82
I2
F-0.125
S'overall'
p1987
tp1988
a(I84
I7
F0.75
S'beautiful'
p1989
tp1990
a(I84
I11
I0
S'big'
p1991
tp1992
a(I86
I2
I0
S'great'
p1993
tp1994
a(I86
I16
I0
S'big'
p1995
tp1996
a(I92
I15
F0.875
S'nice'
p1997
tp1998
a(I95
I7
F0.125
S'impressive'
p1999
tp2000
a(I96
I4
F-0.375
S'black'
p2001
tp2002
a(I100
I3
F0.5
S'clear'
p2003
tp2004
a(I101
I1
I0
S'great'
p2005
tp2006
a(I106
I2
F0.375
g916
tp2007
a(I112
I5
I0
S'least'
p2008
tp2009
a(I117
I0
I0
S'great'
p2010
tp2011
a(I118
I3
F-0.875
S'awful'
p2012
tp2013
a(I118
I4
I0
S'next'
p2014
tp2015
a(I118
I4
F0.75
S'beautiful'
p2016
tp2017
a(I118
I5
I0
S'same'
p2018
tp2019
a(I123
I18
F-0.75
S'wrong'
p2020
tp2021
a(I134
I4
F0.5
S'touch'
p2022
tp2023
a(I134
I4
F-0.75
S'bright'
p2024
tp2025
a(I134
I6
I0
S'big'
p2026
tp2027
a(I135
I12
F-0.375
S'black'
p2028
tp2029
a(I137
I0
I0
S'large'
p2030
tp2031
a(I137
I1
F-0.375
S'black'
p2032
tp2033
a(I138
I15
F1.0
S'good'
p2034
tp2035
a(I141
I15
F0.375
S'interesting'
p2036
tp2037
a(I147
I4
I0
S'great'
p2038
tp2039
a(I149
I2
F0.75
S'beautiful'
p2040
tp2041
a(I151
I1
F0.75
S'beautiful'
p2042
tp2043
a(I154
I26
F1.0
S'better'
p2044
tp2045
a(I154
I26
I0
S'ergonomic'
p2046
tp2047
a(I160
I16
F0.5
S'touch'
p2048
tp2049
a(I164
I6
I0
S'faster'
p2050
tp2051
a(I164
I6
I0
S'large'
p2052
tp2053
a(I165
I6
F1.0
S'best'
p2054
tp2055
a(I165
I19
F0.625
S'led'
p2056
tp2057
a(I165
I19
I0
S'such'
p2058
tp2059
a(I168
I4
F0.25
S'larger'
p2060
tp2061
a(I168
I7
F0.25
S'larger'
p2062
tp2063
as(S'everything'
p2064
tp2065
(lp2066
(I14
I21
F0.5
S'tolerant'
p2067
tp2068
a(I22
I14
I0
S'cool'
p2069
tp2070
a(I59
I3
F1.0
S'good'
p2071
tp2072
a(I63
I3
I0
S'most'
p2073
tp2074
a(I81
I1
F0.125
S'able'
p2075
tp2076
a(I81
I6
F-0.375
S'static'
p2077
tp2078
a(I81
I6
I0
S'great'
p2079
tp2080
a(I100
I2
F0.625
S'perfect'
p2081
tp2082
a(I100
I5
I0
S'fast'
p2083
tp2084
a(I147
I12
F-0.375
S'top'
p2085
tp2086
a(I153
I10
F-0.5
S'sure'
p2087
tp2088
as(S'samsung'
p2089
tp2090
(lp2091
(I15
I4
F1.0
S'good'
p2092
tp2093
a(I15
I4
F0.625
S'easy'
p2094
tp2095
a(I26
I0
F0.125
g324
tp2096
a(I32
I9
I0
S'chose'
p2097
tp2098
a(I37
I12
I0
S'bionic'
p2099
tp2100
a(I37
I12
F0.375
S'new'
p2101
tp2102
a(I41
I7
F-0.625
g214
tp2103
a(I119
I8
F0.5
S'second'
p2104
tp2105
a(I120
I2
F0.625
S'aware'
p2106
tp2107
a(I126
I2
F0.25
S'larger'
p2108
tp2109
a(I126
I2
F-0.5
S'heavier'
p2110
tp2111
a(I134
I99
I0
S'update'
p2112
tp2113
a(I134
I241
I0
S'included'
p2114
tp2115
a(I138
I9
F-0.375
S'serious'
p2116
tp2117
a(I171
I9
F0.375
g217
tp2118
as(S'camera'
p2119
tp2120
(lp2121
(I10
I21
F0.25
S'professional'
p2122
tp2123
a(I11
I41
F1.0
S'good'
p2124
tp2125
a(I15
I2
I0
S'great'
p2126
tp2127
a(I22
I22
I0
S'cool'
p2128
tp2129
a(I37
I8
F1.0
S'good'
p2130
tp2131
a(I49
I0
F0.125
S'first'
p2132
tp2133
a(I74
I21
F0.5
S'so-so'
p2134
tp2135
a(I99
I9
I0
S'great'
p2136
tp2137
a(I104
I3
F0.375
S'available'
p2138
tp2139
a(I118
I5
I0
S'same'
p2140
tp2141
a(I121
I5
I0
S'great'
p2142
tp2143
a(I170
I3
I0
S'real'
p2144
tp2145
as(S'using'
p2146
tp2147
(lp2148
(I11
I5
F-0.375
S'avoid'
p2149
tp2150
as(S'bluetooth'
p2151
tp2152
(lp2153
(I96
I3
F-0.625
S'other'
p2154
tp2155
a(I137
I1
I0
S'own'
p2156
tp2157
as(S'super'
p2158
S'oled'
p2159
S'screen'
p2160
tp2161
(lp2162
(I32
I2
F-0.75
g1931
tp2163
a(I55
I15
F1.0
S'best'
p2164
tp2165
a(I137
I0
I0
g2030
tp2166
a(I137
I1
F-0.375
g2032
tp2167
a(I165
I6
F1.0
g2054
tp2168
as(S'from'
p2169
S'android'
p2170
S'market'
p2171
tp2172
(lp2173
(I16
I9
I0
S'android'
p2174
tp2175
a(I134
I18
I0
S'android'
p2176
tp2177
a(I134
I137
I0
S'android'
p2178
tp2179
a(I134
I217
I0
S'android'
p2180
tp2181
a(I159
I5
I0
S'android'
p2182
tp2183
as(S'hours'
p2184
tp2185
(lp2186
(I5
I3
F-0.625
S'moderate'
p2187
tp2188
a(I11
I17
I0
S'least'
p2189
tp2190
a(I18
I2
I0
S'fast'
p2191
tp2192
a(I18
I2
I0
S'stable'
p2193
tp2194
a(I18
I2
F0.125
S'last'
p2195
tp2196
a(I28
I6
F-0.625
S'average'
p2197
tp2198
a(I33
I1
F0.125
S'last'
p2199
tp2200
a(I33
I1
I0
S'more'
p2201
tp2202
a(I33
I1
I0
S'few'
p2203
tp2204
a(I33
I3
F0.875
S'lucky'
p2205
tp2206
a(I74
I8
I0
S'more'
p2207
tp2208
a(I87
I6
F0.875
S'lucky'
p2209
tp2210
a(I97
I1
I0
S'few'
p2211
tp2212
a(I97
I1
I0
S'few'
p2213
tp2214
a(I98
I19
F-0.25
S'handle'
p2215
tp2216
a(I102
I1
I0
S'more'
p2217
tp2218
a(I102
I1
I0
S'normal'
p2219
tp2220
a(I129
I0
I0
S'many'
p2221
tp2222
a(I129
I3
I0
S'few'
p2223
tp2224
a(I130
I14
F-0.5
S'less'
p2225
tp2226
a(I138
I4
F-0.5
S'less'
p2227
tp2228
a(I145
I7
F0.125
S'last'
p2229
tp2230
a(I145
I7
F-0.75
S'little'
p2231
tp2232
as(S'people'
p2233
tp2234
(lp2235
(I0
I2
F-0.875
S'hard'
p2236
tp2237
a(I14
I0
I0
S'least'
p2238
tp2239
a(I26
I24
F-0.625
S'other'
p2240
tp2241
a(I28
I8
F0.625
S'interested'
p2242
tp2243
a(I50
I4
F-0.625
S'bad'
p2244
tp2245
a(I50
I4
F0.625
S'easy'
p2246
tp2247
a(I58
I0
F-0.5
S'sudden'
p2248
tp2249
a(I134
I227
I0
S'most'
p2250
tp2251
a(I147
I11
F-0.75
S'stupid'
p2252
tp2253
a(I164
I22
I0
S'most'
p2254
tp2255
a(I171
I6
I0
S'many'
p2256
tp2257
as(S'works'
p2258
tp2259
(lp2260
(I51
I0
F1.0
S'good'
p2261
tp2262
a(I93
I13
I0
S'great'
p2263
tp2264
a(I100
I4
I0
S'great'
p2265
tp2266
a(I100
I8
I0
S'great'
p2267
tp2268
a(I126
I0
I0
S'great'
p2269
tp2270
a(I134
I178
I0
S'great'
p2271
tp2272
as(S'think'
p2273
tp2274
(lp2275
(I50
I6
F1.0
S'best'
p2276
tp2277
as(g14
S'big'
p2278
S'deal'
p2279
tp2280
(lp2281
(I48
I21
I0
S'big'
p2282
tp2283
a(I55
I8
I0
S'big'
p2284
tp2285
a(I89
I0
I0
S'big'
p2286
tp2287
a(I95
I3
I0
S'big'
p2288
tp2289
a(I119
I18
I0
S'big'
p2290
tp2291
a(I134
I38
I0
S'big'
p2292
tp2293
a(I134
I92
I0
S'big'
p2294
tp2295
as(S'better'
p2296
tp2297
(lp2298
(I71
I17
F0.375
S'much'
p2299
tp2300
a(I93
I15
F0.375
S'much'
p2301
tp2302
a(I105
I2
F0.375
g1018
tp2303
a(I125
I6
I0
S'functioned'
p2304
tp2305
a(I137
I1
F-0.125
g1020
tp2306
a(I143
I9
F-0.75
S'bright'
p2307
tp2308
a(I147
I2
F0.375
S'much'
p2309
tp2310
a(I160
I6
F0.375
S'much'
p2311
tp2312
as(S'oled'
p2313
S'plus'
p2314
S'display'
p2315
tp2316
(lp2317
(I59
I1
F0.75
g1453
tp2318
a(I59
I20
F-0.125
g112
tp2319
as(S'device'
p2320
tp2321
(lp2322
(I1
I6
F0.375
S'new'
p2323
tp2324
a(I10
I5
I0
S'mobile'
p2325
tp2326
a(I10
I57
F0.125
S'enough'
p2327
tp2328
a(I19
I10
F0.875
S'nice'
p2329
tp2330
a(I60
I0
I0
S'great'
p2331
tp2332
a(I72
I1
I0
S'android'
p2333
tp2334
a(I103
I0
I0
S'mobile'
p2335
tp2336
a(I138
I8
F0.25
S'effective'
p2337
tp2338
a(I141
I25
F0.125
S'first'
p2339
tp2340
a(I149
I0
F0.125
S'solid'
p2341
tp2342
a(I149
I10
F-0.75
S'wrong'
p2343
tp2344
as(S'home'
p2345
tp2346
(lp2347
(I16
I7
I0
S'faster'
p2348
tp2349
a(I43
I8
I0
S'faster'
p2350
tp2351
a(I55
I4
I0
S'faster'
p2352
tp2353
a(I72
I12
I0
S'physical'
p2354
tp2355
a(I72
I12
F0.125
S'key'
p2356
tp2357
a(I134
I138
I0
S'install'
p2358
tp2359
a(I134
I138
F0.375
S'new'
p2360
tp2361
as(S'call'
p2362
tp2363
(lp2364
(I10
I14
I0
g554
tp2365
a(I16
I2
F-0.625
g557
tp2366
a(I52
I4
F-0.375
S'static'
p2367
tp2368
a(I52
I4
F0.375
S'loud'
p2369
tp2370
a(I77
I6
F0.75
S'receive'
p2371
tp2372
a(I84
I9
F0.125
g561
tp2373
a(I94
I4
F-0.25
g563
tp2374
a(I126
I5
F-0.5
S'answer'
p2375
tp2376
a(I134
I103
F0.125
S'first'
p2377
tp2378
a(I154
I21
F0.875
S'important'
p2379
tp2380
a(I159
I8
F0.25
g571
tp2381
a(I159
I8
F1.0
g573
tp2382
a(I168
I16
I0
S'funny'
p2383
tp2384
a(I168
I16
I0
S'long-distance'
p2385
tp2386
as(S'much'
p2387
S'better'
p2388
tp2389
(lp2390
(I71
I17
F0.375
g2299
tp2391
a(I93
I15
F0.375
g2301
tp2392
a(I105
I2
F0.375
g1018
tp2393
a(I147
I2
F0.375
g2309
tp2394
a(I160
I6
F0.375
g2311
tp2395
as(S'charger'
p2396
tp2397
(lp2398
(I34
I29
F0.375
S'extra'
p2399
tp2400
a(I54
I16
I0
S'external'
p2401
tp2402
a(I82
I4
F0.375
g1710
tp2403
a(I115
I2
F0.375
g1712
tp2404
a(I134
I69
I0
S'few'
p2405
tp2406
a(I154
I14
F-0.25
S'savior'
p2407
tp2408
a(I160
I10
F-0.625
g1714
tp2409
as(S'apps'
p2410
tp2411
(lp2412
(I2
I3
I0
S'most'
p2413
tp2414
a(I10
I28
I0
S'closing'
p2415
tp2416
a(I10
I32
F0.625
S'easy'
p2417
tp2418
a(I10
I38
I0
S'most'
p2419
tp2420
a(I10
I50
F-0.5
S'sure'
p2421
tp2422
a(I10
I50
I0
S'different'
p2423
tp2424
a(I11
I7
I0
S'useful'
p2425
tp2426
a(I11
I7
I0
S'many'
p2427
tp2428
a(I11
I7
I0
S'active'
p2429
tp2430
a(I18
I1
I0
S'android'
p2431
tp2432
a(I19
I8
F1.0
S'good'
p2433
tp2434
a(I38
I7
F0.625
S'easier'
p2435
tp2436
a(I41
I8
F-0.5
S'unwanted'
p2437
tp2438
a(I41
I8
F-0.375
S'simple'
p2439
tp2440
a(I42
I0
F0.375
S'available'
p2441
tp2442
a(I60
I5
F0.75
S'due'
p2443
tp2444
a(I71
I17
I0
S'own'
p2445
tp2446
a(I73
I15
I0
S'many'
p2447
tp2448
a(I73
I15
F-0.5
S'long'
p2449
tp2450
a(I86
I13
I0
S'many'
p2451
tp2452
a(I94
I7
I0
S'more'
p2453
tp2454
a(I107
I3
F-0.625
S'other'
p2455
tp2456
a(I115
I0
I0
S'close'
p2457
tp2458
a(I115
I1
F-0.5
S'open'
p2459
tp2460
a(I123
I10
I0
S'many'
p2461
tp2462
a(I124
I8
F-0.5
S'certain'
p2463
tp2464
a(I134
I29
I0
S'few'
p2465
tp2466
a(I134
I38
F0.375
S'available'
p2467
tp2468
a(I134
I146
F-0.625
S'other'
p2469
tp2470
a(I143
I4
I0
S'more'
p2471
tp2472
a(I143
I4
F-0.625
S'free'
p2473
tp2474
a(I143
I4
F0.375
S'available'
p2475
tp2476
a(I155
I0
F0.875
S'music'
p2477
tp2478
a(I159
I5
I0
S'few'
p2479
tp2480
a(I160
I9
I0
S'more'
p2481
tp2482
a(I160
I9
F0.5
S'compatible'
p2483
tp2484
a(I164
I17
I0
S'most'
p2485
tp2486
a(I164
I17
F-0.625
S'bad'
p2487
tp2488
a(I166
I15
I0
S'few'
p2489
tp2490
a(I168
I16
I0
S'fourth'
p2491
tp2492
a(I168
I18
I0
S'more'
p2493
tp2494
a(I168
I18
F-0.125
S'organized'
p2495
tp2496
a(I170
I8
I0
S'many'
p2497
tp2498
a(I170
I8
I0
S'useful'
p2499
tp2500
as(S'end'
p2501
S'of'
p2502
S'update'
p2503
tp2504
(lp2505
(I134
I123
F0.125
g927
tp2506
a(I134
I130
I0
g929
tp2507
a(I134
I164
F-0.75
g931
tp2508
as(S'days'
p2509
tp2510
(lp2511
(I1
I4
F0.125
S'first'
p2512
tp2513
a(I10
I0
F0.125
S'able'
p2514
tp2515
a(I14
I2
F0.375
S'early'
p2516
tp2517
a(I19
I5
I0
S'update'
p2518
tp2519
a(I28
I1
F0.125
S'first'
p2520
tp2521
a(I28
I1
I0
S'few'
p2522
tp2523
a(I28
I5
I0
S'many'
p2524
tp2525
a(I28
I5
I0
S'few'
p2526
tp2527
a(I50
I3
I0
S'full'
p2528
tp2529
a(I61
I1
I0
S'few'
p2530
tp2531
a(I84
I3
I0
S'later'
p2532
tp2533
a(I107
I3
I0
S'few'
p2534
tp2535
a(I117
I1
I0
S'few'
p2536
tp2537
a(I134
I2
F0.125
S'first'
p2538
tp2539
a(I134
I2
I0
S'few'
p2540
tp2541
a(I141
I10
I0
S'later'
p2542
tp2543
a(I145
I5
I0
S'few'
p2544
tp2545
a(I145
I6
F-0.25
S'late'
p2546
tp2547
a(I154
I20
F-0.25
S'past'
p2548
tp2549
a(I159
I3
I0
S'few'
p2550
tp2551
a(I165
I0
I0
S'few'
p2552
tp2553
a(I166
I7
I0
S'great'
p2554
tp2555
a(I166
I7
I0
S'few'
p2556
tp2557
as(S'azon'
p2558
S'wireless'
p2559
tp2560
(lp2561
(I123
I25
F-0.125
S'super'
p2562
tp2563
as.