(dp0
(S'memory'
p1
S'card'
p2
tp3
(lp4
(I18
I62
F0.5
S'touch'
p5
I0
tp6
a(I19
I9
F0.625
S'removable'
p7
I0
tp8
a(I3
I4
F-0.375
S'manual'
p9
I5
tp10
a(I19
I9
F0.625
g7
I5
tp11
a(I25
I26
I0
S'full'
p12
I5
tp13
as(S'battery'
p14
S'life'
p15
tp16
(lp17
(I3
I13
F-0.75
S'short'
p18
I1
tp19
a(I6
I2
F1.0
S'good'
p20
I1
tp21
a(I9
I23
F-0.25
S'low'
p22
I1
tp23
a(I11
I6
I0
S'great'
p24
I1
tp25
a(I11
I25
I0
S'great'
p26
I1
tp27
a(I18
I84
I0
S'full'
p28
I1
tp29
a(I6
I6
F0.875
S'music'
p30
I15
tp31
a(I13
I7
I0
S'charged'
p32
I15
tp33
a(I18
I84
I0
g28
I15
tp34
a(I19
I29
F0.125
S'last'
p35
I15
tp36
a(I19
I29
F-0.5
S'long'
p37
I15
tp38
as(S'motorola'
p39
tp40
(lp41
(I3
I20
F0.125
S'first'
p42
I0
tp43
a(I3
I24
I0
S'great'
p44
I0
tp45
a(I5
I42
I0
S'more'
p46
I0
tp47
a(I15
I12
F-0.625
S'bad'
p48
I0
tp49
as(S'keyboard'
p50
tp51
(lp52
(I11
I15
F-0.625
S'bad'
p53
I2
tp54
a(I18
I13
F0.875
S'nice'
p55
I2
tp56
a(I30
I0
I0
S'physical'
p57
I2
tp58
as(S'wifi'
p59
tp60
(lp61
(I15
I5
I0
S'great'
p62
I0
tp63
a(I25
I11
I0
S'such'
p64
I0
tp65
a(I30
I28
F-0.125
S'mine'
p66
I0
tp67
a(I30
I28
F-0.625
S'other'
p68
I0
tp69
a(I30
I28
F-0.125
S'public'
p70
I0
tp71
as(S'calls'
p72
tp73
(lp74
(I4
I10
F-0.125
S'slow'
p75
I0
tp76
a(I11
I32
F1.0
S'good'
p77
I0
tp78
as(S'apps'
p79
tp80
(lp81
(I9
I21
I0
S'many'
p82
I0
tp83
a(I9
I21
I0
S'more'
p84
I0
tp85
a(I11
I7
I0
S'great'
p86
I0
tp87
a(I12
I2
I0
S'many'
p88
I0
tp89
a(I22
I0
I0
S'instal'
p90
I0
tp91
a(I22
I0
I0
S'basic'
p92
I0
tp93
a(I24
I18
I0
S'most'
p94
I0
tp95
a(I24
I18
F0.375
S'new'
p96
I0
tp97
a(I25
I15
I0
S'few'
p98
I0
tp99
a(I25
I15
I0
S'basic'
p100
I0
tp101
a(I25
I15
F0.125
S'essential'
p102
I0
tp103
a(I25
I15
I0
S'such'
p104
I0
tp105
a(I25
I15
I0
S'proprietary'
p106
I0
tp107
as(S'camera'
p108
tp109
(lp110
(I3
I12
F0.875
S'music'
p111
I1
tp112
a(I11
I8
I0
S'great'
p113
I1
tp114
a(I18
I16
F1.0
S'better'
p115
I1
tp116
a(I30
I0
F1.0
S'better'
p117
I1
tp118
as.