(dp0
(S'happy'
p1
S'with'
p2
S'purchase'
p3
tp4
(lp5
(I45
I24
F0.875
S'happy'
p6
I0
tp7
a(I110
I19
F0.875
S'happy'
p8
I0
tp9
a(I160
I7
F0.875
S'happy'
p10
I0
tp11
a(I165
I5
F0.875
S'happy'
p12
I0
tp13
as(S'el'
p14
S'celular'
p15
tp16
(lp17
(I140
I0
F0.375
S'new'
p18
I0
tp19
a(I140
I0
F1.0
S'good'
p20
I0
tp21
as(S'locked'
p22
S'to'
p23
S'verizon'
p24
tp25
(lp26
(I3
I15
F-0.625
S'other'
p27
I0
tp28
a(I3
I15
F-0.625
g27
I0
tp29
a(I36
I17
F0.375
S'diligent'
p30
I0
tp31
a(I36
I17
F-0.5
S'sure'
p32
I0
tp33
a(I36
I18
I0
S'few'
p34
I0
tp35
a(I81
I11
I0
S'normal'
p36
I0
tp37
a(I121
I21
I0
S'different'
p38
I0
tp39
a(I141
I6
F-0.75
S'tough'
p40
I0
tp41
as(S'camera'
p42
tp43
(lp44
(I54
I6
F-0.5
S'open'
p45
I1
tp46
a(I54
I6
F-0.5
S'open'
p47
I1
tp48
a(I91
I0
F1.0
S'good'
p49
I1
tp50
a(I132
I2
F-0.5
S'weak'
p51
I1
tp52
a(I158
I0
I0
S'great'
p53
I1
tp54
as(S'operating'
p55
S'system'
p56
tp57
(lp58
(I30
I0
F-0.125
S'slow'
p59
I2
tp60
a(I48
I10
F0.375
S'new'
p61
I2
tp62
as(S'lo'
p63
S'que'
p64
tp65
(lp66
(I67
I1
I-100
S'increible'
p67
I0
tp68
as(S'customer'
p69
S'service'
p70
tp71
(lp72
(I119
I17
F1.0
S'best'
p73
I3
tp74
a(I119
I19
F1.0
S'best'
p75
I3
tp76
a(I139
I1
F1.0
S'good'
p77
I3
tp78
a(I163
I4
I0
S'great'
p79
I3
tp80
a(I5
I0
F0.5
S'technical'
p81
I16
tp82
a(I69
I0
F1.0
S'good'
p83
I16
tp84
a(I75
I3
F-0.5
S'international'
p85
I16
tp86
a(I94
I9
I0
S'local'
p87
I16
tp88
a(I96
I4
F1.0
S'good'
p89
I16
tp90
a(I96
I4
F0.625
S'responsible'
p91
I16
tp92
a(I119
I17
F1.0
g73
I16
tp93
a(I139
I1
F1.0
g77
I16
tp94
a(I147
I4
I0
S'local'
p95
I16
tp96
a(I160
I0
F-0.625
S'bad'
p97
I16
tp98
a(I165
I3
I0
S'great'
p99
I16
tp100
as(S'internet'
p101
tp102
(lp103
(I9
I5
F-0.625
S'free'
p104
I6
tp105
a(I147
I4
F0.125
S'able'
p106
I6
tp107
as(S'big'
p108
S'deal'
p109
tp110
(lp111
(I51
I22
I0
S'big'
p112
I11
tp113
a(I89
I2
I0
S'big'
p114
I11
tp115
a(I156
I2
I0
S'big'
p116
I11
tp117
a(I156
I2
F-0.75
S'care'
p118
I11
tp119
a(I156
I4
I0
S'big'
p120
I11
tp121
as(S'seller'
p122
tp123
(lp124
(I36
I19
I0
S'efficient'
p125
I19
tp126
a(I63
I9
F0.125
S'able'
p127
I19
tp128
a(I80
I15
F-0.875
S'worst'
p129
I19
tp130
a(I110
I20
F-0.375
S'serious'
p131
I19
tp132
a(I110
I20
F0.625
S'responsible'
p133
I19
tp134
a(I111
I9
I0
S'only'
p135
I19
tp136
a(I111
I10
F-0.25
S'legitimate'
p137
I19
tp138
a(I119
I16
F-0.375
S'top'
p139
I19
tp140
a(I122
I0
I0
S'same'
p141
I19
tp142
a(I136
I9
F1.0
S'good'
p143
I19
tp144
a(I152
I14
F0.5
S'irresponsible'
p145
I19
tp146
as(S'venezuela'
p147
tp148
(lp149
(I51
I24
F0.5
S'expensive'
p150
I0
tp151
a(I116
I1
F0.5
S'expensive'
p152
I0
tp153
a(I152
I13
I0
S'east'
p154
I0
tp155
as(S'battery'
p156
tp157
(lp158
(I1
I7
F-0.375
S'top'
p159
I15
tp160
a(I26
I0
F-0.75
S'dead'
p161
I15
tp162
a(I31
I0
F-0.75
S'dead'
p163
I15
tp164
a(I36
I10
F-0.625
S'bad'
p165
I15
tp166
a(I51
I19
F-0.75
S'short'
p167
I15
tp168
a(I51
I20
F-0.75
S'short'
p169
I15
tp170
a(I54
I3
I0
S'hot'
p171
I15
tp172
a(I55
I0
I0
S'old'
p173
I15
tp174
a(I55
I1
F0.375
S'new'
p175
I15
tp176
a(I79
I2
I0
S'hot'
p177
I15
tp178
a(I103
I0
F1.0
S'good'
p179
I15
tp180
a(I118
I5
I0
S'hot'
p181
I15
tp182
a(I125
I6
F-0.625
S'bad'
p183
I15
tp184
a(I127
I9
F0.375
S'new'
p185
I15
tp186
a(I141
I2
F-0.75
S'dead'
p187
I15
tp188
a(I147
I0
F1.0
S'good'
p189
I15
tp190
a(I154
I0
I0
S'soft'
p191
I15
tp192
as(S'en'
p193
S'la'
p194
S'caja'
p195
tp196
(lp197
(I163
I23
F0.25
S'original'
p198
I0
tp199
a(I163
I23
F0.25
g198
I0
tp200
as(S'good'
p201
S'condition'
p202
tp203
(lp204
(I1
I2
F1.0
S'good'
p205
I6
tp206
a(I34
I0
F1.0
S'good'
p207
I6
tp208
a(I81
I19
F1.0
S'good'
p209
I6
tp210
a(I109
I7
F1.0
S'good'
p211
I6
tp212
a(I111
I19
F1.0
S'good'
p213
I6
tp214
a(I119
I25
F1.0
S'good'
p215
I6
tp216
as(S'network'
p217
tp218
(lp219
(I73
I6
F-0.75
S'difficult'
p220
I0
tp221
a(I138
I8
I0
S'social'
p222
I0
tp223
a(I138
I9
I0
S'national'
p224
I0
tp225
a(I138
I17
F0.5
S'compatible'
p226
I0
tp227
a(I168
I12
I0
S'particular'
p228
I0
tp229
as(S'sim'
p230
S'card'
p231
tp232
(lp233
(I1
I2
F-0.5
S'international'
p234
I0
tp235
a(I6
I4
I0
S'multiple'
p236
I0
tp237
a(I49
I4
I0
S'active'
p238
I0
tp239
a(I99
I4
F0.125
S'able'
p240
I0
tp241
as(S'es'
p242
S'un'
p243
tp244
(lp245
(I145
I2
F-0.125
S'blackberry'
p246
I5
tp247
as(S'description'
p248
S'of'
p249
S'product'
p250
tp251
(lp252
(I113
I0
F0.625
S'acceptable'
p253
I0
tp254
a(I113
I0
I0
S'total'
p255
I0
tp256
as(S'waste'
p257
S'of'
p258
S'money'
p259
tp260
(lp261
(I65
I1
I0
S'mobile'
p262
I4
tp263
a(I83
I4
I0
S'big'
p264
I4
tp265
a(I151
I2
I0
S'total'
p266
I4
tp267
as(S'blackberry'
p268
S'9650'
p269
S'bold'
p270
tp271
(lp272
(I119
I15
F0.5
S'bold'
p273
I0
tp274
a(I137
I3
F0.5
S'bold'
p275
I0
tp276
a(I119
I15
F0.5
g273
I0
tp277
a(I137
I3
F0.5
g275
I0
tp278
a(I6
I9
I0
S'normal'
p279
I1
tp280
a(I24
I5
I0
S'older'
p281
I1
tp282
a(I44
I3
F0.125
S'sealed'
p283
I1
tp284
a(I49
I5
I0
S'standard'
p285
I1
tp286
a(I49
I6
I0
S'website'
p287
I1
tp288
a(I51
I18
F0.125
S'first'
p289
I1
tp290
a(I51
I18
I0
S'fast'
p291
I1
tp292
a(I59
I3
I0
S'old'
p293
I1
tp294
a(I63
I1
F1.0
S'best'
p295
I1
tp296
a(I63
I8
F0.875
S'important'
p297
I1
tp298
a(I72
I6
F0.25
S'original'
p299
I1
tp300
a(I75
I0
F0.5
S'second'
p301
I1
tp302
a(I81
I29
F0.25
S'original'
p303
I1
tp304
a(I84
I10
F-0.125
S'former'
p305
I1
tp306
a(I118
I7
F0.875
S'happy'
p307
I1
tp308
a(I119
I15
F0.5
g273
I1
tp309
a(I129
I0
F-0.75
S'wrong'
p310
I1
tp311
a(I134
I4
F1.0
S'best'
p312
I1
tp313
a(I137
I3
F0.5
g275
I1
tp314
a(I159
I0
I0
S'many'
p315
I1
tp316
as(S'able'
p317
S'to'
p318
S'use'
p319
tp320
(lp321
(I12
I2
F0.125
S'able'
p322
I12
tp323
as(S'few'
p324
S'minutes'
p325
tp326
(lp327
(I63
I4
I0
S'few'
p328
I3
tp329
a(I118
I4
F-0.75
S'difficult'
p330
I3
tp331
a(I118
I4
I0
S'few'
p332
I3
tp333
a(I139
I0
I0
S'few'
p334
I3
tp335
as(S'smartphone'
p336
tp337
(lp338
(I45
I13
I0
S'current'
p339
I0
tp340
a(I143
I0
F1.0
S'good'
p341
I0
tp342
as(S'a'
p343
S'blackberry'
p344
S'bold'
p345
tp346
(lp347
(I119
I15
F0.5
g273
I0
tp348
a(I137
I3
F0.5
g275
I0
tp349
as(S'amazon'
p350
tp351
(lp352
(I6
I7
F-0.75
S'wrong'
p353
I13
tp354
a(I38
I0
F-0.375
S'stop'
p355
I13
tp356
a(I40
I5
F-0.5
S'upset'
p357
I13
tp358
a(I75
I11
F0.5
S'possible'
p359
I13
tp360
a(I84
I11
F-0.5
S'unsatisfactory'
p361
I13
tp362
a(I94
I2
I0
S'more'
p363
I13
tp364
a(I110
I13
F0.625
S'convenient'
p365
I13
tp366
a(I111
I23
F-0.25
S'disappointed'
p367
I13
tp368
a(I142
I2
F-0.25
S'disappointed'
p369
I13
tp370
as(S'verizon'
p371
S'wireless'
p372
tp373
(lp374
(I3
I15
F-0.625
g27
I0
tp375
as.