(dp0
(S'seller'
p1
tp2
(lp3
(I6
I2
I0
S'website'
p4
I19
tp5
a(I21
I27
F0.25
S'independent'
p6
I19
tp7
a(I21
I27
F0.75
S'due'
p8
I19
tp9
as(S'iphone'
p10
tp11
(lp12
(I12
I0
I0
S'old'
p13
I1
tp14
a(I12
I0
F0.125
S'charger'
p15
I1
tp16
a(I13
I0
F-0.375
S'black'
p17
I1
tp18
a(I13
I1
F-0.25
S'white'
p19
I1
tp20
a(I15
I3
F1.0
S'best'
p21
I1
tp22
a(I15
I3
I0
S'old'
p23
I1
tp24
a(I17
I55
F0.375
S'new'
p25
I1
tp26
a(I17
I63
F0.875
S'happy'
p27
I1
tp28
a(I17
I63
F0.375
S'new'
p29
I1
tp30
a(I21
I7
F0.125
S'first'
p31
I1
tp32
a(I21
I21
F0.375
S'new'
p33
I1
tp34
as(S'in'
p35
S'good'
p36
S'condition'
p37
tp38
(lp39
(I2
I3
F1.0
S'good'
p40
I6
tp41
a(I8
I1
F1.0
S'good'
p42
I6
tp43
a(I11
I7
F1.0
S'good'
p44
I6
tp45
a(I11
I19
I0
S'great'
p46
I6
tp47
a(I14
I4
F1.0
S'good'
p48
I6
tp49
a(I19
I0
F1.0
S'good'
p50
I6
tp51
a(I20
I3
F1.0
S'good'
p52
I6
tp53
a(I2
I3
F1.0
g40
I6
tp54
a(I3
I6
F1.0
S'good'
p55
I6
tp56
a(I8
I1
F1.0
g42
I6
tp57
a(I11
I7
F1.0
g44
I6
tp58
a(I11
I19
I0
g46
I6
tp59
a(I14
I4
F1.0
g48
I6
tp60
a(I19
I0
F1.0
g50
I6
tp61
a(I20
I3
F1.0
g52
I6
tp62
as(S'works'
p63
S'fine'
p64
tp65
(lp66
(I9
I6
F0.375
S'new'
p67
I9
tp68
as(S'great'
p69
S'condition'
p70
tp71
(lp72
(I4
I0
I0
S'great'
p73
I7
tp74
a(I10
I9
I0
S'great'
p75
I7
tp76
a(I11
I0
I0
S'great'
p77
I7
tp78
a(I11
I19
I0
g46
I7
tp79
a(I16
I1
I0
S'great'
p80
I7
tp81
as(S'apple'
p82
tp83
(lp84
(I17
I50
F-0.625
S'bad'
p85
I4
tp86
a(I17
I50
F0.5
S'willing'
p87
I4
tp88
a(I17
I56
F1.0
S'good'
p89
I4
tp90
as(S'apps'
p91
tp92
(lp93
(I4
I4
F-0.875
S'bother'
p94
I0
tp95
a(I10
I1
I0
S'most'
p96
I0
tp97
a(I11
I4
F0.125
S'able'
p98
I0
tp99
a(I11
I14
I0
S'few'
p100
I0
tp101
a(I17
I41
F0.375
S'available'
p102
I0
tp103
a(I17
I48
F0.25
S'favorite'
p104
I0
tp105
a(I20
I7
F0.125
S'able'
p106
I0
tp107
a(I20
I7
F0.5
S'compatible'
p108
I0
tp109
as(S'amazon'
p110
tp111
(lp112
(I11
I29
F1.0
S'good'
p113
I13
tp114
as(S'waste'
p115
S'of'
p116
S'money'
p117
tp118
(lp119
(I0
I9
F0.375
S'complete'
p120
I4
tp121
as.