(dp0
(S'operating'
p1
S'system'
p2
tp3
(lp4
(I3
I46
I0
S'latest'
p5
I2
tp6
a(I3
I49
I0
S'latest'
p7
I2
tp8
as(S'battery'
p9
S'life'
p10
tp11
(lp12
(I1
I52
F-0.75
S'short'
p13
I1
tp14
a(I1
I89
F-0.5
S'longer'
p15
I1
tp16
a(I1
I92
F1.0
S'good'
p17
I1
tp18
a(I3
I22
F-0.75
S'short'
p19
I1
tp20
a(I1
I92
F1.0
g17
I19
tp21
a(I1
I52
F-0.75
g13
I15
tp22
a(I1
I89
F-0.5
g15
I15
tp23
a(I2
I65
I0
S'only'
p24
I15
tp25
a(I2
I65
F-0.625
S'other'
p26
I15
tp27
a(I2
I65
F-0.875
S'negative'
p28
I15
tp29
a(I2
I67
F0.25
S'larger'
p30
I15
tp31
a(I3
I22
F-0.75
g19
I15
tp32
a(I4
I24
F0.25
S'inductive'
p33
I15
tp34
a(I5
I14
F1.0
S'better'
p35
I15
tp36
a(I5
I26
F0.75
S'due'
p37
I15
tp38
as(S'keyboard'
p39
tp40
(lp41
(I1
I86
F0.25
S'bigger'
p42
I2
tp43
a(I2
I44
F-0.875
S'hard'
p44
I2
tp45
a(I2
I46
F-0.25
S'loose'
p46
I2
tp47
a(I5
I3
F0.625
S'perfect'
p48
I2
tp49
a(I5
I14
I0
S'same'
p50
I2
tp51
as(S'mobile'
p52
tp53
(lp54
(I1
I1
I0
S'local'
p55
I0
tp56
a(I1
I22
F0.375
S'new'
p57
I0
tp58
as(S'palm'
p59
S'pre'
p60
tp61
(lp62
(I0
I32
I0
S'next'
p63
I0
tp64
a(I1
I8
I0
S'old'
p65
I0
tp66
a(I1
I8
I0
S'old'
p67
I0
tp68
a(I1
I5
F-0.25
S'past'
p69
I1
tp70
a(I1
I8
I0
g65
I1
tp71
a(I1
I8
I0
g67
I1
tp72
a(I2
I70
I0
S'great'
p73
I1
tp74
as(S'apps'
p75
tp76
(lp77
(I0
I17
F0.125
S'able'
p78
I0
tp79
a(I1
I8
F0.125
S'able'
p80
I0
tp81
a(I1
I72
I0
S'many'
p82
I0
tp83
a(I5
I5
F0.375
S'available'
p84
I0
tp85
a(I5
I6
F0.125
S'spectacular'
p86
I0
tp87
a(I5
I6
I0
S'own'
p88
I0
tp89
as(S'webos'
p90
tp91
(lp92
(I0
I26
F0.875
S'happy'
p93
I0
tp94
a(I0
I33
F0.375
S'much'
p95
I0
tp96
a(I1
I40
I0
S'great'
p97
I0
tp98
a(I1
I73
F0.375
S'new'
p99
I0
tp100
a(I1
I98
F-0.5
S'actual'
p101
I0
tp102
a(I4
I0
F0.25
S'original'
p103
I0
tp104
a(I4
I18
F-0.5
S'open'
p105
I0
tp106
a(I4
I18
F0.375
S'mean'
p107
I0
tp108
as.