(dp0
(S'seller'
p1
tp2
(lp3
(I19
I38
I0
S'different'
p4
I19
tp5
as(S'android'
p6
tp7
(lp8
(I2
I0
F0.125
S'first'
p9
I0
tp10
a(I12
I77
F-0.625
S'other'
p11
I0
tp12
a(I12
I88
I0
S'cool'
p13
I0
tp14
a(I12
I88
F-0.625
S'green'
p15
I0
tp16
a(I19
I8
I0
S'cool'
p17
I0
tp18
a(I19
I8
F-0.625
S'green'
p19
I0
tp20
a(I19
I49
I0
S'old'
p21
I0
tp22
a(I19
I49
F0.125
S'operative'
p23
I0
tp24
a(I19
I50
F0.375
S'new'
p25
I0
tp26
as(S'mytouch'
p27
tp28
(lp29
(I0
I8
I0
S'faster'
p30
I0
tp31
a(I0
I9
F-0.125
S'slow'
p32
I0
tp33
a(I0
I21
F0.5
S'compatible'
p34
I0
tp35
a(I6
I6
I0
S'awhile'
p36
I0
tp37
a(I9
I36
F-0.75
S'bright'
p38
I0
tp39
a(I9
I36
F-0.625
S'green'
p40
I0
tp41
a(I9
I77
F0.5
S'second'
p42
I0
tp43
as(S'battery'
p44
S'life'
p45
tp46
(lp47
(I9
I11
F1.0
S'better'
p48
I1
tp49
a(I9
I81
F1.0
S'best'
p50
I1
tp51
a(I9
I83
I0
S'closer'
p52
I1
tp53
a(I3
I33
F0.125
S'last'
p54
I15
tp55
a(I3
I36
F0.375
S'new'
p56
I15
tp57
a(I6
I14
F0.375
S'extended'
p58
I15
tp59
a(I9
I20
F0.375
S'new'
p60
I15
tp61
a(I9
I81
F1.0
g50
I15
tp62
a(I12
I12
F-0.75
S'worse'
p63
I15
tp64
as(S'apps'
p65
tp66
(lp67
(I9
I45
I0
S'such'
p68
I0
tp69
a(I9
I60
I0
S'most'
p70
I0
tp71
a(I9
I60
F-0.625
S'average'
p72
I0
tp73
a(I12
I23
F1.0
S'good'
p74
I0
tp75
as(S'a'
p76
S'data'
p77
S'plan'
p78
tp79
(lp80
(I12
I71
F-0.375
S'daily'
p81
I0
tp82
a(I12
I71
F-0.375
g81
I0
tp83
a(I12
I71
F-0.375
g81
I13
tp84
as(g76
S'sim'
p85
S'card'
p86
tp87
(lp88
(I11
I13
F0.375
S'new'
p89
I0
tp90
a(I11
I16
F-0.5
S'separate'
p91
I0
tp92
a(I12
I48
F-0.25
S'ready'
p93
I0
tp94
a(I12
I74
I0
S'own'
p95
I0
tp96
a(I19
I22
I0
S'local'
p97
I0
tp98
a(I19
I47
I0
S'american'
p99
I0
tp100
a(I19
I47
I0
S'internet'
p101
I0
tp102
a(I19
I64
F-0.625
S'other'
p103
I0
tp104
a(I19
I64
F-0.25
S'past'
p105
I0
tp106
a(I11
I13
F0.375
g89
I0
tp107
a(I11
I16
F-0.5
g91
I0
tp108
a(I12
I48
F-0.25
g93
I0
tp109
a(I12
I74
I0
g95
I0
tp110
a(I19
I22
I0
g97
I0
tp111
a(I19
I47
I0
g99
I0
tp112
a(I19
I47
I0
g101
I0
tp113
a(I19
I64
F-0.625
g103
I0
tp114
a(I19
I64
F-0.25
g105
I0
tp115
as(S'customer'
p116
S'service'
p117
tp118
(lp119
(I6
I53
F0.375
S'early'
p120
I3
tp121
a(I6
I53
F0.5
S'possible'
p122
I3
tp123
a(I6
I53
F0.375
g120
I16
tp124
a(I6
I53
F0.5
g122
I16
tp125
as(S'tmobile'
p126
tp127
(lp128
(I19
I41
F0.5
S'true'
p129
I0
tp130
as(S'wifi'
p131
tp132
(lp133
(I1
I16
F1.0
S'good'
p134
I0
tp135
a(I11
I4
I0
S'most'
p136
I0
tp137
as(S'texting'
p138
tp139
(lp140
(I1
I23
I0
S'faster'
p141
I0
tp142
a(I1
I31
F-0.375
S'small'
p143
I0
tp144
a(I2
I2
F-0.125
S'slow'
p145
I0
tp146
as(S'amazon'
p147
tp148
(lp149
(I7
I5
I0
S'such'
p150
I13
tp151
a(I7
I5
I0
S'rubbish'
p152
I13
tp153
as(S'touch'
p154
S'screen'
p155
tp156
(lp157
(I9
I43
F-0.5
S'complaint'
p158
I2
tp159
a(I9
I43
F0.5
S'touch'
p160
I2
tp161
a(I9
I77
I0
S'plastic'
p162
I2
tp163
a(I11
I38
F0.25
S'original'
p164
I2
tp165
a(I11
I38
F0.5
S'touch'
p166
I2
tp167
as.