(dp0
(S'seller'
p1
tp2
(lp3
(I8
I3
I0
S'website'
p4
I19
tp5
a(I8
I3
F0.5
S'true'
p6
I19
tp7
a(I8
I4
F-0.25
S'reached'
p8
I19
tp9
a(I9
I2
F0.375
S'honest'
p10
I19
tp11
as(S'blackberry'
p12
tp13
(lp14
(I0
I21
I0
S'cable'
p15
I1
tp16
a(I5
I74
I0
S'old'
p17
I1
tp18
a(I5
I75
I0
S'same'
p19
I1
tp20
a(I5
I75
I0
S'identical'
p21
I1
tp22
a(I5
I75
I0
S'old'
p23
I1
tp24
a(I6
I4
F0.375
S'new'
p25
I1
tp26
a(I6
I4
F0.375
S'new'
p27
I1
tp28
a(I7
I19
F0.375
S'new'
p29
I1
tp30
a(I10
I5
F0.125
S'first'
p31
I1
tp32
as(S'great'
p33
S'condition'
p34
tp35
(lp36
(I10
I8
I0
S'great'
p37
I7
tp38
a(I13
I13
I0
S'great'
p39
I7
tp40
as(S'battery'
p41
S'cover'
p42
tp43
(lp44
(I13
I17
I0
S'least'
p45
I0
tp46
a(I13
I17
F-0.5
S'sure'
p47
I0
tp48
a(I0
I23
F-0.75
S'dead'
p49
I15
tp50
a(I4
I6
F0.75
S'worth'
p51
I15
tp52
a(I4
I6
F0.5
S'whole'
p53
I15
tp54
a(I4
I6
F0.375
S'new'
p55
I15
tp56
a(I13
I17
I0
g45
I15
tp57
a(I13
I17
F-0.5
g47
I15
tp58
as(S'verizon'
p59
tp60
(lp61
(I7
I8
F0.125
S'able'
p62
I0
tp63
as(S'sim'
p64
S'card'
p65
tp66
(lp67
(I0
I1
F-0.5
S'wished'
p68
I0
tp69
a(I0
I1
F0.5
S'clear'
p70
I0
tp71
as.