(dp0
(S'require'
p1
S'a'
p2
S'data'
p3
tp4
(lp5
(I4
I4
F0.5
S'expensive'
p6
I0
tp7
a(I4
I4
F0.5
g6
I13
tp8
as(S'battery'
p9
S'life'
p10
tp11
(lp12
(I1
I17
I0
S'great'
p13
I1
tp14
a(I5
I2
F-0.625
S'other'
p15
I1
tp16
a(I5
I3
F1.0
S'good'
p17
I1
tp18
a(I5
I7
I0
S'next'
p19
I1
tp20
a(I5
I14
F-0.75
S'short'
p21
I1
tp22
a(I5
I14
F0.125
S'last'
p23
I1
tp24
a(I18
I13
F1.0
S'good'
p25
I1
tp26
a(I5
I2
F-0.625
g15
I15
tp27
a(I9
I12
F0.375
S'new'
p28
I15
tp29
a(I9
I20
F-0.5
S'open'
p30
I15
tp31
a(I10
I59
F0.125
S'charger'
p32
I15
tp33
a(I18
I13
F1.0
g25
I15
tp34
as(S'keyboard'
p35
tp36
(lp37
(I7
I13
F-0.5
S'open'
p38
I2
tp39
a(I11
I17
F-0.375
S'small'
p40
I2
tp41
a(I12
I43
I0
S'great'
p42
I2
tp43
a(I12
I64
F-0.375
S'small'
p44
I2
tp45
a(I15
I7
I0
S'funny'
p46
I2
tp47
a(I18
I2
F0.875
S'nicer'
p48
I2
tp49
as(S'email'
p50
tp51
(lp52
(I7
I8
F0.875
S'important'
p53
I5
tp54
as(S'text'
p55
tp56
(lp57
(I2
I11
F0.875
S'music'
p58
I18
tp59
a(I11
I14
I0
S'multiple'
p60
I18
tp61
a(I12
I51
F-0.375
S'small'
p62
I18
tp63
as(S'internet'
p64
tp65
(lp66
(I4
I41
F1.0
S'good'
p67
I6
tp68
a(I8
I16
F0.375
S'extra'
p69
I6
tp70
as(S'social'
p71
S'media'
p72
tp73
(lp74
(I2
I29
F0.875
S'important'
p75
I0
tp76
a(I2
I29
I0
S'social'
p77
I0
tp78
a(I3
I17
F0.125
S'able'
p79
I0
tp80
a(I3
I17
I0
S'social'
p81
I0
tp82
a(I3
I17
I0
S'social'
p83
I0
tp84
as(S'verizon'
p85
tp86
(lp87
(I2
I15
F-0.625
S'free'
p88
I0
tp89
a(I4
I4
I0
S'basic'
p90
I0
tp91
a(I4
I9
I0
S'closest'
p92
I0
tp93
a(I5
I0
F-0.25
S'inexpensive'
p94
I0
tp95
a(I11
I0
F0.5
S'eligible'
p96
I0
tp97
a(I11
I0
I0
S'monthly'
p98
I0
tp99
a(I16
I7
F0.875
S'happy'
p100
I0
tp101
as(S'messages'
p102
tp103
(lp104
(I5
I4
F1.0
S'good'
p105
I1
tp106
a(I12
I50
I-100
S'cons*text'
p107
I1
tp108
as(S'web'
p109
S'browser'
p110
tp111
(lp112
(I10
I66
I0
S'basic'
p113
I0
tp114
a(I10
I18
F-0.125
S'slow'
p115
I0
tp116
a(I10
I66
I0
g113
I0
tp117
as(S'calls'
p118
tp119
(lp120
(I5
I4
F0.75
S'receive'
p121
I0
tp122
a(I10
I87
F-0.5
S'miss'
p123
I0
tp124
a(I12
I2
F-0.5
S'miss'
p125
I0
tp126
as(S'music'
p127
tp128
(lp129
(I10
I33
F-0.75
S'unable'
p130
I0
tp131
as(S'free'
p132
S'wi'
p133
S'fi'
p134
tp135
(lp136
(I2
I4
F-0.625
S'free'
p137
I0
tp138
a(I2
I4
F-0.25
S'bubble'
p139
I0
tp140
a(I2
I29
F0.75
S'due'
p141
I0
tp142
a(I2
I4
F-0.625
g137
I0
tp143
a(I2
I4
F-0.25
g139
I0
tp144
a(I2
I29
F0.75
g141
I0
tp145
a(I18
I7
F0.5
S'compatible'
p146
I0
tp147
a(I18
I11
F0.375
S'available'
p148
I0
tp149
as(S'zune'
p150
tp151
(lp152
(I2
I53
F0.375
S'available'
p153
I0
tp154
a(I12
I41
F1.0
S'best'
p155
I0
tp156
as(g2
S'data'
p157
S'plan'
p158
tp159
(lp160
(I4
I4
F0.5
g6
I0
tp161
a(I4
I4
F0.5
g6
I0
tp162
as(S'wifi'
p163
tp164
(lp165
(I10
I4
I0
S'own'
p166
I0
tp167
a(I11
I4
F-0.625
S'free'
p168
I0
tp169
a(I13
I10
F-0.625
S'free'
p170
I0
tp171
a(I13
I10
F0.875
S'nice'
p172
I0
tp173
as(S'texting'
p174
tp175
(lp176
(I1
I13
I0
S'great'
p177
I0
tp178
a(I4
I26
F0.625
S'easy'
p179
I0
tp180
a(I4
I26
F-0.375
S'small'
p181
I0
tp182
a(I7
I4
F1.0
S'good'
p183
I0
tp184
a(I7
I6
I0
S'great'
p185
I0
tp186
a(I10
I16
I0
S'great'
p187
I0
tp188
a(I10
I20
F-0.125
S'overall'
p189
I0
tp190
a(I10
I20
I0
S'great'
p191
I0
tp192
as(S'touch'
p193
S'screen'
p194
tp195
(lp196
(I1
I10
F0.5
S'touch'
p197
I2
tp198
a(I1
I10
F0.25
S'responsive'
p199
I2
tp200
a(I9
I2
I0
S'sensitive'
p201
I2
tp202
a(I9
I2
F-0.75
S'difficult'
p203
I2
tp204
a(I12
I27
F0.5
S'touch'
p205
I2
tp206
a(I12
I28
F-0.125
S'accidental'
p207
I2
tp208
a(I12
I58
F0.5
S'touch'
p209
I2
tp210
a(I12
I61
F0.5
S'touch'
p211
I2
tp212
a(I12
I61
F0.25
S'main'
p213
I2
tp214
a(I16
I18
F0.5
S'touch'
p215
I2
tp216
a(I18
I3
F0.5
S'touch'
p217
I2
tp218
as.