(dp0
(S'screen'
p1
S'size'
p2
tp3
(lp4
(I9
I14
F0.625
S'perfect'
p5
I3
tp6
a(I17
I21
F0.75
S'ideal'
p7
I3
tp8
a(I47
I2
I0
S'great'
p9
I3
tp10
a(I47
I2
F-0.75
S'comfortable'
p11
I3
tp12
a(I49
I20
F0.75
S'due'
p13
I3
tp14
a(I49
I20
F-0.5
S'heavy'
p15
I3
tp16
a(I53
I1
F0.25
S'bigger'
p17
I3
tp18
as(S'happy'
p19
S'with'
p20
S'purchase'
p21
tp22
(lp23
(I10
I21
F0.875
S'happy'
p24
I0
tp25
a(I18
I87
F0.875
S'happy'
p26
I0
tp27
a(I42
I1
F0.875
S'happy'
p28
I0
tp29
a(I50
I30
F0.875
S'happy'
p30
I0
tp31
as(S'flash'
p32
S'player'
p33
tp34
(lp35
(I92
I6
I0
S'install'
p36
I0
tp37
as(S'battery'
p38
S'life'
p39
tp40
(lp41
(I7
I121
F0.125
S'last'
p42
I1
tp43
a(I7
I127
F-0.5
S'poor'
p44
I1
tp45
a(I10
I5
F-0.5
S'longer'
p46
I1
tp47
a(I24
I13
F-0.5
S'poor'
p48
I1
tp49
a(I24
I13
F-0.5
S'regular'
p50
I1
tp51
a(I32
I14
F1.0
S'good'
p52
I1
tp53
a(I32
I14
F0.875
S'happy'
p54
I1
tp55
a(I32
I14
F-0.125
S'overall'
p56
I1
tp57
a(I54
I5
F1.0
S'better'
p58
I1
tp59
a(I66
I61
F-0.25
S'low'
p60
I1
tp61
a(I66
I61
F0.25
S'used'
p62
I1
tp63
a(I71
I28
F-0.5
S'poor'
p64
I1
tp65
a(I92
I29
F0.25
S'original'
p66
I1
tp67
a(I92
I49
I0
S'general'
p68
I1
tp69
a(I24
I13
F-0.5
g50
I19
tp70
a(I32
I14
F0.875
g54
I19
tp71
a(I32
I14
F-0.125
g56
I19
tp72
a(I66
I61
F-0.25
g60
I19
tp73
a(I92
I29
F0.25
g66
I19
tp74
a(I92
I49
I0
g68
I19
tp75
a(I7
I49
F-0.25
S'low'
p76
I15
tp77
a(I7
I120
F0.25
S'original'
p78
I15
tp79
a(I7
I121
F0.125
g42
I15
tp80
a(I7
I127
F-0.5
g44
I15
tp81
a(I9
I19
I0
S'mobile'
p82
I15
tp83
a(I9
I19
I0
S'great'
p84
I15
tp85
a(I10
I5
F-0.5
g46
I15
tp86
a(I10
I35
I0
S'hot'
p87
I15
tp88
a(I13
I48
F-0.5
S'actual'
p89
I15
tp90
a(I13
I48
F0.375
S'new'
p91
I15
tp92
a(I15
I0
F0.25
S'original'
p93
I15
tp94
a(I17
I3
F1.0
S'better'
p95
I15
tp96
a(I17
I26
F0.125
S'last'
p97
I15
tp98
a(I18
I44
F-0.5
S'weak'
p99
I15
tp100
a(I18
I50
F-0.5
S'weak'
p101
I15
tp102
a(I19
I0
F0.125
S'last'
p103
I15
tp104
a(I22
I1
F1.0
S'good'
p105
I15
tp106
a(I24
I13
F-0.5
g48
I15
tp107
a(I32
I14
F1.0
g52
I15
tp108
a(I54
I5
F1.0
g58
I15
tp109
a(I63
I2
F1.0
S'good'
p110
I15
tp111
a(I66
I12
F0.875
S'important'
p112
I15
tp113
a(I66
I37
F0.375
S'extended'
p114
I15
tp115
a(I66
I61
F0.25
g62
I15
tp116
a(I67
I21
F1.0
S'good'
p117
I15
tp118
a(I70
I23
F0.125
S'last'
p119
I15
tp120
a(I71
I28
F-0.5
g64
I15
tp121
a(I74
I7
F0.375
S'new'
p122
I15
tp123
a(I76
I7
I0
S'least'
p124
I15
tp125
a(I79
I1
F0.125
S'last'
p126
I15
tp127
a(I92
I18
I0
S'fast'
p128
I15
tp129
a(I96
I6
F0.25
S'original'
p130
I15
tp131
a(I102
I7
F1.0
S'good'
p132
I15
tp133
as(S'de'
p134
S'la'
p135
tp136
(lp137
(I50
I41
I0
S'soft'
p138
I2
tp139
as(S'i9100'
p140
tp141
(lp142
(I24
I21
F-0.625
S'glad'
p143
I0
tp144
a(I85
I5
I0
S'al'
p145
I0
tp146
as(S'cream'
p147
S'sandwich'
p148
tp149
(lp150
(I12
I10
F0.625
S'easy'
p151
I0
tp152
a(I12
I10
F0.375
S'reliable'
p153
I0
tp154
as(S'camera'
p155
tp156
(lp157
(I12
I28
I0
S'fast'
p158
I1
tp159
a(I12
I28
I0
S'great'
p160
I1
tp161
a(I16
I34
I0
S'incredible'
p162
I1
tp163
a(I47
I2
F1.0
S'better'
p164
I1
tp165
a(I52
I1
F1.0
S'good'
p166
I1
tp167
a(I60
I15
F0.625
S'convenient'
p168
I1
tp169
a(I66
I14
I0
S'great'
p170
I1
tp171
a(I66
I26
I0
S'different'
p172
I1
tp173
a(I69
I2
F0.5
S'qualitative'
p174
I1
tp175
a(I82
I3
F-0.625
S'surprising'
p176
I1
tp177
a(I82
I3
F1.0
S'good'
p178
I1
tp179
as(S'gorilla'
p180
S'glass'
p181
tp182
(lp183
(I55
I1
I0
S'real'
p184
I0
tp185
as(S'operating'
p186
S'system'
p187
tp188
(lp189
(I57
I7
F-0.125
S'slow'
p190
I2
tp191
as(S'iphone'
p192
tp193
(lp194
(I7
I87
F0.25
S'unlocked'
p195
I1
tp196
a(I10
I8
F0.5
S'compare'
p197
I1
tp198
a(I12
I36
F0.5
S'true'
p199
I1
tp200
a(I17
I21
F-0.75
S'little'
p201
I1
tp202
a(I19
I5
F0.125
S'able'
p203
I1
tp204
a(I27
I0
I0
S'real'
p205
I1
tp206
a(I33
I3
F-0.5
S'international'
p207
I1
tp208
a(I37
I3
I0
S'old'
p209
I1
tp210
a(I41
I14
F-0.375
S'smooth'
p211
I1
tp212
a(I41
I14
F-0.125
S'overall'
p213
I1
tp214
a(I41
I14
F1.0
S'good'
p215
I1
tp216
a(I50
I28
F-0.25
S'cheaper'
p217
I1
tp218
a(I67
I0
F-0.625
S'glorious'
p219
I1
tp220
a(I72
I0
F0.125
S'impressive'
p221
I1
tp222
a(I74
I11
F0.625
S'easy'
p223
I1
tp224
a(I74
I11
F-0.625
S'lighter'
p225
I1
tp226
as(S'button'
p227
tp228
(lp229
(I41
I10
I0
S'many'
p230
I19
tp231
a(I98
I14
F-0.75
S'difficult'
p232
I19
tp233
a(I98
I16
F0.375
S'forcing'
p234
I19
tp235
a(I98
I18
F-0.5
S'international'
p236
I19
tp237
a(I98
I18
I0
S'tactile'
p238
I19
tp239
a(I98
I21
F0.375
S'similar'
p240
I19
tp241
a(I98
I23
I0
S'capacitive'
p242
I19
tp243
as(S'internet'
p244
tp245
(lp246
(I92
I36
F-0.625
S'free'
p247
I6
tp248
a(I98
I48
F-0.625
S'light'
p249
I6
tp250
as(S'signal'
p251
tp252
(lp253
(I7
I18
F-0.625
S'bad'
p254
I1
tp255
a(I17
I27
F-0.5
S'poor'
p256
I1
tp257
a(I70
I0
F0.375
S'new'
p258
I1
tp259
a(I80
I23
F0.5
S'strongest'
p260
I1
tp261
a(I80
I23
F0.5
S'clear'
p262
I1
tp263
as(S'samsung'
p264
S'galaxy'
p265
S's'
p266
tp267
(lp268
(I9
I14
F1.0
S'better'
p269
I0
tp270
a(I13
I15
F-0.5
S'regular'
p271
I0
tp272
a(I13
I21
I0
S'domestic'
p273
I0
tp274
a(I35
I4
I0
S'slower'
p275
I0
tp276
a(I55
I0
F0.5
S'possible'
p277
I0
tp278
a(I66
I45
F0.25
S'original'
p279
I0
tp280
a(I71
I3
I0
S'old'
p281
I0
tp282
a(I77
I2
I0
S'adrian'
p283
I0
tp284
a(I78
I8
F0.25
S'original'
p285
I0
tp286
a(I99
I5
F0.25
S'original'
p287
I0
tp288
as(S'dual'
p289
S'core'
p290
tp291
(lp292
(I98
I9
F-0.25
S'thinnest'
p293
I0
tp294
as(S'seller'
p295
tp296
(lp297
(I9
I7
I0
S'many'
p298
I19
tp299
a(I13
I12
I0
S'own'
p300
I19
tp301
a(I24
I7
I0
S'more'
p302
I19
tp303
a(I24
I7
I0
S'specific'
p304
I19
tp305
a(I61
I1
F0.5
S'recommended'
p306
I19
tp307
a(I66
I1
F0.625
S'responsible'
p308
I19
tp309
a(I66
I1
I0
S'punctual'
p310
I19
tp311
a(I66
I69
F1.0
S'good'
p312
I19
tp313
a(I67
I10
F0.625
S'credible'
p314
I19
tp315
a(I74
I3
F0.5
S'told'
p316
I19
tp317
a(I84
I3
I0
S'great'
p318
I19
tp319
a(I87
I10
F0.75
S'give'
p320
I19
tp321
a(I97
I24
F1.0
S'good'
p322
I19
tp323
a(I97
I24
I0
S'efficient'
p324
I19
tp325
as(S'android'
p326
tp327
(lp328
(I12
I10
F0.5
S'upgraded'
p329
I0
tp330
a(I12
I36
I0
S'faster'
p331
I0
tp332
a(I13
I40
I0
S'great'
p333
I0
tp334
a(I84
I0
F0.875
S'nice'
p335
I0
tp336
a(I85
I28
F-0.625
S'sorry'
p337
I0
tp338
a(I89
I11
F0.125
S'usual'
p339
I0
tp340
a(I90
I18
F1.0
S'best'
p341
I0
tp342
a(I98
I5
F1.0
S'best'
p343
I0
tp344
as(S'heavy'
p345
S'duty'
p346
tp347
(lp348
(I66
I37
I0
S'optional'
p349
I13
tp350
a(I66
I37
F-0.5
S'heavy'
p351
I13
tp352
a(I66
I38
F-0.5
S'heavy'
p353
I13
tp354
as(S'bater'
p355
S'iacute'
p356
tp357
(lp358
(I18
I11
F0.375
S'extra'
p359
I0
tp360
a(I16
I17
I-100
S'garant'
p361
I1
tp362
a(I18
I11
F0.375
g359
I1
tp363
as(S'samsung'
p364
S'galaxy'
p365
S's2'
p366
tp367
(lp368
(I35
I4
I0
g275
I0
tp369
a(I66
I45
F0.25
g279
I0
tp370
a(I78
I8
F0.25
g285
I0
tp371
a(I9
I14
F1.0
g269
I0
tp372
a(I13
I15
F-0.5
g271
I0
tp373
a(I13
I21
I0
g273
I0
tp374
a(I35
I4
I0
g275
I0
tp375
a(I55
I0
F0.5
g277
I0
tp376
a(I66
I45
F0.25
g279
I0
tp377
a(I71
I3
I0
g281
I0
tp378
a(I77
I2
I0
g283
I0
tp379
a(I78
I8
F0.25
g285
I0
tp380
a(I99
I5
F0.25
g287
I0
tp381
a(I7
I3
F0.25
S'powerful'
p382
I0
tp383
a(I10
I11
I0
S'galaxy'
p384
I0
tp385
a(I13
I17
I0
S'real'
p386
I0
tp387
a(I35
I4
I0
g275
I0
tp388
a(I0
I1
F-0.375
S'small'
p389
I7
tp390
a(I9
I14
F1.0
g269
I7
tp391
a(I13
I15
F-0.5
g271
I7
tp392
a(I13
I21
I0
g273
I7
tp393
a(I13
I39
F0.375
S'knew'
p394
I7
tp395
a(I13
I40
I0
S'great'
p396
I7
tp397
a(I17
I10
I0
S'local'
p398
I7
tp399
a(I17
I21
I0
S'big'
p400
I7
tp401
a(I22
I8
F0.625
S'straight'
p402
I7
tp403
a(I24
I11
I0
S'least'
p404
I7
tp405
a(I24
I14
F1.0
S'better'
p406
I7
tp407
a(I28
I13
F0.375
S'new'
p408
I7
tp409
a(I34
I0
I0
S'great'
p410
I7
tp411
a(I34
I0
I0
S'more'
p412
I7
tp413
a(I34
I0
F0.125
S'first'
p414
I7
tp415
a(I40
I1
I0
S'great'
p416
I7
tp417
a(I45
I3
F-0.375
S'black'
p418
I7
tp419
a(I55
I0
F0.5
g277
I7
tp420
a(I58
I15
I0
S'more'
p421
I7
tp422
a(I66
I24
F0.25
S'original'
p423
I7
tp424
a(I66
I45
F0.25
g279
I7
tp425
a(I66
I62
F0.625
S'easy'
p426
I7
tp427
a(I71
I3
I0
g281
I7
tp428
a(I77
I2
I0
g283
I7
tp429
a(I78
I8
F0.25
g285
I7
tp430
a(I86
I9
I0
S'own'
p431
I7
tp432
a(I87
I5
F0.125
S'first'
p433
I7
tp434
a(I90
I6
I0
S'earlier'
p435
I7
tp436
a(I98
I8
F-0.5
S'poor'
p437
I7
tp438
a(I99
I5
F0.25
g287
I7
tp439
a(I12
I56
F1.0
S'better'
p440
I0
tp441
a(I13
I17
I0
g386
I0
tp442
a(I35
I4
I0
g275
I0
tp443
a(I39
I2
F-0.625
S'bad'
p444
I0
tp445
a(I58
I2
F-0.25
S'past'
p446
I0
tp447
a(I66
I64
F0.375
S'newer'
p448
I0
tp449
a(I84
I2
F0.375
S'new'
p450
I0
tp451
a(I92
I63
I0
S'earlier'
p452
I0
tp453
as(S'sim'
p454
S'card'
p455
tp456
(lp457
(I19
I4
I0
S'local'
p458
I0
tp459
a(I24
I1
F0.125
S'able'
p460
I0
tp461
a(I60
I2
I0
S'same'
p462
I0
tp463
as(S'micro'
p464
S'usb'
p465
tp466
(lp467
(I66
I31
I0
S'internal'
p468
I0
tp469
a(I66
I31
I0
S'external'
p470
I0
tp471
as(S'a'
p472
S'samsung'
p473
S'galaxy'
p474
tp475
(lp476
(I9
I14
F1.0
g269
I0
tp477
a(I13
I15
F-0.5
g271
I0
tp478
a(I13
I21
I0
g273
I0
tp479
a(I35
I4
I0
g275
I0
tp480
a(I55
I0
F0.5
g277
I0
tp481
a(I66
I45
F0.25
g279
I0
tp482
a(I71
I3
I0
g281
I0
tp483
a(I77
I2
I0
g283
I0
tp484
a(I78
I8
F0.25
g285
I0
tp485
a(I99
I5
F0.25
g287
I0
tp486
as(S'international'
p487
S'version'
p488
tp489
(lp490
(I4
I1
F-0.5
S'international'
p491
I0
tp492
a(I7
I100
F-0.5
S'international'
p493
I0
tp494
a(I7
I102
F-0.5
S'international'
p495
I0
tp496
a(I18
I76
F-0.5
S'international'
p497
I0
tp498
a(I22
I7
F-0.5
S'international'
p499
I0
tp500
a(I23
I7
I0
S'real'
p501
I0
tp502
a(I23
I7
F-0.5
S'international'
p503
I0
tp504
a(I24
I1
F-0.5
S'international'
p505
I0
tp506
a(I33
I1
I0
S'spanish'
p507
I0
tp508
a(I46
I3
F-0.5
S'international'
p509
I0
tp510
a(I64
I2
F-0.5
S'international'
p511
I0
tp512
a(I67
I9
F-0.5
S'international'
p513
I0
tp514
a(I67
I9
I0
S'least'
p515
I0
tp516
a(I67
I9
F0.625
S'aware'
p517
I0
tp518
a(I79
I3
F-0.5
S'complaint'
p519
I0
tp520
a(I79
I3
F-0.5
S'international'
p521
I0
tp522
a(I81
I0
I0
S'korean'
p523
I0
tp524
a(I87
I10
F-0.5
S'international'
p525
I0
tp526
a(I87
I10
I0
S'basic'
p527
I0
tp528
a(I87
I10
F0.5
S'possible'
p529
I0
tp530
a(I97
I3
F-0.5
S'international'
p531
I0
tp532
a(I98
I30
F-0.5
S'international'
p533
I0
tp534
as(S'smartphone'
p535
tp536
(lp537
(I13
I64
F0.125
S'first'
p538
I0
tp539
a(I13
I64
I0
S'more'
p540
I0
tp541
a(I13
I64
F0.125
S'capable'
p542
I0
tp543
a(I30
I3
I0
S'real'
p544
I0
tp545
a(I41
I1
F1.0
S'best'
p546
I0
tp547
a(I48
I1
F1.0
S'best'
p548
I0
tp549
a(I64
I7
I0
S'real'
p550
I0
tp551
a(I66
I8
F0.625
S'perfect'
p552
I0
tp553
a(I68
I2
F1.0
S'good'
p554
I0
tp555
a(I80
I5
F0.25
S'independent'
p556
I0
tp557
a(I96
I7
F0.875
S'nice'
p558
I0
tp559
a(I96
I9
F1.0
S'best'
p560
I0
tp561
a(I98
I1
I0
S'android'
p562
I0
tp563
as(S'international'
p564
S'warranty'
p565
tp566
(lp567
(I10
I29
F-0.5
S'international'
p568
I0
tp569
a(I10
I30
F-0.5
S'international'
p570
I0
tp571
a(I18
I39
F0.5
S'careful'
p572
I0
tp573
a(I18
I39
F-0.5
S'international'
p574
I0
tp575
a(I18
I67
F-0.5
S'international'
p576
I0
tp577
a(I18
I80
F-0.5
S'international'
p578
I0
tp579
a(I18
I80
F0.375
S'extra'
p580
I0
tp581
a(I28
I21
F0.375
S'extra'
p582
I0
tp583
a(I28
I44
F-0.5
S'international'
p584
I0
tp585
a(I42
I3
F-0.5
S'international'
p586
I0
tp587
a(I42
I3
F0.75
S'due'
p588
I0
tp589
a(I70
I37
F-0.5
S'international'
p590
I0
tp591
a(I71
I19
F-0.5
S'international'
p592
I0
tp593
a(I71
I19
F-0.5
S'international'
p594
I0
tp595
a(I72
I1
F-0.5
S'international'
p596
I0
tp597
a(I78
I1
F-0.5
S'international'
p598
I0
tp599
a(I86
I1
F-0.5
S'international'
p600
I0
tp601
a(I86
I10
F-0.5
S'international'
p602
I0
tp603
a(I92
I37
F-0.5
S'international'
p604
I0
tp605
a(I103
I15
F-0.5
S'international'
p606
I0
tp607
a(I10
I29
F-0.5
g568
I2
tp608
a(I10
I30
F-0.5
g570
I2
tp609
a(I17
I15
F0.125
S'valid'
p610
I2
tp611
a(I18
I39
F0.5
g572
I2
tp612
a(I18
I39
F-0.5
g574
I2
tp613
a(I18
I67
F-0.5
g576
I2
tp614
a(I18
I80
F-0.5
g578
I2
tp615
a(I18
I80
F0.375
g580
I2
tp616
a(I28
I44
F-0.5
g584
I2
tp617
a(I42
I3
F-0.5
g586
I2
tp618
a(I42
I3
F0.75
g588
I2
tp619
a(I48
I8
F0.375
S'extra'
p620
I2
tp621
a(I60
I20
F0.125
S'valid'
p622
I2
tp623
a(I70
I37
F-0.5
g590
I2
tp624
a(I71
I19
F-0.5
g592
I2
tp625
a(I71
I19
F-0.5
g594
I2
tp626
a(I72
I1
F-0.5
g596
I2
tp627
a(I78
I1
F-0.5
g598
I2
tp628
a(I86
I1
F-0.5
g600
I2
tp629
a(I86
I10
F-0.5
g602
I2
tp630
a(I92
I37
F-0.5
g604
I2
tp631
a(I103
I15
F-0.5
g606
I2
tp632
as(S'wifi'
p633
tp634
(lp635
(I9
I13
F1.0
S'good'
p636
I0
tp637
a(I50
I23
F1.0
S'good'
p638
I0
tp639
a(I76
I49
F1.0
S'good'
p640
I0
tp641
a(I76
I49
I0
S'fast'
p642
I0
tp643
as(S'apps'
p644
tp645
(lp646
(I7
I42
I0
S'more'
p647
I0
tp648
a(I7
I42
I0
S'slower'
p649
I0
tp650
a(I7
I44
I0
S'many'
p651
I0
tp652
a(I7
I62
I0
S'many'
p653
I0
tp654
a(I7
I63
I0
S'many'
p655
I0
tp656
a(I7
I77
F0.875
S'happy'
p657
I0
tp658
a(I13
I20
I0
S'many'
p659
I0
tp660
a(I13
I58
F0.375
S'available'
p661
I0
tp662
a(I18
I68
I0
S'stable'
p663
I0
tp664
a(I18
I68
I0
S'many'
p665
I0
tp666
a(I19
I8
I0
S'german'
p667
I0
tp668
a(I66
I82
I0
S'android'
p669
I0
tp670
a(I66
I82
I0
S'great'
p671
I0
tp672
a(I90
I10
F-0.5
S'certain'
p673
I0
tp674
a(I97
I16
F0.625
S'accessible'
p675
I0
tp676
as(S'amazon'
p677
tp678
(lp679
(I2
I32
F0.625
S'responsible'
p680
I13
tp681
a(I2
I36
F-0.25
S'direct'
p682
I13
tp683
a(I2
I36
F-0.625
S'other'
p684
I13
tp685
a(I28
I66
I0
S'general'
p686
I13
tp687
a(I71
I4
F0.125
S'usual'
p688
I13
tp689
a(I76
I13
I0
S'great'
p690
I13
tp691
a(I81
I3
F0.625
S'responsible'
p692
I13
tp693
a(I84
I3
I-100
S'protected.-'
p694
I13
tp695
as.