(dp0
(S'headphone'
p1
S'jack'
p2
tp3
(lp4
(I216
I14
F-0.375
S'simple'
p5
tp6
as(S'motorola'
p7
tp8
(lp9
(I14
I0
F-0.25
S'disappointed'
p10
tp11
a(I59
I1
F-0.25
S'google'
p12
tp13
a(I62
I7
I0
S'fast'
p14
tp15
a(I96
I2
F-0.25
S'low'
p16
tp17
a(I96
I2
F-0.125
S'behold'
p18
tp19
a(I109
I26
I0
S'few'
p20
tp21
a(I109
I26
F-0.625
S'other'
p22
tp23
a(I109
I26
F0.5
S'characteristic'
p24
tp25
a(I112
I3
F0.5
S'hopeful'
p26
tp27
a(I128
I5
I0
S'update'
p28
tp29
a(I128
I5
I0
S'android'
p30
tp31
a(I132
I25
I0
S'many'
p32
tp33
a(I132
I28
F-0.625
S'other'
p34
tp35
a(I152
I17
F0.875
S'happy'
p36
tp37
a(I153
I18
F0.125
S'practical'
p38
tp39
a(I153
I18
F0.25
S'financial'
p40
tp41
a(I153
I18
I0
S'minded'
p42
tp43
a(I181
I6
I0
S'standard'
p44
tp45
a(I181
I8
F0.125
S'capable'
p46
tp47
a(I199
I5
F-0.75
S'wrong'
p48
tp49
a(I199
I20
F-0.5
S'poor'
p50
tp51
a(I199
I20
I0
S'least'
p52
tp53
a(I216
I17
I0
S'old'
p54
tp55
a(I245
I0
F1.0
S'good'
p56
tp57
a(I255
I39
F0.125
S'solid'
p58
tp59
a(I275
I4
I0
S'old'
p60
tp61
a(I294
I6
F1.0
S'good'
p62
tp63
a(I302
I15
F-0.625
S'other'
p64
tp65
a(I310
I1
F-0.75
S'worse'
p66
tp67
a(I310
I1
F0.125
S'first'
p68
tp69
a(I327
I0
F0.5
S'second'
p70
tp71
a(I328
I16
F0.625
S'logical'
p72
tp73
a(I328
I16
I0
S'few'
p74
tp75
a(I328
I25
F-0.25
S'disappointed'
p76
tp77
a(I334
I36
F0.125
S'last'
p78
tp79
a(I377
I4
F0.875
S'happy'
p80
tp81
a(I420
I10
F-0.875
S'awful'
p82
tp83
as(S'motorola'
p84
S'triumph'
p85
tp86
(lp87
(I34
I9
F-0.875
S'trouble'
p88
tp89
a(I34
I29
F-0.375
S'serious'
p90
tp91
a(I59
I1
F-0.25
g12
tp92
a(I62
I7
I0
g14
tp93
a(I108
I5
I0
S'cable'
p94
tp95
a(I132
I28
F-0.625
g34
tp96
a(I152
I17
F0.875
g36
tp97
a(I153
I18
F0.125
g38
tp98
a(I153
I18
F0.25
g40
tp99
a(I153
I18
I0
g42
tp100
a(I168
I2
I0
S'january'
p101
tp102
a(I168
I2
I0
S'june'
p103
tp104
a(I168
I36
F-0.75
S'dead'
p105
tp106
a(I181
I2
F1.0
S'good'
p107
tp108
a(I199
I5
F-0.75
g48
tp109
a(I294
I6
F1.0
g62
tp110
a(I296
I21
F-0.125
S'present'
p111
tp112
a(I302
I5
F-0.25
S'thin'
p113
tp114
a(I302
I11
I0
S'standard'
p115
tp116
a(I302
I15
F-0.625
g64
tp117
a(I304
I0
F0.625
S'superior'
p118
tp119
a(I327
I0
F0.5
g70
tp120
a(I328
I16
F0.625
g72
tp121
a(I328
I16
I0
g74
tp122
a(I328
I25
F-0.25
g76
tp123
a(I334
I36
F0.125
g78
tp124
a(I374
I5
F-0.625
S'other'
p125
tp126
a(I377
I4
F0.875
g80
tp127
as(S'nice'
p128
tp129
(lp130
(I7
I1
I0
S'large'
p131
tp132
a(I155
I3
I0
S'big'
p133
tp134
as(S'reviews'
p135
tp136
(lp137
(I33
I0
F-0.625
S'bad'
p138
tp139
a(I33
I0
F1.0
S'good'
p140
tp141
a(I33
I0
F-0.75
S'wrong'
p142
tp143
a(I77
I2
F1.0
S'good'
p144
tp145
a(I101
I0
F0.625
S'positive'
p146
tp147
a(I112
I0
I0
S'many'
p148
tp149
a(I112
I0
F-0.875
S'negative'
p150
tp151
a(I132
I26
I0
S'many'
p152
tp153
a(I159
I3
F-0.625
S'unlike'
p154
tp155
a(I166
I14
F0.625
S'positive'
p156
tp157
a(I168
I0
F-0.875
S'negative'
p158
tp159
a(I169
I2
F-0.875
S'negative'
p160
tp161
a(I177
I49
I0
S'android'
p162
tp163
a(I177
I54
I0
S'most'
p164
tp165
a(I177
I54
F0.25
S'read'
p166
tp167
a(I182
I7
F-0.875
S'negative'
p168
tp169
a(I193
I7
F-0.875
S'negative'
p170
tp171
a(I207
I1
F-0.625
S'other'
p172
tp173
a(I209
I2
F1.0
S'good'
p174
tp175
a(I209
I5
F1.0
S'good'
p176
tp177
a(I213
I0
F-0.875
S'negative'
p178
tp179
a(I247
I0
F-0.875
S'negative'
p180
tp181
a(I264
I1
F-0.625
S'other'
p182
tp183
a(I271
I2
I0
S'many'
p184
tp185
a(I271
I2
I0
S'many'
p186
tp187
a(I302
I16
I0
S'more'
p188
tp189
a(I312
I0
F-0.875
S'negative'
p190
tp191
a(I312
I1
F-0.875
S'negative'
p192
tp193
a(I333
I8
F-0.875
S'negative'
p194
tp195
a(I347
I6
F-0.625
S'other'
p196
tp197
a(I378
I12
F-0.625
S'other'
p198
tp199
a(I378
I12
F-0.875
S'negative'
p200
tp201
a(I401
I0
F-0.625
S'bad'
p202
tp203
a(I413
I23
F0.625
S'positive'
p204
tp205
a(I420
I6
F-0.625
S'other'
p206
tp207
a(I425
I25
F0.25
S'professional'
p208
tp209
as(S'touch'
p210
tp211
(lp212
(I90
I16
F1.0
S'good'
p213
tp214
a(I155
I5
F0.25
S'responsive'
p215
tp216
a(I167
I0
F1.0
S'best'
p217
tp218
a(I172
I4
I0
S'soft'
p219
tp220
a(I179
I14
F-0.125
S'overall'
p221
tp222
a(I278
I6
F-0.5
S'poor'
p223
tp224
a(I309
I7
I0
S'fluid'
p225
tp226
a(I311
I52
I0
S'initial'
p227
tp228
a(I357
I0
I0
S'big'
p229
tp230
a(I408
I7
F-0.5
S'sudden'
p231
tp232
a(I420
I1
F1.0
S'good'
p233
tp234
a(I422
I4
F0.125
S'colorful'
p235
tp236
as(S'virgin'
p237
S'mobile'
p238
S'customer'
p239
tp240
(lp241
(I38
I19
F-0.5
S'infallible'
p242
tp243
a(I41
I9
I0
S'exclusive'
p244
tp245
a(I90
I74
F0.5
S'technical'
p246
tp247
a(I206
I13
F-0.5
S'poor'
p248
tp249
a(I260
I0
F0.875
S'happy'
p250
tp251
a(I310
I2
F-0.875
S'worst'
p252
tp253
a(I328
I16
I0
S'mobile'
p254
tp255
a(I329
I1
I0
S'mobile'
p256
tp257
a(I329
I1
I0
S'such'
p258
tp259
a(I329
I1
F-0.5
S'poor'
p260
tp261
a(I349
I0
F-0.75
S'little'
p262
tp263
as(S'quality'
p264
tp265
(lp266
(I2
I4
F1.0
S'good'
p267
tp268
a(I36
I16
I0
S'same'
p269
tp270
a(I36
I16
I0
S'sprint'
p271
tp272
a(I39
I4
F1.0
S'good'
p273
tp274
a(I60
I2
F-0.5
S'call'
p275
tp276
a(I72
I1
F-0.5
S'poor'
p277
tp278
a(I81
I16
F1.0
S'good'
p279
tp280
a(I109
I5
F1.0
S'best'
p281
tp282
a(I109
I5
F1.0
S'better'
p283
tp284
a(I109
I15
F1.0
S'good'
p285
tp286
a(I109
I16
F1.0
S'good'
p287
tp288
a(I114
I3
F-0.5
S'poor'
p289
tp290
a(I133
I3
F1.0
S'good'
p291
tp292
a(I135
I3
F1.0
S'better'
p293
tp294
a(I142
I8
F1.0
S'good'
p295
tp296
a(I155
I7
F0.875
S'nice'
p297
tp298
a(I178
I3
I0
S'great'
p299
tp300
a(I181
I10
F0.625
S'acceptable'
p301
tp302
a(I199
I6
F-0.625
S'bad'
p303
tp304
a(I219
I16
I0
S'high'
p305
tp306
a(I222
I15
F-0.375
S'serious'
p307
tp308
a(I234
I13
F-0.75
S'worse'
p309
tp310
a(I248
I13
F-0.5
S'poor'
p311
tp312
a(I252
I12
F0.75
S'worth'
p313
tp314
a(I256
I0
F-0.5
S'poor'
p315
tp316
a(I273
I19
I0
S'great'
p317
tp318
a(I281
I1
I0
S'same'
p319
tp320
a(I302
I9
I0
S'high'
p321
tp322
a(I337
I1
F1.0
S'best'
p323
tp324
a(I342
I11
F0.625
S'superior'
p325
tp326
a(I364
I0
F1.0
S'good'
p327
tp328
a(I389
I7
F-0.375
S'top'
p329
tp330
a(I416
I23
F0.125
S'solid'
p331
tp332
a(I438
I8
I0
S'normal'
p333
tp334
a(I438
I13
F1.0
S'good'
p335
tp336
a(I439
I3
F-0.5
S'poor'
p337
tp338
a(I444
I0
F0.25
S'responsive'
p339
tp340
a(I444
I0
I0
S'high'
p341
tp342
as(S'than'
p343
S'lg'
p344
S'optimus'
p345
tp346
(lp347
(I95
I12
I0
S'more'
p348
tp349
a(I258
I6
F-0.75
S'worse'
p350
tp351
a(I301
I4
F-0.375
S'smoother'
p352
tp353
a(I420
I9
F-0.75
S'worse'
p354
tp355
as(S'and'
p356
S'virgin'
p357
S'mobile'
p358
tp359
(lp360
(I17
I0
F1.0
S'good'
p361
tp362
a(I38
I19
F-0.5
g242
tp363
a(I39
I2
F-0.625
S'other'
p364
tp365
a(I63
I2
I0
S'update'
p366
tp367
a(I71
I0
I0
S'android'
p368
tp369
a(I95
I12
F-0.625
S'other'
p370
tp371
a(I109
I1
I0
S'prepaid'
p372
tp373
a(I118
I5
I0
S'old'
p374
tp375
a(I125
I7
I0
S'mobile'
p376
tp377
a(I140
I2
F-0.75
S'wrong'
p378
tp379
a(I149
I0
F-0.625
S'bad'
p380
tp381
a(I153
I7
I0
S'great'
p382
tp383
a(I181
I9
F0.125
S'indicative'
p384
tp385
a(I214
I13
I0
S'update'
p386
tp387
a(I215
I0
F-0.625
S'other'
p388
tp389
a(I216
I1
I0
S'traditional'
p390
tp391
a(I216
I1
F1.0
S'good'
p392
tp393
a(I243
I2
F0.25
S'familiar'
p394
tp395
a(I302
I13
F-0.625
S'free'
p396
tp397
a(I328
I16
I0
g254
tp398
a(I332
I0
F0.375
S'available'
p399
tp400
a(I363
I4
I0
S'old'
p401
tp402
a(I363
I32
F0.375
S'new'
p403
tp404
a(I401
I0
I0
S'mobile'
p405
tp406
as(S'sd'
p407
S'card'
p408
tp409
(lp410
(I123
I0
I0
S'full'
p411
tp412
a(I155
I10
I0
S'underneath'
p413
tp414
a(I211
I0
F-0.625
S'bad'
p415
tp416
a(I211
I5
I0
S'different'
p417
tp418
a(I311
I32
I0
S'faster'
p419
tp420
a(I366
I0
F0.25
S'bigger'
p421
tp422
as(S'contract'
p423
tp424
(lp425
(I79
I1
I0
S'current'
p426
tp427
a(I90
I50
F-0.625
S'other'
p428
tp429
a(I90
I50
F-0.625
S'free'
p430
tp431
a(I90
I53
F-0.625
S'free'
p432
tp433
a(I191
I0
I0
S'more'
p434
tp435
a(I223
I3
F0.375
S'much'
p436
tp437
a(I248
I0
F-0.25
S'cheaper'
p438
tp439
a(I337
I2
F1.0
S'best'
p440
tp441
a(I356
I0
I0
S'most'
p442
tp443
a(I405
I2
F-0.625
S'free'
p444
tp445
as(S'customer'
p446
tp447
(lp448
(I67
I1
F0.5
S'loyal'
p449
tp450
a(I90
I74
F0.5
g246
tp451
a(I168
I1
F-0.5
S'poor'
p452
tp453
a(I184
I5
F1.0
S'good'
p454
tp455
a(I206
I13
F-0.5
g248
tp456
a(I221
I0
F0.875
S'happy'
p457
tp458
a(I222
I10
F0.25
S'executive'
p459
tp460
a(I300
I13
I0
S'great'
p461
tp462
a(I310
I2
F-0.875
g252
tp463
a(I316
I4
F0.5
S'told'
p464
tp465
a(I328
I28
F0.5
S'possible'
p466
tp467
a(I329
I1
I0
g256
tp468
a(I329
I1
I0
g258
tp469
a(I329
I1
F-0.5
g260
tp470
a(I349
I0
F-0.75
g262
tp471
a(I384
I3
F-0.5
S'poor'
p472
tp473
as(S'ice'
p474
S'cream'
p475
tp476
(lp477
(I94
I1
I0
S'android'
p478
tp479
a(I418
I4
I0
S'android'
p480
tp481
as(S'optimus'
p482
S'v'
p483
tp484
(lp485
(I71
I5
F1.0
S'best'
p486
tp487
a(I71
I19
I0
S'big'
p488
tp489
a(I82
I0
F0.875
S'happy'
p490
tp491
a(I95
I12
F0.5
S'tall'
p492
tp493
a(I112
I4
F0.375
S'reliable'
p494
tp495
a(I123
I0
F-0.5
S'sure'
p496
tp497
a(I146
I12
F-0.5
S'less'
p498
tp499
a(I146
I12
F0.5
S'second'
p500
tp501
a(I193
I4
F0.375
S'much'
p502
tp503
a(I199
I5
I0
S'old'
p504
tp505
a(I278
I7
F0.5
S'true'
p506
tp507
a(I278
I27
I0
S'same'
p508
tp509
a(I300
I10
F-0.125
S'overall'
p510
tp511
a(I301
I34
F0.125
S'last'
p512
tp513
a(I301
I40
F-0.75
S'worse'
p514
tp515
a(I311
I22
F1.0
S'good'
p516
tp517
a(I311
I26
F0.75
S'worth'
p518
tp519
a(I319
I9
F0.75
S'due'
p520
tp521
a(I393
I1
F0.25
S'larger'
p522
tp523
a(I393
I6
F-0.375
S'smaller'
p524
tp525
a(I393
I6
F0.625
S'easier'
p526
tp527
a(I441
I2
I0
S'anywhere'
p528
tp529
as(S'charge'
p530
tp531
(lp532
(I25
I6
I0
S'full'
p533
tp534
a(I36
I10
F-0.75
S'single'
p535
tp536
a(I64
I9
F0.5
S'careful'
p537
tp538
a(I64
I9
I0
S'full'
p539
tp540
a(I124
I2
F0.375
S'new'
p541
tp542
a(I205
I62
I0
S'full'
p543
tp544
a(I258
I4
F-0.125
S'mine'
p545
tp546
a(I258
I4
I0
S'full'
p547
tp548
a(I286
I2
F-0.25
S'plugged'
p549
tp550
a(I301
I38
I0
S'full'
p551
tp552
a(I301
I39
I0
S'full'
p553
tp554
a(I323
I0
F-0.75
S'single'
p555
tp556
as(S'to'
p557
S'lg'
p558
S'optimus'
p559
tp560
(lp561
(I79
I40
F-0.375
S'black'
p562
tp563
a(I92
I13
F0.875
S'happy'
p564
tp565
a(I95
I12
I0
g348
tp566
a(I104
I15
I0
S'least'
p567
tp568
a(I171
I3
F0.5
S'true'
p569
tp570
a(I209
I1
F0.875
S'happy'
p571
tp572
a(I258
I6
F-0.75
g350
tp573
a(I304
I2
F0.5
S'second'
p574
tp575
a(I393
I1
F0.25
g522
tp576
as(S'bought'
p577
tp578
(lp579
(I205
I60
F-0.75
S'difficult'
p580
tp581
a(I374
I2
F0.125
S'first'
p582
tp583
as(S'optimus'
p584
tp585
(lp586
(I71
I19
I0
g488
tp587
a(I112
I4
F0.375
g494
tp588
a(I123
I0
F-0.5
g496
tp589
a(I166
I3
F0.25
S'bigger'
p590
tp591
a(I193
I4
F0.375
g502
tp592
a(I199
I5
I0
g504
tp593
a(I278
I7
F0.5
g506
tp594
a(I278
I27
I0
g508
tp595
a(I300
I10
F-0.125
g510
tp596
a(I301
I34
F0.125
g512
tp597
a(I301
I40
F-0.75
g514
tp598
a(I311
I22
F1.0
g516
tp599
a(I319
I8
I0
S'fast'
p600
tp601
a(I319
I9
F0.75
g520
tp602
a(I393
I1
F0.25
g522
tp603
a(I393
I6
F-0.375
g524
tp604
a(I393
I6
F0.625
g526
tp605
a(I412
I8
I0
S'stable'
p606
tp607
a(I441
I2
I0
g528
tp608
as(S'good'
p609
tp610
(lp611
(I216
I11
I0
S'quick'
p612
tp613
as(S'card'
p614
tp615
(lp616
(I123
I0
I0
g411
tp617
a(I155
I10
I0
g413
tp618
as(S'virgin'
p619
S'mobile'
p620
S'service'
p621
tp622
(lp623
(I41
I9
I0
g244
tp624
a(I106
I4
I0
S'mobile'
p625
tp626
a(I109
I1
I0
g372
tp627
a(I109
I36
F0.625
S'acceptable'
p628
tp629
a(I128
I3
I0
S'mobile'
p630
tp631
a(I179
I3
F-0.625
S'other'
p632
tp633
a(I179
I3
I0
S'large'
p634
tp635
a(I179
I3
I0
S'mobile'
p636
tp637
a(I181
I9
F0.125
g384
tp638
a(I193
I3
F0.375
S'new'
p639
tp640
a(I204
I0
I0
S'mobile'
p641
tp642
a(I226
I4
F-0.625
S'free'
p643
tp644
a(I226
I4
F-0.625
S'bad'
p645
tp646
a(I226
I4
F-0.625
S'free'
p647
tp648
a(I235
I4
I0
S'identical'
p649
tp650
a(I328
I16
I0
g254
tp651
a(I348
I3
F1.0
S'good'
p652
tp653
a(I364
I0
I0
S'great'
p654
tp655
a(I378
I9
I0
S'great'
p656
tp657
as(S'love'
p658
tp659
(lp660
(I26
I7
F1.0
S'love'
p661
tp662
as(S'customer'
p663
S'service'
p664
tp665
(lp666
(I31
I5
F0.125
S'first'
p667
tp668
a(I90
I74
F0.5
g246
tp669
a(I168
I1
F-0.5
g452
tp670
a(I184
I5
F1.0
g454
tp671
a(I206
I13
F-0.5
g248
tp672
a(I222
I10
F0.25
g459
tp673
a(I300
I13
I0
g461
tp674
a(I310
I2
F-0.875
g252
tp675
a(I329
I1
I0
g256
tp676
a(I329
I1
I0
g258
tp677
a(I329
I1
F-0.5
g260
tp678
a(I349
I0
F-0.75
g262
tp679
a(I384
I3
F-0.5
g472
tp680
as(S'wifi'
p681
tp682
(lp683
(I34
I21
F0.125
S'able'
p684
tp685
a(I34
I22
I0
S'own'
p686
tp687
a(I37
I1
I0
S'great'
p688
tp689
a(I151
I5
I0
S'buggy'
p690
tp691
a(I250
I2
F0.625
S'easy'
p692
tp693
as(S'from'
p694
S'virgin'
p695
S'mobile'
p696
tp697
(lp698
(I95
I12
F-0.625
g370
tp699
a(I332
I0
F0.375
g399
tp700
as(S'on'
p701
S'virgin'
p702
S'mobile'
p703
tp704
(lp705
(I17
I0
F1.0
g361
tp706
a(I37
I17
I0
S'mobile'
p707
tp708
a(I39
I2
F-0.625
g364
tp709
a(I41
I9
I0
g244
tp710
a(I54
I0
I0
S'mobile'
p711
tp712
a(I63
I2
I0
g366
tp713
a(I75
I2
F-0.875
S'stuck'
p714
tp715
a(I95
I12
F-0.625
g370
tp716
a(I97
I3
F1.0
S'best'
p717
tp718
a(I118
I5
I0
g374
tp719
a(I125
I7
I0
g376
tp720
a(I128
I3
I0
g630
tp721
a(I140
I2
F-0.75
g378
tp722
a(I146
I7
F-0.125
S'virgin'
p723
tp724
a(I149
I0
F-0.625
g380
tp725
a(I181
I9
F0.125
g384
tp726
a(I193
I1
I0
S'mobile'
p727
tp728
a(I204
I0
I0
g641
tp729
a(I214
I13
I0
g386
tp730
a(I215
I0
F-0.625
g388
tp731
a(I216
I1
I0
g390
tp732
a(I216
I1
F1.0
g392
tp733
a(I222
I6
F0.25
S'refurbished'
p734
tp735
a(I243
I2
F0.25
g394
tp736
a(I264
I18
I0
S'mobile'
p737
tp738
a(I302
I13
F-0.625
g396
tp739
a(I328
I16
I0
g254
tp740
a(I332
I0
F0.375
g399
tp741
a(I362
I13
F-0.5
S'sure'
p742
tp743
a(I363
I4
I0
g401
tp744
a(I363
I15
F1.0
S'best'
p745
tp746
a(I363
I32
F0.375
g403
tp747
a(I395
I10
I0
S'normal'
p748
tp749
a(I395
I15
F-0.75
S'stupid'
p750
tp751
a(I401
I0
I0
g405
tp752
as(S'fast'
p753
tp754
(lp755
(I67
I4
I0
S'such'
p756
tp757
a(I90
I1
I0
S'very'
p758
tp759
a(I190
I2
I0
S'real'
p760
tp761
a(I257
I2
F-0.125
S'super'
p762
tp763
a(I311
I29
F-0.125
S'super'
p764
tp765
as(S'times'
p766
tp767
(lp768
(I9
I7
I0
S'most'
p769
tp770
a(I21
I7
I0
S'few'
p771
tp772
a(I39
I4
I0
S'faster'
p773
tp774
a(I41
I13
I0
S'quick'
p775
tp776
a(I47
I7
I0
S'many'
p777
tp778
a(I56
I5
F-0.625
S'other'
p779
tp780
a(I56
I13
I0
S'great'
p781
tp782
a(I81
I17
I0
S'few'
p783
tp784
a(I109
I34
F-0.75
S'unreliable'
p785
tp786
a(I122
I19
I0
S'few'
p787
tp788
a(I134
I4
I0
S'few'
p789
tp790
a(I134
I5
I0
S'few'
p791
tp792
a(I137
I5
F-0.625
S'other'
p793
tp794
a(I137
I10
F-0.625
S'other'
p795
tp796
a(I137
I10
F0.75
S'worth'
p797
tp798
a(I169
I6
I0
S'few'
p799
tp800
a(I177
I20
I0
S'most'
p801
tp802
a(I177
I47
F0.5
S'second'
p803
tp804
a(I193
I24
F0.75
S'due'
p805
tp806
a(I200
I1
I0
S'many'
p807
tp808
a(I200
I2
I0
S'many'
p809
tp810
a(I211
I1
F-0.625
S'other'
p811
tp812
a(I229
I3
I0
S'few'
p813
tp814
a(I248
I3
I0
S'least'
p815
tp816
a(I258
I7
I0
S'few'
p817
tp818
a(I275
I6
F-0.125
S'slow'
p819
tp820
a(I283
I17
I0
S'few'
p821
tp822
a(I283
I17
F1.0
S'good'
p823
tp824
a(I300
I3
F-0.625
S'other'
p825
tp826
a(I311
I37
I0
S'few'
p827
tp828
a(I312
I6
F-0.5
S'less'
p829
tp830
a(I353
I8
I0
S'many'
p831
tp832
a(I373
I18
I0
S'few'
p833
tp834
a(I373
I25
F-0.625
S'other'
p835
tp836
a(I408
I6
I0
S'many'
p837
tp838
a(I408
I15
I0
S'many'
p839
tp840
a(I416
I26
I0
S'many'
p841
tp842
a(I416
I26
F0.375
S'loud'
p843
tp844
a(I444
I0
F-0.625
S'other'
p845
tp846
as(S'problem'
p847
tp848
(lp849
(I38
I17
I0
S'common'
p850
tp851
a(I44
I1
I0
S'big'
p852
tp853
a(I72
I9
F-0.375
S'small'
p854
tp855
a(I82
I1
I0
S'real'
p856
tp857
a(I106
I3
I0
S'ran'
p858
tp859
a(I120
I1
I0
S'only'
p860
tp861
a(I131
I0
I0
S'big'
p862
tp863
a(I160
I4
F0.625
S'easy'
p864
tp865
a(I170
I7
I0
S'same'
p866
tp867
a(I183
I7
I0
S'same'
p868
tp869
a(I205
I65
F0.625
S'major'
p870
tp871
a(I208
I1
I0
S'only'
p872
tp873
a(I209
I5
I0
S'same'
p874
tp875
a(I219
I13
F-0.5
S'sure'
p876
tp877
a(I248
I3
I0
S'next'
p878
tp879
a(I250
I14
I0
S'same'
p880
tp881
a(I294
I16
I0
S'same'
p882
tp883
a(I296
I2
F0.375
S'new'
p884
tp885
a(I306
I1
I0
S'big'
p886
tp887
a(I331
I10
I0
S'big'
p888
tp889
a(I332
I0
F-0.375
S'dust'
p890
tp891
a(I339
I2
I0
S'big'
p892
tp893
a(I362
I1
F0.75
S'due'
p894
tp895
a(I398
I3
I0
S'big'
p896
tp897
a(I416
I2
F0.25
S'biggest'
p898
tp899
a(I420
I13
F0.125
S'practical'
p900
tp901
a(I421
I21
I0
S'only'
p902
tp903
a(I421
I21
F-0.375
S'top'
p904
tp905
a(I425
I3
F-0.375
S'serious'
p906
tp907
a(I435
I20
F-0.75
S'minor'
p908
tp909
a(I436
I4
I0
S'only'
p910
tp911
a(I436
I4
I0
S'real'
p912
tp913
a(I437
I4
F0.75
S'due'
p914
tp915
as(S'triumph'
p916
tp917
(lp918
(I9
I12
F0.875
S'happy'
p919
tp920
a(I34
I9
F-0.875
g88
tp921
a(I34
I20
I0
S'great'
p922
tp923
a(I34
I28
I0
S'great'
p924
tp925
a(I34
I29
F-0.375
g90
tp926
a(I79
I3
F-0.25
S'thin'
p927
tp928
a(I81
I9
F0.75
S'worth'
p929
tp930
a(I108
I5
I0
g94
tp931
a(I123
I2
F-0.625
S'other'
p932
tp933
a(I162
I2
I0
S'only'
p934
tp935
a(I168
I2
I0
g101
tp936
a(I168
I2
I0
g103
tp937
a(I168
I36
F-0.75
g105
tp938
a(I177
I25
F0.625
S'easier'
p939
tp940
a(I181
I2
F1.0
g107
tp941
a(I193
I12
I0
S'fast'
p942
tp943
a(I193
I23
I0
S'big'
p944
tp945
a(I226
I3
F-0.125
S'mine'
p946
tp947
a(I233
I0
F1.0
S'best'
p948
tp949
a(I271
I2
F1.0
S'good'
p950
tp951
a(I271
I2
F-0.625
S'bad'
p952
tp953
a(I273
I17
F-0.25
S'potential'
p954
tp955
a(I277
I2
F0.125
S'able'
p956
tp957
a(I294
I4
F0.5
S'clear'
p958
tp959
a(I296
I21
F-0.125
g111
tp960
a(I302
I5
F-0.25
g113
tp961
a(I302
I11
I0
g115
tp962
a(I304
I0
F0.625
g118
tp963
a(I311
I30
F-0.625
S'average'
p964
tp965
a(I313
I2
I0
S'great'
p966
tp967
a(I363
I34
I0
S'faster'
p968
tp969
a(I373
I12
F-0.5
S'less'
p970
tp971
a(I374
I5
F-0.625
g125
tp972
a(I412
I6
F0.125
S'flaky'
p973
tp974
a(I412
I12
F-0.75
S'worse'
p975
tp976
a(I417
I9
F0.5
S'personal'
p977
tp978
a(I420
I5
F0.875
S'nice'
p979
tp980
a(I420
I6
F-0.25
S'inexpensive'
p981
tp982
a(I420
I13
I0
S'slower'
p983
tp984
a(I431
I9
F0.5
S'second'
p985
tp986
as(S'cyber'
p987
S'monday'
p988
tp989
(lp990
(I152
I0
I0
S'special'
p991
tp992
as(S'price'
p993
tp994
(lp995
(I6
I9
F-0.25
S'low'
p996
tp997
a(I38
I9
I0
S'full'
p998
tp999
a(I48
I4
F-0.25
S'low'
p1000
tp1001
a(I48
I4
I0
S'monthly'
p1002
tp1003
a(I90
I75
I0
S'current'
p1004
tp1005
a(I97
I1
F-0.25
S'cheaper'
p1006
tp1007
a(I113
I3
F1.0
S'best'
p1008
tp1009
a(I129
I1
I0
S'monthly'
p1010
tp1011
a(I129
I9
F1.0
S'best'
p1012
tp1013
a(I179
I14
I0
S'great'
p1014
tp1015
a(I186
I0
F-0.5
S'regular'
p1016
tp1017
a(I201
I4
F0.5
S'comparable'
p1018
tp1019
a(I209
I7
F0.75
S'worth'
p1020
tp1021
a(I211
I8
F1.0
S'good'
p1022
tp1023
a(I218
I1
F1.0
S'good'
p1024
tp1025
a(I222
I14
I0
S'adequate'
p1026
tp1027
a(I258
I0
F1.0
S'good'
p1028
tp1029
a(I281
I1
F-0.25
S'cheaper'
p1030
tp1031
a(I311
I50
F0.375
S'similar'
p1032
tp1033
a(I314
I0
I0
S'high'
p1034
tp1035
a(I319
I1
F-0.25
S'cheaper'
p1036
tp1037
a(I319
I18
F-0.5
S'less'
p1038
tp1039
a(I319
I18
I0
S'full'
p1040
tp1041
a(I343
I0
I0
S'weird'
p1042
tp1043
a(I343
I0
F0.625
S'beat'
p1044
tp1045
a(I381
I0
F-0.625
S'other'
p1046
tp1047
a(I393
I7
I0
S'great'
p1048
tp1049
a(I408
I12
F1.0
S'good'
p1050
tp1051
a(I408
I12
F0.5
S'true'
p1052
tp1053
a(I412
I13
F1.0
S'good'
p1054
tp1055
a(I418
I0
F0.25
S'original'
p1056
tp1057
a(I421
I20
I0
S'same'
p1058
tp1059
as(S'service'
p1060
tp1061
(lp1062
(I31
I5
F0.125
g667
tp1063
a(I36
I15
F0.375
S'available'
p1064
tp1065
a(I45
I4
F-0.625
S'other'
p1066
tp1067
a(I62
I4
F0.625
S'major'
p1068
tp1069
a(I62
I8
F0.5
S'comparable'
p1070
tp1071
a(I64
I2
F-0.25
S'cheaper'
p1072
tp1073
a(I64
I2
F-0.125
S'overall'
p1074
tp1075
a(I65
I0
I0
S'great'
p1076
tp1077
a(I65
I0
F0.625
S'easy'
p1078
tp1079
a(I71
I14
F1.0
S'good'
p1080
tp1081
a(I90
I70
F1.0
S'better'
p1082
tp1083
a(I90
I70
F1.0
S'better'
p1084
tp1085
a(I106
I4
I0
g625
tp1086
a(I109
I36
F0.625
g628
tp1087
a(I109
I37
I0
S'fastest'
p1088
tp1089
a(I109
I37
F0.5
S'possible'
p1090
tp1091
a(I117
I22
F1.0
S'good'
p1092
tp1093
a(I117
I22
F0.125
S'able'
p1094
tp1095
a(I173
I3
F1.0
S'good'
p1096
tp1097
a(I179
I3
F-0.625
g632
tp1098
a(I179
I3
I0
g634
tp1099
a(I179
I3
I0
g636
tp1100
a(I193
I3
F0.375
g639
tp1101
a(I204
I2
F0.375
S'new'
p1102
tp1103
a(I212
I7
I0
S'great'
p1104
tp1105
a(I226
I4
F-0.625
g643
tp1106
a(I226
I4
F-0.625
g645
tp1107
a(I226
I4
F-0.625
g647
tp1108
a(I234
I4
F1.0
S'good'
p1109
tp1110
a(I235
I4
I0
g649
tp1111
a(I255
I3
F0.125
S'able'
p1112
tp1113
a(I255
I3
I0
S'many'
p1114
tp1115
a(I255
I21
F1.0
S'best'
p1116
tp1117
a(I298
I7
F-0.625
S'free'
p1118
tp1119
a(I313
I6
I0
S'great'
p1120
tp1121
a(I314
I0
F-0.625
S'free'
p1122
tp1123
a(I341
I21
F1.0
S'good'
p1124
tp1125
a(I348
I3
F1.0
g652
tp1126
a(I350
I1
I0
S'great'
p1127
tp1128
a(I364
I0
I0
g654
tp1129
a(I378
I9
I0
g656
tp1130
a(I379
I12
F-0.5
S'poor'
p1131
tp1132
a(I381
I0
I0
S'great'
p1133
tp1134
a(I383
I3
I0
S'awhile'
p1135
tp1136
a(I409
I7
F1.0
S'good'
p1137
tp1138
a(I436
I10
I0
S'monthly'
p1139
tp1140
as(g475
S'sandwich'
p1141
tp1142
(lp1143
(I52
I6
I0
S'android'
p1144
tp1145
as(S'angry'
p1146
S'birds'
p1147
tp1148
(lp1149
(I178
I7
I0
S'angry'
p1150
tp1151
a(I192
I6
I0
S'angry'
p1152
tp1153
a(I192
I6
F-0.625
S'free'
p1154
tp1155
a(I311
I19
F-0.375
S'smooth'
p1156
tp1157
a(I311
I19
F0.25
S'responsive'
p1158
tp1159
a(I438
I5
I0
S'angry'
p1160
tp1161
a(I438
I5
I0
S'great'
p1162
tp1163
as(S'lg'
p1164
S'optimus'
p1165
g483
tp1166
(lp1167
(I79
I40
F-0.375
g562
tp1168
a(I82
I0
F0.875
g490
tp1169
a(I92
I13
F0.875
g564
tp1170
a(I95
I12
I0
g348
tp1171
a(I95
I12
F0.5
g492
tp1172
a(I146
I12
F-0.5
g498
tp1173
a(I146
I12
F0.5
g500
tp1174
a(I171
I3
F0.5
g569
tp1175
a(I209
I1
F0.875
g571
tp1176
a(I258
I6
F-0.75
g350
tp1177
a(I278
I1
F0.5
S'whole'
p1178
tp1179
a(I301
I4
F-0.375
g352
tp1180
a(I304
I2
F0.5
g574
tp1181
a(I344
I0
F0.375
S'content'
p1182
tp1183
a(I393
I1
F0.25
g522
tp1184
a(I420
I9
F-0.75
g354
tp1185
as(S'front'
p1186
S'facing'
p1187
S'camera'
p1188
tp1189
(lp1190
(I14
I0
I0
S'great'
p1191
tp1192
a(I95
I12
F0.25
S'main'
p1193
tp1194
a(I320
I8
F0.125
S'first'
p1195
tp1196
a(I320
I11
I0
S'least'
p1197
tp1198
as(S'memory'
p1199
tp1200
(lp1201
(I37
I3
I0
S'internal'
p1202
tp1203
a(I37
I3
F1.0
S'good'
p1204
tp1205
a(I37
I3
I0
S'android'
p1206
tp1207
a(I37
I5
I0
S'internal'
p1208
tp1209
a(I40
I1
I0
S'internal'
p1210
tp1211
a(I42
I4
I0
S'internal'
p1212
tp1213
a(I64
I9
F0.125
S'theoretical'
p1214
tp1215
a(I64
I9
F-0.75
S'short'
p1216
tp1217
a(I82
I0
I0
S'internal'
p1218
tp1219
a(I92
I19
I0
S'internal'
p1220
tp1221
a(I129
I4
F-0.375
S'double'
p1222
tp1223
a(I137
I9
I0
S'internal'
p1224
tp1225
a(I152
I5
I0
S'internal'
p1226
tp1227
a(I152
I30
F0.75
S'due'
p1228
tp1229
a(I158
I3
I0
S'more'
p1230
tp1231
a(I158
I3
F0.125
S'enough'
p1232
tp1233
a(I178
I4
F-0.125
S'slow'
p1234
tp1235
a(I186
I4
F0.375
S'much'
p1236
tp1237
a(I186
I4
F0.25
S'bigger'
p1238
tp1239
a(I186
I4
I0
S'internal'
p1240
tp1241
a(I205
I24
I0
S'internal'
p1242
tp1243
a(I205
I31
I0
S'internal'
p1244
tp1245
a(I209
I5
I0
S'internal'
p1246
tp1247
a(I209
I5
F0.75
S'due'
p1248
tp1249
a(I221
I1
I0
S'more'
p1250
tp1251
a(I221
I1
I0
S'faster'
p1252
tp1253
a(I229
I7
F0.375
S'new'
p1254
tp1255
a(I241
I0
F0.75
S'due'
p1256
tp1257
a(I255
I40
I0
S'internal'
p1258
tp1259
a(I267
I19
I0
S'full'
p1260
tp1261
a(I301
I18
I0
S'internal'
p1262
tp1263
a(I301
I20
I0
S'internal'
p1264
tp1265
a(I301
I21
I0
S'internal'
p1266
tp1267
a(I301
I21
I0
S'ran'
p1268
tp1269
a(I301
I22
I0
S'internal'
p1270
tp1271
a(I301
I23
F0.375
S'much'
p1272
tp1273
a(I301
I23
I0
S'critical'
p1274
tp1275
a(I301
I23
I0
S'internal'
p1276
tp1277
a(I301
I23
I0
S'most'
p1278
tp1279
a(I301
I23
I0
S'internal'
p1280
tp1281
a(I301
I24
I0
S'internal'
p1282
tp1283
a(I301
I25
I0
S'internal'
p1284
tp1285
a(I301
I26
I0
S'internal'
p1286
tp1287
a(I301
I26
I0
S'internal'
p1288
tp1289
a(I302
I5
I0
S'internal'
p1290
tp1291
a(I307
I8
I0
S'full'
p1292
tp1293
a(I309
I7
I0
S'internal'
p1294
tp1295
a(I353
I3
F-0.25
S'low'
p1296
tp1297
a(I367
I1
I0
S'full'
p1298
tp1299
a(I402
I5
F0.25
S'bigger'
p1300
tp1301
a(I429
I3
F-0.375
S'small'
p1302
tp1303
a(I442
I2
I0
S'internal'
p1304
tp1305
as(S'times'
p1306
S'a'
p1307
S'day'
p1308
tp1309
(lp1310
(I21
I7
I0
g771
tp1311
a(I39
I4
I0
S'least'
p1312
tp1313
a(I39
I4
I0
g773
tp1314
a(I55
I5
I0
S'least'
p1315
tp1316
a(I84
I11
F-0.875
S'worst'
p1317
tp1318
a(I248
I3
I0
g815
tp1319
a(I312
I6
F-0.5
g829
tp1320
a(I312
I6
F0.125
S'first'
p1321
tp1322
as(S'sometimes'
p1323
tp1324
(lp1325
(I74
I0
F0.625
S'straight'
p1326
tp1327
a(I74
I0
F-0.875
S'hard'
p1328
tp1329
a(I74
I0
I0
S'signal'
p1330
tp1331
as(S'on'
p1332
S'sd'
p1333
S'card'
p1334
tp1335
(lp1336
(I123
I0
I0
g411
tp1337
a(I211
I0
F-0.625
g415
tp1338
a(I211
I5
I0
g417
tp1339
a(I311
I32
I0
g419
tp1340
a(I366
I0
F0.25
g421
tp1341
as(S'video'
p1342
tp1343
(lp1344
(I34
I27
F0.5
S'live'
p1345
tp1346
a(I117
I16
F-0.625
S'free'
p1347
tp1348
a(I122
I28
F1.0
S'better'
p1349
tp1350
a(I172
I12
F1.0
S'good'
p1351
tp1352
a(I255
I36
I0
S'great'
p1353
tp1354
a(I353
I5
F-0.25
S'disappointing'
p1355
tp1356
a(I353
I5
I0
S'least'
p1357
tp1358
a(I422
I6
F0.5
S'clear'
p1359
tp1360
a(I433
I10
F-0.625
S'free'
p1361
tp1362
as(g1307
S'long'
p1363
S'time'
p1364
tp1365
(lp1366
(I26
I3
F-0.5
S'long'
p1367
tp1368
a(I26
I3
F-0.5
S'actual'
p1369
tp1370
a(I47
I0
F-0.5
S'long'
p1371
tp1372
a(I162
I4
F-0.5
S'long'
p1373
tp1374
a(I209
I5
F-0.5
S'long'
p1375
tp1376
a(I229
I8
F-0.5
S'long'
p1377
tp1378
a(I238
I3
F-0.5
S'long'
p1379
tp1380
a(I250
I9
F-0.5
S'long'
p1381
tp1382
a(I331
I16
F-0.5
S'long'
p1383
tp1384
a(I341
I0
F-0.5
S'long'
p1385
tp1386
as(S'android'
p1387
tp1388
(lp1389
(I0
I2
F0.125
S'first'
p1390
tp1391
a(I4
I0
F-0.875
S'worst'
p1392
tp1393
a(I18
I3
I0
S'common'
p1394
tp1395
a(I34
I37
F0.875
S'nice'
p1396
tp1397
a(I34
I37
I0
S'great'
p1398
tp1399
a(I67
I0
F0.125
S'first'
p1400
tp1401
a(I73
I2
F0.125
S'first'
p1402
tp1403
a(I79
I37
I0
S'particular'
p1404
tp1405
a(I102
I0
F1.0
S'best'
p1406
tp1407
a(I116
I16
F0.125
S'first'
p1408
tp1409
a(I122
I3
F-0.25
S'modern'
p1410
tp1411
a(I169
I10
I0
S'traditional'
p1412
tp1413
a(I179
I0
F0.125
S'first'
p1414
tp1415
a(I182
I2
F0.125
S'first'
p1416
tp1417
a(I186
I5
F0.25
S'favorite'
p1418
tp1419
a(I192
I5
F-0.625
S'free'
p1420
tp1421
a(I237
I5
F1.0
S'best'
p1422
tp1423
a(I247
I1
F1.0
S'best'
p1424
tp1425
a(I261
I6
I0
S'great'
p1426
tp1427
a(I337
I2
I0
S'standard'
p1428
tp1429
a(I342
I10
F0.125
S'solid'
p1430
tp1431
a(I348
I2
F0.125
S'first'
p1432
tp1433
a(I373
I0
F0.125
S'first'
p1434
tp1435
a(I395
I2
F0.5
S'second'
p1436
tp1437
a(I404
I4
I0
S'soft'
p1438
tp1439
a(I416
I17
F0.875
S'nice'
p1440
tp1441
a(I417
I4
F-0.625
S'other'
p1442
tp1443
a(I417
I4
I0
S'basic'
p1444
tp1445
a(I418
I2
I0
S'old'
p1446
tp1447
a(I421
I12
F0.125
S'first'
p1448
tp1449
a(I429
I0
F0.5
S'second'
p1450
tp1451
a(I429
I10
I0
S'great'
p1452
tp1453
a(I432
I1
F0.125
S'first'
p1454
tp1455
a(I438
I16
F1.0
S'best'
p1456
tp1457
as(S'with'
p1458
S'lg'
p1459
S'optimus'
p1460
tp1461
(lp1462
(I79
I40
F-0.375
g562
tp1463
a(I92
I13
F0.875
g564
tp1464
a(I95
I12
I0
g348
tp1465
a(I209
I1
F0.875
g571
tp1466
a(I278
I1
F0.5
g1178
tp1467
a(I304
I2
F0.5
g574
tp1468
a(I344
I0
F0.375
g1182
tp1469
a(I393
I1
F0.25
g522
tp1470
a(I420
I9
F-0.75
g354
tp1471
as(S'samsung'
p1472
tp1473
(lp1474
(I78
I1
I0
S'old'
p1475
tp1476
a(I90
I4
F1.0
S'better'
p1477
tp1478
a(I138
I3
I0
S'least'
p1479
tp1480
a(I138
I4
I0
S'least'
p1481
tp1482
a(I138
I5
I0
S'least'
p1483
tp1484
a(I138
I6
I0
S'least'
p1485
tp1486
a(I138
I7
I0
S'least'
p1487
tp1488
a(I138
I7
F0.125
S'able'
p1489
tp1490
a(I157
I0
I0
S'cellular'
p1491
tp1492
a(I205
I35
F0.125
S'able'
p1493
tp1494
as(S'thing'
p1495
tp1496
(lp1497
(I0
I17
F-0.75
S'stupid'
p1498
tp1499
a(I5
I3
I0
S'only'
p1500
tp1501
a(I12
I4
F-0.625
S'other'
p1502
tp1503
a(I12
I4
I0
S'only'
p1504
tp1505
a(I26
I1
I0
S'only'
p1506
tp1507
a(I34
I18
I0
S'only'
p1508
tp1509
a(I34
I27
I0
S'only'
p1510
tp1511
a(I34
I28
F-0.625
S'other'
p1512
tp1513
a(I37
I7
I0
S'only'
p1514
tp1515
a(I44
I2
I0
S'same'
p1516
tp1517
a(I52
I9
F1.0
S'good'
p1518
tp1519
a(I52
I9
I0
S'real'
p1520
tp1521
a(I70
I3
I0
S'android'
p1522
tp1523
a(I90
I53
F1.0
S'best'
p1524
tp1525
a(I93
I3
F-0.625
S'bad'
p1526
tp1527
a(I98
I10
I0
S'only'
p1528
tp1529
a(I101
I3
F-0.625
S'bad'
p1530
tp1531
a(I117
I24
F0.875
S'happy'
p1532
tp1533
a(I121
I14
F0.125
S'last'
p1534
tp1535
a(I169
I8
F1.0
S'good'
p1536
tp1537
a(I186
I0
I0
S'same'
p1538
tp1539
a(I196
I1
F0.875
S'nice'
p1540
tp1541
a(I220
I2
F-0.75
S'single'
p1542
tp1543
a(I220
I2
F-0.75
S'wrong'
p1544
tp1545
a(I220
I10
F-0.75
S'minor'
p1546
tp1547
a(I234
I29
F-0.75
S'single'
p1548
tp1549
a(I234
I29
I0
S'most'
p1550
tp1551
a(I301
I44
I0
S'same'
p1552
tp1553
a(I308
I5
I0
S'only'
p1554
tp1555
a(I312
I21
I0
S'same'
p1556
tp1557
a(I358
I0
I0
S'only'
p1558
tp1559
a(I389
I1
I0
S'next'
p1560
tp1561
a(I389
I1
F1.0
S'best'
p1562
tp1563
a(I399
I5
I0
S'most'
p1564
tp1565
a(I413
I7
F1.0
S'good'
p1566
tp1567
a(I413
I7
F-0.5
S'sure'
p1568
tp1569
a(I419
I1
I0
S'only'
p1570
tp1571
a(I431
I0
F0.5
S'whole'
p1572
tp1573
as(S'data'
p1574
tp1575
(lp1576
(I64
I4
F-0.5
S'miss'
p1577
tp1578
a(I95
I12
F-0.125
S'slow'
p1579
tp1580
a(I112
I5
F-0.25
S'past'
p1581
tp1582
a(I117
I6
F-0.375
S'serious'
p1583
tp1584
a(I145
I10
I0
S'close'
p1585
tp1586
a(I177
I56
F-0.5
S'unlimited'
p1587
tp1588
a(I177
I57
F-0.5
S'unlimited'
p1589
tp1590
a(I186
I1
F0.625
S'easy'
p1591
tp1592
a(I216
I7
F0.5
S'greater'
p1593
tp1594
a(I234
I15
F-0.875
S'worst'
p1595
tp1596
a(I296
I17
I0
S'full'
p1597
tp1598
a(I331
I2
I0
S'such'
p1599
tp1600
a(I334
I13
F0.875
S'music'
p1601
tp1602
a(I338
I0
F-0.5
S'unlimited'
p1603
tp1604
a(I404
I8
F-0.25
S'low'
p1605
tp1606
a(I416
I20
F-0.5
S'unlimited'
p1607
tp1608
as(S'25'
p1609
g1307
S'month'
p1610
tp1611
(lp1612
(I133
I5
I0
S'older'
p1613
tp1614
a(I177
I56
F-0.625
S'free'
p1615
tp1616
a(I252
I1
F0.625
S'perfect'
p1617
tp1618
as(S'to'
p1619
S'optimus'
p1620
g483
tp1621
(lp1622
(I71
I5
F1.0
g486
tp1623
a(I71
I19
I0
g488
tp1624
a(I82
I0
F0.875
g490
tp1625
a(I95
I12
F0.5
g492
tp1626
a(I123
I0
F-0.5
g496
tp1627
a(I146
I12
F-0.5
g498
tp1628
a(I146
I12
F0.5
g500
tp1629
a(I193
I4
F0.375
g502
tp1630
a(I199
I5
I0
g504
tp1631
a(I278
I27
I0
g508
tp1632
a(I300
I10
F-0.125
g510
tp1633
a(I301
I34
F0.125
g512
tp1634
a(I301
I40
F-0.75
g514
tp1635
a(I311
I22
F1.0
g516
tp1636
a(I311
I26
F0.75
g518
tp1637
a(I319
I9
F0.75
g520
tp1638
a(I393
I1
F0.25
g522
tp1639
a(I393
I6
F-0.375
g524
tp1640
a(I393
I6
F0.625
g526
tp1641
as(S'network'
p1642
tp1643
(lp1644
(I55
I2
I0
S'same'
p1645
tp1646
a(I90
I46
I0
S'mobile'
p1647
tp1648
a(I90
I71
I0
S'faster'
p1649
tp1650
a(I118
I8
F1.0
S'good'
p1651
tp1652
a(I121
I29
F1.0
S'best'
p1653
tp1654
a(I122
I10
F-0.625
S'bad'
p1655
tp1656
a(I149
I0
I0
S'sprint'
p1657
tp1658
a(I216
I1
F0.625
S'major'
p1659
tp1660
a(I235
I4
I0
S'same'
p1661
tp1662
a(I263
I10
F-0.5
S'open'
p1663
tp1664
a(I311
I49
I0
S'post-paid'
p1665
tp1666
a(I347
I4
I0
S'same'
p1667
tp1668
a(I347
I11
I0
S'signal'
p1669
tp1670
a(I413
I3
F-0.5
S'unavailable'
p1671
tp1672
as(S'hours'
p1673
tp1674
(lp1675
(I12
I8
F0.125
S'charger'
p1676
tp1677
a(I109
I29
F-0.625
S'idle'
p1678
tp1679
a(I109
I29
I0
S'few'
p1680
tp1681
a(I199
I4
I0
S'later'
p1682
tp1683
a(I216
I20
I0
S'full'
p1684
tp1685
a(I266
I3
F0.375
S'much'
p1686
tp1687
a(I294
I26
I0
S'more'
p1688
tp1689
a(I331
I4
F-0.5
S'less'
p1690
tp1691
a(I342
I3
I0
S'few'
p1692
tp1693
a(I366
I1
F0.625
S'easy'
p1694
tp1695
as(S'work'
p1696
tp1697
(lp1698
(I28
I2
I0
S'signal'
p1699
tp1700
a(I55
I16
F1.0
S'good'
p1701
tp1702
a(I116
I12
F-0.75
S'dead'
p1703
tp1704
a(I193
I21
I0
S'non-issue'
p1705
tp1706
a(I226
I3
I0
S'faster'
p1707
tp1708
a(I226
I3
I0
S'more'
p1709
tp1710
as(S'seems'
p1711
tp1712
(lp1713
(I123
I2
I0
S'more'
p1714
tp1715
as(S'turn'
p1716
tp1717
(lp1718
(I122
I32
I0
S'internet'
p1719
tp1720
a(I124
I1
I0
S'horizontal'
p1721
tp1722
a(I124
I1
I0
S'vertical'
p1723
tp1724
as(g1307
S'factory'
p1725
S'reset'
p1726
tp1727
(lp1728
(I48
I1
I0
S'full'
p1729
tp1730
a(I205
I46
F0.25
S'original'
p1731
tp1732
as(S'virgin'
p1733
S'mobile'
p1734
tp1735
(lp1736
(I17
I0
F1.0
g361
tp1737
a(I37
I17
I0
g707
tp1738
a(I38
I19
F-0.5
g242
tp1739
a(I39
I2
F-0.625
g364
tp1740
a(I41
I9
I0
g244
tp1741
a(I54
I0
I0
g711
tp1742
a(I63
I2
I0
g366
tp1743
a(I71
I0
I0
g368
tp1744
a(I75
I2
F-0.875
g714
tp1745
a(I90
I69
F0.875
S'happy'
p1746
tp1747
a(I95
I12
F-0.625
g370
tp1748
a(I97
I3
F1.0
g717
tp1749
a(I109
I1
I0
g372
tp1750
a(I118
I5
I0
g374
tp1751
a(I125
I7
I0
g376
tp1752
a(I128
I3
I0
g630
tp1753
a(I140
I2
F-0.75
g378
tp1754
a(I146
I7
F-0.125
g723
tp1755
a(I149
I0
F-0.625
g380
tp1756
a(I153
I7
I0
g382
tp1757
a(I181
I9
F0.125
g384
tp1758
a(I193
I1
I0
g727
tp1759
a(I204
I0
I0
g641
tp1760
a(I214
I13
I0
g386
tp1761
a(I215
I0
F-0.625
g388
tp1762
a(I216
I1
I0
g390
tp1763
a(I216
I1
F1.0
g392
tp1764
a(I222
I6
F0.25
g734
tp1765
a(I243
I2
F0.25
g394
tp1766
a(I252
I0
I0
S'great'
p1767
tp1768
a(I260
I0
F0.875
g250
tp1769
a(I264
I18
I0
g737
tp1770
a(I277
I0
F0.125
S'first'
p1771
tp1772
a(I277
I0
F-0.625
S'sorry'
p1773
tp1774
a(I277
I0
F1.0
S'good'
p1775
tp1776
a(I277
I0
I0
S'mobile'
p1777
tp1778
a(I302
I13
F-0.625
g396
tp1779
a(I328
I16
I0
g254
tp1780
a(I332
I0
F0.375
g399
tp1781
a(I334
I27
F-0.125
S'slow'
p1782
tp1783
a(I362
I13
F-0.5
g742
tp1784
a(I363
I4
I0
g401
tp1785
a(I363
I15
F1.0
g745
tp1786
a(I363
I32
F0.375
g403
tp1787
a(I395
I10
I0
g748
tp1788
a(I395
I15
F-0.75
g750
tp1789
a(I401
I0
I0
g405
tp1790
a(I437
I10
F1.0
S'good'
p1791
tp1792
as(S'battery'
p1793
S'life'
p1794
tp1795
(lp1796
(I4
I0
F-0.75
S'short'
p1797
tp1798
a(I12
I9
F0.375
S'extended'
p1799
tp1800
a(I23
I3
F-0.375
S'crazy'
p1801
tp1802
a(I41
I6
F1.0
S'good'
p1803
tp1804
a(I41
I6
F1.0
S'good'
p1805
tp1806
a(I48
I3
F-0.625
S'bad'
p1807
tp1808
a(I55
I3
F-0.5
S'poor'
p1809
tp1810
a(I56
I11
F1.0
S'good'
p1811
tp1812
a(I64
I6
F-0.125
S'overall'
p1813
tp1814
a(I67
I4
F-0.75
S'short'
p1815
tp1816
a(I98
I20
F-0.625
S'average'
p1817
tp1818
a(I119
I2
I0
S'great'
p1819
tp1820
a(I122
I33
F1.0
S'better'
p1821
tp1822
a(I123
I4
I0
S'adequate'
p1823
tp1824
a(I123
I4
F0.5
S'primary'
p1825
tp1826
a(I166
I9
I0
S'great'
p1827
tp1828
a(I178
I6
F1.0
S'good'
p1829
tp1830
a(I192
I7
F-0.75
S'short'
p1831
tp1832
a(I193
I7
F-0.5
S'poor'
p1833
tp1834
a(I193
I19
F-0.5
S'poor'
p1835
tp1836
a(I199
I30
F-0.75
S'worse'
p1837
tp1838
a(I199
I31
F1.0
S'best'
p1839
tp1840
a(I202
I1
F0.25
S'stellar'
p1841
tp1842
a(I205
I7
I0
S'great'
p1843
tp1844
a(I205
I8
F0.75
S'due'
p1845
tp1846
a(I205
I27
F-0.75
S'short'
p1847
tp1848
a(I207
I1
F-0.75
S'short'
p1849
tp1850
a(I230
I4
I0
S'great'
p1851
tp1852
a(I238
I7
F0.375
S'new'
p1853
tp1854
a(I238
I7
F0.375
S'extended'
p1855
tp1856
a(I247
I2
F-0.75
S'short'
p1857
tp1858
a(I258
I4
F-0.875
S'awful'
p1859
tp1860
a(I264
I3
F0.375
S'extra'
p1861
tp1862
a(I265
I4
F1.0
S'better'
p1863
tp1864
a(I271
I5
F-0.75
S'short'
p1865
tp1866
a(I278
I29
F1.0
S'better'
p1867
tp1868
a(I278
I30
F1.0
S'better'
p1869
tp1870
a(I278
I30
F0.375
S'available'
p1871
tp1872
a(I283
I4
F-0.5
S'poor'
p1873
tp1874
a(I283
I5
F0.125
S'able'
p1875
tp1876
a(I294
I5
I0
S'external'
p1877
tp1878
a(I294
I23
F-0.875
S'awful'
p1879
tp1880
a(I294
I25
F-0.25
S'battery'
p1881
tp1882
a(I301
I51
F-0.5
S'poor'
p1883
tp1884
a(I311
I2
I0
S'great'
p1885
tp1886
a(I311
I22
F-0.375
S'smaller'
p1887
tp1888
a(I316
I9
F-0.75
S'short'
p1889
tp1890
a(I323
I0
F0.125
S'first'
p1891
tp1892
a(I323
I0
F-0.875
S'awful'
p1893
tp1894
a(I331
I1
I0
S'great'
p1895
tp1896
a(I335
I1
F-0.625
S'other'
p1897
tp1898
a(I342
I2
F-0.625
S'bad'
p1899
tp1900
a(I342
I2
F0.125
S'typical'
p1901
tp1902
a(I367
I2
I0
S'great'
p1903
tp1904
a(I367
I2
F1.0
S'best'
p1905
tp1906
a(I367
I2
F-0.125
S'overall'
p1907
tp1908
a(I371
I0
F-0.75
S'short'
p1909
tp1910
a(I372
I1
F1.0
S'good'
p1911
tp1912
a(I373
I15
I0
S'great'
p1913
tp1914
a(I384
I0
F-0.75
S'short'
p1915
tp1916
a(I404
I0
F-0.625
S'bad'
p1917
tp1918
a(I404
I0
F-0.875
S'worst'
p1919
tp1920
a(I404
I2
F1.0
S'better'
p1921
tp1922
a(I419
I2
F1.0
S'good'
p1923
tp1924
a(I420
I1
F1.0
S'good'
p1925
tp1926
a(I420
I6
F-0.5
S'poor'
p1927
tp1928
a(I424
I2
F0.625
S'fair'
p1929
tp1930
a(I426
I1
F-0.75
S'worse'
p1931
tp1932
a(I434
I0
F1.0
S'good'
p1933
tp1934
a(I439
I8
F-0.5
S'less'
p1935
tp1936
as(S'minutes'
p1937
tp1938
(lp1939
(I32
I5
I0
S'few'
p1940
tp1941
a(I34
I18
I0
S'few'
p1942
tp1943
a(I122
I15
F0.375
S'much'
p1944
tp1945
a(I126
I8
I0
S'most'
p1946
tp1947
a(I145
I17
I0
S'more'
p1948
tp1949
a(I152
I27
I0
S'more'
p1950
tp1951
a(I152
I27
I0
S'few'
p1952
tp1953
a(I157
I6
F-0.5
S'unlimited'
p1954
tp1955
a(I164
I3
I0
S'many'
p1956
tp1957
a(I164
I3
F0.125
S'able'
p1958
tp1959
a(I205
I17
F-0.5
S'less'
p1960
tp1961
a(I205
I57
F0.375
S'much'
p1962
tp1963
a(I219
I11
I0
S'more'
p1964
tp1965
a(I239
I11
I0
S'more'
p1966
tp1967
a(I250
I7
I0
S'least'
p1968
tp1969
a(I268
I3
F-0.625
S'free'
p1970
tp1971
a(I268
I3
F-0.375
S'top'
p1972
tp1973
a(I277
I6
F-0.625
S'free'
p1974
tp1975
a(I283
I4
I0
S'least'
p1976
tp1977
a(I311
I24
I0
S'least'
p1978
tp1979
a(I329
I6
I0
S'few'
p1980
tp1981
a(I329
I6
F-0.75
S'short'
p1982
tp1983
a(I351
I5
I0
S'closer'
p1984
tp1985
a(I399
I6
I0
S'more'
p1986
tp1987
a(I416
I20
F-0.5
S'unlimited'
p1988
tp1989
as(S'to'
p1990
S'virgin'
p1991
S'mobile'
p1992
tp1993
(lp1994
(I17
I0
F1.0
g361
tp1995
a(I37
I17
I0
g707
tp1996
a(I38
I19
F-0.5
g242
tp1997
a(I41
I9
I0
g244
tp1998
a(I63
I2
I0
g366
tp1999
a(I71
I0
I0
g368
tp2000
a(I75
I2
F-0.875
g714
tp2001
a(I90
I69
F0.875
g1746
tp2002
a(I95
I12
F-0.625
g370
tp2003
a(I109
I1
I0
g372
tp2004
a(I125
I7
I0
g376
tp2005
a(I146
I7
F-0.125
g723
tp2006
a(I181
I9
F0.125
g384
tp2007
a(I193
I1
I0
g727
tp2008
a(I214
I13
I0
g386
tp2009
a(I215
I0
F-0.625
g388
tp2010
a(I216
I1
I0
g390
tp2011
a(I216
I1
F1.0
g392
tp2012
a(I243
I2
F0.25
g394
tp2013
a(I260
I0
F0.875
g250
tp2014
a(I264
I18
I0
g737
tp2015
a(I277
I0
F0.125
g1771
tp2016
a(I277
I0
F-0.625
g1773
tp2017
a(I277
I0
F1.0
g1775
tp2018
a(I277
I0
I0
g1777
tp2019
a(I302
I13
F-0.625
g396
tp2020
a(I328
I16
I0
g254
tp2021
a(I332
I0
F0.375
g399
tp2022
a(I362
I13
F-0.5
g742
tp2023
a(I363
I4
I0
g401
tp2024
a(I363
I32
F0.375
g403
tp2025
a(I395
I15
F-0.75
g750
tp2026
a(I401
I0
I0
g405
tp2027
as(S'little'
p2028
tp2029
(lp2030
(I158
I1
F1.0
S'good'
p2031
tp2032
as(S'virgin'
p2033
tp2034
(lp2035
(I37
I17
I0
g707
tp2036
a(I39
I2
F-0.625
g364
tp2037
a(I54
I0
I0
g711
tp2038
a(I71
I0
I0
g368
tp2039
a(I75
I2
F-0.875
g714
tp2040
a(I90
I69
F0.875
g1746
tp2041
a(I95
I12
F-0.625
g370
tp2042
a(I97
I3
F1.0
g717
tp2043
a(I109
I1
I0
g372
tp2044
a(I118
I5
I0
g374
tp2045
a(I125
I7
I0
g376
tp2046
a(I128
I3
I0
g630
tp2047
a(I135
I3
F0.375
S'available'
p2048
tp2049
a(I149
I0
F-0.625
g380
tp2050
a(I181
I9
F0.125
g384
tp2051
a(I193
I1
I0
g727
tp2052
a(I195
I17
F-0.5
S'upset'
p2053
tp2054
a(I195
I20
F0.5
S'clear'
p2055
tp2056
a(I204
I0
I0
g641
tp2057
a(I215
I0
F-0.625
g388
tp2058
a(I216
I1
I0
g390
tp2059
a(I216
I1
F1.0
g392
tp2060
a(I222
I6
F0.25
g734
tp2061
a(I243
I2
F0.25
g394
tp2062
a(I260
I0
F0.875
g250
tp2063
a(I261
I10
I0
S'cool'
p2064
tp2065
a(I264
I18
I0
g737
tp2066
a(I277
I0
F0.125
g1771
tp2067
a(I277
I0
F-0.625
g1773
tp2068
a(I277
I0
F1.0
g1775
tp2069
a(I277
I0
I0
g1777
tp2070
a(I285
I2
F0.625
S'easy'
p2071
tp2072
a(I302
I13
F-0.625
g396
tp2073
a(I328
I16
I0
g254
tp2074
a(I332
I0
F0.375
g399
tp2075
a(I362
I13
F-0.5
g742
tp2076
a(I363
I4
I0
g401
tp2077
a(I363
I15
F1.0
g745
tp2078
a(I363
I32
F0.375
g403
tp2079
a(I370
I1
I0
S'least'
p2080
tp2081
a(I379
I11
F0.75
S'worth'
p2082
tp2083
a(I395
I10
I0
g748
tp2084
a(I395
I15
F-0.75
g750
tp2085
a(I401
I0
I0
g405
tp2086
a(I433
I12
F-0.25
S'google'
p2087
tp2088
a(I437
I10
F1.0
g1791
tp2089
a(I440
I0
F1.0
S'good'
p2090
tp2091
a(I444
I0
F1.0
S'best'
p2092
tp2093
as(S'problems'
p2094
tp2095
(lp2096
(I15
I6
F-0.625
S'other'
p2097
tp2098
a(I21
I16
F0.625
S'major'
p2099
tp2100
a(I34
I3
I0
S'august'
p2101
tp2102
a(I34
I3
I0
S'big'
p2103
tp2104
a(I37
I22
F0.625
S'major'
p2105
tp2106
a(I39
I1
I0
S'many'
p2107
tp2108
a(I51
I1
I0
S'big'
p2109
tp2110
a(I56
I7
I0
S'many'
p2111
tp2112
a(I56
I7
F0.375
S'similar'
p2113
tp2114
a(I56
I9
F0.375
S'similar'
p2115
tp2116
a(I56
I9
F0.375
S'new'
p2117
tp2118
a(I71
I1
F-0.625
S'other'
p2119
tp2120
a(I81
I6
F0.375
S'significant'
p2121
tp2122
a(I90
I45
F-0.5
S'international'
p2123
tp2124
a(I108
I4
F0.5
S'obvious'
p2125
tp2126
a(I108
I11
I0
S'same'
p2127
tp2128
a(I112
I1
I0
S'many'
p2129
tp2130
a(I137
I11
I0
S'many'
p2131
tp2132
a(I142
I11
I0
S'such'
p2133
tp2134
a(I152
I19
I0
S'many'
p2135
tp2136
a(I195
I13
I0
S'same'
p2137
tp2138
a(I205
I4
F0.75
S'due'
p2139
tp2140
a(I205
I42
I0
S'such'
p2141
tp2142
a(I209
I5
F-0.125
S'persistent'
p2143
tp2144
a(I214
I7
F-0.625
S'bad'
p2145
tp2146
a(I220
I0
I0
S'alleged'
p2147
tp2148
a(I264
I1
F0.125
S'first'
p2149
tp2150
a(I264
I1
I0
S'same'
p2151
tp2152
a(I264
I17
I0
S'initial'
p2153
tp2154
a(I265
I1
I0
S'minimal'
p2155
tp2156
a(I265
I1
F0.25
S'biggest'
p2157
tp2158
a(I267
I5
F0.375
S'significant'
p2159
tp2160
a(I294
I8
F0.25
S'main'
p2161
tp2162
a(I301
I46
F0.5
S'possible'
p2163
tp2164
a(I301
I47
I0
S'outweigh'
p2165
tp2166
a(I301
I51
F0.125
S'first'
p2167
tp2168
a(I318
I1
I0
S'android'
p2169
tp2170
a(I338
I3
F0.625
S'major'
p2171
tp2172
a(I341
I18
F-0.625
S'other'
p2173
tp2174
a(I349
I0
F0.25
S'biggest'
p2175
tp2176
a(I374
I2
F0.875
S'happy'
p2177
tp2178
a(I392
I2
I0
S'initial'
p2179
tp2180
a(I420
I7
I0
S'android'
p2181
tp2182
a(I420
I7
F0.625
S'easy'
p2183
tp2184
a(I420
I7
I0
S'such'
p2185
tp2186
a(I420
I7
I0
S'such'
p2187
tp2188
a(I425
I0
F0.625
S'aware'
p2189
tp2190
a(I436
I1
F0.5
S'technical'
p2191
tp2192
as(S'back'
p2193
tp2194
(lp2195
(I73
I9
I0
S'old'
p2196
tp2197
a(I90
I12
F0.625
S'concrete'
p2198
tp2199
a(I90
I12
F-0.625
S'other'
p2200
tp2201
a(I171
I3
F-0.5
S'tried'
p2202
tp2203
a(I283
I4
F-0.625
S'idle'
p2204
tp2205
as(S'reception'
p2206
tp2207
(lp2208
(I9
I6
I0
S'great'
p2209
tp2210
a(I9
I6
F-0.875
S'awful'
p2211
tp2212
a(I26
I10
F-0.625
S'bad'
p2213
tp2214
a(I30
I1
I0
S'great'
p2215
tp2216
a(I34
I12
F-0.5
S'poor'
p2217
tp2218
a(I41
I1
I0
S'old'
p2219
tp2220
a(I42
I5
F-0.625
S'bad'
p2221
tp2222
a(I51
I2
F-0.5
S'weak'
p2223
tp2224
a(I61
I1
F-0.5
S'poor'
p2225
tp2226
a(I61
I1
F1.0
S'best'
p2227
tp2228
a(I127
I0
F1.0
S'good'
p2229
tp2230
a(I200
I0
I0
S'signal'
p2231
tp2232
a(I207
I1
F1.0
S'good'
p2233
tp2234
a(I226
I2
F1.0
S'good'
p2235
tp2236
a(I247
I5
I0
S'same'
p2237
tp2238
a(I273
I12
F-0.5
S'weak'
p2239
tp2240
a(I273
I13
I0
S'full'
p2241
tp2242
a(I283
I8
F-0.5
S'poor'
p2243
tp2244
a(I287
I0
F-0.625
S'bad'
p2245
tp2246
a(I296
I14
F-0.75
S'worse'
p2247
tp2248
a(I298
I1
F1.0
S'good'
p2249
tp2250
a(I347
I6
I0
S'adequate'
p2251
tp2252
a(I347
I9
F-0.625
S'bad'
p2253
tp2254
a(I360
I1
F0.125
S'able'
p2255
tp2256
a(I360
I1
F1.0
S'good'
p2257
tp2258
a(I371
I0
F-0.5
S'poor'
p2259
tp2260
a(I373
I12
F0.5
S'possible'
p2261
tp2262
a(I393
I6
F-0.5
S'weak'
p2263
tp2264
a(I420
I1
F1.0
S'good'
p2265
tp2266
a(I436
I4
F1.0
S'good'
p2267
tp2268
as(S'blue'
p2269
S'tooth'
p2270
tp2271
(lp2272
(I71
I6
I0
S'blue'
p2273
tp2274
a(I116
I10
I0
S'blue'
p2275
tp2276
a(I190
I2
I0
S'blue'
p2277
tp2278
as(S'life'
p2279
tp2280
(lp2281
(I12
I9
F0.375
g1799
tp2282
a(I41
I6
F1.0
g1803
tp2283
a(I41
I6
F1.0
g1805
tp2284
a(I48
I3
F-0.625
g1807
tp2285
a(I56
I11
F1.0
g1811
tp2286
a(I64
I6
F-0.125
g1813
tp2287
a(I67
I4
F-0.75
g1815
tp2288
a(I90
I66
I0
S'real'
p2289
tp2290
a(I98
I20
F-0.625
g1817
tp2291
a(I119
I2
I0
g1819
tp2292
a(I123
I4
I0
g1823
tp2293
a(I160
I1
F0.625
S'easier'
p2294
tp2295
a(I166
I9
I0
g1827
tp2296
a(I178
I6
F1.0
g1829
tp2297
a(I192
I7
F-0.75
g1831
tp2298
a(I199
I30
F-0.75
g1837
tp2299
a(I199
I31
F1.0
g1839
tp2300
a(I205
I7
I0
g1843
tp2301
a(I207
I1
F-0.75
g1849
tp2302
a(I230
I4
I0
g1851
tp2303
a(I238
I7
F0.375
g1853
tp2304
a(I238
I7
F0.375
g1855
tp2305
a(I258
I4
F-0.875
g1859
tp2306
a(I271
I5
F-0.75
g1865
tp2307
a(I278
I30
F0.375
g1871
tp2308
a(I294
I23
F-0.875
g1879
tp2309
a(I294
I25
F-0.25
g1881
tp2310
a(I301
I51
F-0.5
g1883
tp2311
a(I311
I40
F-0.75
S'uneasy'
p2312
tp2313
a(I316
I9
F-0.75
g1889
tp2314
a(I323
I0
F-0.875
g1893
tp2315
a(I331
I1
I0
g1895
tp2316
a(I342
I2
F-0.625
g1899
tp2317
a(I342
I2
F0.125
g1901
tp2318
a(I367
I2
F1.0
g1905
tp2319
a(I367
I2
F-0.125
g1907
tp2320
a(I373
I15
I0
g1913
tp2321
a(I404
I0
F-0.875
g1919
tp2322
a(I419
I2
F1.0
g1923
tp2323
a(I424
I2
F0.625
g1929
tp2324
a(I426
I1
F-0.75
g1931
tp2325
a(I439
I8
F-0.5
g1935
tp2326
as(S'best'
p2327
tp2328
(lp2329
(I389
I1
I0
S'next'
p2330
tp2331
as(S'repair'
p2332
S'escalation'
p2333
tp2334
(lp2335
(I328
I11
I0
S'johnny'
p2336
tp2337
as(S'pretty'
p2338
S'good'
p2339
tp2340
(lp2341
(I90
I33
I0
S'signal'
p2342
tp2343
a(I207
I0
F1.0
S'good'
p2344
tp2345
a(I241
I1
F-0.125
S'overall'
p2346
tp2347
a(I265
I3
F-0.125
S'overall'
p2348
tp2349
as(S'dual'
p2350
S'core'
p2351
tp2352
(lp2353
(I79
I1
F0.125
S'solid'
p2354
tp2355
a(I79
I1
F-0.75
S'single'
p2356
tp2357
as(S'lg'
p2358
S'optimus'
p2359
tp2360
(lp2361
(I79
I40
F-0.375
g562
tp2362
a(I92
I13
F0.875
g564
tp2363
a(I95
I12
I0
g348
tp2364
a(I104
I15
I0
g567
tp2365
a(I171
I3
F0.5
g569
tp2366
a(I209
I1
F0.875
g571
tp2367
a(I258
I6
F-0.75
g350
tp2368
a(I278
I1
F0.5
g1178
tp2369
a(I301
I4
F-0.375
g352
tp2370
a(I304
I2
F0.5
g574
tp2371
a(I344
I0
F0.375
g1182
tp2372
a(I393
I1
F0.25
g522
tp2373
a(I420
I9
F-0.75
g354
tp2374
as(S'plan'
p2375
tp2376
(lp2377
(I62
I5
I0
S'monthly'
p2378
tp2379
a(I62
I8
F-0.25
S'cheaper'
p2380
tp2381
a(I152
I21
I0
S'more'
p2382
tp2383
a(I175
I14
I0
S'monthly'
p2384
tp2385
a(I188
I0
F0.875
S'happy'
p2386
tp2387
a(I193
I1
F-0.25
S'cheapest'
p2388
tp2389
a(I193
I4
F-0.5
S'less'
p2390
tp2391
a(I260
I1
I0
S'great'
p2392
tp2393
a(I330
I0
F1.0
S'best'
p2394
tp2395
a(I342
I9
F0.625
S'perfect'
p2396
tp2397
a(I359
I0
I0
S'own'
p2398
tp2399
a(I420
I9
I0
S'august'
p2400
tp2401
as(S'battery'
p2402
tp2403
(lp2404
(I2
I12
I0
S'more'
p2405
tp2406
a(I4
I0
F-0.75
g1797
tp2407
a(I7
I2
F1.0
S'good'
p2408
tp2409
a(I9
I11
F-0.375
S'pull'
p2410
tp2411
a(I23
I3
F-0.375
g1801
tp2412
a(I42
I3
I0
S'external'
p2413
tp2414
a(I50
I4
F-0.25
S'low'
p2415
tp2416
a(I52
I15
F1.0
S'best'
p2417
tp2418
a(I55
I3
F-0.5
g1809
tp2419
a(I84
I11
I0
S'full'
p2420
tp2421
a(I84
I13
I0
S'full'
p2422
tp2423
a(I116
I11
I0
S'quick'
p2424
tp2425
a(I122
I31
F0.75
S'proper'
p2426
tp2427
a(I122
I33
F1.0
g1821
tp2428
a(I123
I4
F0.5
g1825
tp2429
a(I133
I1
F-0.5
S'poor'
p2430
tp2431
a(I155
I10
F0.625
S'replaceable'
p2432
tp2433
a(I157
I5
F-0.25
S'low'
p2434
tp2435
a(I177
I36
F-0.125
S'mine'
p2436
tp2437
a(I185
I1
F-0.5
S'less'
p2438
tp2439
a(I193
I7
F-0.5
g1833
tp2440
a(I193
I19
F-0.5
g1835
tp2441
a(I202
I1
F0.25
g1841
tp2442
a(I205
I8
F0.75
g1845
tp2443
a(I205
I10
I0
S'most'
p2444
tp2445
a(I205
I27
F-0.75
g1847
tp2446
a(I205
I61
I0
S'standard'
p2447
tp2448
a(I205
I61
F1.0
S'good'
p2449
tp2450
a(I205
I64
F-0.5
S'heavy'
p2451
tp2452
a(I227
I5
F0.375
S'new'
p2453
tp2454
a(I227
I6
I0
S'different'
p2455
tp2456
a(I227
I6
F-0.5
S'sure'
p2457
tp2458
a(I238
I3
F-0.625
S'bad'
p2459
tp2460
a(I247
I2
F-0.75
g1857
tp2461
a(I262
I0
F0.5
S'triumph'
p2462
tp2463
a(I264
I3
F0.375
g1861
tp2464
a(I265
I4
F1.0
g1863
tp2465
a(I278
I29
F1.0
g1867
tp2466
a(I278
I30
F1.0
g1869
tp2467
a(I283
I4
F-0.5
g1873
tp2468
a(I283
I5
F0.125
g1875
tp2469
a(I285
I3
F-0.5
S'complaint'
p2470
tp2471
a(I294
I5
I0
g1877
tp2472
a(I294
I26
F0.375
S'extended'
p2473
tp2474
a(I294
I26
F0.375
S'available'
p2475
tp2476
a(I300
I9
F-0.25
S'low'
p2477
tp2478
a(I308
I4
I0
S'quick'
p2479
tp2480
a(I311
I2
I0
g1885
tp2481
a(I311
I7
I0
S'more'
p2482
tp2483
a(I311
I22
F-0.375
g1887
tp2484
a(I311
I54
F0.375
S'extended'
p2485
tp2486
a(I323
I0
F0.125
g1891
tp2487
a(I335
I1
F-0.625
g1897
tp2488
a(I359
I2
F-0.75
S'dead'
p2489
tp2490
a(I367
I2
I0
g1903
tp2491
a(I371
I0
F-0.75
g1909
tp2492
a(I372
I1
F1.0
g1911
tp2493
a(I372
I2
F1.0
S'good'
p2494
tp2495
a(I372
I2
F0.5
S'strong'
p2496
tp2497
a(I377
I3
F0.625
S'major'
p2498
tp2499
a(I384
I0
F-0.75
g1915
tp2500
a(I404
I0
F-0.625
g1917
tp2501
a(I404
I2
F1.0
g1921
tp2502
a(I420
I1
F1.0
g1925
tp2503
a(I420
I6
F-0.5
g1927
tp2504
a(I434
I0
F1.0
g1933
tp2505
a(I435
I6
F0.25
S'sharp'
p2506
tp2507
a(I436
I2
I0
S'quick'
p2508
tp2509
a(I436
I3
I0
S'few'
p2510
tp2511
a(I436
I3
F-0.5
S'longer'
p2512
tp2513
as(S'lg'
p2514
S'optimus'
p2515
S'slider'
p2516
tp2517
(lp2518
(I92
I13
F0.875
g564
tp2519
as(S'calls'
p2520
tp2521
(lp2522
(I9
I7
F-0.625
S'bad'
p2523
tp2524
a(I9
I7
F0.75
S'due'
p2525
tp2526
a(I42
I6
F-0.25
S'dropped'
p2527
tp2528
a(I71
I1
I0
S'many'
p2529
tp2530
a(I71
I1
F-0.25
S'late'
p2531
tp2532
a(I71
I4
I0
S'few'
p2533
tp2534
a(I71
I4
F-0.25
S'dropped'
p2535
tp2536
a(I91
I6
I0
S'many'
p2537
tp2538
a(I91
I6
F0.875
S'important'
p2539
tp2540
a(I101
I1
F1.0
S'good'
p2541
tp2542
a(I122
I9
F0.375
S'reliable'
p2543
tp2544
a(I125
I12
F0.5
S'clear'
p2545
tp2546
a(I170
I1
F0.625
S'easy'
p2547
tp2548
a(I181
I10
I0
S'many'
p2549
tp2550
a(I263
I8
F-0.25
S'dropped'
p2551
tp2552
a(I265
I3
F1.0
S'good'
p2553
tp2554
a(I267
I13
I0
S'adequate'
p2555
tp2556
a(I277
I0
F0.5
S'clear'
p2557
tp2558
a(I313
I1
F0.875
S'nice'
p2559
tp2560
a(I313
I1
F0.5
S'clear'
p2561
tp2562
a(I342
I9
I0
S'most'
p2563
tp2564
a(I432
I16
F-0.25
S'low'
p2565
tp2566
a(I433
I9
F0.5
S'clear'
p2567
tp2568
a(I436
I6
F0.125
S'able'
p2569
tp2570
as(S'update'
p2571
tp2572
(lp2573
(I18
I3
F0.375
S'new'
p2574
tp2575
a(I64
I1
F0.625
S'major'
p2576
tp2577
a(I132
I24
I0
S'android'
p2578
tp2579
a(I132
I24
I0
S'android'
p2580
tp2581
a(I214
I16
F-0.375
S'simple'
p2582
tp2583
a(I301
I2
I0
S'final'
p2584
tp2585
a(I301
I47
F-0.5
S'humble'
p2586
tp2587
a(I301
I47
F0.375
S'reliable'
p2588
tp2589
a(I363
I26
I0
S'august'
p2590
tp2591
a(I374
I11
I0
S'later'
p2592
tp2593
as(S'of'
p2594
S'nternal'
p2595
S'memory'
p2596
tp2597
(lp2598
(I137
I9
I0
g1224
tp2599
a(I152
I5
I0
g1226
tp2600
a(I186
I4
F0.375
g1236
tp2601
a(I186
I4
F0.25
g1238
tp2602
a(I186
I4
I0
g1240
tp2603
a(I205
I24
I0
g1242
tp2604
a(I209
I5
I0
g1246
tp2605
a(I209
I5
F0.75
g1248
tp2606
a(I255
I40
I0
g1258
tp2607
a(I301
I18
I0
g1262
tp2608
a(I301
I20
I0
g1264
tp2609
a(I301
I21
I0
g1266
tp2610
a(I301
I21
I0
g1268
tp2611
a(I301
I23
F0.375
g1272
tp2612
a(I301
I23
I0
g1274
tp2613
a(I301
I23
I0
g1276
tp2614
a(I301
I23
I0
g1278
tp2615
a(I301
I23
I0
g1280
tp2616
a(I301
I25
I0
g1284
tp2617
a(I301
I26
I0
g1286
tp2618
a(I301
I26
I0
g1288
tp2619
a(I309
I7
I0
g1294
tp2620
a(I442
I2
I0
g1304
tp2621
as(S'pretty'
p2622
tp2623
(lp2624
(I90
I33
I0
g2342
tp2625
a(I207
I0
F1.0
g2344
tp2626
a(I241
I1
F-0.125
g2346
tp2627
a(I265
I3
F-0.125
g2348
tp2628
a(I315
I1
F-0.25
S'low'
p2629
tp2630
a(I315
I1
F0.375
S'much'
p2631
tp2632
as(S'time'
p2633
tp2634
(lp2635
(I8
I5
F0.125
S'first'
p2636
tp2637
a(I26
I3
F-0.5
g1367
tp2638
a(I26
I3
F-0.5
g1369
tp2639
a(I32
I1
F0.375
S'prime'
p2640
tp2641
a(I32
I6
I0
S'most'
p2642
tp2643
a(I32
I6
I0
S'own'
p2644
tp2645
a(I34
I6
F-0.875
S'hard'
p2646
tp2647
a(I34
I11
I0
S'most'
p2648
tp2649
a(I47
I0
F-0.5
g1371
tp2650
a(I55
I9
F-0.75
S'short'
p2651
tp2652
a(I55
I9
I0
S'later'
p2653
tp2654
a(I104
I14
I0
S'next'
p2655
tp2656
a(I104
I14
F0.375
S'extra'
p2657
tp2658
a(I121
I30
F0.125
S'last'
p2659
tp2660
a(I125
I8
F0.125
S'enough'
p2661
tp2662
a(I145
I1
F0.5
S'whole'
p2663
tp2664
a(I145
I21
F0.125
S'first'
p2665
tp2666
a(I162
I4
F-0.5
g1373
tp2667
a(I168
I2
F0.125
S'last'
p2668
tp2669
a(I175
I2
I0
S'user'
p2670
tp2671
a(I175
I2
F-0.75
S'short'
p2672
tp2673
a(I175
I2
F0.25
S'boy'
p2674
tp2675
a(I178
I2
F-0.75
S'short'
p2676
tp2677
a(I209
I5
F-0.5
g1375
tp2678
a(I227
I4
I0
S'most'
p2679
tp2680
a(I229
I3
I0
S'most'
p2681
tp2682
a(I229
I8
F-0.5
g1377
tp2683
a(I238
I3
F-0.5
g1379
tp2684
a(I250
I6
I0
S'entire'
p2685
tp2686
a(I250
I7
F-0.375
S'sat'
p2687
tp2688
a(I250
I7
F0.125
S'first'
p2689
tp2690
a(I250
I9
F-0.5
g1381
tp2691
a(I252
I6
I0
S'most'
p2692
tp2693
a(I263
I1
I0
S'same'
p2694
tp2695
a(I283
I7
I0
S'only'
p2696
tp2697
a(I283
I12
F0.875
S'lucky'
p2698
tp2699
a(I283
I12
F0.125
S'first'
p2700
tp2701
a(I283
I21
F1.0
S'good'
p2702
tp2703
a(I283
I23
F0.125
S'first'
p2704
tp2705
a(I300
I3
F0.125
S'first'
p2706
tp2707
a(I301
I17
I0
S'later'
p2708
tp2709
a(I306
I7
F0.375
S'new'
p2710
tp2711
a(I311
I34
F0.75
S'due'
p2712
tp2713
a(I313
I3
I0
S'fast'
p2714
tp2715
a(I313
I3
F0.25
S'responsive'
p2716
tp2717
a(I313
I3
I0
S'most'
p2718
tp2719
a(I331
I14
F-0.875
S'hard'
p2720
tp2721
a(I331
I16
F-0.5
g1383
tp2722
a(I337
I6
I0
S'same'
p2723
tp2724
a(I338
I2
I0
S'most'
p2725
tp2726
a(I339
I15
F0.125
S'first'
p2727
tp2728
a(I341
I0
F-0.5
g1385
tp2729
a(I342
I12
F-0.5
S'sure'
p2730
tp2731
a(I348
I2
F0.125
S'first'
p2732
tp2733
a(I351
I3
F-0.875
S'hard'
p2734
tp2735
a(I373
I28
F0.125
S'first'
p2736
tp2737
a(I377
I3
I0
S'same'
p2738
tp2739
a(I378
I7
F0.375
S'interesting'
p2740
tp2741
a(I405
I2
F-0.875
S'hard'
p2742
tp2743
a(I413
I4
I0
S'next'
p2744
tp2745
a(I413
I7
F0.125
S'first'
p2746
tp2747
a(I413
I21
I0
S'big'
p2748
tp2749
a(I425
I23
I0
S'next'
p2750
tp2751
a(I431
I0
F0.125
S'first'
p2752
tp2753
a(I437
I13
I0
S'only'
p2754
tp2755
as(S'bucks'
p2756
g1307
S'month'
p2757
tp2758
(lp2759
(I433
I4
F-0.625
S'free'
p2760
tp2761
as(S'for'
p2762
S'virgin'
p2763
S'mobile'
p2764
tp2765
(lp2766
(I17
I0
F1.0
g361
tp2767
a(I54
I0
I0
g711
tp2768
a(I63
I2
I0
g366
tp2769
a(I95
I12
F-0.625
g370
tp2770
a(I109
I1
I0
g372
tp2771
a(I128
I3
I0
g630
tp2772
a(I153
I7
I0
g382
tp2773
a(I181
I9
F0.125
g384
tp2774
a(I260
I0
F0.875
g250
tp2775
a(I264
I18
I0
g737
tp2776
a(I302
I13
F-0.625
g396
tp2777
a(I332
I0
F0.375
g399
tp2778
a(I334
I27
F-0.125
g1782
tp2779
a(I363
I4
I0
g401
tp2780
as(S'months'
p2781
tp2782
(lp2783
(I0
I27
F-0.5
S'less'
p2784
tp2785
a(I38
I2
I0
S'few'
p2786
tp2787
a(I38
I2
I0
S'later'
p2788
tp2789
a(I42
I11
I0
S'few'
p2790
tp2791
a(I57
I13
I0
S'few'
p2792
tp2793
a(I81
I8
F0.125
S'last'
p2794
tp2795
a(I90
I54
I0
S'update'
p2796
tp2797
a(I90
I66
F0.125
S'first'
p2798
tp2799
a(I96
I5
I0
S'few'
p2800
tp2801
a(I112
I0
F-0.25
S'past'
p2802
tp2803
a(I117
I0
I0
S'few'
p2804
tp2805
a(I132
I14
F-0.25
S'late'
p2806
tp2807
a(I192
I4
F1.0
S'good'
p2808
tp2809
a(I192
I4
I0
S'few'
p2810
tp2811
a(I199
I0
F0.125
S'last'
p2812
tp2813
a(I199
I0
I0
S'few'
p2814
tp2815
a(I199
I2
I0
S'few'
p2816
tp2817
a(I199
I2
I0
S'later'
p2818
tp2819
a(I209
I4
I0
S'few'
p2820
tp2821
a(I215
I2
F0.25
S'used'
p2822
tp2823
a(I239
I4
I0
S'angry'
p2824
tp2825
a(I239
I4
F0.125
S'first'
p2826
tp2827
a(I252
I3
F0.375
S'new'
p2828
tp2829
a(I294
I1
F0.125
S'last'
p2830
tp2831
a(I311
I5
I0
S'many'
p2832
tp2833
a(I311
I11
I0
S'few'
p2834
tp2835
a(I329
I11
F0.375
S'extra'
p2836
tp2837
a(I340
I4
I0
S'later'
p2838
tp2839
a(I342
I1
F0.125
S'last'
p2840
tp2841
a(I342
I1
I0
S'great'
p2842
tp2843
a(I358
I0
I0
S'few'
p2844
tp2845
a(I375
I0
F-0.5
S'less'
p2846
tp2847
a(I408
I7
I0
S'later'
p2848
tp2849
a(I408
I9
I0
S'many'
p2850
tp2851
a(I412
I0
I0
S'later'
p2852
tp2853
a(I416
I2
F0.125
S'first'
p2854
tp2855
a(I416
I2
I0
S'few'
p2856
tp2857
a(I435
I16
F0.125
S'first'
p2858
tp2859
a(I435
I22
F-0.25
S'past'
p2860
tp2861
a(I435
I22
F-0.625
S'other'
p2862
tp2863
as(S'nternal'
p2864
S'memory'
p2865
tp2866
(lp2867
(I37
I3
I0
g1202
tp2868
a(I37
I3
F1.0
g1204
tp2869
a(I37
I3
I0
g1206
tp2870
a(I37
I5
I0
g1208
tp2871
a(I40
I1
I0
g1210
tp2872
a(I42
I4
I0
g1212
tp2873
a(I82
I0
I0
g1218
tp2874
a(I92
I19
I0
g1220
tp2875
a(I137
I9
I0
g1224
tp2876
a(I152
I5
I0
g1226
tp2877
a(I186
I4
F0.375
g1236
tp2878
a(I186
I4
F0.25
g1238
tp2879
a(I186
I4
I0
g1240
tp2880
a(I205
I24
I0
g1242
tp2881
a(I205
I31
I0
g1244
tp2882
a(I209
I5
I0
g1246
tp2883
a(I209
I5
F0.75
g1248
tp2884
a(I255
I40
I0
g1258
tp2885
a(I267
I19
I0
g1260
tp2886
a(I301
I18
I0
g1262
tp2887
a(I301
I20
I0
g1264
tp2888
a(I301
I21
I0
g1266
tp2889
a(I301
I21
I0
g1268
tp2890
a(I301
I22
I0
g1270
tp2891
a(I301
I23
F0.375
g1272
tp2892
a(I301
I23
I0
g1274
tp2893
a(I301
I23
I0
g1276
tp2894
a(I301
I23
I0
g1278
tp2895
a(I301
I23
I0
g1280
tp2896
a(I301
I24
I0
g1282
tp2897
a(I301
I25
I0
g1284
tp2898
a(I301
I26
I0
g1286
tp2899
a(I301
I26
I0
g1288
tp2900
a(I302
I5
I0
g1290
tp2901
a(I309
I7
I0
g1294
tp2902
a(I442
I2
I0
g1304
tp2903
as(S'touch'
p2904
S'screen'
p2905
tp2906
(lp2907
(I4
I0
F0.5
S'touch'
p2908
tp2909
a(I25
I4
F0.25
S'responsive'
p2910
tp2911
a(I41
I3
F0.5
S'touch'
p2912
tp2913
a(I64
I6
F0.625
S'superior'
p2914
tp2915
a(I90
I16
F1.0
g213
tp2916
a(I90
I18
F0.5
S'touch'
p2917
tp2918
a(I95
I12
I0
S'large'
p2919
tp2920
a(I145
I4
F-0.875
S'worst'
p2921
tp2922
a(I145
I4
F0.5
S'touch'
p2923
tp2924
a(I151
I8
I0
S'big'
p2925
tp2926
a(I155
I5
I0
S'sensitive'
p2927
tp2928
a(I155
I5
F0.25
g215
tp2929
a(I158
I5
F-0.5
S'less'
p2930
tp2931
a(I158
I5
F0.25
S'responsive'
p2932
tp2933
a(I167
I0
F-0.375
S'black'
p2934
tp2935
a(I167
I0
F1.0
g217
tp2936
a(I169
I7
F0.5
S'touch'
p2937
tp2938
a(I169
I8
F0.5
S'touch'
p2939
tp2940
a(I179
I14
F-0.125
g221
tp2941
a(I199
I28
F0.5
S'touch'
p2942
tp2943
a(I231
I0
F0.25
S'responsive'
p2944
tp2945
a(I231
I0
F0.5
S'touch'
p2946
tp2947
a(I252
I8
F0.5
S'touch'
p2948
tp2949
a(I278
I6
F-0.5
g223
tp2950
a(I297
I2
F0.25
S'responsive'
p2951
tp2952
a(I308
I1
I0
S'big'
p2953
tp2954
a(I308
I1
F0.5
S'clear'
p2955
tp2956
a(I309
I7
F0.5
S'touch'
p2957
tp2958
a(I309
I7
F0.25
S'responsive'
p2959
tp2960
a(I309
I7
I0
g225
tp2961
a(I311
I21
F0.5
S'touch'
p2962
tp2963
a(I311
I52
I0
g227
tp2964
a(I311
I52
F0.25
S'responsive'
p2965
tp2966
a(I319
I13
F0.5
S'touch'
p2967
tp2968
a(I357
I0
I0
g229
tp2969
a(I357
I1
I0
S'sensitive'
p2970
tp2971
a(I408
I7
F-0.5
g231
tp2972
a(I420
I1
F1.0
S'good'
p2973
tp2974
a(I420
I1
F1.0
g233
tp2975
a(I421
I9
F0.5
S'touch'
p2976
tp2977
a(I421
I9
I0
S'sensitive'
p2978
tp2979
a(I422
I4
I0
S'great'
p2980
tp2981
a(I422
I4
F0.125
g235
tp2982
a(I438
I9
F-0.75
S'unresponsive'
p2983
tp2984
as(S'juice'
p2985
S'defender'
p2986
tp2987
(lp2988
(I264
I2
F0.5
S'juice'
p2989
tp2990
as(S'timely'
p2991
S'manner'
p2992
tp2993
(lp2994
(I104
I2
I0
S'timely'
p2995
tp2996
a(I329
I5
I0
S'timely'
p2997
tp2998
as(S'an'
p2999
S'lg'
p3000
S'optimus'
p3001
tp3002
(lp3003
(I79
I40
F-0.375
g562
tp3004
a(I92
I13
F0.875
g564
tp3005
a(I95
I12
I0
g348
tp3006
a(I171
I3
F0.5
g569
tp3007
a(I258
I6
F-0.75
g350
tp3008
a(I278
I1
F0.5
g1178
tp3009
a(I301
I4
F-0.375
g352
tp3010
a(I304
I2
F0.5
g574
tp3011
a(I344
I0
F0.375
g1182
tp3012
a(I393
I1
F0.25
g522
tp3013
a(I420
I9
F-0.75
g354
tp3014
as(S'micro'
p3015
S'sd'
p3016
S'card'
p3017
tp3018
(lp3019
(I155
I10
I0
g413
tp3020
a(I205
I32
F-0.375
S'pull'
p3021
tp3022
a(I227
I3
F0.875
S'music'
p3023
tp3024
a(I239
I2
F0.125
S'first'
p3025
tp3026
a(I239
I2
I0
S'great'
p3027
tp3028
as(S'screen'
p3029
tp3030
(lp3031
(I0
I7
F-0.25
S'thin'
p3032
tp3033
a(I0
I7
F0.875
S'nice'
p3034
tp3035
a(I0
I7
I0
S'large'
p3036
tp3037
a(I2
I1
I0
S'large'
p3038
tp3039
a(I4
I0
F0.5
g2908
tp3040
a(I6
I6
F-0.25
S'white'
p3041
tp3042
a(I16
I0
F1.0
S'best'
p3043
tp3044
a(I16
I0
I0
S'large'
p3045
tp3046
a(I16
I6
F-0.75
S'bright'
p3047
tp3048
a(I16
I6
F0.5
S'clear'
p3049
tp3050
a(I16
I6
F0.25
S'responsive'
p3051
tp3052
a(I25
I4
F0.25
g2910
tp3053
a(I33
I8
I0
S'big'
p3054
tp3055
a(I37
I8
I0
S'big'
p3056
tp3057
a(I37
I8
F0.125
S'first'
p3058
tp3059
a(I41
I3
F0.5
g2912
tp3060
a(I47
I9
I0
S'big'
p3061
tp3062
a(I53
I1
F-0.25
S'giant'
p3063
tp3064
a(I56
I10
I0
S'great'
p3065
tp3066
a(I56
I10
F0.875
S'nice'
p3067
tp3068
a(I56
I10
I0
S'big'
p3069
tp3070
a(I57
I4
F0.25
S'bigger'
p3071
tp3072
a(I57
I13
F0.625
S'add'
p3073
tp3074
a(I64
I6
F0.625
g2914
tp3075
a(I71
I8
F-0.25
S'white'
p3076
tp3077
a(I75
I0
I0
S'blue'
p3078
tp3079
a(I79
I11
F0.125
S'colorful'
p3080
tp3081
a(I79
I14
F0.625
S'noticeable'
p3082
tp3083
a(I79
I23
I0
S'such'
p3084
tp3085
a(I79
I23
F-0.625
S'green'
p3086
tp3087
a(I79
I24
F0.375
S'standby'
p3088
tp3089
a(I79
I24
F0.625
S'washed'
p3090
tp3091
a(I80
I1
F0.25
S'larger'
p3092
tp3093
a(I90
I14
I0
S'great'
p3094
tp3095
a(I90
I18
F0.5
g2917
tp3096
a(I92
I15
F-0.375
S'smaller'
p3097
tp3098
a(I92
I19
F-0.375
S'smaller'
p3099
tp3100
a(I92
I19
F-0.5
S'less'
p3101
tp3102
a(I95
I12
I0
g2919
tp3103
a(I102
I1
F0.5
S'clear'
p3104
tp3105
a(I108
I7
F0.25
S'larger'
p3106
tp3107
a(I113
I1
I0
S'big'
p3108
tp3109
a(I113
I1
F0.625
S'easy'
p3110
tp3111
a(I116
I18
I0
S'big'
p3112
tp3113
a(I121
I1
F0.875
S'nice'
p3114
tp3115
a(I121
I1
I0
S'big'
p3116
tp3117
a(I123
I2
F0.125
S'first'
p3118
tp3119
a(I123
I2
F0.25
S'responsive'
p3120
tp3121
a(I123
I2
F-0.75
S'brighter'
p3122
tp3123
a(I129
I3
F0.625
S'easier'
p3124
tp3125
a(I145
I4
F-0.875
g2921
tp3126
a(I145
I4
F0.5
g2923
tp3127
a(I146
I10
F-0.75
S'bright'
p3128
tp3129
a(I151
I8
I0
g2925
tp3130
a(I152
I5
I0
S'large'
p3131
tp3132
a(I155
I3
F-0.75
S'bright'
p3133
tp3134
a(I155
I5
I0
g2927
tp3135
a(I158
I5
F-0.5
g2930
tp3136
a(I158
I5
F0.25
g2932
tp3137
a(I163
I0
I0
S'large'
p3138
tp3139
a(I163
I0
F0.625
S'easy'
p3140
tp3141
a(I166
I4
F0.25
S'bigger'
p3142
tp3143
a(I166
I4
I0
S'great'
p3144
tp3145
a(I166
I8
F-0.25
S'white'
p3146
tp3147
a(I167
I0
F-0.375
g2934
tp3148
a(I169
I7
F0.5
g2937
tp3149
a(I169
I8
F0.5
g2939
tp3150
a(I170
I4
F0.625
S'easy'
p3151
tp3152
a(I171
I0
I0
S'large'
p3153
tp3154
a(I172
I13
F-0.75
S'bright'
p3155
tp3156
a(I172
I14
F1.0
S'good'
p3157
tp3158
a(I172
I14
I0
S'bionic'
p3159
tp3160
a(I177
I2
F0.25
S'bigger'
p3161
tp3162
a(I177
I5
F0.25
S'responsive'
p3163
tp3164
a(I177
I6
F-0.25
S'thin'
p3165
tp3166
a(I177
I6
I0
S'capacitive'
p3167
tp3168
a(I179
I3
F-0.125
S'slow'
p3169
tp3170
a(I179
I8
I0
S'blue'
p3171
tp3172
a(I181
I13
F-0.75
S'difficult'
p3173
tp3174
a(I189
I4
I0
S'big'
p3175
tp3176
a(I189
I7
F0.125
S'spectacular'
p3177
tp3178
a(I190
I2
I0
S'great'
p3179
tp3180
a(I192
I5
F0.25
S'suppose'
p3181
tp3182
a(I196
I1
I0
S'large'
p3183
tp3184
a(I199
I16
F-0.75
S'unresponsive'
p3185
tp3186
a(I199
I28
F0.5
g2942
tp3187
a(I201
I7
I0
S'big'
p3188
tp3189
a(I201
I7
F0.875
S'nice'
p3190
tp3191
a(I202
I0
F-0.375
S'small'
p3192
tp3193
a(I202
I8
F-0.75
S'dark'
p3194
tp3195
a(I205
I41
F0.625
S'major'
p3196
tp3197
a(I214
I4
I0
S'great'
p3198
tp3199
a(I216
I1
F0.25
S'larger'
p3200
tp3201
a(I216
I9
F0.5
S'clear'
p3202
tp3203
a(I220
I2
I0
S'large'
p3204
tp3205
a(I220
I4
F0.625
S'pleasant'
p3206
tp3207
a(I220
I12
F-0.375
S'black'
p3208
tp3209
a(I231
I0
F0.25
g2944
tp3210
a(I231
I0
F0.5
g2946
tp3211
a(I236
I3
F0.25
S'bigger'
p3212
tp3213
a(I239
I16
I0
S'thick'
p3214
tp3215
a(I239
I17
F0.25
S'responsive'
p3216
tp3217
a(I252
I8
F0.5
g2948
tp3218
a(I255
I10
F-0.75
S'bright'
p3219
tp3220
a(I255
I10
F0.125
S'colorful'
p3221
tp3222
a(I258
I1
F-0.125
S'mine'
p3223
tp3224
a(I258
I1
F0.625
S'easy'
p3225
tp3226
a(I275
I2
F0.25
S'responsive'
p3227
tp3228
a(I275
I2
I0
S'few'
p3229
tp3230
a(I275
I2
I0
S'great'
p3231
tp3232
a(I278
I30
F1.0
S'better'
p3233
tp3234
a(I283
I4
F-0.75
S'unresponsive'
p3235
tp3236
a(I283
I10
F-0.625
S'other'
p3237
tp3238
a(I294
I6
F-0.375
S'smaller'
p3239
tp3240
a(I294
I6
I0
S'least'
p3241
tp3242
a(I294
I6
F0.375
S'reliable'
p3243
tp3244
a(I297
I2
F0.25
g2951
tp3245
a(I300
I0
F0.875
S'happy'
p3246
tp3247
a(I300
I0
F0.25
S'bigger'
p3248
tp3249
a(I300
I10
F0.25
S'larger'
p3250
tp3251
a(I301
I15
I0
S'more'
p3252
tp3253
a(I301
I15
I0
S'more'
p3254
tp3255
a(I301
I15
F0.5
S'glare'
p3256
tp3257
a(I301
I16
I0
S'most'
p3258
tp3259
a(I301
I16
F0.375
S'much'
p3260
tp3261
a(I301
I16
F0.25
S'responsive'
p3262
tp3263
a(I302
I5
F0.125
S'enough'
p3264
tp3265
a(I304
I0
I0
S'faster'
p3266
tp3267
a(I304
I0
F0.25
S'larger'
p3268
tp3269
a(I308
I1
I0
g2953
tp3270
a(I308
I1
F0.5
g2955
tp3271
a(I309
I7
F0.5
g2957
tp3272
a(I309
I7
F0.25
g2959
tp3273
a(I311
I2
F0.25
S'bigger'
p3274
tp3275
a(I311
I11
I0
S'great'
p3276
tp3277
a(I311
I16
I0
S'own'
p3278
tp3279
a(I311
I18
F0.25
S'larger'
p3280
tp3281
a(I311
I18
I0
S'real'
p3282
tp3283
a(I311
I21
F0.5
g2962
tp3284
a(I311
I22
I0
S'more'
p3285
tp3286
a(I311
I52
F0.25
g2965
tp3287
a(I312
I17
F-0.375
S'black'
p3288
tp3289
a(I319
I9
F-0.375
S'smaller'
p3290
tp3291
a(I319
I13
F0.5
g2967
tp3292
a(I347
I8
F-0.125
S'super'
p3293
tp3294
a(I347
I8
I0
S'fast'
p3295
tp3296
a(I347
I8
I0
S'big'
p3297
tp3298
a(I347
I8
F0.625
S'easy'
p3299
tp3300
a(I349
I0
F-0.75
S'bright'
p3301
tp3302
a(I357
I1
I0
g2970
tp3303
a(I361
I1
F0.25
S'bigger'
p3304
tp3305
a(I363
I6
I0
S'sturdy'
p3306
tp3307
a(I363
I6
F0.75
S'beautiful'
p3308
tp3309
a(I363
I11
F0.25
S'larger'
p3310
tp3311
a(I378
I7
F0.5
S'clear'
p3312
tp3313
a(I378
I7
F0.25
S'larger'
p3314
tp3315
a(I380
I0
F-0.625
S'other'
p3316
tp3317
a(I388
I2
F0.25
S'responsive'
p3318
tp3319
a(I393
I1
F0.25
S'larger'
p3320
tp3321
a(I397
I2
I0
S'big'
p3322
tp3323
a(I412
I1
F0.25
S'larger'
p3324
tp3325
a(I412
I3
F0.25
S'larger'
p3326
tp3327
a(I412
I3
F0.875
S'nice'
p3328
tp3329
a(I416
I17
I0
S'big'
p3330
tp3331
a(I416
I30
I0
S'big'
p3332
tp3333
a(I416
I30
F-0.75
S'bright'
p3334
tp3335
a(I420
I1
F1.0
g2973
tp3336
a(I421
I9
F0.5
g2976
tp3337
a(I421
I9
I0
g2978
tp3338
a(I422
I4
I0
g2980
tp3339
a(I433
I10
F0.25
S'larger'
p3340
tp3341
a(I433
I10
F0.625
S'easier'
p3342
tp3343
a(I437
I4
I0
S'large'
p3344
tp3345
a(I437
I8
F-0.375
S'smaller'
p3346
tp3347
a(I438
I9
F-0.75
g2983
tp3348
a(I441
I0
F0.25
S'bigger'
p3349
tp3350
as(S'everything'
p3351
tp3352
(lp3353
(I24
I1
F-0.625
S'bad'
p3354
tp3355
a(I36
I8
I0
S'faster'
p3356
tp3357
a(I187
I3
F-0.75
S'unresponsive'
p3358
tp3359
a(I216
I2
F-0.75
S'modest'
p3360
tp3361
a(I319
I9
F0.25
S'bigger'
p3362
tp3363
a(I429
I5
F-0.75
S'worse'
p3364
tp3365
as(g1307
S'screen'
p3366
S'protector'
p3367
tp3368
(lp3369
(I57
I13
F0.625
g3073
tp3370
a(I177
I6
F-0.25
g3165
tp3371
a(I177
I6
I0
g3167
tp3372
a(I239
I16
I0
g3214
tp3373
a(I301
I15
I0
g3252
tp3374
a(I301
I15
I0
g3254
tp3375
a(I301
I15
F0.5
g3256
tp3376
a(I311
I16
I0
g3278
tp3377
a(I311
I52
F0.25
g2965
tp3378
as(S'camera'
p3379
tp3380
(lp3381
(I13
I5
F1.0
S'good'
p3382
tp3383
a(I14
I0
I0
g1191
tp3384
a(I37
I2
F1.0
S'good'
p3385
tp3386
a(I57
I5
F-0.25
S'disappointing'
p3387
tp3388
a(I57
I5
F0.125
S'first'
p3389
tp3390
a(I79
I26
F1.0
S'better'
p3391
tp3392
a(I79
I33
F-0.25
S'disappointing'
p3393
tp3394
a(I79
I35
F0.125
S'typical'
p3395
tp3396
a(I79
I36
F-0.125
S'overall'
p3397
tp3398
a(I79
I36
F1.0
S'good'
p3399
tp3400
a(I79
I36
F-0.5
S'afraid'
p3401
tp3402
a(I90
I24
F0.25
S'main'
p3403
tp3404
a(I90
I25
I0
S'real'
p3405
tp3406
a(I90
I27
I0
S'real'
p3407
tp3408
a(I94
I1
F1.0
S'good'
p3409
tp3410
a(I95
I12
F0.25
g1193
tp3411
a(I102
I2
I0
S'great'
p3412
tp3413
a(I121
I14
F-0.125
S'slow'
p3414
tp3415
a(I121
I15
F0.625
S'decent'
p3416
tp3417
a(I129
I5
I0
S'adequate'
p3418
tp3419
a(I167
I0
F-0.375
S'smaller'
p3420
tp3421
a(I199
I34
F0.25
S'main'
p3422
tp3423
a(I199
I34
F1.0
S'good'
p3424
tp3425
a(I202
I11
F0.25
S'main'
p3426
tp3427
a(I202
I11
F-0.75
S'nonexistent'
p3428
tp3429
a(I205
I24
F1.0
S'good'
p3430
tp3431
a(I215
I1
I0
S'great'
p3432
tp3433
a(I216
I6
F1.0
S'best'
p3434
tp3435
a(I255
I32
F1.0
S'good'
p3436
tp3437
a(I255
I32
F-0.125
S'overall'
p3438
tp3439
a(I311
I26
F0.625
S'decent'
p3440
tp3441
a(I312
I15
F0.125
S'able'
p3442
tp3443
a(I320
I9
F0.25
S'main'
p3444
tp3445
a(I320
I9
F-0.625
S'bad'
p3446
tp3447
a(I320
I11
I0
g1197
tp3448
a(I390
I1
F1.0
S'good'
p3449
tp3450
a(I397
I3
I0
S'great'
p3451
tp3452
a(I422
I5
F-0.5
S'regular'
p3453
tp3454
a(I427
I1
F-0.625
S'light'
p3455
tp3456
a(I436
I11
F1.0
S'good'
p3457
tp3458
as(S'1'
p3459
S'nch'
p3460
S'screen'
p3461
tp3462
(lp3463
(I37
I8
I0
g3056
tp3464
a(I37
I8
F0.125
g3058
tp3465
a(I155
I3
F-0.75
g3133
tp3466
a(I416
I30
I0
g3332
tp3467
a(I416
I30
F-0.75
g3334
tp3468
as(S'using'
p3469
tp3470
(lp3471
(I420
I12
F0.625
S'accessible'
p3472
tp3473
a(I420
I12
I0
S'standard'
p3474
tp3475
as(S'bluetooth'
p3476
tp3477
(lp3478
(I16
I13
F-0.5
S'sure'
p3479
tp3480
a(I32
I9
F-0.375
S'simple'
p3481
tp3482
a(I121
I8
F-0.875
S'trouble'
p3483
tp3484
a(I131
I3
F0.125
S'first'
p3485
tp3486
a(I152
I26
I0
S'toggle'
p3487
tp3488
a(I201
I13
F1.0
S'good'
p3489
tp3490
a(I278
I6
F-0.5
S'poor'
p3491
tp3492
a(I294
I12
F-0.75
S'unreliable'
p3493
tp3494
a(I353
I2
F-0.625
S'bad'
p3495
tp3496
as(S'take'
p3497
tp3498
(lp3499
(I117
I5
F-0.375
S'double'
p3500
tp3501
as(S'need'
p3502
tp3503
(lp3504
(I214
I2
I0
S'great'
p3505
tp3506
a(I214
I2
F0.75
S'constant'
p3507
tp3508
as(S'month'
p3509
tp3510
(lp3511
(I48
I7
F0.5
S'willing'
p3512
tp3513
a(I122
I34
I0
S'inclusive'
p3514
tp3515
a(I133
I5
I0
g1613
tp3516
a(I164
I7
I0
S'later'
p3517
tp3518
a(I177
I56
F-0.625
g1615
tp3519
a(I184
I0
F-0.875
S'trouble'
p3520
tp3521
a(I184
I0
F0.125
S'first'
p3522
tp3523
a(I206
I6
I0
S'next'
p3524
tp3525
a(I206
I6
I0
S'full'
p3526
tp3527
a(I238
I1
I0
S'old'
p3528
tp3529
a(I252
I1
F0.625
g1617
tp3530
a(I296
I3
F0.125
S'first'
p3531
tp3532
a(I296
I4
F0.5
S'second'
p3533
tp3534
a(I296
I21
I0
S'more'
p3535
tp3536
a(I328
I2
I0
S'old'
p3537
tp3538
a(I374
I3
F0.5
S'second'
p3539
tp3540
a(I374
I3
F-0.375
S'died'
p3541
tp3542
a(I416
I20
F0.125
S'last'
p3543
tp3544
a(I429
I7
F0.125
S'last'
p3545
tp3546
a(I433
I4
F-0.625
g2760
tp3547
a(I435
I5
F0.125
S'first'
p3548
tp3549
as(S'mobile'
p3550
tp3551
(lp3552
(I17
I0
F1.0
g361
tp3553
a(I38
I19
F-0.5
g242
tp3554
a(I41
I9
I0
g244
tp3555
a(I63
I2
I0
g366
tp3556
a(I140
I2
F-0.75
g378
tp3557
a(I146
I7
F-0.125
g723
tp3558
a(I153
I7
I0
g382
tp3559
a(I214
I13
I0
g386
tp3560
a(I252
I0
I0
g1767
tp3561
a(I334
I27
F-0.125
g1782
tp3562
as(S'signal'
p3563
tp3564
(lp3565
(I9
I3
F-0.5
S'weak'
p3566
tp3567
a(I9
I7
F-0.25
S'low'
p3568
tp3569
a(I42
I5
F-0.5
S'weaker'
p3570
tp3571
a(I55
I2
F0.125
S'first'
p3572
tp3573
a(I108
I8
F-0.5
S'poor'
p3574
tp3575
a(I110
I6
F-0.5
S'weak'
p3576
tp3577
a(I118
I7
F1.0
S'good'
p3578
tp3579
a(I129
I5
F-0.625
S'average'
p3580
tp3581
a(I183
I9
I0
S'same'
p3582
tp3583
a(I214
I16
F-0.25
S'low'
p3584
tp3585
a(I248
I2
F0.125
S'first'
p3586
tp3587
a(I248
I2
F-0.5
S'poor'
p3588
tp3589
a(I421
I7
F1.0
S'good'
p3590
tp3591
as(S'with'
p3592
S'motorola'
p3593
S'triumph'
p3594
tp3595
(lp3596
(I59
I1
F-0.25
g12
tp3597
a(I108
I5
I0
g94
tp3598
a(I152
I17
F0.875
g36
tp3599
a(I181
I2
F1.0
g107
tp3600
a(I199
I5
F-0.75
g48
tp3601
a(I296
I21
F-0.125
g111
tp3602
a(I302
I5
F-0.25
g113
tp3603
a(I302
I11
I0
g115
tp3604
a(I302
I15
F-0.625
g64
tp3605
a(I328
I16
F0.625
g72
tp3606
a(I328
I16
I0
g74
tp3607
a(I374
I5
F-0.625
g125
tp3608
as(S'people'
p3609
tp3610
(lp3611
(I12
I1
F-0.625
S'other'
p3612
tp3613
a(I39
I4
I0
S'many'
p3614
tp3615
a(I62
I1
I0
S'most'
p3616
tp3617
a(I90
I53
F0.125
S'enough'
p3618
tp3619
a(I95
I4
I0
S'full'
p3620
tp3621
a(I102
I4
I0
S'most'
p3622
tp3623
a(I117
I2
I0
S'many'
p3624
tp3625
a(I117
I2
I0
S'many'
p3626
tp3627
a(I118
I1
I0
S'different'
p3628
tp3629
a(I119
I2
F-0.5
S'afraid'
p3630
tp3631
a(I138
I2
I0
S'least'
p3632
tp3633
a(I145
I2
F-0.5
S'sure'
p3634
tp3635
a(I168
I12
I0
S'many'
p3636
tp3637
a(I168
I12
I0
S'same'
p3638
tp3639
a(I169
I4
F-0.625
S'plague'
p3640
tp3641
a(I178
I6
F-0.625
S'bad'
p3642
tp3643
a(I186
I0
F-0.625
S'other'
p3644
tp3645
a(I187
I7
I0
S'online'
p3646
tp3647
a(I193
I4
F0.875
S'lucky'
p3648
tp3649
a(I199
I20
F-0.625
S'other'
p3650
tp3651
a(I209
I5
I0
S'many'
p3652
tp3653
a(I209
I5
F0.375
S'new'
p3654
tp3655
a(I209
I5
I0
S'android'
p3656
tp3657
a(I209
I6
I0
S'many'
p3658
tp3659
a(I220
I0
I0
S'many'
p3660
tp3661
a(I264
I5
I0
S'few'
p3662
tp3663
a(I273
I4
F-0.625
S'other'
p3664
tp3665
a(I283
I3
F-0.625
S'other'
p3666
tp3667
a(I293
I6
I0
S'many'
p3668
tp3669
a(I301
I47
F-0.625
S'other'
p3670
tp3671
a(I311
I4
I0
S'many'
p3672
tp3673
a(I331
I17
F1.0
S'good'
p3674
tp3675
a(I339
I3
F-0.625
S'other'
p3676
tp3677
a(I363
I1
I0
S'real'
p3678
tp3679
a(I408
I1
I0
S'fast'
p3680
tp3681
a(I413
I27
F0.25
S'read'
p3682
tp3683
a(I413
I27
F-0.625
S'other'
p3684
tp3685
as(S'works'
p3686
tp3687
(lp3688
(I12
I0
I0
S'great'
p3689
tp3690
a(I37
I4
F0.375
S'reliable'
p3691
tp3692
a(I62
I3
I0
S'great'
p3693
tp3694
a(I117
I18
I0
S'great'
p3695
tp3696
a(I158
I4
I0
S'great'
p3697
tp3698
a(I192
I3
I0
S'great'
p3699
tp3700
a(I259
I1
I0
S'great'
p3701
tp3702
a(I369
I0
F0.875
S'nice'
p3703
tp3704
a(I378
I2
I0
S'great'
p3705
tp3706
a(I388
I4
I0
S'great'
p3707
tp3708
a(I400
I3
I0
S'great'
p3709
tp3710
a(I409
I5
I0
S'great'
p3711
tp3712
a(I415
I2
I0
S'faster'
p3713
tp3714
as(S'think'
p3715
tp3716
(lp3717
(I71
I12
F0.75
S'worth'
p3718
tp3719
as(S'with'
p3720
S'virgin'
p3721
S'mobile'
p3722
tp3723
(lp3724
(I17
I0
F1.0
g361
tp3725
a(I41
I9
I0
g244
tp3726
a(I75
I2
F-0.875
g714
tp3727
a(I90
I69
F0.875
g1746
tp3728
a(I95
I12
F-0.625
g370
tp3729
a(I214
I13
I0
g386
tp3730
a(I215
I0
F-0.625
g388
tp3731
a(I216
I1
I0
g390
tp3732
a(I216
I1
F1.0
g392
tp3733
a(I243
I2
F0.25
g394
tp3734
a(I302
I13
F-0.625
g396
tp3735
a(I328
I16
I0
g254
tp3736
a(I332
I0
F0.375
g399
tp3737
a(I363
I4
I0
g401
tp3738
a(I395
I10
I0
g748
tp3739
as(g1307
S'virgin'
p3740
S'mobile'
p3741
tp3742
(lp3743
(I17
I0
F1.0
g361
tp3744
a(I37
I17
I0
g707
tp3745
a(I38
I19
F-0.5
g242
tp3746
a(I39
I2
F-0.625
g364
tp3747
a(I41
I9
I0
g244
tp3748
a(I54
I0
I0
g711
tp3749
a(I63
I2
I0
g366
tp3750
a(I71
I0
I0
g368
tp3751
a(I75
I2
F-0.875
g714
tp3752
a(I90
I69
F0.875
g1746
tp3753
a(I95
I12
F-0.625
g370
tp3754
a(I97
I3
F1.0
g717
tp3755
a(I109
I1
I0
g372
tp3756
a(I118
I5
I0
g374
tp3757
a(I125
I7
I0
g376
tp3758
a(I128
I3
I0
g630
tp3759
a(I140
I2
F-0.75
g378
tp3760
a(I146
I7
F-0.125
g723
tp3761
a(I149
I0
F-0.625
g380
tp3762
a(I153
I7
I0
g382
tp3763
a(I181
I9
F0.125
g384
tp3764
a(I193
I1
I0
g727
tp3765
a(I204
I0
I0
g641
tp3766
a(I214
I13
I0
g386
tp3767
a(I215
I0
F-0.625
g388
tp3768
a(I216
I1
I0
g390
tp3769
a(I216
I1
F1.0
g392
tp3770
a(I222
I6
F0.25
g734
tp3771
a(I243
I2
F0.25
g394
tp3772
a(I252
I0
I0
g1767
tp3773
a(I260
I0
F0.875
g250
tp3774
a(I264
I18
I0
g737
tp3775
a(I277
I0
F0.125
g1771
tp3776
a(I277
I0
F-0.625
g1773
tp3777
a(I277
I0
F1.0
g1775
tp3778
a(I277
I0
I0
g1777
tp3779
a(I302
I13
F-0.625
g396
tp3780
a(I328
I16
I0
g254
tp3781
a(I332
I0
F0.375
g399
tp3782
a(I334
I27
F-0.125
g1782
tp3783
a(I362
I13
F-0.5
g742
tp3784
a(I363
I4
I0
g401
tp3785
a(I363
I15
F1.0
g745
tp3786
a(I363
I32
F0.375
g403
tp3787
a(I395
I10
I0
g748
tp3788
a(I395
I15
F-0.75
g750
tp3789
a(I401
I0
I0
g405
tp3790
a(I437
I10
F1.0
g1791
tp3791
as(S'better'
p3792
tp3793
(lp3794
(I21
I9
F0.375
S'much'
p3795
tp3796
a(I112
I5
F0.375
S'much'
p3797
tp3798
a(I186
I6
F0.375
S'much'
p3799
tp3800
a(I201
I16
F0.375
S'much'
p3801
tp3802
a(I273
I1
F0.375
S'much'
p3803
tp3804
a(I278
I32
F0.375
S'much'
p3805
tp3806
a(I332
I1
F0.375
S'much'
p3807
tp3808
as(S'screen'
p3809
S'protector'
p3810
tp3811
(lp3812
(I57
I13
F0.625
g3073
tp3813
a(I177
I6
F-0.25
g3165
tp3814
a(I177
I6
I0
g3167
tp3815
a(I239
I16
I0
g3214
tp3816
a(I301
I15
I0
g3252
tp3817
a(I301
I15
I0
g3254
tp3818
a(I301
I15
F0.5
g3256
tp3819
a(I311
I16
I0
g3278
tp3820
a(I311
I52
F0.25
g2965
tp3821
as(S'device'
p3822
tp3823
(lp3824
(I62
I9
I0
S'electronic'
p3825
tp3826
a(I69
I2
I0
S'great'
p3827
tp3828
a(I89
I0
I0
S'great'
p3829
tp3830
a(I109
I12
I0
S'android'
p3831
tp3832
a(I116
I3
I0
S'great'
p3833
tp3834
a(I189
I2
I0
S'great'
p3835
tp3836
a(I236
I0
I0
S'different'
p3837
tp3838
a(I236
I0
F-0.75
S'wrong'
p3839
tp3840
a(I304
I0
I0
S'android'
p3841
tp3842
a(I304
I2
I0
S'android'
p3843
tp3844
a(I350
I0
F0.25
S'powerful'
p3845
tp3846
a(I395
I13
F1.0
S'best'
p3847
tp3848
a(I404
I0
F0.25
S'portable'
p3849
tp3850
a(I421
I11
F-0.25
S'cheaper'
p3851
tp3852
a(I421
I22
F0.125
S'solid'
p3853
tp3854
as(S'call'
p3855
tp3856
(lp3857
(I36
I17
F-0.75
S'single'
p3858
tp3859
a(I36
I17
F-0.25
S'dropped'
p3860
tp3861
a(I91
I6
I0
S'own'
p3862
tp3863
a(I91
I6
I0
S'many'
p3864
tp3865
a(I108
I9
F-0.25
S'dropped'
p3866
tp3867
a(I109
I5
F1.0
S'good'
p3868
tp3869
a(I142
I8
F-0.5
S'actual'
p3870
tp3871
a(I166
I6
F-0.5
S'poor'
p3872
tp3873
a(I171
I0
F1.0
S'good'
p3874
tp3875
a(I247
I8
I0
S'few'
p3876
tp3877
a(I311
I41
F0.875
S'worthy'
p3878
tp3879
a(I311
I41
I0
S'least'
p3880
tp3881
a(I344
I2
F-0.875
S'worst'
p3882
tp3883
a(I413
I20
F-0.75
S'dead'
p3884
tp3885
a(I438
I10
F-0.25
S'low'
p3886
tp3887
a(I444
I0
F1.0
S'good'
p3888
tp3889
as(S'much'
p3890
S'better'
p3891
tp3892
(lp3893
(I21
I9
F0.375
g3795
tp3894
a(I112
I5
F0.375
g3797
tp3895
a(I186
I6
F0.375
g3799
tp3896
a(I201
I16
F0.375
g3801
tp3897
a(I273
I1
F0.375
g3803
tp3898
a(I278
I32
F0.375
g3805
tp3899
a(I332
I1
F0.375
g3807
tp3900
as(S'form'
p3901
S'factor'
p3902
tp3903
(lp3904
(I0
I6
I0
S'great'
p3905
tp3906
a(I64
I14
F0.25
S'larger'
p3907
tp3908
a(I118
I0
F-0.375
S'small'
p3909
tp3910
a(I201
I16
F0.25
S'sweet'
p3911
tp3912
as(S'apps'
p3913
tp3914
(lp3915
(I2
I3
F0.375
S'available'
p3916
tp3917
a(I9
I7
I0
S'most'
p3918
tp3919
a(I23
I4
I0
S'cool'
p3920
tp3921
a(I25
I8
I0
S'few'
p3922
tp3923
a(I28
I4
F-0.625
S'other'
p3924
tp3925
a(I37
I3
F-0.625
S'free'
p3926
tp3927
a(I50
I8
I0
S'android'
p3928
tp3929
a(I56
I11
F0.375
S'available'
p3930
tp3931
a(I63
I1
I0
S'android'
p3932
tp3933
a(I63
I1
I0
S'most'
p3934
tp3935
a(I63
I2
I0
S'most'
p3936
tp3937
a(I64
I3
I0
S'few'
p3938
tp3939
a(I67
I3
I0
S'most'
p3940
tp3941
a(I67
I3
I0
S'movable'
p3942
tp3943
a(I75
I0
F-0.625
S'other'
p3944
tp3945
a(I79
I38
I0
S'standard'
p3946
tp3947
a(I114
I4
F-0.75
S'little'
p3948
tp3949
a(I117
I3
F0.125
S'popular'
p3950
tp3951
a(I118
I2
F0.25
S'consistent'
p3952
tp3953
a(I121
I3
I0
S'most'
p3954
tp3955
a(I121
I3
I0
S'fast'
p3956
tp3957
a(I121
I27
I0
S'few'
p3958
tp3959
a(I123
I0
I0
S'few'
p3960
tp3961
a(I129
I4
I0
S'android'
p3962
tp3963
a(I148
I0
F1.0
S'good'
p3964
tp3965
a(I151
I8
F0.375
S'new'
p3966
tp3967
a(I153
I14
I0
S'more'
p3968
tp3969
a(I155
I12
F0.875
S'music'
p3970
tp3971
a(I163
I3
I0
S'great'
p3972
tp3973
a(I168
I6
F-0.625
S'free'
p3974
tp3975
a(I177
I10
I0
S'useful'
p3976
tp3977
a(I177
I22
F0.125
S'plenty'
p3978
tp3979
a(I181
I3
F0.25
S'responsive'
p3980
tp3981
a(I186
I4
I0
S'few'
p3982
tp3983
a(I190
I0
I0
S'many'
p3984
tp3985
a(I190
I0
F0.625
S'wanted'
p3986
tp3987
a(I200
I1
I0
S'many'
p3988
tp3989
a(I205
I4
I0
S'few'
p3990
tp3991
a(I205
I52
I0
S'such'
p3992
tp3993
a(I206
I10
I0
S'many'
p3994
tp3995
a(I207
I2
I0
S'such'
p3996
tp3997
a(I230
I1
I0
S'many'
p3998
tp3999
a(I239
I2
I0
S'few'
p4000
tp4001
a(I239
I7
F-0.5
S'certain'
p4002
tp4003
a(I239
I8
F-0.5
S'certain'
p4004
tp4005
a(I247
I4
F0.375
S'much'
p4006
tp4007
a(I247
I4
I0
S'most'
p4008
tp4009
a(I247
I4
F-0.75
S'unable'
p4010
tp4011
a(I252
I5
I0
S'own'
p4012
tp4013
a(I267
I19
I0
S'few'
p4014
tp4015
a(I275
I1
I0
S'many'
p4016
tp4017
a(I275
I1
I0
S'many'
p4018
tp4019
a(I275
I1
I0
S'more'
p4020
tp4021
a(I275
I6
F0.375
S'new'
p4022
tp4023
a(I278
I19
I0
S'many'
p4024
tp4025
a(I297
I7
F1.0
S'good'
p4026
tp4027
a(I300
I7
F-0.625
S'other'
p4028
tp4029
a(I300
I7
I0
S'basic'
p4030
tp4031
a(I301
I22
I0
S'many'
p4032
tp4033
a(I301
I23
I0
S'many'
p4034
tp4035
a(I301
I23
I0
S'movable'
p4036
tp4037
a(I301
I23
I0
S'many'
p4038
tp4039
a(I318
I2
I0
S'many'
p4040
tp4041
a(I319
I19
F1.0
S'good'
p4042
tp4043
a(I322
I3
I0
S'most'
p4044
tp4045
a(I325
I6
F-0.5
S'unwanted'
p4046
tp4047
a(I363
I4
F0.625
S'correct'
p4048
tp4049
a(I363
I13
I0
S'many'
p4050
tp4051
a(I363
I13
F-0.875
S'hard'
p4052
tp4053
a(I373
I21
I0
S'great'
p4054
tp4055
a(I382
I3
F-0.625
S'other'
p4056
tp4057
a(I388
I5
I0
S'few'
p4058
tp4059
a(I388
I5
F-0.125
S'slow'
p4060
tp4061
a(I398
I3
F0.375
S'new'
p4062
tp4063
a(I402
I5
I0
S'few'
p4064
tp4065
a(I402
I5
F0.75
S'due'
p4066
tp4067
a(I408
I9
F-0.5
S'certain'
p4068
tp4069
a(I420
I5
F0.5
S'compatible'
p4070
tp4071
a(I420
I5
I0
S'most'
p4072
tp4073
a(I435
I9
F0.5
S'odd'
p4074
tp4075
a(I435
I9
I0
S'many'
p4076
tp4077
a(I435
I10
F0.25
S'larger'
p4078
tp4079
a(I437
I9
F-0.375
S'simple'
p4080
tp4081
a(I442
I2
F-0.375
S'small'
p4082
tp4083
a(I442
I2
F0.375
S'available'
p4084
tp4085
as(S'days'
p4086
tp4087
(lp4088
(I41
I9
I0
S'full'
p4089
tp4090
a(I63
I1
I0
S'android'
p4091
tp4092
a(I79
I20
F0.125
S'first'
p4093
tp4094
a(I108
I8
I0
S'few'
p4095
tp4096
a(I128
I0
I0
S'few'
p4097
tp4098
a(I157
I3
F0.125
S'last'
p4099
tp4100
a(I157
I3
I0
S'few'
p4101
tp4102
a(I195
I19
I0
S'few'
p4103
tp4104
a(I195
I25
I0
S'few'
p4105
tp4106
a(I248
I2
I0
S'later'
p4107
tp4108
a(I255
I7
F-0.625
S'bad'
p4109
tp4110
a(I255
I14
F0.125
S'last'
p4111
tp4112
a(I288
I1
I0
S'least'
p4113
tp4114
a(I288
I1
F-0.125
S'bean'
p4115
tp4116
a(I300
I0
I0
S'few'
p4117
tp4118
a(I309
I4
F0.125
S'first'
p4119
tp4120
a(I340
I14
I0
S'more'
p4121
tp4122
a(I366
I0
I0
S'quick'
p4123
tp4124
as.