(dp0
(S'battery'
p1
tp2
(lp3
(I0
I3
F-0.75
S'dead'
p4
I15
tp5
a(I1
I14
F0.625
S'removable'
p6
I15
tp7
a(I2
I45
F1.0
S'good'
p8
I15
tp9
a(I9
I26
F1.0
S'good'
p10
I15
tp11
as(S'smartphone'
p12
tp13
(lp14
(I0
I20
F-0.375
S'smallest'
p15
I0
tp16
a(I2
I47
F-0.25
S'modern'
p17
I0
tp18
a(I3
I29
I0
S'great'
p19
I0
tp20
a(I3
I40
F1.0
S'best'
p21
I0
tp22
a(I3
I40
F-0.375
S'small'
p23
I0
tp24
a(I6
I0
I0
S'cool'
p25
I0
tp26
a(I6
I0
F0.875
S'nice'
p27
I0
tp28
a(I8
I5
F-0.625
S'other'
p29
I0
tp30
a(I9
I22
I0
S'normal'
p31
I0
tp32
as(S'palm'
p33
S'pre'
p34
tp35
(lp36
(I1
I3
I0
S'more'
p37
I0
tp38
a(I2
I12
I0
S'site'
p39
I0
tp40
a(I2
I12
F-0.625
S'free'
p41
I0
tp42
a(I2
I12
I0
S'site'
p43
I0
tp44
a(I2
I12
F0.375
S'available'
p45
I0
tp46
a(I2
I12
F-0.625
S'other'
p47
I0
tp48
a(I2
I10
I0
S'site'
p49
I1
tp50
a(I2
I12
I0
g39
I1
tp51
a(I2
I12
F-0.625
g41
I1
tp52
a(I2
I12
I0
g43
I1
tp53
a(I2
I12
F0.375
g45
I1
tp54
a(I2
I12
F-0.625
g47
I1
tp55
a(I3
I36
I0
S'high'
p56
I1
tp57
a(I3
I36
F0.625
S'enthusiastic'
p58
I1
tp59
as(S'veer'
p60
tp61
(lp62
(I2
I41
F-0.375
S'black'
p63
I0
tp64
a(I2
I43
I0
S'slippery'
p65
I0
tp66
as(S'web'
p67
S'os'
p68
tp69
(lp70
(I3
I24
F-0.375
S'small'
p71
I0
tp72
a(I3
I24
I0
S'full'
p73
I0
tp74
a(I3
I24
I0
S'great'
p75
I0
tp76
a(I7
I42
F-0.625
S'other'
p77
I0
tp78
a(I9
I4
F0.625
S'easy'
p79
I0
tp80
a(I9
I4
F-0.625
S'other'
p81
I0
tp82
a(I9
I4
I0
S'mobile'
p83
I0
tp84
as(S'apps'
p85
tp86
(lp87
(I1
I4
F0.5
S'compatible'
p88
I0
tp89
a(I2
I60
F0.375
S'available'
p90
I0
tp91
a(I3
I18
F0.375
S'much'
p92
I0
tp93
a(I9
I5
I0
S'most'
p94
I0
tp95
a(I9
I5
F-0.625
S'free'
p96
I0
tp97
a(I9
I12
F-0.875
S'hard'
p98
I0
tp99
a(I9
I28
I0
S'real'
p100
I0
tp101
as.