(dp0
(S'verizon'
p1
tp2
(lp3
(I22
I0
F-0.125
S'former'
p4
I0
tp5
as(S'blackberry'
p6
S'curve'
p7
tp8
(lp9
(I21
I4
I0
S'big'
p10
I0
tp11
a(I13
I3
F0.5
S'second'
p12
I8
tp13
a(I20
I36
I0
S'earlier'
p14
I8
tp15
a(I20
I36
F1.0
S'better'
p16
I8
tp17
a(I1
I0
I0
S'same'
p18
I1
tp19
a(I20
I38
F0.125
S'last'
p20
I1
tp21
a(I20
I39
F0.125
S'last'
p22
I1
tp23
a(I21
I4
I0
g10
I1
tp24
a(I24
I0
F-0.625
S'other'
p25
I1
tp26
as.