(dp0
(S'problem'
p1
tp2
(lp3
(I37
I0
I0
S'only'
p4
tp5
a(I80
I6
F0.125
S'electrical'
p6
tp7
a(I80
I7
I0
S'such'
p8
tp9
a(I109
I0
F-0.75
S'little'
p10
tp11
a(I109
I0
F-0.125
S'cant'
p12
tp13
a(I120
I1
I0
S'most'
p14
tp15
a(I180
I0
I0
S'big'
p16
tp17
a(I185
I0
F-0.75
S'difficult'
p18
tp19
a(I186
I2
I0
S'big'
p20
tp21
a(I186
I2
F0.75
S'due'
p22
tp23
a(I260
I2
I0
S'common'
p24
tp25
a(I266
I4
F-0.375
S'serious'
p26
tp27
a(I268
I4
F-0.625
S'other'
p28
tp29
as(S'something'
p30
tp31
(lp32
(I10
I2
F-0.75
S'wrong'
p33
tp34
a(I46
I0
F1.0
S'better'
p35
tp36
a(I157
I1
F-0.75
S'wrong'
p37
tp38
a(I166
I1
F-0.625
S'bad'
p39
tp40
as(S'battery'
p41
S'life'
p42
tp43
(lp44
(I0
I2
F1.0
S'good'
p45
tp46
a(I0
I2
I0
S'most'
p47
tp48
a(I0
I3
F1.0
S'good'
p49
tp50
a(I7
I0
F-0.5
S'poor'
p51
tp52
a(I33
I2
F-0.75
S'short'
p53
tp54
a(I52
I5
I0
S'android'
p55
tp56
a(I85
I3
I0
S'only'
p57
tp58
a(I162
I10
F0.875
S'nice'
p59
tp60
a(I162
I10
I0
S'great'
p61
tp62
a(I219
I4
F0.625
S'aware'
p63
tp64
as(S'best'
p65
S'blackberry'
p66
tp67
(lp68
(I72
I8
F1.0
S'best'
p69
tp70
a(I83
I0
F1.0
S'best'
p71
tp72
a(I108
I0
F1.0
S'best'
p73
tp74
a(I150
I0
F1.0
S'best'
p75
tp76
a(I162
I2
F1.0
S'best'
p77
tp78
a(I209
I1
F1.0
S'best'
p79
tp80
a(I239
I0
F1.0
S'best'
p81
tp82
a(I247
I1
F1.0
S'best'
p83
tp84
a(I269
I1
F1.0
S'best'
p85
tp86
as(S'keyboard'
p87
tp88
(lp89
(I21
I3
F0.125
S'practical'
p90
tp91
a(I94
I2
I0
S'great'
p92
tp93
a(I107
I21
F0.5
S'bold'
p94
tp95
a(I162
I5
I0
S'full'
p96
tp97
a(I162
I10
I0
S'full'
p98
tp99
a(I207
I1
I0
S'full'
p100
tp101
a(I209
I1
I0
S'physical'
p102
tp103
a(I233
I1
F1.0
S'best'
p104
tp105
a(I238
I2
I0
S'physical'
p106
tp107
a(I239
I0
I0
S'physical'
p108
tp109
a(I244
I10
F0.125
S'last'
p110
tp111
as(S'email'
p112
tp113
(lp114
(I3
I1
F0.125
S'able'
p115
tp116
a(I7
I1
I0
S'overseas'
p117
tp118
as(S'came'
p119
tp120
(lp121
(I68
I0
I0
S'accessary'
p122
tp123
as(S'money'
p124
tp125
(lp126
(I170
I4
I0
S'more'
p127
tp128
a(I170
I4
I0
S'technician'
p129
tp130
a(I210
I6
F-0.875
S'hard'
p131
tp132
a(I254
I1
F0.5
S'possible'
p133
tp134
a(I270
I0
I0
S'more'
p135
tp136
as(S'screen'
p137
tp138
(lp139
(I6
I8
F-0.5
S'less'
p140
tp141
a(I21
I3
F0.5
S'touch'
p142
tp143
a(I21
I3
I0
S'sensitive'
p144
tp145
a(I44
I0
F0.5
S'touch'
p146
tp147
a(I85
I2
F0.5
S'touch'
p148
tp149
a(I103
I0
F0.5
S'touch'
p150
tp151
a(I107
I5
F0.25
S'larger'
p152
tp153
a(I107
I8
F-0.375
S'smaller'
p154
tp155
a(I107
I8
F-0.625
S'lighter'
p156
tp157
a(I133
I1
F0.5
S'touch'
p158
tp159
a(I142
I0
F0.5
S'touch'
p160
tp161
a(I149
I6
F0.5
S'bold'
p162
tp163
a(I161
I1
F0.5
S'touch'
p164
tp165
a(I161
I1
F0.5
S'touch'
p166
tp167
a(I194
I0
F0.5
S'touch'
p168
tp169
a(I194
I1
F-0.375
S'top'
p170
tp171
a(I207
I1
F0.5
S'touch'
p172
tp173
a(I215
I1
F0.5
S'touch'
p174
tp175
a(I228
I1
F0.5
S'touch'
p176
tp177
a(I238
I2
F0.5
S'touch'
p178
tp179
a(I239
I1
F0.75
S'beautiful'
p180
tp181
a(I239
I1
F0.5
S'clear'
p182
tp183
a(I240
I2
F-0.375
S'small'
p184
tp185
a(I244
I5
F0.125
S'first'
p186
tp187
a(I244
I6
I0
S'great'
p188
tp189
a(I244
I16
F0.75
S'due'
p190
tp191
a(I244
I19
F0.5
S'touch'
p192
tp193
a(I244
I19
F0.625
S'easy'
p194
tp195
a(I244
I19
F0.25
S'sharp'
p196
tp197
a(I247
I2
F0.125
S'practical'
p198
tp199
a(I269
I2
F-0.75
S'bright'
p200
tp201
as(S'cell'
p202
S'lounge'
p203
tp204
(lp205
(I101
I2
I0
S'great'
p206
tp207
a(I172
I2
I0
S'least'
p208
tp209
as(S'service'
p210
tp211
(lp212
(I48
I4
F-0.875
S'worst'
p213
tp214
a(I101
I2
I0
S'general'
p215
tp216
a(I199
I2
I0
S'local'
p217
tp218
a(I243
I0
I0
S'mobile'
p219
tp220
a(I249
I0
F0.625
S'perfect'
p221
tp222
a(I265
I1
I0
S'mobile'
p223
tp224
a(I265
I1
F0.5
S'compatible'
p225
tp226
as(S'water'
p227
S'damage'
p228
tp229
(lp230
(I122
I1
F0.5
S'possible'
p231
tp232
as(S'problems'
p233
tp234
(lp235
(I53
I1
F-0.375
S'serious'
p236
tp237
a(I62
I0
F0.75
S'due'
p238
tp239
a(I123
I0
F-0.5
S'sure'
p240
tp241
a(I150
I1
F0.5
S'bold'
p242
tp243
a(I213
I0
I0
S'many'
p244
tp245
a(I248
I0
F-0.625
S'other'
p246
tp247
as(S'black'
p248
S'berry'
p249
tp250
(lp251
(I44
I0
F-0.375
S'black'
p252
tp253
a(I44
I0
F-0.375
S'black'
p254
tp255
as(S'purchase'
p256
tp257
(lp258
(I117
I0
I0
S'great'
p259
tp260
a(I174
I2
F0.875
S'happy'
p261
tp262
a(I204
I0
F0.875
S'happy'
p263
tp264
a(I205
I0
F0.5
S'satisfactory'
p265
tp266
a(I229
I1
F-0.625
S'bad'
p267
tp268
a(I231
I2
F0.5
S'whole'
p269
tp270
a(I269
I8
F-0.125
S'overall'
p271
tp272
a(I269
I8
F0.875
S'happy'
p273
tp274
as(S'touch'
p275
tp276
(lp277
(I0
I5
F0.625
S'easy'
p278
tp279
a(I6
I8
F0.375
S'new'
p280
tp281
a(I22
I4
F1.0
S'good'
p282
tp283
a(I179
I1
I0
S'great'
p284
tp285
a(I190
I1
F-0.375
S'smooth'
p286
tp287
a(I215
I1
F0.5
S'bold'
p288
tp289
as(S'camera'
p290
tp291
(lp292
(I52
I7
F0.5
S'so-so'
p293
tp294
a(I119
I2
F-0.5
S'poor'
p295
tp296
a(I140
I0
I0
S'old'
p297
tp298
a(I140
I0
F-0.625
S'bad'
p299
tp300
a(I149
I8
F0.625
S'perfect'
p301
tp302
as(S'a'
p303
S'blackberry'
p304
S'bold'
p305
tp306
(lp307
(I83
I0
F1.0
g71
tp308
a(I107
I5
F0.375
S'new'
p309
tp310
a(I107
I5
F0.375
S'new'
p311
tp312
a(I107
I5
F0.875
S'important'
p313
tp314
a(I107
I30
F0.375
S'new'
p315
tp316
a(I186
I2
F0.625
S'superior'
p317
tp318
a(I209
I1
F1.0
g79
tp319
a(I239
I0
F1.0
g81
tp320
a(I266
I4
F0.5
S'bold'
p321
tp322
as(S'operating'
p323
S'system'
p324
tp325
(lp326
(I133
I4
I0
S'competitive'
p327
tp328
as(S'nothing'
p329
tp330
(lp331
(I63
I2
I0
S'more'
p332
tp333
a(I233
I1
F1.0
S'better'
p334
tp335
as(g303
S'touch'
p336
S'screen'
p337
tp338
(lp339
(I0
I5
F0.625
g278
tp340
a(I6
I8
F-0.5
g140
tp341
a(I6
I8
F0.375
g280
tp342
a(I21
I3
F0.5
g142
tp343
a(I21
I3
I0
g144
tp344
a(I22
I4
F1.0
g282
tp345
a(I44
I0
F0.5
g146
tp346
a(I85
I2
F0.5
g148
tp347
a(I103
I0
F0.5
g150
tp348
a(I107
I8
F-0.375
g154
tp349
a(I107
I8
F-0.625
g156
tp350
a(I133
I1
F0.5
g158
tp351
a(I142
I0
F0.5
g160
tp352
a(I161
I1
F0.5
g164
tp353
a(I161
I1
F0.5
g166
tp354
a(I179
I1
I0
g284
tp355
a(I194
I0
F0.5
g168
tp356
a(I207
I1
F0.5
g172
tp357
a(I215
I1
F0.5
g288
tp358
a(I215
I1
F0.5
g174
tp359
a(I228
I1
F0.5
g176
tp360
a(I238
I2
F0.5
g178
tp361
a(I239
I1
F0.75
g180
tp362
a(I239
I1
F0.5
g182
tp363
a(I240
I2
F-0.375
g184
tp364
a(I244
I19
F0.5
g192
tp365
a(I244
I19
F0.625
g194
tp366
a(I244
I19
F0.25
g196
tp367
a(I247
I2
F0.125
g198
tp368
as(S'quality'
p369
tp370
(lp371
(I0
I2
F1.0
S'good'
p372
tp373
a(I18
I0
F-0.5
S'poor'
p374
tp375
a(I118
I1
F0.125
S'capable'
p376
tp377
a(I120
I1
F1.0
S'good'
p378
tp379
a(I133
I1
F1.0
S'good'
p380
tp381
a(I149
I3
F0.5
S'strong'
p382
tp383
a(I149
I3
I0
S'signal'
p384
tp385
a(I162
I5
I0
S'high'
p386
tp387
a(I197
I1
I0
S'old'
p388
tp389
a(I197
I1
F0.375
S'new'
p390
tp391
a(I215
I5
F-0.625
S'bad'
p392
tp393
as(S'recommend'
p394
tp395
(lp396
(I24
I3
F-0.625
S'bad'
p397
tp398
a(I236
I0
I0
S'handy'
p399
tp400
as(S'life'
p401
tp402
(lp403
(I0
I2
I0
g47
tp404
a(I33
I2
F-0.75
g53
tp405
a(I52
I5
I0
g55
tp406
a(I162
I10
I0
g61
tp407
as(S'mobile'
p408
tp409
(lp410
(I231
I2
F0.375
S'new'
p411
tp412
as(S'price'
p413
tp414
(lp415
(I152
I3
F0.25
S'sweet'
p416
tp417
a(I215
I6
F0.375
S'flash'
p418
tp419
a(I234
I1
F1.0
S'good'
p420
tp421
a(I236
I0
F1.0
S'good'
p422
tp423
a(I253
I0
F1.0
S'good'
p424
tp425
as(S'seller'
p426
tp427
(lp428
(I3
I0
I0
S'fast'
p429
tp430
a(I7
I1
F0.125
S'enough'
p431
tp432
a(I65
I2
I0
S'next'
p433
tp434
a(I170
I18
F1.0
S'better'
p435
tp436
a(I170
I20
F-0.75
S'carelessness'
p437
tp438
a(I170
I23
F0.25
S'helpful'
p439
tp440
a(I183
I8
F-0.375
S'top'
p441
tp442
a(I183
I10
F0.375
S'new'
p443
tp444
a(I190
I1
I0
S'great'
p445
tp446
a(I210
I4
F0.375
S'much'
p447
tp448
a(I216
I1
F0.5
S'told'
p449
tp450
a(I216
I1
F-0.75
S'impossible'
p451
tp452
a(I229
I1
F0.375
S'available'
p453
tp454
as(S'android'
p455
tp456
(lp457
(I149
I5
F-0.5
S'longer'
p458
tp459
as(S'user'
p460
tp461
(lp462
(I208
I1
F-0.5
S'heavy'
p463
tp464
a(I219
I8
F0.125
S'able'
p465
tp466
a(I239
I3
F-0.5
S'heavy'
p467
tp468
as(S'feel'
p469
tp470
(lp471
(I86
I0
F1.0
S'good'
p472
tp473
a(I121
I2
F-0.625
S'bad'
p474
tp475
a(I208
I0
I0
S'great'
p476
tp477
a(I208
I0
I0
S'great'
p478
tp479
a(I244
I10
F0.875
S'nice'
p480
tp481
as(S'works'
p482
tp483
(lp484
(I13
I0
F1.0
S'best'
p485
tp486
a(I87
I0
I0
S'great'
p487
tp488
a(I87
I1
I0
S'l'
p489
tp490
a(I100
I1
I0
S'awhile'
p491
tp492
a(I110
I1
I0
S'great'
p493
tp494
a(I184
I1
I0
S'great'
p495
tp496
a(I184
I1
F1.0
S'good'
p497
tp498
a(I186
I2
F-0.625
S'natural'
p499
tp500
as(S'ever'
p501
tp502
(lp503
(I209
I1
F0.5
S'bold'
p504
tp505
a(I209
I1
F0.125
S'first'
p506
tp507
as(S'product'
p508
tp509
(lp510
(I99
I0
F0.375
S'new'
p511
tp512
a(I158
I0
I0
S'great'
p513
tp514
a(I168
I0
I0
S'faster'
p515
tp516
a(I220
I4
F0.375
S'new'
p517
tp518
a(I253
I0
F1.0
S'good'
p519
tp520
as(S'battery'
p521
tp522
(lp523
(I0
I2
F1.0
g45
tp524
a(I0
I3
F1.0
g49
tp525
a(I4
I2
F0.125
S'last'
p526
tp527
a(I7
I0
F-0.5
g51
tp528
a(I44
I0
F0.375
S'extra'
p529
tp530
a(I47
I0
F-0.75
S'dead'
p531
tp532
a(I80
I2
F-0.25
S'low'
p533
tp534
a(I80
I2
I0
S'signal'
p535
tp536
a(I80
I3
F0.375
S'new'
p537
tp538
a(I85
I3
I0
g57
tp539
a(I125
I2
F0.375
S'new'
p540
tp541
a(I125
I2
F-0.625
S'bad'
p542
tp543
a(I135
I3
I0
S'charged'
p544
tp545
a(I135
I3
F1.0
S'good'
p546
tp547
a(I149
I5
F0.25
S'eat'
p548
tp549
a(I155
I1
F0.375
S'extra'
p550
tp551
a(I162
I10
F0.875
g59
tp552
a(I173
I0
F-0.375
S'small'
p553
tp554
a(I176
I6
F0.25
S'powerful'
p555
tp556
a(I181
I2
F0.25
S'powerful'
p557
tp558
a(I185
I0
F1.0
S'good'
p559
tp560
a(I196
I2
F0.375
S'extra'
p561
tp562
a(I208
I2
F-0.375
S'smaller'
p563
tp564
a(I211
I0
F-0.75
S'dead'
p565
tp566
a(I219
I4
F0.625
g63
tp567
a(I239
I5
F0.125
S'downside'
p568
tp569
a(I239
I6
F0.375
S'extra'
p570
tp571
a(I245
I1
F0.125
S'last'
p572
tp573
a(I258
I0
F-0.625
S'other'
p574
tp575
a(I258
I0
F1.0
S'good'
p576
tp577
a(I269
I5
F0.375
S'extra'
p578
tp579
as(S'either'
p580
tp581
(lp582
(I7
I1
F-0.375
S'simple'
p583
tp584
as(S'3'
p585
S'weeks'
p586
tp587
(lp588
(I80
I3
I0
S'later'
p589
tp590
a(I80
I3
I0
S'later'
p591
tp592
as(S'software'
p593
tp594
(lp595
(I105
I0
F-0.625
S'bad'
p596
tp597
a(I192
I0
F0.5
S'told'
p598
tp599
as(S'better'
p600
tp601
(lp602
(I46
I0
F0.375
S'much'
p603
tp604
a(I46
I0
F0.75
S'worth'
p605
tp606
a(I173
I1
F0.375
S'much'
p607
tp608
a(I251
I3
F0.375
S'much'
p609
tp610
a(I251
I3
I0
S'android'
p611
tp612
a(I251
I3
F0.375
S'much'
p613
tp614
a(I251
I3
I0
S'android'
p615
tp616
a(I251
I3
I0
S'android'
p617
tp618
as(S'first'
p619
S'time'
p620
tp621
(lp622
(I2
I2
F0.125
S'first'
p623
tp624
a(I5
I0
F0.125
S'first'
p625
tp626
a(I135
I1
F0.125
S'first'
p627
tp628
a(I161
I4
F0.125
S'first'
p629
tp630
a(I251
I2
I0
S'most'
p631
tp632
a(I262
I1
F0.125
S'first'
p633
tp634
a(I264
I0
F0.125
S'first'
p635
tp636
as(S'thing'
p637
tp638
(lp639
(I5
I2
I0
S'funny'
p640
tp641
a(I11
I0
F-0.75
S'wrong'
p642
tp643
a(I33
I2
I0
S'same'
p644
tp645
a(I34
I4
F1.0
S'good'
p646
tp647
a(I41
I0
F-0.375
S'small'
p648
tp649
a(I105
I3
I0
S'same'
p650
tp651
a(I105
I3
F0.375
S'honest'
p652
tp653
a(I134
I1
I0
S'only'
p654
tp655
a(I174
I4
F-0.125
S'communicate'
p656
tp657
a(I238
I1
I0
S'next'
p658
tp659
as(S'much'
p660
S'better'
p661
tp662
(lp663
(I46
I0
F0.375
g603
tp664
a(I46
I0
F0.75
g605
tp665
a(I173
I1
F0.375
g607
tp666
a(I251
I3
F0.375
g609
tp667
a(I251
I3
I0
g611
tp668
a(I251
I3
F0.375
g613
tp669
a(I251
I3
I0
g615
tp670
a(I251
I3
I0
g617
tp671
as(S'device'
p672
tp673
(lp674
(I0
I2
I0
S'great'
p675
tp676
a(I50
I0
F0.375
S'new'
p677
tp678
a(I50
I1
I0
S'old'
p679
tp680
a(I107
I10
F-0.625
S'lighter'
p681
tp682
a(I133
I1
F1.0
S'best'
p683
tp684
a(I152
I0
F-0.75
S'inoperable'
p685
tp686
a(I162
I3
F0.875
S'nice'
p687
tp688
a(I167
I0
F-0.75
S'unable'
p689
tp690
a(I186
I2
F-0.625
S'other'
p691
tp692
a(I186
I2
I0
S'mobile'
p693
tp694
a(I219
I7
I0
S'great'
p695
tp696
a(I250
I2
I0
S'file'
p697
tp698
a(I269
I8
I0
S'stable'
p699
tp700
as(S'an'
p701
S'extra'
p702
S'battery'
p703
tp704
(lp705
(I44
I0
F0.375
g529
tp706
a(I155
I1
F0.375
g550
tp707
a(I196
I2
F0.375
g561
tp708
a(I239
I6
F0.375
g570
tp709
a(I269
I5
F0.375
g578
tp710
as(S'blackberry'
p711
tp712
(lp713
(I0
I2
I0
S'only'
p714
tp715
a(I6
I0
F0.5
S'loyal'
p716
tp717
a(I6
I3
F-0.875
S'worst'
p718
tp719
a(I25
I0
F0.375
S'new'
p720
tp721
a(I25
I3
I0
S'expect'
p722
tp723
a(I52
I11
F-0.75
S'short'
p724
tp725
a(I53
I7
F0.125
S'able'
p726
tp727
a(I53
I7
I0
S'more'
p728
tp729
a(I53
I7
F-0.125
S'blackberry'
p730
tp731
a(I72
I8
F1.0
g69
tp732
a(I83
I0
F1.0
g71
tp733
a(I92
I4
I0
S'own'
p734
tp735
a(I98
I0
F0.125
S'first'
p736
tp737
a(I107
I5
F0.875
g313
tp738
a(I107
I10
F0.125
S'first'
p739
tp740
a(I107
I11
F0.375
S'new'
p741
tp742
a(I108
I0
F1.0
g73
tp743
a(I118
I2
F-0.625
S'other'
p744
tp745
a(I118
I2
F0.5
S'heat'
p746
tp747
a(I150
I0
F1.0
g75
tp748
a(I162
I2
F1.0
g77
tp749
a(I162
I5
I0
S'least'
p750
tp751
a(I169
I2
F-0.625
S'other'
p752
tp753
a(I186
I2
F0.625
g317
tp754
a(I200
I0
F1.0
S'good'
p755
tp756
a(I209
I1
F1.0
g79
tp757
a(I221
I0
F1.0
S'good'
p758
tp759
a(I239
I0
F1.0
g81
tp760
a(I247
I1
F1.0
g83
tp761
a(I266
I4
F0.5
g321
tp762
a(I268
I10
I0
S'most'
p763
tp764
a(I269
I1
F1.0
g85
tp765
a(I269
I4
I0
S'great'
p766
tp767
a(I269
I4
F0.5
S'comparable'
p768
tp769
a(I272
I0
F1.0
S'good'
p770
tp771
as(S'company'
p772
tp773
(lp774
(I2
I2
F-0.5
S'sure'
p775
tp776
a(I2
I2
F0.125
S'last'
p777
tp778
a(I184
I5
F-0.625
S'bad'
p779
tp780
a(I215
I13
F0.875
S'reputable'
p781
tp782
a(I254
I2
F0.5
S'careful'
p783
tp784
as(S'time'
p785
tp786
(lp787
(I2
I2
F0.125
g623
tp788
a(I5
I0
F0.125
g625
tp789
a(I41
I0
I0
S'great'
p790
tp791
a(I51
I4
F0.125
S'last'
p792
tp793
a(I92
I0
F-0.5
S'long'
p794
tp795
a(I107
I16
I0
S'most'
p796
tp797
a(I107
I24
F1.0
S'good'
p798
tp799
a(I107
I24
F-0.75
S'likely'
p800
tp801
a(I107
I24
F0.375
S'much'
p802
tp803
a(I107
I28
F0.125
S'able'
p804
tp805
a(I107
I28
I0
S'many'
p806
tp807
a(I108
I0
F-0.5
S'long'
p808
tp809
a(I109
I0
I0
S'such'
p810
tp811
a(I109
I0
F-0.875
S'hard'
p812
tp813
a(I130
I0
F-0.25
S'ready'
p814
tp815
a(I135
I1
F0.125
g627
tp816
a(I161
I4
F0.125
g629
tp817
a(I162
I6
F0.375
S'much'
p818
tp819
a(I225
I2
I0
S'next'
p820
tp821
a(I225
I2
F-0.5
S'sure'
p822
tp823
a(I244
I15
F-0.75
S'tough'
p824
tp825
a(I251
I2
I0
g631
tp826
a(I258
I0
F-0.25
S'rest'
p827
tp828
a(I260
I7
F-0.125
S'blackberry'
p829
tp830
a(I261
I0
F-0.75
S'short'
p831
tp832
a(I262
I1
F0.125
g633
tp833
a(I264
I0
F0.125
g635
tp834
as(S'buying'
p835
tp836
(lp837
(I102
I0
F1.0
S'good'
p838
tp839
a(I102
I0
F0.625
S'interested'
p840
tp841
a(I232
I0
F-0.875
S'regret'
p842
tp843
as(S'fast'
p844
tp845
(lp846
(I268
I5
F0.625
S'easy'
p847
tp848
as(S'working'
p849
tp850
(lp851
(I217
I1
I0
S'current'
p852
tp853
a(I250
I1
F0.375
S'new'
p854
tp855
as(g303
S'full'
p856
S'refund'
p857
tp858
(lp859
(I25
I3
I0
S'immediate'
p860
tp861
a(I25
I3
I0
S'full'
p862
tp863
a(I89
I3
I0
S'full'
p864
tp865
a(I118
I3
I0
S'full'
p866
tp867
a(I202
I1
I0
S'full'
p868
tp869
a(I216
I2
F-0.5
S'sure'
p870
tp871
a(I216
I2
I0
S'full'
p872
tp873
as(S'bold'
p874
tp875
(lp876
(I63
I1
F0.125
S'last'
p877
tp878
a(I107
I5
F0.375
g309
tp879
a(I107
I5
F0.375
g311
tp880
a(I107
I30
F0.375
g315
tp881
a(I166
I0
F0.375
S'new'
p882
tp883
a(I244
I2
F0.375
S'new'
p884
tp885
a(I250
I0
I0
S'great'
p886
tp887
as(S'cell'
p888
tp889
(lp890
(I55
I2
I0
S'great'
p891
tp892
a(I95
I3
F0.5
S'compatible'
p893
tp894
a(I172
I2
I0
g208
tp895
as(S'work'
p896
tp897
(lp898
(I142
I8
F0.5
S'personal'
p899
tp900
a(I150
I2
F0.625
S'easy'
p901
tp902
a(I268
I1
I0
S'most'
p903
tp904
a(I268
I1
F-0.125
S'blackberry'
p905
tp906
as(S'apps'
p907
tp908
(lp909
(I14
I7
F-0.875
S'worst'
p910
tp911
a(I52
I8
F-0.5
S'less'
p912
tp913
a(I52
I13
I0
S'more'
p914
tp915
a(I117
I1
I0
S'only'
p916
tp917
a(I117
I1
I0
S'useful'
p918
tp919
a(I119
I1
I0
S'many'
p920
tp921
a(I133
I1
F0.375
S'available'
p922
tp923
a(I162
I8
I0
S'more'
p924
tp925
a(I239
I3
I0
S'useful'
p926
tp927
a(I244
I17
I0
S'many'
p928
tp929
a(I244
I18
F0.25
S'favorite'
p930
tp931
as(S'days'
p932
tp933
(lp934
(I80
I4
I0
S'few'
p935
tp936
a(I80
I4
I0
S'later'
p937
tp938
a(I85
I0
I0
S'great'
p939
tp940
a(I173
I1
F-0.5
S'less'
p941
tp942
a(I173
I1
I0
S'empty'
p943
tp944
a(I176
I0
F0.5
S'bold'
p945
tp946
a(I176
I0
I0
S'few'
p947
tp948
a(I194
I1
I0
S'few'
p949
tp950
a(I244
I8
I0
S'few'
p951
tp952
a(I260
I3
I0
S'next'
p953
tp954
a(I260
I3
I0
S'few'
p955
tp956
as(S'google'
p957
S'maps'
p958
tp959
(lp960
(I76
I4
F-0.25
S'google'
p961
tp962
a(I149
I4
F-0.25
S'google'
p963
tp964
a(I251
I2
F-0.25
S'google'
p965
tp966
as(S'touch'
p967
S'screen'
p968
tp969
(lp970
(I0
I5
F0.625
g278
tp971
a(I6
I8
F-0.5
g140
tp972
a(I6
I8
F0.375
g280
tp973
a(I21
I3
F0.5
g142
tp974
a(I21
I3
I0
g144
tp975
a(I22
I4
F1.0
g282
tp976
a(I44
I0
F0.5
g146
tp977
a(I85
I2
F0.5
g148
tp978
a(I103
I0
F0.5
g150
tp979
a(I107
I8
F-0.375
g154
tp980
a(I107
I8
F-0.625
g156
tp981
a(I133
I1
F0.5
g158
tp982
a(I142
I0
F0.5
g160
tp983
a(I161
I1
F0.5
g164
tp984
a(I161
I1
F0.5
g166
tp985
a(I179
I1
I0
g284
tp986
a(I194
I0
F0.5
g168
tp987
a(I207
I1
F0.5
g172
tp988
a(I215
I1
F0.5
g288
tp989
a(I215
I1
F0.5
g174
tp990
a(I228
I1
F0.5
g176
tp991
a(I238
I2
F0.5
g178
tp992
a(I239
I1
F0.75
g180
tp993
a(I239
I1
F0.5
g182
tp994
a(I240
I2
F-0.375
g184
tp995
a(I244
I19
F0.5
g192
tp996
a(I244
I19
F0.625
g194
tp997
a(I244
I19
F0.25
g196
tp998
a(I247
I2
F0.125
g198
tp999
as(S'blackberry'
p1000
S'bold'
p1001
tp1002
(lp1003
(I83
I0
F1.0
g71
tp1004
a(I107
I5
F0.375
g309
tp1005
a(I107
I5
F0.375
g311
tp1006
a(I107
I5
F0.875
g313
tp1007
a(I107
I30
F0.375
g315
tp1008
a(I186
I2
F0.625
g317
tp1009
a(I209
I1
F1.0
g79
tp1010
a(I239
I0
F1.0
g81
tp1011
a(I266
I4
F0.5
g321
tp1012
as.