(dp0
(S'blackberry'
p1
tp2
(lp3
(I2
I11
F0.125
S'first'
p4
I1
tp5
a(I2
I11
F-0.625
S'glad'
p6
I1
tp7
a(I3
I13
F-0.625
S'bad'
p8
I1
tp9
a(I3
I27
F1.0
S'best'
p10
I1
tp11
a(I3
I27
I0
S'faster'
p12
I1
tp13
a(I3
I29
F0.5
S'second'
p14
I1
tp15
a(I5
I30
I0
S'older'
p16
I1
tp17
a(I5
I54
I0
S'such'
p18
I1
tp19
a(I6
I26
F0.125
S'first'
p20
I1
tp21
a(I6
I29
F0.375
S'new'
p22
I1
tp23
a(I6
I55
F0.375
S'new'
p24
I1
tp25
a(I8
I21
F0.25
S'original'
p26
I1
tp27
a(I8
I22
I0
S'standard'
p28
I1
tp29
a(I8
I43
F-0.75
S'unable'
p30
I1
tp31
a(I8
I61
I0
S'current'
p32
I1
tp33
a(I8
I73
F0.375
S'new'
p34
I1
tp35
a(I8
I90
I0
S'traditional'
p36
I1
tp37
a(I9
I17
I0
S'old'
p38
I1
tp39
a(I9
I25
F0.5
S'expensive'
p40
I1
tp41
a(I9
I27
F0.375
S'new'
p42
I1
tp43
as(S'battery'
p44
S'life'
p45
tp46
(lp47
(I0
I5
F-0.5
S'less'
p48
I1
tp49
a(I6
I47
F-0.5
S'longer'
p50
I1
tp51
a(I6
I47
F0.875
S'nice'
p52
I1
tp53
a(I6
I69
F1.0
S'good'
p54
I1
tp55
a(I8
I21
I0
S'stable'
p56
I1
tp57
a(I8
I21
F1.0
S'best'
p58
I1
tp59
a(I14
I0
F-0.875
S'worst'
p60
I1
tp61
a(I0
I5
F-0.5
g48
I19
tp62
a(I6
I47
F0.875
g52
I19
tp63
a(I6
I69
F1.0
g54
I19
tp64
a(I8
I21
F1.0
g58
I19
tp65
a(I14
I0
F-0.875
g60
I19
tp66
a(I5
I35
F0.5
S'compatible'
p67
I15
tp68
a(I6
I47
F-0.5
g50
I15
tp69
a(I8
I21
I0
g56
I15
tp70
a(I8
I29
F0.625
S'easy'
p71
I15
tp72
a(I14
I3
F-0.75
S'dead'
p73
I15
tp74
a(I14
I4
I0
S'common'
p75
I15
tp76
as(S't'
p77
S'mobile'
p78
tp79
(lp80
(I6
I3
I0
S'mobile'
p81
I0
tp82
a(I6
I12
F0.375
S'new'
p83
I0
tp84
as(S'bold'
p85
tp86
(lp87
(I3
I40
I0
S'old'
p88
I1
tp89
a(I3
I40
F0.625
S'easy'
p90
I1
tp91
a(I5
I17
I0
S'same'
p92
I1
tp93
a(I5
I54
F0.375
S'new'
p94
I1
tp95
a(I6
I24
F0.375
S'available'
p96
I1
tp97
a(I9
I1
F-0.375
S'wore'
p98
I1
tp99
as(S'sliding'
p100
S'keyboard'
p101
tp102
(lp103
(I6
I25
F1.0
S'best'
p104
I0
tp105
a(I6
I26
I0
S'quick'
p106
I0
tp107
a(I0
I2
I0
S'physical'
p108
I2
tp109
a(I3
I50
F0.5
S'bold'
p110
I2
tp111
a(I3
I50
I0
S'sturdier'
p112
I2
tp113
a(I6
I25
F1.0
g104
I2
tp114
a(I6
I26
I0
g106
I2
tp115
a(I6
I61
I0
S'same'
p116
I2
tp117
a(I14
I7
F-0.625
S'other'
p118
I2
tp119
as(S'torch'
p120
tp121
(lp122
(I5
I29
F0.25
S'original'
p123
I0
tp124
a(I5
I35
I0
S'old'
p125
I0
tp126
a(I5
I35
F0.375
S'new'
p127
I0
tp128
a(I5
I47
I0
S'old'
p129
I0
tp130
a(I5
I49
F0.125
S'first'
p131
I0
tp132
a(I5
I53
F0.25
S'original'
p133
I0
tp134
a(I6
I22
F0.125
S'visible'
p135
I0
tp136
a(I6
I49
F0.875
S'happy'
p137
I0
tp138
a(I6
I57
F0.375
S'new'
p139
I0
tp140
a(I6
I61
I0
S'old'
p141
I0
tp142
a(I8
I62
F1.0
S'good'
p143
I0
tp144
a(I8
I62
F-0.625
S'bad'
p145
I0
tp146
a(I9
I1
F0.375
S'new'
p147
I0
tp148
a(I9
I3
F0.875
S'happy'
p149
I0
tp150
a(I9
I23
F0.625
S'necessary'
p151
I0
tp152
a(I9
I25
F0.375
S'available'
p153
I0
tp154
a(I9
I26
F-0.25
S'cheaper'
p155
I0
tp156
a(I11
I5
I0
S'old'
p157
I0
tp158
a(I11
I5
I0
S'same'
p159
I0
tp160
a(I11
I13
F0.25
S'original'
p161
I0
tp162
as(S'business'
p163
tp164
(lp165
(I0
I2
I0
S'great'
p166
I9
tp167
a(I5
I26
F0.375
S'new'
p168
I9
tp169
as(S'blackberries'
p170
tp171
(lp172
(I6
I16
I0
S'current'
p173
I0
tp174
a(I6
I16
F-0.375
S'top'
p175
I0
tp176
a(I6
I17
F1.0
S'best'
p177
I0
tp178
a(I8
I72
I0
S'stable'
p179
I0
tp180
a(I14
I6
I0
S'handy'
p181
I0
tp182
as(S'camera'
p183
tp184
(lp185
(I3
I35
F0.5
S'touch'
p186
I1
tp187
a(I8
I52
F-0.875
S'worst'
p188
I1
tp189
as(S'touch'
p190
S'screen'
p191
tp192
(lp193
(I6
I59
F0.25
S'responsive'
p194
I2
tp195
a(I8
I16
F0.5
S'touch'
p196
I2
tp197
a(I9
I3
F0.25
S'larger'
p198
I2
tp199
a(I9
I6
F0.5
S'touch'
p200
I2
tp201
a(I9
I26
F0.5
S'touch'
p202
I2
tp203
a(I9
I26
F0.25
S'larger'
p204
I2
tp205
as.