(dp0
(S'wireless'
p1
S'signal'
p2
tp3
(lp4
(I7
I73
F-0.5
S'weak'
p5
I0
tp6
a(I7
I74
F-0.5
S'weak'
p7
I0
tp8
a(I7
I99
I0
S'signal'
p9
I0
tp10
a(I7
I74
F-0.5
g7
I0
tp11
a(I7
I99
I0
g9
I0
tp12
as(S'mobile'
p13
S'sim'
p14
S'card'
p15
tp16
(lp17
(I3
I6
F0.375
S'new'
p18
I0
tp19
a(I3
I6
F0.375
g18
I0
tp20
as(S'email'
p21
tp22
(lp23
(I7
I95
I0
S'big'
p24
I5
tp25
as(S'text'
p26
tp27
(lp28
(I1
I67
I0
S'own'
p29
I18
tp30
a(I11
I34
I0
S'automatic'
p31
I18
tp32
as(S'physical'
p33
S'keyboard'
p34
tp35
(lp36
(I0
I16
I0
S'physical'
p37
I0
tp38
a(I3
I42
I0
S'physical'
p39
I0
tp40
a(I7
I247
F-0.5
S'heavy'
p41
I0
tp42
a(I7
I247
I0
S'physical'
p43
I0
tp44
a(I7
I251
I0
S'physical'
p45
I0
tp46
a(I11
I22
I0
S'physical'
p47
I0
tp48
as(S'windows'
p49
S'os'
p50
tp51
(lp52
(I3
I17
I0
S'such'
p53
I0
tp54
a(I3
I29
I0
S'most'
p55
I0
tp56
a(I3
I29
F0.25
S'recent'
p57
I0
tp58
a(I5
I2
I0
S'android'
p59
I0
tp60
a(I17
I42
F-0.5
S'heavy'
p61
I0
tp62
a(I1
I17
F0.125
S'first'
p63
I0
tp64
a(I1
I74
F-0.625
S'other'
p65
I0
tp66
a(I3
I17
I0
g53
I0
tp67
a(I3
I29
I0
g55
I0
tp68
a(I3
I29
F0.25
g57
I0
tp69
a(I7
I268
I0
S'latest'
p70
I0
tp71
a(I7
I284
I0
S'latest'
p72
I0
tp73
a(I9
I56
I0
S'mobile'
p74
I0
tp75
a(I10
I19
F1.0
S'good'
p76
I0
tp77
a(I11
I94
F-0.25
S'cheapest'
p78
I0
tp79
a(I17
I2
F0.375
S'new'
p80
I0
tp81
a(I17
I4
F1.0
S'good'
p82
I0
tp83
a(I17
I42
F-0.5
g61
I0
tp84
as(S'quantum'
p85
tp86
(lp87
(I7
I91
I0
S'different'
p88
I0
tp89
as(S'camera'
p90
tp91
(lp92
(I3
I22
I0
S'great'
p93
I1
tp94
a(I12
I1
I0
S'fast'
p95
I1
tp96
a(I12
I1
F0.625
S'decent'
p97
I1
tp98
a(I13
I51
F0.875
S'nice'
p99
I1
tp100
a(I14
I35
F0.125
S'key'
p101
I1
tp102
a(I14
I35
F-0.375
S'small'
p103
I1
tp104
a(I14
I80
F0.875
S'nice'
p105
I1
tp106
as(S'operating'
p107
S'system'
p108
tp109
(lp110
(I7
I55
F0.125
S'solid'
p111
I2
tp112
as(S'internet'
p113
tp114
(lp115
(I1
I5
I0
S'own'
p116
I6
tp117
as(S'big'
p118
S'deal'
p119
tp120
(lp121
(I13
I46
I0
S'big'
p122
I11
tp123
a(I13
I46
I0
S'big'
p124
I11
tp125
a(I13
I47
I0
S'big'
p126
I11
tp127
as(S'button'
p128
tp129
(lp130
(I7
I178
F-0.625
S'other'
p131
I19
tp132
as(S'qwerty'
p133
tp134
(lp135
(I1
I68
F1.0
S'better'
p136
I0
tp137
a(I7
I180
I0
S'full'
p138
I0
tp139
a(I13
I49
I0
S'roomy'
p140
I0
tp141
a(I13
I49
F0.125
S'first'
p142
I0
tp143
as(S'seller'
p144
tp145
(lp146
(I15
I1
I0
S'great'
p147
I19
tp148
as(S'slide'
p149
S'out'
p150
S'keyboard'
p151
tp152
(lp153
(I7
I178
I0
S'great'
p154
I0
tp155
a(I0
I16
I0
g37
I2
tp156
a(I1
I44
F-0.625
S'other'
p157
I2
tp158
a(I3
I22
I0
S'full'
p159
I2
tp160
a(I3
I42
I0
g39
I2
tp161
a(I7
I178
I0
g154
I2
tp162
a(I7
I240
F1.0
S'best'
p163
I2
tp164
a(I7
I247
F-0.5
g41
I2
tp165
a(I7
I247
I0
g43
I2
tp166
a(I7
I251
I0
g45
I2
tp167
a(I7
I262
F0.25
S'helpful'
p168
I2
tp169
a(I7
I274
I0
S'great'
p170
I2
tp171
a(I11
I22
I0
g47
I2
tp172
a(I11
I91
F0.625
S'easy'
p173
I2
tp174
a(I11
I91
I0
S'great'
p175
I2
tp176
a(I14
I80
F0.875
S'nice'
p177
I2
tp178
a(I17
I4
I0
S'soft'
p179
I2
tp180
as(S'battery'
p181
tp182
(lp183
(I3
I14
F0.375
S'new'
p184
I15
tp185
a(I3
I14
F-0.625
S'bad'
p186
I15
tp187
a(I7
I70
F-0.75
S'little'
p188
I15
tp189
a(I12
I3
F-0.75
S'dead'
p190
I15
tp191
a(I12
I4
I0
S'more'
p192
I15
tp193
a(I12
I7
F0.25
S'original'
p194
I15
tp195
a(I17
I77
F0.375
S'new'
p196
I15
tp197
a(I17
I89
I0
S'great'
p198
I15
tp199
as(S'brand'
p200
S'new'
p201
tp202
(lp203
(I1
I14
F0.375
S'new'
p204
I9
tp205
a(I7
I121
F0.375
S'new'
p206
I9
tp207
a(I7
I266
F0.375
S'new'
p208
I9
tp209
a(I11
I63
F0.375
S'new'
p210
I9
tp211
a(I11
I89
F-0.5
S'sure'
p212
I9
tp213
a(I11
I89
F0.375
S'new'
p214
I9
tp215
a(I13
I4
F0.375
S'new'
p216
I9
tp217
a(I13
I23
F0.375
S'new'
p218
I9
tp219
a(I17
I68
F0.375
S'new'
p220
I9
tp221
as(S'network'
p222
tp223
(lp224
(I7
I171
F-0.5
S'sure'
p225
I0
tp226
a(I11
I81
F-0.625
S'other'
p227
I0
tp228
a(I11
I82
I0
S'same'
p229
I0
tp230
a(I13
I29
F0.5
S'hopeful'
p231
I0
tp232
as(S'calls'
p233
tp234
(lp235
(I9
I40
F0.125
S'able'
p236
I0
tp237
a(I13
I18
F0.75
S'receive'
p238
I0
tp239
as(S'carrier'
p240
tp241
(lp242
(I7
I206
F-0.5
S'international'
p243
I1
tp244
a(I7
I233
I0
S'least'
p245
I1
tp246
a(I9
I2
F0.5
S'compatible'
p247
I1
tp248
a(I9
I51
F-0.125
S'minimum'
p249
I1
tp250
a(I13
I23
I0
S'colombian'
p251
I1
tp252
as(S'unlock'
p253
S'code'
p254
tp255
(lp256
(I11
I53
F0.25
S'unlocked'
p257
I0
tp258
a(I11
I53
F0.25
g257
I3
tp259
as(S'zune'
p260
tp261
(lp262
(I1
I7
F0.625
S'easy'
p263
I0
tp264
a(I14
I18
F0.25
S'responsive'
p265
I0
tp266
as(S'data'
p267
S'plan'
p268
tp269
(lp270
(I9
I10
F0.5
S'expensive'
p271
I0
tp272
a(I9
I10
F0.5
g271
I13
tp273
a(I10
I45
F0.5
S'personal'
p274
I13
tp275
a(I13
I38
I0
S'big'
p276
I13
tp277
a(I14
I47
F0.375
S'available'
p278
I13
tp279
as(S't'
p280
S'mobile'
p281
S'sim'
p282
tp283
(lp284
(I3
I6
F0.375
g18
I0
tp285
a(I3
I45
F0.25
S'original'
p286
I0
tp287
a(I3
I6
F0.375
g18
I0
tp288
a(I17
I48
I0
S'hot'
p289
I0
tp290
as(S'apps'
p291
tp292
(lp293
(I1
I29
I0
S'many'
p294
I0
tp295
a(I1
I33
F0.375
S'available'
p296
I0
tp297
a(I1
I33
F0.125
S'able'
p298
I0
tp299
a(I7
I12
I0
S'many'
p300
I0
tp301
a(I7
I189
I0
S'many'
p302
I0
tp303
a(I7
I189
F-0.625
S'free'
p304
I0
tp305
a(I11
I87
I0
S'many'
p306
I0
tp307
as(S'service'
p308
tp309
(lp310
(I3
I24
I0
S'great'
p311
I16
tp312
as.