(dp0
(S'nokia'
p1
S'twist'
p2
tp3
(lp4
(I0
I37
I0
S'old'
p5
I0
tp6
a(I8
I12
F0.5
S'functional'
p7
I0
tp8
a(I8
I18
F-0.125
S'overall'
p9
I0
tp10
a(I9
I0
F0.5
S'second'
p11
I0
tp12
a(I0
I37
I0
g5
I3
tp13
a(I6
I11
F1.0
S'better'
p14
I3
tp15
a(I6
I14
F0.5
S'expensive'
p16
I3
tp17
a(I8
I12
F0.5
g7
I3
tp18
a(I8
I18
F-0.125
g9
I0
tp19
a(I9
I0
F0.5
g11
I0
tp20
a(I11
I22
F0.125
S'last'
p21
I0
tp22
a(I12
I18
F-0.625
S'unusual'
p23
I0
tp24
as(S'battery'
p25
S'life'
p26
tp27
(lp28
(I4
I5
F-0.625
S'average'
p29
I1
tp30
a(I4
I5
F1.0
S'good'
p31
I1
tp32
a(I11
I20
F-0.625
S'other'
p33
I1
tp34
a(I0
I17
I0
S'full'
p35
I15
tp36
a(I0
I54
F0.375
S'new'
p37
I15
tp38
a(I3
I10
I0
S'same'
p39
I15
tp40
a(I6
I28
F-0.5
S'long'
p41
I15
tp42
a(I6
I30
F-0.75
S'wrong'
p43
I15
tp44
a(I9
I6
F0.5
S'tall'
p45
I15
tp46
a(I9
I8
F0.375
S'new'
p47
I15
tp48
a(I9
I9
F0.375
S'new'
p49
I15
tp50
a(I11
I20
F-0.625
g33
I15
tp51
a(I15
I35
F0.25
S'bigger'
p52
I15
tp53
a(I15
I36
I0
S'old'
p54
I15
tp55
a(I15
I36
F1.0
S'good'
p56
I15
tp57
a(I15
I39
F-0.75
S'wrong'
p58
I15
tp59
as(S'text'
p60
tp61
(lp62
(I0
I25
F0.375
S'much'
p63
I18
tp64
a(I5
I4
F0.125
S'able'
p65
I18
tp66
a(I6
I20
I0
S'download'
p67
I18
tp68
as(S'verizon'
p69
S'store'
p70
tp71
(lp72
(I3
I0
F0.125
S'popular'
p73
I0
tp74
a(I3
I0
F0.75
S'due'
p75
I0
tp76
a(I3
I0
F-0.625
S'unusual'
p77
I0
tp78
a(I4
I3
I0
S'most'
p79
I0
tp80
a(I11
I21
F1.0
S'better'
p81
I0
tp82
a(I11
I21
F0.125
S'last'
p83
I0
tp84
a(I14
I14
F0.5
S'reasonable'
p85
I0
tp86
as(S'first'
p87
S'time'
p88
tp89
(lp90
(I4
I1
F0.125
S'first'
p91
I10
tp92
a(I6
I1
F0.125
S'first'
p93
I10
tp94
a(I11
I27
F0.125
S'first'
p95
I10
tp96
as(S'texting'
p97
tp98
(lp99
(I0
I3
F-0.375
S'simple'
p100
I0
tp101
a(I0
I38
I0
S'great'
p102
I0
tp103
a(I0
I47
F0.625
S'perfect'
p104
I0
tp105
a(I8
I11
F0.625
S'easy'
p106
I0
tp107
a(I10
I11
I0
S'great'
p108
I0
tp109
as(S'sound'
p110
S'quality'
p111
tp112
(lp113
(I0
I24
F1.0
S'best'
p114
I0
tp115
as.