(dp0
(S'battery'
p1
S'life'
p2
tp3
(lp4
(I4
I6
F-0.75
S'short'
p5
I1
tp6
a(I4
I6
I0
S'common'
p7
I1
tp8
a(I5
I323
F-0.625
S'average'
p9
I1
tp10
a(I5
I378
F-0.25
S'low'
p11
I1
tp12
a(I5
I384
F-0.25
S'low'
p13
I1
tp14
a(I8
I23
F-0.875
S'awful'
p15
I1
tp16
a(I8
I42
F1.0
S'better'
p17
I1
tp18
a(I8
I138
F-0.75
S'short'
p19
I1
tp20
a(I9
I140
F0.5
S'so-so'
p21
I1
tp22
a(I9
I142
F1.0
S'good'
p23
I1
tp24
a(I11
I155
F-0.5
S'comparative'
p25
I1
tp26
a(I4
I6
I0
g7
I19
tp27
a(I5
I323
F-0.625
g9
I19
tp28
a(I8
I23
F-0.875
g15
I19
tp29
a(I9
I140
F0.5
g21
I19
tp30
a(I11
I155
F-0.5
g25
I19
tp31
a(I0
I26
F0.125
S'last'
p32
I15
tp33
a(I0
I26
F-0.5
S'long'
p34
I15
tp35
a(I2
I352
F0.375
S'much'
p36
I15
tp37
a(I4
I6
F-0.75
g5
I15
tp38
a(I5
I11
F-0.25
S'low'
p39
I15
tp40
a(I5
I239
F0.125
S'last'
p41
I15
tp42
a(I5
I378
F-0.25
g11
I15
tp43
a(I5
I384
F-0.25
g13
I15
tp44
a(I7
I32
F0.375
S'new'
p45
I15
tp46
a(I7
I35
F0.375
S'new'
p47
I15
tp48
a(I8
I42
F1.0
g17
I15
tp49
a(I8
I138
F-0.75
g19
I15
tp50
a(I8
I181
F0.375
S'much'
p51
I15
tp52
a(I9
I118
F0.5
S'crucial'
p53
I15
tp54
a(I9
I142
F1.0
g23
I15
tp55
a(I10
I71
F-0.25
S'low'
p56
I15
tp57
a(I11
I183
F-0.625
S'bad'
p58
I15
tp59
a(I11
I185
F0.75
S'due'
p60
I15
tp61
as(S'smartphone'
p62
tp63
(lp64
(I4
I36
F-0.5
S'sure'
p65
I0
tp66
a(I5
I356
I0
S'latest'
p67
I0
tp68
a(I6
I17
F0.125
S'first'
p69
I0
tp70
a(I8
I22
I0
S'great'
p71
I0
tp72
a(I9
I10
F0.5
S'stylish'
p73
I0
tp74
a(I10
I29
F0.625
S'convenient'
p75
I0
tp76
a(I10
I86
I0
S'full'
p77
I0
tp78
a(I11
I181
F0.875
S'nice'
p79
I0
tp80
a(I11
I181
F-0.25
S'inexpensive'
p81
I0
tp82
a(I11
I201
F0.5
S'functional'
p83
I0
tp84
as(S'tech'
p85
S'support'
p86
tp87
(lp88
(I8
I43
I0
S'tech'
p89
I1
tp90
as(S'call'
p91
S'quality'
p92
tp93
(lp94
(I0
I40
I0
S'great'
p95
I0
tp96
a(I5
I248
F1.0
S'good'
p97
I0
tp98
a(I5
I261
F-0.625
S'average'
p99
I0
tp100
a(I5
I378
F1.0
S'good'
p101
I0
tp102
a(I9
I15
I0
S'great'
p103
I0
tp104
a(I11
I39
F1.0
S'good'
p105
I0
tp106
a(I11
I106
F0.5
S'clear'
p107
I0
tp108
as(S'camera'
p109
tp110
(lp111
(I0
I0
F1.0
S'good'
p112
I1
tp113
a(I2
I258
I0
S'great'
p114
I1
tp115
a(I2
I302
F-0.5
S'separate'
p116
I1
tp117
a(I5
I24
I0
S'stable'
p118
I1
tp119
a(I5
I67
F0.5
S'primary'
p120
I1
tp121
a(I7
I39
F0.625
S'decent'
p122
I1
tp123
a(I9
I144
F0.125
S'digital'
p124
I1
tp125
as(S'bluetooth'
p126
tp127
(lp128
(I8
I174
F-0.375
S'manual'
p129
I3
tp130
a(I10
I35
F0.875
S'lucky'
p131
I3
tp132
a(I10
I41
F0.375
S'enable'
p133
I3
tp134
as(S'iphone'
p135
tp136
(lp137
(I2
I69
F0.375
S'new'
p138
I1
tp139
a(I2
I160
F0.375
S'similar'
p140
I1
tp141
a(I2
I254
F0.25
S'original'
p142
I1
tp143
a(I4
I44
F0.375
S'confident'
p144
I1
tp145
a(I4
I53
I0
S'same'
p146
I1
tp147
a(I5
I249
I0
S'sturdy'
p148
I1
tp149
a(I5
I257
I0
S'different'
p150
I1
tp151
a(I5
I329
F1.0
S'good'
p152
I1
tp153
a(I6
I2
F-0.375
S'simple'
p154
I1
tp155
a(I8
I66
F0.875
S'nice'
p156
I1
tp157
a(I11
I145
F0.875
S'nice'
p158
I1
tp159
a(I11
I154
I0
S'more'
p160
I1
tp161
as(S'amazon'
p162
tp163
(lp164
(I5
I141
F-0.75
S'incorrect'
p165
I13
tp166
a(I5
I148
F-0.75
S'wrong'
p167
I13
tp168
a(I7
I20
F0.25
S'helpful'
p169
I13
tp170
as(S'a'
p171
S'touch'
p172
S'screen'
p173
tp174
(lp175
(I2
I28
I0
S'great'
p176
I0
tp177
a(I2
I171
F0.5
S'touch'
p178
I0
tp179
a(I2
I178
F0.5
S'touch'
p180
I0
tp181
a(I2
I192
F0.5
S'touch'
p182
I0
tp183
a(I5
I156
F0.5
S'touch'
p184
I0
tp185
a(I5
I283
F0.875
S'nice'
p186
I0
tp187
a(I7
I4
F0.125
S'first'
p188
I0
tp189
a(I8
I171
F0.5
S'touch'
p190
I0
tp191
a(I10
I58
F0.875
S'nice'
p192
I0
tp193
a(I10
I108
F-0.5
S'afraid'
p194
I0
tp195
a(I10
I108
F0.5
S'touch'
p196
I0
tp197
a(I11
I80
F0.25
S'bigger'
p198
I0
tp199
a(I11
I80
F0.25
S'bigger'
p200
I0
tp201
a(I11
I144
F0.25
S'responsive'
p202
I0
tp203
a(I11
I144
F0.625
S'easy'
p204
I0
tp205
a(I2
I28
I0
g176
I2
tp206
a(I2
I171
F0.5
g178
I2
tp207
a(I2
I178
F0.5
g180
I2
tp208
a(I2
I192
F0.5
g182
I2
tp209
a(I5
I156
F0.5
g184
I2
tp210
a(I5
I283
F0.875
g186
I2
tp211
a(I7
I4
F0.125
g188
I2
tp212
a(I8
I171
F0.5
g190
I2
tp213
a(I10
I58
F0.875
g192
I2
tp214
a(I10
I108
F-0.5
g194
I2
tp215
a(I10
I108
F0.5
g196
I2
tp216
a(I11
I80
F0.25
g198
I2
tp217
a(I11
I80
F0.25
g200
I2
tp218
a(I11
I144
F0.25
g202
I2
tp219
a(I11
I144
F0.625
g204
I2
tp220
as(S'pay'
p221
S'as'
p222
S'go'
p223
tp224
(lp225
(I2
I342
I0
S'basic'
p226
I0
tp227
as(S'to'
p228
S'sd'
p229
S'card'
p230
tp231
(lp232
(I2
I280
F0.25
S'original'
p233
I0
tp234
a(I4
I61
F0.25
S'larger'
p235
I0
tp236
a(I5
I347
I0
S'most'
p237
I0
tp238
a(I9
I144
F-0.125
S'opposite'
p239
I0
tp240
a(I2
I280
F0.25
g233
I0
tp241
a(I4
I61
F0.25
g235
I0
tp242
a(I5
I347
I0
g237
I0
tp243
a(I8
I141
F-0.625
S'free'
p244
I0
tp245
a(I9
I144
F-0.125
g239
I0
tp246
as(g171
S'data'
p247
S'package'
p248
tp249
(lp250
(I2
I4
F-0.625
S'free'
p251
I0
tp252
a(I2
I37
F-0.375
S'small'
p253
I0
tp254
a(I5
I206
F-0.5
S'separate'
p255
I0
tp256
a(I2
I4
F-0.625
g251
I0
tp257
a(I2
I37
F-0.375
g253
I0
tp258
a(I5
I206
F-0.5
g255
I0
tp259
as(S'prepaid'
p260
tp261
(lp262
(I2
I14
F-0.75
S'wrong'
p263
I0
tp264
a(I5
I387
F-0.625
S'bad'
p265
I0
tp266
a(I11
I46
F1.0
S'good'
p267
I0
tp268
a(I11
I80
F-0.625
S'other'
p269
I0
tp270
a(I11
I107
F1.0
S'good'
p271
I0
tp272
as(S'dollars'
p273
g171
S'month'
p274
tp275
(lp276
(I2
I293
F0.375
S'extra'
p277
I0
tp278
a(I2
I293
I0
S'few'
p279
I0
tp280
a(I2
I293
F0.375
g277
I15
tp281
a(I2
I293
I0
g279
I15
tp282
as(S'wifi'
p283
tp284
(lp285
(I0
I16
I0
S'more'
p286
I0
tp287
a(I0
I16
I0
S'stable'
p288
I0
tp289
a(I2
I117
F0.375
S'available'
p290
I0
tp291
a(I9
I113
F0.375
S'available'
p292
I0
tp293
a(I10
I85
I0
S'full'
p294
I0
tp295
a(I10
I99
F-0.625
S'free'
p296
I0
tp297
a(I11
I74
F0.875
S'lucky'
p298
I0
tp299
a(I11
I168
I0
S'different'
p300
I0
tp301
as(S'contract'
p302
tp303
(lp304
(I0
I44
I0
S'more'
p305
I0
tp306
a(I2
I8
F-0.25
S'cheaper'
p307
I0
tp308
a(I5
I249
F-0.625
S'free'
p309
I0
tp310
a(I8
I63
F0.5
S'rid'
p311
I0
tp312
a(I9
I50
I0
S'high'
p313
I0
tp314
a(I9
I147
I0
S'post-paid'
p315
I0
tp316
as(S'android'
p317
tp318
(lp319
(I0
I23
F0.375
S'new'
p320
I0
tp321
a(I0
I41
F0.125
S'typical'
p322
I0
tp323
a(I2
I21
I0
S'great'
p324
I0
tp325
a(I2
I27
F-0.625
S'other'
p326
I0
tp327
a(I2
I85
F0.125
S'first'
p328
I0
tp329
a(I2
I381
F-0.5
S'longer'
p330
I0
tp331
a(I4
I35
F-0.625
S'other'
p332
I0
tp333
a(I4
I43
F0.375
S'early'
p334
I0
tp335
a(I5
I5
F0.125
S'first'
p336
I0
tp337
a(I7
I4
F0.125
S'first'
p338
I0
tp339
a(I9
I115
F0.125
S'first'
p340
I0
tp341
a(I10
I8
I0
S'prepaid'
p342
I0
tp343
a(I11
I15
F-0.625
S'other'
p344
I0
tp345
a(I11
I67
I0
S'useful'
p346
I0
tp347
a(I11
I98
F0.25
S'powerful'
p348
I0
tp349
a(I11
I98
F-0.5
S'less'
p350
I0
tp351
as(S'apps'
p352
S'to'
p353
S'sd'
p354
tp355
(lp356
(I2
I233
I0
S'many'
p357
I0
tp358
a(I2
I233
F0.375
S'extra'
p359
I0
tp360
a(I5
I231
I0
S'internal'
p361
I0
tp362
a(I5
I347
F1.0
S'good'
p363
I0
tp364
a(I5
I347
I0
S'useful'
p365
I0
tp366
a(I8
I186
I0
S'many'
p367
I0
tp368
a(I0
I54
I0
S'android'
p369
I0
tp370
a(I2
I28
F0.375
S'available'
p371
I0
tp372
a(I2
I98
I0
S'many'
p373
I0
tp374
a(I2
I150
I0
S'few'
p375
I0
tp376
a(I2
I233
I0
g357
I0
tp377
a(I2
I233
F0.375
g359
I0
tp378
a(I2
I249
I0
S'different'
p379
I0
tp380
a(I2
I256
F-0.5
S'heavy'
p381
I0
tp382
a(I2
I284
F0.375
S'new'
p383
I0
tp384
a(I2
I368
F0.125
S'able'
p385
I0
tp386
a(I4
I56
F0.125
S'able'
p387
I0
tp388
a(I5
I26
F-0.625
S'other'
p389
I0
tp390
a(I5
I106
I0
S'only'
p391
I0
tp392
a(I5
I231
I0
g361
I0
tp393
a(I5
I246
I0
S'own'
p394
I0
tp395
a(I5
I271
I0
S'cool'
p396
I0
tp397
a(I5
I347
F1.0
g363
I0
tp398
a(I5
I347
I0
g365
I0
tp399
a(I6
I2
I0
S'many'
p400
I0
tp401
a(I6
I2
F-0.625
S'free'
p402
I0
tp403
a(I7
I46
I0
S'such'
p404
I0
tp405
a(I8
I40
F-0.25
S'myriad'
p406
I0
tp407
a(I8
I108
I0
S'many'
p408
I0
tp409
a(I8
I186
I0
g367
I0
tp410
a(I8
I187
F0.25
S'favorite'
p411
I0
tp412
a(I9
I4
I0
S'big'
p413
I0
tp414
a(I9
I90
I0
S'most'
p415
I0
tp416
a(I9
I91
I0
S'full'
p417
I0
tp418
a(I9
I91
I0
S'few'
p419
I0
tp420
a(I9
I91
F-0.375
S'small'
p421
I0
tp422
a(I9
I94
F-0.75
S'single'
p423
I0
tp424
a(I11
I70
I0
S'most'
p425
I0
tp426
a(I11
I154
I0
S'many'
p427
I0
tp428
as(S'smart'
p429
tp430
(lp431
(I1
I0
I0
S'great'
p432
I10
tp433
a(I2
I276
F0.125
S'first'
p434
I10
tp435
a(I5
I144
I0
S'many'
p436
I10
tp437
a(I8
I58
F0.125
S'first'
p438
I10
tp439
a(I8
I92
F0.125
S'first'
p440
I10
tp441
a(I8
I122
F0.125
S'first'
p442
I10
tp443
a(I8
I137
F0.5
S'smartest'
p444
I10
tp445
a(I9
I103
F0.125
S'first'
p446
I10
tp447
a(I10
I103
I0
S'anticipant'
p448
I10
tp449
a(I10
I103
F0.125
S'first'
p450
I10
tp451
a(I11
I2
I0
S'older'
p452
I10
tp453
a(I11
I23
F0.125
S'last'
p454
I10
tp455
as(S'old'
p456
S'flip'
p457
tp458
(lp459
(I2
I171
I0
S'old'
p460
I0
tp461
a(I4
I58
I0
S'old'
p462
I0
tp463
a(I10
I95
I0
S'old'
p464
I0
tp465
a(I11
I189
I0
S'old'
p466
I0
tp467
as(S'calls'
p468
tp469
(lp470
(I2
I173
I0
S'few'
p471
I0
tp472
a(I5
I168
F-0.5
S'regular'
p473
I0
tp474
a(I5
I169
F-0.5
S'regular'
p475
I0
tp476
a(I5
I277
I0
S'few'
p477
I0
tp478
a(I5
I277
F-0.25
S'dropped'
p479
I0
tp480
a(I5
I361
F0.125
S'able'
p481
I0
tp482
a(I8
I4
F0.875
S'music'
p483
I0
tp484
as(S'sim'
p485
S'card'
p486
tp487
(lp488
(I0
I49
F0.125
S'able'
p489
I0
tp490
a(I2
I60
F0.375
S'new'
p491
I0
tp492
a(I2
I309
F0.125
S'first'
p493
I0
tp494
a(I5
I33
F0.125
S'able'
p495
I0
tp496
a(I5
I33
F-0.625
S'other'
p497
I0
tp498
as(S'text'
p499
S'messages'
p500
tp501
(lp502
(I2
I173
I0
S'few'
p503
I0
tp504
a(I2
I173
I0
S'great'
p505
I0
tp506
a(I10
I4
I0
S'text'
p507
I0
tp508
a(I11
I204
I0
S'cool'
p509
I0
tp510
a(I11
I204
F0.75
S'receive'
p511
I0
tp512
a(I2
I173
I0
g503
I18
tp513
a(I5
I290
F0.75
S'beautiful'
p514
I18
tp515
a(I11
I204
I0
g509
I18
tp516
a(I11
I204
F0.75
g511
I18
tp517
as(S'internet'
p518
tp519
(lp520
(I2
I354
I0
S'instant'
p521
I6
tp522
a(I5
I243
I0
S'mobile'
p523
I6
tp524
a(I8
I205
F-0.125
S'slow'
p525
I6
tp526
a(I9
I113
F-0.5
S'sure'
p527
I6
tp528
a(I10
I104
F-0.625
S'light'
p529
I6
tp530
a(I11
I19
I0
S'quick'
p531
I6
tp532
a(I11
I67
F-0.625
S'want'
p533
I6
tp534
as(g171
S'data'
p535
S'plan'
p536
tp537
(lp538
(I2
I37
F-0.375
g253
I0
tp539
a(I2
I328
I0
S'monthly'
p540
I0
tp541
a(I4
I34
F0.375
S'extra'
p542
I0
tp543
a(I5
I206
F-0.5
g255
I0
tp544
a(I5
I207
F1.0
S'good'
p545
I0
tp546
a(I10
I13
F-0.625
S'want'
p547
I0
tp548
a(I10
I13
I0
S'monthly'
p549
I0
tp550
a(I10
I13
F0.625
S'add'
p551
I0
tp552
a(I10
I55
F0.875
S'happy'
p553
I0
tp554
a(I11
I132
I0
S'total'
p555
I0
tp556
a(I2
I37
F-0.375
g253
I0
tp557
a(I2
I328
I0
g540
I0
tp558
a(I4
I34
F0.375
g542
I0
tp559
a(I5
I206
F-0.5
g255
I0
tp560
a(I5
I207
F1.0
g545
I0
tp561
a(I10
I13
F-0.625
g547
I0
tp562
a(I10
I13
I0
g549
I0
tp563
a(I10
I13
F0.625
g551
I0
tp564
a(I10
I55
F0.875
g553
I0
tp565
a(I11
I132
I0
g555
I0
tp566
a(I2
I4
F-0.625
g251
I13
tp567
a(I2
I37
F-0.375
g253
I13
tp568
a(I2
I274
F0.375
S'enable'
p569
I13
tp570
a(I2
I282
I0
S'great'
p571
I13
tp572
a(I4
I34
F0.375
g542
I13
tp573
a(I5
I206
F-0.5
g255
I13
tp574
a(I5
I225
F0.375
S'much'
p575
I13
tp576
a(I9
I31
F-0.375
S'disable'
p577
I13
tp578
a(I9
I110
F-0.625
S'other'
p579
I13
tp580
a(I10
I54
I0
S'high'
p581
I13
tp582
a(I10
I55
F0.875
g553
I13
tp583
as(S'customer'
p584
S'service'
p585
tp586
(lp587
(I2
I60
F-0.25
S'past'
p588
I3
tp589
a(I2
I264
I0
S'automatic'
p590
I3
tp591
a(I2
I265
F-0.875
S'worst'
p592
I3
tp593
a(I5
I154
F-0.625
S'bad'
p594
I3
tp595
a(I0
I56
F1.0
S'better'
p596
I16
tp597
a(I2
I60
F-0.25
g588
I16
tp598
a(I2
I264
I0
g590
I16
tp599
a(I2
I278
I0
S'great'
p600
I16
tp601
a(I5
I183
I0
S'great'
p602
I16
tp603
a(I7
I48
F-0.625
S'other'
p604
I16
tp605
a(I8
I31
F-0.5
S'regular'
p606
I16
tp607
a(I8
I153
I0
S'internet'
p608
I16
tp609
a(I8
I153
F0.875
S'happy'
p610
I16
tp611
a(I9
I16
I0
S'different'
p612
I16
tp613
a(I9
I97
I0
S'closer'
p614
I16
tp615
a(I9
I99
F0.375
S'much'
p616
I16
tp617
a(I9
I99
F-0.5
S'regular'
p618
I16
tp619
a(I2
I265
F-0.875
g592
I11
tp620
a(I5
I154
F-0.625
g594
I11
tp621
as(S'internal'
p622
S'storage'
p623
tp624
(lp625
(I0
I17
F0.25
S'larger'
p626
I0
tp627
a(I0
I17
I0
S'internal'
p628
I0
tp629
a(I0
I18
F-0.375
S'small'
p630
I0
tp631
a(I0
I18
I0
S'internal'
p632
I0
tp633
a(I2
I283
I0
S'internal'
p634
I0
tp635
a(I2
I285
I0
S'internal'
p636
I0
tp637
a(I5
I45
I0
S'internal'
p638
I0
tp639
a(I5
I252
I0
S'internal'
p640
I0
tp641
a(I5
I346
I0
S'internal'
p642
I0
tp643
a(I5
I346
I0
S'close'
p644
I0
tp645
a(I0
I17
F0.25
g626
I1
tp646
a(I0
I17
I0
g628
I1
tp647
a(I0
I18
F-0.375
g630
I1
tp648
a(I0
I18
I0
g632
I1
tp649
a(I2
I134
F-0.25
S'low'
p650
I1
tp651
a(I2
I283
I0
g634
I1
tp652
a(I2
I285
I0
g636
I1
tp653
a(I5
I45
I0
g638
I1
tp654
a(I5
I252
I0
g640
I1
tp655
a(I5
I346
I0
g642
I1
tp656
a(I5
I346
I0
g644
I1
tp657
as(S'texts'
p658
tp659
(lp660
(I2
I6
F-0.25
S'cheaper'
p661
I0
tp662
a(I2
I54
F0.375
S'honest'
p663
I0
tp664
a(I2
I75
F-0.125
S'future'
p665
I0
tp666
a(I11
I49
I0
S'more'
p667
I0
tp668
as(S'internal'
p669
S'memory'
p670
tp671
(lp672
(I2
I25
I0
S'internal'
p673
I0
tp674
a(I2
I25
I0
S'internal'
p675
I0
tp676
a(I2
I25
F0.375
S'much'
p677
I0
tp678
a(I2
I92
I0
S'internal'
p679
I0
tp680
a(I2
I98
I0
S'internal'
p681
I0
tp682
a(I2
I98
I0
S'external'
p683
I0
tp684
a(I2
I203
I0
S'internal'
p685
I0
tp686
a(I2
I203
F1.0
S'best'
p687
I0
tp688
a(I2
I203
I0
S'full'
p689
I0
tp690
a(I2
I244
I0
S'internal'
p691
I0
tp692
a(I4
I24
I0
S'internal'
p693
I0
tp694
a(I5
I17
F-0.25
S'low'
p695
I0
tp696
a(I5
I17
I0
S'internal'
p697
I0
tp698
a(I5
I231
I0
S'internal'
p699
I0
tp700
a(I9
I88
F-0.5
S'actual'
p701
I0
tp702
a(I9
I88
I0
S'internal'
p703
I0
tp704
a(I9
I143
F-0.375
S'small'
p705
I0
tp706
a(I9
I143
I0
S'internal'
p707
I0
tp708
a(I9
I144
I0
S'internal'
p709
I0
tp710
a(I2
I25
I0
g673
I5
tp711
a(I2
I25
I0
g675
I5
tp712
a(I2
I25
F0.375
g677
I5
tp713
a(I2
I92
I0
g679
I5
tp714
a(I2
I98
I0
g681
I5
tp715
a(I2
I98
I0
g683
I5
tp716
a(I2
I203
I0
g685
I5
tp717
a(I2
I203
F1.0
g687
I5
tp718
a(I2
I203
I0
g689
I5
tp719
a(I2
I244
I0
g691
I5
tp720
a(I4
I24
I0
g693
I5
tp721
a(I5
I17
F-0.25
g695
I5
tp722
a(I5
I17
I0
g697
I5
tp723
a(I5
I231
I0
g699
I5
tp724
a(I8
I65
F0.375
S'extra'
p725
I5
tp726
a(I8
I68
I0
S'full'
p727
I5
tp728
a(I8
I140
F-0.25
S'low'
p729
I5
tp730
a(I9
I88
F-0.5
g701
I5
tp731
a(I9
I88
I0
g703
I5
tp732
a(I9
I143
F-0.375
g705
I5
tp733
a(I9
I143
I0
g707
I5
tp734
a(I9
I144
I0
g709
I5
tp735
a(I10
I107
F-0.75
S'little'
p736
I5
tp737
a(I11
I94
F0.625
S'easy'
p738
I5
tp739
a(I11
I152
F0.375
S'much'
p740
I5
tp741
as(S'certainly'
p742
S'nothing'
p743
tp744
(lp745
(I5
I340
F-0.875
S'negative'
p746
I0
tp747
as.