(dp0
(S'blackberry'
p1
tp2
(lp3
(I7
I14
F1.0
S'best'
p4
I1
tp5
a(I18
I16
F1.0
S'best'
p6
I1
tp7
a(I20
I0
F1.0
S'best'
p8
I1
tp9
a(I28
I1
F1.0
S'best'
p10
I1
tp11
as(S'rear'
p12
S'case'
p13
tp14
(lp15
(I7
I21
I0
S'rear'
p16
I0
tp17
a(I18
I23
I0
S'rear'
p18
I0
tp19
a(I20
I1
I0
S'rear'
p20
I0
tp21
as(S'battery'
p22
tp23
(lp24
(I19
I3
F0.125
S'last'
p25
I15
tp26
a(I22
I5
F0.625
S'removable'
p27
I15
tp28
a(I27
I29
F-0.25
S'low'
p29
I15
tp30
a(I27
I39
F0.625
S'necessary'
p31
I15
tp32
as(S'touch'
p33
S'removal'
p34
tp35
(lp36
(I7
I21
F0.5
S'touch'
p37
I0
tp38
a(I18
I23
F0.5
S'touch'
p39
I0
tp40
a(I20
I1
F0.5
S'touch'
p41
I0
tp42
as(S'lo'
p43
S'recomiendo'
p44
tp45
(lp46
(I2
I5
I0
S'y'
p47
I0
tp48
as(S'touch'
p49
S'screen'
p50
tp51
(lp52
(I3
I1
F0.125
S'first'
p53
I2
tp54
a(I5
I8
F0.5
S'touch'
p55
I2
tp56
a(I5
I22
F0.5
S'touch'
p57
I2
tp58
a(I5
I23
F0.5
S'touch'
p59
I2
tp60
a(I7
I2
F0.5
S'touch'
p61
I2
tp62
a(I27
I19
F0.5
S'touch'
p63
I2
tp64
as.