(dp0
(S'qwerty'
p1
S'keyboard'
p2
tp3
(lp4
(I3
I50
I0
S'full'
p5
I0
tp6
a(I3
I3
I0
S'full'
p7
I2
tp8
a(I3
I3
I0
S'handy'
p9
I2
tp10
a(I4
I12
I0
S'great'
p11
I2
tp12
a(I4
I87
I0
S'full'
p13
I2
tp14
a(I4
I88
I0
S'full'
p15
I2
tp16
a(I8
I21
F0.625
S'positive'
p17
I2
tp18
a(I8
I51
F0.625
S'easy'
p19
I2
tp20
a(I10
I20
F-0.5
S'open'
p21
I2
tp22
as(S'data'
p23
S'plan'
p24
tp25
(lp26
(I10
I47
F-0.875
S'hard'
p27
I0
tp28
as(S'blue'
p29
tp30
(lp31
(I5
I17
F1.0
S'good'
p32
I10
tp33
as(S'texts'
p34
tp35
(lp36
(I4
I74
F-0.375
S'crazy'
p37
I0
tp38
a(I8
I28
I0
S'more'
p39
I0
tp40
a(I10
I58
I0
S'old'
p41
I0
tp42
as(S'calls'
p43
tp44
(lp45
(I10
I53
F0.25
S'consistent'
p46
I0
tp47
a(I12
I1
F-0.5
S'less'
p48
I0
tp49
as(S'alarm'
p50
S'clock'
p51
tp52
(lp53
(I2
I13
F-0.75
S'unreliable'
p54
I0
tp55
a(I4
I76
F0.375
S'audible'
p56
I0
tp57
a(I8
I17
F-0.25
S'past'
p58
I0
tp59
a(I10
I61
I-100
S'working-but'
p60
I0
tp61
as(S'full'
p62
S'keyboard'
p63
tp64
(lp65
(I3
I3
I0
g7
I0
tp66
a(I3
I3
I0
g9
I0
tp67
a(I4
I87
I0
g13
I0
tp68
a(I4
I88
I0
g15
I0
tp69
a(I5
I14
F0.625
S'easy'
p70
I0
tp71
a(I11
I4
F0.625
S'easy'
p72
I0
tp73
as(S'text'
p74
tp75
(lp76
(I2
I78
F0.375
S'new'
p77
I18
tp78
a(I3
I35
F-0.5
S'long'
p79
I18
tp80
a(I12
I7
F0.25
S'sent'
p81
I18
tp82
as(S'button'
p83
tp84
(lp85
(I2
I26
F-0.75
S'wrong'
p86
I19
tp87
a(I2
I26
F-0.625
S'other'
p88
I19
tp89
a(I3
I8
I0
S'more'
p90
I19
tp91
as(S'pocket'
p92
tp93
(lp94
(I10
I55
I0
S'hot'
p95
I17
tp96
as(S'verizon'
p97
tp98
(lp99
(I4
I103
I0
S'local'
p100
I0
tp101
a(I5
I27
F-0.25
S'cheaper'
p102
I0
tp103
as(S'texting'
p104
tp105
(lp106
(I2
I47
I0
S'great'
p107
I0
tp108
a(I10
I47
F1.0
S'good'
p109
I0
tp110
a(I10
I53
F-0.375
S'simple'
p111
I0
tp112
as(S'few'
p113
S'days'
p114
tp115
(lp116
(I3
I39
I0
S'few'
p117
I10
tp118
a(I3
I39
F0.875
S'lucky'
p119
I10
tp120
a(I4
I17
I0
S'few'
p121
I10
tp122
a(I4
I102
I0
S'few'
p123
I10
tp124
a(I5
I23
I0
S'few'
p125
I10
tp126
as(S'camera'
p127
tp128
(lp129
(I8
I33
I0
S'useful'
p130
I1
tp131
a(I8
I33
F-0.75
S'dark'
p132
I1
tp133
as(S'contract'
p134
tp135
(lp136
(I4
I44
F0.375
S'new'
p137
I0
tp138
a(I4
I44
F0.375
S'new'
p139
I0
tp140
as(S'battery'
p141
S'life'
p142
tp143
(lp144
(I4
I99
F1.0
S'good'
p145
I1
tp146
a(I10
I60
F-0.75
S'short'
p147
I1
tp148
a(I4
I90
F-0.375
S'daily'
p149
I19
tp150
a(I4
I99
F1.0
g145
I19
tp151
a(I8
I2
F-0.375
S'simple'
p152
I19
tp153
a(I3
I44
F-0.25
S'low'
p154
I15
tp155
a(I8
I23
I0
S'full'
p156
I15
tp157
a(I8
I25
I0
S'unplug'
p158
I15
tp159
a(I8
I25
I0
S'full'
p160
I15
tp161
a(I8
I30
F0.375
S'new'
p162
I15
tp163
a(I8
I30
F0.375
S'new'
p164
I15
tp165
a(I10
I60
F-0.75
g147
I15
tp166
a(I12
I28
F-0.75
S'wrong'
p167
I15
tp168
as.