(dp0
(S'memory'
p1
S'card'
p2
tp3
(lp4
(I38
I13
F0.25
S'largest'
p5
I0
tp6
a(I4
I2
I0
S'internal'
p7
I5
tp8
a(I15
I1
F-0.75
S'shallow'
p9
I5
tp10
a(I18
I21
I0
S'most'
p11
I5
tp12
a(I23
I9
I0
S'internal'
p13
I5
tp14
a(I27
I9
I0
S'internal'
p15
I5
tp16
a(I38
I13
F0.25
g5
I5
tp17
a(I38
I47
F-0.75
S'little'
p18
I5
tp19
as(S'battery'
p20
S'life'
p21
tp22
(lp23
(I18
I22
I0
S'standard'
p24
I1
tp25
a(I26
I0
F-0.5
S'less'
p26
I1
tp27
a(I34
I16
F1.0
S'good'
p28
I1
tp29
a(I13
I2
F-0.75
S'wrong'
p30
I15
tp31
a(I15
I12
I0
S'closer'
p32
I15
tp33
a(I19
I0
F0.375
S'new'
p34
I15
tp35
a(I23
I3
F0.25
S'larger'
p36
I15
tp37
a(I27
I20
F-0.25
S'plugged'
p38
I15
tp39
a(I27
I21
F0.375
S'new'
p40
I15
tp41
a(I27
I21
F0.375
S'new'
p42
I15
tp43
a(I33
I14
F0.125
S'charger'
p44
I15
tp45
a(I33
I14
I0
S'great'
p46
I15
tp47
a(I43
I7
F-0.25
S'low'
p48
I15
tp49
as(S'keyboard'
p50
tp51
(lp52
(I0
I0
I0
S'great'
p53
I2
tp54
a(I3
I7
I0
S'slid'
p55
I2
tp56
a(I6
I13
F-0.125
S'overall'
p57
I2
tp58
a(I6
I13
F0.875
S'nice'
p59
I2
tp60
a(I12
I16
F-0.25
S'loose'
p61
I2
tp62
a(I15
I4
F0.875
S'nice'
p63
I2
tp64
a(I18
I21
I0
S'physical'
p65
I2
tp66
a(I18
I23
I0
S'physical'
p67
I2
tp68
a(I20
I0
I0
S'physical'
p69
I2
tp70
a(I35
I14
I0
S'physical'
p71
I2
tp72
as(S'service'
p73
tp74
(lp75
(I33
I1
F-0.75
S'sufficient'
p76
I16
tp77
as(S'slide'
p78
tp79
(lp80
(I35
I13
I0
S'few'
p81
I6
tp82
a(I35
I13
F1.0
S'good'
p83
I6
tp84
as(S'sprint'
p85
tp86
(lp87
(I22
I3
I0
S'local'
p88
I0
tp89
a(I27
I5
F0.125
S'able'
p90
I0
tp91
as(S'major'
p92
S'issues'
p93
tp94
(lp95
(I20
I18
F0.625
S'major'
p96
I0
tp97
a(I20
I20
F0.625
S'major'
p98
I0
tp99
a(I20
I20
F-0.625
S'other'
p100
I0
tp101
a(I27
I15
F0.625
S'major'
p102
I0
tp103
as(S'stopped'
p104
S'working'
p105
tp106
(lp107
(I14
I3
F-0.375
S'stopped'
p108
I2
tp109
as(S'seller'
p110
tp111
(lp112
(I38
I30
I0
S'different'
p113
I19
tp114
a(I38
I30
I0
S'different'
p115
I19
tp116
as(S'in'
p117
S'good'
p118
S'condition'
p119
tp120
(lp121
(I2
I2
F1.0
S'good'
p122
I6
tp123
a(I2
I2
I0
S'physical'
p124
I6
tp125
a(I8
I6
F-0.375
S'top'
p126
I6
tp127
a(I12
I18
F1.0
S'good'
p128
I6
tp129
a(I18
I25
F1.0
S'good'
p130
I6
tp131
a(I19
I3
F1.0
S'good'
p132
I6
tp133
a(I19
I20
F1.0
S'good'
p134
I6
tp135
a(I20
I9
F1.0
S'good'
p136
I6
tp137
a(I35
I23
F1.0
S'good'
p138
I6
tp139
a(I2
I2
F1.0
g122
I6
tp140
a(I2
I2
I0
g124
I6
tp141
a(I8
I6
F-0.375
g126
I6
tp142
a(I12
I18
F1.0
g128
I6
tp143
a(I18
I25
F1.0
g130
I6
tp144
a(I19
I3
F1.0
g132
I6
tp145
a(I19
I20
F1.0
g134
I6
tp146
a(I20
I9
F1.0
g136
I6
tp147
a(I35
I23
F1.0
g138
I6
tp148
as(S'smart'
p149
tp150
(lp151
(I6
I23
F0.125
S'first'
p152
I10
tp153
a(I16
I10
F0.375
S'new'
p154
I10
tp155
a(I19
I2
F0.625
S'easy'
p156
I10
tp157
as(S'replacement'
p158
tp159
(lp160
(I2
I0
I0
S'needed'
p161
I13
tp162
as(S'internal'
p163
S'memory'
p164
tp165
(lp166
(I4
I2
I0
g7
I0
tp167
a(I23
I9
I0
g13
I0
tp168
a(I27
I9
I0
g15
I0
tp169
as(S'android'
p170
S'market'
p171
tp172
(lp173
(I13
I7
I0
S'android'
p174
I0
tp175
a(I43
I18
I0
S'android'
p176
I0
tp177
as(S'apps'
p178
tp179
(lp180
(I1
I1
I0
S'own'
p181
I0
tp182
a(I4
I6
I0
S'many'
p183
I0
tp184
a(I4
I16
F-0.25
S'intensive'
p185
I0
tp186
a(I12
I5
I-100
S'whatever-'
p187
I0
tp188
a(I15
I2
F0.375
S'new'
p189
I0
tp190
a(I15
I3
F0.25
S'biggest'
p191
I0
tp192
a(I40
I4
F-0.125
S'slow'
p193
I0
tp194
a(I43
I18
F-0.625
S'free'
p195
I0
tp196
a(I43
I18
F0.375
S'available'
p197
I0
tp198
a(I43
I43
I0
S'many'
p199
I0
tp200
as(S'amazon'
p201
tp202
(lp203
(I10
I17
I0
S'electronic'
p204
I13
tp205
a(I43
I32
F0.875
S'happy'
p206
I13
tp207
as(S'htc'
p208
S'evo'
p209
S'shift'
p210
tp211
(lp212
(I18
I0
F0.5
S'second'
p213
I0
tp214
a(I18
I0
F0.5
g213
I0
tp215
a(I19
I10
I0
S'sister'
p216
I0
tp217
a(I35
I1
F1.0
S'good'
p218
I0
tp219
a(I43
I31
F-0.625
S'lighter'
p220
I0
tp221
a(I43
I31
F-0.625
g220
I2
tp222
as(S'touch'
p223
S'screen'
p224
tp225
(lp226
(I4
I23
F-0.375
S'top'
p227
I2
tp228
a(I14
I26
F-0.5
S'cracked'
p229
I2
tp230
a(I18
I2
F0.5
S'touch'
p231
I2
tp232
a(I35
I6
F-0.75
S'unresponsive'
p233
I2
tp234
a(I40
I3
F0.5
S'touch'
p235
I2
tp236
a(I43
I9
F0.5
S'touch'
p237
I2
tp238
as(S'ribbon'
p239
S'cable'
p240
tp241
(lp242
(I20
I24
I0
S'cable'
p243
I0
tp244
as.