(dp0
(S'minutes'
p1
S'triple'
p2
S'minutes'
p3
tp4
(lp5
(I8
I0
F0.375
S'extra'
p6
tp7
a(I11
I1
F-0.375
S'double'
p8
tp9
a(I38
I2
F0.875
S'happy'
p10
tp11
a(I41
I9
I0
S'total'
p12
tp13
a(I69
I13
I0
S'great'
p14
tp15
a(I69
I14
F0.375
S'available'
p16
tp17
a(I76
I3
F0.5
S'whole'
p18
tp19
a(I78
I7
I0
S'only'
p20
tp21
a(I90
I2
F-0.5
S'less'
p22
tp23
a(I101
I14
F-0.375
S'double'
p24
tp25
a(I106
I0
I0
S'few'
p26
tp27
a(I113
I6
I0
S'more'
p28
tp29
a(I123
I1
F0.125
S'able'
p30
tp31
a(I124
I2
F0.125
S'able'
p32
tp33
a(I126
I1
F-0.375
S'double'
p34
tp35
a(I137
I6
F-0.25
S'triple'
p36
tp37
a(I140
I0
F-0.625
S'free'
p38
tp39
a(I141
I0
F-0.25
S'triple'
p40
tp41
a(I149
I1
F-0.375
S'double'
p42
tp43
a(I157
I0
F0.375
S'extra'
p44
tp45
a(I157
I0
F0.375
S'extra'
p46
tp47
a(I158
I17
F0.375
S'extra'
p48
tp49
a(I168
I0
F-0.25
S'triple'
p50
tp51
a(I191
I6
F-0.25
S'triple'
p52
tp53
a(I191
I13
I0
S'least'
p54
tp55
a(I191
I13
F0.5
S'true'
p56
tp57
a(I192
I3
I0
S'least'
p58
tp59
a(I196
I0
F-0.25
S'triple'
p60
tp61
a(I203
I0
F-0.25
S'triple'
p62
tp63
a(I211
I3
I0
S'own'
p64
tp65
a(I218
I3
I0
S'nervous'
p66
tp67
a(I218
I5
F-0.375
S'double'
p68
tp69
a(I226
I29
F-0.375
S'double'
p70
tp71
a(I227
I2
F-0.375
S'double'
p72
tp73
a(I227
I2
F-0.375
S'double'
p74
tp75
a(I227
I3
F-0.25
S'triple'
p76
tp77
a(I227
I4
F-0.25
S'triple'
p78
tp79
a(I227
I4
F-0.25
S'triple'
p80
tp81
a(I246
I6
F-0.375
S'double'
p82
tp83
a(I246
I6
F-0.25
S'triple'
p84
tp85
a(I251
I8
F-0.375
S'double'
p86
tp87
a(I251
I14
I0
S'anymore'
p88
tp89
a(I263
I1
F0.875
S'nice'
p90
tp91
a(I272
I2
F0.75
S'worth'
p92
tp93
a(I273
I0
F-0.375
S'double'
p94
tp95
a(I286
I1
F0.375
S'prime'
p96
tp97
a(I297
I15
F-0.375
S'double'
p98
tp99
a(I297
I15
I0
S'same'
p100
tp101
a(I303
I5
F-0.25
S'triple'
p102
tp103
a(I303
I7
F-0.375
S'double'
p104
tp105
a(I313
I2
I0
S'great'
p106
tp107
a(I325
I1
I0
S'great'
p108
tp109
a(I362
I39
F0.375
S'new'
p110
tp111
a(I368
I6
I0
S'total'
p112
tp113
a(I374
I5
F-0.5
S'sure'
p114
tp115
a(I398
I1
F-0.375
S'double'
p116
tp117
a(I399
I4
F-0.375
S'double'
p118
tp119
a(I403
I3
I0
S'tripled'
p120
tp121
a(I403
I3
F-0.25
S'cheaper'
p122
tp123
as(S'sim'
p124
S'card'
p125
tp126
(lp127
(I92
I0
F-0.75
S'wrong'
p128
tp129
a(I266
I74
F-0.25
S'white'
p130
tp131
a(I381
I7
F0.375
S'new'
p132
tp133
as(S'about'
p134
S'triple'
p135
S'minutes'
p136
tp137
(lp138
(I123
I1
F0.125
g30
tp139
a(I218
I3
I0
g66
tp140
a(I374
I5
F-0.5
g114
tp141
as(S'activation'
p142
tp143
(lp144
(I7
I2
F0.625
S'easy'
p145
tp146
a(I388
I7
F-0.75
S'wrong'
p147
tp148
a(I388
I8
I0
S'initial'
p149
tp150
as(S'triple'
p151
S'minutes'
p152
tp153
(lp154
(I8
I0
F0.375
g6
tp155
a(I11
I1
F-0.375
g8
tp156
a(I38
I2
F0.875
g10
tp157
a(I41
I9
I0
g12
tp158
a(I69
I13
I0
g14
tp159
a(I69
I14
F0.375
g16
tp160
a(I76
I3
F0.5
g18
tp161
a(I78
I7
I0
g20
tp162
a(I90
I2
F-0.5
g22
tp163
a(I101
I14
F-0.375
g24
tp164
a(I106
I0
I0
g26
tp165
a(I113
I6
I0
g28
tp166
a(I123
I1
F0.125
g30
tp167
a(I124
I2
F0.125
g32
tp168
a(I126
I1
F-0.375
g34
tp169
a(I137
I6
F-0.25
g36
tp170
a(I140
I0
F-0.625
g38
tp171
a(I141
I0
F-0.25
g40
tp172
a(I149
I1
F-0.375
g42
tp173
a(I157
I0
F0.375
g44
tp174
a(I157
I0
F0.375
g46
tp175
a(I158
I17
F0.375
g48
tp176
a(I168
I0
F-0.25
g50
tp177
a(I191
I6
F-0.25
g52
tp178
a(I191
I13
I0
g54
tp179
a(I191
I13
F0.5
g56
tp180
a(I192
I3
I0
g58
tp181
a(I196
I0
F-0.25
g60
tp182
a(I203
I0
F-0.25
g62
tp183
a(I211
I3
I0
g64
tp184
a(I218
I3
I0
g66
tp185
a(I218
I5
F-0.375
g68
tp186
a(I226
I29
F-0.375
g70
tp187
a(I227
I2
F-0.375
g72
tp188
a(I227
I2
F-0.375
g74
tp189
a(I227
I3
F-0.25
g76
tp190
a(I227
I4
F-0.25
g78
tp191
a(I227
I4
F-0.25
g80
tp192
a(I246
I6
F-0.375
g82
tp193
a(I246
I6
F-0.25
g84
tp194
a(I251
I8
F-0.375
g86
tp195
a(I251
I14
I0
g88
tp196
a(I263
I1
F0.875
g90
tp197
a(I272
I2
F0.75
g92
tp198
a(I273
I0
F-0.375
g94
tp199
a(I286
I1
F0.375
g96
tp200
a(I297
I15
F-0.375
g98
tp201
a(I297
I15
I0
g100
tp202
a(I303
I5
F-0.25
g102
tp203
a(I303
I7
F-0.375
g104
tp204
a(I313
I2
I0
g106
tp205
a(I325
I1
I0
g108
tp206
a(I362
I39
F0.375
g110
tp207
a(I368
I6
I0
g112
tp208
a(I374
I5
F-0.5
g114
tp209
a(I398
I1
F-0.375
g116
tp210
a(I399
I4
F-0.375
g118
tp211
a(I403
I3
I0
g120
tp212
a(I403
I3
F-0.25
g122
tp213
as(S'touch'
p214
tp215
(lp216
(I24
I0
F-0.625
S'free'
p217
tp218
a(I218
I2
F0.625
S'easier'
p219
tp220
a(I240
I0
F0.375
S'new'
p221
tp222
a(I287
I3
F-0.5
S'less'
p223
tp224
a(I287
I44
I0
S'capacitive'
p225
tp226
a(I322
I1
I0
S'great'
p227
tp228
a(I344
I20
F1.0
S'good'
p229
tp230
as(S'years'
p231
tp232
(lp233
(I79
I0
I0
S'few'
p234
tp235
a(I79
I0
F0.875
S'happy'
p236
tp237
a(I106
I1
F0.75
S'give'
p238
tp239
a(I112
I0
F0.25
S'original'
p240
tp241
a(I121
I0
I0
S'many'
p242
tp243
a(I130
I3
I0
S'more'
p244
tp245
a(I178
I1
F0.125
S'able'
p246
tp247
a(I178
I1
I0
S'many'
p248
tp249
a(I215
I0
I0
S'many'
p250
tp251
a(I269
I15
I0
S'few'
p252
tp253
a(I322
I1
I0
S'few'
p254
tp255
a(I344
I0
I0
S'few'
p256
tp257
a(I368
I7
F0.875
S'happy'
p258
tp259
as(S'one'
p260
S'year'
p261
tp262
(lp263
(I0
I1
F0.125
S'enough'
p264
tp265
a(I6
I7
I0
S'old'
p266
tp267
a(I51
I5
F-0.25
S'cheaper'
p268
tp269
a(I51
I5
I0
S'next'
p270
tp271
a(I91
I0
I0
S'old'
p272
tp273
a(I106
I0
F-0.25
S'cheaper'
p274
tp275
a(I106
I0
I0
S'next'
p276
tp277
a(I137
I8
I0
S'full'
p278
tp279
a(I146
I0
I0
S'old'
p280
tp281
a(I147
I0
F-0.25
S'cheaper'
p282
tp283
a(I157
I0
F0.375
S'extra'
p284
tp285
a(I162
I0
I0
S'old'
p286
tp287
a(I162
I0
I0
S'old'
p288
tp289
a(I171
I0
I0
S'old'
p290
tp291
a(I245
I9
I0
S'least'
p292
tp293
a(I266
I4
I0
S'old'
p294
tp295
a(I300
I2
I0
S'same'
p296
tp297
a(I334
I5
I0
S'full'
p298
tp299
a(I375
I0
F-0.5
S'less'
p300
tp301
a(I381
I0
I0
S'old'
p302
tp303
a(I403
I4
F0.125
S'first'
p304
tp305
a(I404
I1
I0
S'old'
p306
tp307
a(I405
I18
F0.5
S'second'
p308
tp309
a(I405
I19
F0.5
S'second'
p310
tp311
a(I408
I1
F0.125
S'first'
p312
tp313
a(I408
I1
I0
S'close'
p314
tp315
as(S'400'
p316
S'minutes'
p317
tp318
(lp319
(I8
I0
F0.375
g6
tp320
a(I11
I1
F-0.375
g8
tp321
a(I41
I9
I0
g12
tp322
a(I51
I4
F-0.25
S'cheaper'
p323
tp324
a(I51
I4
F-0.375
S'double'
p325
tp326
a(I59
I6
I0
S'more'
p327
tp328
a(I123
I1
F0.125
g30
tp329
a(I135
I0
F0.375
S'extra'
p330
tp331
a(I158
I17
F0.375
g48
tp332
a(I191
I13
I0
g54
tp333
a(I289
I2
F-0.75
S'little'
p334
tp335
a(I300
I3
I0
S'total'
p336
tp337
a(I368
I6
I0
g112
tp338
as(S'get'
p339
S'1200'
p340
S'minutes'
p341
tp342
(lp343
(I38
I2
F0.875
g10
tp344
a(I49
I2
I0
S'quick'
p345
tp346
a(I49
I2
F0.625
S'easy'
p347
tp348
a(I192
I3
I0
g58
tp349
a(I368
I6
I0
g112
tp350
as(S'double'
p351
S'minutes'
p352
tp353
(lp354
(I11
I1
F-0.375
g8
tp355
a(I51
I4
F-0.25
g323
tp356
a(I51
I4
F-0.375
g325
tp357
a(I59
I2
F-0.375
S'double'
p358
tp359
a(I59
I2
F0.375
S'new'
p360
tp361
a(I101
I14
F-0.375
g24
tp362
a(I126
I1
F-0.375
g34
tp363
a(I149
I1
F-0.375
g42
tp364
a(I149
I3
F-0.375
S'double'
p365
tp366
a(I149
I6
F-0.375
S'double'
p367
tp368
a(I191
I1
F-0.375
S'double'
p369
tp370
a(I211
I8
F-0.375
S'double'
p371
tp372
a(I212
I5
F-0.375
S'double'
p373
tp374
a(I218
I5
F-0.375
g68
tp375
a(I218
I10
F-0.375
S'double'
p376
tp377
a(I225
I0
F-0.375
S'double'
p378
tp379
a(I226
I29
F-0.375
g70
tp380
a(I227
I2
F-0.375
g72
tp381
a(I227
I2
F-0.375
g74
tp382
a(I246
I6
F-0.375
g82
tp383
a(I246
I6
F-0.25
g84
tp384
a(I247
I13
F-0.375
S'double'
p385
tp386
a(I251
I8
F-0.375
g86
tp387
a(I273
I0
F-0.375
g94
tp388
a(I297
I14
F-0.375
S'double'
p389
tp390
a(I297
I15
F-0.375
g98
tp391
a(I297
I15
I0
g100
tp392
a(I303
I7
F-0.375
g104
tp393
a(I374
I6
F-0.375
S'double'
p394
tp395
a(I398
I1
F-0.375
g116
tp396
a(I399
I4
F-0.375
g118
tp397
as(S'a'
p398
S'good'
p399
S'deal'
p400
tp401
(lp402
(I36
I0
F1.0
S'good'
p403
tp404
a(I113
I4
F1.0
S'good'
p405
tp406
a(I131
I3
F0.5
S'true'
p407
tp408
a(I143
I0
F1.0
S'good'
p409
tp410
a(I146
I4
I0
S'great'
p411
tp412
a(I166
I9
F1.0
S'good'
p413
tp414
a(I168
I0
F1.0
S'good'
p415
tp416
a(I189
I2
F1.0
S'good'
p417
tp418
a(I189
I6
F-0.125
S'overall'
p419
tp420
a(I189
I6
F1.0
S'good'
p421
tp422
a(I209
I0
F1.0
S'good'
p423
tp424
a(I250
I4
F1.0
S'good'
p425
tp426
a(I260
I0
F1.0
S'good'
p427
tp428
a(I277
I2
F1.0
S'good'
p429
tp430
a(I281
I5
F1.0
S'good'
p431
tp432
a(I317
I2
F1.0
S'good'
p433
tp434
a(I317
I2
F0.5
S'true'
p435
tp436
a(I335
I1
F1.0
S'good'
p437
tp438
a(I353
I0
F1.0
S'good'
p439
tp440
a(I387
I16
F1.0
S'good'
p441
tp442
a(I391
I0
F1.0
S'good'
p443
tp444
a(I405
I21
F1.0
S'good'
p445
tp446
as(S'triple'
p447
S'minute'
p448
tp449
(lp450
(I69
I13
I0
g14
tp451
a(I69
I14
F0.375
g16
tp452
a(I78
I4
F-0.375
S'double'
p453
tp454
a(I78
I7
I0
g20
tp455
a(I122
I0
I0
S'third'
p456
tp457
a(I124
I2
F0.125
g32
tp458
a(I191
I13
F0.5
g56
tp459
a(I218
I3
I0
g66
tp460
a(I251
I2
F0.5
S'told'
p461
tp462
a(I251
I9
F-0.375
S'double'
p463
tp464
a(I263
I1
F0.875
g90
tp465
a(I271
I22
F-0.25
S'triple'
p466
tp467
a(I272
I2
F0.75
g92
tp468
a(I303
I0
F-0.375
S'double'
p469
tp470
a(I303
I0
F-0.25
S'direct'
p471
tp472
a(I325
I1
I0
g108
tp473
a(I374
I5
F-0.5
g114
tp474
as(S'customer'
p475
tp476
(lp477
(I13
I0
I0
S'real'
p478
tp479
a(I73
I0
F1.0
S'good'
p480
tp481
a(I80
I0
F0.625
S'hold'
p482
tp483
a(I81
I1
I0
S'later'
p484
tp485
a(I95
I0
F-0.625
S'bad'
p486
tp487
a(I114
I1
F0.375
S'extra'
p488
tp489
a(I119
I4
I0
S'great'
p490
tp491
a(I269
I15
F0.5
S'loyal'
p492
tp493
a(I314
I5
I0
S'e-mailed'
p494
tp495
a(I385
I7
F0.625
S'accessible'
p496
tp497
as(S'triple'
p498
tp499
(lp500
(I69
I13
I0
g14
tp501
a(I69
I14
F0.375
g16
tp502
a(I78
I7
I0
g20
tp503
a(I122
I0
I0
g456
tp504
a(I124
I2
F0.125
g32
tp505
a(I191
I13
F0.5
g56
tp506
a(I218
I3
I0
g66
tp507
a(I251
I2
F0.5
g461
tp508
a(I263
I1
F0.875
g90
tp509
a(I272
I2
F0.75
g92
tp510
a(I325
I1
I0
g108
tp511
a(I374
I5
F-0.5
g114
tp512
as(S'and'
p513
S'triple'
p514
S'minutes'
p515
tp516
(lp517
(I8
I0
F0.375
g6
tp518
a(I38
I2
F0.875
g10
tp519
a(I76
I3
F0.5
g18
tp520
a(I78
I7
I0
g20
tp521
a(I106
I0
I0
g26
tp522
a(I123
I1
F0.125
g30
tp523
a(I124
I2
F0.125
g32
tp524
a(I126
I1
F-0.375
g34
tp525
a(I140
I0
F-0.625
g38
tp526
a(I141
I0
F-0.25
g40
tp527
a(I149
I1
F-0.375
g42
tp528
a(I157
I0
F0.375
g44
tp529
a(I157
I0
F0.375
g46
tp530
a(I191
I6
F-0.25
g52
tp531
a(I191
I13
I0
g54
tp532
a(I191
I13
F0.5
g56
tp533
a(I192
I3
I0
g58
tp534
a(I218
I3
I0
g66
tp535
a(I218
I5
F-0.375
g68
tp536
a(I226
I29
F-0.375
g70
tp537
a(I246
I6
F-0.375
g82
tp538
a(I246
I6
F-0.25
g84
tp539
a(I251
I14
I0
g88
tp540
a(I263
I1
F0.875
g90
tp541
a(I272
I2
F0.75
g92
tp542
a(I297
I15
F-0.375
g98
tp543
a(I297
I15
I0
g100
tp544
a(I325
I1
I0
g108
tp545
a(I362
I39
F0.375
g110
tp546
a(I368
I6
I0
g112
tp547
a(I403
I3
I0
g120
tp548
a(I403
I3
F-0.25
g122
tp549
as(S'minutes'
p550
S'and'
p551
S'triple'
p552
tp553
(lp554
(I8
I0
F0.375
g6
tp555
a(I38
I2
F0.875
g10
tp556
a(I76
I3
F0.5
g18
tp557
a(I78
I7
I0
g20
tp558
a(I106
I0
I0
g26
tp559
a(I123
I1
F0.125
g30
tp560
a(I124
I2
F0.125
g32
tp561
a(I126
I1
F-0.375
g34
tp562
a(I140
I0
F-0.625
g38
tp563
a(I141
I0
F-0.25
g40
tp564
a(I149
I1
F-0.375
g42
tp565
a(I157
I0
F0.375
g44
tp566
a(I157
I0
F0.375
g46
tp567
a(I191
I6
F-0.25
g52
tp568
a(I191
I13
I0
g54
tp569
a(I191
I13
F0.5
g56
tp570
a(I192
I3
I0
g58
tp571
a(I218
I3
I0
g66
tp572
a(I218
I5
F-0.375
g68
tp573
a(I226
I29
F-0.375
g70
tp574
a(I246
I6
F-0.375
g82
tp575
a(I246
I6
F-0.25
g84
tp576
a(I251
I14
I0
g88
tp577
a(I263
I1
F0.875
g90
tp578
a(I272
I2
F0.75
g92
tp579
a(I297
I15
F-0.375
g98
tp580
a(I297
I15
I0
g100
tp581
a(I325
I1
I0
g108
tp582
a(I362
I39
F0.375
g110
tp583
a(I368
I6
I0
g112
tp584
a(I403
I3
I0
g120
tp585
a(I403
I3
F-0.25
g122
tp586
as(S'number'
p587
S'and'
p588
S'minutes'
p589
tp590
(lp591
(I8
I0
I0
S'serial'
p592
tp593
a(I8
I0
F0.375
g6
tp594
a(I16
I2
I0
S'current'
p595
tp596
a(I29
I3
F-0.75
S'wrong'
p597
tp598
a(I60
I4
F0.625
S'add'
p599
tp600
a(I60
I7
I0
S'serial'
p601
tp602
a(I76
I1
F0.125
S'able'
p603
tp604
a(I76
I3
F0.5
g18
tp605
a(I76
I3
I0
S'old'
p606
tp607
a(I92
I2
I0
S'many'
p608
tp609
a(I105
I1
I0
S'old'
p610
tp611
a(I113
I3
I0
S'old'
p612
tp613
a(I157
I0
F0.375
g44
tp614
a(I157
I0
F0.375
g46
tp615
a(I157
I0
I0
S'local'
p616
tp617
a(I182
I4
I0
S'same'
p618
tp619
a(I188
I1
F0.125
S'able'
p620
tp621
a(I191
I13
I0
g54
tp622
a(I218
I5
F-0.375
g68
tp623
a(I225
I0
F-0.375
g378
tp624
a(I238
I3
F0.25
S'original'
p625
tp626
a(I247
I7
I0
S'few'
p627
tp628
a(I251
I23
I0
S'anymore'
p629
tp630
a(I266
I6
I0
S'old'
p631
tp632
a(I398
I4
F-0.5
S'long'
p633
tp634
a(I398
I4
I0
S'old'
p635
tp636
as(g398
S'triple'
p637
S'minute'
p638
tp639
(lp640
(I69
I13
I0
g14
tp641
a(I69
I14
F0.375
g16
tp642
a(I78
I4
F-0.375
g453
tp643
a(I78
I7
I0
g20
tp644
a(I122
I0
I0
g456
tp645
a(I124
I2
F0.125
g32
tp646
a(I191
I13
F0.5
g56
tp647
a(I218
I3
I0
g66
tp648
a(I251
I2
F0.5
g461
tp649
a(I251
I9
F-0.375
g463
tp650
a(I263
I1
F0.875
g90
tp651
a(I271
I22
F-0.25
g466
tp652
a(I272
I2
F0.75
g92
tp653
a(I303
I0
F-0.375
g469
tp654
a(I303
I0
F-0.25
g471
tp655
a(I325
I1
I0
g108
tp656
a(I374
I5
F-0.5
g114
tp657
as(S'called'
p658
S'tracfone'
p659
tp660
(lp661
(I60
I1
F0.625
S'hold'
p662
tp663
a(I81
I1
I0
S'old'
p664
tp665
a(I81
I1
F0.375
S'new'
p666
tp667
a(I84
I1
F-0.625
S'other'
p668
tp669
as(S'year'
p670
S'of'
p671
S'service'
p672
tp673
(lp674
(I157
I0
F0.375
g284
tp675
a(I157
I0
F-0.125
S'mine'
p676
tp677
a(I334
I5
I0
g298
tp678
a(I405
I20
F0.5
S'second'
p679
tp680
as(S'with'
p681
S'triple'
p682
S'minutes'
p683
tp684
(lp685
(I8
I0
F0.375
g6
tp686
a(I11
I1
F-0.375
g8
tp687
a(I38
I2
F0.875
g10
tp688
a(I78
I7
I0
g20
tp689
a(I90
I2
F-0.5
g22
tp690
a(I101
I14
F-0.375
g24
tp691
a(I106
I0
I0
g26
tp692
a(I126
I1
F-0.375
g34
tp693
a(I137
I6
F-0.25
g36
tp694
a(I140
I0
F-0.625
g38
tp695
a(I141
I0
F-0.25
g40
tp696
a(I157
I0
F0.375
g44
tp697
a(I157
I0
F0.375
g46
tp698
a(I158
I17
F0.375
g48
tp699
a(I191
I6
F-0.25
g52
tp700
a(I192
I3
I0
g58
tp701
a(I203
I0
F-0.25
g62
tp702
a(I218
I5
F-0.375
g68
tp703
a(I246
I6
F-0.375
g82
tp704
a(I246
I6
F-0.25
g84
tp705
a(I297
I15
F-0.375
g98
tp706
a(I297
I15
I0
g100
tp707
a(I303
I5
F-0.25
g102
tp708
a(I303
I7
F-0.375
g104
tp709
a(I325
I1
I0
g108
tp710
a(I362
I39
F0.375
g110
tp711
a(I368
I6
I0
g112
tp712
a(I403
I3
I0
g120
tp713
a(I403
I3
F-0.25
g122
tp714
as(S'card'
p715
tp716
(lp717
(I15
I3
F0.375
S'extra'
p718
tp719
a(I56
I2
F0.625
S'easier'
p720
tp721
a(I70
I20
I0
S'exact'
p722
tp723
a(I70
I20
F0.875
S'nice'
p724
tp725
a(I88
I17
F1.0
S'best'
p726
tp727
a(I118
I0
F0.625
S'easy'
p728
tp729
a(I126
I7
F0.75
S'worth'
p730
tp731
a(I146
I12
F0.25
S'larger'
p732
tp733
a(I169
I2
I0
S'old'
p734
tp735
a(I221
I16
I0
S'earlier'
p736
tp737
a(I258
I2
F-0.5
S'less'
p738
tp739
a(I266
I66
I0
S'sd'
p740
tp741
a(I266
I77
F-0.25
S'lower'
p742
tp743
a(I269
I12
I0
S'cable'
p744
tp745
a(I289
I2
I0
S'least'
p746
tp747
a(I388
I10
F-0.625
S'useless'
p748
tp749
as(S'customer'
p750
S'service'
p751
tp752
(lp753
(I30
I0
F-0.875
S'worst'
p754
tp755
a(I61
I3
F-0.5
S'poor'
p756
tp757
a(I80
I0
F0.625
g482
tp758
a(I81
I1
I0
g484
tp759
a(I101
I6
F-0.75
S'unable'
p760
tp761
a(I114
I1
F0.375
g488
tp762
a(I119
I4
I0
g490
tp763
a(I314
I5
I0
g494
tp764
a(I324
I1
F-0.875
S'awful'
p765
tp766
a(I385
I7
F0.625
g496
tp767
as(S'ir'
p768
S'customer'
p769
S'service'
p770
tp771
(lp772
(I30
I0
F-0.875
g754
tp773
a(I385
I7
F0.625
g496
tp774
as(S'10'
p775
S'minutes'
p776
tp777
(lp778
(I1
I5
I0
S'active'
p779
tp780
a(I9
I3
F-0.5
S'less'
p781
tp782
a(I25
I9
F0.625
S'hold'
p783
tp784
a(I38
I2
F0.875
g10
tp785
a(I49
I4
F0.375
S'extra'
p786
tp787
a(I51
I4
F-0.25
g323
tp788
a(I51
I4
F-0.375
g325
tp789
a(I79
I1
I0
S'more'
p790
tp791
a(I79
I1
I0
S'more'
p792
tp793
a(I84
I2
F-0.5
S'less'
p794
tp795
a(I140
I0
F-0.625
g38
tp796
a(I198
I8
F0.25
S'original'
p797
tp798
a(I198
I8
I0
S'many'
p799
tp800
a(I218
I8
F0.75
S'receive'
p801
tp802
a(I245
I1
I0
S'least'
p803
tp804
a(I281
I1
F-0.5
S'less'
p805
tp806
a(I303
I5
F-0.25
g102
tp807
a(I303
I7
F-0.375
g104
tp808
a(I352
I5
F0.625
S'correct'
p809
tp810
a(I375
I0
F0.125
S'last'
p811
tp812
as(S'cost'
p813
tp814
(lp815
(I11
I11
F0.375
S'conscious'
p816
tp817
a(I58
I0
F-0.25
S'low'
p818
tp819
a(I113
I2
F-0.375
S'yearly'
p820
tp821
a(I152
I7
F-0.5
S'less'
p822
tp823
a(I160
I2
F0.375
S'much'
p824
tp825
a(I266
I93
I0
S'efficient'
p826
tp827
a(I327
I4
I0
S'more'
p828
tp829
a(I344
I0
F-0.25
S'low'
p830
tp831
a(I344
I30
F-0.25
S'lowest'
p832
tp833
a(I344
I30
F0.5
S'possible'
p834
tp835
a(I387
I23
F0.5
S'comparable'
p836
tp837
as(S'problem'
p838
tp839
(lp840
(I47
I8
I0
S'only'
p841
tp842
a(I101
I13
I0
S'same'
p843
tp844
a(I267
I9
F-0.5
S'staggering'
p845
tp846
a(I300
I4
F0.125
S'first'
p847
tp848
a(I336
I1
I0
S'only'
p849
tp850
a(I362
I25
F0.5
S'whole'
p851
tp852
a(I392
I10
F-0.375
S'small'
p853
tp854
as(S'memory'
p855
S'card'
p856
tp857
(lp858
(I56
I2
F0.625
g720
tp859
a(I126
I7
F0.75
g730
tp860
a(I152
I5
F-0.375
S'smallest'
p861
tp862
a(I266
I66
I0
g740
tp863
a(I266
I77
F-0.25
g742
tp864
a(I269
I12
I0
g744
tp865
as(S'text'
p866
tp867
(lp868
(I64
I9
I0
S'big'
p869
tp870
a(I101
I3
F0.25
S'duplicate'
p871
tp872
a(I101
I12
I0
S'same'
p873
tp874
a(I362
I0
F0.625
S'easy'
p875
tp876
a(I362
I24
I0
S'particular'
p877
tp878
as(S'price'
p879
tp880
(lp881
(I11
I0
I0
S'great'
p882
tp883
a(I21
I0
F1.0
S'good'
p884
tp885
a(I43
I6
I0
S'great'
p886
tp887
a(I52
I0
I0
S'great'
p888
tp889
a(I109
I3
F1.0
S'good'
p890
tp891
a(I125
I8
F-0.25
S'higher'
p892
tp893
a(I135
I7
F-0.25
S'cheaper'
p894
tp895
a(I168
I2
F0.5
S'reasonable'
p896
tp897
a(I176
I2
F0.75
S'worth'
p898
tp899
a(I182
I6
F1.0
S'best'
p900
tp901
a(I203
I0
F1.0
S'good'
p902
tp903
a(I210
I0
F1.0
S'good'
p904
tp905
a(I217
I1
I0
S'same'
p906
tp907
a(I218
I10
I0
S'same'
p908
tp909
a(I223
I1
F0.5
S'reasonable'
p910
tp911
a(I235
I3
F0.625
S'aware'
p912
tp913
a(I266
I31
I0
S'current'
p914
tp915
a(I274
I0
I0
S'great'
p916
tp917
a(I281
I7
F0.5
S'reasonable'
p918
tp919
a(I294
I4
F0.125
S'last'
p920
tp921
a(I294
I4
I0
S'least'
p922
tp923
a(I294
I4
F-0.25
S'cheaper'
p924
tp925
a(I302
I0
F1.0
S'good'
p926
tp927
a(I302
I0
I0
S'many'
p928
tp929
a(I305
I9
I0
S'same'
p930
tp931
a(I308
I2
F1.0
S'best'
p932
tp933
a(I308
I2
F1.0
S'best'
p934
tp935
a(I323
I0
I0
S'great'
p936
tp937
a(I328
I4
F1.0
S'good'
p938
tp939
a(I329
I6
F-0.75
S'wrong'
p940
tp941
a(I347
I2
I0
S'high'
p942
tp943
a(I349
I1
F-0.25
S'higher'
p944
tp945
a(I353
I2
F1.0
S'best'
p946
tp947
a(I357
I2
F1.0
S'good'
p948
tp949
a(I392
I1
I0
S'normal'
p950
tp951
as(S'service'
p952
tp953
(lp954
(I9
I1
F1.0
S'good'
p955
tp956
a(I12
I7
F0.375
S'new'
p957
tp958
a(I14
I3
I0
S'great'
p959
tp960
a(I25
I10
F-0.625
S'sporadic'
p961
tp962
a(I30
I0
F-0.875
g754
tp963
a(I47
I1
F-0.625
S'other'
p964
tp965
a(I61
I3
F-0.5
g756
tp966
a(I63
I0
I0
S'fast'
p967
tp968
a(I78
I12
F0.125
S'usual'
p969
tp970
a(I80
I13
I0
S'different'
p971
tp972
a(I88
I18
F1.0
S'good'
p973
tp974
a(I101
I6
F-0.75
g760
tp975
a(I105
I2
F0.5
S'expensive'
p976
tp977
a(I132
I5
F1.0
S'good'
p978
tp979
a(I132
I5
F0.5
S'personal'
p980
tp981
a(I157
I0
F-0.125
g676
tp982
a(I160
I6
I0
S'next'
p983
tp984
a(I160
I6
F0.375
S'available'
p985
tp986
a(I189
I3
F1.0
S'good'
p987
tp988
a(I219
I6
I0
S'more'
p989
tp990
a(I220
I0
F0.875
S'happy'
p991
tp992
a(I247
I16
I0
S'such'
p993
tp994
a(I247
I16
F1.0
S'good'
p995
tp996
a(I263
I1
F1.0
S'good'
p997
tp998
a(I287
I44
F1.0
S'better'
p999
tp1000
a(I323
I1
F0.375
S'reliable'
p1001
tp1002
a(I324
I1
F-0.875
g765
tp1003
a(I392
I6
I0
S'great'
p1004
tp1005
a(I399
I2
I0
S'site'
p1006
tp1007
a(I400
I3
F1.0
S'good'
p1008
tp1009
a(I405
I11
F-0.25
S'inexpensive'
p1010
tp1011
as(S'400'
p1012
S'minute'
p1013
S'card'
p1014
tp1015
(lp1016
(I289
I2
I0
g746
tp1017
as(g398
S'one'
p1018
S'year'
p1019
tp1020
(lp1021
(I0
I1
F0.125
g264
tp1022
a(I6
I7
I0
g266
tp1023
a(I51
I5
F-0.25
g268
tp1024
a(I51
I5
I0
g270
tp1025
a(I91
I0
I0
g272
tp1026
a(I106
I0
F-0.25
g274
tp1027
a(I106
I0
I0
g276
tp1028
a(I137
I8
I0
g278
tp1029
a(I146
I0
I0
g280
tp1030
a(I147
I0
F-0.25
g282
tp1031
a(I157
I0
F0.375
g284
tp1032
a(I162
I0
I0
g286
tp1033
a(I162
I0
I0
g288
tp1034
a(I171
I0
I0
g290
tp1035
a(I245
I9
I0
g292
tp1036
a(I266
I4
I0
g294
tp1037
a(I300
I2
I0
g296
tp1038
a(I334
I5
I0
g298
tp1039
a(I375
I0
F-0.5
g300
tp1040
a(I381
I0
I0
g302
tp1041
a(I403
I4
F0.125
g304
tp1042
a(I404
I1
I0
g306
tp1043
a(I405
I18
F0.5
g308
tp1044
a(I405
I19
F0.5
g310
tp1045
a(I408
I1
F0.125
g312
tp1046
a(I408
I1
I0
g314
tp1047
as(S'number'
p1048
tp1049
(lp1050
(I6
I7
I0
S'old'
p1051
tp1052
a(I8
I0
I0
g592
tp1053
a(I12
I0
I0
S'dial'
p1054
tp1055
a(I29
I3
F-0.75
g597
tp1056
a(I47
I3
I0
S'serial'
p1057
tp1058
a(I49
I0
I0
S'quick'
p1059
tp1060
a(I49
I0
F0.625
S'easy'
p1061
tp1062
a(I60
I7
I0
g601
tp1063
a(I70
I18
I0
S'old'
p1064
tp1065
a(I76
I3
I0
g606
tp1066
a(I81
I13
I0
S'dial'
p1067
tp1068
a(I105
I1
I0
g610
tp1069
a(I113
I3
I0
g612
tp1070
a(I142
I2
F0.375
S'new'
p1071
tp1072
a(I157
I0
I0
g616
tp1073
a(I182
I4
I0
g618
tp1074
a(I211
I6
F0.5
S'odd'
p1075
tp1076
a(I226
I4
I0
S'old'
p1077
tp1078
a(I229
I3
I0
S'own'
p1079
tp1080
a(I233
I6
I0
S'serial'
p1081
tp1082
a(I233
I7
I0
S's/n'
p1083
tp1084
a(I233
I7
I0
S'serial'
p1085
tp1086
a(I266
I6
I0
g631
tp1087
a(I266
I9
I0
S'serial'
p1088
tp1089
a(I266
I10
I0
S'serial'
p1090
tp1091
a(I271
I9
I0
S'website'
p1092
tp1093
a(I271
I9
I0
S'old'
p1094
tp1095
a(I271
I9
F0.375
S'new'
p1096
tp1097
a(I298
I10
I0
S'write'
p1098
tp1099
a(I298
I14
F0.375
S'new'
p1100
tp1101
a(I314
I2
F0.375
S'new'
p1102
tp1103
a(I349
I6
I0
S'serial'
p1104
tp1105
a(I359
I3
F0.125
S'last'
p1106
tp1107
a(I370
I1
I0
S'serial'
p1108
tp1109
a(I394
I2
I0
S'old'
p1110
tp1111
a(I395
I0
F0.125
S'able'
p1112
tp1113
a(I398
I4
I0
g635
tp1114
a(I406
I3
I0
S'serial'
p1115
tp1116
as(S'need'
p1117
tp1118
(lp1119
(I158
I8
F0.125
S'able'
p1120
tp1121
as(S'memory'
p1122
tp1123
(lp1124
(I47
I2
I0
S'external'
p1125
tp1126
a(I152
I5
F-0.375
g861
tp1127
a(I266
I62
I0
S'internal'
p1128
tp1129
a(I266
I63
I0
S'internal'
p1130
tp1131
a(I266
I65
I0
S'internal'
p1132
tp1133
a(I266
I82
I0
S'external'
p1134
tp1135
a(I266
I82
I0
S'external'
p1136
tp1137
a(I266
I82
I0
S'internal'
p1138
tp1139
a(I266
I83
I0
S'external'
p1140
tp1141
as(S'make'
p1142
g398
S'call'
p1143
tp1144
(lp1145
(I51
I7
F0.625
S'necessary'
p1146
tp1147
a(I68
I3
F-0.375
S'small'
p1148
tp1149
a(I68
I3
F-0.375
S'simple'
p1150
tp1151
a(I390
I1
I0
S'limited'
p1152
tp1153
a(I390
I1
I0
S'local'
p1154
tp1155
a(I390
I1
F-0.5
S'international'
p1156
tp1157
as(S'right'
p1158
tp1159
(lp1160
(I113
I12
F0.5
S'success'
p1161
tp1162
a(I172
I1
F0.5
S'touch'
p1163
tp1164
a(I298
I10
F-0.375
S'top'
p1165
tp1166
as(S'tracfone'
p1167
tp1168
(lp1169
(I1
I0
I0
S'third'
p1170
tp1171
a(I6
I11
I0
S'website'
p1172
tp1173
a(I6
I12
I0
S'enter'
p1174
tp1175
a(I10
I0
I0
S'old'
p1176
tp1177
a(I30
I2
I0
S'latest'
p1178
tp1179
a(I31
I3
I0
S'old'
p1180
tp1181
a(I37
I27
I0
S'interactive'
p1182
tp1183
a(I37
I27
I0
S'tutorial'
p1184
tp1185
a(I49
I0
I0
S'old'
p1186
tp1187
a(I49
I1
I0
S'old'
p1188
tp1189
a(I49
I1
F0.375
S'new'
p1190
tp1191
a(I51
I2
I0
S'old'
p1192
tp1193
a(I51
I2
I0
S'website'
p1194
tp1195
a(I60
I1
F0.625
g662
tp1196
a(I60
I12
F-0.375
S'simple'
p1197
tp1198
a(I71
I1
F1.0
S'best'
p1199
tp1200
a(I76
I1
I0
S'old'
p1201
tp1202
a(I76
I1
F0.375
S'new'
p1203
tp1204
a(I76
I3
I0
S'old'
p1205
tp1206
a(I76
I3
F0.375
S'new'
p1207
tp1208
a(I76
I5
F0.375
S'new'
p1209
tp1210
a(I79
I17
I0
S'website'
p1211
tp1212
a(I80
I1
F0.375
S'new'
p1213
tp1214
a(I81
I1
I0
g664
tp1215
a(I81
I1
F0.375
g666
tp1216
a(I84
I1
F-0.625
g668
tp1217
a(I117
I5
I0
S'old'
p1218
tp1219
a(I121
I0
I0
S'old'
p1220
tp1221
a(I124
I0
F0.375
S'new'
p1222
tp1223
a(I129
I0
F1.0
S'best'
p1224
tp1225
a(I129
I0
F0.375
S'available'
p1226
tp1227
a(I131
I5
F-0.625
S'other'
p1228
tp1229
a(I134
I0
F-0.625
S'other'
p1230
tp1231
a(I135
I4
F1.0
S'best'
p1232
tp1233
a(I142
I1
I0
S'old'
p1234
tp1235
a(I158
I11
I0
S'website'
p1236
tp1237
a(I166
I4
F0.375
S'similar'
p1238
tp1239
a(I185
I8
I0
S'old'
p1240
tp1241
a(I185
I8
F0.375
S'new'
p1242
tp1243
a(I191
I10
I0
S'website'
p1244
tp1245
a(I195
I1
F1.0
S'best'
p1246
tp1247
a(I197
I4
F0.125
S'last'
p1248
tp1249
a(I200
I0
F1.0
S'best'
p1250
tp1251
a(I206
I0
F0.875
S'happy'
p1252
tp1253
a(I216
I1
I0
S'such'
p1254
tp1255
a(I216
I1
I0
S'great'
p1256
tp1257
a(I227
I4
F-0.5
S'call'
p1258
tp1259
a(I228
I0
I0
S'very'
p1260
tp1261
a(I246
I6
I0
S'on-line'
p1262
tp1263
a(I247
I15
F1.0
S'best'
p1264
tp1265
a(I249
I0
F0.875
S'happy'
p1266
tp1267
a(I249
I0
F0.375
S'new'
p1268
tp1269
a(I251
I10
I0
S'website'
p1270
tp1271
a(I251
I19
I0
S'old'
p1272
tp1273
a(I270
I2
I0
S'old'
p1274
tp1275
a(I270
I2
F-0.375
S'simple'
p1276
tp1277
a(I277
I3
F-0.5
S'less'
p1278
tp1279
a(I291
I2
I0
S'great'
p1280
tp1281
a(I297
I14
I0
S'old'
p1282
tp1283
a(I297
I28
I0
S'great'
p1284
tp1285
a(I318
I1
F-0.75
S'unable'
p1286
tp1287
a(I344
I0
I0
S'older'
p1288
tp1289
a(I344
I0
I0
S'basic'
p1290
tp1291
a(I344
I3
F0.25
S'familiar'
p1292
tp1293
a(I344
I19
I0
S'older'
p1294
tp1295
a(I347
I0
F0.5
S'second'
p1296
tp1297
a(I348
I1
F0.125
S'last'
p1298
tp1299
a(I350
I5
F0.375
S'new'
p1300
tp1301
a(I362
I27
F-0.125
S'mine'
p1302
tp1303
a(I367
I0
I0
S'old'
p1304
tp1305
a(I368
I9
I0
S'website'
p1306
tp1307
a(I385
I0
I0
S'third'
p1308
tp1309
a(I385
I14
F-0.625
S'other'
p1310
tp1311
a(I392
I4
F0.5
S'second'
p1312
tp1313
a(I393
I10
I0
S'net'
p1314
tp1315
a(I403
I2
F1.0
S'good'
p1316
tp1317
a(I405
I11
I0
S'general'
p1318
tp1319
a(I408
I0
F0.5
S'second'
p1320
tp1321
as(S'features'
p1322
tp1323
(lp1324
(I6
I20
F0.5
S'expensive'
p1325
tp1326
a(I11
I10
I0
S'many'
p1327
tp1328
a(I11
I10
F-0.625
S'other'
p1329
tp1330
a(I11
I10
I0
S'great'
p1331
tp1332
a(I38
I2
I0
S'many'
p1333
tp1334
a(I38
I2
I0
S'more'
p1335
tp1336
a(I72
I4
I0
S'few'
p1337
tp1338
a(I72
I4
F-0.625
S'other'
p1339
tp1340
a(I72
I5
I0
S'more'
p1341
tp1342
a(I76
I7
F0.625
S'easy'
p1343
tp1344
a(I93
I1
I0
S'many'
p1345
tp1346
a(I117
I6
F1.0
S'better'
p1347
tp1348
a(I123
I3
I0
S'useful'
p1349
tp1350
a(I123
I3
F0.375
S'new'
p1351
tp1352
a(I123
I3
I0
S'such'
p1353
tp1354
a(I131
I5
I0
S'many'
p1355
tp1356
a(I131
I5
F1.0
S'good'
p1357
tp1358
a(I131
I5
F0.625
S'easy'
p1359
tp1360
a(I132
I0
F0.875
S'nice'
p1361
tp1362
a(I141
I1
I0
S'more'
p1363
tp1364
a(I160
I4
I0
S'more'
p1365
tp1366
a(I160
I4
F0.625
S'easier'
p1367
tp1368
a(I162
I0
F1.0
S'better'
p1369
tp1370
a(I162
I0
F0.625
S'easier'
p1371
tp1372
a(I191
I33
F-0.625
S'other'
p1373
tp1374
a(I209
I3
I0
S'more'
p1375
tp1376
a(I238
I5
I0
S'great'
p1377
tp1378
a(I246
I10
F0.875
S'nice'
p1379
tp1380
a(I257
I1
F-0.125
S'overall'
p1381
tp1382
a(I275
I1
F1.0
S'good'
p1383
tp1384
a(I278
I0
I0
S'basic'
p1385
tp1386
a(I286
I0
F1.0
S'good'
p1387
tp1388
a(I287
I2
I0
S'many'
p1389
tp1390
a(I297
I21
I0
S'great'
p1391
tp1392
a(I302
I0
F0.875
S'nice'
p1393
tp1394
a(I303
I9
I0
S'many'
p1395
tp1396
a(I321
I0
F0.875
S'nice'
p1397
tp1398
a(I322
I1
I0
S'latest'
p1399
tp1400
a(I327
I8
I0
S'many'
p1401
tp1402
a(I333
I0
I0
S'many'
p1403
tp1404
a(I359
I10
F0.875
S'important'
p1405
tp1406
a(I385
I2
I0
S'few'
p1407
tp1408
a(I387
I24
I0
S'many'
p1409
tp1410
a(I387
I24
F-0.5
S'weak'
p1411
tp1412
a(I406
I8
F0.875
S'nice'
p1413
tp1414
as(g398
S'long'
p1415
S'time'
p1416
tp1417
(lp1418
(I16
I0
F-0.5
S'long'
p1419
tp1420
a(I46
I1
F-0.5
S'long'
p1421
tp1422
a(I80
I10
F-0.5
S'long'
p1423
tp1424
a(I109
I0
F0.5
S'clear'
p1425
tp1426
a(I238
I5
F-0.5
S'long'
p1427
tp1428
a(I257
I6
F-0.5
S'long'
p1429
tp1430
a(I297
I10
F-0.5
S'long'
p1431
tp1432
as(S'month'
p1433
tp1434
(lp1435
(I43
I1
F0.625
S'easy'
p1436
tp1437
a(I96
I5
I0
S'great'
p1438
tp1439
a(I163
I0
F-0.5
S'less'
p1440
tp1441
a(I245
I1
F-0.625
S'average'
p1442
tp1443
a(I392
I6
F-0.5
S'less'
p1444
tp1445
a(I392
I7
I0
S'big'
p1446
tp1447
as(S'voice'
p1448
tp1449
(lp1450
(I29
I1
F-0.5
S'unwanted'
p1451
tp1452
a(I29
I3
F0.5
S'rid'
p1453
tp1454
a(I29
I3
F0.375
S'new'
p1455
tp1456
a(I80
I8
F-0.25
S'unaware'
p1457
tp1458
a(I127
I2
F1.0
S'best'
p1459
tp1460
a(I149
I10
F0.5
S'clear'
p1461
tp1462
a(I163
I9
F-0.5
S'answer'
p1463
tp1464
a(I326
I0
F0.5
S'clear'
p1465
tp1466
as(S'one'
p1467
S'year'
p1468
S'card'
p1469
tp1470
(lp1471
(I70
I20
I0
g722
tp1472
a(I70
I20
F0.875
g724
tp1473
a(I88
I17
F1.0
g726
tp1474
a(I147
I0
F-0.25
g282
tp1475
a(I169
I2
I0
g734
tp1476
a(I258
I2
F-0.5
g738
tp1477
a(I300
I2
I0
g296
tp1478
a(I408
I1
F0.125
g312
tp1479
a(I408
I1
I0
g314
tp1480
as(S'lg800g'
p1481
tp1482
(lp1483
(I41
I4
F0.375
S'much'
p1484
tp1485
a(I41
I4
F0.625
S'easy'
p1486
tp1487
a(I76
I12
F0.875
S'happy'
p1488
tp1489
a(I82
I0
F0.5
S'second'
p1490
tp1491
a(I103
I1
F0.375
S'new'
p1492
tp1493
a(I139
I10
I0
S'great'
p1494
tp1495
a(I157
I0
F0.375
S'new'
p1496
tp1497
a(I157
I0
F0.375
S'new'
p1498
tp1499
a(I158
I7
F0.875
S'nice'
p1500
tp1501
a(I192
I3
F-0.5
S'sure'
p1502
tp1503
a(I199
I0
I0
S'adequate'
p1504
tp1505
a(I269
I15
F0.375
S'new'
p1506
tp1507
a(I271
I8
F0.375
S'new'
p1508
tp1509
a(I305
I5
F-0.625
S'light'
p1510
tp1511
a(I327
I0
F0.125
S'first'
p1512
tp1513
a(I327
I0
F0.125
S'last'
p1514
tp1515
a(I327
I10
I0
S'more'
p1516
tp1517
a(I344
I1
F0.125
S'first'
p1518
tp1519
a(I406
I13
F0.875
S'nice'
p1520
tp1521
a(I406
I13
I0
S'tutorial'
p1522
tp1523
as(S'area'
p1524
tp1525
(lp1526
(I58
I1
F1.0
S'good'
p1527
tp1528
a(I61
I4
I0
S'rural'
p1529
tp1530
a(I78
I11
F-0.75
S'wrong'
p1531
tp1532
a(I88
I17
I0
S'rural'
p1533
tp1534
a(I88
I18
F-0.5
S'sure'
p1535
tp1536
a(I98
I8
I0
S'great'
p1537
tp1538
a(I101
I3
F1.0
S'best'
p1539
tp1540
a(I101
I11
F1.0
S'best'
p1541
tp1542
a(I107
I3
F0.375
S'new'
p1543
tp1544
a(I107
I7
F-0.5
S'sure'
p1545
tp1546
a(I191
I27
I0
S'same'
p1547
tp1548
a(I218
I19
I0
S'rural'
p1549
tp1550
a(I307
I1
F-0.5
S'less'
p1551
tp1552
a(I339
I0
F0.375
S'available'
p1553
tp1554
as(S'year'
p1555
S'service'
p1556
tp1557
(lp1558
(I157
I0
F0.375
g284
tp1559
a(I157
I0
F-0.125
g676
tp1560
a(I219
I6
I0
g989
tp1561
a(I220
I0
F0.875
g991
tp1562
a(I263
I1
F1.0
g997
tp1563
a(I334
I5
I0
g298
tp1564
a(I353
I2
I0
S'entire'
p1565
tp1566
a(I353
I2
I0
S'next'
p1567
tp1568
a(I403
I4
F0.125
g304
tp1569
a(I405
I20
F0.5
g679
tp1570
as(g398
S'promo'
p1571
S'code'
p1572
tp1573
(lp1574
(I6
I12
F0.125
S'first'
p1575
tp1576
a(I6
I12
I0
S'enter'
p1577
tp1578
a(I114
I1
I0
S'more'
p1579
tp1580
a(I158
I16
I0
S'special'
p1581
tp1582
a(I251
I1
I0
S'promotional'
p1583
tp1584
a(I408
I2
F0.625
S'add'
p1585
tp1586
as(S'fine'
p1587
tp1588
(lp1589
(I197
I4
F1.0
S'better'
p1590
tp1591
a(I236
I1
F0.5
S'clear'
p1592
tp1593
as(S'minute'
p1594
tp1595
(lp1596
(I78
I4
F-0.375
g453
tp1597
a(I80
I10
F-0.125
S'minimum'
p1598
tp1599
a(I107
I9
F-0.625
S'free'
p1600
tp1601
a(I143
I5
F0.5
S'clear'
p1602
tp1603
a(I147
I0
I0
S'old'
p1604
tp1605
a(I147
I0
F-0.375
S'double'
p1606
tp1607
a(I251
I9
F-0.375
g463
tp1608
a(I271
I22
F-0.25
g466
tp1609
a(I303
I0
F-0.375
g469
tp1610
a(I303
I0
F-0.25
g471
tp1611
a(I335
I4
F0.875
S'nice'
p1612
tp1613
a(I390
I7
F0.125
S'first'
p1614
tp1615
a(I390
I7
I0
S'dial'
p1616
tp1617
a(I405
I0
F-0.375
S'double'
p1618
tp1619
as(S'1'
p1620
S'year'
p1621
tp1622
(lp1623
(I137
I8
I0
g278
tp1624
a(I146
I4
F1.0
S'good'
p1625
tp1626
a(I150
I0
I0
S'old'
p1627
tp1628
a(I157
I0
F0.375
g284
tp1629
a(I245
I9
I0
g292
tp1630
a(I300
I2
I0
g296
tp1631
a(I353
I2
I0
g1565
tp1632
a(I353
I2
I0
g1567
tp1633
a(I375
I0
F-0.5
g300
tp1634
a(I381
I0
I0
g302
tp1635
a(I403
I4
F0.125
g304
tp1636
a(I405
I19
F0.5
g310
tp1637
a(I408
I1
F0.125
g312
tp1638
a(I408
I1
I0
g314
tp1639
as(S'bonus'
p1640
tp1641
(lp1642
(I212
I7
F0.875
S'nice'
p1643
tp1644
a(I217
I2
F0.75
S'definite'
p1645
tp1646
a(I297
I27
I0
S'few'
p1647
tp1648
a(I323
I1
I0
S'great'
p1649
tp1650
as(S'online'
p1651
tp1652
(lp1653
(I183
I1
F0.625
S'easy'
p1654
tp1655
a(I211
I4
I0
S'only'
p1656
tp1657
a(I211
I4
F-0.375
S'authorized'
p1658
tp1659
a(I366
I3
F0.125
S'last'
p1660
tp1661
a(I385
I8
I0
S'large'
p1662
tp1663
a(I387
I16
F0.625
S'easy'
p1664
tp1665
as(S'better'
p1666
tp1667
(lp1668
(I11
I10
F0.375
S'much'
p1669
tp1670
a(I152
I11
F0.375
S'much'
p1671
tp1672
a(I195
I2
I0
S'only'
p1673
tp1674
a(I303
I5
F0.375
S'much'
p1675
tp1676
a(I334
I15
F0.375
S'much'
p1677
tp1678
a(I400
I1
F0.375
S'much'
p1679
tp1680
a(I400
I8
F0.375
S'much'
p1681
tp1682
a(I403
I2
F0.375
S'much'
p1683
tp1684
as(S'work'
p1685
tp1686
(lp1687
(I214
I0
F-0.625
S'other'
p1688
tp1689
as(g1620
S'year'
p1690
S'service'
p1691
tp1692
(lp1693
(I157
I0
F0.375
g284
tp1694
a(I157
I0
F-0.125
g676
tp1695
a(I353
I2
I0
g1565
tp1696
a(I353
I2
I0
g1567
tp1697
a(I403
I4
F0.125
g304
tp1698
as(S'n'
p1699
S'r'
p1700
S'area'
p1701
tp1702
(lp1703
(I61
I4
I0
g1529
tp1704
a(I78
I11
F-0.75
g1531
tp1705
a(I88
I17
I0
g1533
tp1706
a(I88
I18
F-0.5
g1535
tp1707
a(I98
I8
I0
g1537
tp1708
a(I101
I3
F1.0
g1539
tp1709
a(I101
I11
F1.0
g1541
tp1710
a(I107
I3
F0.375
g1543
tp1711
a(I107
I7
F-0.5
g1545
tp1712
a(I191
I27
I0
g1547
tp1713
a(I218
I19
I0
g1549
tp1714
a(I307
I1
F-0.5
g1551
tp1715
a(I339
I0
F0.375
g1553
tp1716
as(S'minutes'
p1717
tp1718
(lp1719
(I0
I1
F-0.625
S'generous'
p1720
tp1721
a(I1
I5
I0
g779
tp1722
a(I6
I4
I0
S'few'
p1723
tp1724
a(I8
I0
F0.375
g6
tp1725
a(I9
I0
I0
S'few'
p1726
tp1727
a(I9
I3
F-0.5
g781
tp1728
a(I11
I1
F-0.375
g8
tp1729
a(I15
I7
I0
S'included'
p1730
tp1731
a(I16
I2
I0
g595
tp1732
a(I25
I9
F0.625
g783
tp1733
a(I37
I27
I0
S'more'
p1734
tp1735
a(I38
I2
F0.875
g10
tp1736
a(I41
I9
I0
g12
tp1737
a(I47
I11
F1.0
S'better'
p1738
tp1739
a(I49
I2
I0
g345
tp1740
a(I49
I2
F0.625
g347
tp1741
a(I49
I4
F0.375
g786
tp1742
a(I49
I5
F-0.5
S'less'
p1743
tp1744
a(I49
I6
F-0.5
S'less'
p1745
tp1746
a(I51
I4
F-0.25
g323
tp1747
a(I51
I4
F-0.375
g325
tp1748
a(I58
I2
F-0.5
S'less'
p1749
tp1750
a(I59
I2
F-0.375
g358
tp1751
a(I59
I2
F0.375
g360
tp1752
a(I59
I5
F-0.75
S'lost'
p1753
tp1754
a(I59
I6
I0
g327
tp1755
a(I60
I4
F0.625
g599
tp1756
a(I62
I6
F0.375
S'extra'
p1757
tp1758
a(I62
I9
F0.375
S'extra'
p1759
tp1760
a(I64
I1
I0
S'same'
p1761
tp1762
a(I76
I1
F0.125
g603
tp1763
a(I76
I3
F0.5
g18
tp1764
a(I76
I6
F-0.625
S'free'
p1765
tp1766
a(I79
I1
I0
g790
tp1767
a(I79
I1
I0
g792
tp1768
a(I79
I9
F0.375
S'extra'
p1769
tp1770
a(I79
I9
F-0.625
S'free'
p1771
tp1772
a(I80
I10
F0.625
S'add'
p1773
tp1774
a(I84
I2
F-0.5
g794
tp1775
a(I90
I2
F-0.5
g22
tp1776
a(I92
I2
I0
g608
tp1777
a(I101
I14
F-0.375
g24
tp1778
a(I101
I17
F0.75
S'receive'
p1779
tp1780
a(I106
I0
I0
g26
tp1781
a(I107
I9
I0
S'many'
p1782
tp1783
a(I113
I6
I0
g28
tp1784
a(I121
I0
I0
S'great'
p1785
tp1786
a(I123
I1
F0.125
g30
tp1787
a(I126
I1
F-0.375
g34
tp1788
a(I135
I0
F0.375
g330
tp1789
a(I137
I6
F-0.25
g36
tp1790
a(I140
I0
F-0.625
g38
tp1791
a(I141
I0
F-0.25
g40
tp1792
a(I142
I3
F0.375
S'extra'
p1793
tp1794
a(I142
I5
I0
S'old'
p1795
tp1796
a(I145
I3
F0.125
S'able'
p1797
tp1798
a(I146
I5
F-0.5
S'less'
p1799
tp1800
a(I149
I1
F-0.375
g42
tp1801
a(I149
I3
F-0.375
g365
tp1802
a(I149
I6
F-0.375
g367
tp1803
a(I151
I2
I0
S'many'
p1804
tp1805
a(I157
I0
F0.375
g44
tp1806
a(I157
I0
F0.375
g46
tp1807
a(I158
I10
F0.375
S'extra'
p1808
tp1809
a(I158
I13
F-0.625
S'free'
p1810
tp1811
a(I158
I17
F0.375
g48
tp1812
a(I158
I22
F1.0
S'good'
p1813
tp1814
a(I161
I1
I0
S'great'
p1815
tp1816
a(I168
I0
F-0.25
g50
tp1817
a(I188
I1
F0.125
g620
tp1818
a(I191
I1
F-0.375
g369
tp1819
a(I191
I6
F-0.25
g52
tp1820
a(I191
I13
I0
g54
tp1821
a(I192
I3
I0
g58
tp1822
a(I196
I0
F-0.25
g60
tp1823
a(I198
I8
F0.25
g797
tp1824
a(I198
I8
I0
g799
tp1825
a(I203
I0
F-0.25
g62
tp1826
a(I203
I3
I0
S'few'
p1827
tp1828
a(I211
I3
I0
g64
tp1829
a(I211
I8
F-0.375
g371
tp1830
a(I212
I5
F-0.375
g373
tp1831
a(I218
I5
F-0.375
g68
tp1832
a(I218
I8
F0.75
g801
tp1833
a(I218
I10
F-0.375
g376
tp1834
a(I220
I5
I0
S'least'
p1835
tp1836
a(I221
I15
F-0.625
S'free'
p1837
tp1838
a(I225
I0
F-0.375
g378
tp1839
a(I226
I29
F-0.375
g70
tp1840
a(I227
I2
F-0.375
g72
tp1841
a(I227
I2
F-0.375
g74
tp1842
a(I227
I3
F-0.25
g76
tp1843
a(I227
I4
F-0.25
g78
tp1844
a(I227
I4
F-0.25
g80
tp1845
a(I235
I0
I0
S'great'
p1846
tp1847
a(I238
I3
F0.25
g625
tp1848
a(I238
I5
F0.375
S'extra'
p1849
tp1850
a(I240
I0
F0.375
S'extra'
p1851
tp1852
a(I245
I1
I0
g803
tp1853
a(I245
I6
I0
S'more'
p1854
tp1855
a(I245
I10
I0
S'more'
p1856
tp1857
a(I246
I6
F-0.375
g82
tp1858
a(I246
I6
F-0.25
g84
tp1859
a(I247
I7
I0
g627
tp1860
a(I247
I13
F-0.375
g385
tp1861
a(I251
I8
F-0.375
g86
tp1862
a(I251
I14
I0
g88
tp1863
a(I251
I15
I0
S'many'
p1864
tp1865
a(I251
I21
I0
S'few'
p1866
tp1867
a(I251
I21
I0
S'many'
p1868
tp1869
a(I251
I21
I0
S'anymore'
p1870
tp1871
a(I251
I23
I0
g629
tp1872
a(I251
I24
I0
S'anymore'
p1873
tp1874
a(I253
I4
F-0.5
S'sudden'
p1875
tp1876
a(I253
I6
F-0.875
S'negative'
p1877
tp1878
a(I255
I3
F-0.625
S'free'
p1879
tp1880
a(I263
I0
I0
S'closer'
p1881
tp1882
a(I266
I11
I0
S'old'
p1883
tp1884
a(I273
I0
F-0.375
g94
tp1885
a(I281
I1
F-0.5
g805
tp1886
a(I281
I4
I0
S'later'
p1887
tp1888
a(I281
I4
I0
S'residual'
p1889
tp1890
a(I282
I3
F-0.625
S'free'
p1891
tp1892
a(I286
I1
F0.375
g96
tp1893
a(I287
I22
I0
S'many'
p1894
tp1895
a(I288
I2
I0
S'total'
p1896
tp1897
a(I289
I2
F-0.75
g334
tp1898
a(I296
I1
F-0.625
S'sorry'
p1899
tp1900
a(I297
I14
F-0.375
g389
tp1901
a(I297
I15
F-0.375
g98
tp1902
a(I297
I15
I0
g100
tp1903
a(I300
I3
I0
g336
tp1904
a(I303
I5
F-0.25
g102
tp1905
a(I303
I7
F-0.375
g104
tp1906
a(I310
I1
F1.0
S'good'
p1907
tp1908
a(I310
I1
F0.625
S'easy'
p1909
tp1910
a(I313
I2
I0
g106
tp1911
a(I327
I7
F0.5
S'second'
p1912
tp1913
a(I328
I1
F0.5
S'second'
p1914
tp1915
a(I328
I4
F1.0
S'better'
p1916
tp1917
a(I352
I5
F0.625
g809
tp1918
a(I355
I1
F0.375
S'extra'
p1919
tp1920
a(I362
I39
F0.375
g110
tp1921
a(I365
I1
I0
S'many'
p1922
tp1923
a(I368
I6
I0
g112
tp1924
a(I368
I9
F-0.625
S'free'
p1925
tp1926
a(I374
I4
I0
S'more'
p1927
tp1928
a(I374
I4
I0
S'own'
p1929
tp1930
a(I374
I6
F-0.375
g394
tp1931
a(I375
I0
F0.125
g811
tp1932
a(I385
I5
I0
S'great'
p1933
tp1934
a(I387
I6
I0
S'more'
p1935
tp1936
a(I387
I6
F-0.75
S'likely'
p1937
tp1938
a(I387
I16
F-0.5
S'less'
p1939
tp1940
a(I390
I3
I0
S'initial'
p1941
tp1942
a(I398
I1
F-0.375
g116
tp1943
a(I398
I4
F-0.5
g633
tp1944
a(I399
I4
F-0.375
g118
tp1945
a(I403
I3
I0
g120
tp1946
a(I403
I3
F-0.25
g122
tp1947
a(I405
I1
I0
S'faster'
p1948
tp1949
a(I405
I1
F0.125
S'usual'
p1950
tp1951
a(I405
I6
F0.625
S'hold'
p1952
tp1953
as(g398
S'great'
p1954
S'deal'
p1955
tp1956
(lp1957
(I22
I4
I0
S'great'
p1958
tp1959
a(I33
I0
I0
S'great'
p1960
tp1961
a(I35
I1
I0
S'great'
p1962
tp1963
a(I38
I0
I0
S'great'
p1964
tp1965
a(I40
I2
I0
S'great'
p1966
tp1967
a(I46
I8
I0
S'great'
p1968
tp1969
a(I47
I1
I0
S'great'
p1970
tp1971
a(I60
I6
I0
S'great'
p1972
tp1973
a(I64
I0
I0
S'great'
p1974
tp1975
a(I78
I0
I0
S'great'
p1976
tp1977
a(I101
I0
I0
S'great'
p1978
tp1979
a(I108
I0
I0
S'great'
p1980
tp1981
a(I122
I0
I0
S'great'
p1982
tp1983
a(I126
I1
I0
S'great'
p1984
tp1985
a(I135
I6
I0
S'great'
p1986
tp1987
a(I142
I6
I0
S'great'
p1988
tp1989
a(I146
I4
I0
g411
tp1990
a(I169
I3
I0
S'great'
p1991
tp1992
a(I182
I5
I0
S'great'
p1993
tp1994
a(I208
I0
I0
S'great'
p1995
tp1996
a(I235
I3
I0
S'great'
p1997
tp1998
a(I247
I0
I0
S'great'
p1999
tp2000
a(I258
I4
I0
S'great'
p2001
tp2002
a(I260
I0
F1.0
g427
tp2003
a(I308
I0
I0
S'great'
p2004
tp2005
a(I315
I3
I0
S'great'
p2006
tp2007
a(I328
I0
I0
S'great'
p2008
tp2009
a(I344
I29
I0
S'great'
p2010
tp2011
a(I344
I29
F0.875
S'happy'
p2012
tp2013
a(I367
I1
I0
S'great'
p2014
tp2015
a(I385
I14
I0
S'great'
p2016
tp2017
a(I396
I0
I0
S'great'
p2018
tp2019
a(I405
I17
I0
S'great'
p2020
tp2021
as(S'bought'
p2022
tp2023
(lp2024
(I226
I2
F0.5
S'expensive'
p2025
tp2026
a(I226
I2
F0.125
S'first'
p2027
tp2028
as(S'problems'
p2029
tp2030
(lp2031
(I312
I0
F0.125
S'key'
p2032
tp2033
a(I328
I2
I0
S'such'
p2034
tp2035
a(I376
I7
I0
S'same'
p2036
tp2037
as(S'back'
p2038
tp2039
(lp2040
(I376
I8
F-0.125
S'mine'
p2041
tp2042
as(g398
S'touch'
p2043
S'screen'
p2044
tp2045
(lp2046
(I2
I3
F0.25
S'responsive'
p2047
tp2048
a(I2
I3
F0.5
S'touch'
p2049
tp2050
a(I2
I3
F0.625
S'easy'
p2051
tp2052
a(I24
I0
F-0.625
g217
tp2053
a(I79
I11
F0.25
S'bigger'
p2054
tp2055
a(I81
I15
F0.5
S'touch'
p2056
tp2057
a(I89
I2
F0.5
S'touch'
p2058
tp2059
a(I90
I0
F0.5
S'touch'
p2060
tp2061
a(I96
I9
F-0.375
S'top'
p2062
tp2063
a(I103
I0
F0.5
S'touch'
p2064
tp2065
a(I104
I0
F0.5
S'touch'
p2066
tp2067
a(I113
I8
F0.5
S'touch'
p2068
tp2069
a(I139
I11
F0.5
S'touch'
p2070
tp2071
a(I139
I11
F0.125
S'impressive'
p2072
tp2073
a(I139
I13
F0.5
S'touch'
p2074
tp2075
a(I141
I0
F0.5
S'touch'
p2076
tp2077
a(I151
I5
F0.5
S'touch'
p2078
tp2079
a(I155
I1
F0.5
S'touch'
p2080
tp2081
a(I160
I4
F0.5
S'touch'
p2082
tp2083
a(I161
I2
F0.625
S'easy'
p2084
tp2085
a(I171
I1
F0.5
S'touch'
p2086
tp2087
a(I212
I8
F0.5
S'touch'
p2088
tp2089
a(I218
I2
F0.625
g219
tp2090
a(I240
I0
F0.375
g221
tp2091
a(I257
I2
F0.5
S'touch'
p2092
tp2093
a(I261
I1
F0.5
S'touch'
p2094
tp2095
a(I266
I21
F0.25
S'responsive'
p2096
tp2097
a(I274
I0
I0
S'big'
p2098
tp2099
a(I274
I0
F0.5
S'touch'
p2100
tp2101
a(I274
I0
F0.625
S'easy'
p2102
tp2103
a(I278
I1
F0.5
S'touch'
p2104
tp2105
a(I287
I3
F-0.5
g223
tp2106
a(I287
I10
I0
S'soft'
p2107
tp2108
a(I293
I2
F0.5
S'touch'
p2109
tp2110
a(I293
I2
F0.625
S'easy'
p2111
tp2112
a(I307
I3
F0.5
S'touch'
p2113
tp2114
a(I322
I1
I0
g227
tp2115
a(I344
I7
F0.5
S'touch'
p2116
tp2117
a(I351
I0
F0.5
S'touch'
p2118
tp2119
a(I355
I0
F0.5
S'touch'
p2120
tp2121
a(I362
I0
F0.5
S'touch'
p2122
tp2123
a(I362
I25
F0.5
S'touch'
p2124
tp2125
a(I366
I12
F0.5
S'touch'
p2126
tp2127
a(I393
I8
F0.5
S'touch'
p2128
tp2129
a(I398
I5
F0.5
S'touch'
p2130
tp2131
a(I398
I5
F0.25
S'responsive'
p2132
tp2133
as(S'days'
p2134
S'of'
p2135
S'service'
p2136
tp2137
(lp2138
(I157
I0
F-0.125
g676
tp2139
a(I160
I8
F0.375
S'extra'
p2140
tp2141
a(I362
I39
F0.75
S'due'
p2142
tp2143
a(I400
I3
F1.0
g1008
tp2144
as(S'life'
p2145
tp2146
(lp2147
(I6
I2
F0.125
S'renewal'
p2148
tp2149
a(I11
I1
F-0.5
S'less'
p2150
tp2151
a(I23
I2
I0
S'great'
p2152
tp2153
a(I43
I2
F1.0
S'good'
p2154
tp2155
a(I72
I3
I0
S'more'
p2156
tp2157
a(I79
I2
F0.375
S'new'
p2158
tp2159
a(I155
I2
F1.0
S'good'
p2160
tp2161
a(I169
I2
F-0.5
S'less'
p2162
tp2163
a(I178
I0
F1.0
S'good'
p2164
tp2165
a(I200
I5
I0
S'quick'
p2166
tp2167
a(I335
I1
I0
S'least'
p2168
tp2169
a(I343
I0
F1.0
S'good'
p2170
tp2171
a(I396
I0
F-0.5
S'long'
p2172
tp2173
as(S'voice'
p2174
S'mail'
p2175
tp2176
(lp2177
(I29
I3
F0.5
g1453
tp2178
a(I29
I3
F0.375
g1455
tp2179
a(I80
I8
F-0.25
g1457
tp2180
a(I80
I10
F-0.625
S'other'
p2181
tp2182
a(I163
I4
F-0.125
S'delete'
p2183
tp2184
as(S'code'
p2185
tp2186
(lp2187
(I6
I12
F0.125
g1575
tp2188
a(I6
I12
I0
g1577
tp2189
a(I61
I6
F0.5
S'live'
p2190
tp2191
a(I98
I9
I0
S'special'
p2192
tp2193
a(I114
I1
I0
g1579
tp2194
a(I251
I1
I0
g1583
tp2195
a(I362
I12
I0
S'enter'
p2196
tp2197
a(I366
I5
F0.125
S'valid'
p2198
tp2199
as(S'transfer'
p2200
tp2201
(lp2202
(I65
I2
F0.375
S'available'
p2203
tp2204
as(S'minutes'
p2205
S'for'
p2206
S'life'
p2207
tp2208
(lp2209
(I6
I2
F0.125
g2148
tp2210
a(I11
I1
F-0.375
g8
tp2211
a(I11
I1
F-0.5
g2150
tp2212
a(I23
I2
I0
g2152
tp2213
a(I76
I3
F0.5
g18
tp2214
a(I79
I2
F0.375
g2158
tp2215
a(I106
I0
I0
g26
tp2216
a(I113
I6
I0
g28
tp2217
a(I126
I1
F-0.375
g34
tp2218
a(I140
I0
F-0.625
g38
tp2219
a(I155
I2
F1.0
g2160
tp2220
a(I168
I0
F-0.25
g50
tp2221
a(I169
I2
F-0.5
g2162
tp2222
a(I192
I3
I0
g58
tp2223
a(I211
I8
F-0.375
g371
tp2224
a(I218
I10
F-0.375
g376
tp2225
a(I226
I29
F-0.375
g70
tp2226
a(I227
I3
F-0.25
g76
tp2227
a(I227
I4
F-0.25
g78
tp2228
a(I227
I4
F-0.25
g80
tp2229
a(I246
I6
F-0.375
g82
tp2230
a(I246
I6
F-0.25
g84
tp2231
a(I335
I1
I0
g2168
tp2232
a(I374
I6
F-0.375
g394
tp2233
as(S'tracfone'
p2234
S'customer'
p2235
S'service'
p2236
tp2237
(lp2238
(I30
I0
F-0.875
g754
tp2239
a(I61
I3
F-0.5
g756
tp2240
a(I81
I1
I0
g484
tp2241
a(I81
I1
I0
g664
tp2242
a(I81
I1
F0.375
g666
tp2243
a(I101
I6
F-0.75
g760
tp2244
a(I227
I4
F-0.5
g1258
tp2245
a(I324
I1
F-0.875
g765
tp2246
as(S'bonus'
p2247
S'minutes'
p2248
tp2249
(lp2250
(I79
I9
F0.375
g1769
tp2251
a(I79
I9
F-0.625
g1771
tp2252
a(I135
I0
F0.375
g330
tp2253
a(I212
I7
F0.875
g1643
tp2254
a(I218
I8
F0.75
g801
tp2255
a(I218
I10
F-0.375
g376
tp2256
a(I221
I15
F-0.625
g1837
tp2257
a(I251
I8
F-0.375
g86
tp2258
a(I297
I27
I0
g1647
tp2259
a(I300
I3
I0
g336
tp2260
a(I323
I1
I0
g1649
tp2261
as(S'get'
p2262
S'triple'
p2263
S'minutes'
p2264
tp2265
(lp2266
(I38
I2
F0.875
g10
tp2267
a(I123
I1
F0.125
g30
tp2268
a(I141
I0
F-0.25
g40
tp2269
a(I157
I0
F0.375
g44
tp2270
a(I157
I0
F0.375
g46
tp2271
a(I168
I0
F-0.25
g50
tp2272
a(I192
I3
I0
g58
tp2273
a(I218
I5
F-0.375
g68
tp2274
a(I297
I15
F-0.375
g98
tp2275
a(I297
I15
I0
g100
tp2276
a(I303
I7
F-0.375
g104
tp2277
a(I368
I6
I0
g112
tp2278
a(I398
I1
F-0.375
g116
tp2279
a(I403
I3
I0
g120
tp2280
a(I403
I3
F-0.25
g122
tp2281
as(S'and'
p2282
S'1200'
p2283
S'minutes'
p2284
tp2285
(lp2286
(I9
I3
F-0.5
g781
tp2287
a(I38
I2
F0.875
g10
tp2288
a(I49
I2
I0
g345
tp2289
a(I49
I2
F0.625
g347
tp2290
a(I135
I0
F0.375
g330
tp2291
a(I146
I5
F-0.5
g1799
tp2292
a(I161
I1
I0
g1815
tp2293
a(I191
I6
F-0.25
g52
tp2294
a(I191
I13
I0
g54
tp2295
a(I192
I3
I0
g58
tp2296
a(I238
I3
F0.25
g625
tp2297
a(I246
I6
F-0.375
g82
tp2298
a(I246
I6
F-0.25
g84
tp2299
a(I263
I0
I0
g1881
tp2300
a(I288
I2
I0
g1896
tp2301
a(I289
I2
F-0.75
g334
tp2302
a(I355
I1
F0.375
g1919
tp2303
a(I368
I6
I0
g112
tp2304
a(I385
I5
I0
g1933
tp2305
as(S'seller'
p2306
tp2307
(lp2308
(I251
I10
F0.625
S'hold'
p2309
tp2310
a(I258
I0
F0.5
S'second'
p2311
tp2312
a(I297
I28
I0
S'great'
p2313
tp2314
a(I320
I1
I0
S'quick'
p2315
tp2316
a(I336
I5
I0
S'same'
p2317
tp2318
a(I395
I2
F-0.375
S'simple'
p2319
tp2320
a(I401
I0
I0
S'great'
p2321
tp2322
as(S'battery'
p2323
tp2324
(lp2325
(I43
I2
I0
S'touchscreen'
p2326
tp2327
a(I72
I3
F-0.5
S'long'
p2328
tp2329
a(I143
I4
F0.625
S'necessary'
p2330
tp2331
a(I146
I1
F-0.75
S'dead'
p2332
tp2333
a(I186
I5
I0
S'full'
p2334
tp2335
a(I233
I2
I0
S'full'
p2336
tp2337
a(I266
I37
I0
S'external'
p2338
tp2339
a(I300
I4
F0.375
S'new'
p2340
tp2341
a(I300
I5
F0.375
S'new'
p2342
tp2343
a(I318
I1
I0
S'old'
p2344
tp2345
a(I340
I0
F-0.5
S'poor'
p2346
tp2347
a(I396
I0
F0.625
S'easy'
p2348
tp2349
as(S'cell'
p2350
tp2351
(lp2352
(I1
I11
F1.0
S'best'
p2353
tp2354
a(I24
I2
F-0.625
S'light'
p2355
tp2356
a(I25
I10
I0
S'old'
p2357
tp2358
a(I25
I10
I0
S'old'
p2359
tp2360
a(I25
I14
I0
S'old'
p2361
tp2362
a(I41
I6
I0
S'old'
p2363
tp2364
a(I124
I1
F-0.5
S'heavy'
p2365
tp2366
a(I209
I1
I0
S'old'
p2367
tp2368
a(I221
I9
F-0.5
S'regular'
p2369
tp2370
a(I222
I1
F-0.75
S'sufficient'
p2371
tp2372
a(I229
I0
F0.875
S'nice'
p2373
tp2374
a(I257
I6
I0
S'same'
p2375
tp2376
a(I294
I2
I0
S'old'
p2377
tp2378
a(I303
I2
F1.0
S'best'
p2379
tp2380
a(I312
I0
F0.125
S'first'
p2381
tp2382
a(I334
I20
F-0.75
S'little'
p2383
tp2384
a(I344
I0
I0
S'mobile'
p2385
tp2386
a(I349
I0
I0
S'old'
p2387
tp2388
a(I349
I4
I0
S'old'
p2389
tp2390
a(I385
I12
I0
S'same'
p2391
tp2392
a(I388
I19
F0.25
S'original'
p2393
tp2394
as(S'calls'
p2395
tp2396
(lp2397
(I77
I4
F0.625
S'easy'
p2398
tp2399
a(I92
I1
F-0.5
S'international'
p2400
tp2401
a(I92
I2
F-0.5
S'international'
p2402
tp2403
a(I92
I4
F-0.75
S'impossible'
p2404
tp2405
a(I92
I4
I0
S'many'
p2406
tp2407
a(I92
I4
F0.875
S'important'
p2408
tp2409
a(I136
I2
F-0.5
S'lose'
p2410
tp2411
a(I163
I6
F0.125
S'able'
p2412
tp2413
a(I182
I4
F-0.5
S'international'
p2414
tp2415
a(I182
I4
F-0.5
S'regular'
p2416
tp2417
a(I210
I3
F0.125
S'able'
p2418
tp2419
a(I210
I3
F-0.5
S'international'
p2420
tp2421
a(I210
I3
F0.25
S'suppose'
p2422
tp2423
a(I210
I3
F0.125
S'able'
p2424
tp2425
a(I234
I5
I0
S'great'
p2426
tp2427
a(I264
I3
I0
S'local'
p2428
tp2429
a(I286
I2
F-0.5
S'poor'
p2430
tp2431
a(I329
I2
F0.5
S'personal'
p2432
tp2433
a(I349
I0
I0
S'different'
p2434
tp2435
a(I390
I1
F-0.5
S'international'
p2436
tp2437
a(I390
I6
I0
S'local'
p2438
tp2439
a(I390
I9
I0
S'frequent'
p2440
tp2441
a(I390
I9
I0
S'local'
p2442
tp2443
a(I405
I8
I0
S'many'
p2444
tp2445
as(S'one'
p2446
S'year'
p2447
S'service'
p2448
tp2449
(lp2450
(I157
I0
F0.375
g284
tp2451
a(I157
I0
F-0.125
g676
tp2452
a(I220
I0
F0.875
g991
tp2453
a(I263
I1
F1.0
g997
tp2454
a(I334
I5
I0
g298
tp2455
a(I403
I4
F0.125
g304
tp2456
as(S'time'
p2457
tp2458
(lp2459
(I0
I2
F0.5
S'grateful'
p2460
tp2461
a(I16
I0
F-0.5
g1419
tp2462
a(I44
I4
F0.625
S'easy'
p2463
tp2464
a(I46
I1
F-0.5
g1421
tp2465
a(I51
I1
F0.375
S'extended'
p2466
tp2467
a(I51
I1
F-0.375
S'manual'
p2468
tp2469
a(I59
I1
F0.125
S'first'
p2470
tp2471
a(I60
I2
F0.375
S'much'
p2472
tp2473
a(I73
I3
I0
S'different'
p2474
tp2475
a(I78
I3
F0.375
S'mean'
p2476
tp2477
a(I80
I6
I0
S'entire'
p2478
tp2479
a(I80
I10
F-0.5
g1423
tp2480
a(I96
I7
I0
S'only'
p2481
tp2482
a(I109
I0
F0.5
g1425
tp2483
a(I117
I4
F0.375
S'no-brainer'
p2484
tp2485
a(I137
I9
I0
S'more'
p2486
tp2487
a(I150
I1
I0
S'full'
p2488
tp2489
a(I154
I6
I0
S'great'
p2490
tp2491
a(I157
I0
I0
S'great'
p2492
tp2493
a(I157
I4
F-0.875
S'hard'
p2494
tp2495
a(I169
I2
F0.625
S'add'
p2496
tp2497
a(I178
I0
F0.125
S'first'
p2498
tp2499
a(I181
I0
F-0.5
S'less'
p2500
tp2501
a(I238
I5
F-0.5
g1427
tp2502
a(I253
I10
F0.125
S'last'
p2503
tp2504
a(I257
I6
F-0.5
g1429
tp2505
a(I266
I69
F0.125
S'first'
p2506
tp2507
a(I266
I78
F0.125
S'first'
p2508
tp2509
a(I287
I21
I0
S'more'
p2510
tp2511
a(I287
I24
I0
S'entire'
p2512
tp2513
a(I296
I1
F0.75
S'due'
p2514
tp2515
a(I297
I10
F-0.5
g1431
tp2516
a(I297
I14
F0.75
S'due'
p2517
tp2518
a(I297
I27
F-0.75
S'short'
p2519
tp2520
a(I354
I1
I0
S'next'
p2521
tp2522
a(I355
I1
I0
S'more'
p2523
tp2524
a(I362
I36
I0
S'more'
p2525
tp2526
a(I362
I36
F-0.75
S'difficult'
p2527
tp2528
a(I362
I36
I0
S'website'
p2529
tp2530
a(I362
I36
F-0.75
S'unresponsive'
p2531
tp2532
a(I373
I1
F-0.75
S'wrong'
p2533
tp2534
a(I380
I1
F-0.875
S'hard'
p2535
tp2536
a(I387
I4
F-0.75
S'little'
p2537
tp2538
a(I394
I6
F0.125
S'magic'
p2539
tp2540
a(I402
I9
F0.125
S'first'
p2541
tp2542
a(I405
I10
I0
S'total'
p2543
tp2544
a(I405
I22
F0.375
S'extra'
p2545
tp2546
as(S'deal'
p2547
tp2548
(lp2549
(I22
I0
I0
S'same'
p2550
tp2551
a(I22
I4
I0
g1958
tp2552
a(I31
I4
F1.0
S'better'
p2553
tp2554
a(I33
I0
I0
g1960
tp2555
a(I35
I1
I0
g1962
tp2556
a(I36
I0
F1.0
g403
tp2557
a(I38
I0
I0
g1964
tp2558
a(I40
I2
I0
g1966
tp2559
a(I43
I3
F0.125
S'last'
p2560
tp2561
a(I43
I3
I0
S'least'
p2562
tp2563
a(I46
I8
I0
g1968
tp2564
a(I47
I1
I0
g1970
tp2565
a(I60
I6
I0
g1972
tp2566
a(I64
I0
I0
g1974
tp2567
a(I71
I0
F1.0
S'best'
p2568
tp2569
a(I71
I0
F0.375
S'available'
p2570
tp2571
a(I75
I0
F1.0
S'better'
p2572
tp2573
a(I78
I0
I0
g1976
tp2574
a(I84
I0
F1.0
S'best'
p2575
tp2576
a(I94
I0
F1.0
S'best'
p2577
tp2578
a(I101
I0
I0
g1978
tp2579
a(I108
I0
I0
g1980
tp2580
a(I113
I4
F1.0
g405
tp2581
a(I122
I0
I0
g1982
tp2582
a(I126
I1
I0
g1984
tp2583
a(I131
I3
F0.5
g407
tp2584
a(I135
I6
I0
g1986
tp2585
a(I142
I6
I0
g1988
tp2586
a(I143
I0
F1.0
g409
tp2587
a(I146
I4
I0
g411
tp2588
a(I166
I9
F1.0
g413
tp2589
a(I168
I0
F1.0
g415
tp2590
a(I169
I3
I0
g1991
tp2591
a(I182
I5
I0
g1993
tp2592
a(I184
I7
I0
S'same'
p2593
tp2594
a(I189
I2
F1.0
g417
tp2595
a(I189
I6
F-0.125
g419
tp2596
a(I189
I6
F1.0
g421
tp2597
a(I198
I1
I0
S'big'
p2598
tp2599
a(I208
I0
I0
g1995
tp2600
a(I209
I0
F1.0
g423
tp2601
a(I218
I10
F0.125
S'first'
p2602
tp2603
a(I218
I10
I0
S'incredible'
p2604
tp2605
a(I235
I3
I0
g1997
tp2606
a(I247
I0
I0
g1999
tp2607
a(I250
I4
F1.0
g425
tp2608
a(I258
I4
I0
g2001
tp2609
a(I260
I0
F1.0
g427
tp2610
a(I277
I2
F1.0
g429
tp2611
a(I281
I5
F1.0
g431
tp2612
a(I303
I13
I0
S'same'
p2613
tp2614
a(I308
I0
I0
g2004
tp2615
a(I315
I3
I0
g2006
tp2616
a(I317
I2
F1.0
g433
tp2617
a(I317
I2
F0.5
g435
tp2618
a(I328
I0
I0
g2008
tp2619
a(I334
I4
F1.0
S'best'
p2620
tp2621
a(I335
I1
F1.0
g437
tp2622
a(I344
I29
I0
g2010
tp2623
a(I344
I29
F0.875
g2012
tp2624
a(I353
I0
F1.0
g439
tp2625
a(I367
I1
I0
g2014
tp2626
a(I385
I14
I0
g2016
tp2627
a(I387
I16
F1.0
g441
tp2628
a(I391
I0
F1.0
g443
tp2629
a(I396
I0
I0
g2018
tp2630
a(I400
I0
F0.875
S'happier'
p2631
tp2632
a(I405
I17
I0
g2020
tp2633
a(I405
I21
F1.0
g445
tp2634
as(S'and'
p2635
S'one'
p2636
S'year'
p2637
tp2638
(lp2639
(I0
I1
F0.125
g264
tp2640
a(I6
I7
I0
g266
tp2641
a(I51
I5
F-0.25
g268
tp2642
a(I51
I5
I0
g270
tp2643
a(I106
I0
F-0.25
g274
tp2644
a(I106
I0
I0
g276
tp2645
a(I137
I8
I0
g278
tp2646
a(I146
I0
I0
g280
tp2647
a(I157
I0
F0.375
g284
tp2648
a(I162
I0
I0
g286
tp2649
a(I162
I0
I0
g288
tp2650
a(I300
I2
I0
g296
tp2651
a(I334
I5
I0
g298
tp2652
a(I375
I0
F-0.5
g300
tp2653
a(I381
I0
I0
g302
tp2654
a(I403
I4
F0.125
g304
tp2655
a(I405
I18
F0.5
g308
tp2656
a(I405
I19
F0.5
g310
tp2657
a(I408
I1
F0.125
g312
tp2658
a(I408
I1
I0
g314
tp2659
as(S'touch'
p2660
S'screen'
p2661
tp2662
(lp2663
(I2
I3
F0.25
g2047
tp2664
a(I2
I3
F0.5
g2049
tp2665
a(I2
I3
F0.625
g2051
tp2666
a(I24
I0
F-0.625
g217
tp2667
a(I64
I7
F0.5
S'touch'
p2668
tp2669
a(I79
I11
F0.25
g2054
tp2670
a(I81
I15
F0.5
g2056
tp2671
a(I89
I2
F0.5
g2058
tp2672
a(I90
I0
F0.5
g2060
tp2673
a(I96
I9
F-0.375
g2062
tp2674
a(I103
I0
F0.5
g2064
tp2675
a(I104
I0
F0.5
g2066
tp2676
a(I113
I8
F0.5
g2068
tp2677
a(I139
I11
F0.5
g2070
tp2678
a(I139
I11
F0.125
g2072
tp2679
a(I139
I13
F0.5
g2074
tp2680
a(I141
I0
F0.5
g2076
tp2681
a(I151
I5
F0.5
g2078
tp2682
a(I155
I1
F0.5
g2080
tp2683
a(I160
I4
F0.5
g2082
tp2684
a(I161
I2
F0.625
g2084
tp2685
a(I171
I1
F0.5
g2086
tp2686
a(I212
I8
F0.5
g2088
tp2687
a(I218
I2
F0.625
g219
tp2688
a(I240
I0
F0.375
g221
tp2689
a(I257
I2
F0.5
g2092
tp2690
a(I261
I1
F0.5
g2094
tp2691
a(I266
I21
F0.25
g2096
tp2692
a(I274
I0
I0
g2098
tp2693
a(I274
I0
F0.5
g2100
tp2694
a(I274
I0
F0.625
g2102
tp2695
a(I278
I1
F0.5
g2104
tp2696
a(I287
I3
F-0.5
g223
tp2697
a(I287
I10
I0
g2107
tp2698
a(I293
I2
F0.5
g2109
tp2699
a(I293
I2
F0.625
g2111
tp2700
a(I307
I3
F0.5
g2113
tp2701
a(I322
I1
I0
g227
tp2702
a(I344
I7
F0.5
g2116
tp2703
a(I351
I0
F0.5
g2118
tp2704
a(I355
I0
F0.5
g2120
tp2705
a(I362
I0
F0.5
g2122
tp2706
a(I362
I25
F0.5
g2124
tp2707
a(I366
I12
F0.5
g2126
tp2708
a(I393
I8
F0.5
g2128
tp2709
a(I398
I5
F0.5
g2130
tp2710
a(I398
I5
F0.25
g2132
tp2711
a(I400
I7
F0.5
S'touch'
p2712
tp2713
as(S'year'
p2714
tp2715
(lp2716
(I0
I1
F0.125
g264
tp2717
a(I6
I7
I0
g266
tp2718
a(I51
I5
F-0.25
g268
tp2719
a(I51
I5
I0
g270
tp2720
a(I91
I0
I0
g272
tp2721
a(I99
I2
F1.0
S'good'
p2722
tp2723
a(I106
I0
F-0.25
g274
tp2724
a(I106
I0
I0
g276
tp2725
a(I106
I7
I0
S'next'
p2726
tp2727
a(I137
I8
I0
g278
tp2728
a(I146
I0
I0
g280
tp2729
a(I146
I4
F1.0
g1625
tp2730
a(I147
I0
F-0.25
g282
tp2731
a(I150
I0
I0
g1627
tp2732
a(I157
I0
F0.375
g284
tp2733
a(I162
I0
I0
g286
tp2734
a(I162
I0
I0
g288
tp2735
a(I171
I0
I0
g290
tp2736
a(I245
I9
I0
g292
tp2737
a(I266
I4
I0
g294
tp2738
a(I300
I2
I0
g296
tp2739
a(I334
I5
I0
g298
tp2740
a(I353
I2
I0
g1565
tp2741
a(I353
I2
I0
g1567
tp2742
a(I375
I0
F-0.5
g300
tp2743
a(I381
I0
I0
g302
tp2744
a(I403
I4
F0.125
g304
tp2745
a(I404
I1
I0
g306
tp2746
a(I405
I18
F0.5
g308
tp2747
a(I405
I19
F0.5
g310
tp2748
a(I405
I20
F0.5
g679
tp2749
a(I408
I1
F0.125
g312
tp2750
a(I408
I1
I0
g314
tp2751
as(S'little'
p2752
tp2753
(lp2754
(I311
I2
F1.0
S'good'
p2755
tp2756
as(S'of'
p2757
S'triple'
p2758
S'minutes'
p2759
tp2760
(lp2761
(I8
I0
F0.375
g6
tp2762
a(I38
I2
F0.875
g10
tp2763
a(I41
I9
I0
g12
tp2764
a(I90
I2
F-0.5
g22
tp2765
a(I106
I0
I0
g26
tp2766
a(I123
I1
F0.125
g30
tp2767
a(I126
I1
F-0.375
g34
tp2768
a(I157
I0
F0.375
g44
tp2769
a(I157
I0
F0.375
g46
tp2770
a(I191
I6
F-0.25
g52
tp2771
a(I191
I13
I0
g54
tp2772
a(I191
I13
F0.5
g56
tp2773
a(I218
I3
I0
g66
tp2774
a(I218
I5
F-0.375
g68
tp2775
a(I226
I29
F-0.375
g70
tp2776
a(I227
I2
F-0.375
g72
tp2777
a(I227
I2
F-0.375
g74
tp2778
a(I246
I6
F-0.375
g82
tp2779
a(I246
I6
F-0.25
g84
tp2780
a(I273
I0
F-0.375
g94
tp2781
a(I303
I5
F-0.25
g102
tp2782
a(I362
I39
F0.375
g110
tp2783
a(I368
I6
I0
g112
tp2784
a(I403
I3
I0
g120
tp2785
a(I403
I3
F-0.25
g122
tp2786
as(S'from'
p2787
S'old'
p2788
S'tracfone'
p2789
tp2790
(lp2791
(I10
I0
I0
g1176
tp2792
a(I49
I0
I0
g1186
tp2793
a(I51
I2
I0
g1192
tp2794
a(I51
I2
I0
g1194
tp2795
a(I76
I1
I0
g1201
tp2796
a(I76
I1
F0.375
g1203
tp2797
a(I76
I3
I0
g1205
tp2798
a(I76
I3
F0.375
g1207
tp2799
a(I81
I1
I0
g664
tp2800
a(I81
I1
F0.375
g666
tp2801
a(I185
I8
I0
g1240
tp2802
a(I185
I8
F0.375
g1242
tp2803
a(I251
I10
I0
g1270
tp2804
as(S'screen'
p2805
tp2806
(lp2807
(I2
I3
F0.25
g2047
tp2808
a(I2
I3
F0.5
g2049
tp2809
a(I2
I3
F0.625
g2051
tp2810
a(I6
I2
F0.125
S'protective'
p2811
tp2812
a(I6
I5
F0.125
S'protective'
p2813
tp2814
a(I64
I7
F0.5
g2668
tp2815
a(I73
I7
I0
S'dial'
p2816
tp2817
a(I79
I11
F0.25
g2054
tp2818
a(I81
I3
I0
S'large'
p2819
tp2820
a(I81
I15
F0.5
g2056
tp2821
a(I88
I7
I0
S'e-mail'
p2822
tp2823
a(I89
I2
F0.5
g2058
tp2824
a(I90
I0
F0.5
g2060
tp2825
a(I96
I9
F-0.375
g2062
tp2826
a(I103
I0
F0.5
g2064
tp2827
a(I104
I0
F0.5
g2066
tp2828
a(I113
I8
F0.5
g2068
tp2829
a(I138
I2
F-0.375
S'black'
p2830
tp2831
a(I139
I11
F0.5
g2070
tp2832
a(I139
I11
F0.125
g2072
tp2833
a(I139
I13
F0.5
g2074
tp2834
a(I141
I0
F0.5
g2076
tp2835
a(I151
I2
F-0.25
S'scratched'
p2836
tp2837
a(I151
I5
F0.5
g2078
tp2838
a(I155
I1
F0.5
g2080
tp2839
a(I160
I4
F0.5
g2082
tp2840
a(I161
I2
F0.625
g2084
tp2841
a(I171
I1
F0.5
g2086
tp2842
a(I191
I19
F0.25
S'larger'
p2843
tp2844
a(I198
I8
F0.25
S'main'
p2845
tp2846
a(I212
I8
F0.5
g2088
tp2847
a(I240
I1
F-0.5
S'complaint'
p2848
tp2849
a(I257
I2
F0.5
g2092
tp2850
a(I257
I5
F1.0
S'good'
p2851
tp2852
a(I257
I5
F0.375
S'new'
p2853
tp2854
a(I261
I1
F0.5
g2094
tp2855
a(I266
I16
F0.25
S'main'
p2856
tp2857
a(I266
I21
F0.25
g2096
tp2858
a(I266
I22
F-0.75
S'bright'
p2859
tp2860
a(I266
I22
F0.625
S'easy'
p2861
tp2862
a(I266
I44
F0.25
S'main'
p2863
tp2864
a(I266
I45
F0.25
S'main'
p2865
tp2866
a(I266
I47
F0.25
S'main'
p2867
tp2868
a(I266
I51
F0.25
S'main'
p2869
tp2870
a(I266
I85
F0.25
S'main'
p2871
tp2872
a(I266
I85
F0.5
S'second'
p2873
tp2874
a(I266
I87
F0.25
S'main'
p2875
tp2876
a(I266
I91
F0.625
S'easy'
p2877
tp2878
a(I274
I0
I0
g2098
tp2879
a(I274
I0
F0.5
g2100
tp2880
a(I274
I0
F0.625
g2102
tp2881
a(I278
I1
F0.5
g2104
tp2882
a(I287
I10
I0
g2107
tp2883
a(I293
I2
F0.5
g2109
tp2884
a(I293
I2
F0.625
g2111
tp2885
a(I297
I11
F0.125
S'protective'
p2886
tp2887
a(I297
I12
F0.25
S'bigger'
p2888
tp2889
a(I307
I3
F0.5
g2113
tp2890
a(I344
I7
F0.5
g2116
tp2891
a(I344
I12
F0.25
S'main'
p2892
tp2893
a(I348
I2
F-0.75
S'secondary'
p2894
tp2895
a(I351
I0
F0.5
g2118
tp2896
a(I355
I0
F0.5
g2120
tp2897
a(I362
I0
F0.5
g2122
tp2898
a(I362
I25
F0.5
g2124
tp2899
a(I366
I12
F0.5
g2126
tp2900
a(I387
I9
F-0.375
S'small'
p2901
tp2902
a(I393
I8
F0.5
g2128
tp2903
a(I395
I7
F-0.875
S'hard'
p2904
tp2905
a(I398
I5
F0.5
g2130
tp2906
a(I398
I5
F0.25
g2132
tp2907
a(I400
I7
F0.5
g2712
tp2908
as(S'triple'
p2909
S'minute'
p2910
S'deal'
p2911
tp2912
(lp2913
(I35
I1
I0
g1962
tp2914
a(I78
I0
I0
g1976
tp2915
a(I113
I4
F1.0
g405
tp2916
a(I122
I0
I0
g1982
tp2917
a(I122
I0
I0
g456
tp2918
a(I126
I1
I0
g1984
tp2919
a(I168
I0
F1.0
g415
tp2920
a(I208
I0
I0
g1995
tp2921
a(I251
I9
F-0.375
g463
tp2922
a(I281
I5
F1.0
g431
tp2923
a(I335
I1
F1.0
g437
tp2924
a(I367
I1
I0
g2014
tp2925
a(I391
I0
F1.0
g443
tp2926
as(g398
S'screen'
p2927
S'protector'
p2928
tp2929
(lp2930
(I113
I12
F-0.75
S'little'
p2931
tp2932
a(I113
I12
F0.375
S'available'
p2933
tp2934
a(I240
I1
F-0.5
g2848
tp2935
as(S'camera'
p2936
tp2937
(lp2938
(I88
I4
F1.0
S'best'
p2939
tp2940
a(I185
I2
I0
S'standard'
p2941
tp2942
a(I185
I2
F-0.375
S'small'
p2943
tp2944
a(I218
I12
F1.0
S'good'
p2945
tp2946
a(I218
I23
I0
S'real'
p2947
tp2948
a(I276
I3
F1.0
S'good'
p2949
tp2950
a(I313
I3
I0
S'basic'
p2951
tp2952
as(S'calling'
p2953
S'voice'
p2954
S'mail'
p2955
tp2956
(lp2957
(I80
I8
F-0.25
g1457
tp2958
as(S'plus'
p2959
tp2960
(lp2961
(I94
I1
F-0.75
S'short'
p2962
tp2963
a(I94
I1
F0.625
S'easy'
p2964
tp2965
a(I158
I20
F0.375
S'extra'
p2966
tp2967
a(I184
I5
F-0.125
S'overall'
p2968
tp2969
a(I184
I5
F-0.5
S'regular'
p2970
tp2971
as(S'work'
p2972
g1699
S'area'
p2973
tp2974
(lp2975
(I88
I17
I0
g1533
tp2976
a(I98
I8
I0
g1537
tp2977
a(I107
I3
F0.375
g1543
tp2978
a(I107
I7
F-0.5
g1545
tp2979
as(S'promo'
p2980
S'code'
p2981
tp2982
(lp2983
(I6
I12
F0.125
g1575
tp2984
a(I6
I12
I0
g1577
tp2985
a(I114
I1
I0
g1579
tp2986
a(I158
I16
I0
g1581
tp2987
a(I251
I1
I0
g1583
tp2988
a(I408
I2
F0.625
g1585
tp2989
as(S'great'
p2990
S'deal'
p2991
tp2992
(lp2993
(I22
I4
I0
g1958
tp2994
a(I33
I0
I0
g1960
tp2995
a(I35
I1
I0
g1962
tp2996
a(I38
I0
I0
g1964
tp2997
a(I40
I2
I0
g1966
tp2998
a(I46
I8
I0
g1968
tp2999
a(I47
I1
I0
g1970
tp3000
a(I60
I6
I0
g1972
tp3001
a(I64
I0
I0
g1974
tp3002
a(I78
I0
I0
g1976
tp3003
a(I101
I0
I0
g1978
tp3004
a(I108
I0
I0
g1980
tp3005
a(I122
I0
I0
g1982
tp3006
a(I126
I1
I0
g1984
tp3007
a(I135
I6
I0
g1986
tp3008
a(I142
I6
I0
g1988
tp3009
a(I146
I4
I0
g411
tp3010
a(I169
I3
I0
g1991
tp3011
a(I182
I5
I0
g1993
tp3012
a(I208
I0
I0
g1995
tp3013
a(I235
I3
I0
g1997
tp3014
a(I247
I0
I0
g1999
tp3015
a(I258
I4
I0
g2001
tp3016
a(I260
I0
F1.0
g427
tp3017
a(I308
I0
I0
g2004
tp3018
a(I315
I3
I0
g2006
tp3019
a(I328
I0
I0
g2008
tp3020
a(I344
I29
I0
g2010
tp3021
a(I344
I29
F0.875
g2012
tp3022
a(I367
I1
I0
g2014
tp3023
a(I385
I14
I0
g2016
tp3024
a(I396
I0
I0
g2018
tp3025
a(I405
I17
I0
g2020
tp3026
as(S'with'
p3027
S'1200'
p3028
S'minutes'
p3029
tp3030
(lp3031
(I38
I2
F0.875
g10
tp3032
a(I90
I2
F-0.5
g22
tp3033
a(I158
I17
F0.375
g48
tp3034
a(I191
I6
F-0.25
g52
tp3035
a(I192
I3
I0
g58
tp3036
a(I235
I0
I0
g1846
tp3037
a(I238
I3
F0.25
g625
tp3038
a(I246
I6
F-0.375
g82
tp3039
a(I246
I6
F-0.25
g84
tp3040
a(I288
I2
I0
g1896
tp3041
a(I289
I2
F-0.75
g334
tp3042
a(I296
I1
F-0.625
g1899
tp3043
a(I355
I1
F0.375
g1919
tp3044
a(I368
I6
I0
g112
tp3045
as(S'make'
p3046
tp3047
(lp3048
(I390
I1
I0
g1152
tp3049
a(I390
I1
I0
g1154
tp3050
a(I390
I1
F-0.5
g1156
tp3051
as(S'sheet'
p3052
S'of'
p3053
S'paper'
p3054
tp3055
(lp3056
(I344
I4
I0
S'same'
p3057
tp3058
as(S'1200'
p3059
S'minutes'
p3060
tp3061
(lp3062
(I9
I3
F-0.5
g781
tp3063
a(I38
I2
F0.875
g10
tp3064
a(I41
I9
I0
g12
tp3065
a(I49
I2
I0
g345
tp3066
a(I49
I2
F0.625
g347
tp3067
a(I51
I4
F-0.25
g323
tp3068
a(I51
I4
F-0.375
g325
tp3069
a(I62
I6
F0.375
g1757
tp3070
a(I76
I6
F-0.625
g1765
tp3071
a(I79
I9
F0.375
g1769
tp3072
a(I79
I9
F-0.625
g1771
tp3073
a(I90
I2
F-0.5
g22
tp3074
a(I135
I0
F0.375
g330
tp3075
a(I146
I5
F-0.5
g1799
tp3076
a(I158
I10
F0.375
g1808
tp3077
a(I158
I17
F0.375
g48
tp3078
a(I161
I1
I0
g1815
tp3079
a(I191
I6
F-0.25
g52
tp3080
a(I191
I13
I0
g54
tp3081
a(I192
I3
I0
g58
tp3082
a(I235
I0
I0
g1846
tp3083
a(I238
I3
F0.25
g625
tp3084
a(I246
I6
F-0.375
g82
tp3085
a(I246
I6
F-0.25
g84
tp3086
a(I263
I0
I0
g1881
tp3087
a(I288
I2
I0
g1896
tp3088
a(I289
I2
F-0.75
g334
tp3089
a(I296
I1
F-0.625
g1899
tp3090
a(I355
I1
F0.375
g1919
tp3091
a(I368
I6
I0
g112
tp3092
a(I374
I6
F-0.375
g394
tp3093
a(I385
I5
I0
g1933
tp3094
as(S'people'
p3095
tp3096
(lp3097
(I61
I14
F-0.5
S'sure'
p3098
tp3099
a(I61
I14
I0
S'many'
p3100
tp3101
a(I70
I1
F-0.625
S'other'
p3102
tp3103
a(I70
I20
F0.875
S'amusing'
p3104
tp3105
a(I88
I10
I0
S'most'
p3106
tp3107
a(I88
I15
I0
S'dial'
p3108
tp3109
a(I143
I0
F-0.5
S'call'
p3110
tp3111
a(I191
I27
I0
S'different'
p3112
tp3113
a(I263
I1
I0
S'most'
p3114
tp3115
a(I316
I1
I0
S'many'
p3116
tp3117
a(I344
I30
F-0.625
S'want'
p3118
tp3119
a(I355
I2
I0
S'great'
p3120
tp3121
a(I357
I0
I0
S'most'
p3122
tp3123
a(I387
I4
I0
S'many'
p3124
tp3125
a(I387
I23
I0
S'many'
p3126
tp3127
as(S'feature'
p3128
tp3129
(lp3130
(I37
I18
F0.25
S'favorite'
p3131
tp3132
a(I37
I23
I0
S'common'
p3133
tp3134
a(I37
I25
F0.375
S'much'
p3135
tp3136
a(I39
I9
I0
S'most'
p3137
tp3138
a(I39
I9
F0.25
S'unlocked'
p3139
tp3140
a(I187
I4
I0
S'great'
p3141
tp3142
a(I191
I14
F0.875
S'nice'
p3143
tp3144
a(I191
I14
F0.5
S'touch'
p3145
tp3146
a(I200
I4
F0.875
S'nice'
p3147
tp3148
a(I302
I4
F0.75
S'due'
p3149
tp3150
a(I333
I0
F0.625
S'convenient'
p3151
tp3152
a(I348
I4
F0.25
S'favorite'
p3153
tp3154
as(g398
S'memory'
p3155
S'card'
p3156
tp3157
(lp3158
(I56
I2
F0.625
g720
tp3159
a(I126
I7
F0.75
g730
tp3160
a(I152
I5
F-0.375
g861
tp3161
a(I266
I66
I0
g740
tp3162
a(I266
I77
F-0.25
g742
tp3163
a(I269
I12
I0
g744
tp3164
as(S'on'
p3165
S'tracfone'
p3166
S'website'
p3167
tp3168
(lp3169
(I6
I11
I0
g1172
tp3170
a(I51
I2
I0
g1192
tp3171
a(I51
I2
I0
g1194
tp3172
a(I79
I17
I0
g1211
tp3173
a(I158
I11
I0
g1236
tp3174
a(I191
I10
I0
g1244
tp3175
a(I251
I10
I0
g1270
tp3176
a(I362
I27
F-0.125
g1302
tp3177
a(I368
I9
I0
g1306
tp3178
as(S'airtime'
p3179
tp3180
(lp3181
(I50
I1
F0.75
S'due'
p3182
tp3183
a(I298
I9
F0.625
S'add'
p3184
tp3185
a(I405
I14
F-0.125
S'minimum'
p3186
tp3187
a(I408
I1
F0.375
S'new'
p3188
tp3189
a(I408
I3
I0
S'enter'
p3190
tp3191
a(I408
I3
F0.375
S'new'
p3192
tp3193
as(g1699
S'area'
p3194
tp3195
(lp3196
(I61
I4
I0
g1529
tp3197
a(I78
I11
F-0.75
g1531
tp3198
a(I88
I17
I0
g1533
tp3199
a(I88
I18
F-0.5
g1535
tp3200
a(I98
I8
I0
g1537
tp3201
a(I101
I3
F1.0
g1539
tp3202
a(I101
I11
F1.0
g1541
tp3203
a(I107
I3
F0.375
g1543
tp3204
a(I107
I7
F-0.5
g1545
tp3205
a(I191
I27
I0
g1547
tp3206
a(I218
I19
I0
g1549
tp3207
a(I307
I1
F-0.5
g1551
tp3208
a(I339
I0
F0.375
g1553
tp3209
as(S'works'
p3210
tp3211
(lp3212
(I17
I0
I0
S'great'
p3213
tp3214
a(I24
I1
I0
S'great'
p3215
tp3216
a(I24
I1
F0.625
S'easy'
p3217
tp3218
a(I27
I0
I0
S'great'
p3219
tp3220
a(I32
I0
F0.625
S'easy'
p3221
tp3222
a(I35
I0
I0
S'great'
p3223
tp3224
a(I47
I17
I0
S'great'
p3225
tp3226
a(I54
I0
F1.0
S'good'
p3227
tp3228
a(I107
I9
I0
S'same'
p3229
tp3230
a(I147
I1
I0
S'great'
p3231
tp3232
a(I165
I0
I0
S'great'
p3233
tp3234
a(I177
I1
I0
S'great'
p3235
tp3236
a(I203
I5
I0
S'great'
p3237
tp3238
a(I208
I0
I0
S'great'
p3239
tp3240
a(I288
I1
I0
S'great'
p3241
tp3242
a(I327
I8
I0
S'great'
p3243
tp3244
a(I330
I1
I0
S'great'
p3245
tp3246
a(I346
I0
I0
S'great'
p3247
tp3248
a(I357
I0
I0
S'great'
p3249
tp3250
a(I362
I0
I0
S'great'
p3251
tp3252
a(I408
I4
I0
S'standard'
p3253
tp3254
as(S'call'
p3255
tp3256
(lp3257
(I51
I7
F0.625
g1146
tp3258
a(I60
I7
F0.125
S'first'
p3259
tp3260
a(I68
I3
F-0.375
g1148
tp3261
a(I68
I3
F-0.375
g1150
tp3262
a(I112
I2
I0
S'on-line'
p3263
tp3264
a(I137
I8
F1.0
S'good'
p3265
tp3266
a(I152
I12
F0.625
S'superior'
p3267
tp3268
a(I179
I3
I0
S'great'
p3269
tp3270
a(I405
I10
F0.5
S'second'
p3271
tp3272
a(I406
I5
I0
S'quick'
p3273
tp3274
as(S'much'
p3275
S'better'
p3276
tp3277
(lp3278
(I11
I10
F0.375
g1669
tp3279
a(I152
I11
F0.375
g1671
tp3280
a(I303
I5
F0.375
g1675
tp3281
a(I334
I15
F0.375
g1677
tp3282
a(I400
I1
F0.375
g1679
tp3283
a(I400
I8
F0.375
g1681
tp3284
a(I403
I2
F0.375
g1683
tp3285
as(S'old'
p3286
S'tracfone'
p3287
tp3288
(lp3289
(I10
I0
I0
g1176
tp3290
a(I31
I3
I0
g1180
tp3291
a(I49
I0
I0
g1186
tp3292
a(I49
I1
I0
g1188
tp3293
a(I49
I1
F0.375
g1190
tp3294
a(I51
I2
I0
g1192
tp3295
a(I51
I2
I0
g1194
tp3296
a(I60
I1
F0.625
g662
tp3297
a(I76
I1
I0
g1201
tp3298
a(I76
I1
F0.375
g1203
tp3299
a(I76
I3
I0
g1205
tp3300
a(I76
I3
F0.375
g1207
tp3301
a(I81
I1
I0
g664
tp3302
a(I81
I1
F0.375
g666
tp3303
a(I84
I1
F-0.625
g668
tp3304
a(I117
I5
I0
g1218
tp3305
a(I121
I0
I0
g1220
tp3306
a(I142
I1
I0
g1234
tp3307
a(I185
I8
I0
g1240
tp3308
a(I185
I8
F0.375
g1242
tp3309
a(I246
I6
I0
g1262
tp3310
a(I251
I10
I0
g1270
tp3311
a(I251
I19
I0
g1272
tp3312
a(I270
I2
I0
g1274
tp3313
a(I270
I2
F-0.375
g1276
tp3314
a(I297
I14
I0
g1282
tp3315
a(I318
I1
F-0.75
g1286
tp3316
a(I344
I0
I0
g1288
tp3317
a(I344
I0
I0
g1290
tp3318
a(I344
I19
I0
g1294
tp3319
a(I367
I0
I0
g1304
tp3320
a(I392
I4
F0.5
g1312
tp3321
as(S'texting'
p3322
tp3323
(lp3324
(I50
I2
F0.375
S'available'
p3325
tp3326
a(I300
I7
I0
S'minimal'
p3327
tp3328
as(S'days'
p3329
tp3330
(lp3331
(I60
I8
I0
S'few'
p3332
tp3333
a(I132
I6
F-0.5
S'sure'
p3334
tp3335
a(I151
I5
F-0.5
S'certain'
p3336
tp3337
a(I160
I8
F0.375
g2140
tp3338
a(I185
I0
I0
S'few'
p3339
tp3340
a(I190
I6
I0
S'many'
p3341
tp3342
a(I196
I7
F0.875
S'happy'
p3343
tp3344
a(I230
I3
F-0.75
S'dry'
p3345
tp3346
a(I238
I0
I0
S'few'
p3347
tp3348
a(I250
I5
F0.5
S'manner'
p3349
tp3350
a(I251
I6
I0
S'few'
p3351
tp3352
a(I269
I12
I0
S'few'
p3353
tp3354
a(I275
I0
F-0.5
S'less'
p3355
tp3356
a(I334
I2
F0.625
S'easy'
p3357
tp3358
a(I335
I2
F0.875
S'nice'
p3359
tp3360
a(I362
I29
F0.875
S'important'
p3361
tp3362
a(I362
I39
F0.75
g2142
tp3363
as.