(dp0
(S'operating'
p1
S'system'
p2
tp3
(lp4
(I12
I16
F0.625
S'perfect'
p5
I2
tp6
as(S'battery'
p7
S'life'
p8
tp9
(lp10
(I16
I0
I0
S'hot'
p11
I1
tp12
a(I28
I2
I0
S'great'
p13
I1
tp14
a(I12
I16
F0.625
S'perfect'
p15
I15
tp16
a(I15
I15
F-0.25
S'low'
p17
I15
tp18
a(I15
I16
F0.5
S'strong'
p19
I15
tp20
a(I15
I16
F0.5
S'strong'
p21
I15
tp22
as(S'data'
p23
tp24
(lp25
(I24
I23
I0
S'cellular'
p26
I13
tp27
a(I31
I93
F-0.5
S'heavy'
p28
I13
tp29
as(S'code'
p30
tp31
(lp32
(I21
I0
F0.5
S'true'
p33
I3
tp34
as(S'apps'
p35
tp36
(lp37
(I7
I1
I0
S'many'
p38
I0
tp39
a(I12
I2
I0
S'useful'
p40
I0
tp41
a(I12
I6
F0.375
S'available'
p42
I0
tp43
a(I30
I20
I0
S'download'
p44
I0
tp45
a(I30
I20
I0
S'many'
p46
I0
tp47
a(I30
I20
I0
S'such'
p48
I0
tp49
a(I31
I63
I0
S'more'
p50
I0
tp51
a(I31
I63
F-0.625
S'natural'
p52
I0
tp53
a(I31
I63
F0.625
S'easier'
p54
I0
tp55
a(I31
I63
F0.5
S'touch'
p56
I0
tp57
a(I31
I106
F0.625
S'major'
p58
I0
tp59
as(S'amazon'
p60
tp61
(lp62
(I5
I7
F-0.625
S'other'
p63
I13
tp64
a(I14
I56
I0
S'faithful'
p65
I13
tp66
a(I21
I7
F1.0
S'good'
p67
I13
tp68
a(I21
I7
F1.0
S'good'
p69
I13
tp70
as(S'camera'
p71
tp72
(lp73
(I12
I16
F0.625
S'perfect'
p74
I1
tp75
a(I25
I3
I0
S'great'
p76
I1
tp77
a(I27
I20
F-0.75
S'secondary'
p78
I1
tp79
a(I29
I25
F0.875
S'nice'
p80
I1
tp81
a(I31
I20
I0
S'great'
p82
I1
tp83
a(I31
I131
F1.0
S'good'
p84
I1
tp85
a(I31
I131
F0.625
S'easy'
p86
I1
tp87
as(S'htc'
p88
S'titan'
p89
tp90
(lp91
(I11
I11
F-0.375
S'top'
p92
I0
tp93
a(I11
I11
F-0.375
g92
I0
tp94
a(I24
I3
F-0.5
S'poorest'
p95
I0
tp96
a(I24
I9
F-0.625
S'other'
p97
I0
tp98
a(I24
I11
F-0.375
S'small'
p99
I0
tp100
as.