(dp0
(S'perfect'
p1
tp2
(lp3
(I134
I2
I0
S'big'
p4
tp5
a(I352
I1
F1.0
S'good'
p6
tp7
as(S'right'
p8
tp9
(lp10
(I31
I1
F0.375
S'knew'
p11
tp12
a(I59
I10
I0
S'flush'
p13
tp14
a(I59
I10
F0.25
S'sharp'
p15
tp16
a(I243
I41
F-0.25
S'lower'
p17
tp18
a(I298
I4
I0
S'plastic'
p19
tp20
as(S'nice'
p21
tp22
(lp23
(I315
I2
F0.625
S'easy'
p24
tp25
a(I342
I0
F-0.375
S'vary'
p26
tp27
a(I358
I0
F-0.125
S'super'
p28
tp29
as(S'quad'
p30
S'core'
p31
tp32
(lp33
(I187
I3
I0
S'quad'
p34
tp35
as(S'version'
p36
tp37
(lp38
(I7
I0
I0
S'next'
p39
tp40
a(I7
I5
I0
S'latest'
p41
tp42
a(I7
I5
I0
S'android'
p43
tp44
a(I10
I10
F0.75
S'wonder'
p45
tp46
a(I28
I3
I0
S'android'
p47
tp48
a(I44
I0
F-0.5
S'international'
p49
tp50
a(I44
I2
F-0.5
S'international'
p51
tp52
a(I49
I4
F0.125
S'first'
p53
tp54
a(I54
I0
F-0.25
S'google'
p55
tp56
a(I76
I6
F0.375
S'newest'
p57
tp58
a(I76
I6
I0
S'android'
p59
tp60
a(I81
I9
I0
S'android'
p61
tp62
a(I84
I1
F-0.25
S'google'
p63
tp64
a(I84
I1
F-0.25
S'direct'
p65
tp66
a(I93
I1
I0
S'latest'
p67
tp68
a(I93
I1
I0
S'android'
p69
tp70
a(I93
I1
F-0.25
S'google'
p71
tp72
a(I96
I0
I0
S'android'
p73
tp74
a(I107
I5
I0
S'latest'
p75
tp76
a(I107
I5
I0
S'android'
p77
tp78
a(I107
I11
I0
S'android'
p79
tp80
a(I107
I38
F0.5
S'expensive'
p81
tp82
a(I116
I3
F0.5
S'second'
p83
tp84
a(I122
I5
F-0.5
S'international'
p85
tp86
a(I148
I17
I0
S'cool'
p87
tp88
a(I148
I18
F-0.5
S'international'
p89
tp90
a(I149
I0
I0
S'android'
p91
tp92
a(I149
I0
F-0.125
S'bean'
p93
tp94
a(I159
I0
F0.25
S'refurbished'
p95
tp96
a(I170
I50
F-0.625
S'free'
p97
tp98
a(I170
I53
F-0.625
S'free'
p99
tp100
a(I171
I8
I0
S'fast'
p101
tp102
a(I202
I4
I0
S'earlier'
p103
tp104
a(I202
I4
I0
S'android'
p105
tp106
a(I208
I3
F0.375
S'available'
p107
tp108
a(I208
I19
F1.0
S'best'
p109
tp110
a(I208
I19
I0
S'android'
p111
tp112
a(I208
I19
F-0.25
S'google'
p113
tp114
a(I208
I53
I0
S'great'
p115
tp116
a(I208
I53
I0
S'android'
p117
tp118
a(I216
I4
F-0.375
S'simple'
p119
tp120
a(I229
I0
I0
S'android'
p121
tp122
a(I241
I8
F-0.25
S'white'
p123
tp124
a(I242
I0
F0.375
S'newest'
p125
tp126
a(I262
I2
F-0.625
S'steady'
p127
tp128
a(I281
I1
F0.375
S'new'
p129
tp130
a(I330
I13
I0
S'latest'
p131
tp132
a(I330
I13
I0
S'android'
p133
tp134
a(I330
I13
F0.375
S'available'
p135
tp136
a(I343
I10
F-0.5
S'sure'
p137
tp138
a(I349
I1
F-0.5
S'international'
p139
tp140
a(I351
I4
F-0.5
S'international'
p141
tp142
a(I354
I1
F0.375
S'newest'
p143
tp144
a(I354
I1
I0
S'android'
p145
tp146
a(I354
I2
F0.375
S'newest'
p147
tp148
a(I376
I3
F-0.5
S'international'
p149
tp150
as(S'keep'
p151
S'n'
p152
S'mind'
p153
tp154
(lp155
(I353
I50
F-0.25
S'google'
p156
tp157
as(S'operating'
p158
S'system'
p159
tp160
(lp161
(I76
I17
I0
S'great'
p162
tp163
a(I96
I0
F0.375
S'flash'
p164
tp165
a(I157
I3
F0.625
S'perfect'
p166
tp167
a(I335
I1
F1.0
S'best'
p168
tp169
a(I341
I6
F0.375
S'new'
p170
tp171
a(I353
I5
I0
S'latest'
p172
tp173
a(I353
I60
I0
S'android'
p174
tp175
a(I353
I60
I0
S'latest'
p176
tp177
a(I375
I1
F0.375
S'new'
p178
tp179
as(S'quality'
p180
tp181
(lp182
(I8
I5
F1.0
S'best'
p183
tp184
a(I12
I2
I0
S'great'
p185
tp186
a(I40
I1
F0.125
S'impressive'
p187
tp188
a(I52
I12
F1.0
S'good'
p189
tp190
a(I68
I3
F-0.625
S'bad'
p191
tp192
a(I69
I11
F1.0
S'better'
p193
tp194
a(I120
I2
F0.625
S'noticeable'
p195
tp196
a(I144
I4
F-0.875
S'awful'
p197
tp198
a(I146
I6
F-0.25
S'lower'
p199
tp200
a(I148
I43
I0
S'high'
p201
tp202
a(I188
I15
F0.375
S'no-brainer'
p203
tp204
a(I188
I15
I0
S'such'
p205
tp206
a(I208
I37
F1.0
S'good'
p207
tp208
a(I208
I37
F1.0
S'best'
p209
tp210
a(I208
I47
F-0.5
S'actual'
p211
tp212
a(I240
I8
F-0.25
S'google'
p213
tp214
a(I253
I24
I0
S'signal'
p215
tp216
a(I253
I24
F0.875
S'important'
p217
tp218
a(I289
I7
F1.0
S'good'
p219
tp220
a(I295
I5
F1.0
S'good'
p221
tp222
a(I317
I21
F0.875
S'music'
p223
tp224
a(I317
I31
F0.875
S'nice'
p225
tp226
a(I321
I1
F0.625
S'convenient'
p227
tp228
a(I321
I1
I0
S'high'
p229
tp230
a(I361
I17
F1.0
S'good'
p231
tp232
a(I370
I0
I0
S'great'
p233
tp234
as(S'samsung'
p235
S'galaxy'
p236
S'nexus'
p237
tp238
(lp239
(I1
I5
F0.125
S'first'
p240
tp241
a(I1
I5
F0.75
S'broke'
p242
tp243
a(I76
I15
I0
S'third'
p244
tp245
a(I76
I15
F0.375
S'newest'
p246
tp247
a(I140
I3
F-0.625
S'other'
p248
tp249
a(I227
I7
F0.375
S'new'
p250
tp251
a(I232
I0
I0
S'standard'
p252
tp253
a(I288
I14
I0
S'more'
p254
tp255
a(I310
I0
F-0.125
S'overall'
p256
tp257
a(I324
I0
I0
S'galaxy'
p258
tp259
as(S'samsung'
p260
S'galaxy'
p261
S's'
p262
tp263
(lp264
(I1
I5
F0.125
g240
tp265
a(I76
I15
I0
g244
tp266
a(I76
I15
F0.375
g246
tp267
a(I227
I7
F0.375
g250
tp268
a(I288
I14
I0
g254
tp269
a(I310
I0
F-0.125
g256
tp270
as(S'system'
p271
tp272
(lp273
(I96
I0
F0.375
g164
tp274
a(I128
I10
F0.5
S'possible'
p275
tp276
a(I141
I1
F-0.5
S'open'
p277
tp278
a(I320
I7
F1.0
S'good'
p279
tp280
a(I335
I1
F1.0
g168
tp281
as(S'experience'
p282
tp283
(lp284
(I33
I1
I0
S'android'
p285
tp286
a(I57
I5
I0
S'own'
p287
tp288
a(I67
I0
F-0.125
S'overall'
p289
tp290
a(I67
I0
F1.0
S'good'
p291
tp292
a(I75
I3
I0
S'great'
p293
tp294
a(I90
I0
I0
S'android'
p295
tp296
a(I90
I0
F1.0
S'best'
p297
tp298
a(I93
I0
I0
S'incredible'
p299
tp300
a(I107
I11
F0.5
S'whole'
p301
tp302
a(I109
I3
F-0.5
S'hassle'
p303
tp304
a(I109
I3
F-0.625
S'free'
p305
tp306
a(I144
I3
I0
S'large'
p307
tp308
a(I144
I3
F-0.125
S'bean'
p309
tp310
a(I148
I48
I0
S'different'
p311
tp312
a(I221
I15
F-0.625
S'free'
p313
tp314
a(I222
I5
F0.5
S'whole'
p315
tp316
a(I227
I0
I0
S'many'
p317
tp318
a(I227
I0
F-0.75
S'wrong'
p319
tp320
a(I242
I9
F1.0
S'good'
p321
tp322
a(I242
I9
I0
S'android'
p323
tp324
a(I253
I7
I0
S'incredible'
p325
tp326
a(I290
I2
F-0.875
S'awful'
p327
tp328
a(I314
I2
I0
S'incredible'
p329
tp330
a(I353
I9
F-0.25
S'google'
p331
tp332
a(I353
I49
F-0.25
S'google'
p333
tp334
as(S'case'
p335
tp336
(lp337
(I2
I0
I0
S'latest'
p338
tp339
a(I25
I2
F-0.625
S'free'
p340
tp341
a(I254
I6
F-0.25
S'thin'
p342
tp343
a(I291
I1
F0.125
S'protective'
p344
tp345
a(I305
I9
I0
S'one-off'
p346
tp347
a(I361
I16
F-0.625
S'light'
p348
tp349
a(I361
I16
F-0.25
S'thin'
p350
tp351
a(I361
I16
F0.5
S'careful'
p352
tp353
as(S'ever'
p354
tp355
(lp356
(I334
I0
F0.125
S'first'
p357
tp358
as(S'learning'
p359
S'curve'
p360
tp361
(lp362
(I289
I2
I0
S'expect'
p363
tp364
as(S'software'
p365
tp366
(lp367
(I20
I0
F1.0
S'best'
p368
tp369
a(I20
I0
F0.875
S'happy'
p370
tp371
a(I20
I0
I0
S'latest'
p372
tp373
a(I26
I2
F1.0
S'best'
p374
tp375
a(I57
I8
F-0.625
S'other'
p376
tp377
a(I107
I35
I0
S'most'
p378
tp379
a(I120
I15
I0
S'slim'
p380
tp381
a(I143
I0
I0
S'latest'
p382
tp383
a(I189
I6
I0
S'least'
p384
tp385
a(I189
I6
I0
S'different'
p386
tp387
a(I189
I8
F-0.25
S'google'
p388
tp389
a(I283
I6
I0
S'latest'
p390
tp391
a(I283
I6
F-0.125
S'bean'
p392
tp393
a(I365
I2
I0
S'next'
p394
tp395
a(I376
I1
F0.625
S'easy'
p396
tp397
as(S'anything'
p398
tp399
(lp400
(I59
I19
F-0.625
S'other'
p401
tp402
a(I114
I0
F-0.625
S'other'
p403
tp404
a(I185
I1
F1.0
S'better'
p405
tp406
a(I185
I1
F0.375
S'available'
p407
tp408
a(I242
I8
F0.625
S'easy'
p409
tp410
a(I243
I37
F0.375
S'new'
p411
tp412
a(I280
I2
F-0.125
S'wet'
p413
tp414
a(I355
I0
F-0.625
S'want'
p415
tp416
as(S'tel'
p417
S'eacute'
p418
S'fono'
p419
tp420
(lp421
(I366
I0
I0
S'gran'
p422
tp423
as(S'sim'
p424
S'card'
p425
tp426
(lp427
(I136
I15
I0
S'earlier'
p428
tp429
a(I136
I16
I0
S'same'
p430
tp431
a(I337
I7
F-0.25
S'cheaper'
p432
tp433
as(g152
S'r'
p434
S'hand'
p435
tp436
(lp437
(I59
I11
F0.125
S'able'
p438
tp439
a(I103
I6
F-0.75
S'single'
p440
tp441
a(I148
I10
F-0.625
S'other'
p442
tp443
a(I161
I8
F-0.625
S'other'
p444
tp445
a(I208
I16
F1.0
S'good'
p446
tp447
a(I314
I14
I0
S'big'
p448
tp449
a(I318
I5
F-0.75
S'comfortable'
p450
tp451
a(I345
I0
F-0.625
S'other'
p452
tp453
a(I353
I17
F0.125
S'able'
p454
tp455
as(S'charge'
p456
tp457
(lp458
(I128
I5
F-0.75
S'single'
p459
tp460
a(I196
I27
I0
S'full'
p461
tp462
as(S'however'
p463
tp464
(lp465
(I214
I5
I0
S'english'
p466
tp467
a(I360
I5
F-0.5
S'sure'
p468
tp469
as(S'ce'
p470
S'cream'
p471
S'sandwich'
p472
tp473
(lp474
(I84
I2
F0.375
S'new'
p475
tp476
a(I213
I3
F-0.375
S'smooth'
p477
tp478
as(S'2gb'
p479
S'ram'
p480
tp481
(lp482
(I187
I6
F-0.5
S'certain'
p483
tp484
as(S'on'
p485
S'galaxy'
p486
S'nexus'
p487
tp488
(lp489
(I1
I5
F0.125
g240
tp490
a(I1
I5
F0.75
g242
tp491
a(I7
I2
F0.375
S'new'
p492
tp493
a(I7
I8
F0.375
S'new'
p494
tp495
a(I7
I8
F0.5
S'clear'
p496
tp497
a(I45
I1
I0
S'cool'
p498
tp499
a(I49
I2
I0
S'least'
p500
tp501
a(I50
I0
F0.375
S'much'
p502
tp503
a(I67
I1
F1.0
S'good'
p504
tp505
a(I109
I0
I0
S'incredible'
p506
tp507
a(I113
I0
I0
S'great'
p508
tp509
a(I120
I0
F-0.5
S'international'
p510
tp511
a(I140
I3
F-0.625
g248
tp512
a(I203
I15
F0.5
S'possible'
p513
tp514
a(I208
I20
I0
S'fast'
p515
tp516
a(I208
I44
F0.625
S'decent'
p517
tp518
a(I208
I53
F1.0
S'better'
p519
tp520
a(I227
I10
I0
S'galaxy'
p521
tp522
a(I227
I10
F-0.5
S'less'
p523
tp524
a(I227
I10
I0
S'galaxy'
p525
tp526
a(I232
I0
I0
g252
tp527
a(I303
I1
F-0.375
S'top'
p528
tp529
a(I314
I23
I0
S'many'
p530
tp531
a(I314
I23
F-0.625
S'other'
p532
tp533
a(I317
I14
F0.125
S'able'
p534
tp535
a(I324
I0
I0
g258
tp536
a(I343
I25
F0.375
S'newest'
p537
tp538
a(I349
I0
F-0.625
S'other'
p539
tp540
a(I373
I0
I0
S'many'
p541
tp542
as(S'for'
p543
S'first'
p544
S'time'
p545
tp546
(lp547
(I57
I5
F0.125
S'first'
p548
tp549
a(I77
I5
F0.125
S'first'
p550
tp551
a(I97
I5
F0.125
S'first'
p552
tp553
a(I97
I5
I0
S'great'
p554
tp555
a(I188
I7
F0.125
S'first'
p556
tp557
a(I326
I0
F0.125
S'first'
p558
tp559
a(I360
I1
F0.125
S'first'
p560
tp561
as(S'good'
p562
tp563
(lp564
(I187
I6
F-0.25
S'cheapest'
p565
tp566
as(S'card'
p567
tp568
(lp569
(I97
I16
I0
S'nervous'
p570
tp571
as(g152
S'u'
p572
g262
tp573
(lp574
(I170
I66
I0
S'faster'
p575
tp576
a(I182
I0
F-0.25
S'past'
p577
tp578
a(I324
I0
I0
S'net'
p579
tp580
as(S'volume'
p581
tp582
(lp583
(I1
I3
F0.75
S'due'
p584
tp585
a(I13
I0
I0
S'more'
p586
tp587
a(I13
I0
I0
S'normal'
p588
tp589
a(I136
I9
I0
S'later'
p590
tp591
a(I136
I16
F-0.5
S'weak'
p592
tp593
a(I161
I4
F0.25
S'are'
p594
tp595
a(I317
I47
F0.875
S'happy'
p596
tp597
a(I317
I47
F0.125
S'able'
p598
tp599
as(S'wifi'
p600
tp601
(lp602
(I69
I11
F1.0
S'better'
p603
tp604
a(I107
I41
F0.375
S'extra'
p605
tp606
a(I123
I2
I0
S'mode'
p607
tp608
a(I123
I2
F-0.125
S'slow'
p609
tp610
a(I208
I40
F0.375
S'available'
p611
tp612
a(I239
I1
I0
S'normal'
p613
tp614
a(I263
I0
I0
S'cellular'
p615
tp616
a(I317
I6
F0.375
S'available'
p617
tp618
a(I357
I6
F-0.25
S'low'
p619
tp620
as(S'fast'
p621
tp622
(lp623
(I38
I0
F-0.125
S'super'
p624
tp625
a(I107
I44
F-0.375
S'crazy'
p626
tp627
a(I146
I4
I0
S'very'
p628
tp629
a(I286
I0
F0.5
S'functional'
p630
tp631
a(I323
I1
F0.75
S'beautiful'
p632
tp633
a(I323
I1
I0
S'big'
p634
tp635
a(I323
I1
F0.625
S'manageable'
p636
tp637
as(S'every'
p638
tp639
(lp640
(I69
I20
F0.375
S'new'
p641
tp642
a(I130
I0
F0.75
S'worth'
p643
tp644
as(S'happy'
p645
S'with'
p646
S'purchase'
p647
tp648
(lp649
(I15
I2
F0.875
S'happy'
p650
tp651
a(I73
I10
F0.875
S'happy'
p652
tp653
a(I159
I5
F0.875
S'happy'
p654
tp655
a(I159
I6
F0.875
S'happy'
p656
tp657
as(S'transfer'
p658
S'files'
p659
tp660
(lp661
(I324
I0
I0
S'transfer'
p662
tp663
as(S'retail'
p664
S'packaging'
p665
tp666
(lp667
(I97
I19
I0
S'retail'
p668
tp669
a(I107
I29
I0
S'retail'
p670
tp671
a(I361
I17
I0
S'retail'
p672
tp673
a(I361
I17
I0
S'retail'
p674
tp675
a(I361
I17
F-0.375
S'black'
p676
tp677
as(S'price'
p678
tp679
(lp680
(I43
I1
I0
S'great'
p681
tp682
a(I111
I3
F0.75
S'worth'
p683
tp684
a(I133
I0
I0
S'high'
p685
tp686
a(I187
I5
F-0.625
S'bad'
p687
tp688
a(I188
I14
F-0.625
S'bad'
p689
tp690
a(I197
I1
F-0.25
S'lower'
p691
tp692
a(I209
I0
F1.0
S'good'
p693
tp694
a(I213
I5
I0
S'realistic'
p695
tp696
a(I217
I0
I0
S'great'
p697
tp698
a(I255
I15
I0
S'more'
p699
tp700
a(I255
I15
F-0.375
S'small'
p701
tp702
a(I299
I9
F0.375
S'new'
p703
tp704
a(I318
I24
F-0.25
S'low'
p705
tp706
a(I328
I0
I0
S'great'
p707
tp708
a(I341
I2
F-0.25
S'lower'
p709
tp710
a(I364
I0
F-0.75
S'wrong'
p711
tp712
as(S'juice'
p713
S'defender'
p714
tp715
(lp716
(I170
I42
F-0.625
S'free'
p717
tp718
as(S'cream'
p719
S'sandwich'
p720
tp721
(lp722
(I84
I2
F0.375
g475
tp723
a(I213
I3
F-0.375
g477
tp724
as(S'gsm'
p725
S'version'
p726
tp727
(lp728
(I84
I1
F-0.25
g63
tp729
a(I84
I1
F-0.25
g65
tp730
a(I107
I38
F0.25
S'unlocked'
p731
tp732
a(I107
I38
F0.5
g81
tp733
a(I107
I42
F-0.5
S'international'
p734
tp735
a(I208
I3
F0.375
g107
tp736
a(I216
I4
F-0.375
g119
tp737
a(I262
I2
F-0.625
g127
tp738
a(I289
I3
F-0.5
S'international'
p739
tp740
as(S'a'
p741
S'little'
p742
S'bit'
p743
tp744
(lp745
(I296
I4
F-0.75
S'little'
p746
tp747
as(S'recommend'
p748
tp749
(lp750
(I358
I0
F0.25
S'sharp'
p751
tp752
as(S'product'
p753
tp754
(lp755
(I48
I0
I0
S'great'
p756
tp757
a(I74
I1
F-0.75
S'single'
p758
tp759
a(I74
I1
F1.0
S'good'
p760
tp761
a(I112
I0
I0
S'great'
p762
tp763
a(I126
I8
F0.125
S'last'
p764
tp765
a(I142
I1
I0
S'great'
p766
tp767
a(I180
I12
F-0.75
S'unreliable'
p768
tp769
a(I209
I0
F1.0
S'good'
p770
tp771
a(I263
I3
F1.0
S'good'
p772
tp773
a(I264
I1
F-0.75
S'comfortable'
p774
tp775
a(I276
I0
F-0.125
S'mine'
p776
tp777
a(I351
I6
F-0.5
S'sure'
p778
tp779
as(S'google'
p780
tp781
(lp782
(I7
I14
F0.375
S'new'
p783
tp784
a(I9
I2
I0
S'next'
p785
tp786
a(I34
I9
F0.25
S'helpful'
p787
tp788
a(I84
I9
F-0.625
S'other'
p789
tp790
a(I92
I8
F0.25
S'original'
p791
tp792
a(I115
I10
F-0.5
S'actual'
p793
tp794
a(I138
I1
F0.25
S'used'
p795
tp796
a(I170
I67
F-0.25
S'direct'
p797
tp798
a(I196
I1
F0.125
S'first'
p799
tp800
a(I314
I10
F1.0
S'best'
p801
tp802
a(I317
I16
F0.5
S'accurate'
p803
tp804
a(I317
I21
F0.625
S'aware'
p805
tp806
a(I341
I28
F-0.25
S'past'
p807
tp808
a(I341
I28
I0
S'initial'
p809
tp810
a(I343
I9
F0.125
S'popular'
p811
tp812
a(I353
I30
I0
S'most'
p813
tp814
a(I353
I30
F-0.125
S'present'
p815
tp816
a(I353
I47
F0.375
S'new'
p817
tp818
a(I368
I5
I0
S'next'
p819
tp820
as(S'from'
p821
S'google'
p822
S'play'
p823
tp824
(lp825
(I47
I1
F-0.25
S'google'
p826
tp827
a(I76
I5
F-0.25
S'google'
p828
tp829
a(I227
I1
F-0.25
S'google'
p830
tp831
a(I232
I0
F-0.25
S'google'
p832
tp833
a(I317
I14
F-0.25
S'google'
p834
tp835
a(I349
I5
F-0.25
S'google'
p836
tp837
a(I349
I5
F-0.25
S'late'
p838
tp839
as(S'power'
p840
tp841
(lp842
(I170
I43
I0
S'valuable'
p843
tp844
a(I205
I12
I0
S'brazilian'
p845
tp846
a(I248
I6
I0
S'different'
p847
tp848
a(I256
I16
I0
S'high'
p849
tp850
a(I256
I23
I0
S'faster'
p851
tp852
a(I280
I5
F1.0
S'good'
p853
tp854
a(I318
I17
I0
S'more'
p855
tp856
as(S'an'
p857
S'extended'
p858
S'battery'
p859
tp860
(lp861
(I40
I1
F0.625
S'sexy'
p862
tp863
a(I40
I1
F0.375
S'extended'
p864
tp865
a(I107
I25
F0.625
S'removable'
p866
tp867
a(I107
I25
F0.375
S'extended'
p868
tp869
a(I203
I21
F0.375
S'extended'
p870
tp871
a(I243
I10
F0.375
S'available'
p872
tp873
a(I243
I10
I0
S'overseas'
p874
tp875
a(I325
I3
F0.375
S'extended'
p876
tp877
a(I375
I6
F0.375
S'extended'
p878
tp879
as(g741
S'long'
p880
S'time'
p881
tp882
(lp883
(I5
I5
F-0.5
S'long'
p884
tp885
a(I34
I4
F-0.5
S'long'
p886
tp887
a(I117
I0
F-0.5
S'long'
p888
tp889
a(I117
I0
I0
S'stable'
p890
tp891
a(I120
I12
F-0.5
S'long'
p892
tp893
a(I130
I6
F-0.5
S'long'
p894
tp895
a(I172
I2
F-0.5
S'long'
p896
tp897
a(I196
I18
F-0.5
S'longest'
p898
tp899
a(I240
I6
F-0.5
S'long'
p900
tp901
a(I290
I4
F-0.5
S'long'
p902
tp903
a(I290
I4
I0
S'recharged'
p904
tp905
a(I322
I1
F-0.5
S'long'
p906
tp907
a(I322
I1
F-0.25
S'google'
p908
tp909
a(I326
I7
F-0.5
S'long'
p910
tp911
as(S'android'
p912
tp913
(lp914
(I22
I0
F1.0
S'best'
p915
tp916
a(I37
I2
F-0.375
S'top'
p917
tp918
a(I69
I0
F-0.125
S'former'
p919
tp920
a(I69
I2
F1.0
S'best'
p921
tp922
a(I69
I9
F0.375
S'new'
p923
tp924
a(I72
I0
F0.125
S'first'
p925
tp926
a(I76
I4
F0.125
S'first'
p927
tp928
a(I93
I0
F0.125
S'first'
p929
tp930
a(I107
I0
F1.0
S'best'
p931
tp932
a(I107
I22
F0.125
S'first'
p933
tp934
a(I109
I1
F0.125
S'last'
p935
tp936
a(I120
I11
I0
S'least'
p937
tp938
a(I142
I0
F0.125
S'first'
p939
tp940
a(I147
I0
F1.0
S'best'
p941
tp942
a(I159
I6
F1.0
S'best'
p943
tp944
a(I172
I3
I0
S'standard'
p945
tp946
a(I187
I8
I0
S'full'
p947
tp948
a(I213
I4
F1.0
S'best'
p949
tp950
a(I250
I2
F-0.375
S'smoothest'
p951
tp952
a(I250
I2
F0.375
S'reliable'
p953
tp954
a(I251
I0
F1.0
S'best'
p955
tp956
a(I283
I3
F-0.125
S'bean'
p957
tp958
a(I296
I0
F1.0
S'best'
p959
tp960
a(I318
I3
F0.125
S'first'
p961
tp962
a(I335
I14
I0
S'only'
p963
tp964
a(I341
I42
F1.0
S'best'
p965
tp966
a(I353
I60
I0
S'next'
p967
tp968
a(I355
I1
F1.0
S'best'
p969
tp970
a(I371
I5
F0.375
S'new'
p971
tp972
as(S'updates'
p973
tp974
(lp975
(I5
I4
I0
S'great'
p976
tp977
a(I7
I37
I0
S'android'
p978
tp979
a(I10
I10
I0
S'android'
p980
tp981
a(I16
I1
F-0.25
S'google'
p982
tp983
a(I62
I15
F-0.25
S'google'
p984
tp985
a(I76
I2
F0.625
S'major'
p986
tp987
a(I94
I3
I0
S'latest'
p988
tp989
a(I94
I3
F0.375
S'available'
p990
tp991
a(I102
I1
F-0.25
S'google'
p992
tp993
a(I102
I3
I0
S'slower'
p994
tp995
a(I107
I5
I0
S'instant'
p996
tp997
a(I107
I5
F-0.25
S'google'
p998
tp999
a(I107
I35
F-0.25
S'google'
p1000
tp1001
a(I115
I3
I0
S'latest'
p1002
tp1003
a(I115
I3
F-0.25
S'google'
p1004
tp1005
a(I115
I7
F-0.125
S'future'
p1006
tp1007
a(I122
I3
F0.75
S'receive'
p1008
tp1009
a(I122
I3
F-0.25
S'google'
p1010
tp1011
a(I140
I2
I0
S'android'
p1012
tp1013
a(I189
I6
F-0.25
S'google'
p1014
tp1015
a(I189
I7
F-0.625
S'unclear'
p1016
tp1017
a(I194
I3
I0
S'android'
p1018
tp1019
a(I200
I2
I0
S'android'
p1020
tp1021
a(I208
I54
I0
S'faster'
p1022
tp1023
a(I219
I0
F-0.25
S'direct'
p1024
tp1025
a(I220
I2
I0
S'android'
p1026
tp1027
a(I220
I2
F-0.25
S'google'
p1028
tp1029
a(I283
I2
F-0.25
S'google'
p1030
tp1031
a(I290
I3
I0
S'android'
p1032
tp1033
a(I290
I3
F-0.25
S'google'
p1034
tp1035
a(I290
I3
F0.375
S'newest'
p1036
tp1037
a(I314
I7
I0
S'android'
p1038
tp1039
a(I314
I8
F-0.25
S'google'
p1040
tp1041
a(I314
I21
F-0.25
S'direct'
p1042
tp1043
a(I314
I21
I0
S'android'
p1044
tp1045
a(I314
I21
F-0.25
S'google'
p1046
tp1047
a(I314
I25
F-0.25
S'google'
p1048
tp1049
a(I325
I2
I0
S'android'
p1050
tp1051
a(I343
I11
I0
S'latest'
p1052
tp1053
a(I349
I4
F-0.25
S'google'
p1054
tp1055
a(I353
I5
I0
S'latest'
p1056
tp1057
a(I353
I5
F-0.25
S'google'
p1058
tp1059
a(I375
I3
I0
S'latest'
p1060
tp1061
as(S'nexus'
p1062
tp1063
(lp1064
(I1
I5
F0.75
g242
tp1065
a(I7
I2
F0.375
g492
tp1066
a(I7
I8
F0.5
g496
tp1067
a(I7
I30
F0.375
S'available'
p1068
tp1069
a(I9
I0
F0.875
S'happy'
p1070
tp1071
a(I40
I1
F-0.25
S'google'
p1072
tp1073
a(I49
I2
I0
g500
tp1074
a(I77
I0
F1.0
S'best'
p1075
tp1076
a(I80
I1
I0
S'third'
p1077
tp1078
a(I87
I1
F0.375
S'much'
p1079
tp1080
a(I109
I0
I0
g506
tp1081
a(I118
I6
F1.0
S'better'
p1082
tp1083
a(I120
I8
F-0.5
S'less'
p1084
tp1085
a(I120
I16
F-0.5
S'less'
p1086
tp1087
a(I130
I5
F0.25
S'unlocked'
p1088
tp1089
a(I140
I3
F-0.625
g248
tp1090
a(I141
I0
I0
S'galaxy'
p1091
tp1092
a(I146
I4
F1.0
S'better'
p1093
tp1094
a(I171
I8
I0
S'plate'
p1095
tp1096
a(I171
I8
F0.5
S'stronger'
p1097
tp1098
a(I196
I17
F-0.25
S'google'
p1099
tp1100
a(I196
I27
F-0.25
S'google'
p1101
tp1102
a(I196
I27
F-0.25
S'google'
p1103
tp1104
a(I196
I31
F-0.25
S'google'
p1105
tp1106
a(I199
I4
F-0.25
S'google'
p1107
tp1108
a(I203
I15
F0.5
g513
tp1109
a(I205
I6
I0
S'next'
p1110
tp1111
a(I208
I53
F1.0
g519
tp1112
a(I227
I10
I0
g521
tp1113
a(I227
I10
F-0.5
g523
tp1114
a(I227
I10
I0
g525
tp1115
a(I229
I0
F-0.25
S'google'
p1116
tp1117
a(I232
I0
I0
g252
tp1118
a(I242
I0
F-0.25
S'ready'
p1119
tp1120
a(I252
I0
I0
S'more'
p1121
tp1122
a(I252
I0
F-0.25
S'google'
p1123
tp1124
a(I290
I2
F0.25
S'familiar'
p1125
tp1126
a(I324
I0
I0
g258
tp1127
a(I325
I1
I0
S'hot'
p1128
tp1129
a(I329
I1
F0.125
S'able'
p1130
tp1131
a(I343
I4
F1.0
S'good'
p1132
tp1133
a(I343
I7
F-0.625
S'other'
p1134
tp1135
a(I353
I33
F0.125
S'first'
p1136
tp1137
a(I353
I60
F0.5
S'compatible'
p1138
tp1139
a(I353
I60
I0
S'galaxy'
p1140
tp1141
a(I357
I2
F1.0
S'better'
p1142
tp1143
a(I357
I2
F-0.125
S'bean'
p1144
tp1145
a(I367
I0
F0.25
S'unlocked'
p1146
tp1147
as(S'directly'
p1148
S'from'
p1149
S'google'
p1150
tp1151
(lp1152
(I115
I10
F-0.5
g793
tp1153
as(S'sd'
p1154
S'card'
p1155
S'slot'
p1156
tp1157
(lp1158
(I62
I11
I0
S'external'
p1159
tp1160
a(I97
I16
I0
g570
tp1161
a(I187
I3
I0
S'more'
p1162
tp1163
as(S'galaxy'
p1164
g262
S'ii'
p1165
tp1166
(lp1167
(I18
I13
F0.375
S'new'
p1168
tp1169
a(I115
I2
F-0.125
S'former'
p1170
tp1171
as(S'thing'
p1172
tp1173
(lp1174
(I1
I4
I0
S'exact'
p1175
tp1176
a(I34
I9
I0
S'only'
p1177
tp1178
a(I36
I0
I0
S'only'
p1179
tp1180
a(I38
I1
I0
S'slowest'
p1181
tp1182
a(I46
I2
F-0.625
S'bad'
p1183
tp1184
a(I46
I2
I0
S'hot'
p1185
tp1186
a(I52
I3
F0.125
S'first'
p1187
tp1188
a(I52
I4
I0
S'big'
p1189
tp1190
a(I64
I1
F0.375
S'available'
p1191
tp1192
a(I64
I1
I0
S'great'
p1193
tp1194
a(I69
I14
I0
S'slower'
p1195
tp1196
a(I92
I10
F0.125
S'first'
p1197
tp1198
a(I107
I27
I0
S'only'
p1199
tp1200
a(I109
I2
F0.25
S'biggest'
p1201
tp1202
a(I124
I8
I0
S'big'
p1203
tp1204
a(I143
I0
F-0.625
S'bad'
p1205
tp1206
a(I149
I10
I0
S'android'
p1207
tp1208
a(I151
I1
I0
S'great'
p1209
tp1210
a(I151
I1
I0
S'only'
p1211
tp1212
a(I160
I2
I0
S'only'
p1213
tp1214
a(I168
I1
I0
S'only'
p1215
tp1216
a(I168
I1
F0.875
S'happy'
p1217
tp1218
a(I170
I15
I0
S'same'
p1219
tp1220
a(I196
I31
I0
S'same'
p1221
tp1222
a(I206
I3
I0
S'such'
p1223
tp1224
a(I222
I4
I0
S'third'
p1225
tp1226
a(I237
I0
I0
S'only'
p1227
tp1228
a(I249
I1
F-0.875
S'hardest'
p1229
tp1230
a(I265
I1
F1.0
S'good'
p1231
tp1232
a(I273
I4
F0.5
S'second'
p1233
tp1234
a(I283
I2
F-0.625
S'other'
p1235
tp1236
a(I291
I1
F-0.625
S'other'
p1237
tp1238
a(I317
I19
I0
S'only'
p1239
tp1240
a(I317
I52
F-0.625
S'other'
p1241
tp1242
a(I333
I19
I0
S'only'
p1243
tp1244
a(I335
I17
F1.0
S'best'
p1245
tp1246
a(I344
I1
I0
S'only'
p1247
tp1248
a(I361
I12
F0.5
S'whole'
p1249
tp1250
a(I369
I0
I0
S'only'
p1251
tp1252
a(I369
I0
F0.125
S'able'
p1253
tp1254
a(I371
I5
F1.0
S'good'
p1255
tp1256
as(S'16'
p1257
S'gb'
p1258
tp1259
(lp1260
(I342
I0
F0.5
S'buy'
p1261
tp1262
as(S'9250'
p1263
S'galaxy'
p1264
S'nexus'
p1265
tp1266
(lp1267
(I120
I0
F-0.5
g510
tp1268
a(I324
I0
I0
g258
tp1269
as(S'size'
p1270
tp1271
(lp1272
(I7
I25
F1.0
S'good'
p1273
tp1274
a(I68
I1
I0
S'great'
p1275
tp1276
a(I103
I7
I0
S'large'
p1277
tp1278
a(I196
I10
I0
S'same'
p1279
tp1280
a(I216
I3
I0
S'full'
p1281
tp1282
a(I255
I15
F-0.75
S'difficult'
p1283
tp1284
a(I280
I5
F1.0
S'good'
p1285
tp1286
a(I312
I2
I0
S'big'
p1287
tp1288
a(I335
I11
F0.625
S'perfect'
p1289
tp1290
a(I346
I1
F0.875
S'nice'
p1291
tp1292
a(I368
I0
F0.625
S'easy'
p1293
tp1294
as(S'make'
p1295
tp1296
(lp1297
(I355
I0
F-0.25
S'google'
p1298
tp1299
as(S'work'
p1300
tp1301
(lp1302
(I320
I3
F-0.75
S'difficult'
p1303
tp1304
as(S'battery'
p1305
S'life'
p1306
tp1307
(lp1308
(I2
I0
F0.75
S'due'
p1309
tp1310
a(I7
I30
F1.0
S'good'
p1311
tp1312
a(I33
I1
F0.875
S'nice'
p1313
tp1314
a(I40
I1
F0.625
g862
tp1315
a(I40
I1
I0
S'standard'
p1316
tp1317
a(I40
I1
F0.375
g864
tp1318
a(I45
I1
I0
S'fast'
p1319
tp1320
a(I56
I4
I0
S'big'
p1321
tp1322
a(I68
I2
F0.5
S'so-so'
p1323
tp1324
a(I83
I1
I0
S'great'
p1325
tp1326
a(I92
I3
F-0.75
S'short'
p1327
tp1328
a(I92
I4
I0
S'faster'
p1329
tp1330
a(I107
I23
F1.0
S'good'
p1331
tp1332
a(I107
I25
F0.625
g866
tp1333
a(I107
I25
F0.375
g868
tp1334
a(I114
I2
I0
S'great'
p1335
tp1336
a(I128
I3
F-0.625
S'free'
p1337
tp1338
a(I128
I3
F0.625
S'easy'
p1339
tp1340
a(I128
I3
I0
S'least'
p1341
tp1342
a(I136
I14
F1.0
S'good'
p1343
tp1344
a(I166
I2
F-0.5
S'poor'
p1345
tp1346
a(I170
I17
F-0.5
S'longer'
p1347
tp1348
a(I203
I17
F-0.5
S'poor'
p1349
tp1350
a(I227
I6
F1.0
S'good'
p1351
tp1352
a(I240
I2
I0
S'great'
p1353
tp1354
a(I241
I5
I0
S'great'
p1355
tp1356
a(I266
I2
I0
S'great'
p1357
tp1358
a(I284
I5
F-0.625
S'average'
p1359
tp1360
a(I300
I2
F1.0
S'good'
p1361
tp1362
a(I301
I2
F0.625
S'acceptable'
p1363
tp1364
a(I334
I1
F-0.875
S'awful'
p1365
tp1366
a(I342
I0
F0.125
S'last'
p1367
tp1368
a(I343
I17
F0.625
S'add'
p1369
tp1370
a(I343
I22
F1.0
S'better'
p1371
tp1372
a(I375
I3
I0
S'great'
p1373
tp1374
as(S'problem'
p1375
tp1376
(lp1377
(I34
I7
F0.375
S'new'
p1378
tp1379
a(I65
I0
I0
S'common'
p1380
tp1381
a(I71
I1
I0
S'only'
p1382
tp1383
a(I136
I6
I0
S'common'
p1384
tp1385
a(I144
I4
F0.25
S'biggest'
p1386
tp1387
a(I173
I1
I0
S'general'
p1388
tp1389
a(I173
I4
F0.75
S'due'
p1390
tp1391
a(I184
I0
I0
S'only'
p1392
tp1393
a(I185
I3
F-0.75
S'single'
p1394
tp1395
a(I187
I3
F0.625
S'major'
p1396
tp1397
a(I206
I1
I0
S'android'
p1398
tp1399
a(I216
I6
I0
S'only'
p1400
tp1401
a(I239
I1
F0.5
S'heat'
p1402
tp1403
a(I285
I0
F0.875
S'happy'
p1404
tp1405
a(I294
I2
I0
S'only'
p1406
tp1407
a(I324
I0
I0
S'common'
p1408
tp1409
a(I341
I50
I0
S'only'
p1410
tp1411
a(I353
I34
I0
S'big'
p1412
tp1413
as(S'pure'
p1414
S'google'
p1415
S'experience'
p1416
tp1417
(lp1418
(I33
I1
I0
g285
tp1419
a(I93
I0
I0
g299
tp1420
a(I221
I15
F-0.625
g313
tp1421
as(S'came'
p1422
tp1423
(lp1424
(I314
I17
F1.0
S'best'
p1425
tp1426
a(I344
I0
I0
S'great'
p1427
tp1428
a(I344
I0
I0
S'latest'
p1429
tp1430
a(I344
I0
I0
S'android'
p1431
tp1432
as(S'jelly'
p1433
S'bean'
p1434
tp1435
(lp1436
(I120
I13
I0
S'android'
p1437
tp1438
as(S'back'
p1439
tp1440
(lp1441
(I139
I1
F0.625
S'removable'
p1442
tp1443
a(I188
I14
I0
S'more'
p1444
tp1445
a(I188
I14
I0
S'least'
p1446
tp1447
as(S'with'
p1448
S'one'
p1449
S'hand'
p1450
tp1451
(lp1452
(I59
I11
F0.125
g438
tp1453
a(I103
I6
F-0.75
g440
tp1454
a(I161
I8
F-0.625
g444
tp1455
a(I353
I17
F0.125
g454
tp1456
as(S'life'
p1457
tp1458
(lp1459
(I2
I0
F0.75
g1309
tp1460
a(I40
I1
I0
g1316
tp1461
a(I45
I1
I0
g1319
tp1462
a(I57
I2
F0.125
S'able'
p1463
tp1464
a(I68
I2
F0.5
g1323
tp1465
a(I83
I1
I0
g1325
tp1466
a(I92
I3
F-0.75
g1327
tp1467
a(I107
I23
F1.0
g1331
tp1468
a(I136
I14
F1.0
g1343
tp1469
a(I170
I17
F-0.5
g1347
tp1470
a(I203
I17
F-0.5
g1349
tp1471
a(I284
I5
F-0.625
g1359
tp1472
a(I301
I2
F0.625
g1363
tp1473
a(I334
I1
F-0.875
g1365
tp1474
a(I343
I17
F0.625
g1369
tp1475
a(I375
I3
I0
g1373
tp1476
as(S'best'
p1477
tp1478
(lp1479
(I335
I9
I0
S'full'
p1480
tp1481
as(S'display'
p1482
tp1483
(lp1484
(I2
I0
I0
S'big'
p1485
tp1486
a(I4
I1
F1.0
S'good'
p1487
tp1488
a(I10
I33
F0.875
S'nice'
p1489
tp1490
a(I33
I1
F0.5
S'clear'
p1491
tp1492
a(I67
I2
F-0.5
S'less'
p1493
tp1494
a(I67
I2
F-0.75
S'likely'
p1495
tp1496
a(I73
I7
I0
S'big'
p1497
tp1498
a(I82
I7
F0.25
S'bigger'
p1499
tp1500
a(I148
I9
F-0.125
S'super'
p1501
tp1502
a(I175
I1
F0.125
S'equal'
p1503
tp1504
a(I187
I4
I0
S'great'
p1505
tp1506
a(I197
I0
I0
S'big'
p1507
tp1508
a(I200
I3
F0.25
S'sharp'
p1509
tp1510
a(I200
I5
F-0.75
S'dark'
p1511
tp1512
a(I240
I2
I0
S'incredible'
p1513
tp1514
a(I376
I0
F-0.375
S'small'
p1515
tp1516
as(S'battery'
p1517
tp1518
(lp1519
(I7
I29
I0
S'big'
p1520
tp1521
a(I7
I30
F1.0
g1311
tp1522
a(I33
I1
F0.875
g1313
tp1523
a(I40
I1
F0.625
g862
tp1524
a(I40
I1
F0.375
g864
tp1525
a(I44
I0
F-0.625
S'bad'
p1526
tp1527
a(I44
I1
F0.375
S'new'
p1528
tp1529
a(I56
I4
I0
g1321
tp1530
a(I66
I0
F-0.625
S'other'
p1531
tp1532
a(I68
I6
F-0.75
S'wrong'
p1533
tp1534
a(I92
I4
I0
g1329
tp1535
a(I93
I2
F0.125
S'able'
p1536
tp1537
a(I97
I13
F-0.625
S'other'
p1538
tp1539
a(I100
I0
F1.0
S'good'
p1540
tp1541
a(I100
I0
I0
S'soft'
p1542
tp1543
a(I104
I5
F0.375
S'new'
p1544
tp1545
a(I107
I25
F0.625
g866
tp1546
a(I107
I25
F0.375
g868
tp1547
a(I114
I2
I0
g1335
tp1548
a(I128
I3
F-0.625
g1337
tp1549
a(I128
I3
F0.625
g1339
tp1550
a(I128
I3
I0
g1341
tp1551
a(I138
I3
F0.25
S'larger'
p1552
tp1553
a(I166
I2
F-0.5
g1345
tp1554
a(I170
I74
F-0.5
S'sure'
p1555
tp1556
a(I170
I74
F0.25
S'original'
p1557
tp1558
a(I170
I74
I0
S'anymore'
p1559
tp1560
a(I181
I3
F-0.625
S'average'
p1561
tp1562
a(I187
I3
F0.625
S'removable'
p1563
tp1564
a(I203
I21
F0.375
g870
tp1565
a(I227
I6
F1.0
g1351
tp1566
a(I240
I2
I0
g1353
tp1567
a(I241
I5
I0
g1355
tp1568
a(I242
I5
F0.375
S'extended'
p1569
tp1570
a(I242
I5
I0
S'later'
p1571
tp1572
a(I243
I10
F0.375
g872
tp1573
a(I243
I10
I0
g874
tp1574
a(I266
I2
I0
g1357
tp1575
a(I284
I8
F0.5
S'second'
p1576
tp1577
a(I294
I1
F0.625
S'replaceable'
p1578
tp1579
a(I300
I2
F1.0
g1361
tp1580
a(I310
I8
F-0.25
S'anemic'
p1581
tp1582
a(I317
I56
F0.125
S'capable'
p1583
tp1584
a(I321
I7
F1.0
S'better'
p1585
tp1586
a(I321
I7
I0
S'common'
p1587
tp1588
a(I325
I2
F0.125
S'impressive'
p1589
tp1590
a(I325
I2
F0.25
S'larger'
p1591
tp1592
a(I325
I3
F0.375
g876
tp1593
a(I335
I3
F-0.25
S'thin'
p1594
tp1595
a(I342
I0
F0.125
g1367
tp1596
a(I343
I13
F0.375
S'extra'
p1597
tp1598
a(I343
I22
F1.0
g1371
tp1599
a(I353
I36
F0.625
S'removable'
p1600
tp1601
a(I353
I46
F0.625
S'removable'
p1602
tp1603
a(I375
I6
F0.375
g878
tp1604
a(I376
I4
F0.125
S'last'
p1605
tp1606
a(I376
I4
F0.375
S'much'
p1607
tp1608
as(g741
S'galaxy'
p1609
S'nexus'
p1610
tp1611
(lp1612
(I1
I5
F0.125
g240
tp1613
a(I1
I5
F0.75
g242
tp1614
a(I7
I2
F0.375
g492
tp1615
a(I7
I8
F0.375
g494
tp1616
a(I7
I8
F0.5
g496
tp1617
a(I18
I13
F0.375
g1168
tp1618
a(I45
I1
I0
g498
tp1619
a(I49
I2
I0
g500
tp1620
a(I50
I0
F0.375
g502
tp1621
a(I67
I1
F1.0
g504
tp1622
a(I109
I0
I0
g506
tp1623
a(I113
I0
I0
g508
tp1624
a(I120
I0
F-0.5
g510
tp1625
a(I120
I16
F-0.5
g1086
tp1626
a(I140
I3
F-0.625
g248
tp1627
a(I141
I0
I0
g1091
tp1628
a(I182
I1
F1.0
S'best'
p1629
tp1630
a(I203
I15
F0.5
g513
tp1631
a(I208
I20
I0
g515
tp1632
a(I208
I44
F0.625
g517
tp1633
a(I208
I53
F1.0
g519
tp1634
a(I227
I10
I0
g521
tp1635
a(I227
I10
F-0.5
g523
tp1636
a(I227
I10
I0
g525
tp1637
a(I232
I0
I0
g252
tp1638
a(I303
I1
F-0.375
g528
tp1639
a(I314
I23
I0
g530
tp1640
a(I314
I23
F-0.625
g532
tp1641
a(I317
I14
F0.125
g534
tp1642
a(I324
I0
I0
g258
tp1643
a(I343
I25
F0.375
g537
tp1644
a(I349
I0
F-0.625
g539
tp1645
a(I353
I60
F0.5
g1138
tp1646
a(I353
I60
I0
g1140
tp1647
a(I353
I63
F0.375
S'available'
p1648
tp1649
a(I373
I0
I0
g541
tp1650
as(S'awesome'
p1651
tp1652
(lp1653
(I68
I2
F0.625
S'straight'
p1654
tp1655
a(I241
I5
I0
S'fast'
p1656
tp1657
as(S'samsung'
p1658
S'galaxy'
p1659
tp1660
(lp1661
(I1
I5
F0.125
g240
tp1662
a(I76
I15
I0
g244
tp1663
a(I76
I15
F0.375
g246
tp1664
a(I227
I7
F0.375
g250
tp1665
a(I288
I14
I0
g254
tp1666
a(I310
I0
F-0.125
g256
tp1667
as(g741
S'nexus'
p1668
S'device'
p1669
tp1670
(lp1671
(I41
I0
F1.0
S'best'
p1672
tp1673
a(I41
I0
I0
S'android'
p1674
tp1675
a(I57
I10
F0.375
S'new'
p1676
tp1677
a(I120
I16
F-0.5
g1086
tp1678
a(I290
I2
F0.25
g1125
tp1679
a(I324
I0
I0
g258
tp1680
a(I353
I33
F0.125
g1136
tp1681
a(I367
I0
F0.25
g1146
tp1682
as(S'update'
p1683
tp1684
(lp1685
(I77
I5
I0
S'automatic'
p1686
tp1687
a(I95
I2
I0
S'automatic'
p1688
tp1689
a(I115
I5
F-0.375
S'manual'
p1690
tp1691
a(I115
I11
I0
S'latest'
p1692
tp1693
a(I120
I11
F0.125
S'last'
p1694
tp1695
a(I126
I3
I0
S'android'
p1696
tp1697
a(I149
I13
F-0.125
S'bean'
p1698
tp1699
a(I246
I2
I0
S'next'
p1700
tp1701
a(I246
I2
I0
S'android'
p1702
tp1703
a(I252
I1
F0.125
S'last'
p1704
tp1705
a(I270
I4
F0.125
S'last'
p1706
tp1707
a(I353
I63
F0.125
S'last'
p1708
tp1709
as(S'time'
p1710
tp1711
(lp1712
(I1
I8
I0
S'next'
p1713
tp1714
a(I5
I5
F-0.5
g884
tp1715
a(I7
I21
I0
S'same'
p1716
tp1717
a(I10
I44
I0
S'same'
p1718
tp1719
a(I10
I44
F0.875
S'nice'
p1720
tp1721
a(I10
I45
I0
S'same'
p1722
tp1723
a(I12
I0
F1.0
S'good'
p1724
tp1725
a(I34
I4
F-0.5
g886
tp1726
a(I57
I5
F0.125
g548
tp1727
a(I77
I5
F0.125
g550
tp1728
a(I97
I5
F0.125
g552
tp1729
a(I97
I5
I0
g554
tp1730
a(I107
I40
F-0.875
S'hard'
p1731
tp1732
a(I117
I0
F-0.5
g888
tp1733
a(I117
I0
I0
g890
tp1734
a(I120
I12
F-0.5
g892
tp1735
a(I128
I8
F0.125
S'first'
p1736
tp1737
a(I130
I6
F-0.5
g894
tp1738
a(I146
I1
I0
S'non-issue'
p1739
tp1740
a(I170
I59
I0
S'real'
p1741
tp1742
a(I171
I11
F0.125
S'fellow'
p1743
tp1744
a(I172
I2
F-0.5
g896
tp1745
a(I188
I7
F0.125
g556
tp1746
a(I188
I21
I0
S'more'
p1747
tp1748
a(I196
I18
F-0.5
g898
tp1749
a(I240
I6
F-0.5
g900
tp1750
a(I255
I11
I0
S'same'
p1751
tp1752
a(I255
I11
I0
S'general'
p1753
tp1754
a(I275
I6
F0.125
S'enough'
p1755
tp1756
a(I290
I4
F-0.5
g902
tp1757
a(I290
I4
I0
g904
tp1758
a(I322
I1
F-0.5
g906
tp1759
a(I322
I1
F-0.25
g908
tp1760
a(I326
I0
F0.125
g558
tp1761
a(I326
I7
F-0.5
g910
tp1762
a(I353
I42
F0.375
S'similar'
p1763
tp1764
a(I353
I51
F-0.5
S'sure'
p1765
tp1766
a(I355
I0
I0
S'earlier'
p1767
tp1768
a(I360
I1
F0.125
g560
tp1769
a(I360
I3
F0.5
S'second'
p1770
tp1771
as(g152
S'any'
p1772
S'way'
p1773
tp1774
(lp1775
(I1
I11
I0
S'great'
p1776
tp1777
a(I90
I2
I0
S'only'
p1778
tp1779
a(I159
I4
F0.375
S'extra'
p1780
tp1781
as(S'version'
p1782
S'of'
p1783
S'android'
p1784
tp1785
(lp1786
(I7
I5
I0
g41
tp1787
a(I7
I5
I0
g43
tp1788
a(I10
I10
F0.75
g45
tp1789
a(I28
I3
I0
g47
tp1790
a(I76
I6
F0.375
g57
tp1791
a(I76
I6
I0
g59
tp1792
a(I107
I5
I0
g75
tp1793
a(I107
I5
I0
g77
tp1794
a(I107
I11
I0
g79
tp1795
a(I148
I18
F-0.5
g89
tp1796
a(I202
I4
I0
g103
tp1797
a(I202
I4
I0
g105
tp1798
a(I208
I19
F1.0
g109
tp1799
a(I208
I19
I0
g111
tp1800
a(I208
I19
F-0.25
g113
tp1801
a(I208
I53
I0
g115
tp1802
a(I208
I53
I0
g117
tp1803
a(I281
I1
F0.375
g129
tp1804
a(I283
I3
F-0.125
g957
tp1805
a(I330
I13
I0
g131
tp1806
a(I330
I13
I0
g133
tp1807
a(I330
I13
F0.375
g135
tp1808
a(I354
I1
F0.375
g143
tp1809
a(I354
I1
I0
g145
tp1810
a(I354
I2
F0.375
g147
tp1811
as(S'support'
p1812
tp1813
(lp1814
(I18
I12
F-0.25
S'google'
p1815
tp1816
a(I94
I3
I0
S'great'
p1817
tp1818
a(I94
I3
F-0.25
S'google'
p1819
tp1820
a(I116
I3
F-0.625
S'other'
p1821
tp1822
a(I351
I5
F-0.5
S'sure'
p1823
tp1824
as(S'months'
p1825
tp1826
(lp1827
(I1
I7
I0
S'few'
p1828
tp1829
a(I93
I2
F-0.25
S'past'
p1830
tp1831
a(I93
I2
I0
S'great'
p1832
tp1833
a(I170
I56
F0.125
S'last'
p1834
tp1835
a(I170
I56
I0
S'few'
p1836
tp1837
a(I178
I4
I0
S'later'
p1838
tp1839
a(I187
I0
I0
S'few'
p1840
tp1841
a(I317
I8
I0
S'few'
p1842
tp1843
a(I341
I50
I0
S'more'
p1844
tp1845
a(I342
I0
I0
S'more'
p1846
tp1847
a(I354
I2
I0
S'later'
p1848
tp1849
a(I374
I0
F-0.5
S'less'
p1850
tp1851
as(S'battery'
p1852
S'life'
p1853
S't'
p1854
tp1855
(lp1856
(I2
I0
F0.75
g1309
tp1857
a(I7
I30
F1.0
g1311
tp1858
a(I33
I1
F0.875
g1313
tp1859
a(I40
I1
F0.625
g862
tp1860
a(I40
I1
I0
g1316
tp1861
a(I40
I1
F0.375
g864
tp1862
a(I45
I1
I0
g1319
tp1863
a(I56
I4
I0
g1321
tp1864
a(I68
I2
F0.5
g1323
tp1865
a(I83
I1
I0
g1325
tp1866
a(I92
I3
F-0.75
g1327
tp1867
a(I92
I4
I0
g1329
tp1868
a(I107
I23
F1.0
g1331
tp1869
a(I107
I25
F0.625
g866
tp1870
a(I107
I25
F0.375
g868
tp1871
a(I114
I2
I0
g1335
tp1872
a(I128
I3
F-0.625
g1337
tp1873
a(I128
I3
F0.625
g1339
tp1874
a(I128
I3
I0
g1341
tp1875
a(I136
I14
F1.0
g1343
tp1876
a(I166
I2
F-0.5
g1345
tp1877
a(I170
I17
F-0.5
g1347
tp1878
a(I203
I17
F-0.5
g1349
tp1879
a(I227
I6
F1.0
g1351
tp1880
a(I240
I2
I0
g1353
tp1881
a(I241
I5
I0
g1355
tp1882
a(I266
I2
I0
g1357
tp1883
a(I284
I5
F-0.625
g1359
tp1884
a(I300
I2
F1.0
g1361
tp1885
a(I301
I2
F0.625
g1363
tp1886
a(I334
I1
F-0.875
g1365
tp1887
a(I342
I0
F0.125
g1367
tp1888
a(I343
I17
F0.625
g1369
tp1889
a(I343
I22
F1.0
g1371
tp1890
a(I375
I3
I0
g1373
tp1891
as(S'google'
p1892
S'play'
p1893
tp1894
(lp1895
(I47
I1
F-0.25
g826
tp1896
a(I58
I0
F-0.25
S'google'
p1897
tp1898
a(I76
I5
F-0.25
g828
tp1899
a(I227
I1
F-0.25
g830
tp1900
a(I232
I0
F-0.25
g832
tp1901
a(I314
I24
F-0.25
S'google'
p1902
tp1903
a(I317
I14
F-0.25
g834
tp1904
a(I349
I5
F-0.25
g836
tp1905
a(I349
I5
F-0.25
g838
tp1906
as(S'updates'
p1907
S'from'
p1908
S'google'
p1909
tp1910
(lp1911
(I16
I1
F-0.25
g982
tp1912
a(I94
I3
I0
g988
tp1913
a(I94
I3
F0.375
g990
tp1914
a(I102
I1
F-0.25
g992
tp1915
a(I107
I5
I0
g996
tp1916
a(I107
I5
F-0.25
g998
tp1917
a(I107
I35
F-0.25
g1000
tp1918
a(I115
I3
I0
g1002
tp1919
a(I115
I3
F-0.25
g1004
tp1920
a(I122
I3
F0.75
g1008
tp1921
a(I122
I3
F-0.25
g1010
tp1922
a(I189
I6
F-0.25
g1014
tp1923
a(I219
I0
F-0.25
g1024
tp1924
a(I220
I2
I0
g1026
tp1925
a(I220
I2
F-0.25
g1028
tp1926
a(I283
I2
F-0.25
g1030
tp1927
a(I290
I3
I0
g1032
tp1928
a(I290
I3
F-0.25
g1034
tp1929
a(I290
I3
F0.375
g1036
tp1930
a(I314
I8
F-0.25
g1040
tp1931
a(I314
I21
F-0.25
g1042
tp1932
a(I314
I21
I0
g1044
tp1933
a(I314
I21
F-0.25
g1046
tp1934
a(I314
I25
F-0.25
g1048
tp1935
a(I325
I2
I0
g1050
tp1936
a(I343
I11
I0
g1052
tp1937
a(I349
I4
F-0.25
g1054
tp1938
a(I353
I5
I0
g1056
tp1939
a(I353
I5
F-0.25
g1058
tp1940
a(I375
I3
I0
g1060
tp1941
as(S'galaxy'
p1942
S'nexus'
p1943
tp1944
(lp1945
(I1
I5
F0.125
g240
tp1946
a(I1
I5
F0.75
g242
tp1947
a(I7
I2
F0.375
g492
tp1948
a(I7
I8
F0.375
g494
tp1949
a(I7
I8
F0.5
g496
tp1950
a(I18
I13
F0.375
g1168
tp1951
a(I45
I1
I0
g498
tp1952
a(I49
I2
I0
g500
tp1953
a(I50
I0
F0.375
g502
tp1954
a(I67
I1
F1.0
g504
tp1955
a(I109
I0
I0
g506
tp1956
a(I113
I0
I0
g508
tp1957
a(I120
I0
F-0.5
g510
tp1958
a(I120
I16
F-0.5
g1086
tp1959
a(I140
I3
F-0.625
g248
tp1960
a(I141
I0
I0
g1091
tp1961
a(I182
I1
F1.0
g1629
tp1962
a(I203
I15
F0.5
g513
tp1963
a(I208
I20
I0
g515
tp1964
a(I208
I44
F0.625
g517
tp1965
a(I208
I53
F1.0
g519
tp1966
a(I227
I10
I0
g521
tp1967
a(I227
I10
F-0.5
g523
tp1968
a(I227
I10
I0
g525
tp1969
a(I232
I0
I0
g252
tp1970
a(I303
I1
F-0.375
g528
tp1971
a(I314
I23
I0
g530
tp1972
a(I314
I23
F-0.625
g532
tp1973
a(I317
I14
F0.125
g534
tp1974
a(I324
I0
I0
g258
tp1975
a(I343
I25
F0.375
g537
tp1976
a(I349
I0
F-0.625
g539
tp1977
a(I353
I60
F0.5
g1138
tp1978
a(I353
I60
I0
g1140
tp1979
a(I353
I63
F0.375
g1648
tp1980
a(I373
I0
I0
g541
tp1981
as(S'screen'
p1982
tp1983
(lp1984
(I5
I6
F0.5
S'second'
p1985
tp1986
a(I8
I2
I0
S'lightweight'
p1987
tp1988
a(I8
I2
F0.75
S'beautiful'
p1989
tp1990
a(I10
I32
F0.875
S'nice'
p1991
tp1992
a(I24
I0
F-0.5
S'sure'
p1993
tp1994
a(I25
I4
F-0.25
S'giant'
p1995
tp1996
a(I30
I0
I0
S'great'
p1997
tp1998
a(I38
I4
I0
S'flush'
p1999
tp2000
a(I39
I0
F0.625
S'perfect'
p2001
tp2002
a(I39
I0
I0
S'fast'
p2003
tp2004
a(I41
I2
I0
S'big'
p2005
tp2006
a(I41
I2
F-0.75
S'bright'
p2007
tp2008
a(I46
I1
I0
S'big'
p2009
tp2010
a(I62
I1
F0.875
S'nice'
p2011
tp2012
a(I62
I1
I0
S'big'
p2013
tp2014
a(I82
I3
F0.625
S'positive'
p2015
tp2016
a(I84
I0
F0.25
S'sharp'
p2017
tp2018
a(I84
I3
F-0.75
S'bright'
p2019
tp2020
a(I86
I7
I0
S'big'
p2021
tp2022
a(I86
I7
F-0.75
S'bright'
p2023
tp2024
a(I99
I2
I0
S'great'
p2025
tp2026
a(I103
I2
F0.25
S'bigger'
p2027
tp2028
a(I103
I4
I0
S'full'
p2029
tp2030
a(I103
I6
I0
S'large'
p2031
tp2032
a(I107
I1
I0
S'large'
p2033
tp2034
a(I107
I1
F-0.75
S'bright'
p2035
tp2036
a(I107
I1
I0
S'detailed'
p2037
tp2038
a(I107
I20
I0
S'great'
p2039
tp2040
a(I107
I29
F1.0
S'good'
p2041
tp2042
a(I113
I2
F0.125
S'impressive'
p2043
tp2044
a(I116
I2
F0.625
S'perfect'
p2045
tp2046
a(I128
I12
I0
S'rigid'
p2047
tp2048
a(I130
I1
I0
S'fast'
p2049
tp2050
a(I130
I1
F0.5
S'functional'
p2051
tp2052
a(I130
I1
I0
S'large'
p2053
tp2054
a(I144
I3
F0.75
S'beautiful'
p2055
tp2056
a(I144
I3
I0
S'update'
p2057
tp2058
a(I148
I9
I0
S'large'
p2059
tp2060
a(I148
I9
F0.5
S'whole'
p2061
tp2062
a(I148
I10
F0.25
S'bigger'
p2063
tp2064
a(I148
I12
F0.25
S'bigger'
p2065
tp2066
a(I148
I22
F0.5
S'whole'
p2067
tp2068
a(I148
I49
I0
S'big'
p2069
tp2070
a(I154
I2
I0
S'big'
p2071
tp2072
a(I157
I2
F0.625
S'easy'
p2073
tp2074
a(I157
I2
I0
S'large'
p2075
tp2076
a(I162
I1
F-0.5
S'complaint'
p2077
tp2078
a(I170
I48
F-0.5
S'power'
p2079
tp2080
a(I182
I3
I0
S'big'
p2081
tp2082
a(I188
I3
I0
S'such'
p2083
tp2084
a(I188
I3
I0
S'big'
p2085
tp2086
a(I188
I21
I0
S'more'
p2087
tp2088
a(I203
I8
F0.875
S'nice'
p2089
tp2090
a(I203
I8
I0
S'large'
p2091
tp2092
a(I204
I0
F-0.25
S'thin'
p2093
tp2094
a(I204
I0
F-0.625
S'light'
p2095
tp2096
a(I213
I2
F0.75
S'beautiful'
p2097
tp2098
a(I213
I2
F0.25
S'responsive'
p2099
tp2100
a(I231
I5
F0.5
S'touch'
p2101
tp2102
a(I243
I5
I0
S'special'
p2103
tp2104
a(I247
I1
I0
S'large'
p2105
tp2106
a(I255
I6
I0
S'next'
p2107
tp2108
a(I255
I6
F-0.125
S'mine'
p2109
tp2110
a(I256
I10
F-0.375
S'black'
p2111
tp2112
a(I257
I0
F0.875
S'attractive'
p2113
tp2114
a(I258
I0
I0
S'wide'
p2115
tp2116
a(I259
I6
I0
S'android'
p2117
tp2118
a(I260
I0
I0
S'big'
p2119
tp2120
a(I260
I0
F-0.75
S'bright'
p2121
tp2122
a(I275
I5
F1.0
S'good'
p2123
tp2124
a(I280
I3
I0
S'more'
p2125
tp2126
a(I286
I1
I0
S'more'
p2127
tp2128
a(I286
I1
I0
S'more'
p2129
tp2130
a(I289
I15
I0
S'big'
p2131
tp2132
a(I294
I1
F0.875
S'nice'
p2133
tp2134
a(I295
I0
F1.0
S'good'
p2135
tp2136
a(I298
I4
F0.625
S'kind'
p2137
tp2138
a(I298
I4
I0
S'chewed'
p2139
tp2140
a(I299
I2
F0.75
S'beautiful'
p2141
tp2142
a(I307
I5
I0
S'great'
p2143
tp2144
a(I314
I15
I0
S'big'
p2145
tp2146
a(I314
I16
I0
S'great'
p2147
tp2148
a(I314
I16
F-0.125
S'overall'
p2149
tp2150
a(I317
I11
F0.75
S'beautiful'
p2151
tp2152
a(I318
I25
F1.0
S'better'
p2153
tp2154
a(I320
I3
I0
S'big'
p2155
tp2156
a(I332
I1
I0
S'big'
p2157
tp2158
a(I337
I8
F0.75
S'beautiful'
p2159
tp2160
a(I353
I13
F0.5
S'strong'
p2161
tp2162
a(I353
I16
F-0.5
S'less'
p2163
tp2164
a(I353
I17
F0.5
S'strong'
p2165
tp2166
a(I364
I0
I0
S'great'
p2167
tp2168
a(I375
I2
F0.625
S'superior'
p2169
tp2170
a(I375
I6
F-0.625
S'glorious'
p2171
tp2172
as(S'everything'
p2173
tp2174
(lp2175
(I76
I5
F0.625
S'perfect'
p2176
tp2177
a(I86
I5
F-0.75
S'bright'
p2178
tp2179
a(I86
I5
F0.5
S'clear'
p2180
tp2181
a(I86
I5
I0
S'fast'
p2182
tp2183
a(I86
I5
F0.625
S'easy'
p2184
tp2185
a(I109
I2
F0.375
S'much'
p2186
tp2187
a(I138
I4
F-0.5
S'open'
p2188
tp2189
a(I138
I4
F-0.625
S'clean'
p2190
tp2191
a(I159
I2
F0.625
S'perfect'
p2192
tp2193
a(I159
I2
F0.375
S'new'
p2194
tp2195
a(I191
I2
I0
S'great'
p2196
tp2197
a(I215
I2
F-0.25
S'google'
p2198
tp2199
a(I262
I1
F0.625
S'perfect'
p2200
tp2201
a(I309
I0
F0.375
S'new'
p2202
tp2203
a(I309
I0
F-0.5
S'unlimited'
p2204
tp2205
a(I314
I5
I0
S'android'
p2206
tp2207
as(S'samsung'
p2208
tp2209
(lp2210
(I76
I14
F0.5
S'second'
p2211
tp2212
a(I76
I15
I0
g244
tp2213
a(I76
I15
F0.375
g246
tp2214
a(I76
I20
F-0.375
S'avoid'
p2215
tp2216
a(I81
I4
F-0.625
S'other'
p2217
tp2218
a(I107
I0
I0
S'more'
p2219
tp2220
a(I107
I0
I0
S'rigid'
p2221
tp2222
a(I107
I0
F-0.625
S'other'
p2223
tp2224
a(I139
I1
F1.0
S'better'
p2225
tp2226
a(I148
I49
F-0.625
S'other'
p2227
tp2228
a(I203
I1
I0
S'old'
p2229
tp2230
a(I222
I1
I0
S'latest'
p2231
tp2232
a(I227
I7
F0.375
g250
tp2233
a(I288
I14
I0
g254
tp2234
a(I310
I0
F-0.125
g256
tp2235
a(I342
I0
F0.375
S'prime'
p2236
tp2237
as(S'camera'
p2238
tp2239
(lp2240
(I10
I24
I0
S'quick'
p2241
tp2242
a(I37
I4
F-0.625
S'clean'
p2243
tp2244
a(I37
I4
F0.5
S'recommended'
p2245
tp2246
a(I39
I1
F1.0
S'good'
p2247
tp2248
a(I49
I3
I0
S'faster'
p2249
tp2250
a(I57
I2
F0.125
S'capable'
p2251
tp2252
a(I73
I7
I0
S'wish'
p2253
tp2254
a(I74
I3
F0.75
S'due'
p2255
tp2256
a(I74
I3
F0.625
S'extraordinary'
p2257
tp2258
a(I82
I3
I0
S'great'
p2259
tp2260
a(I100
I0
F1.0
S'good'
p2261
tp2262
a(I156
I2
F1.0
S'good'
p2263
tp2264
a(I188
I8
F1.0
S'best'
p2265
tp2266
a(I194
I1
F0.25
S'powerful'
p2267
tp2268
a(I194
I1
I0
S'great'
p2269
tp2270
a(I203
I9
I0
S'crystal'
p2271
tp2272
a(I203
I9
F1.0
S'good'
p2273
tp2274
a(I208
I46
I0
S'great'
p2275
tp2276
a(I270
I25
F1.0
S'good'
p2277
tp2278
a(I280
I5
I0
S'great'
p2279
tp2280
a(I281
I8
F-0.625
S'other'
p2281
tp2282
a(I281
I12
F0.25
S'professional'
p2283
tp2284
a(I295
I6
I0
S'quick'
p2285
tp2286
a(I300
I3
F-0.5
S'weakest'
p2287
tp2288
a(I304
I0
I0
S'android'
p2289
tp2290
a(I307
I3
F1.0
S'good'
p2291
tp2292
a(I318
I11
F1.0
S'good'
p2293
tp2294
a(I320
I5
I0
S'fast'
p2295
tp2296
a(I340
I2
I0
S'great'
p2297
tp2298
a(I353
I41
F1.0
S'good'
p2299
tp2300
a(I361
I17
F-0.625
S'bad'
p2301
tp2302
a(I371
I1
F1.0
S'good'
p2303
tp2304
a(I375
I9
I0
S'great'
p2305
tp2306
as(S'using'
p2307
tp2308
(lp2309
(I232
I1
F-0.25
S'google'
p2310
tp2311
as(S'take'
p2312
tp2313
(lp2314
(I350
I1
I0
S'later'
p2315
tp2316
a(I353
I47
I0
S'android'
p2317
tp2318
as(S'mobile'
p2319
tp2320
(lp2321
(I199
I0
F0.5
S'possible'
p2322
tp2323
a(I199
I0
I0
S'android'
p2324
tp2325
a(I296
I3
I0
S'great'
p2326
tp2327
as(S'galaxy'
p2328
tp2329
(lp2330
(I1
I5
F0.125
g240
tp2331
a(I7
I8
F0.375
g494
tp2332
a(I18
I13
F0.375
g1168
tp2333
a(I45
I1
I0
g498
tp2334
a(I50
I0
F0.375
g502
tp2335
a(I67
I1
F1.0
g504
tp2336
a(I113
I0
I0
g508
tp2337
a(I115
I2
F-0.125
g1170
tp2338
a(I120
I0
F-0.5
g510
tp2339
a(I136
I17
I0
S'old'
p2340
tp2341
a(I182
I1
F1.0
g1629
tp2342
a(I199
I3
F0.125
S'first'
p2343
tp2344
a(I208
I20
I0
g515
tp2345
a(I208
I44
F0.625
g517
tp2346
a(I303
I1
F-0.375
g528
tp2347
a(I314
I23
I0
g530
tp2348
a(I314
I23
F-0.625
g532
tp2349
a(I317
I14
F0.125
g534
tp2350
a(I343
I25
F0.375
g537
tp2351
a(I349
I0
F-0.625
g539
tp2352
a(I353
I63
F0.375
g1648
tp2353
a(I373
I0
I0
g541
tp2354
as(S'google'
p2355
S'play'
p2356
S'store'
p2357
tp2358
(lp2359
(I58
I0
F-0.25
g1897
tp2360
a(I73
I4
F1.0
S'better'
p2361
tp2362
a(I227
I1
F-0.25
g830
tp2363
a(I232
I0
F-0.25
g832
tp2364
a(I314
I24
F-0.25
g1902
tp2365
a(I317
I14
F-0.25
g834
tp2366
a(I343
I7
I0
S'such'
p2367
tp2368
a(I353
I51
F-0.25
S'google'
p2369
tp2370
as(S'people'
p2371
tp2372
(lp2373
(I7
I3
I0
S'many'
p2374
tp2375
a(I8
I4
I0
S'most'
p2376
tp2377
a(I10
I3
F0.625
S'aware'
p2378
tp2379
a(I34
I10
F-0.625
S'other'
p2380
tp2381
a(I62
I13
I0
S'most'
p2382
tp2383
a(I69
I16
F-0.75
S'stupid'
p2384
tp2385
a(I78
I0
I0
S'android'
p2386
tp2387
a(I78
I0
F-0.875
S'hard'
p2388
tp2389
a(I96
I0
F1.0
S'good'
p2390
tp2391
a(I148
I2
I0
S'many'
p2392
tp2393
a(I148
I2
F-0.625
S'other'
p2394
tp2395
a(I151
I1
F-0.75
S'complain'
p2396
tp2397
a(I170
I52
I0
S'download'
p2398
tp2399
a(I172
I5
I0
S'few'
p2400
tp2401
a(I208
I0
I0
S'many'
p2402
tp2403
a(I208
I44
I0
S'many'
p2404
tp2405
a(I231
I2
F-0.625
S'other'
p2406
tp2407
a(I246
I3
F-0.625
S'bad'
p2408
tp2409
a(I246
I3
F-0.625
S'bad'
p2410
tp2411
a(I281
I5
I0
S'many'
p2412
tp2413
a(I317
I27
I0
S'most'
p2414
tp2415
a(I317
I51
I0
S'many'
p2416
tp2417
a(I373
I0
I0
S'more'
p2418
tp2419
as(S'devices'
p2420
tp2421
(lp2422
(I11
I2
I0
S'few'
p2423
tp2424
a(I11
I2
F-0.625
S'other'
p2425
tp2426
a(I57
I1
I0
S'android'
p2427
tp2428
a(I84
I3
F-0.625
S'other'
p2429
tp2430
a(I107
I21
F-0.625
S'other'
p2431
tp2432
a(I107
I21
I0
S'android'
p2433
tp2434
a(I120
I15
I0
S'many'
p2435
tp2436
a(I120
I15
F-0.25
S'cheaper'
p2437
tp2438
a(I173
I2
I0
S'least'
p2439
tp2440
a(I208
I34
I0
S'great'
p2441
tp2442
a(I213
I5
F-0.625
S'other'
p2443
tp2444
a(I242
I10
I0
S'android'
p2445
tp2446
a(I317
I4
I0
S'android'
p2447
tp2448
a(I353
I1
F1.0
S'best'
p2449
tp2450
a(I353
I1
F0.375
S'available'
p2451
tp2452
a(I353
I5
F-0.625
S'other'
p2453
tp2454
a(I353
I29
I0
S'general'
p2455
tp2456
a(I353
I62
I0
S'such'
p2457
tp2458
as(S'nexus'
p2459
S'one'
p2460
tp2461
(lp2462
(I1
I5
F0.75
g242
tp2463
a(I7
I2
F0.375
g492
tp2464
a(I7
I30
F0.375
g1068
tp2465
a(I40
I1
F-0.25
g1072
tp2466
a(I77
I0
F1.0
g1075
tp2467
a(I80
I1
I0
g1077
tp2468
a(I87
I1
F0.375
g1079
tp2469
a(I118
I6
F1.0
g1082
tp2470
a(I140
I3
F-0.625
g248
tp2471
a(I196
I17
F-0.25
g1099
tp2472
a(I196
I27
F-0.25
g1101
tp2473
a(I196
I27
F-0.25
g1103
tp2474
a(I199
I4
F-0.25
g1107
tp2475
a(I208
I53
F1.0
g519
tp2476
a(I227
I10
I0
g521
tp2477
a(I227
I10
F-0.5
g523
tp2478
a(I227
I10
I0
g525
tp2479
a(I229
I0
F-0.25
g1116
tp2480
a(I232
I0
I0
g252
tp2481
a(I242
I0
F-0.25
g1119
tp2482
a(I325
I1
I0
g1128
tp2483
a(I329
I1
F0.125
g1130
tp2484
a(I343
I4
F1.0
g1132
tp2485
a(I343
I7
F-0.625
g1134
tp2486
a(I357
I2
F1.0
g1142
tp2487
a(I357
I2
F-0.125
g1144
tp2488
as(S'play'
p2489
S'store'
p2490
tp2491
(lp2492
(I58
I0
F-0.25
g1897
tp2493
a(I73
I4
F1.0
g2361
tp2494
a(I227
I1
F-0.25
g830
tp2495
a(I232
I0
F-0.25
g832
tp2496
a(I314
I24
F-0.25
g1902
tp2497
a(I317
I14
F-0.25
g834
tp2498
a(I343
I7
I0
g2367
tp2499
a(I353
I51
F-0.25
g2369
tp2500
as(S'works'
p2501
tp2502
(lp2503
(I208
I27
F0.25
S'familiar'
p2504
tp2505
a(I289
I12
I0
S'great'
p2506
tp2507
a(I289
I15
I0
S'great'
p2508
tp2509
as(S'an'
p2510
S'android'
p2511
S'device'
p2512
tp2513
(lp2514
(I37
I2
F-0.375
g917
tp2515
a(I41
I0
F1.0
g1672
tp2516
a(I41
I0
I0
g1674
tp2517
a(I41
I8
I0
S'great'
p2518
tp2519
a(I81
I6
I0
S'android'
p2520
tp2521
a(I107
I0
F1.0
g931
tp2522
a(I107
I22
F0.125
g933
tp2523
a(I107
I23
I0
S'android'
p2524
tp2525
a(I120
I1
I0
S'great'
p2526
tp2527
a(I194
I3
F-0.625
S'other'
p2528
tp2529
a(I208
I24
F1.0
S'best'
p2530
tp2531
a(I208
I24
I0
S'mobile'
p2532
tp2533
a(I251
I0
F1.0
g955
tp2534
a(I276
I2
I0
S'great'
p2535
tp2536
a(I276
I2
F-0.75
S'little'
p2537
tp2538
a(I276
I2
I0
S'latest'
p2539
tp2540
a(I281
I1
F0.625
S'easy'
p2541
tp2542
a(I298
I4
F-0.375
S'nigh'
p2543
tp2544
a(I298
I4
F0.375
S'indestructible'
p2545
tp2546
a(I315
I1
I0
S'android'
p2547
tp2548
as(S'on'
p2549
S'right'
p2550
S'side'
p2551
tp2552
(lp2553
(I59
I10
I0
g13
tp2554
a(I59
I10
F0.25
g15
tp2555
a(I243
I41
F-0.25
g17
tp2556
as(S'device'
p2557
tp2558
(lp2559
(I36
I4
I0
S'plastic'
p2560
tp2561
a(I41
I0
F1.0
g1672
tp2562
a(I41
I0
I0
g1674
tp2563
a(I41
I8
I0
g2518
tp2564
a(I52
I10
F0.25
S'powerful'
p2565
tp2566
a(I57
I10
F0.375
g1676
tp2567
a(I81
I6
I0
g2520
tp2568
a(I97
I24
F0.875
S'happy'
p2569
tp2570
a(I107
I18
F0.625
S'easy'
p2571
tp2572
a(I107
I23
I0
g2524
tp2573
a(I120
I1
I0
g2526
tp2574
a(I128
I2
F0.25
S'related'
p2575
tp2576
a(I148
I52
I0
S'more'
p2577
tp2578
a(I173
I1
I0
S'particular'
p2579
tp2580
a(I187
I5
I0
S'commercial'
p2581
tp2582
a(I188
I12
F0.375
S'available'
p2583
tp2584
a(I194
I3
F-0.625
g2528
tp2585
a(I208
I24
F1.0
g2530
tp2586
a(I208
I24
I0
g2532
tp2587
a(I208
I34
I0
S'mobile'
p2588
tp2589
a(I248
I4
F0.625
S'necessary'
p2590
tp2591
a(I276
I2
I0
g2535
tp2592
a(I276
I2
F-0.75
g2537
tp2593
a(I276
I2
I0
g2539
tp2594
a(I280
I5
I0
S'great'
p2595
tp2596
a(I281
I1
F0.625
g2541
tp2597
a(I281
I22
I0
S'great'
p2598
tp2599
a(I291
I1
I0
S'such'
p2600
tp2601
a(I291
I1
F0.5
S'expensive'
p2602
tp2603
a(I298
I4
F-0.375
g2543
tp2604
a(I298
I4
F0.375
g2545
tp2605
a(I310
I3
F-0.5
S'open'
p2606
tp2607
a(I310
I3
I0
S'great'
p2608
tp2609
a(I315
I1
I0
g2547
tp2610
a(I318
I25
F-0.625
S'free'
p2611
tp2612
a(I335
I17
F-0.25
S'google'
p2613
tp2614
a(I353
I53
I0
S'quick'
p2615
tp2616
a(I353
I62
F-0.625
S'other'
p2617
tp2618
a(I363
I0
F-0.25
S'low'
p2619
tp2620
a(I365
I0
F-0.875
S'trouble'
p2621
tp2622
a(I369
I0
F1.0
S'best'
p2623
tp2624
as(S'of'
p2625
S'galaxy'
p2626
S'nexus'
p2627
tp2628
(lp2629
(I7
I2
F0.375
g492
tp2630
a(I45
I1
I0
g498
tp2631
a(I49
I2
I0
g500
tp2632
a(I140
I3
F-0.625
g248
tp2633
a(I203
I15
F0.5
g513
tp2634
a(I208
I44
F0.625
g517
tp2635
a(I208
I53
F1.0
g519
tp2636
a(I227
I10
I0
g521
tp2637
a(I227
I10
F-0.5
g523
tp2638
a(I227
I10
I0
g525
tp2639
a(I232
I0
I0
g252
tp2640
a(I317
I14
F0.125
g534
tp2641
a(I349
I0
F-0.625
g539
tp2642
a(I373
I0
I0
g541
tp2643
as(S'music'
p2644
tp2645
(lp2646
(I7
I36
F0.125
S'dedicated'
p2647
tp2648
a(I33
I1
I0
S'great'
p2649
tp2650
a(I82
I3
F-0.25
S'google'
p2651
tp2652
a(I109
I2
F-0.25
S'google'
p2653
tp2654
a(I128
I1
F0.75
S'beautiful'
p2655
tp2656
a(I188
I16
F-0.625
S'other'
p2657
tp2658
a(I208
I43
F0.875
S'music'
p2659
tp2660
a(I208
I43
F-0.25
S'google'
p2661
tp2662
as(S'able'
p2663
S'to'
p2664
S'get'
p2665
tp2666
(lp2667
(I220
I2
I0
S'latest'
p2668
tp2669
as(S'google'
p2670
S'nexus'
p2671
tp2672
(lp2673
(I40
I1
F-0.25
g1072
tp2674
a(I80
I1
I0
g1077
tp2675
a(I84
I9
F-0.625
g789
tp2676
a(I140
I3
F-0.625
g248
tp2677
a(I196
I1
F0.125
g799
tp2678
a(I196
I17
F-0.25
g1099
tp2679
a(I196
I27
F-0.25
g1101
tp2680
a(I196
I27
F-0.25
g1103
tp2681
a(I196
I31
F-0.25
g1105
tp2682
a(I199
I4
F-0.25
g1107
tp2683
a(I229
I0
F-0.25
g1116
tp2684
a(I232
I0
I0
g252
tp2685
a(I252
I0
I0
g1121
tp2686
a(I252
I0
F-0.25
g1123
tp2687
a(I317
I21
F0.625
g805
tp2688
a(I343
I7
F-0.625
g1134
tp2689
a(I353
I47
F0.375
g817
tp2690
a(I353
I60
F0.5
g1138
tp2691
a(I353
I60
I0
g1140
tp2692
a(I368
I5
I0
g819
tp2693
as(g1854
S'mobile'
p2694
S'sim'
p2695
tp2696
(lp2697
(I296
I3
I0
g2326
tp2698
as(S'form'
p2699
S'factor'
p2700
tp2701
(lp2702
(I77
I14
I0
S'android'
p2703
tp2704
a(I136
I15
F0.25
S'larger'
p2705
tp2706
as(S'apps'
p2707
tp2708
(lp2709
(I82
I3
F-0.25
S'google'
p2710
tp2711
a(I92
I0
F-0.625
S'free'
p2712
tp2713
a(I92
I0
F0.375
S'available'
p2714
tp2715
a(I107
I9
I0
S'great'
p2716
tp2717
a(I107
I10
I0
S'most'
p2718
tp2719
a(I128
I1
F-0.625
S'other'
p2720
tp2721
a(I128
I1
F-0.625
S'other'
p2722
tp2723
a(I128
I3
F0.375
S'available'
p2724
tp2725
a(I130
I7
I0
S'few'
p2726
tp2727
a(I148
I31
I0
S'android'
p2728
tp2729
a(I188
I11
I0
S'least'
p2730
tp2731
a(I206
I1
I0
S'fast'
p2732
tp2733
a(I208
I28
F0.125
S'last'
p2734
tp2735
a(I215
I8
I0
S'many'
p2736
tp2737
a(I231
I0
F0.125
S'enough'
p2738
tp2739
a(I258
I0
F0.625
S'easy'
p2740
tp2741
a(I258
I0
F0.625
S'easy'
p2742
tp2743
a(I258
I0
I0
S'internet'
p2744
tp2745
a(I258
I0
F-0.25
S'google'
p2746
tp2747
a(I270
I27
I0
S'religious'
p2748
tp2749
a(I270
I27
I0
S'closing'
p2750
tp2751
a(I275
I4
I0
S'few'
p2752
tp2753
a(I275
I5
I0
S'more'
p2754
tp2755
a(I275
I5
I0
S'android'
p2756
tp2757
a(I281
I3
I0
S'many'
p2758
tp2759
a(I312
I1
F0.625
S'easy'
p2760
tp2761
a(I314
I1
I0
S'android'
p2762
tp2763
a(I317
I56
F-0.25
S'google'
p2764
tp2765
a(I332
I1
F0.625
S'easy'
p2766
tp2767
a(I337
I12
I0
S'such'
p2768
tp2769
a(I337
I14
I0
S'great'
p2770
tp2771
a(I353
I22
F0.25
S'recent'
p2772
tp2773
as.