(dp0
(S'ice'
p1
S'cream'
p2
tp3
(lp4
(I111
I2
I0
S'android'
p5
tp6
a(I185
I0
F-0.625
S'bad'
p7
tp8
a(I185
I0
I0
S'january'
p9
tp10
as(S'model'
p11
tp12
(lp13
(I7
I3
I0
S'same'
p14
tp15
a(I193
I1
F-0.5
S'international'
p16
tp17
a(I264
I1
I0
S'same'
p18
tp19
a(I268
I1
F0.375
S'new'
p20
tp21
a(I268
I1
I0
S'same'
p22
tp23
a(I318
I2
F0.375
S'newest'
p24
tp25
as(S'battery'
p26
S'life'
p27
tp28
(lp29
(I6
I1
F-0.5
S'less'
p30
tp31
a(I29
I0
F0.125
S'last'
p32
tp33
a(I30
I5
F-0.5
S'poor'
p34
tp35
a(I46
I5
F-0.5
S'longer'
p36
tp37
a(I111
I4
F-0.5
S'poor'
p38
tp39
a(I111
I4
F-0.5
S'regular'
p40
tp41
a(I142
I4
F1.0
S'good'
p42
tp43
a(I197
I4
F1.0
S'better'
p44
tp45
a(I236
I2
F-0.25
S'low'
p46
tp47
a(I236
I2
F0.25
S'used'
p48
tp49
a(I273
I1
F-0.5
S'poor'
p50
tp51
a(I340
I2
F0.25
S'original'
p52
tp53
a(I341
I6
I0
S'general'
p54
tp55
as(S'problem'
p56
tp57
(lp58
(I66
I1
F-0.375
S'serious'
p59
tp60
a(I111
I0
I0
S'basic'
p61
tp62
a(I123
I5
F0.25
S'biggest'
p63
tp64
a(I131
I6
F0.25
S'biggest'
p65
tp66
a(I222
I1
I0
S'fast'
p67
tp68
a(I231
I1
I0
S'great'
p69
tp70
a(I231
I1
I0
S'chinese'
p71
tp72
a(I268
I5
F-0.75
S'impossible'
p73
tp74
a(I268
I5
I0
S'same'
p75
tp76
a(I319
I0
F-0.375
S'serious'
p77
tp78
as(S'nexus'
p79
S's.'
p80
tp81
(lp82
(I26
I2
I0
S'fast'
p83
tp84
a(I26
I5
F-0.75
S'likely'
p85
tp86
a(I26
I5
I0
S'later'
p87
tp88
as(S'galaxy'
p89
S's2'
p90
tp91
(lp92
(I15
I3
F0.25
S'powerful'
p93
tp94
a(I47
I2
I0
S'galaxy'
p95
tp96
a(I62
I1
I0
S'real'
p97
tp98
a(I150
I0
I0
S'slower'
p99
tp100
a(I375
I1
F-0.25
S'epic'
p101
tp102
as(S'problems'
p103
tp104
(lp105
(I113
I5
I0
S'great'
p106
tp107
a(I338
I2
F0.625
S'fair'
p108
tp109
a(I338
I2
I0
S'most'
p110
tp111
a(I341
I11
F-0.125
S'overall'
p112
tp113
a(I341
I11
I0
S'particular'
p114
tp115
as(S'money'
p116
tp117
(lp118
(I20
I5
F1.0
S'best'
p119
tp120
a(I44
I6
F0.375
S'extra'
p121
tp122
a(I47
I3
F0.25
S'responsive'
p123
tp124
a(I60
I5
F0.125
S'able'
p125
tp126
a(I60
I8
F-0.625
S'glad'
p127
tp128
a(I363
I24
I0
S'more'
p129
tp130
as(S'galaxy'
p131
tp132
(lp133
(I58
I0
F1.0
S'better'
p134
tp135
a(I62
I1
I0
g97
tp136
a(I150
I0
I0
g99
tp137
a(I158
I0
F-0.625
S'bad'
p138
tp139
a(I199
I0
F0.5
S'possible'
p140
tp141
a(I206
I2
F-0.25
S'past'
p142
tp143
a(I236
I2
F0.375
S'newer'
p144
tp145
a(I236
I2
F-0.125
S'bean'
p146
tp147
a(I310
I2
F0.375
S'new'
p148
tp149
a(I342
I5
I0
S'earlier'
p150
tp151
as(S'bought'
p152
tp153
(lp154
(I225
I0
F0.25
S'original'
p155
tp156
as(S'price'
p157
tp158
(lp159
(I20
I3
F-0.25
S'lower'
p160
tp161
a(I79
I0
I0
S'same'
p162
tp163
a(I194
I2
F1.0
S'best'
p164
tp165
a(I194
I2
F0.5
S'possible'
p166
tp167
a(I225
I0
F1.0
S'better'
p168
tp169
a(I234
I2
I0
S'such'
p170
tp171
a(I234
I2
I0
S'high'
p172
tp173
a(I234
I2
F0.75
S'worth'
p174
tp175
a(I236
I0
F-0.125
S'overall'
p176
tp177
a(I259
I3
F0.5
S'reasonable'
p178
tp179
a(I318
I2
F-0.25
S'low'
p180
tp181
as(S'heavy'
p182
S'duty'
p183
tp184
(lp185
(I232
I5
I0
S'optional'
p186
tp187
a(I232
I5
F-0.5
S'heavy'
p188
tp189
a(I232
I6
F-0.5
S'heavy'
p190
tp191
as(S'working'
p192
tp193
(lp194
(I44
I1
I0
S'great'
p195
tp196
as(S'everything'
p197
tp198
(lp199
(I45
I0
I0
S'speed'
p200
tp201
a(I91
I1
I0
S'more'
p202
tp203
a(I245
I3
I0
S'apple'
p204
tp205
a(I245
I3
F0.75
S'worth'
p206
tp207
a(I271
I1
I0
S'spanish'
p208
tp209
a(I272
I1
I0
S'great'
p210
tp211
a(I365
I5
F-0.375
S'top'
p212
tp213
as(S'features'
p214
tp215
(lp216
(I50
I1
I0
S'great'
p217
tp218
a(I76
I3
F-0.625
S'other'
p219
tp220
a(I124
I0
F-0.5
S'international'
p221
tp222
a(I124
I0
F1.0
S'good'
p223
tp224
a(I124
I1
F0.375
S'interesting'
p225
tp226
a(I361
I1
I0
S'great'
p227
tp228
a(I363
I23
I0
S'such'
p229
tp230
a(I376
I1
F-0.5
S'less'
p231
tp232
a(I376
I1
I0
S'many'
p233
tp234
as(S'samsung'
p235
tp236
(lp237
(I0
I1
F-0.375
S'small'
p238
tp239
a(I41
I0
F1.0
S'better'
p240
tp241
a(I61
I0
F-0.5
S'regular'
p242
tp243
a(I64
I0
I0
S'domestic'
p244
tp245
a(I65
I2
F-0.875
S'stuck'
p246
tp247
a(I65
I2
F0.375
S'knew'
p248
tp249
a(I80
I2
I0
S'local'
p250
tp251
a(I81
I2
I0
S'big'
p252
tp253
a(I103
I2
F0.625
S'straight'
p254
tp255
a(I111
I2
I0
S'least'
p256
tp257
a(I111
I5
F1.0
S'better'
p258
tp259
a(I120
I12
F0.375
S'new'
p260
tp261
a(I148
I0
I0
S'great'
p262
tp263
a(I148
I0
I0
S'more'
p264
tp265
a(I148
I0
F0.125
S'first'
p266
tp267
a(I163
I1
I0
S'great'
p268
tp269
a(I176
I1
F-0.375
S'black'
p270
tp271
a(I230
I0
F0.25
S'original'
p272
tp273
a(I234
I0
F0.25
S'original'
p274
tp275
a(I236
I2
F0.625
S'easy'
p276
tp277
a(I268
I0
I0
S'old'
p278
tp279
a(I298
I0
F0.25
S'original'
p280
tp281
a(I321
I1
F0.125
S'first'
p282
tp283
a(I363
I3
F-0.5
S'poor'
p284
tp285
a(I365
I5
F0.25
S'original'
p286
tp287
as(g2
S'sandwich'
p288
tp289
(lp290
(I55
I1
F0.625
S'easy'
p291
tp292
a(I55
I1
F0.375
S'reliable'
p293
tp294
as(S'back'
p295
tp296
(lp297
(I376
I4
F-0.375
S'top'
p298
tp299
as(S'nternational'
p300
S'version'
p301
tp302
(lp303
(I11
I0
F-0.5
S'international'
p304
tp305
a(I11
I1
F-0.5
S'international'
p306
tp307
a(I26
I0
F-0.5
S'international'
p308
tp309
a(I26
I1
F-0.5
S'international'
p310
tp311
a(I92
I3
F-0.5
S'international'
p312
tp313
a(I98
I0
F-0.5
S'international'
p314
tp315
a(I103
I1
F-0.5
S'international'
p316
tp317
a(I104
I3
F-0.5
S'international'
p318
tp319
a(I107
I1
I0
S'real'
p320
tp321
a(I107
I1
F-0.5
S'international'
p322
tp323
a(I109
I1
F-0.5
S'international'
p324
tp325
a(I118
I5
F-0.5
S'international'
p326
tp327
a(I147
I0
F-0.5
S'international'
p328
tp329
a(I147
I0
I0
S'spanish'
p330
tp331
a(I180
I0
F-0.5
S'international'
p332
tp333
a(I206
I0
F-0.5
S'international'
p334
tp335
a(I213
I0
F-0.5
S'international'
p336
tp337
a(I221
I0
F-0.5
S'international'
p338
tp339
a(I225
I0
F-0.5
S'international'
p340
tp341
a(I237
I0
F-0.5
S'international'
p342
tp343
a(I245
I8
F-0.5
S'international'
p344
tp345
a(I245
I8
I0
S'least'
p346
tp347
a(I245
I8
F0.625
S'aware'
p348
tp349
a(I294
I1
F-0.5
S'international'
p350
tp351
a(I299
I3
F-0.5
S'complaint'
p352
tp353
a(I299
I3
F-0.5
S'international'
p354
tp355
a(I299
I3
I0
S'android'
p356
tp357
a(I305
I0
F-0.5
S'international'
p358
tp359
a(I305
I0
I0
S'korean'
p360
tp361
a(I323
I0
F-0.5
S'international'
p362
tp363
a(I323
I0
I0
S'basic'
p364
tp365
a(I323
I0
F0.5
S'possible'
p366
tp367
a(I356
I1
F-0.5
S'international'
p368
tp369
a(I363
I20
F-0.5
S'international'
p370
tp371
as(S'version'
p372
tp373
(lp374
(I11
I0
F-0.5
g304
tp375
a(I11
I1
F-0.5
g306
tp376
a(I23
I0
I0
S'european'
p377
tp378
a(I26
I0
F-0.5
g308
tp379
a(I26
I1
F-0.5
g310
tp380
a(I26
I5
I0
S'next'
p381
tp382
a(I26
I5
I0
S'android'
p383
tp384
a(I92
I3
F-0.5
g312
tp385
a(I98
I0
F-0.5
g314
tp386
a(I103
I1
F-0.5
g316
tp387
a(I104
I3
F-0.5
g318
tp388
a(I107
I1
I0
g320
tp389
a(I107
I1
F-0.5
g322
tp390
a(I109
I1
F-0.5
g324
tp391
a(I111
I2
I0
S'european'
p392
tp393
a(I111
I2
F0.125
S'first'
p394
tp395
a(I111
I2
F-0.25
S'late'
p396
tp397
a(I118
I5
F-0.5
g326
tp398
a(I139
I0
F0.375
S'new'
p399
tp400
a(I147
I0
F-0.5
g328
tp401
a(I147
I0
I0
g330
tp402
a(I161
I2
F0.375
S'newest'
p403
tp404
a(I180
I0
F-0.5
g332
tp405
a(I195
I0
I0
S'french'
p406
tp407
a(I206
I0
F-0.5
g334
tp408
a(I213
I0
F-0.5
g336
tp409
a(I217
I1
I0
S'android'
p410
tp411
a(I221
I0
F-0.5
g338
tp412
a(I225
I0
F-0.5
g340
tp413
a(I237
I0
F-0.5
g342
tp414
a(I245
I8
F-0.5
g344
tp415
a(I245
I8
I0
g346
tp416
a(I245
I8
F0.625
g348
tp417
a(I252
I2
F1.0
S'good'
p418
tp419
a(I268
I6
I0
S'android'
p420
tp421
a(I271
I1
I0
S'south'
p422
tp423
a(I292
I1
I0
S'english'
p424
tp425
a(I294
I1
F-0.5
g350
tp426
a(I299
I3
F-0.5
g352
tp427
a(I299
I3
F-0.5
g354
tp428
a(I299
I3
I0
g356
tp429
a(I305
I0
F-0.5
g358
tp430
a(I305
I0
I0
g360
tp431
a(I323
I0
F-0.5
g362
tp432
a(I323
I0
I0
g364
tp433
a(I323
I0
F0.5
g366
tp434
a(I341
I4
I0
S'android'
p435
tp436
a(I356
I1
F-0.5
g368
tp437
a(I363
I11
I0
S'american'
p438
tp439
a(I363
I20
F-0.5
g370
tp440
a(I363
I24
I0
S'american'
p441
tp442
as(S'oem'
p443
S'shop'
p444
tp445
(lp446
(I89
I18
F0.875
S'lucky'
p447
tp448
as(S'8mp'
p449
S'camera'
p450
tp451
(lp452
(I57
I5
I0
S'fast'
p453
tp454
a(I57
I5
I0
S'great'
p455
tp456
as(S'operating'
p457
S'system'
p458
tp459
(lp460
(I204
I1
F-0.125
S'slow'
p461
tp462
a(I341
I5
I0
S'android'
p463
tp464
as(S'unlocked'
p465
S'nternational'
p466
S'version'
p467
tp468
(lp469
(I26
I0
F-0.5
g308
tp470
a(I92
I3
F-0.5
g312
tp471
a(I98
I0
F-0.5
g314
tp472
a(I103
I1
F-0.5
g316
tp473
a(I104
I3
F-0.5
g318
tp474
a(I118
I5
F-0.5
g326
tp475
a(I206
I0
F-0.5
g334
tp476
a(I213
I0
F-0.5
g336
tp477
a(I221
I0
F-0.5
g338
tp478
a(I225
I0
F-0.5
g340
tp479
a(I237
I0
F-0.5
g342
tp480
a(I294
I1
F-0.5
g350
tp481
as(S'ce'
p482
S'cream'
p483
S'sandwich'
p484
tp485
(lp486
(I55
I1
F0.625
g291
tp487
a(I55
I1
F0.375
g293
tp488
as(S'need'
p489
tp490
(lp491
(I96
I1
F-0.75
S'little'
p492
tp493
a(I340
I3
F0.125
S'able'
p494
tp495
as(S'quality'
p496
tp497
(lp498
(I45
I1
I0
S'great'
p499
tp500
a(I68
I5
F1.0
S'best'
p501
tp502
a(I76
I3
F0.625
S'perfect'
p503
tp504
a(I90
I0
F-0.25
S'google'
p505
tp506
a(I90
I0
F1.0
S'good'
p507
tp508
a(I126
I0
F1.0
S'good'
p509
tp510
a(I159
I1
F-0.875
S'inferior'
p511
tp512
a(I192
I4
F-0.625
S'idle'
p513
tp514
a(I192
I5
F1.0
S'good'
p515
tp516
a(I286
I1
F-0.25
S'low'
p517
tp518
a(I366
I0
F1.0
S'good'
p519
tp520
as(S'product'
p521
tp522
(lp523
(I16
I1
F0.375
S'much'
p524
tp525
a(I31
I0
F0.75
S'worth'
p526
tp527
a(I34
I2
F0.875
S'happy'
p528
tp529
a(I73
I0
F0.375
S'new'
p530
tp531
a(I89
I12
I0
S'such'
p532
tp533
a(I89
I12
F1.0
S'good'
p534
tp535
a(I119
I0
F0.625
S'easy'
p536
tp537
a(I124
I0
F1.0
S'good'
p538
tp539
a(I124
I0
F-0.25
S'google'
p540
tp541
a(I126
I0
F0.875
S'nice'
p542
tp543
a(I203
I1
I0
S'great'
p544
tp545
a(I210
I0
I0
S'identical'
p546
tp547
a(I226
I1
F0.375
S'new'
p548
tp549
a(I233
I0
F1.0
S'good'
p550
tp551
a(I235
I0
I0
S'great'
p552
tp553
a(I241
I0
I0
S'great'
p554
tp555
a(I245
I9
I0
S'great'
p556
tp557
a(I255
I0
F0.5
S'compatible'
p558
tp559
a(I286
I8
I0
S'same'
p560
tp561
a(I297
I0
F0.875
S'nice'
p562
tp563
a(I318
I0
F1.0
S'good'
p564
tp565
a(I377
I0
I0
S'great'
p566
tp567
as(S'samsung'
p568
S'galaxy'
p569
S'sii'
p570
tp571
(lp572
(I199
I0
F0.5
g140
tp573
a(I268
I0
I0
g278
tp574
a(I365
I5
F0.25
g286
tp575
a(I365
I5
F0.25
S'original'
p576
tp577
as(S'right'
p578
tp579
(lp580
(I123
I5
I0
S'angry'
p581
tp582
as(S'samsung'
p583
S'galaxy'
p584
S's'
p585
tp586
(lp587
(I41
I0
F1.0
g240
tp588
a(I61
I0
F-0.5
g242
tp589
a(I64
I0
I0
g244
tp590
a(I128
I0
F1.0
S'best'
p591
tp592
a(I150
I0
I0
g99
tp593
a(I199
I0
F0.5
g140
tp594
a(I234
I0
F0.25
g274
tp595
a(I236
I2
F0.625
g276
tp596
a(I236
I2
F0.375
g144
tp597
a(I236
I2
F-0.125
g146
tp598
a(I268
I0
I0
g278
tp599
a(I298
I0
F0.25
g280
tp600
a(I348
I1
F0.625
S'right'
p601
tp602
a(I365
I5
F0.25
g286
tp603
as(S'galaxy'
p604
S'sii'
p605
tp606
(lp607
(I199
I0
F0.5
g140
tp608
a(I206
I2
F-0.25
g142
tp609
a(I310
I2
F0.375
g148
tp610
a(I365
I5
F0.25
g576
tp611
as(S'a'
p612
S'great'
p613
S'product'
p614
tp615
(lp616
(I34
I2
F0.875
g528
tp617
a(I203
I1
I0
g544
tp618
a(I235
I0
I0
g552
tp619
a(I241
I0
I0
g554
tp620
a(I245
I9
I0
g556
tp621
a(I377
I0
I0
g566
tp622
as(S'signal'
p623
tp624
(lp625
(I82
I2
F-0.5
S'poor'
p626
tp627
a(I256
I0
F0.375
S'new'
p628
tp629
a(I304
I5
F0.5
S'strongest'
p630
tp631
a(I304
I5
F0.5
S'clear'
p632
tp633
as(g612
S'samsung'
p634
S'galaxy'
p635
tp636
(lp637
(I41
I0
F1.0
g240
tp638
a(I61
I0
F-0.5
g242
tp639
a(I64
I0
I0
g244
tp640
a(I150
I0
I0
g99
tp641
a(I199
I0
F0.5
g140
tp642
a(I234
I0
F0.25
g274
tp643
a(I236
I2
F0.625
g276
tp644
a(I236
I2
F0.375
g144
tp645
a(I236
I2
F-0.125
g146
tp646
a(I268
I0
I0
g278
tp647
a(I298
I0
F0.25
g280
tp648
a(I365
I5
F0.25
g286
tp649
as(S'use'
p650
S't'
p651
S'n'
p652
tp653
(lp654
(I57
I6
F0.625
S'perfect'
p655
tp656
a(I76
I1
F-0.5
S'regular'
p657
tp658
a(I111
I4
I0
S'extensive'
p659
tp660
a(I145
I1
F-0.625
S'average'
p661
tp662
a(I191
I3
F1.0
S'good'
p663
tp664
a(I219
I2
F-0.625
S'moderate'
p665
tp666
a(I241
I2
F1.0
S'good'
p667
tp668
a(I340
I2
I0
S'normal'
p669
tp670
a(I358
I0
F-0.625
S'light'
p671
tp672
as(S'from'
p673
S'oem'
p674
S'shop'
p675
tp676
(lp677
(I89
I18
F0.875
g447
tp678
as(S'happy'
p679
S'with'
p680
S'purchase'
p681
tp682
(lp683
(I94
I0
F0.875
S'happy'
p684
tp685
a(I168
I1
F0.875
S'happy'
p686
tp687
as(S'work'
p688
tp689
(lp690
(I120
I3
F-0.625
S'other'
p691
tp692
a(I120
I3
I0
S'most'
p693
tp694
as(S'dual'
p695
S'core'
p696
tp697
(lp698
(I363
I3
F-0.25
S'thinnest'
p699
tp700
as(S'touchscreen'
p701
S'nternational'
p702
S'version'
p703
tp704
(lp705
(I98
I0
F-0.5
g314
tp706
a(I104
I3
F-0.5
g318
tp707
a(I118
I5
F-0.5
g326
tp708
a(I206
I0
F-0.5
g334
tp709
a(I213
I0
F-0.5
g336
tp710
a(I225
I0
F-0.5
g340
tp711
a(I237
I0
F-0.5
g342
tp712
a(I294
I1
F-0.5
g350
tp713
as(S'seller'
p714
tp715
(lp716
(I39
I3
I0
S'many'
p717
tp718
a(I55
I3
F-0.5
S'sure'
p719
tp720
a(I60
I7
I0
S'own'
p721
tp722
a(I111
I1
I0
S'more'
p723
tp724
a(I111
I1
I0
S'specific'
p725
tp726
a(I226
I1
F0.625
S'responsible'
p727
tp728
a(I226
I1
I0
S'punctual'
p729
tp730
a(I237
I1
F1.0
S'good'
p731
tp732
a(I245
I9
F0.625
S'credible'
p733
tp734
a(I280
I1
F0.5
S'told'
p735
tp736
a(I310
I3
I0
S'great'
p737
tp738
a(I323
I0
F0.75
S'give'
p739
tp740
a(I361
I4
F1.0
S'good'
p741
tp742
a(I361
I4
I0
S'efficient'
p743
tp744
as(S'micro'
p745
S'usb'
p746
tp747
(lp748
(I232
I1
I0
S'internal'
p749
tp750
a(I232
I1
I0
S'external'
p751
tp752
as(S'bought'
p753
S'samsung'
p754
S'galaxy'
p755
tp756
(lp757
(I225
I0
F0.25
g155
tp758
as(S'works'
p759
tp760
(lp761
(I29
I0
F1.0
S'good'
p762
tp763
a(I105
I1
F1.0
S'good'
p764
tp765
a(I245
I4
I0
S'great'
p766
tp767
a(I337
I0
I0
S'great'
p768
tp769
as(S'excellent'
p770
tp771
(lp772
(I20
I28
F-0.75
S'secondary'
p773
tp774
a(I139
I0
I0
S'android'
p775
tp776
a(I139
I0
I0
S'old'
p777
tp778
as(S'android'
p779
tp780
(lp781
(I328
I0
F0.125
S'usual'
p782
tp783
a(I334
I0
F1.0
S'best'
p784
tp785
a(I363
I0
F1.0
S'best'
p786
tp787
as(S'battery'
p788
tp789
(lp790
(I6
I1
F-0.5
g30
tp791
a(I20
I13
F-0.25
S'low'
p792
tp793
a(I28
I0
F0.25
S'original'
p794
tp795
a(I29
I0
F0.125
g32
tp796
a(I30
I5
F-0.5
g34
tp797
a(I43
I0
I0
S'mobile'
p798
tp799
a(I43
I0
I0
S'great'
p800
tp801
a(I46
I5
F-0.5
g36
tp802
a(I51
I5
I0
S'hot'
p803
tp804
a(I67
I1
F-0.5
S'actual'
p805
tp806
a(I67
I1
F0.375
S'new'
p807
tp808
a(I73
I0
F0.25
S'original'
p809
tp810
a(I78
I3
F1.0
S'better'
p811
tp812
a(I82
I1
F0.125
S'last'
p813
tp814
a(I89
I13
F-0.5
S'weak'
p815
tp816
a(I89
I19
F-0.5
S'weak'
p817
tp818
a(I96
I0
F0.125
S'last'
p819
tp820
a(I102
I1
F1.0
S'good'
p821
tp822
a(I111
I4
F-0.5
g38
tp823
a(I142
I4
F1.0
g42
tp824
a(I197
I4
F1.0
g44
tp825
a(I228
I2
F0.875
S'important'
p826
tp827
a(I236
I2
F0.25
g48
tp828
a(I248
I2
F1.0
S'good'
p829
tp830
a(I261
I1
F0.125
S'last'
p831
tp832
a(I273
I1
F-0.5
g50
tp833
a(I280
I5
F0.375
S'new'
p834
tp835
a(I285
I4
I0
S'least'
p836
tp837
a(I299
I1
F0.125
S'last'
p838
tp839
a(I338
I6
I0
S'fast'
p840
tp841
a(I353
I0
F0.25
S'original'
p842
tp843
a(I374
I0
F1.0
S'good'
p844
tp845
as(S'nternational'
p846
S'warranty'
p847
tp848
(lp849
(I51
I0
F-0.5
S'international'
p850
tp851
a(I51
I0
F-0.5
S'international'
p852
tp853
a(I66
I2
F-0.5
S'international'
p854
tp855
a(I89
I8
F0.5
S'careful'
p856
tp857
a(I89
I8
F-0.5
S'international'
p858
tp859
a(I89
I28
F-0.5
S'international'
p860
tp861
a(I92
I7
F-0.5
S'international'
p862
tp863
a(I92
I7
F0.375
S'extra'
p864
tp865
a(I123
I1
F0.375
S'extra'
p866
tp867
a(I123
I1
F-0.5
S'international'
p868
tp869
a(I125
I1
F-0.5
S'international'
p870
tp871
a(I169
I1
F-0.5
S'international'
p872
tp873
a(I169
I1
F0.75
S'due'
p874
tp875
a(I183
I0
F-0.5
S'international'
p876
tp877
a(I183
I0
F0.375
S'extra'
p878
tp879
a(I265
I1
F-0.5
S'international'
p880
tp881
a(I271
I0
F-0.5
S'international'
p882
tp883
a(I271
I0
F-0.5
S'international'
p884
tp885
a(I274
I1
F-0.5
S'international'
p886
tp887
a(I282
I0
F-0.5
S'international'
p888
tp889
a(I295
I0
F-0.5
S'international'
p890
tp891
a(I317
I1
F-0.5
S'international'
p892
tp893
a(I319
I2
F-0.5
S'international'
p894
tp895
a(I339
I3
F-0.5
S'international'
p896
tp897
a(I340
I4
F-0.5
S'international'
p898
tp899
a(I377
I1
F-0.5
S'international'
p900
tp901
as(S'samsung'
p902
S'galaxy'
p903
S's2'
p904
tp905
(lp906
(I150
I0
I0
g99
tp907
a(I234
I0
F0.25
g274
tp908
a(I298
I0
F0.25
g280
tp909
a(I375
I1
F-0.25
g101
tp910
as(S'software'
p911
tp912
(lp913
(I80
I4
I0
S'old'
p914
tp915
a(I131
I20
F0.375
S'much'
p916
tp917
a(I206
I4
F0.25
S'original'
p918
tp919
a(I252
I4
F0.375
S'new'
p920
tp921
a(I268
I6
I0
S'oldest'
p922
tp923
a(I289
I3
I0
S'android'
p924
tp925
a(I289
I7
I0
S'android'
p926
tp927
a(I358
I2
I0
S'android'
p928
tp929
as(S'samsung'
p930
S'galaxy'
p931
tp932
(lp933
(I41
I0
F1.0
g240
tp934
a(I61
I0
F-0.5
g242
tp935
a(I64
I0
I0
g244
tp936
a(I150
I0
I0
g99
tp937
a(I199
I0
F0.5
g140
tp938
a(I234
I0
F0.25
g274
tp939
a(I236
I2
F0.625
g276
tp940
a(I236
I2
F0.375
g144
tp941
a(I236
I2
F-0.125
g146
tp942
a(I268
I0
I0
g278
tp943
a(I298
I0
F0.25
g280
tp944
a(I365
I5
F0.25
g286
tp945
as(S'cell'
p946
tp947
(lp948
(I102
I1
F0.25
S'powerful'
p949
tp950
a(I117
I0
F0.375
S'new'
p951
tp952
a(I117
I0
F0.375
S'new'
p953
tp954
a(I135
I3
F1.0
S'best'
p955
tp956
a(I166
I0
F1.0
S'good'
p957
tp958
a(I171
I0
F0.625
S'perfect'
p959
tp960
a(I205
I0
F0.25
S'unlocked'
p961
tp962
a(I211
I2
I0
S'different'
p963
tp964
a(I306
I0
I0
S'great'
p965
tp966
a(I306
I0
F1.0
S'best'
p967
tp968
a(I355
I0
F-0.75
S'damaged'
p969
tp970
as(S'thing'
p971
tp972
(lp973
(I5
I0
I0
S'only'
p974
tp975
a(I5
I0
I0
S'only'
p976
tp977
a(I5
I0
F-0.875
S'negative'
p978
tp979
a(I6
I3
I0
S'only'
p980
tp981
a(I96
I0
F1.0
S'love'
p982
tp983
a(I172
I2
I0
S'only'
p984
tp985
a(I181
I1
F-0.625
S'bad'
p986
tp987
a(I183
I0
I0
S'such'
p988
tp989
a(I200
I1
I0
S'only'
p990
tp991
a(I221
I0
F-0.625
S'bad'
p992
tp993
a(I229
I0
F1.0
S'good'
p994
tp995
a(I270
I0
I0
S'only'
p996
tp997
a(I270
I0
F-0.625
S'bad'
p998
tp999
a(I286
I4
F0.25
S'main'
p1000
tp1001
a(I310
I2
F0.875
S'important'
p1002
tp1003
a(I310
I3
I0
S'only'
p1004
tp1005
a(I310
I3
F-0.625
S'bad'
p1006
tp1007
a(I363
I25
F-0.25
S'disappointing'
p1008
tp1009
as(S'sim'
p1010
S'card'
p1011
tp1012
(lp1013
(I96
I1
I0
S'local'
p1014
tp1015
a(I109
I1
F0.125
S'able'
p1016
tp1017
a(I211
I2
I0
S'same'
p1018
tp1019
as(S'update'
p1020
tp1021
(lp1022
(I9
I3
F-0.125
S'bean'
p1023
tp1024
a(I9
I3
F-0.5
S'actual'
p1025
tp1026
a(I9
I3
F0.375
S'available'
p1027
tp1028
a(I54
I3
I0
S'automatic'
p1029
tp1030
a(I232
I3
I0
S'android'
p1031
tp1032
as(S'device'
p1033
tp1034
(lp1035
(I51
I0
F0.125
S'first'
p1036
tp1037
a(I84
I4
I0
S'such'
p1038
tp1039
a(I147
I1
F-0.5
S'international'
p1040
tp1041
a(I147
I2
F-0.75
S'stupid'
p1042
tp1043
a(I147
I2
F0.5
S'expensive'
p1044
tp1045
a(I192
I4
F1.0
S'good'
p1046
tp1047
a(I232
I1
I0
S'internal'
p1048
tp1049
a(I253
I0
F0.25
S'refurbished'
p1050
tp1051
a(I262
I0
I0
S'fast'
p1052
tp1053
a(I310
I1
I0
S'great'
p1054
tp1055
a(I340
I7
I0
S'great'
p1056
tp1057
a(I357
I0
I0
S'android'
p1058
tp1059
a(I363
I5
F-0.375
S'top'
p1060
tp1061
a(I363
I34
F0.125
S'last'
p1062
tp1063
as(S'gorilla'
p1064
S'glass'
p1065
tp1066
(lp1067
(I199
I1
I0
S'real'
p1068
tp1069
as(S'warranty'
p1070
tp1071
(lp1072
(I51
I0
F-0.5
g850
tp1073
a(I51
I0
F-0.5
g852
tp1074
a(I66
I2
F-0.5
g854
tp1075
a(I89
I8
F0.5
g856
tp1076
a(I89
I8
F-0.5
g858
tp1077
a(I89
I28
F-0.5
g860
tp1078
a(I92
I7
F-0.5
g862
tp1079
a(I92
I7
F0.375
g864
tp1080
a(I123
I1
F0.375
g866
tp1081
a(I123
I1
F-0.5
g868
tp1082
a(I125
I1
F-0.5
g870
tp1083
a(I169
I1
F-0.5
g872
tp1084
a(I169
I1
F0.75
g874
tp1085
a(I183
I0
F-0.5
g876
tp1086
a(I183
I0
F0.375
g878
tp1087
a(I215
I2
F0.125
S'valid'
p1088
tp1089
a(I265
I1
F-0.5
g880
tp1090
a(I271
I0
F-0.5
g882
tp1091
a(I271
I0
F-0.5
g884
tp1092
a(I274
I1
F-0.5
g886
tp1093
a(I282
I0
F-0.5
g888
tp1094
a(I295
I0
F-0.5
g890
tp1095
a(I317
I1
F-0.5
g892
tp1096
a(I319
I2
F-0.5
g894
tp1097
a(I339
I3
F-0.5
g896
tp1098
a(I340
I4
F-0.5
g898
tp1099
a(I377
I1
F-0.5
g900
tp1100
as(S'android'
p1101
S'ce'
p1102
S'cream'
p1103
tp1104
(lp1105
(I185
I0
I0
g9
tp1106
as(S'screen'
p1107
tp1108
(lp1109
(I20
I1
F0.25
S'larger'
p1110
tp1111
a(I20
I2
I0
S'more'
p1112
tp1113
a(I24
I0
F1.0
S'good'
p1114
tp1115
a(I44
I3
F0.75
S'beautiful'
p1116
tp1117
a(I68
I5
F-0.125
S'super'
p1118
tp1119
a(I68
I5
F-0.625
S'light'
p1120
tp1121
a(I76
I3
F0.625
S'perfect'
p1122
tp1123
a(I76
I3
F0.5
S'clear'
p1124
tp1125
a(I81
I2
F0.75
S'ideal'
p1126
tp1127
a(I90
I0
I0
S'big'
p1128
tp1129
a(I91
I2
F-0.625
S'light'
p1130
tp1131
a(I102
I1
F0.125
S'colorful'
p1132
tp1133
a(I112
I1
F0.375
S'new'
p1134
tp1135
a(I122
I1
F-0.75
S'bright'
p1136
tp1137
a(I128
I4
I0
S'big'
p1138
tp1139
a(I128
I4
F1.0
S'good'
p1140
tp1141
a(I131
I7
F0.5
S'touch'
p1142
tp1143
a(I131
I10
F0.5
S'second'
p1144
tp1145
a(I132
I0
I0
S'great'
p1146
tp1147
a(I137
I0
F0.25
S'bigger'
p1148
tp1149
a(I143
I1
I0
S'te'
p1150
tp1151
a(I143
I1
F-0.375
S'black'
p1152
tp1153
a(I182
I2
F0.75
S'beautiful'
p1154
tp1155
a(I185
I0
F-0.75
S'bright'
p1156
tp1157
a(I185
I0
F0.75
S'due'
p1158
tp1159
a(I186
I0
I0
S'fast'
p1160
tp1161
a(I192
I4
I0
S'great'
p1162
tp1163
a(I207
I0
F-0.625
S'light'
p1164
tp1165
a(I207
I0
I0
S'incredible'
p1166
tp1167
a(I212
I2
F0.625
S'perfect'
p1168
tp1169
a(I252
I1
F0.875
S'nice'
p1170
tp1171
a(I271
I1
F0.125
S'first'
p1172
tp1173
a(I282
I0
F1.0
S'better'
p1174
tp1175
a(I295
I0
I0
S'great'
p1176
tp1177
a(I295
I0
I0
S'slim'
p1178
tp1179
a(I317
I2
F0.25
S'sharper'
p1180
tp1181
a(I333
I2
I0
S'blue'
p1182
tp1183
a(I345
I3
I0
S'italian'
p1184
tp1185
a(I345
I3
I0
S'spanish'
p1186
tp1187
as(S'time'
p1188
tp1189
(lp1190
(I7
I8
I0
S'many'
p1191
tp1192
a(I20
I12
F0.125
S'charger'
p1193
tp1194
a(I29
I0
F-0.75
S'short'
p1195
tp1196
a(I34
I1
I0
S'great'
p1197
tp1198
a(I44
I7
F-0.5
S'long'
p1199
tp1200
a(I60
I6
F-0.5
S'long'
p1201
tp1202
a(I89
I6
I0
S'same'
p1203
tp1204
a(I89
I21
F0.125
S'first'
p1205
tp1206
a(I112
I0
I0
S'same'
p1207
tp1208
a(I117
I0
F0.125
S'first'
p1209
tp1210
a(I120
I7
I0
S'most'
p1211
tp1212
a(I131
I8
I0
S'most'
p1213
tp1214
a(I167
I0
I0
S'same'
p1215
tp1216
a(I170
I1
I0
S'big'
p1217
tp1218
a(I185
I0
I0
S'incredible'
p1219
tp1220
a(I194
I5
F-0.375
S'manual'
p1221
tp1222
a(I235
I0
F0.125
S'first'
p1223
tp1224
a(I236
I2
I0
S'more'
p1225
tp1226
a(I241
I1
F0.625
S'easy'
p1227
tp1228
a(I245
I2
I0
S'same'
p1229
tp1230
a(I248
I0
F1.0
S'better'
p1231
tp1232
a(I248
I0
F-0.75
S'short'
p1233
tp1234
a(I270
I0
I0
S'fast'
p1235
tp1236
a(I294
I0
F-0.5
S'open'
p1237
tp1238
a(I294
I0
F0.125
S'first'
p1239
tp1240
a(I315
I2
F0.375
S'much'
p1241
tp1242
a(I315
I7
F-0.125
S'overall'
p1243
tp1244
a(I332
I0
F0.125
S'first'
p1245
tp1246
a(I379
I1
F-0.875
S'hard'
p1247
tp1248
as(S'camera'
p1249
tp1250
(lp1251
(I57
I5
I0
g453
tp1252
a(I57
I5
I0
g455
tp1253
a(I77
I0
F0.125
S'operative'
p1254
tp1255
a(I181
I1
F1.0
S'better'
p1256
tp1257
a(I194
I1
F1.0
S'good'
p1258
tp1259
a(I214
I3
F0.625
S'convenient'
p1260
tp1261
a(I228
I4
I0
S'great'
p1262
tp1263
a(I230
I0
I0
S'different'
p1264
tp1265
a(I255
I0
F1.0
S'good'
p1266
tp1267
a(I307
I3
F-0.625
S'surprising'
p1268
tp1269
a(I307
I3
F1.0
S'good'
p1270
tp1271
as(S'arrived'
p1272
S'on'
p1273
S'time'
p1274
tp1275
(lp1276
(I89
I21
F0.125
g1205
tp1277
a(I270
I0
I0
g1235
tp1278
as(g652
S'box'
p1279
tp1280
(lp1281
(I0
I0
F-0.25
S'white'
p1282
tp1283
a(I9
I0
F0.25
S'original'
p1284
tp1285
a(I16
I0
F-0.5
S'open'
p1286
tp1287
a(I54
I0
F0.25
S'original'
p1288
tp1289
a(I62
I0
F0.375
S'new'
p1290
tp1291
a(I80
I0
I0
S'funny'
p1292
tp1293
a(I89
I2
F-0.75
S'dirty'
p1294
tp1295
a(I89
I19
F-0.5
S'open'
p1296
tp1297
a(I89
I20
F-0.75
S'dirty'
p1298
tp1299
a(I89
I22
F0.375
S'new'
p1300
tp1301
a(I96
I1
F0.125
S'able'
p1302
tp1303
a(I96
I1
F0.625
S'straight'
p1304
tp1305
a(I131
I2
F0.125
S'usual'
p1306
tp1307
a(I153
I0
F0.25
S'original'
p1308
tp1309
a(I176
I2
F-0.375
S'smaller'
p1310
tp1311
a(I176
I2
F-0.625
S'other'
p1312
tp1313
a(I177
I0
F0.875
S'nice'
p1314
tp1315
a(I217
I0
F-0.25
S'lid'
p1316
tp1317
a(I230
I0
F0.125
S'sealed'
p1318
tp1319
a(I245
I6
F0.25
S'original'
p1320
tp1321
a(I368
I0
F0.375
S'new'
p1322
tp1323
a(I368
I0
F0.25
S'original'
p1324
tp1325
as(S'card'
p1326
tp1327
(lp1328
(I169
I1
I0
S'russian'
p1329
tp1330
as(S'light'
p1331
tp1332
(lp1333
(I12
I3
I0
S'faster'
p1334
tp1335
a(I20
I24
F-0.25
S'low'
p1336
tp1337
as(S'fast'
p1338
tp1339
(lp1340
(I187
I0
F0.5
S'stylish'
p1341
tp1342
a(I232
I3
F0.25
S'responsive'
p1343
tp1344
a(I315
I1
F-0.375
S'crazy'
p1345
tp1346
as(S'size'
p1347
tp1348
(lp1349
(I20
I1
F0.25
S'larger'
p1350
tp1351
a(I20
I4
I0
S'large'
p1352
tp1353
a(I41
I0
F0.625
S'perfect'
p1354
tp1355
a(I173
I1
F-0.375
S'small'
p1356
tp1357
a(I181
I1
I0
S'great'
p1358
tp1359
a(I181
I1
F-0.75
S'comfortable'
p1360
tp1361
a(I185
I0
F-0.5
S'heavy'
p1362
tp1363
a(I194
I6
I0
S'standard'
p1364
tp1365
a(I196
I0
F0.25
S'bigger'
p1366
tp1367
a(I310
I2
I0
S'useful'
p1368
tp1369
a(I310
I2
I0
S'big'
p1370
tp1371
a(I310
I2
F-0.375
S'small'
p1372
tp1373
a(I378
I0
I0
S'great'
p1374
tp1375
as(S'better'
p1376
tp1377
(lp1378
(I145
I1
F0.375
S'much'
p1379
tp1380
a(I231
I0
F0.375
S'much'
p1381
tp1382
as(S'wifi'
p1383
tp1384
(lp1385
(I40
I1
F1.0
S'good'
p1386
tp1387
a(I192
I3
F1.0
S'good'
p1388
tp1389
a(I292
I1
F1.0
S'good'
p1390
tp1391
as(S'apps'
p1392
tp1393
(lp1394
(I20
I9
I0
S'more'
p1395
tp1396
a(I20
I9
I0
S'slower'
p1397
tp1398
a(I20
I10
I0
S'many'
p1399
tp1400
a(I20
I22
I0
S'many'
p1401
tp1402
a(I20
I23
I0
S'many'
p1403
tp1404
a(I63
I0
I0
S'many'
p1405
tp1406
a(I68
I4
F0.375
S'available'
p1407
tp1408
a(I90
I0
I0
S'stable'
p1409
tp1410
a(I90
I0
I0
S'many'
p1411
tp1412
a(I241
I3
I0
S'android'
p1413
tp1414
a(I241
I3
I0
S'great'
p1415
tp1416
a(I315
I2
I0
S'many'
p1417
tp1418
a(I332
I2
F-0.5
S'certain'
p1419
tp1420
a(I359
I1
F0.625
S'accessible'
p1421
tp1422
as(S'life'
p1423
tp1424
(lp1425
(I111
I4
F-0.5
g40
tp1426
a(I236
I2
F-0.25
g46
tp1427
a(I340
I2
F0.25
g52
tp1428
a(I341
I6
I0
g54
tp1429
as(S'mb'
p1430
S'ram'
p1431
tp1432
(lp1433
(I89
I24
F0.375
S'busy'
p1434
tp1435
as(S'days'
p1436
tp1437
(lp1438
(I7
I4
F0.125
S'last'
p1439
tp1440
a(I9
I7
F0.5
S'obvious'
p1441
tp1442
a(I10
I0
I0
S'few'
p1443
tp1444
a(I39
I1
F0.5
S'touch'
p1445
tp1446
a(I57
I9
I0
S'faster'
p1447
tp1448
a(I89
I16
F-0.5
S'less'
p1449
tp1450
a(I117
I0
I0
S'thirty'
p1451
tp1452
a(I118
I2
I0
S'technician'
p1453
tp1454
a(I118
I2
I0
S'few'
p1455
tp1456
a(I269
I2
F0.5
S'rid'
p1457
tp1458
a(I333
I3
I0
S'later'
p1459
tp1460
a(I363
I34
F0.125
S'last'
p1461
tp1462
a(I365
I3
I0
S'few'
p1463
tp1464
as(S'micro'
p1465
S'sd'
p1466
tp1467
(lp1468
(I232
I1
I0
g751
tp1469
a(I236
I2
F1.0
S'better'
p1470
tp1471
as(S'smartphone'
p1472
tp1473
(lp1474
(I45
I1
I0
S'android'
p1475
tp1476
a(I70
I0
F0.125
S'first'
p1477
tp1478
a(I70
I0
I0
S'more'
p1479
tp1480
a(I70
I0
F0.125
S'capable'
p1481
tp1482
a(I134
I2
I0
S'real'
p1483
tp1484
a(I166
I1
F1.0
S'best'
p1485
tp1486
a(I182
I1
F1.0
S'best'
p1487
tp1488
a(I222
I1
I0
S'real'
p1489
tp1490
a(I227
I0
F0.625
S'perfect'
p1491
tp1492
a(I252
I2
F1.0
S'good'
p1493
tp1494
a(I300
I5
F0.25
S'independent'
p1495
tp1496
a(I307
I0
I0
S'great'
p1497
tp1498
a(I330
I5
I0
S'earlier'
p1499
tp1500
a(I354
I0
F0.875
S'nice'
p1501
tp1502
a(I354
I1
F1.0
S'best'
p1503
tp1504
a(I362
I1
I0
S'android'
p1505
tp1506
as(g652
g612
S'box'
p1507
tp1508
(lp1509
(I0
I0
F-0.25
g1282
tp1510
a(I9
I0
F0.25
g1284
tp1511
a(I16
I0
F-0.5
g1286
tp1512
a(I54
I0
F0.25
g1288
tp1513
a(I62
I0
F0.375
g1290
tp1514
a(I80
I0
I0
g1292
tp1515
a(I89
I2
F-0.75
g1294
tp1516
a(I89
I19
F-0.5
g1296
tp1517
a(I89
I20
F-0.75
g1298
tp1518
a(I89
I22
F0.375
g1300
tp1519
a(I96
I1
F0.125
g1302
tp1520
a(I96
I1
F0.625
g1304
tp1521
a(I131
I2
F0.125
g1306
tp1522
a(I153
I0
F0.25
g1308
tp1523
a(I176
I2
F-0.375
g1310
tp1524
a(I176
I2
F-0.625
g1312
tp1525
a(I177
I0
F0.875
g1314
tp1526
a(I217
I0
F-0.25
g1316
tp1527
a(I230
I0
F0.125
g1318
tp1528
a(I245
I6
F0.25
g1320
tp1529
a(I368
I0
F0.375
g1322
tp1530
a(I368
I0
F0.25
g1324
tp1531
as.