(dp0
(S'current'
p1
S'copy'
p2
tp3
(lp4
(I3
I19
I0
S'current'
p5
I0
tp6
a(I3
I20
I0
S'current'
p7
I0
tp8
a(I3
I23
F0.25
S'behavior'
p9
I0
tp10
a(I3
I23
I0
S'current'
p11
I0
tp12
as(S'least'
p13
S'twice'
p14
tp15
(lp16
(I2
I226
I0
S'least'
p17
I1
tp18
a(I2
I226
I0
S'least'
p19
I1
tp20
a(I2
I226
F1.0
S'good'
p21
I1
tp22
a(I2
I237
I0
S'least'
p23
I1
tp24
a(I2
I237
F-0.5
S'long'
p25
I1
tp26
a(I3
I82
I0
S'least'
p27
I1
tp28
as(S'battery'
p29
S'life'
p30
tp31
(lp32
(I2
I126
F-0.5
S'poor'
p33
I1
tp34
a(I2
I284
F1.0
S'better'
p35
I1
tp36
a(I3
I3
F-0.875
S'worst'
p37
I1
tp38
a(I4
I0
F-0.625
S'bad'
p39
I1
tp40
a(I4
I23
F-0.5
S'poor'
p41
I1
tp42
a(I4
I84
F0.125
S'typical'
p43
I1
tp44
a(I3
I3
F-0.875
g37
I19
tp45
a(I4
I0
F-0.625
g39
I19
tp46
a(I4
I84
F0.125
g43
I19
tp47
a(I2
I65
F0.625
S'removable'
p48
I15
tp49
a(I2
I102
F0.375
S'much'
p50
I15
tp51
a(I2
I126
F-0.5
g33
I15
tp52
a(I2
I128
I0
S'fast'
p53
I15
tp54
a(I2
I183
I0
S'great'
p55
I15
tp56
a(I2
I184
I0
S'unplugged'
p57
I15
tp58
a(I2
I284
F1.0
g35
I15
tp59
a(I3
I6
F-0.25
S'low'
p60
I15
tp61
a(I3
I6
I0
S'active'
p62
I15
tp63
a(I3
I14
F0.125
S'first'
p64
I15
tp65
a(I3
I15
F0.375
S'extended'
p66
I15
tp67
a(I3
I38
F0.125
S'usual'
p68
I15
tp69
a(I4
I23
F-0.5
g41
I15
tp70
a(I4
I28
F0.625
S'necessary'
p71
I15
tp72
a(I4
I41
F-0.625
S'bad'
p73
I15
tp74
a(I4
I45
F-0.75
S'dead'
p75
I15
tp76
a(I4
I86
F0.375
S'extra'
p77
I15
tp78
a(I4
I93
F0.125
S'last'
p79
I15
tp80
a(I5
I11
F1.0
S'good'
p81
I15
tp82
a(I5
I12
F1.0
S'good'
p83
I15
tp84
a(I5
I84
I0
S'full'
p85
I15
tp86
a(I5
I85
F0.375
S'extra'
p87
I15
tp88
a(I6
I18
F0.625
S'safe'
p89
I15
tp90
as(S'keyboard'
p91
tp92
(lp93
(I2
I151
F0.5
S'functional'
p94
I2
tp95
a(I2
I216
F-0.625
S'free'
p96
I2
tp97
a(I2
I330
F-0.625
S'bad'
p98
I2
tp99
a(I2
I372
F0.625
S'perfect'
p100
I2
tp101
a(I3
I74
F1.0
S'good'
p102
I2
tp103
a(I3
I77
F-0.625
S'bad'
p104
I2
tp105
as(S'text'
p106
tp107
(lp108
(I2
I263
F-0.5
S'sudden'
p109
I18
tp110
a(I2
I328
I0
S'entire'
p111
I18
tp112
a(I3
I85
I0
S'same'
p113
I18
tp114
a(I3
I85
I0
S'same'
p115
I18
tp116
a(I4
I95
I0
S'same'
p117
I18
tp118
as(S'faster'
p119
tp120
(lp121
(I4
I51
F0.375
S'much'
p122
I7
tp123
as(S'revo'
p124
tp125
(lp126
(I2
I143
F-0.5
S'heaviest'
p127
I0
tp128
a(I2
I171
I0
S'standard'
p129
I0
tp130
as(S'iphone'
p131
tp132
(lp133
(I3
I52
F-0.625
S'other'
p134
I1
tp135
as(S'front'
p136
S'facing'
p137
S'camera'
p138
tp139
(lp140
(I3
I50
F0.5
S'clear'
p141
I0
tp142
a(I3
I50
F0.5
g141
I0
tp143
a(I2
I338
F-0.625
S'bad'
p144
I1
tp145
a(I2
I338
F0.875
S'happy'
p146
I1
tp147
a(I3
I48
F-0.5
S'regular'
p148
I1
tp149
a(I3
I49
F0.5
S'clear'
p150
I1
tp151
a(I3
I49
F0.125
S'digital'
p152
I1
tp153
a(I3
I50
F0.5
g141
I1
tp154
a(I5
I75
F-0.875
S'awful'
p155
I1
tp156
as(S'times'
p157
S'a'
p158
S'day'
p159
tp160
(lp161
(I1
I42
I0
S'few'
p162
I0
tp163
a(I4
I33
F-0.625
S'other'
p164
I0
tp165
as(S'internet'
p166
tp167
(lp168
(I2
I110
I0
S'general'
p169
I6
tp170
a(I2
I303
F-0.125
S'slow'
p171
I6
tp172
a(I2
I376
I0
S'faster'
p173
I6
tp174
a(I3
I69
F1.0
S'good'
p175
I6
tp176
a(I4
I97
F-0.125
S'slow'
p177
I6
tp178
as(S'revolution'
p179
tp180
(lp181
(I2
I24
F0.125
S'first'
p182
I0
tp183
a(I2
I94
F0.875
S'happy'
p184
I0
tp185
a(I2
I124
F0.5
S'obvious'
p186
I0
tp187
a(I2
I141
I0
S'total'
p188
I0
tp189
a(I2
I363
F0.375
S'much'
p190
I0
tp191
a(I2
I363
F0.625
S'easier'
p192
I0
tp193
a(I4
I49
F0.25
S'larger'
p194
I0
tp195
a(I5
I66
F-0.25
S'disappointing'
p196
I0
tp197
as(S'thunderbolt'
p198
tp199
(lp200
(I2
I284
F0.5
S'true'
p201
I0
tp202
as(S'bing'
p203
tp204
(lp205
(I2
I106
F-0.875
S'unhappy'
p206
I4
tp207
a(I6
I11
F0.5
S'whole'
p208
I4
tp209
as(S'verizon'
p210
tp211
(lp212
(I2
I57
F0.5
S'told'
p213
I0
tp214
a(I2
I98
I0
S'only'
p215
I0
tp216
a(I2
I207
F-0.5
S'unlimited'
p217
I0
tp218
a(I2
I284
F0.5
S'told'
p219
I0
tp220
a(I4
I112
F-0.625
S'other'
p221
I0
tp222
a(I4
I118
I0
S'current'
p223
I0
tp224
a(I5
I93
F-0.25
S'google'
p225
I0
tp226
as(S'dual'
p227
S'core'
p228
tp229
(lp230
(I2
I91
F-0.75
S'single'
p231
I0
tp232
a(I2
I194
F-0.75
S'single'
p233
I0
tp234
a(I2
I206
F0.375
S'new'
p235
I0
tp236
a(I4
I111
F0.375
S'newer'
p237
I0
tp238
as(S'usage'
p239
tp240
(lp241
(I1
I19
I0
S'least'
p242
I1
tp243
a(I2
I184
F-0.5
S'heavy'
p244
I1
tp245
a(I2
I237
I0
S'same'
p246
I1
tp247
a(I2
I296
F-0.5
S'regular'
p248
I1
tp249
a(I2
I296
F0.375
S'similar'
p250
I1
tp251
a(I3
I37
I0
S'minimal'
p252
I1
tp253
a(I4
I0
F-0.75
S'dead'
p254
I1
tp255
a(I4
I0
F-0.625
S'bad'
p256
I1
tp257
as(S'moto'
p258
S'droid'
p259
tp260
(lp261
(I2
I223
F0.25
S'original'
p262
I0
tp263
a(I2
I225
I0
S'old'
p264
I0
tp265
a(I2
I228
I0
S'old'
p266
I0
tp267
a(I1
I10
F-0.75
S'unresponsive'
p268
I0
tp269
a(I1
I14
I0
S'earlier'
p270
I0
tp271
a(I1
I41
F1.0
S'good'
p272
I0
tp273
a(I2
I66
F-0.5
S'open'
p274
I0
tp275
a(I2
I80
I0
S'only'
p276
I0
tp277
a(I2
I82
I0
S'only'
p278
I0
tp279
a(I2
I191
F1.0
S'good'
p280
I0
tp281
a(I2
I238
F0.25
S'original'
p282
I0
tp283
a(I2
I345
I0
S'faster'
p284
I0
tp285
a(I4
I8
F0.25
S'original'
p286
I0
tp287
a(I4
I65
F0.25
S'original'
p288
I0
tp289
a(I4
I65
I0
S'sigh'
p290
I0
tp291
a(I4
I65
F-0.25
S'disappointed'
p292
I0
tp293
a(I4
I65
F-0.125
S'overall'
p294
I0
tp295
a(I4
I66
I0
S'old'
p296
I0
tp297
a(I5
I32
F0.25
S'original'
p298
I0
tp299
a(I6
I6
F0.875
S'happy'
p300
I0
tp301
as(g158
S'big'
p302
S'deal'
p303
tp304
(lp305
(I1
I35
I0
S'big'
p306
I7
tp307
a(I2
I146
I0
S'big'
p308
I7
tp309
a(I2
I216
I0
S'big'
p310
I7
tp311
a(I2
I217
I0
S'big'
p312
I7
tp313
a(I2
I313
I0
S'big'
p314
I7
tp315
a(I2
I334
I0
S'big'
p316
I7
tp317
a(I2
I334
I0
S'big'
p318
I7
tp319
a(I3
I54
I0
S'big'
p320
I7
tp321
a(I6
I17
I0
S'big'
p322
I7
tp323
a(I1
I35
I0
g306
I11
tp324
a(I2
I146
I0
g308
I11
tp325
a(I2
I216
I0
g310
I11
tp326
a(I2
I217
I0
g312
I11
tp327
a(I2
I313
I0
g314
I11
tp328
a(I2
I334
I0
g316
I11
tp329
a(I2
I334
I0
g318
I11
tp330
a(I3
I54
I0
g320
I11
tp331
a(I6
I17
I0
g322
I11
tp332
as(S'airplane'
p333
S'mode'
p334
tp335
(lp336
(I2
I266
F-0.5
S'sudden'
p337
I0
tp338
a(I2
I268
I0
S'airplane'
p339
I0
tp340
as(S'droid'
p341
S'charge'
p342
tp343
(lp344
(I2
I191
F1.0
g280
I0
tp345
a(I2
I238
F0.25
g282
I0
tp346
a(I2
I345
I0
g284
I0
tp347
as(S'single'
p348
S'core'
p349
tp350
(lp351
(I2
I91
F-0.75
g231
I0
tp352
a(I2
I194
F-0.75
g233
I0
tp353
a(I2
I221
F-0.75
S'single'
p354
I0
tp355
a(I2
I349
F-0.75
S'single'
p356
I0
tp357
a(I2
I91
F-0.75
g231
I3
tp358
a(I2
I194
F-0.75
g233
I3
tp359
a(I2
I206
F0.375
g235
I3
tp360
a(I2
I221
F-0.75
g354
I3
tp361
a(I2
I349
F-0.75
g356
I3
tp362
a(I4
I111
F0.375
g237
I3
tp363
as(S'blackberry'
p364
tp365
(lp366
(I2
I64
F0.5
S'loyal'
p367
I1
tp368
a(I2
I68
F0.625
S'convenient'
p369
I1
tp370
a(I2
I113
I0
S'equivalent'
p371
I1
tp372
a(I2
I113
I0
S'faster'
p373
I1
tp374
as(S'data'
p375
tp376
(lp377
(I2
I62
I0
S'faster'
p378
I13
tp379
a(I3
I55
I0
S'extensive'
p380
I13
tp381
a(I3
I56
I0
S'high'
p382
I13
tp383
a(I4
I118
F-0.5
S'unlimited'
p384
I13
tp385
a(I5
I5
F0.75
S'due'
p386
I13
tp387
a(I5
I5
F-0.5
S'heavy'
p388
I13
tp389
as(S'car'
p390
S'charger'
p391
tp392
(lp393
(I2
I246
F0.625
S'necessary'
p394
I0
tp395
a(I2
I246
F0.375
S'scan'
p396
I0
tp397
as(S'texts'
p398
tp399
(lp400
(I2
I55
F-0.5
S'longer'
p401
I0
tp402
as(S'apps'
p403
tp404
(lp405
(I1
I12
F-0.5
S'open'
p406
I0
tp407
a(I1
I12
F-0.5
S'open'
p408
I0
tp409
a(I1
I13
I0
S'close'
p410
I0
tp411
a(I2
I13
F-0.25
S'google'
p412
I0
tp413
a(I2
I31
F-0.75
S'unresponsive'
p414
I0
tp415
a(I2
I364
F0.25
S'used'
p416
I0
tp417
a(I3
I8
F1.0
S'better'
p418
I0
tp419
a(I6
I2
F-0.75
S'unable'
p420
I0
tp421
a(I6
I12
F-0.25
S'google'
p422
I0
tp423
as(S'touch'
p424
S'screen'
p425
tp426
(lp427
(I2
I214
F0.875
S'nice'
p428
I2
tp429
a(I2
I263
F0.5
S'touch'
p430
I2
tp431
a(I3
I46
F0.5
S'touch'
p432
I2
tp433
as.