(dp0
(S'battery'
p1
S'life'
p2
tp3
(lp4
(I0
I4
F0.625
S'major'
p5
tp6
a(I44
I4
F-0.125
S'blackberry'
p7
tp8
a(I128
I7
F-0.75
S'short'
p9
tp10
a(I156
I0
F-0.5
S'less'
p11
tp12
a(I160
I1
I0
S'soft'
p13
tp14
a(I160
I1
F0.625
S'easy'
p15
tp16
as(S'purchase'
p17
tp18
(lp19
(I37
I0
F1.0
S'good'
p20
tp21
as(S'3g'
p22
S'bands'
p23
tp24
(lp25
(I38
I0
F-0.5
S'sure'
p26
tp27
as(S'everything'
p28
tp29
(lp30
(I96
I2
I0
S'cellular'
p31
tp32
a(I139
I0
F0.625
S'perfect'
p33
tp34
a(I147
I32
F0.625
S'easier'
p35
tp36
a(I147
I58
F-0.375
S'simple'
p37
tp38
a(I154
I0
F0.875
S'happy'
p39
tp40
a(I154
I0
I0
S'general'
p41
tp42
as(S'problems'
p43
tp44
(lp45
(I88
I0
I0
S'many'
p46
tp47
a(I90
I2
I0
S'most'
p48
tp49
as(S'y'
p50
S'el'
p51
tp52
(lp53
(I146
I1
F0.25
S'original'
p54
tp55
as(S'soy'
p56
S'de'
p57
tp58
(lp59
(I143
I1
F0.375
S'soy'
p60
tp61
as(S'version'
p62
tp63
(lp64
(I12
I1
I0
S'old'
p65
tp66
a(I12
I1
F0.375
S'similar'
p67
tp68
a(I15
I0
I0
S'latest'
p69
tp70
a(I150
I0
I0
S'older'
p71
tp72
as(S'life'
p73
tp74
(lp75
(I156
I0
F-0.5
g11
tp76
a(I160
I1
I0
g13
tp77
a(I160
I1
F0.625
g15
tp78
as(S'de'
p79
S'venezuela'
p80
g50
tp81
(lp82
(I143
I1
F0.375
g60
tp83
as(S'recommend'
p84
tp85
(lp86
(I109
I0
F0.375
S'reliable'
p87
tp88
as(S'product'
p89
tp90
(lp91
(I2
I0
F0.875
S'happy'
p92
tp93
a(I14
I3
F-0.5
S'sure'
p94
tp95
a(I15
I0
F0.375
S'new'
p96
tp97
a(I35
I0
F1.0
S'good'
p98
tp99
a(I81
I1
F-0.5
S'sure'
p100
tp101
a(I96
I0
F1.0
S'good'
p102
tp103
a(I99
I6
F0.25
S'original'
p104
tp105
a(I114
I1
F-0.375
S'black'
p106
tp107
a(I114
I1
F1.0
S'good'
p108
tp109
a(I119
I0
F0.375
S'reliable'
p110
tp111
a(I119
I0
F0.5
S'high-tech'
p112
tp113
a(I119
I0
F0.5
S'grateful'
p114
tp115
a(I124
I0
F0.25
S'original'
p116
tp117
a(I126
I0
F-0.625
S'bad'
p118
tp119
a(I160
I0
F1.0
S'good'
p120
tp121
a(I170
I5
I0
S'great'
p122
tp123
as(S'features'
p124
tp125
(lp126
(I54
I2
I0
S'basic'
p127
tp128
a(I131
I3
F-0.625
S'other'
p129
tp130
as(S'curve'
p131
tp132
(lp133
(I106
I0
I0
S'arrive'
p134
tp135
a(I147
I48
F0.125
S'last'
p136
tp137
a(I147
I55
F-0.125
S'blackberry'
p138
tp139
a(I147
I55
F-0.375
S'small'
p140
tp141
as(S'work'
p142
tp143
(lp144
(I133
I0
F0.375
S'new'
p145
tp146
as(S'blackberry'
p147
S'curve'
p148
tp149
(lp150
(I106
I0
I0
g134
tp151
a(I147
I55
F-0.125
g138
tp152
a(I147
I55
F-0.375
g140
tp153
a(I170
I1
I0
S'old'
p154
tp155
as(S'touch'
p156
S'pad'
p157
tp158
(lp159
(I32
I8
F0.5
S'touch'
p160
tp161
as(S'good'
p162
S'product'
p163
tp164
(lp165
(I35
I0
F1.0
g98
tp166
a(I96
I0
F1.0
g102
tp167
a(I99
I6
F0.25
g104
tp168
a(I114
I1
F-0.375
g106
tp169
a(I114
I1
F1.0
g108
tp170
a(I160
I0
F1.0
g120
tp171
as(S'case'
p172
tp173
(lp174
(I28
I1
I0
S'least'
p175
tp176
a(I93
I1
F-0.625
S'other'
p177
tp178
a(I147
I43
F0.875
S'nice'
p179
tp180
a(I147
I43
F0.125
S'protective'
p181
tp182
a(I147
I45
F0.375
S'newer'
p183
tp184
a(I147
I45
I0
S'weird'
p185
tp186
as(S'works'
p187
tp188
(lp189
(I122
I3
I0
S'mobile'
p190
tp191
as(S'venezuela'
p192
tp193
(lp194
(I17
I0
I0
S'many'
p195
tp196
a(I52
I0
I0
S'signal'
p197
tp198
as(S'battery'
p199
tp200
(lp201
(I0
I4
F0.625
g5
tp202
a(I0
I8
I0
S'rim'
p203
tp204
a(I44
I4
F-0.125
g7
tp205
a(I107
I0
F-0.5
S'weak'
p206
tp207
a(I128
I7
F-0.75
g9
tp208
a(I132
I0
F-0.375
S'serious'
p209
tp210
as(S'bands'
p211
tp212
(lp213
(I38
I0
F-0.5
g26
tp214
as(S'network'
p215
tp216
(lp217
(I19
I1
F0.5
S'compatible'
p218
tp219
a(I44
I4
I0
S'social'
p220
tp221
a(I147
I43
I0
S'basic'
p222
tp223
a(I147
I43
F0.25
S'diagnostic'
p224
tp225
a(I151
I2
I0
S'local'
p226
tp227
as(S'cell'
p228
tp229
(lp230
(I15
I0
F-0.25
S'loose'
p231
tp232
a(I156
I1
F-0.75
S'dead'
p233
tp234
as(S'venezuela'
p235
g50
tp236
(lp237
(I17
I0
I0
g195
tp238
a(I52
I0
I0
g197
tp239
as(S'blackberry'
p240
tp241
(lp242
(I32
I0
F0.125
S'key'
p243
tp244
a(I42
I0
I0
S'great'
p245
tp246
a(I44
I1
I0
S'special'
p247
tp248
a(I72
I0
I0
S'old'
p249
tp250
a(I82
I0
F1.0
S'good'
p251
tp252
a(I82
I2
F-0.125
S'overall'
p253
tp254
a(I82
I2
F0.375
S'new'
p255
tp256
a(I90
I7
I0
S'full'
p257
tp258
a(I147
I5
F0.875
S'nice'
p259
tp260
a(I147
I18
F1.0
S'better'
p261
tp262
a(I147
I18
F-0.625
S'other'
p263
tp264
a(I168
I1
F-0.25
S'thinner'
p265
tp266
a(I168
I1
F-0.625
S'other'
p267
tp268
a(I170
I1
I0
g154
tp269
as(S'time'
p270
tp271
(lp272
(I35
I0
I0
S'same'
p273
tp274
a(I58
I0
F-0.75
S'short'
p275
tp276
a(I122
I3
I0
S'next'
p277
tp278
a(I122
I3
I0
S'least'
p279
tp280
a(I147
I5
F0.125
S'first'
p281
tp282
as(S'en'
p283
S'el'
p284
tp285
(lp286
(I41
I0
I0
S'van'
p287
tp288
as(S'de'
p289
S'venezuela'
p290
tp291
(lp292
(I143
I1
F0.375
g60
tp293
as(S'card'
p294
tp295
(lp296
(I120
I2
F0.5
S'marked'
p297
tp298
a(I124
I1
F0.75
S'due'
p299
tp300
as(S'charger'
p301
tp302
(lp303
(I66
I2
F-0.25
S'loose'
p304
tp305
a(I93
I1
F-0.625
S'other'
p306
tp307
a(I93
I1
F-0.625
S'bad'
p308
tp309
as(S'n'
p310
S'venezuela'
p311
tp312
(lp313
(I17
I0
I0
g195
tp314
a(I52
I0
I0
g197
tp315
as(S'movistar'
p316
tp317
(lp318
(I93
I1
I0
S'signal'
p319
tp320
as(S'en'
p321
S'venezuela'
p322
tp323
(lp324
(I17
I0
I0
g195
tp325
a(I52
I0
I0
g197
tp326
as(S'apps'
p327
tp328
(lp329
(I67
I0
F0.625
S'easy'
p330
tp331
a(I90
I5
F1.0
S'good'
p332
tp333
a(I90
I6
F1.0
S'better'
p334
tp335
a(I147
I31
I0
S'individual'
p336
tp337
a(I147
I36
F0.125
S'usual'
p338
tp339
a(I147
I49
I0
S'old'
p340
tp341
a(I147
I49
F0.875
S'nice'
p342
tp343
a(I147
I49
F-0.25
S'modern'
p344
tp345
a(I147
I56
F0.375
S'new'
p346
tp347
as(S'en'
p348
S'la'
p349
tp350
(lp351
(I41
I0
I0
g287
tp352
a(I112
I0
I0
g50
tp353
as(S'soy'
p354
S'de'
p355
S'venezuela'
p356
tp357
(lp358
(I143
I1
F0.375
g60
tp359
as(S'send'
p360
tp361
(lp362
(I175
I2
I0
S'least'
p363
tp364
as.