(dp0
(S'service'
p1
tp2
(lp3
(I12
I73
F1.0
S'good'
p4
I16
tp5
as(S'battery'
p6
S'life'
p7
tp8
(lp9
(I0
I4
F0.125
S'last'
p10
I1
tp11
a(I6
I28
F1.0
S'good'
p12
I1
tp13
a(I6
I62
F-0.75
S'short'
p14
I1
tp15
a(I12
I15
I0
S'great'
p16
I1
tp17
a(I12
I63
F-0.5
S'long'
p18
I1
tp19
a(I14
I14
F-0.5
S'long'
p20
I1
tp21
a(I24
I33
I0
S'generic'
p22
I1
tp23
a(I0
I4
F0.125
g10
I19
tp24
a(I6
I62
F-0.75
g14
I19
tp25
a(I12
I15
I0
g16
I19
tp26
a(I6
I28
F1.0
g12
I15
tp27
a(I6
I50
F0.125
S'last'
p28
I15
tp29
a(I6
I52
F-0.75
S'wrong'
p30
I15
tp31
a(I12
I16
F1.0
S'good'
p32
I15
tp33
a(I12
I63
F-0.5
g18
I15
tp34
a(I14
I12
F0.125
S'last'
p35
I15
tp36
a(I14
I14
F-0.5
g20
I15
tp37
a(I19
I49
I0
S'charged'
p38
I15
tp39
a(I24
I8
F0.125
S'last'
p40
I15
tp41
a(I24
I8
F-0.5
S'long'
p42
I15
tp43
a(I24
I10
F-0.5
S'longer'
p44
I15
tp45
a(I24
I29
F0.25
S'original'
p46
I15
tp47
a(I24
I33
I0
g22
I15
tp48
as(S'keyboard'
p49
tp50
(lp51
(I7
I18
I0
S'full'
p52
I2
tp53
a(I24
I11
F0.25
S'larger'
p54
I2
tp55
a(I24
I38
F0.625
S'easy'
p56
I2
tp57
a(I24
I38
F0.875
S'nice'
p58
I2
tp59
a(I24
I38
I0
S'full'
p60
I2
tp61
a(I24
I56
F0.625
S'easy'
p62
I2
tp63
as(S'keys'
p64
tp65
(lp66
(I6
I13
F-0.375
S'small'
p67
I9
tp68
a(I6
I29
F-0.375
S'small'
p69
I9
tp70
a(I6
I75
I0
S'lightweight'
p71
I9
tp72
a(I8
I0
F-0.375
S'smallest'
p73
I9
tp74
a(I10
I1
F-0.375
S'small'
p75
I9
tp76
a(I14
I45
F-0.375
S'small'
p77
I9
tp78
a(I14
I58
F-0.375
S'small'
p79
I9
tp80
a(I16
I18
F-0.625
S'other'
p81
I9
tp82
a(I16
I18
F0.625
S'perfect'
p83
I9
tp84
a(I24
I5
F-0.375
S'small'
p85
I9
tp86
as(S'texting'
p87
tp88
(lp89
(I9
I2
I0
S'basic'
p90
I0
tp91
a(I24
I86
I0
S'great'
p92
I0
tp93
as(S'great'
p94
S'price'
p95
tp96
(lp97
(I1
I1
I0
S'great'
p98
I19
tp99
a(I7
I5
I0
S'great'
p100
I19
tp101
a(I12
I5
F0.625
S'easy'
p102
I19
tp103
a(I13
I49
I0
S'great'
p104
I19
tp105
a(I14
I26
I0
S'great'
p106
I19
tp107
a(I18
I8
I0
S'great'
p108
I19
tp109
as(S'internet'
p110
tp111
(lp112
(I14
I3
F-0.75
S'sufficient'
p113
I6
tp114
as(S'call'
p115
S'quality'
p116
tp117
(lp118
(I12
I15
F1.0
S'good'
p119
I0
tp120
a(I14
I4
F1.0
S'good'
p121
I0
tp122
a(I14
I57
F1.0
S'good'
p123
I0
tp124
a(I14
I57
F1.0
S'better'
p125
I0
tp126
a(I24
I15
F-0.875
S'awful'
p127
I0
tp128
a(I24
I82
F-0.625
S'average'
p129
I0
tp130
as(S'calls'
p131
tp132
(lp133
(I6
I11
I0
S'great'
p134
I0
tp135
a(I6
I20
F0.625
S'easier'
p136
I0
tp137
a(I6
I66
F0.75
S'receive'
p138
I0
tp139
as(S'sim'
p140
S'card'
p141
tp142
(lp143
(I6
I78
I0
S'old'
p144
I0
tp145
a(I6
I78
I0
S'old'
p146
I0
tp147
a(I10
I16
I0
S'french'
p148
I0
tp149
a(I24
I76
I0
S'french'
p150
I0
tp151
as(S'samsung'
p152
tp153
(lp154
(I6
I34
F0.375
S'new'
p155
I7
tp156
a(I12
I20
F0.25
S'original'
p157
I7
tp158
a(I12
I21
F0.25
S'original'
p159
I7
tp160
a(I13
I19
F-0.5
S'afraid'
p161
I7
tp162
a(I13
I28
I0
S'website'
p163
I7
tp164
a(I13
I36
F-0.125
S'overall'
p165
I7
tp166
a(I14
I13
F0.25
S'original'
p167
I7
tp168
as(S'fingers'
p169
tp170
(lp171
(I6
I30
I0
S'slim'
p172
I6
tp173
a(I6
I30
F-0.375
S'small'
p174
I6
tp175
a(I13
I24
I0
S'big'
p176
I6
tp177
a(I13
I25
F-0.375
S'small'
p178
I6
tp179
a(I14
I59
F0.25
S'larger'
p180
I6
tp181
a(I24
I6
F-0.375
S'smaller'
p182
I6
tp183
a(I24
I6
F-0.625
S'average'
p184
I6
tp185
a(I24
I7
F-0.75
S'impossible'
p186
I6
tp187
as(S'music'
p188
S'player'
p189
tp190
(lp191
(I12
I51
F0.875
S'music'
p192
I0
tp193
a(I14
I76
F0.875
S'music'
p194
I0
tp195
a(I24
I40
F0.875
S'music'
p196
I0
tp197
a(I24
I44
I0
S'real'
p198
I0
tp199
a(I24
I44
I0
g198
I0
tp200
as(S'camera'
p201
tp202
(lp203
(I4
I5
F1.0
S'better'
p204
I1
tp205
a(I6
I33
F-0.25
S'low'
p206
I1
tp207
as(S'text'
p208
S'messages'
p209
tp210
(lp211
(I7
I18
I0
S'more'
p212
I0
tp213
a(I7
I18
I0
S'text'
p214
I0
tp215
a(I7
I18
F-0.25
S'past'
p216
I0
tp217
a(I12
I36
I0
S'text'
p218
I0
tp219
a(I14
I30
F0.5
S'whole'
p220
I18
tp221
a(I14
I30
F-0.75
S'crude'
p222
I18
tp223
a(I14
I41
F-0.5
S'long'
p224
I18
tp225
as(S'reception'
p226
tp227
(lp228
(I4
I4
F1.0
S'good'
p229
I0
tp230
a(I4
I4
I0
S'rural'
p231
I0
tp232
a(I6
I6
F1.0
S'better'
p233
I0
tp234
a(I6
I63
F1.0
S'good'
p235
I0
tp236
as.