(dp0
(S'life'
p1
tp2
(lp3
(I30
I1
I0
S'military'
p4
tp5
a(I98
I39
F1.0
S'good'
p6
tp7
a(I245
I0
F-0.5
S'weak'
p8
tp9
a(I245
I0
F-0.375
S'exchanged'
p10
tp11
a(I276
I6
F-0.5
S'relative'
p12
tp13
a(I283
I32
F1.0
S'good'
p14
tp15
as(S'key'
p16
S'pad'
p17
tp18
(lp19
(I1
I1
F0.125
S'key'
p20
tp21
a(I2
I0
F0.125
S'key'
p22
tp23
a(I2
I0
F0.125
S'key'
p24
tp25
a(I204
I0
F0.125
S'key'
p26
tp27
a(I261
I1
F0.125
S'key'
p28
tp29
as(S'something'
p30
tp31
(lp32
(I81
I2
F0.125
S'first'
p33
tp34
a(I98
I9
F0.875
S'important'
p35
tp36
a(I98
I41
F-0.5
S'sure'
p37
tp38
a(I123
I7
F-0.375
S'smaller'
p39
tp40
a(I264
I2
F1.0
S'good'
p41
tp42
as(S'love'
p43
tp44
(lp45
(I155
I6
F1.0
S'love'
p46
tp47
as(S'battery'
p48
S'life'
p49
tp50
(lp51
(I81
I4
F-0.125
S'blackberry'
p52
tp53
a(I98
I39
F1.0
g6
tp54
a(I104
I14
I0
S'least'
p55
tp56
a(I104
I14
F0.75
S'worth'
p57
tp58
a(I195
I4
I0
S'most'
p59
tp60
a(I245
I0
F-0.5
g8
tp61
a(I245
I0
F-0.375
g10
tp62
a(I276
I6
F-0.5
g12
tp63
a(I283
I32
F1.0
g14
tp64
as(S'purchase'
p65
tp66
(lp67
(I17
I2
F0.5
S'careful'
p68
tp69
a(I23
I0
F-0.25
S'disappointed'
p70
tp71
a(I60
I1
F-0.625
S'other'
p72
tp73
a(I111
I3
F-0.125
S'overall'
p74
tp75
a(I111
I3
F0.875
S'happy'
p76
tp77
a(I242
I0
F0.875
S'happy'
p78
tp79
as(S'problem'
p80
tp81
(lp82
(I104
I28
F0.25
S'main'
p83
tp84
a(I131
I4
F0.375
S'confident'
p85
tp86
a(I163
I0
I0
S'signal'
p87
tp88
a(I182
I1
I0
S'same'
p89
tp90
a(I184
I2
I0
S'local'
p91
tp92
as(S'keyboard'
p93
tp94
(lp95
(I37
I0
I0
S'sublime'
p96
tp97
a(I48
I1
I0
S'great'
p98
tp99
a(I65
I9
F0.875
S'nice'
p100
tp101
a(I91
I2
I0
S'real'
p102
tp103
a(I101
I3
I0
S'physical'
p104
tp105
a(I123
I5
F1.0
S'better'
p106
tp107
a(I127
I0
F1.0
S'better'
p108
tp109
a(I147
I1
I0
S'physical'
p110
tp111
a(I152
I0
F-0.5
S'actual'
p112
tp113
a(I152
I1
F1.0
S'best'
p114
tp115
a(I152
I1
F1.0
S'best'
p116
tp117
a(I155
I6
I0
S'real'
p118
tp119
a(I230
I4
F-0.125
S'blackberry'
p120
tp121
a(I267
I0
I0
S'full'
p122
tp123
a(I276
I6
I0
S'physical'
p124
tp125
a(I283
I13
F0.5
S'touch'
p126
tp127
as(S'email'
p128
tp129
(lp130
(I48
I5
F-0.125
S'slow'
p131
tp132
a(I123
I4
I0
S'great'
p133
tp134
a(I123
I6
I0
S'particular'
p135
tp136
a(I126
I2
F1.0
S'good'
p137
tp138
a(I155
I6
I0
S'corporate'
p139
tp140
a(I173
I3
F1.0
S'best'
p141
tp142
a(I174
I1
I0
S'mobile'
p143
tp144
as(S'keys'
p145
tp146
(lp147
(I28
I3
F-0.875
S'hard'
p148
tp149
a(I28
I3
F0.625
S'easier'
p150
tp151
a(I52
I0
F-0.25
S'loose'
p152
tp153
a(I58
I4
F0.25
S'responsive'
p154
tp155
a(I58
I4
I0
S'large'
p156
tp157
a(I58
I4
F-0.75
S'comfortable'
p158
tp159
a(I104
I30
F-0.75
S'wrong'
p160
tp161
a(I107
I9
F0.25
S'larger'
p162
tp163
a(I152
I1
I0
S'great'
p164
tp165
a(I152
I1
F-0.5
S'actual'
p166
tp167
a(I152
I6
F0.375
S'distinct'
p168
tp169
a(I152
I6
F-0.625
S'other'
p170
tp171
a(I250
I1
F-0.375
S'top'
p172
tp173
as(S'money'
p174
tp175
(lp176
(I233
I0
I0
S'more'
p177
tp178
a(I242
I1
F0.375
S'extra'
p179
tp180
a(I246
I0
F0.75
S'worth'
p181
tp182
as(S'card'
p183
tp184
(lp185
(I121
I0
F-0.625
S'other'
p186
tp187
as(S'happy'
p188
tp189
(lp190
(I120
I0
F0.375
S'new'
p191
tp192
as(S'screen'
p193
tp194
(lp195
(I0
I2
F0.75
S'ideal'
p196
tp197
a(I1
I2
I0
S'great'
p198
tp199
a(I9
I6
F0.625
S'easy'
p200
tp201
a(I9
I6
I0
S'great'
p202
tp203
a(I13
I2
F1.0
S'good'
p204
tp205
a(I15
I4
F-0.375
S'top'
p206
tp207
a(I15
I5
F-0.375
S'top'
p208
tp209
a(I28
I3
F0.5
S'touch'
p210
tp211
a(I34
I0
F0.5
S'touch'
p212
tp213
a(I37
I0
F0.5
S'touch'
p214
tp215
a(I37
I3
F0.5
S'touch'
p216
tp217
a(I37
I12
F0.25
S'larger'
p218
tp219
a(I45
I0
F0.5
S'touch'
p220
tp221
a(I48
I1
F0.5
S'touch'
p222
tp223
a(I61
I1
I0
S'wide'
p224
tp225
a(I61
I1
F0.625
S'easy'
p226
tp227
a(I74
I0
F0.25
S'bigger'
p228
tp229
a(I74
I0
F0.5
S'touch'
p230
tp231
a(I76
I1
F0.625
S'convenient'
p232
tp233
a(I88
I18
F0.5
S'touch'
p234
tp235
a(I98
I8
I0
S'flush'
p236
tp237
a(I98
I13
F0.5
S'touch'
p238
tp239
a(I98
I13
F0.125
S'capable'
p240
tp241
a(I98
I14
F-0.375
S'small'
p242
tp243
a(I101
I2
F0.375
S'much'
p244
tp245
a(I101
I2
F0.5
S'touch'
p246
tp247
a(I102
I9
F0.5
S'touch'
p248
tp249
a(I107
I32
F0.25
S'larger'
p250
tp251
a(I136
I3
I0
S'great'
p252
tp253
a(I155
I6
F0.5
S'touch'
p254
tp255
a(I155
I6
I0
S'great'
p256
tp257
a(I155
I9
F0.5
S'touch'
p258
tp259
a(I162
I2
I0
S'e-mail'
p260
tp261
a(I162
I2
I0
S'great'
p262
tp263
a(I162
I4
F0.5
S'touch'
p264
tp265
a(I195
I3
F-0.375
S'small'
p266
tp267
a(I213
I0
F0.5
S'touch'
p268
tp269
a(I246
I0
F0.5
S'touch'
p270
tp271
a(I257
I6
F0.5
S'touch'
p272
tp273
a(I261
I1
F-0.75
S'hate'
p274
tp275
a(I269
I5
F0.5
S'touch'
p276
tp277
a(I269
I10
F0.25
S'responsive'
p278
tp279
a(I283
I23
F-0.375
S'small'
p280
tp281
a(I284
I0
F1.0
S'better'
p282
tp283
as(S'service'
p284
S'provider'
p285
tp286
(lp287
(I164
I0
F-0.625
S'other'
p288
tp289
as(S'service'
p290
tp291
(lp292
(I90
I0
F0.375
S'honest'
p293
tp294
a(I164
I0
F-0.625
g288
tp295
a(I253
I0
F0.875
S'happy'
p296
tp297
a(I275
I8
I0
S'faithful'
p298
tp299
as(S'everything'
p300
tp301
(lp302
(I54
I0
F-0.375
S'double'
p303
tp304
a(I76
I2
I0
S'great'
p305
tp306
a(I81
I0
F0.625
S'perfect'
p307
tp308
a(I104
I59
F0.375
S'available'
p309
tp310
as(S'problems'
p311
tp312
(lp313
(I22
I2
I0
S'many'
p314
tp315
a(I31
I7
I0
S'same'
p316
tp317
a(I162
I1
F0.5
S'primary'
p318
tp319
a(I168
I0
F0.375
S'new'
p320
tp321
a(I171
I0
F0.125
S'first'
p322
tp323
a(I223
I1
I0
S'many'
p324
tp325
as(S'getting'
p326
tp327
(lp328
(I187
I0
F0.875
S'happy'
p329
tp330
a(I240
I1
I0
S'quick'
p331
tp332
as(S'number'
p333
tp334
(lp335
(I15
I7
F-0.375
S'top'
p336
tp337
a(I137
I1
F0.125
S'last'
p338
tp339
a(I208
I0
I0
S'code'
p340
tp341
a(I259
I0
F0.375
S'much'
p342
tp343
as(S'social'
p344
S'media'
p345
tp346
(lp347
(I88
I3
I0
S'social'
p348
tp349
a(I102
I3
I0
S'many'
p350
tp351
a(I102
I3
I0
S'social'
p352
tp353
a(I102
I7
I0
S'social'
p354
tp355
as(S'camera'
p356
tp357
(lp358
(I132
I6
F0.375
S'much'
p359
tp360
a(I206
I6
F0.5
S'disposable'
p361
tp362
a(I206
I8
I0
S'great'
p363
tp364
a(I210
I1
F1.0
S'good'
p365
tp366
a(I227
I1
I0
S'more'
p367
tp368
a(I283
I36
F0.875
S'nice'
p369
tp370
a(I283
I37
I0
S'real'
p371
tp372
as(S'back'
p373
tp374
(lp375
(I4
I1
F-0.5
S'call'
p376
tp377
a(I249
I0
F-0.25
S'low'
p378
tp379
as(S'touch'
p380
tp381
(lp382
(I238
I0
F0.375
S'new'
p383
tp384
a(I253
I1
F0.5
S'bold'
p385
tp386
a(I283
I12
I0
S'soft'
p387
tp388
a(I283
I12
F0.625
S'easy'
p389
tp390
as(S'take'
p391
tp392
(lp393
(I52
I0
F0.125
S'amazon'
p394
tp395
as(S'straight'
p396
S'talk'
p397
tp398
(lp399
(I236
I9
F0.625
S'straight'
p400
tp401
a(I236
I10
F0.625
S'straight'
p402
tp403
a(I236
I11
F0.625
S'straight'
p404
tp405
as(S'a'
p406
S'touch'
p407
S'screen'
p408
tp409
(lp410
(I0
I2
F0.75
g196
tp411
a(I9
I6
F0.625
g200
tp412
a(I9
I6
I0
g202
tp413
a(I28
I3
F0.5
g210
tp414
a(I34
I0
F0.5
g212
tp415
a(I37
I0
F0.5
g214
tp416
a(I37
I3
F0.5
g216
tp417
a(I45
I0
F0.5
g220
tp418
a(I48
I1
F0.5
g222
tp419
a(I74
I0
F0.25
g228
tp420
a(I74
I0
F0.5
g230
tp421
a(I76
I1
F0.625
g232
tp422
a(I88
I18
F0.5
g234
tp423
a(I98
I13
F0.5
g238
tp424
a(I98
I13
F0.125
g240
tp425
a(I101
I2
F0.375
g244
tp426
a(I101
I2
F0.5
g246
tp427
a(I102
I9
F0.5
g248
tp428
a(I155
I6
F0.5
g254
tp429
a(I155
I6
I0
g256
tp430
a(I155
I9
F0.5
g258
tp431
a(I162
I4
F0.5
g264
tp432
a(I195
I3
F-0.375
g266
tp433
a(I213
I0
F0.5
g268
tp434
a(I238
I0
F0.375
g383
tp435
a(I246
I0
F0.5
g270
tp436
a(I257
I6
F0.5
g272
tp437
a(I261
I1
F-0.75
g274
tp438
a(I269
I5
F0.5
g276
tp439
a(I283
I23
F-0.375
g280
tp440
a(I284
I0
F1.0
g282
tp441
as(S'quality'
p442
tp443
(lp444
(I24
I0
I0
S'great'
p445
tp446
a(I37
I2
I0
S'high'
p447
tp448
a(I209
I2
F-0.875
S'unhappy'
p449
tp450
a(I236
I14
I0
S'such'
p451
tp452
a(I236
I14
I0
S'high'
p453
tp454
a(I276
I3
F0.125
S'solid'
p455
tp456
a(I283
I58
I0
S'high'
p457
tp458
as(S'product'
p459
tp460
(lp461
(I8
I0
I0
S'great'
p462
tp463
a(I51
I0
F-0.75
S'difficult'
p464
tp465
a(I73
I0
F1.0
S'best'
p466
tp467
a(I96
I4
I0
S'such'
p468
tp469
a(I101
I15
F-0.5
S'certain'
p470
tp471
a(I184
I0
F1.0
S'good'
p472
tp473
a(I215
I0
F1.0
S'good'
p474
tp475
a(I234
I0
F0.375
S'new'
p476
tp477
a(I241
I0
F0.375
S'new'
p478
tp479
a(I255
I0
I0
S'great'
p480
tp481
a(I255
I0
I0
S'great'
p482
tp483
a(I260
I0
I0
S'great'
p484
tp485
a(I269
I1
I0
S'great'
p486
tp487
a(I277
I1
F-0.875
S'disagreeable'
p488
tp489
a(I277
I1
F0.375
S'new'
p490
tp491
as(S'love'
p492
S'love'
p493
tp494
(lp495
(I155
I6
F1.0
g46
tp496
as(S'things'
p497
tp498
(lp499
(I94
I0
I0
S'few'
p500
tp501
a(I104
I61
F0.5
S'absolute'
p502
tp503
a(I155
I9
F1.0
S'best'
p504
tp505
a(I155
I9
F1.0
S'best'
p506
tp507
a(I164
I3
F-0.75
S'minor'
p508
tp509
a(I169
I2
F-0.375
S'simple'
p510
tp511
a(I276
I6
F1.0
S'love'
p512
tp513
a(I284
I0
I0
S'many'
p514
tp515
a(I284
I0
I0
S'great'
p516
tp517
as(S'return'
p518
tp519
(lp520
(I59
I5
F-0.625
S'free'
p521
tp522
a(I85
I2
F-0.625
S'sorry'
p523
tp524
as(S'features'
p525
tp526
(lp527
(I65
I9
F-0.625
S'other'
p528
tp529
a(I107
I33
I0
S'phenomenal'
p530
tp531
a(I164
I3
F0.375
S'similar'
p532
tp533
a(I255
I0
I0
S'most'
p534
tp535
a(I257
I2
F0.375
S'available'
p536
tp537
a(I257
I2
F0.625
S'right'
p538
tp539
as(S'fast'
p540
tp541
(lp542
(I190
I5
F-0.125
S'super'
p543
tp544
as(S'business'
p545
tp546
(lp547
(I9
I1
F-0.125
S'blackberry'
p548
tp549
a(I9
I4
F1.0
S'best'
p550
tp551
a(I10
I5
F1.0
S'better'
p552
tp553
a(I10
I5
F1.0
S'better'
p554
tp555
a(I98
I11
F0.375
S'new'
p556
tp557
a(I136
I5
I0
S'real'
p558
tp559
a(I228
I2
I0
S'deal'
p560
tp561
a(I228
I2
F0.875
S'happy'
p562
tp563
as(S'well'
p564
tp565
(lp566
(I174
I4
F0.375
S'worked'
p567
tp568
as(S'people'
p569
tp570
(lp571
(I108
I1
F0.625
S'aware'
p572
tp573
as(S'touchscreen'
p574
tp575
(lp576
(I267
I0
F-0.375
S'simple'
p577
tp578
a(I276
I1
I0
S'crisp'
p579
tp580
as(S'latin'
p581
S'america'
p582
tp583
(lp584
(I48
I7
F-0.5
S'sure'
p585
tp586
as(S'verizon'
p587
tp588
(lp589
(I94
I4
I0
S'more'
p590
tp591
a(I94
I4
I0
S'funny'
p592
tp593
a(I98
I2
F0.375
S'new'
p594
tp595
a(I98
I5
F0.5
S'bold'
p596
tp597
a(I148
I7
F-0.625
S'bad'
p598
tp599
as(S'seller'
p600
tp601
(lp602
(I53
I3
F-0.625
S'sorry'
p603
tp604
a(I53
I3
F-0.5
S'poor'
p605
tp606
a(I74
I1
F0.25
S'helpful'
p607
tp608
a(I110
I2
I0
S'great'
p609
tp610
a(I110
I2
F0.25
S'helpful'
p611
tp612
as(S'user'
p613
tp614
(lp615
(I37
I13
I0
S'crisp'
p616
tp617
a(I53
I2
F-0.375
S'manual'
p618
tp619
a(I227
I0
I0
S'android'
p620
tp621
a(I230
I0
F-0.5
S'heavy'
p622
tp623
as(S'case'
p624
tp625
(lp626
(I126
I0
I0
S'plastic'
p627
tp628
a(I268
I2
F0.875
S'nice'
p629
tp630
as(S'works'
p631
tp632
(lp633
(I34
I0
I0
S'great'
p634
tp635
a(I97
I0
I0
S'great'
p636
tp637
a(I107
I28
I0
S'great'
p638
tp639
a(I173
I16
I0
S'competitive'
p640
tp641
a(I205
I0
I0
S'great'
p642
tp643
a(I246
I0
F0.375
S'new'
p644
tp645
a(I262
I0
I0
S'great'
p646
tp647
a(I276
I1
I0
S'great'
p648
tp649
a(I276
I1
I0
S'more'
p650
tp651
as(S'order'
p652
tp653
(lp654
(I47
I5
I0
S'special'
p655
tp656
a(I97
I0
I0
S'nervous'
p657
tp658
a(I187
I2
I0
S'quick'
p659
tp660
as(S'battery'
p661
tp662
(lp663
(I23
I2
F0.375
S'new'
p664
tp665
a(I23
I8
F0.375
S'new'
p666
tp667
a(I81
I4
F-0.125
g52
tp668
a(I88
I7
F-0.125
S'super'
p669
tp670
a(I88
I7
F-0.5
S'long'
p671
tp672
a(I94
I3
I0
S'old'
p673
tp674
a(I96
I3
F-0.625
S'bad'
p675
tp676
a(I104
I14
I0
g55
tp677
a(I104
I14
F0.75
g57
tp678
a(I104
I45
F0.375
S'extra'
p679
tp680
a(I104
I45
F0.5
S'second'
p681
tp682
a(I104
I46
F0.375
S'extended'
p683
tp684
a(I104
I46
F0.375
S'available'
p685
tp686
a(I110
I4
F0.375
S'new'
p687
tp688
a(I191
I1
F-0.75
S'dead'
p689
tp690
a(I195
I4
I0
g59
tp691
a(I199
I1
I0
S'full'
p692
tp693
a(I236
I21
F0.5
S'second'
p694
tp695
a(I242
I2
I0
S'hot'
p696
tp697
a(I261
I3
F-0.75
S'dead'
p698
tp699
a(I283
I7
I0
S'more'
p700
tp701
as(S'network'
p702
tp703
(lp704
(I3
I2
I0
S'mobile'
p705
tp706
a(I33
I1
F-0.625
S'other'
p707
tp708
a(I173
I23
I0
S'mobile'
p709
tp710
a(I282
I0
I0
S'social'
p711
tp712
as(S'blackberry'
p713
S'bold'
p714
tp715
(lp716
(I28
I4
F0.375
S'newest'
p717
tp718
a(I94
I3
F-0.125
S'blackberry'
p719
tp720
a(I284
I0
F0.375
S'new'
p721
tp722
as(S'thing'
p723
tp724
(lp725
(I63
I2
I0
S'only'
p726
tp727
a(I102
I4
I0
S'only'
p728
tp729
a(I104
I34
F1.0
S'best'
p730
tp731
a(I181
I3
F1.0
S'good'
p732
tp733
a(I197
I0
I0
S'only'
p734
tp735
a(I205
I1
I0
S'only'
p736
tp737
a(I247
I3
I0
S'only'
p738
tp739
a(I247
I3
F0.625
S'logical'
p740
tp741
a(I264
I2
I0
S'only'
p742
tp743
a(I275
I5
I0
S'next'
p744
tp745
a(I275
I5
I0
S'big'
p746
tp747
as(S'sim'
p748
S'card'
p749
tp750
(lp751
(I14
I0
F0.375
S'new'
p752
tp753
a(I69
I1
I0
S'chinese'
p754
tp755
a(I90
I0
F0.375
S'new'
p756
tp757
a(I275
I9
F0.5
S'bold'
p758
tp759
as(S'device'
p760
tp761
(lp762
(I65
I7
F0.875
S'nice'
p763
tp764
a(I92
I0
F0.125
S'able'
p765
tp766
a(I110
I1
F0.375
S'reliable'
p767
tp768
a(I126
I4
F1.0
S'good'
p769
tp770
a(I136
I3
F0.25
S'professional'
p771
tp772
a(I137
I0
F0.375
S'new'
p773
tp774
a(I155
I4
F-0.625
S'other'
p775
tp776
a(I190
I7
F-0.625
S'sorry'
p777
tp778
a(I198
I2
F0.375
S'new'
p779
tp780
a(I212
I0
I0
S'great'
p781
tp782
as(S'call'
p783
tp784
(lp785
(I275
I9
F0.5
S'personal'
p786
tp787
as(S'blackberry'
p788
tp789
(lp790
(I15
I10
F0.375
S'proud'
p791
tp792
a(I17
I9
F-0.875
S'worst'
p793
tp794
a(I25
I0
F0.375
S'new'
p795
tp796
a(I28
I0
I0
S'very'
p797
tp798
a(I28
I0
I0
S'few'
p799
tp800
a(I28
I4
F0.375
g717
tp801
a(I31
I0
I0
S'older'
p802
tp803
a(I31
I4
F-0.625
S'useless'
p804
tp805
a(I59
I3
I0
S'old'
p806
tp807
a(I75
I0
F0.5
S'touch'
p808
tp809
a(I101
I4
F0.375
S'new'
p810
tp811
a(I123
I1
I0
S'anymore'
p812
tp813
a(I124
I1
F-0.625
S'other'
p814
tp815
a(I136
I0
F1.0
S'good'
p816
tp817
a(I136
I0
I0
S'old'
p818
tp819
a(I138
I1
F-0.625
S'glad'
p820
tp821
a(I152
I1
F0.375
S'newest'
p822
tp823
a(I155
I4
F-0.625
S'other'
p824
tp825
a(I155
I8
F-0.625
S'other'
p826
tp827
a(I158
I2
F1.0
S'best'
p828
tp829
a(I194
I1
F0.125
S'first'
p830
tp831
a(I200
I0
F-0.625
S'other'
p832
tp833
a(I206
I5
I0
S'next'
p834
tp835
a(I214
I0
F0.875
S'happy'
p836
tp837
a(I215
I1
I0
S'same'
p838
tp839
a(I236
I0
F0.125
S'first'
p840
tp841
a(I248
I2
F0.375
S'new'
p842
tp843
a(I250
I0
F0.375
S'new'
p844
tp845
a(I284
I0
F0.375
g721
tp846
as(S'come'
p847
tp848
(lp849
(I9
I7
I0
S'great'
p850
tp851
as(S'time'
p852
tp853
(lp854
(I22
I10
I0
S'next'
p855
tp856
a(I30
I8
I0
S'central'
p857
tp858
a(I43
I1
F-0.75
S'single'
p859
tp860
a(I58
I0
I0
S'entire'
p861
tp862
a(I78
I4
F0.125
S'first'
p863
tp864
a(I93
I0
F1.0
S'good'
p865
tp866
a(I96
I4
F0.125
S'first'
p867
tp868
a(I100
I0
F0.125
S'first'
p869
tp870
a(I104
I50
I0
S'same'
p871
tp872
a(I132
I5
F-0.875
S'hard'
p873
tp874
a(I135
I0
F0.375
S'new'
p875
tp876
a(I155
I2
F-0.875
S'hard'
p877
tp878
a(I195
I3
I0
S'touchscreen'
p879
tp880
a(I225
I1
I0
S'same'
p881
tp882
a(I226
I2
F0.125
S'first'
p883
tp884
a(I237
I0
I0
S'signal'
p885
tp886
a(I237
I0
I0
S'most'
p887
tp888
a(I269
I14
F-0.5
S'long'
p889
tp890
a(I283
I6
I0
S'valuable'
p891
tp892
a(I283
I16
I0
S'more'
p893
tp894
a(I283
I34
F0.125
S'last'
p895
tp896
a(I283
I34
F-0.5
S'long'
p897
tp898
as(S'data'
p899
tp900
(lp901
(I134
I0
I0
S'cable'
p902
tp903
a(I236
I8
F-0.5
S'less'
p904
tp905
as(S'virtual'
p906
S'keyboards'
p907
tp908
(lp909
(I283
I15
F-0.75
S'sick'
p910
tp911
a(I283
I15
F0.25
S'tired'
p912
tp913
as(S'samsung'
p914
S'galaxy'
p915
tp916
(lp917
(I107
I2
F0.125
S'first'
p918
tp919
a(I173
I10
F0.25
S'unlocked'
p920
tp921
as(S'faster'
p922
S'processor'
p923
tp924
(lp925
(I98
I28
I0
S'incredible'
p926
tp927
a(I98
I28
I0
S'faster'
p928
tp929
a(I236
I20
F0.75
S'due'
p930
tp931
as(S'working'
p932
tp933
(lp934
(I274
I0
F-0.625
S'clean'
p935
tp936
a(I282
I0
I0
S'high'
p937
tp938
as(S'car'
p939
S'stereo'
p940
tp941
(lp942
(I107
I25
F0.875
S'music'
p943
tp944
as(S'bold'
p945
tp946
(lp947
(I9
I2
F0.5
S'touch'
p948
tp949
a(I94
I3
F-0.125
g719
tp950
a(I104
I35
F-0.75
S'stupid'
p951
tp952
a(I104
I35
I0
S'commercial'
p953
tp954
as(S'work'
p955
tp956
(lp957
(I271
I0
F-0.625
S'other'
p958
tp959
as(S'apps'
p960
tp961
(lp962
(I22
I2
F-0.5
S'international'
p963
tp964
a(I37
I9
F0.25
S'powerful'
p965
tp966
a(I98
I35
F-0.625
S'quite'
p967
tp968
a(I101
I17
I0
S'few'
p969
tp970
a(I101
I17
F-0.625
S'other'
p971
tp972
a(I104
I19
F0.25
S'medical'
p973
tp974
a(I104
I58
I0
S'most'
p975
tp976
a(I104
I58
F0.625
S'major'
p977
tp978
a(I104
I58
F0.375
S'available'
p979
tp980
a(I123
I3
F0.5
S'true'
p981
tp982
a(I155
I9
I0
S'many'
p983
tp984
a(I162
I6
F0.125
S'essential'
p985
tp986
a(I227
I1
I0
S'adequate'
p987
tp988
a(I269
I17
I0
S'download'
p989
tp990
as(S'web'
p991
S'pages'
p992
tp993
(lp994
(I98
I20
F-0.5
S'certain'
p995
tp996
a(I283
I25
F-0.5
S'longer'
p997
tp998
as(S'days'
p999
tp1000
(lp1001
(I47
I5
I0
S'few'
p1002
tp1003
a(I151
I0
I0
S'least'
p1004
tp1005
a(I152
I0
F0.25
S'recent'
p1006
tp1007
a(I176
I1
I0
S'few'
p1008
tp1009
a(I194
I0
I0
S'many'
p1010
tp1011
a(I227
I1
I0
S'full'
p1012
tp1013
a(I275
I0
I0
S'few'
p1014
tp1015
as(S'please'
p1016
tp1017
(lp1018
(I173
I11
F0.625
S'aware'
p1019
tp1020
a(I233
I0
I0
S'terminal'
p1021
tp1022
a(I251
I0
F0.375
S'available'
p1023
tp1024
as(S'touch'
p1025
S'screen'
p1026
tp1027
(lp1028
(I0
I2
F0.75
g196
tp1029
a(I9
I6
F0.625
g200
tp1030
a(I9
I6
I0
g202
tp1031
a(I28
I3
F0.5
g210
tp1032
a(I34
I0
F0.5
g212
tp1033
a(I37
I0
F0.5
g214
tp1034
a(I37
I3
F0.5
g216
tp1035
a(I45
I0
F0.5
g220
tp1036
a(I48
I1
F0.5
g222
tp1037
a(I74
I0
F0.25
g228
tp1038
a(I74
I0
F0.5
g230
tp1039
a(I76
I1
F0.625
g232
tp1040
a(I88
I18
F0.5
g234
tp1041
a(I98
I13
F0.5
g238
tp1042
a(I98
I13
F0.125
g240
tp1043
a(I101
I2
F0.375
g244
tp1044
a(I101
I2
F0.5
g246
tp1045
a(I102
I9
F0.5
g248
tp1046
a(I155
I6
F0.5
g254
tp1047
a(I155
I6
I0
g256
tp1048
a(I155
I9
F0.5
g258
tp1049
a(I162
I4
F0.5
g264
tp1050
a(I195
I3
F-0.375
g266
tp1051
a(I213
I0
F0.5
g268
tp1052
a(I238
I0
F0.375
g383
tp1053
a(I246
I0
F0.5
g270
tp1054
a(I257
I6
F0.5
g272
tp1055
a(I261
I1
F-0.75
g274
tp1056
a(I269
I5
F0.5
g276
tp1057
a(I283
I23
F-0.375
g280
tp1058
a(I284
I0
F1.0
g282
tp1059
as(S'every'
p1060
tp1061
(lp1062
(I30
I0
I0
S'few'
p1063
tp1064
as.