(dp0
(S'seller'
p1
tp2
(lp3
(I3
I3
F0.375
S'honest'
p4
I19
tp5
a(I9
I7
I0
S'same'
p6
I19
tp7
as(S'apple'
p8
S'store'
p9
tp10
(lp11
(I10
I2
I0
S'local'
p12
I0
tp13
a(I46
I18
I0
S'serial'
p14
I0
tp15
a(I3
I2
F-0.625
S'other'
p16
I4
tp17
a(I10
I2
I0
g12
I4
tp18
a(I27
I5
F0.25
S'original'
p19
I4
tp20
a(I28
I7
F0.25
S'original'
p21
I4
tp22
a(I28
I7
F0.375
S'new'
p23
I4
tp24
as(S'many'
p25
S'times'
p26
tp27
(lp28
(I15
I3
I0
S'many'
p29
I5
tp30
a(I27
I4
I0
S'many'
p31
I5
tp32
a(I34
I13
I0
S'many'
p33
I5
tp34
as(S'scratches'
p35
tp36
(lp37
(I7
I3
F0.625
S'noticeable'
p38
I4
tp39
a(I39
I19
F0.375
S'new'
p40
I4
tp41
as(S'sim'
p42
S'card'
p43
tp44
(lp45
(I19
I10
F0.125
S'able'
p46
I0
tp47
a(I32
I5
F0.375
S'new'
p48
I0
tp49
a(I34
I13
I0
S'different'
p50
I0
tp51
as(S'perfect'
p52
S'condition'
p53
tp54
(lp55
(I12
I0
F-0.375
S'near'
p56
I3
tp57
as(S'good'
p58
S'condition'
p59
tp60
(lp61
(I29
I1
F1.0
S'good'
p62
I6
tp63
a(I32
I1
F1.0
S'good'
p64
I6
tp65
a(I32
I1
I0
S'arrive'
p66
I6
tp67
a(I41
I0
F1.0
S'good'
p68
I6
tp69
a(I41
I1
F1.0
S'good'
p70
I6
tp71
a(I44
I10
F1.0
S'good'
p72
I6
tp73
as(S'apple'
p74
S'iphone'
p75
tp76
(lp77
(I25
I6
F0.375
S'new'
p78
I0
tp79
a(I26
I0
I0
S'many'
p80
I0
tp81
a(I28
I2
F0.25
S'original'
p82
I0
tp83
a(I28
I7
F0.375
S'new'
p84
I0
tp85
a(I28
I7
F0.25
g21
I0
tp86
a(I28
I7
F0.375
g23
I0
tp87
a(I46
I14
I0
S'more'
p88
I0
tp89
a(I46
I14
I0
S'apple'
p90
I0
tp91
as(S'amazon'
p92
tp93
(lp94
(I0
I22
F0.375
S'new'
p95
I13
tp96
a(I3
I16
F0.125
S'first'
p97
I13
tp98
a(I3
I19
F0.5
S'loyal'
p99
I13
tp100
a(I6
I11
F-0.75
S'painful'
p101
I13
tp102
a(I10
I10
I0
S'double-checked'
p103
I13
tp104
a(I12
I8
F0.375
S'new'
p105
I13
tp106
a(I30
I0
F0.875
S'reputable'
p107
I13
tp108
a(I30
I0
I0
S'such'
p109
I13
tp110
as(S'new'
p111
S'iphone'
p112
tp113
(lp114
(I0
I0
F0.25
S'refurbished'
p115
I0
tp116
a(I0
I0
F-0.25
S'white'
p117
I0
tp118
a(I0
I0
F0.375
S'new'
p119
I0
tp120
a(I16
I18
F0.375
S'new'
p121
I0
tp122
a(I18
I5
F0.375
S'new'
p123
I0
tp124
a(I18
I5
F1.0
S'good'
p125
I0
tp126
a(I22
I6
F0.25
S'refurbished'
p127
I0
tp128
a(I22
I6
F-0.25
S'white'
p129
I0
tp130
a(I22
I6
F0.375
S'new'
p131
I0
tp132
a(I25
I3
F0.375
S'new'
p133
I0
tp134
a(I25
I6
F0.375
g78
I0
tp135
a(I28
I0
F0.375
S'new'
p136
I0
tp137
a(I28
I7
F0.375
g84
I0
tp138
a(I33
I7
F0.375
S'new'
p139
I0
tp140
a(I37
I1
F0.375
S'new'
p141
I0
tp142
a(I0
I0
F0.25
g115
I1
tp143
a(I0
I0
F-0.25
g117
I1
tp144
a(I0
I0
F0.375
g119
I1
tp145
a(I1
I4
F-0.25
S'white'
p146
I1
tp147
a(I3
I0
F0.125
S'first'
p148
I1
tp149
a(I3
I12
F0.5
S'second'
p150
I1
tp151
a(I3
I21
I0
S'great'
p152
I1
tp153
a(I8
I2
F0.125
S'first'
p154
I1
tp155
a(I16
I16
F-0.125
S'overall'
p156
I1
tp157
a(I16
I18
F0.375
g121
I1
tp158
a(I18
I2
F0.25
S'used'
p159
I1
tp160
a(I18
I5
F0.375
g123
I1
tp161
a(I18
I5
F1.0
g125
I1
tp162
a(I18
I30
F-0.25
S'white'
p163
I1
tp164
a(I22
I0
F0.875
S'happy'
p165
I1
tp166
a(I22
I6
F0.25
g127
I1
tp167
a(I22
I6
F-0.25
g129
I1
tp168
a(I22
I6
F0.375
g131
I1
tp169
a(I25
I3
F0.375
g133
I1
tp170
a(I25
I6
F0.375
g78
I1
tp171
a(I26
I0
I0
g80
I1
tp172
a(I28
I0
F0.375
g136
I1
tp173
a(I28
I2
F0.25
g82
I1
tp174
a(I28
I7
F0.375
g84
I1
tp175
a(I32
I20
F0.375
S'early'
p176
I1
tp177
a(I33
I7
F0.375
g139
I1
tp178
a(I36
I3
I0
S'real'
p179
I1
tp180
a(I37
I1
F0.375
g141
I1
tp181
a(I46
I14
I0
g88
I1
tp182
a(I46
I14
I0
g90
I1
tp183
as(S'serial'
p184
S'number'
p185
tp186
(lp187
(I3
I18
I0
S'serial'
p188
I0
tp189
a(I18
I34
I0
S'serial'
p190
I0
tp191
as(S'home'
p192
S'button'
p193
tp194
(lp195
(I39
I18
F0.25
S'responsive'
p196
I0
tp197
a(I39
I18
F0.25
g196
I19
tp198
as.