(dp0
(S'service'
p1
tp2
(lp3
(I0
I70
I0
S'same'
p4
I16
tp5
a(I1
I9
F-0.5
S'poor'
p6
I16
tp7
as(S'operating'
p8
S'system'
p9
tp10
(lp11
(I1
I24
I0
S'old'
p12
I2
tp13
a(I1
I169
I0
S'common'
p14
I2
tp15
a(I2
I0
I0
S'own'
p16
I2
tp17
a(I2
I0
I0
S'great'
p18
I2
tp19
a(I2
I0
I0
S'own'
p20
I2
tp21
a(I4
I86
I0
S'killed'
p22
I2
tp23
a(I1
I169
I0
g14
I12
tp24
a(I2
I0
I0
g16
I12
tp25
a(I2
I0
I0
g18
I12
tp26
a(I2
I0
I0
g20
I12
tp27
as(S'palm'
p28
S'pixi'
p29
tp30
(lp31
(I1
I160
F0.5
S'upgraded'
p32
I0
tp33
a(I3
I1
I0
S'old'
p34
I0
tp35
a(I4
I4
F0.625
S'fair'
p36
I0
tp37
a(I4
I4
I0
S'great'
p38
I0
tp39
a(I1
I99
F0.125
S'first'
p40
I0
tp41
a(I3
I11
F0.375
S'much'
p42
I0
tp43
a(I4
I4
I0
g38
I0
tp44
as(S'battery'
p45
S'life'
p46
tp47
(lp48
(I1
I18
F-0.625
S'bad'
p49
I1
tp50
a(I3
I14
F0.5
S'reasonable'
p51
I1
tp52
a(I1
I18
F-0.625
g49
I15
tp53
a(I1
I127
F0.375
S'much'
p54
I15
tp55
a(I1
I127
F1.0
S'better'
p56
I15
tp57
a(I1
I137
F0.375
S'new'
p58
I15
tp59
a(I1
I170
F0.125
S'first'
p60
I15
tp61
a(I1
I174
F0.375
S'new'
p62
I15
tp63
as(S'android'
p64
tp65
(lp66
(I1
I164
F1.0
S'better'
p67
I0
tp68
as(S'keyboard'
p69
tp70
(lp71
(I0
I22
F0.375
S'reliable'
p72
I2
tp73
a(I1
I135
I0
S'physical'
p74
I2
tp75
a(I1
I158
F-0.5
S'actual'
p76
I2
tp77
a(I2
I26
I0
S'physical'
p78
I2
tp79
a(I3
I61
I0
S'physical'
p80
I2
tp81
as(S'smartphone'
p82
tp83
(lp84
(I1
I6
F0.125
S'first'
p85
I0
tp86
a(I1
I86
F-0.375
S'simple'
p87
I0
tp88
a(I1
I116
F-0.25
S'inexpensive'
p89
I0
tp90
as(S'smart'
p91
tp92
(lp93
(I0
I7
F1.0
S'good'
p94
I10
tp95
a(I0
I7
F-0.625
S'other'
p96
I10
tp97
a(I0
I67
I0
S'great'
p98
I10
tp99
a(I3
I60
F0.125
S'first'
p100
I10
tp101
a(I3
I60
I0
S'real'
p102
I10
tp103
a(I3
I63
F0.125
S'first'
p104
I10
tp105
as(S'palm'
p106
S'pre'
p107
tp108
(lp109
(I1
I0
F0.375
S'new'
p110
I0
tp111
a(I1
I0
I0
S'old'
p112
I0
tp113
a(I1
I0
I0
S'anymore'
p114
I0
tp115
a(I1
I1
F0.375
S'new'
p116
I0
tp117
a(I1
I31
F0.375
S'new'
p118
I0
tp119
a(I1
I59
I0
S'only'
p120
I0
tp121
a(I1
I86
F0.25
S'original'
p122
I0
tp123
a(I4
I32
F-0.375
S'unacceptable'
p124
I0
tp125
a(I0
I55
F0.25
S'original'
p126
I1
tp127
a(I0
I59
F1.0
S'best'
p128
I1
tp129
a(I0
I62
I0
S'old'
p130
I1
tp131
a(I1
I0
F0.375
g110
I1
tp132
a(I1
I0
I0
g112
I1
tp133
a(I1
I1
F0.375
g116
I1
tp134
a(I1
I31
F0.375
g118
I1
tp135
a(I1
I59
I0
g120
I1
tp136
a(I1
I86
F0.25
g122
I1
tp137
a(I1
I160
F0.5
g32
I1
tp138
a(I3
I1
I0
g34
I1
tp139
a(I3
I49
F0.25
S'original'
p140
I1
tp141
a(I3
I51
F0.25
S'original'
p142
I1
tp143
a(I4
I4
F0.625
g36
I1
tp144
as(S'much'
p145
S'better'
p146
tp147
(lp148
(I4
I1
F0.375
S'much'
p149
I9
tp150
a(I4
I1
F0.625
S'easier'
p151
I9
tp152
a(I4
I10
F0.375
S'much'
p153
I9
tp154
as(S'verizon'
p155
tp156
(lp157
(I0
I20
F0.25
S'original'
p158
I0
tp159
as(S'apps'
p160
tp161
(lp162
(I0
I10
I0
S'few'
p163
I0
tp164
a(I1
I151
I0
S'few'
p165
I0
tp166
a(I1
I151
F0.375
S'available'
p167
I0
tp168
a(I2
I6
F-0.25
S'google'
p169
I0
tp170
a(I2
I8
I0
S'al'
p171
I0
tp172
a(I2
I14
I0
S'many'
p173
I0
tp174
a(I2
I15
F-0.625
S'free'
p175
I0
tp176
a(I2
I20
I0
S'closing'
p177
I0
tp178
a(I3
I28
F0.375
S'available'
p179
I0
tp180
a(I4
I45
I0
S'more'
p181
I0
tp182
a(I4
I70
F0.375
S'available'
p183
I0
tp184
as(S'plus'
p185
tp186
(lp187
(I1
I15
I0
S'big'
p188
I16
tp189
a(I1
I90
I0
S'great'
p190
I16
tp191
as.