(dp0
(S'battery'
p1
S'life'
p2
tp3
(lp4
(I3
I16
F1.0
S'good'
p5
I1
tp6
a(I11
I34
I0
S'great'
p7
I1
tp8
a(I11
I109
F1.0
S'good'
p9
I1
tp10
a(I15
I4
I0
S'great'
p11
I1
tp12
a(I16
I5
F1.0
S'good'
p13
I1
tp14
a(I11
I34
I0
g7
I19
tp15
a(I11
I109
F1.0
g9
I19
tp16
a(I16
I5
F1.0
g13
I19
tp17
a(I3
I13
F0.375
S'new'
p18
I15
tp19
a(I3
I16
F1.0
g5
I15
tp20
a(I11
I139
F-0.5
S'sure'
p21
I15
tp22
a(I15
I4
I0
g11
I15
tp23
a(I19
I69
F-0.5
S'longer'
p24
I15
tp25
a(I19
I118
F-0.25
S'low'
p26
I15
tp27
as(S'keyboard'
p28
tp29
(lp30
(I3
I3
F-0.5
S'poor'
p31
I2
tp32
a(I3
I28
I0
S'great'
p33
I2
tp34
a(I3
I32
I0
S'handy'
p35
I2
tp36
a(I11
I40
I0
S'full'
p37
I2
tp38
a(I12
I54
F0.125
S'first'
p39
I2
tp40
a(I14
I22
I0
S'physical'
p41
I2
tp42
a(I14
I22
I0
S'electronic'
p43
I2
tp44
a(I14
I22
F0.625
S'easier'
p45
I2
tp46
a(I14
I24
F-0.25
S'inexpensive'
p47
I2
tp48
a(I18
I6
F0.875
S'nice'
p49
I2
tp50
a(I18
I41
F-0.375
S'small'
p51
I2
tp52
a(I19
I15
F0.625
S'easy'
p53
I2
tp54
a(I19
I60
F-0.375
S'small'
p55
I2
tp56
as(S'keys'
p57
tp58
(lp59
(I3
I4
F-0.25
S'low'
p60
I9
tp61
a(I14
I34
F-0.375
S'small'
p62
I9
tp63
a(I17
I77
F-0.375
S'small'
p64
I9
tp65
a(I19
I21
I0
S'soft'
p66
I9
tp67
as(S'whole'
p68
S'lot'
p69
tp70
(lp71
(I17
I84
F0.5
S'whole'
p72
I2
tp73
a(I18
I25
F0.5
S'whole'
p74
I2
tp75
as(S'text'
p76
tp77
(lp78
(I9
I17
F1.0
S'good'
p79
I18
tp80
a(I11
I10
F0.375
S'new'
p81
I18
tp82
a(I11
I56
I0
S'signal'
p83
I18
tp84
a(I11
I56
F-0.125
S'cant'
p85
I18
tp86
a(I17
I70
I0
S'pic'
p87
I18
tp88
as(S'tmobile'
p89
tp90
(lp91
(I9
I16
F-0.5
S'regular'
p92
I0
tp93
as(S'call'
p94
S'quality'
p95
tp96
(lp97
(I3
I16
F1.0
S'good'
p98
I0
tp99
a(I3
I31
F0.5
S'clear'
p100
I0
tp101
a(I19
I32
F0.625
S'decent'
p102
I0
tp103
a(I19
I42
F1.0
S'good'
p104
I0
tp105
a(I19
I47
F0.5
S'clear'
p106
I0
tp107
as(S'works'
p108
S'fine'
p109
tp110
(lp111
(I8
I2
F0.625
S'easy'
p112
I9
tp113
as(S'plus'
p114
tp115
(lp116
(I2
I4
F0.875
S'nice'
p117
I16
tp118
a(I14
I27
I0
S'big'
p119
I16
tp120
as(S'sparq'
p121
tp122
(lp123
(I4
I33
F0.125
S'able'
p124
I0
tp125
a(I11
I76
F0.375
S'new'
p126
I0
tp127
a(I15
I12
F0.25
S'ok'
p128
I0
tp129
a(I18
I11
I0
S'great'
p130
I0
tp131
as(S'customer'
p132
S'service'
p133
tp134
(lp135
(I19
I105
F-0.625
S'bad'
p136
I3
tp137
as(S'memory'
p138
tp139
(lp140
(I9
I33
F-0.125
S'slow'
p141
I5
tp142
a(I9
I33
I0
S'full'
p143
I5
tp144
a(I11
I96
I0
S'full'
p145
I5
tp146
a(I13
I34
I0
S'human'
p147
I5
tp148
as(S'fm'
p149
S'radio'
p150
tp151
(lp152
(I18
I6
F1.0
S'good'
p153
I0
tp154
a(I18
I6
F1.0
g153
I0
tp155
as(S't'
p156
S'mobile'
p157
tp158
(lp159
(I9
I1
I0
S't'
p160
I0
tp161
a(I9
I1
I0
g160
I0
tp162
as(S'button'
p163
tp164
(lp165
(I12
I17
I0
S'more'
p166
I19
tp167
a(I19
I22
F-0.625
S'push'
p168
I19
tp169
a(I19
I22
I0
S'next'
p170
I19
tp171
as(S'prepaid'
p172
tp173
(lp174
(I9
I16
F0.625
S'easy'
p175
I0
tp176
a(I11
I16
F-0.625
S'other'
p177
I0
tp178
as(S'speaker'
p179
tp180
(lp181
(I17
I94
F0.5
S'clear'
p182
I8
tp183
as(S'light'
p184
S'weight'
p185
tp186
(lp187
(I7
I4
F-0.375
S'small'
p188
I5
tp189
a(I7
I4
F-0.625
S'light'
p190
I5
tp191
a(I13
I23
F-0.625
S'light'
p192
I5
tp193
a(I17
I43
F-0.625
S'light'
p194
I5
tp195
a(I17
I43
I0
S'plastic'
p196
I5
tp197
as(S'weeks'
p198
tp199
(lp200
(I8
I8
I0
S'few'
p201
I18
tp202
a(I8
I8
I0
S'later'
p203
I18
tp204
a(I19
I112
I0
S'later'
p205
I18
tp206
as(S'texts'
p207
tp208
(lp209
(I12
I35
F0.125
S'first'
p210
I0
tp211
as(S'volume'
p212
S'control'
p213
tp214
(lp215
(I1
I0
F-0.875
S'hard'
p216
I0
tp217
a(I3
I10
I0
S'external'
p218
I0
tp219
a(I19
I1
I0
S'external'
p220
I0
tp221
a(I19
I25
F-0.375
S'simple'
p222
I0
tp223
a(I1
I0
F-0.875
g216
I6
tp224
a(I3
I10
I0
g218
I6
tp225
a(I19
I1
I0
g220
I6
tp226
a(I19
I25
F-0.375
g222
I6
tp227
as(S'replacement'
p228
tp229
(lp230
(I4
I19
F0.5
S'temporary'
p231
I13
tp232
a(I4
I26
I0
S'quick'
p233
I13
tp234
a(I11
I163
F-0.25
S'late'
p235
I13
tp236
a(I12
I10
F-0.25
S'inexpensive'
p237
I13
tp238
a(I13
I15
I0
S'economical'
p239
I13
tp240
as(S'buttons'
p241
tp242
(lp243
(I17
I94
F-0.375
S'small'
p244
I13
tp245
a(I19
I7
I0
S'external'
p246
I13
tp247
as(S'calls'
p248
tp249
(lp250
(I11
I82
I0
S'most'
p251
I0
tp252
a(I11
I164
I0
S'many'
p253
I0
tp254
a(I13
I11
F0.625
S'easy'
p255
I0
tp256
a(I13
I11
F1.0
S'good'
p257
I0
tp258
a(I15
I5
F1.0
S'good'
p259
I0
tp260
a(I18
I41
F0.5
S'clear'
p261
I0
tp262
a(I19
I34
F-0.25
S'dropped'
p263
I0
tp264
a(I19
I59
F0.5
S'clear'
p265
I0
tp266
as(S'sim'
p267
S'card'
p268
tp269
(lp270
(I18
I3
F0.125
S'able'
p271
I0
tp272
a(I19
I97
I0
S'overseas'
p273
I0
tp274
as(S'menu'
p275
S'system'
p276
tp277
(lp278
(I17
I58
I0
S'different'
p279
I0
tp280
as(S'much'
p281
S'better'
p282
tp283
(lp284
(I3
I25
F0.375
S'much'
p285
I9
tp286
a(I3
I28
F0.375
S'much'
p287
I9
tp288
a(I3
I28
I0
S'most'
p289
I9
tp290
as(S'music'
p291
S'player'
p292
tp293
(lp294
(I3
I16
F0.875
S'music'
p295
I0
tp296
a(I9
I29
F0.875
S'music'
p297
I0
tp298
a(I3
I16
F0.875
g295
I6
tp299
a(I9
I29
F0.875
g297
I6
tp300
a(I11
I85
I0
S'great'
p301
I0
tp302
as(S'camera'
p303
tp304
(lp305
(I17
I30
F1.0
S'good'
p306
I1
tp307
a(I17
I76
F1.0
S'good'
p308
I1
tp309
a(I17
I76
F1.0
S'better'
p310
I1
tp311
a(I19
I37
F1.0
S'good'
p312
I1
tp313
a(I19
I40
F-0.625
S'other'
p314
I1
tp315
as(S'internet'
p316
tp317
(lp318
(I13
I21
F0.875
S'agree'
p319
I6
tp320
a(I13
I21
F1.0
S'good'
p321
I6
tp322
a(I18
I53
F-0.75
S'impossible'
p323
I6
tp324
as(S'headphones'
p325
tp326
(lp327
(I9
I30
I0
S'connect'
p328
I0
tp329
a(I17
I53
F1.0
S'like'
p330
I0
tp331
as(S'texting'
p332
tp333
(lp334
(I4
I17
I0
S'great'
p335
I0
tp336
a(I4
I17
F0.625
S'easy'
p337
I0
tp338
a(I13
I17
F1.0
S'good'
p339
I0
tp340
a(I16
I11
I0
S'basic'
p341
I0
tp342
a(I19
I59
F0.625
S'easy'
p343
I0
tp344
as(S'amazon'
p345
tp346
(lp347
(I16
I10
F-0.625
S'free'
p348
I13
tp349
as(S'flip'
p350
tp351
(lp352
(I9
I37
I0
S'old'
p353
I4
tp354
a(I11
I12
I0
S'old'
p355
I4
tp356
a(I11
I40
F0.875
S'nice'
p357
I4
tp358
a(I11
I105
I0
S'old'
p359
I4
tp360
a(I11
I154
I0
S'old'
p361
I4
tp362
as.