(dp0
(S'times'
p1
tp2
(lp3
(I71
I3
I0
S'many'
p4
tp5
a(I106
I19
F0.125
S'first'
p6
tp7
a(I106
I19
I0
S'few'
p8
tp9
as(S'problem'
p10
tp11
(lp12
(I5
I2
I0
S'common'
p13
tp14
a(I71
I13
I0
S'only'
p15
tp16
a(I76
I3
I0
S'common'
p17
tp18
a(I76
I3
I0
S'incredible'
p19
tp20
as(S'charging'
p21
S'port'
p22
tp23
(lp24
(I53
I1
F-0.25
S'loose'
p25
tp26
a(I81
I4
I0
S'third'
p27
tp28
a(I139
I2
F0.125
S'first'
p29
tp30
a(I139
I2
F-0.625
S'bad'
p31
tp32
a(I147
I0
F-0.5
S'less'
p33
tp34
as(S'purchase'
p35
tp36
(lp37
(I66
I3
F-0.875
S'unhappy'
p38
tp39
a(I136
I2
F0.875
S'happy'
p40
tp41
as(S'year'
p42
tp43
(lp44
(I9
I3
I0
S'old'
p45
tp46
a(I39
I0
F0.125
S'first'
p47
tp48
a(I53
I0
F0.125
S'first'
p49
tp50
as(S'charging'
p51
tp52
(lp53
(I81
I4
I0
g27
tp54
a(I139
I2
F0.125
g29
tp55
as(S'nice'
p56
tp57
(lp58
(I95
I0
I0
S'big'
p59
tp60
as(S'screen'
p61
tp62
(lp63
(I5
I3
F-0.75
S'unable'
p64
tp65
a(I13
I1
F0.5
S'touch'
p66
tp67
a(I15
I2
F-0.375
S'black'
p68
tp69
a(I71
I5
F0.5
S'touch'
p70
tp71
a(I71
I13
F0.5
S'touch'
p72
tp73
a(I72
I1
F0.5
S'touch'
p74
tp75
a(I109
I0
F0.625
S'plus'
p76
tp77
a(I123
I1
F-0.25
S'white'
p78
tp79
a(I142
I2
F-0.75
S'unresponsive'
p80
tp81
as(S'everything'
p82
tp83
(lp84
(I104
I3
F-0.5
S'sure'
p85
tp86
a(I117
I2
I0
S'great'
p87
tp88
as(S'problems'
p89
tp90
(lp91
(I33
I0
I0
S'many'
p92
tp93
a(I62
I9
F0.625
S'aware'
p94
tp95
a(I93
I1
F0.25
S'used'
p96
tp97
a(I116
I18
I0
S'same'
p98
tp99
as(S'back'
p100
tp101
(lp102
(I129
I2
F0.25
S'larger'
p103
tp104
as(S'battery'
p105
S'life'
p106
tp107
(lp108
(I24
I1
I0
S'fast'
p109
tp110
a(I24
I2
F0.375
S'extended'
p111
tp112
a(I24
I2
F0.375
S'available'
p113
tp114
a(I57
I2
F0.625
S'easy'
p115
tp116
a(I102
I5
F1.0
S'good'
p117
tp118
a(I106
I13
I0
S'great'
p119
tp120
a(I107
I5
F-0.625
S'bad'
p121
tp122
a(I128
I1
F1.0
S'good'
p123
tp124
a(I135
I1
F0.5
S'second'
p125
tp126
as(S'years'
p127
tp128
(lp129
(I11
I1
I0
S'android'
p130
tp131
a(I93
I0
F0.625
S'perfect'
p132
tp133
a(I111
I1
I0
S'old'
p134
tp135
a(I111
I1
I0
S'great'
p136
tp137
a(I121
I0
I0
S'full'
p138
tp139
a(I135
I0
F-0.5
S'less'
p140
tp141
as(S'quality'
p142
tp143
(lp144
(I8
I1
I0
S'great'
p145
tp146
a(I8
I1
I0
S'pic'
p147
tp148
a(I8
I2
F1.0
S'good'
p149
tp150
a(I35
I2
F1.0
S'good'
p151
tp152
a(I69
I0
F1.0
S'good'
p153
tp154
a(I75
I2
F1.0
S'good'
p155
tp156
a(I91
I0
I0
S'great'
p157
tp158
a(I106
I20
F-0.5
S'sure'
p159
tp160
a(I121
I16
F0.875
S'music'
p161
tp162
a(I121
I16
I0
S'adequate'
p163
tp164
a(I133
I0
F1.0
S'good'
p165
tp166
a(I144
I3
F1.0
S'good'
p167
tp168
as(S'life'
p169
tp170
(lp171
(I24
I2
F0.375
g111
tp172
a(I102
I5
F1.0
g117
tp173
a(I107
I5
F-0.625
g121
tp174
a(I128
I1
F1.0
g123
tp175
as(S'droid'
p176
tp177
(lp178
(I12
I0
I0
S'incredible'
p179
tp180
a(I46
I0
I0
S'old'
p181
tp182
a(I46
I0
I0
S'incredible'
p183
tp184
a(I58
I0
I0
S'incredible'
p185
tp186
as(S'2'
p187
S'years'
p188
tp189
(lp190
(I11
I1
I0
g130
tp191
a(I93
I0
F0.625
g132
tp192
a(I121
I0
I0
g138
tp193
a(I135
I0
F-0.5
g140
tp194
as(S'verizon'
p195
tp196
(lp197
(I78
I3
F-0.375
S'simple'
p198
tp199
a(I92
I0
F0.75
S'due'
p200
tp201
as(S'android'
p202
tp203
(lp204
(I75
I1
F0.125
S'first'
p205
tp206
a(I88
I3
F0.25
S'responsive'
p207
tp208
a(I88
I3
I0
S'great'
p209
tp210
as(S'works'
p211
tp212
(lp213
(I9
I0
I0
S'great'
p214
tp215
a(I108
I1
F0.375
S'new'
p216
tp217
as(S'page'
p218
tp219
(lp220
(I81
I8
F0.375
S'much'
p221
tp222
a(I81
I8
I0
S'incredible'
p223
tp224
a(I88
I0
I0
S'great'
p225
tp226
a(I88
I0
I0
S'cellular'
p227
tp228
as(S'battery'
p229
tp230
(lp231
(I5
I4
I0
S'few'
p232
tp233
a(I16
I2
I0
S'great'
p234
tp235
a(I18
I3
F1.0
S'good'
p236
tp237
a(I24
I1
I0
g109
tp238
a(I24
I2
F0.375
g113
tp239
a(I30
I3
I0
S'fast'
p240
tp241
a(I50
I1
F-0.625
S'bad'
p242
tp243
a(I57
I2
F0.625
g115
tp244
a(I106
I13
I0
g119
tp245
a(I107
I6
I0
S'full'
p246
tp247
a(I135
I1
F0.5
g125
tp248
as(S'smart'
p249
tp250
(lp251
(I24
I0
F0.125
S'first'
p252
tp253
a(I29
I2
I0
S'most'
p254
tp255
a(I30
I4
I0
S'more'
p256
tp257
a(I106
I13
I0
S'most'
p258
tp259
a(I142
I0
F-0.25
S'modern'
p260
tp261
as(S'replacement'
p262
tp263
(lp264
(I141
I1
I0
S'different'
p265
tp266
as(S'better'
p267
tp268
(lp269
(I3
I1
F0.375
S'much'
p270
tp271
a(I131
I4
F0.375
S'much'
p272
tp273
as(S'charge'
p274
tp275
(lp276
(I144
I5
F0.625
S'easy'
p277
tp278
as(S'time'
p279
tp280
(lp281
(I8
I4
I0
S'only'
p282
tp283
a(I13
I1
F0.125
S'first'
p284
tp285
a(I86
I1
I0
S'big'
p286
tp287
a(I106
I17
I0
S'moore'
p288
tp289
as(S'port'
p290
tp291
(lp292
(I44
I1
F-0.625
S'bad'
p293
tp294
a(I53
I1
F-0.25
g25
tp295
a(I68
I0
F0.125
S'charger'
p296
tp297
a(I139
I2
F-0.625
g31
tp298
a(I147
I0
F-0.5
g33
tp299
as(S'condition'
p300
tp301
(lp302
(I12
I1
F1.0
S'good'
p303
tp304
a(I26
I0
I0
S'great'
p305
tp306
a(I50
I3
F1.0
S'good'
p307
tp308
a(I50
I4
I0
S'great'
p309
tp310
a(I51
I0
F1.0
S'good'
p311
tp312
a(I72
I1
F1.0
S'good'
p313
tp314
a(I113
I1
F0.5
S'manner'
p315
tp316
as(S'charger'
p317
tp318
(lp319
(I53
I3
F0.5
S'second'
p320
tp321
a(I53
I3
F-0.25
S'plugged'
p322
tp323
a(I58
I1
F-0.75
S'wrong'
p324
tp325
as(S'months'
p326
tp327
(lp328
(I8
I3
I0
S'great'
p329
tp330
a(I90
I3
F0.875
S'happy'
p331
tp332
as(S'htc'
p333
S'droid'
p334
tp335
(lp336
(I12
I0
F0.875
S'happy'
p337
tp338
a(I12
I0
F0.375
S'new'
p339
tp340
a(I12
I0
I0
g179
tp341
a(I24
I0
I0
S'incredible'
p342
tp343
a(I31
I0
I0
S'incredible'
p344
tp345
a(I31
I0
I0
S'incredible'
p346
tp347
a(I46
I0
I0
S'incredible'
p348
tp349
a(I46
I0
I0
g181
tp350
a(I46
I0
I0
g183
tp351
a(I57
I3
I0
S'incredible'
p352
tp353
a(I57
I3
F1.0
S'best'
p354
tp355
a(I58
I0
F0.375
S'new'
p356
tp357
a(I58
I0
I0
g185
tp358
a(I121
I11
I0
S'incredible'
p359
tp360
a(I135
I0
I0
S'incredible'
p361
tp362
as(S'apps'
p363
tp364
(lp365
(I30
I5
I0
S'many'
p366
tp367
a(I30
I5
F0.375
S'extra'
p368
tp369
a(I71
I5
I0
S'many'
p370
tp371
a(I84
I1
F0.625
S'easy'
p372
tp373
a(I84
I1
I0
S'lightweight'
p374
tp375
a(I128
I1
I0
S'many'
p376
tp377
as(S'days'
p378
tp379
(lp380
(I13
I3
I0
S'few'
p381
tp382
a(I13
I3
I0
S'later'
p383
tp384
a(I119
I1
F0.5
S'second'
p385
tp386
a(I121
I2
F-0.125
S'overall'
p387
tp388
a(I132
I0
F0.125
S'first'
p389
tp390
as.