(dp0
(S'nokia'
p1
S'n9'
p2
tp3
(lp4
(I0
I79
F0.875
S'happy'
p5
I0
tp6
a(I0
I82
F-0.75
S'dead'
p7
I0
tp8
a(I2
I23
I0
S'older'
p9
I0
tp10
a(I22
I29
F1.0
S'good'
p11
I0
tp12
a(I23
I3
F1.0
S'better'
p13
I0
tp14
a(I23
I3
F-0.667
S'incompatible'
p15
I0
tp16
a(I25
I0
F0.875
S'happy'
p17
I0
tp18
a(I27
I0
F1.0
S'better'
p19
I0
tp20
a(I30
I10
F-0.875
S'settled'
p21
I0
tp22
as(S'battery'
p23
S'life'
p24
tp25
(lp26
(I0
I53
F1.0
S'better'
p27
I1
tp28
a(I0
I183
F0.5
S'so-so'
p29
I1
tp30
a(I0
I85
F-0.75
S'dead'
p31
I15
tp32
a(I0
I132
F0.375
S'new'
p33
I15
tp34
a(I1
I21
F-0.5
S'poor'
p35
I15
tp36
a(I1
I31
F-0.875
S'hard'
p37
I15
tp38
a(I1
I32
F0.625
S'necessary'
p39
I15
tp40
a(I1
I32
F0.25
S'original'
p41
I15
tp42
a(I2
I13
F0.125
S'last'
p43
I15
tp44
a(I2
I53
I0
S'prolong'
p45
I15
tp46
a(I2
I53
F0.375
S'new'
p47
I15
tp48
a(I2
I54
F0.125
S'last'
p49
I15
tp50
a(I5
I10
I0
S'wish'
p51
I15
tp52
a(I5
I10
F1.0
S'better'
p53
I15
tp54
a(I6
I59
I0
S'phenomenal'
p55
I15
tp56
a(I6
I60
F0.125
S'able'
p57
I15
tp58
a(I6
I60
F-0.5
S'less'
p59
I15
tp60
a(I16
I28
F-0.375
S'small'
p61
I15
tp62
a(I18
I1
F-0.625
S'bad'
p63
I15
tp64
a(I23
I4
I0
S'same'
p65
I15
tp66
a(I28
I6
I0
S'active'
p67
I15
tp68
as(S'micro'
p69
S'sim'
p70
tp71
(lp72
(I2
I17
F-0.625
S'free'
p73
I0
tp74
as(S'meego'
p75
tp76
(lp77
(I0
I110
F0.75
S'wonder'
p78
I0
tp79
a(I0
I110
F0.125
S'far'
p80
I0
tp81
a(I1
I1
F0.875
S'nice'
p82
I0
tp83
a(I2
I2
I0
S'great'
p84
I0
tp85
a(I2
I2
F-0.625
S'cleaner'
p86
I0
tp87
a(I2
I46
F-0.625
S'bad'
p88
I0
tp89
a(I6
I75
I0
S'mass-produced'
p90
I0
tp91
as(S'maps'
p92
tp93
(lp94
(I15
I8
F0.625
S'easy'
p95
I5
tp96
a(I15
I8
F1.0
S'best'
p97
I5
tp98
a(I16
I49
I0
S'own'
p99
I5
tp100
a(I22
I51
F-0.625
S'free'
p101
I5
tp102
a(I26
I3
F0.125
S'able'
p103
I5
tp104
as(S'camera'
p105
tp106
(lp107
(I0
I6
F1.0
S'good'
p108
I1
tp109
a(I0
I6
I0
S'great'
p110
I1
tp111
a(I0
I136
F0.5
S'touch'
p112
I1
tp113
a(I2
I24
F1.0
S'good'
p114
I1
tp115
a(I6
I18
F0.625
S'decent'
p116
I1
tp117
a(I6
I19
F1.0
S'better'
p118
I1
tp119
a(I6
I168
I0
S'fast'
p120
I1
tp121
a(I22
I41
I0
S'physical'
p122
I1
tp123
a(I23
I3
F0.125
S'solid'
p124
I1
tp125
a(I27
I2
F-0.625
S'average'
p126
I1
tp127
as(S'windows'
p128
tp129
(lp130
(I6
I170
I0
S'mobile'
p131
I0
tp132
a(I22
I22
I0
S'forth'
p133
I0
tp134
as(S'operating'
p135
S'system'
p136
tp137
(lp138
(I0
I198
F0.5
S'compatible'
p139
I2
tp140
a(I6
I200
I0
S'android'
p141
I2
tp142
a(I22
I46
F0.875
S'nice'
p143
I2
tp144
a(I6
I200
I0
g141
I12
tp145
a(I27
I33
F1.0
S'best'
p146
I12
tp147
a(I27
I33
I0
S'most'
p148
I12
tp149
a(I0
I198
F0.5
g139
I2
tp150
a(I16
I40
I0
S'standard'
p151
I2
tp152
a(I22
I46
F0.875
g143
I2
tp153
as(S'iphone'
p154
tp155
(lp156
(I6
I2
F1.0
S'better'
p157
I1
tp158
a(I6
I5
F-0.5
S'kept'
p159
I1
tp160
a(I23
I3
F0.375
S'newer'
p161
I1
tp162
a(I23
I3
F-0.625
S'average'
p163
I1
tp164
as(S'nokia'
p165
S'store'
p166
tp167
(lp168
(I0
I173
I0
S'empty'
p169
I0
tp170
a(I2
I23
I0
g9
I0
tp171
a(I3
I7
F-0.625
S'bad'
p172
I0
tp173
a(I6
I140
F-0.5
S'open'
p174
I0
tp175
a(I6
I163
F1.0
S'good'
p176
I0
tp177
a(I21
I3
F-0.25
S'potential'
p178
I0
tp179
a(I21
I36
F1.0
S'best'
p180
I0
tp181
a(I23
I1
F0.5
S'stylish'
p182
I0
tp183
a(I23
I3
F1.0
g13
I0
tp184
a(I23
I15
I0
S'useful'
p185
I0
tp186
a(I25
I0
F0.875
g17
I0
tp187
a(I27
I9
I0
S'wish'
p188
I0
tp189
a(I27
I35
F-0.125
S'former'
p190
I0
tp191
a(I30
I10
F-0.875
g21
I0
tp192
as(S'memory'
p193
tp194
(lp195
(I0
I132
F0.375
S'extra'
p196
I5
tp197
a(I0
I133
F0.5
S'possible'
p198
I5
tp199
a(I4
I2
F-0.5
S'international'
p200
I5
tp201
a(I26
I2
I0
S'internal'
p202
I5
tp203
as(S'build'
p204
S'quality'
p205
tp206
(lp207
(I0
I165
F0.125
S'impressive'
p208
I2
tp209
as(S'mobile'
p210
tp211
(lp212
(I0
I83
I0
S'next'
p213
I0
tp214
a(I2
I31
I0
S'more'
p215
I0
tp216
as(S'social'
p217
S'media'
p218
tp219
(lp220
(I0
I25
I0
S'social'
p221
I0
tp222
a(I0
I27
I0
S'social'
p223
I0
tp224
a(I0
I27
I0
S'site'
p225
I0
tp226
a(I10
I47
I0
S'social'
p227
I0
tp228
as(S'linux'
p229
tp230
(lp231
(I1
I27
F-0.375
S'simple'
p232
I0
tp233
a(I6
I77
F-0.5
S'open'
p234
I0
tp235
a(I6
I178
I0
S'terminal'
p236
I0
tp237
a(I17
I0
I0
S'real'
p238
I0
tp239
as(S'messages'
p240
tp241
(lp242
(I22
I36
F0.75
S'due'
p243
I1
tp244
a(I22
I36
I0
S'many'
p245
I1
tp246
as(S'other'
p247
S'reviewers'
p248
tp249
(lp250
(I5
I13
F-0.625
S'other'
p251
I2
tp252
a(I21
I21
F-0.625
S'other'
p253
I2
tp254
as(S'android'
p255
tp256
(lp257
(I0
I70
F0.375
S'flexible'
p258
I0
tp259
a(I6
I28
F0.25
S'familiar'
p260
I0
tp261
a(I17
I0
I0
S'useful'
p262
I0
tp263
a(I23
I3
F0.625
S'easier'
p264
I0
tp265
as(S'calls'
p266
tp267
(lp268
(I1
I12
I0
S'fewer'
p269
I0
tp270
as(S'sim'
p271
S'card'
p272
tp273
(lp274
(I2
I17
F-0.625
g73
I0
tp275
as(S'virtual'
p276
S'keyboard'
p277
tp278
(lp279
(I0
I147
F-0.375
S'small'
p280
I0
tp281
a(I16
I13
I0
S'physical'
p282
I0
tp283
a(I0
I147
F-0.375
g280
I2
tp284
a(I16
I10
F-0.5
S'miss'
p285
I2
tp286
a(I16
I10
I0
S'physical'
p287
I2
tp288
a(I16
I12
I0
S'alternate'
p289
I2
tp290
a(I16
I13
I0
g282
I2
tp291
a(I22
I13
I0
S'great'
p292
I2
tp293
as(S'speaker'
p294
tp295
(lp296
(I0
I8
F-0.875
S'awful'
p297
I8
tp298
a(I6
I67
I0
S'adequate'
p299
I8
tp300
a(I10
I8
I0
S'large'
p301
I8
tp302
a(I10
I8
F-0.625
S'generous'
p303
I8
tp304
as(S'developer'
p305
S'mode'
p306
tp307
(lp308
(I6
I161
I0
S'toggle'
p309
I0
tp310
as(S'smartphone'
p311
tp312
(lp313
(I1
I28
I0
S'critical'
p314
I0
tp315
a(I16
I64
F-0.625
S'other'
p316
I0
tp317
a(I18
I5
F0.875
S'important'
p318
I0
tp319
a(I18
I5
I0
S'great'
p320
I0
tp321
a(I23
I9
F0.125
S'typical'
p322
I0
tp323
a(I27
I3
F0.5
S'elegant'
p324
I0
tp325
a(I27
I9
F-0.125
S'future'
p326
I0
tp327
as(S'internet'
p328
S'radio'
p329
tp330
(lp331
(I6
I118
I0
S'great'
p332
I0
tp333
a(I6
I118
I0
g332
I6
tp334
as(S'apps'
p335
tp336
(lp337
(I0
I78
I0
S'most'
p338
I0
tp339
a(I0
I188
I0
S'flashlight'
p340
I0
tp341
a(I2
I30
F0.375
S'available'
p342
I0
tp343
a(I2
I31
I0
S'extensive'
p344
I0
tp345
a(I2
I31
F0.375
S'available'
p346
I0
tp347
a(I2
I33
F0.375
S'new'
p348
I0
tp349
a(I5
I3
I0
S'many'
p350
I0
tp351
a(I5
I3
I0
S'common'
p352
I0
tp353
a(I6
I4
F-0.5
S'weak'
p354
I0
tp355
a(I6
I85
I0
S'grid'
p356
I0
tp357
a(I6
I87
F-0.5
S'open'
p358
I0
tp359
a(I6
I189
I0
S'few'
p360
I0
tp361
a(I6
I189
F0.375
S'available'
p362
I0
tp363
a(I6
I189
I0
S'useful'
p364
I0
tp365
a(I10
I20
F0.875
S'important'
p366
I0
tp367
a(I10
I20
F0.375
S'available'
p368
I0
tp369
a(I10
I47
I0
S'few'
p370
I0
tp371
a(I10
I47
F0.125
S'typical'
p372
I0
tp373
a(I16
I28
I0
S'few'
p374
I0
tp375
a(I16
I41
I0
S'basic'
p376
I0
tp377
a(I16
I41
F1.0
S'good'
p378
I0
tp379
a(I16
I41
F0.25
S'duplicate'
p380
I0
tp381
a(I21
I4
I0
S'many'
p382
I0
tp383
a(I21
I4
F0.375
S'available'
p384
I0
tp385
a(I21
I26
F-0.5
S'heavy'
p386
I0
tp387
a(I23
I15
I0
S'few'
p388
I0
tp389
a(I23
I15
F1.0
S'good'
p390
I0
tp391
a(I23
I20
I0
S'many'
p392
I0
tp393
a(I23
I20
I0
S'normal'
p394
I0
tp395
a(I23
I20
I0
S'such'
p396
I0
tp397
a(I25
I3
I0
S'very'
p398
I0
tp399
a(I25
I3
I0
S'useful'
p400
I0
tp401
a(I25
I3
F-0.625
S'free'
p402
I0
tp403
a(I27
I34
I0
S'many'
p404
I0
tp405
a(I27
I34
F0.375
S'available'
p406
I0
tp407
a(I29
I0
F1.0
S'good'
p408
I0
tp409
a(I29
I0
F0.375
S'available'
p410
I0
tp411
as(S'facebook'
p412
tp413
(lp414
(I2
I15
I0
S'email'
p415
I0
tp416
a(I6
I96
F-0.125
S'organized'
p417
I0
tp418
a(I6
I96
I0
S'normal'
p419
I0
tp420
a(I10
I29
I0
S'more'
p421
I0
tp422
as.