(dp0
(S'good'
p1
S'product'
p2
tp3
(lp4
(I17
I0
F1.0
S'good'
p5
I13
tp6
a(I49
I16
F0.25
S'original'
p7
I13
tp8
a(I88
I0
F1.0
S'good'
p9
I13
tp10
as(S'battery'
p11
S'life'
p12
tp13
(lp14
(I0
I5
F0.625
S'major'
p15
I1
tp16
a(I20
I6
F-0.125
S'blackberry'
p17
I1
tp18
a(I63
I7
F-0.75
S'short'
p19
I1
tp20
a(I80
I2
F-0.5
S'less'
p21
I1
tp22
a(I82
I6
I0
S'soft'
p23
I1
tp24
a(I82
I6
F0.625
S'easy'
p25
I1
tp26
a(I80
I2
F-0.5
g21
I19
tp27
a(I82
I6
I0
g23
I19
tp28
a(I82
I6
F0.625
g25
I19
tp29
a(I0
I5
F0.625
g15
I15
tp30
a(I20
I6
F-0.125
g17
I15
tp31
a(I52
I8
F-0.5
S'weak'
p32
I15
tp33
a(I63
I7
F-0.75
g19
I15
tp34
a(I65
I8
F-0.375
S'serious'
p35
I15
tp36
as(S'movistar'
p37
tp38
(lp39
(I44
I2
I0
S'signal'
p40
I0
tp41
as(S'bands'
p42
tp43
(lp44
(I17
I4
F-0.5
S'sure'
p45
I5
tp46
as(S'network'
p47
tp48
(lp49
(I11
I2
F0.5
S'compatible'
p50
I0
tp51
a(I20
I6
I0
S'social'
p52
I0
tp53
a(I77
I51
I0
S'basic'
p54
I0
tp55
a(I77
I51
F0.25
S'diagnostic'
p56
I0
tp57
a(I78
I8
I0
S'local'
p58
I0
tp59
as(S'en'
p60
S'venezuela'
p61
tp62
(lp63
(I25
I0
I0
S'signal'
p64
I0
tp65
a(I67
I3
F0.375
S'available'
p66
I0
tp67
as(S'apps'
p68
tp69
(lp70
(I33
I9
F0.625
S'easy'
p71
I0
tp72
a(I43
I10
F1.0
S'good'
p73
I0
tp74
a(I43
I11
F1.0
S'better'
p75
I0
tp76
a(I77
I36
I0
S'individual'
p77
I0
tp78
a(I77
I41
F0.125
S'usual'
p79
I0
tp80
a(I77
I60
I0
S'old'
p81
I0
tp82
a(I77
I60
F0.875
S'nice'
p83
I0
tp84
a(I77
I60
F-0.25
S'modern'
p85
I0
tp86
a(I77
I68
F0.375
S'new'
p87
I0
tp88
as(S'y'
p89
S'el'
p90
tp91
(lp92
(I76
I3
F0.25
S'original'
p93
I2
tp94
as(S'en'
p95
S'la'
p96
tp97
(lp98
(I56
I3
I0
S'y'
p99
I1
tp100
as(S'blackberry'
p101
S'curve'
p102
tp103
(lp104
(I52
I4
I0
S'arrive'
p105
I0
tp106
a(I77
I67
F-0.375
S'small'
p107
I0
tp108
a(I86
I11
I0
S'old'
p109
I0
tp110
a(I52
I4
I0
g105
I8
tp111
a(I77
I58
F0.125
S'last'
p112
I8
tp113
a(I77
I67
F-0.375
g107
I8
tp114
a(I16
I0
F0.125
S'key'
p115
I1
tp116
a(I19
I0
I0
S'great'
p117
I1
tp118
a(I20
I3
I0
S'special'
p119
I1
tp120
a(I35
I7
I0
S'old'
p121
I1
tp122
a(I41
I0
F1.0
S'good'
p123
I1
tp124
a(I41
I2
F-0.125
S'overall'
p125
I1
tp126
a(I41
I2
F0.375
S'new'
p127
I1
tp128
a(I43
I13
I0
S'full'
p129
I1
tp130
a(I77
I7
F0.875
S'nice'
p131
I1
tp132
a(I77
I22
F1.0
S'better'
p133
I1
tp134
a(I77
I22
F-0.625
S'other'
p135
I1
tp136
a(I86
I1
F-0.25
S'thinner'
p137
I1
tp138
a(I86
I1
F-0.625
S'other'
p139
I1
tp140
a(I86
I11
I0
g109
I1
tp141
as(S'venezuela'
p142
g89
tp143
(lp144
(I25
I0
I0
g64
I0
tp145
a(I67
I3
F0.375
g66
I0
tp146
as(S'soy'
p147
S'de'
p148
S'venezuela'
p149
tp150
(lp151
(I74
I1
F0.375
S'soy'
p152
I0
tp153
a(I74
I1
F0.375
g152
I0
tp154
a(I74
I1
F0.375
g152
I0
tp155
a(I25
I0
I0
g64
I0
tp156
a(I67
I3
F0.375
g66
I0
tp157
as(S'touch'
p158
S'pad'
p159
tp160
(lp161
(I16
I8
F0.5
S'touch'
p162
I0
tp163
as.