(dp0
(S'full'
p1
S'bars'
p2
tp3
(lp4
(I1
I53
I0
S'signal'
p5
I0
tp6
a(I1
I53
I0
S'full'
p7
I0
tp8
a(I1
I58
F0.75
S'receive'
p9
I0
tp10
a(I1
I58
I0
S'full'
p11
I0
tp12
a(I1
I60
I0
S'signal'
p13
I0
tp14
a(I2
I22
I0
S'full'
p15
I0
tp16
a(I2
I24
I0
S'full'
p17
I0
tp18
a(I5
I50
I0
S'full'
p19
I0
tp20
a(I5
I50
I0
S'signal'
p21
I0
tp22
a(I1
I53
I0
g5
I10
tp23
a(I1
I53
I0
g7
I10
tp24
a(I1
I58
F0.75
g9
I10
tp25
a(I1
I58
I0
g11
I10
tp26
a(I1
I60
I0
g13
I10
tp27
a(I1
I118
F0.5
S'true'
p28
I10
tp29
a(I1
I118
F-0.5
S'less'
p30
I10
tp31
a(I1
I118
I0
S'total'
p32
I10
tp33
a(I1
I127
F0.375
S'available'
p34
I10
tp35
a(I2
I22
I0
g15
I10
tp36
a(I2
I24
I0
g17
I10
tp37
a(I5
I50
I0
g19
I10
tp38
a(I5
I50
I0
g21
I10
tp39
a(I5
I113
I0
S'more'
p40
I10
tp41
a(I6
I93
I0
S'many'
p42
I10
tp43
a(I6
I94
I0
S'many'
p44
I10
tp45
a(I6
I102
I0
S'most'
p46
I10
tp47
a(I6
I285
I0
S'more'
p48
I10
tp49
as(S'signal'
p50
S'issues'
p51
tp52
(lp53
(I1
I92
F-0.5
S'weak'
p54
I0
tp55
a(I4
I7
I0
S'many'
p56
I0
tp57
a(I4
I7
I0
S'signal'
p58
I0
tp59
a(I7
I38
I0
S'signal'
p60
I0
tp61
as(S'battery'
p62
S'life'
p63
tp64
(lp65
(I0
I8
F1.0
S'good'
p66
I1
tp67
a(I1
I10
F1.0
S'better'
p68
I1
tp69
a(I1
I10
F-0.625
S'other'
p70
I1
tp71
a(I1
I16
F-0.25
S'battery'
p72
I1
tp73
a(I1
I187
I0
S'very'
p74
I1
tp75
a(I1
I187
F-0.5
S'poor'
p76
I1
tp77
a(I1
I198
F1.0
S'best'
p78
I1
tp79
a(I2
I37
F-0.5
S'poor'
p80
I1
tp81
a(I5
I143
I0
S'such'
p82
I1
tp83
a(I6
I104
F1.0
S'good'
p84
I1
tp85
a(I6
I112
F-0.875
S'awful'
p86
I1
tp87
a(I6
I194
F0.25
S'responsive'
p88
I1
tp89
a(I6
I194
F1.0
S'good'
p90
I1
tp91
a(I7
I32
F0.375
S'similar'
p92
I1
tp93
a(I7
I34
F-0.625
S'average'
p94
I1
tp95
a(I0
I8
F1.0
g66
I19
tp96
a(I1
I10
F-0.625
g70
I19
tp97
a(I1
I16
F-0.25
g72
I19
tp98
a(I1
I198
F1.0
g78
I19
tp99
a(I3
I31
F0.75
S'dear'
p100
I19
tp101
a(I5
I143
I0
g82
I19
tp102
a(I6
I104
F1.0
g84
I19
tp103
a(I6
I112
F-0.875
g86
I19
tp104
a(I6
I194
F1.0
g90
I19
tp105
a(I1
I10
F1.0
g68
I15
tp106
a(I1
I13
F0.25
S'larger'
p107
I15
tp108
a(I1
I15
I0
S'special'
p109
I15
tp110
a(I1
I105
I0
S'faster'
p111
I15
tp112
a(I1
I105
I0
S'more'
p113
I15
tp114
a(I1
I105
F0.5
S'expensive'
p115
I15
tp116
a(I1
I174
F-0.375
S'double'
p117
I15
tp118
a(I1
I186
I0
S'plastic'
p119
I15
tp120
a(I1
I187
I0
g74
I15
tp121
a(I1
I187
F-0.5
g76
I15
tp122
a(I2
I37
F-0.5
g80
I15
tp123
a(I4
I12
I0
S'more'
p124
I15
tp125
a(I5
I17
F-0.375
S'small'
p126
I15
tp127
a(I6
I194
F0.25
g88
I15
tp128
a(I6
I198
F0.375
S'extra'
p129
I15
tp130
a(I7
I31
F-0.25
S'low'
p131
I15
tp132
a(I7
I32
F0.375
g92
I15
tp133
a(I7
I33
F0.25
S'biggest'
p134
I15
tp135
a(I7
I34
F-0.625
g94
I15
tp136
a(I9
I19
F0.375
S'extended'
p137
I15
tp138
a(I9
I60
F0.25
S'bigger'
p139
I15
tp140
a(I9
I60
F0.625
S'convenient'
p141
I15
tp142
as(S'call'
p143
S'quality'
p144
tp145
(lp146
(I0
I10
F1.0
S'good'
p147
I0
tp148
a(I0
I11
F-0.5
S'outright'
p149
I0
tp150
a(I0
I11
F-0.625
S'bad'
p151
I0
tp152
a(I1
I66
I0
S'signal'
p153
I0
tp154
a(I6
I222
F0.625
S'perfect'
p155
I0
tp156
as(S'service'
p157
tp158
(lp159
(I1
I60
I0
S'full'
p160
I16
tp161
as(S'download'
p162
tp163
(lp164
(I6
I135
I0
S'same'
p165
I1
tp166
a(I6
I135
I0
S'basic'
p167
I1
tp168
as(S'camera'
p169
tp170
(lp171
(I0
I17
F1.0
S'good'
p172
I1
tp173
a(I5
I64
F1.0
S'best'
p174
I1
tp175
a(I9
I4
F1.0
S'best'
p176
I1
tp177
a(I9
I12
F1.0
S'good'
p178
I1
tp179
as(S'sprint'
p180
tp181
(lp182
(I0
I41
F-0.625
S'other'
p183
I0
tp184
a(I1
I58
F-0.625
S'other'
p185
I0
tp186
a(I1
I125
I0
S'such'
p187
I0
tp188
a(I1
I170
I0
S'website'
p189
I0
tp190
a(I2
I34
I0
S'many'
p191
I0
tp192
a(I5
I56
F-0.625
S'other'
p193
I0
tp194
a(I6
I98
F-0.5
S'sure'
p195
I0
tp196
a(I6
I148
F-0.5
S'regular'
p197
I0
tp198
a(I6
I165
F1.0
S'good'
p199
I0
tp200
a(I6
I245
I0
S'most'
p201
I0
tp202
a(I6
I248
F0.375
S'extra'
p203
I0
tp204
a(I6
I248
F-0.5
S'unwanted'
p205
I0
tp206
a(I7
I39
F1.0
S'better'
p207
I0
tp208
as(S'wifi'
p209
S'signal'
p210
tp211
(lp212
(I1
I1
F-0.5
S'weak'
p213
I0
tp214
a(I1
I43
F-0.5
S'weak'
p215
I0
tp216
a(I1
I119
I0
S'same'
p217
I0
tp218
a(I1
I119
F0.5
S'true'
p219
I0
tp220
a(I2
I32
F0.5
S'strong'
p221
I0
tp222
a(I2
I32
I0
S'encrypted'
p223
I0
tp224
a(I6
I130
I0
S'cellular'
p225
I0
tp226
a(I1
I1
F-0.5
g213
I1
tp227
a(I1
I7
F0.125
S'enough'
p228
I1
tp229
a(I1
I38
I0
S'unbelievable'
p230
I1
tp231
a(I1
I44
F0.875
S'lucky'
p232
I1
tp233
a(I1
I44
I0
S'slower'
p234
I1
tp235
a(I1
I58
F-0.5
S'regular'
p236
I1
tp237
a(I1
I92
F-0.5
g54
I1
tp238
a(I1
I172
F1.0
S'good'
p239
I1
tp240
a(I5
I16
F-0.625
S'sorry'
p241
I1
tp242
a(I6
I99
F-0.25
S'low'
p243
I1
tp244
a(I6
I229
F1.0
S'good'
p245
I1
tp246
as(S'poor'
p247
tp248
(lp249
(I3
I16
F1.0
S'best'
p250
I15
tp251
as(S'speed'
p252
tp253
(lp254
(I6
I123
F1.0
S'good'
p255
I9
tp256
as(S'market'
p257
tp258
(lp259
(I0
I4
F-0.375
S'simple'
p260
I16
tp261
as(S'google'
p262
S'wallet'
p263
tp264
(lp265
(I1
I181
F-0.5
S'regular'
p266
I0
tp267
a(I6
I23
I0
S'exclusive'
p268
I0
tp269
a(I1
I16
F-0.5
S'actual'
p270
I1
tp271
a(I1
I181
F-0.5
g266
I1
tp272
a(I6
I23
I0
g268
I1
tp273
a(I0
I39
F0.5
S'whole'
p274
I4
tp275
a(I5
I53
I0
S'big'
p276
I4
tp277
a(I5
I138
F0.5
S'true'
p278
I4
tp279
a(I5
I138
F0.625
S'straight'
p280
I4
tp281
as(S'android'
p282
tp283
(lp284
(I1
I129
F-0.25
S'ready'
p285
I0
tp286
a(I1
I197
F-0.625
S'clean'
p287
I0
tp288
a(I1
I201
I0
S'only'
p289
I0
tp290
a(I2
I6
F-0.625
S'other'
p291
I0
tp292
a(I3
I41
F0.375
S'new'
p293
I0
tp294
a(I5
I86
F0.125
S'first'
p295
I0
tp296
a(I6
I86
I0
S'different'
p297
I0
tp298
a(I6
I145
I0
S'great'
p299
I0
tp300
a(I6
I259
I0
S'latest'
p301
I0
tp302
a(I6
I262
I0
S'latest'
p303
I0
tp304
a(I7
I11
I0
S'faster'
p305
I0
tp306
a(I7
I11
I0
S'more'
p307
I0
tp308
a(I7
I43
I0
S'latest'
p309
I0
tp310
a(I7
I43
F0.5
S'true'
p311
I0
tp312
a(I7
I47
I0
S'own'
p313
I0
tp314
a(I7
I72
I0
S'generic'
p315
I0
tp316
a(I9
I69
F1.0
S'best'
p317
I0
tp318
as(S'nexus'
p319
tp320
(lp321
(I1
I53
I0
S'full'
p322
I0
tp323
a(I1
I57
I0
S'full'
p324
I0
tp325
a(I1
I57
I0
S'signal'
p326
I0
tp327
a(I1
I84
F-0.125
S'present'
p328
I0
tp329
a(I2
I0
F0.25
S'original'
p330
I0
tp331
a(I5
I109
F0.875
S'happy'
p332
I0
tp333
a(I6
I184
F1.0
S'better'
p334
I0
tp335
as(S'iphone'
p336
tp337
(lp338
(I2
I37
F-0.125
S'slow'
p339
I1
tp340
a(I2
I39
F-0.375
S'smooth'
p341
I1
tp342
as(S'google'
p343
S'voice'
p344
tp345
(lp346
(I1
I7
F-0.25
S'google'
p347
I0
tp348
a(I1
I7
F-0.25
g347
I4
tp349
as(S'reception'
p350
S'issues'
p351
tp352
(lp353
(I1
I171
I0
S'great'
p354
I0
tp355
a(I8
I12
I0
S'more'
p356
I0
tp357
a(I8
I12
F0.25
S'consistent'
p358
I0
tp359
a(I1
I20
F-0.5
S'poor'
p360
I0
tp361
a(I1
I45
F1.0
S'better'
p362
I0
tp363
a(I1
I61
F1.0
S'better'
p364
I0
tp365
a(I1
I143
F0.125
S'solid'
p366
I0
tp367
a(I1
I171
I0
g354
I0
tp368
a(I5
I22
F0.75
S'due'
p369
I0
tp370
a(I5
I22
F-0.5
S'poor'
p371
I0
tp372
a(I5
I33
F-0.5
S'long'
p373
I0
tp374
a(I5
I56
I0
S'great'
p375
I0
tp376
a(I5
I67
I0
S'great'
p377
I0
tp378
a(I6
I41
F0.5
S'stronger'
p379
I0
tp380
a(I6
I219
I0
S'great'
p381
I0
tp382
a(I6
I229
F1.0
S'good'
p383
I0
tp384
a(I7
I40
I0
S'great'
p385
I0
tp386
a(I8
I2
F-0.5
S'poor'
p387
I0
tp388
a(I8
I12
I0
g356
I0
tp389
a(I8
I12
F0.25
g358
I0
tp390
as(S'pure'
p391
tp392
(lp393
(I7
I49
F0.125
S'first'
p394
I2
tp395
as(S'data'
p396
tp397
(lp398
(I1
I23
I0
S'more'
p399
I13
tp400
a(I1
I23
F-0.5
S'heavy'
p401
I13
tp402
a(I6
I78
F-0.625
S'light'
p403
I13
tp404
a(I6
I80
F1.0
S'good'
p405
I13
tp406
as(S'smartphone'
p407
tp408
(lp409
(I1
I29
F1.0
S'good'
p410
I0
tp411
a(I6
I88
F0.625
S'easy'
p412
I0
tp413
a(I6
I88
F-0.75
S'bright'
p414
I0
tp415
a(I6
I88
F-0.625
S'light'
p416
I0
tp417
a(I6
I133
F0.125
S'first'
p418
I0
tp419
a(I6
I133
F0.375
S'much'
p420
I0
tp421
as(S'super'
p422
S'fast'
p423
tp424
(lp425
(I1
I8
F-0.125
S'super'
p426
I0
tp427
a(I6
I186
F-0.125
S'super'
p428
I0
tp429
a(I6
I220
F-0.125
S'super'
p430
I0
tp431
as(S'apps'
p432
tp433
(lp434
(I0
I3
I0
S'many'
p435
I0
tp436
a(I1
I27
F-0.5
S'open'
p437
I0
tp438
a(I1
I33
F-0.5
S'heavy'
p439
I0
tp440
a(I1
I33
I0
S'such'
p441
I0
tp442
a(I1
I84
F-0.5
S'unwanted'
p443
I0
tp444
a(I2
I42
F-0.5
S'certain'
p445
I0
tp446
a(I2
I42
F-0.125
S'slow'
p447
I0
tp448
a(I3
I27
F0.375
S'similar'
p449
I0
tp450
a(I5
I13
I0
S'great'
p451
I0
tp452
a(I5
I21
I0
S'great'
p453
I0
tp454
a(I5
I40
F0.375
S'new'
p455
I0
tp456
a(I5
I40
I0
S'great'
p457
I0
tp458
a(I5
I74
I0
S'many'
p459
I0
tp460
a(I5
I88
I0
S'basic'
p461
I0
tp462
a(I5
I88
F0.625
S'easy'
p463
I0
tp464
a(I6
I107
F0.5
S'careful'
p465
I0
tp466
a(I6
I120
I0
S'many'
p467
I0
tp468
a(I6
I120
F0.25
S'favorite'
p469
I0
tp470
a(I6
I145
F-0.375
S'simple'
p471
I0
tp472
a(I6
I145
F-0.625
S'free'
p473
I0
tp474
a(I6
I214
F0.125
S'first'
p475
I0
tp476
a(I7
I14
I0
S'internet'
p477
I0
tp478
as(S'dropped'
p479
S'calls'
p480
tp481
(lp482
(I1
I66
F-0.25
S'dropped'
p483
I0
tp484
a(I6
I234
F-0.25
S'dropped'
p485
I0
tp486
a(I1
I66
F-0.25
g483
I0
tp487
a(I5
I31
F0.75
S'receive'
p488
I0
tp489
a(I6
I134
I0
S'many'
p490
I0
tp491
a(I6
I234
F-0.25
g485
I0
tp492
as.