(dp0
(S'headphone'
p1
S'jack'
p2
tp3
(lp4
(I28
I65
F-0.375
S'simple'
p5
I0
tp6
a(I28
I65
F-0.625
S'clean'
p7
I0
tp8
as(S'35'
p9
S'a'
p10
S'month'
p11
tp12
(lp13
(I5
I341
F0.5
S'willing'
p14
I0
tp15
a(I26
I61
F-0.625
S'free'
p16
I0
tp17
as(S'virgin'
p18
S'mobile'
p19
S'customer'
p20
tp21
(lp22
(I5
I249
F-0.5
S'infallible'
p23
I0
tp24
a(I5
I279
I0
S'exclusive'
p25
I0
tp26
a(I26
I541
F-0.5
S'poor'
p27
I0
tp28
a(I35
I8
F0.875
S'happy'
p29
I0
tp30
a(I47
I41
F-0.5
S'poor'
p31
I0
tp32
a(I9
I4
F0.5
S'loyal'
p33
I11
tp34
a(I13
I88
F0.5
S'technical'
p35
I11
tp36
a(I24
I44
F-0.5
S'poor'
p37
I11
tp38
a(I26
I158
F1.0
S'good'
p39
I11
tp40
a(I26
I541
F-0.5
g27
I11
tp41
a(I29
I63
F0.875
S'happy'
p42
I11
tp43
a(I42
I16
I0
S'great'
p44
I11
tp45
a(I47
I37
F0.5
S'possible'
p46
I11
tp47
a(I47
I41
F-0.5
g31
I11
tp48
a(I49
I46
F0.875
S'happy'
p49
I11
tp50
a(I49
I48
F-0.75
S'little'
p51
I11
tp52
a(I57
I11
F-0.5
S'poor'
p53
I11
tp54
as(S'to'
p55
S'virgin'
p56
S'mobile'
p57
tp58
(lp59
(I1
I55
I0
S'mobile'
p60
I0
tp61
a(I2
I34
I0
S'mobile'
p62
I0
tp63
a(I2
I37
F1.0
S'good'
p64
I0
tp65
a(I5
I249
F-0.5
g23
I0
tp66
a(I5
I279
I0
g25
I0
tp67
a(I12
I7
F-0.875
S'stuck'
p68
I0
tp69
a(I12
I85
I0
S'most'
p70
I0
tp71
a(I13
I82
F0.875
S'happy'
p72
I0
tp73
a(I13
I156
F-0.625
S'other'
p74
I0
tp75
a(I15
I21
I0
S'prepaid'
p76
I0
tp77
a(I26
I119
F0.125
S'indicative'
p78
I0
tp79
a(I26
I544
I0
S'quick'
p80
I0
tp81
a(I28
I33
I0
S'update'
p82
I0
tp83
a(I28
I41
F-0.625
S'other'
p84
I0
tp85
a(I29
I107
I0
S'later'
p86
I0
tp87
a(I35
I8
F0.875
g29
I0
tp88
a(I39
I50
F1.0
S'good'
p89
I0
tp90
a(I43
I89
F-0.625
S'free'
p91
I0
tp92
a(I43
I89
F0.5
S'live'
p93
I0
tp94
a(I52
I14
F-0.5
S'sure'
p95
I0
tp96
a(I52
I22
I0
S'old'
p97
I0
tp98
a(I52
I62
F0.375
S'new'
p99
I0
tp100
a(I58
I96
F-0.75
S'stupid'
p101
I0
tp102
as(S'motorola'
p103
S'triumph'
p104
tp105
(lp106
(I5
I128
F-0.875
S'trouble'
p107
I0
tp108
a(I5
I152
F-0.375
S'serious'
p109
I0
tp110
a(I7
I68
F-0.25
S'google'
p111
I0
tp112
a(I8
I9
I0
S'fast'
p113
I0
tp114
a(I15
I13
I0
S'cable'
p115
I0
tp116
a(I18
I209
F-0.125
S'overall'
p117
I0
tp118
a(I21
I49
F-0.625
S'other'
p119
I0
tp120
a(I22
I119
F0.875
S'happy'
p121
I0
tp122
a(I22
I157
F0.125
S'practical'
p123
I0
tp124
a(I22
I157
F0.25
S'financial'
p125
I0
tp126
a(I22
I157
I0
S'minded'
p127
I0
tp128
a(I24
I79
F-0.75
S'dead'
p129
I0
tp130
a(I26
I335
F-0.75
S'wrong'
p131
I0
tp132
a(I40
I38
F1.0
S'good'
p133
I0
tp134
a(I40
I96
F-0.125
S'present'
p135
I0
tp136
a(I43
I74
F-0.25
S'thin'
p137
I0
tp138
a(I43
I87
I0
S'standard'
p139
I0
tp140
a(I43
I93
F-0.625
S'other'
p141
I0
tp142
a(I44
I3
F0.625
S'superior'
p143
I0
tp144
a(I46
I0
F0.5
S'second'
p145
I0
tp146
a(I47
I23
F0.625
S'logical'
p147
I0
tp148
a(I47
I23
I0
S'few'
p149
I0
tp150
a(I48
I99
F0.125
S'last'
p151
I0
tp152
a(I55
I52
F-0.625
S'other'
p153
I0
tp154
a(I56
I12
F0.875
S'happy'
p155
I0
tp156
a(I1
I77
F-0.125
S'overall'
p157
I0
tp158
a(I1
I77
F0.875
S'happy'
p159
I0
tp160
a(I5
I128
F-0.875
g107
I0
tp161
a(I5
I141
I0
S'great'
p162
I0
tp163
a(I5
I151
I0
S'great'
p164
I0
tp165
a(I5
I152
F-0.375
g109
I0
tp166
a(I12
I30
F-0.25
S'thin'
p167
I0
tp168
a(I12
I94
F0.75
S'worth'
p169
I0
tp170
a(I15
I13
I0
g115
I0
tp171
a(I18
I171
F-0.625
S'other'
p172
I0
tp173
a(I23
I2
I0
S'only'
p174
I0
tp175
a(I24
I79
F-0.75
g129
I0
tp176
a(I26
I27
F0.625
S'easier'
p177
I0
tp178
a(I26
I255
I0
S'fast'
p179
I0
tp180
a(I26
I266
I0
S'big'
p181
I0
tp182
a(I29
I153
F1.0
S'best'
p183
I0
tp184
a(I38
I2
F1.0
S'good'
p185
I0
tp186
a(I38
I2
F-0.625
S'bad'
p187
I0
tp188
a(I39
I22
F-0.25
S'potential'
p189
I0
tp190
a(I39
I52
F0.125
S'able'
p191
I0
tp192
a(I40
I33
F0.5
S'clear'
p193
I0
tp194
a(I40
I96
F-0.125
g135
I0
tp195
a(I43
I74
F-0.25
g137
I0
tp196
a(I43
I87
I0
g139
I0
tp197
a(I44
I3
F0.625
g143
I0
tp198
a(I44
I96
F-0.625
S'average'
p199
I0
tp200
a(I44
I168
I0
S'great'
p201
I0
tp202
a(I52
I64
I0
S'faster'
p203
I0
tp204
a(I55
I23
F-0.5
S'less'
p205
I0
tp206
a(I55
I52
F-0.625
g153
I0
tp207
a(I59
I10
F0.125
S'flaky'
p208
I0
tp209
a(I59
I16
F-0.75
S'worse'
p210
I0
tp211
a(I59
I128
F0.5
S'personal'
p212
I0
tp213
a(I60
I5
F0.875
S'nice'
p214
I0
tp215
a(I60
I9
F-0.25
S'inexpensive'
p216
I0
tp217
a(I60
I21
I0
S'slower'
p218
I0
tp219
a(I63
I30
F0.5
S'second'
p220
I0
tp221
a(I2
I10
F-0.25
S'disappointed'
p222
I0
tp223
a(I7
I68
F-0.25
g111
I0
tp224
a(I8
I9
I0
g113
I0
tp225
a(I13
I161
F-0.25
S'low'
p226
I0
tp227
a(I13
I161
F-0.125
S'behold'
p228
I0
tp229
a(I15
I50
I0
S'few'
p230
I0
tp231
a(I15
I50
F-0.625
S'other'
p232
I0
tp233
a(I15
I50
F0.5
S'characteristic'
p234
I0
tp235
a(I16
I3
F0.5
S'hopeful'
p236
I0
tp237
a(I18
I209
F-0.125
g117
I0
tp238
a(I19
I12
I0
S'update'
p239
I0
tp240
a(I21
I43
I0
S'many'
p241
I0
tp242
a(I21
I49
F-0.625
g119
I0
tp243
a(I22
I119
F0.875
g121
I0
tp244
a(I22
I157
F0.125
g123
I0
tp245
a(I22
I157
F0.25
g125
I0
tp246
a(I22
I157
I0
g127
I0
tp247
a(I26
I115
I0
S'standard'
p248
I0
tp249
a(I26
I135
I0
S'such'
p250
I0
tp251
a(I26
I335
F-0.75
g131
I0
tp252
a(I26
I356
F-0.5
S'poor'
p253
I0
tp254
a(I26
I356
I0
S'least'
p255
I0
tp256
a(I28
I73
I0
S'old'
p257
I0
tp258
a(I34
I129
F0.125
S'solid'
p259
I0
tp260
a(I39
I37
I0
S'old'
p261
I0
tp262
a(I40
I38
F1.0
g133
I0
tp263
a(I43
I93
F-0.625
g141
I0
tp264
a(I44
I54
F-0.75
S'worse'
p265
I0
tp266
a(I44
I54
F0.125
S'first'
p267
I0
tp268
a(I46
I0
F0.5
g145
I0
tp269
a(I47
I23
F0.625
g147
I0
tp270
a(I47
I23
I0
g149
I0
tp271
a(I47
I34
F-0.25
S'disappointed'
p272
I0
tp273
a(I48
I99
F0.125
g151
I0
tp274
a(I49
I43
F-0.5
S'sure'
p275
I0
tp276
a(I49
I55
F0.5
S'whole'
p277
I0
tp278
a(I56
I12
F0.875
g155
I0
tp279
a(I60
I15
F-0.875
S'awful'
p280
I0
tp281
as(S'unlimited'
p282
S'data'
p283
S'plan'
p284
tp285
(lp286
(I21
I55
F-0.5
S'unlimited'
p287
I0
tp288
a(I26
I62
F-0.5
S'unlimited'
p289
I0
tp290
a(I48
I128
F-0.5
S'unlimited'
p291
I0
tp292
a(I8
I34
F-0.5
S'miss'
p293
I13
tp294
a(I13
I156
F-0.125
S'slow'
p295
I13
tp296
a(I16
I5
F-0.25
S'past'
p297
I13
tp298
a(I18
I32
F-0.375
S'serious'
p299
I13
tp300
a(I21
I55
F-0.5
g287
I13
tp301
a(I22
I31
I0
S'close'
p302
I13
tp303
a(I26
I61
F-0.5
S'unlimited'
p304
I13
tp305
a(I26
I62
F-0.5
g289
I13
tp306
a(I28
I55
F0.5
S'greater'
p307
I13
tp308
a(I29
I174
F-0.875
S'worst'
p309
I13
tp310
a(I40
I91
I0
S'full'
p311
I13
tp312
a(I48
I7
I0
S'such'
p313
I13
tp314
a(I48
I64
F0.875
S'music'
p315
I13
tp316
a(I48
I128
F-0.5
g291
I13
tp317
a(I58
I166
F-0.25
S'low'
p318
I13
tp319
a(I59
I98
F-0.5
S'unlimited'
p320
I13
tp321
as(S'call'
p322
S'quality'
p323
tp324
(lp325
(I1
I6
F1.0
S'good'
p326
I0
tp327
a(I5
I187
I0
S'same'
p328
I0
tp329
a(I5
I254
F1.0
S'good'
p330
I0
tp331
a(I7
I75
F-0.5
S'call'
p332
I0
tp333
a(I11
I1
F-0.5
S'poor'
p334
I0
tp335
a(I15
I25
F1.0
S'good'
p336
I0
tp337
a(I15
I25
F1.0
S'best'
p338
I0
tp339
a(I15
I25
F1.0
S'better'
p340
I0
tp341
a(I22
I9
F1.0
S'good'
p342
I0
tp343
a(I22
I10
F-0.5
S'actual'
p344
I0
tp345
a(I22
I10
F1.0
S'good'
p346
I0
tp347
a(I24
I27
F-0.5
S'poor'
p348
I0
tp349
a(I24
I126
F1.0
S'good'
p350
I0
tp351
a(I26
I120
F0.625
S'acceptable'
p352
I0
tp353
a(I29
I171
F-0.75
S'worse'
p354
I0
tp355
a(I44
I110
F0.125
S'last'
p356
I0
tp357
a(I44
I110
I0
S'least'
p358
I0
tp359
a(I59
I101
F0.125
S'solid'
p360
I0
tp361
a(I63
I150
F1.0
S'good'
p362
I0
tp363
a(I63
I206
F1.0
S'good'
p364
I0
tp365
a(I63
I206
F0.25
S'responsive'
p366
I0
tp367
as(g10
S'screen'
p368
S'protector'
p369
tp370
(lp371
(I7
I61
F0.625
S'add'
p372
I1
tp373
a(I26
I8
F-0.25
S'thin'
p374
I1
tp375
a(I26
I8
I0
S'capacitive'
p376
I1
tp377
a(I30
I22
I0
S'thick'
p378
I1
tp379
a(I43
I19
I0
S'more'
p380
I1
tp381
a(I43
I19
I0
S'more'
p382
I1
tp383
a(I43
I19
F0.5
S'glare'
p384
I1
tp385
a(I44
I79
I0
S'own'
p386
I1
tp387
a(I44
I123
F0.25
S'responsive'
p388
I1
tp389
a(I7
I61
F0.625
g372
I4
tp390
a(I26
I8
F-0.25
g374
I4
tp391
a(I26
I8
I0
g376
I4
tp392
a(I30
I22
I0
g378
I4
tp393
a(I39
I169
I-100
S'com/gp/product/b007r0h21q/ref=oh_details_o00_s00_i01lcd'
p394
I4
tp395
a(I43
I19
I0
g380
I4
tp396
a(I43
I19
I0
g382
I4
tp397
a(I43
I19
F0.5
g384
I4
tp398
a(I44
I79
I0
g386
I4
tp399
a(I44
I123
F0.25
g388
I4
tp400
as(S'timely'
p401
S'manner'
p402
tp403
(lp404
(I14
I61
I0
S'timely'
p405
I7
tp406
a(I47
I45
I0
S'timely'
p407
I7
tp408
as(S'angry'
p409
S'birds'
p410
tp411
(lp412
(I26
I75
I0
S'angry'
p413
I0
tp414
a(I26
I234
F-0.625
S'free'
p415
I0
tp416
as(S'lg'
p417
S'optimus'
p418
S'v'
p419
tp420
(lp421
(I9
I1
F0.5
S'upgraded'
p422
I0
tp423
a(I12
I109
F0.875
S'happy'
p424
I0
tp425
a(I13
I117
F0.875
S'happy'
p426
I0
tp427
a(I13
I134
F0.5
S'upgraded'
p428
I0
tp429
a(I13
I158
I0
S'more'
p430
I0
tp431
a(I22
I63
F-0.5
S'less'
p432
I0
tp433
a(I22
I63
F0.5
S'second'
p434
I0
tp435
a(I24
I131
F-0.5
S'tried'
p436
I0
tp437
a(I24
I131
F0.5
S'true'
p438
I0
tp439
a(I27
I1
F0.875
S'happy'
p440
I0
tp441
a(I34
I167
F-0.75
S'worse'
p442
I0
tp443
a(I39
I58
F0.5
S'whole'
p444
I0
tp445
a(I43
I6
F-0.375
S'smoother'
p446
I0
tp447
a(I44
I6
F0.5
S'second'
p448
I0
tp449
a(I48
I226
F0.375
S'content'
p450
I0
tp451
a(I60
I13
F-0.75
S'worse'
p452
I0
tp453
a(I9
I1
F0.5
g422
I0
tp454
a(I13
I117
F0.875
g426
I0
tp455
a(I13
I134
F0.5
g428
I0
tp456
a(I13
I158
I0
g430
I0
tp457
a(I14
I74
I0
S'least'
p458
I0
tp459
a(I24
I131
F-0.5
g436
I0
tp460
a(I24
I131
F0.5
g438
I0
tp461
a(I27
I1
F0.875
g440
I0
tp462
a(I34
I167
F-0.75
g442
I0
tp463
a(I39
I58
F0.5
g444
I0
tp464
a(I43
I6
F-0.375
g446
I0
tp465
a(I44
I6
F0.5
g448
I0
tp466
a(I48
I226
F0.375
g450
I0
tp467
a(I60
I13
F-0.75
g452
I0
tp468
as(S'bucks'
p469
g10
S'month'
p470
tp471
(lp472
(I63
I55
F-0.625
S'free'
p473
I0
tp474
as(S'bluetooth'
p475
tp476
(lp477
(I2
I35
F-0.5
S'sure'
p478
I3
tp479
a(I5
I94
F-0.375
S'simple'
p480
I3
tp481
a(I18
I94
F-0.875
S'trouble'
p482
I3
tp483
a(I21
I4
F0.125
S'first'
p484
I3
tp485
a(I22
I129
I0
S'toggle'
p486
I3
tp487
a(I26
I416
F1.0
S'good'
p488
I3
tp489
a(I39
I64
F-0.5
S'poor'
p490
I3
tp491
a(I40
I47
F-0.75
S'unreliable'
p492
I3
tp493
as(S'button'
p494
tp495
(lp496
(I5
I21
F-0.25
S'potential'
p497
I19
tp498
a(I10
I14
F-0.75
S'dead'
p499
I19
tp500
a(I12
I34
I0
S'physical'
p501
I19
tp502
a(I24
I97
I0
S'physical'
p503
I19
tp504
a(I28
I58
I0
S'shutter'
p505
I19
tp506
a(I63
I43
I0
S'touchscreen'
p507
I19
tp508
a(I63
I45
F0.5
S'awkward'
p509
I19
tp510
a(I63
I47
F-0.5
S'actual'
p511
I19
tp512
a(I63
I48
F0.625
S'easy'
p513
I19
tp514
a(I63
I94
F-0.75
S'unresponsive'
p515
I19
tp516
as(S'iphone'
p517
tp518
(lp519
(I3
I46
F0.5
S'true'
p520
I1
tp521
a(I3
I48
F1.0
S'good'
p522
I1
tp523
a(I3
I48
F1.0
S'better'
p524
I1
tp525
a(I5
I264
F1.0
S'good'
p526
I1
tp527
a(I5
I294
I0
S'same'
p528
I1
tp529
a(I7
I6
F0.75
S'worth'
p530
I1
tp531
a(I12
I40
I0
S'high'
p532
I1
tp533
a(I13
I33
F1.0
S'good'
p534
I1
tp535
a(I18
I218
F0.125
S'last'
p536
I1
tp537
a(I20
I2
F1.0
S'good'
p538
I1
tp539
a(I22
I147
F0.125
S'capable'
p540
I1
tp541
a(I24
I174
F0.25
S'boy'
p542
I1
tp543
a(I26
I241
F0.375
S'new'
p544
I1
tp545
a(I26
I330
F-0.125
S'former'
p546
I1
tp547
a(I33
I8
F1.0
S'good'
p548
I1
tp549
a(I33
I8
F1.0
S'better'
p550
I1
tp551
a(I39
I110
F0.375
S'new'
p552
I1
tp553
a(I45
I65
I0
S'android'
p554
I1
tp555
as(S'wifi'
p556
tp557
(lp558
(I5
I142
F0.125
S'able'
p559
I0
tp560
a(I5
I143
I0
S'own'
p561
I0
tp562
a(I5
I197
I0
S'great'
p563
I0
tp564
a(I22
I83
I0
S'buggy'
p565
I0
tp566
a(I34
I45
F0.625
S'easy'
p567
I0
tp568
a(I44
I36
I0
S'faster'
p569
I0
tp570
as(S'reception'
p571
tp572
(lp573
(I1
I67
I0
S'great'
p574
I0
tp575
a(I1
I67
F-0.875
S'awful'
p576
I0
tp577
a(I5
I50
F-0.625
S'bad'
p578
I0
tp579
a(I5
I72
I0
S'great'
p580
I0
tp581
a(I5
I132
F-0.5
S'poor'
p582
I0
tp583
a(I5
I291
F-0.625
S'bad'
p584
I0
tp585
a(I7
I81
F-0.5
S'poor'
p586
I0
tp587
a(I7
I81
F1.0
S'best'
p588
I0
tp589
a(I19
I0
F1.0
S'good'
p590
I0
tp591
a(I26
I396
I0
S'signal'
p592
I0
tp593
a(I26
I543
F1.0
S'good'
p594
I0
tp595
a(I29
I102
F1.0
S'good'
p596
I0
tp597
a(I34
I8
I0
S'same'
p598
I0
tp599
a(I39
I15
F-0.5
S'weak'
p600
I0
tp601
a(I39
I16
I0
S'full'
p602
I0
tp603
a(I39
I37
F1.0
S'good'
p604
I0
tp605
a(I39
I131
F-0.5
S'poor'
p606
I0
tp607
a(I39
I185
F-0.625
S'bad'
p608
I0
tp609
a(I40
I88
F-0.75
S'worse'
p610
I0
tp611
a(I40
I108
F1.0
S'good'
p612
I0
tp613
a(I42
I7
F0.875
S'happy'
p614
I0
tp615
a(I49
I20
I0
S'adequate'
p616
I0
tp617
a(I49
I23
F-0.625
S'bad'
p618
I0
tp619
a(I55
I23
F0.5
S'possible'
p620
I0
tp621
a(I58
I62
F-0.5
S'weak'
p622
I0
tp623
a(I60
I1
F1.0
S'good'
p624
I0
tp625
a(I63
I104
F1.0
S'good'
p626
I0
tp627
a(I63
I172
F-0.5
S'poor'
p628
I0
tp629
as(S'front'
p630
S'facing'
p631
S'camera'
p632
tp633
(lp634
(I2
I9
I0
S'great'
p635
I0
tp636
a(I2
I5
F1.0
S'good'
p637
I1
tp638
a(I2
I9
I0
g635
I1
tp639
a(I3
I34
I0
S'great'
p640
I1
tp641
a(I5
I198
F1.0
S'good'
p642
I1
tp643
a(I7
I50
F-0.25
S'disappointing'
p644
I1
tp645
a(I7
I50
F0.125
S'first'
p646
I1
tp647
a(I8
I22
I-100
S'1mpfront'
p648
I1
tp649
a(I8
I41
F0.625
S'decent'
p650
I1
tp651
a(I12
I56
F1.0
S'better'
p652
I1
tp653
a(I12
I63
F-0.25
S'disappointing'
p654
I1
tp655
a(I12
I65
F0.125
S'typical'
p656
I1
tp657
a(I12
I66
F-0.125
S'overall'
p658
I1
tp659
a(I12
I66
F1.0
S'good'
p660
I1
tp661
a(I12
I66
F-0.5
S'afraid'
p662
I1
tp663
a(I13
I32
F0.25
S'main'
p664
I1
tp665
a(I13
I33
I0
S'real'
p666
I1
tp667
a(I13
I35
I0
S'real'
p668
I1
tp669
a(I13
I137
F1.0
S'good'
p670
I1
tp671
a(I18
I100
F-0.125
S'slow'
p672
I1
tp673
a(I18
I101
F0.625
S'decent'
p674
I1
tp675
a(I18
I155
F0.875
S'nice'
p676
I1
tp677
a(I20
I8
I0
S'adequate'
p678
I1
tp679
a(I24
I39
F-0.375
S'smaller'
p680
I1
tp681
a(I26
I382
F0.25
S'main'
p682
I1
tp683
a(I26
I382
F1.0
S'good'
p684
I1
tp685
a(I26
I437
F0.25
S'main'
p686
I1
tp687
a(I26
I437
F-0.75
S'nonexistent'
p688
I1
tp689
a(I26
I479
F1.0
S'good'
p690
I1
tp691
a(I28
I42
I0
S'great'
p692
I1
tp693
a(I28
I54
F1.0
S'best'
p694
I1
tp695
a(I34
I121
F-0.125
S'overall'
p696
I1
tp697
a(I44
I92
F0.625
S'decent'
p698
I1
tp699
a(I44
I150
F0.125
S'able'
p700
I1
tp701
a(I45
I71
F0.25
S'main'
p702
I1
tp703
a(I45
I71
F-0.625
S'bad'
p704
I1
tp705
a(I58
I37
F1.0
S'good'
p706
I1
tp707
a(I58
I109
I0
S'great'
p708
I1
tp709
a(I60
I56
F-0.5
S'regular'
p710
I1
tp711
a(I62
I2
F-0.625
S'light'
p712
I1
tp713
a(I63
I111
F1.0
S'good'
p714
I1
tp715
as(S'times'
p716
g10
S'day'
p717
tp718
(lp719
(I3
I33
I0
S'few'
p720
I0
tp721
a(I5
I254
I0
S'least'
p722
I0
tp723
a(I5
I254
I0
S'faster'
p724
I0
tp725
a(I7
I12
I0
S'least'
p726
I0
tp727
a(I12
I139
F-0.875
S'worst'
p728
I0
tp729
a(I34
I25
I0
S'least'
p730
I0
tp731
as(S'signal'
p732
tp733
(lp734
(I1
I62
F-0.5
S'weak'
p735
I1
tp736
a(I1
I68
F-0.25
S'low'
p737
I1
tp738
a(I5
I291
F-0.5
S'weaker'
p739
I1
tp740
a(I15
I16
F-0.5
S'poor'
p741
I1
tp742
a(I15
I58
F0.375
S'reliable'
p743
I1
tp744
a(I18
I65
F1.0
S'good'
p745
I1
tp746
a(I20
I9
F-0.625
S'average'
p747
I1
tp748
a(I22
I48
F0.5
S'true'
p749
I1
tp750
a(I26
I148
I0
S'same'
p751
I1
tp752
a(I28
I37
F-0.25
S'low'
p753
I1
tp754
a(I34
I24
F-0.5
S'poor'
p755
I1
tp756
a(I60
I31
F1.0
S'good'
p757
I1
tp758
as(g10
S'couple'
p759
S'days'
p760
tp761
(lp762
(I40
I35
F0.125
S'first'
p763
I0
tp764
a(I40
I35
F-0.375
S'happen'
p765
I0
tp766
as(S'end'
p767
S'of'
p768
S'day'
p769
tp770
(lp771
(I3
I39
F-0.75
S'dead'
p772
I0
tp773
a(I36
I51
I0
S'high'
p774
I0
tp775
as(S'form'
p776
S'factor'
p777
tp778
(lp779
(I0
I7
I0
S'great'
p780
I1
tp781
a(I8
I45
F0.25
S'larger'
p782
I1
tp783
a(I18
I56
F-0.375
S'small'
p784
I1
tp785
a(I26
I420
F0.25
S'sweet'
p786
I1
tp787
as(S'dual'
p788
S'core'
p789
tp790
(lp791
(I12
I27
F0.125
S'solid'
p792
I0
tp793
a(I12
I27
F-0.75
S'single'
p794
I0
tp795
as(S'contract'
p796
tp797
(lp798
(I12
I27
I0
S'current'
p799
I0
tp800
a(I13
I62
F-0.625
S'other'
p801
I0
tp802
a(I13
I65
F-0.625
S'free'
p803
I0
tp804
a(I26
I222
I0
S'more'
p805
I0
tp806
a(I29
I88
F0.375
S'much'
p807
I0
tp808
a(I34
I22
F-0.25
S'cheaper'
p809
I0
tp810
a(I48
I118
F1.0
S'best'
p811
I0
tp812
a(I51
I0
I0
S'most'
p813
I0
tp814
a(I58
I168
F-0.625
S'free'
p815
I0
tp816
as(g10
S'long'
p817
S'time'
p818
tp819
(lp820
(I5
I35
F-0.5
S'long'
p821
I12
tp822
a(I5
I318
F-0.5
S'long'
p823
I12
tp824
a(I23
I4
F-0.5
S'long'
p825
I12
tp826
a(I27
I7
F-0.5
S'long'
p827
I12
tp828
a(I29
I135
F-0.5
S'long'
p829
I12
tp830
a(I29
I213
F-0.5
S'long'
p831
I12
tp832
a(I34
I52
F-0.5
S'long'
p833
I12
tp834
a(I45
I4
F-0.5
S'long'
p835
I12
tp836
a(I48
I25
F-0.5
S'long'
p837
I12
tp838
a(I48
I189
F-0.5
S'long'
p839
I12
tp840
as(S'android'
p841
tp842
(lp843
(I0
I3
F0.125
S'first'
p844
I0
tp845
a(I0
I36
I0
S'many'
p846
I0
tp847
a(I1
I33
F-0.875
S'worst'
p848
I0
tp849
a(I3
I4
I0
S'common'
p850
I0
tp851
a(I5
I9
F-0.625
S'other'
p852
I0
tp853
a(I5
I162
F0.875
S'nice'
p854
I0
tp855
a(I7
I69
I0
S'dictionary'
p856
I0
tp857
a(I7
I69
F-0.625
S'other'
p858
I0
tp859
a(I9
I3
F0.125
S'first'
p860
I0
tp861
a(I11
I27
F0.125
S'first'
p862
I0
tp863
a(I12
I40
I0
S'standard'
p864
I0
tp865
a(I12
I75
I0
S'particular'
p866
I0
tp867
a(I13
I23
I0
S'standard'
p868
I0
tp869
a(I13
I73
F-0.625
S'bad'
p870
I0
tp871
a(I14
I41
F1.0
S'best'
p872
I0
tp873
a(I18
I19
F0.125
S'first'
p874
I0
tp875
a(I18
I124
F-0.25
S'modern'
p876
I0
tp877
a(I21
I33
F-0.625
S'other'
p878
I0
tp879
a(I24
I97
I0
S'traditional'
p880
I0
tp881
a(I26
I80
F0.125
S'first'
p882
I0
tp883
a(I26
I131
F0.125
S'first'
p884
I0
tp885
a(I26
I183
F0.25
S'favorite'
p886
I0
tp887
a(I26
I233
F-0.625
S'free'
p888
I0
tp889
a(I29
I153
F0.375
S'available'
p890
I0
tp891
a(I29
I209
F1.0
S'best'
p892
I0
tp893
a(I34
I1
F1.0
S'best'
p894
I0
tp895
a(I35
I22
I0
S'great'
p896
I0
tp897
a(I44
I83
I0
S'few'
p898
I0
tp899
a(I48
I117
I0
S'standard'
p900
I0
tp901
a(I48
I222
F0.125
S'solid'
p902
I0
tp903
a(I49
I29
F0.125
S'first'
p904
I0
tp905
a(I51
I3
F0.375
S'newest'
p906
I0
tp907
a(I55
I6
F0.125
S'first'
p908
I0
tp909
a(I56
I14
F0.875
S'happy'
p910
I0
tp911
a(I58
I78
F0.5
S'second'
p912
I0
tp913
a(I58
I155
I0
S'soft'
p914
I0
tp915
a(I59
I95
F0.875
S'nice'
p916
I0
tp917
a(I59
I121
F-0.625
S'other'
p918
I0
tp919
a(I59
I121
I0
S'basic'
p920
I0
tp921
a(I59
I136
I0
S'old'
p922
I0
tp923
a(I60
I11
F0.625
S'easy'
p924
I0
tp925
a(I60
I37
F0.125
S'first'
p926
I0
tp927
a(I63
I5
F0.5
S'second'
p928
I0
tp929
a(I63
I17
I0
S'great'
p930
I0
tp931
a(I63
I33
F0.125
S'first'
p932
I0
tp933
a(I63
I153
F1.0
S'best'
p934
I0
tp935
a(I63
I190
F0.75
S'worth'
p936
I0
tp937
as(S'samsung'
p938
S'intercept'
p939
tp940
(lp941
(I12
I23
I0
S'old'
p942
I0
tp943
a(I13
I7
F1.0
S'better'
p944
I0
tp945
a(I26
I450
F0.5
S'upgraded'
p946
I0
tp947
a(I52
I22
F0.5
S'second'
p948
I0
tp949
a(I12
I23
I0
g942
I7
tp950
a(I13
I7
F1.0
g944
I7
tp951
a(I21
I96
I0
S'least'
p952
I7
tp953
a(I21
I97
I0
S'least'
p954
I7
tp955
a(I21
I98
I0
S'least'
p956
I7
tp957
a(I21
I99
I0
S'least'
p958
I7
tp959
a(I26
I450
F0.5
g946
I7
tp960
a(I26
I490
F0.125
S'able'
p961
I7
tp962
a(I52
I5
F1.0
S'good'
p963
I7
tp964
a(I52
I5
I0
S'great'
p965
I7
tp966
as(g10
S'virgin'
p967
S'mobile'
p968
tp969
(lp970
(I1
I55
I0
g60
I0
tp971
a(I2
I34
I0
g62
I0
tp972
a(I2
I37
F1.0
g64
I0
tp973
a(I5
I249
F-0.5
g23
I0
tp974
a(I5
I252
F-0.625
S'other'
p975
I0
tp976
a(I5
I279
I0
g25
I0
tp977
a(I7
I5
I0
S'mobile'
p978
I0
tp979
a(I8
I26
I0
S'update'
p980
I0
tp981
a(I12
I7
F-0.875
g68
I0
tp982
a(I12
I85
I0
g70
I0
tp983
a(I13
I82
F0.875
g72
I0
tp984
a(I13
I156
F-0.625
g74
I0
tp985
a(I13
I170
F1.0
S'best'
p986
I0
tp987
a(I15
I21
I0
g76
I0
tp988
a(I18
I63
I0
S'old'
p989
I0
tp990
a(I18
I213
I0
S'mobile'
p991
I0
tp992
a(I21
I115
F-0.75
S'wrong'
p993
I0
tp994
a(I22
I75
F-0.625
S'bad'
p995
I0
tp996
a(I22
I146
I0
S'great'
p997
I0
tp998
a(I24
I42
I0
S'mobile'
p999
I0
tp1000
a(I26
I119
F0.125
g78
I0
tp1001
a(I26
I445
I0
S'mobile'
p1002
I0
tp1003
a(I26
I544
I0
g80
I0
tp1004
a(I28
I33
I0
g82
I0
tp1005
a(I28
I41
F-0.625
g84
I0
tp1006
a(I29
I73
F0.25
S'refurbished'
p1007
I0
tp1008
a(I29
I107
I0
g86
I0
tp1009
a(I33
I5
F0.25
S'familiar'
p1010
I0
tp1011
a(I34
I60
I0
S'great'
p1012
I0
tp1013
a(I35
I8
F0.875
g29
I0
tp1014
a(I39
I50
F1.0
g89
I0
tp1015
a(I43
I89
F-0.625
g91
I0
tp1016
a(I43
I89
F0.5
g93
I0
tp1017
a(I48
I32
F0.375
S'available'
p1018
I0
tp1019
a(I52
I14
F-0.5
g95
I0
tp1020
a(I52
I22
I0
g97
I0
tp1021
a(I52
I36
F1.0
S'best'
p1022
I0
tp1023
a(I52
I56
I0
S'mobile'
p1024
I0
tp1025
a(I52
I62
F0.375
g99
I0
tp1026
a(I52
I71
I0
S'mobile'
p1027
I0
tp1028
a(I58
I89
I0
S'normal'
p1029
I0
tp1030
a(I58
I96
F-0.75
g101
I0
tp1031
a(I63
I124
F1.0
S'good'
p1032
I0
tp1033
as(S'micro'
p1034
S'sd'
p1035
S'card'
p1036
tp1037
(lp1038
(I22
I175
I0
S'underneath'
p1039
I0
tp1040
a(I26
I487
F-0.375
S'pull'
p1041
I0
tp1042
a(I29
I111
F0.875
S'music'
p1043
I0
tp1044
a(I30
I2
F0.125
S'first'
p1045
I0
tp1046
a(I30
I2
I0
S'great'
p1047
I0
tp1048
as(S'calls'
p1049
tp1050
(lp1051
(I1
I68
F-0.625
S'bad'
p1052
I0
tp1053
a(I1
I68
F0.75
S'due'
p1054
I0
tp1055
a(I5
I292
F-0.25
S'dropped'
p1056
I0
tp1057
a(I10
I1
I0
S'many'
p1058
I0
tp1059
a(I10
I1
F-0.25
S'late'
p1060
I0
tp1061
a(I10
I6
I0
S'few'
p1062
I0
tp1063
a(I10
I6
F-0.25
S'dropped'
p1064
I0
tp1065
a(I13
I99
I0
S'many'
p1066
I0
tp1067
a(I13
I99
F0.875
S'important'
p1068
I0
tp1069
a(I14
I38
F1.0
S'good'
p1070
I0
tp1071
a(I18
I131
F0.375
S'reliable'
p1072
I0
tp1073
a(I18
I198
F0.5
S'clear'
p1074
I0
tp1075
a(I24
I107
F0.625
S'easy'
p1076
I0
tp1077
a(I26
I120
I0
S'many'
p1078
I0
tp1079
a(I36
I9
F-0.25
S'dropped'
p1080
I0
tp1081
a(I36
I42
F1.0
S'good'
p1082
I0
tp1083
a(I36
I70
I0
S'adequate'
p1084
I0
tp1085
a(I39
I50
F0.5
S'clear'
p1086
I0
tp1087
a(I44
I167
F0.875
S'nice'
p1088
I0
tp1089
a(I44
I167
F0.5
S'clear'
p1090
I0
tp1091
a(I48
I221
I0
S'most'
p1092
I0
tp1093
a(I63
I49
F-0.25
S'low'
p1094
I0
tp1095
a(I63
I61
F0.5
S'clear'
p1096
I0
tp1097
a(I63
I106
F0.125
S'able'
p1098
I0
tp1099
as(S'internal'
p1100
S'memory'
p1101
tp1102
(lp1103
(I5
I199
F1.0
S'good'
p1104
I0
tp1105
a(I5
I199
I0
S'android'
p1106
I0
tp1107
a(I5
I205
I0
S'internal'
p1108
I0
tp1109
a(I5
I259
I0
S'internal'
p1110
I0
tp1111
a(I5
I290
I0
S'internal'
p1112
I0
tp1113
a(I12
I109
I0
S'internal'
p1114
I0
tp1115
a(I13
I125
I0
S'internal'
p1116
I0
tp1117
a(I21
I88
I0
S'internal'
p1118
I0
tp1119
a(I22
I104
I0
S'internal'
p1120
I0
tp1121
a(I26
I181
F0.375
S'much'
p1122
I0
tp1123
a(I26
I181
F0.25
S'bigger'
p1124
I0
tp1125
a(I26
I181
I0
S'internal'
p1126
I0
tp1127
a(I26
I479
I0
S'internal'
p1128
I0
tp1129
a(I26
I486
I0
S'internal'
p1130
I0
tp1131
a(I27
I10
I0
S'internal'
p1132
I0
tp1133
a(I27
I10
F0.75
S'due'
p1134
I0
tp1135
a(I34
I130
I0
S'internal'
p1136
I0
tp1137
a(I36
I76
I0
S'full'
p1138
I0
tp1139
a(I43
I23
I0
S'internal'
p1140
I0
tp1141
a(I43
I26
I0
S'internal'
p1142
I0
tp1143
a(I43
I27
I0
S'internal'
p1144
I0
tp1145
a(I43
I29
I0
S'internal'
p1146
I0
tp1147
a(I43
I30
F0.375
S'much'
p1148
I0
tp1149
a(I43
I30
I0
S'critical'
p1150
I0
tp1151
a(I43
I30
I0
S'internal'
p1152
I0
tp1153
a(I43
I30
I0
S'most'
p1154
I0
tp1155
a(I43
I30
I0
S'internal'
p1156
I0
tp1157
a(I43
I31
I0
S'internal'
p1158
I0
tp1159
a(I43
I32
I0
S'internal'
p1160
I0
tp1161
a(I43
I33
I0
S'internal'
p1162
I0
tp1163
a(I43
I34
I0
S'internal'
p1164
I0
tp1165
a(I43
I79
I0
S'internal'
p1166
I0
tp1167
a(I44
I48
I0
S'internal'
p1168
I0
tp1169
a(I63
I189
I0
S'internal'
p1170
I0
tp1171
a(I5
I199
F1.0
g1104
I5
tp1172
a(I5
I199
I0
g1106
I5
tp1173
a(I5
I205
I0
g1108
I5
tp1174
a(I5
I259
I0
g1110
I5
tp1175
a(I5
I290
I0
g1112
I5
tp1176
a(I8
I39
F0.125
S'theoretical'
p1177
I5
tp1178
a(I8
I39
F-0.75
S'short'
p1179
I5
tp1180
a(I12
I109
I0
g1114
I5
tp1181
a(I13
I125
I0
g1116
I5
tp1182
a(I20
I7
F-0.375
S'double'
p1183
I5
tp1184
a(I21
I88
I0
g1118
I5
tp1185
a(I22
I104
I0
g1120
I5
tp1186
a(I22
I134
F0.75
S'due'
p1187
I5
tp1188
a(I22
I221
I0
S'more'
p1189
I5
tp1190
a(I22
I221
F0.125
S'enough'
p1191
I5
tp1192
a(I26
I72
F-0.125
S'slow'
p1193
I5
tp1194
a(I26
I181
F0.375
g1122
I5
tp1195
a(I26
I181
F0.25
g1124
I5
tp1196
a(I26
I181
I0
g1126
I5
tp1197
a(I26
I479
I0
g1128
I5
tp1198
a(I26
I486
I0
g1130
I5
tp1199
a(I27
I10
I0
g1132
I5
tp1200
a(I27
I10
F0.75
g1134
I5
tp1201
a(I29
I64
I0
S'more'
p1202
I5
tp1203
a(I29
I64
I0
S'faster'
p1204
I5
tp1205
a(I29
I134
F0.375
S'new'
p1206
I5
tp1207
a(I31
I0
F0.75
S'due'
p1208
I5
tp1209
a(I34
I130
I0
g1136
I5
tp1210
a(I36
I76
I0
g1138
I5
tp1211
a(I43
I23
I0
g1140
I5
tp1212
a(I43
I26
I0
g1142
I5
tp1213
a(I43
I27
I0
g1144
I5
tp1214
a(I43
I29
I0
g1146
I5
tp1215
a(I43
I30
F0.375
g1148
I5
tp1216
a(I43
I30
I0
g1150
I5
tp1217
a(I43
I30
I0
g1152
I5
tp1218
a(I43
I30
I0
g1154
I5
tp1219
a(I43
I30
I0
g1156
I5
tp1220
a(I43
I31
I0
g1158
I5
tp1221
a(I43
I32
I0
g1160
I5
tp1222
a(I43
I33
I0
g1162
I5
tp1223
a(I43
I34
I0
g1164
I5
tp1224
a(I43
I79
I0
g1166
I5
tp1225
a(I44
I29
I0
S'full'
p1226
I5
tp1227
a(I44
I48
I0
g1168
I5
tp1228
a(I50
I3
F-0.25
S'low'
p1229
I5
tp1230
a(I52
I85
I0
S'full'
p1231
I5
tp1232
a(I58
I147
F0.25
S'bigger'
p1233
I5
tp1234
a(I63
I9
F-0.375
S'small'
p1235
I5
tp1236
a(I63
I189
I0
g1170
I5
tp1237
as(S'better'
p1238
S'battery'
p1239
S'life'
p1240
tp1241
(lp1242
(I18
I160
F1.0
S'better'
p1243
I0
tp1244
a(I39
I92
F1.0
S'better'
p1245
I0
tp1246
a(I39
I93
F1.0
S'better'
p1247
I0
tp1248
a(I39
I93
F0.375
S'available'
p1249
I0
tp1250
a(I40
I36
I0
S'remedy'
p1251
I0
tp1252
a(I58
I153
F1.0
S'better'
p1253
I0
tp1254
a(I1
I96
F0.375
S'extended'
p1255
I1
tp1256
a(I4
I3
F-0.375
S'crazy'
p1257
I1
tp1258
a(I5
I275
F1.0
S'good'
p1259
I1
tp1260
a(I5
I336
F-0.625
S'bad'
p1261
I1
tp1262
a(I7
I10
F-0.5
S'poor'
p1263
I1
tp1264
a(I7
I39
F1.0
S'good'
p1265
I1
tp1266
a(I8
I36
F-0.125
S'overall'
p1267
I1
tp1268
a(I9
I10
F-0.75
S'short'
p1269
I1
tp1270
a(I14
I20
F-0.625
S'average'
p1271
I1
tp1272
a(I18
I80
I0
S'great'
p1273
I1
tp1274
a(I18
I160
F1.0
g1243
I1
tp1275
a(I18
I174
I0
S'adequate'
p1276
I1
tp1277
a(I18
I174
F0.5
S'primary'
p1278
I1
tp1279
a(I24
I30
I0
S'great'
p1280
I1
tp1281
a(I26
I74
F1.0
S'good'
p1282
I1
tp1283
a(I26
I235
F-0.75
S'short'
p1284
I1
tp1285
a(I26
I249
F-0.5
S'poor'
p1286
I1
tp1287
a(I26
I262
F-0.5
S'poor'
p1288
I1
tp1289
a(I26
I376
F-0.75
S'worse'
p1290
I1
tp1291
a(I26
I377
F1.0
S'best'
p1292
I1
tp1293
a(I26
I424
F0.25
S'stellar'
p1294
I1
tp1295
a(I26
I458
I0
S'great'
p1296
I1
tp1297
a(I26
I482
F-0.75
S'short'
p1298
I1
tp1299
a(I26
I543
F-0.75
S'short'
p1300
I1
tp1301
a(I29
I140
I0
S'great'
p1302
I1
tp1303
a(I29
I217
F0.375
S'new'
p1304
I1
tp1305
a(I29
I217
F0.375
S'extended'
p1306
I1
tp1307
a(I34
I4
F-0.75
S'short'
p1308
I1
tp1309
a(I34
I165
F-0.875
S'awful'
p1310
I1
tp1311
a(I36
I18
F0.375
S'extra'
p1312
I1
tp1313
a(I38
I5
F-0.75
S'short'
p1314
I1
tp1315
a(I39
I92
F1.0
g1245
I1
tp1316
a(I39
I93
F1.0
g1247
I1
tp1317
a(I39
I93
F0.375
g1249
I1
tp1318
a(I39
I127
F-0.5
S'poor'
p1319
I1
tp1320
a(I39
I128
F0.125
S'able'
p1321
I1
tp1322
a(I40
I36
I0
g1251
I1
tp1323
a(I40
I59
F-0.875
S'awful'
p1324
I1
tp1325
a(I40
I61
F-0.25
S'battery'
p1326
I1
tp1327
a(I43
I67
F-0.5
S'poor'
p1328
I1
tp1329
a(I44
I63
I0
S'great'
p1330
I1
tp1331
a(I44
I87
F-0.375
S'smaller'
p1332
I1
tp1333
a(I45
I18
F-0.75
S'short'
p1334
I1
tp1335
a(I45
I98
F-0.875
S'awful'
p1336
I1
tp1337
a(I48
I102
F-0.625
S'other'
p1338
I1
tp1339
a(I48
I214
F-0.625
S'bad'
p1340
I1
tp1341
a(I48
I214
F0.125
S'typical'
p1342
I1
tp1343
a(I52
I39
I0
S'faster'
p1344
I1
tp1345
a(I52
I86
I0
S'great'
p1346
I1
tp1347
a(I52
I86
F1.0
S'best'
p1348
I1
tp1349
a(I52
I86
F-0.125
S'overall'
p1350
I1
tp1351
a(I55
I1
F1.0
S'good'
p1352
I1
tp1353
a(I55
I27
I0
S'great'
p1354
I1
tp1355
a(I57
I8
F-0.75
S'short'
p1356
I1
tp1357
a(I58
I151
F-0.625
S'bad'
p1358
I1
tp1359
a(I58
I151
F-0.875
S'worst'
p1360
I1
tp1361
a(I58
I153
F1.0
g1253
I1
tp1362
a(I59
I147
F1.0
S'good'
p1363
I1
tp1364
a(I60
I1
F1.0
S'good'
p1365
I1
tp1366
a(I60
I10
F-0.5
S'poor'
p1367
I1
tp1368
a(I60
I73
F0.625
S'fair'
p1369
I1
tp1370
a(I61
I1
F-0.75
S'worse'
p1371
I1
tp1372
a(I63
I68
F1.0
S'good'
p1373
I1
tp1374
a(I63
I171
F-0.5
S'less'
p1375
I1
tp1376
a(I1
I96
F0.375
g1255
I19
tp1377
a(I5
I275
F1.0
g1259
I19
tp1378
a(I5
I336
F-0.625
g1261
I19
tp1379
a(I7
I39
F1.0
g1265
I19
tp1380
a(I9
I10
F-0.75
g1269
I19
tp1381
a(I13
I79
I0
S'real'
p1382
I19
tp1383
a(I14
I20
F-0.625
g1271
I19
tp1384
a(I18
I80
I0
g1273
I19
tp1385
a(I18
I174
I0
g1276
I19
tp1386
a(I22
I235
F0.625
S'easier'
p1387
I19
tp1388
a(I24
I30
I0
g1280
I19
tp1389
a(I26
I74
F1.0
g1282
I19
tp1390
a(I26
I235
F-0.75
g1284
I19
tp1391
a(I26
I376
F-0.75
g1290
I19
tp1392
a(I26
I377
F1.0
g1292
I19
tp1393
a(I26
I458
I0
g1296
I19
tp1394
a(I26
I543
F-0.75
g1300
I19
tp1395
a(I29
I140
I0
g1302
I19
tp1396
a(I29
I217
F0.375
g1304
I19
tp1397
a(I29
I217
F0.375
g1306
I19
tp1398
a(I34
I165
F-0.875
g1310
I19
tp1399
a(I38
I5
F-0.75
g1314
I19
tp1400
a(I39
I93
F0.375
g1249
I19
tp1401
a(I40
I59
F-0.875
g1324
I19
tp1402
a(I40
I61
F-0.25
g1326
I19
tp1403
a(I43
I67
F-0.5
g1328
I19
tp1404
a(I44
I108
F-0.75
S'uneasy'
p1405
I19
tp1406
a(I45
I18
F-0.75
g1334
I19
tp1407
a(I45
I98
F-0.875
g1336
I19
tp1408
a(I48
I214
F-0.625
g1340
I19
tp1409
a(I48
I214
F0.125
g1342
I19
tp1410
a(I52
I39
I0
g1344
I19
tp1411
a(I52
I86
F1.0
g1348
I19
tp1412
a(I52
I86
F-0.125
g1350
I19
tp1413
a(I55
I27
I0
g1354
I19
tp1414
a(I58
I151
F-0.875
g1360
I19
tp1415
a(I59
I147
F1.0
g1363
I19
tp1416
a(I60
I73
F0.625
g1369
I19
tp1417
a(I61
I1
F-0.75
g1371
I19
tp1418
a(I63
I171
F-0.5
g1375
I19
tp1419
a(I1
I16
I0
S'more'
p1420
I15
tp1421
a(I1
I74
F-0.375
S'pull'
p1422
I15
tp1423
a(I4
I3
F-0.375
g1257
I15
tp1424
a(I5
I289
I0
S'external'
p1425
I15
tp1426
a(I6
I4
F-0.25
S'low'
p1427
I15
tp1428
a(I6
I50
F1.0
S'best'
p1429
I15
tp1430
a(I7
I10
F-0.5
g1263
I15
tp1431
a(I8
I36
F-0.125
g1267
I15
tp1432
a(I12
I139
I0
S'full'
p1433
I15
tp1434
a(I12
I141
I0
S'full'
p1435
I15
tp1436
a(I18
I13
I0
S'quick'
p1437
I15
tp1438
a(I18
I158
F0.75
S'proper'
p1439
I15
tp1440
a(I18
I160
F1.0
g1243
I15
tp1441
a(I18
I174
F0.5
g1278
I15
tp1442
a(I21
I51
F-0.5
S'poor'
p1443
I15
tp1444
a(I22
I175
F0.625
S'replaceable'
p1445
I15
tp1446
a(I22
I203
F-0.25
S'low'
p1447
I15
tp1448
a(I26
I39
F-0.125
S'mine'
p1449
I15
tp1450
a(I26
I164
F-0.5
S'less'
p1451
I15
tp1452
a(I26
I249
F-0.5
g1286
I15
tp1453
a(I26
I262
F-0.5
g1288
I15
tp1454
a(I26
I424
F0.25
g1294
I15
tp1455
a(I26
I461
F0.75
S'due'
p1456
I15
tp1457
a(I26
I464
I0
S'most'
p1458
I15
tp1459
a(I26
I482
F-0.75
g1298
I15
tp1460
a(I26
I522
I0
S'standard'
p1461
I15
tp1462
a(I26
I522
F1.0
S'good'
p1463
I15
tp1464
a(I26
I525
F-0.5
S'heavy'
p1465
I15
tp1466
a(I29
I114
F0.375
S'new'
p1467
I15
tp1468
a(I29
I116
I0
S'different'
p1469
I15
tp1470
a(I29
I116
F-0.5
S'sure'
p1471
I15
tp1472
a(I29
I213
F-0.625
S'bad'
p1473
I15
tp1474
a(I34
I4
F-0.75
g1308
I15
tp1475
a(I34
I44
I0
S'charged'
p1476
I15
tp1477
a(I36
I18
F0.375
g1312
I15
tp1478
a(I39
I92
F1.0
g1245
I15
tp1479
a(I39
I93
F1.0
g1247
I15
tp1480
a(I39
I127
F-0.5
g1319
I15
tp1481
a(I39
I128
F0.125
g1321
I15
tp1482
a(I39
I163
F-0.5
S'complaint'
p1483
I15
tp1484
a(I40
I36
I0
g1251
I15
tp1485
a(I40
I62
F0.375
S'extended'
p1486
I15
tp1487
a(I40
I62
F0.375
S'available'
p1488
I15
tp1489
a(I42
I11
F-0.25
S'low'
p1490
I15
tp1491
a(I44
I38
I0
S'quick'
p1492
I15
tp1493
a(I44
I63
I0
g1330
I15
tp1494
a(I44
I69
I0
S'more'
p1495
I15
tp1496
a(I44
I87
F-0.375
g1332
I15
tp1497
a(I44
I126
F0.375
S'extended'
p1498
I15
tp1499
a(I44
I145
I0
S'faster'
p1500
I15
tp1501
a(I48
I102
F-0.625
g1338
I15
tp1502
a(I51
I12
F-0.75
S'dead'
p1503
I15
tp1504
a(I52
I86
I0
g1346
I15
tp1505
a(I55
I1
F1.0
g1352
I15
tp1506
a(I55
I2
F1.0
S'good'
p1507
I15
tp1508
a(I55
I2
F0.5
S'strong'
p1509
I15
tp1510
a(I56
I10
F0.625
S'major'
p1511
I15
tp1512
a(I57
I8
F-0.75
g1356
I15
tp1513
a(I58
I151
F-0.625
g1358
I15
tp1514
a(I58
I153
F1.0
g1253
I15
tp1515
a(I60
I1
F1.0
g1365
I15
tp1516
a(I60
I10
F-0.5
g1367
I15
tp1517
a(I63
I68
F1.0
g1373
I15
tp1518
a(I63
I76
F0.25
S'sharp'
p1519
I15
tp1520
a(I63
I102
I0
S'quick'
p1521
I15
tp1522
a(I63
I103
I0
S'few'
p1523
I15
tp1524
a(I63
I103
F-0.5
S'longer'
p1525
I15
tp1526
as(S'25'
p1527
g10
S'month'
p1528
tp1529
(lp1530
(I21
I55
I0
S'older'
p1531
I0
tp1532
a(I26
I61
F-0.625
g16
I0
tp1533
a(I34
I61
F0.625
S'perfect'
p1534
I0
tp1535
as(S'blue'
p1536
S'tooth'
p1537
tp1538
(lp1539
(I10
I12
I0
S'blue'
p1540
I0
tp1541
a(I18
I12
I0
S'blue'
p1542
I0
tp1543
a(I26
I217
I0
S'blue'
p1544
I0
tp1545
as(S'an'
p1546
S'lg'
p1547
S'optimus'
p1548
tp1549
(lp1550
(I9
I1
F0.5
g422
I0
tp1551
a(I13
I117
F0.875
g426
I0
tp1552
a(I13
I158
I0
g430
I0
tp1553
a(I24
I131
F-0.5
g436
I0
tp1554
a(I24
I131
F0.5
g438
I0
tp1555
a(I34
I167
F-0.75
g442
I0
tp1556
a(I39
I58
F0.5
g444
I0
tp1557
a(I43
I6
F-0.375
g446
I0
tp1558
a(I44
I6
F0.5
g448
I0
tp1559
a(I48
I226
F0.375
g450
I0
tp1560
a(I60
I13
F-0.75
g452
I0
tp1561
as(S'much'
p1562
S'better'
p1563
tp1564
(lp1565
(I3
I37
F0.375
S'much'
p1566
I9
tp1567
a(I16
I5
F0.375
S'much'
p1568
I9
tp1569
a(I26
I186
F0.375
S'much'
p1570
I9
tp1571
a(I26
I420
F0.375
S'much'
p1572
I9
tp1573
a(I26
I512
F0.375
S'much'
p1574
I9
tp1575
a(I39
I1
F0.375
S'much'
p1576
I9
tp1577
a(I39
I95
F0.375
S'much'
p1578
I9
tp1579
a(I48
I33
F0.375
S'much'
p1580
I9
tp1581
as(S'to'
p1582
S'optimus'
p1583
g419
tp1584
(lp1585
(I10
I7
F1.0
S'best'
p1586
I0
tp1587
a(I18
I168
F-0.5
S'sure'
p1588
I0
tp1589
a(I22
I63
F-0.5
g432
I0
tp1590
a(I22
I63
F0.5
g434
I0
tp1591
a(I26
I92
I0
S'more'
p1592
I0
tp1593
a(I26
I92
I0
S'stable'
p1594
I0
tp1595
a(I26
I246
F0.375
S'much'
p1596
I0
tp1597
a(I42
I0
I0
S'more'
p1598
I0
tp1599
a(I42
I0
I0
S'more'
p1600
I0
tp1601
a(I42
I12
F-0.125
S'overall'
p1602
I0
tp1603
a(I43
I44
F0.125
S'last'
p1604
I0
tp1605
a(I43
I62
F-0.5
S'humble'
p1606
I0
tp1607
a(I43
I62
F0.375
S'reliable'
p1608
I0
tp1609
a(I44
I87
F1.0
S'good'
p1610
I0
tp1611
a(I44
I91
F0.75
S'worth'
p1612
I0
tp1613
a(I45
I50
F0.75
S'due'
p1614
I0
tp1615
a(I10
I7
F1.0
g1586
I0
tp1616
a(I12
I109
F0.875
g424
I0
tp1617
a(I16
I4
F0.375
S'reliable'
p1618
I0
tp1619
a(I18
I168
F-0.5
g1588
I0
tp1620
a(I22
I63
F-0.5
g432
I0
tp1621
a(I22
I63
F0.5
g434
I0
tp1622
a(I26
I92
I0
g1592
I0
tp1623
a(I26
I92
I0
g1594
I0
tp1624
a(I26
I246
F0.375
g1596
I0
tp1625
a(I26
I334
I0
S'old'
p1626
I0
tp1627
a(I34
I15
I0
S'few'
p1628
I0
tp1629
a(I42
I0
I0
g1598
I0
tp1630
a(I42
I0
I0
g1600
I0
tp1631
a(I42
I12
F-0.125
g1602
I0
tp1632
a(I43
I44
F0.125
g1604
I0
tp1633
a(I43
I62
F-0.5
g1606
I0
tp1634
a(I43
I62
F0.375
g1608
I0
tp1635
a(I44
I87
F1.0
g1610
I0
tp1636
a(I44
I91
F0.75
g1612
I0
tp1637
a(I45
I50
F0.75
g1614
I0
tp1638
a(I63
I181
I0
S'anywhere'
p1639
I0
tp1640
a(I16
I4
F0.375
g1618
I0
tp1641
a(I18
I168
F-0.5
g1588
I0
tp1642
a(I24
I24
F0.25
S'bigger'
p1643
I0
tp1644
a(I26
I246
F0.375
g1596
I0
tp1645
a(I26
I334
I0
g1626
I0
tp1646
a(I34
I15
I0
g1628
I0
tp1647
a(I39
I88
I0
S'same'
p1648
I0
tp1649
a(I42
I12
F-0.125
g1602
I0
tp1650
a(I43
I44
F0.125
g1604
I0
tp1651
a(I43
I52
F-0.75
S'worse'
p1652
I0
tp1653
a(I43
I62
F-0.5
g1606
I0
tp1654
a(I43
I62
F0.375
g1608
I0
tp1655
a(I44
I87
F1.0
g1610
I0
tp1656
a(I45
I49
I0
S'fast'
p1657
I0
tp1658
a(I45
I50
F0.75
g1614
I0
tp1659
a(I59
I12
I0
S'stable'
p1660
I0
tp1661
a(I63
I181
I0
g1639
I0
tp1662
as(S'amazon'
p1663
tp1664
(lp1665
(I12
I99
I0
S'least'
p1666
I13
tp1667
a(I14
I71
I0
S'great'
p1668
I13
tp1669
a(I14
I71
F0.625
S'easy'
p1670
I13
tp1671
a(I52
I71
F-0.25
S'cheaper'
p1672
I13
tp1673
a(I52
I73
F-0.25
S'cheaper'
p1674
I13
tp1675
a(I58
I2
F0.875
S'happy'
p1676
I13
tp1677
as(S'network'
p1678
tp1679
(lp1680
(I7
I9
I0
S'same'
p1681
I0
tp1682
a(I13
I84
I0
S'faster'
p1683
I0
tp1684
a(I18
I67
F1.0
S'good'
p1685
I0
tp1686
a(I18
I116
F1.0
S'best'
p1687
I0
tp1688
a(I18
I132
F-0.625
S'bad'
p1689
I0
tp1690
a(I22
I75
I0
S'sprint'
p1691
I0
tp1692
a(I28
I48
F0.625
S'major'
p1693
I0
tp1694
a(I29
I196
I0
S'same'
p1695
I0
tp1696
a(I36
I11
F-0.5
S'open'
p1697
I0
tp1698
a(I44
I119
I0
S'post-paid'
p1699
I0
tp1700
a(I49
I18
I0
S'same'
p1701
I0
tp1702
a(I49
I25
I0
S'signal'
p1703
I0
tp1704
a(I59
I24
F-0.5
S'unavailable'
p1705
I0
tp1706
as(S'virgin'
p1707
S'mobile'
p1708
S'service'
p1709
tp1710
(lp1711
(I5
I279
I0
g25
I0
tp1712
a(I15
I5
I0
S'mobile'
p1713
I0
tp1714
a(I15
I21
I0
g76
I0
tp1715
a(I26
I85
F-0.625
S'other'
p1716
I0
tp1717
a(I26
I85
I0
S'large'
p1718
I0
tp1719
a(I26
I85
I0
S'mobile'
p1720
I0
tp1721
a(I26
I119
F0.125
g78
I0
tp1722
a(I26
I445
I0
g1002
I0
tp1723
a(I29
I107
I0
g86
I0
tp1724
a(I29
I107
F-0.625
S'free'
p1725
I0
tp1726
a(I29
I107
F-0.625
S'bad'
p1727
I0
tp1728
a(I29
I107
F-0.625
S'free'
p1729
I0
tp1730
a(I29
I196
I0
S'identical'
p1731
I0
tp1732
a(I49
I30
F1.0
S'good'
p1733
I0
tp1734
a(I52
I69
I0
S'great'
p1735
I0
tp1736
a(I56
I28
I0
S'great'
p1737
I0
tp1738
a(I1
I55
I0
g60
I0
tp1739
a(I2
I34
I0
g62
I0
tp1740
a(I2
I37
F1.0
g64
I0
tp1741
a(I5
I249
F-0.5
g23
I0
tp1742
a(I5
I252
F-0.625
g975
I0
tp1743
a(I5
I279
I0
g25
I0
tp1744
a(I7
I5
I0
g978
I0
tp1745
a(I8
I26
I0
g980
I0
tp1746
a(I12
I7
F-0.875
g68
I0
tp1747
a(I12
I85
I0
g70
I0
tp1748
a(I13
I82
F0.875
g72
I0
tp1749
a(I13
I89
I0
S'more'
p1750
I0
tp1751
a(I13
I156
F-0.625
g74
I0
tp1752
a(I13
I170
F1.0
g986
I0
tp1753
a(I15
I21
I0
g76
I0
tp1754
a(I18
I63
I0
g989
I0
tp1755
a(I18
I213
I0
g991
I0
tp1756
a(I21
I115
F-0.75
g993
I0
tp1757
a(I22
I75
F-0.625
g995
I0
tp1758
a(I22
I146
I0
g997
I0
tp1759
a(I24
I42
I0
g999
I0
tp1760
a(I26
I119
F0.125
g78
I0
tp1761
a(I26
I445
I0
g1002
I0
tp1762
a(I26
I544
I0
g80
I0
tp1763
a(I28
I33
I0
g82
I0
tp1764
a(I28
I41
F-0.625
g84
I0
tp1765
a(I29
I73
F0.25
g1007
I0
tp1766
a(I29
I107
I0
g86
I0
tp1767
a(I33
I5
F0.25
g1010
I0
tp1768
a(I34
I60
I0
g1012
I0
tp1769
a(I35
I8
F0.875
g29
I0
tp1770
a(I39
I50
F1.0
g89
I0
tp1771
a(I43
I89
F-0.625
g91
I0
tp1772
a(I43
I89
F0.5
g93
I0
tp1773
a(I48
I32
F0.375
g1018
I0
tp1774
a(I52
I14
F-0.5
g95
I0
tp1775
a(I52
I22
I0
g97
I0
tp1776
a(I52
I36
F1.0
g1022
I0
tp1777
a(I52
I56
I0
g1024
I0
tp1778
a(I52
I62
F0.375
g99
I0
tp1779
a(I52
I71
I0
g1027
I0
tp1780
a(I58
I89
I0
g1029
I0
tp1781
a(I58
I96
F-0.75
g101
I0
tp1782
a(I63
I124
F1.0
g1032
I0
tp1783
a(I1
I55
I0
g60
I0
tp1784
a(I2
I34
I0
g62
I0
tp1785
a(I5
I252
F-0.625
g975
I0
tp1786
a(I7
I5
I0
g978
I0
tp1787
a(I12
I7
F-0.875
g68
I0
tp1788
a(I13
I82
F0.875
g72
I0
tp1789
a(I13
I156
F-0.625
g74
I0
tp1790
a(I13
I170
F1.0
g986
I0
tp1791
a(I15
I21
I0
g76
I0
tp1792
a(I18
I63
I0
g989
I0
tp1793
a(I18
I213
I0
g991
I0
tp1794
a(I21
I72
F0.375
S'available'
p1795
I0
tp1796
a(I22
I75
F-0.625
g995
I0
tp1797
a(I24
I42
I0
g999
I0
tp1798
a(I26
I119
F0.125
g78
I0
tp1799
a(I26
I294
F-0.5
S'upset'
p1800
I0
tp1801
a(I26
I297
F0.5
S'clear'
p1802
I0
tp1803
a(I26
I445
I0
g1002
I0
tp1804
a(I28
I41
F-0.625
g84
I0
tp1805
a(I29
I107
I0
g86
I0
tp1806
a(I33
I5
F0.25
g1010
I0
tp1807
a(I35
I8
F0.875
g29
I0
tp1808
a(I35
I27
F0.625
S'cover'
p1809
I0
tp1810
a(I35
I29
I0
S'cool'
p1811
I0
tp1812
a(I39
I50
F1.0
g89
I0
tp1813
a(I43
I89
F-0.625
g91
I0
tp1814
a(I48
I32
F0.375
g1018
I0
tp1815
a(I52
I14
F-0.5
g95
I0
tp1816
a(I52
I22
I0
g97
I0
tp1817
a(I52
I36
F1.0
g1022
I0
tp1818
a(I52
I56
I0
g1024
I0
tp1819
a(I52
I62
F0.375
g99
I0
tp1820
a(I52
I71
I0
g1027
I0
tp1821
a(I53
I10
I0
S'least'
p1822
I0
tp1823
a(I56
I53
F0.75
S'worth'
p1824
I0
tp1825
a(I58
I89
I0
g1029
I0
tp1826
a(I58
I96
F-0.75
g101
I0
tp1827
a(I63
I124
F1.0
g1032
I0
tp1828
a(I63
I176
F1.0
S'good'
p1829
I0
tp1830
a(I63
I208
F1.0
S'best'
p1831
I0
tp1832
a(I5
I81
F0.125
S'first'
p1833
I16
tp1834
a(I5
I186
F0.375
S'available'
p1835
I16
tp1836
a(I5
I311
F-0.625
S'other'
p1837
I16
tp1838
a(I8
I6
F0.625
S'major'
p1839
I16
tp1840
a(I8
I11
F0.5
S'comparable'
p1841
I16
tp1842
a(I8
I32
F-0.25
S'cheaper'
p1843
I16
tp1844
a(I8
I32
F-0.125
S'overall'
p1845
I16
tp1846
a(I8
I46
I0
S'great'
p1847
I16
tp1848
a(I8
I46
F0.625
S'easy'
p1849
I16
tp1850
a(I10
I23
F1.0
S'good'
p1851
I16
tp1852
a(I13
I83
F1.0
S'better'
p1853
I16
tp1854
a(I13
I83
F1.0
S'better'
p1855
I16
tp1856
a(I15
I5
I0
g1713
I16
tp1857
a(I15
I64
F0.625
S'acceptable'
p1858
I16
tp1859
a(I15
I65
I0
S'fastest'
p1860
I16
tp1861
a(I15
I65
F0.5
S'possible'
p1862
I16
tp1863
a(I18
I52
F1.0
S'good'
p1864
I16
tp1865
a(I18
I52
F0.125
S'able'
p1866
I16
tp1867
a(I26
I85
F-0.625
g1716
I16
tp1868
a(I26
I85
I0
g1718
I16
tp1869
a(I26
I85
I0
g1720
I16
tp1870
a(I26
I447
F0.375
S'new'
p1871
I16
tp1872
a(I28
I7
I0
S'great'
p1873
I16
tp1874
a(I29
I107
F-0.625
g1725
I16
tp1875
a(I29
I107
F-0.625
g1727
I16
tp1876
a(I29
I107
F-0.625
g1729
I16
tp1877
a(I29
I160
F1.0
S'good'
p1878
I16
tp1879
a(I29
I196
I0
g1731
I16
tp1880
a(I34
I87
F0.125
S'able'
p1881
I16
tp1882
a(I34
I87
I0
S'many'
p1883
I16
tp1884
a(I34
I108
F1.0
S'best'
p1885
I16
tp1886
a(I40
I115
F-0.625
S'free'
p1887
I16
tp1888
a(I44
I172
I0
S'great'
p1889
I16
tp1890
a(I44
I174
F-0.625
S'free'
p1891
I16
tp1892
a(I48
I210
F1.0
S'good'
p1893
I16
tp1894
a(I49
I30
F1.0
g1733
I16
tp1895
a(I49
I48
F0.875
S'happy'
p1896
I16
tp1897
a(I49
I61
I0
S'great'
p1898
I16
tp1899
a(I52
I69
I0
g1735
I16
tp1900
a(I56
I28
I0
g1737
I16
tp1901
a(I56
I55
F-0.5
S'poor'
p1902
I16
tp1903
a(I56
I61
I0
S'great'
p1904
I16
tp1905
a(I58
I197
F1.0
S'good'
p1906
I16
tp1907
a(I63
I3
F-0.625
S'bad'
p1908
I16
tp1909
a(I63
I110
I0
S'monthly'
p1910
I16
tp1911
a(I2
I37
F1.0
g64
I0
tp1912
a(I5
I249
F-0.5
g23
I0
tp1913
a(I5
I279
I0
g25
I0
tp1914
a(I8
I26
I0
g980
I0
tp1915
a(I12
I85
I0
g70
I0
tp1916
a(I13
I89
I0
g1750
I0
tp1917
a(I21
I115
F-0.75
g993
I0
tp1918
a(I22
I146
I0
g997
I0
tp1919
a(I26
I544
I0
g80
I0
tp1920
a(I28
I33
I0
g82
I0
tp1921
a(I29
I73
F0.25
g1007
I0
tp1922
a(I34
I60
I0
g1012
I0
tp1923
a(I43
I89
F0.5
g93
I0
tp1924
as(S'on'
p1925
S'sd'
p1926
S'card'
p1927
tp1928
(lp1929
(I18
I168
I0
S'full'
p1930
I0
tp1931
a(I27
I24
F-0.625
S'bad'
p1932
I0
tp1933
a(I44
I98
I0
S'faster'
p1934
I0
tp1935
a(I52
I81
F0.25
S'bigger'
p1936
I0
tp1937
a(I18
I168
I0
g1930
I0
tp1938
a(I22
I175
I0
g1039
I0
tp1939
a(I27
I24
F-0.625
g1932
I0
tp1940
a(I27
I29
I0
S'different'
p1941
I0
tp1942
a(I44
I98
I0
g1934
I0
tp1943
a(I52
I81
F0.25
g1936
I0
tp1944
as(S'customer'
p1945
S'service'
p1946
tp1947
(lp1948
(I5
I81
F0.125
g1833
I3
tp1949
a(I13
I88
F0.5
g35
I3
tp1950
a(I24
I44
F-0.5
g37
I3
tp1951
a(I26
I158
F1.0
g39
I3
tp1952
a(I26
I541
F-0.5
g27
I3
tp1953
a(I42
I16
I0
g44
I3
tp1954
a(I47
I41
F-0.5
g31
I3
tp1955
a(I49
I48
F-0.75
g51
I3
tp1956
a(I49
I48
F0.875
g1896
I3
tp1957
a(I57
I11
F-0.5
g53
I3
tp1958
as(S'sometimes'
p1959
tp1960
(lp1961
(I0
I14
I0
S'sensitive'
p1962
I17
tp1963
a(I11
I45
F0.625
S'straight'
p1964
I17
tp1965
a(I11
I45
F-0.875
S'hard'
p1966
I17
tp1967
a(I11
I45
I0
S'signal'
p1968
I17
tp1969
a(I43
I53
I-100
S'non-responsiveness'
p1970
I17
tp1971
as(S'apps'
p1972
tp1973
(lp1974
(I1
I5
F0.375
S'available'
p1975
I0
tp1976
a(I1
I69
I0
S'most'
p1977
I0
tp1978
a(I4
I4
I0
S'cool'
p1979
I0
tp1980
a(I5
I16
I0
S'few'
p1981
I0
tp1982
a(I5
I64
F-0.625
S'other'
p1983
I0
tp1984
a(I5
I200
F-0.625
S'free'
p1985
I0
tp1986
a(I6
I8
I0
S'android'
p1987
I0
tp1988
a(I7
I39
F0.375
S'available'
p1989
I0
tp1990
a(I8
I17
I0
S'most'
p1991
I0
tp1992
a(I8
I20
I0
S'most'
p1993
I0
tp1994
a(I8
I33
I0
S'few'
p1995
I0
tp1996
a(I9
I7
I0
S'most'
p1997
I0
tp1998
a(I9
I7
I0
S'movable'
p1999
I0
tp2000
a(I12
I3
F-0.625
S'other'
p2001
I0
tp2002
a(I12
I76
I0
S'standard'
p2003
I0
tp2004
a(I17
I4
F-0.75
S'little'
p2005
I0
tp2006
a(I18
I29
F0.125
S'popular'
p2007
I0
tp2008
a(I18
I59
F0.25
S'consistent'
p2009
I0
tp2010
a(I18
I89
I0
S'most'
p2011
I0
tp2012
a(I18
I89
I0
S'fast'
p2013
I0
tp2014
a(I18
I114
I0
S'few'
p2015
I0
tp2016
a(I18
I168
I0
S'few'
p2017
I0
tp2018
a(I20
I19
I0
S'more'
p2019
I0
tp2020
a(I22
I73
F1.0
S'good'
p2021
I0
tp2022
a(I22
I86
F0.375
S'new'
p2023
I0
tp2024
a(I22
I153
I0
S'more'
p2025
I0
tp2026
a(I22
I177
F0.875
S'music'
p2027
I0
tp2028
a(I24
I3
I0
S'great'
p2029
I0
tp2030
a(I24
I49
F-0.625
S'free'
p2031
I0
tp2032
a(I26
I12
I0
S'useful'
p2033
I0
tp2034
a(I26
I24
F0.125
S'plenty'
p2035
I0
tp2036
a(I26
I112
F0.25
S'responsive'
p2037
I0
tp2038
a(I26
I181
I0
S'few'
p2039
I0
tp2040
a(I26
I213
I0
S'many'
p2041
I0
tp2042
a(I26
I213
F0.625
S'wanted'
p2043
I0
tp2044
a(I26
I397
I0
S'many'
p2045
I0
tp2046
a(I26
I454
I0
S'few'
p2047
I0
tp2048
a(I26
I511
I0
S'such'
p2049
I0
tp2050
a(I26
I538
I0
S'many'
p2051
I0
tp2052
a(I26
I544
I0
S'such'
p2053
I0
tp2054
a(I29
I137
I0
S'many'
p2055
I0
tp2056
a(I30
I2
I0
S'few'
p2057
I0
tp2058
a(I30
I8
F-0.5
S'certain'
p2059
I0
tp2060
a(I30
I9
F-0.5
S'certain'
p2061
I0
tp2062
a(I34
I6
F0.375
S'much'
p2063
I0
tp2064
a(I34
I6
I0
S'most'
p2065
I0
tp2066
a(I34
I6
I0
S'big'
p2067
I0
tp2068
a(I34
I7
F-0.75
S'unable'
p2069
I0
tp2070
a(I34
I65
I0
S'own'
p2071
I0
tp2072
a(I36
I76
I0
S'few'
p2073
I0
tp2074
a(I39
I31
I0
S'many'
p2075
I0
tp2076
a(I39
I31
I0
S'many'
p2077
I0
tp2078
a(I39
I31
I0
S'more'
p2079
I0
tp2080
a(I39
I41
F0.375
S'new'
p2081
I0
tp2082
a(I39
I77
I0
S'many'
p2083
I0
tp2084
a(I40
I104
F1.0
S'good'
p2085
I0
tp2086
a(I42
I9
F-0.625
S'other'
p2087
I0
tp2088
a(I42
I9
I0
S'basic'
p2089
I0
tp2090
a(I43
I29
I0
S'many'
p2091
I0
tp2092
a(I43
I30
I0
S'many'
p2093
I0
tp2094
a(I43
I30
I0
S'movable'
p2095
I0
tp2096
a(I43
I30
I0
S'many'
p2097
I0
tp2098
a(I45
I32
I0
S'many'
p2099
I0
tp2100
a(I45
I61
F1.0
S'good'
p2101
I0
tp2102
a(I45
I97
I0
S'most'
p2103
I0
tp2104
a(I45
I113
F-0.5
S'unwanted'
p2105
I0
tp2106
a(I52
I23
F0.625
S'correct'
p2107
I0
tp2108
a(I52
I34
I0
S'many'
p2109
I0
tp2110
a(I52
I34
F-0.875
S'hard'
p2111
I0
tp2112
a(I55
I34
I0
S'great'
p2113
I0
tp2114
a(I56
I65
F-0.625
S'other'
p2115
I0
tp2116
a(I58
I17
I0
S'few'
p2117
I0
tp2118
a(I58
I17
F-0.125
S'slow'
p2119
I0
tp2120
a(I58
I114
F0.375
S'new'
p2121
I0
tp2122
a(I58
I147
I0
S'few'
p2123
I0
tp2124
a(I58
I147
F0.75
S'due'
p2125
I0
tp2126
a(I58
I183
F-0.5
S'certain'
p2127
I0
tp2128
a(I60
I7
F0.5
S'compatible'
p2129
I0
tp2130
a(I60
I7
I0
S'most'
p2131
I0
tp2132
a(I63
I80
F0.5
S'odd'
p2133
I0
tp2134
a(I63
I80
I0
S'many'
p2135
I0
tp2136
a(I63
I81
F0.25
S'larger'
p2137
I0
tp2138
a(I63
I122
F-0.375
S'simple'
p2139
I0
tp2140
a(I63
I189
F-0.375
S'small'
p2141
I0
tp2142
a(I63
I190
F0.375
S'available'
p2143
I0
tp2144
as(S'on'
p2145
S'virgin'
p2146
S'mobile'
p2147
tp2148
(lp2149
(I1
I55
I0
g60
I0
tp2150
a(I2
I37
F1.0
g64
I0
tp2151
a(I5
I252
F-0.625
g975
I0
tp2152
a(I5
I279
I0
g25
I0
tp2153
a(I7
I5
I0
g978
I0
tp2154
a(I8
I26
I0
g980
I0
tp2155
a(I12
I7
F-0.875
g68
I0
tp2156
a(I12
I85
I0
g70
I0
tp2157
a(I13
I156
F-0.625
g74
I0
tp2158
a(I13
I170
F1.0
g986
I0
tp2159
a(I18
I63
I0
g989
I0
tp2160
a(I18
I213
I0
g991
I0
tp2161
a(I21
I115
F-0.75
g993
I0
tp2162
a(I22
I75
F-0.625
g995
I0
tp2163
a(I24
I42
I0
g999
I0
tp2164
a(I26
I119
F0.125
g78
I0
tp2165
a(I26
I445
I0
g1002
I0
tp2166
a(I28
I33
I0
g82
I0
tp2167
a(I28
I41
F-0.625
g84
I0
tp2168
a(I29
I73
F0.25
g1007
I0
tp2169
a(I33
I5
F0.25
g1010
I0
tp2170
a(I48
I32
F0.375
g1018
I0
tp2171
a(I52
I14
F-0.5
g95
I0
tp2172
a(I52
I22
I0
g97
I0
tp2173
a(I52
I36
F1.0
g1022
I0
tp2174
a(I52
I62
F0.375
g99
I0
tp2175
a(I52
I71
I0
g1027
I0
tp2176
a(I58
I96
F-0.75
g101
I0
tp2177
as(S'touch'
p2178
S'screen'
p2179
tp2180
(lp2181
(I3
I19
I0
S'sensitive'
p2182
I2
tp2183
a(I5
I10
F0.25
S'responsive'
p2184
I2
tp2185
a(I5
I270
F0.5
S'touch'
p2186
I2
tp2187
a(I5
I270
I0
S'sensitive'
p2188
I2
tp2189
a(I13
I24
F1.0
S'good'
p2190
I2
tp2191
a(I13
I26
F0.5
S'touch'
p2192
I2
tp2193
a(I22
I25
F-0.875
S'worst'
p2194
I2
tp2195
a(I22
I25
F0.5
S'touch'
p2196
I2
tp2197
a(I22
I86
I0
S'big'
p2198
I2
tp2199
a(I22
I169
I0
S'sensitive'
p2200
I2
tp2201
a(I22
I169
F0.25
S'responsive'
p2202
I2
tp2203
a(I22
I224
F-0.5
S'less'
p2204
I2
tp2205
a(I22
I224
F0.25
S'responsive'
p2206
I2
tp2207
a(I24
I39
F-0.375
S'black'
p2208
I2
tp2209
a(I24
I39
F1.0
S'best'
p2210
I2
tp2211
a(I24
I94
F0.5
S'touch'
p2212
I2
tp2213
a(I24
I95
F0.5
S'touch'
p2214
I2
tp2215
a(I26
I97
F-0.125
S'overall'
p2216
I2
tp2217
a(I26
I373
F0.5
S'touch'
p2218
I2
tp2219
a(I29
I143
F0.25
S'responsive'
p2220
I2
tp2221
a(I29
I143
F0.5
S'touch'
p2222
I2
tp2223
a(I34
I68
F0.5
S'touch'
p2224
I2
tp2225
a(I39
I64
F-0.5
S'poor'
p2226
I2
tp2227
a(I40
I99
F0.25
S'responsive'
p2228
I2
tp2229
a(I44
I35
I0
S'big'
p2230
I2
tp2231
a(I44
I35
F0.5
S'clear'
p2232
I2
tp2233
a(I44
I48
F0.5
S'touch'
p2234
I2
tp2235
a(I44
I48
F0.25
S'responsive'
p2236
I2
tp2237
a(I44
I48
I0
S'fluid'
p2238
I2
tp2239
a(I44
I85
F0.5
S'touch'
p2240
I2
tp2241
a(I44
I123
I0
S'initial'
p2242
I2
tp2243
a(I44
I123
F0.25
g388
I2
tp2244
a(I45
I55
F0.5
S'touch'
p2245
I2
tp2246
a(I48
I79
F0.5
S'touch'
p2247
I2
tp2248
a(I51
I2
I0
S'big'
p2249
I2
tp2250
a(I51
I3
I0
S'sensitive'
p2251
I2
tp2252
a(I58
I181
F-0.5
S'sudden'
p2253
I2
tp2254
a(I60
I1
F1.0
S'good'
p2255
I2
tp2256
a(I60
I1
F1.0
S'good'
p2257
I2
tp2258
a(I60
I33
F0.5
S'touch'
p2259
I2
tp2260
a(I60
I33
I0
S'sensitive'
p2261
I2
tp2262
a(I60
I55
I0
S'great'
p2263
I2
tp2264
a(I60
I55
F0.125
S'colorful'
p2265
I2
tp2266
a(I63
I145
F-0.75
S'unresponsive'
p2267
I2
tp2268
a(I63
I209
F0.5
S'touch'
p2269
I2
tp2270
as(g10
S'factory'
p2271
S'reset'
p2272
tp2273
(lp2274
(I5
I334
I0
S'full'
p2275
I0
tp2276
a(I26
I504
F0.25
S'original'
p2277
I0
tp2278
as(S'pretty'
p2279
S'good'
p2280
tp2281
(lp2282
(I13
I42
I0
S'signal'
p2283
I3
tp2284
a(I26
I542
F1.0
S'good'
p2285
I3
tp2286
a(I31
I1
F-0.125
S'overall'
p2287
I3
tp2288
a(I36
I42
F-0.125
S'overall'
p2289
I3
tp2290
as.