(dp0
(S'problem'
p1
tp2
(lp3
(I18
I7
F-0.875
S'hard'
p4
tp5
a(I45
I3
F-0.375
S'small'
p6
tp7
a(I45
I8
F-0.25
S'potential'
p8
tp9
a(I58
I1
I0
S'signal'
p10
tp11
a(I58
I4
F-0.625
S'other'
p12
tp13
a(I103
I3
F-0.25
S'hung'
p14
tp15
a(I104
I5
I0
S'only'
p16
tp17
a(I105
I14
I0
S'same'
p18
tp19
a(I145
I13
I0
S'solved'
p20
tp21
as(S'work'
p22
tp23
(lp24
(I39
I12
F-0.5
S'longer'
p25
tp26
a(I99
I2
F-0.75
S'dead'
p27
tp28
as(S'purchase'
p29
tp30
(lp31
(I15
I1
F0.125
S'first'
p32
tp33
a(I70
I3
I0
S'entire'
p34
tp35
as(S'little'
p36
tp37
(lp38
(I25
I1
F1.0
S'good'
p39
tp40
a(I53
I6
F1.0
S'good'
p41
tp42
as(S'talk'
p43
tp44
(lp45
(I74
I1
F-0.375
S'daily'
p46
tp47
a(I75
I0
F0.625
S'straight'
p48
tp49
a(I142
I3
F0.625
S'straight'
p50
tp51
a(I142
I7
F0.625
S'straight'
p52
tp53
a(I142
I8
F0.625
S'straight'
p54
tp55
a(I142
I13
F0.625
S'straight'
p56
tp57
a(I142
I32
F0.625
S'straight'
p58
tp59
as(S'money'
p60
tp61
(lp62
(I11
I21
F-0.75
S'little'
p63
tp64
a(I12
I8
I0
S'more'
p65
tp66
a(I35
I2
I0
S'more'
p67
tp68
a(I50
I2
F0.75
S'worth'
p69
tp70
a(I55
I11
F0.875
S'nice'
p71
tp72
as(S'to'
p73
S'sd'
p74
S'card'
p75
tp76
(lp77
(I38
I4
F0.25
S'original'
p78
tp79
a(I55
I17
F0.25
S'larger'
p80
tp81
a(I79
I72
I0
S'most'
p82
tp83
a(I122
I18
F-0.125
S'opposite'
p84
tp85
as(S'nice'
p86
tp87
(lp88
(I11
I10
F0.875
S'nice'
p89
tp90
as(S'screen'
p91
tp92
(lp93
(I2
I3
F0.25
S'larger'
p94
tp95
a(I7
I1
F-0.375
S'small'
p96
tp97
a(I11
I8
I0
S'great'
p98
tp99
a(I18
I0
F-0.375
S'black'
p100
tp101
a(I24
I1
F0.5
S'touch'
p102
tp103
a(I24
I8
F0.5
S'touch'
p104
tp105
a(I28
I2
F0.5
S'touch'
p106
tp107
a(I32
I2
F0.875
S'nice'
p108
tp109
a(I33
I3
F-0.375
S'smaller'
p110
tp111
a(I51
I0
F-0.875
S'worst'
p112
tp113
a(I62
I12
F-0.75
S'stupid'
p114
tp115
a(I62
I12
I0
S'next'
p116
tp117
a(I68
I1
F0.5
S'touch'
p118
tp119
a(I79
I43
I0
S'large'
p120
tp121
a(I79
I59
F0.875
S'nice'
p122
tp123
a(I79
I59
F-0.75
S'bright'
p124
tp125
a(I81
I0
F1.0
S'good'
p126
tp127
a(I86
I6
F-0.75
S'bright'
p128
tp129
a(I114
I1
F0.5
S'touch'
p130
tp131
a(I118
I12
I0
S'great'
p132
tp133
a(I130
I4
F0.875
S'nice'
p134
tp135
a(I137
I3
F-0.25
S'disappointed'
p136
tp137
a(I138
I4
F-0.5
S'afraid'
p138
tp139
a(I138
I4
F0.5
S'touch'
p140
tp141
a(I140
I1
I0
S'great'
p142
tp143
a(I142
I29
F0.25
S'bigger'
p144
tp145
a(I142
I29
F0.25
S'bigger'
p146
tp147
a(I143
I7
F-0.375
S'smaller'
p148
tp149
a(I145
I2
F0.25
S'responsive'
p150
tp151
a(I145
I2
F0.625
S'easy'
p152
tp153
a(I151
I6
F-0.375
S'small'
p154
tp155
as(S'call'
p156
S'quality'
p157
tp158
(lp159
(I5
I2
I0
S'great'
p160
tp161
a(I12
I12
F-0.75
S'tough'
p162
tp163
a(I78
I1
F1.0
S'good'
p164
tp165
a(I79
I4
F-0.625
S'average'
p166
tp167
a(I81
I0
F1.0
S'good'
p168
tp169
a(I118
I5
I0
S'great'
p170
tp171
a(I141
I0
I0
S'most'
p172
tp173
a(I141
I0
F1.0
S'good'
p174
tp175
a(I142
I51
F0.5
S'clear'
p176
tp177
as(S'service'
p178
tp179
(lp180
(I6
I10
F1.0
S'better'
p181
tp182
a(I12
I12
F-0.25
S'past'
p183
tp184
a(I35
I2
I0
S'automatic'
p185
tp186
a(I38
I2
I0
S'great'
p187
tp188
a(I69
I2
I0
S'great'
p189
tp190
a(I92
I2
F-0.625
S'other'
p191
tp192
a(I101
I0
F-0.5
S'regular'
p193
tp194
a(I111
I3
I0
S'internet'
p195
tp196
a(I118
I6
I0
S'different'
p197
tp198
a(I119
I19
I0
S'closer'
p199
tp200
a(I119
I21
F0.375
S'much'
p201
tp202
a(I119
I21
F-0.5
S'regular'
p203
tp204
as(S'problems'
p205
tp206
(lp207
(I8
I0
F0.875
S'happy'
p208
tp209
a(I23
I3
I0
S'weird'
p210
tp211
a(I79
I19
F-0.5
S'call'
p212
tp213
a(I87
I0
F0.375
S'similar'
p214
tp215
a(I126
I10
I0
S'only'
p216
tp217
as(S'package'
p218
tp219
(lp220
(I74
I4
I0
S'monthly'
p221
tp222
a(I128
I3
I0
S'total'
p223
tp224
as(S'touch'
p225
tp226
(lp227
(I0
I1
F-0.75
S'unresponsive'
p228
tp229
a(I79
I22
F0.875
S'nice'
p230
tp231
a(I86
I0
F0.125
S'first'
p232
tp233
as(S'camera'
p234
tp235
(lp236
(I0
I0
F1.0
S'good'
p237
tp238
a(I34
I3
I0
S'great'
p239
tp240
a(I39
I12
F-0.5
S'separate'
p241
tp242
a(I57
I2
F-0.625
S'moderate'
p243
tp244
a(I57
I8
I0
S'stable'
p245
tp246
a(I62
I7
F0.5
S'primary'
p247
tp248
a(I91
I2
F0.625
S'decent'
p249
tp250
a(I122
I18
F0.125
S'digital'
p251
tp252
a(I141
I0
F1.0
S'good'
p253
tp254
as(S'battery'
p255
S'life'
p256
tp257
(lp258
(I50
I4
F-0.375
S'daily'
p259
tp260
a(I52
I6
F-0.75
S'short'
p261
tp262
a(I52
I6
I0
S'common'
p263
tp264
a(I79
I53
F-0.625
S'average'
p265
tp266
a(I81
I0
F-0.25
S'low'
p267
tp268
a(I81
I5
F-0.25
S'low'
p269
tp270
a(I99
I0
F-0.875
S'awful'
p271
tp272
a(I102
I6
F1.0
S'better'
p273
tp274
a(I108
I5
F-0.75
S'short'
p275
tp276
a(I122
I14
F0.5
S'so-so'
p277
tp278
a(I122
I16
F1.0
S'good'
p279
tp280
a(I145
I11
F-0.5
S'comparative'
p281
tp282
as(S'month'
p283
tp284
(lp285
(I35
I1
F0.125
S'last'
p286
tp287
a(I39
I3
F0.125
S'last'
p288
tp289
a(I40
I12
F0.125
S'first'
p290
tp291
a(I76
I1
F0.125
S'first'
p292
tp293
a(I83
I2
F-0.625
S'other'
p294
tp295
a(I104
I0
F0.875
S'happy'
p296
tp297
a(I119
I19
F0.75
S'due'
p298
tp299
a(I122
I4
F1.0
S'good'
p300
tp301
a(I122
I5
I0
S'more'
p302
tp303
as(S'need'
p304
tp305
(lp306
(I18
I0
F-0.625
S'bad'
p307
tp308
as(S'a'
p309
S'touch'
p310
S'screen'
p311
tp312
(lp313
(I11
I8
I0
g98
tp314
a(I24
I1
F0.5
g102
tp315
a(I24
I8
F0.5
g104
tp316
a(I28
I2
F0.5
g106
tp317
a(I68
I1
F0.5
g118
tp318
a(I79
I22
F0.875
g230
tp319
a(I86
I0
F0.125
g232
tp320
a(I114
I1
F0.5
g130
tp321
a(I130
I4
F0.875
g134
tp322
a(I138
I4
F-0.5
g138
tp323
a(I138
I4
F0.5
g140
tp324
a(I142
I29
F0.25
g144
tp325
a(I142
I29
F0.25
g146
tp326
a(I145
I2
F0.25
g150
tp327
a(I145
I2
F0.625
g152
tp328
as(S'apps'
p329
tp330
(lp331
(I6
I9
I0
S'android'
p332
tp333
a(I11
I8
F0.375
S'available'
p334
tp335
a(I16
I14
I0
S'many'
p336
tp337
a(I21
I8
I0
S'few'
p338
tp339
a(I32
I4
I0
S'many'
p340
tp341
a(I32
I4
F0.375
S'extra'
p342
tp343
a(I33
I11
I0
S'different'
p344
tp345
a(I34
I2
F-0.5
S'heavy'
p346
tp347
a(I38
I6
F0.375
S'new'
p348
tp349
a(I49
I0
F0.125
S'able'
p350
tp351
a(I57
I10
F-0.625
S'other'
p352
tp353
a(I64
I8
I0
S'only'
p354
tp355
a(I75
I5
I0
S'internal'
p356
tp357
a(I77
I4
I0
S'own'
p358
tp359
a(I79
I14
I0
S'cool'
p360
tp361
a(I79
I60
F1.0
S'good'
p362
tp363
a(I79
I72
F1.0
S'good'
p364
tp365
a(I79
I72
I0
S'useful'
p366
tp367
a(I83
I2
I0
S'many'
p368
tp369
a(I83
I2
F-0.625
S'free'
p370
tp371
a(I89
I0
F0.625
S'easy'
p372
tp373
a(I92
I2
I0
S'such'
p374
tp375
a(I102
I4
F-0.25
S'myriad'
p376
tp377
a(I106
I13
I0
S'many'
p378
tp379
a(I114
I11
I0
S'many'
p380
tp381
a(I114
I12
F0.25
S'favorite'
p382
tp383
a(I117
I4
I0
S'big'
p384
tp385
a(I119
I13
I0
S'most'
p386
tp387
a(I119
I14
I0
S'full'
p388
tp389
a(I119
I14
I0
S'few'
p390
tp391
a(I119
I14
F-0.375
S'small'
p392
tp393
a(I119
I17
F-0.75
S'single'
p394
tp395
a(I142
I19
I0
S'useful'
p396
tp397
a(I142
I21
I0
S'most'
p398
tp399
a(I142
I52
I0
S'android'
p400
tp401
a(I145
I11
I0
S'many'
p402
tp403
as(S'memory'
p404
tp405
(lp406
(I11
I5
I0
S'internal'
p407
tp408
a(I11
I5
I0
S'internal'
p409
tp410
a(I11
I5
F0.375
S'much'
p411
tp412
a(I16
I9
I0
S'internal'
p413
tp414
a(I16
I14
I0
S'internal'
p415
tp416
a(I16
I14
I0
S'external'
p417
tp418
a(I30
I6
I0
S'internal'
p419
tp420
a(I30
I6
F1.0
S'best'
p421
tp422
a(I30
I6
I0
S'full'
p423
tp424
a(I33
I6
I0
S'internal'
p425
tp426
a(I54
I4
I0
S'internal'
p427
tp428
a(I57
I5
F-0.25
S'low'
p429
tp430
a(I57
I5
I0
S'internal'
p431
tp432
a(I75
I5
I0
S'internal'
p433
tp434
a(I105
I3
F0.375
S'extra'
p435
tp436
a(I105
I5
I0
S'full'
p437
tp438
a(I108
I7
F-0.25
S'low'
p439
tp440
a(I119
I11
F-0.5
S'actual'
p441
tp442
a(I119
I11
I0
S'internal'
p443
tp444
a(I122
I17
F-0.375
S'small'
p445
tp446
a(I122
I17
I0
S'internal'
p447
tp448
a(I122
I18
I0
S'internal'
p449
tp450
a(I138
I3
F-0.75
S'little'
p451
tp452
a(I142
I41
F0.625
S'easy'
p453
tp454
a(I145
I9
F0.375
S'much'
p455
tp456
as(S'life'
p457
tp458
(lp459
(I50
I4
F-0.375
g259
tp460
a(I52
I6
I0
g263
tp461
a(I79
I53
F-0.625
g265
tp462
a(I99
I0
F-0.875
g271
tp463
a(I122
I14
F0.5
g277
tp464
a(I145
I11
F-0.5
g281
tp465
as(S'pay'
p466
S'as'
p467
S'go'
p468
tp469
(lp470
(I45
I1
I0
S'basic'
p471
tp472
as(S'play'
p473
S'games'
p474
tp475
(lp476
(I28
I0
I0
S'text'
p477
tp478
as(g309
S'data'
p479
S'package'
p480
tp481
(lp482
(I9
I4
F-0.625
S'free'
p483
tp484
a(I11
I16
F-0.375
S'small'
p485
tp486
a(I74
I0
F-0.5
S'separate'
p487
tp488
as(S'dollars'
p489
tp490
(lp491
(I39
I5
F0.375
S'extra'
p492
tp493
a(I39
I5
I0
S'few'
p494
tp495
as(S'features'
p496
tp497
(lp498
(I57
I1
I0
S'many'
p499
tp500
a(I57
I1
F1.0
S'good'
p501
tp502
a(I61
I1
I0
S'many'
p503
tp504
a(I79
I31
F0.875
S'nice'
p505
tp506
a(I79
I53
I0
S'more'
p507
tp508
a(I131
I0
F0.875
S'nice'
p509
tp510
a(I149
I1
F1.0
S'good'
p511
tp512
as(S'prepaid'
p513
tp514
(lp515
(I9
I14
F-0.75
S'wrong'
p516
tp517
a(I81
I7
F-0.125
S'overall'
p518
tp519
a(I81
I7
F-0.625
S'bad'
p520
tp521
a(I141
I6
F1.0
S'good'
p522
tp523
a(I142
I29
F-0.625
S'other'
p524
tp525
a(I142
I52
F1.0
S'good'
p526
tp527
as(S'dollars'
p528
g309
S'month'
p529
tp530
(lp531
(I39
I5
F0.375
g492
tp532
a(I39
I5
I0
g494
tp533
as(S'nternal'
p534
S'storage'
p535
tp536
(lp537
(I2
I4
F0.25
S'larger'
p538
tp539
a(I2
I4
I0
S'internal'
p540
tp541
a(I2
I5
F-0.375
S'small'
p542
tp543
a(I2
I5
I0
S'internal'
p544
tp545
a(I38
I5
I0
S'internal'
p546
tp547
a(I38
I7
I0
S'internal'
p548
tp549
a(I78
I3
I0
S'internal'
p550
tp551
a(I78
I3
F-0.375
S'small'
p552
tp553
a(I79
I71
I0
S'internal'
p554
tp555
a(I79
I71
I0
S'close'
p556
tp557
as(S'data'
p558
S'package'
p559
tp560
(lp561
(I9
I4
F-0.625
g483
tp562
a(I11
I16
F-0.375
g485
tp563
a(I74
I0
F-0.5
g487
tp564
as(S'lg'
p565
S'thrive'
p566
tp567
(lp568
(I2
I2
F0.125
S'thrive'
p569
tp570
a(I2
I3
F0.125
S'thrive'
p571
tp572
a(I2
I7
F0.125
S'thrive'
p573
tp574
as(S'contract'
p575
tp576
(lp577
(I5
I6
I0
S'more'
p578
tp579
a(I9
I8
F-0.25
S'cheaper'
p580
tp581
a(I9
I13
F-0.25
S'cheapest'
p582
tp583
a(I78
I1
F-0.625
S'free'
p584
tp585
a(I105
I1
F0.5
S'rid'
p586
tp587
a(I118
I30
I0
S'high'
p588
tp589
a(I122
I21
I0
S'post-paid'
p590
tp591
as(S'android'
p592
tp593
(lp594
(I3
I0
F0.375
S'new'
p595
tp596
a(I5
I3
F0.125
S'typical'
p597
tp598
a(I11
I1
I0
S'great'
p599
tp600
a(I16
I2
F0.125
S'first'
p601
tp602
a(I50
I7
F-0.5
S'longer'
p603
tp604
a(I55
I5
F0.375
S'early'
p605
tp606
a(I57
I0
F0.125
S'first'
p607
tp608
a(I86
I0
F0.125
S'first'
p609
tp610
a(I121
I5
F0.125
S'first'
p611
tp612
a(I124
I8
I0
S'prepaid'
p613
tp614
a(I142
I45
F0.25
S'powerful'
p615
tp616
a(I142
I45
F-0.5
S'less'
p617
tp618
a(I148
I9
F0.25
S'used'
p619
tp620
as(S'plan'
p621
tp622
(lp623
(I6
I4
I0
S'great'
p624
tp625
a(I42
I1
I0
S'monthly'
p626
tp627
a(I71
I2
I0
S'current'
p628
tp629
a(I74
I1
F1.0
S'good'
p630
tp631
a(I74
I5
I0
S'minute'
p632
tp633
a(I74
I7
F0.5
S'expensive'
p634
tp635
a(I74
I8
I0
S'minute'
p636
tp637
a(I74
I9
F0.875
S'nice'
p638
tp639
a(I103
I6
F-0.625
S'other'
p640
tp641
a(I125
I3
F-0.625
S'want'
p642
tp643
a(I125
I3
I0
S'monthly'
p644
tp645
a(I125
I3
F0.625
S'add'
p646
tp647
a(I129
I1
I0
S'monthly'
p648
tp649
a(I133
I6
F-0.5
S'unlimited'
p650
tp651
a(I135
I6
I0
S'traditional'
p652
tp653
a(I142
I14
F-0.5
S'unlimited'
p654
tp655
a(I144
I4
I0
S'total'
p656
tp657
a(I153
I3
F-0.5
S'long'
p658
tp659
as(S'customer'
p660
tp661
(lp662
(I35
I3
F-0.875
S'worst'
p663
tp664
a(I68
I0
F0.625
S'straight'
p665
tp666
a(I85
I2
I0
S'real'
p667
tp668
a(I85
I2
F-0.875
S'hard'
p669
tp670
as(S'works'
p671
tp672
(lp673
(I61
I3
F-0.625
S'other'
p674
tp675
a(I79
I21
I0
S'same'
p676
tp677
a(I86
I4
I0
S'great'
p678
tp679
a(I118
I8
I0
S'great'
p680
tp681
as(S'apps'
p682
S'to'
p683
S'sd'
p684
tp685
(lp686
(I32
I4
I0
g340
tp687
a(I32
I4
F0.375
g342
tp688
a(I75
I5
I0
g356
tp689
a(I79
I72
F1.0
g364
tp690
a(I79
I72
I0
g366
tp691
a(I114
I11
I0
g380
tp692
as(S'quality'
p693
tp694
(lp695
(I12
I12
F-0.75
g162
tp696
a(I16
I6
F1.0
S'good'
p697
tp698
a(I33
I4
F0.5
S'so-so'
p699
tp700
a(I63
I11
I0
S'great'
p701
tp702
a(I79
I4
F-0.625
g166
tp703
a(I79
I40
I0
S'great'
p704
tp705
a(I90
I3
F1.0
S'better'
p706
tp707
a(I118
I5
I0
g170
tp708
a(I118
I29
F1.0
S'good'
p709
tp710
a(I141
I0
I0
g172
tp711
a(I141
I0
F1.0
g174
tp712
a(I143
I1
F-0.25
S'higher'
p713
tp714
a(I143
I8
F-0.25
S'higher'
p715
tp716
a(I143
I9
F-0.25
S'low'
p717
tp718
a(I148
I5
F1.0
S'good'
p719
tp720
as(S'think'
p721
tp722
(lp723
(I67
I5
F0.75
S'worth'
p724
tp725
as(S'battery'
p726
tp727
(lp728
(I1
I2
I0
S'fast'
p729
tp730
a(I3
I3
F0.125
S'last'
p731
tp732
a(I3
I3
F-0.5
S'long'
p733
tp734
a(I46
I2
F0.375
S'much'
p735
tp736
a(I51
I0
F-0.625
S'bad'
p737
tp738
a(I51
I0
F0.5
S'live'
p739
tp740
a(I52
I6
F-0.75
g261
tp741
a(I57
I2
F-0.625
S'bad'
p742
tp743
a(I57
I2
F-0.25
S'low'
p744
tp745
a(I76
I2
F0.125
S'last'
p746
tp747
a(I81
I0
F-0.25
g267
tp748
a(I81
I5
F-0.25
g269
tp749
a(I90
I0
F0.375
S'new'
p750
tp751
a(I90
I3
F0.375
S'new'
p752
tp753
a(I102
I6
F1.0
g273
tp754
a(I108
I5
F-0.75
g275
tp755
a(I114
I8
F0.375
S'much'
p756
tp757
a(I121
I8
F0.5
S'crucial'
p758
tp759
a(I122
I16
F1.0
g279
tp760
a(I133
I1
F-0.25
S'low'
p761
tp762
a(I150
I1
F-0.625
S'bad'
p763
tp764
a(I150
I3
F0.75
S'due'
p765
tp766
as(S'smart'
p767
tp768
(lp769
(I8
I0
I0
S'great'
p770
tp771
a(I38
I0
F0.125
S'first'
p772
tp773
a(I67
I7
I0
S'many'
p774
tp775
a(I67
I9
F0.375
S'new'
p776
tp777
a(I104
I3
F0.125
S'first'
p778
tp779
a(I106
I2
F0.125
S'first'
p780
tp781
a(I106
I25
F0.125
S'first'
p782
tp783
a(I108
I4
F0.5
S'smartest'
p784
tp785
a(I120
I0
F0.125
S'first'
p786
tp787
a(I138
I0
I0
S'anticipant'
p788
tp789
a(I138
I0
F0.125
S'first'
p790
tp791
a(I139
I2
I0
S'older'
p792
tp793
a(I139
I15
F0.125
S'last'
p794
tp795
as(S'store'
p796
tp797
(lp798
(I35
I3
I0
S'more'
p799
tp800
a(I54
I1
I0
S'local'
p801
tp802
as(S'avail'
p803
tp804
(lp805
(I2
I3
F-0.375
S'black'
p806
tp807
a(I15
I5
I0
S'android'
p808
tp809
a(I40
I0
I0
S'third'
p810
tp811
a(I54
I0
I0
S'water'
p812
tp813
a(I54
I3
F0.125
S'first'
p814
tp815
a(I54
I6
F1.0
S'better'
p816
tp817
a(I55
I6
F0.125
S'able'
p818
tp819
a(I55
I13
F0.875
S'nice'
p820
tp821
a(I79
I27
F-0.5
S'diagonal'
p822
tp823
a(I79
I27
F0.875
S'nice'
p824
tp825
a(I79
I48
F0.875
S'nice'
p826
tp827
a(I79
I56
F1.0
S'good'
p828
tp829
a(I110
I0
F0.875
S'happy'
p830
tp831
a(I118
I48
F0.875
S'happy'
p832
tp833
a(I143
I1
I0
S'more'
p834
tp835
a(I143
I1
F0.5
S'expensive'
p836
tp837
as(S'calls'
p838
tp839
(lp840
(I24
I3
I0
S'few'
p841
tp842
a(I68
I6
F-0.5
S'regular'
p843
tp844
a(I68
I7
F-0.5
S'regular'
p845
tp846
a(I79
I18
I0
S'few'
p847
tp848
a(I79
I18
F-0.25
S'dropped'
p849
tp850
a(I80
I1
F0.125
S'able'
p851
tp852
a(I96
I1
F0.875
S'music'
p853
tp854
as(S'thing'
p855
tp856
(lp857
(I11
I5
I0
S'only'
p858
tp859
a(I18
I6
F0.875
S'happy'
p860
tp861
a(I18
I6
I0
S'only'
p862
tp863
a(I22
I1
I0
S'only'
p864
tp865
a(I39
I8
I0
S'same'
p866
tp867
a(I62
I10
I0
S'same'
p868
tp869
a(I79
I52
F-0.75
S'single'
p870
tp871
a(I93
I3
I0
S'only'
p872
tp873
a(I96
I4
I0
S'same'
p874
tp875
a(I119
I10
I0
S'same'
p876
tp877
a(I140
I0
F0.125
S'first'
p878
tp879
a(I140
I2
F1.0
S'good'
p880
tp881
a(I142
I40
I0
S'least'
p882
tp883
a(I142
I40
I0
S'closest'
p884
tp885
as(S'sim'
p886
S'card'
p887
tp888
(lp889
(I6
I4
F0.125
S'able'
p890
tp891
a(I12
I12
F0.375
S'new'
p892
tp893
a(I40
I1
F0.125
S'first'
p894
tp895
a(I57
I13
F0.125
S'able'
p896
tp897
a(I57
I13
F-0.625
S'other'
p898
tp899
as(S'text'
p900
S'messages'
p901
tp902
(lp903
(I24
I3
I0
S'few'
p904
tp905
a(I24
I3
I0
S'great'
p906
tp907
a(I124
I4
I0
S'text'
p908
tp909
a(I153
I3
I0
S'cool'
p910
tp911
a(I153
I3
F0.75
S'receive'
p912
tp913
as(S'charge'
p914
tp915
(lp916
(I65
I0
I0
S'overnight'
p917
tp918
a(I92
I2
F-0.875
S'stuck'
p919
tp920
a(I92
I2
I0
S'monthly'
p921
tp922
a(I114
I5
F0.125
S'first'
p923
tp924
a(I118
I23
F-0.75
S'single'
p925
tp926
a(I131
I1
F-0.5
S'complaint'
p927
tp928
a(I131
I1
F-0.5
S'long'
p929
tp930
a(I133
I4
I0
S'one-half'
p931
tp932
as(S'sd'
p933
S'card'
p934
tp935
(lp936
(I38
I4
F0.25
g78
tp937
a(I55
I17
F0.25
g80
tp938
a(I79
I72
I0
g82
tp939
a(I108
I8
F-0.625
S'free'
p940
tp941
a(I122
I18
F-0.125
g84
tp942
as(S'home'
p943
tp944
(lp945
(I2
I3
F0.375
S'reliable'
p946
tp947
a(I2
I7
F0.875
S'nice'
p948
tp949
a(I142
I24
F0.5
S'true'
p950
tp951
as(S'call'
p952
tp953
(lp954
(I5
I2
I0
g160
tp955
a(I78
I1
F1.0
g164
tp956
a(I81
I0
F1.0
g168
tp957
a(I118
I23
F-0.625
S'moderate'
p958
tp959
a(I142
I51
F0.5
g176
tp960
a(I152
I2
F0.125
S'able'
p961
tp962
as(S'per'
p963
S'minute'
p964
S'plan'
p965
tp966
(lp967
(I74
I5
I0
g632
tp968
as(S'straight'
p969
S'talk'
p970
tp971
(lp972
(I75
I0
F0.625
g48
tp973
a(I142
I3
F0.625
g50
tp974
a(I142
I7
F0.625
g52
tp975
a(I142
I8
F0.625
g54
tp976
a(I142
I13
F0.625
g56
tp977
a(I142
I32
F0.625
g58
tp978
as(S'price'
p979
tp980
(lp981
(I2
I2
I0
S'same'
p982
tp983
a(I38
I2
I0
S'high'
p984
tp985
a(I44
I0
F1.0
S'good'
p986
tp987
a(I63
I7
I0
S'great'
p988
tp989
a(I64
I2
F1.0
S'good'
p990
tp991
a(I99
I4
I0
S'great'
p992
tp993
a(I101
I3
I0
S'forth'
p994
tp995
a(I120
I2
F1.0
S'best'
p996
tp997
a(I128
I3
F1.0
S'good'
p998
tp999
a(I128
I3
F0.875
S'happy'
p1000
tp1001
a(I128
I3
F-0.125
S'overall'
p1002
tp1003
a(I128
I4
F0.875
S'lucky'
p1004
tp1005
a(I130
I9
I0
S'great'
p1006
tp1007
a(I131
I2
F-0.625
S'other'
p1008
tp1009
a(I131
I2
I0
S'great'
p1010
tp1011
a(I138
I2
I0
S'great'
p1012
tp1013
a(I153
I0
I0
S'great'
p1014
tp1015
as(S'time'
p1016
tp1017
(lp1018
(I11
I11
I0
S'exact'
p1019
tp1020
a(I15
I3
F-0.75
S'difficult'
p1021
tp1022
a(I15
I5
F-0.5
S'long'
p1023
tp1024
a(I18
I9
I0
S'only'
p1025
tp1026
a(I27
I1
F-0.875
S'hard'
p1027
tp1028
a(I30
I7
F-0.125
S'cant'
p1029
tp1030
a(I31
I5
F0.5
S'second'
p1031
tp1032
a(I31
I6
F0.125
S'first'
p1033
tp1034
a(I37
I0
F-0.5
S'long'
p1035
tp1036
a(I59
I0
F0.125
S'appropriate'
p1037
tp1038
a(I63
I1
F-0.5
S'long'
p1039
tp1040
a(I66
I7
I0
S'third'
p1041
tp1042
a(I76
I2
F1.0
S'good'
p1043
tp1044
a(I76
I2
F-0.5
S'long'
p1045
tp1046
a(I77
I2
I0
S'very'
p1047
tp1048
a(I77
I2
F0.125
S'first'
p1049
tp1050
a(I80
I11
F0.125
S'first'
p1051
tp1052
a(I82
I0
F-0.5
S'long'
p1053
tp1054
a(I112
I2
F0.5
S'second'
p1055
tp1056
a(I133
I5
F0.375
S'much'
p1057
tp1058
a(I143
I0
I0
S'same'
p1059
tp1060
a(I143
I0
I0
S'least'
p1061
tp1062
a(I148
I1
I0
S'enter'
p1063
tp1064
as(S'months'
p1065
tp1066
(lp1067
(I15
I3
F0.125
S'first'
p1068
tp1069
a(I87
I5
I0
S'few'
p1070
tp1071
a(I103
I0
F-0.25
S'past'
p1072
tp1073
a(I103
I0
I0
S'big'
p1074
tp1075
a(I126
I0
I0
S'many'
p1076
tp1077
a(I129
I1
I0
S'later'
p1078
tp1079
a(I135
I6
F0.125
S'last'
p1080
tp1081
a(I145
I6
I0
S'few'
p1082
tp1083
as(S'easy'
p1084
S'to'
p1085
S'use'
p1086
tp1087
(lp1088
(I54
I9
I0
S'real'
p1089
tp1090
as(S'data'
p1091
tp1092
(lp1093
(I9
I4
F-0.625
g483
tp1094
a(I11
I16
F-0.375
g485
tp1095
a(I37
I4
F0.375
S'enable'
p1096
tp1097
a(I38
I5
I0
S'great'
p1098
tp1099
a(I54
I10
F0.375
S'extra'
p1100
tp1101
a(I74
I0
F-0.5
g487
tp1102
a(I75
I2
F0.375
S'much'
p1103
tp1104
a(I118
I17
F-0.375
S'disable'
p1105
tp1106
a(I121
I1
F-0.625
S'other'
p1107
tp1108
a(I130
I1
I0
S'high'
p1109
tp1110
a(I130
I2
F0.875
S'happy'
p1111
tp1112
as(g309
S'data'
p1113
S'plan'
p1114
tp1115
(lp1116
(I11
I16
F-0.375
g485
tp1117
a(I42
I1
I0
g626
tp1118
a(I54
I10
F0.375
g1100
tp1119
a(I74
I0
F-0.5
g487
tp1120
a(I74
I1
F1.0
g630
tp1121
a(I74
I5
I0
g632
tp1122
a(I125
I3
F-0.625
g642
tp1123
a(I125
I3
I0
g644
tp1124
a(I125
I3
F0.625
g646
tp1125
a(I130
I2
F0.875
g1111
tp1126
a(I144
I4
I0
g656
tp1127
as(S'card'
p1128
tp1129
(lp1130
(I64
I8
F0.5
S'altogether'
p1131
tp1132
a(I79
I72
I0
g82
tp1133
a(I122
I18
F-0.125
g84
tp1134
as(S'smartphone'
p1135
tp1136
(lp1137
(I55
I0
F-0.5
S'sure'
p1138
tp1139
a(I79
I80
I0
S'latest'
p1140
tp1141
a(I84
I0
F0.125
S'first'
p1142
tp1143
a(I127
I0
F0.625
S'convenient'
p1144
tp1145
a(I135
I2
I0
S'full'
p1146
tp1147
a(I149
I1
F0.875
S'nice'
p1148
tp1149
a(I149
I1
F-0.25
S'inexpensive'
p1150
tp1151
a(I153
I0
F0.5
S'functional'
p1152
tp1153
as(S'data'
p1154
S'plan'
p1155
tp1156
(lp1157
(I11
I16
F-0.375
g485
tp1158
a(I42
I1
I0
g626
tp1159
a(I54
I10
F0.375
g1100
tp1160
a(I74
I0
F-0.5
g487
tp1161
a(I74
I1
F1.0
g630
tp1162
a(I74
I5
I0
g632
tp1163
a(I125
I3
F-0.625
g642
tp1164
a(I125
I3
I0
g644
tp1165
a(I125
I3
F0.625
g646
tp1166
a(I130
I2
F0.875
g1111
tp1167
a(I144
I4
I0
g656
tp1168
as(S'customer'
p1169
S'service'
p1170
tp1171
(lp1172
(I12
I12
F-0.25
g183
tp1173
a(I35
I2
I0
g185
tp1174
a(I35
I3
F-0.875
g663
tp1175
a(I68
I0
F0.625
g665
tp1176
a(I85
I2
I0
g667
tp1177
a(I85
I2
F-0.875
g669
tp1178
as(S'wifi'
p1179
tp1180
(lp1181
(I2
I3
I0
S'more'
p1182
tp1183
a(I2
I3
I0
S'stable'
p1184
tp1185
a(I18
I7
F0.375
S'available'
p1186
tp1187
a(I121
I4
F0.375
S'available'
p1188
tp1189
a(I135
I1
I0
S'full'
p1190
tp1191
a(I137
I4
F-0.625
S'free'
p1192
tp1193
a(I142
I24
F0.875
S'lucky'
p1194
tp1195
a(I148
I1
I0
S'different'
p1196
tp1197
as(S'texts'
p1198
tp1199
(lp1200
(I9
I6
F-0.25
S'cheaper'
p1201
tp1202
a(I12
I8
F0.375
S'honest'
p1203
tp1204
a(I15
I5
F-0.125
S'future'
p1205
tp1206
a(I142
I2
I0
S'more'
p1207
tp1208
as(S'storage'
p1209
tp1210
(lp1211
(I2
I4
F0.25
g538
tp1212
a(I2
I4
I0
g540
tp1213
a(I2
I5
F-0.375
g542
tp1214
a(I2
I5
I0
g544
tp1215
a(I19
I4
F-0.25
S'low'
p1216
tp1217
a(I38
I5
I0
g546
tp1218
a(I38
I7
I0
g548
tp1219
a(I78
I3
I0
g550
tp1220
a(I78
I3
F-0.375
g552
tp1221
a(I79
I71
I0
g554
tp1222
a(I79
I71
I0
g556
tp1223
as(S'nternal'
p1224
S'memory'
p1225
tp1226
(lp1227
(I11
I5
I0
g407
tp1228
a(I11
I5
I0
g409
tp1229
a(I11
I5
F0.375
g411
tp1230
a(I16
I9
I0
g413
tp1231
a(I16
I14
I0
g415
tp1232
a(I16
I14
I0
g417
tp1233
a(I30
I6
I0
g419
tp1234
a(I30
I6
F1.0
g421
tp1235
a(I30
I6
I0
g423
tp1236
a(I33
I6
I0
g425
tp1237
a(I54
I4
I0
g427
tp1238
a(I57
I5
F-0.25
g429
tp1239
a(I57
I5
I0
g431
tp1240
a(I75
I5
I0
g433
tp1241
a(I119
I11
F-0.5
g441
tp1242
a(I119
I11
I0
g443
tp1243
a(I122
I17
F-0.375
g445
tp1244
a(I122
I17
I0
g447
tp1245
a(I122
I18
I0
g449
tp1246
as(S'days'
p1247
tp1248
(lp1249
(I2
I1
F0.125
S'thrive'
p1250
tp1251
a(I31
I6
I0
S'later'
p1252
tp1253
a(I54
I6
I0
S'few'
p1254
tp1255
a(I83
I4
F0.125
S'first'
p1256
tp1257
a(I88
I7
I0
S'later'
p1258
tp1259
a(I90
I0
I0
S'few'
p1260
tp1261
a(I117
I0
F0.375
S'new'
p1262
tp1263
a(I118
I23
F0.125
S'last'
p1264
tp1265
a(I121
I0
I0
S'few'
p1266
tp1267
a(I135
I5
F0.125
S'last'
p1268
tp1269
as(S'bluetooth'
p1270
tp1271
(lp1272
(I114
I3
F-0.375
S'manual'
p1273
tp1274
a(I128
I9
F0.375
S'enable'
p1275
tp1276
as(S'touch'
p1277
S'screen'
p1278
tp1279
(lp1280
(I11
I8
I0
g98
tp1281
a(I24
I1
F0.5
g102
tp1282
a(I24
I8
F0.5
g104
tp1283
a(I28
I2
F0.5
g106
tp1284
a(I68
I1
F0.5
g118
tp1285
a(I79
I22
F0.875
g230
tp1286
a(I86
I0
F0.125
g232
tp1287
a(I114
I1
F0.5
g130
tp1288
a(I130
I4
F0.875
g134
tp1289
a(I138
I4
F-0.5
g138
tp1290
a(I138
I4
F0.5
g140
tp1291
a(I142
I29
F0.25
g144
tp1292
a(I142
I29
F0.25
g146
tp1293
a(I145
I2
F0.25
g150
tp1294
a(I145
I2
F0.625
g152
tp1295
as(S'text'
p1296
tp1297
(lp1298
(I24
I3
I0
g904
tp1299
a(I79
I28
F0.75
S'beautiful'
p1300
tp1301
a(I153
I3
I0
g910
tp1302
a(I153
I3
F0.75
g912
tp1303
as(S'certainly'
p1304
S'nothing'
p1305
tp1306
(lp1307
(I79
I66
F-0.875
S'negative'
p1308
tp1309
as.