(dp0
(S'cosmos'
p1
tp2
(lp3
(I2
I49
I0
S'old'
p4
I0
tp5
a(I4
I12
F0.5
S'willing'
p6
I0
tp7
a(I44
I3
F0.5
S'second'
p8
I0
tp9
as(S'timely'
p10
S'manner'
p11
tp12
(lp13
(I9
I3
I0
S'efficient'
p14
I7
tp15
a(I16
I18
I0
S'timely'
p16
I7
tp17
a(I16
I18
I0
S'timely'
p18
I7
tp19
as(S'battery'
p20
S'life'
p21
tp22
(lp23
(I2
I58
F1.0
S'good'
p24
I1
tp25
a(I5
I0
F-0.75
S'short'
p26
I1
tp27
a(I10
I10
I0
S'great'
p28
I1
tp29
a(I28
I5
F1.0
S'good'
p30
I1
tp31
a(I2
I58
F1.0
g24
I19
tp32
a(I5
I0
F-0.75
g26
I19
tp33
a(I10
I10
I0
g28
I19
tp34
a(I5
I20
F-0.125
S'slow'
p35
I15
tp36
a(I5
I20
F0.375
S'new'
p37
I15
tp38
a(I14
I9
F-0.75
S'dead'
p39
I15
tp40
a(I16
I28
F1.0
S'good'
p41
I15
tp42
a(I20
I4
F0.125
S'solid'
p43
I15
tp44
a(I28
I5
F1.0
g30
I15
tp45
a(I29
I7
I0
S'seller'
p46
I15
tp47
a(I29
I7
F0.375
S'new'
p48
I15
tp49
a(I29
I9
F0.375
S'new'
p50
I15
tp51
a(I31
I14
F-0.75
S'dead'
p52
I15
tp53
a(I36
I18
F-0.75
S'dead'
p54
I15
tp55
a(I43
I9
F0.125
S'last'
p56
I15
tp57
a(I43
I9
F-0.5
S'long'
p58
I15
tp59
as(S'keys'
p60
tp61
(lp62
(I4
I1
I0
S'real'
p63
I9
tp64
a(I28
I3
F0.625
S'kind'
p65
I9
tp66
a(I28
I21
F-0.375
S'small'
p67
I9
tp68
a(I31
I2
F0.25
S'larger'
p69
I9
tp70
as(S'service'
p71
tp72
(lp73
(I7
I16
F1.0
S'good'
p74
I16
tp75
as(S'key'
p76
S'board'
p77
tp78
(lp79
(I5
I28
F0.125
S'key'
p80
I0
tp81
a(I5
I28
I0
S'large'
p82
I0
tp83
a(I12
I24
F1.0
S'good'
p84
I0
tp85
a(I25
I17
F0.125
S'key'
p86
I0
tp87
a(I36
I2
F0.125
S'key'
p88
I0
tp89
a(I36
I2
F0.625
S'easy'
p90
I0
tp91
as(S'button'
p92
tp93
(lp94
(I0
I4
F-0.75
S'wrong'
p95
I19
tp96
a(I19
I26
F-0.625
S'bad'
p97
I19
tp98
a(I19
I26
F0.5
S'second'
p99
I19
tp100
a(I28
I21
F0.625
S'easy'
p101
I19
tp102
a(I28
I21
F-0.75
S'wrong'
p103
I19
tp104
as(S'verizon'
p105
tp106
(lp107
(I0
I8
F-0.125
S'super'
p108
I0
tp109
a(I0
I8
F0.5
S'expensive'
p110
I0
tp111
a(I0
I22
F-0.625
S'free'
p112
I0
tp113
a(I7
I5
F0.5
S'told'
p114
I0
tp115
a(I17
I21
F0.125
S'able'
p116
I0
tp117
a(I28
I25
I0
S'local'
p118
I0
tp119
a(I37
I3
F0.625
S'easy'
p120
I0
tp121
as(S'contract'
p122
tp123
(lp124
(I2
I68
F-0.375
S'yearly'
p125
I0
tp126
a(I10
I1
F0.25
S'lovely'
p127
I0
tp128
a(I23
I11
F-0.625
S'free'
p129
I0
tp130
as(S'slide'
p131
S'out'
p132
S'keyboard'
p133
tp134
(lp135
(I5
I2
I0
S'most'
p136
I0
tp137
a(I23
I13
I0
S'great'
p138
I0
tp139
a(I2
I14
I0
S'slid'
p140
I2
tp141
a(I4
I1
F0.625
S'perfect'
p142
I2
tp143
a(I5
I2
I0
g136
I2
tp144
a(I6
I0
F0.25
S'helpful'
p145
I2
tp146
a(I23
I13
I0
g138
I2
tp147
a(I23
I23
F0.625
S'easy'
p148
I2
tp149
a(I25
I31
F-0.375
S'simple'
p150
I2
tp151
a(I27
I1
F0.875
S'nice'
p152
I2
tp153
a(I28
I9
F0.625
S'easy'
p154
I2
tp155
a(I28
I16
I0
S'great'
p156
I2
tp157
a(I28
I44
F0.25
S'bigger'
p158
I2
tp159
a(I29
I5
I0
S'great'
p160
I2
tp161
a(I36
I16
I0
S'full'
p162
I2
tp163
as(S'picture'
p164
S'messages'
p165
tp166
(lp167
(I2
I20
F0.125
S'able'
p168
I0
tp169
as(S'keyboard'
p170
S'for'
p171
S'texting'
p172
tp173
(lp174
(I28
I16
I0
g156
I0
tp175
a(I29
I5
I0
g160
I0
tp176
a(I16
I21
F-0.625
S'free'
p177
I0
tp178
a(I29
I4
I0
S'basic'
p179
I0
tp180
a(I36
I18
F0.75
S'constant'
p181
I0
tp182
as(S'good'
p183
S'condition'
p184
tp185
(lp186
(I2
I39
F1.0
S'good'
p187
I6
tp188
a(I5
I19
F1.0
S'good'
p189
I6
tp190
a(I23
I5
F1.0
S'good'
p191
I6
tp192
a(I30
I10
F1.0
S'good'
p193
I6
tp194
a(I41
I4
F1.0
S'good'
p195
I6
tp196
a(I48
I1
F-0.625
S'clean'
p197
I6
tp198
a(I48
I1
F1.0
S'good'
p199
I6
tp200
as(S'replacement'
p201
tp202
(lp203
(I2
I75
F1.0
S'good'
p204
I13
tp205
a(I25
I20
F1.0
S'good'
p206
I13
tp207
a(I30
I5
I0
S'great'
p208
I13
tp209
as(S'buttons'
p210
tp211
(lp212
(I2
I10
F0.125
S'key'
p213
I13
tp214
a(I2
I10
I0
S'great'
p215
I13
tp216
a(I28
I4
F-0.75
S'tough'
p217
I13
tp218
as(S'calls'
p219
tp220
(lp221
(I2
I22
I0
S'few'
p222
I0
tp223
a(I2
I22
F-0.75
S'short'
p224
I0
tp225
a(I5
I22
I0
S'many'
p226
I0
tp227
a(I7
I26
F0.75
S'receive'
p228
I0
tp229
as(S'few'
p230
S'days'
p231
tp232
(lp233
(I19
I11
I0
S'few'
p234
I10
tp235
a(I23
I2
I0
S'few'
p236
I10
tp237
a(I23
I4
I0
S'few'
p238
I10
tp239
a(I44
I12
I0
S'few'
p240
I10
tp241
a(I44
I12
F0.625
S'necessary'
p242
I10
tp243
as(S'text'
p244
S'messages'
p245
tp246
(lp247
(I29
I1
I0
S'great'
p248
I0
tp249
a(I10
I3
I0
S'basic'
p250
I18
tp251
a(I28
I10
F-0.5
S'call'
p252
I18
tp253
a(I29
I1
I0
g248
I18
tp254
a(I2
I5
I0
S'many'
p255
I1
tp256
as(S'amazon'
p257
tp258
(lp259
(I4
I4
I0
S'faith'
p260
I13
tp261
as.