(dp0
(S'battery'
p1
S'life'
p2
tp3
(lp4
(I0
I18
I0
S'great'
p5
I1
tp6
a(I2
I28
I0
S'more'
p7
I1
tp8
a(I3
I115
F-0.75
S'short'
p9
I1
tp10
a(I3
I161
F-0.75
S'short'
p11
I1
tp12
a(I3
I202
F-0.375
S'charge'
p13
I1
tp14
a(I4
I15
F-0.625
S'average'
p15
I1
tp16
a(I4
I49
F1.0
S'better'
p17
I1
tp18
a(I4
I49
F-0.625
S'average'
p19
I1
tp20
a(I4
I208
F1.0
S'better'
p21
I1
tp22
a(I4
I256
I0
S'great'
p23
I1
tp24
a(I4
I359
F-0.75
S'short'
p25
I1
tp26
a(I4
I366
F-0.5
S'poor'
p27
I1
tp28
a(I5
I77
F0.375
S'extended'
p29
I1
tp30
a(I5
I77
F-0.75
S'dead'
p31
I1
tp32
a(I5
I171
F0.25
S'original'
p33
I1
tp34
a(I0
I18
I0
g5
I19
tp35
a(I2
I28
I0
g7
I19
tp36
a(I3
I78
I0
S'real'
p37
I19
tp38
a(I3
I78
F0.875
S'important'
p39
I19
tp40
a(I3
I202
F-0.375
g13
I19
tp41
a(I4
I15
F-0.625
g15
I19
tp42
a(I4
I256
I0
g23
I19
tp43
a(I4
I359
F-0.75
g25
I19
tp44
a(I4
I366
F-0.5
g27
I19
tp45
a(I4
I461
F-0.75
S'short'
p46
I19
tp47
a(I5
I77
F0.375
g29
I19
tp48
as(S'text'
p49
tp50
(lp51
(I4
I241
I0
S'old'
p52
I18
tp53
a(I4
I241
F0.375
S'new'
p54
I18
tp55
a(I4
I241
F0.375
S'new'
p56
I18
tp57
a(I4
I241
I0
S'old'
p58
I18
tp59
a(I4
I242
I0
S'salmon'
p60
I18
tp61
a(I4
I242
F0.375
S'new'
p62
I18
tp63
as(S'tech'
p64
S'support'
p65
tp66
(lp67
(I4
I116
F-0.5
S'untrained'
p68
I1
tp69
as(S'slide'
p70
S'out'
p71
S'keyboard'
p72
tp73
(lp74
(I3
I41
F0.5
S'touch'
p75
I0
tp76
a(I3
I41
F-0.625
S'bad'
p77
I0
tp78
a(I3
I42
F-0.625
S'bad'
p79
I0
tp80
a(I3
I42
I0
S'physical'
p81
I0
tp82
a(I3
I177
F0.875
S'nice'
p83
I0
tp84
a(I3
I177
I0
S'physical'
p85
I0
tp86
a(I4
I203
I0
S'only'
p87
I0
tp88
a(I4
I203
I0
S'full'
p89
I0
tp90
a(I3
I42
F-0.625
g79
I6
tp91
a(I4
I203
I0
g87
I6
tp92
a(I2
I9
F0.625
S'easier'
p93
I2
tp94
a(I3
I41
F0.5
g75
I2
tp95
a(I3
I41
F-0.625
g77
I2
tp96
a(I3
I42
I0
g81
I2
tp97
a(I3
I43
I0
S'full'
p98
I2
tp99
a(I3
I83
I0
S'physical'
p100
I2
tp101
a(I3
I177
F0.875
g83
I2
tp102
a(I3
I177
I0
g85
I2
tp103
a(I3
I223
F0.625
S'easy'
p104
I2
tp105
a(I4
I2
I0
S'real'
p106
I2
tp107
a(I4
I203
I0
g89
I2
tp108
a(I4
I226
I0
S'physical'
p109
I2
tp110
a(I4
I341
I0
S'physical'
p111
I2
tp112
a(I4
I344
I0
S'standard'
p113
I2
tp114
a(I4
I407
I0
S'physical'
p115
I2
tp116
a(I4
I414
I0
S'physical'
p117
I2
tp118
a(I4
I415
I0
S'physical'
p119
I2
tp120
a(I5
I56
F-0.5
S'long'
p121
I2
tp122
a(I5
I160
I0
S'physical'
p123
I2
tp124
a(I5
I160
I0
S'slim'
p125
I2
tp126
a(I5
I160
F-0.625
S'light'
p127
I2
tp128
a(I5
I165
I0
S'physical'
p129
I2
tp130
as(S'physical'
p131
S'keyboard'
p132
tp133
(lp134
(I3
I42
I0
g81
I0
tp135
a(I3
I83
I0
g100
I0
tp136
a(I3
I177
F0.875
g83
I0
tp137
a(I3
I177
I0
g85
I0
tp138
a(I4
I226
I0
g109
I0
tp139
a(I4
I341
I0
g111
I0
tp140
a(I4
I407
I0
g115
I0
tp141
a(I4
I414
I0
g117
I0
tp142
a(I4
I415
I0
g119
I0
tp143
a(I5
I160
I0
g123
I0
tp144
a(I5
I160
I0
g125
I0
tp145
a(I5
I160
F-0.625
g127
I0
tp146
a(I5
I165
I0
g129
I0
tp147
as(S'iphone'
p148
tp149
(lp150
(I1
I26
I0
S'great'
p151
I1
tp152
a(I1
I26
I0
S'more'
p153
I1
tp154
a(I3
I118
I0
S'more'
p155
I1
tp156
a(I4
I408
F0.375
S'new'
p157
I1
tp158
a(I4
I412
F0.375
S'new'
p159
I1
tp160
a(I4
I413
F1.0
S'better'
p161
I1
tp162
a(I5
I112
F0.375
S'new'
p163
I1
tp164
as(S'front'
p165
S'facing'
p166
S'camera'
p167
tp168
(lp169
(I1
I61
I0
S'rear'
p170
I0
tp171
a(I4
I264
I0
S'adequate'
p172
I0
tp173
a(I1
I61
I0
g170
I0
tp174
a(I1
I61
I0
g170
I0
tp175
a(I4
I264
I0
g172
I0
tp176
a(I3
I283
I0
S'great'
p177
I1
tp178
a(I4
I264
I0
g172
I1
tp179
a(I4
I277
F1.0
S'better'
p180
I1
tp181
a(I5
I18
F1.0
S'good'
p182
I1
tp183
a(I5
I101
I0
S'wish'
p184
I1
tp185
as(S'internet'
p186
tp187
(lp188
(I3
I109
F1.0
S'good'
p189
I6
tp190
as(S'droid'
p191
tp192
(lp193
(I3
I84
F0.25
S'tired'
p194
I0
tp195
a(I3
I86
F-0.125
S'slow'
p196
I0
tp197
a(I3
I86
F-0.375
S'small'
p198
I0
tp199
a(I3
I92
I0
S'old'
p200
I0
tp201
a(I4
I399
F0.375
S'early'
p202
I0
tp203
as(S'signal'
p204
tp205
(lp206
(I4
I321
F-0.75
S'unreliable'
p207
I1
tp208
as(S'verizon'
p209
tp210
(lp211
(I0
I0
I0
S'great'
p212
I0
tp213
a(I3
I118
I0
S'local'
p214
I0
tp215
a(I3
I177
I0
S'only'
p216
I0
tp217
a(I4
I281
I0
S'mind'
p218
I0
tp219
a(I4
I436
F0.375
S'complete'
p220
I0
tp221
as(S'stratosphere'
p222
tp223
(lp224
(I0
I0
F0.125
S'first'
p225
I0
tp226
a(I3
I206
F-0.5
S'less'
p227
I0
tp228
a(I3
I273
F0.5
S'second'
p229
I0
tp230
a(I4
I413
F-0.125
S'overall'
p231
I0
tp232
a(I4
I434
I0
S'few'
p233
I0
tp234
a(I5
I20
F0.25
S'bigger'
p235
I0
tp236
as(S'contract'
p237
tp238
(lp239
(I2
I21
F-0.5
S'less'
p240
I0
tp241
a(I3
I177
F-0.625
S'free'
p242
I0
tp243
a(I4
I221
I0
S'current'
p244
I0
tp245
a(I4
I421
F0.375
S'new'
p246
I0
tp247
a(I5
I159
F0.875
S'happy'
p248
I0
tp249
as(S'android'
p250
tp251
(lp252
(I3
I81
F0.875
S'nice'
p253
I0
tp254
a(I3
I97
I0
S'fastest'
p255
I0
tp256
a(I4
I71
F1.0
S'good'
p257
I0
tp258
a(I4
I92
F0.125
S'first'
p259
I0
tp260
a(I5
I4
F-0.5
S'actual'
p261
I0
tp262
a(I5
I74
F1.0
S'better'
p263
I0
tp264
a(I5
I109
F0.125
S'first'
p265
I0
tp266
as(S'smart'
p267
tp268
(lp269
(I3
I191
F0.125
S'first'
p270
I10
tp271
a(I4
I194
F0.125
S'first'
p272
I10
tp273
a(I4
I218
I0
S'only'
p274
I10
tp275
a(I4
I355
F0.125
S'first'
p276
I10
tp277
a(I5
I40
F0.125
S'first'
p278
I10
tp279
a(I5
I200
F0.125
S'first'
p280
I10
tp281
as(S'to'
p282
S'home'
p283
S'screen'
p284
tp285
(lp286
(I3
I150
I0
S'such'
p287
I0
tp288
a(I3
I177
F-0.125
S'overall'
p289
I0
tp290
a(I5
I166
F0.875
S'happy'
p291
I0
tp292
as(S'replacement'
p293
tp294
(lp295
(I4
I284
I0
S'most'
p296
I13
tp297
a(I4
I284
F0.5
S'expensive'
p298
I13
tp299
a(I5
I219
F0.125
S'first'
p300
I13
tp301
as(S'calls'
p302
tp303
(lp304
(I0
I53
I0
S'few'
p305
I0
tp306
a(I4
I56
F-0.25
S'gibberish'
p307
I0
tp308
a(I5
I174
I0
S'crystal'
p309
I0
tp310
a(I5
I174
F0.5
S'clear'
p311
I0
tp312
as(S'blackberry'
p313
tp314
(lp315
(I1
I4
F-0.5
S'miss'
p316
I1
tp317
a(I1
I9
F1.0
S'good'
p318
I1
tp319
as(S'data'
p320
tp321
(lp322
(I0
I19
F0.375
S'available'
p323
I13
tp324
a(I2
I46
F-0.625
S'push'
p325
I13
tp326
a(I4
I238
I0
S'mobile'
p327
I13
tp328
a(I5
I235
F0.125
S'able'
p329
I13
tp330
as(S'smartphone'
p331
tp332
(lp333
(I3
I109
F-0.125
S'slow'
p334
I0
tp335
a(I3
I115
F0.125
S'first'
p336
I0
tp337
a(I3
I116
F-0.625
S'average'
p338
I0
tp339
a(I3
I142
I0
S'great'
p340
I0
tp341
a(I3
I149
I0
S'internal'
p342
I0
tp343
a(I3
I152
F1.0
S'good'
p344
I0
tp345
a(I3
I164
F1.0
S'good'
p346
I0
tp347
a(I3
I258
F0.125
S'first'
p348
I0
tp349
a(I3
I285
F0.125
S'first'
p350
I0
tp351
a(I4
I278
F0.125
S'first'
p352
I0
tp353
a(I4
I282
F-0.625
S'other'
p354
I0
tp355
a(I4
I422
F0.125
S'first'
p356
I0
tp357
a(I4
I431
I0
S'handy'
p358
I0
tp359
a(I5
I25
F0.375
S'new'
p360
I0
tp361
a(I5
I162
F0.125
S'last'
p362
I0
tp363
as(S'an'
p364
S'extended'
p365
S'battery'
p366
tp367
(lp368
(I3
I217
F0.375
S'extended'
p369
I0
tp370
a(I4
I443
F0.375
S'extended'
p371
I0
tp372
a(I4
I491
F0.375
S'extended'
p373
I0
tp374
a(I4
I491
F0.125
S'able'
p375
I0
tp376
a(I4
I491
F0.125
S'last'
p377
I0
tp378
a(I5
I35
F0.375
S'extended'
p379
I0
tp380
a(I5
I46
F0.375
S'extended'
p381
I0
tp382
a(I5
I77
F-0.75
g31
I0
tp383
a(I5
I211
F0.375
S'extended'
p384
I0
tp385
a(I5
I216
F0.375
S'extended'
p386
I0
tp387
a(I3
I217
F0.375
g369
I0
tp388
a(I4
I443
F0.375
g371
I0
tp389
a(I4
I491
F0.375
g373
I0
tp390
a(I4
I491
F0.125
g375
I0
tp391
a(I4
I491
F0.125
g377
I0
tp392
a(I5
I23
F0.375
S'extended'
p393
I0
tp394
a(I5
I35
F0.375
g379
I0
tp395
a(I5
I46
F0.375
g381
I0
tp396
a(I5
I77
F-0.75
g31
I0
tp397
a(I5
I171
F0.25
g33
I0
tp398
a(I5
I211
F0.375
g384
I0
tp399
a(I5
I216
F0.375
g386
I0
tp400
a(I0
I6
F-0.75
S'dead'
p401
I15
tp402
a(I0
I6
F-0.75
S'dead'
p403
I15
tp404
a(I0
I14
I0
S'hot'
p405
I15
tp406
a(I0
I14
F-0.25
S'low'
p407
I15
tp408
a(I0
I21
F0.25
S'larger'
p409
I15
tp410
a(I0
I24
F-0.25
S'low'
p411
I15
tp412
a(I3
I115
F-0.75
g9
I15
tp413
a(I3
I161
F-0.75
g11
I15
tp414
a(I3
I162
F0.125
S'last'
p415
I15
tp416
a(I3
I177
F0.5
S'strong'
p417
I15
tp418
a(I3
I177
I0
S'signal'
p419
I15
tp420
a(I3
I217
F0.375
g369
I15
tp421
a(I3
I219
F-0.25
S'low'
p422
I15
tp423
a(I3
I280
I0
S'fast'
p424
I15
tp425
a(I4
I49
F1.0
g17
I15
tp426
a(I4
I49
F-0.625
g19
I15
tp427
a(I4
I78
I0
S'more'
p428
I15
tp429
a(I4
I84
F-0.25
S'low'
p430
I15
tp431
a(I4
I84
F-0.75
S'dead'
p432
I15
tp433
a(I4
I154
F-0.25
S'low'
p434
I15
tp435
a(I4
I154
F-0.25
S'low'
p436
I15
tp437
a(I4
I196
F0.125
S'last'
p438
I15
tp439
a(I4
I208
F1.0
g21
I15
tp440
a(I4
I257
F0.375
S'new'
p441
I15
tp442
a(I4
I389
F-0.75
S'dead'
p443
I15
tp444
a(I4
I389
I0
S'more'
p445
I15
tp446
a(I4
I443
F0.375
g371
I15
tp447
a(I4
I486
F0.125
S'first'
p448
I15
tp449
a(I4
I491
F0.375
g373
I15
tp450
a(I4
I491
F0.125
g375
I15
tp451
a(I4
I491
F0.125
g377
I15
tp452
a(I4
I501
F-0.5
S'sure'
p453
I15
tp454
a(I4
I501
F1.0
S'better'
p455
I15
tp456
a(I4
I501
I0
S'android'
p457
I15
tp458
a(I4
I501
F1.0
S'better'
p459
I15
tp460
a(I5
I23
F0.375
g393
I15
tp461
a(I5
I35
F0.375
g379
I15
tp462
a(I5
I46
F0.375
g381
I15
tp463
a(I5
I77
F-0.75
g31
I15
tp464
a(I5
I141
F0.875
S'lucky'
p465
I15
tp466
a(I5
I171
F0.25
g33
I15
tp467
a(I5
I173
F0.25
S'original'
p468
I15
tp469
a(I5
I173
F-0.625
S'bad'
p470
I15
tp471
a(I5
I211
F0.375
g384
I15
tp472
a(I5
I216
F0.375
g386
I15
tp473
a(I5
I221
I0
S'old'
p474
I15
tp475
a(I5
I221
F-0.625
S'bad'
p476
I15
tp477
as(S'wifi'
p478
tp479
(lp480
(I4
I45
F-0.375
S'disable'
p481
I0
tp482
a(I4
I251
I0
S'slower'
p483
I0
tp484
a(I4
I273
F-0.25
S'direct'
p485
I0
tp486
a(I5
I83
F0.375
S'available'
p487
I0
tp488
as(S'apps'
p489
tp490
(lp491
(I0
I53
I0
S'many'
p492
I0
tp493
a(I1
I58
I0
S'android'
p494
I0
tp495
a(I1
I70
I0
S'many'
p496
I0
tp497
a(I1
I70
F-0.625
S'free'
p498
I0
tp499
a(I3
I123
I0
S'many'
p500
I0
tp501
a(I3
I236
I0
S'many'
p502
I0
tp503
a(I4
I133
F-0.125
S'slow'
p504
I0
tp505
a(I4
I194
F-0.625
S'free'
p506
I0
tp507
a(I4
I202
F0.375
S'extra'
p508
I0
tp509
a(I4
I431
F0.375
S'available'
p510
I0
tp511
a(I5
I190
I0
S'most'
p512
I0
tp513
as(S'touch'
p514
S'screen'
p515
tp516
(lp517
(I1
I2
F0.5
S'touch'
p518
I2
tp519
a(I1
I50
F0.625
S'easy'
p520
I2
tp521
a(I1
I55
F0.5
S'touch'
p522
I2
tp523
a(I2
I9
F-0.75
S'little'
p524
I2
tp525
a(I4
I220
F0.5
S'touch'
p526
I2
tp527
a(I5
I60
F0.5
S'touch'
p528
I2
tp529
as.