(dp0
(S'weeks'
p1
tp2
(lp3
(I2
I10
I0
S'later'
p4
I18
tp5
as(S'boulder'
p6
tp7
(lp8
(I7
I9
I0
S'different'
p9
I0
tp10
a(I10
I4
F0.25
S'original'
p11
I0
tp12
a(I10
I6
F0.25
S'original'
p13
I0
tp14
a(I10
I10
I0
S'wish'
p15
I0
tp16
a(I10
I10
F0.25
S'original'
p17
I0
tp18
a(I17
I0
F0.5
S'second'
p19
I0
tp20
a(I29
I17
F-0.5
S'sure'
p21
I0
tp22
as(S'charging'
p23
tp24
(lp25
(I10
I33
F-0.625
S'bad'
p26
I12
tp27
a(I10
I38
F-0.125
S'overall'
p28
I12
tp29
as(S'broke'
p30
tp31
(lp32
(I8
I6
F0.5
S'touch'
p33
I10
tp34
a(I26
I13
F-0.375
S'top'
p35
I10
tp36
as(S'smart'
p37
tp38
(lp39
(I5
I10
F0.125
S'rugged'
p40
I10
tp41
a(I5
I10
F0.125
S'typical'
p42
I10
tp43
a(I31
I3
F0.375
S'extra'
p44
I10
tp45
as(S'car'
p46
S'charger'
p47
tp48
(lp49
(I9
I20
F-0.5
S'open'
p50
I0
tp51
as(S'hold'
p52
S'a'
p53
S'charge'
p54
tp55
(lp56
(I23
I4
I0
S'more'
p57
I0
tp58
as(S'water'
p59
tp60
(lp61
(I7
I15
F-0.25
S'trial'
p62
I6
tp63
a(I20
I5
I0
S'balcony'
p64
I6
tp65
a(I26
I12
F-0.75
S'tough'
p66
I6
tp67
as(S'verizon'
p68
tp69
(lp70
(I6
I16
I0
S'different'
p71
I0
tp72
a(I21
I20
I0
S'different'
p73
I0
tp74
a(I28
I24
F0.375
S'available'
p75
I0
tp76
as(S'data'
p77
S'plan'
p78
tp79
(lp80
(I17
I46
I0
S'website'
p81
I0
tp82
as(S'extended'
p83
S'life'
p84
S'battery'
p85
tp86
(lp87
(I3
I4
F0.375
S'extended'
p88
I0
tp89
a(I9
I12
F0.375
S'tight'
p90
I0
tp91
a(I10
I58
F0.375
S'new'
p92
I0
tp93
a(I10
I58
F0.375
S'extended'
p94
I0
tp95
a(I23
I49
F0.375
S'extended'
p96
I0
tp97
a(I23
I49
F1.0
S'better'
p98
I0
tp99
a(I28
I8
F0.375
S'extended'
p100
I0
tp101
a(I2
I25
F0.375
S'extended'
p102
I0
tp103
a(I5
I29
F0.25
S'original'
p104
I0
tp105
a(I9
I7
F0.375
S'extended'
p106
I0
tp107
a(I15
I0
F0.375
S'extended'
p108
I0
tp109
a(I23
I49
F1.0
g98
I0
tp110
a(I24
I12
F0.375
S'extended'
p111
I0
tp112
a(I24
I13
F0.5
S'compatible'
p113
I0
tp114
a(I24
I13
I0
S'current'
p115
I0
tp116
a(I3
I4
F0.375
g88
I1
tp117
a(I9
I12
F0.375
g90
I1
tp118
a(I10
I58
F0.375
g92
I1
tp119
a(I10
I58
F0.375
g94
I1
tp120
a(I17
I2
F0.375
S'new'
p121
I1
tp122
a(I17
I2
F0.875
S'nice'
p123
I1
tp124
a(I17
I19
F-0.5
S'long'
p125
I1
tp126
a(I23
I49
F0.375
g96
I1
tp127
a(I23
I49
F1.0
g98
I1
tp128
a(I24
I4
F-0.25
S'battery'
p129
I1
tp130
a(I24
I19
F-0.25
S'disappointed'
p131
I1
tp132
a(I28
I8
F0.375
g100
I1
tp133
a(I3
I4
F0.375
g88
I19
tp134
a(I9
I12
F0.375
g90
I19
tp135
a(I10
I58
F0.375
g92
I19
tp136
a(I10
I58
F0.375
g94
I19
tp137
a(I20
I19
I0
S'active'
p138
I19
tp139
a(I20
I19
I0
S'social'
p140
I19
tp141
a(I23
I49
F0.375
g96
I19
tp142
a(I24
I4
F-0.25
g129
I19
tp143
a(I28
I8
F0.375
g100
I19
tp144
a(I0
I2
F0.375
S'new'
p145
I15
tp146
a(I2
I25
F0.375
g102
I15
tp147
a(I2
I35
F-0.889
S'unfortunate'
p148
I15
tp149
a(I2
I36
F0.375
S'new'
p150
I15
tp151
a(I5
I29
F0.25
g104
I15
tp152
a(I5
I37
I0
S'external'
p153
I15
tp154
a(I6
I4
F0.375
S'extra'
p155
I15
tp156
a(I9
I7
F0.375
g106
I15
tp157
a(I10
I71
F0.75
S'due'
p158
I15
tp159
a(I15
I0
F0.375
g108
I15
tp160
a(I17
I2
F0.375
g121
I15
tp161
a(I17
I2
F0.875
g123
I15
tp162
a(I17
I19
F-0.5
g125
I15
tp163
a(I18
I0
F-0.625
S'bad'
p164
I15
tp165
a(I19
I10
F0.125
S'first'
p166
I15
tp167
a(I23
I5
F0.375
S'new'
p168
I15
tp169
a(I23
I49
F1.0
g98
I15
tp170
a(I24
I12
F0.375
g111
I15
tp171
a(I24
I13
F0.5
g113
I15
tp172
a(I24
I13
I0
g115
I15
tp173
a(I24
I19
F-0.25
g131
I15
tp174
a(I24
I22
F-0.625
S'bad'
p175
I15
tp176
a(I25
I0
F-0.75
S'dead'
p177
I15
tp178
a(I28
I19
F-0.375
S'small'
p179
I15
tp180
a(I30
I5
I0
S'standard'
p181
I15
tp182
a(I31
I14
I0
S'old'
p183
I15
tp184
as(S'casio'
p185
tp186
(lp187
(I10
I42
F0.5
S'second'
p188
I11
tp189
a(I23
I0
I0
S'military'
p190
I11
tp191
a(I24
I20
F0.125
S'last'
p192
I11
tp193
a(I28
I21
F0.125
S'able'
p194
I11
tp195
a(I28
I21
F0.25
S'original'
p196
I11
tp197
a(I28
I21
I0
S'high'
p198
I11
tp199
as(S'speaker'
p200
tp201
(lp202
(I10
I8
F0.25
S'original'
p203
I8
tp204
a(I19
I10
F0.5
S'second'
p205
I8
tp206
a(I23
I47
F-0.625
S'bad'
p207
I8
tp208
as(S'camera'
p209
tp210
(lp211
(I2
I17
I0
S'photography'
p212
I1
tp213
a(I5
I15
F-0.375
S'simple'
p214
I1
tp215
a(I7
I6
F-0.75
S'sad'
p216
I1
tp217
as(S'orange'
p218
tp219
(lp220
(I17
I11
F0.875
S'happy'
p221
I5
tp222
as(S'calls'
p223
tp224
(lp225
(I8
I4
I0
S'own'
p226
I0
tp227
a(I20
I21
I0
S'many'
p228
I0
tp229
a(I23
I34
I0
S'more'
p230
I0
tp231
a(I28
I28
F0.5
S'clear'
p232
I0
tp233
a(I29
I39
F0.125
S'able'
p234
I0
tp235
as.