(dp0
(S'android'
p1
tp2
(lp3
(I4
I0
I0
S'great'
p4
I0
tp5
a(I4
I0
F-0.75
S'little'
p6
I0
tp7
a(I5
I8
I0
S'real'
p8
I0
tp9
a(I7
I62
I0
S'same'
p10
I0
tp11
as(S'great'
p12
S'deal'
p13
tp14
(lp15
(I4
I2
F0.625
S'easy'
p16
I10
tp17
a(I7
I16
I0
S'great'
p18
I10
tp19
a(I7
I41
I0
S'great'
p20
I10
tp21
as(S'battery'
p22
S'life'
p23
tp24
(lp25
(I7
I23
F-0.75
S'short'
p26
I1
tp27
a(I10
I18
F-0.5
S'unimpressive'
p28
I1
tp29
a(I11
I0
F-0.75
S'short'
p30
I1
tp31
a(I7
I23
F-0.75
g26
I19
tp32
a(I10
I18
F-0.5
g28
I19
tp33
a(I11
I0
F-0.75
g30
I19
tp34
a(I3
I47
F0.875
S'lucky'
p35
I15
tp36
a(I7
I0
F-0.75
S'difficult'
p37
I15
tp38
a(I7
I0
F0.125
S'last'
p39
I15
tp40
a(I7
I0
F-0.5
S'long'
p41
I15
tp42
a(I7
I15
F-0.75
S'dead'
p43
I15
tp44
a(I7
I26
F-0.75
S'dead'
p45
I15
tp46
a(I9
I8
F1.0
S'good'
p47
I15
tp48
a(I13
I30
I0
S'different'
p49
I15
tp50
a(I13
I32
F-0.75
S'dead'
p51
I15
tp52
a(I13
I45
F0.375
S'new'
p53
I15
tp54
as(S'music'
p55
S'downloads'
p56
tp57
(lp58
(I3
I30
F0.625
S'easy'
p59
I0
tp60
a(I3
I30
F0.625
S'easy'
p61
I0
tp62
a(I3
I30
I0
S'later'
p63
I0
tp64
a(I13
I19
F0.875
S'music'
p65
I0
tp66
as(S'cricket'
p67
tp68
(lp69
(I7
I53
I0
S'site'
p70
I0
tp71
a(I7
I75
I0
S'user'
p72
I0
tp73
as(S'amazon'
p74
tp75
(lp76
(I3
I21
I0
S'only'
p77
I13
tp78
as(S'touch'
p79
S'screen'
p80
tp81
(lp82
(I3
I48
F0.5
S'touch'
p83
I2
tp84
a(I4
I2
F0.5
S'touch'
p85
I2
tp86
a(I7
I72
F0.5
S'touch'
p87
I2
tp88
a(I9
I7
F0.5
S'touch'
p89
I2
tp90
a(I9
I7
I0
S'more'
p91
I2
tp92
a(I9
I7
F0.25
S'larger'
p93
I2
tp94
as(S'muve'
p95
S'music'
p96
tp97
(lp98
(I1
I18
F0.375
S'extra'
p99
I0
tp100
a(I10
I13
I0
S'special'
p101
I0
tp102
a(I1
I18
F0.375
g99
I0
tp103
a(I2
I16
I0
S'great'
p104
I0
tp105
a(I10
I13
I0
g101
I0
tp106
as.