(dp0
(S'apple'
p1
S'store'
p2
tp3
(lp4
(I10
I11
F0.375
S'much'
p5
I0
tp6
a(I40
I99
I0
S'very'
p7
I0
tp8
a(I40
I99
I0
S'large'
p9
I0
tp10
a(I55
I64
F-0.375
S'nearest'
p11
I0
tp12
a(I74
I22
I0
S'apple'
p13
I0
tp14
a(I90
I0
F-0.375
S'authorized'
p15
I0
tp16
a(I1
I11
F0.625
S'easy'
p17
I4
tp18
a(I6
I16
F0.125
S'first'
p19
I4
tp20
a(I7
I30
F-0.625
S'other'
p21
I4
tp22
a(I7
I34
F-0.125
S'mine'
p23
I4
tp24
a(I10
I11
F0.375
g5
I4
tp25
a(I40
I99
I0
g7
I4
tp26
a(I40
I99
I0
g9
I4
tp27
a(I53
I4
F0.25
S'refurbished'
p28
I4
tp29
a(I55
I64
F-0.375
g11
I4
tp30
a(I55
I68
F0.5
S'expensive'
p31
I4
tp32
a(I55
I70
F-0.5
S'sure'
p33
I4
tp34
a(I56
I36
F-0.25
S'cheaper'
p35
I4
tp36
a(I59
I11
F1.0
S'best'
p37
I4
tp38
a(I71
I0
F0.125
S'visible'
p39
I4
tp40
a(I83
I28
I0
S'great'
p41
I4
tp42
a(I90
I0
F-0.375
g15
I4
tp43
as(S'happy'
p44
S'with'
p45
S'purchase'
p46
tp47
(lp48
(I18
I2
F0.875
S'happy'
p49
I0
tp50
a(I79
I6
F0.875
S'happy'
p51
I0
tp52
as(S'app'
p53
S'store'
p54
tp55
(lp56
(I74
I22
I0
g13
I0
tp57
as(S'battery'
p58
S'life'
p59
tp60
(lp61
(I4
I3
F1.0
S'good'
p62
I1
tp63
a(I40
I57
F1.0
S'better'
p64
I1
tp65
a(I40
I58
F-0.125
S'overall'
p66
I1
tp67
a(I40
I63
F-0.125
S'overall'
p68
I1
tp69
a(I40
I100
F0.125
S'last'
p70
I1
tp71
a(I66
I11
F-0.75
S'short'
p72
I1
tp73
a(I2
I30
F-0.625
S'bad'
p74
I15
tp75
a(I4
I3
F1.0
g62
I15
tp76
a(I20
I1
F-0.5
S'long'
p77
I15
tp78
a(I40
I57
F1.0
g64
I15
tp79
a(I40
I58
F-0.125
g66
I15
tp80
a(I40
I63
F-0.125
g68
I15
tp81
a(I54
I0
F0.625
S'easy'
p82
I15
tp83
a(I54
I0
F-0.25
S'd'
p84
I15
tp85
a(I65
I1
F0.25
S'original'
p86
I15
tp87
as(S'apple'
p88
S'products'
p89
tp90
(lp91
(I7
I30
F-0.625
g21
I0
tp92
a(I10
I11
F0.375
g5
I0
tp93
a(I15
I15
I0
S'apple'
p94
I0
tp95
a(I90
I16
F0.625
S'easiest'
p96
I0
tp97
as(S'new'
p98
S'iphone'
p99
tp100
(lp101
(I2
I29
F0.25
S'used'
p102
I0
tp103
a(I2
I29
F0.375
S'new'
p104
I0
tp105
a(I9
I0
F0.375
S'new'
p106
I0
tp107
a(I11
I9
F0.375
S'much'
p108
I0
tp109
a(I30
I1
F0.375
S'new'
p110
I0
tp111
a(I42
I5
F0.25
S'refurbished'
p112
I0
tp113
a(I56
I26
F0.375
S'new'
p114
I0
tp115
a(I56
I26
F-0.25
S'ready'
p116
I0
tp117
a(I56
I33
F0.5
S'compatible'
p118
I0
tp119
a(I56
I33
F0.375
S'new'
p120
I0
tp121
a(I56
I66
F0.375
S'newer'
p122
I0
tp123
a(I67
I0
F-0.25
S'cheaper'
p124
I0
tp125
a(I67
I0
F0.375
S'new'
p126
I0
tp127
a(I85
I3
F0.375
S'new'
p128
I0
tp129
a(I2
I2
I0
S'old'
p130
I1
tp131
a(I2
I2
F1.0
S'good'
p132
I1
tp133
a(I2
I14
F-0.125
S'invest'
p134
I1
tp135
a(I2
I21
F0.125
S'able'
p136
I1
tp137
a(I2
I29
F0.25
g102
I1
tp138
a(I2
I29
F0.375
g104
I1
tp139
a(I2
I32
F-0.375
S'black'
p140
I1
tp141
a(I2
I33
F-0.25
S'white'
p142
I1
tp143
a(I3
I4
F0.25
S'helpful'
p144
I1
tp145
a(I7
I39
F0.75
S'worth'
p146
I1
tp147
a(I9
I0
F0.375
g106
I1
tp148
a(I10
I0
F-0.25
S'white'
p149
I1
tp150
a(I11
I1
F0.125
S'first'
p151
I1
tp152
a(I11
I9
F0.375
g108
I1
tp153
a(I15
I30
F-0.125
S'overrated'
p154
I1
tp155
a(I19
I5
I0
S'old'
p156
I1
tp157
a(I28
I0
F0.875
S'happier'
p158
I1
tp159
a(I29
I20
F0.875
S'happy'
p160
I1
tp161
a(I30
I1
F0.375
g110
I1
tp162
a(I37
I67
F0.125
S'first'
p163
I1
tp164
a(I40
I23
I0
S'faster'
p165
I1
tp166
a(I40
I46
I0
S'only'
p167
I1
tp168
a(I40
I58
I0
S'same'
p169
I1
tp170
a(I40
I98
F-0.125
S'overall'
p171
I1
tp172
a(I40
I101
I0
S'current'
p173
I1
tp174
a(I40
I104
I0
S'older'
p175
I1
tp176
a(I40
I104
F0.5
S'possible'
p177
I1
tp178
a(I42
I5
F0.25
g112
I1
tp179
a(I44
I5
I0
S'incredible'
p180
I1
tp181
a(I46
I24
F0.125
S'solid'
p182
I1
tp183
a(I53
I20
F0.125
S'first'
p184
I1
tp185
a(I53
I21
F-0.625
S'free'
p186
I1
tp187
a(I54
I21
I0
S'faster'
p188
I1
tp189
a(I54
I21
I0
S'old'
p190
I1
tp191
a(I55
I26
F-0.5
S'actual'
p192
I1
tp193
a(I55
I30
F-0.125
S'minimum'
p194
I1
tp195
a(I55
I51
F1.0
S'better'
p196
I1
tp197
a(I55
I57
F-0.625
S'free'
p198
I1
tp199
a(I56
I2
F-0.25
S'white'
p200
I1
tp201
a(I56
I13
F-0.375
S'black'
p202
I1
tp203
a(I56
I26
F0.375
g114
I1
tp204
a(I56
I26
F-0.25
g116
I1
tp205
a(I56
I29
F-0.375
S'black'
p206
I1
tp207
a(I56
I29
F-0.25
S'white'
p208
I1
tp209
a(I56
I33
F0.5
g118
I1
tp210
a(I56
I33
F0.375
g120
I1
tp211
a(I56
I35
F-0.125
S'invest'
p212
I1
tp213
a(I56
I65
F0.75
S'beautiful'
p214
I1
tp215
a(I56
I66
F0.375
g122
I1
tp216
a(I59
I9
I0
S'more'
p217
I1
tp218
a(I59
I13
F0.875
S'nice'
p219
I1
tp220
a(I66
I4
F1.0
S'good'
p221
I1
tp222
a(I67
I0
F-0.25
g124
I1
tp223
a(I67
I0
F0.375
g126
I1
tp224
a(I68
I17
F0.25
S'used'
p225
I1
tp226
a(I74
I30
F0.375
S'interesting'
p227
I1
tp228
a(I74
I30
F-0.25
S'past'
p229
I1
tp230
a(I76
I3
F1.0
S'best'
p231
I1
tp232
a(I83
I3
F0.125
S'first'
p233
I1
tp234
a(I84
I11
F-0.625
S'free'
p235
I1
tp236
a(I85
I3
F0.375
g128
I1
tp237
a(I96
I0
F0.125
S'first'
p238
I1
tp239
as(S'camera'
p240
tp241
(lp242
(I15
I16
F-0.625
S'bad'
p243
I1
tp244
a(I40
I19
I0
S'rear'
p245
I1
tp246
a(I40
I99
F0.75
S'beautiful'
p247
I1
tp248
a(I87
I7
F-0.875
S'trouble'
p249
I1
tp250
a(I94
I12
F0.875
S'nice'
p251
I1
tp252
as(S'seller'
p253
tp254
(lp255
(I28
I2
F-0.25
S'potential'
p256
I19
tp257
a(I57
I28
F0.375
S'available'
p258
I19
tp259
a(I57
I29
F1.0
S'best'
p260
I19
tp261
a(I57
I29
F-0.5
S'sure'
p262
I19
tp263
a(I57
I30
F-0.875
S'worst'
p264
I19
tp265
a(I68
I4
I0
S'more'
p266
I19
tp267
as(S'sprint'
p268
tp269
(lp270
(I40
I9
I0
S'old'
p271
I0
tp272
a(I40
I44
I0
S'third'
p273
I0
tp274
a(I40
I50
I0
S'rear'
p275
I0
tp276
a(I40
I53
F0.875
S'important'
p277
I0
tp278
a(I55
I2
I0
S'more'
p279
I0
tp280
a(I55
I11
F-0.5
S'poor'
p281
I0
tp282
a(I55
I20
I0
S'later'
p283
I0
tp284
as(S'third'
p285
S'party'
p286
tp287
(lp288
(I28
I10
I0
S'third'
p289
I0
tp290
a(I28
I10
I0
S'least'
p291
I0
tp292
a(I56
I16
I0
S'third'
p293
I0
tp294
a(I76
I23
I0
S'third'
p295
I0
tp296
a(I76
I23
I0
S'third'
p297
I0
tp298
a(I76
I23
I0
S'third'
p299
I0
tp300
as(S'social'
p301
S'media'
p302
tp303
(lp304
(I56
I49
I0
S'social'
p305
I0
tp306
a(I85
I3
I0
S'social'
p307
I0
tp308
a(I87
I12
I0
S'social'
p309
I0
tp310
as(S'lock'
p311
S'button'
p312
tp313
(lp314
(I37
I51
F-0.375
S'simple'
p315
I0
tp316
a(I37
I51
F-0.375
S'top'
p317
I0
tp318
as(S'apple'
p319
S'iphone'
p320
tp321
(lp322
(I2
I32
F-0.375
g140
I0
tp323
a(I3
I4
F0.25
g144
I0
tp324
a(I7
I34
F-0.125
g23
I0
tp325
a(I55
I68
F0.5
g31
I0
tp326
a(I56
I26
F0.375
g114
I0
tp327
a(I56
I26
F-0.25
g116
I0
tp328
a(I56
I33
F0.5
g118
I0
tp329
a(I56
I33
F0.375
g120
I0
tp330
a(I56
I36
F-0.25
g35
I0
tp331
a(I90
I0
F-0.375
g15
I0
tp332
as(S'iphones'
p333
tp334
(lp335
(I48
I10
F0.375
S'new'
p336
I0
tp337
a(I48
I25
I0
S'great'
p338
I0
tp339
a(I53
I23
F0.375
S'new'
p340
I0
tp341
a(I56
I32
F-0.625
S'other'
p342
I0
tp343
a(I56
I32
F0.5
S'compatible'
p344
I0
tp345
a(I59
I4
F0.25
S'used'
p346
I0
tp347
a(I72
I3
F-0.25
S'past'
p348
I0
tp349
a(I86
I1
I0
S'great'
p350
I0
tp351
a(I86
I1
F0.375
S'new'
p352
I0
tp353
a(I86
I1
F0.25
S'used'
p354
I0
tp355
as(S'apple'
p356
S'product'
p357
tp358
(lp359
(I6
I16
F0.125
g19
I0
tp360
a(I7
I30
F-0.625
g21
I0
tp361
a(I10
I11
F0.375
g5
I0
tp362
a(I14
I4
I0
S'old'
p363
I0
tp364
a(I46
I3
I0
S'great'
p365
I0
tp366
a(I55
I70
F-0.5
g33
I0
tp367
as(S'stopped'
p368
S'working'
p369
tp370
(lp371
(I94
I0
F-0.375
S'stopped'
p372
I2
tp373
as(S'a'
p374
S'long'
p375
S'time'
p376
tp377
(lp378
(I0
I1
I0
S'more'
p379
I12
tp380
a(I0
I1
F0.375
S'standby'
p381
I12
tp382
a(I2
I0
F-0.5
S'long'
p383
I12
tp384
a(I27
I1
F-0.5
S'long'
p385
I12
tp386
a(I56
I74
F-0.5
S'long'
p387
I12
tp388
a(I57
I17
F-0.5
S'long'
p389
I12
tp390
a(I84
I2
F-0.5
S'long'
p391
I12
tp392
a(I90
I4
F-0.5
S'long'
p393
I12
tp394
a(I0
I1
I0
g379
I13
tp395
a(I0
I1
F0.375
g381
I13
tp396
a(I2
I0
F-0.5
g383
I13
tp397
a(I27
I1
F-0.5
g385
I13
tp398
a(I56
I74
F-0.5
g387
I13
tp399
a(I57
I17
F-0.5
g389
I13
tp400
a(I84
I2
F-0.5
g391
I13
tp401
a(I90
I4
F-0.5
g393
I13
tp402
as(S'android'
p403
tp404
(lp405
(I40
I73
I0
S'fast'
p406
I0
tp407
a(I40
I73
I0
S'faster'
p408
I0
tp409
a(I40
I73
I0
S'more'
p410
I0
tp411
a(I40
I73
F0.25
S'powerful'
p412
I0
tp413
as(S'great'
p414
S'condition'
p415
tp416
(lp417
(I2
I7
I0
S'great'
p418
I7
tp419
a(I8
I3
I0
S'great'
p420
I7
tp421
a(I38
I6
I0
S'great'
p422
I7
tp423
a(I41
I0
I0
S'great'
p424
I7
tp425
a(I41
I0
I0
S'great'
p426
I7
tp427
a(I53
I8
I0
S'great'
p428
I7
tp429
as(S'in'
p430
S'good'
p431
S'condition'
p432
tp433
(lp434
(I2
I26
F1.0
S'good'
p435
I6
tp436
a(I2
I26
F0.5
S'told'
p437
I6
tp438
a(I16
I7
F1.0
S'good'
p439
I6
tp440
a(I16
I7
F1.0
S'good'
p441
I6
tp442
a(I16
I9
F1.0
S'good'
p443
I6
tp444
a(I53
I8
I0
g428
I6
tp445
a(I83
I24
F1.0
S'good'
p446
I6
tp447
a(I87
I23
F1.0
S'good'
p448
I6
tp449
a(I89
I3
F1.0
S'good'
p450
I6
tp451
a(I96
I21
F1.0
S'good'
p452
I6
tp453
a(I96
I21
F0.375
S'new'
p454
I6
tp455
a(I2
I26
F1.0
g435
I6
tp456
a(I2
I26
F0.5
g437
I6
tp457
a(I7
I0
F1.0
S'good'
p458
I6
tp459
a(I16
I7
F1.0
g439
I6
tp460
a(I16
I7
F1.0
g441
I6
tp461
a(I16
I9
F1.0
g443
I6
tp462
a(I37
I23
F1.0
S'good'
p463
I6
tp464
a(I53
I8
I0
g428
I6
tp465
a(I83
I24
F1.0
g446
I6
tp466
a(I87
I23
F1.0
g448
I6
tp467
a(I89
I3
F1.0
g450
I6
tp468
a(I96
I21
F1.0
g452
I6
tp469
a(I96
I21
F0.375
g454
I6
tp470
as(S'sim'
p471
S'card'
p472
tp473
(lp474
(I15
I1
F0.375
S'new'
p475
I0
tp476
as(S'serial'
p477
S'number'
p478
tp479
(lp480
(I9
I3
I0
S'serial'
p481
I0
tp482
a(I11
I32
I0
S'serial'
p483
I0
tp484
as(S'genius'
p485
S'bar'
p486
tp487
(lp488
(I10
I6
F-0.5
S'open'
p489
I0
tp490
as(S'warranty'
p491
tp492
(lp493
(I7
I22
F0.125
S'able'
p494
I2
tp495
a(I39
I22
F-0.5
S'longer'
p496
I2
tp497
a(I86
I5
I0
S'old'
p498
I2
tp499
a(I86
I5
I0
S'old'
p500
I2
tp501
a(I86
I5
I0
S'old'
p502
I2
tp503
as(S'birthday'
p504
S'gift'
p505
tp506
(lp507
(I2
I20
I0
S'great'
p508
I3
tp509
as(S'data'
p510
tp511
(lp512
(I1
I2
F-0.125
S'minimum'
p513
I13
tp514
a(I74
I29
I0
S'close'
p515
I13
tp516
as(S'smartphone'
p517
tp518
(lp519
(I3
I6
F0.125
S'first'
p520
I0
tp521
a(I7
I40
F0.875
S'happier'
p522
I0
tp523
a(I7
I40
I0
S'different'
p524
I0
tp525
a(I23
I1
F-0.625
S'other'
p526
I0
tp527
a(I37
I44
F0.375
S'raved'
p528
I0
tp529
a(I40
I13
I0
S'few'
p530
I0
tp531
a(I40
I104
F0.125
S'first'
p532
I0
tp533
a(I40
I105
F0.625
S'easier'
p534
I0
tp535
a(I57
I9
I0
S'third'
p536
I0
tp537
a(I57
I9
F0.125
S'first'
p538
I0
tp539
a(I57
I12
F0.125
S'first'
p540
I0
tp541
a(I57
I15
F1.0
S'best'
p542
I0
tp543
a(I59
I12
F-0.5
S'ordinary'
p544
I0
tp545
a(I66
I7
F-0.625
S'other'
p546
I0
tp547
a(I87
I11
F0.125
S'first'
p548
I0
tp549
as(S'customer'
p550
S'service'
p551
tp552
(lp553
(I7
I32
F0.875
S'important'
p554
I3
tp555
a(I7
I38
F-0.5
S'poor'
p556
I3
tp557
a(I28
I15
I0
S'great'
p558
I3
tp559
a(I37
I71
I0
S'forth'
p560
I3
tp561
a(I86
I0
F0.875
S'nice'
p562
I3
tp563
a(I7
I32
F0.875
g554
I16
tp564
a(I15
I26
F0.375
S'reliable'
p565
I16
tp566
a(I38
I11
I0
S'mobile'
p567
I16
tp568
a(I76
I4
I0
S'great'
p569
I16
tp570
a(I76
I23
F0.75
S'due'
p571
I16
tp572
a(I78
I0
I0
S'next'
p573
I16
tp574
a(I78
I0
F0.375
S'new'
p575
I16
tp576
a(I86
I0
F0.875
g562
I16
tp577
a(I7
I38
F-0.5
g556
I11
tp578
a(I16
I5
I0
S'faithful'
p579
I11
tp580
a(I28
I15
I0
g558
I11
tp581
a(I37
I71
I0
g560
I11
tp582
a(I89
I5
F0.125
S'dissatisfied'
p583
I11
tp584
as(S'apps'
p585
tp586
(lp587
(I1
I10
I0
S'mobile'
p588
I0
tp589
a(I15
I31
I0
S'many'
p590
I0
tp591
a(I40
I81
F-0.125
S'overall'
p592
I0
tp593
a(I40
I96
I0
S'standard'
p594
I0
tp595
a(I54
I9
I0
S'different'
p596
I0
tp597
a(I54
I10
I0
S'educational'
p598
I0
tp599
a(I54
I28
F-0.625
S'free'
p600
I0
tp601
a(I55
I27
F0.375
S'available'
p602
I0
tp603
a(I64
I1
F0.5
S'compatible'
p604
I0
tp605
a(I70
I3
F0.375
S'available'
p606
I0
tp607
a(I71
I1
I0
S'next'
p608
I0
tp609
a(I83
I5
F0.375
S'new'
p610
I0
tp611
as(S'amazon'
p612
tp613
(lp614
(I27
I6
F-0.25
S'late'
p615
I13
tp616
a(I28
I2
I0
S'site'
p617
I13
tp618
a(I28
I10
F-0.5
S'sure'
p619
I13
tp620
a(I53
I8
F1.0
S'good'
p621
I13
tp622
as(S'taken'
p623
S'care'
p624
tp625
(lp626
(I57
I2
F0.375
S'new'
p627
I0
tp628
as.