(dp0
(S'battery'
p1
S'life'
p2
tp3
(lp4
(I1
I1
F0.5
S'strong'
p5
I1
tp6
a(I5
I15
I0
S'great'
p7
I1
tp8
a(I6
I15
F-0.625
S'average'
p9
I1
tp10
a(I16
I57
F-0.5
S'poor'
p11
I1
tp12
a(I16
I79
F-0.75
S'short'
p13
I1
tp14
a(I16
I113
I0
S'normal'
p15
I1
tp16
a(I19
I3
F-0.75
S'short'
p17
I1
tp18
a(I28
I32
F0.375
S'extra'
p19
I1
tp20
a(I30
I17
F1.0
S'good'
p21
I1
tp22
a(I30
I77
I0
S'great'
p23
I1
tp24
a(I30
I77
F-0.125
S'overall'
p25
I1
tp26
a(I32
I6
I0
S'phenomenal'
p27
I1
tp28
a(I34
I64
F-0.25
S'saver'
p29
I1
tp30
a(I1
I1
F0.5
g5
I19
tp31
a(I5
I15
I0
g7
I19
tp32
a(I6
I15
F-0.625
g9
I19
tp33
a(I16
I79
F-0.75
g13
I19
tp34
a(I19
I3
F-0.75
g17
I19
tp35
a(I30
I17
F1.0
g21
I19
tp36
a(I30
I77
I0
g23
I19
tp37
a(I30
I77
F-0.125
g25
I19
tp38
a(I32
I6
I0
g27
I19
tp39
a(I10
I19
I0
S'wish'
p40
I15
tp41
a(I11
I14
F-0.375
S'near'
p42
I15
tp43
a(I11
I32
F-0.5
S'sure'
p44
I15
tp45
a(I11
I76
I0
S'full'
p46
I15
tp47
a(I14
I3
F0.125
S'last'
p48
I15
tp49
a(I15
I2
F-0.5
S'poor'
p50
I15
tp51
a(I16
I57
F-0.5
g11
I15
tp52
a(I16
I113
I0
g15
I15
tp53
a(I22
I7
F0.5
S'second'
p54
I15
tp55
a(I28
I32
F0.375
g19
I15
tp56
a(I29
I31
I0
S'japanese'
p57
I15
tp58
a(I29
I31
F0.125
S'able'
p59
I15
tp60
a(I29
I32
F-0.625
S'other'
p61
I15
tp62
a(I29
I32
F0.375
S'new'
p63
I15
tp64
a(I30
I58
F-0.75
S'stupid'
p65
I15
tp66
a(I34
I64
F-0.25
g29
I15
tp67
as(S'text'
p68
tp69
(lp70
(I37
I52
F0.5
S'whole'
p71
I18
tp72
as(S'boost'
p73
S'mobile'
p74
tp75
(lp76
(I10
I28
I0
S'most'
p77
I0
tp78
a(I20
I43
F0.25
S'favorite'
p79
I0
tp80
a(I29
I74
F-0.25
S'direct'
p81
I0
tp82
a(I30
I96
F1.0
S'good'
p83
I0
tp84
a(I10
I28
I0
g77
I0
tp85
a(I11
I70
F-0.125
S'complex'
p86
I0
tp87
a(I30
I96
F1.0
g83
I0
tp88
a(I4
I14
F1.0
S'best'
p89
I0
tp90
a(I5
I3
F0.125
S'able'
p91
I0
tp92
a(I5
I23
F0.125
S'able'
p93
I0
tp94
a(I5
I23
I0
S'least'
p95
I0
tp96
a(I11
I45
F0.5
S'loyal'
p97
I0
tp98
a(I16
I30
I0
S'monthly'
p99
I0
tp100
a(I16
I114
F-0.625
S'other'
p101
I0
tp102
a(I20
I43
F0.25
g79
I0
tp103
a(I29
I74
F-0.25
g81
I0
tp104
a(I30
I1
F1.0
S'best'
p105
I0
tp106
a(I30
I10
F0.375
S'meant'
p107
I0
tp108
a(I30
I24
I0
S'more'
p109
I0
tp110
a(I32
I20
F-0.75
S'likely'
p111
I0
tp112
a(I32
I20
F0.75
S'due'
p113
I0
tp114
a(I32
I20
I-100
S'fisher-price'
p115
I0
tp116
as(S'service'
p117
tp118
(lp119
(I10
I25
F1.0
S'good'
p120
I16
tp121
a(I15
I4
F1.0
S'good'
p122
I16
tp123
a(I16
I36
I0
S'great'
p124
I16
tp125
a(I16
I36
F1.0
S'best'
p126
I16
tp127
a(I18
I34
I0
S'great'
p128
I16
tp129
a(I23
I15
F-0.5
S'unlimited'
p130
I16
tp131
a(I33
I8
F1.0
S'good'
p132
I16
tp133
as(S'angry'
p134
S'birds'
p135
tp136
(lp137
(I18
I26
I0
S'angry'
p138
I0
tp139
as(S'key'
p140
S'board'
p141
tp142
(lp143
(I16
I35
F0.125
S'key'
p144
I0
tp145
a(I34
I26
F0.125
S'key'
p146
I0
tp147
as(S'plus'
p148
tp149
(lp150
(I28
I5
I0
S'big'
p151
I16
tp152
a(I30
I101
F0.375
S'much'
p153
I16
tp154
as(S'apps'
p155
tp156
(lp157
(I11
I74
I0
S'useful'
p158
I0
tp159
a(I18
I41
F-0.75
S'single'
p160
I0
tp161
a(I20
I69
I0
S'many'
p162
I0
tp163
a(I20
I69
F-0.625
S'free'
p164
I0
tp165
a(I28
I6
I0
S'more'
p166
I0
tp167
a(I28
I6
F0.875
S'music'
p168
I0
tp169
a(I29
I94
F0.375
S'available'
p170
I0
tp171
a(I34
I29
F-0.625
S'free'
p172
I0
tp173
a(I34
I43
F0.25
S'favorite'
p174
I0
tp175
a(I34
I58
F1.0
S'better'
p176
I0
tp177
a(I34
I71
I0
S'own'
p178
I0
tp179
as(S'front'
p180
S'facing'
p181
S'camera'
p182
tp183
(lp184
(I6
I24
F0.875
S'happy'
p185
I0
tp186
a(I34
I29
I0
S'rear'
p187
I0
tp188
a(I34
I29
I0
g187
I0
tp189
a(I6
I24
F0.875
g185
I0
tp190
a(I34
I29
I0
g187
I0
tp191
a(I6
I24
F0.875
g185
I1
tp192
a(I16
I49
I0
S'great'
p193
I1
tp194
a(I26
I0
F-0.5
S'poor'
p195
I1
tp196
a(I32
I13
I0
S'rear'
p197
I1
tp198
a(I36
I33
F0.5
S'satisfactory'
p199
I1
tp200
a(I36
I34
F-0.75
S'sufficient'
p201
I1
tp202
a(I37
I48
F1.0
S'good'
p203
I1
tp204
as(S'prevail'
p205
tp206
(lp207
(I4
I17
I0
S'faster'
p208
I0
tp209
a(I13
I0
I0
S'great'
p210
I0
tp211
a(I16
I12
F0.25
S'responsive'
p212
I0
tp213
a(I22
I1
F0.875
S'happy'
p214
I0
tp215
as(S'play'
p216
S'games'
p217
tp218
(lp219
(I5
I16
F0.625
S'fair'
p220
I1
tp221
a(I5
I16
I0
S'many'
p222
I1
tp223
a(I10
I26
F0.875
S'music'
p224
I1
tp225
a(I28
I7
F1.0
S'best'
p226
I1
tp227
as(S'button'
p228
tp229
(lp230
(I10
I17
F0.5
S'accurate'
p231
I19
tp232
a(I18
I36
F0.25
S'bigger'
p233
I19
tp234
a(I28
I31
F0.875
S'nice'
p235
I19
tp236
a(I28
I31
I0
S'weird'
p237
I19
tp238
as(S'contract'
p239
tp240
(lp241
(I4
I6
I0
S'current'
p242
I0
tp243
a(I11
I68
I0
S'many'
p244
I0
tp245
a(I11
I68
F-0.625
S'other'
p246
I0
tp247
a(I14
I13
F-0.25
S'cheaper'
p248
I0
tp249
as(S'android'
p250
tp251
(lp252
(I2
I0
I-100
S'unnessary'
p253
I0
tp254
a(I4
I33
I0
S'many'
p255
I0
tp256
a(I5
I26
F0.125
S'first'
p257
I0
tp258
a(I5
I26
F0.875
S'happy'
p259
I0
tp260
a(I11
I48
F0.125
S'first'
p261
I0
tp262
a(I19
I0
F0.125
S'first'
p263
I0
tp264
a(I23
I8
I0
S'standard'
p265
I0
tp266
a(I28
I4
F0.125
S'first'
p267
I0
tp268
a(I28
I27
F1.0
S'best'
p269
I0
tp270
a(I28
I29
F-0.625
S'other'
p271
I0
tp272
a(I29
I0
F0.125
S'typical'
p273
I0
tp274
a(I29
I38
F0.625
S'decent'
p275
I0
tp276
a(I29
I66
F0.5
S'functional'
p277
I0
tp278
a(I33
I30
F0.375
S'new'
p279
I0
tp280
a(I37
I5
I0
S'great'
p281
I0
tp282
a(I37
I5
I0
S'general'
p283
I0
tp284
a(I37
I5
I0
S'great'
p285
I0
tp286
as(S'slide'
p287
S'out'
p288
S'keyboard'
p289
tp290
(lp291
(I4
I30
I0
S'fast'
p292
I0
tp293
a(I4
I30
F0.625
S'easy'
p294
I0
tp295
a(I4
I30
I0
S'great'
p296
I0
tp297
a(I10
I13
I0
S'touchscreen'
p298
I0
tp299
a(I16
I16
I0
S'great'
p300
I0
tp301
a(I18
I8
I0
S'fast'
p302
I0
tp303
a(I19
I8
F0.375
S'much'
p304
I0
tp305
a(I19
I14
F0.125
S'spectacular'
p306
I0
tp307
a(I30
I86
F0.25
S'familiar'
p308
I0
tp309
a(I32
I38
I0
S'physical'
p310
I0
tp311
a(I4
I30
I0
g292
I6
tp312
a(I4
I30
F0.625
g294
I6
tp313
a(I4
I30
I0
g296
I6
tp314
a(I10
I13
I0
g298
I6
tp315
a(I18
I8
I0
g302
I6
tp316
a(I19
I14
F0.125
g306
I6
tp317
a(I20
I47
F0.625
S'easy'
p318
I6
tp319
a(I21
I8
I0
S'full'
p320
I6
tp321
a(I0
I9
F-0.75
S'difficult'
p322
I2
tp323
a(I9
I4
I0
S'physical'
p324
I2
tp325
a(I9
I18
I0
S'real'
p326
I2
tp327
a(I13
I1
I0
S'faster'
p328
I2
tp329
a(I16
I16
I0
g300
I2
tp330
a(I16
I59
I0
S'physical'
p331
I2
tp332
a(I18
I35
F0.125
S'last'
p333
I2
tp334
a(I18
I35
I0
S'least'
p335
I2
tp336
a(I18
I35
I0
S'great'
p337
I2
tp338
a(I19
I8
F0.375
g304
I2
tp339
a(I20
I4
F-0.625
S'glad'
p340
I2
tp341
a(I21
I3
I0
S'close'
p342
I2
tp343
a(I22
I19
F0.5
S'whole'
p344
I2
tp345
a(I25
I15
I0
S'useful'
p346
I2
tp347
a(I28
I5
F-0.5
S'actual'
p348
I2
tp349
a(I28
I37
I0
S'close'
p350
I2
tp351
a(I28
I37
I0
S'great'
p352
I2
tp353
a(I29
I54
I0
S'physical'
p354
I2
tp355
a(I30
I86
F0.25
g308
I2
tp356
a(I32
I38
I0
g310
I2
tp357
a(I33
I37
I0
S'physical'
p358
I2
tp359
a(I36
I31
I0
S'great'
p360
I2
tp361
a(I37
I13
F0.625
S'convenient'
p362
I2
tp363
as(S'samsung'
p364
S'transform'
p365
S'ultra'
p366
tp367
(lp368
(I11
I44
F-0.875
S'worst'
p369
I0
tp370
a(I28
I25
F0.375
S'new'
p371
I0
tp372
a(I29
I3
I0
S'more'
p373
I0
tp374
a(I35
I0
F0.375
S'new'
p375
I0
tp376
a(I11
I44
F-0.875
g369
I0
tp377
a(I14
I27
F0.375
S'new'
p378
I0
tp379
a(I20
I91
F0.5
S'second'
p380
I0
tp381
a(I36
I29
F0.125
S'able'
p382
I0
tp383
a(I28
I25
F0.375
g371
I0
tp384
a(I29
I3
I0
g373
I0
tp385
a(I35
I0
F0.375
g375
I0
tp386
a(I4
I16
F-0.375
S'small'
p387
I0
tp388
a(I4
I16
F0.125
S'first'
p389
I0
tp390
a(I11
I44
F-0.875
g369
I0
tp391
a(I36
I29
F0.125
g382
I0
tp392
a(I14
I27
F0.375
g378
I3
tp393
a(I20
I91
F0.5
g380
I3
tp394
a(I16
I71
F1.0
S'good'
p395
I7
tp396
a(I16
I90
I0
S'anymore'
p397
I7
tp398
a(I16
I105
F0.125
S'last'
p399
I7
tp400
a(I28
I25
F0.375
g371
I7
tp401
a(I29
I3
I0
g373
I7
tp402
a(I30
I65
F0.375
S'new'
p403
I7
tp404
a(I34
I0
I0
S'third'
p405
I7
tp406
a(I35
I0
F0.375
g375
I7
tp407
as(S'black'
p408
S'friday'
p409
tp410
(lp411
(I20
I2
F-0.375
S'black'
p412
I0
tp413
as(S'buttons'
p414
tp415
(lp416
(I3
I18
F-0.75
S'difficult'
p417
I13
tp418
a(I3
I22
I0
S'flush'
p419
I13
tp420
a(I28
I31
F1.0
S'good'
p421
I13
tp422
a(I29
I38
I0
S'soft'
p423
I13
tp424
a(I29
I41
F-0.875
S'hard'
p425
I13
tp426
a(I37
I17
F-0.125
S'delete'
p427
I13
tp428
as(S'calls'
p429
tp430
(lp431
(I11
I73
F0.5
S'clear'
p432
I0
tp433
a(I29
I2
I0
S'least'
p434
I0
tp435
a(I29
I2
F0.75
S'receive'
p436
I0
tp437
a(I29
I62
F-0.5
S'separate'
p438
I0
tp439
as(S'out'
p440
S'qwerty'
p441
S'keyboard'
p442
tp443
(lp444
(I21
I3
I0
g342
I0
tp445
a(I20
I4
F-0.625
g340
I0
tp446
a(I20
I83
I-100
S'3-sprint'
p447
I0
tp448
a(I21
I3
I0
g342
I0
tp449
a(I36
I31
I0
g360
I0
tp450
a(I3
I34
F-0.5
S'open'
p451
I0
tp452
as(S'great'
p453
S'price'
p454
tp455
(lp456
(I1
I5
I0
S'great'
p457
I19
tp458
a(I1
I5
I0
S'keyboard'
p459
I19
tp460
a(I5
I3
I0
S'great'
p461
I19
tp462
a(I11
I15
F-0.125
S'overall'
p463
I19
tp464
a(I11
I15
I0
S'great'
p465
I19
tp466
a(I16
I36
I0
S'same'
p467
I19
tp468
a(I16
I78
I0
S'great'
p469
I19
tp470
a(I20
I97
I0
S'great'
p471
I19
tp472
as(S'space'
p473
S'bar'
p474
tp475
(lp476
(I3
I18
F-0.625
S'bad'
p477
I0
tp478
a(I11
I22
I0
S'weird'
p479
I0
tp480
a(I37
I16
I0
S'weird'
p481
I0
tp482
as(S'wifi'
p483
tp484
(lp485
(I32
I18
F0.5
S'possible'
p486
I0
tp487
a(I32
I30
I0
S'internal'
p488
I0
tp489
a(I32
I33
I0
S'great'
p490
I0
tp491
a(I34
I58
I0
S'fast'
p492
I0
tp493
a(I34
I71
F1.0
S'better'
p494
I0
tp495
a(I34
I71
I0
S'signal'
p496
I0
tp497
as(S'billing'
p498
S'date'
p499
tp500
(lp501
(I37
I29
I0
S'next'
p502
I0
tp503
a(I37
I31
F-0.75
S'inconvenient'
p504
I0
tp505
as(S'touchscreen'
p506
tp507
(lp508
(I10
I14
F0.5
S'accurate'
p509
I0
tp510
a(I29
I78
I0
S'large'
p511
I0
tp512
a(I33
I37
F0.625
S'major'
p513
I0
tp514
as(S'first'
p515
S'smartphone'
p516
tp517
(lp518
(I5
I1
F0.125
S'first'
p519
I0
tp520
a(I16
I91
F0.125
S'first'
p521
I0
tp522
a(I16
I92
F-0.125
S'overall'
p523
I0
tp524
a(I16
I92
F0.875
S'happy'
p525
I0
tp526
a(I19
I5
F0.125
S'first'
p527
I0
tp528
a(I20
I29
F0.125
S'first'
p529
I0
tp530
a(I22
I11
F0.125
S'first'
p531
I0
tp532
a(I37
I45
F0.125
S'first'
p533
I0
tp534
as(S'touch'
p535
S'screen'
p536
tp537
(lp538
(I3
I7
F0.125
S'first'
p539
I2
tp540
a(I3
I7
F0.5
S'touch'
p541
I2
tp542
a(I7
I1
F0.5
S'touch'
p543
I2
tp544
a(I11
I29
F0.5
S'touch'
p545
I2
tp546
a(I11
I31
F0.125
S'drunk'
p547
I2
tp548
a(I16
I51
F0.5
S'touch'
p549
I2
tp550
a(I16
I113
I0
S'sensitive'
p551
I2
tp552
a(I20
I13
F0.5
S'touch'
p553
I2
tp554
a(I20
I36
F0.5
S'touch'
p555
I2
tp556
a(I20
I49
F-0.375
S'small'
p557
I2
tp558
a(I22
I13
F0.5
S'touch'
p559
I2
tp560
a(I22
I48
F0.5
S'touch'
p561
I2
tp562
a(I25
I1
F1.0
S'best'
p563
I2
tp564
a(I25
I1
F0.25
S'responsive'
p565
I2
tp566
a(I30
I5
F0.5
S'touch'
p567
I2
tp568
a(I30
I11
F0.5
S'touch'
p569
I2
tp570
a(I33
I11
F0.5
S'touch'
p571
I2
tp572
a(I36
I51
I0
S'big'
p573
I2
tp574
as(S'hear'
p575
tp576
(lp577
(I22
I21
F-0.125
S'cant'
p578
I16
tp579
as.