(dp0
(S'free'
p1
S'wi'
p2
S'fi'
p3
tp4
(lp5
(I5
I15
F-0.625
S'free'
p6
I0
tp7
a(I5
I15
F-0.25
S'bubble'
p8
I0
tp9
a(I5
I64
F0.75
S'due'
p10
I0
tp11
a(I5
I15
F-0.625
g6
I0
tp12
a(I5
I15
F-0.25
g8
I0
tp13
a(I5
I64
F0.75
g10
I0
tp14
a(I5
I15
F-0.625
g6
I2
tp15
as(S'need'
p16
S'a'
p17
S'data'
p18
tp19
(lp20
(I5
I111
F-0.25
S'cheaper'
p21
I0
tp22
a(I1
I73
F1.0
S'best'
p23
I13
tp24
a(I4
I28
I0
S'next'
p25
I13
tp26
a(I5
I111
F-0.25
g21
I13
tp27
a(I5
I120
F-0.5
S'sure'
p28
I13
tp29
a(I5
I133
F0.5
S'expensive'
p30
I13
tp31
as(S'battery'
p32
tp33
(lp34
(I5
I7
F-0.25
S'low'
p35
I15
tp36
a(I5
I28
I0
S'plastic'
p37
I15
tp38
a(I5
I173
F0.375
S'new'
p39
I15
tp40
a(I6
I18
F1.0
S'good'
p41
I15
tp42
a(I7
I28
F-0.375
S'small'
p43
I15
tp44
as(S'keyboard'
p45
tp46
(lp47
(I1
I36
I0
S'most'
p48
I2
tp49
a(I4
I1
F0.875
S'nice'
p50
I2
tp51
a(I4
I4
I0
S'anymore'
p52
I2
tp53
a(I5
I46
F-0.375
S'pull'
p54
I2
tp55
a(I6
I18
I0
S'great'
p56
I2
tp57
as(S'top'
p58
S'right'
p59
tp60
(lp61
(I4
I35
F-0.375
S'top'
p62
I1
tp63
a(I4
I41
F-0.375
S'top'
p64
I1
tp65
a(I6
I29
F-0.375
S'top'
p66
I1
tp67
as(S'zune'
p68
tp69
(lp70
(I4
I46
I0
S'old'
p71
I0
tp72
a(I5
I88
F0.375
S'available'
p73
I0
tp74
as(g17
S'data'
p75
S'plan'
p76
tp77
(lp78
(I4
I28
I0
g25
I0
tp79
a(I5
I111
F-0.25
g21
I0
tp80
a(I5
I133
F0.5
g30
I0
tp81
a(I5
I133
F0.5
S'clear'
p82
I0
tp83
a(I5
I133
F0.625
S'easy'
p84
I0
tp85
a(I4
I28
I0
g25
I0
tp86
a(I5
I111
F-0.25
g21
I0
tp87
a(I5
I133
F0.5
g30
I0
tp88
a(I5
I133
F0.5
g82
I0
tp89
a(I5
I133
F0.625
g84
I0
tp90
as(S'smart'
p91
tp92
(lp93
(I1
I15
F1.0
S'good'
p94
I10
tp95
a(I4
I34
I0
S'most'
p96
I10
tp97
a(I4
I48
F-0.625
S'other'
p98
I10
tp99
a(I5
I33
F-0.5
S'sure'
p100
I10
tp101
a(I5
I43
F0.125
S'first'
p102
I10
tp103
a(I5
I119
F-0.5
S'actual'
p104
I10
tp105
as(S'text'
p106
tp107
(lp108
(I5
I22
F0.875
S'music'
p109
I18
tp110
a(I5
I172
F0.125
S'last'
p111
I18
tp112
as(S'wifi'
p113
tp114
(lp115
(I0
I34
I0
S'great'
p116
I0
tp117
a(I4
I90
F-0.625
S'free'
p118
I0
tp119
a(I7
I37
F1.0
S'good'
p120
I0
tp121
as(S'verizon'
p122
tp123
(lp124
(I0
I25
I0
S'update'
p125
I0
tp126
a(I1
I83
I0
S'anymore'
p127
I0
tp128
a(I5
I50
F-0.625
S'free'
p129
I0
tp130
as(S'email'
p131
tp132
(lp133
(I5
I113
F0.125
S'able'
p134
I5
tp135
a(I5
I113
I0
S'such'
p136
I5
tp137
a(I5
I117
I0
S'great'
p138
I5
tp139
a(I5
I117
I0
S'most'
p140
I5
tp141
a(I5
I117
F0.625
S'major'
p142
I5
tp143
as(S'internal'
p144
S'memory'
p145
tp146
(lp147
(I1
I22
I0
S'internal'
p148
I0
tp149
a(I1
I24
I0
S'internal'
p150
I0
tp151
a(I1
I24
I0
S'more'
p152
I0
tp153
a(I1
I24
I0
S'more'
p154
I0
tp155
a(I4
I32
I0
S'internal'
p156
I0
tp157
a(I4
I32
I0
S'close'
p158
I0
tp159
a(I5
I148
I0
S'internal'
p160
I0
tp161
a(I5
I148
F0.125
S'enough'
p162
I0
tp163
as(S'camera'
p164
tp165
(lp166
(I0
I7
I0
S'great'
p167
I1
tp168
a(I4
I1
F1.0
S'good'
p169
I1
tp170
a(I5
I116
I0
S'great'
p171
I1
tp172
a(I5
I124
F1.0
S'good'
p173
I1
tp174
a(I5
I133
F1.0
S'better'
p175
I1
tp176
a(I5
I153
F0.5
S'second'
p177
I1
tp178
as(S'touch'
p179
S'screen'
p180
tp181
(lp182
(I0
I7
F0.5
S'touch'
p183
I2
tp184
a(I0
I7
F1.0
S'good'
p185
I2
tp186
a(I1
I3
F0.625
S'easy'
p187
I2
tp188
a(I1
I3
F0.5
S'touch'
p189
I2
tp190
a(I4
I62
F0.5
S'touch'
p191
I2
tp192
a(I4
I107
F0.875
S'nice'
p193
I2
tp194
as.