(dp0
(S'innuendo'
p1
tp2
(lp3
(I3
I60
I0
S'updated'
p4
I0
tp5
a(I16
I106
I0
S'more'
p6
I0
tp7
a(I16
I106
F-0.25
S'potential'
p8
I0
tp9
a(I16
I106
F-0.25
S'cheaper'
p10
I0
tp11
a(I17
I19
F0.125
S'last'
p12
I0
tp13
as(S'battery'
p14
S'life'
p15
tp16
(lp17
(I8
I46
I0
S'next'
p18
I1
tp19
a(I8
I48
F-0.5
S'poor'
p20
I1
tp21
a(I3
I14
F0.25
S'tired'
p22
I15
tp23
a(I3
I63
I0
S'more'
p24
I15
tp25
a(I3
I64
F0.625
S'kinder'
p26
I15
tp27
a(I3
I64
I0
S'more'
p28
I15
tp29
a(I4
I12
I0
S'faster'
p30
I15
tp31
a(I16
I42
I0
S'full'
p32
I15
tp33
as(S'keyboard'
p34
tp35
(lp36
(I3
I25
I0
S'full'
p37
I2
tp38
a(I8
I129
I0
S'external'
p39
I2
tp40
a(I11
I5
F1.0
S'good'
p41
I2
tp42
a(I11
I5
I0
S'minimal'
p43
I2
tp44
a(I16
I63
F0.875
S'happy'
p45
I2
tp46
a(I16
I63
I0
S'physical'
p47
I2
tp48
a(I16
I97
I0
S'great'
p49
I2
tp50
a(I16
I103
I0
S'full'
p51
I2
tp52
a(I17
I29
F0.875
S'nice'
p53
I2
tp54
as(S'shrinkage'
p55
S'plan'
p56
tp57
(lp58
(I8
I160
F-0.25
S'cheaper'
p59
I0
tp60
a(I8
I160
F-0.25
S'cheaper'
p61
I0
tp62
as(S'boost'
p63
S'mobile'
p64
tp65
(lp66
(I3
I16
I0
S'mobile'
p67
I0
tp68
a(I3
I37
I0
S'old'
p69
I0
tp70
a(I3
I46
F0.125
S'last'
p71
I0
tp72
a(I3
I58
I0
S'website'
p73
I0
tp74
a(I4
I0
I0
S'local'
p75
I0
tp76
a(I10
I0
I0
S'great'
p77
I0
tp78
a(I3
I58
I0
g73
I0
tp79
a(I1
I3
I0
S'great'
p80
I0
tp81
a(I3
I16
I0
g67
I0
tp82
a(I3
I37
I0
g69
I0
tp83
a(I3
I46
F0.125
g71
I0
tp84
a(I4
I0
I0
g75
I0
tp85
a(I10
I0
I0
g77
I0
tp86
a(I13
I62
F1.0
S'best'
p87
I0
tp88
a(I16
I60
F0.875
S'happy'
p89
I0
tp90
as(S'facebook'
p91
S'app'
p92
tp93
(lp94
(I8
I28
I0
S'useful'
p95
I0
tp96
a(I10
I11
F1.0
S'good'
p97
I0
tp98
a(I16
I93
F1.0
S'good'
p99
I0
tp100
a(I10
I11
F1.0
g97
I0
tp101
as(S'voice'
p102
S'quality'
p103
tp104
(lp105
(I2
I2
F-0.5
S'poor'
p106
I0
tp107
a(I2
I15
F1.0
S'better'
p108
I0
tp109
a(I8
I151
F-0.5
S'poor'
p110
I0
tp111
as(S'camera'
p112
tp113
(lp114
(I12
I11
F0.875
S'nice'
p115
I1
tp116
as(S'prepaid'
p117
tp118
(lp119
(I3
I1
F0.5
S'expensive'
p120
I0
tp121
a(I3
I59
F0.375
S'reliable'
p122
I0
tp123
a(I3
I104
F-0.625
S'other'
p124
I0
tp125
a(I9
I11
F-0.625
S'other'
p126
I0
tp127
as(S'calls'
p128
tp129
(lp130
(I8
I159
F0.5
S'clear'
p131
I0
tp132
a(I8
I159
F0.625
S'easy'
p133
I0
tp134
a(I17
I45
F-0.5
S'answer'
p135
I0
tp136
as(S'front'
p137
tp138
(lp139
(I3
I9
I0
S'full'
p140
I14
tp141
a(I8
I157
F0.125
S'solid'
p142
I14
tp143
a(I8
I157
I0
S'blue'
p144
I14
tp145
as(S'web'
p146
S'browser'
p147
tp148
(lp149
(I3
I57
F-0.125
S'slow'
p150
I0
tp151
a(I13
I31
I0
S'file'
p152
I0
tp153
a(I13
I34
F-0.875
S'awful'
p154
I0
tp155
a(I16
I86
F0.125
S'capable'
p156
I0
tp157
as(S'much'
p158
S'better'
p159
tp160
(lp161
(I2
I6
F0.375
S'new'
p162
I9
tp163
a(I13
I35
F0.375
S'much'
p164
I9
tp165
a(I14
I17
F0.375
S'much'
p166
I9
tp167
as(S'bad'
p168
S'reviews'
p169
tp170
(lp171
(I9
I4
F-0.625
S'bad'
p172
I1
tp173
a(I10
I8
F-0.625
S'bad'
p174
I1
tp175
a(I17
I20
F-0.625
S'bad'
p176
I1
tp177
as(S'sanyo'
p178
tp179
(lp180
(I7
I0
I0
S'blue'
p181
I0
tp182
a(I14
I1
F0.125
S'first'
p183
I0
tp184
a(I14
I1
I0
S'user'
p185
I0
tp186
a(I14
I7
F0.75
S'give'
p187
I0
tp188
as(S'texting'
p189
tp190
(lp191
(I8
I37
F-0.5
S'intrusive'
p192
I0
tp193
a(I8
I98
I0
S'great'
p194
I0
tp195
a(I16
I98
F0.625
S'easy'
p196
I0
tp197
as(S'sound'
p198
S'quality'
p199
tp200
(lp201
(I4
I5
F1.0
S'best'
p202
I0
tp203
a(I10
I11
F1.0
S'good'
p204
I0
tp205
a(I11
I0
F1.0
S'good'
p206
I0
tp207
a(I10
I11
F1.0
g204
I7
tp208
a(I14
I18
F0.5
S'clearer'
p209
I7
tp210
as(S'touch'
p211
S'screen'
p212
tp213
(lp214
(I3
I44
F0.5
S'touch'
p215
I2
tp216
a(I3
I57
F0.5
S'touch'
p217
I2
tp218
a(I3
I72
F0.5
S'touch'
p219
I2
tp220
a(I4
I3
F0.25
S'suppose'
p221
I2
tp222
a(I4
I3
F0.5
S'touch'
p223
I2
tp224
a(I10
I5
F0.5
S'accurate'
p225
I2
tp226
a(I10
I5
F0.5
S'touch'
p227
I2
tp228
a(I13
I61
F0.5
S'touch'
p229
I2
tp230
as.