(dp0
(S'android'
p1
tp2
(lp3
(I2
I31
F-0.625
S'other'
p4
I0
tp5
a(I8
I4
I0
S'standard'
p6
I0
tp7
a(I10
I27
F0.875
S'music'
p8
I0
tp9
a(I10
I28
I0
S'great'
p10
I0
tp11
as(S'battery'
p12
S'life'
p13
tp14
(lp15
(I2
I50
F-0.25
S'low'
p16
I1
tp17
a(I8
I11
F0.125
S'last'
p18
I1
tp19
a(I2
I0
F0.375
S'new'
p20
I15
tp21
a(I2
I22
F0.125
S'last'
p22
I15
tp23
a(I2
I22
I0
S'more'
p24
I15
tp25
a(I6
I7
F0.375
S'new'
p26
I15
tp27
a(I7
I6
I0
S'charged'
p28
I15
tp29
a(I8
I8
I0
S'more'
p30
I15
tp31
a(I8
I8
F0.125
S'enough'
p32
I15
tp33
a(I9
I10
F-0.625
S'bad'
p34
I15
tp35
a(I14
I29
F-0.5
S'less'
p36
I15
tp37
as(S'muve'
p38
S'plan'
p39
tp40
(lp41
(I15
I14
F0.5
S'compatible'
p42
I0
tp43
a(I15
I33
F0.5
S'true'
p44
I0
tp45
a(I15
I34
F0.5
S'compatible'
p46
I0
tp47
a(I6
I2
F-0.5
S'long'
p48
I0
tp49
a(I6
I2
F0.5
S'live'
p50
I0
tp51
a(I15
I14
F0.5
g42
I0
tp52
as(S'memory'
p53
tp54
(lp55
(I6
I8
I0
S'awhile'
p56
I5
tp57
a(I6
I8
I0
S'full'
p58
I5
tp59
a(I6
I22
I0
S'internal'
p60
I5
tp61
a(I7
I13
F-0.375
S'small'
p62
I5
tp63
a(I11
I30
F0.25
S'bigger'
p64
I5
tp65
a(I11
I35
I0
S'limited'
p66
I5
tp67
a(I13
I6
I0
S'large'
p68
I5
tp69
as(S'cricket'
p70
tp71
(lp72
(I5
I6
I0
S'website'
p73
I0
tp74
a(I5
I12
F-0.75
S'unreliable'
p75
I0
tp76
a(I12
I15
F-0.625
S'other'
p77
I0
tp78
a(I14
I56
F-0.5
S'regular'
p79
I0
tp80
as(S'smartphone'
p81
tp82
(lp83
(I8
I3
F0.125
S'first'
p84
I0
tp85
a(I14
I64
F0.125
S'first'
p86
I0
tp87
a(I15
I32
F-0.5
S'regular'
p88
I0
tp89
as(S'text'
p90
tp91
(lp92
(I10
I3
F0.75
S'receive'
p93
I18
tp94
as(S'told'
p95
tp96
(lp97
(I1
I3
I0
S'real'
p98
I12
tp99
a(I1
I3
F1.0
S'good'
p100
I12
tp101
as(S'customer'
p102
S'service'
p103
tp104
(lp105
(I15
I33
F0.125
S'first'
p106
I3
tp107
a(I2
I49
F1.0
S'good'
p108
I16
tp109
a(I2
I49
I0
S'most'
p110
I16
tp111
a(I2
I93
F-0.625
S'bad'
p112
I16
tp113
a(I11
I14
I0
S'such'
p114
I16
tp115
a(I15
I9
F-0.25
S'cheaper'
p116
I16
tp117
a(I15
I17
F0.375
S'new'
p118
I11
tp119
a(I15
I33
F0.125
g106
I11
tp120
as(S'network'
p121
tp122
(lp123
(I5
I29
F-0.5
S'less'
p124
I0
tp125
as(S'internal'
p126
S'storage'
p127
tp128
(lp129
(I5
I18
I0
S'internal'
p130
I0
tp131
a(I5
I21
F-0.75
S'sufficient'
p132
I0
tp133
a(I5
I21
F0.375
S'available'
p134
I0
tp135
a(I5
I23
I0
S'internal'
p136
I0
tp137
a(I5
I27
I0
S'internal'
p138
I0
tp139
a(I5
I28
I0
S'internal'
p140
I0
tp141
a(I10
I13
I0
S'internal'
p142
I0
tp143
a(I5
I18
I0
g130
I1
tp144
a(I5
I21
F-0.75
g132
I1
tp145
a(I5
I21
F0.375
g134
I1
tp146
a(I5
I23
I0
g136
I1
tp147
a(I5
I27
I0
g138
I1
tp148
a(I5
I28
I0
g140
I1
tp149
a(I9
I35
F-0.25
S'low'
p150
I1
tp151
a(I10
I13
I0
g142
I1
tp152
a(I10
I14
F0.125
S'able'
p153
I1
tp154
a(I10
I14
F-0.125
S'delete'
p155
I1
tp156
as(S'apps'
p157
tp158
(lp159
(I2
I14
F-0.5
S'certain'
p160
I0
tp161
a(I2
I16
I0
S'great'
p162
I0
tp163
a(I5
I23
I0
S'most'
p164
I0
tp165
a(I5
I23
F0.625
S'major'
p166
I0
tp167
a(I5
I25
I0
S'many'
p168
I0
tp169
a(I6
I22
F0.125
S'enough'
p170
I0
tp171
a(I6
I28
I0
S'many'
p172
I0
tp173
a(I7
I13
I0
S'many'
p174
I0
tp175
a(I9
I26
F-0.5
S'certain'
p176
I0
tp177
a(I10
I13
I0
S'basic'
p178
I0
tp179
a(I14
I25
I0
S'few'
p180
I0
tp181
a(I14
I25
F-0.75
S'bloat'
p182
I0
tp183
as(S'samsung'
p184
tp185
(lp186
(I6
I46
I0
S'assemble'
p187
I7
tp188
a(I6
I47
F1.0
S'good'
p189
I7
tp190
a(I6
I53
F0.125
S'last'
p191
I7
tp192
a(I11
I29
F0.125
S'typical'
p193
I7
tp194
as(S'touch'
p195
S'screen'
p196
tp197
(lp198
(I1
I4
F0.125
S'first'
p199
I2
tp200
a(I2
I23
F0.5
S'touch'
p201
I2
tp202
a(I2
I92
I-100
S'prosconductive'
p203
I2
tp204
a(I8
I5
F0.5
S'touch'
p205
I2
tp206
a(I15
I43
F0.5
S'accurate'
p207
I2
tp208
as(S'muve'
p209
S'music'
p210
tp211
(lp212
(I6
I2
F-0.5
g48
I0
tp213
a(I6
I2
F0.5
g50
I0
tp214
a(I2
I14
F0.5
S'second'
p215
I0
tp216
a(I6
I0
F-0.625
S'free'
p217
I0
tp218
a(I6
I12
F0.375
S'much'
p219
I0
tp220
a(I7
I11
I0
S'great'
p221
I0
tp222
a(I10
I7
F-0.625
S'free'
p223
I0
tp224
as.