(dp0
(S'freezes'
p1
tp2
(lp3
(I42
I11
F-0.125
S'slow'
p4
I0
tp5
as(S'google'
p6
S'play'
p7
tp8
(lp9
(I17
I6
F0.625
S'add'
p10
I0
tp11
a(I17
I6
F0.625
g10
I4
tp12
a(I18
I61
I0
S'closing'
p13
I4
tp14
a(I35
I7
I-100
S'-lag'
p15
I4
tp16
as(S'battery'
p17
S'life'
p18
tp19
(lp20
(I2
I59
F0.125
S'last'
p21
I1
tp22
a(I14
I2
F1.0
S'good'
p23
I1
tp24
a(I14
I3
F0.75
S'due'
p25
I1
tp26
a(I25
I0
F1.0
S'good'
p27
I1
tp28
a(I28
I38
F1.0
S'good'
p29
I1
tp30
a(I2
I59
F0.125
g21
I19
tp31
a(I14
I2
F1.0
g23
I19
tp32
a(I14
I3
F0.75
g25
I19
tp33
a(I25
I0
F1.0
g27
I19
tp34
a(I28
I38
F1.0
g29
I19
tp35
a(I5
I14
F0.25
S'original'
p36
I15
tp37
a(I15
I17
F-0.75
S'invalid'
p38
I15
tp39
a(I15
I26
F-0.75
S'invalid'
p40
I15
tp41
a(I15
I42
F-0.75
S'invalid'
p42
I15
tp43
a(I18
I29
I0
S'internal'
p44
I15
tp45
a(I18
I87
F0.25
S'original'
p46
I15
tp47
a(I18
I87
F-0.625
S'other'
p48
I15
tp49
a(I18
I88
I0
S'different'
p50
I15
tp51
a(I21
I12
F-0.625
S'average'
p52
I15
tp53
a(I22
I8
F0.375
S'new'
p54
I15
tp55
a(I22
I22
F0.375
S'extra'
p56
I15
tp57
a(I22
I39
F-0.5
S'weak'
p58
I15
tp59
a(I23
I3
F-0.5
S'complaint'
p60
I15
tp61
a(I23
I3
F0.25
S'original'
p62
I15
tp63
a(I23
I5
F0.375
S'extended'
p64
I15
tp65
a(I27
I19
F0.375
S'extended'
p66
I15
tp67
a(I28
I1
F0.25
S'original'
p68
I15
tp69
a(I35
I1
F0.375
S'new'
p70
I15
tp71
a(I39
I6
F-0.625
S'bad'
p72
I15
tp73
a(I39
I7
F0.375
S'new'
p74
I15
tp75
a(I42
I3
F0.125
S'last'
p76
I15
tp77
a(I42
I56
F1.0
S'good'
p78
I15
tp79
a(I42
I65
F-0.75
S'dead'
p80
I15
tp81
as(S'a'
p82
S'dual'
p83
S'core'
p84
tp85
(lp86
(I42
I68
I0
S'least'
p87
I0
tp88
as(S'motorola'
p89
tp90
(lp91
(I0
I20
F-0.625
S'other'
p92
I0
tp93
a(I11
I13
I0
S'generic'
p94
I0
tp95
as(S'service'
p96
tp97
(lp98
(I18
I67
F-0.625
S'want'
p99
I16
tp100
a(I18
I71
I0
S'cellular'
p101
I16
tp102
a(I34
I32
F0.875
S'important'
p103
I16
tp104
a(I42
I53
I0
S'great'
p105
I16
tp106
as(S'original'
p107
S'droid'
p108
tp109
(lp110
(I18
I49
F0.25
S'original'
p111
I0
tp112
a(I18
I49
F0.25
S'original'
p113
I0
tp114
a(I22
I11
F0.25
S'original'
p115
I0
tp116
a(I28
I40
F0.25
S'original'
p117
I0
tp118
a(I28
I40
I0
S'lasted'
p119
I0
tp120
a(I28
I40
F0.25
S'original'
p121
I0
tp122
a(I44
I23
F0.25
S'original'
p123
I0
tp124
a(I2
I72
F0.375
S'new'
p125
I0
tp126
a(I3
I0
F0.5
S'expensive'
p127
I0
tp128
a(I11
I35
F0.125
S'last'
p129
I0
tp130
a(I11
I36
F0.375
S'new'
p131
I0
tp132
a(I11
I60
F0.125
S'first'
p133
I0
tp134
a(I18
I49
F0.25
g111
I0
tp135
a(I18
I49
F0.25
g113
I0
tp136
a(I18
I56
I0
S'more'
p137
I0
tp138
a(I18
I56
F0.875
S'happy'
p139
I0
tp140
a(I22
I11
F0.25
g115
I0
tp141
a(I28
I40
F0.25
g117
I0
tp142
a(I28
I40
I0
g119
I0
tp143
a(I28
I40
F0.25
g121
I0
tp144
a(I34
I15
I0
S'more'
p145
I0
tp146
a(I42
I107
F0.125
S'last'
p147
I0
tp148
a(I44
I23
F0.25
g123
I0
tp149
as(S'plus'
p150
tp151
(lp152
(I21
I24
F-0.75
S'little'
p153
I16
tp154
as(S'droid'
p155
S'x'
p156
tp157
(lp158
(I2
I72
F0.375
g125
I0
tp159
a(I3
I0
F0.5
g127
I0
tp160
a(I11
I35
F0.125
g129
I0
tp161
a(I11
I36
F0.375
g131
I0
tp162
a(I11
I60
F0.125
g133
I0
tp163
a(I18
I49
F0.25
g111
I0
tp164
a(I18
I49
F0.25
g113
I0
tp165
a(I18
I56
I0
g137
I0
tp166
a(I18
I56
F0.875
g139
I0
tp167
a(I28
I40
F0.25
g117
I0
tp168
a(I28
I40
I0
g119
I0
tp169
a(I28
I40
F0.25
g121
I0
tp170
a(I34
I15
I0
g145
I0
tp171
a(I44
I23
F0.25
g123
I0
tp172
as(S'few'
p173
S'months'
p174
tp175
(lp176
(I4
I20
I0
S'few'
p177
I5
tp178
a(I5
I0
I0
S'few'
p179
I5
tp180
a(I11
I36
I0
S'few'
p181
I5
tp182
as(S'verizon'
p183
tp184
(lp185
(I1
I3
I0
S'signal'
p186
I0
tp187
a(I1
I7
I0
S'local'
p188
I0
tp189
a(I2
I36
I0
S'current'
p190
I0
tp191
a(I5
I10
F0.5
S'willing'
p192
I0
tp193
a(I8
I5
F-0.75
S'unable'
p194
I0
tp195
a(I40
I1
F-0.125
S'overall'
p196
I0
tp197
a(I40
I1
F1.0
S'good'
p198
I0
tp199
a(I40
I1
F-0.625
S'glad'
p200
I0
tp201
a(I40
I1
F0.375
S'new'
p202
I0
tp203
a(I41
I2
F0.5
S'expensive'
p204
I0
tp205
as(S'sd'
p206
S'card'
p207
tp208
(lp209
(I2
I29
F0.375
S'new'
p210
I0
tp211
a(I2
I29
F-0.375
S'manual'
p212
I0
tp213
as(S'seller'
p214
tp215
(lp216
(I9
I2
I-100
S'want/needed'
p217
I19
tp218
a(I15
I22
I0
S'particular'
p219
I19
tp220
a(I28
I3
F-0.75
S'wrong'
p221
I19
tp222
a(I28
I7
I0
S'different'
p223
I19
tp224
a(I28
I43
F0.125
S'able'
p225
I19
tp226
a(I28
I44
F0.125
S'able'
p227
I19
tp228
as(S'android'
p229
tp230
(lp231
(I26
I8
I0
S'older'
p232
I0
tp233
a(I42
I39
I0
S'latest'
p234
I0
tp235
as(S'smart'
p236
tp237
(lp238
(I4
I10
F-0.25
S'cheapest'
p239
I10
tp240
a(I34
I0
F0.125
S'first'
p241
I10
tp242
a(I34
I5
I0
S'old'
p243
I10
tp244
a(I46
I2
I0
S'android'
p245
I10
tp246
as(S'brand'
p247
S'new'
p248
tp249
(lp250
(I7
I3
F0.375
S'new'
p251
I9
tp252
a(I9
I0
F0.375
S'new'
p253
I9
tp254
a(I11
I35
F0.375
S'new'
p255
I9
tp256
a(I22
I46
F0.375
S'new'
p257
I9
tp258
a(I28
I27
F0.375
S'new'
p259
I9
tp260
a(I32
I2
F0.375
S'new'
p261
I9
tp262
a(I32
I3
F0.375
S'new'
p263
I9
tp264
a(I32
I4
F0.375
S'new'
p265
I9
tp266
a(I42
I104
F0.375
S'new'
p267
I9
tp268
as(S'replacement'
p269
tp270
(lp271
(I21
I9
I0
S'third'
p272
I13
tp273
a(I21
I9
F0.5
S'second'
p274
I13
tp275
as(S'straight'
p276
S'talk'
p277
tp278
(lp279
(I26
I7
F0.625
S'straight'
p280
I0
tp281
as(S'amazon'
p282
tp283
(lp284
(I9
I6
F0.125
S'able'
p285
I13
tp286
a(I13
I5
F-0.75
S'little'
p287
I13
tp288
a(I13
I5
F0.5
S'possible'
p289
I13
tp290
a(I15
I22
F0.25
S'original'
p291
I13
tp292
a(I18
I36
F0.5
S'loyal'
p293
I13
tp294
a(I21
I8
F-0.125
S'mine'
p295
I13
tp296
a(I22
I10
F0.5
S'expensive'
p297
I13
tp298
a(I28
I8
F1.0
S'good'
p299
I13
tp300
a(I39
I7
I0
S'great'
p301
I13
tp302
as(S'signal'
p303
S'strength'
p304
tp305
(lp306
(I18
I55
I0
S'signal'
p307
I0
tp308
a(I22
I18
I0
S'signal'
p309
I0
tp310
as(S'megapixel'
p311
S'camera'
p312
tp313
(lp314
(I21
I15
I0
S'high'
p315
I0
tp316
a(I21
I14
I0
S'most'
p317
I1
tp318
a(I22
I1
I0
S'text'
p319
I1
tp320
a(I22
I2
I0
S'physical'
p321
I1
tp322
a(I42
I54
F1.0
S'good'
p323
I1
tp324
a(I42
I109
F0.25
S'sweet'
p325
I1
tp326
as(S'droid'
p327
S'x2'
p328
tp329
(lp330
(I2
I72
F0.375
g125
I0
tp331
a(I11
I36
F0.375
g131
I0
tp332
a(I18
I49
F0.25
g111
I0
tp333
a(I18
I49
F0.25
g113
I0
tp334
a(I18
I56
I0
g137
I0
tp335
a(I18
I56
F0.875
g139
I0
tp336
a(I28
I40
F0.25
g117
I0
tp337
a(I28
I40
I0
g119
I0
tp338
a(I28
I40
F0.25
g121
I0
tp339
a(I34
I15
I0
g145
I0
tp340
as(S'dual'
p341
S'core'
p342
S'processor'
p343
tp344
(lp345
(I42
I31
F1.0
S'good'
p346
I0
tp347
a(I42
I68
I0
g87
I0
tp348
a(I2
I6
F-0.625
S'bad'
p349
I0
tp350
a(I42
I31
F1.0
g346
I0
tp351
a(I2
I65
I0
S'most'
p352
I1
tp353
a(I2
I65
I0
S'current'
p354
I1
tp355
a(I42
I31
F1.0
g346
I1
tp356
a(I2
I6
F-0.625
g349
I3
tp357
a(I35
I11
F-0.75
S'single'
p358
I3
tp359
a(I42
I66
F-0.75
S'single'
p360
I3
tp361
a(I42
I68
I0
g87
I3
tp362
as(S'much'
p363
S'better'
p364
tp365
(lp366
(I2
I49
F0.375
S'much'
p367
I9
tp368
a(I18
I49
F0.375
S'much'
p369
I9
tp370
as(S'car'
p371
S'charger'
p372
tp373
(lp374
(I7
I3
F-0.625
S'free'
p375
I0
tp376
as(S'apps'
p377
tp378
(lp379
(I2
I68
F0.375
S'new'
p380
I0
tp381
a(I2
I69
F0.375
S'new'
p382
I0
tp383
a(I4
I18
I0
S'standard'
p384
I0
tp385
a(I7
I1
I0
S'many'
p386
I0
tp387
a(I9
I5
F0.375
S'improve'
p388
I0
tp389
a(I15
I40
F0.5
S'personal'
p390
I0
tp391
a(I21
I31
I0
S'more'
p392
I0
tp393
a(I22
I27
I0
S'most'
p394
I0
tp395
a(I41
I1
I0
S'extensive'
p396
I0
tp397
a(I42
I17
F0.5
S'compatible'
p398
I0
tp399
a(I42
I20
F0.375
S'available'
p400
I0
tp401
a(I42
I20
F-0.25
S'low'
p402
I0
tp403
a(I43
I11
F0.25
S'favorite'
p404
I0
tp405
a(I43
I11
F-0.667
S'incompatible'
p406
I0
tp407
a(I44
I17
I0
S'own'
p408
I0
tp409
as.