(dp0
(S'seller'
p1
tp2
(lp3
(I2
I24
F-0.75
S'untrustworthy'
p4
I19
tp5
a(I5
I10
F0.375
S'new'
p6
I19
tp7
a(I7
I10
I0
S'fast'
p8
I19
tp9
as(S'a'
p10
S'data'
p11
S'plan'
p12
tp13
(lp14
(I1
I23
I0
S'such'
p15
I0
tp16
a(I6
I13
F-0.625
S'want'
p17
I0
tp18
a(I1
I23
I0
g15
I0
tp19
a(I6
I13
F-0.625
g17
I0
tp20
a(I1
I23
I0
g15
I13
tp21
a(I6
I13
F-0.625
g17
I13
tp22
as.