(dp0
(S'battery'
p1
S'life'
p2
tp3
(lp4
(I2
I176
F0.875
S'nice'
p5
I1
tp6
a(I5
I144
F-0.625
S'bad'
p7
I1
tp8
a(I5
I183
F0.125
S'last'
p9
I1
tp10
a(I5
I210
F1.0
S'good'
p11
I1
tp12
a(I2
I176
F0.875
g5
I19
tp13
a(I5
I210
F1.0
g11
I19
tp14
a(I2
I19
I0
S'third'
p15
I15
tp16
a(I2
I21
F0.375
S'extended'
p17
I15
tp18
a(I5
I37
F-0.5
S'weak'
p19
I15
tp20
a(I5
I90
I0
S'standard'
p21
I15
tp22
a(I5
I141
F0.5
S'second'
p23
I15
tp24
a(I5
I144
F-0.625
g7
I15
tp25
a(I5
I183
F0.125
g9
I15
tp26
a(I5
I290
F0.375
S'extended'
p27
I15
tp28
a(I5
I326
F0.875
S'music'
p29
I15
tp30
as(S'a'
p31
S'dual'
p32
S'core'
p33
tp34
(lp35
(I1
I27
I0
S'punch'
p36
I0
tp37
a(I5
I22
F0.75
S'due'
p38
I0
tp39
a(I5
I216
F-0.75
S'single'
p40
I0
tp41
a(I5
I262
F-0.375
S'unacceptable'
p42
I0
tp43
as(S'android'
p44
tp45
(lp46
(I4
I105
F0.125
S'first'
p47
I0
tp48
a(I5
I120
I0
S'only'
p49
I0
tp50
a(I5
I293
F0.5
S'second'
p51
I0
tp52
a(I5
I373
F1.0
S'good'
p53
I0
tp54
as(S'keyboard'
p55
tp56
(lp57
(I3
I82
F1.0
S'better'
p58
I2
tp59
a(I3
I97
I0
S'more'
p60
I2
tp61
a(I3
I97
F0.25
S'responsive'
p62
I2
tp63
a(I3
I112
F0.875
S'nice'
p64
I2
tp65
a(I3
I113
I0
S'different'
p66
I2
tp67
a(I3
I127
F0.625
S'easy'
p68
I2
tp69
a(I4
I16
I0
S'fast'
p70
I2
tp71
a(I5
I237
F1.0
S'best'
p72
I2
tp73
a(I5
I238
F1.0
S'best'
p74
I2
tp75
a(I5
I295
F0.5
S'obvious'
p76
I2
tp77
as(S'email'
p78
tp79
(lp80
(I5
I365
I0
S'corporate'
p81
I5
tp82
as(S'motorola'
p83
tp84
(lp85
(I2
I150
F0.25
S'original'
p86
I0
tp87
a(I5
I191
F0.25
S'original'
p88
I0
tp89
as(S'faster'
p90
tp91
(lp92
(I2
I163
I0
S'different'
p93
I7
tp94
a(I4
I70
I0
S'same'
p95
I7
tp96
a(I4
I70
F0.375
S'much'
p97
I7
tp98
as(S'call'
p99
S'quality'
p100
tp101
(lp102
(I3
I87
F-0.5
S'call'
p103
I0
tp104
a(I4
I114
F-0.625
S'intolerable'
p105
I0
tp106
a(I4
I114
F1.0
S'best'
p107
I0
tp108
a(I5
I1
F1.0
S'good'
p109
I0
tp110
a(I5
I229
I0
S'great'
p111
I0
tp112
as(S'stand'
p113
S'alone'
p114
tp115
(lp116
(I5
I44
F1.0
S'better'
p117
I0
tp118
a(I5
I109
I0
S'many'
p119
I0
tp120
a(I5
I109
F0.5
S'comparable'
p121
I0
tp122
as(S'iphone'
p123
tp124
(lp125
(I1
I116
F1.0
S'good'
p126
I1
tp127
a(I4
I88
F-0.875
S'worst'
p128
I1
tp129
a(I5
I12
F0.75
S'worth'
p130
I1
tp131
a(I5
I143
I0
S'wish'
p132
I1
tp133
a(I5
I162
I0
S'great'
p134
I1
tp135
a(I5
I225
F1.0
S'better'
p136
I1
tp137
as(S'front'
p138
S'facing'
p139
S'camera'
p140
tp141
(lp142
(I4
I87
F0.625
S'kind'
p143
I0
tp144
a(I4
I87
F0.625
g143
I0
tp145
a(I5
I129
I0
S'large'
p146
I14
tp147
a(I5
I129
F0.5
S'flat'
p148
I14
tp149
a(I5
I129
F0.625
S'easy'
p150
I14
tp151
a(I1
I35
I0
S'standard'
p152
I1
tp153
a(I1
I83
I0
S'different'
p154
I1
tp155
a(I2
I9
I0
S'physical'
p156
I1
tp157
a(I2
I46
F1.0
S'good'
p158
I1
tp159
a(I2
I185
I0
S'great'
p160
I1
tp161
a(I2
I185
I0
S'touted'
p162
I1
tp163
a(I4
I23
F-0.875
S'awful'
p164
I1
tp165
a(I4
I87
F0.625
g143
I1
tp166
a(I5
I21
F0.125
S'impressive'
p167
I1
tp168
as(S'speed'
p169
tp170
(lp171
(I5
I114
F-0.625
S'other'
p172
I9
tp173
a(I5
I114
F0.375
S'similar'
p174
I9
tp175
a(I5
I263
F0.125
S'practical'
p176
I9
tp177
a(I5
I287
F0.875
S'nice'
p178
I9
tp179
as(S'verizon'
p180
tp181
(lp182
(I2
I85
I0
S'southwest'
p183
I0
tp184
a(I5
I293
F0.125
S'first'
p185
I0
tp186
as(S'wifi'
p187
tp188
(lp189
(I2
I47
I0
S'more'
p190
I0
tp191
a(I5
I119
I0
S'great'
p192
I0
tp193
a(I5
I155
I0
S'same'
p194
I0
tp195
a(I5
I304
F0.375
S'available'
p196
I0
tp197
as(S'droid'
p198
S'x2'
p199
tp200
(lp201
(I1
I18
F0.25
S'original'
p202
I0
tp203
a(I3
I52
F0.375
S'new'
p204
I0
tp205
a(I3
I54
F0.125
S'solid'
p206
I0
tp207
a(I3
I95
F0.125
S'first'
p208
I0
tp209
a(I3
I95
F-0.25
S'disappointed'
p210
I0
tp211
a(I3
I95
F0.25
S'original'
p212
I0
tp213
a(I3
I96
F0.375
S'new'
p214
I0
tp215
a(I3
I97
F0.375
S'new'
p216
I0
tp217
a(I4
I30
F0.375
S'new'
p218
I0
tp219
a(I4
I124
F0.375
S'new'
p220
I0
tp221
a(I4
I125
F0.375
S'new'
p222
I0
tp223
a(I5
I11
F-0.125
S'overall'
p224
I0
tp225
a(I5
I384
F-0.125
S'overall'
p226
I0
tp227
a(I5
I394
F1.0
S'better'
p228
I0
tp229
a(I5
I394
F-0.75
S'brighter'
p230
I0
tp231
a(I5
I404
I0
S'faster'
p232
I0
tp233
as(S'upgrade'
p234
tp235
(lp236
(I1
I50
F0.625
S'easy'
p237
I3
tp238
a(I1
I66
F-0.625
S'want'
p239
I3
tp240
a(I1
I88
F0.125
S'first'
p241
I3
tp242
a(I1
I92
F0.375
S'new'
p243
I3
tp244
a(I1
I92
F-0.75
S'worse'
p245
I3
tp246
a(I2
I81
I0
S'android'
p247
I3
tp248
a(I2
I146
F0.75
S'due'
p249
I3
tp250
a(I2
I155
F0.75
S'due'
p251
I3
tp252
as(S'dual'
p253
S'core'
p254
S'processor'
p255
tp256
(lp257
(I5
I22
F0.75
g38
I0
tp258
a(I5
I216
F0.125
S'first'
p259
I0
tp260
a(I5
I216
F-0.75
g40
I0
tp261
a(I1
I27
I0
g36
I0
tp262
a(I5
I22
F0.75
g38
I0
tp263
a(I5
I216
F-0.75
g40
I0
tp264
a(I5
I262
F-0.375
g42
I0
tp265
a(I5
I22
F0.75
g38
I0
tp266
a(I5
I216
F0.125
g259
I0
tp267
a(I5
I216
F-0.75
g40
I0
tp268
a(I5
I216
F0.125
g259
I1
tp269
a(I1
I27
I0
g36
I3
tp270
a(I5
I22
F0.75
g38
I3
tp271
a(I5
I216
F-0.75
g40
I3
tp272
a(I5
I262
F-0.375
g42
I3
tp273
a(I5
I263
F-0.75
S'single'
p274
I3
tp275
a(I5
I323
F-0.75
S'single'
p276
I3
tp277
as(S'form'
p278
S'factor'
p279
tp280
(lp281
(I2
I4
F0.875
S'nice'
p282
I1
tp283
a(I2
I10
I0
S'same'
p284
I1
tp285
a(I5
I185
F0.875
S'nice'
p286
I1
tp287
as(S'text'
p288
S'messages'
p289
tp290
(lp291
(I5
I265
I0
S'most'
p292
I0
tp293
a(I5
I265
I0
S'text'
p294
I0
tp295
a(I1
I23
F1.0
S'good'
p296
I18
tp297
a(I1
I23
I0
S'great'
p298
I18
tp299
a(I5
I360
F0.125
S'received'
p300
I18
tp301
as(S'music'
p302
tp303
(lp304
(I2
I29
I0
S'blast'
p305
I0
tp306
as(S'original'
p307
S'droid'
p308
S'x'
p309
tp310
(lp311
(I1
I18
F0.25
g202
I0
tp312
a(I3
I95
F0.25
g212
I0
tp313
a(I4
I59
F0.25
S'original'
p314
I0
tp315
a(I4
I137
F0.25
S'original'
p316
I0
tp317
a(I5
I112
F0.25
S'original'
p318
I0
tp319
a(I5
I245
F0.25
S'original'
p320
I0
tp321
a(I5
I245
F0.25
S'original'
p322
I0
tp323
a(I1
I18
F0.25
g202
I0
tp324
a(I1
I32
F0.25
S'original'
p325
I0
tp326
a(I3
I53
F0.25
S'original'
p327
I0
tp328
a(I3
I95
F0.25
g212
I0
tp329
a(I4
I59
F0.25
g314
I0
tp330
a(I4
I137
F0.25
g316
I0
tp331
a(I5
I112
F0.25
g318
I0
tp332
a(I5
I245
F0.25
g320
I0
tp333
a(I5
I245
F0.25
g322
I0
tp334
a(I1
I18
F0.25
g202
I0
tp335
a(I3
I52
F0.375
g204
I0
tp336
a(I3
I54
F0.125
g206
I0
tp337
a(I3
I94
I0
S'old'
p338
I0
tp339
a(I3
I95
F0.25
g212
I0
tp340
a(I3
I97
F0.375
g216
I0
tp341
a(I4
I30
F0.375
g218
I0
tp342
a(I4
I59
F0.25
g314
I0
tp343
a(I4
I124
F0.375
g220
I0
tp344
a(I4
I125
F0.375
g222
I0
tp345
a(I4
I137
F0.25
g316
I0
tp346
a(I5
I11
F-0.125
g224
I0
tp347
a(I5
I112
F0.25
g318
I0
tp348
a(I5
I245
F0.25
g320
I0
tp349
a(I5
I245
F0.25
g322
I0
tp350
a(I1
I18
F0.25
g202
I0
tp351
a(I1
I32
F0.25
g325
I0
tp352
a(I1
I57
I0
S'old'
p353
I0
tp354
a(I3
I52
F0.375
g204
I0
tp355
a(I3
I53
F0.25
g327
I0
tp356
a(I3
I54
F0.125
g206
I0
tp357
a(I3
I59
F-0.25
S'thinner'
p358
I0
tp359
a(I3
I59
F-0.625
S'lighter'
p360
I0
tp361
a(I3
I59
I0
S'old'
p362
I0
tp363
a(I3
I64
I0
S'old'
p364
I0
tp365
a(I3
I69
I0
S'old'
p366
I0
tp367
a(I3
I81
I0
S'old'
p368
I0
tp369
a(I3
I86
F-0.375
S'smaller'
p370
I0
tp371
a(I3
I94
I0
g338
I0
tp372
a(I3
I95
F0.25
g212
I0
tp373
a(I3
I97
F0.375
g216
I0
tp374
a(I4
I30
F0.375
g218
I0
tp375
a(I4
I59
F0.25
g314
I0
tp376
a(I4
I124
F0.375
g220
I0
tp377
a(I4
I125
F0.375
g222
I0
tp378
a(I4
I137
F0.25
g316
I0
tp379
a(I4
I141
F0.125
S'first'
p380
I0
tp381
a(I5
I11
F-0.125
g224
I0
tp382
a(I5
I112
F0.25
g318
I0
tp383
a(I5
I244
I0
S'third'
p384
I0
tp385
a(I5
I245
F0.25
g320
I0
tp386
a(I5
I245
F0.25
g322
I0
tp387
as(S'sd'
p388
S'card'
p389
tp390
(lp391
(I2
I32
I0
S'fourth'
p392
I0
tp393
a(I4
I160
F0.875
S'music'
p394
I0
tp395
a(I5
I336
I0
S'external'
p396
I0
tp397
as(S'higher'
p398
S'resolution'
p399
tp400
(lp401
(I5
I217
F-0.25
S'higher'
p402
I0
tp403
a(I5
I272
F-0.25
S'higher'
p404
I0
tp405
a(I5
I286
F-0.25
S'higher'
p406
I0
tp407
as(S'data'
p408
tp409
(lp410
(I3
I49
I0
S'great'
p411
I13
tp412
a(I5
I304
I0
S'mobile'
p413
I13
tp414
as(S'much'
p415
S'better'
p416
tp417
(lp418
(I4
I111
F0.375
S'much'
p419
I9
tp420
a(I4
I112
F0.375
S'much'
p421
I9
tp422
a(I5
I272
F0.375
S'much'
p423
I9
tp424
as(S'mobile'
p425
S'hot-spot'
p426
tp427
(lp428
(I4
I99
I0
S'mobile'
p429
I0
tp430
as(S'in'
p431
S'car'
p432
S'dock'
p433
tp434
(lp435
(I5
I221
F-0.375
S'manual'
p436
I0
tp437
a(I5
I221
F-0.375
g436
I0
tp438
a(I5
I221
F-0.375
g436
I2
tp439
as(S'running'
p440
tp441
(lp442
(I5
I344
F0.5
S'possible'
p443
I8
tp444
a(I5
I344
I0
S'high'
p445
I8
tp446
as(S'internal'
p447
S'storage'
p448
tp449
(lp450
(I1
I55
I0
S'internal'
p451
I0
tp452
a(I1
I55
I0
S'general'
p453
I0
tp454
a(I3
I95
I0
S'internal'
p455
I0
tp456
a(I3
I114
I0
S'most'
p457
I0
tp458
a(I4
I16
I0
S'internal'
p459
I0
tp460
a(I5
I5
I0
S'internal'
p461
I0
tp462
a(I5
I6
I0
S'internal'
p463
I0
tp464
a(I5
I6
F-0.75
S'difficult'
p465
I0
tp466
a(I1
I55
I0
g451
I1
tp467
a(I1
I55
I0
g453
I1
tp468
a(I3
I95
I0
g455
I1
tp469
a(I3
I114
I0
g457
I1
tp470
a(I4
I16
I0
g459
I1
tp471
a(I5
I5
I0
g461
I1
tp472
a(I5
I6
I0
g463
I1
tp473
a(I5
I6
F-0.75
g465
I1
tp474
as(S'apps'
p475
tp476
(lp477
(I2
I55
F-0.625
S'other'
p478
I0
tp479
a(I2
I55
F1.0
S'better'
p480
I0
tp481
a(I2
I67
F0.625
S'kind'
p482
I0
tp483
a(I2
I67
I0
S'basic'
p484
I0
tp485
a(I3
I120
I0
S'wish'
p486
I0
tp487
a(I3
I120
I0
S'many'
p488
I0
tp489
a(I3
I121
I0
S'few'
p490
I0
tp491
a(I3
I121
F0.375
S'new'
p492
I0
tp493
a(I4
I10
I0
S'many'
p494
I0
tp495
a(I4
I10
I0
S'great'
p496
I0
tp497
a(I4
I21
I0
S'great'
p498
I0
tp499
a(I5
I64
I0
S'common'
p500
I0
tp501
a(I5
I91
I0
S'such'
p502
I0
tp503
a(I5
I160
I0
S'most'
p504
I0
tp505
a(I5
I270
I0
S'same'
p506
I0
tp507
a(I5
I356
F-0.5
S'open'
p508
I0
tp509
as(S'internal'
p510
S'memory'
p511
tp512
(lp513
(I3
I97
I0
S'internal'
p514
I0
tp515
a(I3
I97
I0
S'external'
p516
I0
tp517
a(I5
I23
I0
S'internal'
p518
I0
tp519
a(I5
I186
I0
S'internal'
p520
I0
tp521
a(I5
I195
I0
S'internal'
p522
I0
tp523
a(I5
I336
I0
S'internal'
p524
I0
tp525
as(S'google'
p526
S'maps'
p527
tp528
(lp529
(I2
I36
I0
S'song'
p530
I1
tp531
a(I5
I175
F-0.5
S'regular'
p532
I1
tp533
a(I1
I111
I0
S'next'
p534
I4
tp535
a(I4
I47
I0
S'few'
p536
I4
tp537
a(I5
I175
F-0.5
g532
I4
tp538
as(S'touch'
p539
S'screen'
p540
tp541
(lp542
(I3
I47
F0.5
S'touch'
p543
I2
tp544
a(I4
I74
F0.5
S'touch'
p545
I2
tp546
a(I5
I207
I0
S'fourth'
p547
I2
tp548
a(I5
I298
I0
S'large'
p549
I2
tp550
a(I5
I298
F-0.75
S'bright'
p551
I2
tp552
as.