(dp0
(S'battery'
p1
S'life'
p2
tp3
(lp4
(I5
I51
F-0.5
S'poor'
p5
I1
tp6
a(I9
I17
F-0.75
S'short'
p7
I1
tp8
a(I9
I19
F1.0
S'better'
p9
I1
tp10
a(I15
I6
I0
S'same'
p11
I1
tp12
a(I15
I38
F-0.75
S'short'
p13
I1
tp14
a(I5
I51
F-0.5
g5
I19
tp15
a(I9
I17
F-0.75
g7
I19
tp16
a(I14
I12
F-0.5
S'less'
p17
I19
tp18
a(I15
I38
F-0.75
g13
I19
tp19
a(I2
I42
I0
S'embedded'
p20
I15
tp21
a(I8
I7
F0.5
S'second'
p22
I15
tp23
a(I8
I7
F0.625
S'replaceable'
p24
I15
tp25
a(I9
I19
F1.0
g9
I15
tp26
a(I12
I127
F1.0
S'better'
p27
I15
tp28
a(I12
I138
F0.25
S'larger'
p29
I15
tp30
a(I12
I161
F0.25
S'portable'
p31
I15
tp32
a(I12
I161
I0
S'external'
p33
I15
tp34
a(I12
I164
I0
S'more'
p35
I15
tp36
a(I15
I6
I0
g11
I15
tp37
a(I15
I82
F-0.625
S'bad'
p38
I15
tp39
a(I15
I92
I0
S'quick'
p40
I15
tp41
a(I15
I141
F-0.75
S'unable'
p42
I15
tp43
a(I16
I9
F0.25
S'original'
p44
I15
tp45
as(S'motorola'
p46
tp47
(lp48
(I2
I41
F-0.75
S'sick'
p49
I0
tp50
a(I12
I74
I0
S'different'
p51
I0
tp52
as(S'camera'
p53
tp54
(lp55
(I5
I57
I0
S'great'
p56
I1
tp57
a(I12
I80
F-0.375
S'double'
p58
I1
tp59
a(I12
I119
F-0.625
S'bad'
p60
I1
tp61
a(I12
I127
F1.0
S'good'
p62
I1
tp63
a(I15
I29
F1.0
S'good'
p64
I1
tp65
a(I15
I188
F0.875
S'nice'
p66
I1
tp67
as(S'gorilla'
p68
S'glass'
p69
tp70
(lp71
(I12
I124
F-0.5
S'flimsier'
p72
I0
tp73
a(I12
I124
F-0.5
g72
I9
tp74
a(I12
I169
I0
S'full'
p75
I9
tp76
as(S'droid'
p77
tp78
(lp79
(I12
I38
I0
S'signal'
p80
I0
tp81
a(I12
I87
F0.375
S'new'
p82
I0
tp83
as(S'signal'
p84
tp85
(lp86
(I15
I11
F1.0
S'good'
p87
I1
tp88
as(S'verizon'
p89
tp90
(lp91
(I15
I116
F-0.625
S'other'
p92
I0
tp93
a(I15
I116
F0.125
S'solid'
p94
I0
tp95
as(S'razr'
p96
tp97
(lp98
(I9
I0
F0.25
S'original'
p99
I0
tp100
a(I12
I15
F0.125
S'last'
p101
I0
tp102
a(I12
I140
F0.375
S'extra'
p103
I0
tp104
a(I12
I140
F-0.75
S'tough'
p105
I0
tp106
a(I12
I157
F0.25
S'bigger'
p107
I0
tp108
a(I15
I175
I0
S'more'
p109
I0
tp110
a(I15
I175
F0.625
S'noticeable'
p111
I0
tp112
as(S'android'
p113
tp114
(lp115
(I7
I0
I0
S'basic'
p116
I0
tp117
a(I8
I6
F-0.625
S'other'
p118
I0
tp119
a(I9
I37
F0.375
S'newer'
p120
I0
tp121
a(I15
I165
F0.125
S'first'
p122
I0
tp123
as(S'upgrade'
p124
tp125
(lp126
(I0
I16
F0.375
S'much'
p127
I3
tp128
a(I0
I16
F0.875
S'important'
p129
I3
tp130
as(S'calls'
p131
tp132
(lp133
(I9
I9
I0
S'signal'
p134
I0
tp135
a(I14
I5
F0.125
S'enough'
p136
I0
tp137
as(S'sim'
p138
S'card'
p139
tp140
(lp141
(I5
I21
F0.125
S'first'
p142
I0
tp143
as(S'music'
p144
tp145
(lp146
(I15
I73
I0
S'multiple'
p147
I0
tp148
as(S'warranty'
p149
tp150
(lp151
(I2
I2
I0
S'local'
p152
I2
tp153
a(I12
I18
F0.5
S'expensive'
p154
I2
tp155
as(S'smart'
p156
S'actions'
p157
tp158
(lp159
(I2
I63
I0
S'cool'
p160
I0
tp161
a(I12
I72
F0.125
S'first'
p162
I10
tp163
a(I14
I20
F-0.625
S'other'
p164
I10
tp165
a(I15
I101
F0.125
S'first'
p166
I10
tp167
as(S'micro'
p168
S'sim'
p169
tp170
(lp171
(I11
I30
F-0.5
S'regular'
p172
I0
tp173
as(S'pocket'
p174
tp175
(lp176
(I12
I163
F0.625
S'easier'
p177
I17
tp178
as(S'wifi'
p179
tp180
(lp181
(I12
I122
F-0.5
S'weak'
p182
I0
tp183
as(S'apps'
p184
tp185
(lp186
(I12
I25
I0
S'useful'
p187
I0
tp188
a(I15
I18
I0
S'few'
p189
I0
tp190
as(S'amazon'
p191
tp192
(lp193
(I5
I20
F1.0
S'good'
p194
I13
tp195
a(I8
I11
F0.875
S'happy'
p196
I13
tp197
as.