(dp0
(S'seller'
p1
tp2
(lp3
(I14
I6
I0
S'different'
p4
I19
tp5
a(I39
I46
I0
S'same'
p6
I19
tp7
a(I39
I49
I0
S'site'
p8
I19
tp9
as(S'blackberry'
p10
tp11
(lp12
(I9
I4
F0.375
S'new'
p13
I1
tp14
a(I35
I2
F-0.25
S'ready'
p15
I1
tp16
a(I39
I60
F0.5
S'loyal'
p17
I1
tp18
a(I39
I68
F0.125
S'able'
p19
I1
tp20
a(I39
I84
F0.25
S'original'
p21
I1
tp22
a(I48
I23
F0.125
S'last'
p23
I1
tp24
a(I50
I9
F0.375
S'new'
p25
I1
tp26
as(S'keyboard'
p27
tp28
(lp29
(I35
I1
F1.0
S'good'
p30
I2
tp31
as(S'un'
p32
S'tel'
p33
tp34
(lp35
(I6
I20
I0
S'ese'
p36
I0
tp37
as(S'thanks'
p38
tp39
(lp40
(I14
I12
F0.375
S'complete'
p41
I12
tp42
a(I19
I0
I0
S'great'
p43
I12
tp44
a(I48
I7
I0
S'big'
p45
I12
tp46
as(S'torch'
p47
tp48
(lp49
(I10
I29
F0.5
S'second'
p50
I0
tp51
a(I10
I29
I0
S'same'
p52
I0
tp53
a(I10
I29
F0.125
S'first'
p54
I0
tp55
a(I33
I8
F1.0
S'good'
p56
I0
tp57
as(S'tel'
p58
S'eacute'
p59
S'fono'
p60
tp61
(lp62
(I6
I20
I0
g36
I0
tp63
a(I6
I20
I0
g36
I0
tp64
as(S'sim'
p65
S'card'
p66
tp67
(lp68
(I6
I32
F-0.25
S'ready'
p69
I0
tp70
as(S'amazon'
p71
tp72
(lp73
(I10
I18
F0.375
S'new'
p74
I13
tp75
a(I10
I18
F-0.625
S'other'
p76
I13
tp77
as(S'new'
p78
S'battery'
p79
tp80
(lp81
(I2
I16
F0.375
S'new'
p82
I1
tp83
a(I2
I16
F0.125
S'first'
p84
I1
tp85
a(I6
I7
F0.375
S'new'
p86
I1
tp87
a(I9
I3
F0.375
S'new'
p88
I1
tp89
a(I39
I48
F0.375
S'new'
p90
I1
tp91
a(I49
I1
F0.25
S'original'
p92
I1
tp93
a(I49
I1
F0.375
S'new'
p94
I1
tp95
a(I49
I2
F0.375
S'new'
p96
I1
tp97
a(I2
I16
F0.375
g82
I15
tp98
a(I2
I16
F0.125
g84
I15
tp99
a(I2
I19
F0.5
S'possible'
p100
I15
tp101
a(I6
I7
F0.375
g86
I15
tp102
a(I9
I3
F0.375
g88
I15
tp103
a(I34
I10
F1.0
S'better'
p104
I15
tp105
a(I39
I40
F0.5
S'second'
p106
I15
tp107
a(I39
I48
F0.375
g90
I15
tp108
a(I42
I5
F0.125
S'last'
p109
I15
tp110
a(I49
I1
F0.25
g92
I15
tp111
a(I49
I1
F0.375
g94
I15
tp112
a(I49
I2
F0.375
g96
I15
tp113
as(S'touch'
p114
S'screen'
p115
tp116
(lp117
(I10
I6
F0.5
S'touch'
p118
I2
tp119
a(I26
I0
F0.5
S'touch'
p120
I2
tp121
a(I28
I1
F0.5
S'touch'
p122
I2
tp123
a(I28
I7
F0.5
S'touch'
p124
I2
tp125
a(I28
I9
F0.5
S'touch'
p126
I2
tp127
a(I39
I33
I0
S'great'
p128
I2
tp129
a(I47
I3
I0
S'keypad'
p130
I2
tp131
a(I47
I3
F0.5
S'touch'
p132
I2
tp133
a(I49
I19
F0.5
S'touch'
p134
I2
tp135
as.