(dp0
(S'screen'
p1
S'size'
p2
tp3
(lp4
(I4
I3
F0.25
S'bigger'
p5
I3
tp6
a(I4
I23
F-0.125
S'overall'
p7
I3
tp8
a(I4
I23
F0.875
S'nice'
p9
I3
tp10
a(I8
I6
I0
S'same'
p11
I3
tp12
as(S'seller'
p13
tp14
(lp15
(I19
I4
F0.25
S'responsive'
p16
I19
tp17
as(S'iphone'
p18
tp19
(lp20
(I2
I6
I0
S'sleek'
p21
I1
tp22
a(I20
I14
F0.25
S'responsive'
p23
I1
tp24
as(S'battery'
p25
S'life'
p26
tp27
(lp28
(I24
I2
F-0.625
S'bad'
p29
I1
tp30
a(I24
I23
F1.0
S'good'
p31
I1
tp32
a(I4
I4
I0
S'most'
p33
I15
tp34
a(I8
I0
F-0.5
S'longer'
p35
I15
tp36
a(I11
I13
F-0.625
S'light'
p37
I15
tp38
a(I14
I42
I0
S'many'
p39
I15
tp40
a(I18
I27
F-0.375
S'small'
p41
I15
tp42
a(I24
I2
F-0.625
g29
I15
tp43
a(I24
I4
F-0.375
S'small'
p44
I15
tp45
a(I24
I14
I0
S'great'
p46
I15
tp47
a(I24
I23
F1.0
g31
I15
tp48
as(S'samsung'
p49
S'infuse'
p50
tp51
(lp52
(I7
I18
I0
S'fast'
p53
I0
tp54
a(I7
I18
I0
S'android'
p55
I0
tp56
a(I11
I22
F0.5
S'touch'
p57
I0
tp58
a(I24
I47
F0.125
S'first'
p59
I0
tp60
a(I25
I16
I0
S'only'
p61
I0
tp62
a(I8
I39
F0.25
S'bigger'
p63
I7
tp64
a(I8
I45
F-0.375
S'top'
p65
I7
tp66
a(I16
I6
F1.0
S'best'
p67
I7
tp68
a(I24
I47
F0.125
g59
I7
tp69
a(I25
I16
I0
g61
I7
tp70
a(I0
I19
F0.875
S'happy'
p71
I1
tp72
a(I7
I18
I0
g53
I1
tp73
a(I7
I18
I0
g55
I1
tp74
a(I11
I22
F0.5
g57
I1
tp75
a(I15
I15
I0
S'old'
p76
I1
tp77
a(I15
I15
I0
S'big'
p78
I1
tp79
a(I23
I0
I0
S'old'
p80
I1
tp81
a(I24
I18
F0.25
S'powerful'
p82
I1
tp83
a(I24
I23
F0.875
S'music'
p84
I1
tp85
a(I24
I23
F0.5
S'recommend'
p86
I1
tp87
a(I24
I23
F0.75
S'due'
p88
I1
tp89
as(S'smartphone'
p90
tp91
(lp92
(I0
I5
I0
S'fast'
p93
I0
tp94
a(I0
I5
I0
S'basic'
p95
I0
tp96
a(I11
I33
F-0.5
S'actual'
p97
I0
tp98
a(I15
I3
I0
S'great'
p99
I0
tp100
a(I16
I5
F1.0
S'good'
p101
I0
tp102
a(I24
I5
F0.375
S'reliable'
p103
I0
tp104
a(I24
I5
I0
S'more'
p105
I0
tp106
as(S'galaxy'
p107
tp108
(lp109
(I8
I0
I0
S'same'
p110
I0
tp111
a(I20
I1
F0.375
S'new'
p112
I0
tp113
as(S'brand'
p114
S'new'
p115
tp116
(lp117
(I10
I6
F0.375
S'new'
p118
I9
tp119
a(I11
I10
F0.375
S'new'
p120
I9
tp121
a(I16
I7
F0.375
S'new'
p122
I9
tp123
a(I18
I21
F0.375
S'new'
p124
I9
tp125
a(I18
I31
F0.375
S'new'
p126
I9
tp127
as(S'gingerbread'
p128
tp129
(lp130
(I24
I2
F0.25
S'recent'
p131
I0
tp132
as(S'apps'
p133
tp134
(lp135
(I14
I42
I0
S'many'
p136
I0
tp137
a(I15
I6
I0
S'many'
p138
I0
tp139
a(I24
I61
I0
S'same'
p140
I0
tp141
as(S'camera'
p142
tp143
(lp144
(I1
I31
F1.0
S'good'
p145
I1
tp146
a(I4
I44
I0
S'great'
p147
I1
tp148
a(I11
I34
I0
S'great'
p149
I1
tp150
as(S'single'
p151
S'core'
p152
tp153
(lp154
(I0
I4
F-0.75
S'single'
p155
I0
tp156
a(I18
I8
I0
S'quad'
p157
I0
tp158
a(I18
I8
F-0.75
S'single'
p159
I0
tp160
a(I24
I17
F-0.75
S'single'
p161
I0
tp162
a(I25
I23
F-0.75
S'single'
p163
I0
tp164
a(I25
I23
I0
S'least'
p165
I0
tp166
as.