(dp0
(S'hold'
p1
S'a'
p2
S'charge'
p3
tp4
(lp5
(I4
I2
I0
S'great'
p6
I0
tp7
a(I11
I6
F-0.625
S'useless'
p8
I0
tp9
as(S'charge'
p10
S'battery'
p11
tp12
(lp13
(I1
I54
I0
S'overnight'
p14
I0
tp15
a(I1
I54
I0
S'full'
p16
I0
tp17
a(I1
I54
F-0.75
S'dead'
p18
I0
tp19
a(I1
I91
F0.25
S'changed'
p20
I0
tp21
a(I1
I91
F0.375
S'new'
p22
I0
tp23
a(I9
I8
I0
S'full'
p24
I0
tp25
a(I9
I8
F-0.625
S'other'
p26
I0
tp27
as(g2
S'new'
p28
S'battery'
p29
tp30
(lp31
(I0
I9
F0.375
S'new'
p32
I1
tp33
a(I1
I20
F0.375
S'new'
p34
I1
tp35
a(I1
I22
F0.375
S'new'
p36
I1
tp37
a(I1
I43
F0.375
S'new'
p38
I1
tp39
a(I1
I91
F0.25
g20
I1
tp40
a(I1
I91
F0.375
g22
I1
tp41
a(I0
I9
F0.375
g32
I15
tp42
a(I1
I19
F0.125
S'last'
p43
I15
tp44
a(I1
I20
F0.375
g34
I15
tp45
a(I1
I22
F0.375
g36
I15
tp46
a(I1
I43
F0.375
g38
I15
tp47
a(I1
I54
I0
g14
I15
tp48
a(I1
I54
F-0.75
g18
I15
tp49
a(I1
I76
F0.375
S'available'
p50
I15
tp51
a(I1
I91
F0.25
g20
I15
tp52
a(I1
I91
F0.375
g22
I15
tp53
a(I4
I6
F-0.25
S'low'
p54
I15
tp55
a(I6
I3
F1.0
S'good'
p56
I15
tp57
a(I9
I2
I0
S'great'
p58
I15
tp59
as(S'charger'
p60
S'port'
p61
tp62
(lp63
(I7
I33
F-0.625
S'other'
p64
I0
tp65
a(I9
I25
F-0.25
S'loose'
p66
I0
tp67
as.