(dp0
(S'rock'
p1
tp2
(lp3
(I12
I32
F0.5
S'second'
p4
I13
tp5
as(S'casio'
p6
tp7
(lp8
(I0
I0
F0.125
S'rugged'
p9
I11
tp10
a(I4
I0
F0.25
S'original'
p11
I11
tp12
a(I19
I4
F0.125
S'first'
p13
I11
tp14
a(I21
I27
F0.5
S'second'
p15
I11
tp16
as(S'battery'
p17
tp18
(lp19
(I1
I2
F0.25
S'original'
p20
I15
tp21
a(I3
I3
F0.125
S'last'
p22
I15
tp23
a(I7
I3
I0
S'anymore'
p24
I15
tp25
a(I7
I3
F-0.25
S'past'
p26
I15
tp27
a(I8
I6
F0.125
S'last'
p28
I15
tp29
a(I15
I5
F0.75
S'worth'
p30
I15
tp31
as(S'water'
p32
tp33
(lp34
(I0
I0
I0
S'chemical'
p35
I6
tp36
as(S'verizon'
p37
tp38
(lp39
(I2
I0
F0.5
S'second'
p40
I0
tp41
a(I2
I3
F0.125
S'charger'
p42
I0
tp43
a(I8
I9
I0
S'anymore'
p44
I0
tp45
a(I16
I12
F-0.5
S'sure'
p46
I0
tp47
as.