(dp0
(S'pantech'
p1
tp2
(lp3
(I0
I5
F-0.625
S'other'
p4
I0
tp5
a(I0
I6
I0
S'old'
p6
I0
tp7
a(I4
I5
F0.5
S'second'
p8
I0
tp9
a(I5
I1
F-0.5
S'longer'
p10
I0
tp11
a(I5
I29
F0.5
S'second'
p12
I0
tp13
a(I5
I37
F1.0
S'best'
p14
I0
tp15
as(S'battery'
p16
S'life'
p17
tp18
(lp19
(I2
I3
F1.0
S'good'
p20
I1
tp21
a(I4
I53
F0.375
S'new'
p22
I15
tp23
a(I6
I8
I0
S'full'
p24
I15
tp25
a(I7
I2
F-0.25
S'low'
p26
I15
tp27
as(S'keyboard'
p28
tp29
(lp30
(I4
I17
F0.625
S'easy'
p31
I2
tp32
a(I4
I60
I0
S'full'
p33
I2
tp34
a(I5
I2
F0.875
S'nice'
p35
I2
tp36
a(I8
I54
F0.625
S'easy'
p37
I2
tp38
as(S'text'
p39
tp40
(lp41
(I5
I36
F-0.625
S'other'
p42
I18
tp43
a(I8
I45
F-0.375
S'top'
p44
I18
tp45
as(S'data'
p46
S'plan'
p47
tp48
(lp49
(I4
I25
I0
S'basic'
p50
I0
tp51
as(S'touch'
p52
S'screen'
p53
tp54
(lp55
(I2
I2
F-0.75
S'unresponsive'
p56
I2
tp57
a(I4
I17
F0.25
S'responsive'
p58
I2
tp59
a(I4
I29
I0
S'sensitive'
p60
I2
tp61
a(I5
I3
F0.5
S'touch'
p62
I2
tp63
a(I5
I3
F0.25
S'responsive'
p64
I2
tp65
as(S'easy'
p66
S'mode'
p67
tp68
(lp69
(I5
I6
F0.625
S'easy'
p70
I0
tp71
a(I5
I18
F0.625
S'easy'
p72
I0
tp73
a(I5
I44
F0.625
S'easy'
p74
I0
tp75
as.