(dp0
(S'screen'
p1
S'size'
p2
tp3
(lp4
(I13
I2
F-0.375
S'small'
p5
tp6
a(I47
I2
F0.625
S'easy'
p7
tp8
a(I47
I2
F0.125
S'colorful'
p9
tp10
a(I62
I2
F-0.375
S'small'
p11
tp12
a(I97
I3
F-0.5
S'complaint'
p13
tp14
a(I97
I3
F-0.375
S'small'
p15
tp16
a(I174
I7
F-0.625
S'average'
p17
tp18
a(I180
I2
F-0.125
S'con'
p19
tp20
a(I198
I4
F-0.5
S'sure'
p21
tp22
as(S'problem'
p23
tp24
(lp25
(I13
I2
F0.75
S'due'
p26
tp27
a(I59
I0
I0
S'only'
p28
tp29
a(I97
I6
F0.375
S'much'
p30
tp31
a(I188
I0
F-0.375
S'small'
p32
tp33
a(I188
I0
F-0.625
S'light'
p34
tp35
a(I188
I0
F0.625
S'easy'
p36
tp37
a(I230
I3
I0
S'such'
p38
tp39
as(S'something'
p40
tp41
(lp42
(I133
I0
F0.625
S'easy'
p43
tp44
a(I145
I2
F-0.375
S'smaller'
p45
tp46
a(I145
I2
I0
S'more'
p47
tp48
a(I207
I1
I0
S'local'
p49
tp50
as(S'battery'
p51
S'life'
p52
tp53
(lp54
(I29
I2
F1.0
S'good'
p55
tp56
a(I67
I8
F-0.75
S'little'
p57
tp58
a(I78
I4
F1.0
S'good'
p59
tp60
a(I125
I1
I0
S'great'
p61
tp62
a(I180
I1
F1.0
S'good'
p63
tp64
a(I213
I1
F-0.75
S'short'
p65
tp66
as(S'first'
p67
S'notification'
p68
tp69
(lp70
(I212
I2
F0.125
S'first'
p71
tp72
a(I212
I2
F0.125
S'first'
p73
tp74
a(I212
I2
F0.125
S'first'
p75
tp76
a(I212
I2
F0.125
S'first'
p77
tp78
as(S'samsung'
p79
S'y'
p80
tp81
(lp82
(I38
I0
F0.875
S'nice'
p83
tp84
a(I150
I0
I0
S'very'
p85
tp86
a(I150
I0
I0
S'same'
p87
tp88
a(I161
I9
F0.125
S'able'
p89
tp90
a(I168
I0
F-0.125
S'slow'
p91
tp92
a(I168
I0
F-0.25
S'disappointing'
p93
tp94
a(I226
I0
F-0.75
S'little'
p95
tp96
a(I229
I3
F0.375
S'new'
p97
tp98
a(I233
I1
I0
S'galaxy'
p99
tp100
as(S'came'
p101
tp102
(lp103
(I32
I22
F-0.125
S'mine'
p104
tp105
as(S'money'
p106
tp107
(lp108
(I159
I1
F1.0
S'good'
p109
tp110
a(I159
I1
F-0.5
S'less'
p111
tp112
a(I184
I6
F0.75
S'worth'
p113
tp114
as(S'entry'
p115
S'level'
p116
tp117
(lp118
(I5
I0
I0
S'basic'
p119
tp120
a(I232
I0
I0
S'basic'
p121
tp122
as(S'nice'
p123
tp124
(lp125
(I42
I1
I0
S'very'
p126
tp127
a(I72
I0
F-0.375
S'small'
p128
tp129
as(S'screen'
p130
tp131
(lp132
(I8
I3
F-0.375
S'small'
p133
tp134
a(I13
I2
F-0.375
g5
tp135
a(I29
I4
F1.0
S'good'
p136
tp137
a(I29
I4
F0.625
S'easy'
p138
tp139
a(I29
I4
F-0.625
S'bad'
p140
tp141
a(I29
I4
F-0.375
S'small'
p142
tp143
a(I32
I11
F-0.375
S'small'
p144
tp145
a(I32
I11
I0
S'more'
p146
tp147
a(I47
I2
F0.625
g7
tp148
a(I47
I2
F0.125
g9
tp149
a(I49
I3
F0.25
S'bigger'
p150
tp151
a(I54
I9
F-0.375
S'small'
p152
tp153
a(I55
I9
F0.5
S'clear'
p154
tp155
a(I61
I3
F1.0
S'good'
p156
tp157
a(I83
I2
F0.5
S'touch'
p158
tp159
a(I85
I6
F-0.375
S'black'
p160
tp161
a(I85
I6
I0
S'big'
p162
tp163
a(I85
I6
F0.5
S'touch'
p164
tp165
a(I85
I9
I0
S'big'
p166
tp167
a(I85
I11
I0
S'big'
p168
tp169
a(I85
I14
F0.5
S'touch'
p170
tp171
a(I97
I3
F-0.5
g13
tp172
a(I97
I3
F-0.375
g15
tp173
a(I113
I4
F0.25
S'responsive'
p174
tp175
a(I113
I5
F-0.375
S'small'
p176
tp177
a(I123
I0
F0.5
S'touch'
p178
tp179
a(I124
I7
I0
S'sensitive'
p180
tp181
a(I125
I0
F-0.375
S'small'
p182
tp183
a(I174
I7
F-0.625
g17
tp184
a(I180
I2
F-0.125
g19
tp185
a(I189
I8
F-0.625
S'quite'
p186
tp187
a(I189
I8
F-0.375
S'small'
p188
tp189
a(I198
I4
F-0.5
g21
tp190
a(I205
I0
F-0.375
S'small'
p191
tp192
a(I211
I0
F-0.375
S'small'
p193
tp194
a(I211
I0
F0.25
S'larger'
p195
tp196
a(I229
I0
F0.5
S'touch'
p197
tp198
as(S'service'
p199
tp200
(lp201
(I46
I3
F-0.625
S'bad'
p202
tp203
a(I48
I13
F0.125
S'key'
p204
tp205
a(I123
I1
F1.0
S'good'
p206
tp207
a(I153
I0
I0
S'great'
p208
tp209
a(I161
I10
I0
S'same'
p210
tp211
a(I204
I0
I0
S'mobile'
p212
tp213
a(I204
I0
F1.0
S'good'
p214
tp215
as(S'everything'
p216
tp217
(lp218
(I16
I2
F1.0
S'good'
p219
tp220
a(I31
I1
F-0.375
S'small'
p221
tp222
a(I161
I14
I0
S'english'
p223
tp224
as(S'touch'
p225
S'screen'
p226
tp227
(lp228
(I83
I2
F0.5
g158
tp229
a(I85
I6
F-0.375
g160
tp230
a(I85
I6
I0
g162
tp231
a(I85
I6
F0.5
g164
tp232
a(I85
I14
F0.5
g170
tp233
a(I113
I4
F0.25
g174
tp234
a(I123
I0
F0.5
g178
tp235
a(I155
I2
F0.625
S'easy'
p236
tp237
a(I197
I1
I0
S'sensitive'
p238
tp239
a(I197
I1
I0
S'human'
p240
tp241
a(I210
I0
I0
S'least'
p242
tp243
a(I210
I0
F0.5
S'expensive'
p244
tp245
a(I210
I0
F0.25
S'unlocked'
p246
tp247
a(I229
I0
F0.5
g197
tp248
as(S'samsung'
p249
tp250
(lp251
(I38
I0
F0.875
g83
tp252
a(I150
I0
I0
g85
tp253
a(I150
I0
I0
g87
tp254
a(I161
I9
F0.125
g89
tp255
a(I226
I0
F-0.75
g95
tp256
a(I229
I3
F0.375
g97
tp257
as(S'voice'
p258
tp259
(lp260
(I137
I1
F-0.25
S'google'
p261
tp262
as(S'return'
p263
tp264
(lp265
(I30
I8
I0
S'least'
p266
tp267
a(I30
I8
F1.0
S'good'
p268
tp269
as(S'camera'
p270
tp271
(lp272
(I55
I6
F0.875
S'music'
p273
tp274
a(I83
I2
I0
S'more'
p275
tp276
a(I85
I7
F0.875
S'nice'
p277
tp278
a(I95
I11
F0.125
S'first'
p279
tp280
a(I113
I6
I0
S'adequate'
p281
tp282
a(I150
I0
F-0.25
S'higher'
p283
tp284
as(S'touch'
p285
tp286
(lp287
(I155
I2
F0.625
g236
tp288
a(I197
I1
I0
g238
tp289
a(I197
I1
I0
g240
tp290
a(I210
I0
I0
g242
tp291
a(I210
I0
F0.5
g244
tp292
a(I210
I0
F0.25
g246
tp293
as(S'fine'
p294
tp295
(lp296
(I67
I3
I0
S'connect'
p297
tp298
a(I215
I1
F-0.5
S'sure'
p299
tp300
as(S'memory'
p301
tp302
(lp303
(I42
I0
F-0.125
S'slow'
p304
tp305
a(I42
I0
F-0.25
S'low'
p306
tp307
a(I95
I2
F0.125
S'first'
p308
tp309
a(I126
I1
F1.0
S'good'
p310
tp311
a(I189
I1
F-0.375
S'small'
p312
tp313
as(S'life'
p314
tp315
(lp316
(I29
I2
F1.0
g55
tp317
a(I78
I4
F1.0
g59
tp318
a(I180
I1
F1.0
g63
tp319
a(I213
I1
F-0.75
g65
tp320
as(S'galaxy'
p321
tp322
(lp323
(I3
I1
F0.125
S'able'
p324
tp325
a(I5
I2
F-0.5
S'regular'
p326
tp327
a(I126
I0
F1.0
S'good'
p328
tp329
a(I141
I0
F1.0
S'best'
p330
tp331
as(S'galaxy'
p332
g80
tp333
(lp334
(I3
I1
F0.125
g324
tp335
a(I5
I2
F-0.5
g326
tp336
a(I126
I0
F1.0
g328
tp337
a(I141
I0
F1.0
g330
tp338
a(I233
I1
I0
g99
tp339
as(S'adapter'
p340
tp341
(lp342
(I58
I1
F0.625
S'correct'
p343
tp344
as(S'features'
p345
tp346
(lp347
(I69
I2
F0.625
S'easy'
p348
tp349
a(I141
I2
F0.625
S'perfect'
p350
tp351
as(S'applications'
p352
tp353
(lp354
(I42
I0
F-0.5
S'certain'
p355
tp356
a(I90
I2
I0
S'few'
p357
tp358
a(I90
I2
I0
S'most'
p359
tp360
a(I121
I2
I0
S'spanish'
p361
tp362
a(I204
I0
I0
S'great'
p363
tp364
a(I233
I11
I0
S'more'
p365
tp366
as(S'people'
p367
tp368
(lp369
(I13
I3
F-0.375
S'small'
p370
tp371
a(I54
I7
I0
S'young'
p372
tp373
a(I54
I9
F1.0
S'good'
p374
tp375
a(I54
I9
I0
S'old'
p376
tp377
a(I85
I14
I0
S'big'
p378
tp379
a(I85
I14
F-0.625
S'other'
p380
tp381
a(I85
I14
F-0.625
S'want'
p382
tp383
a(I85
I15
F-0.625
S'want'
p384
tp385
a(I85
I17
F-0.625
S'want'
p386
tp387
a(I158
I0
F1.0
S'better'
p388
tp389
a(I165
I4
F-0.375
S'serious'
p390
tp391
as(S'sd'
p392
S'card'
p393
tp394
(lp395
(I32
I22
I0
S'included'
p396
tp397
a(I55
I20
F-0.375
S'smaller'
p398
tp399
a(I78
I1
F-0.5
S'sure'
p400
tp401
a(I186
I12
I0
S'sd'
p402
tp403
as(S'6'
p404
S'days'
p405
tp406
(lp407
(I223
I0
I0
S'few'
p408
tp409
as(S'many'
p410
S'apps'
p411
tp412
(lp413
(I2
I1
I0
S'many'
p414
tp415
a(I18
I0
I0
S'many'
p416
tp417
a(I155
I1
I0
S'many'
p418
tp419
a(I155
I1
F-0.5
S'open'
p420
tp421
a(I189
I1
I0
S'many'
p422
tp423
a(I189
I1
F0.5
S'possible'
p424
tp425
a(I231
I0
I0
S'many'
p426
tp427
as(S'seller'
p428
tp429
(lp430
(I20
I11
F-0.5
S'certain'
p431
tp432
a(I30
I7
I0
S'particular'
p433
tp434
as(S'android'
p435
tp436
(lp437
(I29
I0
F0.125
S'first'
p438
tp439
a(I38
I0
F0.125
S'first'
p440
tp441
a(I67
I6
F0.875
S'nice'
p442
tp443
a(I67
I6
F-0.75
S'little'
p444
tp445
a(I113
I3
F0.125
S'first'
p446
tp447
a(I149
I3
F-0.625
S'other'
p448
tp449
a(I149
I3
I0
S'great'
p450
tp451
a(I149
I3
F-0.75
S'little'
p452
tp453
a(I155
I0
F-0.375
S'simple'
p454
tp455
a(I160
I0
F-0.375
S'simple'
p456
tp457
a(I223
I1
F0.125
S'first'
p458
tp459
a(I223
I1
F0.5
S'personal'
p460
tp461
a(I233
I6
F1.0
S'good'
p462
tp463
as(S'plan'
p464
tp465
(lp466
(I67
I6
I0
S'old'
p467
tp468
a(I161
I12
F0.5
S'functional'
p469
tp470
as(S'battery'
p471
tp472
(lp473
(I67
I8
F-0.75
g57
tp474
a(I97
I2
F0.375
S'reliable'
p475
tp476
a(I101
I1
I0
S'great'
p477
tp478
a(I123
I1
I0
S'great'
p479
tp480
a(I125
I1
I0
g61
tp481
as(S'works'
p482
tp483
(lp484
(I32
I5
I0
S'great'
p485
tp486
a(I81
I0
I0
S'great'
p487
tp488
a(I129
I0
I0
S'great'
p489
tp490
a(I166
I0
F-0.25
S'inexpensive'
p491
tp492
a(I174
I2
F1.0
S'good'
p493
tp494
a(I193
I6
I0
S'great'
p495
tp496
a(I202
I0
I0
S'great'
p497
tp498
a(I202
I2
I0
S'great'
p499
tp500
a(I207
I5
I0
S'great'
p501
tp502
as(S'5'
p503
S'stars'
p504
tp505
(lp506
(I212
I5
I0
S'many'
p507
tp508
as(S'product'
p509
tp510
(lp511
(I34
I0
F1.0
S'good'
p512
tp513
a(I52
I0
F1.0
S'good'
p514
tp515
a(I76
I0
I0
S'great'
p516
tp517
a(I82
I0
F-0.375
S'small'
p518
tp519
a(I108
I2
I0
S'great'
p520
tp521
a(I127
I2
F0.375
S'reliable'
p522
tp523
a(I176
I0
F0.375
S'much'
p524
tp525
a(I182
I1
F1.0
S'good'
p526
tp527
as(S'order'
p528
tp529
(lp530
(I1
I4
F0.375
S'new'
p531
tp532
a(I7
I0
F-0.5
S'call'
p533
tp534
a(I30
I7
F-0.75
S'wrong'
p535
tp536
a(I73
I0
F0.5
S'second'
p537
tp538
as(g80
S'galaxy'
p539
S's'
p540
tp541
(lp542
(I3
I1
F0.125
g324
tp543
a(I5
I2
F-0.5
g326
tp544
a(I126
I0
F1.0
g328
tp545
a(I141
I0
F1.0
g330
tp546
a(I233
I1
I0
g99
tp547
as(S'smart'
p548
tp549
(lp550
(I3
I2
F0.125
S'first'
p551
tp552
a(I56
I0
F0.125
S'first'
p553
tp554
a(I58
I2
F-0.375
S'smaller'
p555
tp556
a(I58
I2
F-0.625
S'other'
p557
tp558
a(I95
I0
F0.125
S'first'
p559
tp560
a(I181
I1
F-0.25
S'modern'
p561
tp562
a(I186
I13
F0.125
S'first'
p563
tp564
a(I233
I6
F-0.625
S'other'
p565
tp566
as(S'to'
p567
S'change'
p568
S'language'
p569
tp570
(lp571
(I120
I2
I0
S'different'
p572
tp573
a(I121
I1
I0
S'spanish'
p574
tp575
a(I172
I2
F-0.375
S'manual'
p576
tp577
a(I172
I2
I0
S'serbian'
p578
tp579
as(S'samsung'
p580
g80
S'galaxy'
p581
tp582
(lp583
(I3
I1
F0.125
g324
tp584
a(I126
I0
F1.0
g328
tp585
a(I141
I0
F1.0
g330
tp586
a(I226
I0
F-0.75
g95
tp587
a(I233
I1
I0
g99
tp588
as(S'samsung'
p589
S'galaxy'
p590
tp591
(lp592
(I3
I1
F0.125
g324
tp593
a(I126
I0
F1.0
g328
tp594
a(I141
I0
F1.0
g330
tp595
a(I226
I0
F-0.75
g95
tp596
as(S'cell'
p597
tp598
(lp599
(I32
I16
I0
S'most'
p600
tp601
a(I35
I0
F-0.75
S'wrong'
p602
tp603
a(I113
I7
I0
S'basic'
p604
tp605
a(I117
I2
F0.5
S'compatible'
p606
tp607
a(I145
I3
F0.625
S'kind'
p608
tp609
a(I145
I3
I0
S'weird'
p610
tp611
a(I147
I0
I0
S'very'
p612
tp613
a(I147
I0
F-0.125
S'slow'
p614
tp615
a(I163
I0
F1.0
S'best'
p616
tp617
as(S'language'
p618
tp619
(lp620
(I30
I9
F-0.375
S'small'
p621
tp622
a(I30
I9
I0
S'weird'
p623
tp624
a(I55
I15
I0
S'english'
p625
tp626
a(I82
I2
I0
S'russian'
p627
tp628
a(I118
I11
I0
S'german'
p629
tp630
a(I120
I2
I0
g572
tp631
a(I121
I1
I0
g574
tp632
a(I138
I2
F0.25
S'main'
p633
tp634
a(I172
I2
F-0.375
g576
tp635
a(I172
I2
I0
g578
tp636
a(I232
I5
I0
S'english'
p637
tp638
as(S'thing'
p639
tp640
(lp641
(I1
I5
F-0.875
S'worst'
p642
tp643
a(I6
I2
I0
S'only'
p644
tp645
a(I20
I8
F1.0
S'good'
p646
tp647
a(I49
I3
F0.125
S'impressive'
p648
tp649
a(I56
I3
F-0.625
S'bad'
p650
tp651
a(I125
I1
I0
S'great'
p652
tp653
a(I130
I0
F-0.875
S'trouble'
p654
tp655
a(I135
I5
F-0.625
S'bad'
p656
tp657
a(I142
I0
F-0.625
S'bad'
p658
tp659
a(I144
I3
F0.875
S'important'
p660
tp661
a(I146
I3
F0.875
S'important'
p662
tp663
a(I232
I6
F0.125
S'last'
p664
tp665
as(S'sim'
p666
S'card'
p667
tp668
(lp669
(I20
I1
I0
S'local'
p670
tp671
a(I21
I2
I0
S'local'
p672
tp673
a(I162
I0
I0
S'overseas'
p674
tp675
as(S'small'
p676
S'screen'
p677
tp678
(lp679
(I8
I3
F-0.375
g133
tp680
a(I13
I2
F-0.375
g5
tp681
a(I29
I4
F1.0
g136
tp682
a(I29
I4
F0.625
g138
tp683
a(I29
I4
F-0.625
g140
tp684
a(I29
I4
F-0.375
g142
tp685
a(I32
I11
F-0.375
g144
tp686
a(I32
I11
I0
g146
tp687
a(I54
I9
F-0.375
g152
tp688
a(I97
I3
F-0.5
g13
tp689
a(I97
I3
F-0.375
g15
tp690
a(I113
I5
F-0.375
g176
tp691
a(I125
I0
F-0.375
g182
tp692
a(I189
I8
F-0.625
g186
tp693
a(I189
I8
F-0.375
g188
tp694
a(I205
I0
F-0.375
g191
tp695
a(I211
I0
F-0.375
g193
tp696
a(I211
I0
F0.25
g195
tp697
a(I229
I0
F0.5
g197
tp698
as(S'call'
p699
tp700
(lp701
(I1
I2
F-0.75
S'impossible'
p702
tp703
a(I1
I2
F-0.5
S'certain'
p704
tp705
a(I78
I5
I0
S'text'
p706
tp707
a(I164
I7
F1.0
S'good'
p708
tp709
a(I225
I1
F-0.75
S'single'
p710
tp711
as(S'happy'
p712
tp713
(lp714
(I207
I5
F-0.125
S'overall'
p715
tp716
as(g80
S'galaxy'
p717
tp718
(lp719
(I3
I1
F0.125
g324
tp720
a(I5
I2
F-0.5
g326
tp721
a(I126
I0
F1.0
g328
tp722
a(I141
I0
F1.0
g330
tp723
a(I233
I1
I0
g99
tp724
as(S'take'
p725
S'pictures'
p726
tp727
(lp728
(I61
I1
F0.125
S'able'
p729
tp730
as(S'open'
p731
S'group'
p732
tp733
(lp734
(I32
I12
F-0.5
S'open'
p735
tp736
a(I32
I20
F-0.5
S'open'
p737
tp738
a(I233
I1
F-0.5
S'open'
p739
tp740
as(S'looking'
p741
tp742
(lp743
(I72
I0
F0.875
S'nice'
p744
tp745
a(I114
I1
F0.875
S'nice'
p746
tp747
as(S'data'
p748
tp749
(lp750
(I13
I0
F-0.125
S'slow'
p751
tp752
a(I49
I1
F0.375
S'much'
p753
tp754
a(I97
I1
F0.375
S'extra'
p755
tp756
a(I212
I2
I0
S'same'
p757
tp758
a(I223
I5
I0
S'mobile'
p759
tp760
as(S'time'
p761
tp762
(lp763
(I27
I2
F0.5
S'second'
p764
tp765
a(I37
I2
F-0.5
S'long'
p766
tp767
a(I73
I4
F0.5
S'second'
p768
tp769
a(I78
I6
F-0.5
S'long'
p770
tp771
a(I95
I8
F-0.5
S'long'
p772
tp773
a(I134
I0
F0.125
S'first'
p774
tp775
a(I145
I0
F-0.625
S'quite'
p776
tp777
a(I233
I10
I0
S'same'
p778
tp779
as(S'price'
p780
tp781
(lp782
(I21
I5
F1.0
S'good'
p783
tp784
a(I21
I5
F1.0
S'good'
p785
tp786
a(I25
I1
I0
S'great'
p787
tp788
a(I32
I23
F0.875
S'happier'
p789
tp790
a(I41
I5
I0
S'same'
p791
tp792
a(I79
I2
F1.0
S'better'
p793
tp794
a(I85
I13
I0
S'more'
p795
tp796
a(I85
I13
F1.0
S'good'
p797
tp798
a(I85
I13
I0
S'such'
p799
tp800
a(I114
I0
F-0.625
S'bad'
p801
tp802
a(I118
I10
I0
S'great'
p803
tp804
a(I161
I1
I0
S'big'
p805
tp806
a(I168
I0
I0
S'same'
p807
tp808
a(I169
I2
F1.0
S'good'
p809
tp810
a(I182
I1
F0.5
S'expensive'
p811
tp812
a(I189
I0
F0.625
S'acceptable'
p813
tp814
a(I195
I0
F1.0
S'good'
p815
tp816
a(I208
I0
F1.0
S'good'
p817
tp818
as(S'smartphone'
p819
tp820
(lp821
(I25
I0
I0
S'basic'
p822
tp823
a(I79
I0
I0
S'basic'
p824
tp825
a(I88
I3
F1.0
S'good'
p826
tp827
a(I99
I0
F-0.375
S'small'
p828
tp829
a(I99
I0
F-0.25
S'inexpensive'
p830
tp831
a(I164
I1
F0.125
S'first'
p832
tp833
a(I175
I0
F0.125
S'first'
p834
tp835
a(I175
I0
F-0.625
S'other'
p836
tp837
a(I226
I0
F0.125
S'first'
p838
tp839
as(S'card'
p840
tp841
(lp842
(I78
I1
F-0.5
g400
tp843
a(I186
I12
I0
g402
tp844
as(S'charger'
p845
tp846
(lp847
(I13
I1
I0
S'european'
p848
tp849
a(I55
I19
I0
S'same'
p850
tp851
a(I144
I1
I0
S'european'
p852
tp853
a(I146
I1
I0
S'european'
p854
tp855
a(I184
I2
I0
S'european'
p856
tp857
a(I184
I2
I0
S'adapter'
p858
tp859
a(I232
I3
I0
S'european'
p860
tp861
as(S'send'
p862
tp863
(lp864
(I72
I0
I0
S'furthermore'
p865
tp866
as(S'size'
p867
tp868
(lp869
(I26
I3
F0.625
S'perfect'
p870
tp871
a(I32
I21
I0
S'full'
p872
tp873
a(I38
I0
F0.625
S'perfect'
p874
tp875
a(I62
I2
F-0.375
g11
tp876
a(I69
I2
I0
S'great'
p877
tp878
a(I80
I0
F0.125
S'appropriate'
p879
tp880
a(I150
I2
F0.5
S'clear'
p881
tp882
a(I161
I4
I0
S'same'
p883
tp884
a(I223
I3
F-0.375
S'small'
p885
tp886
a(I223
I3
I0
S'handy'
p887
tp888
a(I225
I2
F0.875
S'nice'
p889
tp890
as(S'english'
p891
tp892
(lp893
(I32
I20
I0
S'british'
p894
tp895
as(S'an'
p896
S'sd'
p897
S'card'
p898
tp899
(lp900
(I32
I22
I0
g396
tp901
a(I55
I20
F-0.375
g398
tp902
a(I186
I12
I0
g402
tp903
as(g732
S'wireless'
p904
tp905
(lp906
(I32
I12
F-0.5
g735
tp907
a(I32
I20
F-0.5
g737
tp908
a(I233
I1
F-0.5
g739
tp909
as(S'apps'
p910
tp911
(lp912
(I2
I1
I0
g414
tp913
a(I16
I1
I0
S'android'
p914
tp915
a(I16
I1
F0.125
S'able'
p916
tp917
a(I18
I0
I0
g416
tp918
a(I33
I6
F-0.625
S'free'
p919
tp920
a(I99
I2
I0
S'great'
p921
tp922
a(I101
I1
I0
S'android'
p923
tp924
a(I108
I6
F-0.625
S'free'
p925
tp926
a(I118
I1
I0
S'few'
p927
tp928
a(I118
I1
F0.25
S'main'
p929
tp930
a(I135
I4
I0
S'narwhal'
p931
tp932
a(I155
I1
I0
g418
tp933
a(I155
I1
F-0.5
g420
tp934
a(I164
I2
I0
S'great'
p935
tp936
a(I189
I1
I0
g422
tp937
a(I189
I1
F0.5
g424
tp938
a(I189
I3
F0.375
S'extra'
p939
tp940
a(I189
I4
F-0.625
S'other'
p941
tp942
a(I226
I1
F-0.625
S'free'
p943
tp944
a(I231
I0
I0
g426
tp945
as(S'samsung'
p946
S'galaxy'
p947
g80
tp948
(lp949
(I3
I1
F0.125
g324
tp950
a(I126
I0
F1.0
g328
tp951
a(I141
I0
F1.0
g330
tp952
a(I226
I0
F-0.75
g95
tp953
a(I233
I1
I0
g99
tp954
as(S'days'
p955
tp956
(lp957
(I90
I0
I0
S'few'
p958
tp959
a(I223
I0
I0
g408
tp960
as(S'fast'
p961
tp962
(lp963
(I50
I2
F-0.125
S'super'
p964
tp965
as(S'calls'
p966
tp967
(lp968
(I118
I8
I0
S'few'
p969
tp970
a(I118
I8
F-0.25
S'dropped'
p971
tp972
a(I153
I1
I0
S'most'
p973
tp974
a(I226
I2
F0.5
S'clear'
p975
tp976
as.