(dp0
(S'problem'
p1
tp2
(lp3
(I123
I10
I0
S'only'
p4
tp5
a(I126
I3
I0
S'different'
p6
tp7
as(S'google'
p8
S'play'
p9
tp10
(lp11
(I73
I6
F0.625
S'add'
p12
tp13
a(I88
I18
F-0.25
S'google'
p14
tp15
as(S'battery'
p16
S'life'
p17
tp18
(lp19
(I26
I4
F0.125
S'last'
p20
tp21
a(I65
I2
F1.0
S'good'
p22
tp23
a(I65
I3
F0.75
S'due'
p24
tp25
a(I103
I0
F1.0
S'good'
p26
tp27
a(I118
I4
F1.0
S'good'
p28
tp29
as(S'purchase'
p30
tp31
(lp32
(I15
I2
F1.0
S'better'
p33
tp34
a(I17
I5
F-0.875
S'unhappy'
p35
tp36
a(I38
I1
F-0.75
S'wrong'
p37
tp38
a(I48
I5
I0
S'great'
p39
tp40
as(S'minutes'
p41
tp42
(lp43
(I144
I6
F-0.75
S'dead'
p44
tp45
a(I166
I5
I0
S'more'
p46
tp47
as(S'year'
p48
tp49
(lp50
(I27
I2
I0
S'old'
p51
tp52
a(I54
I7
I0
S'next'
p53
tp54
a(I163
I0
I0
S'old'
p55
tp56
as(S'good'
p57
tp58
(lp59
(I54
I4
F0.125
S'last'
p60
tp61
as(S'original'
p62
S'droid'
p63
tp64
(lp65
(I82
I0
F0.25
S'original'
p66
tp67
a(I82
I0
F0.25
S'original'
p68
tp69
a(I118
I5
F0.25
S'original'
p70
tp71
a(I118
I5
I0
S'lasted'
p72
tp73
a(I118
I5
F0.25
S'original'
p74
tp75
a(I166
I12
F0.25
S'original'
p76
tp77
as(S'motorola'
p78
tp79
(lp80
(I5
I4
F-0.625
S'other'
p81
tp82
as(S'android'
p83
S'os'
p84
tp85
(lp86
(I118
I3
I0
S'android'
p87
tp88
a(I144
I1
I0
S'android'
p89
tp90
a(I154
I13
I0
S'latest'
p91
tp92
a(I154
I13
I0
S'android'
p93
tp94
as(S'happy'
p95
tp96
(lp97
(I86
I2
I0
S'teen'
p98
tp99
as(S'price'
p100
tp101
(lp102
(I24
I1
F0.5
S'reasonable'
p103
tp104
a(I59
I1
F0.5
S'reasonable'
p105
tp106
a(I59
I1
I0
S'such'
p107
tp108
a(I104
I1
F1.0
S'good'
p109
tp110
as(S'n'
p111
S'order'
p112
tp113
(lp114
(I39
I0
F0.375
S'new'
p115
tp116
a(I95
I1
F0.375
S'new'
p117
tp118
as(S'service'
p119
tp120
(lp121
(I21
I1
F0.125
S'able'
p122
tp123
a(I82
I17
F-0.625
S'want'
p124
tp125
a(I82
I21
I0
S'cellular'
p126
tp127
a(I134
I0
F0.875
S'important'
p128
tp129
a(I155
I1
I0
S'great'
p130
tp131
as(S'everything'
p132
tp133
(lp134
(I128
I2
I0
S'great'
p135
tp136
a(I149
I3
F-0.125
S'overall'
p137
tp138
as(S'problems'
p139
tp140
(lp141
(I50
I2
F-0.625
S'other'
p142
tp143
a(I71
I2
I0
S'such'
p144
tp145
a(I71
I2
F0.625
S'aware'
p146
tp147
a(I93
I0
F0.625
S'major'
p148
tp149
as(S'back'
p150
tp151
(lp152
(I17
I1
F-0.125
S'mine'
p153
tp154
as(S'camera'
p155
tp156
(lp157
(I88
I5
I0
S'most'
p158
tp159
a(I92
I1
I0
S'text'
p160
tp161
a(I92
I1
I0
S'physical'
p162
tp163
a(I110
I1
F0.125
S'first'
p164
tp165
a(I155
I2
F1.0
S'good'
p166
tp167
as(S'google'
p168
tp169
(lp170
(I73
I6
F0.625
g12
tp171
a(I82
I11
I0
S'closing'
p172
tp173
as(S'plus'
p174
tp175
(lp176
(I88
I13
F-0.75
S'little'
p177
tp178
as(S'years'
p179
tp180
(lp181
(I88
I8
F0.125
S'last'
p182
tp183
a(I118
I4
F-0.875
S'stuck'
p184
tp185
a(I123
I10
F0.125
S'amazon'
p186
tp187
a(I154
I1
I0
S'old'
p188
tp189
a(I156
I0
F0.375
S'new'
p190
tp191
as(S'droid'
p192
S'x'
p193
tp194
(lp195
(I28
I2
F0.375
S'new'
p196
tp197
a(I29
I0
F0.5
S'expensive'
p198
tp199
a(I57
I0
F0.125
S'last'
p200
tp201
a(I60
I2
F0.125
S'first'
p202
tp203
a(I78
I2
I0
S'big'
p204
tp205
a(I78
I5
F0.125
S'solid'
p206
tp207
a(I82
I0
F0.25
g66
tp208
a(I82
I0
F0.25
g68
tp209
a(I88
I41
I0
S'forth'
p210
tp211
a(I118
I5
F0.25
g70
tp212
a(I118
I5
I0
g72
tp213
a(I118
I5
F0.25
g74
tp214
a(I131
I0
I0
S'more'
p215
tp216
a(I166
I12
F0.25
g76
tp217
as(S'a'
p218
S'dual'
p219
S'core'
p220
tp221
(lp222
(I156
I9
I0
S'least'
p223
tp224
as(S'quality'
p225
tp226
(lp227
(I9
I1
I0
S'great'
p228
tp229
a(I64
I1
F-0.125
S'overall'
p230
tp231
a(I65
I4
I0
S'great'
p232
tp233
a(I70
I0
F1.0
S'good'
p234
tp235
a(I82
I4
I0
S'signal'
p236
tp237
a(I88
I8
F-0.875
S'worst'
p238
tp239
as(S'life'
p240
tp241
(lp242
(I26
I4
F0.125
g20
tp243
a(I65
I2
F1.0
g22
tp244
a(I65
I3
F0.75
g24
tp245
a(I103
I0
F1.0
g26
tp246
a(I118
I4
F1.0
g28
tp247
as(S'few'
p248
S'months'
p249
tp250
(lp251
(I33
I2
I0
S'few'
p252
tp253
a(I34
I0
I0
S'few'
p254
tp255
a(I57
I1
I0
S'few'
p256
tp257
as(S'droid'
p258
tp259
(lp260
(I28
I2
F0.375
g196
tp261
a(I29
I0
F0.5
g198
tp262
a(I57
I0
F0.125
g200
tp263
a(I60
I2
F0.125
g202
tp264
a(I78
I2
I0
g204
tp265
a(I82
I0
F0.25
g66
tp266
a(I82
I0
F0.25
g68
tp267
a(I88
I41
I0
g210
tp268
a(I118
I5
F0.25
g70
tp269
a(I118
I5
I0
g72
tp270
a(I118
I5
F0.25
g74
tp271
a(I131
I0
I0
g215
tp272
a(I161
I3
F0.125
S'last'
p273
tp274
a(I166
I12
F0.25
g76
tp275
as(S'features'
p276
tp277
(lp278
(I38
I0
F1.0
S'good'
p279
tp280
a(I48
I3
F-0.125
S'slow'
p281
tp282
a(I69
I41
I0
S'general'
p283
tp284
a(I81
I1
F1.0
S'better'
p285
tp286
a(I104
I4
I0
S'full'
p287
tp288
a(I106
I1
I0
S'great'
p289
tp290
a(I142
I0
I0
S'more'
p291
tp292
a(I159
I3
F0.5
S'comparable'
p293
tp294
a(I159
I4
F-0.625
S'other'
p295
tp296
a(I159
I4
F0.125
S'popular'
p297
tp298
as(S'verizon'
p299
tp300
(lp301
(I9
I3
I0
S'signal'
p302
tp303
a(I11
I1
I0
S'local'
p304
tp305
a(I21
I2
I0
S'current'
p306
tp307
a(I35
I5
F0.5
S'willing'
p308
tp309
a(I46
I1
F-0.75
S'unable'
p310
tp311
a(I145
I1
F-0.125
S'overall'
p312
tp313
a(I145
I1
F1.0
S'good'
p314
tp315
a(I145
I1
F-0.625
S'glad'
p316
tp317
a(I145
I1
F0.375
S'new'
p318
tp319
as(S'freezes'
p320
tp321
(lp322
(I150
I1
F-0.125
S'slow'
p323
tp324
as(S'work'
p325
tp326
(lp327
(I109
I0
F1.0
S'good'
p328
tp329
as(S'sd'
p330
S'card'
p331
tp332
(lp333
(I20
I2
F0.375
S'new'
p334
tp335
a(I20
I2
F-0.375
S'manual'
p336
tp337
as(S'order'
p338
tp339
(lp340
(I39
I0
F0.375
g115
tp341
a(I95
I1
F0.375
g117
tp342
as(S'send'
p343
S't'
p344
S'back'
p345
tp346
(lp347
(I17
I1
F-0.125
g153
tp348
as(S'seller'
p349
tp350
(lp351
(I69
I14
I0
S'particular'
p352
tp353
a(I111
I3
F-0.75
S'wrong'
p354
tp355
a(I113
I2
I0
S'different'
p356
tp357
a(I119
I2
F0.125
S'able'
p358
tp359
a(I119
I3
F0.125
S'able'
p360
tp361
as(S'android'
p362
tp363
(lp364
(I104
I6
I0
S'older'
p365
tp366
as(S'works'
p367
tp368
(lp369
(I8
I0
I0
S'great'
p370
tp371
a(I25
I1
F-0.625
S'other'
p372
tp373
a(I82
I1
F1.0
S'good'
p374
tp375
a(I92
I18
I0
S'android'
p376
tp377
a(I164
I0
I0
S'great'
p378
tp379
as(S'product'
p380
tp381
(lp382
(I69
I1
F0.375
S'similar'
p383
tp384
a(I69
I1
I0
S'different'
p385
tp386
a(I70
I3
F-0.125
S'overall'
p387
tp388
a(I70
I3
F1.0
S'good'
p389
tp390
a(I97
I3
F1.0
S'good'
p391
tp392
as(S'processor'
p393
tp394
(lp395
(I27
I2
I0
S'most'
p396
tp397
a(I27
I2
I0
S'current'
p398
tp399
a(I154
I6
F1.0
S'good'
p400
tp401
as(S'battery'
p402
tp403
(lp404
(I36
I2
F0.25
S'original'
p405
tp406
a(I39
I0
F0.875
S'happy'
p407
tp408
a(I69
I10
F-0.75
S'invalid'
p409
tp410
a(I69
I18
F-0.75
S'invalid'
p411
tp412
a(I69
I31
F-0.75
S'invalid'
p413
tp414
a(I78
I14
I0
S'internal'
p415
tp416
a(I82
I32
I0
S'weird'
p417
tp418
a(I82
I37
F0.25
S'original'
p419
tp420
a(I82
I37
F-0.625
S'other'
p421
tp422
a(I82
I38
I0
S'different'
p423
tp424
a(I88
I4
F-0.625
S'average'
p425
tp426
a(I92
I5
F0.375
S'new'
p427
tp428
a(I92
I15
F0.375
S'extra'
p429
tp430
a(I95
I1
F-0.5
S'weak'
p431
tp432
a(I99
I3
F-0.5
S'complaint'
p433
tp434
a(I99
I3
F0.25
S'original'
p435
tp436
a(I99
I5
F0.375
S'extended'
p437
tp438
a(I110
I6
F0.375
S'extended'
p439
tp440
a(I111
I1
F0.25
S'original'
p441
tp442
a(I136
I1
F0.375
S'new'
p443
tp444
a(I144
I6
F-0.625
S'bad'
p445
tp446
a(I144
I7
F0.375
S'new'
p447
tp448
a(I148
I3
F0.125
S'last'
p449
tp450
a(I155
I4
F1.0
S'good'
p451
tp452
a(I156
I6
F-0.75
S'dead'
p453
tp454
as(S'brand'
p455
tp456
(lp457
(I41
I1
F0.375
S'new'
p458
tp459
a(I48
I0
F0.375
S'new'
p460
tp461
a(I57
I0
F0.375
S'new'
p462
tp463
a(I72
I2
F0.375
S'new'
p464
tp465
a(I97
I1
F0.375
S'new'
p466
tp467
a(I117
I4
F0.375
S'new'
p468
tp469
a(I126
I0
F0.375
S'new'
p470
tp471
a(I126
I1
F0.375
S'new'
p472
tp473
a(I126
I2
F0.375
S'new'
p474
tp475
a(I161
I0
F0.375
S'new'
p476
tp477
as(S'smart'
p478
tp479
(lp480
(I32
I0
F-0.25
S'cheapest'
p481
tp482
a(I128
I0
F0.125
S'first'
p483
tp484
a(I129
I1
I0
S'old'
p485
tp486
a(I169
I2
I0
S'android'
p487
tp488
as(S'hope'
p489
tp490
(lp491
(I33
I3
F0.125
S'able'
p492
tp493
as(S'replacement'
p494
tp495
(lp496
(I17
I4
I0
S'old'
p497
tp498
a(I88
I1
I0
S'third'
p499
tp500
a(I88
I1
F0.5
S'second'
p501
tp502
as(S'better'
p503
tp504
(lp505
(I24
I0
F0.375
S'much'
p506
tp507
a(I82
I0
F0.375
S'much'
p508
tp509
as(S'thing'
p510
tp511
(lp512
(I5
I2
I0
S'only'
p513
tp514
a(I57
I1
I0
S'same'
p515
tp516
a(I69
I17
F1.0
S'good'
p517
tp518
a(I69
I41
F1.0
S'good'
p519
tp520
a(I87
I3
F-0.125
S'slow'
p521
tp522
a(I154
I17
F-0.625
S'other'
p523
tp524
as(S'megapixel'
p525
S'camera'
p526
tp527
(lp528
(I88
I6
I0
S'high'
p529
tp530
as(S'charge'
p531
tp532
(lp533
(I57
I0
I0
S'even'
p534
tp535
a(I156
I5
I0
S'full'
p536
tp537
as(S'nothing'
p538
tp539
(lp540
(I169
I1
F0.125
S'charger'
p541
tp542
as(S'signal'
p543
S'strength'
p544
tp545
(lp546
(I82
I6
I0
S'signal'
p547
tp548
a(I82
I20
I0
S'signal'
p549
tp550
a(I92
I12
I0
S'signal'
p551
tp552
as(S'dual'
p553
S'core'
p554
tp555
(lp556
(I156
I9
I0
g223
tp557
as(S'call'
p558
tp559
(lp560
(I121
I0
F-0.125
S'slow'
p561
tp562
as(S'droid'
p563
S'x2'
p564
tp565
(lp566
(I28
I2
F0.375
g196
tp567
a(I57
I1
F0.375
S'new'
p568
tp569
a(I78
I2
I0
g204
tp570
a(I82
I0
F0.25
g66
tp571
a(I82
I0
F0.25
g68
tp572
a(I82
I7
I0
S'more'
p573
tp574
a(I82
I7
F0.875
S'happy'
p575
tp576
a(I88
I41
I0
g210
tp577
a(I118
I3
F0.5
S'willing'
p578
tp579
a(I118
I5
F0.25
g70
tp580
a(I118
I5
I0
g72
tp581
a(I118
I5
F0.25
g74
tp582
a(I131
I0
I0
g215
tp583
as(S'dual'
p584
S'core'
p585
S'processor'
p586
tp587
(lp588
(I154
I6
F1.0
g400
tp589
as(S'core'
p590
tp591
(lp592
(I14
I0
F1.0
S'good'
p593
tp594
a(I14
I0
F-0.625
S'bad'
p595
tp596
a(I137
I6
F-0.75
S'single'
p597
tp598
a(I156
I7
F-0.75
S'single'
p599
tp600
a(I156
I9
I0
g223
tp601
as(S'screen'
p602
tp603
(lp604
(I7
I1
F-0.375
S'black'
p605
tp606
a(I38
I0
F0.375
S'dynamic'
p607
tp608
a(I53
I1
I0
S'great'
p609
tp610
a(I54
I2
F0.5
S'touch'
p611
tp612
a(I65
I0
I0
S'large'
p613
tp614
a(I65
I3
F-0.25
S'low'
p615
tp616
a(I88
I13
F0.25
S'main'
p617
tp618
a(I100
I0
F0.125
S'able'
p619
tp620
a(I154
I17
F0.5
S'touch'
p621
tp622
a(I154
I17
F0.25
S'responsive'
p623
tp624
a(I162
I0
I0
S'big'
p625
tp626
as(S'time'
p627
tp628
(lp629
(I22
I0
F1.0
S'good'
p630
tp631
a(I35
I5
F0.125
S'first'
p632
tp633
a(I53
I10
F-0.5
S'long'
p634
tp635
a(I58
I0
F0.5
S'second'
p636
tp637
a(I58
I0
F0.125
S'first'
p638
tp639
a(I58
I13
F0.125
S'last'
p640
tp641
a(I110
I5
I0
S'same'
p642
tp643
a(I116
I1
F-0.75
S'single'
p644
tp645
a(I118
I0
F-0.5
S'long'
p646
tp647
a(I118
I5
F-0.5
S'long'
p648
tp649
a(I123
I12
I0
S'next'
p650
tp651
a(I126
I3
F0.125
S'first'
p652
tp653
as(S'straight'
p654
S'talk'
p655
tp656
(lp657
(I104
I5
F0.625
S'straight'
p658
tp659
a(I155
I0
F0.625
S'straight'
p660
tp661
as(g111
S'box'
p662
tp663
(lp664
(I41
I1
F0.125
S'sealed'
p665
tp666
a(I69
I5
F-0.625
S'bad'
p667
tp668
a(I111
I0
F0.25
S'original'
p669
tp670
a(I111
I0
I0
S'plastic'
p671
tp672
a(I117
I5
F0.125
S'sealed'
p673
tp674
a(I171
I1
F0.375
S'new'
p675
tp676
a(I171
I1
I0
S'cd'
p677
tp678
a(I171
I1
F-0.375
S'manual'
p679
tp680
as(S'condition'
p681
tp682
(lp683
(I8
I0
F0.375
S'new'
p684
tp685
a(I24
I1
F1.0
S'good'
p686
tp687
a(I51
I1
I0
S'great'
p688
tp689
a(I73
I2
F1.0
S'like'
p690
tp691
a(I73
I2
F0.375
S'new'
p692
tp693
a(I100
I0
F1.0
S'good'
p694
tp695
a(I148
I2
I0
S'great'
p696
tp697
as(S'charger'
p698
tp699
(lp700
(I36
I2
F0.25
S'original'
p701
tp702
a(I58
I9
I0
S'plastic'
p703
tp704
a(I148
I3
F-0.5
S'long'
p705
tp706
a(I148
I3
F-0.5
S'did'
p707
tp708
a(I149
I2
F0.875
S'happy'
p709
tp710
as(S'contract'
p711
tp712
(lp713
(I72
I0
F0.375
S'new'
p714
tp715
as(S'much'
p716
S'better'
p717
tp718
(lp719
(I24
I0
F0.375
g506
tp720
a(I82
I0
F0.375
g508
tp721
as(S'cell'
p722
tp723
(lp724
(I48
I5
F0.375
S'new'
p725
tp726
a(I59
I2
I0
S'high'
p727
tp728
a(I59
I2
I0
S'monthly'
p729
tp730
a(I60
I0
F-0.625
S'other'
p731
tp732
a(I142
I0
I0
S'old'
p733
tp734
a(I147
I1
F1.0
S'good'
p735
tp736
a(I147
I1
F0.375
S'reliable'
p737
tp738
as(S'months'
p739
tp740
(lp741
(I33
I2
I0
g252
tp742
a(I34
I0
I0
g254
tp743
a(I57
I1
I0
g256
tp744
a(I58
I1
F0.5
S'whole'
p745
tp746
as(S'apps'
p747
tp748
(lp749
(I27
I3
F0.125
S'able'
p750
tp751
a(I27
I3
F0.375
S'new'
p752
tp753
a(I27
I5
F0.375
S'new'
p754
tp755
a(I27
I6
F0.375
S'new'
p756
tp757
a(I33
I0
I0
S'standard'
p758
tp759
a(I40
I1
I0
S'many'
p760
tp761
a(I48
I4
F0.375
S'improve'
p762
tp763
a(I69
I29
F0.5
S'personal'
p764
tp765
a(I88
I19
I0
S'more'
p766
tp767
a(I92
I18
I0
S'most'
p768
tp769
a(I147
I1
I0
S'extensive'
p770
tp771
a(I152
I1
I0
S'android'
p772
tp773
a(I152
I1
F0.5
S'compatible'
p774
tp775
a(I152
I4
F0.375
S'available'
p776
tp777
a(I152
I4
F-0.25
S'low'
p778
tp779
a(I163
I7
F0.25
S'favorite'
p780
tp781
a(I163
I7
F-0.667
S'incompatible'
p782
tp783
a(I166
I6
I0
S'own'
p784
tp785
as(S'core'
p786
S'processor'
p787
tp788
(lp789
(I14
I0
F1.0
g593
tp790
a(I14
I0
F-0.625
g595
tp791
a(I154
I6
F1.0
g400
tp792
as(S'days'
p793
tp794
(lp795
(I80
I1
I0
S'great'
p796
tp797
a(I99
I4
F0.125
S'last'
p798
tp799
as(S'google'
p800
S'maps'
p801
tp802
(lp803
(I82
I11
I0
g172
tp804
as(S'fast'
p805
tp806
(lp807
(I30
I1
F0.125
S'plenty'
p808
tp809
as.