(dp0
(S'android'
p1
tp2
(lp3
(I9
I3
I0
S'great'
p4
I0
tp5
a(I9
I4
I0
S'entire'
p6
I0
tp7
a(I21
I3
F0.25
S'original'
p8
I0
tp9
a(I27
I29
F0.125
S'first'
p10
I0
tp11
a(I28
I10
I0
S'economical'
p12
I0
tp13
as(S'iphone'
p14
tp15
(lp16
(I11
I4
F0.5
S'whole'
p17
I1
tp18
as(S'battery'
p19
S'life'
p20
tp21
(lp22
(I1
I6
I0
S'wish'
p23
I1
tp24
a(I14
I2
F-0.5
S'complaint'
p25
I1
tp26
a(I18
I36
I0
S'absurd'
p27
I1
tp28
a(I19
I7
F1.0
S'good'
p29
I1
tp30
a(I18
I36
I0
g27
I19
tp31
a(I19
I7
F1.0
g29
I19
tp32
a(I1
I6
I0
g23
I15
tp33
a(I4
I0
F1.0
S'good'
p34
I15
tp35
a(I7
I20
F0.125
S'last'
p36
I15
tp37
a(I7
I20
F-0.5
S'long'
p38
I15
tp39
a(I14
I2
F-0.5
g25
I15
tp40
a(I23
I13
F-0.5
S'complaint'
p41
I15
tp42
a(I25
I41
F0.375
S'tight'
p43
I15
tp44
as(S'memory'
p45
tp46
(lp47
(I0
I19
F-0.25
S'low'
p48
I5
tp49
a(I6
I10
F-0.75
S'little'
p50
I5
tp51
a(I6
I16
I0
S'internal'
p52
I5
tp53
a(I6
I16
F-0.25
S'low'
p54
I5
tp55
a(I6
I17
I0
S'internal'
p56
I5
tp57
a(I21
I11
F-0.875
S'awful'
p58
I5
tp59
a(I21
I12
I0
S'internal'
p60
I5
tp61
a(I23
I31
F0.375
S'available'
p62
I5
tp63
a(I23
I31
F-0.25
S'low'
p64
I5
tp65
a(I27
I35
I0
S'internal'
p66
I5
tp67
as(S'cricket'
p68
tp69
(lp70
(I7
I16
I0
S'local'
p71
I0
tp72
a(I10
I8
F-0.625
S'other'
p73
I0
tp74
a(I14
I7
I0
S'special'
p75
I0
tp76
a(I18
I28
F-0.25
S'cheaper'
p77
I0
tp78
a(I18
I49
F-0.25
S'cheaper'
p79
I0
tp80
a(I23
I37
I0
S'great'
p81
I0
tp82
a(I27
I29
F0.125
S'first'
p83
I0
tp84
as(S'google'
p85
S'play'
p86
tp87
(lp88
(I23
I16
F-0.25
S'google'
p89
I0
tp90
a(I23
I16
F0.875
S'music'
p91
I0
tp92
as(S'muve'
p93
S'music'
p94
S'plan'
p95
tp96
(lp97
(I7
I3
I0
S'monthly'
p98
I0
tp99
a(I10
I8
F-0.625
S'free'
p100
I0
tp101
a(I7
I3
I0
g98
I0
tp102
a(I10
I8
F-0.625
g100
I0
tp103
a(I14
I18
F-0.625
S'other'
p104
I0
tp105
a(I10
I8
F-0.625
g100
I0
tp106
a(I7
I3
I0
g98
I0
tp107
a(I10
I7
I-100
S'month-but'
p108
I0
tp109
a(I10
I8
F-0.625
g100
I0
tp110
a(I14
I18
F-0.625
g104
I0
tp111
a(I19
I14
F-0.625
S'free'
p112
I0
tp113
a(I23
I12
F-0.625
S'free'
p114
I0
tp115
as(S'service'
p116
tp117
(lp118
(I1
I7
F1.0
S'good'
p119
I16
tp120
a(I1
I17
I0
S'active'
p121
I16
tp122
a(I1
I17
I0
S'current'
p123
I16
tp124
a(I4
I5
F0.375
S'complete'
p125
I16
tp126
a(I27
I17
F1.0
S'good'
p127
I16
tp128
a(I27
I17
F1.0
S'good'
p129
I16
tp130
a(I27
I17
F-0.125
S'overall'
p131
I16
tp132
a(I27
I29
I0
S'great'
p133
I16
tp134
as(S'apps'
p135
tp136
(lp137
(I1
I8
F0.5
S'compatible'
p138
I0
tp139
a(I6
I1
I0
S'many'
p140
I0
tp141
a(I6
I6
I0
S'cool'
p142
I0
tp143
a(I11
I0
I0
S'great'
p144
I0
tp145
a(I18
I19
F-0.5
S'certain'
p146
I0
tp147
a(I21
I9
F1.0
S'good'
p148
I0
tp149
a(I21
I9
F-0.5
S'certain'
p150
I0
tp151
a(I23
I12
I0
S'big'
p152
I0
tp153
a(I23
I18
I0
S'own'
p154
I0
tp155
a(I27
I19
I0
S'social'
p156
I0
tp157
a(I27
I22
F0.25
S'favorite'
p158
I0
tp159
a(I29
I1
F0.5
S'personal'
p160
I0
tp161
as(S'sd'
p162
S'card'
p163
tp164
(lp165
(I27
I23
F0.25
S'larger'
p166
I0
tp167
a(I29
I3
I0
S'total'
p168
I0
tp169
as(S'camera'
p170
tp171
(lp172
(I2
I0
F1.0
S'best'
p173
I1
tp174
a(I18
I13
F0.25
S'responsive'
p175
I1
tp176
a(I27
I26
F0.375
S'honest'
p177
I1
tp178
a(I27
I28
F1.0
S'good'
p179
I1
tp180
as(S'bucks'
p181
tp182
(lp183
(I1
I3
F-0.5
S'swag'
p184
I19
tp185
a(I21
I2
F-0.25
S'cheaper'
p186
I19
tp187
a(I22
I7
I0
S'more'
p188
I19
tp189
a(I23
I24
F0.375
S'extra'
p190
I19
tp191
a(I25
I11
I0
S'more'
p192
I19
tp193
as.