(dp0
(S'battery'
p1
S'life'
p2
tp3
(lp4
(I43
I0
F-0.75
S'short'
p5
I1
tp6
a(I56
I11
F-0.75
S'short'
p7
I1
tp8
a(I56
I11
F-0.875
S'worst'
p9
I1
tp10
a(I61
I10
F-0.75
S'short'
p11
I1
tp12
a(I63
I39
F-0.25
S'low'
p13
I1
tp14
a(I64
I17
F-0.75
S'short'
p15
I1
tp16
a(I65
I51
F1.0
S'good'
p17
I1
tp18
a(I65
I51
F-0.125
S'overall'
p19
I1
tp20
a(I70
I6
F-0.75
S'short'
p21
I1
tp22
a(I80
I39
F0.375
S'much'
p23
I1
tp24
a(I86
I30
F1.0
S'good'
p25
I1
tp26
a(I43
I0
F-0.75
g5
I19
tp27
a(I56
I11
F-0.875
g9
I19
tp28
a(I64
I17
F-0.75
g15
I19
tp29
a(I65
I51
F1.0
g17
I19
tp30
a(I65
I51
F-0.125
g19
I19
tp31
a(I70
I6
F-0.75
g21
I19
tp32
a(I80
I39
F0.375
g23
I19
tp33
a(I45
I10
I0
S'signal'
p34
I15
tp35
a(I47
I8
F0.25
S'original'
p36
I15
tp37
a(I47
I8
F0.125
S'last'
p38
I15
tp39
a(I47
I8
I0
S'more'
p40
I15
tp41
a(I51
I33
F0.625
S'removable'
p42
I15
tp43
a(I54
I16
F0.125
S'charger'
p44
I15
tp45
a(I54
I31
I0
S'entire'
p46
I15
tp47
a(I56
I11
F-0.75
g7
I15
tp48
a(I59
I2
F-0.625
S'bad'
p49
I15
tp50
a(I61
I10
F-0.75
g11
I15
tp51
a(I63
I19
F0.375
S'new'
p52
I15
tp53
a(I63
I39
F-0.25
g13
I15
tp54
a(I69
I0
F-0.625
S'bad'
p55
I15
tp56
a(I80
I43
F-0.75
S'short'
p57
I15
tp58
a(I81
I39
F-0.375
S'daily'
p59
I15
tp60
a(I86
I30
F1.0
g25
I15
tp61
a(I87
I4
F0.375
S'new'
p62
I15
tp63
a(I91
I1
F-0.625
S'bad'
p64
I15
tp65
a(I91
I1
F1.0
S'good'
p66
I15
tp67
a(I93
I19
F-0.375
S'top'
p68
I15
tp69
a(I98
I1
F0.25
S'original'
p70
I15
tp71
as(S'service'
p72
tp73
(lp74
(I7
I13
I0
S'great'
p75
I16
tp76
a(I13
I0
F-0.125
S'frustrate'
p77
I16
tp78
a(I13
I4
F-0.625
S'unprofessional'
p79
I16
tp80
a(I57
I13
F0.5
S'technical'
p81
I16
tp82
a(I76
I5
F0.375
S'new'
p83
I16
tp84
a(I76
I5
I0
S'monthly'
p85
I16
tp86
a(I86
I22
I0
S'great'
p87
I16
tp88
as(S'sa'
p89
S'i9100'
p90
tp91
(lp92
(I88
I13
I0
S'mobile'
p93
I0
tp94
a(I15
I4
F-0.5
S'regular'
p95
I0
tp96
a(I38
I31
I0
S'more'
p97
I0
tp98
a(I86
I27
F-0.375
S'black'
p99
I0
tp100
a(I88
I13
I0
g93
I0
tp101
as(S'operating'
p102
S'system'
p103
tp104
(lp105
(I51
I71
I0
S'old'
p106
I2
tp107
a(I51
I76
F0.375
S'new'
p108
I2
tp109
a(I51
I76
F0.625
S'responsible'
p110
I2
tp111
as(S'iphone'
p112
tp113
(lp114
(I51
I63
F-0.5
S'lose'
p115
I1
tp116
a(I51
I63
F0.75
S'break'
p117
I1
tp118
a(I59
I1
F1.0
S'good'
p119
I1
tp120
a(I63
I58
I0
S'closing'
p121
I1
tp122
a(I63
I64
F-0.875
S'harder'
p123
I1
tp124
a(I83
I18
F0.375
S'new'
p125
I1
tp126
a(I86
I39
F1.0
S'good'
p127
I1
tp128
as(S'a'
p129
S'full'
p130
S'refund'
p131
tp132
(lp133
(I38
I11
I0
S'full'
p134
I0
tp135
a(I76
I3
I0
S'full'
p136
I0
tp137
a(I76
I5
I0
S'full'
p138
I0
tp139
a(I84
I13
I0
S'full'
p140
I0
tp141
a(I90
I17
I0
S'full'
p142
I0
tp143
a(I93
I23
I0
S'full'
p144
I0
tp145
a(I38
I11
I0
g134
I0
tp146
a(I76
I3
I0
g136
I0
tp147
a(I76
I5
I0
g138
I0
tp148
a(I84
I13
I0
g140
I0
tp149
a(I90
I17
I0
g142
I0
tp150
a(I93
I23
I0
g144
I0
tp151
a(I11
I9
I0
S'least'
p152
I8
tp153
a(I36
I7
I0
S'more'
p154
I8
tp155
a(I38
I11
I0
g134
I8
tp156
a(I61
I73
I0
S'total'
p157
I8
tp158
a(I61
I73
F0.5
S'absolute'
p159
I8
tp160
a(I76
I3
I0
g136
I8
tp161
a(I76
I5
I0
g138
I8
tp162
a(I84
I13
I0
g140
I8
tp163
a(I90
I17
I0
g142
I8
tp164
a(I93
I23
I0
g144
I8
tp165
a(I94
I12
I0
S'total'
p166
I8
tp167
a(I94
I12
F0.5
S'absolute'
p168
I8
tp169
as(S'8'
p170
S'mp'
p171
S'camera'
p172
tp173
(lp174
(I92
I5
F1.0
S'good'
p175
I0
tp176
a(I51
I62
F1.0
S'good'
p177
I0
tp178
a(I89
I3
F-0.375
S'simple'
p179
I0
tp180
a(I89
I3
F0.875
S'nice'
p181
I0
tp182
a(I92
I5
F1.0
g175
I0
tp183
a(I38
I25
I0
S'great'
p184
I1
tp185
a(I38
I42
I0
S'great'
p186
I1
tp187
a(I41
I22
I0
S'great'
p188
I1
tp189
a(I45
I8
F1.0
S'good'
p190
I1
tp191
a(I51
I19
F1.0
S'good'
p192
I1
tp193
a(I51
I19
F0.375
S'new'
p194
I1
tp195
a(I51
I62
F1.0
g177
I1
tp196
a(I67
I0
F-0.5
S'poor'
p197
I1
tp198
a(I75
I0
I0
S'great'
p199
I1
tp200
a(I80
I4
I0
S'great'
p201
I1
tp202
a(I80
I46
F0.875
S'nice'
p203
I1
tp204
a(I89
I3
F-0.375
g179
I1
tp205
a(I89
I3
F0.875
g181
I1
tp206
a(I92
I5
F1.0
g175
I1
tp207
a(I92
I9
F-0.625
S'bad'
p208
I1
tp209
as(S'signal'
p210
tp211
(lp212
(I46
I5
F1.0
S'good'
p213
I1
tp214
a(I98
I21
F1.0
S'good'
p215
I1
tp216
as(S'light'
p217
S'weight'
p218
tp219
(lp220
(I7
I13
F-0.625
S'light'
p221
I5
tp222
a(I20
I0
F-0.625
S'light'
p223
I5
tp224
a(I80
I37
F-0.625
S'light'
p225
I5
tp226
a(I84
I5
F-0.625
S'light'
p227
I5
tp228
a(I86
I23
F-0.625
S'light'
p229
I5
tp230
as(S'seller'
p231
tp232
(lp233
(I1
I1
I0
S'real'
p234
I19
tp235
a(I55
I4
F0.5
S'recommend'
p236
I19
tp237
a(I61
I3
I0
S'e-mail'
p238
I19
tp239
a(I61
I62
F1.0
S'good'
p240
I19
tp241
a(I74
I4
I0
S'great'
p242
I19
tp243
a(I86
I18
F0.875
S'rude'
p244
I19
tp245
a(I86
I18
F0.125
S'operative'
p246
I19
tp247
a(I86
I22
I0
S'different'
p248
I19
tp249
a(I92
I18
I0
S'more'
p250
I19
tp251
a(I93
I12
F-0.5
S'poor'
p252
I19
tp253
as(S'android'
p254
tp255
(lp256
(I9
I5
F0.125
S'first'
p257
I0
tp258
a(I25
I1
F0.125
S'first'
p259
I0
tp260
a(I38
I34
I0
S'update'
p261
I0
tp262
a(I51
I24
F-0.375
S'top'
p263
I0
tp264
a(I51
I25
F0.125
S'first'
p265
I0
tp266
a(I51
I26
I0
S'update'
p267
I0
tp268
a(I81
I31
F1.0
S'best'
p269
I0
tp270
as(S'galaxy'
p271
S's'
p272
S'ii'
p273
tp274
(lp275
(I38
I31
I0
S'real'
p276
I0
tp277
a(I51
I14
F0.375
S'similar'
p278
I0
tp279
a(I14
I3
F-0.25
S'white'
p280
I0
tp281
as(S'venezuela'
p282
tp283
(lp284
(I92
I11
F0.625
S'easy'
p285
I0
tp286
as(S'el'
p287
S'tel'
p288
tp289
(lp290
(I75
I27
F-0.375
S'manual'
p291
I1
tp292
as(S'samsung'
p293
S'galaxy'
p294
S's2'
p295
tp296
(lp297
(I30
I16
F1.0
S'good'
p298
I0
tp299
a(I65
I6
F0.25
S'original'
p300
I0
tp301
a(I2
I4
F-0.25
S'white'
p302
I0
tp303
a(I8
I0
F-0.375
S'authorized'
p304
I0
tp305
a(I8
I0
F0.25
S'original'
p306
I0
tp307
a(I20
I2
F0.875
S'happy'
p308
I0
tp309
a(I24
I2
I0
S'local'
p310
I0
tp311
a(I30
I16
F1.0
g298
I0
tp312
a(I55
I5
F-0.75
S'comfortable'
p313
I0
tp314
a(I59
I3
F0.375
S'new'
p315
I0
tp316
a(I65
I6
F0.25
g300
I0
tp317
a(I88
I13
F-0.75
S'short'
p318
I0
tp319
a(I30
I9
F0.375
S'new'
p320
I0
tp321
a(I30
I12
F-0.5
S'international'
p322
I0
tp323
a(I86
I17
F-0.25
S'white'
p324
I0
tp325
a(I86
I17
F-0.375
S'black'
p326
I0
tp327
a(I2
I4
F-0.25
g302
I7
tp328
a(I8
I0
F-0.375
g304
I7
tp329
a(I8
I0
F0.25
g306
I7
tp330
a(I20
I0
I0
S'many'
p331
I7
tp332
a(I20
I2
F0.875
g308
I7
tp333
a(I22
I8
F0.25
S'original'
p334
I7
tp335
a(I24
I2
I0
g310
I7
tp336
a(I30
I16
F1.0
g298
I7
tp337
a(I51
I8
F0.25
S'original'
p338
I7
tp339
a(I51
I28
I0
S'many'
p340
I7
tp341
a(I59
I3
F0.375
g315
I7
tp342
a(I65
I6
F0.25
g300
I7
tp343
a(I65
I45
F1.0
S'better'
p344
I7
tp345
a(I88
I13
F-0.75
g318
I7
tp346
a(I98
I1
F0.25
S'original'
p347
I7
tp348
a(I38
I31
I0
g276
I0
tp349
a(I51
I14
F0.375
g278
I0
tp350
a(I55
I5
F-0.75
g313
I0
tp351
a(I61
I14
I0
S'own'
p352
I0
tp353
a(I64
I25
I0
S'most'
p354
I0
tp355
a(I86
I17
F-0.25
g324
I0
tp356
a(I86
I17
F-0.375
g326
I0
tp357
as(S'sim'
p358
S'card'
p359
tp360
(lp361
(I38
I19
F0.375
S'new'
p362
I0
tp363
a(I61
I50
F0.125
S'able'
p364
I0
tp365
a(I61
I50
I0
S'old'
p366
I0
tp367
a(I62
I5
F-0.5
S'did'
p368
I0
tp369
a(I63
I37
I0
S'old'
p370
I0
tp371
as(S'international'
p372
S'version'
p373
tp374
(lp375
(I9
I9
F-0.5
S'international'
p376
I0
tp377
a(I9
I9
F-0.5
S'international'
p378
I0
tp379
a(I25
I6
F-0.5
S'international'
p380
I0
tp381
a(I30
I12
F-0.125
S'opposite'
p382
I0
tp383
a(I38
I8
F-0.5
S'international'
p384
I0
tp385
a(I54
I2
F-0.5
S'international'
p386
I0
tp387
a(I54
I2
F-0.5
S'international'
p388
I0
tp389
a(I54
I20
F-0.5
S'international'
p390
I0
tp391
a(I70
I0
I0
S'more'
p392
I0
tp393
a(I74
I2
F-0.5
S'international'
p394
I0
tp395
a(I75
I2
F-0.5
S'international'
p396
I0
tp397
a(I80
I19
F-0.5
S'international'
p398
I0
tp399
a(I90
I16
I0
S'domestic'
p400
I0
tp401
as(S'network'
p402
tp403
(lp404
(I70
I0
I0
S'social'
p405
I0
tp406
a(I80
I14
F-0.375
S'manual'
p407
I0
tp408
as(S'amazon'
p409
tp410
(lp411
(I61
I58
F0.125
S'last'
p412
I13
tp413
a(I77
I5
F0.625
S'successful'
p414
I13
tp415
a(I88
I35
F0.125
S'amazon'
p416
I13
tp417
as.