(dp0
(S'seller'
p1
tp2
(lp3
(I8
I8
F-0.75
S'sad'
p4
I19
tp5
a(I9
I0
I0
S'most'
p6
I19
tp7
as(S'internet'
p8
tp9
(lp10
(I1
I20
F1.0
S'better'
p11
I6
tp12
a(I14
I16
F-0.875
S'hard'
p13
I6
tp14
a(I19
I51
I0
S'quick'
p15
I6
tp16
as(S'email'
p17
tp18
(lp19
(I1
I16
I0
S'text'
p20
I5
tp21
a(I1
I35
F-0.375
S'robust'
p22
I5
tp23
a(I19
I1
F-0.75
S'unable'
p24
I5
tp25
a(I19
I1
F0.75
S'receive'
p26
I5
tp27
a(I21
I10
I0
S'only'
p28
I5
tp29
as(S'smartphone'
p30
tp31
(lp32
(I5
I6
F0.125
S'first'
p33
I0
tp34
a(I9
I6
F0.375
S'extra'
p35
I0
tp36
as(S'smart'
p37
tp38
(lp39
(I1
I35
F0.5
S'functional'
p40
I10
tp41
a(I11
I6
F0.25
S'larger'
p42
I10
tp43
a(I11
I11
I0
S'entire'
p44
I10
tp45
as(S'browser'
p46
tp47
(lp48
(I21
I10
I0
S'mobile'
p49
I0
tp50
as(S'verizon'
p51
tp52
(lp53
(I1
I26
F-0.5
S'call'
p54
I0
tp55
a(I10
I9
F0.375
S'extra'
p56
I0
tp57
a(I12
I0
I0
S'local'
p58
I0
tp59
as(S'apps'
p60
tp61
(lp62
(I1
I20
I0
S'forth'
p63
I0
tp64
a(I8
I18
F-0.5
S'browser'
p65
I0
tp66
a(I11
I15
I0
S'lastest'
p67
I0
tp68
a(I11
I44
F0.25
S'sweet'
p69
I0
tp70
a(I14
I17
F-0.125
S'slow'
p71
I0
tp72
as(S'amazon'
p73
tp74
(lp75
(I1
I16
I-100
S'certain-'
p76
I13
tp77
a(I10
I3
F1.0
S'good'
p78
I13
tp79
as(S'blackberry'
p80
S'curve'
p81
tp82
(lp83
(I1
I24
F0.5
S'attest'
p84
I0
tp85
a(I1
I24
F0.375
S'new'
p86
I0
tp87
a(I1
I24
F0.5
g84
I1
tp88
a(I1
I24
F0.375
g86
I1
tp89
a(I1
I33
F-0.5
S'browser'
p90
I1
tp91
a(I5
I14
I0
S'empty'
p92
I1
tp93
a(I6
I9
I0
S'real'
p94
I1
tp95
a(I6
I15
F0.875
S'nice'
p96
I1
tp97
a(I20
I22
F0.125
S'first'
p98
I1
tp99
as.