(dp0
(S'problem'
p1
tp2
(lp3
(I11
I2
I0
S'only'
p4
tp5
a(I108
I0
I0
S'only'
p6
tp7
a(I114
I1
F0.375
S'new'
p8
tp9
a(I134
I2
I0
S'only'
p10
tp11
a(I134
I2
F-0.75
S'difficult'
p12
tp13
as(S'memory'
p14
S'card'
p15
tp16
(lp17
(I126
I7
F0.25
S'largest'
p18
tp19
as(S'and'
p20
S'touch'
p21
S'screen'
p22
tp23
(lp24
(I13
I0
F-0.375
S'top'
p25
tp26
a(I54
I0
F-0.5
S'cracked'
p27
tp28
a(I108
I0
F0.5
S'touch'
p29
tp30
a(I118
I1
F-0.75
S'unresponsive'
p31
tp32
a(I149
I0
F0.5
S'touch'
p33
tp34
as(S'purchase'
p35
tp36
(lp37
(I20
I0
F0.875
S'happy'
p38
tp39
a(I59
I2
F0.875
S'happy'
p40
tp41
a(I80
I0
I0
S'old'
p42
tp43
as(S'keyboard'
p44
tp45
(lp46
(I0
I0
I0
S'great'
p47
tp48
a(I7
I1
I0
S'slid'
p49
tp50
a(I18
I1
F-0.125
S'overall'
p51
tp52
a(I18
I1
F0.875
S'nice'
p53
tp54
a(I40
I2
F-0.25
S'loose'
p55
tp56
a(I55
I3
F0.875
S'nice'
p57
tp58
a(I67
I2
I0
S'physical'
p59
tp60
a(I67
I4
I0
S'physical'
p61
tp62
a(I76
I0
I0
S'physical'
p63
tp64
a(I120
I1
I0
S'physical'
p65
tp66
as(S'card'
p67
tp68
(lp69
(I72
I0
I0
S'sd'
p70
tp71
as(S'screen'
p72
tp73
(lp74
(I13
I0
F-0.375
g25
tp75
a(I19
I3
F0.375
S'newer'
p76
tp77
a(I19
I3
I0
S'large'
p78
tp79
a(I19
I3
I0
S'entire'
p80
tp81
a(I19
I4
F0.375
S'indestructible'
p82
tp83
a(I47
I2
F-0.375
S'black'
p84
tp85
a(I51
I1
I0
S'big'
p86
tp87
a(I54
I0
F-0.5
g27
tp88
a(I58
I3
I0
S'signal'
p89
tp90
a(I63
I2
F0.5
S'touch'
p91
tp92
a(I68
I2
F-0.25
S'loose'
p93
tp94
a(I73
I4
F-0.75
S'bright'
p95
tp96
a(I89
I1
F-0.375
S'black'
p97
tp98
a(I108
I0
F0.5
g29
tp99
a(I114
I0
I0
S'wide'
p100
tp101
a(I118
I1
F-0.75
g31
tp102
a(I137
I3
F0.5
S'touch'
p103
tp104
a(I149
I0
F0.5
g33
tp105
as(S'shift'
p106
tp107
(lp108
(I155
I1
F-0.625
S'lighter'
p109
tp110
as(S'problems'
p111
tp112
(lp113
(I37
I0
F-0.625
S'other'
p114
tp115
a(I117
I0
I0
S'sprint'
p116
tp117
as(S'slide'
p118
tp119
(lp120
(I120
I0
I0
S'few'
p121
tp122
a(I120
I0
F1.0
S'good'
p123
tp124
as(S'battery'
p125
S'life'
p126
tp127
(lp128
(I67
I3
I0
S'standard'
p129
tp130
a(I90
I0
F-0.5
S'less'
p131
tp132
a(I114
I5
F1.0
S'good'
p133
tp134
as(S'sprint'
p135
tp136
(lp137
(I82
I1
I0
S'local'
p138
tp139
a(I92
I2
F0.125
S'able'
p140
tp141
as(S'htc'
p142
S'evo'
p143
tp144
(lp145
(I63
I0
F0.5
S'second'
p146
tp147
as(S'memory'
p148
tp149
(lp150
(I9
I2
I0
S'internal'
p151
tp152
a(I26
I1
I0
S'internal'
p153
tp154
a(I55
I1
F-0.75
S'shallow'
p155
tp156
a(I67
I2
I0
S'most'
p157
tp158
a(I87
I0
I0
S'internal'
p159
tp160
a(I93
I0
F0.125
S'first'
p161
tp162
a(I93
I0
I0
S'internal'
p163
tp164
a(I126
I7
F0.25
g18
tp165
a(I132
I0
F-0.75
S'little'
p166
tp167
as(S'product'
p168
tp169
(lp170
(I30
I0
F1.0
S'good'
p171
tp172
a(I60
I5
F0.875
S'happy'
p173
tp174
a(I69
I1
I0
S'great'
p175
tp176
a(I113
I1
F0.375
S'similar'
p177
tp178
a(I140
I1
F0.625
S'fair'
p179
tp180
a(I142
I3
F0.875
S'happy'
p181
tp182
as(S'major'
p183
S'issues'
p184
tp185
(lp186
(I79
I1
F0.625
S'major'
p187
tp188
a(I79
I1
F0.625
S'major'
p189
tp190
a(I79
I1
F-0.625
S'other'
p191
tp192
a(I93
I4
F0.625
S'major'
p193
tp194
as(S'things'
p195
tp196
(lp197
(I9
I5
I0
S'many'
p198
tp199
a(I9
I5
I0
S'such'
p200
tp201
a(I9
I5
F-0.625
S'other'
p202
tp203
a(I24
I1
F0.375
S'much'
p204
tp205
a(I24
I1
F-0.75
S'stupid'
p206
tp207
a(I73
I1
I0
S'great'
p208
tp209
a(I108
I0
I0
S'own'
p210
tp211
a(I127
I2
I0
S'few'
p212
tp213
as(S'htc'
p214
S'sense'
p215
tp216
(lp217
(I126
I3
I0
S'android'
p218
tp219
a(I126
I3
F0.125
S'able'
p220
tp221
as(S'stopped'
p222
S'working'
p223
tp224
(lp225
(I48
I0
F-0.375
S'stopped'
p226
tp227
as(S'sd'
p228
S'card'
p229
tp230
(lp231
(I72
I0
I0
g70
tp232
as(S'evo'
p233
S'shift'
p234
tp235
(lp236
(I73
I1
I0
S'sister'
p237
tp238
a(I116
I1
F1.0
S'good'
p239
tp240
a(I155
I1
F-0.625
g109
tp241
as(S'seller'
p242
tp243
(lp244
(I130
I0
I0
S'different'
p245
tp246
a(I130
I0
I0
S'different'
p247
tp248
as(S'android'
p249
tp250
(lp251
(I82
I3
F-0.25
S'modern'
p252
tp253
a(I95
I2
F0.125
S'first'
p254
tp255
as(S'works'
p256
tp257
(lp258
(I21
I0
I0
S'great'
p259
tp260
a(I36
I0
I0
S'great'
p261
tp262
a(I59
I2
I0
S'great'
p263
tp264
a(I59
I2
I0
S'great'
p265
tp266
a(I140
I0
I0
S'great'
p267
tp268
as(S'battery'
p269
tp270
(lp271
(I43
I0
F-0.75
S'wrong'
p272
tp273
a(I57
I0
I0
S'closer'
p274
tp275
a(I71
I0
F0.375
S'new'
p276
tp277
a(I86
I1
F0.25
S'larger'
p278
tp279
a(I94
I0
F-0.25
S'plugged'
p280
tp281
a(I94
I1
F0.375
S'new'
p282
tp283
a(I94
I1
F0.375
S'new'
p284
tp285
a(I109
I1
F0.125
S'charger'
p286
tp287
a(I109
I1
I0
S'great'
p288
tp289
a(I148
I1
F-0.25
S'low'
p290
tp291
as(S'smart'
p292
tp293
(lp294
(I21
I0
F0.125
S'first'
p295
tp296
a(I59
I3
F0.375
S'new'
p297
tp298
a(I71
I2
F0.625
S'easy'
p299
tp300
as(S'good'
p301
S'condition'
p302
tp303
(lp304
(I3
I2
F1.0
S'good'
p305
tp306
a(I3
I2
I0
S'physical'
p307
tp308
a(I27
I0
F-0.375
S'top'
p309
tp310
a(I41
I0
F1.0
S'good'
p311
tp312
a(I68
I1
F1.0
S'good'
p313
tp314
a(I72
I0
F1.0
S'good'
p315
tp316
a(I74
I0
F1.0
S'good'
p317
tp318
a(I77
I0
F1.0
S'good'
p319
tp320
a(I122
I0
F1.0
S'good'
p321
tp322
as(S'ribbon'
p323
S'cable'
p324
tp325
(lp326
(I79
I2
I0
S'cable'
p327
tp328
as(S'thing'
p329
tp330
(lp331
(I55
I0
F-0.875
S'worst'
p332
tp333
a(I73
I4
I0
S'only'
p334
tp335
a(I79
I1
F0.625
S'easy'
p336
tp337
a(I79
I1
F-0.625
S'other'
p338
tp339
a(I88
I3
F1.0
S'best'
p340
tp341
a(I88
I3
F0.625
S'easy'
p342
tp343
a(I89
I0
F-0.875
S'worst'
p344
tp345
a(I107
I2
F0.125
S'first'
p346
tp347
a(I137
I1
F0.125
S'first'
p348
tp349
as(S'charge'
p350
tp351
(lp352
(I7
I1
I0
S'full'
p353
tp354
a(I7
I1
F0.125
S'able'
p355
tp356
as(S'device'
p357
tp358
(lp359
(I7
I6
F-0.625
S'other'
p360
tp361
a(I7
I6
I0
S'electronic'
p362
tp363
a(I9
I7
F-0.125
S'mine'
p364
tp365
a(I131
I7
F0.375
S'new'
p366
tp367
as(S'price'
p368
tp369
(lp370
(I3
I1
F1.0
S'good'
p371
tp372
a(I7
I2
F0.75
S'worth'
p373
tp374
a(I21
I0
I0
S'great'
p375
tp376
a(I29
I1
F1.0
S'better'
p377
tp378
a(I52
I4
I0
S'great'
p379
tp380
a(I79
I2
F-0.375
S'small'
p381
tp382
as(S'time'
p383
tp384
(lp385
(I16
I0
F0.125
S'first'
p386
tp387
a(I16
I0
F-0.75
S'wrong'
p388
tp389
a(I55
I2
F0.125
S'enough'
p390
tp391
a(I62
I0
F-0.5
S'long'
p392
tp393
a(I64
I1
I0
S'great'
p394
tp395
a(I65
I3
F0.125
S'first'
p396
tp397
a(I65
I3
F0.125
S'last'
p398
tp399
a(I67
I4
F0.125
S'first'
p400
tp401
a(I85
I0
I0
S'great'
p402
tp403
a(I126
I5
F-0.5
S'long'
p404
tp405
a(I130
I1
I0
S'great'
p406
tp407
a(I130
I1
I0
S'great'
p408
tp409
a(I151
I6
F1.0
S'good'
p410
tp411
a(I151
I6
F0.625
S'easy'
p412
tp413
a(I156
I9
F1.0
S'good'
p414
tp415
as(S'condition'
p416
tp417
(lp418
(I3
I2
F1.0
g305
tp419
a(I3
I2
I0
g307
tp420
a(I11
I1
F0.625
S'perfect'
p421
tp422
a(I27
I0
F-0.375
g309
tp423
a(I41
I0
F1.0
g311
tp424
a(I68
I1
F1.0
g313
tp425
a(I72
I0
F1.0
g315
tp426
a(I74
I0
F1.0
g317
tp427
a(I77
I0
F1.0
g319
tp428
a(I99
I0
F0.375
S'new'
p429
tp430
a(I122
I0
F1.0
g321
tp431
as(S'charger'
p432
tp433
(lp434
(I77
I2
I0
S'external'
p435
tp436
a(I87
I0
F1.0
S'good'
p437
tp438
as(S'android'
p439
S'market'
p440
tp441
(lp442
(I44
I2
I0
S'android'
p443
tp444
a(I151
I4
I0
S'android'
p445
tp446
a(I151
I5
I0
S'android'
p447
tp448
as(S'work'
p449
tp450
(lp451
(I62
I0
I0
S'great'
p452
tp453
as(S'apps'
p454
tp455
(lp456
(I1
I1
I0
S'own'
p457
tp458
a(I9
I6
I0
S'many'
p459
tp460
a(I11
I2
F-0.25
S'intensive'
p461
tp462
a(I55
I2
F0.375
S'new'
p463
tp464
a(I55
I3
F0.25
S'biggest'
p465
tp466
a(I126
I5
I0
S'android'
p467
tp468
a(I126
I5
F0.375
S'available'
p469
tp470
a(I137
I4
F-0.125
S'slow'
p471
tp472
a(I151
I5
F-0.625
S'free'
p473
tp474
a(I151
I5
F0.375
S'available'
p475
tp476
a(I156
I10
I0
S'many'
p477
tp478
as(S'internal'
p479
S'memory'
p480
tp481
(lp482
(I9
I2
I0
g151
tp483
a(I26
I1
I0
g153
tp484
a(I87
I0
I0
g159
tp485
a(I93
I0
F0.125
g161
tp486
a(I93
I0
I0
g163
tp487
as(S'days'
p488
tp489
(lp490
(I3
I3
I0
S'later'
p491
tp492
a(I74
I2
F0.5
S'rid'
p493
tp494
a(I84
I0
F0.125
S'first'
p495
tp496
a(I84
I0
I0
S'few'
p497
tp498
a(I92
I3
F-0.25
S'late'
p499
tp500
a(I126
I5
I0
S'few'
p501
tp502
as(S'htc'
p503
S'evo'
p504
S'shift'
p505
tp506
(lp507
(I63
I0
F0.5
g146
tp508
as(S'touch'
p509
S'screen'
p510
tp511
(lp512
(I13
I0
F-0.375
g25
tp513
a(I54
I0
F-0.5
g27
tp514
a(I63
I2
F0.5
g91
tp515
a(I108
I0
F0.5
g29
tp516
a(I118
I1
F-0.75
g31
tp517
a(I137
I3
F0.5
g103
tp518
a(I149
I0
F0.5
g33
tp519
as(S'n'
p520
S'good'
p521
S'condition'
p522
tp523
(lp524
(I3
I2
F1.0
g305
tp525
a(I3
I2
I0
g307
tp526
a(I27
I0
F-0.375
g309
tp527
a(I41
I0
F1.0
g311
tp528
a(I68
I1
F1.0
g313
tp529
a(I72
I0
F1.0
g315
tp530
a(I74
I0
F1.0
g317
tp531
a(I77
I0
F1.0
g319
tp532
a(I122
I0
F1.0
g321
tp533
as.