(dp0
(S'key'
p1
S'pad'
p2
tp3
(lp4
(I0
I4
F0.125
S'key'
p5
I0
tp6
a(I0
I6
F0.125
S'key'
p7
I0
tp8
a(I0
I6
F0.125
S'key'
p9
I0
tp10
a(I64
I0
F0.125
S'key'
p11
I0
tp12
a(I80
I7
F0.125
S'key'
p13
I0
tp14
as(S'and'
p15
S'touch'
p16
S'screen'
p17
tp18
(lp19
(I0
I2
F0.75
S'ideal'
p20
I0
tp21
a(I7
I9
F0.5
S'touch'
p22
I0
tp23
a(I10
I4
F0.5
S'touch'
p24
I0
tp25
a(I10
I7
F0.5
S'touch'
p26
I0
tp27
a(I14
I11
F0.5
S'touch'
p28
I0
tp29
a(I26
I23
F0.25
S'bigger'
p30
I0
tp31
a(I26
I23
F0.5
S'touch'
p32
I0
tp33
a(I32
I17
F0.5
S'touch'
p34
I0
tp35
a(I32
I17
F0.125
S'capable'
p36
I0
tp37
a(I33
I31
F0.5
S'touch'
p38
I0
tp39
a(I51
I8
F0.5
S'touch'
p40
I0
tp41
a(I52
I24
F0.5
S'touch'
p42
I0
tp43
a(I61
I9
F-0.375
S'small'
p44
I0
tp45
a(I68
I2
F0.5
S'touch'
p46
I0
tp47
a(I72
I37
F0.375
S'new'
p48
I0
tp49
a(I75
I11
F0.5
S'touch'
p50
I0
tp51
a(I79
I7
F0.5
S'touch'
p52
I0
tp53
a(I80
I7
F-0.75
S'hate'
p54
I0
tp55
a(I93
I30
F-0.375
S'small'
p56
I0
tp57
a(I93
I86
F1.0
S'better'
p58
I0
tp59
a(I0
I2
F0.75
g20
I2
tp60
a(I3
I16
F0.5
S'touch'
p61
I2
tp62
a(I3
I16
I0
S'great'
p63
I2
tp64
a(I7
I9
F0.5
g22
I2
tp65
a(I9
I0
F0.5
S'touch'
p66
I2
tp67
a(I10
I4
F0.5
g24
I2
tp68
a(I10
I7
F0.5
g26
I2
tp69
a(I14
I11
F0.5
g28
I2
tp70
a(I26
I23
F0.25
g30
I2
tp71
a(I26
I23
F0.5
g32
I2
tp72
a(I26
I29
F0.625
S'convenient'
p73
I2
tp74
a(I32
I17
F0.5
g34
I2
tp75
a(I32
I17
F0.125
g36
I2
tp76
a(I33
I2
F0.375
S'much'
p77
I2
tp78
a(I33
I2
F0.5
S'touch'
p79
I2
tp80
a(I33
I31
F0.5
g38
I2
tp81
a(I34
I17
F0.5
S'touch'
p82
I2
tp83
a(I42
I8
F0.5
S'touch'
p84
I2
tp85
a(I51
I8
F0.5
g40
I2
tp86
a(I51
I14
F0.5
S'touch'
p87
I2
tp88
a(I51
I14
I0
S'great'
p89
I2
tp90
a(I52
I24
F0.5
g42
I2
tp91
a(I55
I1
F0.5
S'touch'
p92
I2
tp93
a(I61
I9
F-0.375
g44
I2
tp94
a(I68
I2
F0.5
g46
I2
tp95
a(I72
I37
F0.375
g48
I2
tp96
a(I75
I11
F0.5
g50
I2
tp97
a(I79
I7
F0.5
g52
I2
tp98
a(I80
I7
F-0.75
g54
I2
tp99
a(I84
I13
F0.5
S'touch'
p100
I2
tp101
a(I93
I30
F-0.375
g56
I2
tp102
a(I93
I86
F1.0
g58
I2
tp103
as(S'email'
p104
tp105
(lp106
(I14
I15
F-0.125
S'slow'
p107
I5
tp108
a(I40
I5
I0
S'great'
p109
I5
tp110
a(I40
I7
I0
S'particular'
p111
I5
tp112
a(I40
I18
F1.0
S'good'
p113
I5
tp114
a(I51
I9
I0
S'corporate'
p115
I5
tp116
a(I54
I49
I0
S'mobile'
p117
I5
tp118
as(S'keys'
p119
tp120
(lp121
(I7
I9
F-0.875
S'hard'
p122
I9
tp123
a(I7
I9
F0.625
S'easier'
p124
I9
tp125
a(I15
I4
F-0.25
S'loose'
p126
I9
tp127
a(I18
I10
F0.25
S'responsive'
p128
I9
tp129
a(I18
I10
I0
S'large'
p130
I9
tp131
a(I18
I10
F-0.75
S'comfortable'
p132
I9
tp133
a(I33
I78
F-0.75
S'wrong'
p134
I9
tp135
a(I49
I1
I0
S'great'
p136
I9
tp137
a(I49
I1
F-0.5
S'actual'
p138
I9
tp139
a(I49
I7
F0.375
S'distinct'
p140
I9
tp141
a(I49
I7
F-0.625
S'other'
p142
I9
tp143
a(I75
I24
F-0.375
S'top'
p144
I9
tp145
as(S'service'
p146
S'provider'
p147
tp148
(lp149
(I52
I30
F-0.625
S'other'
p150
I0
tp151
a(I52
I30
F-0.625
g150
I16
tp152
a(I77
I0
F0.875
S'happy'
p153
I16
tp154
a(I88
I13
I0
S'faithful'
p155
I16
tp156
as(S'cdma'
p157
tp158
(lp159
(I54
I19
F0.125
S'capable'
p160
I0
tp161
as(S'camera'
p162
tp163
(lp164
(I42
I12
F0.375
S'much'
p165
I1
tp166
a(I66
I5
F0.5
S'disposable'
p167
I1
tp168
a(I66
I7
I0
S'great'
p169
I1
tp170
a(I67
I4
F1.0
S'good'
p171
I1
tp172
a(I71
I8
I0
S'more'
p173
I1
tp174
a(I93
I47
F0.875
S'nice'
p175
I1
tp176
a(I93
I48
I0
S'real'
p177
I1
tp178
as(S'battery'
p179
S'life'
p180
tp181
(lp182
(I32
I48
F1.0
S'good'
p183
I1
tp184
a(I33
I59
I0
S'least'
p185
I1
tp186
a(I33
I59
F0.75
S'worth'
p187
I1
tp188
a(I61
I10
I0
S'most'
p189
I1
tp190
a(I75
I9
F-0.5
S'weak'
p191
I1
tp192
a(I75
I9
F-0.375
S'exchanged'
p193
I1
tp194
a(I88
I28
F-0.5
S'relative'
p195
I1
tp196
a(I93
I42
F1.0
S'good'
p197
I1
tp198
a(I32
I48
F1.0
g183
I19
tp199
a(I75
I9
F-0.5
g191
I19
tp200
a(I75
I9
F-0.375
g193
I19
tp201
a(I88
I28
F-0.5
g195
I19
tp202
a(I93
I42
F1.0
g197
I19
tp203
a(I6
I24
F0.375
S'new'
p204
I15
tp205
a(I6
I31
F0.375
S'new'
p206
I15
tp207
a(I29
I8
F-0.125
S'super'
p208
I15
tp209
a(I29
I8
F-0.5
S'long'
p210
I15
tp211
a(I30
I4
I0
S'old'
p212
I15
tp213
a(I31
I5
F-0.625
S'bad'
p214
I15
tp215
a(I33
I59
I0
g185
I15
tp216
a(I33
I59
F0.75
g187
I15
tp217
a(I33
I91
F0.625
S'decent'
p218
I15
tp219
a(I33
I96
F0.375
S'extra'
p220
I15
tp221
a(I33
I96
F0.5
S'second'
p222
I15
tp223
a(I33
I97
F0.375
S'extended'
p224
I15
tp225
a(I33
I97
F0.375
S'available'
p226
I15
tp227
a(I34
I72
F0.375
S'new'
p228
I15
tp229
a(I59
I11
F-0.75
S'dead'
p230
I15
tp231
a(I61
I10
I0
g189
I15
tp232
a(I63
I1
I0
S'full'
p233
I15
tp234
a(I71
I22
F0.875
S'music'
p235
I15
tp236
a(I72
I31
F0.5
S'second'
p237
I15
tp238
a(I74
I2
I0
S'hot'
p239
I15
tp240
a(I80
I9
F-0.75
S'dead'
p241
I15
tp242
a(I93
I10
I0
S'more'
p243
I15
tp244
as(S'qwerty'
p245
S'keyboard'
p246
tp247
(lp248
(I93
I84
F1.0
S'best'
p249
I0
tp250
a(I10
I4
I0
S'sublime'
p251
I2
tp252
a(I14
I11
I0
S'great'
p253
I2
tp254
a(I22
I17
F0.875
S'nice'
p255
I2
tp256
a(I29
I36
I0
S'real'
p257
I2
tp258
a(I33
I3
I0
S'physical'
p259
I2
tp260
a(I40
I6
F1.0
S'better'
p261
I2
tp262
a(I40
I26
F1.0
S'better'
p263
I2
tp264
a(I48
I1
I0
S'physical'
p265
I2
tp266
a(I49
I0
F-0.5
S'actual'
p267
I2
tp268
a(I49
I1
F1.0
S'best'
p269
I2
tp270
a(I49
I2
F1.0
S'best'
p271
I2
tp272
a(I51
I8
I0
S'real'
p273
I2
tp274
a(I71
I23
F-0.125
S'blackberry'
p275
I2
tp276
a(I83
I6
I0
S'full'
p277
I2
tp278
a(I88
I28
I0
S'physical'
p279
I2
tp280
a(I93
I18
F0.5
S'touch'
p281
I2
tp282
as(S'iphone'
p283
tp284
(lp285
(I3
I17
I0
S'faster'
p286
I1
tp287
a(I10
I14
I0
S'android'
p288
I1
tp289
a(I10
I21
F0.75
S'due'
p290
I1
tp291
a(I29
I5
F0.625
S'logical'
p292
I1
tp293
a(I33
I13
F-0.5
S'sure'
p294
I1
tp295
a(I33
I19
F0.375
S'new'
p296
I1
tp297
a(I33
I19
I0
S'android'
p298
I1
tp299
a(I33
I81
F-0.75
S'worse'
p300
I1
tp301
a(I33
I121
F1.0
S'better'
p302
I1
tp303
a(I34
I14
I0
S'android'
p304
I1
tp305
a(I43
I7
I0
S'faster'
p306
I1
tp307
a(I43
I11
F-0.75
S'dead'
p308
I1
tp309
a(I93
I86
F1.0
S'good'
p310
I1
tp311
as(S'a'
p312
S'touch'
p313
S'screen'
p314
tp315
(lp316
(I0
I2
F0.75
g20
I0
tp317
a(I3
I16
F0.5
g61
I0
tp318
a(I3
I16
I0
g63
I0
tp319
a(I7
I9
F0.5
g22
I0
tp320
a(I9
I0
F0.5
g66
I0
tp321
a(I10
I4
F0.5
g24
I0
tp322
a(I10
I7
F0.5
g26
I0
tp323
a(I14
I11
F0.5
g28
I0
tp324
a(I26
I23
F0.25
g30
I0
tp325
a(I26
I23
F0.5
g32
I0
tp326
a(I26
I29
F0.625
g73
I0
tp327
a(I32
I17
F0.5
g34
I0
tp328
a(I32
I17
F0.125
g36
I0
tp329
a(I33
I2
F0.375
g77
I0
tp330
a(I33
I2
F0.5
g79
I0
tp331
a(I33
I31
F0.5
g38
I0
tp332
a(I42
I8
F0.5
g84
I0
tp333
a(I51
I8
F0.5
g40
I0
tp334
a(I51
I14
F0.5
g87
I0
tp335
a(I51
I14
I0
g89
I0
tp336
a(I52
I24
F0.5
g42
I0
tp337
a(I55
I1
F0.5
g92
I0
tp338
a(I61
I9
F-0.375
g44
I0
tp339
a(I68
I2
F0.5
g46
I0
tp340
a(I72
I37
F0.375
g48
I0
tp341
a(I75
I11
F0.5
g50
I0
tp342
a(I79
I7
F0.5
g52
I0
tp343
a(I80
I7
F-0.75
g54
I0
tp344
a(I84
I13
F0.5
g100
I0
tp345
a(I93
I30
F-0.375
g56
I0
tp346
a(I93
I86
F1.0
g58
I0
tp347
as(S'internet'
p348
tp349
(lp350
(I18
I17
I0
S'fast'
p351
I6
tp352
a(I22
I6
I0
S'email'
p353
I6
tp354
as(S'love'
p355
S'love'
p356
tp357
(lp358
(I51
I8
F1.0
S'love'
p359
I2
tp360
as(S'social'
p361
S'media'
p362
tp363
(lp364
(I29
I3
I0
S'social'
p365
I0
tp366
a(I33
I22
I0
S'many'
p367
I0
tp368
a(I33
I22
I0
S'social'
p369
I0
tp370
a(I33
I27
I0
S'social'
p371
I0
tp372
as(S'verizon'
p373
tp374
(lp375
(I30
I5
I0
S'more'
p376
I0
tp377
a(I30
I5
I0
S'funny'
p378
I0
tp379
a(I32
I3
F0.375
S'new'
p380
I0
tp381
a(I48
I19
F-0.625
S'bad'
p382
I0
tp383
a(I53
I11
F0.5
S'recommended'
p384
I0
tp385
as(S'business'
p386
S'purposes'
p387
tp388
(lp389
(I3
I9
F-0.125
S'blackberry'
p390
I0
tp391
a(I3
I12
F1.0
S'best'
p392
I0
tp393
a(I3
I9
F-0.125
g390
I9
tp394
a(I3
I12
F1.0
g392
I9
tp395
a(I3
I28
F1.0
S'better'
p396
I9
tp397
a(I3
I28
F1.0
S'better'
p398
I9
tp399
a(I32
I15
F0.375
S'new'
p400
I9
tp401
a(I43
I10
I0
S'real'
p402
I9
tp403
a(I71
I11
I0
S'deal'
p404
I9
tp405
a(I71
I11
F0.875
S'happy'
p406
I9
tp407
as(S'touchscreen'
p408
tp409
(lp410
(I83
I10
F-0.375
S'simple'
p411
I0
tp412
a(I88
I22
I0
S'crisp'
p413
I0
tp414
as(S'seller'
p415
tp416
(lp417
(I16
I4
F-0.625
S'sorry'
p418
I19
tp419
a(I16
I4
F-0.5
S'poor'
p420
I19
tp421
a(I26
I24
F0.25
S'helpful'
p422
I19
tp423
a(I34
I70
I0
S'great'
p424
I19
tp425
a(I34
I70
F0.25
S'helpful'
p426
I19
tp427
as(S'web'
p428
S'pages'
p429
tp430
(lp431
(I32
I24
F-0.5
S'certain'
p432
I0
tp433
a(I93
I32
F-0.5
S'longer'
p434
I0
tp435
as(S'network'
p436
tp437
(lp438
(I0
I9
I0
S'mobile'
p439
I0
tp440
a(I8
I39
F-0.625
S'other'
p441
I0
tp442
a(I54
I44
I0
S'mobile'
p443
I0
tp444
a(I92
I0
I0
S'social'
p445
I0
tp446
as(S'blackberry'
p447
S'bold'
p448
tp449
(lp450
(I7
I10
F0.375
S'newest'
p451
I0
tp452
a(I15
I1
F0.5
S'bold'
p453
I0
tp454
a(I93
I82
F0.375
S'new'
p455
I0
tp456
a(I32
I8
I0
S'big'
p457
I1
tp458
a(I33
I84
F-0.75
S'stupid'
p459
I1
tp460
a(I33
I84
I0
S'commercial'
p461
I1
tp462
a(I93
I86
F0.5
S'touch'
p463
I1
tp464
a(I4
I11
F0.375
S'proud'
p465
I1
tp466
a(I4
I22
F-0.875
S'worst'
p467
I1
tp468
a(I7
I6
I0
S'very'
p469
I1
tp470
a(I7
I6
I0
S'few'
p471
I1
tp472
a(I7
I10
F0.375
g451
I1
tp473
a(I8
I22
I0
S'older'
p474
I1
tp475
a(I15
I1
F0.5
g453
I1
tp476
a(I26
I26
F0.5
S'touch'
p477
I1
tp478
a(I33
I4
F0.375
S'new'
p479
I1
tp480
a(I40
I2
I0
S'anymore'
p481
I1
tp482
a(I40
I11
F-0.625
S'other'
p483
I1
tp484
a(I43
I4
F1.0
S'good'
p485
I1
tp486
a(I43
I4
I0
S'old'
p487
I1
tp488
a(I43
I16
F-0.625
S'glad'
p489
I1
tp490
a(I49
I1
F0.375
S'newest'
p491
I1
tp492
a(I51
I5
F-0.625
S'other'
p493
I1
tp494
a(I51
I12
F-0.625
S'other'
p495
I1
tp496
a(I52
I7
F1.0
S'best'
p497
I1
tp498
a(I54
I7
F1.0
S'best'
p499
I1
tp500
a(I61
I5
F0.125
S'first'
p501
I1
tp502
a(I63
I3
F-0.625
S'other'
p503
I1
tp504
a(I66
I4
I0
S'next'
p505
I1
tp506
a(I68
I4
F0.875
S'happy'
p507
I1
tp508
a(I72
I7
F0.125
S'first'
p509
I1
tp510
a(I75
I20
F0.375
S'new'
p511
I1
tp512
a(I93
I82
F0.375
g455
I1
tp513
as(S'sim'
p514
S'card'
p515
tp516
(lp517
(I3
I35
F0.375
S'new'
p518
I0
tp519
a(I88
I14
F0.5
S'bold'
p520
I0
tp521
as(S'data'
p522
tp523
(lp524
(I43
I0
I0
S'cable'
p525
I13
tp526
a(I72
I16
F-0.5
S'less'
p527
I13
tp528
as(S'car'
p529
S'stereo'
p530
tp531
(lp532
(I34
I34
F0.875
S'music'
p533
I0
tp534
as(S'samsung'
p535
S'galaxy'
p536
tp537
(lp538
(I54
I16
F0.25
S'unlocked'
p539
I0
tp540
as(S'apps'
p541
tp542
(lp543
(I6
I6
F-0.5
S'international'
p544
I0
tp545
a(I10
I13
F0.25
S'powerful'
p546
I0
tp547
a(I32
I43
F-0.625
S'quite'
p548
I0
tp549
a(I33
I16
F-0.625
S'other'
p550
I0
tp551
a(I33
I64
F0.25
S'medical'
p552
I0
tp553
a(I33
I113
I0
S'most'
p554
I0
tp555
a(I33
I113
F0.625
S'major'
p556
I0
tp557
a(I33
I113
F0.375
S'available'
p558
I0
tp559
a(I40
I4
F0.5
S'true'
p560
I0
tp561
a(I51
I15
I0
S'many'
p562
I0
tp563
a(I52
I26
F0.125
S'essential'
p564
I0
tp565
a(I71
I8
I0
S'adequate'
p566
I0
tp567
a(I84
I27
I0
S'download'
p568
I0
tp569
as(S'amazon'
p570
tp571
(lp572
(I31
I2
F-0.125
S'blackberry'
p573
I13
tp574
a(I38
I4
I0
S'third'
p575
I13
tp576
a(I88
I21
F-0.125
S'mine'
p577
I13
tp578
as.