(dp0
(S'times'
p1
tp2
(lp3
(I1
I0
F0.375
S'alive'
p4
tp5
a(I38
I9
I0
S'least'
p6
tp7
a(I38
I9
I0
S'ran'
p8
tp9
a(I65
I1
F-0.625
S'other'
p10
tp11
a(I124
I0
F0.75
S'due'
p12
tp13
as(S'problem'
p14
tp15
(lp16
(I15
I0
I0
S'only'
p17
tp18
a(I61
I0
I0
S'only'
p19
tp20
a(I61
I1
I0
S'only'
p21
tp22
a(I61
I1
F-0.625
S'other'
p23
tp24
a(I97
I4
I0
S'same'
p25
tp26
a(I162
I1
I0
S'only'
p27
tp28
as(S'battery'
p29
S'life'
p30
tp31
(lp32
(I13
I2
F0.375
S'extended'
p33
tp34
a(I38
I11
F0.375
S'tight'
p35
tp36
a(I47
I5
F0.375
S'new'
p37
tp38
a(I47
I5
F0.375
S'extended'
p39
tp40
a(I73
I1
F0.375
S'new'
p41
tp42
a(I73
I1
F0.875
S'nice'
p43
tp44
a(I77
I0
F-0.5
S'long'
p45
tp46
a(I113
I1
F0.375
S'extended'
p47
tp48
a(I113
I1
F1.0
S'better'
p49
tp50
a(I115
I2
F-0.25
S'battery'
p51
tp52
a(I117
I0
F-0.25
S'disappointed'
p53
tp54
a(I135
I1
F0.375
S'extended'
p55
tp56
as(S'model'
p57
tp58
(lp59
(I30
I7
I0
S'different'
p60
tp61
a(I38
I9
I0
S'same'
p62
tp63
a(I53
I4
F-0.875
S'trouble'
p64
tp65
a(I108
I0
I0
S'sturdy'
p66
tp67
a(I142
I0
I0
S'basic'
p68
tp69
as(S'charging'
p70
tp71
(lp72
(I43
I0
F-0.625
S'bad'
p73
tp74
a(I43
I5
F-0.125
S'overall'
p75
tp76
as(S'husband'
p77
tp78
(lp79
(I159
I2
F-0.625
S'rough'
p80
tp81
as(S'money'
p82
tp83
(lp84
(I121
I0
F0.125
S'last'
p85
tp86
as(S'company'
p87
tp88
(lp89
(I40
I5
I0
S'cellular'
p90
tp91
as(S"g'zone"
p92
S'boulder'
p93
tp94
(lp95
(I135
I0
F-0.375
S'black'
p96
tp97
as(S'back'
p98
tp99
(lp100
(I117
I4
F-0.375
S'double'
p101
tp102
a(I117
I4
F-0.5
S'adhesive'
p103
tp104
as(S'need'
p105
tp106
(lp107
(I88
I2
F0.625
S'donate'
p108
tp109
as(S'camera'
p110
tp111
(lp112
(I6
I1
I0
S'photography'
p113
tp114
a(I19
I7
F-0.375
S'simple'
p115
tp116
a(I28
I5
F-0.75
S'sad'
p117
tp118
as(S"g'zone"
p119
tp120
(lp121
(I135
I0
F-0.375
g96
tp122
as(S'broke'
p123
tp124
(lp125
(I37
I4
F0.5
S'touch'
p126
tp127
a(I126
I1
F-0.375
S'top'
p128
tp129
as(S'month'
p130
tp131
(lp132
(I8
I5
F-0.25
S'ready'
p133
tp134
a(I19
I14
F-0.5
S'less'
p135
tp136
as(S'boulder'
p137
tp138
(lp139
(I29
I0
I0
S'different'
p140
tp141
a(I39
I4
F0.25
S'original'
p142
tp143
a(I39
I6
F0.25
S'original'
p144
tp145
a(I39
I10
F0.25
S'original'
p146
tp147
a(I73
I0
F0.5
S'second'
p148
tp149
a(I149
I10
F-0.5
S'sure'
p150
tp151
as(S'fine'
p152
tp153
(lp154
(I45
I4
F0.5
S'second'
p155
tp156
a(I84
I0
F0.5
S'second'
p157
tp158
as(S'life'
p159
tp160
(lp161
(I13
I2
F0.375
g33
tp162
a(I38
I11
F0.375
g35
tp163
a(I47
I5
F0.375
g37
tp164
a(I47
I5
F0.375
g39
tp165
a(I93
I5
I0
S'active'
p166
tp167
a(I93
I5
I0
S'social'
p168
tp169
a(I113
I1
F0.375
g47
tp170
a(I115
I2
F-0.25
g51
tp171
a(I135
I1
F0.375
g55
tp172
as(S'extended'
p173
S'battery'
p174
tp175
(lp176
(I7
I5
F0.375
S'extended'
p177
tp178
a(I19
I20
F0.25
S'original'
p179
tp180
a(I38
I7
F0.375
S'extended'
p181
tp182
a(I67
I0
F0.375
S'extended'
p183
tp184
a(I113
I1
F1.0
g49
tp185
a(I115
I7
F0.375
S'extended'
p186
tp187
a(I115
I8
F0.5
S'compatible'
p188
tp189
a(I115
I8
I0
S'current'
p190
tp191
as(S'verizon'
p192
tp193
(lp194
(I24
I2
I0
S'different'
p195
tp196
a(I138
I6
F0.375
S'available'
p197
tp198
as(S'years'
p199
tp200
(lp201
(I39
I6
I0
S'great'
p202
tp203
a(I143
I2
F0.125
S'first'
p204
tp205
a(I158
I2
F0.125
S'last'
p206
tp207
a(I158
I2
I0
S'great'
p208
tp209
as(S'hold'
p210
S'a'
p211
S'charge'
p212
tp213
(lp214
(I101
I1
I0
S'more'
p215
tp216
as(S'work'
p217
tp218
(lp219
(I157
I5
I0
S'active'
p220
tp221
as(S'speaker'
p222
tp223
(lp224
(I39
I8
F0.25
S'original'
p225
tp226
a(I84
I0
F0.5
S'second'
p227
tp228
a(I112
I1
F-0.625
S'bad'
p229
tp230
as(S'weeks'
p231
tp232
(lp233
(I5
I7
I0
S'later'
p234
tp235
a(I98
I0
I0
S'different'
p236
tp237
as(S'plan'
p238
tp239
(lp240
(I80
I8
I0
S'website'
p241
tp242
as(S'works'
p243
tp244
(lp245
(I92
I0
I0
S'great'
p246
tp247
as(S'great'
p248
tp249
(lp250
(I106
I0
F0.375
S'worked'
p251
tp252
as(S'think'
p253
tp254
(lp255
(I155
I1
F0.625
S'kind'
p256
tp257
a(I155
I1
F0.875
S'important'
p258
tp259
as(S'battery'
p260
tp261
(lp262
(I7
I5
F0.375
g177
tp263
a(I8
I7
F-0.889
S'unfortunate'
p264
tp265
a(I8
I8
F0.375
S'new'
p266
tp267
a(I19
I20
F0.25
g179
tp268
a(I19
I27
I0
S'external'
p269
tp270
a(I22
I1
F0.375
S'extra'
p271
tp272
a(I38
I7
F0.375
g181
tp273
a(I51
I0
F0.75
S'due'
p274
tp275
a(I58
I0
I0
S'great'
p276
tp277
a(I67
I0
F0.375
g183
tp278
a(I73
I1
F0.375
g41
tp279
a(I73
I1
F0.875
g43
tp280
a(I77
I0
F-0.5
g45
tp281
a(I82
I0
F-0.625
S'bad'
p282
tp283
a(I84
I0
F0.125
S'first'
p284
tp285
a(I101
I2
F0.375
S'new'
p286
tp287
a(I113
I1
F1.0
g49
tp288
a(I115
I7
F0.375
g186
tp289
a(I115
I8
F0.5
g188
tp290
a(I115
I8
I0
g190
tp291
a(I117
I0
F-0.25
g53
tp292
a(I120
I0
F-0.75
S'dead'
p293
tp294
a(I138
I1
F-0.375
S'small'
p295
tp296
a(I157
I3
I0
S'standard'
p297
tp298
a(I162
I2
I0
S'old'
p299
tp300
as(S'smart'
p301
tp302
(lp303
(I19
I3
F0.125
S'rugged'
p304
tp305
a(I19
I3
F0.125
S'typical'
p306
tp307
a(I159
I3
F0.375
S'extra'
p308
tp309
as(S'3'
p310
S'weeks'
p311
tp312
(lp313
(I98
I0
I0
g236
tp314
as(S'cell'
p315
tp316
(lp317
(I56
I0
F0.875
S'happy'
p318
tp319
a(I70
I1
F0.25
S'used'
p320
tp321
as(S'calls'
p322
tp323
(lp324
(I37
I2
I0
S'own'
p325
tp326
a(I93
I7
I0
S'many'
p327
tp328
a(I110
I1
I0
S'more'
p329
tp330
a(I140
I1
F0.5
S'clear'
p331
tp332
a(I155
I1
F0.125
S'able'
p333
tp334
as(S'charge'
p335
tp336
(lp337
(I19
I28
I0
S'normal'
p338
tp339
a(I81
I1
I0
S'cable'
p340
tp341
a(I95
I1
I0
S'great'
p342
tp343
a(I101
I1
I0
g215
tp344
as(S'waste'
p345
S'of'
p346
S'money'
p347
tp348
(lp349
(I16
I3
I0
S'total'
p350
tp351
as(S'call'
p352
tp353
(lp354
(I38
I13
F-0.125
S'communicate'
p355
tp356
a(I111
I2
F-0.625
S'bad'
p357
tp358
as(S'orange'
p359
tp360
(lp361
(I74
I2
F0.875
S'happy'
p362
tp363
a(I109
I1
I0
S'tennessee'
p364
tp365
as(S'time'
p366
tp367
(lp368
(I14
I1
F-0.5
S'long'
p369
tp370
a(I45
I7
F0.25
S'p.o.s'
p371
tp372
a(I69
I0
F-0.75
S'difficult'
p373
tp374
a(I73
I2
F-0.5
S'long'
p375
tp376
a(I80
I10
I0
S'same'
p377
tp378
a(I88
I2
F-0.75
S'short'
p379
tp380
a(I90
I1
F0.125
S'first'
p381
tp382
a(I96
I2
F0.75
S'worth'
p383
tp384
a(I148
I0
F-0.875
S'hard'
p385
tp386
as(g211
S'new'
p387
S'battery'
p388
tp389
(lp390
(I8
I8
F0.375
g266
tp391
a(I73
I1
F0.375
g41
tp392
a(I73
I1
F0.875
g43
tp393
a(I101
I2
F0.375
g286
tp394
a(I120
I0
F-0.75
g293
tp395
a(I138
I1
F-0.375
g295
tp396
as(S'casio'
p397
S"g'zone"
p398
tp399
(lp400
(I117
I1
F0.125
S'last'
p401
tp402
as(S'car'
p403
S'charger'
p404
tp405
(lp406
(I38
I18
F-0.5
S'open'
p407
tp408
as(S'charger'
p409
tp410
(lp411
(I22
I1
F0.125
S'able'
p412
tp413
a(I37
I1
F0.125
S'last'
p414
tp415
a(I91
I3
F0.375
S'new'
p416
tp417
a(I160
I4
F0.125
S'able'
p418
tp419
a(I160
I6
F0.125
S'able'
p420
tp421
as(S'data'
p422
S'plan'
p423
tp424
(lp425
(I80
I8
I0
g241
tp426
as(S'water'
p427
tp428
(lp429
(I30
I2
F-0.25
S'trial'
p430
tp431
a(I91
I2
I0
S'balcony'
p432
tp433
a(I126
I0
F-0.75
S'tough'
p434
tp435
as(S'months'
p436
tp437
(lp438
(I35
I0
I0
S'few'
p439
tp440
a(I47
I3
I0
S'later'
p441
tp442
a(I52
I0
I0
S'few'
p443
tp444
a(I150
I5
F0.5
S'willing'
p445
tp446
as(S'extended'
p447
S'life'
p448
S'battery'
p449
tp450
(lp451
(I13
I2
F0.375
g33
tp452
a(I38
I11
F0.375
g35
tp453
a(I47
I5
F0.375
g37
tp454
a(I47
I5
F0.375
g39
tp455
a(I113
I1
F0.375
g47
tp456
a(I113
I1
F1.0
g49
tp457
a(I135
I1
F0.375
g55
tp458
as(S'casio'
p459
tp460
(lp461
(I28
I6
I0
S'real'
p462
tp463
a(I45
I0
F0.5
S'second'
p464
tp465
a(I88
I0
I0
S'orange'
p466
tp467
a(I100
I0
I0
S'military'
p468
tp469
a(I117
I1
F0.125
g401
tp470
a(I138
I3
F0.125
S'able'
p471
tp472
a(I138
I3
F0.25
S'original'
p473
tp474
a(I138
I3
I0
S'high'
p475
tp476
as(S'days'
p477
tp478
(lp479
(I19
I20
F0.125
S'first'
p480
tp481
a(I19
I20
I0
S'few'
p482
tp483
a(I113
I1
F0.125
S'last'
p484
tp485
a(I131
I0
I0
S'charged'
p486
tp487
as.