(dp0
(S'qwerty'
p1
S'keyboard'
p2
tp3
(lp4
(I8
I21
F0.625
S'convenient'
p5
I0
tp6
a(I19
I17
F0.5
S'flat'
p7
I0
tp8
a(I1
I19
F0.875
S'nice'
p9
I2
tp10
a(I4
I8
I0
S'great'
p11
I2
tp12
a(I4
I8
F-0.375
S'small'
p13
I2
tp14
a(I4
I8
F0.625
S'easy'
p15
I2
tp16
a(I7
I31
F0.625
S'easier'
p17
I2
tp18
a(I8
I21
F0.625
g5
I2
tp19
a(I9
I5
F-0.75
S'unable'
p20
I2
tp21
a(I23
I40
F1.0
S'good'
p22
I2
tp23
as(S'a'
p24
S'touch'
p25
S'screen'
p26
tp27
(lp28
(I0
I2
F0.25
S'responsive'
p29
I0
tp30
a(I0
I5
F0.25
S'main'
p31
I0
tp32
a(I1
I29
F0.5
S'touch'
p33
I0
tp34
a(I1
I29
I0
S'capacitive'
p35
I0
tp36
a(I1
I29
F0.625
S'easier'
p37
I0
tp38
a(I1
I29
I0
S'resistive'
p39
I0
tp40
a(I1
I79
F-0.375
S'avoid'
p41
I0
tp42
a(I1
I79
F0.5
S'touch'
p43
I0
tp44
a(I3
I0
F0.5
S'touch'
p45
I0
tp46
a(I7
I6
F0.5
S'touch'
p47
I0
tp48
a(I7
I8
I0
S'sensitive'
p49
I0
tp50
a(I8
I9
F0.5
S'touch'
p51
I0
tp52
a(I9
I22
F0.5
S'touch'
p53
I0
tp54
a(I15
I7
F0.5
S'touch'
p55
I0
tp56
a(I16
I8
F0.5
S'touch'
p57
I0
tp58
a(I19
I12
F0.5
S'touch'
p59
I0
tp60
a(I22
I7
I0
S'great'
p61
I0
tp62
a(I23
I30
F0.5
S'touch'
p63
I0
tp64
a(I23
I32
F-0.625
S'bad'
p65
I0
tp66
a(I23
I41
F0.5
S'touch'
p67
I0
tp68
a(I0
I2
F0.25
g29
I2
tp69
a(I0
I5
F0.25
g31
I2
tp70
a(I1
I29
F0.5
g33
I2
tp71
a(I1
I29
I0
g35
I2
tp72
a(I1
I29
F0.625
g37
I2
tp73
a(I1
I29
I0
g39
I2
tp74
a(I1
I79
F-0.375
g41
I2
tp75
a(I1
I79
F0.5
g43
I2
tp76
a(I3
I0
F0.5
g45
I2
tp77
a(I7
I6
F0.5
g47
I2
tp78
a(I7
I8
I0
g49
I2
tp79
a(I8
I9
F0.5
g51
I2
tp80
a(I9
I22
F0.5
g53
I2
tp81
a(I15
I7
F0.5
g55
I2
tp82
a(I16
I8
F0.5
g57
I2
tp83
a(I19
I12
F0.5
g59
I2
tp84
a(I22
I7
I0
g61
I2
tp85
a(I23
I10
F0.5
S'touch'
p86
I2
tp87
a(I23
I30
F0.5
g63
I2
tp88
a(I23
I32
F-0.625
g65
I2
tp89
a(I23
I41
F0.5
g67
I2
tp90
as(S'music'
p91
S'player'
p92
tp93
(lp94
(I1
I64
F0.875
S'music'
p95
I0
tp96
a(I4
I8
I0
S'great'
p97
I0
tp98
a(I4
I8
I0
g97
I0
tp99
as(S'verizon'
p100
tp101
(lp102
(I5
I13
I0
S'wish'
p103
I0
tp104
a(I9
I3
F-0.889
S'unfortunate'
p105
I0
tp106
a(I9
I3
F-0.5
S'unavailable'
p107
I0
tp108
as(S'text'
p109
tp110
(lp111
(I9
I1
F0.125
S'able'
p112
I18
tp113
a(I9
I1
F-0.5
S'open'
p114
I18
tp115
a(I13
I5
F-0.375
S'simple'
p116
I18
tp117
as(S'battery'
p118
S'life'
p119
tp120
(lp121
(I7
I12
F1.0
S'good'
p122
I1
tp123
a(I23
I25
F1.0
S'good'
p124
I1
tp125
a(I22
I8
F-0.5
S'long'
p126
I15
tp127
as(S'calls'
p128
tp129
(lp130
(I0
I17
I0
S'dial'
p131
I0
tp132
a(I1
I46
F0.375
S'complete'
p133
I0
tp134
a(I1
I46
F-0.875
S'hard'
p135
I0
tp136
a(I7
I9
F1.0
S'good'
p137
I0
tp138
as(S'texting'
p139
tp140
(lp141
(I1
I22
I0
S'fast'
p142
I0
tp143
a(I1
I67
F0.875
S'music'
p144
I0
tp145
a(I7
I1
F-0.5
S'heavy'
p146
I0
tp147
a(I7
I16
F0.625
S'easy'
p148
I0
tp149
a(I7
I16
I0
S'quick'
p150
I0
tp151
a(I7
I31
I0
S'great'
p152
I0
tp153
a(I13
I12
F0.875
S'nice'
p154
I0
tp155
as(S'camera'
p156
tp157
(lp158
(I1
I16
F-0.75
S'worse'
p159
I1
tp160
a(I4
I18
F1.0
S'best'
p161
I1
tp162
a(I13
I11
F-0.5
S'regular'
p163
I1
tp164
as.