(dp0
(S'times'
p1
tp2
(lp3
(I28
I6
I0
S'different'
p4
tp5
a(I30
I1
I0
S'many'
p6
tp7
a(I36
I4
I0
S'many'
p8
tp9
a(I36
I9
F0.125
S'able'
p10
tp11
a(I82
I2
I0
S'ran'
p12
tp13
a(I135
I12
I0
S'many'
p14
tp15
as(S'key'
p16
S'pad'
p17
tp18
(lp19
(I5
I0
I0
S'full'
p20
tp21
a(I5
I0
F0.125
S'key'
p22
tp23
a(I5
I0
I0
S'great'
p24
tp25
a(I89
I1
F0.125
S'key'
p26
tp27
a(I89
I2
F0.125
S'key'
p28
tp29
a(I148
I2
F-0.5
S'regular'
p30
tp31
a(I148
I2
F0.125
S'key'
p32
tp33
as(S'virgin'
p34
S'mobile'
p35
tp36
(lp37
(I113
I8
I0
S'mobile'
p38
tp39
as(S'tracfone'
p40
S'service'
p41
tp42
(lp43
(I3
I3
I0
S'site'
p44
tp45
a(I29
I3
F1.0
S'good'
p46
tp47
a(I58
I2
I0
S'old'
p48
tp49
a(I58
I25
I0
S'great'
p50
tp51
a(I58
I25
F0.125
S'able'
p52
tp53
a(I59
I8
F0.625
S'add'
p54
tp55
a(I65
I10
F0.875
S'happy'
p56
tp57
a(I66
I4
F-0.75
S'unable'
p58
tp59
a(I66
I6
F0.125
S'able'
p60
tp61
a(I90
I4
I0
S'old'
p62
tp63
a(I105
I1
F1.0
S'good'
p64
tp65
a(I137
I1
F0.25
S'helpful'
p66
tp67
a(I146
I4
F0.625
S'pleasant'
p68
tp69
as(S'minutes'
p70
tp71
(lp72
(I0
I0
I0
S'promotional'
p73
tp74
a(I0
I0
F-0.375
S'double'
p75
tp76
a(I3
I14
I0
S'later'
p77
tp78
a(I3
I41
I0
S'keypad'
p79
tp80
a(I14
I4
F-0.375
S'double'
p81
tp82
a(I18
I19
I0
S'internet'
p83
tp84
a(I29
I5
F-0.75
S'lost'
p85
tp86
a(I29
I5
I0
S'few'
p87
tp88
a(I29
I5
F0.375
S'extra'
p89
tp90
a(I36
I4
I0
S'least'
p91
tp92
a(I37
I1
F-0.25
S'triple'
p93
tp94
a(I42
I5
F-0.5
S'long'
p95
tp96
a(I42
I7
F0.5
S'careful'
p97
tp98
a(I56
I8
F-0.375
S'paranoid'
p99
tp100
a(I57
I9
F0.125
S'first'
p101
tp102
a(I58
I1
F-0.5
S'sure'
p103
tp104
a(I58
I28
F0.875
S'happy'
p105
tp106
a(I61
I2
I0
S'old'
p107
tp108
a(I68
I9
I0
S'few'
p109
tp110
a(I71
I3
F-0.25
S'triple'
p111
tp112
a(I75
I5
I0
S'few'
p113
tp114
a(I75
I7
I0
S'few'
p115
tp116
a(I79
I1
F1.0
S'good'
p117
tp118
a(I82
I4
I0
S'total'
p119
tp120
a(I87
I1
I0
S'great'
p121
tp122
a(I87
I1
I0
S'great'
p123
tp124
a(I95
I4
F-0.25
S'triple'
p125
tp126
a(I123
I5
I0
S'valuable'
p127
tp128
a(I132
I6
I0
S'few'
p129
tp130
a(I138
I3
I0
S'more'
p131
tp132
a(I144
I3
F0.125
S'able'
p133
tp134
a(I146
I5
I0
S'old'
p135
tp136
a(I146
I5
F-0.125
S'overall'
p137
tp138
as(S'keyboard'
p139
tp140
(lp141
(I15
I1
I0
S'full'
p142
tp143
a(I34
I0
F-0.75
S'bright'
p144
tp145
a(I34
I0
F-0.625
S'light'
p146
tp147
a(I36
I16
I0
S'full'
p148
tp149
a(I58
I14
F0.625
S'easy'
p150
tp151
a(I58
I21
F-0.75
S'tough'
p152
tp153
a(I60
I4
I0
S'full'
p154
tp155
a(I63
I0
F0.625
S'easy'
p156
tp157
a(I65
I3
I0
S'full'
p158
tp159
a(I67
I4
F0.125
S'able'
p160
tp161
a(I76
I2
F0.875
S'nice'
p162
tp163
a(I82
I10
F0.125
S'able'
p164
tp165
a(I82
I13
I0
S'great'
p166
tp167
a(I87
I0
I0
S'full'
p168
tp169
a(I87
I1
I0
S'full'
p170
tp171
a(I87
I1
F0.625
S'easy'
p172
tp173
a(I100
I1
I0
S'great'
p174
tp175
a(I107
I1
F0.625
S'easy'
p176
tp177
a(I111
I0
I0
S'full'
p178
tp179
a(I113
I2
F-0.75
S'comfortable'
p180
tp181
a(I116
I0
F0.125
S'first'
p182
tp183
a(I116
I0
I0
S'full'
p184
tp185
a(I117
I0
I0
S'full'
p186
tp187
a(I122
I0
I0
S'full'
p188
tp189
a(I125
I2
I0
S'useful'
p190
tp191
a(I125
I2
F0.625
S'easy'
p192
tp193
a(I132
I1
I0
S'full'
p194
tp195
a(I132
I2
I0
S'full'
p196
tp197
a(I145
I3
I0
S'great'
p198
tp199
a(I146
I3
F0.875
S'nice'
p200
tp201
as(S'full'
p202
S'keyboard'
p203
tp204
(lp205
(I15
I1
I0
g142
tp206
a(I36
I16
I0
g148
tp207
a(I60
I4
I0
g154
tp208
a(I65
I3
I0
g158
tp209
a(I87
I0
I0
g168
tp210
a(I87
I1
I0
g170
tp211
a(I87
I1
F0.625
g172
tp212
a(I111
I0
I0
g178
tp213
a(I116
I0
F0.125
g182
tp214
a(I116
I0
I0
g184
tp215
a(I117
I0
I0
g186
tp216
a(I122
I0
I0
g188
tp217
a(I132
I1
I0
g194
tp218
a(I132
I2
I0
g196
tp219
as(S'touch'
p220
tp221
(lp222
(I142
I1
I0
S'old'
p223
tp224
a(I146
I1
F-0.375
S'small'
p225
tp226
as(S'keys'
p227
tp228
(lp229
(I31
I4
F0.625
S'easy'
p230
tp231
a(I44
I5
F-0.625
S'light'
p232
tp233
a(I44
I5
F-0.75
S'dark'
p234
tp235
a(I45
I2
F-0.375
S'small'
p236
tp237
a(I58
I27
F0.625
S'easy'
p238
tp239
as(S'original'
p240
S'price'
p241
tp242
(lp243
(I18
I5
I0
S'same'
p244
tp245
a(I18
I5
F0.25
S'original'
p246
tp247
a(I121
I3
F0.25
S'original'
p248
tp249
a(I146
I3
F0.25
S'original'
p250
tp251
a(I146
I3
F-0.5
S'less'
p252
tp253
as(S'text'
p254
tp255
(lp256
(I43
I7
I0
S'wish'
p257
tp258
a(I53
I11
F-0.5
S'open'
p259
tp260
a(I87
I1
F-0.5
S'open'
p261
tp262
as(S'minute'
p263
tp264
(lp265
(I123
I6
I0
S'more'
p266
tp267
as(S'nice'
p268
tp269
(lp270
(I122
I5
F0.625
S'easy'
p271
tp272
as(S'screen'
p273
tp274
(lp275
(I3
I1
F0.5
S'touch'
p276
tp277
a(I18
I19
F0.5
S'touch'
p278
tp279
a(I54
I1
F0.5
S'touch'
p280
tp281
a(I58
I27
F0.5
S'touch'
p282
tp283
a(I63
I0
F0.5
S'touch'
p284
tp285
a(I65
I1
F0.5
S'touch'
p286
tp287
a(I72
I1
I0
S'big'
p288
tp289
a(I82
I11
F0.25
S'main'
p290
tp291
a(I86
I0
F0.5
S'touch'
p292
tp293
a(I96
I1
F0.5
S'touch'
p294
tp295
a(I97
I16
F0.625
S'kind'
p296
tp297
a(I122
I1
F0.5
S'touch'
p298
tp299
a(I132
I8
F-0.75
S'impossible'
p300
tp301
as(S'new'
p302
S'sim'
p303
S'card'
p304
tp305
(lp306
(I22
I2
F0.375
S'new'
p307
tp308
a(I52
I4
F0.375
S'new'
p309
tp310
a(I62
I3
F0.375
S'new'
p311
tp312
a(I62
I4
F0.375
S'new'
p313
tp314
a(I66
I6
F0.375
S'new'
p315
tp316
a(I110
I5
F0.375
S'new'
p317
tp318
a(I145
I2
F0.375
S'new'
p319
tp320
as(S'reviews'
p321
tp322
(lp323
(I18
I3
F-0.625
S'other'
p324
tp325
a(I18
I8
F-0.625
S'bad'
p326
tp327
a(I18
I9
F-0.875
S'negative'
p328
tp329
a(I18
I11
F0.375
S'honest'
p330
tp331
a(I36
I1
I0
S'many'
p332
tp333
a(I54
I1
F-0.5
S'poor'
p334
tp335
a(I71
I5
F-0.625
S'other'
p336
tp337
as(S'service'
p338
tp339
(lp340
(I3
I9
I0
S'e-mail'
p341
tp342
a(I29
I3
F1.0
g46
tp343
a(I57
I6
I0
S'third'
p344
tp345
a(I58
I18
I0
S'included'
p346
tp347
a(I58
I25
F0.125
g52
tp348
a(I59
I8
F0.625
g54
tp349
a(I66
I5
F1.0
S'good'
p350
tp351
a(I96
I2
F-0.125
S'slow'
p352
tp353
a(I96
I4
F1.0
S'good'
p354
tp355
a(I97
I3
F1.0
S'good'
p356
tp357
a(I105
I1
F1.0
g64
tp358
a(I110
I4
I0
S'more'
p359
tp360
a(I126
I3
I0
S'great'
p361
tp362
a(I126
I3
I0
S'fast'
p363
tp364
a(I146
I4
F0.625
g68
tp365
as(S'call'
p366
tp367
(lp368
(I65
I1
F0.125
S'low-tech'
p369
tp370
a(I74
I6
F0.5
S'check'
p371
tp372
a(I95
I6
F0.125
S'last'
p373
tp374
a(I139
I0
F1.0
S'good'
p375
tp376
as(S'problems'
p377
tp378
(lp379
(I19
I0
I0
S'many'
p380
tp381
as(S'samsung'
p382
tp383
(lp384
(I3
I16
I0
S'old'
p385
tp386
a(I58
I8
F0.375
S'new'
p387
tp388
a(I81
I4
F-0.625
S'free'
p389
tp390
a(I81
I40
F-0.625
S'other'
p391
tp392
a(I105
I1
I0
S'different'
p393
tp394
a(I113
I1
F0.5
S'satisfy'
p395
tp396
a(I113
I3
F-0.625
S'other'
p397
tp398
as(S'triple'
p399
S'minutes'
p400
tp401
(lp402
(I3
I41
I0
g79
tp403
a(I37
I1
F-0.25
g93
tp404
a(I54
I2
F0.125
S'amazon'
p405
tp406
a(I58
I28
F0.875
g105
tp407
a(I61
I2
I0
g107
tp408
a(I71
I3
F-0.25
g111
tp409
a(I79
I1
F1.0
g117
tp410
a(I87
I1
I0
g121
tp411
a(I87
I1
I0
g123
tp412
a(I91
I2
F-0.75
S'wrong'
p413
tp414
a(I95
I4
F-0.25
g125
tp415
as(S'back'
p416
tp417
(lp418
(I40
I1
F-0.875
S'trouble'
p419
tp420
a(I75
I15
I0
S'plastic'
p421
tp422
as(S'minutes'
p423
S'for'
p424
S'life'
p425
tp426
(lp427
(I14
I4
F-0.375
g81
tp428
a(I71
I3
F-0.25
g111
tp429
a(I71
I3
I0
S'normal'
p430
tp431
a(I87
I1
I0
g121
tp432
a(I87
I1
I0
g123
tp433
a(I95
I4
F-0.25
g125
tp434
a(I95
I4
I0
S'anymore'
p435
tp436
as(S'camera'
p437
tp438
(lp439
(I2
I4
F0.875
S'nice'
p440
tp441
a(I23
I0
F1.0
S'good'
p442
tp443
a(I75
I11
F0.125
S'digital'
p444
tp445
a(I75
I13
F-0.25
S'low'
p446
tp447
a(I116
I7
I0
S'fast'
p448
tp449
a(I121
I14
F1.0
S'good'
p450
tp451
as(S'n'
p452
S'first'
p453
S'place'
p454
tp455
(lp456
(I3
I2
F0.125
S'first'
p457
tp458
a(I3
I13
F0.125
S'first'
p459
tp460
a(I28
I2
F0.125
S'first'
p461
tp462
a(I63
I3
F0.125
S'first'
p463
tp464
as(S'battery'
p465
S'life'
p466
tp467
(lp468
(I3
I31
F-0.5
S'sure'
p469
tp470
a(I3
I31
F1.0
S'good'
p471
tp472
a(I31
I2
I0
S'real'
p473
tp474
a(I42
I1
I0
S'great'
p475
tp476
a(I65
I4
I0
S'full'
p477
tp478
a(I71
I5
F-0.5
S'long'
p479
tp480
a(I74
I1
F-0.75
S'short'
p481
tp482
a(I87
I1
F1.0
S'good'
p483
tp484
a(I93
I0
F1.0
S'good'
p485
tp486
a(I107
I1
I0
S'great'
p487
tp488
as(S'qwerty'
p489
S'keyboard'
p490
tp491
(lp492
(I34
I0
F-0.75
g144
tp493
a(I34
I0
F-0.625
g146
tp494
a(I58
I21
F-0.375
S'top'
p495
tp496
a(I58
I21
F-0.75
g152
tp497
a(I76
I2
F0.875
g162
tp498
a(I145
I3
I0
g198
tp499
as(S'per'
p500
S'minute'
p501
tp502
(lp503
(I68
I7
F-0.25
S'cheapest'
p504
tp505
as(S'reception'
p506
tp507
(lp508
(I0
I3
F-0.625
S'bad'
p509
tp510
a(I0
I3
I0
S'great'
p511
tp512
a(I18
I7
F-0.625
S'bad'
p513
tp514
a(I53
I13
F1.0
S'good'
p515
tp516
a(I53
I13
I0
S'old'
p517
tp518
a(I74
I11
F1.0
S'better'
p519
tp520
a(I78
I9
I0
S'least'
p521
tp522
a(I78
I9
I0
S'great'
p523
tp524
a(I79
I2
F1.0
S'better'
p525
tp526
a(I97
I4
F1.0
S'good'
p527
tp528
a(I101
I1
I0
S'great'
p529
tp530
a(I140
I0
F-0.875
S'awful'
p531
tp532
as(S'quality'
p533
tp534
(lp535
(I54
I0
F-0.5
S'poor'
p536
tp537
a(I58
I25
F0.625
S'easy'
p538
tp539
a(I58
I25
F1.0
S'good'
p540
tp541
a(I60
I4
F1.0
S'good'
p542
tp543
a(I113
I5
F1.0
S'good'
p544
tp545
as(S'has'
p546
S'triple'
p547
S'minutes'
p548
tp549
(lp550
(I87
I1
I0
g121
tp551
a(I87
I1
I0
g123
tp552
as(S'life'
p553
tp554
(lp555
(I3
I31
F1.0
g471
tp556
a(I31
I2
I0
g473
tp557
a(I71
I3
I0
g430
tp558
a(I95
I4
I0
g435
tp559
as(S'a'
p560
S'full'
p561
S'keyboard'
p562
tp563
(lp564
(I15
I1
I0
g142
tp565
a(I36
I16
I0
g148
tp566
a(I60
I4
I0
g154
tp567
a(I65
I3
I0
g158
tp568
a(I87
I0
I0
g168
tp569
a(I87
I1
I0
g170
tp570
a(I87
I1
F0.625
g172
tp571
a(I111
I0
I0
g178
tp572
a(I116
I0
F0.125
g182
tp573
a(I116
I0
I0
g184
tp574
a(I117
I0
I0
g186
tp575
a(I122
I0
I0
g188
tp576
a(I132
I1
I0
g194
tp577
a(I132
I2
I0
g196
tp578
as(S'menu'
p579
tp580
(lp581
(I2
I6
I0
S'different'
p582
tp583
a(I20
I5
F0.625
S'easy'
p584
tp585
a(I80
I3
F0.5
S'primary'
p586
tp587
a(I80
I16
I0
S'numeric'
p588
tp589
as(S'tracfone'
p590
tp591
(lp592
(I0
I0
I0
S'old'
p593
tp594
a(I0
I0
F0.375
S'new'
p595
tp596
a(I0
I2
I0
S'different'
p597
tp598
a(I0
I3
I0
S'old'
p599
tp600
a(I3
I3
I0
g44
tp601
a(I12
I1
F0.125
S'last'
p602
tp603
a(I19
I0
I0
S'old'
p604
tp605
a(I19
I0
F0.125
S'usual'
p606
tp607
a(I19
I0
F0.5
S'technical'
p608
tp609
a(I22
I2
F0.125
S'able'
p610
tp611
a(I31
I18
F0.625
S'easy'
p612
tp613
a(I31
I22
I0
S'internet'
p614
tp615
a(I31
I22
F-0.125
S'slow'
p616
tp617
a(I37
I2
F0.375
S'new'
p618
tp619
a(I43
I2
F0.25
S'effective'
p620
tp621
a(I52
I5
F-0.125
S'former'
p622
tp623
a(I53
I1
I0
S'big'
p624
tp625
a(I53
I14
I0
S'great'
p626
tp627
a(I54
I3
F1.0
S'best'
p628
tp629
a(I57
I7
I0
S'common'
p630
tp631
a(I58
I2
I0
g48
tp632
a(I58
I25
I0
g50
tp633
a(I62
I3
F0.5
S'told'
p634
tp635
a(I65
I10
F0.875
g56
tp636
a(I66
I4
F-0.75
g58
tp637
a(I66
I6
F0.125
g60
tp638
a(I71
I2
F0.125
S'able'
p639
tp640
a(I81
I4
I0
S'website'
p641
tp642
a(I90
I4
I0
g62
tp643
a(I100
I1
F-0.625
S'other'
p644
tp645
a(I104
I7
I0
S'lead-in'
p646
tp647
a(I137
I1
F0.25
g66
tp648
a(I138
I1
F0.125
S'first'
p649
tp650
a(I147
I5
F0.5
S'true'
p651
tp652
as(S'year'
p653
tp654
(lp655
(I18
I20
I0
S'old'
p656
tp657
a(I63
I2
F0.625
S'add'
p658
tp659
a(I63
I2
I0
S'old'
p660
tp661
a(I93
I7
I0
S'nervous'
p662
tp663
a(I93
I7
I0
S'old'
p664
tp665
a(I116
I10
I0
S'old'
p666
tp667
a(I124
I0
I0
S'old'
p668
tp669
a(I127
I0
I0
S'old'
p670
tp671
a(I140
I0
I0
S'old'
p672
tp673
a(I140
I0
I0
S'basic'
p674
tp675
as(S'features'
p676
tp677
(lp678
(I12
I4
F-0.5
S'certain'
p679
tp680
a(I12
I4
I0
S'such'
p681
tp682
a(I12
I7
F0.625
S'easier'
p683
tp684
a(I31
I0
I0
S'more'
p685
tp686
a(I31
I0
F0.125
S'key'
p687
tp688
a(I36
I4
I0
S'on-line'
p689
tp690
a(I64
I1
F-0.625
S'other'
p691
tp692
a(I80
I0
F0.5
S'desirable'
p693
tp694
a(I82
I13
F0.625
S'easy'
p695
tp696
a(I100
I1
I0
S'more'
p697
tp698
a(I104
I3
I0
S'great'
p699
tp700
a(I127
I7
I0
S'same'
p701
tp702
a(I146
I3
F1.0
S'good'
p703
tp704
a(I146
I3
I0
S'great'
p705
tp706
as(S'tracfone'
p707
S'customer'
p708
S'service'
p709
tp710
(lp711
(I18
I30
F-0.625
S'other'
p712
tp713
a(I59
I8
F0.625
g54
tp714
a(I66
I4
F-0.75
g58
tp715
a(I105
I1
F1.0
g64
tp716
a(I137
I1
F0.25
g66
tp717
a(I146
I4
F0.625
g68
tp718
as(S'number'
p719
tp720
(lp721
(I41
I2
I0
S'old'
p722
tp723
a(I58
I6
I0
S'old'
p724
tp725
a(I59
I2
I0
S'next'
p726
tp727
a(I68
I9
F-0.125
S'super'
p728
tp729
a(I68
I9
F0.625
S'easy'
p730
tp731
a(I68
I9
I0
S'old'
p732
tp733
a(I75
I5
F0.125
S'able'
p734
tp735
a(I75
I5
F0.375
S'new'
p736
tp737
a(I75
I5
I0
S'local'
p738
tp739
a(I80
I2
F0.5
S'primary'
p740
tp741
a(I80
I2
F0.125
S'key'
p742
tp743
a(I134
I3
F-0.375
S'simple'
p744
tp745
a(I138
I1
I0
S'serial'
p746
tp747
a(I138
I1
F-0.75
S'incorrect'
p748
tp749
a(I138
I1
I0
S'serial'
p750
tp751
as(S'qwerty'
p752
tp753
(lp754
(I58
I21
F-0.375
g495
tp755
a(I71
I5
I0
S'full'
p756
tp757
as(S'feature'
p758
tp759
(lp760
(I3
I26
F0.875
S'nice'
p761
tp762
a(I25
I4
I0
S'great'
p763
tp764
a(I36
I16
F0.875
S'nice'
p765
tp766
a(I36
I16
I0
S'more'
p767
tp768
a(I47
I4
I0
S'great'
p769
tp770
a(I65
I3
F0.875
S'nice'
p771
tp772
a(I72
I6
F0.125
S'able'
p773
tp774
a(I123
I6
F0.5
S'obvious'
p775
tp776
as(S'web'
p777
S'browser'
p778
tp779
(lp780
(I20
I7
I0
S'mobile'
p781
tp782
a(I20
I7
F1.0
S'best'
p783
tp784
a(I77
I2
I0
S'wish'
p785
tp786
a(I123
I5
F0.625
S'easy'
p787
tp788
as(S'long'
p789
S'time'
p790
tp791
(lp792
(I8
I2
F-0.5
S'long'
p793
tp794
a(I14
I14
F-0.5
S'long'
p795
tp796
a(I14
I15
F-0.5
S'long'
p797
tp798
a(I25
I2
F-0.5
S'long'
p799
tp800
a(I36
I7
F-0.5
S'long'
p801
tp802
a(I133
I0
F0.5
S'whole'
p803
tp804
a(I135
I10
F-0.5
S'long'
p805
tp806
a(I144
I4
F-0.5
S'long'
p807
tp808
as(S'accessory'
p809
S'kit'
p810
tp811
(lp812
(I18
I10
F-0.625
S'free'
p813
tp814
as(S'internet'
p815
S'connection'
p816
tp817
(lp818
(I58
I19
F0.625
S'easy'
p819
tp820
a(I81
I35
I0
S'later'
p821
tp822
as(S'deal'
p823
tp824
(lp825
(I60
I1
F1.0
S'best'
p826
tp827
a(I65
I6
I0
S'great'
p828
tp829
a(I84
I0
I0
S'total'
p830
tp831
a(I120
I3
I0
S'big'
p832
tp833
a(I132
I9
I0
S'great'
p834
tp835
a(I141
I0
I0
S'great'
p836
tp837
as(g560
S'long'
p838
S'time'
p839
tp840
(lp841
(I8
I2
F-0.5
g793
tp842
a(I14
I14
F-0.5
g795
tp843
a(I14
I15
F-0.5
g797
tp844
a(I25
I2
F-0.5
g799
tp845
a(I36
I7
F-0.5
g801
tp846
a(I133
I0
F0.5
g803
tp847
a(I135
I10
F-0.5
g805
tp848
a(I144
I4
F-0.5
g807
tp849
as(S'customer'
p850
tp851
(lp852
(I18
I7
F-0.625
S'bad'
p853
tp854
a(I18
I30
F-0.625
g712
tp855
a(I26
I2
I0
S'net'
p856
tp857
a(I95
I11
I0
S'many'
p858
tp859
as(S'works'
p860
tp861
(lp862
(I55
I2
I0
S'great'
p863
tp864
a(I83
I0
F0.875
S'nice'
p865
tp866
as(S'triple'
p867
tp868
(lp869
(I18
I29
I0
S'least'
p870
tp871
a(I18
I29
F-0.375
S'double'
p872
tp873
a(I53
I0
F0.125
S'first'
p874
tp875
a(I54
I2
F0.125
g405
tp876
a(I91
I2
F-0.75
g413
tp877
as(S'battery'
p878
tp879
(lp880
(I3
I31
F-0.5
g469
tp881
a(I3
I33
F-0.25
S'low'
p882
tp883
a(I3
I33
F-0.25
S'low'
p884
tp885
a(I29
I1
I0
S'branched'
p886
tp887
a(I42
I1
I0
g475
tp888
a(I65
I4
I0
g477
tp889
a(I71
I5
F-0.5
g479
tp890
a(I74
I1
F-0.75
g481
tp891
a(I87
I1
F1.0
g483
tp892
a(I93
I0
F1.0
g485
tp893
a(I107
I1
I0
g487
tp894
a(I116
I3
F-0.5
S'less'
p895
tp896
a(I135
I10
F0.125
S'last'
p897
tp898
as(S'slide'
p899
S'out'
p900
S'keyboard'
p901
tp902
(lp903
(I58
I14
F0.625
g150
tp904
a(I73
I1
F0.625
S'easy'
p905
tp906
a(I125
I2
I0
g190
tp907
a(I125
I2
F0.625
g192
tp908
as(S'zip'
p909
S'code'
p910
tp911
(lp912
(I18
I26
I0
S'site'
p913
tp914
as(S'cell'
p915
tp916
(lp917
(I30
I3
F0.875
S'nice'
p918
tp919
a(I39
I4
I0
S'basic'
p920
tp921
a(I67
I2
F-0.5
S'regular'
p922
tp923
a(I71
I4
F1.0
S'good'
p924
tp925
a(I76
I0
F0.375
S'new'
p926
tp927
a(I80
I1
F-0.25
S'inexpensive'
p928
tp929
a(I81
I36
F0.75
S'beautiful'
p930
tp931
a(I81
I40
F-0.625
S'other'
p932
tp933
a(I81
I40
F-0.5
S'less'
p934
tp935
a(I81
I40
F0.5
S'expensive'
p936
tp937
a(I94
I0
F-0.5
S'certain'
p938
tp939
as(S't404g'
p940
tp941
(lp942
(I43
I0
F0.875
S'happy'
p943
tp944
as(S'thing'
p945
tp946
(lp947
(I30
I2
F1.0
S'good'
p948
tp949
a(I42
I0
F1.0
S'best'
p950
tp951
a(I63
I1
F-0.625
S'other'
p952
tp953
a(I63
I1
F0.5
S'obvious'
p954
tp955
a(I63
I5
F1.0
S'good'
p956
tp957
a(I73
I4
F-0.375
S'small'
p958
tp959
a(I98
I3
I0
S'same'
p960
tp961
as(S'sim'
p962
S'card'
p963
tp964
(lp965
(I22
I2
F0.375
g307
tp966
a(I26
I4
F0.5
S'told'
p967
tp968
a(I52
I4
F0.375
g309
tp969
a(I62
I3
F0.375
g311
tp970
a(I62
I4
F0.375
g313
tp971
a(I66
I6
F0.375
g315
tp972
a(I110
I5
F0.375
g317
tp973
a(I145
I2
F0.375
g319
tp974
as(S'took'
p975
tp976
(lp977
(I116
I6
I0
S'keyboard'
p978
tp979
as(g560
S'touch'
p980
S'screen'
p981
tp982
(lp983
(I3
I1
F0.5
g276
tp984
a(I18
I19
F0.5
g278
tp985
a(I54
I1
F0.5
g280
tp986
a(I58
I27
F0.5
g282
tp987
a(I63
I0
F0.5
g284
tp988
a(I65
I1
F0.5
g286
tp989
a(I86
I0
F0.5
g292
tp990
a(I96
I1
F0.5
g294
tp991
a(I122
I1
F0.5
g298
tp992
a(I142
I1
I0
g223
tp993
a(I146
I1
F-0.375
g225
tp994
as(S'browser'
p995
tp996
(lp997
(I20
I7
F1.0
g783
tp998
a(I53
I6
F-0.5
S'unchangeable'
p999
tp1000
a(I53
I8
F-0.125
S'deactivate'
p1001
tp1002
a(I78
I9
I0
S'different'
p1003
tp1004
a(I121
I7
F-0.125
S'slow'
p1005
tp1006
a(I132
I7
F-0.5
S'try'
p1007
tp1008
as(S'new'
p1009
S'sim'
p1010
tp1011
(lp1012
(I22
I2
F0.375
g307
tp1013
a(I52
I4
F0.375
g309
tp1014
a(I62
I3
F0.375
g311
tp1015
a(I62
I4
F0.375
g313
tp1016
a(I66
I6
F0.375
g315
tp1017
a(I110
I5
F0.375
g317
tp1018
a(I145
I2
F0.375
g319
tp1019
as(S'with'
p1020
S'triple'
p1021
S'minutes'
p1022
tp1023
(lp1024
(I37
I1
F-0.25
g93
tp1025
a(I58
I28
F0.875
g105
tp1026
a(I71
I3
F-0.25
g111
tp1027
a(I87
I1
I0
g121
tp1028
a(I87
I1
I0
g123
tp1029
a(I91
I2
F-0.75
g413
tp1030
a(I95
I4
F-0.25
g125
tp1031
as(S'calls'
p1032
tp1033
(lp1034
(I58
I17
F-0.5
S'international'
p1035
tp1036
a(I58
I17
I0
S'local'
p1037
tp1038
a(I58
I25
F0.75
S'receive'
p1039
tp1040
a(I58
I26
F-0.5
S'international'
p1041
tp1042
a(I58
I26
I0
S'same'
p1043
tp1044
a(I92
I1
F0.5
S'clear'
p1045
tp1046
a(I115
I3
F0.625
S'easy'
p1047
tp1048
as(S'price'
p1049
tp1050
(lp1051
(I8
I4
F0.75
S'worth'
p1052
tp1053
a(I18
I5
I0
g244
tp1054
a(I18
I5
F0.25
g246
tp1055
a(I19
I2
I0
S'online'
p1056
tp1057
a(I23
I0
I0
S'great'
p1058
tp1059
a(I56
I8
I0
S'great'
p1060
tp1061
a(I58
I17
I0
S'same'
p1062
tp1063
a(I90
I1
I0
S'great'
p1064
tp1065
a(I90
I1
F1.0
S'better'
p1066
tp1067
a(I100
I2
I0
S'great'
p1068
tp1069
a(I115
I5
I0
S'great'
p1070
tp1071
a(I120
I0
I0
S'big'
p1072
tp1073
a(I121
I3
F0.25
g248
tp1074
a(I129
I6
F-0.625
S'bad'
p1075
tp1076
a(I132
I5
F0.5
S'reasonable'
p1077
tp1078
a(I146
I3
F0.25
g250
tp1079
a(I146
I3
F-0.5
g252
tp1080
as(S'time'
p1081
tp1082
(lp1083
(I8
I2
F-0.5
g793
tp1084
a(I14
I14
F-0.5
g795
tp1085
a(I14
I15
F-0.5
g797
tp1086
a(I25
I2
F-0.5
g799
tp1087
a(I36
I7
F-0.5
g801
tp1088
a(I63
I5
F0.25
S'sweet'
p1089
tp1090
a(I66
I1
I0
S'same'
p1091
tp1092
a(I78
I3
I0
S'more'
p1093
tp1094
a(I80
I19
F-0.125
S'air'
p1095
tp1096
a(I81
I27
F0.125
S'enough'
p1097
tp1098
a(I82
I12
F0.625
S'easy'
p1099
tp1100
a(I133
I0
F0.5
g803
tp1101
a(I135
I10
F-0.5
g805
tp1102
a(I144
I4
F-0.5
g807
tp1103
as(S'samsung'
p1104
S't404g'
p1105
tp1106
(lp1107
(I43
I0
F0.875
g943
tp1108
a(I58
I8
F0.375
g387
tp1109
as(S'old'
p1110
S'tracfone'
p1111
tp1112
(lp1113
(I0
I0
I0
g593
tp1114
a(I0
I0
F0.375
g595
tp1115
a(I0
I3
I0
g599
tp1116
a(I19
I0
I0
g604
tp1117
a(I19
I0
F0.125
g606
tp1118
a(I19
I0
F0.5
g608
tp1119
a(I58
I2
I0
g48
tp1120
a(I62
I3
F0.5
g634
tp1121
a(I90
I4
I0
g62
tp1122
a(I104
I7
I0
g646
tp1123
a(I138
I1
F0.125
g649
tp1124
as(S'good'
p1125
tp1126
(lp1127
(I18
I15
F-0.375
S'small'
p1128
tp1129
a(I18
I15
F-0.25
S'fish'
p1130
tp1131
a(I18
I15
F-0.25
S'google'
p1132
tp1133
a(I18
I15
I0
S'such'
p1134
tp1135
as(S'card'
p1136
tp1137
(lp1138
(I11
I4
I0
S'one-year'
p1139
tp1140
as(S'low'
p1141
S'cost'
p1142
tp1143
(lp1144
(I75
I9
F-0.25
S'low'
p1145
tp1146
a(I75
I9
F-0.25
S'low'
p1147
tp1148
a(I75
I16
F-0.25
S'low'
p1149
tp1150
as(S'triple'
p1151
S'minuets'
p1152
tp1153
(lp1154
(I53
I0
F0.125
g874
tp1155
a(I83
I0
F0.125
S'able'
p1156
tp1157
as(S'problem'
p1158
tp1159
(lp1160
(I42
I4
I0
S'only'
p1161
tp1162
a(I51
I5
I0
S'same'
p1163
tp1164
a(I61
I2
F0.625
S'easy'
p1165
tp1166
a(I113
I3
I0
S'same'
p1167
tp1168
as(S'customer'
p1169
S'service'
p1170
tp1171
(lp1172
(I3
I9
I0
g341
tp1173
a(I18
I7
F-0.625
g853
tp1174
a(I18
I30
F-0.625
g712
tp1175
a(I26
I2
I0
g856
tp1176
a(I59
I8
F0.625
g54
tp1177
a(I95
I11
I0
g858
tp1178
a(I105
I1
F1.0
g64
tp1179
a(I110
I4
I0
g359
tp1180
a(I146
I4
F0.625
g68
tp1181
as(S'access'
p1182
tp1183
(lp1184
(I36
I0
F0.125
S'able'
p1185
tp1186
a(I54
I3
F-0.25
S'direct'
p1187
tp1188
a(I54
I3
F-0.5
S'international'
p1189
tp1190
a(I80
I1
I0
S'basic'
p1191
tp1192
a(I80
I19
F0.5
S'desirable'
p1193
tp1194
a(I116
I7
F0.375
S'much'
p1195
tp1196
a(I116
I11
F0.125
S'able'
p1197
tp1198
a(I143
I0
F0.625
S'easier'
p1199
tp1200
as(S'keypad'
p1201
tp1202
(lp1203
(I3
I28
I0
S'numeric'
p1204
tp1205
a(I17
I0
F0.5
S'second'
p1206
tp1207
a(I17
I0
I0
S'full'
p1208
tp1209
a(I17
I0
F0.625
S'easy'
p1210
tp1211
a(I79
I3
F1.0
S'good'
p1212
tp1213
a(I81
I31
I0
S'numerical'
p1214
tp1215
a(I147
I3
F0.875
S'nice'
p1216
tp1217
a(I147
I4
F-0.375
S'smaller'
p1218
tp1219
as(S'texting'
p1220
tp1221
(lp1222
(I93
I0
F-0.375
S'pull'
p1223
tp1224
a(I120
I0
F0.625
S'easy'
p1225
tp1226
as(S'days'
p1227
tp1228
(lp1229
(I23
I0
I0
S'few'
p1230
tp1231
a(I36
I0
I0
S'few'
p1232
tp1233
a(I52
I2
I0
S'later'
p1234
tp1235
a(I56
I1
I0
S'few'
p1236
tp1237
as(S'touch'
p1238
S'screen'
p1239
tp1240
(lp1241
(I3
I1
F0.5
g276
tp1242
a(I18
I19
F0.5
g278
tp1243
a(I54
I1
F0.5
g280
tp1244
a(I58
I27
F0.5
g282
tp1245
a(I63
I0
F0.5
g284
tp1246
a(I65
I1
F0.5
g286
tp1247
a(I86
I0
F0.5
g292
tp1248
a(I96
I1
F0.5
g294
tp1249
a(I122
I1
F0.5
g298
tp1250
a(I142
I1
I0
g223
tp1251
a(I146
I1
F-0.375
g225
tp1252
as(S'sound'
p1253
S'quality'
p1254
tp1255
(lp1256
(I9
I1
I0
S'great'
p1257
tp1258
a(I113
I5
F1.0
g544
tp1259
as.