(dp0
(S'great'
p1
S'condition'
p2
tp3
(lp4
(I1
I0
I0
S'great'
p5
I7
tp6
a(I8
I22
I0
S'great'
p7
I7
tp8
a(I10
I19
I0
S'great'
p9
I7
tp10
a(I11
I4
I0
S'great'
p11
I7
tp12
a(I15
I20
I0
S'great'
p13
I7
tp14
a(I15
I20
F1.0
S'best'
p15
I7
tp16
as(S'battery'
p17
S'life'
p18
tp19
(lp20
(I2
I18
F1.0
S'better'
p21
I1
tp22
a(I2
I32
F0.5
S'drive'
p23
I1
tp24
a(I11
I64
F-0.375
S'near'
p25
I1
tp26
a(I2
I32
F0.5
g23
I19
tp27
a(I2
I78
F1.0
S'best'
p28
I19
tp29
a(I11
I53
I0
S'fast'
p30
I19
tp31
a(I11
I53
F0.625
S'easy'
p32
I19
tp33
a(I11
I64
F-0.375
g25
I19
tp34
a(I14
I6
F-0.375
S'daily'
p35
I19
tp36
a(I1
I0
I0
S'old'
p37
I15
tp38
a(I1
I0
F-0.625
S'other'
p39
I15
tp40
a(I2
I18
F1.0
g21
I15
tp41
a(I2
I24
F0.375
S'extra'
p42
I15
tp43
a(I2
I25
F0.375
S'extra'
p44
I15
tp45
a(I2
I26
F0.375
S'extended'
p46
I15
tp47
a(I3
I1
F-0.75
S'dead'
p48
I15
tp49
a(I3
I7
F0.375
S'new'
p50
I15
tp51
a(I10
I30
I0
S'quick'
p52
I15
tp53
a(I11
I21
F0.125
S'last'
p54
I15
tp55
as(S'keyboard'
p56
tp57
(lp58
(I2
I83
I0
S'physical'
p59
I2
tp60
a(I9
I5
I0
S'useful'
p61
I2
tp62
a(I11
I19
I0
S'physical'
p63
I2
tp64
a(I11
I47
F0.125
S'key'
p65
I2
tp66
a(I11
I90
F-0.5
S'actual'
p67
I2
tp68
a(I14
I33
I0
S'full'
p69
I2
tp70
as(S'replacement'
p71
tp72
(lp73
(I3
I8
F-0.125
S'mine'
p74
I13
tp75
a(I11
I77
I0
S'quick'
p76
I13
tp77
a(I15
I52
I0
S'great'
p78
I13
tp79
as(S'apps'
p80
tp81
(lp82
(I3
I11
F0.5
S'personal'
p83
I0
tp84
a(I11
I12
I0
S'few'
p85
I0
tp86
a(I11
I57
I0
S'great'
p87
I0
tp88
a(I14
I30
I0
S'more'
p89
I0
tp90
as(S'samsung'
p91
tp92
(lp93
(I2
I46
F-0.5
S'hassle'
p94
I7
tp95
a(I2
I46
F-0.625
S'free'
p96
I7
tp97
a(I2
I46
F-0.625
S'cleaner'
p98
I7
tp99
a(I7
I10
F0.125
S'first'
p100
I7
tp101
a(I11
I18
F0.125
S'usual'
p102
I7
tp103
as(S'camera'
p104
tp105
(lp106
(I2
I55
F0.125
S'digital'
p107
I1
tp108
a(I6
I9
F0.125
S'digital'
p109
I1
tp110
a(I11
I57
I0
S'great'
p111
I1
tp112
as.