(dp0
(S'android'
p1
tp2
(lp3
(I1
I2
F0.5
S'second'
p4
I0
tp5
a(I1
I2
I0
S'exact'
p6
I0
tp7
a(I3
I15
I0
S'fastest'
p8
I0
tp9
a(I6
I4
F-0.875
S'harder'
p10
I0
tp11
a(I10
I18
I0
S'many'
p12
I0
tp13
a(I11
I4
F0.5
S'second'
p14
I0
tp15
a(I11
I5
F0.125
S'first'
p16
I0
tp17
as(S'iphone'
p18
tp19
(lp20
(I3
I8
F-0.625
S'sorry'
p21
I1
tp22
as(S'battery'
p23
tp24
(lp25
(I8
I8
F0.625
S'removable'
p26
I15
tp27
as(S'samsung'
p28
S'galaxy'
p29
tp30
(lp31
(I11
I3
F0.375
S'new'
p32
I0
tp33
a(I11
I3
F0.375
g32
I7
tp34
a(I11
I6
F-0.25
S'past'
p35
I7
tp36
as.