(dp0
(S'model'
p1
tp2
(lp3
(I29
I1
F0.375
S'similar'
p4
tp5
a(I31
I5
I0
S'particular'
p6
tp7
a(I35
I2
I0
S'economical'
p8
tp9
a(I38
I1
F0.375
S'new'
p10
tp11
a(I123
I3
I0
S'same'
p12
tp13
a(I127
I0
I0
S'same'
p14
tp15
as(S'battery'
p16
S'life'
p17
tp18
(lp19
(I44
I3
I0
S'great'
p20
tp21
a(I44
I3
I0
S'efficient'
p22
tp23
a(I108
I4
F1.0
S'good'
p24
tp25
a(I137
I8
F1.0
S'good'
p26
tp27
as(S'problem'
p28
tp29
(lp30
(I101
I1
I0
S'only'
p31
tp32
a(I108
I2
F0.5
S'possible'
p33
tp34
as(S'keyboard'
p35
tp36
(lp37
(I15
I4
I0
S'basic'
p38
tp39
a(I17
I1
I0
S'full'
p40
tp41
a(I23
I1
I0
S'large'
p42
tp43
a(I36
I1
I0
S'full'
p44
tp45
a(I36
I6
F1.0
S'better'
p46
tp47
a(I36
I6
I0
S'full'
p48
tp49
a(I44
I2
F0.625
S'easier'
p50
tp51
a(I74
I1
F1.0
S'better'
p52
tp53
a(I118
I0
I0
S'great'
p54
tp55
a(I133
I1
F0.875
S'happy'
p56
tp57
a(I137
I7
I0
S'physical'
p58
tp59
a(I137
I8
F0.625
S'easy'
p60
tp61
a(I138
I3
I0
S'full'
p62
tp63
a(I138
I5
I0
S'real'
p64
tp65
a(I138
I5
F0.625
S'easy'
p66
tp67
a(I138
I13
I0
S'real'
p68
tp69
a(I146
I0
F0.5
S'flat'
p70
tp71
a(I153
I1
F0.625
S'easy'
p72
tp73
as(S'full'
p74
S'keyboard'
p75
tp76
(lp77
(I17
I1
I0
g40
tp78
a(I36
I1
I0
g44
tp79
a(I36
I6
F1.0
g46
tp80
a(I36
I6
I0
g48
tp81
a(I138
I3
I0
g62
tp82
a(I146
I0
F0.5
g70
tp83
as(S'text'
p84
tp85
(lp86
(I16
I1
I0
S'sturdy'
p87
tp88
a(I81
I4
I0
S'basic'
p89
tp90
a(I87
I3
F-0.5
S'open'
p91
tp92
a(I143
I0
F0.625
S'easy'
p93
tp94
as(S'screen'
p95
tp96
(lp97
(I20
I1
F0.5
S'touch'
p98
tp99
a(I36
I4
I0
S'internal'
p100
tp101
a(I58
I18
F0.5
S'touch'
p102
tp103
a(I89
I2
I0
S'internal'
p104
tp105
a(I96
I4
F-0.5
S'open'
p106
tp107
a(I103
I2
F-0.25
S'bubble'
p108
tp109
a(I121
I0
F0.5
S'touch'
p110
tp111
a(I121
I0
F0.5
S'touch'
p112
tp113
a(I128
I3
I0
S'big'
p114
tp115
a(I129
I5
F0.375
S'interior'
p116
tp117
a(I134
I0
F0.5
S'touch'
p118
tp119
as(S'service'
p120
tp121
(lp122
(I33
I4
I0
S'great'
p123
tp124
a(I36
I5
I0
S'basic'
p125
tp126
a(I36
I6
I0
S'basic'
p127
tp128
a(I45
I4
F1.0
S'good'
p129
tp130
a(I51
I1
F1.0
S'good'
p131
tp132
a(I90
I1
I0
S'great'
p133
tp134
as(S'everything'
p135
tp136
(lp137
(I38
I2
I0
S'different'
p138
tp139
a(I111
I0
F1.0
S'good'
p140
tp141
as(S'problems'
p142
tp143
(lp144
(I55
I3
F0.375
S'similar'
p145
tp146
a(I63
I6
F0.375
S'new'
p147
tp148
a(I137
I1
F0.625
S'major'
p149
tp150
as(S'larger'
p151
S'keys'
p152
tp153
(lp154
(I24
I1
F0.625
S'easy'
p155
tp156
a(I24
I1
F0.25
S'larger'
p157
tp158
a(I24
I1
I0
S'normal'
p159
tp160
a(I37
I2
F0.25
S'larger'
p161
tp162
a(I37
I2
F0.625
S'easier'
p163
tp164
a(I144
I1
F0.25
S'larger'
p165
tp166
as(S'lg'
p167
S'octane'
p168
tp169
(lp170
(I55
I2
I0
S'different'
p171
tp172
a(I81
I4
F0.5
S'second'
p173
tp174
a(I84
I2
F0.5
S'second'
p175
tp176
a(I110
I3
F0.25
S'original'
p177
tp178
a(I110
I3
F-0.375
S'crushed'
p179
tp180
a(I154
I1
I0
S'old'
p181
tp182
as(S'back'
p183
tp184
(lp185
(I50
I1
F-0.375
S'wear'
p186
tp187
as(S'qwerty'
p188
S'keyboard'
p189
tp190
(lp191
(I15
I4
I0
g38
tp192
a(I44
I2
F0.625
g50
tp193
a(I100
I2
F0.125
S'last'
p194
tp195
a(I118
I0
I0
g54
tp196
as(S'for'
p197
S'3'
p198
S'years'
p199
tp200
(lp201
(I123
I2
F0.125
S'first'
p202
tp203
as(S'a'
p204
S'touch'
p205
S'screen'
p206
tp207
(lp208
(I20
I1
F0.5
g98
tp209
a(I58
I18
F0.5
g102
tp210
a(I121
I0
F0.5
g110
tp211
a(I121
I0
F0.5
g112
tp212
a(I134
I0
F0.5
g118
tp213
as(S'quality'
p214
tp215
(lp216
(I43
I2
F1.0
S'good'
p217
tp218
a(I52
I0
F1.0
S'good'
p219
tp220
a(I60
I6
F-0.625
S'bad'
p221
tp222
a(I69
I0
I0
S'high'
p223
tp224
as(g198
S'years'
p225
tp226
(lp227
(I123
I2
F0.125
g202
tp228
as(S'camera'
p229
tp230
(lp231
(I100
I3
F1.0
S'best'
p232
tp233
a(I100
I4
I0
S'old'
p234
tp235
a(I118
I0
F0.5
S'clear'
p236
tp237
a(I128
I3
F0.625
S'easy'
p238
tp239
a(I129
I4
F-0.625
S'useless'
p240
tp241
a(I137
I4
F-0.5
S'actual'
p242
tp243
a(I137
I11
F-0.625
S'average'
p244
tp245
a(I138
I10
I0
S'great'
p246
tp247
as(S'right'
p248
tp249
(lp250
(I1
I1
I0
S'own'
p251
tp252
as(S'octane'
p253
tp254
(lp255
(I23
I0
I0
S'third'
p256
tp257
a(I49
I0
I0
S'sturdy'
p258
tp259
a(I58
I0
I0
S'old'
p260
tp261
a(I58
I0
F-0.5
S'long'
p262
tp263
a(I83
I2
F-0.5
S'relative'
p264
tp265
a(I89
I2
F0.125
S'last'
p266
tp267
a(I89
I2
F-0.125
S'overall'
p268
tp269
a(I89
I2
F0.875
S'happy'
p270
tp271
a(I110
I3
F-0.375
g179
tp272
a(I134
I9
F0.5
S'second'
p273
tp274
a(I134
I9
F1.0
S'good'
p275
tp276
a(I135
I0
F-0.625
S'other'
p277
tp278
a(I138
I3
F0.625
S'easy'
p279
tp280
a(I159
I0
I0
S'old'
p281
tp282
a(I159
I5
F1.0
S'good'
p283
tp284
as(S'pictures'
p285
tp286
(lp287
(I1
I2
F0.5
S'clear'
p288
tp289
a(I12
I3
I0
S'great'
p290
tp291
a(I89
I2
F-0.5
S'longer'
p292
tp293
as(S'return'
p294
tp295
(lp296
(I83
I10
F-0.25
S'ready'
p297
tp298
as(S'2'
p299
S'years'
p300
tp301
(lp302
(I30
I1
I0
S'great'
p303
tp304
a(I41
I1
F0.125
S'last'
p305
tp306
as(S'features'
p307
tp308
(lp309
(I34
I0
F-0.375
S'simple'
p310
tp311
a(I34
I0
F0.375
S'reliable'
p312
tp313
a(I36
I0
I0
S'large'
p314
tp315
a(I42
I0
F0.625
S'easy'
p316
tp317
a(I62
I3
F0.625
S'easy'
p318
tp319
a(I73
I0
F-0.125
S'mine'
p320
tp321
a(I83
I5
F0.25
S'used'
p322
tp323
a(I83
I5
F0.5
S'careful'
p324
tp325
a(I94
I2
I0
S'more'
p326
tp327
a(I112
I1
I0
S'great'
p328
tp329
a(I137
I14
F0.375
S'extra'
p330
tp331
a(I138
I11
F0.625
S'easy'
p332
tp333
as(S'for'
p334
g299
S'years'
p335
tp336
(lp337
(I30
I1
I0
g303
tp338
a(I41
I1
F0.125
g305
tp339
as(S'verizon'
p340
tp341
(lp342
(I3
I0
F0.5
S'second'
p343
tp344
a(I15
I2
F0.5
S'compatible'
p345
tp346
a(I27
I0
I0
S'anymore'
p347
tp348
a(I38
I0
I0
S'old'
p349
tp350
a(I44
I0
F1.0
S'best'
p351
tp352
a(I132
I2
I0
S'great'
p353
tp354
a(I136
I1
I0
S'local'
p355
tp356
a(I158
I3
F-0.625
S'other'
p357
tp358
as(S'qwerty'
p359
tp360
(lp361
(I100
I2
F0.125
g194
tp362
as(S'seller'
p363
tp364
(lp365
(I110
I6
F0.75
S'due'
p366
tp367
as(S'years'
p368
tp369
(lp370
(I30
I1
I0
g303
tp371
a(I41
I1
F0.125
g305
tp372
a(I46
I2
I0
S'old'
p373
tp374
a(I67
I1
I0
S'few'
p375
tp376
a(I123
I2
F0.125
g202
tp377
as(S'plan'
p378
tp379
(lp380
(I36
I4
I0
S'current'
p381
tp382
as(S'works'
p383
tp384
(lp385
(I7
I6
I0
S'great'
p386
tp387
a(I11
I0
F1.0
S'good'
p388
tp389
a(I38
I2
F0.625
S'easy'
p390
tp391
as(S'battery'
p392
tp393
(lp394
(I105
I2
F0.375
S'new'
p395
tp396
a(I108
I1
F0.125
S'last'
p397
tp398
a(I108
I4
F1.0
g24
tp399
a(I108
I7
F0.375
S'new'
p400
tp401
a(I137
I11
I0
S'more'
p402
tp403
a(I159
I2
I0
S'great'
p404
tp405
as(S'smart'
p406
tp407
(lp408
(I3
I0
F-0.625
S'other'
p409
tp410
a(I3
I0
F-0.25
S'ready'
p411
tp412
a(I31
I4
F-0.25
S'ready'
p413
tp414
a(I66
I0
F0.875
S'disenchanted'
p415
tp416
a(I126
I1
F0.5
S'expensive'
p417
tp418
a(I130
I2
F0.625
S'perfect'
p419
tp420
a(I159
I6
F-0.25
S'ready'
p421
tp422
as(S'replacement'
p423
tp424
(lp425
(I36
I4
F0.375
S'new'
p426
tp427
a(I47
I4
F-0.75
S'worse'
p428
tp429
a(I136
I2
I0
S'great'
p430
tp431
as(S'cell'
p432
tp433
(lp434
(I15
I6
F1.0
S'good'
p435
tp436
a(I23
I1
F-0.5
S'regular'
p437
tp438
a(I76
I0
I0
S'same'
p439
tp440
a(I76
I3
I0
S'same'
p441
tp442
as(S'few'
p443
S'days'
p444
tp445
(lp446
(I63
I3
I0
S'few'
p447
tp448
a(I63
I3
I0
S'few'
p449
tp450
a(I63
I3
I0
S'few'
p451
tp452
a(I63
I3
F0.375
S'new'
p453
tp454
a(I67
I3
I0
S'few'
p455
tp456
a(I67
I3
I0
S'later'
p457
tp458
as(S'flip'
p459
tp460
(lp461
(I83
I5
F-0.5
S'open'
p462
tp463
a(I110
I2
I0
S'full'
p464
tp465
a(I136
I2
I0
S'older'
p466
tp467
as(S'year'
p468
tp469
(lp470
(I55
I2
F-0.25
S'past'
p471
tp472
a(I117
I0
I0
S'old'
p473
tp474
a(I157
I0
F0.125
S'last'
p475
tp476
as(S'data'
p477
tp478
(lp479
(I44
I1
I0
S'great'
p480
tp481
a(I44
I1
F0.375
S'extra'
p482
tp483
a(I151
I5
F-0.375
S'small'
p484
tp485
as(S'time'
p486
tp487
(lp488
(I58
I8
F0.125
S'first'
p489
tp490
a(I75
I1
F-0.875
S'hard'
p491
tp492
a(I82
I2
F0.5
S'second'
p493
tp494
a(I100
I5
I0
S'full'
p495
tp496
a(I101
I1
F-0.75
S'short'
p497
tp498
a(I102
I1
F0.5
S'flat'
p499
tp500
a(I114
I0
F-0.875
S'hard'
p501
tp502
a(I137
I7
I0
S'only'
p503
tp504
a(I150
I0
F-0.5
S'long'
p505
tp506
as(S'touch'
p507
S'screens'
p508
tp509
(lp510
(I33
I0
F0.5
S'touch'
p511
tp512
a(I56
I1
F0.5
S'touch'
p513
tp514
a(I137
I6
F0.5
S'touch'
p515
tp516
as(S'working'
p517
tp518
(lp519
(I92
I0
F1.0
S'good'
p520
tp521
as(S'texting'
p522
tp523
(lp524
(I11
I0
I0
S'great'
p525
tp526
a(I59
I1
I0
S'great'
p527
tp528
a(I112
I1
I0
S'great'
p529
tp530
a(I134
I2
F0.625
S'easier'
p531
tp532
as(S'days'
p533
tp534
(lp535
(I20
I3
I0
S'quick'
p536
tp537
a(I63
I3
I0
g447
tp538
a(I63
I3
I0
g449
tp539
a(I63
I3
I0
g451
tp540
a(I63
I3
F0.375
g453
tp541
a(I63
I4
I0
S'later'
p542
tp543
a(I67
I3
I0
g455
tp544
a(I67
I3
I0
g457
tp545
a(I108
I6
I0
S'later'
p546
tp547
a(I137
I9
I0
S'least'
p548
tp549
a(I141
I0
F0.875
S'happy'
p550
tp551
as(S'touch'
p552
S'screen'
p553
tp554
(lp555
(I20
I1
F0.5
g98
tp556
a(I58
I18
F0.5
g102
tp557
a(I121
I0
F0.5
g110
tp558
a(I121
I0
F0.5
g112
tp559
a(I134
I0
F0.5
g118
tp560
as(S'sound'
p561
S'quality'
p562
tp563
(lp564
(I24
I0
F-0.5
S'poor'
p565
tp566
a(I43
I2
F1.0
g217
tp567
as.