(dp0
(S'thanks'
p1
tp2
(lp3
(I64
I10
F-0.625
S'sorry'
p4
I12
tp5
as(S'battery'
p6
S'life'
p7
tp8
(lp9
(I26
I20
F-0.75
S'short'
p10
I1
tp11
a(I52
I12
F0.625
S'easier'
p12
I19
tp13
a(I26
I20
F-0.75
g10
I15
tp14
a(I32
I3
F0.375
S'new'
p15
I15
tp16
a(I55
I0
F1.0
S'good'
p17
I15
tp18
a(I55
I0
F0.125
S'able'
p19
I15
tp20
as(S'torch'
p21
tp22
(lp23
(I9
I0
F0.5
S'upgraded'
p24
I0
tp25
a(I66
I2
I0
S'different'
p26
I0
tp27
as(S'an'
p28
S'international'
p29
S'version'
p30
tp31
(lp32
(I4
I5
F-0.5
S'international'
p33
I0
tp34
a(I33
I0
F-0.5
S'international'
p35
I0
tp36
a(I47
I10
F-0.5
S'international'
p37
I0
tp38
a(I50
I9
F-0.5
S'international'
p39
I0
tp40
a(I53
I11
F-0.5
S'international'
p41
I0
tp42
a(I65
I7
F-0.5
S'international'
p43
I0
tp44
a(I4
I1
F-0.375
S'black'
p45
I0
tp46
a(I4
I1
F-0.5
S'international'
p47
I0
tp48
a(I4
I5
F-0.5
g33
I0
tp49
a(I33
I0
F-0.5
g35
I0
tp50
a(I47
I10
F-0.5
g37
I0
tp51
a(I50
I9
F-0.5
g39
I0
tp52
a(I53
I11
F-0.5
g41
I0
tp53
a(I65
I7
F-0.5
g43
I0
tp54
as(S'camera'
p55
tp56
(lp57
(I5
I4
I0
S'great'
p58
I1
tp59
a(I8
I0
F1.0
S'good'
p60
I1
tp61
as(S'operating'
p62
S'system'
p63
tp64
(lp65
(I47
I8
I0
S'current'
p66
I2
tp67
a(I52
I26
I0
S'least'
p68
I2
tp69
as(S'iphone'
p70
tp71
(lp72
(I33
I2
F-0.875
S'inferior'
p73
I1
tp74
a(I33
I2
F0.375
S'new'
p75
I1
tp76
a(I66
I2
F0.5
S'bold'
p77
I1
tp78
as(S'seller'
p79
tp80
(lp81
(I35
I4
F-0.25
S'unhelpful'
p82
I19
tp83
a(I50
I12
F0.75
S'due'
p84
I19
tp85
as(S'llego'
p86
S'en'
p87
tp88
(lp89
(I43
I8
I0
S'y'
p90
I0
tp91
a(I43
I8
I0
g90
I0
tp92
as(S'network'
p93
tp94
(lp95
(I44
I5
F0.125
S'able'
p96
I0
tp97
as(S'lo'
p98
S'recomiendo'
p99
tp100
(lp101
(I22
I5
I0
S'y'
p102
I0
tp103
as(S'mhz'
p104
S'bands'
p105
tp106
(lp107
(I40
I12
F0.125
S'first'
p108
I0
tp109
a(I52
I21
F-0.5
S'open'
p110
I5
tp111
as(S'es'
p112
S'un'
p113
tp114
(lp115
(I56
I4
I0
S'fundamental'
p116
I5
tp117
a(I66
I6
I0
S'android'
p118
I5
tp119
as(S'carrier'
p120
tp121
(lp122
(I1
I0
I0
S'local'
p123
I1
tp124
a(I1
I1
I0
S'local'
p125
I1
tp126
a(I1
I1
F0.25
S'helpful'
p127
I1
tp128
a(I1
I1
F0.875
S'courteous'
p129
I1
tp130
a(I1
I5
I0
S'local'
p131
I1
tp132
a(I1
I13
I0
S'local'
p133
I1
tp134
a(I1
I13
I0
S'least'
p135
I1
tp136
a(I7
I15
F0.75
S'due'
p137
I1
tp138
as(S'blackberry'
p139
tp140
(lp141
(I33
I3
F-0.625
S'other'
p142
I1
tp143
a(I66
I1
I0
S'big'
p144
I1
tp145
a(I66
I6
I0
S'many'
p146
I1
tp147
a(I70
I3
F-0.625
S'other'
p148
I1
tp149
as(S'internal'
p150
S'memory'
p151
tp152
(lp153
(I4
I5
I0
S'internal'
p154
I0
tp155
a(I4
I5
I0
g154
I5
tp156
a(I52
I13
I0
S'special'
p157
I5
tp158
a(I52
I13
I0
S'external'
p159
I5
tp160
as.