(dp0
(S'signal'
p1
S'issues'
p2
tp3
(lp4
(I12
I21
I0
S'signal'
p5
I0
tp6
a(I12
I23
I0
S'signal'
p7
I0
tp8
a(I12
I25
I0
S'same'
p9
I0
tp10
a(I12
I25
I0
S'oh'
p11
I0
tp12
a(I12
I25
F0.25
S'familiar'
p13
I0
tp14
as(S'high'
p15
S'school'
p16
tp17
(lp18
(I13
I30
I0
S'high'
p19
I4
tp20
a(I16
I35
I0
S'high'
p21
I4
tp22
a(I16
I39
I0
S'high'
p23
I4
tp24
as(S'double'
p25
S'minutes'
p26
tp27
(lp28
(I2
I18
F-0.375
S'double'
p29
I0
tp30
a(I3
I27
F-0.375
S'double'
p31
I0
tp32
a(I12
I37
F-0.375
S'double'
p33
I0
tp34
a(I12
I37
F0.625
S'easy'
p35
I0
tp36
a(I13
I13
F-0.375
S'double'
p37
I0
tp38
a(I15
I20
F-0.375
S'double'
p39
I0
tp40
a(I16
I13
F0.625
S'easy'
p41
I0
tp42
a(I16
I13
F0.25
S'lovely'
p43
I0
tp44
a(I16
I13
F-0.375
S'double'
p45
I0
tp46
a(I17
I16
F-0.375
S'double'
p47
I0
tp48
as(S'tracfone'
p49
tp50
(lp51
(I3
I26
I0
S'website'
p52
I0
tp53
a(I4
I5
I0
S'website'
p54
I0
tp55
a(I4
I23
F-0.625
S'other'
p56
I0
tp57
a(I10
I2
F0.125
S'last'
p58
I0
tp59
a(I13
I25
F-0.25
S'cheaper'
p60
I0
tp61
a(I13
I31
F-0.75
S'unable'
p62
I0
tp63
a(I16
I1
F0.125
S'first'
p64
I0
tp65
as(S'customer'
p66
S'service'
p67
tp68
(lp69
(I9
I1
F-0.875
S'worst'
p70
I3
tp71
a(I3
I18
I0
S'great'
p72
I16
tp73
a(I3
I28
F-0.375
S'double'
p74
I16
tp75
a(I14
I19
F-0.25
S'cheaper'
p76
I16
tp77
as(S'call'
p78
S'quality'
p79
tp80
(lp81
(I2
I13
F1.0
S'good'
p82
I0
tp83
a(I3
I24
F0.5
S'clear'
p84
I0
tp85
as(S'mp3'
p86
S'player'
p87
tp88
(lp89
(I15
I17
F-0.125
S'mine'
p90
I1
tp91
as(S'samsung'
p92
tp93
(lp94
(I3
I35
F1.0
S'good'
p95
I7
tp96
a(I3
I35
F0.125
S'last'
p97
I7
tp98
a(I10
I2
F1.0
S'better'
p99
I7
tp100
as(S'receive'
p101
S'calls'
p102
tp103
(lp104
(I0
I7
F0.75
S'receive'
p105
I0
tp106
a(I4
I11
F0.75
S'receive'
p107
I0
tp108
a(I4
I14
F0.75
S'receive'
p109
I0
tp110
a(I4
I14
F0.375
S'reliable'
p111
I0
tp112
a(I0
I7
F0.75
g105
I0
tp113
a(I4
I11
F0.75
g107
I0
tp114
a(I4
I14
F0.75
g109
I0
tp115
a(I4
I14
F0.375
g111
I0
tp116
a(I17
I17
I0
S'few'
p117
I0
tp118
a(I17
I20
F-0.25
S'hung'
p119
I0
tp120
as(S'minutes'
p121
S'for'
p122
S'life'
p123
tp124
(lp125
(I3
I27
F-0.375
g31
I0
tp126
a(I15
I20
F-0.375
g39
I0
tp127
a(I16
I13
F0.625
g41
I0
tp128
a(I16
I13
F0.25
g43
I0
tp129
a(I16
I13
F-0.375
g45
I0
tp130
as(S'camera'
p131
tp132
(lp133
(I3
I41
F0.625
S'necessary'
p134
I1
tp135
a(I3
I41
F1.0
S'good'
p136
I1
tp137
a(I16
I44
F0.125
S'first'
p138
I1
tp139
as(S'landline'
p140
S'number'
p141
tp142
(lp143
(I4
I0
F0.25
S'original'
p144
I0
tp145
as.