(dp0
(S'battery'
p1
S'life'
p2
tp3
(lp4
(I14
I10
F1.0
S'good'
p5
I1
tp6
a(I17
I54
I0
S'great'
p7
I1
tp8
a(I32
I32
F-0.75
S'short'
p9
I1
tp10
a(I10
I9
F0.375
S'extra'
p11
I15
tp12
a(I17
I34
F0.25
S'bigger'
p13
I15
tp14
a(I17
I47
I0
S'old'
p15
I15
tp16
a(I17
I54
I0
g7
I15
tp17
a(I28
I7
F0.375
S'new'
p18
I15
tp19
a(I33
I10
F-0.75
S'dead'
p20
I15
tp21
a(I33
I11
F-0.625
S'bad'
p22
I15
tp23
a(I33
I11
F-0.625
S'bad'
p24
I15
tp25
a(I39
I4
F0.5
S'second'
p26
I15
tp27
a(I39
I5
F0.375
S'new'
p28
I15
tp29
as(S'loud'
p30
tp31
(lp32
(I11
I9
F0.5
S'clear'
p33
I10
tp34
as(S'smart'
p35
tp36
(lp37
(I14
I14
F-0.625
S'other'
p38
I10
tp39
a(I21
I0
I0
S'basic'
p40
I10
tp41
as(S'buttons'
p42
tp43
(lp44
(I11
I3
I0
S'big'
p45
I13
tp46
a(I12
I5
F0.875
S'nice'
p47
I13
tp48
a(I12
I5
I0
S'large'
p49
I13
tp50
a(I14
I19
I0
S'big'
p51
I13
tp52
a(I17
I42
I0
S'many'
p53
I13
tp54
a(I19
I5
I0
S'sensitive'
p55
I13
tp56
as(S'samsung'
p57
S'rugby'
p58
tp59
(lp60
(I14
I34
I0
S'third'
p61
I0
tp62
a(I29
I3
F0.125
S'further'
p63
I0
tp64
a(I14
I34
I0
g61
I7
tp65
a(I29
I3
F0.125
g63
I7
tp66
a(I6
I6
I0
S'ordinal'
p67
I0
tp68
a(I6
I7
F0.375
S'new'
p69
I0
tp70
a(I10
I11
F0.125
S'first'
p71
I0
tp72
a(I17
I34
I0
S'large'
p73
I0
tp74
a(I17
I34
F-0.5
S'heavy'
p75
I0
tp76
a(I22
I10
F0.5
S'second'
p77
I0
tp78
as(S'ptt'
p79
S'button'
p80
tp81
(lp82
(I11
I2
F-0.125
S'accidental'
p83
I0
tp84
a(I27
I30
I0
S'external'
p85
I0
tp86
a(I11
I2
F-0.125
g83
I19
tp87
a(I19
I11
F0.625
S'accessible'
p88
I19
tp89
a(I22
I12
F0.5
S'willing'
p90
I19
tp91
a(I22
I12
I-100
S'ppt/cam'
p92
I19
tp93
a(I35
I16
I0
S'sensitive'
p94
I19
tp95
as(S'volume'
p96
tp97
(lp98
(I6
I17
I0
S'sensitive'
p99
I6
tp100
a(I24
I51
F1.0
S'better'
p101
I6
tp102
a(I24
I53
I0
S'great'
p103
I6
tp104
a(I26
I6
F1.0
S'good'
p105
I6
tp106
as(S'service'
p107
tp108
(lp109
(I9
I10
I0
S'great'
p110
I16
tp111
a(I33
I1
I0
S'canadian'
p112
I16
tp113
a(I33
I4
F0.375
S'new'
p114
I16
tp115
as(S'sim'
p116
S'card'
p117
tp118
(lp119
(I0
I1
F0.5
S'told'
p120
I0
tp121
a(I10
I33
I0
S'great'
p122
I0
tp123
a(I14
I17
I0
S'same'
p124
I0
tp125
a(I16
I0
F0.375
S'new'
p126
I0
tp127
a(I16
I1
F1.0
S'good'
p128
I0
tp129
a(I17
I36
I0
S'old'
p130
I0
tp131
a(I25
I5
I0
S'old'
p132
I0
tp133
a(I32
I5
I0
S'multiple'
p134
I0
tp135
as(S'flip'
p136
tp137
(lp138
(I9
I6
F1.0
S'best'
p139
I4
tp140
a(I14
I16
F0.5
S'compatible'
p141
I4
tp142
a(I14
I37
I0
S'great'
p143
I4
tp144
a(I14
I37
I0
S'compact'
p145
I4
tp146
a(I32
I1
I0
S'standard'
p147
I4
tp148
a(I32
I3
F0.25
S'largest'
p149
I4
tp150
as(S'speaker'
p151
tp152
(lp153
(I9
I12
I0
S'external'
p154
I8
tp155
a(I11
I6
F0.875
S'music'
p156
I8
tp157
as(S'works'
p158
S'fine'
p159
tp160
(lp161
(I21
I0
I0
S'basic'
p162
I9
tp163
as(S'calls'
p164
tp165
(lp166
(I6
I8
I0
S'few'
p167
I0
tp168
a(I13
I8
F-0.5
S'less'
p169
I0
tp170
a(I17
I21
F-0.25
S'ready'
p171
I0
tp172
a(I31
I18
F0.625
S'easy'
p173
I0
tp174
a(I31
I18
F-0.75
S'short'
p175
I0
tp176
as.