(dp0
(S'easy'
p1
S'to'
p2
S'program'
p3
tp4
(lp5
(I7
I70
F0.625
S'easy'
p6
I0
tp7
a(I55
I66
F0.625
S'easy'
p8
I0
tp9
as(S'large'
p10
S'buttons'
p11
tp12
(lp13
(I0
I23
I0
S'large'
p14
I0
tp15
a(I1
I5
I0
S'large'
p16
I0
tp17
a(I3
I34
I0
S'large'
p18
I0
tp19
a(I4
I2
F0.25
S'larger'
p20
I0
tp21
a(I4
I2
F0.625
S'easier'
p22
I0
tp23
a(I4
I30
I0
S'large'
p24
I0
tp25
a(I8
I45
I0
S'large'
p26
I0
tp27
a(I11
I10
I0
S'large'
p28
I0
tp29
a(I11
I10
I0
S'great'
p30
I0
tp31
a(I12
I82
I0
S'large'
p32
I0
tp33
a(I21
I71
I0
S'large'
p34
I0
tp35
a(I24
I37
I0
S'physical'
p36
I0
tp37
a(I26
I1
F0.25
S'larger'
p38
I0
tp39
a(I26
I98
I0
S'few'
p40
I0
tp41
a(I26
I98
I0
S'large'
p42
I0
tp43
a(I26
I127
I0
S'big'
p44
I0
tp45
a(I26
I127
I0
S'large'
p46
I0
tp47
a(I26
I198
I0
S'large'
p48
I0
tp49
a(I28
I60
I0
S'big'
p50
I0
tp51
a(I29
I12
F0.625
S'easier'
p52
I0
tp53
a(I29
I45
I0
S'large'
p54
I0
tp55
a(I29
I45
I0
S'tactile'
p56
I0
tp57
a(I36
I116
I0
S'large'
p58
I0
tp59
a(I36
I224
I0
S'large'
p60
I0
tp61
a(I36
I317
I0
S'large'
p62
I0
tp63
a(I39
I73
I0
S'large'
p64
I0
tp65
a(I46
I52
F1.0
S'good'
p66
I0
tp67
a(I46
I52
I0
S'large'
p68
I0
tp69
a(I46
I55
I0
S'big'
p70
I0
tp71
a(I46
I60
I0
S'large'
p72
I0
tp73
a(I48
I70
I0
S'large'
p74
I0
tp75
a(I48
I70
F0.625
S'easy'
p76
I0
tp77
a(I48
I129
I0
S'large'
p78
I0
tp79
a(I49
I36
I0
S'large'
p80
I0
tp81
a(I49
I68
I0
S'large'
p82
I0
tp83
a(I49
I92
I0
S'large'
p84
I0
tp85
a(I49
I92
I0
S'great'
p86
I0
tp87
a(I51
I56
I0
S'large'
p88
I0
tp89
a(I51
I76
I0
S'large'
p90
I0
tp91
a(I52
I39
I0
S'large'
p92
I0
tp93
a(I57
I4
I0
S'large'
p94
I0
tp95
a(I57
I64
I0
S'large'
p96
I0
tp97
as(S'loud'
p98
tp99
(lp100
(I4
I30
F1.0
S'good'
p101
I10
tp102
a(I18
I4
F0.625
S'easy'
p103
I10
tp104
a(I18
I56
F0.875
S'nice'
p105
I10
tp106
a(I26
I233
F1.0
S'good'
p107
I10
tp108
a(I26
I270
F1.0
S'good'
p109
I10
tp110
a(I36
I320
F0.5
S'personal'
p111
I10
tp112
a(I39
I72
F-0.375
S'simple'
p113
I10
tp114
a(I46
I39
F-0.75
S'dead'
p115
I10
tp116
a(I49
I79
F0.375
S'loud'
p117
I10
tp118
a(I49
I79
F0.625
S'easy'
p119
I10
tp120
a(I49
I79
I0
S'dial'
p121
I10
tp122
a(I49
I79
F0.625
S'easy'
p123
I10
tp124
as(S'living'
p125
S'facility'
p126
tp127
(lp128
(I7
I19
I0
S'assisted'
p129
I0
tp130
a(I29
I92
I0
S'assisted'
p131
I0
tp132
as(S'straight'
p133
S'forward'
p134
tp135
(lp136
(I3
I15
F-0.625
S'other'
p137
I5
tp138
a(I3
I15
F0.625
S'easy'
p139
I5
tp140
a(I3
I15
F0.625
S'straight'
p141
I5
tp142
a(I38
I19
F0.625
S'straight'
p143
I5
tp144
a(I38
I19
F-0.375
S'simple'
p145
I5
tp146
as(S'c'
p147
S'senior'
p148
S'cell'
p149
tp150
(lp151
(I3
I37
I0
S'traditional'
p152
I0
tp153
a(I18
I47
F0.625
S'easy'
p154
I0
tp155
a(I35
I3
F0.625
S'easy'
p156
I0
tp157
a(I46
I4
F0.375
S'senior'
p158
I0
tp159
a(I46
I9
F0.625
S'convenient'
p160
I0
tp161
a(I46
I9
I0
S'standard'
p162
I0
tp163
a(I56
I23
F0.375
S'senior'
p164
I0
tp165
a(I56
I45
F0.375
S'senior'
p166
I0
tp167
a(I36
I328
F1.0
S'good'
p168
I0
tp169
a(I48
I124
F-0.625
S'other'
p170
I0
tp171
as(S'a'
p172
S'text'
p173
S'message'
p174
tp175
(lp176
(I7
I52
F0.5
S'possible'
p177
I0
tp178
a(I7
I53
F0.625
S'accessible'
p179
I0
tp180
a(I30
I48
F-0.5
S'sure'
p181
I0
tp182
a(I30
I49
F0.5
S'possible'
p183
I0
tp184
a(I7
I53
F0.625
g179
I18
tp185
a(I12
I118
F0.75
S'receive'
p186
I18
tp187
a(I28
I68
I0
S'large'
p188
I18
tp189
a(I30
I48
F-0.5
g181
I18
tp190
a(I30
I49
F0.5
g183
I18
tp191
a(I35
I21
F-0.375
S'disable'
p192
I18
tp193
a(I36
I239
F-0.375
S'small'
p194
I18
tp195
a(I37
I45
I0
S'large'
p196
I18
tp197
as(S'voice'
p198
tp199
(lp200
(I12
I83
I0
S'internal'
p201
I4
tp202
a(I16
I27
F1.0
S'good'
p203
I4
tp204
a(I18
I75
I0
S'old'
p205
I4
tp206
a(I18
I75
I0
S'messaged'
p207
I4
tp208
a(I26
I160
I0
S'female'
p209
I4
tp210
a(I26
I253
F0.375
S'early'
p211
I4
tp212
a(I35
I22
I0
S'basic'
p213
I4
tp214
a(I42
I35
I0
S'spanish'
p215
I4
tp216
a(I52
I15
F-0.25
S'low'
p217
I4
tp218
as(S'to'
p219
S'use'
p220
S'cell'
p221
tp222
(lp223
(I0
I23
F0.25
S'familiar'
p224
I0
tp225
a(I0
I28
F-0.625
S'unfamiliar'
p226
I0
tp227
a(I8
I7
I0
S'many'
p228
I0
tp229
a(I8
I7
F0.375
S'newer'
p230
I0
tp231
a(I16
I25
F0.125
S'able'
p232
I0
tp233
a(I18
I47
F0.625
g154
I0
tp234
a(I26
I202
F-0.875
S'hard'
p235
I0
tp236
a(I26
I202
F-0.5
S'regular'
p237
I0
tp238
a(I29
I106
I0
S'most'
p239
I0
tp240
a(I29
I106
F0.875
S'important'
p241
I0
tp242
a(I33
I48
F-0.625
S'other'
p243
I0
tp244
a(I35
I3
F0.625
g156
I0
tp245
a(I36
I216
F0.25
S'encourage'
p246
I0
tp247
a(I36
I299
F-0.375
S'simple'
p248
I0
tp249
a(I36
I299
F0.625
S'easy'
p250
I0
tp251
a(I46
I4
F0.375
g158
I0
tp252
a(I49
I43
F-0.5
S'regular'
p253
I0
tp254
a(I52
I16
F-0.625
S'other'
p255
I0
tp256
as(S'year'
p257
S'old'
p258
S'dad'
p259
tp260
(lp261
(I3
I63
I0
S'old'
p262
I0
tp263
a(I12
I10
I0
S'old'
p264
I0
tp265
a(I26
I13
I0
S'old'
p266
I0
tp267
a(I26
I44
I0
S'old'
p268
I0
tp269
a(I36
I151
I0
S'old'
p270
I0
tp271
a(I36
I255
I0
S'old'
p272
I0
tp273
a(I49
I0
I0
S'old'
p274
I0
tp275
a(I52
I61
I0
S'old'
p276
I0
tp277
a(I55
I34
I0
S'old'
p278
I0
tp279
as(S'an'
p280
S'elderly'
p281
S'person'
p282
tp283
(lp284
(I3
I16
I0
S'elderly'
p285
I0
tp286
a(I11
I5
I0
S'elderly'
p287
I0
tp288
a(I21
I29
I0
S'elderly'
p289
I0
tp290
a(I21
I84
I0
S'elderly'
p291
I0
tp292
a(I26
I200
I0
S'great'
p293
I0
tp294
a(I26
I200
I0
S'elderly'
p295
I0
tp296
a(I28
I63
I0
S'elderly'
p297
I0
tp298
a(I28
I66
I0
S'elderly'
p299
I0
tp300
a(I29
I55
I0
S'general'
p301
I0
tp302
a(I29
I55
I0
S'elderly'
p303
I0
tp304
a(I29
I85
F-0.5
S'less'
p305
I0
tp306
a(I29
I85
I0
S'elderly'
p307
I0
tp308
a(I30
I40
F-0.625
S'unfamiliar'
p309
I0
tp310
a(I36
I39
I0
S'elderly'
p311
I0
tp312
a(I36
I288
I0
S'elderly'
p313
I0
tp314
a(I47
I25
I0
S'elderly'
p315
I0
tp316
a(I49
I57
I0
S'elderly'
p317
I0
tp318
a(I56
I63
I0
S'elderly'
p319
I0
tp320
as(S'hard'
p321
S'of'
p322
S'hearing'
p323
tp324
(lp325
(I0
I46
F-0.875
S'hard'
p326
I0
tp327
a(I26
I104
F0.625
S'perfect'
p328
I0
tp329
a(I26
I104
F-0.875
S'hard'
p330
I0
tp331
a(I26
I191
F-0.875
S'hard'
p332
I0
tp333
a(I26
I233
F-0.875
S'hard'
p334
I0
tp335
a(I39
I45
F-0.875
S'hard'
p336
I0
tp337
a(I39
I71
I0
S'english'
p338
I0
tp339
a(I46
I13
F-0.875
S'hard'
p340
I0
tp341
a(I56
I53
F-0.875
S'hard'
p342
I0
tp343
a(I0
I46
F-0.875
g326
I4
tp344
a(I3
I55
F-0.875
S'trouble'
p345
I4
tp346
a(I3
I55
F-0.875
S'trouble'
p347
I4
tp348
a(I4
I30
F1.0
S'good'
p349
I4
tp350
a(I12
I115
F1.0
S'best'
p351
I4
tp352
a(I16
I25
F0.625
S'fair'
p353
I4
tp354
a(I19
I30
F-0.875
S'trouble'
p355
I4
tp356
a(I19
I48
F0.375
S'significant'
p357
I4
tp358
a(I26
I104
F0.625
g328
I4
tp359
a(I26
I104
F-0.875
g330
I4
tp360
a(I26
I191
F-0.875
g332
I4
tp361
a(I26
I233
F-0.875
g334
I4
tp362
a(I39
I45
F-0.875
g336
I4
tp363
a(I39
I71
I0
g338
I4
tp364
a(I46
I13
F-0.875
g340
I4
tp365
a(I48
I138
I0
S'visual'
p366
I4
tp367
a(I50
I29
F-0.875
S'trouble'
p368
I4
tp369
a(I56
I53
F-0.875
g342
I4
tp370
as(S'make'
p371
g172
S'call'
p372
tp373
(lp374
(I7
I43
F0.25
S'recent'
p375
I0
tp376
a(I24
I8
F-0.5
S'actual'
p377
I0
tp378
a(I48
I47
I0
S'large'
p379
I0
tp380
a(I48
I47
F0.625
S'easy'
p381
I0
tp382
a(I48
I111
F0.75
S'receive'
p383
I0
tp384
as(S'fm'
p385
S'radio'
p386
tp387
(lp388
(I7
I55
F-0.75
S'little'
p389
I0
tp390
a(I7
I55
F0.625
S'necessary'
p391
I0
tp392
a(I12
I50
F0.25
S'favorite'
p393
I0
tp394
a(I27
I4
F1.0
S'better'
p395
I0
tp396
a(I7
I55
F-0.75
g389
I0
tp397
a(I7
I55
F0.625
g391
I0
tp398
a(I20
I13
I0
S'unnecessary'
p399
I0
tp400
a(I26
I175
F1.0
S'good'
p401
I0
tp402
a(I27
I1
I0
S'great'
p403
I0
tp404
a(I27
I4
F1.0
g395
I0
tp405
a(I35
I16
F-0.625
S'light'
p406
I0
tp407
a(I37
I33
I0
S'many'
p408
I0
tp409
a(I49
I74
F0.375
S'extended'
p410
I0
tp411
a(I50
I26
F-0.625
S'light'
p412
I0
tp413
a(I50
I30
F0.875
S'nice'
p414
I0
tp415
a(I50
I30
F-0.625
S'light'
p416
I0
tp417
a(I52
I32
F-0.625
S'light'
p418
I0
tp419
as(S'mobile'
p420
S'sim'
p421
S'card'
p422
tp423
(lp424
(I12
I72
F0.125
S'able'
p425
I0
tp426
a(I12
I73
I0
S'great'
p427
I0
tp428
a(I26
I210
I0
S'install'
p429
I0
tp430
a(I39
I8
F0.375
S'new'
p431
I0
tp432
as(S'i.'
p433
S'e.'
p434
tp435
(lp436
(I18
I37
I0
S'sensitive'
p437
I0
tp438
a(I36
I219
F-0.25
S'highest'
p439
I0
tp440
a(I36
I219
F-0.75
S'difficult'
p441
I0
tp442
a(I46
I4
F0.625
S'easier'
p443
I0
tp444
as(S'menu'
p445
tp446
(lp447
(I12
I102
F-0.375
S'simple'
p448
I2
tp449
a(I21
I83
I0
S'many'
p450
I2
tp451
a(I24
I17
F0.625
S'easy'
p452
I2
tp453
a(I36
I229
F0.125
S'key'
p454
I2
tp455
a(I38
I19
I0
S'operational'
p456
I2
tp457
a(I46
I32
I0
S'same'
p458
I2
tp459
a(I47
I52
F-0.25
S'yellow'
p460
I2
tp461
a(I48
I130
F-0.375
S'simple'
p462
I2
tp463
a(I49
I39
I0
S'large'
p464
I2
tp465
a(I56
I32
F-0.125
S'complicated'
p466
I2
tp467
a(I57
I50
F0.5
S'clear'
p468
I2
tp469
a(I57
I50
F0.625
S'easy'
p470
I2
tp471
as(S'simple'
p472
S'to'
p473
S'use'
p474
tp475
(lp476
(I4
I22
I0
S'very'
p477
I1
tp478
as(S'year'
p479
S'old'
p480
S'mom'
p481
tp482
(lp483
(I12
I91
I0
S'old'
p484
I0
tp485
a(I12
I100
I0
S'old'
p486
I0
tp487
a(I26
I139
I0
S'old'
p488
I0
tp489
a(I28
I4
I0
S'old'
p490
I0
tp491
a(I30
I27
I0
S'old'
p492
I0
tp493
a(I36
I101
I0
S'old'
p494
I0
tp495
a(I39
I44
I0
S'old'
p496
I0
tp497
a(I45
I4
I0
S'old'
p498
I0
tp499
a(I51
I94
I0
S'old'
p500
I0
tp501
a(I55
I78
I0
S'old'
p502
I0
tp503
as(S'year'
p504
S'old'
p505
S'father'
p506
tp507
(lp508
(I0
I0
I0
S'old'
p509
I0
tp510
a(I12
I127
I0
S'old'
p511
I0
tp512
a(I19
I9
I0
S'old'
p513
I0
tp514
a(I26
I272
I0
S'old'
p515
I0
tp516
a(I26
I288
I0
S'old'
p517
I0
tp518
a(I28
I64
I0
S'old'
p519
I0
tp520
a(I28
I69
I0
S'old'
p521
I0
tp522
a(I29
I11
I0
S'old'
p523
I0
tp524
a(I30
I4
F0.125
S'last'
p525
I0
tp526
a(I36
I356
I0
S'old'
p527
I0
tp528
a(I48
I67
I0
S'old'
p529
I0
tp530
a(I49
I96
I0
S'old'
p531
I0
tp532
a(I51
I4
I0
S'elderly'
p533
I0
tp534
a(I51
I4
I0
S'old'
p535
I0
tp536
a(I51
I19
I0
S'old'
p537
I0
tp538
a(I0
I22
I0
S'elderly'
p539
I2
tp540
a(I21
I96
I0
S'elderly'
p541
I2
tp542
a(I21
I114
F-0.375
S'blind'
p543
I2
tp544
a(I24
I34
I-100
S'92-year-old'
p545
I2
tp546
a(I26
I26
I0
S'elderly'
p547
I2
tp548
a(I26
I202
F-0.375
S'blind'
p549
I2
tp550
a(I29
I38
F-0.375
S'blind'
p551
I2
tp552
a(I30
I4
F0.125
g525
I2
tp553
a(I39
I56
F0.125
S'able'
p554
I2
tp555
a(I43
I26
F-0.625
S'push'
p556
I2
tp557
a(I46
I20
F-0.375
S'blind'
p558
I2
tp559
as(S'snapfon'
p560
S'ezone'
p561
tp562
(lp563
(I35
I4
F-0.75
S'worse'
p564
I0
tp565
a(I39
I19
I0
S'great'
p566
I0
tp567
a(I3
I69
F0.625
S'easy'
p568
I0
tp569
a(I7
I32
F0.125
S'able'
p570
I0
tp571
a(I8
I11
F0.375
S'new'
p572
I0
tp573
a(I8
I25
I0
S'only'
p574
I0
tp575
a(I8
I40
F-0.625
S'other'
p576
I0
tp577
a(I11
I41
F0.5
S'technical'
p578
I0
tp579
a(I12
I2
F0.375
S'new'
p580
I0
tp581
a(I12
I7
I0
S'wish'
p582
I0
tp583
a(I12
I7
I0
S'more'
p584
I0
tp585
a(I26
I48
F0.625
S'easier'
p586
I0
tp587
a(I26
I136
F-0.5
S'call'
p588
I0
tp589
a(I26
I147
I0
S'great'
p590
I0
tp591
a(I26
I158
I0
S'website'
p592
I0
tp593
a(I28
I82
F0.5
S'compatible'
p594
I0
tp595
a(I28
I90
F-0.25
S'unaware'
p596
I0
tp597
a(I30
I24
I0
S'great'
p598
I0
tp599
a(I36
I350
F0.375
S'new'
p600
I0
tp601
a(I37
I66
F0.875
S'nice'
p602
I0
tp603
a(I43
I24
F0.875
S'happy'
p604
I0
tp605
a(I44
I1
I0
S'great'
p606
I0
tp607
a(I48
I2
I0
S'wish'
p608
I0
tp609
a(I51
I82
F0.125
S'able'
p610
I0
tp611
a(I52
I4
F0.125
S'able'
p612
I0
tp613
a(I52
I12
I0
S'such'
p614
I0
tp615
a(I52
I20
F0.5
S'second'
p616
I0
tp617
a(I56
I61
F0.5
S'thankful'
p618
I0
tp619
a(I56
I61
F0.375
S'available'
p620
I0
tp621
a(I57
I30
F0.375
S'new'
p622
I0
tp623
a(I57
I82
F-0.5
S'sure'
p624
I0
tp625
a(I57
I82
F0.5
S'compatible'
p626
I0
tp627
a(I57
I105
F0.625
S'perfect'
p628
I0
tp629
as(S'speaker'
p630
tp631
(lp632
(I3
I18
F-0.5
S'regular'
p633
I8
tp634
a(I21
I94
F0.5
S'clear'
p635
I8
tp636
a(I26
I291
F1.0
S'better'
p637
I8
tp638
a(I26
I292
F0.625
S'convenient'
p639
I8
tp640
a(I26
I293
F-0.5
S'separate'
p641
I8
tp642
a(I28
I71
F-0.75
S'dead'
p643
I8
tp644
a(I42
I54
F0.625
S'easy'
p645
I8
tp646
a(I43
I20
I0
S'harsh'
p647
I8
tp648
a(I43
I20
F-0.25
S'distorted'
p649
I8
tp650
a(I47
I47
F-0.625
S'green'
p651
I8
tp652
a(I56
I21
F-0.5
S'poor'
p653
I8
tp654
a(I57
I35
F0.5
S'clear'
p655
I8
tp656
a(I57
I78
I0
S'large'
p657
I8
tp658
as(S'eye'
p659
S'sight'
p660
tp661
(lp662
(I4
I23
F-0.5
S'poor'
p663
I0
tp664
a(I46
I13
F-0.625
S'bad'
p665
I0
tp666
a(I48
I24
I0
S'elderly'
p667
I0
tp668
a(I48
I24
F-0.625
S'bad'
p669
I0
tp670
a(I51
I13
F0.625
S'perfect'
p671
I0
tp672
as(S'easy'
p673
S'to'
p674
S'read'
p675
tp676
(lp677
(I18
I12
F0.625
S'easy'
p678
I10
tp679
a(I55
I75
F0.625
S'easy'
p680
I10
tp681
as(S'used'
p682
g172
S'cell'
p683
tp684
(lp685
(I33
I48
F-0.625
g243
I0
tp686
as(S'keys'
p687
tp688
(lp689
(I7
I79
I0
S'large'
p690
I9
tp691
a(I13
I6
I0
S'large'
p692
I9
tp693
a(I26
I43
I0
S'large'
p694
I9
tp695
a(I26
I81
I0
S'big'
p696
I9
tp697
a(I26
I110
I0
S'large'
p698
I9
tp699
a(I26
I115
I0
S'big'
p700
I9
tp701
a(I26
I153
I0
S'big'
p702
I9
tp703
a(I26
I153
F-0.875
S'trouble'
p704
I9
tp705
a(I26
I154
I0
S'big'
p706
I9
tp707
a(I26
I168
I0
S'large'
p708
I9
tp709
a(I26
I170
I0
S'big'
p710
I9
tp711
a(I27
I22
F0.5
S'odd'
p712
I9
tp713
a(I29
I4
F-0.875
S'hard'
p714
I9
tp715
a(I29
I6
I0
S'large'
p716
I9
tp717
a(I30
I36
F0.625
S'easy'
p718
I9
tp719
a(I32
I6
I0
S'large'
p720
I9
tp721
a(I36
I45
I0
S'large'
p722
I9
tp723
a(I36
I102
F0.25
S'biggest'
p724
I9
tp725
a(I36
I151
F-0.375
S'smaller'
p726
I9
tp727
a(I36
I178
F0.375
S'audible'
p728
I9
tp729
a(I36
I226
I0
S'many'
p730
I9
tp731
a(I36
I227
F0.125
S'usual'
p732
I9
tp733
a(I36
I227
I0
S'soft'
p734
I9
tp735
a(I37
I45
F-0.875
S'load'
p736
I9
tp737
a(I37
I52
F0.625
S'easy'
p738
I9
tp739
a(I44
I21
I0
S'large'
p740
I9
tp741
a(I48
I57
I0
S'large'
p742
I9
tp743
a(I51
I7
F0.25
S'largest'
p744
I9
tp745
a(I51
I37
F0.625
S'correct'
p746
I9
tp747
a(I55
I75
I0
S'large'
p748
I9
tp749
as(S'buttons'
p750
S'on'
p751
S'side'
p752
tp753
(lp754
(I26
I127
I0
g44
I0
tp755
a(I26
I127
I0
g46
I0
tp756
a(I57
I51
I0
S'big'
p757
I0
tp758
as(S'battery'
p759
tp760
(lp761
(I0
I13
I0
S'great'
p762
I15
tp763
a(I1
I1
F-0.5
S'sure'
p764
I15
tp765
a(I4
I72
F1.0
S'good'
p766
I15
tp767
a(I18
I10
F-0.75
S'wrong'
p768
I15
tp769
a(I21
I78
I0
S'more'
p770
I15
tp771
a(I21
I78
F-0.125
S'complicated'
p772
I15
tp773
a(I24
I24
I0
S'common'
p774
I15
tp775
a(I26
I50
F0.375
S'friendly'
p776
I15
tp777
a(I26
I146
F-0.75
S'likely'
p778
I15
tp779
a(I28
I80
F0.375
S'new'
p780
I15
tp781
a(I28
I82
F-0.625
S'other'
p782
I15
tp783
a(I29
I53
F-0.25
S'low'
p784
I15
tp785
a(I37
I24
I0
S'quick'
p786
I15
tp787
a(I37
I41
F-0.5
S'long'
p788
I15
tp789
a(I42
I46
F-0.75
S'dead'
p790
I15
tp791
a(I48
I108
F-0.25
S'low'
p792
I15
tp793
a(I51
I88
F-0.625
S'bad'
p794
I15
tp795
a(I51
I88
F0.625
S'right'
p796
I15
tp797
a(I56
I52
I0
S'incredible'
p798
I15
tp799
as(S't'
p800
S'sim'
p801
S'card'
p802
tp803
(lp804
(I8
I4
I0
S'great'
p805
I0
tp806
a(I8
I7
F0.375
S'new'
p807
I0
tp808
a(I8
I10
F0.375
S'new'
p809
I0
tp810
a(I8
I11
F0.375
S'new'
p811
I0
tp812
a(I8
I13
F0.375
S'newer'
p813
I0
tp814
a(I8
I14
F0.25
S'original'
p815
I0
tp816
a(I11
I31
I0
S'different'
p817
I0
tp818
a(I12
I72
F0.125
g425
I0
tp819
a(I12
I73
I0
g427
I0
tp820
a(I13
I17
I0
S'great'
p821
I0
tp822
a(I20
I2
F0.125
S'able'
p823
I0
tp824
a(I26
I210
I0
g429
I0
tp825
a(I29
I89
I0
S'most'
p826
I0
tp827
a(I36
I196
I0
S'old'
p828
I0
tp829
a(I36
I196
F1.0
S'good'
p830
I0
tp831
a(I36
I196
F0.375
S'new'
p832
I0
tp833
a(I36
I330
I0
S'old'
p834
I0
tp835
a(I36
I343
F1.0
S'good'
p836
I0
tp837
a(I39
I8
F0.375
g431
I0
tp838
a(I39
I46
F0.125
S'able'
p839
I0
tp840
a(I41
I1
F-0.5
S'international'
p841
I0
tp842
a(I44
I2
I0
S'store'
p843
I0
tp844
a(I51
I83
F-0.625
S'other'
p845
I0
tp846
a(I57
I37
F0.5
S'compatible'
p847
I0
tp848
a(I8
I4
I0
g805
I0
tp849
a(I8
I7
F0.375
g807
I0
tp850
a(I8
I10
F0.375
g809
I0
tp851
a(I8
I11
F0.375
g811
I0
tp852
a(I8
I13
F0.375
g813
I0
tp853
a(I8
I14
F0.25
g815
I0
tp854
a(I11
I31
I0
g817
I0
tp855
a(I12
I72
F0.125
g425
I0
tp856
a(I12
I73
I0
g427
I0
tp857
a(I20
I2
F0.125
g823
I0
tp858
a(I26
I210
I0
g429
I0
tp859
a(I36
I196
I0
g828
I0
tp860
a(I36
I196
F1.0
g830
I0
tp861
a(I36
I196
F0.375
g832
I0
tp862
a(I36
I330
I0
g834
I0
tp863
a(I36
I343
F1.0
g836
I0
tp864
a(I39
I8
F0.375
g431
I0
tp865
a(I39
I46
F0.125
g839
I0
tp866
a(I41
I1
F-0.5
g841
I0
tp867
a(I57
I37
F0.5
g847
I0
tp868
as(S'easy'
p869
S'to'
p870
S'set'
p871
tp872
(lp873
(I4
I72
F0.625
S'easy'
p874
I4
tp875
a(I4
I72
F0.625
S'easy'
p876
I4
tp877
a(I13
I19
I-100
S'up/operate'
p878
I4
tp879
as(S'near'
p880
S'future'
p881
tp882
(lp883
(I36
I281
F-0.125
S'future'
p884
I0
tp885
as(S'calls'
p886
tp887
(lp888
(I16
I1
F0.75
S'receive'
p889
I0
tp890
a(I23
I2
F-0.625
S'other'
p891
I0
tp892
a(I24
I1
F0.125
S'able'
p893
I0
tp894
a(I24
I11
F0.125
S'key'
p895
I0
tp896
a(I26
I18
F-0.625
S'bad'
p897
I0
tp898
a(I26
I251
F0.125
S'further'
p899
I0
tp900
a(I27
I27
F0.75
S'receive'
p901
I0
tp902
a(I28
I31
F0.5
S'clear'
p903
I0
tp904
a(I36
I152
F0.125
S'able'
p905
I0
tp906
a(I36
I225
F0.625
S'easier'
p907
I0
tp908
a(I36
I300
F0.125
S'able'
p909
I0
tp910
as(S'assisted'
p911
g125
tp912
(lp913
(I7
I19
I0
g129
I0
tp914
a(I29
I92
I0
g131
I0
tp915
as(S'able'
p916
S'to'
p917
S'use'
p918
tp919
(lp920
(I4
I66
I0
S'monthly'
p921
I12
tp922
as(S'macular'
p923
S'degeneration'
p924
tp925
(lp926
(I50
I7
F-0.75
S'forgetful'
p927
I0
tp928
a(I57
I103
F0.75
S'due'
p929
I0
tp930
as(S'year'
p931
S'old'
p932
S'mother'
p933
tp934
(lp935
(I2
I7
I0
S'old'
p936
I1
tp937
a(I2
I58
I0
S'old'
p938
I1
tp939
a(I2
I58
F0.625
S'perfect'
p940
I1
tp941
a(I3
I36
I0
S'old'
p942
I1
tp943
a(I3
I70
I0
S'old'
p944
I1
tp945
a(I4
I55
I0
S'old'
p946
I1
tp947
a(I7
I78
I0
S'old'
p948
I1
tp949
a(I8
I48
I0
S'old'
p950
I1
tp951
a(I12
I31
I0
S'old'
p952
I1
tp953
a(I12
I61
I0
S'old'
p954
I1
tp955
a(I18
I18
I0
S'old'
p956
I1
tp957
a(I19
I48
I0
S'old'
p958
I1
tp959
a(I21
I18
I0
S'old'
p960
I1
tp961
a(I21
I34
I0
S'old'
p962
I1
tp963
a(I21
I67
I0
S'old'
p964
I1
tp965
a(I23
I42
I0
S'old'
p966
I1
tp967
a(I26
I6
I0
S'old'
p968
I1
tp969
a(I26
I30
I0
S'old'
p970
I1
tp971
a(I26
I263
I0
S'old'
p972
I1
tp973
a(I26
I269
I0
S'old'
p974
I1
tp975
a(I29
I47
I0
S'old'
p976
I1
tp977
a(I29
I77
I0
S'old'
p978
I1
tp979
a(I33
I46
I0
S'old'
p980
I1
tp981
a(I35
I1
I0
S'old'
p982
I1
tp983
a(I36
I216
I0
S'old'
p984
I1
tp985
a(I36
I290
I0
S'old'
p986
I1
tp987
a(I36
I299
I0
S'old'
p988
I1
tp989
a(I51
I75
I0
S'old'
p990
I1
tp991
a(I55
I54
I0
S'old'
p992
I1
tp993
a(I57
I61
I0
S'old'
p994
I1
tp995
a(I57
I84
I0
S'old'
p996
I1
tp997
a(I2
I58
F0.625
g940
I1
tp998
a(I23
I42
I0
g966
I1
tp999
a(I36
I162
I0
S'old'
p1000
I1
tp1001
a(I55
I54
I0
g992
I1
tp1002
a(I0
I15
I0
S'great'
p1003
I9
tp1004
a(I2
I13
I0
S'english'
p1005
I9
tp1006
a(I2
I58
F0.625
g940
I9
tp1007
a(I4
I21
F-0.375
S'blind'
p1008
I9
tp1009
a(I8
I46
F1.0
S'best'
p1010
I9
tp1011
a(I11
I0
I0
S'elderly'
p1012
I9
tp1013
a(I12
I7
F-0.75
S'likely'
p1014
I9
tp1015
a(I12
I69
F0.375
S'worked'
p1016
I9
tp1017
a(I17
I16
F0.625
S'perfect'
p1018
I9
tp1019
a(I18
I15
F-0.5
S'relative'
p1020
I9
tp1021
a(I20
I22
F-0.375
S'blind'
p1022
I9
tp1023
a(I21
I30
F0.375
S'senior'
p1024
I9
tp1025
a(I21
I73
F-0.375
S'blind'
p1026
I9
tp1027
a(I23
I42
I0
g966
I9
tp1028
a(I26
I166
F0.625
S'easy'
p1029
I9
tp1030
a(I26
I213
I0
S'elderly'
p1031
I9
tp1032
a(I36
I37
F0.625
S'acceptable'
p1033
I9
tp1034
a(I36
I68
I0
S'absurd'
p1035
I9
tp1036
a(I36
I162
I0
g1000
I9
tp1037
a(I37
I33
F-0.875
S'hard'
p1038
I9
tp1039
a(I39
I1
I0
S'elderly'
p1040
I9
tp1041
a(I42
I3
I0
S'elderly'
p1042
I9
tp1043
a(I55
I54
I0
g992
I9
tp1044
a(I56
I55
I0
S'elderly'
p1045
I9
tp1046
a(I57
I46
I0
S'least'
p1047
I9
tp1048
a(I57
I52
F0.125
S'able'
p1049
I9
tp1050
as(S'bells'
p1051
S'and'
p1052
S'whistles'
p1053
tp1054
(lp1055
(I11
I5
F0.625
S'easy'
p1056
I0
tp1057
a(I28
I44
I0
S'many'
p1058
I0
tp1059
as(g172
S'great'
p1060
S'feature'
p1061
tp1062
(lp1063
(I1
I10
I0
S'great'
p1064
I0
tp1065
a(I12
I40
I0
S'great'
p1066
I0
tp1067
a(I17
I4
I0
S'great'
p1068
I0
tp1069
a(I26
I140
I0
S'great'
p1070
I0
tp1071
a(I36
I319
F-0.625
S'other'
p1072
I0
tp1073
a(I37
I6
I0
S'great'
p1074
I0
tp1075
a(I44
I12
I0
S'great'
p1076
I0
tp1077
a(I48
I39
I0
S'great'
p1078
I0
tp1079
a(I55
I73
I0
S'great'
p1080
I0
tp1081
as(S'button'
p1082
S'on'
p1083
S'back'
p1084
tp1085
(lp1086
(I3
I22
F-0.75
S'panic'
p1087
I0
tp1088
a(I4
I6
I0
S'big'
p1089
I0
tp1090
a(I4
I6
F-0.375
S'red'
p1091
I0
tp1092
a(I12
I171
I0
S'big'
p1093
I0
tp1094
a(I26
I127
I0
S'large'
p1095
I0
tp1096
a(I51
I95
I-100
S'located4-very'
p1097
I0
tp1098
a(I52
I7
I0
S'large'
p1099
I0
tp1100
a(I56
I13
I0
S'large'
p1101
I0
tp1102
a(I3
I22
F-0.75
g1087
I19
tp1103
a(I3
I33
F-0.75
S'panic'
p1104
I19
tp1105
a(I4
I6
I0
g1089
I19
tp1106
a(I4
I6
F-0.375
g1091
I19
tp1107
a(I4
I17
I0
S'big'
p1108
I19
tp1109
a(I4
I17
F-0.375
S'red'
p1110
I19
tp1111
a(I4
I17
I0
S'big'
p1112
I19
tp1113
a(I4
I17
F1.0
S'best'
p1114
I19
tp1115
a(I4
I69
I0
S'anymore'
p1116
I19
tp1117
a(I8
I36
F-0.75
S'wrong'
p1118
I19
tp1119
a(I8
I36
F0.625
S'easy'
p1120
I19
tp1121
a(I12
I46
F-0.75
S'single'
p1122
I19
tp1123
a(I12
I97
I0
S'same'
p1124
I19
tp1125
a(I12
I171
I0
g1093
I19
tp1126
a(I18
I13
F-0.75
S'panic'
p1127
I19
tp1128
a(I18
I63
F-0.625
S'green'
p1129
I19
tp1130
a(I18
I65
F-0.625
S'green'
p1131
I19
tp1132
a(I19
I39
I0
S'many'
p1133
I19
tp1134
a(I21
I9
I0
S'rear'
p1135
I19
tp1136
a(I24
I42
F-0.625
S'glad'
p1137
I19
tp1138
a(I26
I127
I0
g1095
I19
tp1139
a(I28
I2
I0
S'great'
p1140
I19
tp1141
a(I29
I79
I0
S'valuable'
p1142
I19
tp1143
a(I30
I21
F-0.625
S'green'
p1144
I19
tp1145
a(I33
I6
I0
S'big'
p1146
I19
tp1147
a(I36
I23
F-0.375
S'simple'
p1148
I19
tp1149
a(I36
I103
F-0.75
S'panic'
p1150
I19
tp1151
a(I36
I320
I0
S'big'
p1152
I19
tp1153
a(I36
I320
F-0.375
S'red'
p1154
I19
tp1155
a(I46
I48
I0
S'big'
p1156
I19
tp1157
a(I47
I51
F0.625
S'easy'
p1158
I19
tp1159
a(I50
I1
F-0.75
S'panic'
p1160
I19
tp1161
a(I51
I58
I0
S'many'
p1162
I19
tp1163
a(I52
I7
I0
g1099
I19
tp1164
a(I52
I48
F0.875
S'nice'
p1165
I19
tp1166
a(I52
I52
I0
S'large'
p1167
I19
tp1168
a(I52
I56
I0
S'large'
p1169
I19
tp1170
a(I52
I56
F0.5
S'flat'
p1171
I19
tp1172
a(I55
I1
F-0.5
S'certain'
p1173
I19
tp1174
a(I56
I13
I0
g1101
I19
tp1175
a(I57
I78
F1.0
S'good'
p1176
I19
tp1177
a(I57
I95
F-0.75
S'panic'
p1178
I19
tp1179
as(S'emergency'
p1180
S'button'
p1181
tp1182
(lp1183
(I12
I71
F0.125
S'able'
p1184
I0
tp1185
a(I21
I9
I0
g1135
I0
tp1186
a(I24
I48
F0.125
S'key'
p1187
I0
tp1188
a(I24
I48
I0
S'dial'
p1189
I0
tp1190
a(I26
I140
F0.625
S'easy'
p1191
I0
tp1192
a(I28
I2
I0
g1140
I0
tp1193
a(I29
I79
I0
g1142
I0
tp1194
a(I36
I320
I0
g1152
I0
tp1195
a(I36
I320
F-0.375
g1154
I0
tp1196
a(I47
I9
F1.0
S'best'
p1197
I0
tp1198
a(I52
I7
I0
g1099
I0
tp1199
a(I52
I48
F0.875
g1165
I0
tp1200
a(I55
I32
I0
S'great'
p1201
I0
tp1202
a(I56
I13
I0
g1101
I0
tp1203
a(I12
I71
F0.125
g1184
I0
tp1204
a(I24
I48
F0.125
g1187
I0
tp1205
a(I24
I48
I0
g1189
I0
tp1206
a(I26
I140
F0.625
g1191
I0
tp1207
a(I39
I11
I-100
S'shehad'
p1208
I0
tp1209
a(I47
I9
F1.0
g1197
I0
tp1210
a(I48
I121
I0
S'great'
p1211
I0
tp1212
a(I48
I121
F-0.75
S'little'
p1213
I0
tp1214
a(I55
I23
F1.0
S'good'
p1215
I0
tp1216
a(I55
I32
I0
g1201
I0
tp1217
as(S'seniors'
p1218
tp1219
(lp1220
(I7
I0
I0
S'general'
p1221
I0
tp1222
a(I8
I44
F0.625
S'easy'
p1223
I0
tp1224
a(I21
I88
F-0.125
S'complex'
p1225
I0
tp1226
a(I21
I88
I0
S'most'
p1227
I0
tp1228
a(I26
I56
F-0.5
S'sure'
p1229
I0
tp1230
a(I37
I43
I0
S'great'
p1231
I0
tp1232
a(I42
I18
I0
S'more'
p1233
I0
tp1234
a(I42
I65
F-0.5
S'worry'
p1235
I0
tp1236
a(I43
I15
F0.625
S'perfect'
p1237
I0
tp1238
a(I47
I5
F0.625
S'easy'
p1239
I0
tp1240
a(I47
I5
I0
S'dial'
p1241
I0
tp1242
a(I47
I28
I0
S'elderly'
p1243
I0
tp1244
a(I48
I62
I0
S'most'
p1245
I0
tp1246
a(I48
I115
I0
S'many'
p1247
I0
tp1248
a(I48
I139
I0
S'most'
p1249
I0
tp1250
a(I48
I139
I0
S'active'
p1251
I0
tp1252
a(I50
I8
I0
S'few'
p1253
I0
tp1254
a(I56
I24
F-0.375
S'small'
p1255
I0
tp1256
as(S'with'
p1257
S'large'
p1258
S'numbers'
p1259
tp1260
(lp1261
(I3
I8
I0
S'large'
p1262
I0
tp1263
a(I4
I23
I0
S'large'
p1264
I0
tp1265
a(I7
I89
I0
S'large'
p1266
I0
tp1267
a(I12
I32
I0
S'large'
p1268
I0
tp1269
a(I14
I0
F0.625
S'easy'
p1270
I0
tp1271
a(I14
I0
F0.625
S'easy'
p1272
I0
tp1273
a(I19
I46
I0
S'big'
p1274
I0
tp1275
a(I19
I46
I0
S'large'
p1276
I0
tp1277
a(I22
I2
I0
S'large'
p1278
I0
tp1279
a(I22
I2
F0.125
S'able'
p1280
I0
tp1281
a(I22
I2
I0
S'dial'
p1282
I0
tp1283
a(I22
I2
F1.0
S'good'
p1284
I0
tp1285
a(I26
I191
I0
S'large'
p1286
I0
tp1287
a(I30
I36
I0
S'large'
p1288
I0
tp1289
a(I30
I36
I0
S'few'
p1290
I0
tp1291
a(I30
I36
F0.875
S'important'
p1292
I0
tp1293
a(I36
I17
I0
S'large'
p1294
I0
tp1295
a(I36
I61
F0.25
S'larger'
p1296
I0
tp1297
a(I36
I61
F0.625
S'easy'
p1298
I0
tp1299
a(I38
I28
I0
S'large'
p1300
I0
tp1301
a(I43
I7
I0
S'large'
p1302
I0
tp1303
a(I48
I84
I0
S'large'
p1304
I0
tp1305
a(I0
I33
I0
S'large'
p1306
I0
tp1307
a(I0
I33
F-0.625
S'light'
p1308
I0
tp1309
a(I0
I51
I0
S'large'
p1310
I0
tp1311
a(I3
I8
I0
g1262
I0
tp1312
a(I3
I53
I0
S'large'
p1313
I0
tp1314
a(I4
I13
I0
S'large'
p1315
I0
tp1316
a(I4
I13
F-0.375
S'simple'
p1317
I0
tp1318
a(I4
I23
I0
g1264
I0
tp1319
a(I7
I89
I0
g1266
I0
tp1320
a(I12
I32
I0
g1268
I0
tp1321
a(I12
I39
F0.25
S'larger'
p1322
I0
tp1323
a(I14
I0
F0.625
g1270
I0
tp1324
a(I14
I0
F0.625
g1272
I0
tp1325
a(I14
I16
F0.625
S'easy'
p1326
I0
tp1327
a(I14
I16
I0
S'large'
p1328
I0
tp1329
a(I19
I24
I0
S'large'
p1330
I0
tp1331
a(I19
I46
I0
g1274
I0
tp1332
a(I19
I46
I0
g1276
I0
tp1333
a(I19
I55
I0
S'large'
p1334
I0
tp1335
a(I22
I2
I0
g1278
I0
tp1336
a(I22
I2
F0.125
g1280
I0
tp1337
a(I22
I2
I0
g1282
I0
tp1338
a(I22
I2
F1.0
g1284
I0
tp1339
a(I26
I191
I0
g1286
I0
tp1340
a(I26
I265
I0
S'large'
p1341
I0
tp1342
a(I26
I265
F0.625
S'perfect'
p1343
I0
tp1344
a(I29
I16
I0
S'big'
p1345
I0
tp1346
a(I30
I36
I0
g1288
I0
tp1347
a(I30
I36
I0
g1290
I0
tp1348
a(I30
I36
F0.875
g1292
I0
tp1349
a(I34
I4
I0
S'large'
p1350
I0
tp1351
a(I36
I17
I0
g1294
I0
tp1352
a(I36
I50
I0
S'large'
p1353
I0
tp1354
a(I36
I61
F0.25
g1296
I0
tp1355
a(I36
I61
F0.625
g1298
I0
tp1356
a(I36
I268
I0
S'large'
p1357
I0
tp1358
a(I38
I28
I0
g1300
I0
tp1359
a(I39
I20
I0
S'large'
p1360
I0
tp1361
a(I39
I51
I0
S'large'
p1362
I0
tp1363
a(I39
I51
F0.625
S'easy'
p1364
I0
tp1365
a(I39
I55
I0
S'large'
p1366
I0
tp1367
a(I42
I58
F1.0
S'good'
p1368
I0
tp1369
a(I43
I7
I0
g1302
I0
tp1370
a(I47
I23
I0
S'large'
p1371
I0
tp1372
a(I47
I23
F0.625
S'easy'
p1373
I0
tp1374
a(I47
I45
I0
S'real'
p1375
I0
tp1376
a(I47
I45
F0.625
S'easy'
p1377
I0
tp1378
a(I47
I45
I0
S'great'
p1379
I0
tp1380
a(I48
I84
I0
g1304
I0
tp1381
a(I51
I6
I0
S'large'
p1382
I0
tp1383
a(I52
I7
F-0.75
S'unable'
p1384
I0
tp1385
a(I52
I7
I0
S'dial'
p1386
I0
tp1387
a(I56
I13
F0.625
S'accessible'
p1388
I0
tp1389
a(I56
I16
I0
S'large'
p1390
I0
tp1391
a(I0
I33
I0
g1306
I11
tp1392
a(I0
I33
F-0.625
g1308
I11
tp1393
a(I0
I51
I0
g1310
I11
tp1394
a(I1
I10
I0
S'dial'
p1395
I11
tp1396
a(I2
I8
F0.875
S'important'
p1397
I11
tp1398
a(I2
I32
F-0.375
S'double'
p1399
I11
tp1400
a(I3
I8
I0
g1262
I11
tp1401
a(I3
I42
F-0.625
S'other'
p1402
I11
tp1403
a(I3
I53
I0
g1313
I11
tp1404
a(I4
I13
I0
g1315
I11
tp1405
a(I4
I13
F-0.375
g1317
I11
tp1406
a(I4
I23
I0
g1264
I11
tp1407
a(I7
I89
I0
g1266
I11
tp1408
a(I8
I53
I0
S'big'
p1409
I11
tp1410
a(I12
I11
F0.875
S'nice'
p1411
I11
tp1412
a(I12
I32
I0
g1268
I11
tp1413
a(I12
I39
F0.25
g1322
I11
tp1414
a(I14
I0
F0.625
g1270
I11
tp1415
a(I14
I0
F0.625
g1272
I11
tp1416
a(I14
I16
F0.625
g1326
I11
tp1417
a(I14
I16
I0
g1328
I11
tp1418
a(I15
I0
I0
S'big'
p1419
I11
tp1420
a(I18
I48
F0.625
S'easy'
p1421
I11
tp1422
a(I18
I51
F0.875
S'important'
p1423
I11
tp1424
a(I19
I24
I0
g1330
I11
tp1425
a(I19
I46
I0
g1274
I11
tp1426
a(I19
I46
I0
g1276
I11
tp1427
a(I19
I55
I0
g1334
I11
tp1428
a(I20
I3
I0
S'big'
p1429
I11
tp1430
a(I20
I3
F0.125
S'able'
p1431
I11
tp1432
a(I20
I7
F-0.75
S'difficult'
p1433
I11
tp1434
a(I20
I22
F0.625
S'easy'
p1435
I11
tp1436
a(I20
I22
F-0.25
S'ready'
p1437
I11
tp1438
a(I20
I22
F0.625
S'easy'
p1439
I11
tp1440
a(I20
I34
I0
S'big'
p1441
I11
tp1442
a(I21
I19
I0
S'big'
p1443
I11
tp1444
a(I21
I21
F0.25
S'favorite'
p1445
I11
tp1446
a(I21
I56
I0
S'dial'
p1447
I11
tp1448
a(I21
I73
I0
S'big'
p1449
I11
tp1450
a(I22
I0
F0.625
S'easy'
p1451
I11
tp1452
a(I22
I2
I0
g1278
I11
tp1453
a(I22
I2
F0.125
g1280
I11
tp1454
a(I22
I2
I0
g1282
I11
tp1455
a(I22
I2
F1.0
g1284
I11
tp1456
a(I25
I11
I0
S'big'
p1457
I11
tp1458
a(I25
I11
F0.625
S'easy'
p1459
I11
tp1460
a(I26
I34
F0.125
S'able'
p1461
I11
tp1462
a(I26
I34
I0
S'dial'
p1463
I11
tp1464
a(I26
I191
I0
g1286
I11
tp1465
a(I26
I220
I0
S'enter'
p1466
I11
tp1467
a(I26
I220
I0
S'multiple'
p1468
I11
tp1469
a(I26
I225
F-0.375
S'small'
p1470
I11
tp1471
a(I26
I225
F-0.75
S'difficult'
p1472
I11
tp1473
a(I26
I265
I0
g1341
I11
tp1474
a(I26
I265
F0.625
g1343
I11
tp1475
a(I26
I289
I0
S'big'
p1476
I11
tp1477
a(I27
I20
I0
S'big'
p1478
I11
tp1479
a(I27
I20
F-0.75
S'bright'
p1480
I11
tp1481
a(I28
I70
F0.125
S'able'
p1482
I11
tp1483
a(I28
I70
F-0.625
S'other'
p1484
I11
tp1485
a(I28
I70
F0.25
S'used'
p1486
I11
tp1487
a(I29
I16
I0
g1345
I11
tp1488
a(I30
I36
I0
g1288
I11
tp1489
a(I30
I36
I0
g1290
I11
tp1490
a(I30
I36
F0.875
g1292
I11
tp1491
a(I33
I51
F0.625
S'easy'
p1492
I11
tp1493
a(I34
I4
I0
g1350
I11
tp1494
a(I36
I17
I0
g1294
I11
tp1495
a(I36
I26
I0
S'dial'
p1496
I11
tp1497
a(I36
I50
I0
g1353
I11
tp1498
a(I36
I61
F0.25
g1296
I11
tp1499
a(I36
I61
F0.625
g1298
I11
tp1500
a(I36
I85
I0
S'big'
p1501
I11
tp1502
a(I36
I165
I0
S'big'
p1503
I11
tp1504
a(I36
I165
I0
S'great'
p1505
I11
tp1506
a(I36
I268
I0
g1357
I11
tp1507
a(I36
I305
I0
S'big'
p1508
I11
tp1509
a(I36
I305
I0
S'dial'
p1510
I11
tp1511
a(I36
I371
I0
S'big'
p1512
I11
tp1513
a(I36
I371
F0.625
S'easy'
p1514
I11
tp1515
a(I36
I371
F-0.75
S'dark'
p1516
I11
tp1517
a(I38
I28
I0
g1300
I11
tp1518
a(I39
I20
I0
g1360
I11
tp1519
a(I39
I49
F-0.375
S'small'
p1520
I11
tp1521
a(I39
I51
I0
g1362
I11
tp1522
a(I39
I51
F0.625
g1364
I11
tp1523
a(I39
I55
I0
g1366
I11
tp1524
a(I42
I58
F1.0
g1368
I11
tp1525
a(I43
I7
I0
g1302
I11
tp1526
a(I47
I23
I0
g1371
I11
tp1527
a(I47
I23
F0.625
g1373
I11
tp1528
a(I47
I45
I0
g1375
I11
tp1529
a(I47
I45
F0.625
g1377
I11
tp1530
a(I47
I45
I0
g1379
I11
tp1531
a(I48
I43
I0
S'big'
p1532
I11
tp1533
a(I48
I43
F0.25
S'helpful'
p1534
I11
tp1535
a(I48
I84
I0
g1304
I11
tp1536
a(I50
I3
I0
S'big'
p1537
I11
tp1538
a(I50
I16
I0
S'keypad'
p1539
I11
tp1540
a(I51
I6
I0
g1382
I11
tp1541
a(I51
I44
I0
S'big'
p1542
I11
tp1543
a(I52
I7
F-0.75
g1384
I11
tp1544
a(I52
I7
I0
g1386
I11
tp1545
a(I52
I47
I0
S'big'
p1546
I11
tp1547
a(I54
I5
I0
S'big'
p1548
I11
tp1549
a(I54
I8
I0
S'big'
p1550
I11
tp1551
a(I54
I8
I0
S'great'
p1552
I11
tp1553
a(I54
I9
F-0.75
S'wrong'
p1554
I11
tp1555
a(I55
I57
I0
S'big'
p1556
I11
tp1557
a(I55
I61
I0
S'many'
p1558
I11
tp1559
a(I56
I13
F0.625
g1388
I11
tp1560
a(I56
I16
I0
g1390
I11
tp1561
a(I56
I82
I0
S'big'
p1562
I11
tp1563
a(I56
I86
I0
S'big'
p1564
I11
tp1565
a(I57
I76
F-0.375
S'small'
p1566
I11
tp1567
as(S'quad'
p1568
S'band'
p1569
tp1570
(lp1571
(I25
I3
F-0.5
S'sure'
p1572
I0
tp1573
a(I25
I3
I0
S'quad'
p1574
I0
tp1575
a(I36
I125
I0
S'quad'
p1576
I0
tp1577
as(S'docking'
p1578
S'station'
p1579
tp1580
(lp1581
(I36
I104
F0.625
S'easier'
p1582
I0
tp1583
as(S'tech'
p1584
S'savvy'
p1585
tp1586
(lp1587
(I2
I0
F0.375
S'senior'
p1588
I0
tp1589
a(I39
I45
I0
S'tech'
p1590
I0
tp1591
a(I49
I63
I0
S'tech'
p1592
I0
tp1593
a(I51
I94
F0.5
S'patient'
p1594
I0
tp1595
a(I51
I94
I0
S'tech'
p1596
I0
tp1597
as(S'big'
p1598
S'numbers'
p1599
tp1600
(lp1601
(I8
I53
I0
g1409
I0
tp1602
a(I12
I11
F0.875
g1411
I0
tp1603
a(I15
I0
I0
g1419
I0
tp1604
a(I19
I46
I0
g1274
I0
tp1605
a(I19
I46
I0
g1276
I0
tp1606
a(I19
I55
I0
g1334
I0
tp1607
a(I20
I3
I0
g1429
I0
tp1608
a(I20
I3
F0.125
g1431
I0
tp1609
a(I20
I22
F0.625
g1435
I0
tp1610
a(I20
I22
F-0.25
g1437
I0
tp1611
a(I20
I22
F0.625
g1439
I0
tp1612
a(I20
I34
I0
g1441
I0
tp1613
a(I21
I19
I0
g1443
I0
tp1614
a(I21
I73
I0
g1449
I0
tp1615
a(I25
I11
I0
g1457
I0
tp1616
a(I25
I11
F0.625
g1459
I0
tp1617
a(I26
I34
F0.125
g1461
I0
tp1618
a(I26
I34
I0
g1463
I0
tp1619
a(I26
I289
I0
g1476
I0
tp1620
a(I27
I20
I0
g1478
I0
tp1621
a(I27
I20
F-0.75
g1480
I0
tp1622
a(I29
I16
I0
g1345
I0
tp1623
a(I36
I85
I0
g1501
I0
tp1624
a(I36
I165
I0
g1503
I0
tp1625
a(I36
I165
I0
g1505
I0
tp1626
a(I36
I305
I0
g1508
I0
tp1627
a(I36
I305
I0
g1510
I0
tp1628
a(I36
I371
I0
g1512
I0
tp1629
a(I36
I371
F0.625
g1514
I0
tp1630
a(I36
I371
F-0.75
g1516
I0
tp1631
a(I48
I43
I0
g1532
I0
tp1632
a(I48
I43
F0.25
g1534
I0
tp1633
a(I50
I3
I0
g1537
I0
tp1634
a(I50
I16
I0
g1539
I0
tp1635
a(I51
I44
I0
g1542
I0
tp1636
a(I52
I47
I0
g1546
I0
tp1637
a(I54
I5
I0
g1548
I0
tp1638
a(I54
I8
I0
g1550
I0
tp1639
a(I54
I8
I0
g1552
I0
tp1640
a(I55
I57
I0
g1556
I0
tp1641
a(I56
I82
I0
g1562
I0
tp1642
a(I56
I86
I0
g1564
I0
tp1643
as(S'easy'
p1644
S'to'
p1645
S'dial'
p1646
tp1647
(lp1648
(I2
I59
F0.625
S'easy'
p1649
I0
tp1650
as(S'with'
p1651
S'big'
p1652
S'buttons'
p1653
tp1654
(lp1655
(I26
I203
I0
S'big'
p1656
I0
tp1657
a(I27
I29
F0.625
S'easy'
p1658
I0
tp1659
a(I33
I6
I0
S'big'
p1660
I0
tp1661
a(I36
I79
I0
S'big'
p1662
I0
tp1663
a(I36
I365
F-0.375
S'simple'
p1664
I0
tp1665
a(I36
I365
I0
S'big'
p1666
I0
tp1667
a(I36
I365
F-0.625
S'light'
p1668
I0
tp1669
a(I38
I20
I0
S'big'
p1670
I0
tp1671
a(I44
I0
F0.25
S'biggest'
p1672
I0
tp1673
a(I46
I55
I0
g70
I0
tp1674
a(I49
I55
I0
S'big'
p1675
I0
tp1676
a(I57
I18
I0
S'big'
p1677
I0
tp1678
a(I0
I44
I0
S'big'
p1679
I0
tp1680
a(I0
I44
F0.625
S'easy'
p1681
I0
tp1682
a(I0
I44
F0.625
S'easy'
p1683
I0
tp1684
a(I4
I45
I0
S'big'
p1685
I0
tp1686
a(I7
I47
F0.875
S'nice'
p1687
I0
tp1688
a(I7
I54
F0.875
S'nice'
p1689
I0
tp1690
a(I7
I54
I0
S'big'
p1691
I0
tp1692
a(I8
I30
F0.25
S'bigger'
p1693
I0
tp1694
a(I11
I19
I0
S'big'
p1695
I0
tp1696
a(I11
I25
I0
S'big'
p1697
I0
tp1698
a(I12
I21
I0
S'big'
p1699
I0
tp1700
a(I12
I128
I0
S'big'
p1701
I0
tp1702
a(I12
I145
I0
S'big'
p1703
I0
tp1704
a(I18
I81
I0
S'big'
p1705
I0
tp1706
a(I18
I81
F0.625
S'easy'
p1707
I0
tp1708
a(I20
I0
I0
S'big'
p1709
I0
tp1710
a(I20
I11
I0
S'big'
p1711
I0
tp1712
a(I21
I83
F0.875
S'nice'
p1713
I0
tp1714
a(I21
I83
I0
S'big'
p1715
I0
tp1716
a(I23
I28
F0.625
S'easy'
p1717
I0
tp1718
a(I23
I42
I0
S'big'
p1719
I0
tp1720
a(I26
I34
I0
S'big'
p1721
I0
tp1722
a(I26
I44
I0
S'big'
p1723
I0
tp1724
a(I26
I52
I0
S'big'
p1725
I0
tp1726
a(I26
I105
I0
S'big'
p1727
I0
tp1728
a(I26
I105
F1.0
S'good'
p1729
I0
tp1730
a(I26
I127
I0
g44
I0
tp1731
a(I26
I127
I0
g46
I0
tp1732
a(I26
I203
I0
g1656
I0
tp1733
a(I26
I206
F0.25
S'bigger'
p1734
I0
tp1735
a(I26
I209
I0
S'big'
p1736
I0
tp1737
a(I26
I209
I0
S'most'
p1738
I0
tp1739
a(I26
I209
F0.875
S'important'
p1740
I0
tp1741
a(I27
I29
F0.625
g1658
I0
tp1742
a(I28
I1
I0
S'big'
p1743
I0
tp1744
a(I28
I14
I0
S'big'
p1745
I0
tp1746
a(I28
I14
F0.625
S'easy'
p1747
I0
tp1748
a(I28
I60
I0
g50
I0
tp1749
a(I33
I6
I0
g1660
I0
tp1750
a(I36
I79
I0
g1662
I0
tp1751
a(I36
I160
F-0.375
S'simple'
p1752
I0
tp1753
a(I36
I160
I0
S'big'
p1754
I0
tp1755
a(I36
I160
F-0.375
S'simple'
p1756
I0
tp1757
a(I36
I365
F-0.375
g1664
I0
tp1758
a(I36
I365
I0
g1666
I0
tp1759
a(I36
I365
F-0.625
g1668
I0
tp1760
a(I38
I20
I0
g1670
I0
tp1761
a(I41
I2
I0
S'great'
p1762
I0
tp1763
a(I42
I18
I0
S'big'
p1764
I0
tp1765
a(I42
I63
I0
S'big'
p1766
I0
tp1767
a(I44
I0
F0.25
g1672
I0
tp1768
a(I46
I55
I0
g70
I0
tp1769
a(I49
I55
I0
g1675
I0
tp1770
a(I51
I42
F0.625
S'easy'
p1771
I0
tp1772
a(I51
I42
I0
S'big'
p1773
I0
tp1774
a(I51
I56
I0
g88
I0
tp1775
a(I52
I43
I0
S'big'
p1776
I0
tp1777
a(I57
I18
I0
g1677
I0
tp1778
a(I57
I51
I0
g757
I0
tp1779
a(I0
I1
F-0.375
S'small'
p1780
I13
tp1781
a(I0
I1
F-0.5
S'open'
p1782
I13
tp1783
a(I0
I23
I0
g14
I13
tp1784
a(I0
I43
F-0.875
S'trouble'
p1785
I13
tp1786
a(I0
I44
I0
g1679
I13
tp1787
a(I0
I44
F0.625
g1681
I13
tp1788
a(I0
I44
F0.625
g1683
I13
tp1789
a(I1
I5
I0
g16
I13
tp1790
a(I3
I34
I0
g18
I13
tp1791
a(I4
I2
F0.25
g20
I13
tp1792
a(I4
I2
F0.625
g22
I13
tp1793
a(I4
I16
I0
S'more'
p1794
I13
tp1795
a(I4
I16
F0.875
S'important'
p1796
I13
tp1797
a(I4
I30
I0
g24
I13
tp1798
a(I4
I45
I0
g1685
I13
tp1799
a(I4
I60
F0.625
S'easy'
p1800
I13
tp1801
a(I7
I47
F0.875
g1687
I13
tp1802
a(I7
I54
F0.875
g1689
I13
tp1803
a(I7
I54
I0
g1691
I13
tp1804
a(I8
I30
F0.25
g1693
I13
tp1805
a(I8
I45
I0
g26
I13
tp1806
a(I11
I10
I0
g28
I13
tp1807
a(I11
I10
I0
g30
I13
tp1808
a(I11
I19
I0
g1695
I13
tp1809
a(I11
I25
I0
g1697
I13
tp1810
a(I11
I47
F-0.375
S'top'
p1811
I13
tp1812
a(I11
I47
F0.625
S'easy'
p1813
I13
tp1814
a(I12
I21
I0
g1699
I13
tp1815
a(I12
I42
F-0.75
S'difficult'
p1816
I13
tp1817
a(I12
I82
I0
g32
I13
tp1818
a(I12
I128
I0
g1701
I13
tp1819
a(I12
I145
I0
g1703
I13
tp1820
a(I16
I2
F0.625
S'easy'
p1821
I13
tp1822
a(I18
I62
F1.0
S'better'
p1823
I13
tp1824
a(I18
I81
I0
g1705
I13
tp1825
a(I18
I81
F0.625
g1707
I13
tp1826
a(I20
I0
I0
g1709
I13
tp1827
a(I20
I11
I0
g1711
I13
tp1828
a(I20
I12
F-0.625
S'other'
p1829
I13
tp1830
a(I21
I71
I0
g34
I13
tp1831
a(I21
I83
F0.875
g1713
I13
tp1832
a(I21
I83
I0
g1715
I13
tp1833
a(I23
I28
F0.625
g1717
I13
tp1834
a(I23
I42
I0
g1719
I13
tp1835
a(I24
I37
I-100
S'easy-to-press'
p1836
I13
tp1837
a(I24
I37
I0
g36
I13
tp1838
a(I26
I1
F0.25
g38
I13
tp1839
a(I26
I6
F-0.375
S'small'
p1840
I13
tp1841
a(I26
I14
F0.625
S'easy'
p1842
I13
tp1843
a(I26
I34
I0
g1721
I13
tp1844
a(I26
I44
I0
g1723
I13
tp1845
a(I26
I52
I-100
S'even-tough'
p1846
I13
tp1847
a(I26
I52
I0
g1725
I13
tp1848
a(I26
I98
I0
g40
I13
tp1849
a(I26
I98
I0
g42
I13
tp1850
a(I26
I105
I0
g1727
I13
tp1851
a(I26
I105
F1.0
g1729
I13
tp1852
a(I26
I127
I0
g44
I13
tp1853
a(I26
I127
I0
g46
I13
tp1854
a(I26
I198
I0
g48
I13
tp1855
a(I26
I203
I0
g1656
I13
tp1856
a(I26
I206
F0.25
g1734
I13
tp1857
a(I26
I209
I0
g1736
I13
tp1858
a(I26
I209
I0
g1738
I13
tp1859
a(I26
I209
F0.875
g1740
I13
tp1860
a(I26
I223
I-100
S'somethinng'
p1861
I13
tp1862
a(I27
I29
F0.625
g1658
I13
tp1863
a(I28
I1
I0
g1743
I13
tp1864
a(I28
I14
I0
g1745
I13
tp1865
a(I28
I14
F0.625
g1747
I13
tp1866
a(I28
I60
I0
g50
I13
tp1867
a(I29
I12
F0.625
g52
I13
tp1868
a(I29
I45
I0
g54
I13
tp1869
a(I29
I45
I0
g56
I13
tp1870
a(I33
I6
I0
g1660
I13
tp1871
a(I33
I18
F-0.375
S'simple'
p1872
I13
tp1873
a(I33
I18
I0
S'same'
p1874
I13
tp1875
a(I36
I79
I0
g1662
I13
tp1876
a(I36
I116
I0
g58
I13
tp1877
a(I36
I160
F-0.375
g1752
I13
tp1878
a(I36
I160
I0
g1754
I13
tp1879
a(I36
I160
F-0.375
g1756
I13
tp1880
a(I36
I160
I-100
S'setup/learning'
p1881
I13
tp1882
a(I36
I174
F0.625
S'easy'
p1883
I13
tp1884
a(I36
I224
I0
g60
I13
tp1885
a(I36
I291
F0.625
S'easy'
p1886
I13
tp1887
a(I36
I317
I0
g62
I13
tp1888
a(I36
I365
F-0.375
g1664
I13
tp1889
a(I36
I365
I0
g1666
I13
tp1890
a(I36
I365
F-0.625
g1668
I13
tp1891
a(I37
I38
F-0.625
S'push'
p1892
I13
tp1893
a(I37
I40
I-100
S'good-big'
p1894
I13
tp1895
a(I37
I40
I-100
S'-ringer'
p1896
I13
tp1897
a(I38
I20
I0
g1670
I13
tp1898
a(I39
I73
I0
g64
I13
tp1899
a(I41
I2
I0
g1762
I13
tp1900
a(I42
I18
I0
g1764
I13
tp1901
a(I42
I63
I0
g1766
I13
tp1902
a(I44
I0
F0.25
g1672
I13
tp1903
a(I46
I22
I0
S'numerical'
p1904
I13
tp1905
a(I46
I52
F1.0
g66
I13
tp1906
a(I46
I52
I0
g68
I13
tp1907
a(I46
I55
I0
g70
I13
tp1908
a(I46
I57
F-0.125
S'complicated'
p1909
I13
tp1910
a(I46
I60
I0
g72
I13
tp1911
a(I47
I5
F-0.75
S'bright'
p1912
I13
tp1913
a(I48
I70
I0
g74
I13
tp1914
a(I48
I70
F0.625
g76
I13
tp1915
a(I48
I129
I0
g78
I13
tp1916
a(I49
I36
I0
g80
I13
tp1917
a(I49
I55
I0
g1675
I13
tp1918
a(I49
I68
I0
g82
I13
tp1919
a(I49
I92
I0
g84
I13
tp1920
a(I49
I92
I0
g86
I13
tp1921
a(I51
I19
I0
S'many'
p1922
I13
tp1923
a(I51
I19
I0
S'unnecessary'
p1924
I13
tp1925
a(I51
I42
F0.625
g1771
I13
tp1926
a(I51
I42
I0
g1773
I13
tp1927
a(I51
I46
F-0.625
S'other'
p1928
I13
tp1929
a(I51
I56
I0
g88
I13
tp1930
a(I51
I76
I0
g90
I13
tp1931
a(I52
I39
I0
g92
I13
tp1932
a(I52
I43
I0
g1776
I13
tp1933
a(I57
I4
I0
g94
I13
tp1934
a(I57
I18
I0
g1677
I13
tp1935
a(I57
I51
I0
g757
I13
tp1936
a(I57
I64
I0
g96
I13
tp1937
as(g172
S'sim'
p1938
S'card'
p1939
tp1940
(lp1941
(I8
I4
I0
g805
I0
tp1942
a(I8
I7
F0.375
g807
I0
tp1943
a(I8
I10
F0.375
g809
I0
tp1944
a(I8
I11
F0.375
g811
I0
tp1945
a(I8
I13
F0.375
g813
I0
tp1946
a(I8
I14
F0.25
g815
I0
tp1947
a(I11
I31
I0
g817
I0
tp1948
a(I12
I72
F0.125
g425
I0
tp1949
a(I12
I73
I0
g427
I0
tp1950
a(I20
I2
F0.125
g823
I0
tp1951
a(I26
I210
I0
g429
I0
tp1952
a(I36
I196
I0
g828
I0
tp1953
a(I36
I196
F1.0
g830
I0
tp1954
a(I36
I196
F0.375
g832
I0
tp1955
a(I36
I330
I0
g834
I0
tp1956
a(I36
I343
F1.0
g836
I0
tp1957
a(I39
I8
F0.375
g431
I0
tp1958
a(I39
I46
F0.125
g839
I0
tp1959
a(I41
I1
F-0.5
g841
I0
tp1960
a(I57
I37
F0.5
g847
I0
tp1961
as(S'customer'
p1962
S'service'
p1963
tp1964
(lp1965
(I8
I24
F1.0
S'good'
p1966
I3
tp1967
a(I20
I48
F0.625
S'enthusiastic'
p1968
I3
tp1969
a(I26
I145
F0.25
S'helpful'
p1970
I3
tp1971
a(I28
I19
F0.25
S'helpful'
p1972
I3
tp1973
a(I28
I27
I0
S'normal'
p1974
I3
tp1975
a(I28
I51
F0.125
S'able'
p1976
I3
tp1977
a(I30
I25
I0
S'dad'
p1978
I3
tp1979
a(I30
I48
I0
S'text'
p1980
I3
tp1981
a(I36
I67
F-0.875
S'awful'
p1982
I3
tp1983
a(I36
I344
F0.875
S'rude'
p1984
I3
tp1985
a(I54
I3
F0.375
S'available'
p1986
I3
tp1987
a(I4
I4
F1.0
S'good'
p1988
I16
tp1989
a(I4
I33
I0
S'basic'
p1990
I16
tp1991
a(I8
I24
F1.0
g1966
I16
tp1992
a(I26
I27
I0
S'standard'
p1993
I16
tp1994
a(I26
I29
F0.375
S'reliable'
p1995
I16
tp1996
a(I26
I39
F1.0
S'good'
p1997
I16
tp1998
a(I26
I145
F0.25
g1970
I16
tp1999
a(I26
I210
F0.625
S'easy'
p2000
I16
tp2001
a(I27
I8
F-0.125
S'overall'
p2002
I16
tp2003
a(I28
I19
F0.25
g1972
I16
tp2004
a(I28
I27
I0
g1974
I16
tp2005
a(I28
I51
F0.125
g1976
I16
tp2006
a(I29
I94
F0.375
S'new'
p2007
I16
tp2008
a(I30
I25
I0
g1978
I16
tp2009
a(I30
I48
I0
g1980
I16
tp2010
a(I36
I67
F-0.875
g1982
I16
tp2011
a(I36
I344
F0.875
g1984
I16
tp2012
a(I45
I0
I0
S'quick'
p2013
I16
tp2014
a(I46
I47
I0
S'monthly'
p2015
I16
tp2016
a(I52
I10
I0
S'most'
p2017
I16
tp2018
a(I52
I28
I0
S'wish'
p2019
I16
tp2020
a(I54
I3
F0.375
g1986
I16
tp2021
as(g800
S'mobile'
p2022
S'sim'
p2023
tp2024
(lp2025
(I12
I72
F0.125
g425
I0
tp2026
a(I20
I36
F-0.375
S'simple'
p2027
I0
tp2028
a(I20
I36
F0.5
S'flat'
p2029
I0
tp2030
a(I26
I152
F-0.375
S'simple'
p2031
I0
tp2032
a(I26
I210
I0
g429
I0
tp2033
a(I39
I8
F0.375
g431
I0
tp2034
a(I55
I13
F0.125
S'able'
p2035
I0
tp2036
a(I18
I38
F-0.125
S'complicated'
p2037
I0
tp2038
a(I18
I38
F-0.5
S'regular'
p2039
I0
tp2040
a(I20
I36
F0.5
g2029
I0
tp2041
a(I21
I70
I0
S'great'
p2042
I0
tp2043
a(I26
I152
F-0.375
g2031
I0
tp2044
a(I30
I8
I0
S'basic'
p2045
I0
tp2046
a(I36
I228
I0
S'standard'
p2047
I0
tp2048
a(I48
I14
F-0.25
S'modern'
p2049
I0
tp2050
as(S'volume'
p2051
tp2052
(lp2053
(I3
I55
F-0.25
S'low'
p2054
I6
tp2055
a(I9
I0
F-0.125
S'minimum'
p2056
I6
tp2057
a(I12
I16
F1.0
S'good'
p2058
I6
tp2059
a(I12
I104
F1.0
S'good'
p2060
I6
tp2061
a(I12
I122
I0
S'great'
p2062
I6
tp2063
a(I20
I26
F-0.25
S'low'
p2064
I6
tp2065
a(I26
I39
F1.0
S'good'
p2066
I6
tp2067
a(I36
I2
I0
S'high'
p2068
I6
tp2069
a(I36
I29
F0.5
S'reasonable'
p2070
I6
tp2071
a(I37
I53
F0.125
S'key'
p2072
I6
tp2073
a(I42
I0
F-0.25
S'low'
p2074
I6
tp2075
a(I47
I30
I0
S'high'
p2076
I6
tp2077
a(I47
I33
F-0.25
S'low'
p2078
I6
tp2079
a(I47
I40
F-0.25
S'higher'
p2080
I6
tp2081
a(I48
I69
F0.875
S'nice'
p2082
I6
tp2083
a(I48
I69
I0
S'elderly'
p2084
I6
tp2085
a(I55
I8
I0
S'great'
p2086
I6
tp2087
a(I56
I60
F0.625
S'easy'
p2088
I6
tp2089
a(I57
I8
I0
S'more'
p2090
I6
tp2091
as(g172
S'nursing'
p2092
S'home'
p2093
tp2094
(lp2095
(I36
I364
F0.75
S'due'
p2096
I0
tp2097
a(I48
I45
I0
S'roommate'
p2098
I0
tp2099
a(I57
I6
F-0.5
S'relative'
p2100
I0
tp2101
as(S'land'
p2102
S'line'
p2103
tp2104
(lp2105
(I21
I48
F-0.5
S'regular'
p2106
I0
tp2107
a(I46
I60
F-0.5
S'regular'
p2108
I0
tp2109
as(S'speed'
p2110
S'dial'
p2111
S'numbers'
p2112
tp2113
(lp2114
(I21
I21
F0.25
g1445
I0
tp2115
a(I21
I21
I0
S'dial'
p2116
I0
tp2117
a(I21
I33
F1.0
S'better'
p2118
I0
tp2119
a(I28
I70
I0
S'dial'
p2120
I0
tp2121
a(I28
I70
F0.125
g1482
I0
tp2122
a(I28
I70
F-0.625
g1484
I0
tp2123
a(I28
I70
F0.25
g1486
I0
tp2124
a(I30
I36
I0
g1288
I0
tp2125
a(I30
I36
I0
g1290
I0
tp2126
a(I30
I36
F0.875
g1292
I0
tp2127
a(I33
I58
I0
S'dial'
p2128
I0
tp2129
a(I36
I23
F0.5
S'touch'
p2130
I0
tp2131
a(I36
I23
I0
S'dial'
p2132
I0
tp2133
a(I4
I61
F0.5
S'clear'
p2134
I0
tp2135
a(I4
I61
I0
S'dial'
p2136
I0
tp2137
a(I21
I21
I0
g2116
I0
tp2138
a(I21
I33
F1.0
g2118
I0
tp2139
a(I28
I70
I0
g2120
I0
tp2140
a(I33
I58
I0
g2128
I0
tp2141
a(I36
I23
F0.5
g2130
I0
tp2142
a(I36
I23
I0
g2132
I0
tp2143
a(I36
I316
I0
S'dial'
p2144
I0
tp2145
a(I41
I4
I0
S'dial'
p2146
I0
tp2147
a(I54
I16
I0
S'dial'
p2148
I0
tp2149
a(I55
I7
I0
S'dial'
p2150
I0
tp2151
as.