(dp0
(S'android'
p1
tp2
(lp3
(I14
I5
F0.125
S'first'
p4
I0
tp5
a(I16
I11
F0.25
S'responsive'
p6
I0
tp7
a(I16
I11
I0
S'great'
p8
I0
tp9
a(I21
I70
I0
S'great'
p10
I0
tp11
as(S'charging'
p12
S'port'
p13
tp14
(lp15
(I9
I1
F-0.25
S'loose'
p16
I1
tp17
a(I14
I31
I0
S'third'
p18
I1
tp19
a(I25
I8
F-0.625
S'bad'
p20
I1
tp21
a(I14
I31
I0
g18
I12
tp22
as(S'droid'
p23
tp24
(lp25
(I1
I68
I0
S'third'
p26
I0
tp27
a(I8
I8
I0
S'old'
p28
I0
tp29
a(I22
I18
F1.0
S'better'
p30
I0
tp31
as(S'smart'
p32
tp33
(lp34
(I4
I5
F0.125
S'first'
p35
I10
tp36
a(I4
I22
I0
S'most'
p37
I10
tp38
a(I4
I30
I0
S'more'
p39
I10
tp40
a(I21
I37
I0
S'most'
p41
I10
tp42
a(I25
I20
F-0.25
S'modern'
p43
I10
tp44
as(S'verizon'
p45
tp46
(lp47
(I10
I14
F0.5
S'upgraded'
p48
I0
tp49
a(I14
I19
F-0.375
S'simple'
p50
I0
tp51
a(I16
I24
F0.75
S'due'
p52
I0
tp53
as(S'apps'
p54
tp55
(lp56
(I4
I31
I0
S'many'
p57
I0
tp58
a(I4
I31
F0.375
S'extra'
p59
I0
tp60
a(I13
I6
I0
S'many'
p61
I0
tp62
a(I15
I1
F0.625
S'easy'
p63
I0
tp64
a(I15
I1
I0
S'lightweight'
p65
I0
tp66
a(I21
I27
I0
S'most'
p67
I0
tp68
a(I21
I27
F0.25
S'used'
p69
I0
tp70
a(I23
I25
I0
S'many'
p71
I0
tp72
as(S'battery'
p73
S'life'
p74
tp75
(lp76
(I4
I7
F0.375
S'available'
p77
I1
tp78
a(I21
I62
F-0.625
S'bad'
p79
I1
tp80
a(I23
I25
F1.0
S'good'
p81
I1
tp82
a(I24
I12
F0.5
S'second'
p83
I1
tp84
a(I21
I62
F-0.625
g79
I19
tp85
a(I23
I25
F1.0
g81
I19
tp86
a(I1
I82
I0
S'great'
p87
I15
tp88
a(I1
I90
F1.0
S'good'
p89
I15
tp90
a(I4
I7
F0.375
g77
I15
tp91
a(I4
I29
I0
S'fast'
p92
I15
tp93
a(I8
I23
F-0.625
S'bad'
p94
I15
tp95
a(I21
I63
I0
S'full'
p96
I15
tp97
a(I24
I12
F0.5
g83
I15
tp98
as.