(dp0
(S'numbers'
p1
tp2
(lp3
(I0
I5
I0
S'large'
p4
I11
tp5
a(I2
I10
I0
S'large'
p6
I11
tp7
a(I8
I23
I0
S'big'
p8
I11
tp9
a(I13
I1
I0
S'large'
p10
I11
tp11
a(I17
I5
F0.25
S'larger'
p12
I11
tp13
as(S'mother'
p14
tp15
(lp16
(I2
I9
F0.625
S'perfect'
p17
I9
tp18
a(I6
I2
I0
S'elderly'
p19
I9
tp20
as(S'battery'
p21
tp22
(lp23
(I0
I3
F0.375
S'new'
p24
I15
tp25
a(I5
I11
F-0.5
S'long'
p26
I15
tp27
a(I14
I9
F0.375
S'extra'
p28
I15
tp29
a(I16
I4
F0.375
S'new'
p30
I15
tp31
as(S'text'
p32
tp33
(lp34
(I3
I12
F-0.5
S'vibrate'
p35
I18
tp36
as(S'big'
p37
S'buttons'
p38
tp39
(lp40
(I7
I13
I0
S'big'
p41
I0
tp42
a(I10
I7
I0
S'great'
p43
I0
tp44
a(I10
I7
F0.375
S'senior'
p45
I0
tp46
a(I10
I7
I0
S'big'
p47
I0
tp48
a(I10
I14
I0
S'big'
p49
I0
tp50
a(I7
I13
I0
g41
I13
tp51
a(I7
I18
I0
S'large'
p52
I13
tp53
a(I10
I7
I0
g43
I13
tp54
a(I10
I7
F0.375
g45
I13
tp55
a(I10
I7
I0
g47
I13
tp56
a(I10
I14
I0
g49
I13
tp57
a(I10
I47
I0
S'large'
p58
I13
tp59
a(I10
I47
F1.0
S'good'
p60
I13
tp61
as(S'verizon'
p62
tp63
(lp64
(I10
I6
F0.5
S'compatible'
p65
I0
tp66
a(I10
I23
I0
S'big'
p67
I0
tp68
a(I14
I1
I0
S'next'
p69
I0
tp70
as(S'camera'
p71
tp72
(lp73
(I1
I10
F0.125
S'digital'
p74
I1
tp75
as.