(dp0
(S'flip'
p1
tp2
(lp3
(I7
I2
F0.375
S'available'
p4
I4
tp5
a(I7
I12
I0
S'great'
p6
I4
tp7
as(S'blackberry'
p8
tp9
(lp10
(I7
I17
F0.375
S'new'
p11
I1
tp12
a(I16
I20
F0.25
S'original'
p13
I1
tp14
as(S'verizon'
p15
tp16
(lp17
(I14
I8
F0.5
S'compatible'
p18
I0
tp19
as.