(dp0
(S'e'
p1
S'series'
p2
tp3
(lp4
(I17
I2
I0
S'such'
p5
I2
tp6
as(S'battery'
p7
S'life'
p8
tp9
(lp10
(I1
I3
F1.0
S'better'
p11
I1
tp12
a(I1
I18
F1.0
S'good'
p13
I1
tp14
a(I3
I12
F1.0
S'good'
p15
I1
tp16
a(I3
I24
I0
S'great'
p17
I1
tp18
a(I3
I24
F0.75
S'worth'
p19
I1
tp20
a(I10
I18
I0
S'more'
p21
I1
tp22
a(I14
I5
I0
S'ran'
p23
I1
tp24
a(I17
I1
F-0.625
S'bad'
p25
I1
tp26
a(I18
I56
I0
S'great'
p27
I1
tp28
a(I3
I12
F1.0
g15
I19
tp29
a(I3
I24
I0
g17
I19
tp30
a(I3
I24
F0.75
g19
I19
tp31
a(I14
I5
I0
g23
I19
tp32
a(I17
I1
F-0.625
g25
I19
tp33
a(I18
I56
I0
g27
I19
tp34
a(I1
I3
F1.0
g11
I15
tp35
a(I1
I18
F1.0
g13
I15
tp36
a(I1
I22
F0.125
S'last'
p37
I15
tp38
a(I2
I22
I0
S'large'
p39
I15
tp40
a(I2
I24
F0.25
S'larger'
p41
I15
tp42
a(I3
I14
F-0.25
S'low'
p43
I15
tp44
a(I10
I18
I0
g21
I15
tp45
a(I11
I75
F-0.25
S'low'
p46
I15
tp47
a(I17
I3
F0.5
S'true'
p48
I15
tp49
a(I17
I3
I0
S'great'
p50
I15
tp51
a(I17
I6
I0
S'normal'
p52
I15
tp53
as(S'email'
p54
tp55
(lp56
(I7
I36
F1.0
S'good'
p57
I5
tp58
a(I8
I1
F1.0
S'good'
p59
I5
tp60
a(I16
I10
F-0.5
S'longer'
p61
I5
tp62
as(S'keys'
p63
tp64
(lp65
(I7
I40
I0
S'wide'
p66
I9
tp67
a(I11
I17
I0
S'soft'
p68
I9
tp69
a(I11
I18
F-0.5
S'sure'
p70
I9
tp71
a(I20
I17
F0.25
S'responsive'
p72
I9
tp73
as(S'call'
p74
S'quality'
p75
tp76
(lp77
(I2
I12
I0
S'great'
p78
I0
tp79
a(I2
I12
F1.0
S'good'
p80
I0
tp81
a(I2
I143
F-0.75
S'hopeless'
p82
I0
tp83
a(I2
I144
F0.125
S'solid'
p84
I0
tp85
a(I2
I144
I0
S'signal'
p86
I0
tp87
a(I3
I66
F0.5
S'clearest'
p88
I0
tp89
a(I6
I6
F-0.5
S'call'
p90
I0
tp91
a(I16
I1
I0
S'great'
p92
I0
tp93
a(I16
I1
I0
S'internet'
p94
I0
tp95
a(I18
I40
F0.5
S'second'
p96
I0
tp97
a(I18
I81
F-0.5
S'poor'
p98
I0
tp99
as(S'2'
p100
S'days'
p101
tp102
(lp103
(I2
I12
I0
S'text'
p104
I3
tp105
a(I11
I78
I0
S'least'
p106
I3
tp107
as(S'angry'
p108
S'birds'
p109
tp110
(lp111
(I12
I16
I0
S'angry'
p112
I0
tp113
as(S'camera'
p114
tp115
(lp116
(I1
I18
F0.625
S'decent'
p117
I1
tp118
a(I2
I9
F1.0
S'good'
p119
I1
tp120
a(I2
I183
I0
S'great'
p121
I1
tp122
a(I5
I29
F1.0
S'good'
p123
I1
tp124
a(I10
I18
F0.875
S'nice'
p125
I1
tp126
a(I11
I29
F0.875
S'happy'
p127
I1
tp128
a(I11
I99
F0.25
S'professional'
p129
I1
tp130
a(I20
I6
I0
S'great'
p131
I1
tp132
as(S'qwerty'
p133
S'keyboard'
p134
tp135
(lp136
(I3
I9
F0.5
S'touch'
p137
I0
tp138
a(I3
I9
I0
S'handy'
p139
I0
tp140
a(I3
I9
I0
S'useful'
p141
I0
tp142
a(I4
I7
I0
S'full'
p143
I0
tp144
a(I4
I7
F0.25
S'recent'
p145
I0
tp146
a(I18
I70
F0.25
S'original'
p147
I0
tp148
a(I20
I16
I0
S'physical'
p149
I0
tp150
a(I3
I9
F0.5
g137
I0
tp151
a(I4
I7
I0
g143
I0
tp152
a(I18
I40
F0.625
S'perfect'
p153
I0
tp154
a(I20
I16
I0
g149
I0
tp155
a(I20
I29
F0.375
S'new'
p156
I0
tp157
a(I2
I1
F-0.75
S'comfortable'
p158
I2
tp159
a(I2
I173
F1.0
S'good'
p160
I2
tp161
a(I2
I173
I0
S'physical'
p162
I2
tp163
a(I2
I173
I0
S'big'
p164
I2
tp165
a(I2
I183
I0
S'great'
p166
I2
tp167
a(I3
I9
I0
g139
I2
tp168
a(I3
I9
I0
g141
I2
tp169
a(I4
I7
F0.25
g145
I2
tp170
a(I5
I21
I0
S'standard'
p171
I2
tp172
a(I5
I21
I0
S'english'
p173
I2
tp174
a(I10
I4
F-0.75
S'dead'
p175
I2
tp176
a(I10
I11
F-0.75
S'dead'
p177
I2
tp178
a(I11
I17
F0.875
S'nice'
p179
I2
tp180
a(I13
I5
I0
S'physical'
p181
I2
tp182
a(I17
I12
I-100
S'in-screen'
p183
I2
tp184
a(I18
I70
F0.25
g147
I2
tp185
a(I18
I71
F0.625
S'easy'
p186
I2
tp187
a(I20
I15
I0
S'physical'
p188
I2
tp189
as(S'internet'
p190
tp191
(lp192
(I2
I12
F0.875
S'music'
p193
I6
tp194
a(I7
I34
F-0.625
S'free'
p195
I6
tp196
a(I18
I65
I0
S'fast'
p197
I6
tp198
a(I20
I31
F0.125
S'able'
p199
I6
tp200
a(I20
I33
F-0.625
S'free'
p201
I6
tp202
as(S'notification'
p203
S'light'
p204
tp205
(lp206
(I2
I37
F-0.5
S'miss'
p207
I0
tp208
a(I8
I28
I0
S'handset'
p209
I0
tp210
as(S'belle'
p211
tp212
(lp213
(I2
I152
F0.5
S'compatible'
p214
I1
tp215
a(I5
I21
I0
S'latest'
p216
I1
tp217
a(I16
I6
F0.375
S'newest'
p218
I1
tp219
a(I18
I41
F0.375
S'available'
p220
I1
tp221
as(S'flash'
p222
tp223
(lp224
(I2
I2
F0.5
S'true'
p225
I2
tp226
a(I2
I183
F1.0
S'good'
p227
I2
tp228
a(I12
I30
F-0.5
S'weaker'
p229
I2
tp230
as(S'nokia'
p231
S'e6'
p232
tp233
(lp234
(I2
I29
F0.5
S'rid'
p235
I0
tp236
a(I2
I48
F-0.75
S'little'
p237
I0
tp238
a(I2
I135
I0
S'own'
p239
I0
tp240
a(I2
I138
F-0.75
S'short'
p241
I0
tp242
a(I7
I2
F-0.375
S'serious'
p243
I0
tp244
a(I8
I27
F0.375
S'early'
p245
I0
tp246
a(I8
I27
F1.0
S'good'
p247
I0
tp248
a(I10
I3
I0
S'third'
p249
I0
tp250
a(I11
I1
F-0.375
S'black'
p251
I0
tp252
a(I12
I1
I0
S'such'
p253
I0
tp254
a(I12
I10
F1.0
S'good'
p255
I0
tp256
a(I16
I26
I0
S'own'
p257
I0
tp258
a(I18
I61
F0.625
S'aware'
p259
I0
tp260
a(I18
I77
F0.375
S'reliable'
p261
I0
tp262
a(I19
I59
I0
S'such'
p263
I0
tp264
a(I2
I29
F0.5
g235
I0
tp265
a(I2
I117
F-0.875
S'worst'
p266
I0
tp267
a(I2
I182
I0
S'most'
p268
I0
tp269
a(I2
I182
F0.375
S'reliable'
p270
I0
tp271
a(I3
I36
F0.625
S'aware'
p272
I0
tp273
a(I3
I53
I0
S'few'
p274
I0
tp275
a(I3
I62
I0
S'website'
p276
I0
tp277
a(I4
I17
F-0.5
S'afraid'
p278
I0
tp279
a(I4
I17
F0.125
S'last'
p280
I0
tp281
a(I5
I36
F-0.75
S'little'
p282
I0
tp283
a(I6
I6
F1.0
S'good'
p284
I0
tp285
a(I7
I2
F-0.375
g243
I0
tp286
a(I8
I19
I0
S'local'
p287
I0
tp288
a(I8
I23
I0
S'local'
p289
I0
tp290
a(I8
I27
F1.0
g247
I0
tp291
a(I10
I3
I0
g249
I0
tp292
a(I11
I1
F-0.375
g251
I0
tp293
a(I12
I4
I0
S'old'
p294
I0
tp295
a(I12
I10
F1.0
g255
I0
tp296
a(I12
I33
F0.125
S'first'
p297
I0
tp298
a(I16
I26
I0
g257
I0
tp299
a(I17
I13
F1.0
S'best'
p300
I0
tp301
a(I18
I61
F0.625
g259
I0
tp302
a(I18
I77
F0.375
g261
I0
tp303
a(I19
I7
I0
S'more'
p304
I0
tp305
a(I19
I39
I0
S'many'
p306
I0
tp307
a(I19
I41
F-0.5
S'sure'
p308
I0
tp309
a(I19
I47
F-0.5
S'long'
p310
I0
tp311
a(I19
I50
F0.125
S'first'
p312
I0
tp313
a(I19
I78
F0.125
S'usual'
p314
I0
tp315
a(I20
I5
F-0.5
S'longer'
p316
I0
tp317
as(S'random'
p318
S'reboots'
p319
tp320
(lp321
(I18
I29
I0
S'such'
p322
I0
tp323
as(S'voice'
p324
tp325
(lp326
(I3
I11
I0
S'high'
p327
I4
tp328
a(I3
I54
F-0.625
S'free'
p329
I4
tp330
as(S'touchscreen'
p331
tp332
(lp333
(I19
I87
F-0.125
S'overall'
p334
I0
tp335
as(S'browser'
p336
tp337
(lp338
(I2
I70
F-0.5
S'weak'
p339
I0
tp340
a(I2
I74
F-0.125
S'slow'
p341
I0
tp342
a(I5
I31
F0.5
S'functional'
p343
I0
tp344
a(I11
I64
I0
S'current'
p345
I0
tp346
a(I11
I64
F1.0
S'good'
p347
I0
tp348
a(I11
I68
I0
S'own'
p349
I0
tp350
a(I11
I108
F0.875
S'nice'
p351
I0
tp352
a(I22
I0
F-0.125
S'slow'
p353
I0
tp354
as(S'calls'
p355
tp356
(lp357
(I9
I2
I0
S'most'
p358
I0
tp359
as(S'mail'
p360
S'for'
p361
S'exchange'
p362
tp363
(lp364
(I7
I36
I0
S'full'
p365
I0
tp366
a(I21
I7
I0
S'standard'
p367
I0
tp368
a(I7
I36
I0
g365
I13
tp369
as(S'interface'
p370
tp371
(lp372
(I2
I18
F0.125
S'key'
p373
I1
tp374
a(I2
I18
F0.5
S'touch'
p375
I1
tp376
a(I2
I34
F0.5
S'touch'
p377
I1
tp378
a(I2
I34
F1.0
S'good'
p379
I1
tp380
a(I2
I54
F0.375
S'similar'
p381
I1
tp382
a(I2
I67
F0.375
S'much'
p383
I1
tp384
a(I2
I80
I0
S'great'
p385
I1
tp386
a(I2
I100
F1.0
S'good'
p387
I1
tp388
a(I2
I117
F-0.125
S'slow'
p389
I1
tp390
a(I21
I4
I0
S'jerky'
p391
I1
tp392
as(S'previous'
p393
S'models'
p394
tp395
(lp396
(I2
I42
F0.125
S'able'
p397
I0
tp398
as(S'much'
p399
S'better'
p400
tp401
(lp402
(I18
I40
F0.375
S'much'
p403
I9
tp404
a(I18
I49
F0.375
S'much'
p405
I9
tp406
as(S'smartphone'
p407
tp408
(lp409
(I1
I15
F1.0
S'best'
p410
I0
tp411
a(I2
I12
F-0.625
S'other'
p412
I0
tp413
a(I12
I0
F-0.625
S'other'
p414
I0
tp415
a(I13
I7
F1.0
S'best'
p416
I0
tp417
a(I19
I29
F-0.75
S'single'
p418
I0
tp419
as(S'd'
p420
S'pad'
p421
tp422
(lp423
(I11
I18
F-0.125
S'directional'
p424
I0
tp425
a(I21
I22
I0
S'full'
p426
I0
tp427
a(I21
I22
F0.125
S'key'
p428
I0
tp429
as(S'symbian'
p430
tp431
(lp432
(I5
I16
F0.25
S'original'
p433
I0
tp434
as(S'apps'
p435
tp436
(lp437
(I2
I152
I0
S'many'
p438
I0
tp439
a(I2
I178
F0.375
S'new'
p440
I0
tp441
a(I3
I53
I0
S'many'
p442
I0
tp443
a(I3
I53
F-0.625
S'other'
p444
I0
tp445
a(I5
I28
F0.625
S'aware'
p446
I0
tp447
a(I7
I20
F-0.5
S'separate'
p448
I0
tp449
a(I11
I65
F-0.625
S'other'
p450
I0
tp451
a(I11
I120
I0
S'useful'
p452
I0
tp453
a(I12
I34
I0
S'many'
p454
I0
tp455
a(I18
I29
F-0.125
S'minimum'
p456
I0
tp457
a(I18
I37
F1.0
S'good'
p458
I0
tp459
a(I18
I43
I0
S'fewer'
p460
I0
tp461
as(g1
S'mail'
p462
tp463
(lp464
(I7
I36
I0
g365
I2
tp465
a(I8
I5
F0.125
S'popular'
p466
I2
tp467
a(I8
I5
F-0.625
S'push'
p468
I2
tp469
as(S'google'
p470
S'maps'
p471
tp472
(lp473
(I1
I1
F-0.25
S'google'
p474
I1
tp475
a(I10
I18
F-0.25
S'google'
p476
I1
tp477
a(I15
I0
F-0.625
S'free'
p478
I1
tp479
a(I18
I23
F-0.25
S'google'
p480
I1
tp481
a(I1
I1
F-0.25
g474
I5
tp482
a(I1
I2
I0
S'great'
p483
I5
tp484
a(I2
I78
F-0.375
S'robust'
p485
I5
tp486
a(I3
I54
F-0.625
S'free'
p487
I5
tp488
a(I10
I18
F-0.25
g476
I5
tp489
a(I11
I46
I0
S'traditional'
p490
I5
tp491
a(I18
I23
F-0.25
g480
I5
tp492
a(I18
I83
F0.125
S'able'
p493
I5
tp494
a(I21
I13
F-0.625
S'free'
p495
I5
tp496
as(S'touch'
p497
S'screen'
p498
tp499
(lp500
(I1
I20
F0.5
S'touch'
p501
I2
tp502
a(I2
I9
F0.625
S'easy'
p503
I2
tp504
a(I2
I23
F0.5
S'touch'
p505
I2
tp506
a(I2
I35
F0.5
S'accurate'
p507
I2
tp508
a(I2
I36
F0.75
S'beautiful'
p509
I2
tp510
a(I2
I130
F0.5
S'touch'
p511
I2
tp512
a(I2
I133
F0.5
S'inaccessible'
p513
I2
tp514
a(I5
I0
F0.5
S'odd'
p515
I2
tp516
a(I5
I42
F0.5
S'touch'
p517
I2
tp518
a(I6
I3
I0
S'great'
p519
I2
tp520
a(I7
I29
F0.5
S'touch'
p521
I2
tp522
a(I11
I18
F0.5
S'touch'
p523
I2
tp524
a(I11
I19
F-0.875
S'hard'
p525
I2
tp526
a(I11
I97
F0.75
S'due'
p527
I2
tp528
a(I11
I97
F-0.375
S'small'
p529
I2
tp530
a(I12
I17
F0.5
S'touch'
p531
I2
tp532
a(I12
I18
I0
S'full'
p533
I2
tp534
a(I12
I18
F0.5
S'touch'
p535
I2
tp536
a(I13
I5
I0
S'full'
p537
I2
tp538
a(I15
I4
F0.5
S'touch'
p539
I2
tp540
a(I16
I1
I0
S'fast'
p541
I2
tp542
a(I16
I1
F0.625
S'easy'
p543
I2
tp544
a(I16
I1
F0.5
S'touch'
p545
I2
tp546
a(I17
I11
I0
S'physical'
p547
I2
tp548
a(I18
I11
F-0.375
S'small'
p549
I2
tp550
a(I18
I11
F0.25
S'responsive'
p551
I2
tp552
a(I18
I125
F0.5
S'touch'
p553
I2
tp554
a(I24
I0
F0.5
S'touch'
p555
I2
tp556
a(I24
I0
I0
S'cool'
p557
I2
tp558
as.