(dp0
(S'sprint'
p1
tp2
(lp3
(I13
I18
F0.875
S'nice'
p4
I0
tp5
a(I18
I7
F-0.625
S'useless'
p6
I0
tp7
as(S'blackberry'
p8
tp9
(lp10
(I8
I8
F-0.875
S'hard'
p11
I1
tp12
a(I11
I0
I0
S'great'
p13
I1
tp14
a(I14
I2
F-0.75
S'difficult'
p15
I1
tp16
a(I14
I2
F0.25
S'familiar'
p17
I1
tp18
a(I18
I12
I0
S'advocate'
p19
I1
tp20
as(S'flip'
p21
tp22
(lp23
(I12
I19
F-0.125
S'mine'
p24
I4
tp25
a(I13
I11
F-0.625
S'other'
p26
I4
tp27
a(I13
I21
I0
S'standard'
p28
I4
tp29
as(S'battery'
p30
S'life'
p31
tp32
(lp33
(I0
I32
F-0.75
S'short'
p34
I1
tp35
a(I0
I32
F-0.75
g34
I15
tp36
a(I8
I13
F-0.25
S'low'
p37
I15
tp38
a(I8
I16
F0.375
S'new'
p39
I15
tp40
a(I12
I10
I0
S'hot'
p41
I15
tp42
a(I16
I15
F-0.5
S'longest'
p43
I15
tp44
as.