(dp0
(S'two'
p1
S'years'
p2
tp3
(lp4
(I11
I257
F0.125
S'able'
p5
I4
tp6
as(S'keyboard'
p7
tp8
(lp9
(I2
I19
I0
S'physical'
p10
I2
tp11
a(I4
I11
I0
S'different'
p12
I2
tp13
a(I6
I49
I0
S'external'
p14
I2
tp15
a(I11
I255
I0
S'physical'
p16
I2
tp17
as(S'email'
p18
tp19
(lp20
(I6
I75
F0.375
S'new'
p21
I5
tp22
a(I6
I92
F-0.625
S'other'
p23
I5
tp24
as(S'motorola'
p25
tp26
(lp27
(I2
I35
F0.375
S'new'
p28
I0
tp29
a(I3
I72
I0
S'older'
p30
I0
tp31
a(I7
I39
I0
S'many'
p32
I0
tp33
a(I7
I84
F0.875
S'nice'
p34
I0
tp35
a(I7
I84
F0.375
S'new'
p36
I0
tp37
a(I7
I92
F0.125
S'savvy'
p38
I0
tp39
a(I9
I43
F-0.125
S'trouble-shoot'
p40
I0
tp41
a(I11
I240
F0.375
S'new'
p42
I0
tp43
a(I11
I337
F1.0
S'better'
p44
I0
tp45
a(I13
I1
F0.25
S'original'
p46
I0
tp47
as(S'i.'
p48
S'e.'
p49
tp50
(lp51
(I10
I135
F0.125
S'able'
p52
I0
tp53
as(S'call'
p54
S'quality'
p55
tp56
(lp57
(I0
I12
F0.375
S'much'
p58
I0
tp59
a(I10
I135
F0.125
S'solid'
p60
I0
tp61
a(I10
I135
F1.0
S'good'
p62
I0
tp63
as(S'service'
p64
tp65
(lp66
(I6
I127
I0
S'only'
p67
I16
tp68
a(I7
I115
F-0.5
S'international'
p69
I16
tp70
a(I7
I116
F0.5
S'temporary'
p71
I16
tp72
a(I7
I116
F-0.5
S'international'
p73
I16
tp74
a(I7
I156
I0
S'different'
p75
I16
tp76
a(I11
I246
I0
S'quick'
p77
I16
tp78
a(I11
I380
F-0.25
S'low'
p79
I16
tp80
as(S'photon'
p81
tp82
(lp83
(I0
I82
F1.0
S'better'
p84
I0
tp85
a(I4
I17
F0.625
S'easier'
p86
I0
tp87
a(I5
I1
F0.125
S'first'
p88
I0
tp89
a(I5
I8
F0.125
S'first'
p90
I0
tp91
a(I5
I10
I0
S'crystal'
p92
I0
tp93
a(I5
I10
F0.5
S'clear'
p94
I0
tp95
a(I6
I22
F0.25
S'polished'
p96
I0
tp97
a(I6
I63
F-0.5
S'regular'
p98
I0
tp99
a(I6
I132
F0.25
S'original'
p100
I0
tp101
a(I7
I56
I0
S'overseas'
p102
I0
tp103
a(I7
I57
F0.25
S'original'
p104
I0
tp105
a(I7
I83
I0
S'on-line'
p106
I0
tp107
a(I7
I91
F-0.75
S'wrong'
p108
I0
tp109
a(I7
I92
F0.625
S'easy'
p110
I0
tp111
a(I7
I92
F0.375
S'reliable'
p112
I0
tp113
a(I7
I124
F0.375
S'new'
p114
I0
tp115
a(I7
I126
I0
S'slippery'
p116
I0
tp117
a(I7
I155
F0.75
S'worth'
p118
I0
tp119
a(I7
I160
F0.375
S'new'
p120
I0
tp121
a(I8
I3
F0.875
S'happy'
p122
I0
tp123
a(I8
I3
F0.75
S'worth'
p124
I0
tp125
a(I11
I24
F0.375
S'much'
p126
I0
tp127
a(I11
I34
I0
S'more'
p128
I0
tp129
a(I11
I34
I0
S'stable'
p130
I0
tp131
a(I11
I38
F-0.625
S'light'
p132
I0
tp133
a(I11
I38
F0.125
S'solid'
p134
I0
tp135
a(I11
I53
F-0.125
S'overall'
p136
I0
tp137
a(I11
I174
F1.0
S'good'
p138
I0
tp139
a(I11
I239
I0
S'great'
p140
I0
tp141
a(I11
I303
I0
S'great'
p142
I0
tp143
a(I11
I386
F0.125
S'first'
p144
I0
tp145
a(I13
I36
F1.0
S'better'
p146
I0
tp147
as(S'camera'
p148
tp149
(lp150
(I0
I95
F1.0
S'better'
p151
I1
tp152
a(I0
I114
F0.25
S'sharp'
p153
I1
tp154
a(I2
I44
F1.0
S'good'
p155
I1
tp156
a(I3
I37
I0
S'ribbed'
p157
I1
tp158
a(I4
I13
I0
S'more'
p159
I1
tp160
a(I4
I13
F-0.625
S'natural'
p161
I1
tp162
a(I4
I19
F0.5
S'primary'
p163
I1
tp164
a(I6
I203
F1.0
S'best'
p165
I1
tp166
a(I10
I8
F1.0
S'good'
p167
I1
tp168
a(I11
I198
F1.0
S'best'
p169
I1
tp170
as(S'gorilla'
p171
S'glass'
p172
tp173
(lp174
(I8
I9
F0.25
S'helpful'
p175
I0
tp176
a(I11
I39
F-0.75
S'comfortable'
p177
I0
tp178
as(S'sprint'
p179
tp180
(lp181
(I0
I117
I0
S'local'
p182
I0
tp183
a(I3
I140
F1.0
S'best'
p184
I0
tp185
a(I4
I54
F0.375
S'available'
p186
I0
tp187
a(I5
I13
F-0.5
S'regular'
p188
I0
tp189
a(I6
I46
I0
S'particular'
p190
I0
tp191
a(I6
I123
I0
S'useful'
p192
I0
tp193
a(I7
I9
F1.0
S'best'
p194
I0
tp195
a(I7
I10
F1.0
S'best'
p196
I0
tp197
a(I7
I55
F-0.625
S'unclear'
p198
I0
tp199
a(I7
I65
F0.75
S'due'
p200
I0
tp201
a(I7
I98
I0
S'more'
p202
I0
tp203
a(I7
I98
F0.875
S'courteous'
p204
I0
tp205
a(I7
I104
F-0.625
S'other'
p206
I0
tp207
a(I7
I110
F0.375
S'new'
p208
I0
tp209
a(I7
I114
F-0.625
S'other'
p210
I0
tp211
a(I9
I63
F0.5
S'told'
p212
I0
tp213
a(I11
I138
I0
S'different'
p214
I0
tp215
a(I11
I213
F-0.25
S'potential'
p216
I0
tp217
a(I11
I234
F1.0
S'good'
p218
I0
tp219
a(I11
I237
F1.0
S'good'
p220
I0
tp221
a(I13
I16
F0.375
S'extra'
p222
I0
tp223
as(S'iphone'
p224
tp225
(lp226
(I6
I44
F-0.75
S'damaging'
p227
I1
tp228
a(I10
I127
F-0.625
S'bad'
p229
I1
tp230
a(I11
I196
I0
S'fast'
p231
I1
tp232
a(I11
I196
F0.625
S'easy'
p233
I1
tp234
as(S'reception'
p235
tp236
(lp237
(I3
I141
F1.0
S'good'
p238
I0
tp239
a(I3
I152
I0
S'great'
p240
I0
tp241
a(I4
I4
F1.0
S'better'
p242
I0
tp243
a(I7
I46
F1.0
S'good'
p244
I0
tp245
a(I7
I184
I0
S'big'
p246
I0
tp247
a(I8
I21
F1.0
S'good'
p248
I0
tp249
a(I10
I1
F-0.5
S'poor'
p250
I0
tp251
a(I10
I135
F1.0
S'best'
p252
I0
tp253
a(I11
I95
I0
S'full'
p254
I0
tp255
a(I11
I117
F1.0
S'good'
p256
I0
tp257
a(I11
I432
I0
S'great'
p258
I0
tp259
as(S'speed'
p260
tp261
(lp262
(I0
I68
I0
S'more'
p263
I9
tp264
a(I6
I25
F1.0
S'good'
p265
I9
tp266
a(I10
I124
F-0.125
S'slow'
p267
I9
tp268
a(I11
I29
I0
S'fast'
p269
I9
tp270
as(S'voice'
p271
S'and'
p272
S'data'
p273
tp274
(lp275
(I2
I135
F-0.625
S'moderate'
p276
I0
tp277
a(I5
I4
F1.0
S'better'
p278
I0
tp279
a(I0
I115
F-0.5
S'complaint'
p280
I4
tp281
a(I0
I115
F0.125
S'able'
p282
I4
tp283
a(I5
I4
F1.0
g278
I4
tp284
a(I2
I135
F-0.625
g276
I13
tp285
a(I6
I87
F0.375
S'extra'
p286
I13
tp287
as(S'signal'
p288
tp289
(lp290
(I3
I120
F-0.625
S'moderate'
p291
I1
tp292
a(I3
I137
F-0.25
S'low'
p293
I1
tp294
a(I3
I138
F1.0
S'good'
p295
I1
tp296
a(I7
I186
F-0.625
S'bad'
p297
I1
tp298
a(I11
I121
F1.0
S'good'
p299
I1
tp300
a(I11
I121
I0
S'great'
p301
I1
tp302
a(I11
I200
I0
S'great'
p303
I1
tp304
as(S'file'
p305
S'manager'
p306
tp307
(lp308
(I10
I130
I0
S'file'
p309
I0
tp310
as(S'private'
p311
S'seller'
p312
tp313
(lp314
(I11
I401
F-0.125
S'private'
p315
I0
tp316
a(I11
I403
F-0.125
S'private'
p317
I0
tp318
a(I11
I406
F-0.125
S'private'
p319
I0
tp320
a(I11
I413
F-0.125
S'private'
p321
I0
tp322
a(I11
I416
F-0.125
S'private'
p323
I0
tp324
a(I11
I419
F-0.125
S'private'
p325
I0
tp326
as(S'wifi'
p327
tp328
(lp329
(I3
I130
I0
S'particular'
p330
I0
tp331
a(I3
I131
I0
S'least'
p332
I0
tp333
a(I3
I145
I0
S'faster'
p334
I0
tp335
a(I4
I13
I0
S'even'
p336
I0
tp337
a(I7
I118
I0
S'local'
p338
I0
tp339
a(I7
I163
F0.125
S'able'
p340
I0
tp341
a(I7
I163
I0
S'local'
p342
I0
tp343
a(I7
I167
I0
S'local'
p344
I0
tp345
a(I7
I168
F0.125
S'able'
p346
I0
tp347
a(I7
I168
I0
S'local'
p348
I0
tp349
a(I7
I168
F0.5
S'expensive'
p350
I0
tp351
a(I7
I191
F0.5
S'strong'
p352
I0
tp353
a(I10
I18
F0.25
S'stellar'
p354
I0
tp355
a(I11
I289
F-0.625
S'other'
p356
I0
tp357
a(I11
I447
I0
S'net'
p358
I0
tp359
as(S'android'
p360
tp361
(lp362
(I2
I15
F1.0
S'better'
p363
I0
tp364
a(I2
I15
I0
S'older'
p365
I0
tp366
a(I2
I109
I0
S'few'
p367
I0
tp368
a(I3
I7
F0.875
S'nice'
p369
I0
tp370
a(I3
I7
I0
S'stable'
p371
I0
tp372
a(I3
I64
F0.25
S'familiar'
p373
I0
tp374
a(I6
I47
I0
S'many'
p375
I0
tp376
a(I6
I100
I0
S'standard'
p377
I0
tp378
a(I7
I26
F-0.625
S'other'
p379
I0
tp380
a(I7
I129
F0.25
S'larger'
p381
I0
tp382
a(I7
I151
I0
S'different'
p383
I0
tp384
a(I11
I156
I0
S'big'
p385
I0
tp386
a(I11
I192
F0.375
S'new'
p387
I0
tp388
a(I11
I201
F1.0
S'best'
p389
I0
tp390
a(I11
I212
F-0.625
S'other'
p391
I0
tp392
a(I11
I271
F0.125
S'first'
p393
I0
tp394
a(I11
I304
F-0.625
S'other'
p395
I0
tp396
a(I11
I304
F-0.625
S'free'
p397
I0
tp398
a(I11
I443
F0.375
S'much'
p399
I0
tp400
a(I13
I39
F-0.875
S'stuck'
p401
I0
tp402
as(S'network'
p403
tp404
(lp405
(I3
I122
F0.625
S'necessary'
p406
I0
tp407
a(I3
I122
F-0.125
S'public'
p408
I0
tp409
a(I4
I13
I0
S'mobile'
p410
I0
tp411
a(I6
I75
F-0.5
S'open'
p412
I0
tp413
a(I6
I81
F-0.5
S'weak'
p414
I0
tp415
a(I11
I447
F0.625
S'accessible'
p416
I0
tp417
as(S'calls'
p418
tp419
(lp420
(I0
I96
I0
S'overseas'
p421
I0
tp422
a(I5
I9
I0
S'many'
p423
I0
tp424
a(I9
I59
I0
S'many'
p425
I0
tp426
a(I10
I96
F-0.125
S'mine'
p427
I0
tp428
a(I10
I96
F0.875
S'lucky'
p429
I0
tp430
a(I11
I93
I0
S'more'
p431
I0
tp432
a(I11
I227
I0
S'few'
p433
I0
tp434
a(I11
I228
F-0.5
S'international'
p435
I0
tp436
as(S'sim'
p437
S'card'
p438
tp439
(lp440
(I5
I13
I0
S'local'
p441
I0
tp442
a(I5
I14
I0
S'local'
p443
I0
tp444
a(I5
I14
F1.0
S'good'
p445
I0
tp446
a(I7
I119
F-0.5
S'international'
p447
I0
tp448
a(I11
I389
I0
S'standard'
p449
I0
tp450
as(S'kickstand'
p451
tp452
(lp453
(I0
I35
I0
S'more'
p454
I0
tp455
a(I3
I87
F-0.75
S'wrong'
p456
I0
tp457
as(S'dual'
p458
S'core'
p459
S'processor'
p460
tp461
(lp462
(I7
I16
F0.25
S'powerful'
p463
I0
tp464
a(I6
I17
F0.375
S'much'
p465
I0
tp466
a(I6
I17
I0
S'faster'
p467
I0
tp468
a(I6
I17
I0
S'more'
p469
I0
tp470
a(I6
I17
F0.25
S'polished'
p471
I0
tp472
as(S'much'
p473
S'better'
p474
tp475
(lp476
(I2
I7
F0.375
S'much'
p477
I9
tp478
a(I5
I9
F0.375
S'much'
p479
I9
tp480
a(I6
I53
F0.375
S'much'
p481
I9
tp482
a(I6
I133
F0.375
S'much'
p483
I9
tp484
a(I11
I206
F0.375
S'much'
p485
I9
tp486
as(S'htc'
p487
S'hero'
p488
tp489
(lp490
(I0
I17
I0
S'old'
p491
I0
tp492
as(S'negative'
p493
S'comments'
p494
tp495
(lp496
(I6
I45
F0.25
S'read'
p497
I1
tp498
a(I6
I45
I0
S'most'
p499
I1
tp500
a(I6
I45
F-0.875
S'negative'
p501
I1
tp502
a(I6
I46
I0
S'many'
p503
I1
tp504
a(I6
I46
F-0.625
S'other'
p505
I1
tp506
a(I6
I46
F-0.875
S'negative'
p507
I1
tp508
a(I6
I47
F-0.875
S'negative'
p509
I1
tp510
as(S'great'
p511
S'battery'
p512
S'life'
p513
tp514
(lp515
(I2
I118
I0
S'great'
p516
I0
tp517
a(I6
I62
I0
S'great'
p518
I0
tp519
a(I10
I21
I0
S'great'
p520
I0
tp521
a(I10
I123
I0
S'great'
p522
I0
tp523
a(I11
I163
F-0.25
S'battery'
p524
I0
tp525
a(I0
I112
F1.0
S'best'
p526
I1
tp527
a(I2
I118
I0
g516
I1
tp528
a(I2
I133
F-0.875
S'awful'
p529
I1
tp530
a(I3
I18
F0.25
S'powerful'
p531
I1
tp532
a(I3
I18
I0
S'fast'
p533
I1
tp534
a(I3
I18
F0.375
S'reliable'
p535
I1
tp536
a(I3
I143
F0.125
S'impressive'
p537
I1
tp538
a(I3
I143
F-0.625
S'moderate'
p539
I1
tp540
a(I3
I162
F1.0
S'good'
p541
I1
tp542
a(I4
I13
F-0.5
S'longer'
p543
I1
tp544
a(I6
I14
F1.0
S'better'
p545
I1
tp546
a(I6
I45
F-0.5
S'poor'
p547
I1
tp548
a(I6
I62
I0
g518
I1
tp549
a(I6
I140
I0
S'prolong'
p550
I1
tp551
a(I7
I192
F-0.25
S'low'
p552
I1
tp553
a(I8
I6
F-0.5
S'less'
p554
I1
tp555
a(I10
I21
I0
g520
I1
tp556
a(I10
I123
I0
g522
I1
tp557
a(I11
I12
F1.0
S'good'
p558
I1
tp559
a(I11
I107
F-0.25
S'battery'
p560
I1
tp561
a(I11
I152
F1.0
S'good'
p562
I1
tp563
a(I11
I163
F-0.25
g524
I1
tp564
a(I11
I189
F1.0
S'better'
p565
I1
tp566
a(I11
I258
I0
S'android'
p567
I1
tp568
a(I11
I258
F-0.75
S'hate'
p569
I1
tp570
a(I12
I3
I0
S'fast'
p571
I1
tp572
a(I12
I3
F0.375
S'reliable'
p573
I1
tp574
a(I13
I44
F1.0
S'better'
p575
I1
tp576
a(I2
I118
I0
g516
I19
tp577
a(I2
I133
F-0.875
g529
I19
tp578
a(I3
I18
F0.25
g531
I19
tp579
a(I3
I18
I0
g533
I19
tp580
a(I3
I18
F0.375
g535
I19
tp581
a(I3
I143
F0.125
g537
I19
tp582
a(I3
I143
F-0.625
g539
I19
tp583
a(I3
I162
F1.0
g541
I19
tp584
a(I6
I14
F1.0
g545
I19
tp585
a(I8
I6
F-0.5
g554
I19
tp586
a(I10
I21
I0
g520
I19
tp587
a(I10
I123
I0
g522
I19
tp588
a(I10
I134
F-0.5
S'poor'
p589
I19
tp590
a(I11
I12
F1.0
g558
I19
tp591
a(I11
I107
F-0.25
g560
I19
tp592
a(I11
I152
F1.0
g562
I19
tp593
a(I11
I163
F-0.25
g524
I19
tp594
a(I11
I189
F1.0
g565
I19
tp595
a(I0
I112
F1.0
g526
I15
tp596
a(I2
I135
F-0.5
S'less'
p597
I15
tp598
a(I3
I69
F-0.25
S'lower'
p599
I15
tp600
a(I3
I109
I0
S'signal'
p601
I15
tp602
a(I3
I109
I0
S'current'
p603
I15
tp604
a(I4
I13
F-0.5
g543
I15
tp605
a(I4
I49
I0
S'great'
p606
I15
tp607
a(I6
I45
F-0.5
g547
I15
tp608
a(I6
I62
I0
g518
I15
tp609
a(I6
I63
F0.25
S'larger'
p610
I15
tp611
a(I6
I63
I0
S'sized'
p612
I15
tp613
a(I6
I140
I0
g550
I15
tp614
a(I7
I35
F0.875
S'nice'
p615
I15
tp616
a(I7
I81
F0.125
S'supplied'
p617
I15
tp618
a(I7
I81
F0.375
S'available'
p619
I15
tp620
a(I7
I192
F-0.25
g552
I15
tp621
a(I10
I7
I0
S'standard'
p622
I15
tp623
a(I11
I15
I0
S'basic'
p624
I15
tp625
a(I11
I191
F0.125
S'last'
p626
I15
tp627
a(I11
I191
F-0.5
S'long'
p628
I15
tp629
a(I11
I258
I0
g567
I15
tp630
a(I11
I258
F-0.75
g569
I15
tp631
a(I11
I340
F0.625
S'responsible'
p632
I15
tp633
a(I11
I345
F1.0
S'good'
p634
I15
tp635
a(I11
I345
F0.875
S'nice'
p636
I15
tp637
a(I11
I381
I0
S'faster'
p638
I15
tp639
a(I12
I3
I0
g571
I15
tp640
a(I12
I3
F0.375
g573
I15
tp641
a(I13
I44
F1.0
g575
I15
tp642
as(S'internal'
p643
S'storage'
p644
tp645
(lp646
(I0
I4
I0
S'internal'
p647
I0
tp648
a(I0
I4
F0.125
S'plenty'
p649
I0
tp650
a(I3
I51
I0
S'internal'
p651
I0
tp652
a(I11
I75
I0
S'internal'
p653
I0
tp654
a(I11
I160
I0
S'internal'
p655
I0
tp656
as(S'apps'
p657
tp658
(lp659
(I2
I87
F0.875
S'nice'
p660
I0
tp661
a(I3
I97
I0
S'many'
p662
I0
tp663
a(I4
I15
I0
S'such'
p664
I0
tp665
a(I6
I130
F-0.875
S'trouble'
p666
I0
tp667
a(I6
I158
I0
S'incredible'
p668
I0
tp669
a(I6
I178
I0
S'few'
p670
I0
tp671
a(I6
I178
F0.375
S'similar'
p672
I0
tp673
a(I6
I181
F0.375
S'available'
p674
I0
tp675
a(I6
I181
I0
S'incredible'
p676
I0
tp677
a(I6
I200
I0
S'most'
p678
I0
tp679
a(I6
I200
F0.25
S'used'
p680
I0
tp681
a(I7
I191
I0
S'faster'
p682
I0
tp683
a(I9
I30
I0
S'standard'
p684
I0
tp685
a(I10
I126
I0
S'own'
p686
I0
tp687
a(I11
I106
F-0.75
S'difficult'
p688
I0
tp689
a(I11
I442
I0
S'many'
p690
I0
tp691
a(I13
I42
I0
S'many'
p692
I0
tp693
a(I13
I42
F0.375
S'new'
p694
I0
tp695
as(S'amazon'
p696
tp697
(lp698
(I10
I121
F-0.625
S'other'
p699
I13
tp700
as.