(dp0
(S'battery'
p1
S'life'
p2
tp3
(lp4
(I0
I176
I0
S'great'
p5
I1
tp6
a(I2
I116
F1.0
S'better'
p7
I1
tp8
a(I2
I117
F-0.5
S'long'
p9
I1
tp10
a(I2
I138
F0.5
S'willing'
p11
I1
tp12
a(I2
I138
F-0.75
S'shorter'
p13
I1
tp14
a(I2
I204
F1.0
S'good'
p15
I1
tp16
a(I5
I110
I0
S'big'
p17
I1
tp18
a(I6
I37
F-0.5
S'poor'
p19
I1
tp20
a(I8
I27
F1.0
S'good'
p21
I1
tp22
a(I9
I37
F-0.75
S'short'
p23
I1
tp24
a(I9
I244
F1.0
S'good'
p25
I1
tp26
a(I10
I4
I0
S'great'
p27
I1
tp28
a(I10
I4
F0.375
S'much'
p29
I1
tp30
a(I10
I122
F1.0
S'better'
p31
I1
tp32
a(I11
I152
F-0.625
S'bad'
p33
I1
tp34
a(I12
I126
I0
S'more'
p35
I1
tp36
a(I12
I126
I0
S'adequate'
p37
I1
tp38
a(I13
I20
F-0.5
S'regular'
p39
I1
tp40
a(I0
I176
I0
g5
I19
tp41
a(I2
I116
F1.0
g7
I19
tp42
a(I2
I117
F-0.5
g9
I19
tp43
a(I2
I204
F1.0
g15
I19
tp44
a(I8
I27
F1.0
g21
I19
tp45
a(I9
I244
F1.0
g25
I19
tp46
a(I10
I4
I0
g27
I19
tp47
a(I10
I4
F0.375
g29
I19
tp48
a(I11
I152
F-0.625
g33
I19
tp49
a(I12
I126
I0
g35
I19
tp50
a(I12
I126
I0
g37
I19
tp51
as(S'motorola'
p52
tp53
(lp54
(I1
I52
F-0.625
S'other'
p55
I0
tp56
a(I1
I133
F-0.625
S'guilty'
p57
I0
tp58
a(I4
I3
F0.25
S'original'
p59
I0
tp60
a(I5
I251
F0.5
S'satisfactory'
p61
I0
tp62
a(I6
I65
I0
S'few'
p63
I0
tp64
a(I6
I138
F-0.875
S'unhappy'
p65
I0
tp66
a(I9
I28
F0.125
S'last'
p67
I0
tp68
a(I12
I12
F0.25
S'original'
p69
I0
tp70
a(I12
I40
I0
S'standard'
p71
I0
tp72
a(I12
I46
I0
S'older'
p73
I0
tp74
a(I13
I75
I0
S'plastic'
p75
I0
tp76
a(I13
I75
F0.25
S'original'
p77
I0
tp78
as(S'tech'
p79
S'support'
p80
tp81
(lp82
(I2
I146
I0
S'tech'
p83
I1
tp84
a(I5
I146
F0.875
S'nice'
p85
I1
tp86
as(S'call'
p87
S'quality'
p88
tp89
(lp90
(I2
I7
F-0.5
S'call'
p91
I0
tp92
a(I2
I125
F1.0
S'good'
p93
I0
tp94
a(I8
I83
F1.0
S'good'
p95
I0
tp96
a(I13
I70
F1.0
S'good'
p97
I0
tp98
as(S'original'
p99
S'droid'
p100
tp101
(lp102
(I2
I43
F0.25
S'original'
p103
I0
tp104
a(I2
I55
F0.25
S'original'
p105
I0
tp106
a(I5
I10
F0.25
S'original'
p107
I0
tp108
a(I5
I10
F-0.5
S'long'
p109
I0
tp110
a(I5
I16
F0.25
S'original'
p111
I0
tp112
a(I5
I38
F0.25
S'original'
p113
I0
tp114
a(I5
I48
F0.25
S'original'
p115
I0
tp116
a(I5
I63
I0
S'wish'
p117
I0
tp118
a(I5
I63
I0
S'keypad'
p119
I0
tp120
a(I5
I63
F0.25
S'original'
p121
I0
tp122
a(I5
I64
F0.25
S'original'
p123
I0
tp124
a(I5
I64
F0.25
S'original'
p125
I0
tp126
a(I5
I73
F0.25
S'original'
p127
I0
tp128
a(I5
I115
F0.25
S'original'
p129
I0
tp130
a(I10
I64
F0.25
S'original'
p131
I0
tp132
a(I10
I66
F0.25
S'original'
p133
I0
tp134
a(I10
I74
F0.25
S'original'
p135
I0
tp136
a(I11
I28
F0.25
S'original'
p137
I0
tp138
as(S'download'
p139
tp140
(lp141
(I6
I103
F-0.625
S'average'
p142
I1
tp143
a(I9
I64
I0
S'quick'
p144
I1
tp145
as(S'high'
p146
S'pitched'
p147
S'whine'
p148
tp149
(lp150
(I0
I85
I0
S'high'
p151
I0
tp152
a(I4
I1
F0.75
S'constant'
p153
I0
tp154
a(I4
I1
F0.875
S'music'
p155
I0
tp156
a(I11
I14
F0.25
S'pitched'
p157
I0
tp158
a(I11
I16
I0
S'high'
p159
I0
tp160
a(I11
I16
F0.25
S'pitched'
p161
I0
tp162
as(S'iphone'
p163
tp164
(lp165
(I0
I0
I0
S'old'
p166
I1
tp167
a(I0
I163
F0.375
S'new'
p168
I1
tp169
a(I0
I220
F0.5
S'absolute'
p170
I1
tp171
a(I0
I220
I0
S'fanatic'
p172
I1
tp173
a(I2
I181
I0
S'same'
p174
I1
tp175
a(I2
I197
I0
S'bionic'
p176
I1
tp177
a(I5
I244
F0.5
S'upgraded'
p178
I1
tp179
a(I6
I56
F1.0
S'better'
p180
I1
tp181
a(I6
I56
F1.0
S'good'
p182
I1
tp183
a(I6
I106
F1.0
S'better'
p184
I1
tp185
a(I6
I106
I0
S'more'
p186
I1
tp187
a(I12
I51
F0.75
S'due'
p188
I1
tp189
a(I12
I87
F1.0
S'better'
p190
I1
tp191
a(I13
I47
F0.125
S'solid'
p192
I1
tp193
as(S'droid'
p194
S'x'
p195
tp196
(lp197
(I2
I43
F0.25
g103
I0
tp198
a(I2
I55
F0.25
g105
I0
tp199
a(I6
I12
I0
S'many'
p200
I0
tp201
a(I6
I12
F-0.625
S'other'
p202
I0
tp203
a(I9
I123
F1.0
S'best'
p204
I0
tp205
a(I10
I17
F-0.25
S'thin'
p206
I0
tp207
a(I10
I74
F0.25
g135
I0
tp208
as(S'front'
p209
S'facing'
p210
S'camera'
p211
tp212
(lp213
(I1
I57
F0.125
S'capable'
p214
I0
tp215
a(I1
I98
F0.625
S'superior'
p216
I0
tp217
a(I1
I98
F-0.625
S'other'
p218
I0
tp219
a(I1
I57
F0.125
g214
I0
tp220
a(I1
I98
F0.625
g216
I0
tp221
a(I1
I98
F-0.625
g218
I0
tp222
a(I0
I179
F0.875
S'nice'
p223
I1
tp224
a(I0
I258
F1.0
S'good'
p225
I1
tp226
a(I0
I290
F1.0
S'better'
p227
I1
tp228
a(I1
I57
F0.125
g214
I1
tp229
a(I1
I98
F0.625
g216
I1
tp230
a(I1
I98
F-0.625
g218
I1
tp231
a(I1
I100
I0
S'rear'
p232
I1
tp233
a(I10
I7
I0
S'different'
p234
I1
tp235
a(I11
I69
F-0.125
S'slow'
p236
I1
tp237
a(I11
I179
F0.125
S'digital'
p238
I1
tp239
a(I12
I40
F-0.625
S'bad'
p240
I1
tp241
a(I12
I136
F0.125
S'digital'
p242
I1
tp243
a(I13
I42
I0
S'passable'
p244
I1
tp245
a(I13
I85
F1.0
S'best'
p246
I1
tp247
as(S'speed'
p248
tp249
(lp250
(I5
I201
F0.375
S'extra'
p251
I9
tp252
a(I5
I239
F0.375
S'available'
p253
I9
tp254
as(S'internet'
p255
tp256
(lp257
(I4
I25
I0
S'extensive'
p258
I6
tp259
a(I9
I25
I0
S'quick'
p260
I6
tp261
a(I9
I25
I0
S'cable'
p262
I6
tp263
as(S'market'
p264
tp265
(lp266
(I0
I233
F0.375
S'steep'
p267
I16
tp268
a(I1
I139
F1.0
S'best'
p269
I16
tp270
a(I5
I111
F1.0
S'best'
p271
I16
tp272
a(I6
I80
F0.625
S'eager'
p273
I16
tp274
as(S'gorilla'
p275
S'glass'
p276
tp277
(lp278
(I0
I54
I0
S'same'
p279
I0
tp280
as(S'extended'
p281
S'battery'
p282
tp283
(lp284
(I0
I45
F0.375
S'extended'
p285
I0
tp286
a(I0
I47
F0.375
S'extended'
p287
I0
tp288
a(I0
I48
F0.375
S'extended'
p289
I0
tp290
a(I1
I143
F0.375
S'extended'
p291
I0
tp292
a(I2
I46
F0.375
S'extended'
p293
I0
tp294
a(I2
I67
F0.375
S'extended'
p295
I0
tp296
a(I2
I91
F0.375
S'extended'
p297
I0
tp298
a(I2
I91
F0.125
S'protective'
p299
I0
tp300
a(I2
I119
F0.375
S'extended'
p301
I0
tp302
a(I11
I187
F0.375
S'extended'
p303
I0
tp304
a(I11
I190
F0.125
S'able'
p305
I0
tp306
a(I11
I190
F0.375
S'extended'
p307
I0
tp308
a(I13
I21
F0.375
S'extended'
p309
I0
tp310
a(I13
I22
F0.375
S'extended'
p311
I0
tp312
a(I13
I23
F0.375
S'extended'
p313
I0
tp314
a(I0
I45
F0.375
g285
I15
tp315
a(I0
I47
F0.375
g287
I15
tp316
a(I0
I48
F0.375
g289
I15
tp317
a(I1
I118
I0
S'plastic'
p318
I15
tp319
a(I1
I122
F-0.25
S'thin'
p320
I15
tp321
a(I1
I135
F0.625
S'superior'
p322
I15
tp323
a(I1
I143
F0.375
g291
I15
tp324
a(I2
I46
F0.375
g293
I15
tp325
a(I2
I67
F0.375
g295
I15
tp326
a(I2
I91
F0.375
g297
I15
tp327
a(I2
I91
F0.125
g299
I15
tp328
a(I2
I92
F0.25
S'larger'
p329
I15
tp330
a(I2
I119
F0.375
g301
I15
tp331
a(I2
I138
F0.5
g11
I15
tp332
a(I2
I138
F-0.75
g13
I15
tp333
a(I2
I189
F-0.5
S'less'
p334
I15
tp335
a(I5
I99
I0
S'user'
p336
I15
tp337
a(I5
I99
F0.625
S'replaceable'
p338
I15
tp339
a(I5
I102
F0.375
S'extra'
p340
I15
tp341
a(I5
I110
I0
g17
I15
tp342
a(I5
I135
F-0.375
S'pull'
p343
I15
tp344
a(I5
I183
I0
S'standard'
p345
I15
tp346
a(I6
I9
I0
S'toggle'
p347
I15
tp348
a(I6
I37
F-0.5
g19
I15
tp349
a(I6
I144
F0.125
S'last'
p350
I15
tp351
a(I6
I144
F-0.5
S'long'
p352
I15
tp353
a(I6
I163
F0.125
S'last'
p354
I15
tp355
a(I8
I18
F-0.625
S'other'
p356
I15
tp357
a(I8
I55
F0.625
S'major'
p358
I15
tp359
a(I8
I61
F1.0
S'better'
p360
I15
tp361
a(I8
I92
F-0.75
S'dead'
p362
I15
tp363
a(I8
I116
I0
S'least'
p364
I15
tp365
a(I9
I37
F-0.75
g23
I15
tp366
a(I9
I77
F0.125
S'last'
p367
I15
tp368
a(I9
I83
F0.125
S'last'
p369
I15
tp370
a(I9
I109
I0
S'great'
p371
I15
tp372
a(I9
I138
I0
S'adequate'
p373
I15
tp374
a(I10
I81
F-0.625
S'surprising'
p375
I15
tp376
a(I10
I82
F0.625
S'easy'
p377
I15
tp378
a(I10
I122
F1.0
g31
I15
tp379
a(I11
I74
I0
S'faster'
p380
I15
tp381
a(I11
I166
F0.5
S'second'
p382
I15
tp383
a(I11
I187
F0.375
g303
I15
tp384
a(I11
I190
F0.125
g305
I15
tp385
a(I11
I190
F0.375
g307
I15
tp386
a(I12
I35
F0.125
S'plenty'
p387
I15
tp388
a(I12
I36
I0
S'most'
p389
I15
tp390
a(I12
I77
F-0.5
S'inadequate'
p391
I15
tp392
a(I13
I20
F-0.5
g39
I15
tp393
a(I13
I21
F0.375
g309
I15
tp394
a(I13
I22
F0.375
g311
I15
tp395
a(I13
I23
F0.375
g313
I15
tp396
as(S'times'
p397
S'a'
p398
S'day'
p399
tp400
(lp401
(I12
I13
F0.125
S'first'
p402
I0
tp403
a(I12
I13
I0
S'few'
p404
I0
tp405
a(I13
I4
I0
S'few'
p406
I0
tp407
as(S'verizon'
p408
tp409
(lp410
(I0
I138
I0
S'most'
p411
I0
tp412
a(I0
I138
F0.25
S'powerful'
p413
I0
tp414
a(I0
I238
F1.0
S'best'
p415
I0
tp416
a(I0
I301
F-0.625
S'clean'
p417
I0
tp418
a(I2
I53
I0
S'local'
p419
I0
tp420
a(I4
I20
F0.875
S'nice'
p421
I0
tp422
a(I5
I110
F0.25
S'largest'
p423
I0
tp424
a(I5
I146
I0
S'local'
p425
I0
tp426
a(I5
I147
I0
S'local'
p427
I0
tp428
a(I5
I185
F0.375
S'new'
p429
I0
tp430
a(I5
I254
F-0.5
S'sure'
p431
I0
tp432
a(I6
I31
F-0.5
S'sure'
p433
I0
tp434
a(I6
I50
F0.125
S'first'
p435
I0
tp436
a(I8
I94
F0.375
S'much'
p437
I0
tp438
a(I10
I34
F0.625
S'aware'
p439
I0
tp440
a(I10
I34
I0
S'update'
p441
I0
tp442
a(I10
I105
F-0.5
S'less'
p443
I0
tp444
a(I11
I171
F-0.75
S'little'
p445
I0
tp446
a(I11
I171
I0
S'promising'
p447
I0
tp448
a(I11
I171
I0
S'update'
p449
I0
tp450
a(I12
I9
I0
S'bionic'
p451
I0
tp452
as(S'dual'
p453
S'core'
p454
tp455
(lp456
(I1
I49
F0.125
S'first'
p457
I0
tp458
a(I1
I50
I0
S'most'
p459
I0
tp460
a(I1
I50
F-0.625
S'other'
p461
I0
tp462
a(I1
I141
I0
S'fast'
p463
I0
tp464
a(I11
I109
I0
S'bionic'
p465
I0
tp466
a(I11
I170
F0.125
S'first'
p467
I0
tp468
a(I1
I49
F0.125
g457
I3
tp469
a(I1
I50
I0
g459
I3
tp470
a(I1
I50
F-0.625
g461
I3
tp471
a(I1
I141
I0
g463
I3
tp472
a(I5
I120
F-0.875
S'hard'
p473
I3
tp474
a(I5
I196
F-0.75
S'single'
p475
I3
tp476
a(I11
I109
I0
g465
I3
tp477
a(I11
I170
F0.125
g467
I3
tp478
as(S'many'
p479
S'great'
p480
S'features'
p481
tp482
(lp483
(I4
I0
I0
S'many'
p484
I0
tp485
a(I4
I0
I0
S'great'
p486
I0
tp487
a(I5
I215
I0
S'many'
p488
I0
tp489
a(I5
I215
I0
S'great'
p490
I0
tp491
a(I5
I229
I0
S'many'
p492
I0
tp493
a(I5
I229
I0
S'great'
p494
I0
tp495
a(I9
I42
I0
S'many'
p496
I0
tp497
a(I9
I42
I0
S'great'
p498
I0
tp499
as(g398
S'long'
p500
S'time'
p501
tp502
(lp503
(I0
I66
F-0.5
S'long'
p504
I12
tp505
a(I0
I266
F-0.5
S'long'
p506
I12
tp507
a(I9
I233
F-0.5
S'long'
p508
I12
tp509
a(I12
I132
F-0.5
S'long'
p510
I12
tp511
a(I13
I43
F-0.5
S'long'
p512
I12
tp513
as(S'android'
p514
tp515
(lp516
(I0
I0
F0.125
S'first'
p517
I0
tp518
a(I0
I239
F1.0
S'best'
p519
I0
tp520
a(I2
I93
I0
S'slower'
p521
I0
tp522
a(I4
I26
F1.0
S'best'
p523
I0
tp524
a(I5
I215
I0
S'old'
p525
I0
tp526
a(I11
I121
F0.25
S'recent'
p527
I0
tp528
a(I12
I147
I0
S'more'
p529
I0
tp530
as(g398
S'car'
p531
S'charger'
p532
tp533
(lp534
(I0
I167
F-0.625
S'wall'
p535
I0
tp536
as(S'network'
p537
tp538
(lp539
(I0
I79
I0
S'mobile'
p540
I0
tp541
a(I6
I90
F1.0
S'good'
p542
I0
tp543
a(I9
I178
I0
S'social'
p544
I0
tp545
a(I10
I31
F-0.125
S'con'
p546
I0
tp547
a(I10
I31
I0
S'bionic'
p548
I0
tp549
a(I13
I3
F0.375
S'available'
p550
I0
tp551
as(S'amazon'
p552
tp553
(lp554
(I3
I16
F-0.375
S'smooth'
p555
I13
tp556
a(I8
I38
I0
S'representative'
p557
I13
tp558
a(I13
I79
F1.0
S'better'
p559
I13
tp560
as(S'data'
p561
S'connection'
p562
tp563
(lp564
(I0
I89
I0
S'least'
p565
I0
tp566
a(I12
I17
F-0.75
S'unable'
p567
I0
tp568
a(I13
I92
F0.375
S'reliable'
p569
I0
tp570
a(I0
I294
I0
S'bionic'
p571
I13
tp572
a(I1
I41
F-0.5
S'regular'
p573
I13
tp574
a(I1
I66
I0
S'old'
p575
I13
tp576
a(I1
I138
F0.375
S'new'
p577
I13
tp578
a(I1
I142
F0.125
S'last'
p579
I13
tp580
a(I2
I185
F-0.5
S'heavy'
p581
I13
tp582
a(I3
I12
F0.375
S'much'
p583
I13
tp584
a(I10
I5
I0
S'same'
p585
I13
tp586
a(I10
I32
F0.375
S'complete'
p587
I13
tp588
a(I10
I61
F-0.125
S'slow'
p589
I13
tp590
a(I10
I61
F-0.125
S'slow'
p591
I13
tp592
a(I11
I185
F0.375
S'enable'
p593
I13
tp594
a(I12
I17
F-0.75
g567
I13
tp595
a(I12
I96
F-0.125
S'minimum'
p596
I13
tp597
a(I12
I112
F-0.5
S'heavy'
p598
I13
tp599
a(I13
I92
F0.375
g569
I13
tp600
as(S'piece'
p601
S'of'
p602
S'hardware'
p603
tp604
(lp605
(I6
I48
F0.875
S'nice'
p606
I2
tp607
a(I6
I48
F0.125
S'solid'
p608
I2
tp609
a(I6
I49
F1.0
S'good'
p610
I2
tp611
a(I11
I213
F1.0
S'good'
p612
I2
tp613
a(I13
I29
I0
S'great'
p614
I2
tp615
as(S'droid'
p616
S'charge'
p617
tp618
(lp619
(I5
I273
F1.0
S'better'
p620
I0
tp621
as(S'faster'
p622
S'than'
p623
S'home'
p624
tp625
(lp626
(I0
I135
I0
S'faster'
p627
I0
tp628
a(I1
I141
I0
S'faster'
p629
I0
tp630
a(I2
I73
I0
S'fast'
p631
I0
tp632
a(I2
I73
I0
S'faster'
p633
I0
tp634
a(I2
I73
I0
S'most'
p635
I0
tp636
a(I8
I27
I0
S'faster'
p637
I0
tp638
a(I0
I289
F0.375
S'much'
p639
I7
tp640
a(I11
I109
F0.375
S'much'
p641
I7
tp642
as(S'wifi'
p643
tp644
(lp645
(I1
I61
F-0.5
S'continuous'
p646
I0
tp647
a(I12
I106
F-0.625
S'free'
p648
I0
tp649
as(S'apps'
p650
tp651
(lp652
(I0
I13
I0
S'basic'
p653
I0
tp654
a(I0
I14
F-0.75
S'frivolous'
p655
I0
tp656
a(I0
I260
I0
S'many'
p657
I0
tp658
a(I5
I65
I0
S'close'
p659
I0
tp660
a(I5
I130
I0
S'great'
p661
I0
tp662
a(I5
I130
F0.375
S'available'
p663
I0
tp664
a(I5
I130
I0
S'android'
p665
I0
tp666
a(I5
I181
I0
S'great'
p667
I0
tp668
a(I5
I201
I0
S'more'
p669
I0
tp670
a(I5
I201
F-0.5
S'open'
p671
I0
tp672
a(I5
I222
F0.875
S'nice'
p673
I0
tp674
a(I5
I222
I0
S'such'
p675
I0
tp676
a(I5
I222
F0.75
S'give'
p677
I0
tp678
a(I5
I226
I0
S'standard'
p679
I0
tp680
a(I5
I247
I0
S'many'
p681
I0
tp682
a(I6
I84
F0.25
S'main'
p683
I0
tp684
a(I8
I117
I0
S'few'
p685
I0
tp686
a(I9
I63
F-0.125
S'slow'
p687
I0
tp688
a(I9
I160
I0
S'few'
p689
I0
tp690
a(I10
I4
F0.625
S'wary'
p691
I0
tp692
a(I10
I4
I0
S'such'
p693
I0
tp694
a(I12
I25
F-0.375
S'smooth'
p695
I0
tp696
a(I12
I72
F-0.5
S'sure'
p697
I0
tp698
a(I12
I78
I0
S'such'
p699
I0
tp700
a(I12
I93
I0
S'such'
p701
I0
tp702
a(I12
I106
F0.25
S'recent'
p703
I0
tp704
a(I12
I106
F-0.75
S'difficult'
p705
I0
tp706
a(I12
I106
I0
S'close'
p707
I0
tp708
a(I12
I106
I0
S'such'
p709
I0
tp710
a(I12
I131
I0
S'slower'
p711
I0
tp712
as(S'on'
p713
S'droid'
p714
S'bionic'
p715
tp716
(lp717
(I0
I41
I0
S'bionic'
p718
I0
tp719
a(I1
I52
F0.125
S'impressive'
p720
I0
tp721
a(I1
I59
I0
S'large'
p722
I0
tp723
a(I1
I59
F-0.75
S'bright'
p724
I0
tp725
a(I4
I21
F-0.875
S'inferior'
p726
I0
tp727
a(I4
I22
I0
S'more'
p728
I0
tp729
a(I4
I22
F0.25
S'helpful'
p730
I0
tp731
a(I5
I16
F0.25
g111
I0
tp732
a(I5
I63
I0
g117
I0
tp733
a(I5
I63
I0
g119
I0
tp734
a(I5
I63
F0.25
g121
I0
tp735
a(I5
I64
F0.25
g123
I0
tp736
a(I5
I64
F0.25
g125
I0
tp737
a(I5
I126
I0
S'more'
p738
I0
tp739
a(I6
I12
I0
g200
I0
tp740
a(I6
I12
F-0.625
g202
I0
tp741
a(I9
I106
I0
S'bionic'
p742
I0
tp743
a(I0
I41
I0
g718
I0
tp744
a(I1
I52
F0.125
g720
I0
tp745
a(I1
I59
I0
g722
I0
tp746
a(I1
I59
F-0.75
g724
I0
tp747
a(I4
I21
F-0.875
g726
I0
tp748
a(I4
I22
I0
g728
I0
tp749
a(I4
I22
F0.25
g730
I0
tp750
a(I5
I16
F0.25
g111
I0
tp751
a(I5
I63
I0
g117
I0
tp752
a(I5
I63
I0
g119
I0
tp753
a(I5
I63
F0.25
g121
I0
tp754
a(I5
I64
F0.25
g123
I0
tp755
a(I5
I64
F0.25
g125
I0
tp756
a(I5
I126
I0
g738
I0
tp757
a(I6
I12
I0
g200
I0
tp758
a(I6
I12
F-0.625
g202
I0
tp759
a(I9
I106
I0
g742
I0
tp760
a(I0
I41
I0
g718
I0
tp761
a(I0
I274
I0
S'old'
p762
I0
tp763
a(I2
I43
F0.25
g103
I0
tp764
a(I2
I55
F0.25
g105
I0
tp765
a(I4
I21
F-0.875
g726
I0
tp766
a(I4
I22
I-100
S'auto-complete'
p767
I0
tp768
a(I5
I10
F0.25
g107
I0
tp769
a(I5
I10
F-0.5
g109
I0
tp770
a(I5
I15
I0
S'old'
p771
I0
tp772
a(I5
I16
F0.25
g111
I0
tp773
a(I5
I30
F-0.375
S'crazy'
p774
I0
tp775
a(I5
I30
I0
S'old'
p776
I0
tp777
a(I5
I38
F0.25
g113
I0
tp778
a(I5
I48
F0.25
g115
I0
tp779
a(I5
I63
I0
g117
I0
tp780
a(I5
I63
I0
g119
I0
tp781
a(I5
I63
F0.25
g121
I0
tp782
a(I5
I64
F0.25
g123
I0
tp783
a(I5
I64
F0.25
g125
I0
tp784
a(I5
I69
I0
S'old'
p785
I0
tp786
a(I5
I73
F0.25
g127
I0
tp787
a(I5
I115
F0.25
g129
I0
tp788
a(I5
I188
I0
S'old'
p789
I0
tp790
a(I5
I273
F1.0
g620
I0
tp791
a(I6
I12
I0
g200
I0
tp792
a(I6
I12
F-0.625
g202
I0
tp793
a(I8
I4
F-0.75
S'bright'
p794
I0
tp795
a(I9
I106
I0
g742
I0
tp796
a(I9
I123
F1.0
g204
I0
tp797
a(I9
I127
F0.125
S'first'
p798
I0
tp799
a(I10
I13
I0
S'latest'
p800
I0
tp801
a(I10
I17
F-0.25
g206
I0
tp802
a(I10
I64
F0.25
g131
I0
tp803
a(I10
I66
F0.25
g133
I0
tp804
a(I10
I74
F0.25
g135
I0
tp805
a(I10
I127
I0
S'anymore'
p806
I0
tp807
a(I11
I28
F0.25
g137
I0
tp808
a(I0
I122
F-0.625
S'other'
p809
I0
tp810
a(I0
I188
F-0.125
S'overall'
p811
I0
tp812
a(I0
I217
F0.875
S'music'
p813
I0
tp814
a(I1
I50
F0.5
S'stronger'
p815
I0
tp816
a(I1
I52
F0.125
g720
I0
tp817
a(I1
I59
I0
g722
I0
tp818
a(I1
I59
F-0.75
g724
I0
tp819
a(I1
I147
F0.875
S'happy'
p820
I0
tp821
a(I2
I54
I0
S'third'
p822
I0
tp823
a(I2
I54
F-0.5
S'less'
p824
I0
tp825
a(I2
I59
F0.5
S'accurate'
p826
I0
tp827
a(I2
I88
F-0.125
S'overall'
p828
I0
tp829
a(I2
I141
F-0.75
S'worse'
p830
I0
tp831
a(I2
I141
F0.75
S'worth'
p832
I0
tp833
a(I2
I142
F0.375
S'new'
p834
I0
tp835
a(I4
I12
F-0.125
S'overall'
p836
I0
tp837
a(I4
I12
F0.875
S'happy'
p838
I0
tp839
a(I4
I22
I0
g728
I0
tp840
a(I4
I22
F0.25
g730
I0
tp841
a(I5
I126
I0
g738
I0
tp842
a(I5
I200
I0
S'faster'
p843
I0
tp844
a(I9
I53
F-0.625
S'glad'
p845
I0
tp846
a(I9
I69
F-0.125
S'overall'
p847
I0
tp848
a(I9
I95
F1.0
S'good'
p849
I0
tp850
a(I10
I42
I0
S'different'
p851
I0
tp852
a(I11
I186
F0.125
S'last'
p853
I0
tp854
a(I12
I138
F-0.5
S'less'
p855
I0
tp856
a(I12
I152
F-0.25
S'low'
p857
I0
tp858
a(I12
I152
F-0.625
S'light'
p859
I0
tp860
a(I12
I155
F0.5
S'rid'
p861
I0
tp862
as.