(dp0
(S'battery'
p1
S'life'
p2
tp3
(lp4
(I7
I7
I0
S'great'
p5
I1
tp6
a(I7
I18
F-0.625
S'bad'
p7
I1
tp8
a(I16
I2
F0.375
S'extended'
p9
I1
tp10
a(I45
I0
F-0.5
S'longer'
p11
I1
tp12
a(I45
I2
F0.125
S'last'
p13
I1
tp14
a(I45
I24
F-0.5
S'less'
p15
I1
tp16
a(I47
I12
F-0.125
S'slow'
p17
I1
tp18
a(I54
I13
F1.0
S'good'
p19
I1
tp20
a(I7
I7
I0
g5
I19
tp21
a(I45
I2
F0.125
g13
I19
tp22
a(I45
I24
F-0.5
g15
I19
tp23
a(I54
I13
F1.0
g19
I19
tp24
as(S'motorola'
p25
tp26
(lp27
(I44
I9
F-0.5
S'sure'
p28
I0
tp29
a(I44
I9
F0.375
S'much'
p30
I0
tp31
a(I45
I19
F0.125
S'last'
p32
I0
tp33
as(S'old'
p34
S'blackberry'
p35
tp36
(lp37
(I0
I0
I0
S'old'
p38
I0
tp39
a(I23
I12
I0
S'old'
p40
I0
tp41
a(I44
I24
I0
S'old'
p42
I0
tp43
a(I44
I25
I0
S'old'
p44
I0
tp45
a(I44
I27
F-0.5
S'longer'
p46
I0
tp47
a(I44
I27
I0
S'old'
p48
I0
tp49
as(S'first'
p50
S'smart'
p51
tp52
(lp53
(I6
I1
F0.125
S'first'
p54
I0
tp55
a(I20
I42
F0.125
S'first'
p56
I0
tp57
a(I33
I21
F0.125
S'first'
p58
I0
tp59
a(I34
I4
F0.125
S'first'
p60
I0
tp61
a(I35
I0
F0.125
S'first'
p62
I0
tp63
a(I6
I1
F0.125
g54
I10
tp64
a(I20
I42
F0.125
g56
I10
tp65
a(I33
I21
F0.125
g58
I10
tp66
a(I34
I4
F0.125
g60
I10
tp67
a(I35
I0
F0.125
g62
I10
tp68
a(I44
I70
F1.0
S'good'
p69
I10
tp70
a(I57
I1
F0.375
S'new'
p71
I10
tp72
as(S'camera'
p73
tp74
(lp75
(I8
I25
F1.0
S'good'
p76
I1
tp77
a(I14
I6
F1.0
S'good'
p78
I1
tp79
a(I20
I31
F1.0
S'good'
p80
I1
tp81
a(I28
I9
F0.875
S'nice'
p82
I1
tp83
a(I44
I10
F0.875
S'nice'
p84
I1
tp85
as(S'droid'
p86
tp87
(lp88
(I2
I4
F0.625
S'easy'
p89
I0
tp90
a(I2
I4
I0
S'great'
p91
I0
tp92
a(I3
I10
I0
S'common'
p93
I0
tp94
a(I6
I29
F-0.625
S'other'
p95
I0
tp96
a(I6
I43
F0.375
S'new'
p97
I0
tp98
a(I7
I27
I0
S'faster'
p99
I0
tp100
a(I15
I33
F0.125
S'first'
p101
I0
tp102
a(I15
I44
F-0.125
S'overall'
p103
I0
tp104
a(I15
I74
F0.125
S'last'
p105
I0
tp106
a(I20
I8
F0.5
S'clear'
p107
I0
tp108
a(I31
I3
I0
S'promised'
p109
I0
tp110
a(I31
I3
F0.375
S'new'
p111
I0
tp112
a(I33
I27
F-0.125
S'mine'
p113
I0
tp114
a(I33
I36
F0.375
S'new'
p115
I0
tp116
a(I38
I0
F0.125
S'capable'
p117
I0
tp118
a(I45
I11
F0.25
S'original'
p119
I0
tp120
a(I45
I13
I0
S'old'
p121
I0
tp122
a(I45
I16
I0
S'quicker'
p123
I0
tp124
a(I45
I16
I0
S'old'
p125
I0
tp126
a(I51
I6
F-0.125
S'slow'
p127
I0
tp128
a(I55
I7
I0
S'old'
p129
I0
tp130
a(I61
I0
I0
S'old'
p131
I0
tp132
a(I61
I5
F0.5
S'second'
p133
I0
tp134
as(S'first'
p135
S'one'
p136
tp137
(lp138
(I18
I7
F1.0
S'good'
p139
I5
tp140
a(I18
I7
F0.125
S'first'
p141
I5
tp142
as(S'verizon'
p143
tp144
(lp145
(I5
I26
F0.125
S'first'
p146
I0
tp147
a(I14
I0
I0
S'activate'
p148
I0
tp149
a(I14
I0
I0
S'activate'
p150
I0
tp151
as(S'sd'
p152
S'card'
p153
tp154
(lp155
(I15
I64
F0.25
S'bigger'
p156
I0
tp157
a(I15
I64
F-0.125
S'mine'
p158
I0
tp159
a(I45
I6
F0.25
S'bigger'
p160
I0
tp161
a(I50
I21
F-0.375
S'manual'
p162
I0
tp163
as(S'contract'
p164
tp165
(lp166
(I6
I28
I0
S'most'
p167
I0
tp168
a(I34
I16
I0
S'next'
p169
I0
tp170
as(S'seller'
p171
tp172
(lp173
(I8
I32
F0.875
S'nice'
p174
I19
tp175
as(S'android'
p176
tp177
(lp178
(I2
I18
F0.125
S'last'
p179
I0
tp180
a(I2
I18
I0
S'old'
p181
I0
tp182
a(I3
I4
F0.125
S'first'
p183
I0
tp184
a(I7
I2
F0.125
S'first'
p185
I0
tp186
a(I15
I75
F0.125
S'first'
p187
I0
tp188
a(I50
I6
F0.125
S'first'
p189
I0
tp190
as(S'slide'
p191
S'out'
p192
S'keyboard'
p193
tp194
(lp195
(I15
I29
I0
S'useful'
p196
I0
tp197
a(I20
I46
I0
S'great'
p198
I0
tp199
a(I23
I8
F-0.5
S'open'
p200
I6
tp201
a(I0
I1
I0
S'full'
p202
I2
tp203
a(I0
I1
F0.5
S'touch'
p204
I2
tp205
a(I6
I13
I0
S'full'
p206
I2
tp207
a(I8
I42
I0
S'sensitive'
p208
I2
tp209
a(I10
I3
I0
S'physical'
p210
I2
tp211
a(I10
I4
F0.5
S'functional'
p212
I2
tp213
a(I15
I7
I0
S'many'
p214
I2
tp215
a(I15
I29
I0
g196
I2
tp216
a(I15
I79
I0
S'physical'
p217
I2
tp218
a(I15
I79
F1.0
S'good'
p219
I2
tp220
a(I20
I46
I0
g198
I2
tp221
a(I21
I2
I0
S'full'
p222
I2
tp223
a(I33
I29
I0
S'physical'
p224
I2
tp225
a(I34
I15
I0
S'full'
p226
I2
tp227
a(I34
I28
I0
S'full'
p228
I2
tp229
a(I44
I10
F0.625
S'easy'
p230
I2
tp231
a(I44
I10
F1.0
S'best'
p232
I2
tp233
a(I44
I49
F0.5
S'whole'
p234
I2
tp235
a(I44
I56
F0.875
S'nice'
p236
I2
tp237
a(I50
I20
I0
S'physical'
p238
I2
tp239
a(I54
I27
F0.375
S'reliable'
p240
I2
tp241
a(I54
I27
F-0.875
S'hard'
p242
I2
tp243
a(I55
I5
F-0.75
S'short'
p244
I2
tp245
a(I57
I7
F0.25
S'bigger'
p246
I2
tp247
as(S'slow'
p248
tp249
(lp250
(I33
I5
F-0.625
S'other'
p251
I17
tp252
as(S'replacement'
p253
tp254
(lp255
(I6
I3
I0
S'great'
p256
I13
tp257
a(I8
I15
F0.5
S'temporary'
p258
I13
tp259
a(I20
I36
F0.25
S'helpful'
p260
I13
tp261
a(I40
I0
I0
S'next'
p262
I13
tp263
a(I40
I0
I0
S'next'
p264
I13
tp265
as(S'calls'
p266
tp267
(lp268
(I15
I31
I0
S'few'
p269
I0
tp270
a(I15
I78
I0
S'great'
p271
I0
tp272
a(I36
I6
F-0.75
S'difficult'
p273
I0
tp274
as(S'new'
p275
S'battery'
p276
tp277
(lp278
(I15
I31
F0.375
S'new'
p279
I1
tp280
a(I32
I11
F0.375
S'new'
p281
I1
tp282
a(I33
I2
F0.375
S'new'
p283
I1
tp284
a(I44
I71
F0.375
S'new'
p285
I1
tp286
a(I52
I7
F0.375
S'new'
p287
I1
tp288
a(I52
I8
F0.375
S'new'
p289
I1
tp290
a(I2
I11
F-0.25
S'low'
p291
I15
tp292
a(I7
I18
F-0.625
g7
I15
tp293
a(I7
I24
F-0.75
S'dead'
p294
I15
tp295
a(I15
I31
F0.375
g279
I15
tp296
a(I15
I52
F0.625
S'removable'
p297
I15
tp298
a(I16
I2
F0.375
g9
I15
tp299
a(I18
I17
F-0.875
S'hard'
p300
I15
tp301
a(I18
I17
F-0.5
S'less'
p302
I15
tp303
a(I32
I11
F0.375
g281
I15
tp304
a(I33
I2
F0.375
g283
I15
tp305
a(I34
I2
F0.125
S'able'
p306
I15
tp307
a(I34
I5
F-0.25
S'ready'
p308
I15
tp309
a(I34
I56
F0.375
S'extended'
p310
I15
tp311
a(I44
I61
I0
S'normal'
p312
I15
tp313
a(I44
I71
F0.375
g285
I15
tp314
a(I45
I0
F-0.5
g11
I15
tp315
a(I45
I30
F0.125
S'last'
p316
I15
tp317
a(I45
I30
F-0.625
S'bad'
p318
I15
tp319
a(I45
I50
F0.5
S'second'
p320
I15
tp321
a(I47
I12
F-0.125
g17
I15
tp322
a(I52
I5
F1.0
S'good'
p323
I15
tp324
a(I52
I7
F0.375
g287
I15
tp325
a(I52
I8
F0.375
g289
I15
tp326
as(S'music'
p327
tp328
(lp329
(I34
I35
I0
S'entire'
p330
I0
tp331
as(S'great'
p332
S'condition'
p333
tp334
(lp335
(I21
I17
I0
S'great'
p336
I7
tp337
a(I21
I17
I0
S'great'
p338
I7
tp339
a(I34
I2
I0
S'great'
p340
I7
tp341
a(I39
I1
I0
S'great'
p342
I7
tp343
a(I44
I35
I0
S'great'
p344
I7
tp345
as(S'apps'
p346
tp347
(lp348
(I6
I9
I0
S'weird'
p349
I0
tp350
a(I6
I9
F-0.5
S'certain'
p351
I0
tp352
a(I14
I11
F-0.125
S'slow'
p353
I0
tp354
a(I14
I11
F0.125
S'first'
p355
I0
tp356
a(I14
I11
I0
S'fast'
p357
I0
tp358
a(I15
I2
F0.625
S'easy'
p359
I0
tp360
a(I15
I2
I0
S'many'
p361
I0
tp362
a(I15
I68
I0
S'cool'
p363
I0
tp364
a(I16
I6
F0.375
S'available'
p365
I0
tp366
a(I26
I2
F0.125
S'able'
p367
I0
tp368
a(I26
I2
I0
S'most'
p369
I0
tp370
a(I34
I40
F-0.625
S'free'
p371
I0
tp372
a(I34
I40
I0
S'same'
p373
I0
tp374
a(I36
I13
F-0.625
S'other'
p375
I0
tp376
a(I44
I64
F-0.5
S'open'
p377
I0
tp378
a(I45
I22
I0
S'great'
p379
I0
tp380
a(I45
I22
F-0.625
S'free'
p381
I0
tp382
a(I54
I18
F0.125
S'popular'
p383
I0
tp384
a(I54
I18
I0
S'social'
p385
I0
tp386
as(S'amazon'
p387
tp388
(lp389
(I25
I2
I0
S'great'
p390
I13
tp391
as(S'touch'
p392
S'screen'
p393
tp394
(lp395
(I0
I0
F0.5
S'touch'
p396
I2
tp397
a(I0
I0
I0
S'full'
p398
I2
tp399
a(I6
I13
F0.5
S'touch'
p400
I2
tp401
a(I32
I23
F0.5
S'touch'
p402
I2
tp403
a(I33
I24
F0.5
S'touch'
p404
I2
tp405
a(I42
I10
F0.5
S'touch'
p406
I2
tp407
a(I43
I9
F0.25
S'responsive'
p408
I2
tp409
a(I50
I13
F0.5
S'touch'
p410
I2
tp411
a(I56
I2
F0.5
S'touch'
p412
I2
tp413
a(I61
I25
F-0.625
S'other'
p414
I2
tp415
a(I61
I25
F0.5
S'touch'
p416
I2
tp417
as.