(dp0
(S'battery'
p1
S'life'
p2
tp3
(lp4
(I4
I0
F-0.75
S'short'
p5
I1
tp6
a(I13
I23
F0.625
S'easy'
p7
I1
tp8
a(I4
I0
F-0.75
g5
I15
tp9
a(I13
I47
F-0.25
S'low'
p10
I15
tp11
a(I13
I69
F-0.25
S'low'
p12
I15
tp13
as(S'boost'
p14
tp15
(lp16
(I0
I35
F0.375
S'available'
p17
I0
tp18
a(I4
I1
F1.0
S'better'
p19
I0
tp20
a(I12
I0
I0
S'more'
p21
I0
tp22
a(I12
I0
F-0.625
S'other'
p23
I0
tp24
a(I13
I96
F1.0
S'best'
p25
I0
tp26
as(S'download'
p27
S'opera'
p28
S'mini'
p29
tp30
(lp31
(I0
I7
I0
S'net'
p32
I0
tp33
a(I0
I7
I0
g32
I0
tp34
a(I0
I7
I0
g32
I13
tp35
as(S'text'
p36
tp37
(lp38
(I0
I14
F0.625
S'easy'
p39
I18
tp40
a(I10
I12
F0.375
S'much'
p41
I18
tp42
a(I13
I81
I0
S'few'
p43
I18
tp44
as(S'internet'
p45
tp46
(lp47
(I2
I3
F-0.75
S'unreliable'
p48
I6
tp49
a(I11
I6
I0
S'faster'
p50
I6
tp51
as(S'nothing'
p52
S'fancy'
p53
tp54
(lp55
(I13
I122
F-0.5
S'sure'
p56
I0
tp57
as(S'calls'
p58
tp59
(lp60
(I0
I4
I0
S'few'
p61
I0
tp62
a(I0
I4
F-0.25
S'dropped'
p63
I0
tp64
a(I0
I4
F0.75
S'due'
p65
I0
tp66
a(I2
I7
F0.875
S'nice'
p67
I0
tp68
a(I2
I7
F0.5
S'clear'
p69
I0
tp70
a(I4
I9
F0.625
S'alright'
p71
I0
tp72
a(I6
I0
F-0.75
S'unable'
p73
I0
tp74
a(I12
I9
F0.125
S'able'
p75
I0
tp76
a(I13
I26
F0.875
S'nice'
p77
I0
tp78
a(I13
I26
F0.5
S'clear'
p79
I0
tp80
as(S'no'
p81
S'way'
p82
tp83
(lp84
(I13
I28
F0.375
S'much'
p85
I4
tp86
as(S'music'
p87
S'player'
p88
tp89
(lp90
(I0
I32
F0.875
S'music'
p91
I0
tp92
a(I0
I32
F-0.625
S'other'
p93
I0
tp94
a(I2
I16
F0.875
S'music'
p95
I0
tp96
as(S'motorola'
p97
S'theory'
p98
tp99
(lp100
(I1
I8
F1.0
S'good'
p101
I0
tp102
a(I13
I114
F-0.625
S'other'
p103
I0
tp104
a(I0
I44
F-0.625
S'seamless'
p105
I0
tp106
a(I1
I8
F1.0
g101
I0
tp107
a(I1
I16
F0.125
S'last'
p108
I0
tp109
a(I13
I114
F-0.625
g103
I0
tp110
as.