(dp0
(S'a'
p1
S'touch'
p2
S'screen'
p3
tp4
(lp5
(I5
I5
F0.5
S'touch'
p6
I0
tp7
a(I5
I39
F-0.625
S'other'
p8
I0
tp9
a(I22
I1
I0
S'only'
p10
I0
tp11
a(I29
I13
F0.5
S'touch'
p12
I0
tp13
a(I29
I19
F0.5
S'touch'
p14
I0
tp15
a(I29
I26
F0.5
S'touch'
p16
I0
tp17
a(I29
I26
F0.5
S'touch'
p18
I0
tp19
a(I5
I5
F0.5
g6
I2
tp20
a(I5
I39
F-0.625
g8
I2
tp21
a(I22
I1
I0
g10
I2
tp22
a(I29
I13
F0.5
g12
I2
tp23
a(I29
I19
F0.5
g14
I2
tp24
a(I29
I26
F0.5
g16
I2
tp25
a(I29
I26
F0.5
g18
I2
tp26
as(S'hot'
p27
S'hot'
p28
tp29
(lp30
(I29
I3
I0
S'hot'
p31
I0
tp32
as(g1
S'data'
p33
S'plan'
p34
tp35
(lp36
(I29
I26
F-0.375
S'small'
p37
I0
tp38
a(I29
I26
F-0.375
g37
I0
tp39
a(I21
I39
F0.375
S'extra'
p40
I13
tp41
as(S'sim'
p42
S'card'
p43
tp44
(lp45
(I16
I36
I0
S'more'
p46
I0
tp47
as(S'smartphone'
p48
tp49
(lp50
(I11
I1
F0.25
S'unlocked'
p51
I0
tp52
as(S'smart'
p53
tp54
(lp55
(I14
I9
F0.875
S'courtesy'
p56
I10
tp57
as(S'restart'
p58
tp59
(lp60
(I36
I15
I0
S'same'
p61
I2
tp62
as(S'times'
p63
g1
S'day'
p64
tp65
(lp66
(I16
I23
I0
S'least'
p67
I0
tp68
a(I16
I29
I0
S'least'
p69
I0
tp70
a(I34
I1
I0
S'multiple'
p71
I0
tp72
as(S'error'
p73
S'messages'
p74
tp75
(lp76
(I3
I21
I0
S'least'
p77
I0
tp78
a(I23
I4
F-0.125
S'slow'
p79
I0
tp80
a(I23
I4
F0.75
S'receive'
p81
I0
tp82
a(I15
I1
I0
S'operational'
p83
I5
tp84
as(S'take'
p85
S'out'
p86
S'battery'
p87
tp88
(lp89
(I16
I23
F1.0
S'good'
p90
I0
tp91
a(I16
I23
F1.0
g90
I0
tp92
a(I0
I6
F-0.25
S'low'
p93
I15
tp94
a(I6
I1
I0
S'most'
p95
I15
tp96
a(I6
I1
F-0.25
S'low'
p97
I15
tp98
a(I6
I4
F1.0
S'good'
p99
I15
tp100
a(I6
I4
F1.0
S'good'
p101
I15
tp102
a(I16
I23
F1.0
g90
I15
tp103
as(S'music'
p104
S'player'
p105
tp106
(lp107
(I30
I8
F-0.625
S'other'
p108
I0
tp109
as(S'text'
p110
S'messages'
p111
tp112
(lp113
(I32
I2
I0
S'multiple'
p114
I0
tp115
a(I16
I25
I0
S'same'
p116
I18
tp117
a(I16
I25
I0
S'least'
p118
I18
tp119
a(I18
I10
I0
S'same'
p120
I18
tp121
a(I20
I10
I0
S'same'
p122
I18
tp123
a(I21
I31
I0
S'same'
p124
I18
tp125
a(I21
I31
I0
S'least'
p126
I18
tp127
a(I32
I2
I0
g114
I18
tp128
a(I3
I21
I0
g77
I1
tp129
a(I23
I4
F-0.125
g79
I1
tp130
a(I23
I4
F0.75
g81
I1
tp131
as(S'calls'
p132
tp133
(lp134
(I21
I17
F0.25
S'recent'
p135
I0
tp136
a(I29
I24
F-0.5
S'afraid'
p137
I0
tp138
a(I34
I18
I0
S'same'
p139
I0
tp140
as.