(dp0
(S'memory'
p1
S'card'
p2
tp3
(lp4
(I7
I128
I0
S'gig'
p5
I0
tp6
as(S'keyboard'
p7
tp8
(lp9
(I0
I4
I0
S'physical'
p10
I2
tp11
a(I3
I45
F-0.375
S'smaller'
p12
I2
tp13
a(I3
I45
I0
S'more'
p14
I2
tp15
as(S'text'
p16
tp17
(lp18
(I5
I6
F0.5
S'whole'
p19
I18
tp20
a(I5
I100
F-0.5
S'regular'
p21
I18
tp22
a(I7
I79
I0
S'entire'
p23
I18
tp24
a(I7
I139
F-0.875
S'worst'
p25
I18
tp26
a(I8
I10
F-0.75
S'inconvenient'
p27
I18
tp28
as(S'end'
p29
S'call'
p30
tp31
(lp32
(I7
I82
F-0.75
S'tough'
p33
I0
tp34
as(S'camera'
p35
tp36
(lp37
(I6
I2
F1.0
S'good'
p38
I1
tp39
a(I6
I19
F0.875
S'nice'
p40
I1
tp41
a(I7
I68
I0
S'anymore'
p42
I1
tp43
a(I8
I146
F0.875
S'nice'
p44
I1
tp45
as(S'battery'
p46
S'life'
p47
tp48
(lp49
(I0
I7
F-0.75
S'short'
p50
I1
tp51
a(I0
I26
F-0.75
S'short'
p52
I1
tp53
a(I2
I18
F-0.625
S'light'
p54
I1
tp55
a(I2
I18
F1.0
S'good'
p56
I1
tp57
a(I4
I11
F0.75
S'due'
p58
I1
tp59
a(I4
I11
F-0.625
S'average'
p60
I1
tp61
a(I4
I11
F-0.125
S'slow'
p62
I1
tp63
a(I7
I54
F-0.75
S'shorter'
p64
I1
tp65
a(I7
I54
F-0.625
S'average'
p66
I1
tp67
a(I7
I137
F-0.5
S'sure'
p68
I1
tp69
a(I8
I146
F1.0
S'good'
p70
I1
tp71
a(I8
I146
I0
S'lightweight'
p72
I1
tp73
a(I8
I146
F-0.25
S'thin'
p74
I1
tp75
a(I0
I7
F-0.75
g50
I19
tp76
a(I0
I26
F-0.75
g52
I19
tp77
a(I2
I18
F1.0
g56
I19
tp78
a(I4
I11
F0.75
g58
I19
tp79
a(I4
I11
F-0.625
g60
I19
tp80
a(I4
I11
F-0.125
g62
I19
tp81
a(I7
I1
F-0.375
S'daily'
p82
I19
tp83
a(I8
I146
I0
g72
I19
tp84
a(I8
I146
F-0.25
g74
I19
tp85
a(I2
I18
F-0.625
g54
I15
tp86
a(I3
I80
F1.0
S'good'
p87
I15
tp88
a(I7
I51
I0
S'old'
p89
I15
tp90
a(I7
I54
F-0.75
g64
I15
tp91
a(I7
I54
F-0.625
g66
I15
tp92
a(I7
I55
I0
S'full'
p93
I15
tp94
a(I7
I63
F0.25
S'original'
p95
I15
tp96
a(I7
I137
F-0.5
g68
I15
tp97
a(I8
I62
F-0.25
S'low'
p98
I15
tp99
a(I8
I125
F-0.25
S'low'
p100
I15
tp101
a(I8
I146
F1.0
g70
I15
tp102
as(S'iphone'
p103
tp104
(lp105
(I6
I16
F0.375
S'new'
p106
I1
tp107
a(I6
I18
I0
S'close'
p108
I1
tp109
a(I7
I17
F0.5
S'second'
p110
I1
tp111
a(I8
I11
F0.25
S'tired'
p112
I1
tp113
as(S'a'
p114
S'touch'
p115
S'screen'
p116
tp117
(lp118
(I0
I19
I0
S'full'
p119
I0
tp120
a(I2
I0
F0.5
S'touch'
p121
I0
tp122
a(I2
I18
F0.125
S'first'
p123
I0
tp124
a(I2
I18
F0.5
S'touch'
p125
I0
tp126
a(I2
I18
F0.25
S'responsive'
p127
I0
tp128
a(I3
I45
I0
S'vertical'
p129
I0
tp130
a(I3
I45
F0.5
S'touch'
p131
I0
tp132
a(I5
I28
F0.5
S'touch'
p133
I0
tp134
a(I5
I109
F-0.75
S'difficult'
p135
I0
tp136
a(I5
I118
F0.5
S'touch'
p137
I0
tp138
a(I6
I19
F0.5
S'touch'
p139
I0
tp140
a(I7
I4
F0.5
S'touch'
p141
I0
tp142
a(I7
I31
F0.5
S'touch'
p143
I0
tp144
a(I7
I62
F0.5
S'touch'
p145
I0
tp146
a(I7
I63
F0.5
S'touch'
p147
I0
tp148
a(I7
I78
F0.5
S'touch'
p149
I0
tp150
a(I7
I89
F0.5
S'touch'
p151
I0
tp152
a(I7
I123
F-0.75
S'unresponsive'
p153
I0
tp154
a(I7
I136
F0.5
S'touch'
p155
I0
tp156
a(I8
I4
F0.5
S'touch'
p157
I0
tp158
a(I8
I8
F0.5
S'touch'
p159
I0
tp160
a(I8
I31
I0
S'mere'
p161
I0
tp162
a(I8
I96
F0.5
S'touch'
p163
I0
tp164
a(I8
I96
F-0.625
S'bad'
p165
I0
tp166
a(I8
I139
F-0.625
S'uncooperative'
p167
I0
tp168
a(I8
I139
F0.5
S'touch'
p169
I0
tp170
a(I8
I151
F0.5
S'touch'
p171
I0
tp172
a(I0
I19
I0
g119
I2
tp173
a(I2
I0
F0.5
g121
I2
tp174
a(I2
I18
F0.125
g123
I2
tp175
a(I2
I18
F0.5
g125
I2
tp176
a(I2
I18
F0.25
g127
I2
tp177
a(I3
I45
I0
g129
I2
tp178
a(I3
I45
F0.5
g131
I2
tp179
a(I5
I28
F0.5
g133
I2
tp180
a(I5
I109
F-0.75
g135
I2
tp181
a(I5
I118
F0.5
g137
I2
tp182
a(I6
I19
F0.5
g139
I2
tp183
a(I7
I4
F0.5
g141
I2
tp184
a(I7
I31
F0.5
g143
I2
tp185
a(I7
I62
F0.5
g145
I2
tp186
a(I7
I63
F0.5
g147
I2
tp187
a(I7
I78
F0.5
g149
I2
tp188
a(I7
I89
F0.5
g151
I2
tp189
a(I7
I123
F-0.75
g153
I2
tp190
a(I7
I136
F0.5
g155
I2
tp191
a(I8
I4
F0.5
g157
I2
tp192
a(I8
I8
F0.5
g159
I2
tp193
a(I8
I31
I0
g161
I2
tp194
a(I8
I96
F0.5
g163
I2
tp195
a(I8
I96
F-0.625
g165
I2
tp196
a(I8
I139
F-0.625
g167
I2
tp197
a(I8
I139
F0.5
g169
I2
tp198
a(I8
I151
F0.5
g171
I2
tp199
as(S'blue'
p200
S'tooth'
p201
tp202
(lp203
(I7
I90
I0
S'blue'
p204
I0
tp205
a(I7
I91
I0
S'blue'
p206
I0
tp207
a(I7
I91
I0
S'blue'
p208
I0
tp209
a(I7
I91
I0
S'blue'
p210
I0
tp211
as(S'do'
p212
S"n't"
p213
S'use'
p214
tp215
(lp216
(I8
I17
F0.5
S'stylish'
p217
I0
tp218
as(S'pantech'
p219
S'hotshot'
p220
tp221
(lp222
(I7
I37
F0.75
S'due'
p223
I0
tp224
a(I1
I17
F-0.75
S'hate'
p225
I0
tp226
a(I7
I37
F0.75
g223
I0
tp227
a(I7
I43
F0.375
S'similar'
p228
I0
tp229
a(I8
I22
F-0.625
S'unbearable'
p230
I0
tp231
as(S'button'
p232
tp233
(lp234
(I7
I116
I0
S'close'
p235
I19
tp236
as(S'verizon'
p237
tp238
(lp239
(I0
I27
I0
S'later'
p240
I0
tp241
a(I2
I0
I0
S'only'
p242
I0
tp243
a(I3
I19
F-0.875
S'worst'
p244
I0
tp245
a(I5
I0
F0.125
S'last'
p246
I0
tp247
as(S'touchscreen'
p248
tp249
(lp250
(I5
I2
I0
S'big'
p251
I0
tp252
a(I8
I138
F-0.875
S'worst'
p253
I0
tp254
as(S'long'
p255
S'time'
p256
tp257
(lp258
(I5
I74
F-0.5
S'long'
p259
I13
tp260
a(I7
I128
F-0.5
S'long'
p261
I13
tp262
a(I8
I29
F-0.5
S'long'
p263
I13
tp264
as(S'sound'
p265
tp266
(lp267
(I3
I19
F-0.375
S'small'
p268
I7
tp269
a(I3
I19
F1.0
S'good'
p270
I7
tp271
a(I3
I65
F0.5
S'clear'
p272
I7
tp273
a(I5
I29
F1.0
S'good'
p274
I7
tp275
a(I8
I13
F0.625
S'easy'
p276
I7
tp277
as(S'message'
p278
tp279
(lp280
(I3
I63
F0.5
S'whole'
p281
I1
tp282
a(I4
I11
I0
S'text'
p283
I1
tp284
a(I5
I100
I0
S'pic'
p285
I1
tp286
a(I5
I100
I0
S'fast'
p287
I1
tp288
as(S'replacement'
p289
tp290
(lp291
(I8
I135
F0.375
S'new'
p292
I13
tp293
a(I8
I136
F0.25
S'refurbished'
p294
I13
tp295
as(S'calls'
p296
tp297
(lp298
(I1
I1
F0.125
S'further'
p299
I0
tp300
a(I3
I88
F-0.75
S'impossible'
p301
I0
tp302
a(I3
I90
F-0.5
S'hassle'
p303
I0
tp304
a(I5
I136
I0
S'many'
p305
I0
tp306
a(I7
I77
F-0.75
S'unable'
p307
I0
tp308
a(I7
I97
F0.125
S'able'
p309
I0
tp310
a(I7
I97
F-0.5
S'answer'
p311
I0
tp312
a(I8
I42
F0.75
S'due'
p313
I0
tp314
as(S'mobile'
p315
S'web'
p316
tp317
(lp318
(I5
I52
I0
S'mobile'
p319
I0
tp320
a(I5
I55
I0
S'mobile'
p321
I0
tp322
a(I5
I55
F-0.375
S'small'
p323
I0
tp324
a(I5
I57
I0
S'mobile'
p325
I0
tp326
as(g114
S'data'
p327
S'plan'
p328
tp329
(lp330
(I8
I147
F0.5
S'expensive'
p331
I0
tp332
a(I8
I147
F0.5
g331
I0
tp333
a(I8
I147
F0.5
g331
I13
tp334
as(S'texting'
p335
tp336
(lp337
(I2
I4
F0.5
S'touch'
p338
I0
tp339
a(I3
I30
I0
S'big'
p340
I0
tp341
a(I3
I30
F0.375
S'much'
p342
I0
tp343
as.