(dp0
(S'battery'
p1
S'life'
p2
tp3
(lp4
(I18
I4
F1.0
S'good'
p5
I1
tp6
a(I18
I4
F-0.75
S'dead'
p7
I1
tp8
a(I18
I4
I0
S'instant'
p9
I1
tp10
a(I0
I3
F-0.625
S'bad'
p11
I15
tp12
a(I18
I6
F0.125
S'first'
p13
I15
tp14
a(I18
I7
F0.375
S'new'
p15
I15
tp16
a(I18
I7
F0.375
S'new'
p17
I15
tp18
a(I18
I7
I0
S'old'
p19
I15
tp20
a(I18
I8
I0
S'hot'
p21
I15
tp22
as(S'verizon'
p23
S'store'
p24
tp25
(lp26
(I10
I0
I0
S'old'
p27
I0
tp28
a(I7
I2
F0.125
S'able'
p29
I0
tp30
a(I10
I0
I0
g27
I0
tp31
as.