(dp0
(S'iphone'
p1
tp2
(lp3
(I1
I7
I0
S'old'
p4
I1
tp5
a(I1
I28
I0
S'exclusive'
p6
I1
tp7
a(I5
I0
I-100
S'used/like'
p8
I1
tp9
a(I5
I0
F0.375
S'new'
p10
I1
tp11
a(I10
I0
I0
S'great'
p12
I1
tp13
a(I11
I2
F0.25
S'used'
p14
I1
tp15
a(I16
I8
I0
S'prepaid'
p16
I1
tp17
a(I16
I22
F0.375
S'new'
p18
I1
tp19
a(I16
I22
I0
S'old'
p20
I1
tp21
a(I16
I22
F0.375
S'new'
p22
I1
tp23
a(I17
I34
F-0.875
S'unhappy'
p24
I1
tp25
as(S'battery'
p26
S'life'
p27
tp28
(lp29
(I1
I6
F-0.5
S'long'
p30
I1
tp31
a(I17
I27
F1.0
S'good'
p32
I1
tp33
a(I17
I40
F0.5
S'strong'
p34
I1
tp35
as(S'sim'
p36
S'card'
p37
tp38
(lp39
(I3
I5
F0.25
S'bigger'
p40
I0
tp41
a(I14
I5
F0.375
S'new'
p42
I0
tp43
a(I16
I20
I0
S'old'
p44
I0
tp45
a(I16
I20
I0
S'activate'
p46
I0
tp47
as.