(dp0
(S'keyboard'
p1
tp2
(lp3
(I21
I3
I0
S'full'
p4
tp5
a(I28
I17
I0
S'full'
p6
tp7
a(I64
I2
I0
S'slower'
p8
tp9
a(I92
I7
F0.375
S'available'
p10
tp11
a(I321
I1
I0
S'real'
p12
tp13
a(I321
I1
F0.375
S'available'
p14
tp15
a(I365
I11
F-0.75
S'difficult'
p16
tp17
a(I405
I2
F0.625
S'easier'
p18
tp19
a(I437
I14
F-0.75
S'tough'
p20
tp21
a(I455
I2
F0.625
S'easy'
p22
tp23
a(I545
I5
I0
S'fast'
p24
tp25
a(I545
I5
F-0.5
S'actual'
p26
tp27
a(I625
I1
F0.5
S'second'
p28
tp29
a(I670
I1
F0.25
S'original'
p30
tp31
a(I726
I1
F0.75
S'ideal'
p32
tp33
a(I726
I1
F0.5
S'touch'
p34
tp35
a(I880
I1
I0
S'dial'
p36
tp37
a(I898
I10
I0
S'traditional'
p38
tp39
a(I918
I1
F0.625
S'easy'
p40
tp41
a(I938
I1
F0.625
S'easier'
p42
tp43
a(I938
I1
I0
S'faster'
p44
tp45
a(I1031
I1
I0
S'full'
p46
tp47
a(I1088
I20
I0
S'own'
p48
tp49
a(I1097
I2
F0.625
S'fair'
p50
tp51
a(I1114
I4
F0.375
S'much'
p52
tp53
a(I1114
I4
F0.875
S'nice'
p54
tp55
a(I1142
I1
F-0.875
S'hard'
p56
tp57
as(S'want'
p58
S'to'
p59
S'use'
p60
tp61
(lp62
(I338
I4
I0
S'limited'
p63
tp64
as(S'nice'
p65
tp66
(lp67
(I348
I1
I0
S'sturdy'
p68
tp69
a(I533
I1
I0
S'very'
p70
tp71
a(I610
I1
F0.375
S'reliable'
p72
tp73
a(I918
I1
I0
S'big'
p74
tp75
a(I1017
I1
I0
S'real'
p76
tp77
a(I1092
I0
F-0.625
S'other'
p78
tp79
a(I1103
I0
F-0.375
S'simple'
p80
tp81
a(I1113
I0
F-0.125
S'overall'
p82
tp83
as(S'lot'
p84
S'of'
p85
S'minutes'
p86
tp87
(lp88
(I296
I6
I0
S'many'
p89
tp90
a(I485
I3
I0
S'sprint'
p91
tp92
a(I792
I8
F-0.25
S'inexpensive'
p93
tp94
as(S'triple'
p95
S'minutes'
p96
tp97
(lp98
(I28
I3
F-0.25
S'triple'
p99
tp100
a(I28
I4
I0
S'only'
p101
tp102
a(I28
I4
F-0.625
S'other'
p103
tp104
a(I28
I4
F-0.25
S'triple'
p105
tp106
a(I28
I22
F0.75
S'due'
p107
tp108
a(I28
I25
F-0.25
S'triple'
p109
tp110
a(I64
I5
F0.875
S'nice'
p111
tp112
a(I68
I1
F-0.375
S'simple'
p113
tp114
a(I68
I1
F0.625
S'easy'
p115
tp116
a(I77
I6
I0
S'great'
p117
tp118
a(I91
I8
F0.375
S'new'
p119
tp120
a(I136
I1
F-0.25
S'triple'
p121
tp122
a(I136
I1
F-0.75
S'wrong'
p123
tp124
a(I143
I0
F-0.375
S'double'
p125
tp126
a(I160
I5
F-0.25
S'triple'
p127
tp128
a(I210
I8
F0.875
S'nice'
p129
tp130
a(I246
I0
F-0.25
S'triple'
p131
tp132
a(I262
I0
I0
S'old'
p133
tp134
a(I268
I8
F-0.375
S'double'
p135
tp136
a(I283
I25
F0.375
S'available'
p137
tp138
a(I283
I25
F-0.25
S'triple'
p139
tp140
a(I283
I28
I0
S'least'
p141
tp142
a(I290
I11
F-0.25
S'triple'
p143
tp144
a(I303
I3
F-0.25
S'triple'
p145
tp146
a(I308
I1
F-0.25
S'triple'
p147
tp148
a(I317
I3
F-0.25
S'triple'
p149
tp150
a(I325
I11
F-0.625
S'other'
p151
tp152
a(I336
I7
F-0.25
S'triple'
p153
tp154
a(I347
I6
F-0.25
S'triple'
p155
tp156
a(I352
I2
F-0.25
S'triple'
p157
tp158
a(I353
I1
F1.0
S'best'
p159
tp160
a(I378
I38
F0.875
S'happy'
p161
tp162
a(I378
I38
F0.125
S'able'
p163
tp164
a(I396
I3
I0
S'great'
p165
tp166
a(I399
I0
F0.625
S'easy'
p167
tp168
a(I399
I0
I0
S'more'
p169
tp170
a(I463
I3
F-0.25
S'triple'
p171
tp172
a(I481
I1
F-0.25
S'triple'
p173
tp174
a(I496
I3
I0
S'more'
p175
tp176
a(I499
I1
F-0.25
S'triple'
p177
tp178
a(I502
I8
F-0.25
S'triple'
p179
tp180
a(I502
I8
F-0.375
S'double'
p181
tp182
a(I512
I0
F-0.25
S'triple'
p183
tp184
a(I514
I0
F-0.25
S'cheaper'
p185
tp186
a(I536
I1
F-0.25
S'triple'
p187
tp188
a(I537
I1
F-0.375
S'double'
p189
tp190
a(I555
I1
F-0.25
S'triple'
p191
tp192
a(I573
I2
I0
S'lifetime'
p193
tp194
a(I580
I3
I0
S'such'
p195
tp196
a(I587
I6
I0
S'great'
p197
tp198
a(I592
I3
F0.875
S'nice'
p199
tp200
a(I593
I1
I0
S'great'
p201
tp202
a(I593
I1
F0.375
S'extra'
p203
tp204
a(I593
I1
F-0.5
S'regular'
p205
tp206
a(I630
I2
F-0.25
S'triple'
p207
tp208
a(I635
I1
F-0.5
S'less'
p209
tp210
a(I635
I1
I0
S'few'
p211
tp212
a(I635
I1
F-0.375
S'double'
p213
tp214
a(I635
I1
F-0.25
S'triple'
p215
tp216
a(I647
I2
F-0.25
S'triple'
p217
tp218
a(I654
I0
F-0.75
S'wrong'
p219
tp220
a(I654
I6
F-0.375
S'double'
p221
tp222
a(I654
I6
F-0.375
S'top'
p223
tp224
a(I654
I6
F0.375
S'fine'
p225
tp226
a(I680
I0
F0.5
S'whole'
p227
tp228
a(I680
I6
F-0.75
S'short'
p229
tp230
a(I680
I6
F-0.75
S'single'
p231
tp232
a(I680
I6
I0
S'net'
p233
tp234
a(I685
I5
F1.0
S'better'
p235
tp236
a(I685
I5
F-0.25
S'triple'
p237
tp238
a(I699
I27
F-0.25
S'triple'
p239
tp240
a(I704
I0
F-0.25
S'triple'
p241
tp242
a(I729
I4
F0.75
S'worth'
p243
tp244
a(I747
I2
F0.625
S'perfect'
p245
tp246
a(I751
I3
I0
S'lifetime'
p247
tp248
a(I764
I1
F-0.25
S'triple'
p249
tp250
a(I789
I4
F-0.25
S'triple'
p251
tp252
a(I791
I2
I0
S'great'
p253
tp254
a(I792
I8
F-0.25
g93
tp255
a(I799
I2
F0.875
S'happy'
p256
tp257
a(I801
I17
F-0.25
S'triple'
p258
tp259
a(I842
I2
F-0.25
S'triple'
p260
tp261
a(I842
I18
F0.375
S'much'
p262
tp263
a(I898
I6
I0
S'more'
p264
tp265
a(I920
I0
F-0.25
S'cheaper'
p266
tp267
a(I920
I0
F-0.375
S'double'
p268
tp269
a(I927
I11
F0.625
S'superior'
p270
tp271
a(I927
I11
F-0.375
S'double'
p272
tp273
a(I929
I0
F-0.25
S'triple'
p274
tp275
a(I950
I2
F-0.375
S'double'
p276
tp277
a(I963
I5
F0.375
S'much'
p278
tp279
a(I986
I1
I0
S'great'
p280
tp281
a(I1017
I1
F-0.25
S'triple'
p282
tp283
a(I1024
I0
F-0.375
S'double'
p284
tp285
a(I1043
I0
I0
S'great'
p286
tp287
a(I1061
I9
F-0.25
S'triple'
p288
tp289
a(I1062
I21
F0.875
S'nice'
p290
tp291
a(I1085
I4
F-0.25
S'triple'
p292
tp293
a(I1086
I4
F-0.25
S'triple'
p294
tp295
a(I1092
I0
I0
S'quick'
p296
tp297
a(I1092
I0
F-0.25
S'triple'
p298
tp299
a(I1115
I6
I0
S'great'
p300
tp301
a(I1115
I6
F-0.25
S'triple'
p302
tp303
a(I1137
I19
F0.875
S'nice'
p304
tp305
a(I1155
I8
F-0.25
S'triple'
p306
tp307
a(I1155
I8
F-0.375
S'double'
p308
tp309
a(I1166
I2
F-0.25
S'triple'
p310
tp311
as(S'touch'
p312
tp313
(lp314
(I50
I6
F0.125
S'first'
p315
tp316
a(I51
I1
I0
S'least'
p317
tp318
a(I51
I1
F0.5
S'expensive'
p319
tp320
a(I60
I0
F0.125
S'first'
p321
tp322
a(I71
I1
F-0.125
S'slow'
p323
tp324
a(I91
I3
I0
S'real'
p325
tp326
a(I91
I3
I0
S'sensitive'
p327
tp328
a(I106
I13
I0
S'questionable'
p329
tp330
a(I113
I7
F-0.625
S'other'
p331
tp332
a(I123
I3
F-0.875
S'hard'
p333
tp334
a(I139
I0
I0
S'resistive'
p335
tp336
a(I178
I0
I0
S'current'
p337
tp338
a(I208
I0
F0.125
S'first'
p339
tp340
a(I208
I0
F0.375
S'new'
p341
tp342
a(I220
I4
F0.25
S'responsive'
p343
tp344
a(I220
I4
F-0.625
S'other'
p345
tp346
a(I220
I6
F0.25
S'responsive'
p347
tp348
a(I251
I2
F0.875
S'nice'
p349
tp350
a(I295
I0
F-0.375
S'crazy'
p351
tp352
a(I309
I7
F0.625
S'perfect'
p353
tp354
a(I309
I7
F0.125
S'able'
p355
tp356
a(I321
I1
F1.0
S'good'
p357
tp358
a(I342
I2
F-0.375
S'disable'
p359
tp360
a(I367
I2
F0.125
S'first'
p361
tp362
a(I395
I0
F-0.75
S'insensitive'
p363
tp364
a(I451
I1
F0.125
S'first'
p365
tp366
a(I476
I2
F0.125
S'solid'
p367
tp368
a(I478
I21
F0.25
S'larger'
p369
tp370
a(I478
I21
I0
S'more'
p371
tp372
a(I478
I21
F0.25
S'responsive'
p373
tp374
a(I488
I2
F1.0
S'good'
p375
tp376
a(I490
I5
I0
S'dictionary'
p377
tp378
a(I491
I2
F0.625
S'easy'
p379
tp380
a(I556
I0
F-0.875
S'harder'
p381
tp382
a(I556
I0
F0.125
S'usual'
p383
tp384
a(I562
I3
F0.5
S'expensive'
p385
tp386
a(I562
I3
F0.875
S'nice'
p387
tp388
a(I577
I1
F-0.875
S'harder'
p389
tp390
a(I593
I2
F-0.375
S'simple'
p391
tp392
a(I614
I0
F-0.5
S'poor'
p393
tp394
a(I616
I1
I0
S'user'
p395
tp396
a(I652
I7
F-0.625
S'other'
p397
tp398
a(I675
I2
F-0.625
S'light'
p399
tp400
a(I681
I1
F-0.125
S'overall'
p401
tp402
a(I681
I1
F1.0
S'good'
p403
tp404
a(I697
I3
I0
S'great'
p405
tp406
a(I699
I11
F1.0
S'good'
p407
tp408
a(I699
I11
F0.875
S'nice'
p409
tp410
a(I876
I3
I0
S'handy'
p411
tp412
a(I884
I2
F0.25
S'responsive'
p413
tp414
a(I891
I11
I0
S'plastic'
p415
tp416
a(I929
I2
I0
S'large'
p417
tp418
a(I968
I1
F-0.375
S'disable'
p419
tp420
a(I1002
I2
F-0.75
S'unresponsive'
p421
tp422
a(I1072
I12
F0.375
S'early'
p423
tp424
a(I1082
I0
F0.375
S'much'
p425
tp426
a(I1097
I5
F-0.125
S'accidental'
p427
tp428
a(I1137
I23
I0
S'least'
p429
tp430
as(S'years'
p431
tp432
(lp433
(I0
I0
I0
S'old'
p434
tp435
a(I0
I1
F-0.25
S'past'
p436
tp437
a(I44
I22
I0
S'few'
p438
tp439
a(I106
I3
F-0.25
S'cheapest'
p440
tp441
a(I123
I0
I0
S'many'
p442
tp443
a(I128
I0
I0
S'few'
p444
tp445
a(I163
I0
I0
S'many'
p446
tp447
a(I171
I0
I0
S'net'
p448
tp449
a(I247
I3
F-0.875
S'harder'
p450
tp451
a(I296
I0
F-0.25
S'past'
p452
tp453
a(I296
I2
F0.875
S'happy'
p454
tp455
a(I296
I19
I0
S'old'
p456
tp457
a(I327
I3
I0
S'few'
p458
tp459
a(I378
I0
F-0.25
S'past'
p460
tp461
a(I388
I3
I0
S'next'
p462
tp463
a(I388
I3
I0
S'more'
p464
tp465
a(I496
I1
I0
S'full'
p466
tp467
a(I501
I2
I0
S'many'
p468
tp469
a(I608
I4
I0
S'many'
p470
tp471
a(I749
I2
I0
S'old'
p472
tp473
a(I771
I0
F-0.625
S'light'
p474
tp475
a(I808
I1
I0
S'few'
p476
tp477
a(I808
I1
F-0.75
S'comfortable'
p478
tp479
a(I835
I3
I0
S'few'
p480
tp481
a(I875
I1
F0.125
S'last'
p482
tp483
a(I878
I0
I0
S'few'
p484
tp485
a(I878
I4
I0
S'few'
p486
tp487
a(I952
I0
I0
S'many'
p488
tp489
a(I956
I0
I0
S'few'
p490
tp491
a(I1102
I1
I0
S'old'
p492
tp493
a(I1112
I0
F0.5
S'second'
p494
tp495
a(I1147
I0
I0
S'old'
p496
tp497
a(I1147
I0
F-0.375
S'kid'
p498
tp499
as(S'quality'
p500
tp501
(lp502
(I46
I1
F-0.125
S'overall'
p503
tp504
a(I70
I2
F1.0
S'good'
p505
tp506
a(I146
I1
F1.0
S'good'
p507
tp508
a(I171
I4
F-0.875
S'awful'
p509
tp510
a(I171
I4
I0
S'net'
p511
tp512
a(I243
I1
F1.0
S'good'
p513
tp514
a(I245
I8
F0.625
S'decent'
p515
tp516
a(I276
I1
I0
S'great'
p517
tp518
a(I336
I3
F1.0
S'good'
p519
tp520
a(I355
I0
F0.5
S'comparable'
p521
tp522
a(I436
I1
F0.875
S'happy'
p523
tp524
a(I456
I4
F-0.5
S'poor'
p525
tp526
a(I488
I2
I0
S'great'
p527
tp528
a(I490
I4
F-0.5
S'poor'
p529
tp530
a(I553
I5
I0
S'great'
p531
tp532
a(I568
I0
F1.0
S'good'
p533
tp534
a(I568
I3
I0
S'great'
p535
tp536
a(I577
I2
F1.0
S'good'
p537
tp538
a(I726
I5
I0
S'few'
p539
tp540
a(I746
I2
F1.0
S'good'
p541
tp542
a(I801
I15
F1.0
S'good'
p543
tp544
a(I876
I3
F1.0
S'good'
p545
tp546
a(I891
I14
F-0.25
S'lower'
p547
tp548
a(I920
I7
F1.0
S'good'
p549
tp550
a(I977
I1
F1.0
S'good'
p551
tp552
a(I997
I4
F1.0
S'better'
p553
tp554
a(I999
I1
I0
S'high'
p555
tp556
a(I1031
I10
F1.0
S'good'
p557
tp558
a(I1062
I17
F1.0
S'good'
p559
tp560
a(I1067
I0
I0
S'great'
p561
tp562
a(I1088
I4
F0.5
S'clear'
p563
tp564
as(S'touchscreen'
p565
tp566
(lp567
(I19
I2
F0.125
S'first'
p568
tp569
a(I143
I1
I0
S'resistive'
p570
tp571
a(I143
I1
I0
S'capacitive'
p572
tp573
a(I266
I1
I0
S'sensitive'
p574
tp575
a(I298
I6
F0.125
S'first'
p576
tp577
a(I299
I4
I0
S'most'
p578
tp579
a(I299
I4
F-0.25
S'disappointing'
p580
tp581
a(I309
I4
F0.375
S'new'
p582
tp583
a(I361
I0
F0.625
S'easy'
p584
tp585
a(I422
I3
F-0.875
S'trouble'
p586
tp587
a(I578
I0
F-0.875
S'worst'
p588
tp589
a(I615
I1
F0.25
S'responsive'
p590
tp591
a(I615
I1
I0
S'resistive'
p592
tp593
a(I708
I0
I0
S'great'
p594
tp595
a(I984
I3
I0
S'large'
p596
tp597
a(I1072
I9
I0
S'resistive'
p598
tp599
a(I1072
I11
I0
S'resistive'
p600
tp601
a(I1072
I11
F0.75
S'ideal'
p602
tp603
a(I1072
I18
I0
S'jerky'
p604
tp605
a(I1097
I0
F1.0
S'good'
p606
tp607
a(I1097
I0
F-0.375
S'simple'
p608
tp609
a(I1171
I12
F-0.75
S'unresponsive'
p610
tp611
as(S'a'
p612
S'micro'
p613
S'sd'
p614
tp615
(lp616
(I757
I0
I0
S'wish'
p617
tp618
a(I812
I5
I0
S'old'
p619
tp620
a(I857
I6
I0
S'optional'
p621
tp622
a(I1114
I3
F-0.25
S'higher'
p623
tp624
as(g612
S'good'
p625
S'deal'
p626
tp627
(lp628
(I24
I0
F1.0
S'good'
p629
tp630
a(I237
I0
F1.0
S'good'
p631
tp632
a(I354
I4
F1.0
S'good'
p633
tp634
a(I365
I1
F1.0
S'good'
p635
tp636
a(I365
I5
F1.0
S'good'
p637
tp638
a(I465
I5
F1.0
S'good'
p639
tp640
a(I481
I1
F1.0
S'good'
p641
tp642
a(I512
I0
F1.0
S'good'
p643
tp644
a(I608
I4
F1.0
S'good'
p645
tp646
a(I640
I0
F1.0
S'good'
p647
tp648
a(I701
I2
F1.0
S'good'
p649
tp650
a(I773
I1
F1.0
S'good'
p651
tp652
a(I893
I1
F1.0
S'good'
p653
tp654
a(I985
I0
I0
S'great'
p655
tp656
as(S'unlock'
p657
tp658
(lp659
(I541
I1
F-0.125
S'slow'
p660
tp661
a(I604
I5
I0
S'quick'
p662
tp663
a(I1054
I9
F0.125
S'first'
p664
tp665
a(I1054
I24
F0.125
S'first'
p666
tp667
a(I1096
I8
F0.125
S'key'
p668
tp669
as(S'sd'
p670
S'card'
p671
tp672
(lp673
(I36
I12
F0.875
S'nice'
p674
tp675
a(I65
I4
I0
S'quick'
p676
tp677
a(I218
I1
F0.875
S'music'
p678
tp679
a(I378
I19
F0.375
S'available'
p680
tp681
a(I408
I2
F0.125
S'able'
p682
tp683
a(I564
I1
F-0.625
S'free'
p684
tp685
a(I767
I3
F0.5
S'compatible'
p686
tp687
a(I1031
I0
F-0.875
S'hard'
p688
tp689
a(I1088
I9
F0.875
S'music'
p690
tp691
a(I1137
I36
I0
S'great'
p692
tp693
a(I1171
I20
F0.25
S'read'
p694
tp695
as(S'customer'
p696
tp697
(lp698
(I44
I15
F-0.625
S'average'
p699
tp700
a(I96
I4
F0.875
S'happy'
p701
tp702
a(I123
I0
F0.5
S'satisfied'
p703
tp704
a(I138
I7
I0
S'great'
p705
tp706
a(I165
I6
I0
S'faster'
p707
tp708
a(I192
I4
F0.875
S'nice'
p709
tp710
a(I192
I12
F0.375
S'available'
p711
tp712
a(I192
I12
I0
S'email'
p713
tp714
a(I237
I3
F0.125
S'first'
p715
tp716
a(I265
I10
F-0.5
S'poor'
p717
tp718
a(I388
I3
F-0.875
S'dishonest'
p719
tp720
a(I435
I7
I0
S'different'
p721
tp722
a(I522
I2
F0.5
S'told'
p723
tp724
a(I758
I0
F0.5
S'told'
p725
tp726
a(I769
I3
F-0.5
S'poor'
p727
tp728
a(I932
I8
I0
S'faster'
p729
tp730
a(I942
I1
I0
S'same'
p731
tp732
a(I1061
I4
I0
S'great'
p733
tp734
as(S'triple'
p735
tp736
(lp737
(I28
I22
F0.75
g107
tp738
a(I77
I6
I0
g117
tp739
a(I91
I8
F0.375
g119
tp740
a(I210
I8
F0.875
g129
tp741
a(I262
I0
I0
g133
tp742
a(I283
I28
I0
g141
tp743
a(I396
I3
I0
g165
tp744
a(I399
I0
F0.625
g167
tp745
a(I573
I2
I0
g193
tp746
a(I587
I6
I0
g197
tp747
a(I592
I3
F0.875
g199
tp748
a(I653
I0
I0
S'great'
p749
tp750
a(I654
I0
F-0.75
g219
tp751
a(I680
I0
F0.5
g227
tp752
a(I729
I4
F0.75
g243
tp753
a(I747
I2
F0.625
g245
tp754
a(I751
I3
I0
g247
tp755
a(I791
I2
I0
g253
tp756
a(I799
I2
F0.875
g256
tp757
a(I842
I18
F0.375
g262
tp758
a(I1137
I19
F0.875
g304
tp759
as(S'and'
p760
S'triple'
p761
S'minutes'
p762
tp763
(lp764
(I28
I4
I0
g101
tp765
a(I28
I4
F-0.625
g103
tp766
a(I28
I4
F-0.25
g105
tp767
a(I28
I25
F-0.25
g109
tp768
a(I64
I5
F0.875
g111
tp769
a(I68
I1
F-0.375
g113
tp770
a(I68
I1
F0.625
g115
tp771
a(I77
I6
I0
g117
tp772
a(I160
I5
F-0.25
g127
tp773
a(I210
I8
F0.875
g129
tp774
a(I246
I0
F-0.25
g131
tp775
a(I262
I0
I0
g133
tp776
a(I268
I8
F-0.375
g135
tp777
a(I283
I25
F0.375
g137
tp778
a(I283
I25
F-0.25
g139
tp779
a(I283
I28
I0
g141
tp780
a(I308
I1
F-0.25
g147
tp781
a(I317
I3
F-0.25
g149
tp782
a(I336
I7
F-0.25
g153
tp783
a(I378
I38
F0.875
g161
tp784
a(I378
I38
F0.125
g163
tp785
a(I396
I3
I0
g165
tp786
a(I399
I0
F0.625
g167
tp787
a(I399
I0
I0
g169
tp788
a(I463
I3
F-0.25
g171
tp789
a(I499
I1
F-0.25
g177
tp790
a(I502
I8
F-0.25
g179
tp791
a(I502
I8
F-0.375
g181
tp792
a(I512
I0
F-0.25
g183
tp793
a(I514
I0
F-0.25
g185
tp794
a(I536
I1
F-0.25
g187
tp795
a(I537
I1
F-0.375
g189
tp796
a(I555
I1
F-0.25
g191
tp797
a(I592
I3
F0.875
g199
tp798
a(I593
I1
I0
g201
tp799
a(I593
I1
F0.375
g203
tp800
a(I593
I1
F-0.5
g205
tp801
a(I630
I2
F-0.25
g207
tp802
a(I635
I1
F-0.5
g209
tp803
a(I635
I1
I0
g211
tp804
a(I635
I1
F-0.375
g213
tp805
a(I635
I1
F-0.25
g215
tp806
a(I680
I6
F-0.75
g229
tp807
a(I680
I6
F-0.75
g231
tp808
a(I680
I6
I0
g233
tp809
a(I699
I27
F-0.25
g239
tp810
a(I764
I1
F-0.25
g249
tp811
a(I789
I4
F-0.25
g251
tp812
a(I791
I2
I0
g253
tp813
a(I792
I8
F-0.25
g93
tp814
a(I801
I17
F-0.25
g258
tp815
a(I842
I18
F0.375
g262
tp816
a(I898
I6
I0
g264
tp817
a(I920
I0
F-0.25
g266
tp818
a(I920
I0
F-0.375
g268
tp819
a(I929
I0
F-0.25
g274
tp820
a(I950
I2
F-0.375
g276
tp821
a(I963
I5
F0.375
g278
tp822
a(I1024
I0
F-0.375
g284
tp823
a(I1061
I9
F-0.25
g288
tp824
a(I1085
I4
F-0.25
g292
tp825
a(I1092
I0
I0
g296
tp826
a(I1092
I0
F-0.25
g298
tp827
a(I1166
I2
F-0.25
g310
tp828
as(S'new'
p829
S'sim'
p830
S'card'
p831
tp832
(lp833
(I35
I1
F-0.625
S'bad'
p834
tp835
a(I72
I2
F-0.75
S'wrong'
p836
tp837
a(I72
I3
F0.375
S'new'
p838
tp839
a(I111
I0
F0.375
S'new'
p840
tp841
a(I115
I1
F0.5
S'told'
p842
tp843
a(I168
I4
F0.375
S'new'
p844
tp845
a(I197
I9
F0.375
S'new'
p846
tp847
a(I206
I3
F0.375
S'new'
p848
tp849
a(I206
I4
F0.375
S'new'
p850
tp851
a(I232
I2
F0.375
S'new'
p852
tp853
a(I247
I2
F0.375
S'new'
p854
tp855
a(I247
I19
F0.375
S'new'
p856
tp857
a(I333
I6
F0.375
S'new'
p858
tp859
a(I355
I20
F0.375
S'new'
p860
tp861
a(I562
I1
F0.5
S'compatible'
p862
tp863
a(I707
I10
F-0.75
S'wrong'
p864
tp865
a(I828
I2
F0.375
S'new'
p866
tp867
a(I849
I0
I0
S'activate'
p868
tp869
a(I861
I5
F0.375
S'new'
p870
tp871
a(I878
I7
F0.25
S'original'
p872
tp873
a(I957
I5
F0.375
S'new'
p874
tp875
a(I992
I2
F0.375
S'new'
p876
tp877
a(I1027
I3
F0.375
S'new'
p878
tp879
a(I1155
I3
F0.375
S'new'
p880
tp881
as(S'sim'
p882
S'card'
p883
tp884
(lp885
(I35
I1
F-0.625
g834
tp886
a(I66
I1
I0
S'different'
p887
tp888
a(I72
I2
F-0.75
g836
tp889
a(I72
I3
F0.375
g838
tp890
a(I87
I1
F-0.625
S'bad'
p891
tp892
a(I111
I0
F0.375
g840
tp893
a(I115
I1
F0.5
g842
tp894
a(I122
I1
I0
S'different'
p895
tp896
a(I168
I4
F0.375
g844
tp897
a(I197
I9
F0.375
g846
tp898
a(I197
I10
I0
S'old'
p899
tp900
a(I206
I3
F0.375
g848
tp901
a(I206
I4
F0.375
g850
tp902
a(I226
I0
F0.25
S'original'
p903
tp904
a(I226
I0
F-0.625
S'bad'
p905
tp906
a(I232
I2
F0.375
g852
tp907
a(I247
I2
F0.375
g854
tp908
a(I247
I19
F0.375
g856
tp909
a(I333
I6
F0.375
g858
tp910
a(I355
I20
F0.375
g860
tp911
a(I515
I3
F-0.75
S'impossible'
p912
tp913
a(I562
I0
F-0.875
S'unhappy'
p914
tp915
a(I562
I0
F-0.625
S'ineffective'
p916
tp917
a(I562
I1
F0.5
g862
tp918
a(I606
I1
F-0.375
S'fatal'
p919
tp920
a(I637
I1
F-0.75
S'wrong'
p921
tp922
a(I651
I3
F-0.667
S'incompatible'
p923
tp924
a(I707
I6
F-0.75
S'wrong'
p925
tp926
a(I707
I10
F-0.75
g864
tp927
a(I788
I0
F1.0
S'better'
p928
tp929
a(I800
I1
F-0.75
S'wrong'
p930
tp931
a(I828
I1
F0.5
S'told'
p932
tp933
a(I828
I1
F0.5
S'compatible'
p934
tp935
a(I828
I2
F0.375
g866
tp936
a(I828
I5
I0
S'third'
p937
tp938
a(I849
I0
I0
g868
tp939
a(I861
I5
F0.375
g870
tp940
a(I878
I7
F0.25
g872
tp941
a(I957
I5
F0.375
g874
tp942
a(I992
I2
F0.375
g876
tp943
a(I1027
I3
F0.375
g878
tp944
a(I1116
I0
F0.5
S'compatible'
p945
tp946
a(I1155
I3
F0.375
g880
tp947
as(S'with'
p948
S'triple'
p949
S'minutes'
p950
tp951
(lp952
(I28
I3
F-0.25
g99
tp953
a(I28
I4
I0
g101
tp954
a(I28
I4
F-0.625
g103
tp955
a(I28
I4
F-0.25
g105
tp956
a(I28
I25
F-0.25
g109
tp957
a(I136
I1
F-0.25
g121
tp958
a(I136
I1
F-0.75
g123
tp959
a(I143
I0
F-0.375
g125
tp960
a(I160
I5
F-0.25
g127
tp961
a(I246
I0
F-0.25
g131
tp962
a(I283
I25
F0.375
g137
tp963
a(I283
I25
F-0.25
g139
tp964
a(I290
I11
F-0.25
g143
tp965
a(I303
I3
F-0.25
g145
tp966
a(I308
I1
F-0.25
g147
tp967
a(I317
I3
F-0.25
g149
tp968
a(I347
I6
F-0.25
g155
tp969
a(I352
I2
F-0.25
g157
tp970
a(I378
I38
F0.875
g161
tp971
a(I378
I38
F0.125
g163
tp972
a(I463
I3
F-0.25
g171
tp973
a(I481
I1
F-0.25
g173
tp974
a(I502
I8
F-0.25
g179
tp975
a(I502
I8
F-0.375
g181
tp976
a(I512
I0
F-0.25
g183
tp977
a(I536
I1
F-0.25
g187
tp978
a(I537
I1
F-0.375
g189
tp979
a(I555
I1
F-0.25
g191
tp980
a(I630
I2
F-0.25
g207
tp981
a(I647
I2
F-0.25
g217
tp982
a(I654
I6
F-0.375
g221
tp983
a(I654
I6
F-0.375
g223
tp984
a(I654
I6
F0.375
g225
tp985
a(I680
I6
F-0.75
g229
tp986
a(I680
I6
F-0.75
g231
tp987
a(I680
I6
I0
g233
tp988
a(I704
I0
F-0.25
g241
tp989
a(I751
I3
I0
g247
tp990
a(I764
I1
F-0.25
g249
tp991
a(I789
I4
F-0.25
g251
tp992
a(I792
I8
F-0.25
g93
tp993
a(I801
I17
F-0.25
g258
tp994
a(I842
I2
F-0.25
g260
tp995
a(I898
I6
I0
g264
tp996
a(I920
I0
F-0.25
g266
tp997
a(I920
I0
F-0.375
g268
tp998
a(I1017
I1
F-0.25
g282
tp999
a(I1024
I0
F-0.375
g284
tp1000
a(I1061
I9
F-0.25
g288
tp1001
a(I1085
I4
F-0.25
g292
tp1002
a(I1086
I4
F-0.25
g294
tp1003
a(I1092
I0
I0
g296
tp1004
a(I1092
I0
F-0.25
g298
tp1005
a(I1115
I6
I0
g300
tp1006
a(I1115
I6
F-0.25
g302
tp1007
a(I1155
I8
F-0.25
g306
tp1008
a(I1155
I8
F-0.375
g308
tp1009
as(S'card'
p1010
tp1011
(lp1012
(I35
I1
F-0.625
g834
tp1013
a(I61
I2
F0.5
S'true'
p1014
tp1015
a(I65
I4
I0
g676
tp1016
a(I115
I5
F0.375
S'new'
p1017
tp1018
a(I122
I1
I0
g895
tp1019
a(I153
I5
I0
S'cable'
p1020
tp1021
a(I158
I0
F0.125
S'able'
p1022
tp1023
a(I167
I5
F0.125
S'able'
p1024
tp1025
a(I226
I0
F-0.625
g905
tp1026
a(I355
I18
F-0.375
S'yearly'
p1027
tp1028
a(I355
I18
I0
S'very'
p1029
tp1030
a(I378
I19
F0.375
g680
tp1031
a(I408
I2
F0.125
g682
tp1032
a(I497
I26
I0
S'total'
p1033
tp1034
a(I562
I1
F0.5
g862
tp1035
a(I564
I1
F-0.625
g684
tp1036
a(I573
I13
F0.375
S'extra'
p1037
tp1038
a(I709
I2
I0
S'great'
p1039
tp1040
a(I767
I3
F0.5
g686
tp1041
a(I767
I4
F0.5
S'told'
p1042
tp1043
a(I828
I1
F0.5
g934
tp1044
a(I1031
I0
F-0.875
g688
tp1045
a(I1088
I9
F0.875
g690
tp1046
a(I1116
I0
F0.5
g945
tp1047
a(I1120
I1
F0.375
S'available'
p1048
tp1049
a(I1137
I36
I0
g692
tp1050
a(I1171
I20
F0.25
g694
tp1051
as(S'love'
p1052
tp1053
(lp1054
(I155
I1
F0.875
S'music'
p1055
tp1056
a(I194
I0
F0.625
S'easy'
p1057
tp1058
as(S'customer'
p1059
S'service'
p1060
tp1061
(lp1062
(I39
I0
F-0.875
S'worst'
p1063
tp1064
a(I138
I7
I0
g705
tp1065
a(I192
I4
F0.875
g709
tp1066
a(I192
I12
F0.375
g711
tp1067
a(I192
I12
I0
g713
tp1068
a(I247
I0
F0.25
S'stellar'
p1069
tp1070
a(I265
I10
F-0.5
g717
tp1071
a(I296
I0
F1.0
S'good'
p1072
tp1073
a(I296
I19
F-0.625
S'bad'
p1074
tp1075
a(I371
I6
I0
S'great'
p1076
tp1077
a(I388
I3
F-0.875
g719
tp1078
a(I435
I7
I0
g721
tp1079
a(I522
I2
F0.5
g723
tp1080
a(I769
I3
F-0.5
g727
tp1081
a(I769
I3
F-0.75
S'stupid'
p1082
tp1083
a(I825
I5
I0
S'pic'
p1084
tp1085
a(I917
I4
F1.0
S'good'
p1086
tp1087
a(I932
I8
I0
g729
tp1088
a(I946
I2
F-0.75
S'difficult'
p1089
tp1090
a(I946
I2
F1.0
S'best'
p1091
tp1092
a(I950
I6
F-0.5
S'poor'
p1093
tp1094
a(I1061
I4
I0
g733
tp1095
as(S'times'
p1096
tp1097
(lp1098
(I7
I1
I0
S'least'
p1099
tp1100
a(I52
I6
F0.5
S'second'
p1101
tp1102
a(I90
I10
I0
S'few'
p1103
tp1104
a(I105
I6
I0
S'least'
p1105
tp1106
a(I109
I0
I0
S'few'
p1107
tp1108
a(I111
I4
I0
S'fast'
p1109
tp1110
a(I126
I1
I0
S'many'
p1111
tp1112
a(I135
I7
F-0.625
S'other'
p1113
tp1114
a(I164
I0
F0.375
S'much'
p1115
tp1116
a(I210
I0
F-0.625
S'other'
p1117
tp1118
a(I245
I8
F0.75
S'worth'
p1119
tp1120
a(I245
I8
I0
S'many'
p1121
tp1122
a(I254
I7
I0
S'few'
p1123
tp1124
a(I264
I1
F-0.625
S'other'
p1125
tp1126
a(I277
I0
I0
S'ephemeral'
p1127
tp1128
a(I413
I1
F-0.75
S'unresponsive'
p1129
tp1130
a(I462
I1
I0
S'few'
p1131
tp1132
a(I620
I4
I0
S'inside'
p1133
tp1134
a(I675
I3
F-0.625
S'other'
p1135
tp1136
a(I684
I0
I0
S'different'
p1137
tp1138
a(I820
I14
I0
S'few'
p1139
tp1140
a(I842
I11
I0
S'many'
p1141
tp1142
a(I895
I1
F-0.5
S'open'
p1143
tp1144
a(I895
I1
F0.375
S'alive'
p1145
tp1146
a(I895
I1
I0
S'more'
p1147
tp1148
a(I948
I1
I0
S'many'
p1149
tp1150
a(I963
I1
F0.25
S'used'
p1151
tp1152
a(I1009
I3
I0
S'sensitive'
p1153
tp1154
a(I1009
I3
F-0.625
S'other'
p1155
tp1156
a(I1020
I12
F0.375
S'much'
p1157
tp1158
a(I1072
I27
I0
S'many'
p1159
tp1160
a(I1137
I40
F-0.625
S'other'
p1161
tp1162
as(S'problem'
p1163
tp1164
(lp1165
(I96
I1
F0.125
S'able'
p1166
tp1167
a(I104
I2
F0.75
S'due'
p1168
tp1169
a(I104
I3
F-0.5
S'sure'
p1170
tp1171
a(I104
I5
I0
S'big'
p1172
tp1173
a(I107
I4
I0
S'only'
p1174
tp1175
a(I110
I3
I0
S'same'
p1176
tp1177
a(I183
I3
I0
S'only'
p1178
tp1179
a(I238
I2
I0
S'same'
p1180
tp1181
a(I247
I14
I0
S'same'
p1182
tp1183
a(I254
I7
I0
S'only'
p1184
tp1185
a(I268
I6
I0
S'same'
p1186
tp1187
a(I293
I3
F0.125
S'first'
p1188
tp1189
a(I525
I7
F-0.625
S'other'
p1190
tp1191
a(I542
I0
F0.25
S'biggest'
p1192
tp1193
a(I544
I7
I0
S'more'
p1194
tp1195
a(I611
I3
I0
S'only'
p1196
tp1197
a(I611
I3
I0
S'real'
p1198
tp1199
a(I642
I3
F-0.875
S'worst'
p1200
tp1201
a(I647
I1
F-0.125
S'slow'
p1202
tp1203
a(I696
I6
I0
S'only'
p1204
tp1205
a(I706
I1
I0
S'own'
p1206
tp1207
a(I780
I6
F0.375
S'much'
p1208
tp1209
a(I835
I6
F0.25
S'biggest'
p1210
tp1211
a(I838
I6
I0
S'same'
p1212
tp1213
a(I858
I12
I0
S'big'
p1214
tp1215
a(I874
I0
F0.625
S'major'
p1216
tp1217
a(I892
I8
I0
S'website'
p1218
tp1219
a(I1002
I2
F0.5
S'second'
p1220
tp1221
a(I1002
I4
F0.625
S'major'
p1222
tp1223
a(I1171
I18
F-0.5
S'sure'
p1224
tp1225
as(S'memory'
p1226
S'card'
p1227
tp1228
(lp1229
(I36
I13
I0
S'internal'
p1230
tp1231
a(I61
I2
F0.5
g1014
tp1232
a(I167
I5
F0.125
g1024
tp1233
a(I182
I2
F0.375
S'extra'
p1234
tp1235
a(I271
I0
I0
S'external'
p1236
tp1237
a(I271
I0
I0
S'sd'
p1238
tp1239
a(I271
I0
I0
S'internal'
p1240
tp1241
a(I271
I0
F0.375
S'much'
p1242
tp1243
a(I378
I22
I0
S'internal'
p1244
tp1245
a(I444
I6
I0
S'external'
p1246
tp1247
a(I570
I5
I0
S'internal'
p1248
tp1249
a(I837
I6
F0.375
S'extra'
p1250
tp1251
a(I1085
I4
I0
S'external'
p1252
tp1253
a(I1085
I4
I0
S'internal'
p1254
tp1255
a(I1115
I3
I0
S'external'
p1256
tp1257
a(I1168
I6
F0.375
S'extra'
p1258
tp1259
as(S'text'
p1260
tp1261
(lp1262
(I28
I28
F0.625
S'easy'
p1263
tp1264
a(I28
I28
F-0.625
S'free'
p1265
tp1266
a(I49
I1
I0
S'big'
p1267
tp1268
a(I92
I12
F0.375
S'available'
p1269
tp1270
a(I135
I9
I0
S'large'
p1271
tp1272
a(I145
I3
I0
S'enter'
p1273
tp1274
a(I145
I4
F0.375
S'new'
p1275
tp1276
a(I277
I2
F-0.5
S'disappear'
p1277
tp1278
a(I367
I4
F-0.125
S'overall'
p1279
tp1280
a(I383
I9
F0.375
S'new'
p1281
tp1282
a(I383
I9
F-0.75
S'unable'
p1283
tp1284
a(I490
I10
F0.625
S'major'
p1285
tp1286
a(I674
I5
I0
S'even'
p1287
tp1288
a(I707
I3
F0.375
S'new'
p1289
tp1290
a(I720
I3
F-0.375
S'small'
p1291
tp1292
a(I895
I4
F0.625
S'perfect'
p1293
tp1294
a(I1017
I0
F0.75
S'receive'
p1295
tp1296
a(I1113
I2
F0.75
S'receive'
p1297
tp1298
a(I1158
I2
I0
S'traditional'
p1299
tp1300
as(g612
S'great'
p1301
S'little'
p1302
tp1303
(lp1304
(I994
I5
I0
S'diversified'
p1305
tp1306
as(S'price'
p1307
tp1308
(lp1309
(I42
I5
F0.75
S'worth'
p1310
tp1311
a(I42
I5
F-0.25
S'low'
p1312
tp1313
a(I52
I18
F-0.25
S'low'
p1314
tp1315
a(I61
I1
I0
S'useful'
p1316
tp1317
a(I71
I3
F1.0
S'good'
p1318
tp1319
a(I71
I3
F-0.75
S'tough'
p1320
tp1321
a(I71
I3
F0.5
S'willing'
p1322
tp1323
a(I71
I4
F-0.125
S'overall'
p1324
tp1325
a(I96
I2
F0.75
S'worth'
p1326
tp1327
a(I160
I5
F-0.5
S'less'
p1328
tp1329
a(I224
I1
F0.5
S'reasonable'
p1330
tp1331
a(I240
I0
I0
S'great'
p1332
tp1333
a(I251
I4
F0.5
S'reasonable'
p1334
tp1335
a(I253
I1
I0
S'great'
p1336
tp1337
a(I295
I1
I0
S'great'
p1338
tp1339
a(I323
I0
F-0.625
S'bad'
p1340
tp1341
a(I328
I1
I0
S'great'
p1342
tp1343
a(I337
I5
F0.5
S'reasonable'
p1344
tp1345
a(I341
I2
F1.0
S'good'
p1346
tp1347
a(I342
I1
I0
S'great'
p1348
tp1349
a(I355
I12
F-0.75
S'wrong'
p1350
tp1351
a(I372
I1
F-0.375
S'small'
p1352
tp1353
a(I375
I0
I0
S'great'
p1354
tp1355
a(I384
I11
I0
S'same'
p1356
tp1357
a(I391
I2
F0.75
S'worth'
p1358
tp1359
a(I401
I0
F-0.25
S'lowest'
p1360
tp1361
a(I409
I15
F-0.125
S'overall'
p1362
tp1363
a(I409
I15
F-0.625
S'bad'
p1364
tp1365
a(I442
I0
I0
S'great'
p1366
tp1367
a(I461
I2
I0
S'great'
p1368
tp1369
a(I469
I0
I0
S'same'
p1370
tp1371
a(I491
I3
F0.5
S'clear'
p1372
tp1373
a(I508
I10
I0
S'same'
p1374
tp1375
a(I508
I10
I0
S'site'
p1376
tp1377
a(I562
I0
I0
S'great'
p1378
tp1379
a(I572
I0
I0
S'great'
p1380
tp1381
a(I581
I0
F0.875
S'nice'
p1382
tp1383
a(I581
I0
F0.625
S'easy'
p1384
tp1385
a(I584
I3
F-0.75
S'tough'
p1386
tp1387
a(I590
I1
F0.5
S'reasonable'
p1388
tp1389
a(I634
I1
F1.0
S'good'
p1390
tp1391
a(I647
I8
F-0.75
S'wrong'
p1392
tp1393
a(I663
I3
F0.75
S'worth'
p1394
tp1395
a(I679
I5
F0.5
S'reasonable'
p1396
tp1397
a(I720
I2
F1.0
S'best'
p1398
tp1399
a(I720
I2
I0
S'net'
p1400
tp1401
a(I730
I1
I0
S'great'
p1402
tp1403
a(I759
I0
I0
S'more'
p1404
tp1405
a(I780
I13
F-0.75
S'wrong'
p1406
tp1407
a(I830
I3
F-0.25
S'low'
p1408
tp1409
a(I879
I1
F-0.5
S'less'
p1410
tp1411
a(I885
I1
I0
S'great'
p1412
tp1413
a(I889
I2
F1.0
S'good'
p1414
tp1415
a(I890
I1
F0.625
S'easy'
p1416
tp1417
a(I915
I0
I0
S'great'
p1418
tp1419
a(I920
I1
F-0.25
S'cheaper'
p1420
tp1421
a(I948
I6
F0.75
S'worth'
p1422
tp1423
a(I953
I17
F-0.75
S'wrong'
p1424
tp1425
a(I962
I3
I0
S'same'
p1426
tp1427
a(I965
I1
I0
S'great'
p1428
tp1429
a(I992
I1
I0
S'great'
p1430
tp1431
a(I994
I0
I0
S'great'
p1432
tp1433
a(I994
I6
F-0.5
S'less'
p1434
tp1435
a(I1003
I2
F1.0
S'good'
p1436
tp1437
a(I1003
I2
F1.0
S'good'
p1438
tp1439
a(I1007
I0
I0
S'great'
p1440
tp1441
a(I1024
I0
F0.875
S'nice'
p1442
tp1443
a(I1044
I0
I0
S'great'
p1444
tp1445
a(I1075
I0
F-0.25
S'lower'
p1446
tp1447
a(I1121
I3
F1.0
S'good'
p1448
tp1449
a(I1144
I6
I0
S'such'
p1450
tp1451
a(I1146
I0
F1.0
S'good'
p1452
tp1453
a(I1147
I1
F1.0
S'best'
p1454
tp1455
a(I1149
I0
I0
S'great'
p1456
tp1457
a(I1155
I12
F-0.25
S'lower'
p1458
tp1459
a(I1155
I13
I0
S'great'
p1460
tp1461
a(I1168
I15
I0
S'full'
p1462
tp1463
a(I1172
I1
F0.375
S'much'
p1464
tp1465
a(I1172
I1
F1.0
S'better'
p1466
tp1467
as(S'service'
p1468
tp1469
(lp1470
(I0
I7
F0.75
S'consider'
p1471
tp1472
a(I0
I7
F-0.625
S'other'
p1473
tp1474
a(I4
I0
F1.0
S'best'
p1475
tp1476
a(I15
I2
F0.875
S'nice'
p1477
tp1478
a(I29
I1
I0
S'full'
p1479
tp1480
a(I39
I0
F-0.875
g1063
tp1481
a(I65
I5
I0
S'net'
p1482
tp1483
a(I65
I5
F-0.125
S'slow'
p1484
tp1485
a(I88
I4
I0
S'more'
p1486
tp1487
a(I113
I9
F-0.25
S'inexpensive'
p1488
tp1489
a(I121
I1
I0
S'hardware'
p1490
tp1491
a(I139
I5
F-0.25
S'inexpensive'
p1492
tp1493
a(I144
I1
I0
S'great'
p1494
tp1495
a(I146
I9
F1.0
S'better'
p1496
tp1497
a(I171
I1
F0.875
S'happy'
p1498
tp1499
a(I211
I1
F-0.375
S'manual'
p1500
tp1501
a(I224
I0
I0
S'great'
p1502
tp1503
a(I247
I0
F0.25
g1069
tp1504
a(I261
I0
F-0.875
S'worst'
p1505
tp1506
a(I264
I3
F-0.125
S'mine'
p1507
tp1508
a(I268
I16
F0.5
S'established'
p1509
tp1510
a(I293
I10
F-0.875
S'worst'
p1511
tp1512
a(I296
I0
F1.0
g1072
tp1513
a(I296
I19
F-0.625
g1074
tp1514
a(I338
I4
F1.0
S'good'
p1515
tp1516
a(I338
I4
I0
S'prior'
p1517
tp1518
a(I371
I6
I0
g1076
tp1519
a(I388
I5
I0
S'great'
p1520
tp1521
a(I424
I4
I0
S'quick'
p1522
tp1523
a(I426
I2
F1.0
S'good'
p1524
tp1525
a(I444
I4
F0.875
S'happy'
p1526
tp1527
a(I469
I5
I0
S'same'
p1528
tp1529
a(I481
I1
I0
S'signal'
p1530
tp1531
a(I481
I1
I0
S'great'
p1532
tp1533
a(I503
I0
I0
S'great'
p1534
tp1535
a(I520
I2
F1.0
S'good'
p1536
tp1537
a(I586
I11
F-0.5
S'poor'
p1538
tp1539
a(I634
I2
F1.0
S'good'
p1540
tp1541
a(I655
I1
F-0.5
S'poor'
p1542
tp1543
a(I672
I4
F-0.5
S'unavailable'
p1544
tp1545
a(I672
I8
F0.375
S'available'
p1546
tp1547
a(I685
I3
I0
S'active'
p1548
tp1549
a(I729
I0
F0.375
S'much'
p1550
tp1551
a(I729
I0
I0
S'monthly'
p1552
tp1553
a(I738
I4
I0
S'great'
p1554
tp1555
a(I769
I3
F-0.75
g1082
tp1556
a(I771
I3
I0
S'real'
p1557
tp1558
a(I771
I3
F0.625
S'easy'
p1559
tp1560
a(I825
I5
I0
g1084
tp1561
a(I917
I4
F1.0
g1086
tp1562
a(I946
I2
F-0.75
g1089
tp1563
a(I946
I2
F1.0
g1091
tp1564
a(I950
I6
F-0.5
g1093
tp1565
a(I950
I8
F1.0
S'good'
p1566
tp1567
a(I952
I0
F1.0
S'good'
p1568
tp1569
a(I952
I0
F-0.25
S'low'
p1570
tp1571
a(I1005
I10
F1.0
S'good'
p1572
tp1573
a(I1113
I0
I0
S'many'
p1574
tp1575
a(I1118
I1
I0
S'monthly'
p1576
tp1577
as(S'getting'
p1578
tp1579
(lp1580
(I300
I10
I0
S'storage'
p1581
tp1582
a(I504
I8
F-0.25
S'scratched'
p1583
tp1584
a(I504
I8
F0.75
S'due'
p1585
tp1586
a(I932
I4
I0
S'half-hour'
p1587
tp1588
as(S'number'
p1589
tp1590
(lp1591
(I28
I11
F0.625
S'successful'
p1592
tp1593
a(I105
I2
I0
S'old'
p1594
tp1595
a(I107
I2
I0
S'old'
p1596
tp1597
a(I141
I9
F0.375
S'new'
p1598
tp1599
a(I141
I10
I0
S'old'
p1600
tp1601
a(I141
I10
F0.375
S'new'
p1602
tp1603
a(I157
I7
F0.375
S'new'
p1604
tp1605
a(I168
I2
F-0.75
S'invalid'
p1606
tp1607
a(I192
I7
F-0.5
S'certain'
p1608
tp1609
a(I208
I0
I0
S'cool'
p1610
tp1611
a(I329
I3
I0
S'same'
p1612
tp1613
a(I338
I4
I0
S'cellular'
p1614
tp1615
a(I369
I4
I0
S'next'
p1616
tp1617
a(I370
I3
F0.375
S'available'
p1618
tp1619
a(I378
I6
I0
S'old'
p1620
tp1621
a(I383
I11
F0.125
S'last'
p1622
tp1623
a(I435
I2
I0
S'old'
p1624
tp1625
a(I437
I3
I0
S'serial'
p1626
tp1627
a(I460
I1
I0
S'old'
p1628
tp1629
a(I460
I1
F0.375
S'new'
p1630
tp1631
a(I484
I0
I0
S'old'
p1632
tp1633
a(I484
I9
F0.375
S'complete'
p1634
tp1635
a(I484
I13
F0.375
S'new'
p1636
tp1637
a(I484
I20
F0.375
S'new'
p1638
tp1639
a(I534
I3
F0.5
S'touch'
p1640
tp1641
a(I559
I4
I0
S'dial'
p1642
tp1643
a(I576
I1
I0
S'old'
p1644
tp1645
a(I652
I8
I0
S'more'
p1646
tp1647
a(I652
I8
F0.875
S'important'
p1648
tp1649
a(I652
I10
F0.375
S'new'
p1650
tp1651
a(I696
I3
F0.375
S'new'
p1652
tp1653
a(I778
I3
I0
S'id'
p1654
tp1655
a(I806
I2
I0
S'old'
p1656
tp1657
a(I806
I2
F0.375
S'new'
p1658
tp1659
a(I806
I2
F0.625
S'easier'
p1660
tp1661
a(I904
I3
F0.125
S'digital'
p1662
tp1663
a(I919
I10
I0
S'enter'
p1664
tp1665
a(I1062
I14
F0.375
S'significant'
p1666
tp1667
a(I1100
I0
F-0.75
S'wrong'
p1668
tp1669
a(I1155
I7
I0
S'old'
p1670
tp1671
a(I1168
I18
F0.5
S'temporary'
p1672
tp1673
as(S'need'
p1674
tp1675
(lp1676
(I409
I5
I0
S'many'
p1677
tp1678
as(S'memory'
p1679
tp1680
(lp1681
(I36
I13
I0
g1230
tp1682
a(I54
I2
I0
S'large'
p1683
tp1684
a(I74
I1
I0
S'external'
p1685
tp1686
a(I74
I11
I0
S'external'
p1687
tp1688
a(I106
I7
I0
S'cable'
p1689
tp1690
a(I171
I13
I0
S'full'
p1691
tp1692
a(I171
I13
F-0.875
S'insufficient'
p1693
tp1694
a(I182
I2
F0.375
g1234
tp1695
a(I271
I0
I0
g1236
tp1696
a(I271
I0
I0
g1238
tp1697
a(I271
I0
I0
g1240
tp1698
a(I271
I0
F0.375
g1242
tp1699
a(I333
I15
I0
S'external'
p1700
tp1701
a(I355
I2
I0
S'more'
p1702
tp1703
a(I378
I22
I0
g1244
tp1704
a(I444
I6
I0
g1246
tp1705
a(I570
I5
I0
g1248
tp1706
a(I641
I3
I0
S'more'
p1707
tp1708
a(I837
I6
F0.375
g1250
tp1709
a(I1062
I9
F1.0
S'good'
p1710
tp1711
a(I1085
I4
I0
g1252
tp1712
a(I1085
I4
I0
g1254
tp1713
a(I1115
I3
I0
g1256
tp1714
a(I1168
I6
F0.375
g1258
tp1715
a(I1168
I9
I0
S'internal'
p1716
tp1717
a(I1168
I11
F-0.875
S'hard'
p1718
tp1719
as(S'make'
p1720
g612
S'call'
p1721
tp1722
(lp1723
(I268
I13
I0
S'more'
p1724
tp1725
a(I614
I0
I0
S'such'
p1726
tp1727
as(S'right'
p1728
tp1729
(lp1730
(I153
I9
F-0.375
S'top'
p1731
tp1732
a(I237
I8
F1.0
S'good'
p1733
tp1734
a(I281
I4
F-0.25
S'lower'
p1735
tp1736
a(I281
I4
F-0.25
S'lower'
p1737
tp1738
a(I322
I1
F0.625
S'easy'
p1739
tp1740
a(I365
I32
F-0.375
S'top'
p1741
tp1742
a(I373
I0
I0
S'narrow'
p1743
tp1744
a(I423
I10
F-0.75
S'difficult'
p1745
tp1746
a(I594
I0
F-0.375
S'top'
p1747
tp1748
a(I1047
I0
F1.0
S'better'
p1749
tp1750
a(I1047
I0
F0.625
S'easy'
p1751
tp1752
as(S'tracfone'
p1753
tp1754
(lp1755
(I28
I1
F-0.5
S'less'
p1756
tp1757
a(I28
I1
F0.5
S'expensive'
p1758
tp1759
a(I44
I0
I0
S'old'
p1760
tp1761
a(I44
I21
F-0.25
S'cheapest'
p1762
tp1763
a(I47
I3
F0.625
S'easy'
p1764
tp1765
a(I47
I3
F0.625
S'easy'
p1766
tp1767
a(I47
I3
I0
S'old'
p1768
tp1769
a(I51
I1
F0.5
S'second'
p1770
tp1771
a(I56
I1
F0.25
S'familiar'
p1772
tp1773
a(I87
I1
I0
S'more'
p1774
tp1775
a(I96
I1
I0
S'old'
p1776
tp1777
a(I96
I1
F0.375
S'new'
p1778
tp1779
a(I107
I0
I0
S'old'
p1780
tp1781
a(I113
I9
F0.375
S'reliable'
p1782
tp1783
a(I113
I14
I0
S'phenomenal'
p1784
tp1785
a(I123
I0
I0
S'many'
p1786
tp1787
a(I123
I1
F0.625
S'perfect'
p1788
tp1789
a(I157
I9
I0
S'website'
p1790
tp1791
a(I158
I1
F-0.5
S'call'
p1792
tp1793
a(I173
I0
I0
S'different'
p1794
tp1795
a(I192
I0
I0
S'current'
p1796
tp1797
a(I197
I5
I0
S'on-line'
p1798
tp1799
a(I201
I4
F1.0
S'better'
p1800
tp1801
a(I201
I4
F-0.625
S'other'
p1802
tp1803
a(I225
I0
F0.375
S'available'
p1804
tp1805
a(I225
I0
I0
S'site'
p1806
tp1807
a(I247
I22
I0
S'next'
p1808
tp1809
a(I265
I0
F0.5
S'satisfied'
p1810
tp1811
a(I272
I1
F0.625
S'superior'
p1812
tp1813
a(I286
I2
F0.125
S'first'
p1814
tp1815
a(I293
I8
F-0.5
S'less'
p1816
tp1817
a(I308
I1
I0
S'old'
p1818
tp1819
a(I309
I0
I0
S'different'
p1820
tp1821
a(I318
I2
I0
S'great'
p1822
tp1823
a(I341
I0
I0
S'basic'
p1824
tp1825
a(I347
I3
I0
S'website'
p1826
tp1827
a(I347
I8
F0.375
S'new'
p1828
tp1829
a(I365
I4
F-0.125
S'mine'
p1830
tp1831
a(I378
I2
F0.5
S'expensive'
p1832
tp1833
a(I378
I6
F0.375
S'new'
p1834
tp1835
a(I389
I0
I0
S'adequate'
p1836
tp1837
a(I408
I3
F0.5
S'willing'
p1838
tp1839
a(I408
I3
F0.25
S'helpful'
p1840
tp1841
a(I408
I3
F0.5
S'polite'
p1842
tp1843
a(I435
I0
I0
S'old'
p1844
tp1845
a(I439
I13
F-0.625
S'other'
p1846
tp1847
a(I440
I0
I0
S'more'
p1848
tp1849
a(I440
I0
F-0.625
S'other'
p1850
tp1851
a(I465
I0
I0
S'old'
p1852
tp1853
a(I472
I0
I0
S'fourth'
p1854
tp1855
a(I472
I0
F1.0
S'best'
p1856
tp1857
a(I499
I2
I0
S'old'
p1858
tp1859
a(I503
I1
I0
S'third'
p1860
tp1861
a(I508
I5
F0.25
S'helpful'
p1862
tp1863
a(I508
I9
I0
S'great'
p1864
tp1865
a(I515
I8
F-0.5
S'long'
p1866
tp1867
a(I520
I0
I0
S'older'
p1868
tp1869
a(I522
I4
F-0.625
S'other'
p1870
tp1871
a(I522
I5
I0
S'later'
p1872
tp1873
a(I522
I5
I0
S'such'
p1874
tp1875
a(I526
I0
F-0.375
S'small'
p1876
tp1877
a(I544
I0
F0.375
S'new'
p1878
tp1879
a(I544
I1
I0
S'old'
p1880
tp1881
a(I558
I0
I0
S'basic'
p1882
tp1883
a(I567
I20
I0
S'next'
p1884
tp1885
a(I583
I2
I0
S'great'
p1886
tp1887
a(I619
I3
F0.375
S'new'
p1888
tp1889
a(I630
I1
I0
S'monthly'
p1890
tp1891
a(I630
I1
F0.625
S'perfect'
p1892
tp1893
a(I635
I1
F0.5
S'second'
p1894
tp1895
a(I635
I1
F0.125
S'first'
p1896
tp1897
a(I638
I0
I0
S'old'
p1898
tp1899
a(I638
I0
F0.375
S'new'
p1900
tp1901
a(I638
I0
F0.625
S'easy'
p1902
tp1903
a(I641
I1
F1.0
S'best'
p1904
tp1905
a(I648
I10
I0
S'different'
p1906
tp1907
a(I648
I10
F0.5
S'touch'
p1908
tp1909
a(I652
I1
I0
S'old'
p1910
tp1911
a(I660
I1
F-0.625
S'other'
p1912
tp1913
a(I664
I3
F0.5
S'second'
p1914
tp1915
a(I687
I0
F0.375
S'new'
p1916
tp1917
a(I707
I0
F1.0
S'good'
p1918
tp1919
a(I707
I4
I0
S'old'
p1920
tp1921
a(I707
I4
F0.375
S'new'
p1922
tp1923
a(I734
I2
I0
S'more'
p1924
tp1925
a(I752
I4
F0.375
S'new'
p1926
tp1927
a(I754
I18
F0.375
S'new'
p1928
tp1929
a(I755
I0
F-0.25
S'direct'
p1930
tp1931
a(I769
I2
I0
S'old'
p1932
tp1933
a(I769
I2
F0.375
S'new'
p1934
tp1935
a(I781
I1
F-0.625
S'glad'
p1936
tp1937
a(I781
I1
I0
S'current'
p1938
tp1939
a(I820
I17
I0
S'different'
p1940
tp1941
a(I825
I4
I0
S'mobile'
p1942
tp1943
a(I829
I0
I0
S'user'
p1944
tp1945
a(I835
I8
F1.0
S'better'
p1946
tp1947
a(I858
I15
I0
S'particular'
p1948
tp1949
a(I866
I5
F-0.375
S'simple'
p1950
tp1951
a(I876
I6
I0
S'basic'
p1952
tp1953
a(I892
I0
I0
S'old'
p1954
tp1955
a(I910
I3
F-0.5
S'sure'
p1956
tp1957
a(I919
I14
I0
S'more'
p1958
tp1959
a(I949
I0
F0.625
S'easy'
p1960
tp1961
a(I955
I3
F0.5
S'hopeful'
p1962
tp1963
a(I957
I1
I0
S'old'
p1964
tp1965
a(I957
I1
F0.75
S'due'
p1966
tp1967
a(I957
I1
I0
S'older'
p1968
tp1969
a(I969
I2
I0
S'more'
p1970
tp1971
a(I994
I5
F-0.5
S'less'
p1972
tp1973
a(I998
I0
I0
S'old'
p1974
tp1975
a(I1002
I3
F-0.875
S'worst'
p1976
tp1977
a(I1020
I4
F-0.125
S'former'
p1978
tp1979
a(I1035
I2
F0.75
S'classic'
p1980
tp1981
a(I1049
I0
F-0.625
S'other'
p1982
tp1983
a(I1061
I1
F0.25
S'ordered'
p1984
tp1985
a(I1088
I6
F-0.625
S'generous'
p1986
tp1987
a(I1112
I0
F0.125
S'first'
p1988
tp1989
a(I1118
I0
F0.625
S'easy'
p1990
tp1991
a(I1124
I0
F-0.375
S'double'
p1992
tp1993
a(I1132
I19
F-0.375
S'double'
p1994
tp1995
a(I1160
I1
I0
S'few'
p1996
tp1997
a(I1166
I2
I0
S'more'
p1998
tp1999
a(I1166
I2
F0.625
S'add'
p2000
tp2001
as(S'way'
p2002
S'to'
p2003
S'go'
p2004
tp2005
(lp2006
(I76
I2
F0.375
S'similar'
p2007
tp2008
a(I237
I1
F0.625
S'major'
p2009
tp2010
a(I595
I10
I0
S'great'
p2011
tp2012
a(I686
I1
I0
S'efficient'
p2013
tp2014
a(I755
I8
I0
S'only'
p2015
tp2016
a(I1004
I3
F-0.25
S'cheapest'
p2017
tp2018
a(I1048
I1
F0.375
S'much'
p2019
tp2020
a(I1100
I0
F-0.25
S'cheapest'
p2021
tp2022
a(I1100
I0
F-0.75
S'dead'
p2023
tp2024
a(I1128
I0
F1.0
S'best'
p2025
tp2026
a(I1163
I2
I0
S'only'
p2027
tp2028
as(S'features'
p2029
tp2030
(lp2031
(I12
I5
I0
S'great'
p2032
tp2033
a(I40
I4
F-0.75
S'unable'
p2034
tp2035
a(I55
I0
I0
S'great'
p2036
tp2037
a(I71
I2
F-0.625
S'other'
p2038
tp2039
a(I75
I0
I0
S'more'
p2040
tp2041
a(I82
I0
I0
S'great'
p2042
tp2043
a(I103
I8
I0
S'many'
p2044
tp2045
a(I103
I8
F0.875
S'nice'
p2046
tp2047
a(I113
I3
F-0.875
S'awful'
p2048
tp2049
a(I163
I1
I0
S'many'
p2050
tp2051
a(I163
I1
F0.375
S'new'
p2052
tp2053
a(I194
I0
F1.0
S'good'
p2054
tp2055
a(I198
I0
I0
S'useful'
p2056
tp2057
a(I200
I2
I0
S'many'
p2058
tp2059
a(I200
I2
F-0.625
S'other'
p2060
tp2061
a(I204
I2
F0.625
S'easy'
p2062
tp2063
a(I243
I2
F0.625
S'easy'
p2064
tp2065
a(I288
I4
F-0.375
S'simple'
p2066
tp2067
a(I288
I4
F0.625
S'easy'
p2068
tp2069
a(I293
I3
I0
S'many'
p2070
tp2071
a(I335
I3
F0.625
S'easier'
p2072
tp2073
a(I344
I1
F0.625
S'easy'
p2074
tp2075
a(I344
I1
I0
S'great'
p2076
tp2077
a(I345
I0
I0
S'different'
p2078
tp2079
a(I350
I1
I0
S'different'
p2080
tp2081
a(I354
I1
I0
S'many'
p2082
tp2083
a(I355
I3
I0
S'many'
p2084
tp2085
a(I414
I1
F0.375
S'extra'
p2086
tp2087
a(I414
I3
I0
S'more'
p2088
tp2089
a(I418
I0
I0
S'great'
p2090
tp2091
a(I425
I6
F-0.625
S'other'
p2092
tp2093
a(I469
I5
F-0.5
S'less'
p2094
tp2095
a(I508
I2
F0.375
S'much'
p2096
tp2097
a(I520
I1
I0
S'more'
p2098
tp2099
a(I520
I1
I0
S'old'
p2100
tp2101
a(I537
I1
F-0.5
S'less'
p2102
tp2103
a(I559
I2
I0
S'many'
p2104
tp2105
a(I569
I3
I0
S'many'
p2106
tp2107
a(I573
I14
F-0.375
S'crazy'
p2108
tp2109
a(I606
I3
I0
S'useful'
p2110
tp2111
a(I606
I3
F0.625
S'easy'
p2112
tp2113
a(I611
I2
F0.625
S'easy'
p2114
tp2115
a(I629
I1
I0
S'few'
p2116
tp2117
a(I650
I0
F-0.625
S'bad'
p2118
tp2119
a(I652
I1
I0
S'many'
p2120
tp2121
a(I652
I13
I0
S'many'
p2122
tp2123
a(I655
I3
I0
S'many'
p2124
tp2125
a(I656
I6
F0.125
S'able'
p2126
tp2127
a(I664
I0
I0
S'most'
p2128
tp2129
a(I699
I6
I0
S'more'
p2130
tp2131
a(I715
I8
F1.0
S'good'
p2132
tp2133
a(I749
I2
F0.625
S'easy'
p2134
tp2135
a(I763
I1
F-0.5
S'less'
p2136
tp2137
a(I793
I2
I0
S'more'
p2138
tp2139
a(I795
I2
F-0.625
S'other'
p2140
tp2141
a(I801
I17
I0
S'more'
p2142
tp2143
a(I814
I0
I0
S'many'
p2144
tp2145
a(I830
I3
I0
S'many'
p2146
tp2147
a(I877
I2
F-0.625
S'other'
p2148
tp2149
a(I878
I3
F-0.625
S'other'
p2150
tp2151
a(I878
I3
I0
S'standard'
p2152
tp2153
a(I880
I0
F0.625
S'easy'
p2154
tp2155
a(I893
I0
F1.0
S'good'
p2156
tp2157
a(I916
I5
F1.0
S'better'
p2158
tp2159
a(I918
I1
I0
S'many'
p2160
tp2161
a(I927
I9
F0.125
S'equal'
p2162
tp2163
a(I927
I10
I0
S'basic'
p2164
tp2165
a(I978
I4
I0
S'such'
p2166
tp2167
a(I1009
I4
F-0.875
S'trouble'
p2168
tp2169
a(I1009
I4
I0
S'few'
p2170
tp2171
a(I1014
I1
F0.875
S'nice'
p2172
tp2173
a(I1017
I2
I0
S'wish'
p2174
tp2175
a(I1017
I2
F-0.625
S'other'
p2176
tp2177
a(I1017
I2
F-0.125
S'overall'
p2178
tp2179
a(I1026
I1
F-0.125
S'present'
p2180
tp2181
a(I1027
I0
I0
S'many'
p2182
tp2183
a(I1029
I0
I0
S'many'
p2184
tp2185
a(I1029
I1
I0
S'standard'
p2186
tp2187
a(I1029
I2
F0.875
S'music'
p2188
tp2189
a(I1044
I0
F0.375
S'new'
p2190
tp2191
a(I1050
I1
I0
S'many'
p2192
tp2193
a(I1061
I2
I0
S'user'
p2194
tp2195
a(I1062
I7
F0.375
S'interesting'
p2196
tp2197
a(I1074
I4
F-0.625
S'other'
p2198
tp2199
a(I1091
I0
F0.375
S'new'
p2200
tp2201
a(I1097
I5
F1.0
S'better'
p2202
tp2203
a(I1171
I21
F0.375
S'extra'
p2204
tp2205
as(g612
S'long'
p2206
S'time'
p2207
tp2208
(lp2209
(I86
I7
F-0.5
S'long'
p2210
tp2211
a(I102
I0
F-0.5
S'long'
p2212
tp2213
a(I201
I5
F-0.5
S'long'
p2214
tp2215
a(I254
I7
F-0.5
S'long'
p2216
tp2217
a(I323
I10
F-0.5
S'long'
p2218
tp2219
a(I495
I0
F-0.5
S'long'
p2220
tp2221
a(I619
I0
F-0.5
S'long'
p2222
tp2223
a(I646
I0
F-0.5
S'long'
p2224
tp2225
a(I691
I2
F-0.5
S'long'
p2226
tp2227
a(I789
I4
F-0.25
S'inexpensive'
p2228
tp2229
a(I789
I4
F-0.5
S'long'
p2230
tp2231
a(I806
I0
F-0.5
S'long'
p2232
tp2233
a(I866
I3
F-0.5
S'long'
p2234
tp2235
a(I961
I0
F-0.5
S'long'
p2236
tp2237
a(I1029
I12
F-0.5
S'long'
p2238
tp2239
a(I1062
I18
F-0.5
S'long'
p2240
tp2241
a(I1150
I1
F-0.5
S'long'
p2242
tp2243
as(S'month'
p2244
tp2245
(lp2246
(I66
I0
F0.125
S'last'
p2247
tp2248
a(I72
I1
F0.125
S'first'
p2249
tp2250
a(I102
I2
F-0.875
S'hard'
p2251
tp2252
a(I300
I22
F-0.125
S'mine'
p2253
tp2254
a(I369
I1
I0
S'later'
p2255
tp2256
a(I400
I1
F-0.75
S'dead'
p2257
tp2258
a(I501
I5
F-0.375
S'double'
p2259
tp2260
a(I648
I2
F0.125
S'first'
p2261
tp2262
a(I667
I3
I0
S'later'
p2263
tp2264
a(I691
I2
F-0.5
S'less'
p2265
tp2266
a(I699
I32
I0
S'more'
p2267
tp2268
a(I801
I16
F-0.5
S'less'
p2269
tp2270
a(I963
I11
F-0.5
S'less'
p2271
tp2272
a(I994
I9
I0
S'later'
p2273
tp2274
a(I994
I9
I0
S'great'
p2275
tp2276
a(I1163
I1
F0.625
S'responsible'
p2277
tp2278
as(S'voice'
p2279
tp2280
(lp2281
(I133
I2
I0
S'dial'
p2282
tp2283
a(I362
I3
F-0.5
S'poor'
p2284
tp2285
a(I655
I4
I0
S'most'
p2286
tp2287
a(I696
I5
F1.0
S'good'
p2288
tp2289
a(I891
I10
F0.5
S'clear'
p2290
tp2291
a(I929
I6
F0.5
S'possible'
p2292
tp2293
a(I960
I0
F0.5
S'clear'
p2294
tp2295
a(I1009
I5
F-0.5
S'sure'
p2296
tp2297
as(S'lg800g'
p2298
tp2299
(lp2300
(I688
I1
F0.625
S'easy'
p2301
tp2302
a(I793
I1
F0.375
S'new'
p2303
tp2304
a(I801
I0
F-0.125
S'overall'
p2305
tp2306
a(I906
I0
F0.375
S'new'
p2307
tp2308
a(I910
I4
F0.5
S'drive'
p2309
tp2310
a(I910
I4
F0.375
S'new'
p2311
tp2312
a(I942
I0
F0.375
S'new'
p2313
tp2314
a(I1053
I0
F-0.125
S'mine'
p2315
tp2316
a(I1053
I0
I0
S'different'
p2317
tp2318
a(I1059
I3
I0
S'old'
p2319
tp2320
a(I1059
I3
F0.125
S'first'
p2321
tp2322
a(I1132
I22
F-0.625
S'light'
p2323
tp2324
as(S'thing'
p2325
tp2326
(lp2327
(I16
I1
F1.0
S'best'
p2328
tp2329
a(I46
I6
I0
S'only'
p2330
tp2331
a(I85
I2
I0
S'only'
p2332
tp2333
a(I85
I2
F0.5
S'whole'
p2334
tp2335
a(I90
I16
F1.0
S'good'
p2336
tp2337
a(I108
I0
I0
S'next'
p2338
tp2339
a(I108
I0
F1.0
S'best'
p2340
tp2341
a(I135
I2
I0
S'same'
p2342
tp2343
a(I153
I8
I0
S'only'
p2344
tp2345
a(I163
I2
I0
S'only'
p2346
tp2347
a(I187
I16
I0
S'basic'
p2348
tp2349
a(I192
I4
F0.125
S'first'
p2350
tp2351
a(I220
I2
F1.0
S'best'
p2352
tp2353
a(I272
I2
F1.0
S'best'
p2354
tp2355
a(I281
I7
F0.5
S'second'
p2356
tp2357
a(I281
I8
I0
S'final'
p2358
tp2359
a(I283
I1
I0
S'only'
p2360
tp2361
a(I283
I19
F-0.375
S'near'
p2362
tp2363
a(I283
I19
F-0.25
S'dropped'
p2364
tp2365
a(I283
I24
F-0.75
S'impossible'
p2366
tp2367
a(I286
I4
F1.0
S'best'
p2368
tp2369
a(I290
I4
I0
S'only'
p2370
tp2371
a(I309
I1
I0
S'only'
p2372
tp2373
a(I317
I5
I0
S'next'
p2374
tp2375
a(I317
I5
F1.0
S'best'
p2376
tp2377
a(I325
I4
F0.125
S'first'
p2378
tp2379
a(I325
I4
F-0.75
S'wrong'
p2380
tp2381
a(I327
I1
F1.0
S'good'
p2382
tp2383
a(I330
I3
F1.0
S'best'
p2384
tp2385
a(I337
I5
I0
S'great'
p2386
tp2387
a(I433
I0
I0
S'only'
p2388
tp2389
a(I457
I0
F0.875
S'nice'
p2390
tp2391
a(I496
I2
I0
S'only'
p2392
tp2393
a(I547
I1
I0
S'only'
p2394
tp2395
a(I547
I1
F1.0
S'good'
p2396
tp2397
a(I567
I0
F1.0
S'good'
p2398
tp2399
a(I589
I7
I0
S'same'
p2400
tp2401
a(I595
I7
F-0.75
S'wrong'
p2402
tp2403
a(I596
I1
F0.625
S'easy'
p2404
tp2405
a(I597
I2
I0
S'only'
p2406
tp2407
a(I620
I2
F-0.875
S'worst'
p2408
tp2409
a(I716
I8
I0
S'only'
p2410
tp2411
a(I716
I8
F1.0
S'good'
p2412
tp2413
a(I718
I6
F1.0
S'best'
p2414
tp2415
a(I720
I3
I0
S'only'
p2416
tp2417
a(I760
I9
F1.0
S'good'
p2418
tp2419
a(I820
I5
I0
S'only'
p2420
tp2421
a(I820
I19
I0
S'only'
p2422
tp2423
a(I820
I19
F1.0
S'good'
p2424
tp2425
a(I877
I1
I0
S'only'
p2426
tp2427
a(I886
I3
I0
S'only'
p2428
tp2429
a(I905
I2
F-0.625
S'other'
p2430
tp2431
a(I932
I7
I0
S'same'
p2432
tp2433
a(I935
I0
I0
S'only'
p2434
tp2435
a(I939
I6
I0
S'only'
p2436
tp2437
a(I939
I6
F1.0
S'good'
p2438
tp2439
a(I954
I7
F-0.875
S'negative'
p2440
tp2441
a(I997
I2
I0
S'only'
p2442
tp2443
a(I1054
I25
I0
S'most'
p2444
tp2445
a(I1054
I25
F0.875
S'important'
p2446
tp2447
a(I1066
I2
F-0.75
S'impossible'
p2448
tp2449
a(I1084
I2
I0
S'only'
p2450
tp2451
a(I1088
I28
I0
S'more'
p2452
tp2453
a(I1096
I5
F1.0
S'good'
p2454
tp2455
a(I1120
I3
I0
S'only'
p2456
tp2457
a(I1132
I16
F1.0
S'good'
p2458
tp2459
a(I1155
I2
F0.125
S'first'
p2460
tp2461
a(I1171
I10
F-0.875
S'worst'
p2462
tp2463
as(S'reception'
p2464
tp2465
(lp2466
(I17
I0
F-0.875
S'worst'
p2467
tp2468
a(I49
I5
F0.875
S'nice'
p2469
tp2470
a(I69
I4
I0
S'great'
p2471
tp2472
a(I153
I10
F1.0
S'good'
p2473
tp2474
a(I179
I4
I0
S'great'
p2475
tp2476
a(I331
I1
I0
S'great'
p2477
tp2478
a(I344
I5
I0
S'great'
p2479
tp2480
a(I354
I0
F1.0
S'good'
p2481
tp2482
a(I396
I0
F0.625
S'easy'
p2483
tp2484
a(I396
I0
F1.0
S'good'
p2485
tp2486
a(I420
I4
F-0.875
S'hard'
p2487
tp2488
a(I457
I1
F1.0
S'good'
p2489
tp2490
a(I464
I1
F-0.5
S'poor'
p2491
tp2492
a(I485
I7
F1.0
S'good'
p2493
tp2494
a(I516
I0
F-0.5
S'poor'
p2495
tp2496
a(I592
I3
F0.5
S'clear'
p2497
tp2498
a(I633
I0
F1.0
S'good'
p2499
tp2500
a(I672
I6
F-0.5
S'inadequate'
p2501
tp2502
a(I842
I3
F1.0
S'better'
p2503
tp2504
a(I1006
I0
I0
S'large'
p2505
tp2506
a(I1015
I0
I0
S'sensitive'
p2507
tp2508
a(I1054
I8
F-0.625
S'bad'
p2509
tp2510
a(I1059
I2
F-0.625
S'free'
p2511
tp2512
a(I1068
I1
F1.0
S'good'
p2513
tp2514
a(I1068
I1
F0.875
S'nice'
p2515
tp2516
a(I1070
I1
F1.0
S'better'
p2517
tp2518
a(I1070
I1
F-0.125
S'overall'
p2519
tp2520
a(I1080
I6
I0
S'great'
p2521
tp2522
a(I1083
I5
F-0.5
S'poor'
p2523
tp2524
a(I1137
I33
F-0.75
S'worse'
p2525
tp2526
a(I1174
I2
F1.0
S'good'
p2527
tp2528
as(S'easy'
p2529
S'to'
p2530
S'set'
p2531
tp2532
(lp2533
(I976
I0
I0
S'large'
p2534
tp2535
as(S'love'
p2536
S'touch'
p2537
S'screen'
p2538
tp2539
(lp2540
(I55
I0
F0.5
S'touch'
p2541
tp2542
a(I79
I0
F0.5
S'touch'
p2543
tp2544
a(I208
I0
F0.125
g339
tp2545
a(I208
I0
F0.5
S'touch'
p2546
tp2547
a(I208
I0
I0
S'dial'
p2548
tp2549
a(I208
I0
F0.375
g341
tp2550
a(I342
I2
F-0.375
g359
tp2551
a(I418
I0
F0.5
S'touch'
p2552
tp2553
a(I444
I9
I0
S'full'
p2554
tp2555
a(I453
I0
F0.5
S'touch'
p2556
tp2557
a(I544
I2
F0.5
S'touch'
p2558
tp2559
a(I568
I2
F0.5
S'touch'
p2560
tp2561
a(I595
I4
F0.5
S'touch'
p2562
tp2563
a(I677
I1
F0.5
S'touch'
p2564
tp2565
a(I713
I0
F0.5
S'touch'
p2566
tp2567
a(I743
I1
F0.5
S'touch'
p2568
tp2569
a(I965
I2
F0.5
S'touch'
p2570
tp2571
a(I1045
I0
F0.5
S'touch'
p2572
tp2573
a(I1065
I0
F0.5
S'touch'
p2574
tp2575
as(S'minute'
p2576
tp2577
(lp2578
(I141
I7
I0
S'full'
p2579
tp2580
a(I336
I12
F0.75
S'worth'
p2581
tp2582
a(I378
I3
F-0.25
S'triple'
p2583
tp2584
a(I439
I6
I0
S'very'
p2585
tp2586
a(I451
I1
F1.0
S'good'
p2587
tp2588
a(I467
I1
F-0.125
S'future'
p2589
tp2590
a(I568
I4
F0.375
S'much'
p2591
tp2592
a(I568
I6
I0
S'same'
p2593
tp2594
a(I685
I4
I0
S'basic'
p2595
tp2596
a(I715
I4
F0.375
S'extra'
p2597
tp2598
a(I761
I1
I0
S'old'
p2599
tp2600
a(I763
I1
F-0.5
S'less'
p2601
tp2602
a(I862
I5
F-0.75
S'unresponsive'
p2603
tp2604
a(I913
I1
F0.125
S'charger'
p2605
tp2606
a(I1072
I19
F-0.875
S'worst'
p2607
tp2608
a(I1100
I0
I0
S'full'
p2609
tp2610
a(I1171
I1
I0
S'full'
p2611
tp2612
as(S'make'
p2613
tp2614
(lp2615
(I731
I1
I0
S'same'
p2616
tp2617
a(I776
I0
I0
S'specific'
p2618
tp2619
as(S'work'
p2620
tp2621
(lp2622
(I15
I1
F1.0
S'better'
p2623
tp2624
a(I106
I4
I0
S'many'
p2625
tp2626
a(I237
I0
I0
S'ancient'
p2627
tp2628
a(I424
I3
F1.0
S'good'
p2629
tp2630
a(I457
I1
F-0.75
S'likely'
p2631
tp2632
a(I754
I22
I0
S'e-mail'
p2633
tp2634
a(I830
I21
F0.625
S'easy'
p2635
tp2636
a(I846
I0
I0
S'great'
p2637
tp2638
a(I939
I6
F0.375
S'much'
p2639
tp2640
a(I1085
I4
F0.625
S'kind'
p2641
tp2642
as(S'family'
p2643
S'members'
p2644
tp2645
(lp2646
(I858
I10
F-0.625
S'other'
p2647
tp2648
as(S'google'
p2649
S'maps'
p2650
tp2651
(lp2652
(I187
I3
F-0.25
S'google'
p2653
tp2654
a(I300
I14
F-0.25
S'google'
p2655
tp2656
a(I333
I25
F-0.25
S'google'
p2657
tp2658
a(I378
I35
F-0.25
S'google'
p2659
tp2660
as(g612
S'new'
p2661
S'sim'
p2662
tp2663
(lp2664
(I72
I2
F-0.75
g836
tp2665
a(I72
I3
F0.375
g838
tp2666
a(I111
I0
F0.375
g840
tp2667
a(I115
I1
F0.5
g842
tp2668
a(I168
I4
F0.375
g844
tp2669
a(I197
I9
F0.375
g846
tp2670
a(I206
I3
F0.375
g848
tp2671
a(I206
I4
F0.375
g850
tp2672
a(I232
I2
F0.375
g852
tp2673
a(I247
I2
F0.375
g854
tp2674
a(I247
I19
F0.375
g856
tp2675
a(I333
I6
F0.375
g858
tp2676
a(I355
I20
F0.375
g860
tp2677
a(I707
I10
F-0.75
g864
tp2678
a(I828
I2
F0.375
g866
tp2679
a(I849
I0
I0
g868
tp2680
a(I861
I5
F0.375
g870
tp2681
a(I878
I7
F0.25
g872
tp2682
a(I957
I5
F0.375
g874
tp2683
a(I992
I2
F0.375
g876
tp2684
a(I1027
I3
F0.375
g878
tp2685
a(I1155
I3
F0.375
g880
tp2686
as(S'and'
p2687
S'touch'
p2688
S'screen'
p2689
tp2690
(lp2691
(I12
I5
I0
S'many'
p2692
tp2693
a(I26
I2
F0.625
S'easy'
p2694
tp2695
a(I26
I2
F0.5
S'touch'
p2696
tp2697
a(I43
I2
F-0.625
S'light'
p2698
tp2699
a(I43
I2
F0.5
S'touch'
p2700
tp2701
a(I55
I0
F0.5
g2541
tp2702
a(I117
I0
F1.0
S'good'
p2703
tp2704
a(I117
I0
F0.5
S'touch'
p2705
tp2706
a(I123
I3
F-0.875
g333
tp2707
a(I135
I0
F0.5
S'touch'
p2708
tp2709
a(I171
I2
F0.5
S'touch'
p2710
tp2711
a(I178
I0
I0
g337
tp2712
a(I208
I0
F0.125
g339
tp2713
a(I208
I0
F0.5
g2546
tp2714
a(I208
I0
I0
g2548
tp2715
a(I208
I0
F0.375
g341
tp2716
a(I218
I0
F0.5
S'touch'
p2717
tp2718
a(I220
I4
F0.25
g343
tp2719
a(I220
I4
F-0.625
g345
tp2720
a(I220
I6
F0.25
g347
tp2721
a(I286
I3
F0.5
S'touch'
p2722
tp2723
a(I295
I0
F0.625
S'kind'
p2724
tp2725
a(I295
I0
F-0.75
S'difficult'
p2726
tp2727
a(I295
I0
F-0.375
g351
tp2728
a(I305
I1
F0.5
S'touch'
p2729
tp2730
a(I307
I0
F0.5
S'touch'
p2731
tp2732
a(I309
I2
F0.5
S'touch'
p2733
tp2734
a(I315
I0
F0.5
S'touch'
p2735
tp2736
a(I333
I21
F0.25
S'larger'
p2737
tp2738
a(I342
I2
F-0.375
g359
tp2739
a(I384
I2
F0.5
S'touch'
p2740
tp2741
a(I386
I0
F0.5
S'touch'
p2742
tp2743
a(I386
I0
F0.125
S'capable'
p2744
tp2745
a(I418
I0
F0.5
g2552
tp2746
a(I423
I3
F0.5
S'touch'
p2747
tp2748
a(I433
I0
F-0.75
S'difficult'
p2749
tp2750
a(I437
I2
F0.875
S'nice'
p2751
tp2752
a(I444
I9
I0
g2554
tp2753
a(I451
I1
F0.125
g365
tp2754
a(I453
I0
F0.5
g2556
tp2755
a(I478
I10
F0.5
S'touch'
p2756
tp2757
a(I478
I21
F0.25
g369
tp2758
a(I478
I21
I0
g371
tp2759
a(I478
I21
F0.25
g373
tp2760
a(I488
I2
F1.0
g375
tp2761
a(I488
I2
I0
S'real'
p2762
tp2763
a(I512
I0
F0.5
S'touch'
p2764
tp2765
a(I512
I0
F0.625
S'easy'
p2766
tp2767
a(I519
I0
F0.5
S'touch'
p2768
tp2769
a(I521
I1
F0.5
S'touch'
p2770
tp2771
a(I521
I1
F0.25
S'responsive'
p2772
tp2773
a(I544
I2
F0.5
g2558
tp2774
a(I545
I5
I0
S'sensitive'
p2775
tp2776
a(I562
I3
F0.5
g385
tp2777
a(I562
I3
F0.875
g387
tp2778
a(I565
I3
F0.5
S'touch'
p2779
tp2780
a(I568
I2
F0.5
g2560
tp2781
a(I572
I0
F0.5
S'touch'
p2782
tp2783
a(I593
I0
F0.5
S'touch'
p2784
tp2785
a(I597
I1
F0.25
S'responsive'
p2786
tp2787
a(I614
I0
F-0.5
g393
tp2788
a(I642
I3
F0.5
S'touch'
p2789
tp2790
a(I693
I2
F0.5
S'touch'
p2791
tp2792
a(I699
I11
F1.0
g407
tp2793
a(I699
I11
F0.875
g409
tp2794
a(I709
I4
F0.5
S'touch'
p2795
tp2796
a(I715
I4
F0.5
S'touch'
p2797
tp2798
a(I719
I0
F0.5
S'touch'
p2799
tp2800
a(I719
I0
I0
S'most'
p2801
tp2802
a(I726
I11
F0.5
S'touch'
p2803
tp2804
a(I726
I11
F-0.75
S'bright'
p2805
tp2806
a(I726
I11
F0.625
S'easy'
p2807
tp2808
a(I729
I2
F-0.75
S'difficult'
p2809
tp2810
a(I743
I1
F0.5
g2568
tp2811
a(I744
I1
F0.5
S'touch'
p2812
tp2813
a(I773
I4
F0.5
S'touch'
p2814
tp2815
a(I777
I1
F0.5
S'touch'
p2816
tp2817
a(I777
I2
F0.5
S'touch'
p2818
tp2819
a(I797
I1
F0.5
S'touch'
p2820
tp2821
a(I820
I7
F0.5
S'touch'
p2822
tp2823
a(I876
I3
I0
g411
tp2824
a(I941
I0
F0.5
S'touch'
p2825
tp2826
a(I960
I0
F0.5
S'touch'
p2827
tp2828
a(I1002
I2
F-0.75
g421
tp2829
a(I1004
I2
F1.0
S'best'
p2830
tp2831
a(I1033
I1
F0.5
S'touch'
p2832
tp2833
a(I1047
I0
I0
S'great'
p2834
tp2835
a(I1097
I5
F0.25
S'main'
p2836
tp2837
a(I1097
I5
F-0.125
g427
tp2838
a(I1114
I5
F0.25
S'responsive'
p2839
tp2840
a(I1126
I0
F0.5
S'touch'
p2841
tp2842
a(I1137
I13
F0.5
S'touch'
p2843
tp2844
a(I1137
I42
F0.5
S'touch'
p2845
tp2846
a(I1137
I42
F-0.875
S'hard'
p2847
tp2848
a(I1142
I1
F0.875
S'nice'
p2849
tp2850
a(I1142
I1
F-0.375
S'small'
p2851
tp2852
a(I1142
I1
I0
S'very'
p2853
tp2854
as(S'minutes'
p2855
tp2856
(lp2857
(I0
I7
I0
S'few'
p2858
tp2859
a(I12
I4
I0
S'more'
p2860
tp2861
a(I28
I3
F-0.25
g99
tp2862
a(I28
I4
I0
g101
tp2863
a(I28
I4
F-0.625
g103
tp2864
a(I28
I4
F-0.25
g105
tp2865
a(I28
I24
I0
S'website'
p2866
tp2867
a(I28
I25
F-0.25
g109
tp2868
a(I44
I4
I0
S'human'
p2869
tp2870
a(I44
I8
I0
S'human'
p2871
tp2872
a(I44
I15
F-0.625
S'free'
p2873
tp2874
a(I44
I18
F-0.625
S'free'
p2875
tp2876
a(I64
I5
F0.875
g111
tp2877
a(I67
I2
I0
S'more'
p2878
tp2879
a(I68
I1
F-0.375
g113
tp2880
a(I68
I1
F0.625
g115
tp2881
a(I86
I1
F-0.625
S'free'
p2882
tp2883
a(I107
I2
I0
S'old'
p2884
tp2885
a(I119
I1
F0.625
S'easy'
p2886
tp2887
a(I136
I1
F-0.25
g121
tp2888
a(I136
I1
F-0.75
g123
tp2889
a(I143
I0
F-0.375
g125
tp2890
a(I143
I9
I0
S'more'
p2891
tp2892
a(I143
I14
F1.0
S'good'
p2893
tp2894
a(I153
I14
F-0.375
S'double'
p2895
tp2896
a(I160
I5
F-0.25
g127
tp2897
a(I171
I17
I0
S'monthly'
p2898
tp2899
a(I185
I1
I0
S'old'
p2900
tp2901
a(I185
I1
F0.375
S'new'
p2902
tp2903
a(I192
I7
F-0.5
S'less'
p2904
tp2905
a(I192
I9
I0
S'more'
p2906
tp2907
a(I240
I2
I0
S'great'
p2908
tp2909
a(I246
I0
F-0.25
g131
tp2910
a(I254
I4
F0.375
S'extra'
p2911
tp2912
a(I254
I13
F-0.5
S'unlimited'
p2913
tp2914
a(I256
I2
I0
S'more'
p2915
tp2916
a(I263
I8
I0
S'more'
p2917
tp2918
a(I268
I8
F-0.375
g135
tp2919
a(I281
I0
F-0.5
S'less'
p2920
tp2921
a(I281
I14
F0.5
S'reasonable'
p2922
tp2923
a(I283
I25
F0.375
g137
tp2924
a(I283
I25
F-0.25
g139
tp2925
a(I290
I7
F-0.25
S'precious'
p2926
tp2927
a(I290
I7
F0.5
S'expensive'
p2928
tp2929
a(I290
I11
F-0.25
g143
tp2930
a(I296
I6
I0
g89
tp2931
a(I300
I23
F-0.375
S'smooth'
p2932
tp2933
a(I303
I3
F-0.25
g145
tp2934
a(I308
I1
F-0.25
g147
tp2935
a(I309
I4
I0
S'monthly'
p2936
tp2937
a(I317
I3
F-0.25
g149
tp2938
a(I320
I1
F0.625
S'aware'
p2939
tp2940
a(I320
I1
F0.5
S'careful'
p2941
tp2942
a(I325
I11
F-0.625
g151
tp2943
a(I336
I7
F-0.25
g153
tp2944
a(I336
I8
I0
S'few'
p2945
tp2946
a(I347
I4
F0.375
S'available'
p2947
tp2948
a(I347
I6
F-0.25
g155
tp2949
a(I348
I2
F-0.625
S'free'
p2950
tp2951
a(I352
I2
F-0.25
g157
tp2952
a(I353
I1
F1.0
g159
tp2953
a(I361
I0
I0
S'old'
p2954
tp2955
a(I362
I4
I0
S'more'
p2956
tp2957
a(I371
I1
F0.375
S'mean'
p2958
tp2959
a(I371
I5
F0.375
S'extra'
p2960
tp2961
a(I378
I12
F-0.75
S'lost'
p2962
tp2963
a(I378
I12
I0
S'more'
p2964
tp2965
a(I378
I28
I0
S'active'
p2966
tp2967
a(I378
I38
F0.875
g161
tp2968
a(I378
I38
F0.125
g163
tp2969
a(I389
I1
F-0.375
S'double'
p2970
tp2971
a(I397
I0
F0.625
S'easy'
p2972
tp2973
a(I399
I0
I0
g169
tp2974
a(I400
I3
I0
S'more'
p2975
tp2976
a(I408
I7
F-0.625
S'free'
p2977
tp2978
a(I413
I3
F-0.375
S'double'
p2979
tp2980
a(I443
I5
I0
S'more'
p2981
tp2982
a(I463
I3
F-0.25
g171
tp2983
a(I481
I1
F-0.25
g173
tp2984
a(I485
I5
I0
S'many'
p2985
tp2986
a(I485
I6
F0.625
S'easy'
p2987
tp2988
a(I496
I3
I0
g175
tp2989
a(I499
I1
F-0.25
g177
tp2990
a(I500
I1
I0
S'few'
p2991
tp2992
a(I502
I8
F-0.25
g179
tp2993
a(I502
I8
F-0.375
g181
tp2994
a(I512
I0
F-0.25
g183
tp2995
a(I514
I0
F-0.25
g185
tp2996
a(I514
I1
F-0.375
S'double'
p2997
tp2998
a(I531
I5
F-0.75
S'wrong'
p2999
tp3000
a(I536
I1
F-0.25
g187
tp3001
a(I537
I1
F-0.375
g189
tp3002
a(I555
I1
F-0.25
g191
tp3003
a(I580
I3
I0
g195
tp3004
a(I593
I1
I0
g201
tp3005
a(I593
I1
F0.375
g203
tp3006
a(I593
I1
F-0.5
g205
tp3007
a(I618
I0
I0
S'more'
p3008
tp3009
a(I620
I3
I0
S'few'
p3010
tp3011
a(I630
I2
F-0.25
g207
tp3012
a(I635
I1
F-0.5
g209
tp3013
a(I635
I1
I0
g211
tp3014
a(I635
I1
F-0.375
g213
tp3015
a(I635
I1
F-0.25
g215
tp3016
a(I647
I2
F-0.25
g217
tp3017
a(I654
I6
F-0.375
g221
tp3018
a(I654
I6
F-0.375
g223
tp3019
a(I654
I6
F0.375
g225
tp3020
a(I680
I6
F-0.75
g229
tp3021
a(I680
I6
F-0.75
g231
tp3022
a(I680
I6
I0
g233
tp3023
a(I685
I2
I0
S'many'
p3024
tp3025
a(I685
I4
I0
S'more'
p3026
tp3027
a(I685
I5
F1.0
g235
tp3028
a(I685
I5
F-0.25
g237
tp3029
a(I699
I27
F-0.25
g239
tp3030
a(I702
I2
F0.625
S'easy'
p3031
tp3032
a(I704
I0
F-0.25
g241
tp3033
a(I727
I6
I0
S'website'
p3034
tp3035
a(I764
I1
F-0.25
g249
tp3036
a(I771
I3
I0
S'few'
p3037
tp3038
a(I774
I0
I0
S'few'
p3039
tp3040
a(I785
I4
F-0.5
S'sure'
p3041
tp3042
a(I789
I4
F-0.25
g251
tp3043
a(I792
I8
F-0.25
g93
tp3044
a(I801
I17
F-0.25
g258
tp3045
a(I816
I6
F0.125
S'last'
p3046
tp3047
a(I830
I1
I0
S'many'
p3048
tp3049
a(I830
I5
F0.125
S'able'
p3050
tp3051
a(I842
I2
F-0.25
g260
tp3052
a(I844
I6
F0.125
S'able'
p3053
tp3054
a(I853
I4
I0
S'more'
p3055
tp3056
a(I853
I5
F-0.75
S'unable'
p3057
tp3058
a(I856
I10
F0.125
S'able'
p3059
tp3060
a(I856
I10
F0.625
S'washed'
p3061
tp3062
a(I869
I1
F0.625
S'easy'
p3063
tp3064
a(I874
I4
I0
S'more'
p3065
tp3066
a(I877
I3
I0
S'site'
p3067
tp3068
a(I888
I7
F-0.625
S'average'
p3069
tp3070
a(I888
I12
I0
S'old'
p3071
tp3072
a(I898
I4
F-0.625
S'free'
p3073
tp3074
a(I898
I6
I0
g264
tp3075
a(I920
I0
F-0.25
g266
tp3076
a(I920
I0
F-0.375
g268
tp3077
a(I925
I2
I0
S'more'
p3078
tp3079
a(I927
I3
I0
S'more'
p3080
tp3081
a(I927
I11
F0.625
g270
tp3082
a(I927
I11
F-0.375
g272
tp3083
a(I927
I13
I0
S'few'
p3084
tp3085
a(I929
I0
F-0.25
g274
tp3086
a(I940
I2
I0
S'high'
p3087
tp3088
a(I942
I2
F0.375
S'new'
p3089
tp3090
a(I950
I2
F-0.375
g276
tp3091
a(I962
I8
I0
S'more'
p3092
tp3093
a(I963
I1
F-0.5
S'less'
p3094
tp3095
a(I963
I5
F0.375
g278
tp3096
a(I966
I3
F0.125
S'first'
p3097
tp3098
a(I966
I7
F-0.375
S'double'
p3099
tp3100
a(I966
I8
I0
S'more'
p3101
tp3102
a(I983
I0
F0.375
S'extra'
p3103
tp3104
a(I986
I1
I0
g280
tp3105
a(I1017
I1
F-0.25
g282
tp3106
a(I1024
I0
F-0.375
g284
tp3107
a(I1029
I16
F-0.25
S'inexpensive'
p3108
tp3109
a(I1029
I16
I0
S'many'
p3110
tp3111
a(I1043
I0
I0
g286
tp3112
a(I1052
I2
F-0.375
S'double'
p3113
tp3114
a(I1061
I9
F-0.25
g288
tp3115
a(I1062
I21
F0.875
g290
tp3116
a(I1062
I23
F0.5
S'willing'
p3117
tp3118
a(I1069
I0
F0.375
S'new'
p3119
tp3120
a(I1071
I3
I0
S'more'
p3121
tp3122
a(I1085
I4
F-0.25
g292
tp3123
a(I1085
I5
F-0.5
S'sure'
p3124
tp3125
a(I1085
I5
I0
S'many'
p3126
tp3127
a(I1086
I4
F-0.25
g294
tp3128
a(I1092
I0
I0
g296
tp3129
a(I1092
I0
F-0.25
g298
tp3130
a(I1113
I2
F0.5
S'expensive'
p3131
tp3132
a(I1113
I2
F0.5
S'touch'
p3133
tp3134
a(I1115
I6
I0
g300
tp3135
a(I1115
I6
F-0.25
g302
tp3136
a(I1126
I0
F0.375
S'extra'
p3137
tp3138
a(I1132
I11
F0.125
S'able'
p3139
tp3140
a(I1132
I20
I0
S'total'
p3141
tp3142
a(I1132
I27
F-0.125
S'air'
p3143
tp3144
a(I1145
I5
I0
S'more'
p3145
tp3146
a(I1150
I3
F0.125
S'plenty'
p3147
tp3148
a(I1155
I8
F-0.25
g306
tp3149
a(I1155
I8
F-0.375
g308
tp3150
a(I1155
I16
F-0.5
S'less'
p3151
tp3152
a(I1162
I2
F-0.5
S'less'
p3153
tp3154
a(I1166
I2
F-0.25
g310
tp3155
a(I1168
I17
F0.25
S'recent'
p3156
tp3157
as(g612
S'great'
p3158
S'deal'
p3159
tp3160
(lp3161
(I24
I0
F1.0
g629
tp3162
a(I30
I2
I0
S'great'
p3163
tp3164
a(I90
I7
I0
S'great'
p3165
tp3166
a(I122
I3
I0
S'great'
p3167
tp3168
a(I200
I1
I0
S'great'
p3169
tp3170
a(I207
I2
I0
S'great'
p3171
tp3172
a(I209
I0
I0
S'great'
p3173
tp3174
a(I288
I5
I0
S'great'
p3175
tp3176
a(I295
I1
I0
S'old'
p3177
tp3178
a(I295
I1
F0.25
S'sweet'
p3179
tp3180
a(I300
I21
I0
S'great'
p3181
tp3182
a(I300
I22
I0
S'great'
p3183
tp3184
a(I389
I1
I0
S'great'
p3185
tp3186
a(I421
I1
I0
S'great'
p3187
tp3188
a(I437
I4
I0
S'great'
p3189
tp3190
a(I456
I1
I0
S'great'
p3191
tp3192
a(I481
I1
F1.0
g641
tp3193
a(I536
I1
I0
S'great'
p3194
tp3195
a(I639
I0
I0
S'great'
p3196
tp3197
a(I697
I1
I0
S'great'
p3198
tp3199
a(I697
I1
I0
S'r'
p3200
tp3201
a(I708
I0
I0
S'great'
p3202
tp3203
a(I754
I26
I0
S'great'
p3204
tp3205
a(I789
I5
I0
S'great'
p3206
tp3207
a(I795
I1
I0
S'great'
p3208
tp3209
a(I820
I2
I0
S'great'
p3210
tp3211
a(I859
I0
I0
S'great'
p3212
tp3213
a(I913
I0
I0
S'great'
p3214
tp3215
a(I913
I0
F0.125
S'able'
p3216
tp3217
a(I933
I7
I0
S'great'
p3218
tp3219
a(I956
I0
I0
S'great'
p3220
tp3221
a(I965
I1
I0
S'great'
p3222
tp3223
a(I979
I5
I0
S'great'
p3224
tp3225
a(I982
I0
I0
S'great'
p3226
tp3227
a(I985
I0
I0
g655
tp3228
a(I1033
I1
I0
S'great'
p3229
tp3230
a(I1093
I2
I0
S'great'
p3231
tp3232
a(I1158
I0
I0
S'great'
p3233
tp3234
a(I1162
I3
I0
S'great'
p3235
tp3236
as(S'piece'
p3237
S'of'
p3238
S'junk'
p3239
tp3240
(lp3241
(I766
I4
F-0.875
S'stuck'
p3242
tp3243
as(S'lock'
p3244
tp3245
(lp3246
(I59
I0
F-0.375
S'small'
p3247
tp3248
a(I135
I1
I0
S'automatic'
p3249
tp3250
a(I153
I8
F-0.75
S'stupid'
p3251
tp3252
a(I254
I6
I0
S'faster'
p3253
tp3254
a(I286
I15
F-0.375
S'disable'
p3255
tp3256
a(I544
I8
F-0.25
S'past'
p3257
tp3258
a(I768
I0
I0
S'net'
p3259
tp3260
a(I812
I4
F0.125
S'pad'
p3261
tp3262
a(I841
I1
F0.125
S'first'
p3263
tp3264
a(I953
I8
F0.625
S'easy'
p3265
tp3266
a(I1100
I0
I0
S'screen'
p3267
tp3268
a(I1160
I6
I0
S'few'
p3269
tp3270
as(S'bought'
p3271
tp3272
(lp3273
(I286
I2
F-0.625
S'other'
p3274
tp3275
as(S'problems'
p3276
tp3277
(lp3278
(I92
I3
F-0.375
S'small'
p3279
tp3280
a(I237
I4
F0.125
S'enough'
p3281
tp3282
a(I276
I0
F1.0
S'good'
p3283
tp3284
a(I301
I0
I0
S'many'
p3285
tp3286
a(I398
I1
F-0.375
S'serious'
p3287
tp3288
a(I443
I0
I0
S'real'
p3289
tp3290
a(I478
I2
F0.125
S'first'
p3291
tp3292
a(I544
I3
F0.375
S'significant'
p3293
tp3294
a(I767
I1
I0
S'minute'
p3295
tp3296
a(I767
I1
I0
S'most'
p3297
tp3298
a(I844
I6
I0
S'many'
p3299
tp3300
a(I862
I3
F0.125
S'first'
p3301
tp3302
a(I872
I3
I0
S'many'
p3303
tp3304
a(I1032
I0
F-0.375
S'serious'
p3305
tp3306
a(I1121
I1
I0
S'detailed'
p3307
tp3308
a(I1137
I13
I0
S'large'
p3309
tp3310
a(I1137
I16
I0
S'initial'
p3311
tp3312
a(I1137
I17
F-0.625
S'other'
p3313
tp3314
as(S'up'
p3315
S'voice'
p3316
S'mail'
p3317
tp3318
(lp3319
(I162
I0
F-0.75
S'impossible'
p3320
tp3321
as(S'back'
p3322
tp3323
(lp3324
(I295
I1
I0
S'great'
p3325
tp3326
a(I702
I1
I0
S'more'
p3327
tp3328
a(I858
I12
F0.375
S'register'
p3329
tp3330
a(I1129
I2
F0.625
S'easier'
p3331
tp3332
a(I1129
I2
I0
S'pen'
p3333
tp3334
as(S'expiration'
p3335
S'date'
p3336
tp3337
(lp3338
(I443
I4
F0.125
S'valid'
p3339
tp3340
as(g612
S'touch'
p3341
S'screen'
p3342
tp3343
(lp3344
(I12
I5
I0
g2692
tp3345
a(I15
I1
F0.5
S'touch'
p3346
tp3347
a(I26
I2
F0.625
g2694
tp3348
a(I26
I2
F0.5
g2696
tp3349
a(I43
I2
F-0.625
g2698
tp3350
a(I43
I2
F0.5
g2700
tp3351
a(I55
I0
F0.5
g2541
tp3352
a(I76
I3
F0.5
S'touch'
p3353
tp3354
a(I79
I0
F0.5
g2543
tp3355
a(I91
I3
I0
g325
tp3356
a(I91
I3
I0
g327
tp3357
a(I91
I3
F-0.625
S'other'
p3358
tp3359
a(I91
I3
F0.375
S'much'
p3360
tp3361
a(I113
I7
F-0.625
g331
tp3362
a(I117
I0
F1.0
g2703
tp3363
a(I117
I0
F0.5
g2705
tp3364
a(I123
I3
F-0.875
g333
tp3365
a(I135
I0
F0.5
g2708
tp3366
a(I139
I0
I0
g335
tp3367
a(I163
I2
F0.5
S'touch'
p3368
tp3369
a(I165
I9
F0.5
S'touch'
p3370
tp3371
a(I171
I2
F0.5
g2710
tp3372
a(I178
I0
I0
g337
tp3373
a(I189
I0
F0.5
S'touch'
p3374
tp3375
a(I195
I0
F0.5
S'touch'
p3376
tp3377
a(I208
I0
F0.125
g339
tp3378
a(I208
I0
F0.5
g2546
tp3379
a(I208
I0
I0
g2548
tp3380
a(I208
I0
F0.375
g341
tp3381
a(I218
I0
F0.5
g2717
tp3382
a(I220
I4
F0.25
g343
tp3383
a(I220
I4
F-0.625
g345
tp3384
a(I220
I6
F0.25
g347
tp3385
a(I251
I2
F0.875
g349
tp3386
a(I274
I0
F0.5
S'touch'
p3387
tp3388
a(I285
I0
F0.5
S'touch'
p3389
tp3390
a(I285
I0
F-0.375
S'simple'
p3391
tp3392
a(I286
I3
F0.5
g2722
tp3393
a(I295
I0
F0.625
g2724
tp3394
a(I295
I0
F-0.75
g2726
tp3395
a(I295
I0
F-0.375
g351
tp3396
a(I305
I1
F0.5
g2729
tp3397
a(I307
I0
F0.5
g2731
tp3398
a(I309
I0
F0.5
S'touch'
p3399
tp3400
a(I309
I2
F0.5
g2733
tp3401
a(I315
I0
F0.5
g2735
tp3402
a(I321
I1
F1.0
g357
tp3403
a(I327
I8
F0.5
S'touch'
p3404
tp3405
a(I333
I19
F0.5
S'careful'
p3406
tp3407
a(I333
I19
I0
S'such'
p3408
tp3409
a(I333
I21
F0.25
g2737
tp3410
a(I342
I2
F-0.375
g359
tp3411
a(I351
I1
F0.5
S'touch'
p3412
tp3413
a(I365
I1
F0.5
S'touch'
p3414
tp3415
a(I367
I2
F0.125
g361
tp3416
a(I367
I2
I0
S'sensitive'
p3417
tp3418
a(I384
I2
F0.5
g2740
tp3419
a(I386
I0
F0.5
g2742
tp3420
a(I386
I0
F0.125
g2744
tp3421
a(I395
I0
F-0.75
g363
tp3422
a(I408
I1
F-0.75
S'unresponsive'
p3423
tp3424
a(I416
I2
F1.0
S'good'
p3425
tp3426
a(I416
I2
F0.5
S'touch'
p3427
tp3428
a(I418
I0
F0.5
g2552
tp3429
a(I423
I3
F0.5
g2747
tp3430
a(I423
I11
F0.25
S'responsive'
p3431
tp3432
a(I423
I11
F0.5
S'touch'
p3433
tp3434
a(I424
I1
F0.5
S'touch'
p3435
tp3436
a(I433
I0
F-0.75
g2749
tp3437
a(I437
I2
F0.875
g2751
tp3438
a(I444
I9
I0
g2554
tp3439
a(I451
I1
F0.125
g365
tp3440
a(I453
I0
F0.5
g2556
tp3441
a(I461
I1
F-0.75
S'little'
p3442
tp3443
a(I478
I10
F0.5
g2756
tp3444
a(I478
I21
F0.25
g369
tp3445
a(I478
I21
I0
g371
tp3446
a(I478
I21
F0.25
g373
tp3447
a(I488
I2
F1.0
g375
tp3448
a(I488
I2
I0
g2762
tp3449
a(I490
I5
I0
g377
tp3450
a(I499
I0
F0.5
S'touch'
p3451
tp3452
a(I499
I0
F0.625
S'easy'
p3453
tp3454
a(I502
I7
F0.5
S'touch'
p3455
tp3456
a(I512
I0
F0.5
g2764
tp3457
a(I512
I0
F0.625
g2766
tp3458
a(I519
I0
F0.5
g2768
tp3459
a(I521
I1
F0.5
g2770
tp3460
a(I521
I1
F0.25
g2772
tp3461
a(I521
I2
F0.5
S'touch'
p3462
tp3463
a(I525
I8
F0.875
S'nice'
p3464
tp3465
a(I542
I9
F0.25
S'responsive'
p3466
tp3467
a(I544
I2
F0.5
g2558
tp3468
a(I545
I5
I0
g2775
tp3469
a(I556
I0
F0.5
S'touch'
p3470
tp3471
a(I556
I0
F-0.875
g381
tp3472
a(I556
I0
F0.125
g383
tp3473
a(I562
I3
F0.5
g385
tp3474
a(I562
I3
F0.875
g387
tp3475
a(I565
I3
F0.5
g2779
tp3476
a(I568
I2
F0.5
g2560
tp3477
a(I572
I0
F0.5
g2782
tp3478
a(I593
I0
F0.5
g2784
tp3479
a(I593
I2
F-0.375
g391
tp3480
a(I595
I4
F0.5
g2562
tp3481
a(I597
I1
F0.25
g2786
tp3482
a(I614
I0
F-0.5
g393
tp3483
a(I620
I0
F0.5
S'touch'
p3484
tp3485
a(I620
I0
F1.0
S'better'
p3486
tp3487
a(I642
I3
F0.5
g2789
tp3488
a(I652
I7
F-0.625
g397
tp3489
a(I665
I0
F0.5
S'touch'
p3490
tp3491
a(I677
I1
F0.5
g2564
tp3492
a(I681
I1
F-0.125
g401
tp3493
a(I681
I1
F1.0
g403
tp3494
a(I693
I2
F0.5
g2791
tp3495
a(I699
I11
F1.0
g407
tp3496
a(I699
I11
F0.875
g409
tp3497
a(I709
I4
F0.5
g2795
tp3498
a(I713
I0
F0.5
g2566
tp3499
a(I715
I4
F0.5
g2797
tp3500
a(I719
I0
F0.5
g2799
tp3501
a(I719
I0
I0
g2801
tp3502
a(I726
I11
F0.5
g2803
tp3503
a(I726
I11
F-0.75
g2805
tp3504
a(I726
I11
F0.625
g2807
tp3505
a(I729
I2
F-0.75
g2809
tp3506
a(I743
I1
F0.5
g2568
tp3507
a(I744
I1
F0.5
g2812
tp3508
a(I746
I2
F1.0
S'good'
p3509
tp3510
a(I746
I2
F0.5
S'touch'
p3511
tp3512
a(I773
I4
F0.5
g2814
tp3513
a(I777
I1
F0.5
g2816
tp3514
a(I777
I2
F0.5
g2818
tp3515
a(I794
I1
F-0.5
S'less'
p3516
tp3517
a(I794
I1
I0
S'sensitive'
p3518
tp3519
a(I797
I1
F0.5
g2820
tp3520
a(I799
I2
F-0.875
S'awful'
p3521
tp3522
a(I820
I7
F0.5
g2822
tp3523
a(I831
I1
F-0.75
S'impossible'
p3524
tp3525
a(I835
I3
F0.5
S'touch'
p3526
tp3527
a(I876
I3
I0
g411
tp3528
a(I888
I9
I0
S'same'
p3529
tp3530
a(I891
I11
I0
g415
tp3531
a(I892
I5
F0.5
S'touch'
p3532
tp3533
a(I892
I5
I0
S'great'
p3534
tp3535
a(I901
I1
F0.5
S'touch'
p3536
tp3537
a(I915
I2
F0.5
S'touch'
p3538
tp3539
a(I925
I2
I0
S'sensitive'
p3540
tp3541
a(I929
I2
I0
g417
tp3542
a(I941
I0
F0.5
g2825
tp3543
a(I953
I2
F0.5
S'touch'
p3544
tp3545
a(I960
I0
F0.5
g2827
tp3546
a(I1002
I2
F-0.75
g421
tp3547
a(I1004
I2
F1.0
g2830
tp3548
a(I1033
I1
F0.5
g2832
tp3549
a(I1045
I0
F0.5
g2572
tp3550
a(I1047
I0
I0
g2834
tp3551
a(I1060
I1
F0.5
S'touch'
p3552
tp3553
a(I1060
I1
F0.5
S'touch'
p3554
tp3555
a(I1072
I8
I0
S'plastic'
p3556
tp3557
a(I1072
I8
I0
S'least'
p3558
tp3559
a(I1072
I8
F1.0
S'good'
p3560
tp3561
a(I1072
I12
F0.375
g423
tp3562
a(I1097
I5
F0.25
g2836
tp3563
a(I1097
I5
F-0.125
g427
tp3564
a(I1114
I1
F0.5
S'touch'
p3565
tp3566
a(I1114
I5
F0.25
g2839
tp3567
a(I1126
I0
F0.5
g2841
tp3568
a(I1130
I0
F0.5
S'touch'
p3569
tp3570
a(I1137
I13
F0.5
g2843
tp3571
a(I1137
I23
I0
g429
tp3572
a(I1137
I42
F0.5
g2845
tp3573
a(I1137
I42
F-0.875
g2847
tp3574
a(I1142
I1
F0.875
g2849
tp3575
a(I1142
I1
F-0.375
g2851
tp3576
a(I1142
I1
I0
g2853
tp3577
a(I1143
I1
F0.5
S'touch'
p3578
tp3579
a(I1160
I4
F0.5
S'touch'
p3580
tp3581
a(I1161
I0
F0.5
S'touch'
p3582
tp3583
a(I1161
I0
F0.625
S'easy'
p3584
tp3585
a(I1173
I4
F0.25
S'responsive'
p3586
tp3587
as(S'blue'
p3588
S'tooth'
p3589
tp3590
(lp3591
(I56
I1
I0
S'blue'
p3592
tp3593
a(I139
I1
I0
S'full'
p3594
tp3595
a(I139
I1
I0
S'blue'
p3596
tp3597
a(I152
I3
I0
S'blue'
p3598
tp3599
a(I152
I3
F0.625
S'easy'
p3600
tp3601
a(I880
I2
I0
S'blue'
p3602
tp3603
as(S'fine'
p3604
tp3605
(lp3606
(I58
I0
I0
S'text'
p3607
tp3608
a(I153
I5
F0.375
S'worked'
p3609
tp3610
a(I624
I2
F0.625
S'easy'
p3611
tp3612
a(I696
I1
F-0.375
S'small'
p3613
tp3614
a(I773
I5
I0
S'faster'
p3615
tp3616
a(I900
I0
F0.125
S'first'
p3617
tp3618
a(I955
I1
F-0.5
S'certain'
p3619
tp3620
a(I1036
I1
F0.625
S'easy'
p3621
tp3622
a(I1082
I1
F0.625
S'easy'
p3623
tp3624
as(S'life'
p3625
tp3626
(lp3627
(I63
I2
F1.0
S'good'
p3628
tp3629
a(I70
I2
F1.0
S'good'
p3630
tp3631
a(I74
I14
F1.0
S'good'
p3632
tp3633
a(I89
I0
F-0.625
S'free'
p3634
tp3635
a(I89
I3
F-0.625
S'free'
p3636
tp3637
a(I89
I3
F0.5
S'true'
p3638
tp3639
a(I101
I2
F0.375
S'much'
p3640
tp3641
a(I153
I14
I0
S'tutorial'
p3642
tp3643
a(I193
I1
F-0.25
S'low'
p3644
tp3645
a(I236
I0
I0
S'great'
p3646
tp3647
a(I336
I4
F1.0
S'good'
p3648
tp3649
a(I624
I4
F1.0
S'good'
p3650
tp3651
a(I648
I12
I0
S'phenomenal'
p3652
tp3653
a(I687
I0
I0
S'old'
p3654
tp3655
a(I687
I8
F0.125
S'able'
p3656
tp3657
a(I723
I0
F0.125
S'last'
p3658
tp3659
a(I752
I2
F0.625
S'easy'
p3660
tp3661
a(I760
I14
F1.0
S'good'
p3662
tp3663
as(S'do'
p3664
S"n't"
p3665
S'use'
p3666
tp3667
(lp3668
(I187
I11
F-0.625
S'light'
p3669
tp3670
a(I607
I1
I0
S'even'
p3671
tp3672
a(I607
I1
F-0.75
S'little'
p3673
tp3674
a(I1171
I17
F-0.5
S'regular'
p3675
tp3676
as(S'voice'
p3677
S'mail'
p3678
tp3679
(lp3680
(I133
I2
I0
g2282
tp3681
a(I162
I0
F-0.75
g3320
tp3682
a(I625
I3
I0
S'dial'
p3683
tp3684
a(I655
I4
I0
g2286
tp3685
a(I929
I6
F0.5
g2292
tp3686
a(I1009
I5
F-0.5
g2296
tp3687
as(S'transfer'
p3688
tp3689
(lp3690
(I52
I13
I0
S'file'
p3691
tp3692
a(I192
I9
F-0.5
S'actual'
p3693
tp3694
a(I378
I23
I0
S'cable'
p3695
tp3696
as(S'minutes'
p3697
S'for'
p3698
S'life'
p3699
tp3700
(lp3701
(I28
I3
F-0.25
g99
tp3702
a(I28
I4
I0
g101
tp3703
a(I28
I4
F-0.625
g103
tp3704
a(I28
I4
F-0.25
g105
tp3705
a(I28
I25
F-0.25
g109
tp3706
a(I89
I0
F-0.625
g3634
tp3707
a(I89
I3
F-0.625
g3636
tp3708
a(I89
I3
F0.5
g3638
tp3709
a(I101
I2
F0.375
g3640
tp3710
a(I143
I0
F-0.375
g125
tp3711
a(I153
I14
F-0.375
g2895
tp3712
a(I153
I14
I0
g3642
tp3713
a(I160
I5
F-0.25
g127
tp3714
a(I236
I0
I0
g3646
tp3715
a(I308
I1
F-0.25
g147
tp3716
a(I317
I3
F-0.25
g149
tp3717
a(I347
I6
F-0.25
g155
tp3718
a(I389
I1
F-0.375
g2970
tp3719
a(I502
I8
F-0.25
g179
tp3720
a(I502
I8
F-0.375
g181
tp3721
a(I536
I1
F-0.25
g187
tp3722
a(I630
I2
F-0.25
g207
tp3723
a(I635
I1
F-0.5
g209
tp3724
a(I635
I1
I0
g211
tp3725
a(I635
I1
F-0.375
g213
tp3726
a(I635
I1
F-0.25
g215
tp3727
a(I687
I8
F0.125
g3656
tp3728
a(I723
I0
F0.125
g3658
tp3729
a(I752
I2
F0.625
g3660
tp3730
a(I789
I4
F-0.25
g251
tp3731
a(I801
I17
F-0.25
g258
tp3732
a(I1115
I6
I0
g300
tp3733
a(I1115
I6
F-0.25
g302
tp3734
as(S'cs'
p3735
S'reps'
p3736
tp3737
(lp3738
(I153
I2
F0.25
S'responsive'
p3739
tp3740
a(I153
I2
F0.25
S'helpful'
p3741
tp3742
as(S'call'
p3743
tp3744
(lp3745
(I44
I9
I0
S'earlier'
p3746
tp3747
a(I44
I9
I0
S'earlier'
p3748
tp3749
a(I44
I11
F0.125
S'first'
p3750
tp3751
a(I87
I0
F-0.75
S'difficult'
p3752
tp3753
a(I197
I6
F0.125
S'first'
p3754
tp3755
a(I268
I13
I0
g1724
tp3756
a(I283
I25
F-0.75
S'tough'
p3757
tp3758
a(I283
I27
F-0.75
S'wrong'
p3759
tp3760
a(I296
I13
F0.125
S'last'
p3761
tp3762
a(I336
I9
F0.5
S'true'
p3763
tp3764
a(I336
I9
F0.5
S'live'
p3765
tp3766
a(I352
I1
F-0.5
S'less'
p3767
tp3768
a(I378
I7
F-0.75
S'difficult'
p3769
tp3770
a(I388
I4
F-0.25
S'dropped'
p3771
tp3772
a(I444
I4
I0
S'third'
p3773
tp3774
a(I518
I3
F0.75
S'receive'
p3775
tp3776
a(I567
I9
F-0.875
S'hard'
p3777
tp3778
a(I588
I4
F-0.5
S'regular'
p3779
tp3780
a(I614
I0
I0
g1726
tp3781
a(I669
I0
F1.0
S'good'
p3782
tp3783
a(I696
I5
F-0.5
S'complaint'
p3784
tp3785
a(I754
I13
I0
S'great'
p3786
tp3787
a(I773
I6
F-0.625
S'green'
p3788
tp3789
a(I919
I11
F0.5
S'second'
p3790
tp3791
a(I1054
I23
F0.375
S'new'
p3792
tp3793
a(I1054
I25
F1.0
S'good'
p3794
tp3795
a(I1054
I33
I0
S'weird'
p3796
tp3797
a(I1075
I1
F1.0
S'better'
p3798
tp3799
a(I1133
I0
F-0.625
S'bad'
p3800
tp3801
as(S'get'
p3802
S'triple'
p3803
S'minutes'
p3804
tp3805
(lp3806
(I28
I4
I0
g101
tp3807
a(I28
I4
F-0.625
g103
tp3808
a(I28
I4
F-0.25
g105
tp3809
a(I28
I25
F-0.25
g109
tp3810
a(I68
I1
F-0.375
g113
tp3811
a(I68
I1
F0.625
g115
tp3812
a(I283
I25
F0.375
g137
tp3813
a(I283
I25
F-0.25
g139
tp3814
a(I308
I1
F-0.25
g147
tp3815
a(I378
I38
F0.875
g161
tp3816
a(I378
I38
F0.125
g163
tp3817
a(I537
I1
F-0.375
g189
tp3818
a(I654
I6
F-0.375
g221
tp3819
a(I654
I6
F-0.375
g223
tp3820
a(I654
I6
F0.375
g225
tp3821
a(I680
I6
F-0.75
g229
tp3822
a(I680
I6
F-0.75
g231
tp3823
a(I680
I6
I0
g233
tp3824
a(I950
I2
F-0.375
g276
tp3825
a(I1086
I4
F-0.25
g294
tp3826
a(I1166
I2
F-0.25
g310
tp3827
as(S'n'
p3828
g3200
S'pocket'
p3829
tp3830
(lp3831
(I79
I0
F0.625
S'perfect'
p3832
tp3833
a(I189
I0
I0
S'dial'
p3834
tp3835
a(I257
I3
F0.625
S'easy'
p3836
tp3837
a(I257
I3
F0.625
S'easy'
p3838
tp3839
a(I257
I3
F-0.375
S'small'
p3840
tp3841
a(I394
I1
F-0.375
S'small'
p3842
tp3843
a(I620
I1
I0
S'sensitive'
p3844
tp3845
a(I755
I6
I0
S'slippery'
p3846
tp3847
a(I1085
I3
I0
S'own'
p3848
tp3849
a(I1097
I4
I0
S'dial'
p3850
tp3851
a(I1123
I1
F-0.625
S'unobtrusive'
p3852
tp3853
a(I1168
I16
F0.375
S'wearable'
p3854
tp3855
as(S'great'
p3856
tp3857
(lp3858
(I457
I1
F0.875
S'nice'
p3859
tp3860
a(I994
I7
I0
S'same'
p3861
tp3862
as(S'battery'
p3863
tp3864
(lp3865
(I70
I2
I0
S'basic'
p3866
tp3867
a(I97
I0
F0.375
S'extra'
p3868
tp3869
a(I107
I5
F-0.75
S'off'
p3870
tp3871
a(I139
I1
F1.0
S'good'
p3872
tp3873
a(I193
I1
I0
S'few'
p3874
tp3875
a(I210
I2
F0.625
S'easy'
p3876
tp3877
a(I264
I0
F-0.5
S'open'
p3878
tp3879
a(I352
I2
F-0.25
S'low'
p3880
tp3881
a(I392
I3
F0.375
S'new'
p3882
tp3883
a(I392
I5
F0.25
S'original'
p3884
tp3885
a(I403
I2
I0
S'deplete'
p3886
tp3887
a(I428
I5
F-0.25
S'plugged'
p3888
tp3889
a(I478
I29
F-0.75
S'dead'
p3890
tp3891
a(I478
I35
F-0.75
S'dead'
p3892
tp3893
a(I643
I1
F1.0
S'good'
p3894
tp3895
a(I664
I3
F-0.625
S'bad'
p3896
tp3897
a(I679
I1
F-0.5
S'long'
p3898
tp3899
a(I687
I9
F-0.25
S'low'
p3900
tp3901
a(I744
I6
F-0.5
S'long'
p3902
tp3903
a(I792
I10
I0
S'full'
p3904
tp3905
a(I838
I3
F0.5
S'touch'
p3906
tp3907
a(I838
I5
F0.375
S'new'
p3908
tp3909
a(I881
I0
F-0.625
S'bad'
p3910
tp3911
a(I882
I3
F0.375
S'new'
p3912
tp3913
a(I917
I6
F0.375
S'new'
p3914
tp3915
a(I917
I6
F0.5
S'reasonable'
p3916
tp3917
a(I927
I10
F0.25
S'helpful'
p3918
tp3919
a(I964
I1
F-0.5
S'long'
p3920
tp3921
a(I1006
I0
F1.0
S'good'
p3922
tp3923
a(I1123
I2
F-0.5
S'long'
p3924
tp3925
a(I1152
I7
I0
S'big'
p3926
tp3927
a(I1152
I7
F-0.5
S'heavy'
p3928
tp3929
a(I1152
I7
F1.0
S'good'
p3930
tp3931
a(I1155
I7
F0.125
S'first'
p3932
tp3933
a(I1164
I1
I0
S'full'
p3934
tp3935
as(S'smart'
p3936
tp3937
(lp3938
(I91
I3
F0.5
S'expensive'
p3939
tp3940
a(I333
I20
F0.5
S'true'
p3941
tp3942
a(I337
I0
F-0.25
S'inexpensive'
p3943
tp3944
a(I376
I0
F-0.375
S'simple'
p3945
tp3946
a(I724
I0
F1.0
S'good'
p3947
tp3948
a(I724
I0
F0.125
S'first'
p3949
tp3950
a(I727
I7
I0
S'real'
p3951
tp3952
a(I747
I3
I0
S'cool'
p3953
tp3954
a(I782
I1
I0
S'real'
p3955
tp3956
a(I886
I2
F0.5
S'expensive'
p3957
tp3958
a(I919
I6
I0
S'real'
p3959
tp3960
a(I961
I0
F0.375
S'new'
p3961
tp3962
a(I1009
I0
I0
S'traditional'
p3963
tp3964
as(S'cell'
p3965
tp3966
(lp3967
(I36
I8
F-0.125
S'mine'
p3968
tp3969
a(I153
I13
I0
S'big'
p3970
tp3971
a(I213
I2
F0.375
S'similar'
p3972
tp3973
a(I251
I0
F1.0
S'good'
p3974
tp3975
a(I263
I11
F0.25
S'portable'
p3976
tp3977
a(I269
I0
F1.0
S'best'
p3978
tp3979
a(I286
I12
F0.5
S'expensive'
p3980
tp3981
a(I288
I0
F0.5
S'second'
p3982
tp3983
a(I288
I5
F0.5
S'second'
p3984
tp3985
a(I298
I6
I0
S'big'
p3986
tp3987
a(I337
I3
I0
S'big'
p3988
tp3989
a(I344
I4
F0.5
S'expensive'
p3990
tp3991
a(I344
I4
F-0.625
S'other'
p3992
tp3993
a(I355
I6
F0.375
S'dependable'
p3994
tp3995
a(I381
I0
F-0.875
S'worst'
p3996
tp3997
a(I411
I0
F0.375
S'new'
p3998
tp3999
a(I423
I1
I0
S'big'
p4000
tp4001
a(I426
I4
I0
S'basic'
p4002
tp4003
a(I431
I0
F0.125
S'first'
p4004
tp4005
a(I487
I1
F-0.5
S'regular'
p4006
tp4007
a(I503
I1
I0
S'economical'
p4008
tp4009
a(I585
I0
I0
S'big'
p4010
tp4011
a(I614
I0
F-0.875
S'worst'
p4012
tp4013
a(I726
I9
F0.625
S'convenient'
p4014
tp4015
a(I744
I0
F-0.875
S'worst'
p4016
tp4017
a(I751
I6
F-0.75
S'difficult'
p4018
tp4019
a(I752
I0
I0
S'own'
p4020
tp4021
a(I780
I4
F0.5
S'strong'
p4022
tp4023
a(I826
I0
F-0.75
S'hate'
p4024
tp4025
a(I827
I1
F1.0
S'best'
p4026
tp4027
a(I919
I6
I0
S'old'
p4028
tp4029
a(I986
I0
I0
S'basic'
p4030
tp4031
a(I1002
I3
F-0.875
S'worst'
p4032
tp4033
a(I1016
I2
F0.375
S'new'
p4034
tp4035
a(I1028
I1
I0
S'different'
p4036
tp4037
a(I1080
I11
F1.0
S'good'
p4038
tp4039
a(I1132
I29
F0.625
S'perfect'
p4040
tp4041
a(I1132
I29
F-0.625
S'light'
p4042
tp4043
a(I1137
I42
F-0.5
S'poor'
p4044
tp4045
a(I1141
I0
F0.375
S'new'
p4046
tp4047
a(I1162
I1
I0
S'big'
p4048
tp4049
as(S'money'
p4050
tp4051
(lp4052
(I81
I1
I0
S'full'
p4053
tp4054
a(I119
I5
F0.75
S'worth'
p4055
tp4056
a(I170
I3
F1.0
S'good'
p4057
tp4058
a(I261
I0
F0.5
S'careful'
p4059
tp4060
a(I300
I6
I0
S'more'
p4061
tp4062
a(I332
I2
I0
S'more'
p4063
tp4064
a(I388
I7
F0.375
S'extra'
p4065
tp4066
a(I521
I3
F1.0
S'good'
p4067
tp4068
a(I555
I0
F1.0
S'good'
p4069
tp4070
a(I727
I8
F0.75
S'worth'
p4071
tp4072
a(I727
I8
F0.375
S'extra'
p4073
tp4074
a(I801
I16
F0.75
S'worth'
p4075
tp4076
a(I933
I9
I0
S'more'
p4077
tp4078
a(I959
I0
F0.125
S'enough'
p4079
tp4080
a(I966
I1
F0.75
S'worth'
p4081
tp4082
a(I1040
I3
I0
S'own'
p4083
tp4084
a(I1040
I3
F-0.125
S'mine'
p4085
tp4086
a(I1048
I3
F0.25
S'larger'
p4087
tp4088
a(I1104
I0
F0.625
S'easy'
p4089
tp4090
as(S'cheap'
p4091
tp4092
(lp4093
(I113
I9
F-0.125
S'super'
p4094
tp4095
a(I117
I1
F-0.625
S'bad'
p4096
tp4097
a(I119
I9
F-0.125
S'mine'
p4098
tp4099
a(I119
I9
F0.375
S'reliable'
p4100
tp4101
a(I401
I0
I0
S'real'
p4102
tp4103
a(I523
I0
F1.0
S'good'
p4104
tp4105
a(I556
I0
F1.0
S'good'
p4106
tp4107
a(I573
I14
F-0.375
S'crazy'
p4108
tp4109
a(I581
I2
F1.0
S'good'
p4110
tp4111
a(I687
I6
I0
S'common'
p4112
tp4113
a(I687
I6
F0.625
S'easy'
p4114
tp4115
a(I739
I4
F0.875
S'nice'
p4116
tp4117
a(I909
I0
I0
S'basic'
p4118
tp4119
a(I1019
I2
F1.0
S'good'
p4120
tp4121
a(I1020
I1
F1.0
S'good'
p4122
tp4123
a(I1051
I1
I0
S'close'
p4124
tp4125
as(S'press'
p4126
tp4127
(lp4128
(I135
I7
F0.5
S'touch'
p4129
tp4130
a(I382
I5
F0.125
S'key'
p4131
tp4132
a(I383
I12
F0.125
S'able'
p4133
tp4134
a(I439
I9
F-0.75
S'impossible'
p4135
tp4136
a(I461
I1
F-0.875
S'hard'
p4137
tp4138
a(I492
I2
F-0.875
S'hard'
p4139
tp4140
a(I530
I5
F0.125
S'key'
p4141
tp4142
a(I544
I5
F-0.25
S'past'
p4143
tp4144
a(I544
I5
F-0.25
S'ready'
p4145
tp4146
a(I544
I8
I0
S'english'
p4147
tp4148
a(I691
I2
F0.125
S'key'
p4149
tp4150
a(I739
I0
F0.375
S'forcing'
p4151
tp4152
a(I933
I4
I0
S'english'
p4153
tp4154
as(S'f'
p4155
S'want'
p4156
tp4157
(lp4158
(I1010
I30
F0.5
S'clear'
p4159
tp4160
as(S'able'
p4161
S'to'
p4162
S'use'
p4163
tp4164
(lp4165
(I478
I31
F0.125
S'able'
p4166
tp4167
as(S'time'
p4168
tp4169
(lp4170
(I4
I0
F1.0
S'best'
p4171
tp4172
a(I22
I4
F0.125
S'first'
p4173
tp4174
a(I42
I4
F-0.75
S'short'
p4175
tp4176
a(I65
I4
F0.5
S'touch'
p4177
tp4178
a(I86
I7
F-0.5
g2210
tp4179
a(I88
I5
F0.5
S'live'
p4180
tp4181
a(I90
I5
I0
S'shuffle'
p4182
tp4183
a(I91
I6
F0.375
S'standby'
p4184
tp4185
a(I92
I3
I0
S'only'
p4186
tp4187
a(I92
I12
I0
S'only'
p4188
tp4189
a(I102
I0
F-0.5
g2212
tp4190
a(I105
I4
I0
S'sixth'
p4191
tp4192
a(I129
I3
F0.625
S'accessible'
p4193
tp4194
a(I143
I6
F-0.5
S'open'
p4195
tp4196
a(I157
I2
I0
S'most'
p4197
tp4198
a(I157
I3
I0
S'only'
p4199
tp4200
a(I168
I5
I0
S'next'
p4201
tp4202
a(I201
I5
F-0.5
g2214
tp4203
a(I206
I6
F0.75
S'worth'
p4204
tp4205
a(I242
I0
F0.125
S'pad'
p4206
tp4207
a(I247
I17
F-0.5
S'open'
p4208
tp4209
a(I254
I7
F-0.5
g2216
tp4210
a(I263
I7
I0
S'more'
p4211
tp4212
a(I281
I7
F-0.125
S'mine'
p4213
tp4214
a(I286
I19
F0.125
S'further'
p4215
tp4216
a(I314
I1
F0.375
S'much'
p4217
tp4218
a(I323
I10
F-0.5
g2218
tp4219
a(I330
I0
F0.625
S'easy'
p4220
tp4221
a(I332
I0
I0
S'user'
p4222
tp4223
a(I342
I3
F0.125
S'able'
p4224
tp4225
a(I350
I0
F0.375
S'new'
p4226
tp4227
a(I372
I0
F-0.5
S'call'
p4228
tp4229
a(I378
I27
I0
S'more'
p4230
tp4231
a(I397
I0
F1.0
S'good'
p4232
tp4233
a(I435
I10
I0
S'different'
p4234
tp4235
a(I444
I9
I0
S'same'
p4236
tp4237
a(I456
I3
I0
S'most'
p4238
tp4239
a(I456
I5
F0.5
S'true'
p4240
tp4241
a(I474
I0
F0.5
S'second'
p4242
tp4243
a(I477
I5
I0
S'more'
p4244
tp4245
a(I478
I30
I0
S'latest'
p4246
tp4247
a(I484
I20
F0.125
S'first'
p4248
tp4249
a(I494
I0
F0.375
S'extra'
p4250
tp4251
a(I495
I0
F-0.5
g2220
tp4252
a(I508
I2
I0
S'signal'
p4253
tp4254
a(I549
I4
F0.75
S'worth'
p4255
tp4256
a(I550
I2
I0
S'large'
p4257
tp4258
a(I550
I4
F0.125
S'last'
p4259
tp4260
a(I559
I5
F-0.75
S'single'
p4261
tp4262
a(I569
I2
F0.875
S'happy'
p4263
tp4264
a(I574
I1
I0
S'only'
p4265
tp4266
a(I574
I1
F-0.875
S'negative'
p4267
tp4268
a(I574
I1
F-0.875
S'hard'
p4269
tp4270
a(I586
I3
I0
S'most'
p4271
tp4272
a(I587
I7
F0.375
S'much'
p4273
tp4274
a(I619
I0
F-0.5
g2222
tp4275
a(I620
I4
I0
S'only'
p4276
tp4277
a(I645
I0
I0
S'anymore'
p4278
tp4279
a(I646
I0
F-0.5
g2224
tp4280
a(I655
I5
F0.375
S'extra'
p4281
tp4282
a(I675
I0
F0.125
S'first'
p4283
tp4284
a(I684
I0
F-0.875
S'hard'
p4285
tp4286
a(I691
I2
F-0.5
g2226
tp4287
a(I698
I0
F-0.875
S'hard'
p4288
tp4289
a(I700
I6
I0
S'same'
p4290
tp4291
a(I709
I5
F-0.5
S'actual'
p4292
tp4293
a(I715
I8
I0
S'such'
p4294
tp4295
a(I715
I8
I0
S'annual'
p4296
tp4297
a(I726
I1
I0
S'full'
p4298
tp4299
a(I738
I0
F-0.125
S'air'
p4300
tp4301
a(I740
I5
F0.125
S'first'
p4302
tp4303
a(I752
I25
I0
S'most'
p4304
tp4305
a(I789
I4
F-0.25
g2228
tp4306
a(I789
I4
F-0.5
g2230
tp4307
a(I790
I1
F-0.875
S'hard'
p4308
tp4309
a(I801
I1
F-0.75
S'little'
p4310
tp4311
a(I806
I0
F-0.5
g2232
tp4312
a(I810
I4
I0
S'initial'
p4313
tp4314
a(I866
I3
F-0.5
g2234
tp4315
a(I876
I1
I0
S'same'
p4316
tp4317
a(I881
I4
F-0.875
S'hard'
p4318
tp4319
a(I909
I2
F0.375
S'extended'
p4320
tp4321
a(I942
I5
F0.625
S'aware'
p4322
tp4323
a(I961
I0
F-0.5
g2236
tp4324
a(I980
I0
F0.875
S'music'
p4325
tp4326
a(I994
I6
I0
S'same'
p4327
tp4328
a(I1029
I12
F-0.5
g2238
tp4329
a(I1054
I24
F-0.75
S'short'
p4330
tp4331
a(I1062
I18
F-0.5
g2240
tp4332
a(I1080
I7
I0
S'most'
p4333
tp4334
a(I1096
I9
I0
S'only'
p4335
tp4336
a(I1100
I0
I0
S'full'
p4337
tp4338
a(I1100
I0
I0
S'voicemail'
p4339
tp4340
a(I1132
I4
F-0.875
S'hard'
p4341
tp4342
a(I1132
I7
F0.125
S'first'
p4343
tp4344
a(I1137
I1
I0
S'very'
p4345
tp4346
a(I1137
I1
F0.125
S'last'
p4347
tp4348
a(I1137
I23
F-0.875
S'hard'
p4349
tp4350
a(I1137
I29
F-0.5
S'sure'
p4351
tp4352
a(I1142
I2
F0.5
S'whole'
p4353
tp4354
a(I1150
I1
F-0.5
g2242
tp4355
as(g612
S'land'
p4356
S'line'
p4357
tp4358
(lp4359
(I88
I11
F-0.625
S'save'
p4360
tp4361
a(I558
I5
F0.375
S'new'
p4362
tp4363
as(S'deal'
p4364
tp4365
(lp4366
(I24
I0
F1.0
g629
tp4367
a(I30
I2
I0
g3163
tp4368
a(I90
I7
I0
g3165
tp4369
a(I91
I10
F1.0
S'better'
p4370
tp4371
a(I92
I6
I0
S'big'
p4372
tp4373
a(I108
I3
F0.5
S'whole'
p4374
tp4375
a(I116
I0
F-0.625
S'bad'
p4376
tp4377
a(I122
I3
I0
g3167
tp4378
a(I133
I8
I0
S'big'
p4379
tp4380
a(I153
I13
F1.0
S'best'
p4381
tp4382
a(I159
I0
F1.0
S'best'
p4383
tp4384
a(I200
I1
I0
g3169
tp4385
a(I207
I2
I0
g3171
tp4386
a(I209
I0
I0
g3173
tp4387
a(I237
I0
F1.0
g631
tp4388
a(I288
I5
I0
g3175
tp4389
a(I295
I1
I0
g3177
tp4390
a(I295
I1
F0.25
g3179
tp4391
a(I300
I21
I0
g3181
tp4392
a(I300
I22
I0
g3183
tp4393
a(I336
I8
F1.0
S'better'
p4394
tp4395
a(I354
I4
F1.0
g633
tp4396
a(I365
I1
F1.0
g635
tp4397
a(I365
I5
F1.0
g637
tp4398
a(I383
I15
I0
S'representative'
p4399
tp4400
a(I389
I1
I0
g3185
tp4401
a(I421
I1
I0
g3187
tp4402
a(I432
I1
I0
S'real'
p4403
tp4404
a(I437
I4
I0
g3189
tp4405
a(I444
I2
I0
S'big'
p4406
tp4407
a(I456
I1
I0
g3191
tp4408
a(I465
I5
F1.0
g639
tp4409
a(I469
I6
I0
S'big'
p4410
tp4411
a(I481
I1
F1.0
g641
tp4412
a(I497
I30
I0
S'big'
p4413
tp4414
a(I512
I0
F1.0
g643
tp4415
a(I536
I1
I0
g3194
tp4416
a(I550
I6
I0
S'big'
p4417
tp4418
a(I608
I4
F1.0
g645
tp4419
a(I639
I0
I0
g3196
tp4420
a(I640
I0
F1.0
g647
tp4421
a(I652
I7
I0
S'big'
p4422
tp4423
a(I677
I0
F1.0
S'better'
p4424
tp4425
a(I697
I1
I0
g3198
tp4426
a(I697
I1
I0
g3200
tp4427
a(I701
I2
F1.0
g649
tp4428
a(I708
I0
I0
g3202
tp4429
a(I754
I26
I0
g3204
tp4430
a(I773
I1
F1.0
g651
tp4431
a(I789
I5
I0
g3206
tp4432
a(I795
I1
I0
g3208
tp4433
a(I820
I2
I0
g3210
tp4434
a(I851
I2
I0
S'most'
p4435
tp4436
a(I859
I0
I0
g3212
tp4437
a(I893
I1
F1.0
g653
tp4438
a(I913
I0
I0
g3214
tp4439
a(I913
I0
F0.125
g3216
tp4440
a(I919
I8
I0
S'real'
p4441
tp4442
a(I926
I0
F1.0
S'best'
p4443
tp4444
a(I933
I7
I0
g3218
tp4445
a(I956
I0
I0
g3220
tp4446
a(I963
I5
F0.25
S'sweet'
p4447
tp4448
a(I965
I1
I0
g3222
tp4449
a(I969
I0
F1.0
S'best'
p4450
tp4451
a(I979
I5
I0
g3224
tp4452
a(I982
I0
I0
g3226
tp4453
a(I985
I0
I0
g655
tp4454
a(I1009
I2
F1.0
S'better'
p4455
tp4456
a(I1033
I1
I0
g3229
tp4457
a(I1093
I2
I0
g3231
tp4458
a(I1117
I2
F0.375
S'dependable'
p4459
tp4460
a(I1158
I0
I0
g3233
tp4461
a(I1162
I3
I0
g3235
tp4462
as(S'mp3'
p4463
S'player'
p4464
tp4465
(lp4466
(I19
I7
F1.0
S'good'
p4467
tp4468
a(I189
I4
F0.625
S'decent'
p4469
tp4470
a(I286
I14
I0
S'old'
p4471
tp4472
a(I347
I1
I0
S'great'
p4473
tp4474
a(I472
I4
I0
S'more'
p4475
tp4476
a(I565
I3
I0
S'great'
p4477
tp4478
a(I830
I11
I0
S'shuffle'
p4479
tp4480
a(I892
I0
I0
S'old'
p4481
tp4482
a(I892
I0
I0
S'great'
p4483
tp4484
a(I933
I0
I0
S'great'
p4485
tp4486
a(I1029
I5
I0
S'useful'
p4487
tp4488
a(I1029
I6
F0.25
S'favorite'
p4489
tp4490
a(I1029
I6
F0.5
S'compatible'
p4491
tp4492
a(I1088
I7
F1.0
S'good'
p4493
tp4494
a(I1137
I35
F0.875
S'nice'
p4495
tp4496
as(S'touch'
p4497
S'screen'
p4498
tp4499
(lp4500
(I12
I5
I0
g2692
tp4501
a(I15
I1
F0.5
g3346
tp4502
a(I26
I2
F0.625
g2694
tp4503
a(I26
I2
F0.5
g2696
tp4504
a(I43
I2
F-0.625
g2698
tp4505
a(I43
I2
F0.5
g2700
tp4506
a(I50
I6
F0.125
g315
tp4507
a(I55
I0
F0.5
g2541
tp4508
a(I60
I0
F0.125
g321
tp4509
a(I76
I3
F0.5
g3353
tp4510
a(I79
I0
F0.5
g2543
tp4511
a(I91
I3
I0
g325
tp4512
a(I91
I3
I0
g327
tp4513
a(I91
I3
F-0.625
g3358
tp4514
a(I91
I3
F0.375
g3360
tp4515
a(I113
I7
F-0.625
g331
tp4516
a(I117
I0
F1.0
g2703
tp4517
a(I117
I0
F0.5
g2705
tp4518
a(I123
I3
F-0.875
g333
tp4519
a(I135
I0
F0.5
g2708
tp4520
a(I139
I0
I0
g335
tp4521
a(I163
I2
F0.5
g3368
tp4522
a(I165
I9
F0.5
g3370
tp4523
a(I171
I2
F0.5
g2710
tp4524
a(I178
I0
I0
g337
tp4525
a(I189
I0
F0.5
g3374
tp4526
a(I195
I0
F0.5
g3376
tp4527
a(I208
I0
F0.125
g339
tp4528
a(I208
I0
F0.5
g2546
tp4529
a(I208
I0
I0
g2548
tp4530
a(I208
I0
F0.375
g341
tp4531
a(I218
I0
F0.5
g2717
tp4532
a(I220
I4
F0.25
g343
tp4533
a(I220
I4
F-0.625
g345
tp4534
a(I220
I6
F0.25
g347
tp4535
a(I251
I2
F0.875
g349
tp4536
a(I274
I0
F0.5
g3387
tp4537
a(I285
I0
F0.5
g3389
tp4538
a(I285
I0
F-0.375
g3391
tp4539
a(I286
I3
F0.5
g2722
tp4540
a(I295
I0
F0.625
g2724
tp4541
a(I295
I0
F-0.75
g2726
tp4542
a(I295
I0
F-0.375
g351
tp4543
a(I305
I1
F0.5
g2729
tp4544
a(I307
I0
F0.5
g2731
tp4545
a(I309
I0
F0.5
g3399
tp4546
a(I309
I2
F0.5
g2733
tp4547
a(I315
I0
F0.5
g2735
tp4548
a(I321
I1
F1.0
g357
tp4549
a(I327
I8
F0.5
g3404
tp4550
a(I333
I19
F0.5
g3406
tp4551
a(I333
I19
I0
g3408
tp4552
a(I333
I21
F0.25
g2737
tp4553
a(I342
I2
F-0.375
g359
tp4554
a(I351
I1
F0.5
g3412
tp4555
a(I365
I1
F0.5
g3414
tp4556
a(I367
I2
F0.125
g361
tp4557
a(I367
I2
I0
g3417
tp4558
a(I384
I2
F0.5
g2740
tp4559
a(I386
I0
F0.5
g2742
tp4560
a(I386
I0
F0.125
g2744
tp4561
a(I395
I0
F-0.75
g363
tp4562
a(I408
I1
F-0.75
g3423
tp4563
a(I416
I2
F1.0
g3425
tp4564
a(I416
I2
F0.5
g3427
tp4565
a(I418
I0
F0.5
g2552
tp4566
a(I423
I3
F0.5
g2747
tp4567
a(I423
I11
F0.25
g3431
tp4568
a(I423
I11
F0.5
g3433
tp4569
a(I424
I1
F0.5
g3435
tp4570
a(I433
I0
F-0.75
g2749
tp4571
a(I437
I2
F0.875
g2751
tp4572
a(I444
I9
I0
g2554
tp4573
a(I451
I1
F0.125
g365
tp4574
a(I452
I9
I0
S'sensitive'
p4575
tp4576
a(I453
I0
F0.5
g2556
tp4577
a(I461
I1
F-0.75
g3442
tp4578
a(I478
I10
F0.5
g2756
tp4579
a(I478
I21
F0.25
g369
tp4580
a(I478
I21
I0
g371
tp4581
a(I478
I21
F0.25
g373
tp4582
a(I488
I2
F1.0
g375
tp4583
a(I488
I2
I0
g2762
tp4584
a(I490
I5
I0
g377
tp4585
a(I499
I0
F0.5
g3451
tp4586
a(I499
I0
F0.625
g3453
tp4587
a(I502
I7
F0.5
g3455
tp4588
a(I512
I0
F0.5
g2764
tp4589
a(I512
I0
F0.625
g2766
tp4590
a(I519
I0
F0.5
g2768
tp4591
a(I521
I1
F0.5
g2770
tp4592
a(I521
I1
F0.25
g2772
tp4593
a(I521
I2
F0.5
g3462
tp4594
a(I525
I8
F0.875
g3464
tp4595
a(I532
I1
F0.5
S'touch'
p4596
tp4597
a(I532
I1
F0.25
S'responsive'
p4598
tp4599
a(I542
I9
F0.25
g3466
tp4600
a(I544
I2
F0.5
g2558
tp4601
a(I545
I5
I0
g2775
tp4602
a(I556
I0
F0.5
g3470
tp4603
a(I556
I0
F-0.875
g381
tp4604
a(I556
I0
F0.125
g383
tp4605
a(I562
I3
F0.5
g385
tp4606
a(I562
I3
F0.875
g387
tp4607
a(I565
I3
F0.5
g2779
tp4608
a(I568
I2
F0.5
g2560
tp4609
a(I572
I0
F0.5
g2782
tp4610
a(I593
I0
F0.5
g2784
tp4611
a(I593
I2
F-0.375
g391
tp4612
a(I595
I4
F0.5
g2562
tp4613
a(I597
I1
F0.25
g2786
tp4614
a(I614
I0
F-0.5
g393
tp4615
a(I620
I0
F0.5
g3484
tp4616
a(I620
I0
F1.0
g3486
tp4617
a(I642
I3
F0.5
g2789
tp4618
a(I652
I7
F-0.625
g397
tp4619
a(I665
I0
F0.5
g3490
tp4620
a(I677
I1
F0.5
g2564
tp4621
a(I681
I1
F-0.125
g401
tp4622
a(I681
I1
F1.0
g403
tp4623
a(I693
I2
F0.5
g2791
tp4624
a(I699
I11
F1.0
g407
tp4625
a(I699
I11
F0.875
g409
tp4626
a(I709
I4
F0.5
g2795
tp4627
a(I713
I0
F0.5
g2566
tp4628
a(I715
I4
F0.5
g2797
tp4629
a(I719
I0
F0.5
g2799
tp4630
a(I719
I0
I0
g2801
tp4631
a(I726
I11
F0.5
g2803
tp4632
a(I726
I11
F-0.75
g2805
tp4633
a(I726
I11
F0.625
g2807
tp4634
a(I729
I2
F-0.75
g2809
tp4635
a(I743
I1
F0.5
g2568
tp4636
a(I744
I1
F0.5
g2812
tp4637
a(I746
I2
F1.0
g3509
tp4638
a(I746
I2
F0.5
g3511
tp4639
a(I773
I4
F0.5
g2814
tp4640
a(I777
I1
F0.5
g2816
tp4641
a(I777
I2
F0.5
g2818
tp4642
a(I794
I1
F-0.5
g3516
tp4643
a(I794
I1
I0
g3518
tp4644
a(I797
I1
F0.5
g2820
tp4645
a(I799
I2
F-0.875
g3521
tp4646
a(I816
I2
F1.0
S'enjoy'
p4647
tp4648
a(I816
I2
F0.5
S'touch'
p4649
tp4650
a(I820
I7
F0.5
g2822
tp4651
a(I831
I1
F-0.75
g3524
tp4652
a(I835
I3
F0.5
g3526
tp4653
a(I876
I3
I0
g411
tp4654
a(I888
I9
I0
g3529
tp4655
a(I891
I11
I0
g415
tp4656
a(I892
I5
F0.5
g3532
tp4657
a(I892
I5
I0
g3534
tp4658
a(I901
I1
F0.5
g3536
tp4659
a(I915
I2
F0.5
g3538
tp4660
a(I925
I2
I0
g3540
tp4661
a(I929
I2
I0
g417
tp4662
a(I941
I0
F0.5
g2825
tp4663
a(I953
I2
F0.5
g3544
tp4664
a(I960
I0
F0.5
g2827
tp4665
a(I965
I2
F0.5
g2570
tp4666
a(I1002
I2
F-0.75
g421
tp4667
a(I1004
I2
F1.0
g2830
tp4668
a(I1021
I1
F0.5
S'touch'
p4669
tp4670
a(I1033
I1
F0.5
g2832
tp4671
a(I1045
I0
F0.5
g2572
tp4672
a(I1047
I0
I0
g2834
tp4673
a(I1060
I1
F0.5
g3552
tp4674
a(I1060
I1
F0.5
g3554
tp4675
a(I1065
I0
F0.5
g2574
tp4676
a(I1072
I8
I0
g3556
tp4677
a(I1072
I8
I0
g3558
tp4678
a(I1072
I8
F1.0
g3560
tp4679
a(I1072
I12
F0.375
g423
tp4680
a(I1097
I5
F0.25
g2836
tp4681
a(I1097
I5
F-0.125
g427
tp4682
a(I1114
I1
F0.5
g3565
tp4683
a(I1114
I5
F0.25
g2839
tp4684
a(I1126
I0
F0.5
g2841
tp4685
a(I1130
I0
F0.5
g3569
tp4686
a(I1137
I13
F0.5
g2843
tp4687
a(I1137
I23
I0
g429
tp4688
a(I1137
I42
F0.5
g2845
tp4689
a(I1137
I42
F-0.875
g2847
tp4690
a(I1142
I1
F0.875
g2849
tp4691
a(I1142
I1
F-0.375
g2851
tp4692
a(I1142
I1
I0
g2853
tp4693
a(I1143
I1
F0.5
g3578
tp4694
a(I1160
I4
F0.5
g3580
tp4695
a(I1161
I0
F0.5
g3582
tp4696
a(I1161
I0
F0.625
g3584
tp4697
a(I1171
I8
F0.5
S'touch'
p4698
tp4699
a(I1173
I4
F0.25
g3586
tp4700
as(S'year'
p4701
tp4702
(lp4703
(I12
I4
F0.5
S'second'
p4704
tp4705
a(I16
I1
F0.5
S'whole'
p4706
tp4707
a(I76
I1
I0
S'old'
p4708
tp4709
a(I92
I15
F0.125
S'last'
p4710
tp4711
a(I92
I15
F0.125
S'last'
p4712
tp4713
a(I92
I15
I0
S'full'
p4714
tp4715
a(I113
I10
I0
S'old'
p4716
tp4717
a(I136
I0
I0
S'old'
p4718
tp4719
a(I154
I0
I0
S'many'
p4720
tp4721
a(I158
I1
I0
S'least'
p4722
tp4723
a(I166
I0
I0
S'old'
p4724
tp4725
a(I167
I1
I0
S'old'
p4726
tp4727
a(I169
I3
F-0.75
S'sad'
p4728
tp4729
a(I169
I3
I0
S'old'
p4730
tp4731
a(I268
I1
I0
S'february'
p4732
tp4733
a(I286
I18
I0
S'old'
p4734
tp4735
a(I320
I0
I0
S'old'
p4736
tp4737
a(I346
I8
I0
S'next'
p4738
tp4739
a(I355
I16
I0
S'legal'
p4740
tp4741
a(I355
I18
F1.0
S'best'
p4742
tp4743
a(I355
I18
F0.125
S'first'
p4744
tp4745
a(I497
I16
I0
S'old'
p4746
tp4747
a(I532
I0
I0
S'old'
p4748
tp4749
a(I558
I2
I0
S'old'
p4750
tp4751
a(I568
I0
F0.125
S'last'
p4752
tp4753
a(I608
I0
I0
S'old'
p4754
tp4755
a(I620
I0
F0.125
S'last'
p4756
tp4757
a(I692
I3
F1.0
S'good'
p4758
tp4759
a(I700
I0
I0
S'old'
p4760
tp4761
a(I705
I0
F0.125
S'first'
p4762
tp4763
a(I714
I0
I0
S'great'
p4764
tp4765
a(I749
I5
I0
S'old'
p4766
tp4767
a(I793
I3
F0.125
S'last'
p4768
tp4769
a(I819
I0
I0
S'old'
p4770
tp4771
a(I856
I11
F0.375
S'alive'
p4772
tp4773
a(I871
I10
F-0.25
S'past'
p4774
tp4775
a(I919
I14
F0.125
S'last'
p4776
tp4777
a(I919
I15
I0
S'earlier'
p4778
tp4779
a(I959
I4
I0
S'later'
p4780
tp4781
a(I963
I1
I0
S'total'
p4782
tp4783
a(I978
I4
F-0.125
S'mine'
p4784
tp4785
a(I978
I4
I0
S'more'
p4786
tp4787
a(I979
I0
I0
S'old'
p4788
tp4789
a(I988
I1
F-0.625
S'free'
p4790
tp4791
a(I1033
I0
I0
S'old'
p4792
tp4793
a(I1057
I1
F1.0
S'good'
p4794
tp4795
a(I1057
I1
I0
S'old'
p4796
tp4797
a(I1153
I1
I0
S'later'
p4798
tp4799
a(I1155
I0
I0
S'november'
p4800
tp4801
as(S'little'
p4802
tp4803
(lp4804
(I994
I5
I0
g1305
tp4805
a(I1153
I0
F1.0
S'good'
p4806
tp4807
as(S'of'
p4808
S'triple'
p4809
S'minutes'
p4810
tp4811
(lp4812
(I28
I25
F-0.25
g109
tp4813
a(I160
I5
F-0.25
g127
tp4814
a(I210
I8
F0.875
g129
tp4815
a(I268
I8
F-0.375
g135
tp4816
a(I283
I25
F0.375
g137
tp4817
a(I283
I25
F-0.25
g139
tp4818
a(I308
I1
F-0.25
g147
tp4819
a(I481
I1
F-0.25
g173
tp4820
a(I537
I1
F-0.375
g189
tp4821
a(I654
I6
F-0.375
g221
tp4822
a(I654
I6
F-0.375
g223
tp4823
a(I654
I6
F0.375
g225
tp4824
a(I680
I6
F-0.75
g229
tp4825
a(I680
I6
F-0.75
g231
tp4826
a(I680
I6
I0
g233
tp4827
a(I729
I4
F0.75
g243
tp4828
a(I791
I2
I0
g253
tp4829
a(I792
I8
F-0.25
g93
tp4830
a(I801
I17
F-0.25
g258
tp4831
a(I842
I2
F-0.25
g260
tp4832
a(I920
I0
F-0.25
g266
tp4833
a(I920
I0
F-0.375
g268
tp4834
a(I927
I11
F0.625
g270
tp4835
a(I927
I11
F-0.375
g272
tp4836
a(I950
I2
F-0.375
g276
tp4837
a(I1085
I4
F-0.25
g292
tp4838
as(S'ring'
p4839
S'tones'
p4840
tp4841
(lp4842
(I57
I1
F-0.25
S'low'
p4843
tp4844
a(I215
I0
I0
S'many'
p4845
tp4846
a(I499
I5
I0
S'different'
p4847
tp4848
a(I1048
I1
I0
S'different'
p4849
tp4850
a(I1170
I5
F0.625
S'easy'
p4851
tp4852
a(I1170
I5
I0
S'own'
p4853
tp4854
as(S'micro'
p4855
S'sd'
p4856
S'card'
p4857
tp4858
(lp4859
(I378
I19
F0.375
g680
tp4860
a(I408
I2
F0.125
g682
tp4861
a(I757
I0
I0
g617
tp4862
a(I857
I6
I0
g621
tp4863
a(I1031
I0
F-0.875
g688
tp4864
a(I1088
I9
F0.875
g690
tp4865
a(I1137
I36
I0
g692
tp4866
as(S'screen'
p4867
tp4868
(lp4869
(I9
I0
F0.625
S'easy'
p4870
tp4871
a(I12
I5
I0
g2692
tp4872
a(I15
I1
F0.5
g3346
tp4873
a(I17
I2
F-0.75
S'difficult'
p4874
tp4875
a(I26
I2
F0.625
g2694
tp4876
a(I26
I2
F0.5
g2696
tp4877
a(I29
I3
F0.625
S'easy'
p4878
tp4879
a(I43
I2
F-0.625
g2698
tp4880
a(I43
I2
F0.5
g2700
tp4881
a(I55
I0
F0.5
g2541
tp4882
a(I76
I3
F0.5
g3353
tp4883
a(I79
I0
F0.5
g2543
tp4884
a(I90
I14
F0.5
S'second'
p4885
tp4886
a(I90
I14
F0.25
S'main'
p4887
tp4888
a(I90
I15
F0.25
S'main'
p4889
tp4890
a(I91
I3
F-0.625
g3358
tp4891
a(I91
I3
F0.375
g3360
tp4892
a(I117
I0
F1.0
g2703
tp4893
a(I117
I0
F0.5
g2705
tp4894
a(I135
I0
F0.5
g2708
tp4895
a(I139
I1
F0.875
S'nice'
p4896
tp4897
a(I143
I2
I0
S'resistive'
p4898
tp4899
a(I143
I2
F-0.75
S'difficult'
p4900
tp4901
a(I152
I5
I0
S'big'
p4902
tp4903
a(I163
I2
F0.5
g3368
tp4904
a(I165
I9
F0.5
g3370
tp4905
a(I165
I14
F0.25
S'main'
p4906
tp4907
a(I171
I2
F0.5
g2710
tp4908
a(I171
I16
F0.25
S'larger'
p4909
tp4910
a(I189
I0
F0.5
g3374
tp4911
a(I195
I0
F0.5
g3376
tp4912
a(I201
I2
I0
S'sensitive'
p4913
tp4914
a(I204
I1
I0
S'big'
p4915
tp4916
a(I208
I0
F0.5
g2546
tp4917
a(I208
I0
I0
g2548
tp4918
a(I218
I0
F0.5
g2717
tp4919
a(I274
I0
F0.5
g3387
tp4920
a(I281
I4
F0.25
S'main'
p4921
tp4922
a(I281
I4
I0
S'next'
p4923
tp4924
a(I283
I6
F0.25
S'main'
p4925
tp4926
a(I283
I10
F0.25
S'main'
p4927
tp4928
a(I283
I14
F0.25
S'main'
p4929
tp4930
a(I283
I25
I0
S'plastic'
p4931
tp4932
a(I285
I0
F0.5
g3389
tp4933
a(I285
I0
F-0.375
g3391
tp4934
a(I286
I3
F0.5
g2722
tp4935
a(I295
I0
F0.625
g2724
tp4936
a(I295
I0
F-0.75
g2726
tp4937
a(I305
I1
F0.5
g2729
tp4938
a(I307
I0
F0.5
g2731
tp4939
a(I309
I0
F0.5
g3399
tp4940
a(I309
I2
F0.5
g2733
tp4941
a(I312
I0
F0.25
S'main'
p4942
tp4943
a(I315
I0
F0.5
g2735
tp4944
a(I327
I8
F0.5
g3404
tp4945
a(I333
I18
I0
S'plastic'
p4946
tp4947
a(I333
I19
F0.5
g3406
tp4948
a(I333
I19
I0
g3408
tp4949
a(I333
I21
F0.25
g2737
tp4950
a(I333
I31
I0
S'full'
p4951
tp4952
a(I351
I1
F0.5
g3412
tp4953
a(I355
I13
F0.125
S'protective'
p4954
tp4955
a(I365
I1
F0.5
g3414
tp4956
a(I367
I2
I0
g3417
tp4957
a(I378
I23
F0.875
S'attractive'
p4958
tp4959
a(I382
I2
F0.25
S'responsive'
p4960
tp4961
a(I384
I2
F0.5
g2740
tp4962
a(I386
I0
F0.5
g2742
tp4963
a(I386
I0
F0.125
g2744
tp4964
a(I400
I2
F-0.375
S'black'
p4965
tp4966
a(I408
I1
F-0.75
g3423
tp4967
a(I409
I8
F0.5
S'second'
p4968
tp4969
a(I416
I2
F1.0
g3425
tp4970
a(I416
I2
F0.5
g3427
tp4971
a(I418
I0
F0.5
g2552
tp4972
a(I423
I3
F0.5
g2747
tp4973
a(I423
I7
I0
S'full'
p4974
tp4975
a(I423
I7
F0.375
S'available'
p4976
tp4977
a(I423
I11
F0.25
g3431
tp4978
a(I423
I11
F0.5
g3433
tp4979
a(I424
I1
F0.5
g3435
tp4980
a(I432
I7
I0
S'capacitive'
p4981
tp4982
a(I433
I0
F-0.75
g2749
tp4983
a(I434
I1
F-0.375
S'small'
p4984
tp4985
a(I437
I2
F0.875
g2751
tp4986
a(I439
I9
F-0.375
S'small'
p4987
tp4988
a(I444
I9
I0
g2554
tp4989
a(I452
I9
I0
g4575
tp4990
a(I453
I0
F0.5
g2556
tp4991
a(I461
I1
F-0.75
g3442
tp4992
a(I462
I4
F0.25
S'main'
p4993
tp4994
a(I478
I10
F0.5
g2756
tp4995
a(I488
I2
I0
g2762
tp4996
a(I499
I0
F0.5
g3451
tp4997
a(I499
I0
F0.625
g3453
tp4998
a(I502
I7
F0.5
g3455
tp4999
a(I512
I0
F0.5
g2764
tp5000
a(I512
I0
F0.625
g2766
tp5001
a(I519
I0
F0.5
g2768
tp5002
a(I521
I1
F0.5
g2770
tp5003
a(I521
I1
F0.25
g2772
tp5004
a(I521
I2
F0.5
g3462
tp5005
a(I525
I8
F0.875
g3464
tp5006
a(I532
I1
F0.5
g4596
tp5007
a(I532
I1
F0.25
g4598
tp5008
a(I542
I9
F0.25
g3466
tp5009
a(I544
I2
F0.5
g2558
tp5010
a(I545
I5
I0
g2775
tp5011
a(I556
I0
F0.5
g3470
tp5012
a(I565
I3
F0.5
g2779
tp5013
a(I568
I2
F0.5
g2560
tp5014
a(I572
I0
F0.5
g2782
tp5015
a(I593
I0
F0.5
g2784
tp5016
a(I594
I3
F0.5
S'corner'
p5017
tp5018
a(I595
I4
F0.5
g2562
tp5019
a(I597
I1
F0.25
g2786
tp5020
a(I598
I3
I0
S'sensitive'
p5021
tp5022
a(I620
I0
F0.5
g3484
tp5023
a(I620
I0
F1.0
g3486
tp5024
a(I642
I3
F0.5
g2789
tp5025
a(I665
I0
F0.5
g3490
tp5026
a(I667
I3
F-0.375
S'black'
p5027
tp5028
a(I677
I1
F0.5
g2564
tp5029
a(I688
I0
F-0.375
S'small'
p5030
tp5031
a(I693
I2
F0.5
g2791
tp5032
a(I696
I2
I0
S'great'
p5033
tp5034
a(I696
I2
F0.25
S'bigger'
p5035
tp5036
a(I709
I4
F0.5
g2795
tp5037
a(I713
I0
F0.5
g2566
tp5038
a(I715
I4
F0.5
g2797
tp5039
a(I719
I0
F0.5
g2799
tp5040
a(I719
I0
I0
g2801
tp5041
a(I726
I11
F0.5
g2803
tp5042
a(I726
I11
F-0.75
g2805
tp5043
a(I726
I11
F0.625
g2807
tp5044
a(I729
I2
F-0.75
g2809
tp5045
a(I735
I1
I0
S'resistive'
p5046
tp5047
a(I743
I1
F0.5
g2568
tp5048
a(I744
I1
F0.5
g2812
tp5049
a(I746
I2
F1.0
g3509
tp5050
a(I746
I2
F0.5
g3511
tp5051
a(I754
I5
F-0.75
S'unresponsive'
p5052
tp5053
a(I764
I3
F0.625
S'kind'
p5054
tp5055
a(I773
I4
F0.5
g2814
tp5056
a(I777
I1
F0.5
g2816
tp5057
a(I777
I2
F0.5
g2818
tp5058
a(I794
I1
F-0.5
g3516
tp5059
a(I794
I1
I0
g3518
tp5060
a(I797
I1
F0.5
g2820
tp5061
a(I799
I2
F-0.875
g3521
tp5062
a(I816
I2
F1.0
g4647
tp5063
a(I816
I2
F0.5
g4649
tp5064
a(I820
I7
F0.5
g2822
tp5065
a(I829
I3
F0.5
S'clear'
p5066
tp5067
a(I831
I1
F-0.75
g3524
tp5068
a(I835
I3
F0.5
g3526
tp5069
a(I841
I1
F0.25
S'main'
p5070
tp5071
a(I858
I4
F-0.375
S'black'
p5072
tp5073
a(I888
I9
I0
g3529
tp5074
a(I892
I5
F0.5
g3532
tp5075
a(I892
I5
I0
g3534
tp5076
a(I894
I0
F0.25
S'bigger'
p5077
tp5078
a(I901
I1
F0.5
g3536
tp5079
a(I915
I2
F0.5
g3538
tp5080
a(I920
I9
I0
S'plastic'
p5081
tp5082
a(I925
I2
I0
g3540
tp5083
a(I927
I4
F0.25
S'larger'
p5084
tp5085
a(I927
I8
F-0.75
S'bright'
p5086
tp5087
a(I927
I8
F-0.625
S'light'
p5088
tp5089
a(I927
I8
F-0.75
S'impossible'
p5090
tp5091
a(I941
I0
F0.5
g2825
tp5092
a(I953
I2
F0.5
g3544
tp5093
a(I960
I0
F0.5
g2827
tp5094
a(I964
I1
I0
S'large'
p5095
tp5096
a(I965
I2
F0.5
g2570
tp5097
a(I998
I1
F-0.75
S'impossible'
p5098
tp5099
a(I1004
I2
F1.0
g2830
tp5100
a(I1006
I0
F1.0
S'good'
p5101
tp5102
a(I1006
I0
I0
S'large'
p5103
tp5104
a(I1010
I5
I0
S'more'
p5105
tp5106
a(I1013
I1
F-0.375
S'small'
p5107
tp5108
a(I1013
I1
I0
S'adequate'
p5109
tp5110
a(I1018
I1
F0.625
S'easy'
p5111
tp5112
a(I1021
I1
F0.5
g4669
tp5113
a(I1033
I1
F0.5
g2832
tp5114
a(I1045
I0
F0.5
g2572
tp5115
a(I1047
I0
I0
g2834
tp5116
a(I1048
I3
F1.0
S'good'
p5117
tp5118
a(I1059
I5
F1.0
S'good'
p5119
tp5120
a(I1060
I1
F0.5
g3552
tp5121
a(I1060
I1
F0.5
g3554
tp5122
a(I1062
I13
I0
S'large'
p5123
tp5124
a(I1065
I0
F0.5
g2574
tp5125
a(I1072
I8
I0
g3556
tp5126
a(I1072
I8
I0
g3558
tp5127
a(I1072
I8
F1.0
g3560
tp5128
a(I1072
I15
F-0.125
S'slow'
p5129
tp5130
a(I1072
I15
I0
S'general'
p5131
tp5132
a(I1088
I3
F1.0
S'good'
p5133
tp5134
a(I1088
I19
F-0.125
S'slow'
p5135
tp5136
a(I1088
I19
F-0.375
S'small'
p5137
tp5138
a(I1088
I23
I0
S'even'
p5139
tp5140
a(I1088
I23
F-0.375
S'small'
p5141
tp5142
a(I1097
I5
F0.25
g2836
tp5143
a(I1113
I0
F-0.75
S'bright'
p5144
tp5145
a(I1114
I1
F0.5
g3565
tp5146
a(I1114
I5
F0.25
g2839
tp5147
a(I1126
I0
F0.5
g2841
tp5148
a(I1130
I0
F0.5
g3569
tp5149
a(I1137
I13
F0.5
g2843
tp5150
a(I1137
I42
F0.5
g2845
tp5151
a(I1137
I42
F-0.875
g2847
tp5152
a(I1142
I1
F0.875
g2849
tp5153
a(I1142
I1
F-0.375
g2851
tp5154
a(I1142
I1
I0
g2853
tp5155
a(I1143
I1
F0.5
g3578
tp5156
a(I1160
I4
F0.5
g3580
tp5157
a(I1161
I0
F0.5
g3582
tp5158
a(I1161
I0
F0.625
g3584
tp5159
a(I1168
I4
F0.25
S'main'
p5160
tp5161
a(I1168
I4
I0
S'next'
p5162
tp5163
a(I1168
I4
I0
S'next'
p5164
tp5165
a(I1168
I4
I0
S'next'
p5166
tp5167
a(I1168
I4
I0
S'next'
p5168
tp5169
a(I1168
I6
F0.375
S'much'
p5170
tp5171
a(I1171
I8
F0.5
g4698
tp5172
a(I1173
I4
F0.25
g3586
tp5173
a(I1174
I3
F0.625
S'perfect'
p5174
tp5175
as(S'lot'
p5176
S'of'
p5177
S'features'
p5178
tp5179
(lp5180
(I82
I0
I0
g2042
tp5181
a(I344
I1
F0.625
g2074
tp5182
a(I344
I1
I0
g2076
tp5183
a(I611
I2
F-0.125
S'overall'
p5184
tp5185
a(I611
I2
F0.625
g2114
tp5186
a(I793
I2
I0
g2138
tp5187
a(I877
I2
F-0.625
g2148
tp5188
a(I880
I0
F0.625
g2154
tp5189
a(I978
I4
I0
g2166
tp5190
a(I1061
I2
I0
g2194
tp5191
as(S'camera'
p5192
tp5193
(lp5194
(I63
I3
F1.0
S'good'
p5195
tp5196
a(I76
I2
F-0.625
S'other'
p5197
tp5198
a(I79
I0
F-0.625
S'bad'
p5199
tp5200
a(I103
I14
F0.125
S'pad'
p5201
tp5202
a(I167
I7
F-0.5
S'less'
p5203
tp5204
a(I191
I1
F-0.625
S'bad'
p5205
tp5206
a(I300
I7
F0.875
S'music'
p5207
tp5208
a(I344
I5
F0.875
S'nice'
p5209
tp5210
a(I362
I3
F1.0
S'good'
p5211
tp5212
a(I414
I2
F0.625
S'kind'
p5213
tp5214
a(I440
I1
F0.5
S'clear'
p5215
tp5216
a(I468
I5
I0
S'large'
p5217
tp5218
a(I483
I1
F0.375
S'available'
p5219
tp5220
a(I490
I8
I0
S'more'
p5221
tp5222
a(I499
I4
F0.625
S'easy'
p5223
tp5224
a(I514
I4
F0.875
S'nice'
p5225
tp5226
a(I567
I11
F-0.5
S'poor'
p5227
tp5228
a(I573
I13
I0
S'great'
p5229
tp5230
a(I647
I1
F1.0
S'good'
p5231
tp5232
a(I744
I1
F-0.75
S'difficult'
p5233
tp5234
a(I754
I21
F0.375
S'much'
p5235
tp5236
a(I780
I12
F-0.5
S'actual'
p5237
tp5238
a(I857
I5
F0.875
S'nice'
p5239
tp5240
a(I891
I8
F0.625
S'convenient'
p5241
tp5242
a(I891
I9
I0
S'real'
p5243
tp5244
a(I892
I3
F-0.625
S'average'
p5245
tp5246
a(I892
I3
F1.0
S'good'
p5247
tp5248
a(I930
I2
I0
S'more'
p5249
tp5250
a(I948
I4
F0.875
S'nice'
p5251
tp5252
a(I948
I4
F-0.75
S'little'
p5253
tp5254
a(I981
I0
I0
S'great'
p5255
tp5256
a(I981
I0
I0
S'such'
p5257
tp5258
a(I1006
I0
F1.0
S'good'
p5259
tp5260
a(I1014
I2
I0
S'great'
p5261
tp5262
a(I1072
I24
I0
S'special'
p5263
tp5264
a(I1085
I1
F-0.75
S'insensitive'
p5265
tp5266
a(I1092
I0
F1.0
S'good'
p5267
tp5268
a(I1097
I5
I0
S'more'
p5269
tp5270
a(I1115
I6
F0.875
S'nice'
p5271
tp5272
a(I1120
I3
F-0.625
S'other'
p5273
tp5274
a(I1170
I4
F1.0
S'good'
p5275
tp5276
as(S'using'
p5277
tp5278
(lp5279
(I318
I3
F-0.875
S'trouble'
p5280
tp5281
a(I318
I3
I0
S'most'
p5282
tp5283
a(I837
I3
F0.75
S'worth'
p5284
tp5285
a(I927
I15
F-0.75
S'comfortable'
p5286
tp5287
as(S'want'
p5288
tp5289
(lp5290
(I1010
I30
F0.5
g4159
tp5291
as(S'great'
p5292
S'deal'
p5293
tp5294
(lp5295
(I24
I0
F1.0
g629
tp5296
a(I30
I2
I0
g3163
tp5297
a(I90
I7
I0
g3165
tp5298
a(I122
I3
I0
g3167
tp5299
a(I200
I1
I0
g3169
tp5300
a(I207
I2
I0
g3171
tp5301
a(I209
I0
I0
g3173
tp5302
a(I288
I5
I0
g3175
tp5303
a(I295
I1
I0
g3177
tp5304
a(I295
I1
F0.25
g3179
tp5305
a(I300
I21
I0
g3181
tp5306
a(I300
I22
I0
g3183
tp5307
a(I389
I1
I0
g3185
tp5308
a(I421
I1
I0
g3187
tp5309
a(I437
I4
I0
g3189
tp5310
a(I456
I1
I0
g3191
tp5311
a(I481
I1
F1.0
g641
tp5312
a(I536
I1
I0
g3194
tp5313
a(I639
I0
I0
g3196
tp5314
a(I697
I1
I0
g3198
tp5315
a(I697
I1
I0
g3200
tp5316
a(I708
I0
I0
g3202
tp5317
a(I754
I26
I0
g3204
tp5318
a(I789
I5
I0
g3206
tp5319
a(I795
I1
I0
g3208
tp5320
a(I820
I2
I0
g3210
tp5321
a(I859
I0
I0
g3212
tp5322
a(I913
I0
I0
g3214
tp5323
a(I913
I0
F0.125
g3216
tp5324
a(I933
I7
I0
g3218
tp5325
a(I956
I0
I0
g3220
tp5326
a(I965
I1
I0
g3222
tp5327
a(I979
I5
I0
g3224
tp5328
a(I982
I0
I0
g3226
tp5329
a(I985
I0
I0
g655
tp5330
a(I1033
I1
I0
g3229
tp5331
a(I1093
I2
I0
g3231
tp5332
a(I1158
I0
I0
g3233
tp5333
a(I1162
I3
I0
g3235
tp5334
as(S'ring'
p5335
S'tone'
p5336
tp5337
(lp5338
(I497
I30
F-0.5
S'less'
p5339
tp5340
a(I499
I5
I0
g4847
tp5341
a(I696
I5
F0.375
S'new'
p5342
tp5343
a(I1048
I1
I0
g4849
tp5344
a(I1106
I3
I0
S'different'
p5345
tp5346
a(I1170
I5
F0.625
g4851
tp5347
a(I1170
I5
I0
g4853
tp5348
as(S'an'
p5349
S'mp3'
p5350
S'player'
p5351
tp5352
(lp5353
(I19
I7
F1.0
g4467
tp5354
a(I286
I14
I0
g4471
tp5355
a(I472
I4
I0
g4475
tp5356
a(I565
I3
I0
g4477
tp5357
a(I830
I11
I0
g4479
tp5358
a(I892
I0
I0
g4481
tp5359
a(I892
I0
I0
g4483
tp5360
a(I1029
I6
F0.25
g4489
tp5361
a(I1029
I6
F0.5
g4491
tp5362
a(I1088
I7
F1.0
g4493
tp5363
a(I1137
I35
F0.875
g4495
tp5364
as(S'people'
p5365
tp5366
(lp5367
(I49
I4
I0
S'great'
p5368
tp5369
a(I49
I6
F0.25
S'helpful'
p5370
tp5371
a(I93
I4
I0
S'many'
p5372
tp5373
a(I121
I1
I0
S'most'
p5374
tp5375
a(I121
I1
F0.375
S'much'
p5376
tp5377
a(I135
I4
F-0.625
S'other'
p5378
tp5379
a(I167
I0
F-0.375
S'crazy'
p5380
tp5381
a(I245
I0
F-0.25
S'astonished'
p5382
tp5383
a(I293
I10
I0
S'many'
p5384
tp5385
a(I381
I5
I0
S'half-hour'
p5386
tp5387
a(I497
I13
I0
S'old'
p5388
tp5389
a(I570
I6
F-0.5
S'poor'
p5390
tp5391
a(I654
I1
I0
S'different'
p5392
tp5393
a(I669
I2
F-0.625
S'bad'
p5394
tp5395
a(I696
I3
I0
S'few'
p5396
tp5397
a(I726
I9
F-0.625
S'want'
p5398
tp5399
a(I727
I5
I0
S'dial'
p5400
tp5401
a(I729
I3
F-0.25
S'highest'
p5402
tp5403
a(I752
I15
I0
S'dial'
p5404
tp5405
a(I752
I15
I0
S'many'
p5406
tp5407
a(I769
I3
F-0.75
S'stupid'
p5408
tp5409
a(I769
I3
F-0.75
S'stupid'
p5410
tp5411
a(I769
I3
F-0.75
S'unable'
p5412
tp5413
a(I792
I11
I0
S'many'
p5414
tp5415
a(I847
I0
F0.125
S'last'
p5416
tp5417
a(I847
I0
F-0.625
S'earth'
p5418
tp5419
a(I1034
I4
F-0.625
S'other'
p5420
tp5421
a(I1163
I2
I0
S'young'
p5422
tp5423
as(S'@'
p5424
S'm.facebook.com'
p5425
tp5426
(lp5427
(I825
I3
F0.5
S'personal'
p5428
tp5429
as(S'feature'
p5430
tp5431
(lp5432
(I112
I9
F0.125
S'able'
p5433
tp5434
a(I112
I9
F-0.75
S'stupid'
p5435
tp5436
a(I112
I10
F-0.625
S'other'
p5437
tp5438
a(I286
I4
F1.0
S'good'
p5439
tp5440
a(I291
I3
I0
S'basic'
p5441
tp5442
a(I300
I12
I0
S'full'
p5443
tp5444
a(I333
I21
F0.5
S'touch'
p5445
tp5446
a(I355
I6
F0.25
S'favorite'
p5447
tp5448
a(I362
I4
F-0.625
S'other'
p5449
tp5450
a(I378
I10
I0
S'great'
p5451
tp5452
a(I383
I15
F0.5
S'touch'
p5453
tp5454
a(I409
I10
F-0.625
S'glad'
p5455
tp5456
a(I413
I2
I0
S'only'
p5457
tp5458
a(I413
I2
F1.0
S'good'
p5459
tp5460
a(I439
I13
F0.875
S'nice'
p5461
tp5462
a(I439
I13
I0
S'same'
p5463
tp5464
a(I464
I5
I0
S'great'
p5465
tp5466
a(I586
I1
F0.875
S'nice'
p5467
tp5468
a(I590
I2
F1.0
S'good'
p5469
tp5470
a(I615
I0
F0.125
S'capable'
p5471
tp5472
a(I657
I1
I0
S'very'
p5473
tp5474
a(I657
I1
F1.0
S'best'
p5475
tp5476
a(I679
I3
F0.25
S'favorite'
p5477
tp5478
a(I729
I4
F1.0
S'best'
p5479
tp5480
a(I734
I4
I0
S'dictionary'
p5481
tp5482
a(I780
I12
I0
S'least'
p5483
tp5484
a(I831
I3
F0.5
S'second'
p5485
tp5486
a(I842
I2
I0
S'only'
p5487
tp5488
a(I842
I2
F1.0
S'good'
p5489
tp5490
a(I851
I1
I0
S'most'
p5491
tp5492
a(I1009
I2
F0.25
S'biggest'
p5493
tp5494
a(I1009
I2
F0.125
S'able'
p5495
tp5496
a(I1031
I9
F0.875
S'music'
p5497
tp5498
a(I1074
I6
F0.625
S'perfect'
p5499
tp5500
as(S'making'
p5501
g612
S'call'
p5502
tp5503
(lp5504
(I87
I0
F-0.75
g3752
tp5505
a(I567
I9
F-0.875
g3777
tp5506
as(S'accessory'
p5507
S'kit'
p5508
tp5509
(lp5510
(I444
I11
I0
S'useful'
p5511
tp5512
as(S'works'
p5513
tp5514
(lp5515
(I21
I2
I0
S'great'
p5516
tp5517
a(I69
I13
F-0.375
S'simple'
p5518
tp5519
a(I88
I14
I0
S'great'
p5520
tp5521
a(I216
I0
I0
S'great'
p5522
tp5523
a(I330
I0
I0
S'great'
p5524
tp5525
a(I339
I1
F1.0
S'good'
p5526
tp5527
a(I396
I2
I0
S'great'
p5528
tp5529
a(I449
I0
I0
S'great'
p5530
tp5531
a(I702
I1
I0
S'great'
p5532
tp5533
a(I717
I4
I0
S'great'
p5534
tp5535
a(I717
I4
F0.625
S'easy'
p5536
tp5537
a(I798
I2
I0
S'great'
p5538
tp5539
a(I806
I4
F0.875
S'nice'
p5540
tp5541
a(I806
I5
I0
S'great'
p5542
tp5543
a(I883
I1
I0
S'great'
p5544
tp5545
a(I904
I1
F0.625
S'easy'
p5546
tp5547
a(I904
I2
I0
S'great'
p5548
tp5549
a(I964
I0
F1.0
S'good'
p5550
tp5551
a(I987
I1
F1.0
S'good'
p5552
tp5553
a(I1025
I0
F0.875
S'nice'
p5554
tp5555
a(I1031
I1
F1.0
S'better'
p5556
tp5557
a(I1049
I10
I0
S'old'
p5558
tp5559
a(I1052
I1
F1.0
S'best'
p5560
tp5561
a(I1084
I1
F1.0
S'good'
p5562
tp5563
as(S'texting'
p5564
tp5565
(lp5566
(I12
I6
F0.625
S'easy'
p5567
tp5568
a(I52
I11
I0
S'useful'
p5569
tp5570
a(I88
I17
F0.625
S'easy'
p5571
tp5572
a(I111
I3
I0
S'more'
p5573
tp5574
a(I151
I2
F0.375
S'new'
p5575
tp5576
a(I151
I2
F-0.75
S'hate'
p5577
tp5578
a(I318
I4
F0.625
S'easy'
p5579
tp5580
a(I321
I0
F1.0
S'good'
p5581
tp5582
a(I333
I13
F0.375
S'available'
p5583
tp5584
a(I378
I16
F1.0
S'best'
p5585
tp5586
a(I630
I4
F1.0
S'good'
p5587
tp5588
a(I669
I0
F0.625
S'easier'
p5589
tp5590
a(I847
I2
F0.625
S'easy'
p5591
tp5592
a(I948
I5
I0
S'more'
p5593
tp5594
a(I1095
I0
F0.625
S'easy'
p5595
tp5596
a(I1125
I1
F1.0
S'good'
p5597
tp5598
as(S'use'
p5599
g612
S'cell'
p5600
tp5601
(lp5602
(I36
I8
F-0.125
g3968
tp5603
a(I213
I2
F0.375
g3972
tp5604
a(I298
I6
I0
g3986
tp5605
a(I338
I4
I0
g63
tp5606
a(I426
I4
I0
g4002
tp5607
a(I614
I0
F-0.875
g4012
tp5608
a(I726
I9
F0.625
g4014
tp5609
a(I751
I6
F-0.75
g4018
tp5610
a(I1080
I11
F1.0
g4038
tp5611
a(I1132
I29
F0.625
g4040
tp5612
a(I1132
I29
F-0.625
g4042
tp5613
a(I1137
I42
F-0.5
g4044
tp5614
a(I1141
I0
F0.375
g4046
tp5615
a(I1162
I1
I0
g4048
tp5616
as(S'better'
p5617
tp5618
(lp5619
(I295
I0
F1.0
S'good'
p5620
tp5621
a(I444
I6
F0.375
S'much'
p5622
tp5623
a(I478
I33
F0.375
S'much'
p5624
tp5625
a(I927
I7
F0.375
S'much'
p5626
tp5627
a(I986
I2
F1.0
S'good'
p5628
tp5629
a(I986
I2
F0.375
S'much'
p5630
tp5631
a(I1170
I1
F0.375
S'much'
p5632
tp5633
as(S'never'
p5634
tp5635
(lp5636
(I589
I4
I0
S'old'
p5637
tp5638
as(S'gel'
p5639
S'skin'
p5640
tp5641
(lp5642
(I845
I0
I0
S'rubberized'
p5643
tp5644
as(S'bells'
p5645
S'and'
p5646
S'whistles'
p5647
tp5648
(lp5649
(I143
I18
F0.625
S'easy'
p5650
tp5651
a(I600
I2
F0.375
S'extra'
p5652
tp5653
a(I977
I1
I0
S'android'
p5654
tp5655
a(I1168
I1
F0.25
S'familiar'
p5656
tp5657
as(S'music'
p5658
tp5659
(lp5660
(I74
I1
F0.125
S'able'
p5661
tp5662
a(I158
I0
F0.25
S'favorite'
p5663
tp5664
a(I355
I14
F0.25
S'favorite'
p5665
tp5666
a(I422
I8
I0
S'more'
p5667
tp5668
a(I615
I2
I0
S'full'
p5669
tp5670
a(I910
I2
F0.625
S'interested'
p5671
tp5672
a(I910
I2
F0.25
S'classical'
p5673
tp5674
a(I1036
I2
F0.25
S'favorite'
p5675
tp5676
a(I1088
I14
F-0.5
S'sure'
p5677
tp5678
a(I1106
I2
F0.125
S'able'
p5679
tp5680
as(S'number'
p5681
S'and'
p5682
S'minutes'
p5683
tp5684
(lp5685
(I105
I2
I0
g1594
tp5686
a(I107
I2
I0
g1596
tp5687
a(I107
I2
I0
g2884
tp5688
a(I141
I9
F0.375
g1598
tp5689
a(I300
I23
F-0.375
g2932
tp5690
a(I347
I4
F0.375
g2947
tp5691
a(I435
I2
I0
g1624
tp5692
a(I484
I9
F0.375
g1634
tp5693
a(I484
I13
F0.375
g1636
tp5694
a(I537
I1
F-0.375
g189
tp5695
a(I771
I3
I0
g3037
tp5696
a(I853
I5
F-0.75
g3057
tp5697
a(I950
I2
F-0.375
g276
tp5698
a(I1100
I0
F-0.75
g1668
tp5699
a(I1155
I16
F-0.5
g3151
tp5700
a(I1168
I17
F0.25
g3156
tp5701
as(S'constant'
p5702
S'locking'
p5703
tp5704
(lp5705
(I517
I2
F0.75
S'constant'
p5706
tp5707
a(I655
I3
F0.75
S'constant'
p5708
tp5709
as(S'apps'
p5710
tp5711
(lp5712
(I52
I15
F-0.625
S'other'
p5713
tp5714
a(I90
I15
F0.625
S'necessary'
p5715
tp5716
a(I91
I4
I0
S'many'
p5717
tp5718
a(I91
I4
F0.375
S'available'
p5719
tp5720
a(I187
I3
I0
S'such'
p5721
tp5722
a(I235
I0
I0
S'android'
p5723
tp5724
a(I360
I3
F0.375
S'available'
p5725
tp5726
a(I518
I0
I0
S'different'
p5727
tp5728
a(I518
I1
I0
S'few'
p5729
tp5730
a(I563
I2
F0.375
S'available'
p5731
tp5732
a(I587
I2
F-0.375
S'serious'
p5733
tp5734
a(I630
I4
I0
S'many'
p5735
tp5736
a(I630
I4
F-0.625
S'free'
p5737
tp5738
a(I702
I2
I0
S'great'
p5739
tp5740
a(I714
I8
I0
S'most'
p5741
tp5742
a(I726
I12
I0
S'few'
p5743
tp5744
a(I791
I2
F0.625
S'easy'
p5745
tp5746
a(I791
I2
I0
S'great'
p5747
tp5748
a(I801
I12
I0
S'great'
p5749
tp5750
a(I843
I1
I0
S'few'
p5751
tp5752
a(I960
I0
I0
S'android'
p5753
tp5754
a(I976
I0
I0
S'basic'
p5755
tp5756
a(I1048
I1
F0.375
S'available'
p5757
tp5758
a(I1048
I1
I0
S'on-line'
p5759
tp5760
a(I1062
I14
F0.375
S'available'
p5761
tp5762
a(I1062
I23
I0
S'most'
p5763
tp5764
a(I1088
I15
I0
S'android'
p5765
tp5766
a(I1113
I0
F0.375
S'available'
p5767
tp5768
as(S'days'
p5769
tp5770
(lp5771
(I66
I2
F0.125
S'last'
p5772
tp5773
a(I87
I2
I0
S'later'
p5774
tp5775
a(I91
I6
F-0.125
S'overall'
p5776
tp5777
a(I92
I9
I0
S'select'
p5778
tp5779
a(I96
I0
I0
S'few'
p5780
tp5781
a(I111
I0
I0
S'few'
p5782
tp5783
a(I111
I0
I0
S'later'
p5784
tp5785
a(I113
I13
I0
S'dial'
p5786
tp5787
a(I115
I1
F0.375
S'new'
p5788
tp5789
a(I119
I12
I0
S'few'
p5790
tp5791
a(I260
I0
I0
S'few'
p5792
tp5793
a(I265
I5
I0
S'later'
p5794
tp5795
a(I283
I26
F0.375
S'extra'
p5796
tp5797
a(I283
I26
I0
S'few'
p5798
tp5799
a(I378
I27
F0.125
S'usual'
p5800
tp5801
a(I434
I2
I0
S'few'
p5802
tp5803
a(I435
I7
I0
S'few'
p5804
tp5805
a(I451
I5
I0
S'wish'
p5806
tp5807
a(I485
I5
I0
S'many'
p5808
tp5809
a(I497
I26
I0
S'few'
p5810
tp5811
a(I562
I1
I0
S'same'
p5812
tp5813
a(I598
I0
I0
S'few'
p5814
tp5815
a(I651
I5
F0.125
S'able'
p5816
tp5817
a(I675
I8
I0
S'least'
p5818
tp5819
a(I751
I3
F0.375
S'much'
p5820
tp5821
a(I771
I3
F0.375
S'extra'
p5822
tp5823
a(I800
I0
I0
S'later'
p5824
tp5825
a(I800
I0
I0
S'later'
p5826
tp5827
a(I800
I0
F-0.75
S'wrong'
p5828
tp5829
a(I801
I10
I0
S'specific'
p5830
tp5831
a(I801
I17
F0.125
S'popular'
p5832
tp5833
a(I828
I3
F0.5
S'told'
p5834
tp5835
a(I842
I12
I0
S'few'
p5836
tp5837
a(I862
I0
F0.375
S'extra'
p5838
tp5839
a(I888
I11
I0
S'great'
p5840
tp5841
a(I888
I11
I0
S'more'
p5842
tp5843
a(I888
I12
F1.0
S'good'
p5844
tp5845
a(I925
I3
I0
S'later'
p5846
tp5847
a(I946
I4
I0
S'more'
p5848
tp5849
a(I1063
I0
I0
S'few'
p5850
tp5851
a(I1063
I0
F1.0
S'good'
p5852
tp5853
as(S'calls'
p5854
tp5855
(lp5856
(I121
I0
I0
S'many'
p5857
tp5858
a(I135
I2
F-0.125
S'outgoing'
p5859
tp5860
a(I181
I1
F0.5
S'clear'
p5861
tp5862
a(I181
I1
F0.375
S'loud'
p5863
tp5864
a(I197
I4
I0
S'many'
p5865
tp5866
a(I238
I1
I0
S'dial'
p5867
tp5868
a(I238
I1
F-0.5
S'separate'
p5869
tp5870
a(I293
I2
I0
S'many'
p5871
tp5872
a(I300
I11
F0.5
S'clear'
p5873
tp5874
a(I309
I6
F0.875
S'important'
p5875
tp5876
a(I329
I3
F-0.125
S'future'
p5877
tp5878
a(I346
I2
I0
S'tutorial'
p5879
tp5880
a(I355
I0
I0
S'mobile'
p5881
tp5882
a(I378
I2
F-0.75
S'short'
p5883
tp5884
a(I478
I35
I0
S'basic'
p5885
tp5886
a(I508
I9
F0.75
S'receive'
p5887
tp5888
a(I570
I6
F0.25
S'recent'
p5889
tp5890
a(I702
I1
F-0.125
S'accidental'
p5891
tp5892
a(I705
I3
F0.875
S'music'
p5893
tp5894
a(I707
I1
I0
S'few'
p5895
tp5896
a(I707
I1
I0
S'frequent'
p5897
tp5898
a(I801
I3
F0.25
S'recent'
p5899
tp5900
a(I804
I0
I0
S'many'
p5901
tp5902
a(I950
I0
I0
S'least'
p5903
tp5904
a(I953
I16
F0.625
S'easy'
p5905
tp5906
a(I957
I1
F0.125
S'able'
p5907
tp5908
a(I962
I3
F-0.5
S'international'
p5909
tp5910
a(I962
I3
I0
S'domestic'
p5911
tp5912
a(I1132
I27
F0.75
S'receive'
p5913
tp5914
a(I1152
I9
F-0.5
S'long'
p5915
tp5916
a(I1160
I7
F0.75
S'receive'
p5917
tp5918
as.