(dp0
(S'samsung'
p1
S'galaxy'
p2
S'note'
p3
tp4
(lp5
(I22
I0
F-0.5
S'international'
p6
tp7
a(I45
I74
F-0.25
S'white'
p8
tp9
a(I54
I28
F-0.5
S'international'
p10
tp11
a(I54
I28
F-0.25
S'white'
p12
tp13
a(I55
I8
I0
S'galaxy'
p14
tp15
a(I115
I0
F0.125
S'able'
p16
tp17
a(I115
I4
F0.375
S'new'
p18
tp19
a(I138
I28
F0.5
S'touch'
p20
tp21
a(I138
I28
F0.125
S'capable'
p22
tp23
as(S'problem'
p24
tp25
(lp26
(I15
I3
I0
S'chinese'
p27
tp28
a(I45
I53
I0
S'big'
p29
tp30
a(I62
I2
I0
S'only'
p31
tp32
a(I107
I0
F-0.375
S'serious'
p33
tp34
a(I107
I4
F-0.25
S'white'
p35
tp36
a(I130
I2
I0
S'common'
p37
tp38
a(I137
I3
F0.25
S'main'
p39
tp40
a(I147
I4
I0
S'only'
p41
tp42
as(S'perfect'
p43
tp44
(lp45
(I46
I0
I0
S'big'
p46
tp47
as(S'love'
p48
tp49
(lp50
(I140
I2
I0
S'great'
p51
tp52
as(S'battery'
p53
S'life'
p54
tp55
(lp56
(I23
I5
I0
S'great'
p57
tp58
a(I45
I37
F1.0
S'better'
p59
tp60
a(I45
I37
I0
S'great'
p61
tp62
a(I48
I0
F1.0
S'good'
p63
tp64
a(I61
I4
F1.0
S'good'
p65
tp66
a(I80
I2
I0
S'great'
p67
tp68
a(I83
I25
I0
S'great'
p69
tp70
a(I119
I6
F1.0
S'better'
p71
tp72
a(I136
I17
F0.375
S'extra'
p73
tp74
a(I136
I17
I0
S'external'
p75
tp76
a(I148
I2
F1.0
S'good'
p77
tp78
as(S'makes'
p79
tp80
(lp81
(I83
I19
F1.0
S'good'
p82
tp83
a(I136
I4
F0.625
S'easy'
p84
tp85
as(S'a'
p86
S'protective'
p87
S'case'
p88
tp89
(lp90
(I5
I2
F0.125
S'protective'
p91
tp92
a(I81
I3
F0.125
S'protective'
p93
tp94
a(I81
I4
F0.125
S'protective'
p95
tp96
a(I81
I4
F0.375
S'similar'
p97
tp98
as(S'u'
p99
S's'
p100
S'warranty'
p101
tp102
(lp103
(I58
I8
I0
S'full'
p104
tp105
a(I58
I8
F-0.5
S'international'
p106
tp107
as(S'text'
p108
tp109
(lp110
(I54
I18
F0.625
S'easy'
p111
tp112
a(I80
I1
F0.75
S'receive'
p113
tp114
a(I136
I0
F-0.375
S'simple'
p115
tp116
a(I136
I5
I0
S'more'
p117
tp118
a(I136
I5
F-0.75
S'short'
p119
tp120
as(S'screen'
p121
tp122
(lp123
(I1
I0
I0
S'big'
p124
tp125
a(I6
I13
I0
S'quick'
p126
tp127
a(I23
I3
F0.25
S'sharp'
p128
tp129
a(I25
I0
F-0.75
S'have'
p130
tp131
a(I25
I0
F-0.375
S'small'
p132
tp133
a(I26
I0
I0
S'big'
p134
tp135
a(I27
I3
I0
S'big'
p136
tp137
a(I27
I7
I0
S'big'
p138
tp139
a(I28
I3
I0
S'high'
p140
tp141
a(I32
I3
I0
S'big'
p142
tp143
a(I38
I17
F0.375
S'similar'
p144
tp145
a(I38
I17
F0.25
S'larger'
p146
tp147
a(I39
I2
I0
S'incredible'
p148
tp149
a(I45
I16
I0
S'big'
p150
tp151
a(I45
I36
I0
S'large'
p152
tp153
a(I53
I6
F0.5
S'clear'
p154
tp155
a(I53
I10
I0
S'big'
p156
tp157
a(I55
I1
F-0.375
S'black'
p158
tp159
a(I64
I2
F-0.375
S'small'
p160
tp161
a(I72
I0
F0.875
S'nice'
p162
tp163
a(I77
I2
F0.75
S'worth'
p164
tp165
a(I77
I5
I0
S'great'
p166
tp167
a(I80
I9
F1.0
S'better'
p168
tp169
a(I85
I4
I0
S'big'
p170
tp171
a(I89
I1
F0.25
S'bigger'
p172
tp173
a(I92
I0
F0.375
S'honest'
p174
tp175
a(I92
I0
F-0.5
S'sure'
p176
tp177
a(I94
I4
I0
S'big'
p178
tp179
a(I94
I7
I0
S'great'
p180
tp181
a(I101
I1
F0.5
S'careful'
p182
tp183
a(I101
I2
I0
S'such'
p184
tp185
a(I101
I2
I0
S'large'
p186
tp187
a(I115
I5
F0.875
S'nice'
p188
tp189
a(I115
I5
I0
S'large'
p190
tp191
a(I120
I1
I0
S'big'
p192
tp193
a(I120
I1
I0
S'great'
p194
tp195
a(I120
I1
F0.75
S'beautiful'
p196
tp197
a(I122
I1
F-0.375
S'small'
p198
tp199
a(I135
I1
F0.25
S'larger'
p200
tp201
a(I136
I21
F0.375
S'much'
p202
tp203
a(I139
I33
I0
S'great'
p204
tp205
as(S'customer'
p206
tp207
(lp208
(I45
I53
I0
S'more'
p209
tp210
a(I65
I0
F-0.875
S'worst'
p211
tp212
a(I96
I4
F-0.5
S'poor'
p213
tp214
a(I96
I6
F-0.5
S'poor'
p215
tp216
a(I96
I9
F-0.5
S'poor'
p217
tp218
a(I96
I18
F-0.5
S'poor'
p219
tp220
a(I96
I23
F1.0
S'better'
p221
tp222
as(S'tablet'
p223
tp224
(lp225
(I9
I1
F1.0
S'best'
p226
tp227
a(I9
I1
F-0.375
S'small'
p228
tp229
a(I39
I2
F-0.5
S'less'
p230
tp231
a(I74
I3
F0.25
S'larger'
p232
tp233
a(I87
I1
F0.25
S'portable'
p234
tp235
a(I109
I5
F0.375
S'extra'
p236
tp237
a(I138
I32
F-0.625
S'other'
p238
tp239
a(I138
I34
I0
S'hybrid'
p240
tp241
as(S'everything'
p242
tp243
(lp244
(I10
I2
I0
S'fast'
p245
tp246
a(I10
I2
F1.0
S'good'
p247
tp248
a(I16
I1
I0
S'great'
p249
tp250
a(I37
I0
I0
S'great'
p251
tp252
a(I49
I0
F0.375
S'new'
p253
tp254
a(I49
I0
F-0.5
S'unlimited'
p255
tp256
a(I67
I2
I0
S'great'
p257
tp258
a(I122
I6
F0.125
S'amazon'
p259
tp260
as(S'super'
p261
S'oled'
p262
S'hd'
p263
tp264
(lp265
(I54
I27
F-0.625
S'other'
p266
tp267
as(S'samsung'
p268
tp269
(lp270
(I6
I37
I0
S'common'
p271
tp272
a(I6
I37
F0.75
S'give'
p273
tp274
a(I18
I0
F0.5
S'second'
p275
tp276
a(I45
I25
F0.25
S'larger'
p277
tp278
a(I54
I28
F-0.5
g10
tp279
a(I54
I28
F-0.25
g12
tp280
a(I84
I0
I0
S'european'
p281
tp282
a(I109
I1
I0
S'android'
p283
tp284
a(I115
I0
F0.125
g16
tp285
a(I115
I4
F0.375
g18
tp286
a(I139
I18
F-0.375
S'small'
p287
tp288
a(I139
I18
F-0.375
S'manual'
p289
tp290
as(S'cream'
p291
S'sandwich'
p292
tp293
(lp294
(I0
I5
F0.375
S'available'
p295
tp296
a(I45
I56
F0.875
S'important'
p297
tp298
a(I45
I56
F0.125
S'able'
p299
tp300
a(I45
I56
I0
S'android'
p301
tp302
a(I132
I2
F0.625
S'easy'
p303
tp304
as(S'gt'
p305
S'n7000'
p306
tp307
(lp308
(I69
I0
I0
S'cool'
p309
tp310
as(S'nternational'
p311
S'version'
p312
tp313
(lp314
(I0
I0
F0.25
S'unlocked'
p315
tp316
a(I0
I0
F-0.5
S'international'
p317
tp318
a(I6
I0
F-0.5
S'international'
p319
tp320
a(I6
I0
F0.375
S'available'
p321
tp322
a(I6
I24
F-0.5
S'international'
p323
tp324
a(I27
I0
F-0.5
S'international'
p325
tp326
a(I45
I0
F-0.5
S'international'
p327
tp328
a(I99
I0
F-0.5
S'international'
p329
tp330
a(I123
I12
F0.125
S'able'
p331
tp332
a(I123
I12
F-0.5
S'international'
p333
tp334
a(I123
I13
F-0.5
S'international'
p335
tp336
a(I123
I19
F-0.5
S'international'
p337
tp338
a(I125
I1
F-0.5
S'international'
p339
tp340
a(I139
I0
F-0.5
S'international'
p341
tp342
a(I139
I0
I0
S'blue'
p343
tp344
a(I139
I15
F-0.5
S'international'
p345
tp346
as(S'version'
p347
tp348
(lp349
(I0
I0
F0.25
g315
tp350
a(I0
I0
F-0.5
g317
tp351
a(I6
I0
F-0.5
g319
tp352
a(I6
I0
F0.375
g321
tp353
a(I6
I24
F-0.5
g323
tp354
a(I27
I0
F-0.5
g325
tp355
a(I38
I0
I0
S'european'
p356
tp357
a(I38
I1
I0
S'european'
p358
tp359
a(I45
I0
F-0.5
g327
tp360
a(I47
I0
F0.625
S'easy'
p361
tp362
a(I70
I5
F-0.125
S'bean'
p363
tp364
a(I71
I1
F0.375
S'newer'
p365
tp366
a(I71
I1
I0
S'android'
p367
tp368
a(I99
I0
F-0.5
g329
tp369
a(I107
I0
F-0.25
S'white'
p370
tp371
a(I112
I3
I0
S'different'
p372
tp373
a(I112
I3
I0
S'korean'
p374
tp375
a(I123
I12
F0.125
g331
tp376
a(I123
I12
F-0.5
g333
tp377
a(I123
I13
F-0.5
g335
tp378
a(I123
I19
F-0.5
g337
tp379
a(I125
I1
F-0.5
g339
tp380
a(I129
I2
F0.25
S'unlocked'
p381
tp382
a(I136
I7
I0
S'faster'
p383
tp384
a(I139
I0
F-0.5
g341
tp385
a(I139
I0
I0
g343
tp386
a(I139
I15
F-0.5
g345
tp387
a(I139
I34
I0
S'next'
p388
tp389
a(I141
I2
F0.375
S'newest'
p390
tp391
a(I141
I2
I0
S'android'
p392
tp393
as(S'with'
p394
S'one'
p395
S'hand'
p396
tp397
(lp398
(I12
I5
F-0.75
S'impossible'
p399
tp400
a(I64
I7
I0
S'more'
p401
tp402
as(S'better'
p403
tp404
(lp405
(I45
I17
F0.375
S'much'
p406
tp407
as(g100
S'pen'
p408
S'stylus'
p409
tp410
(lp411
(I48
I4
F0.875
S'nice'
p412
tp413
a(I48
I4
F-0.375
S'small'
p414
tp415
as(S'n'
p416
g99
g100
tp417
(lp418
(I28
I1
F0.125
S'first'
p419
tp420
a(I138
I17
I0
S'pen'
p421
tp422
as(S'device'
p423
tp424
(lp425
(I6
I19
F-0.5
S'international'
p426
tp427
a(I6
I34
F-0.75
S'wrong'
p428
tp429
a(I6
I43
F-0.5
S'international'
p430
tp431
a(I31
I8
I0
S'great'
p432
tp433
a(I33
I6
I0
S'useful'
p434
tp435
a(I60
I0
I0
S'more'
p436
tp437
a(I60
I3
F1.0
S'better'
p438
tp439
a(I85
I5
I0
S'big'
p440
tp441
a(I92
I1
I0
S'fast'
p442
tp443
a(I92
I1
F0.25
S'powerful'
p444
tp445
a(I93
I0
F1.0
S'good'
p446
tp447
a(I94
I2
I0
S'great'
p448
tp449
a(I123
I28
F1.0
S'love'
p450
tp451
a(I136
I11
F0.25
S'portable'
p452
tp453
a(I143
I2
F-0.5
S'international'
p454
tp455
as(S'ce'
p456
S'cream'
p457
tp458
(lp459
(I45
I56
F0.875
g297
tp460
a(I45
I56
F0.125
g299
tp461
as(S'nch'
p462
S'screen'
p463
tp464
(lp465
(I45
I16
I0
g150
tp466
as(S'screen'
p467
S'size'
p468
tp469
(lp470
(I23
I3
F0.25
g128
tp471
a(I27
I3
I0
g136
tp472
a(I48
I4
I0
S'full'
p473
tp474
a(I64
I1
F1.0
S'good'
p475
tp476
a(I64
I12
F0.25
S'bigger'
p477
tp478
a(I73
I1
I0
S'big'
p479
tp480
a(I75
I2
F0.125
S'first'
p481
tp482
a(I75
I2
I0
S'most'
p483
tp484
a(I75
I2
I0
S'notable'
p485
tp486
a(I77
I5
I0
g166
tp487
a(I92
I0
F0.375
g174
tp488
a(I92
I0
F-0.5
g176
tp489
a(I92
I0
I0
S'big'
p490
tp491
a(I115
I5
F0.875
g188
tp492
a(I115
I5
I0
g190
tp493
a(I120
I1
I0
S'great'
p494
tp495
a(I120
I1
I0
g192
tp496
a(I120
I1
I0
g194
tp497
a(I120
I1
F0.75
g196
tp498
a(I141
I3
I0
S'great'
p499
tp500
as(S'customer'
p501
S'service'
p502
tp503
(lp504
(I50
I9
F0.25
S'helpful'
p505
tp506
a(I65
I0
F-0.875
g211
tp507
a(I96
I4
F-0.5
g213
tp508
a(I96
I6
F-0.5
g215
tp509
a(I96
I9
F-0.5
g217
tp510
a(I96
I18
F-0.5
g219
tp511
a(I96
I23
F1.0
g221
tp512
as(S'product'
p513
tp514
(lp515
(I3
I0
F1.0
S'good'
p516
tp517
a(I5
I1
F0.5
S'recommend'
p518
tp519
a(I96
I23
F-0.375
S'robust'
p520
tp521
a(I123
I6
F1.0
S'best'
p522
tp523
a(I123
I6
I0
S'lightweight'
p524
tp525
a(I138
I28
F0.375
S'complete'
p526
tp527
a(I138
I29
F0.375
S'flexible'
p528
tp529
as(S'mobile'
p530
tp531
(lp532
(I90
I0
F0.25
S'unlocked'
p533
tp534
as(S'galaxy'
p535
tp536
(lp537
(I31
I9
I0
S'latest'
p538
tp539
a(I31
I9
F-0.375
S'smaller'
p540
tp541
a(I38
I22
I0
S'different'
p542
tp543
a(I42
I0
I0
S'diminutive'
p544
tp545
a(I43
I1
F-0.5
S'international'
p546
tp547
a(I80
I14
F-0.625
S'light'
p548
tp549
a(I138
I28
F0.5
g20
tp550
as(S'things'
p551
tp552
(lp553
(I10
I2
F-0.125
S'overall'
p554
tp555
a(I16
I6
F0.375
S'new'
p556
tp557
a(I35
I5
I0
S'unsure'
p558
tp559
a(I51
I2
I0
S'third'
p560
tp561
a(I74
I3
I0
S'many'
p562
tp563
a(I75
I1
F-0.625
S'other'
p564
tp565
a(I82
I3
F-0.625
S'other'
p566
tp567
a(I82
I3
F0.5
S'possible'
p568
tp569
a(I83
I11
F1.0
S'good'
p570
tp571
a(I86
I1
I0
S'many'
p572
tp573
a(I96
I3
F-0.75
S'wrong'
p574
tp575
a(I130
I1
I0
S'many'
p576
tp577
a(I136
I9
F-0.625
S'other'
p578
tp579
as(S'ice'
p580
S'cream'
p581
tp582
(lp583
(I45
I56
F0.875
g297
tp584
a(I45
I56
F0.125
g299
tp585
a(I130
I2
I0
S'android'
p586
tp587
as(S'year'
p588
tp589
(lp590
(I36
I0
F-0.25
S'past'
p591
tp592
a(I45
I48
F0.5
S'whole'
p593
tp594
a(I45
I53
F0.125
S'first'
p595
tp596
a(I45
I53
F0.5
S'second'
p597
tp598
a(I45
I53
F0.125
S'first'
p599
tp600
a(I45
I53
F0.5
S'second'
p601
tp602
a(I45
I53
F-0.875
S'stuck'
p603
tp604
a(I109
I4
I0
S'later'
p605
tp606
a(I132
I0
F-0.5
S'complaint'
p607
tp608
as(S'features'
p609
tp610
(lp611
(I19
I2
I0
S'great'
p612
tp613
a(I58
I13
F-0.625
S'other'
p614
tp615
a(I75
I6
I0
S'many'
p616
tp617
a(I94
I6
F-0.625
S'other'
p618
tp619
a(I109
I5
F0.5
S'intrigue'
p620
tp621
a(I123
I8
I0
S'great'
p622
tp623
a(I123
I8
F-0.625
S'other'
p624
tp625
a(I137
I0
I0
S'many'
p626
tp627
as(S'3'
p628
S'nch'
p629
S'screen'
p630
tp631
(lp632
(I45
I16
I0
g150
tp633
as(S'galaxy'
p634
S'note'
p635
tp636
(lp637
(I22
I0
F-0.5
g6
tp638
a(I38
I22
I0
g542
tp639
a(I38
I22
F-0.5
S'less'
p640
tp641
a(I42
I0
I0
g544
tp642
a(I43
I1
F-0.5
g546
tp643
a(I45
I74
F-0.25
g8
tp644
a(I55
I8
I0
g14
tp645
a(I83
I16
F0.625
S'easier'
p646
tp647
a(I138
I28
F0.5
g20
tp648
a(I138
I28
F0.125
g22
tp649
a(I139
I25
I0
S'galaxy'
p650
tp651
as(S'people'
p652
tp653
(lp654
(I10
I2
F0.875
S'nice'
p655
tp656
a(I10
I2
I0
S'big'
p657
tp658
a(I24
I2
I0
S'nervous'
p659
tp660
a(I24
I2
F-0.625
S'other'
p661
tp662
a(I38
I12
F-0.625
S'other'
p663
tp664
a(I61
I2
I0
S'most'
p665
tp666
a(I74
I1
I0
S'few'
p667
tp668
a(I77
I6
I0
S'most'
p669
tp670
a(I149
I0
I0
S'big'
p671
tp672
as(S'months'
p673
tp674
(lp675
(I38
I7
I0
S'few'
p676
tp677
a(I38
I8
I0
S'few'
p678
tp679
a(I38
I8
I0
S'later'
p680
tp681
a(I38
I17
I0
S'few'
p682
tp683
a(I60
I0
F0.125
S'last'
p684
tp685
a(I78
I4
I0
S'few'
p686
tp687
a(I78
I5
I0
S'few'
p688
tp689
a(I78
I5
I0
S'later'
p690
tp691
a(I99
I2
I0
S'later'
p692
tp693
a(I135
I2
I0
S'most'
p694
tp695
as(S'and'
p696
S'poor'
p697
S'customer'
p698
tp699
(lp700
(I96
I4
F-0.5
g213
tp701
a(I96
I6
F-0.5
g215
tp702
a(I96
I9
I0
S'very'
p703
tp704
a(I96
I9
F-0.5
g217
tp705
a(I96
I18
F-0.5
g219
tp706
as(S'video'
p707
tp708
(lp709
(I92
I1
I0
S'great'
p710
tp711
as(S'android'
p712
tp713
(lp714
(I27
I6
F0.625
S'easy'
p715
tp716
a(I111
I0
F1.0
S'best'
p717
tp718
a(I149
I0
I0
S'many'
p719
tp720
a(I149
I0
I0
S'different'
p721
tp722
as(S'case'
p723
tp724
(lp725
(I5
I2
F0.125
g91
tp726
a(I45
I47
I0
S'email'
p727
tp728
a(I45
I47
F0.375
S'much'
p729
tp730
a(I45
I74
F-0.875
S'hard'
p731
tp732
a(I81
I3
F0.125
g93
tp733
a(I81
I4
F0.125
g95
tp734
a(I81
I4
F0.375
g97
tp735
a(I118
I4
F0.625
S'easy'
p736
tp737
a(I136
I17
I0
S'slippery'
p738
tp739
as(S'works'
p740
tp741
(lp742
(I10
I2
I0
S'great'
p743
tp744
a(I27
I0
I0
S'great'
p745
tp746
a(I35
I2
F0.625
S'aware'
p747
tp748
as(S'card'
p749
S'slot'
p750
tp751
(lp752
(I138
I17
F0.5
S'compatible'
p753
tp754
as(S'great'
p755
tp756
(lp757
(I6
I38
I0
S'great'
p758
tp759
as(S'battery'
p760
tp761
(lp762
(I6
I24
F0.625
S'decent'
p763
tp764
a(I7
I0
F-0.75
S'dead'
p765
tp766
a(I9
I9
F0.125
S'first'
p767
tp768
a(I38
I19
F0.125
S'last'
p769
tp770
a(I45
I72
I0
S'efficient'
p771
tp772
a(I54
I14
I0
S'big'
p773
tp774
a(I77
I20
F1.0
S'best'
p775
tp776
a(I80
I2
I0
g67
tp777
a(I105
I1
F-0.375
S'daily'
p778
tp779
a(I114
I6
I0
S'real'
p780
tp781
a(I119
I6
F1.0
g71
tp782
a(I123
I10
F0.125
S'last'
p783
tp784
a(I123
I10
F-0.5
S'long'
p785
tp786
a(I136
I17
F0.375
g73
tp787
a(I136
I17
I0
g75
tp788
a(I142
I1
F-0.5
S'less'
p789
tp790
a(I144
I2
F0.125
S'last'
p791
tp792
a(I148
I2
F1.0
g77
tp793
as(S'fits'
p794
tp795
(lp796
(I10
I1
I0
S'great'
p797
tp798
a(I23
I4
F-0.25
S'thin'
p799
tp800
as(S'big'
p801
S'screen'
p802
tp803
(lp804
(I1
I0
I0
g124
tp805
a(I26
I0
I0
g134
tp806
a(I27
I3
I0
g136
tp807
a(I27
I7
I0
g138
tp808
a(I32
I3
I0
g142
tp809
a(I45
I16
I0
g150
tp810
a(I53
I10
I0
g156
tp811
a(I77
I5
I0
g166
tp812
a(I85
I4
I0
g170
tp813
a(I89
I1
F0.25
g172
tp814
a(I92
I0
F0.375
g174
tp815
a(I92
I0
F-0.5
g176
tp816
a(I94
I4
I0
g178
tp817
a(I101
I2
I0
g184
tp818
a(I101
I2
I0
g186
tp819
a(I120
I1
I0
g192
tp820
a(I120
I1
I0
g194
tp821
a(I120
I1
F0.75
g196
tp822
a(I135
I1
F0.25
g200
tp823
as(S'awesome'
p824
tp825
(lp826
(I0
I4
I0
S'such'
p827
tp828
as(S'samsung'
p829
S'galaxy'
p830
tp831
(lp832
(I54
I28
F-0.5
g10
tp833
a(I54
I28
F-0.25
g12
tp834
a(I115
I0
F0.125
g16
tp835
a(I115
I4
F0.375
g18
tp836
a(I138
I28
F0.5
g20
tp837
as(S'note'
p838
tp839
(lp840
(I22
I0
F-0.5
g6
tp841
a(I28
I0
I0
S'cool'
p842
tp843
a(I38
I22
F-0.5
g640
tp844
a(I45
I10
F-0.5
S'heavier'
p845
tp846
a(I45
I74
F-0.25
g8
tp847
a(I55
I8
I0
g14
tp848
a(I74
I1
I0
S'big'
p849
tp850
a(I83
I16
F0.625
g646
tp851
a(I136
I1
I0
S'more'
p852
tp853
a(I137
I3
F-0.25
S'low'
p854
tp855
a(I138
I25
I0
S'great'
p856
tp857
a(I138
I28
F0.125
g22
tp858
a(I139
I25
I0
g650
tp859
as(S'need'
p860
tp861
(lp862
(I48
I4
I0
S'slower'
p863
tp864
as(S'car'
p865
S'dock'
p866
tp867
(lp868
(I47
I0
I0
S'very'
p869
tp870
a(I47
I0
I0
S'few'
p871
tp872
a(I47
I0
I0
S'integrated'
p873
tp874
as(S'thing'
p875
tp876
(lp877
(I1
I3
F-0.875
S'negative'
p878
tp879
a(I6
I28
F0.625
S'easy'
p880
tp881
a(I16
I0
F1.0
S'best'
p882
tp883
a(I24
I2
I0
S'same'
p884
tp885
a(I32
I5
I0
S'least'
p886
tp887
a(I38
I19
F0.25
S'main'
p888
tp889
a(I45
I37
I0
S'only'
p890
tp891
a(I45
I37
F-0.625
S'bad'
p892
tp893
a(I45
I64
F1.0
S'good'
p894
tp895
a(I48
I3
F-0.25
S'thin'
p896
tp897
a(I51
I5
I0
S'same'
p898
tp899
a(I52
I12
I0
S'same'
p900
tp901
a(I54
I25
I0
S'many'
p902
tp903
a(I59
I1
I0
S'such'
p904
tp905
a(I77
I16
I0
S'only'
p906
tp907
a(I83
I21
F0.875
S'important'
p908
tp909
a(I87
I1
F0.125
S'practical'
p910
tp911
a(I92
I2
I0
S'only'
p912
tp913
a(I106
I3
I0
S'only'
p914
tp915
as(S'sim'
p916
S'card'
p917
tp918
(lp919
(I140
I4
I0
S'standard'
p920
tp921
as(S'warranty'
p922
tp923
(lp924
(I58
I8
I0
g104
tp925
a(I58
I8
F-0.5
g106
tp926
as(S'update'
p927
tp928
(lp929
(I90
I6
I0
S'android'
p930
tp931
a(I132
I4
F0.375
S'available'
p932
tp933
a(I132
I4
F-0.125
S'bean'
p934
tp935
a(I136
I0
I0
S'quick'
p936
tp937
a(I141
I1
F0.375
S'available'
p938
tp939
a(I141
I1
I0
S'update'
p940
tp941
a(I148
I1
F0.625
S'easy'
p942
tp943
as(S'ce'
p944
S'cream'
p945
S'sandwich'
p946
tp947
(lp948
(I0
I5
F0.375
g295
tp949
a(I45
I56
F0.875
g297
tp950
a(I45
I56
F0.125
g299
tp951
a(I45
I56
I0
g301
tp952
a(I132
I2
F0.625
g303
tp953
as(S'htc'
p954
S'sensation'
p955
tp956
(lp957
(I138
I28
I0
S'sprint'
p958
tp959
a(I138
I28
F-0.25
S'epic'
p960
tp961
as(S'call'
p962
tp963
(lp964
(I46
I0
F0.875
S'music'
p965
tp966
a(I85
I2
I0
S'female'
p967
tp968
a(I123
I19
I0
S'text'
p969
tp970
a(I141
I3
I0
S'big'
p971
tp972
a(I141
I3
I0
S'great'
p973
tp974
as(S'hand'
p975
tp976
(lp977
(I3
I0
F-0.75
S'single'
p978
tp979
a(I12
I5
F-0.75
g399
tp980
a(I32
I7
F-0.75
S'single'
p981
tp982
a(I33
I3
F0.75
S'due'
p983
tp984
a(I64
I7
I0
g401
tp985
a(I72
I4
I0
S'most'
p986
tp987
as(S'n7000'
p988
tp989
(lp990
(I69
I0
I0
g309
tp991
as(S'contact'
p992
S'cleaner'
p993
tp994
(lp995
(I84
I2
F-0.625
S'cleaner'
p996
tp997
as(S'galaxy'
p998
S'sii'
p999
tp1000
(lp1001
(I38
I22
I0
g542
tp1002
a(I38
I22
F0.125
S'colorful'
p1003
tp1004
a(I38
I22
F-0.75
S'bright'
p1005
tp1006
as(S'straight'
p1007
S'talk'
p1008
tp1009
(lp1010
(I81
I9
F0.625
S'straight'
p1011
tp1012
as(S'data'
p1013
tp1014
(lp1015
(I45
I36
F1.0
S'good'
p1016
tp1017
a(I47
I0
I0
S'rapid'
p1018
tp1019
a(I64
I16
F0.375
S'new'
p1020
tp1021
a(I64
I16
I0
S'old'
p1022
tp1023
a(I64
I18
I0
S'old'
p1024
tp1025
a(I132
I3
F0.125
S'supplied'
p1026
tp1027
a(I132
I3
I0
S'cable'
p1028
tp1029
a(I141
I3
F0.5
S'compatible'
p1030
tp1031
as(S'time'
p1032
tp1033
(lp1034
(I0
I2
F0.125
S'first'
p1035
tp1036
a(I6
I27
F-0.875
S'hard'
p1037
tp1038
a(I10
I2
F0.125
S'last'
p1039
tp1040
a(I33
I1
F0.125
S'first'
p1041
tp1042
a(I33
I4
F0.5
S'second'
p1043
tp1044
a(I33
I4
F1.0
S'best'
p1045
tp1046
a(I36
I3
F1.0
S'good'
p1047
tp1048
a(I43
I1
F-0.875
S'hard'
p1049
tp1050
a(I45
I12
F0.125
S'first'
p1051
tp1052
a(I45
I42
I0
S'only'
p1053
tp1054
a(I58
I4
I0
S'full'
p1055
tp1056
a(I58
I4
F-0.25
S'potential'
p1057
tp1058
a(I70
I4
I0
S'same'
p1059
tp1060
a(I73
I1
F0.125
S'first'
p1061
tp1062
a(I83
I25
F0.625
S'easy'
p1063
tp1064
a(I87
I2
I0
S'same'
p1065
tp1066
a(I90
I1
I0
S'great'
p1067
tp1068
a(I90
I1
I0
S'mobile'
p1069
tp1070
a(I90
I1
F-0.5
S'long'
p1071
tp1072
a(I94
I1
I0
S'same'
p1073
tp1074
a(I115
I17
F0.25
S'favorite'
p1075
tp1076
a(I123
I11
I0
S'big'
p1077
tp1078
a(I123
I11
I0
S'big'
p1079
tp1080
a(I123
I11
F-0.875
S'negative'
p1081
tp1082
a(I136
I0
I0
S'most'
p1083
tp1084
a(I139
I21
F0.125
S'first'
p1085
tp1086
as(S'camera'
p1087
tp1088
(lp1089
(I54
I19
F1.0
S'best'
p1090
tp1091
a(I90
I4
F1.0
S'good'
p1092
tp1093
a(I138
I17
F0.125
S'capable'
p1094
tp1095
a(I138
I17
I0
S'most'
p1096
tp1097
as(S'speed'
p1098
tp1099
(lp1100
(I52
I8
F0.875
S'important'
p1101
tp1102
a(I52
I8
F-0.625
S'bad'
p1103
tp1104
a(I54
I10
F-0.375
S'smooth'
p1105
tp1106
a(I56
I0
I0
S'fast'
p1107
tp1108
a(I56
I0
F0.625
S'easy'
p1109
tp1110
a(I75
I3
I0
S'next'
p1111
tp1112
a(I90
I4
F-0.125
S'super'
p1113
tp1114
a(I90
I5
I0
S'great'
p1115
tp1116
a(I109
I7
I0
S'slower'
p1117
tp1118
as(S'wifi'
p1119
tp1120
(lp1121
(I45
I53
F-0.625
S'free'
p1122
tp1123
as(S'fast'
p1124
tp1125
(lp1126
(I28
I3
I0
S'real'
p1127
tp1128
as(S'size'
p1129
tp1130
(lp1131
(I6
I5
F0.625
S'easy'
p1132
tp1133
a(I6
I5
I0
S'quick'
p1134
tp1135
a(I33
I1
F-0.25
S'past'
p1136
tp1137
a(I38
I23
F-0.375
S'small'
p1138
tp1139
a(I47
I0
I0
S'big'
p1140
tp1141
a(I48
I4
I0
g473
tp1142
a(I61
I2
I0
S'useful'
p1143
tp1144
a(I64
I1
F1.0
g475
tp1145
a(I64
I12
F0.25
g477
tp1146
a(I64
I16
F0.25
S'bigger'
p1147
tp1148
a(I68
I1
I0
S'normal'
p1149
tp1150
a(I72
I3
F-0.75
S'difficult'
p1151
tp1152
a(I73
I1
I0
g479
tp1153
a(I75
I2
F0.125
g481
tp1154
a(I75
I2
I0
g483
tp1155
a(I75
I2
I0
g485
tp1156
a(I82
I3
F-0.5
S'regular'
p1157
tp1158
a(I92
I0
I0
g490
tp1159
a(I109
I1
F-0.375
S'smaller'
p1160
tp1161
a(I109
I5
F1.0
S'good'
p1162
tp1163
a(I111
I1
I0
S'big'
p1164
tp1165
a(I120
I1
I0
g494
tp1166
a(I141
I3
I0
g499
tp1167
as(S'support'
p1168
tp1169
(lp1170
(I8
I0
F0.5
S'technical'
p1171
tp1172
a(I138
I25
F-0.625
S'free'
p1173
tp1174
as(S'pocket'
p1175
tp1176
(lp1177
(I38
I9
F1.0
S'like'
p1178
tp1179
a(I45
I71
I0
S'android'
p1180
tp1181
a(I72
I4
F-0.125
S'breast'
p1182
tp1183
a(I78
I6
F1.0
S'like'
p1184
tp1185
a(I87
I3
F-0.25
S'thin'
p1186
tp1187
a(I87
I3
F-0.625
S'light'
p1188
tp1189
a(I111
I1
I0
S'big'
p1190
tp1191
as(S'work'
p1192
tp1193
(lp1194
(I6
I11
I0
S'accomplish'
p1195
tp1196
a(I27
I6
F1.0
S'good'
p1197
tp1198
a(I39
I4
I0
S'full'
p1199
tp1200
a(I138
I10
I0
S'more'
p1201
tp1202
as(S'us'
p1203
S'warranty'
p1204
tp1205
(lp1206
(I58
I8
I0
g104
tp1207
a(I58
I8
F-0.5
g106
tp1208
as(S'apps'
p1209
tp1210
(lp1211
(I5
I1
F-0.125
S'slow'
p1212
tp1213
a(I27
I9
F0.375
S'available'
p1214
tp1215
a(I45
I45
F-0.625
S'other'
p1216
tp1217
a(I80
I5
I0
S'exclusive'
p1218
tp1219
a(I83
I4
F0.125
S'native'
p1220
tp1221
a(I83
I4
I0
S'chinese'
p1222
tp1223
a(I83
I7
F-0.625
S'free'
p1224
tp1225
a(I87
I6
I0
S'many'
p1226
tp1227
a(I128
I0
I0
S'many'
p1228
tp1229
a(I136
I3
F0.375
S'available'
p1230
tp1231
as(S'life'
p1232
tp1233
(lp1234
(I23
I5
I0
g57
tp1235
a(I45
I37
F1.0
g59
tp1236
a(I45
I37
I0
g61
tp1237
a(I48
I0
F1.0
g63
tp1238
a(I61
I4
F1.0
g65
tp1239
a(I83
I25
I0
g69
tp1240
as(S'days'
p1241
tp1242
(lp1243
(I24
I3
F-0.5
S'open'
p1244
tp1245
a(I73
I1
I0
S'few'
p1246
tp1247
a(I73
I1
F0.625
S'perfect'
p1248
tp1249
a(I80
I3
I0
S'more'
p1250
tp1251
as(S'one'
p1252
S'hand'
p1253
tp1254
(lp1255
(I12
I5
F-0.75
g399
tp1256
a(I64
I7
I0
g401
tp1257
as(S'poor'
p1258
S'customer'
p1259
S'service'
p1260
tp1261
(lp1262
(I96
I4
F-0.5
g213
tp1263
a(I96
I6
F-0.5
g215
tp1264
a(I96
I9
I0
g703
tp1265
a(I96
I9
F-0.5
g217
tp1266
a(I96
I18
F-0.5
g219
tp1267
as(S'service'
p1268
tp1269
(lp1270
(I47
I1
F0.375
S'much'
p1271
tp1272
a(I50
I9
F0.25
g505
tp1273
a(I81
I11
F0.75
S'due'
p1274
tp1275
as.