(dp0
(S'times'
p1
tp2
(lp3
(I1
I4
F-0.625
S'inopportune'
p4
tp5
a(I23
I14
I0
S'least'
p6
tp7
a(I29
I2
I0
S'few'
p8
tp9
a(I37
I71
I0
S'many'
p10
tp11
a(I40
I6
I0
S'many'
p12
tp13
a(I40
I6
I0
S'many'
p14
tp15
a(I70
I2
I0
S'least'
p16
tp17
a(I83
I9
F-0.625
S'average'
p18
tp19
a(I83
I11
F-0.5
S'open'
p20
tp21
a(I83
I11
F-0.625
S'other'
p22
tp23
a(I98
I3
I0
S'least'
p24
tp25
a(I133
I61
F1.0
S'better'
p26
tp27
a(I138
I21
I0
S'own'
p28
tp29
a(I138
I27
I0
S'few'
p30
tp31
a(I140
I3
I0
S'few'
p32
tp33
a(I146
I2
I0
S'least'
p34
tp35
as(S'problem'
p36
tp37
(lp38
(I1
I2
F-0.375
S'serious'
p39
tp40
a(I34
I1
I0
S'most'
p41
tp42
a(I37
I59
I0
S'android'
p43
tp44
a(I37
I59
F0.375
S'similar'
p45
tp46
a(I95
I1
I0
S'big'
p47
tp48
a(I159
I4
I0
S'common'
p49
tp50
a(I163
I0
I0
S'same'
p51
tp52
as(S'something'
p53
tp54
(lp55
(I9
I3
F-0.75
S'wrong'
p56
tp57
a(I34
I1
F-0.75
S'wrong'
p58
tp59
a(I57
I12
F-0.25
S'higher'
p60
tp61
a(I70
I1
F-0.625
S'bad'
p62
tp63
a(I133
I25
F0.375
S'much'
p64
tp65
as(S'from'
p66
S'boost'
p67
S'mobile'
p68
tp69
(lp70
(I0
I0
F0.125
S'last'
p71
tp72
a(I0
I0
F-0.5
S'long'
p73
tp74
a(I167
I0
F0.125
S'last'
p75
tp76
as(S'battery'
p77
S'life'
p78
tp79
(lp80
(I5
I11
F0.5
S'commendable'
p81
tp82
a(I6
I2
F1.0
S'good'
p83
tp84
a(I6
I2
I0
S'screen'
p85
tp86
a(I19
I1
F-0.875
S'negative'
p87
tp88
a(I37
I43
F-0.625
S'average'
p89
tp90
a(I62
I2
F-0.625
S'bad'
p91
tp92
a(I67
I13
F-0.75
S'short'
p93
tp94
a(I72
I1
F1.0
S'good'
p95
tp96
a(I79
I13
I0
S'great'
p97
tp98
a(I106
I10
F-0.75
S'short'
p99
tp100
a(I135
I40
F1.0
S'good'
p101
tp102
a(I135
I40
I0
S'adequate'
p103
tp104
a(I138
I10
F-0.625
S'bad'
p105
tp106
a(I157
I7
F0.875
S'happy'
p107
tp108
as(S'to'
p109
S'remove'
p110
S'battery'
p111
tp112
(lp113
(I77
I4
I0
S'least'
p114
tp115
as(S'zte'
p116
S'warp'
p117
tp118
(lp119
(I37
I78
F0.875
S'happy'
p120
tp121
a(I54
I0
F0.875
S'happier'
p122
tp123
a(I72
I2
F0.5
S'second'
p124
tp125
a(I84
I1
F0.125
S'first'
p126
tp127
a(I135
I49
F-0.75
S'difficult'
p128
tp129
a(I140
I0
F0.375
S'new'
p130
tp131
a(I166
I0
I0
S'great'
p132
tp133
as(S'freezes'
p134
tp135
(lp136
(I139
I6
I0
S'least'
p137
tp138
as(S'freezing'
p139
tp140
(lp141
(I42
I8
F0.75
S'constant'
p142
tp143
a(I96
I2
F-0.5
S'heavy'
p144
tp145
as(S'virgin'
p146
S'mobile'
p147
tp148
(lp149
(I68
I0
I0
S'mobile'
p150
tp151
as(S'text'
p152
tp153
(lp154
(I5
I13
F0.5
S'whole'
p155
tp156
a(I5
I13
F0.375
S'new'
p157
tp158
a(I32
I0
F0.875
S'music'
p159
tp160
a(I40
I4
I0
S'later'
p161
tp162
a(I40
I4
I0
S'oh'
p163
tp164
a(I122
I5
I0
S'net'
p165
tp166
as(S'boost'
p167
S'mobile'
p168
tp169
(lp170
(I0
I0
F0.125
g71
tp171
a(I0
I0
F-0.5
g73
tp172
a(I37
I19
F-0.875
S'hard'
p173
tp174
a(I37
I19
I0
S'human'
p175
tp176
a(I37
I40
I0
S'many'
p177
tp178
a(I109
I0
I0
S'great'
p179
tp180
a(I126
I2
F-0.25
S'direct'
p181
tp182
a(I167
I0
F0.125
g75
tp183
as(S'nice'
p184
tp185
(lp186
(I72
I1
I0
S'large'
p187
tp188
a(I155
I1
F1.0
S'good'
p189
tp190
as(S'price'
p191
tp192
(lp193
(I5
I23
F0.75
S'worth'
p194
tp195
a(I23
I18
F-0.75
S'sad'
p196
tp197
a(I27
I1
F0.625
S'easy'
p198
tp199
a(I35
I3
I0
S'great'
p200
tp201
a(I35
I3
F-0.25
S'cheaper'
p202
tp203
a(I64
I1
I0
S'great'
p204
tp205
a(I73
I0
I0
S'great'
p206
tp207
a(I74
I6
I0
S'mobile'
p208
tp209
a(I74
I7
F1.0
S'good'
p210
tp211
a(I77
I6
I0
S'same'
p212
tp213
a(I79
I22
F0.5
S'reasonable'
p214
tp215
a(I89
I1
F1.0
S'best'
p216
tp217
a(I99
I1
I0
S'great'
p218
tp219
a(I112
I0
F0.125
S'first'
p220
tp221
a(I145
I0
F1.0
S'good'
p222
tp223
a(I152
I0
F-0.625
S'bad'
p224
tp225
as(S'ringer'
p226
S'volume'
p227
tp228
(lp229
(I106
I11
F-0.25
S'low'
p230
tp231
a(I106
I12
F-0.25
S'low'
p232
tp233
a(I133
I53
F0.5
S'absolute'
p234
tp235
as(S'with'
p236
S'boost'
p237
S'mobile'
p238
tp239
(lp240
(I37
I19
F-0.875
g173
tp241
a(I37
I19
I0
g175
tp242
as(S'go'
p243
S'back'
p244
tp245
(lp246
(I129
I2
F-0.75
S'likely'
p247
tp248
as(S'service'
p249
tp250
(lp251
(I16
I2
F1.0
S'good'
p252
tp253
a(I17
I0
I0
S'great'
p254
tp255
a(I21
I4
F1.0
S'good'
p256
tp257
a(I37
I16
F-0.125
S'slow'
p258
tp259
a(I37
I22
F0.75
S'worth'
p260
tp261
a(I37
I26
F0.375
S'available'
p262
tp263
a(I37
I58
I0
S'such'
p264
tp265
a(I39
I0
I0
S'old'
p266
tp267
a(I40
I8
I0
S'same'
p268
tp269
a(I57
I1
I0
S'real'
p270
tp271
a(I83
I5
F0.25
S'helpful'
p272
tp273
a(I93
I7
I0
S'cellular'
p274
tp275
a(I94
I1
F1.0
S'good'
p276
tp277
a(I109
I0
F1.0
S'good'
p278
tp279
a(I120
I5
I0
S'great'
p280
tp281
a(I122
I4
F1.0
S'good'
p282
tp283
a(I131
I7
F0.375
S'new'
p284
tp285
a(I131
I7
F1.0
S'good'
p286
tp287
a(I131
I9
F1.0
S'good'
p288
tp289
a(I131
I9
F1.0
S'good'
p290
tp291
a(I131
I10
I0
S'great'
p292
tp293
as(S'problems'
p294
tp295
(lp296
(I7
I1
I0
S'old'
p297
tp298
a(I23
I16
F0.625
S'major'
p299
tp300
a(I23
I16
F-0.375
S'small'
p301
tp302
a(I34
I1
I0
S'many'
p303
tp304
a(I74
I0
I0
S'many'
p305
tp306
a(I74
I6
F0.625
S'major'
p307
tp308
a(I83
I4
I0
S'anymore'
p309
tp310
a(I95
I3
F-0.625
S'other'
p311
tp312
a(I102
I21
F0.625
S'emotional'
p313
tp314
a(I108
I2
F-0.125
S'mine'
p315
tp316
a(I138
I18
I0
S'more'
p317
tp318
as(S'works'
p319
tp320
(lp321
(I67
I12
I0
S'great'
p322
tp323
a(I170
I0
F-0.25
S'battery'
p324
tp325
as(S'back'
p326
tp327
(lp328
(I42
I5
F0.125
S'able'
p329
tp330
as(S'touch'
p331
tp332
(lp333
(I57
I4
I0
S'large'
p334
tp335
a(I57
I4
I0
S'full'
p336
tp337
a(I57
I4
I0
S'full'
p338
tp339
a(I125
I10
F0.25
S'responsive'
p340
tp341
as(S'camera'
p342
tp343
(lp344
(I5
I7
F1.0
S'good'
p345
tp346
a(I108
I4
F1.0
S'best'
p347
tp348
a(I133
I50
F-0.875
S'awful'
p349
tp350
a(I135
I17
F0.125
S'digital'
p351
tp352
a(I135
I21
I0
S'android'
p353
tp354
a(I141
I14
F1.0
S'good'
p355
tp356
a(I145
I3
F1.0
S'good'
p357
tp358
a(I159
I4
F1.0
S'good'
p359
tp360
as(S'warp'
p361
tp362
(lp363
(I15
I6
F0.25
S'original'
p364
tp365
a(I15
I11
F0.5
S'recommend'
p366
tp367
a(I54
I0
F0.875
g122
tp368
a(I84
I1
F0.125
g126
tp369
a(I135
I49
F-0.75
g128
tp370
a(I135
I53
F-0.625
S'light'
p371
tp372
a(I141
I16
F-0.75
S'unreliable'
p373
tp374
as(S'better'
p375
tp376
(lp377
(I84
I1
F0.375
S'much'
p378
tp379
as(S'to'
p380
S'take'
p381
S'battery'
p382
tp383
(lp384
(I30
I0
F-0.5
S'complaint'
p385
tp386
as(S'month'
p387
tp388
(lp389
(I5
I0
I0
S'more'
p390
tp391
a(I5
I0
F-0.625
S'bad'
p392
tp393
a(I5
I0
F1.0
S'good'
p394
tp395
a(I51
I1
F1.0
S'good'
p396
tp397
a(I102
I17
F1.0
S'good'
p398
tp399
a(I116
I1
F0.25
S'tired'
p400
tp401
a(I130
I2
I0
S'own'
p402
tp403
a(I133
I4
F-0.375
S'unstable'
p404
tp405
a(I133
I31
F0.875
S'happy'
p406
tp407
a(I142
I0
F0.125
S'first'
p408
tp409
as(S'click'
p410
S'root'
p411
tp412
(lp413
(I10
I29
F0.375
S'busy'
p414
tp415
a(I133
I31
F0.375
S'available'
p416
tp417
as(S'straight'
p418
S'talk'
p419
tp420
(lp421
(I37
I19
F0.625
S'straight'
p422
tp423
as(S'screen'
p424
S'size'
p425
tp426
(lp427
(I29
I0
I0
S'great'
p428
tp429
a(I57
I3
F-0.5
S'poor'
p430
tp431
a(I78
I6
F0.875
S'nice'
p432
tp433
a(I95
I7
I0
S'large'
p434
tp435
a(I145
I0
I0
S'large'
p436
tp437
as(S'6'
p438
S'months'
p439
tp440
(lp441
(I62
I8
F0.125
S'first'
p442
tp443
as(S'recommend'
p444
tp445
(lp446
(I170
I0
F1.0
S'good'
p447
tp448
as(S'life'
p449
tp450
(lp451
(I5
I11
F0.5
g81
tp452
a(I6
I2
F1.0
g83
tp453
a(I6
I2
I0
g85
tp454
a(I62
I2
F-0.625
g91
tp455
a(I72
I1
F1.0
g95
tp456
a(I79
I13
I0
g97
tp457
a(I135
I40
F1.0
g101
tp458
a(I135
I40
I0
g103
tp459
a(I138
I10
F-0.625
g105
tp460
as(S'freeze'
p461
tp462
(lp463
(I69
I0
F-0.125
S'slow'
p464
tp465
as(S'mobile'
p466
tp467
(lp468
(I0
I0
F0.125
g71
tp469
a(I0
I0
F-0.5
g73
tp470
a(I136
I4
I0
S'great'
p471
tp472
as(S'through'
p473
S'boost'
p474
S'mobile'
p475
tp476
(lp477
(I126
I2
F-0.25
g181
tp478
as(S'fast'
p479
tp480
(lp481
(I157
I5
F0.875
S'happy'
p482
tp483
a(I157
I5
F0.75
S'due'
p484
tp485
a(I165
I8
I0
S'big'
p486
tp487
as(S'times'
p488
S'a'
p489
S'day'
p490
tp491
(lp492
(I23
I14
I0
g6
tp493
a(I40
I6
I0
g12
tp494
a(I40
I6
I0
g14
tp495
a(I70
I2
I0
g16
tp496
a(I83
I5
F1.0
S'good'
p497
tp498
a(I83
I5
F0.125
S'last'
p499
tp500
a(I83
I9
F-0.625
g18
tp501
a(I98
I3
F0.125
S'first'
p502
tp503
a(I98
I3
I0
g24
tp504
a(I138
I27
I0
g30
tp505
a(I146
I2
I0
g34
tp506
as(S'reboot'
p507
tp508
(lp509
(I138
I19
F0.5
S'patient'
p510
tp511
as(S'on'
p512
S'boost'
p513
S'mobile'
p514
tp515
(lp516
(I0
I0
F0.125
g71
tp517
a(I0
I0
F-0.5
g73
tp518
a(I37
I19
F-0.875
g173
tp519
a(I37
I19
I0
g175
tp520
a(I37
I40
I0
g177
tp521
a(I109
I0
I0
g179
tp522
a(I167
I0
F0.125
g75
tp523
as(S'time'
p524
S'to'
p525
S'time'
p526
tp527
(lp528
(I7
I5
F0.375
S'similar'
p529
tp530
a(I11
I1
I0
S'big'
p531
tp532
a(I98
I4
F-0.5
S'sure'
p533
tp534
a(I100
I0
F0.75
S'worth'
p535
tp536
a(I133
I46
F-0.5
S'unimpressive'
p537
tp538
a(I141
I8
I0
S'same'
p539
tp540
a(I150
I1
F-0.625
S'other'
p541
tp542
as(S'take'
p543
tp544
(lp545
(I164
I0
F-0.5
S'long'
p546
tp547
as(S'people'
p548
tp549
(lp550
(I25
I5
F-0.375
S'happen'
p551
tp552
a(I95
I3
I0
S'same'
p553
tp554
a(I102
I7
F-0.625
S'other'
p555
tp556
a(I125
I2
I0
S'many'
p557
tp558
a(I133
I15
I0
S'most'
p559
tp560
a(I136
I1
I0
S'most'
p561
tp562
a(I138
I6
I0
S'most'
p563
tp564
as(S'months'
p565
tp566
(lp567
(I3
I0
F-0.5
S'less'
p568
tp569
a(I4
I1
I0
S'many'
p570
tp571
a(I23
I0
F0.125
S'first'
p572
tp573
a(I23
I1
I0
S'few'
p574
tp575
a(I62
I8
F0.125
g442
tp576
a(I77
I3
I0
S'few'
p577
tp578
a(I101
I1
F0.25
S'tired'
p579
tp580
a(I133
I2
F0.125
S'first'
p581
tp582
a(I135
I49
I0
S'few'
p583
tp584
a(I140
I0
I0
S'few'
p585
tp586
a(I169
I6
F0.5
S'optimistic'
p587
tp588
as(S'sd'
p589
S'card'
p590
tp591
(lp592
(I34
I1
I0
S'sd'
p593
tp594
a(I34
I1
F0.875
S'music'
p595
tp596
as(S'take'
p597
S'out'
p598
S'battery'
p599
tp600
(lp601
(I30
I0
F-0.5
g385
tp602
as(S'contract'
p603
tp604
(lp605
(I37
I17
I0
S'most'
p606
tp607
a(I37
I33
I0
S'many'
p608
tp609
a(I37
I36
F-0.625
S'other'
p610
tp611
a(I64
I0
I0
S'great'
p612
tp613
as(S'video'
p614
tp615
(lp616
(I37
I79
F1.0
S'better'
p617
tp618
a(I37
I80
F0.125
S'native'
p619
tp620
a(I37
I82
F0.625
S'easier'
p621
tp622
as(S'htc'
p623
S'evo'
p624
tp625
(lp626
(I52
I1
F0.5
S'comparable'
p627
tp628
a(I54
I0
F0.375
S'new'
p629
tp630
a(I54
I1
I0
S'faster'
p631
tp632
as(S'android'
p633
tp634
(lp635
(I5
I13
F-0.75
S'hate'
p636
tp637
a(I5
I13
F0.375
S'new'
p638
tp639
a(I10
I28
F0.125
S'typical'
p640
tp641
a(I21
I1
F0.5
S'second'
p642
tp643
a(I37
I78
F0.125
S'first'
p644
tp645
a(I37
I82
F0.125
S'first'
p646
tp647
a(I37
I86
F1.0
S'better'
p648
tp649
a(I37
I86
I0
S'different'
p650
tp651
a(I40
I2
F0.125
S'first'
p652
tp653
a(I52
I0
F1.0
S'best'
p654
tp655
a(I67
I1
F0.125
S'first'
p656
tp657
as(S'customer'
p658
tp659
(lp660
(I102
I20
F1.0
S'better'
p661
tp662
as(S'prepaid'
p663
S'carriers'
p664
tp665
(lp666
(I37
I8
F-0.625
S'other'
p667
tp668
a(I37
I17
F-0.625
S'other'
p669
tp670
a(I37
I19
F0.5
S'true'
p671
tp672
a(I37
I19
F-0.875
S'worst'
p673
tp674
a(I37
I20
I0
S'many'
p675
tp676
a(I37
I20
I0
S'prepaid'
p677
tp678
a(I37
I30
F-0.625
S'other'
p679
tp680
a(I37
I33
F-0.625
S'other'
p681
tp682
a(I37
I33
F-0.5
S'less'
p683
tp684
a(I126
I7
F1.0
S'best'
p685
tp686
as(S'large'
p687
S'screen'
p688
tp689
(lp690
(I15
I2
I0
S'large'
p691
tp692
a(I15
I3
I0
S'large'
p693
tp694
a(I15
I3
F0.625
S'easier'
p695
tp696
a(I15
I7
I0
S'large'
p697
tp698
a(I21
I4
I0
S'large'
p699
tp700
a(I21
I4
F0.25
S'responsive'
p701
tp702
a(I37
I45
I0
S'large'
p703
tp704
a(I95
I7
I0
g434
tp705
a(I95
I9
F0.25
S'larger'
p706
tp707
a(I101
I0
F0.25
S'largest'
p708
tp709
a(I125
I2
I0
S'large'
p710
tp711
a(I135
I7
I0
S'large'
p712
tp713
a(I145
I0
I0
g436
tp714
as(S'boost'
p715
tp716
(lp717
(I37
I7
F0.75
S'worth'
p718
tp719
a(I37
I19
F-0.875
g173
tp720
a(I37
I19
I0
g175
tp721
a(I37
I22
F0.375
S'extra'
p722
tp723
a(I37
I40
I0
g177
tp724
a(I109
I0
I0
g179
tp725
a(I112
I0
I0
S'website'
p726
tp727
a(I120
I0
F0.5
S'second'
p728
tp729
a(I126
I2
F-0.25
g181
tp730
a(I157
I4
I0
S'old'
p731
tp732
a(I157
I5
I0
S'old'
p733
tp734
a(I167
I0
F0.125
g75
tp735
as(S'money'
p736
tp737
(lp738
(I107
I3
F0.75
S'worth'
p739
tp740
as(S'battery'
p741
tp742
(lp743
(I5
I10
F0.125
S'far'
p744
tp745
a(I19
I1
F-0.875
g87
tp746
a(I30
I0
F-0.5
g385
tp747
a(I37
I43
F-0.625
g89
tp748
a(I42
I8
F0.75
S'due'
p749
tp750
a(I48
I0
F-0.5
S'long'
p751
tp752
a(I64
I6
F-0.5
S'long'
p753
tp754
a(I67
I13
F-0.75
g93
tp755
a(I77
I4
I0
g114
tp756
a(I93
I1
F-0.5
S'less'
p757
tp758
a(I106
I10
F-0.75
g99
tp759
a(I113
I0
F-0.75
S'dead'
p760
tp761
a(I135
I46
I0
S'internal'
p762
tp763
a(I138
I8
I0
S'big'
p764
tp765
a(I141
I8
F0.375
S'new'
p766
tp767
a(I148
I1
F-0.625
S'sorry'
p768
tp769
a(I157
I7
F0.875
g107
tp770
a(I169
I14
F0.625
S'cover'
p771
tp772
as(S'smart'
p773
tp774
(lp775
(I6
I2
F1.0
S'good'
p776
tp777
a(I6
I2
I0
S'basic'
p778
tp779
a(I15
I4
F0.125
S'first'
p780
tp781
a(I15
I12
I0
S'large'
p782
tp783
a(I37
I4
F-0.75
S'sick'
p784
tp785
a(I37
I4
F0.25
S'tired'
p786
tp787
a(I67
I15
I0
S'android'
p788
tp789
a(I120
I1
I0
S'most'
p790
tp791
a(I125
I1
F-0.625
S'other'
p792
tp793
a(I131
I0
F0.125
S'first'
p794
tp795
a(I131
I1
F0.5
S'expensive'
p796
tp797
as(S'take'
p798
S'battery'
p799
tp800
(lp801
(I30
I0
F-0.5
g385
tp802
as(S'big'
p803
S'screen'
p804
tp805
(lp806
(I12
I2
F0.875
S'nice'
p807
tp808
a(I12
I2
I0
S'big'
p809
tp810
a(I30
I0
F0.875
S'nice'
p811
tp812
a(I30
I0
I0
S'big'
p813
tp814
a(I37
I79
F0.25
S'biggest'
p815
tp816
a(I37
I79
I0
S'many'
p817
tp818
a(I82
I3
I0
S'big'
p819
tp820
a(I106
I5
I0
S'big'
p821
tp822
a(I108
I2
I0
S'big'
p823
tp824
a(I108
I2
I0
S'great'
p825
tp826
a(I116
I6
F0.75
S'beautiful'
p827
tp828
a(I116
I6
I0
S'such'
p829
tp830
a(I116
I6
I0
S'big'
p831
tp832
a(I119
I0
I0
S'big'
p833
tp834
a(I145
I0
I0
g436
tp835
a(I157
I6
F0.25
S'bigger'
p836
tp837
a(I168
I1
I0
S'big'
p838
tp839
a(I169
I0
F0.25
S'bigger'
p840
tp841
as(S'samsung'
p842
S'galaxy'
p843
tp844
(lp845
(I166
I0
F0.375
S'new'
p846
tp847
as(S'anyone'
p848
tp849
(lp850
(I29
I3
F-0.625
S'other'
p851
tp852
a(I90
I0
I0
S'hear'
p853
tp854
as(S'anything'
p855
tp856
(lp857
(I15
I12
F-0.375
S'smaller'
p858
tp859
a(I85
I0
F0.375
S'much'
p860
tp861
a(I133
I20
I0
S'adequate'
p862
tp863
as(S'thing'
p864
tp865
(lp866
(I38
I0
I0
S'only'
p867
tp868
a(I44
I4
F-0.875
S'worst'
p869
tp870
a(I57
I3
I0
S'only'
p871
tp872
a(I72
I2
I0
S'only'
p873
tp874
a(I74
I2
F-0.625
S'bad'
p875
tp876
a(I81
I4
I0
S'same'
p877
tp878
a(I97
I3
I0
S'same'
p879
tp880
a(I106
I15
I0
S'same'
p881
tp882
a(I112
I6
I0
S'only'
p883
tp884
a(I112
I7
I0
S'only'
p885
tp886
a(I112
I7
F-0.875
S'negative'
p887
tp888
a(I117
I1
F-0.25
S'low'
p889
tp890
a(I117
I1
I0
S'monthly'
p891
tp892
a(I117
I1
F-0.625
S'bad'
p893
tp894
a(I119
I0
I0
S'only'
p895
tp896
a(I119
I0
F1.0
S'good'
p897
tp898
a(I129
I2
I0
S'only'
p899
tp900
a(I133
I68
F0.125
S'first'
p901
tp902
a(I137
I0
I0
S'only'
p903
tp904
a(I140
I3
F0.125
S'usual'
p905
tp906
a(I141
I14
I0
S'only'
p907
tp908
a(I163
I2
I0
S'only'
p909
tp910
a(I163
I2
F1.0
S'good'
p911
tp912
as(S'piece'
p913
S'of'
p914
S'crap'
p915
tp916
(lp917
(I70
I0
F0.25
S'biggest'
p918
tp919
as(S'wifi'
p920
tp921
(lp922
(I133
I36
F-0.625
S'free'
p923
tp924
as(S'nothing'
p925
tp926
(lp927
(I5
I20
F-0.625
S'bad'
p928
tp929
a(I34
I0
I0
S'special'
p930
tp931
a(I75
I3
I0
S'great'
p932
tp933
a(I75
I3
F-0.75
S'wrong'
p934
tp935
a(I97
I1
F-0.875
S'trouble'
p936
tp937
a(I116
I20
F0.625
S'perfect'
p938
tp939
as(S'waste'
p940
S'of'
p941
S'money'
p942
tp943
(lp944
(I111
I1
I0
S'big'
p945
tp946
as(S'remove'
p947
S'battery'
p948
tp949
(lp950
(I77
I4
I0
g114
tp951
as(S'call'
p952
tp953
(lp954
(I101
I1
F0.375
S'register'
p955
tp956
a(I145
I2
F0.75
S'due'
p957
tp958
as(S'screen'
p959
tp960
(lp961
(I12
I2
F0.875
g807
tp962
a(I12
I2
I0
g809
tp963
a(I15
I2
I0
g691
tp964
a(I15
I3
I0
g693
tp965
a(I15
I3
F0.625
g695
tp966
a(I15
I7
I0
g697
tp967
a(I21
I4
I0
g699
tp968
a(I21
I4
F0.25
g701
tp969
a(I23
I2
F-0.375
S'static'
p970
tp971
a(I29
I0
I0
g428
tp972
a(I30
I0
F0.875
g811
tp973
a(I30
I0
I0
g813
tp974
a(I37
I45
I0
g703
tp975
a(I37
I47
F0.5
S'touch'
p976
tp977
a(I37
I48
F-0.5
S'sure'
p978
tp979
a(I37
I79
F0.25
g815
tp980
a(I37
I79
I0
g817
tp981
a(I57
I3
F-0.5
g430
tp982
a(I59
I0
F0.5
S'touch'
p983
tp984
a(I63
I0
I0
S'great'
p985
tp986
a(I63
I0
I0
S'many'
p987
tp988
a(I79
I5
F0.875
S'nice'
p989
tp990
a(I79
I5
F-0.75
S'bright'
p991
tp992
a(I82
I3
I0
g819
tp993
a(I95
I7
I0
g434
tp994
a(I95
I9
F0.25
g706
tp995
a(I95
I10
F0.625
S'superior'
p996
tp997
a(I101
I0
F0.25
g708
tp998
a(I106
I5
I0
g821
tp999
a(I108
I2
I0
g823
tp1000
a(I108
I2
I0
g825
tp1001
a(I116
I6
F0.75
g827
tp1002
a(I116
I6
I0
g829
tp1003
a(I116
I6
I0
g831
tp1004
a(I119
I0
I0
g833
tp1005
a(I125
I2
I0
g710
tp1006
a(I125
I10
F-0.75
S'dirty'
p1007
tp1008
a(I133
I18
F-0.5
S'diagonal'
p1009
tp1010
a(I133
I19
I0
S'sensitive'
p1011
tp1012
a(I133
I21
I0
S'full'
p1013
tp1014
a(I135
I6
F0.25
S'responsive'
p1015
tp1016
a(I135
I7
I0
g712
tp1017
a(I145
I0
I0
g436
tp1018
a(I157
I6
F0.25
g836
tp1019
a(I160
I13
F0.5
S'touch'
p1020
tp1021
a(I162
I0
F0.875
S'nice'
p1022
tp1023
a(I165
I7
I0
S'fast'
p1024
tp1025
a(I165
I7
F0.25
S'responsive'
p1026
tp1027
a(I168
I1
I0
g838
tp1028
a(I169
I0
F0.25
g840
tp1029
as(S'time'
p1030
tp1031
(lp1032
(I5
I19
F-0.75
S'wrong'
p1033
tp1034
a(I7
I5
F0.375
g529
tp1035
a(I7
I6
F0.5
S'whole'
p1036
tp1037
a(I7
I6
I0
S'more'
p1038
tp1039
a(I11
I1
I0
g531
tp1040
a(I98
I4
F-0.5
g533
tp1041
a(I100
I0
F0.75
g535
tp1042
a(I106
I25
F0.125
S'first'
p1043
tp1044
a(I133
I46
F-0.5
g537
tp1045
a(I134
I1
I0
S'more'
p1046
tp1047
a(I141
I8
I0
g539
tp1048
a(I150
I1
F-0.625
g541
tp1049
as(S'other'
p1050
S'prepaid'
p1051
S'carriers'
p1052
tp1053
(lp1054
(I37
I8
F-0.625
g667
tp1055
a(I37
I17
F-0.625
g669
tp1056
a(I37
I30
F-0.625
g679
tp1057
a(I37
I33
F-0.625
g681
tp1058
a(I37
I33
F-0.5
g683
tp1059
as(S'data'
p1060
tp1061
(lp1062
(I37
I4
F-0.5
S'unlimited'
p1063
tp1064
as(S'smartphone'
p1065
tp1066
(lp1067
(I16
I1
F-0.125
S'overall'
p1068
tp1069
a(I19
I0
F0.125
S'first'
p1070
tp1071
a(I19
I0
F0.875
S'happy'
p1072
tp1073
a(I37
I78
F0.125
S'first'
p1074
tp1075
a(I37
I82
F0.125
S'first'
p1076
tp1077
a(I37
I82
F0.875
S'happy'
p1078
tp1079
a(I57
I10
F0.125
S'first'
p1080
tp1081
a(I135
I3
I0
S'current'
p1082
tp1083
as(S'tv'
p1084
S'shows'
p1085
tp1086
(lp1087
(I37
I54
F0.25
S'favorite'
p1088
tp1089
as(S'love'
p1090
tp1091
(lp1092
(I10
I7
F1.0
S'love'
p1093
tp1094
as(S'customer'
p1095
S'service'
p1096
tp1097
(lp1098
(I37
I22
F0.75
g260
tp1099
a(I83
I5
F0.25
g272
tp1100
a(I102
I20
F1.0
g661
tp1101
as(S'cell'
p1102
tp1103
(lp1104
(I55
I0
F-0.875
S'worst'
p1105
tp1106
a(I151
I0
F1.0
S'good'
p1107
tp1108
a(I162
I6
F1.0
S'better'
p1109
tp1110
as(S'internal'
p1111
S'storage'
p1112
tp1113
(lp1114
(I6
I2
F0.5
S'clear'
p1115
tp1116
a(I6
I2
I0
S'internal'
p1117
tp1118
a(I6
I2
F1.0
S'good'
p1119
tp1120
a(I35
I2
I0
S'internal'
p1121
tp1122
a(I35
I2
I0
S'external'
p1123
tp1124
a(I162
I4
I0
S'internal'
p1125
tp1126
as(S'apps'
p1127
tp1128
(lp1129
(I15
I9
F0.375
S'available'
p1130
tp1131
a(I37
I14
I0
S'such'
p1132
tp1133
a(I40
I7
F-0.5
S'certain'
p1134
tp1135
a(I40
I7
I0
S'android'
p1136
tp1137
a(I78
I1
I0
S'great'
p1138
tp1139
a(I86
I3
F-0.625
S'other'
p1140
tp1141
a(I101
I1
F0.5
S'compatible'
p1142
tp1143
a(I114
I1
F1.0
S'good'
p1144
tp1145
a(I114
I1
F0.5
S'functional'
p1146
tp1147
a(I138
I2
F-0.5
S'heavy'
p1148
tp1149
a(I141
I1
F0.375
S'new'
p1150
tp1151
a(I161
I28
I0
S'most'
p1152
tp1153
as(S'days'
p1154
tp1155
(lp1156
(I49
I5
I0
S'few'
p1157
tp1158
a(I49
I6
I0
S'few'
p1159
tp1160
a(I102
I14
I0
S'later'
p1161
tp1162
a(I163
I2
F0.875
S'happy'
p1163
tp1164
a(I169
I10
I0
S'later'
p1165
tp1166
as(S'one'
p1167
S'click'
p1168
S'root'
p1169
tp1170
(lp1171
(I10
I29
F0.375
g414
tp1172
a(I133
I31
F0.375
g416
tp1173
as(S'touch'
p1174
S'screen'
p1175
tp1176
(lp1177
(I37
I47
F0.5
g976
tp1178
a(I57
I4
I0
g334
tp1179
a(I57
I4
I0
g336
tp1180
a(I57
I4
I0
g338
tp1181
a(I59
I0
F0.5
g983
tp1182
a(I125
I10
F0.25
g340
tp1183
a(I125
I10
F-0.75
g1007
tp1184
a(I133
I19
I0
g1011
tp1185
a(I145
I0
I0
g436
tp1186
a(I160
I13
F0.5
g1020
tp1187
as(S'calls'
p1188
tp1189
(lp1190
(I122
I2
I0
S'handy'
p1191
tp1192
a(I133
I30
I0
S'few'
p1193
tp1194
a(I133
I30
F1.0
S'good'
p1195
tp1196
a(I135
I3
F1.0
S'good'
p1197
tp1198
a(I157
I6
F-0.125
S'super'
p1199
tp1200
a(I157
I6
F0.5
S'clear'
p1201
tp1202
as.