(dp0
(S'keyboard'
p1
tp2
(lp3
(I0
I23
F-0.375
S'small'
p4
I2
tp5
a(I3
I11
I0
S'full'
p6
I2
tp7
a(I3
I11
I0
S'great'
p8
I2
tp9
a(I7
I18
F-0.375
S'small'
p10
I2
tp11
a(I9
I5
F0.5
S'clear'
p12
I2
tp13
as(S'text'
p14
tp15
(lp16
(I0
I35
I0
S'old'
p17
I18
tp18
as.