(dp0
(S'amoled'
p1
S'screen'
p2
tp3
(lp4
(I9
I85
I0
S'closer'
p5
I0
tp6
a(I9
I143
F-0.25
S'higher'
p7
I0
tp8
a(I9
I217
F-0.25
S'white'
p9
I0
tp10
as(S'battery'
p11
S'life'
p12
tp13
(lp14
(I1
I88
F0.5
S'strongest'
p15
I1
tp16
a(I2
I23
F0.125
S'first'
p17
I1
tp18
a(I3
I36
F1.0
S'good'
p19
I1
tp20
a(I5
I114
I0
S'great'
p21
I1
tp22
a(I5
I145
F1.0
S'good'
p23
I1
tp24
a(I6
I9
I0
S'incredible'
p25
I1
tp26
a(I7
I89
I0
S'great'
p27
I1
tp28
a(I1
I88
F0.5
g15
I19
tp29
a(I3
I36
F1.0
g19
I19
tp30
a(I5
I114
I0
g21
I19
tp31
a(I6
I9
I0
g25
I19
tp32
a(I7
I89
I0
g27
I19
tp33
a(I1
I36
F0.5
S'flat'
p34
I15
tp35
a(I2
I23
F0.125
g17
I15
tp36
a(I3
I72
F-0.625
S'other'
p37
I15
tp38
a(I5
I145
F1.0
g23
I15
tp39
a(I8
I4
I0
S'close'
p40
I15
tp41
a(I8
I70
I0
S'mail'
p42
I15
tp43
a(I9
I60
I0
S'handy'
p44
I15
tp45
a(I9
I60
F-0.625
S'light'
p46
I15
tp47
a(I9
I60
F-0.25
S'thin'
p48
I15
tp49
a(I9
I60
F0.25
S'powerful'
p50
I15
tp51
a(I9
I189
F0.125
S'colorful'
p52
I15
tp53
a(I9
I189
F0.125
S'last'
p54
I15
tp55
as(S'keyboard'
p56
tp57
(lp58
(I1
I110
I0
S'physical'
p59
I2
tp60
a(I4
I6
I0
S'real'
p61
I2
tp62
as(S'text'
p63
tp64
(lp65
(I5
I46
F-0.375
S'small'
p66
I18
tp67
as(S'perfect'
p68
S'size'
p69
tp70
(lp71
(I1
I41
F0.625
S'perfect'
p72
I2
tp73
a(I1
I64
I0
S'great'
p74
I2
tp75
a(I1
I64
I0
S'great'
p76
I2
tp77
a(I1
I64
F-0.75
S'uncomfortable'
p78
I2
tp79
a(I3
I33
F0.625
S'perfect'
p80
I2
tp81
a(I9
I203
I0
S'mobile'
p82
I2
tp83
as(S'camera'
p84
tp85
(lp86
(I9
I104
F0.625
S'decent'
p87
I1
tp88
a(I9
I233
F1.0
S'better'
p89
I1
tp90
a(I9
I312
F1.0
S'good'
p91
I1
tp92
as(S'plus'
p93
tp94
(lp95
(I8
I108
I0
S'capacitive'
p96
I16
tp97
as(S'2'
p98
S'and'
p99
S'ipad'
p100
tp101
(lp102
(I1
I16
F0.375
S'new'
p103
I0
tp104
a(I9
I17
F0.375
S'new'
p105
I0
tp106
a(I9
I17
F0.375
S'new'
p107
I0
tp108
a(I9
I291
F0.375
S'much'
p109
I0
tp110
a(I1
I16
F0.375
g103
I0
tp111
a(I2
I4
F-0.375
S'near'
p112
I0
tp113
a(I5
I61
F0.625
S'convenient'
p114
I0
tp115
a(I6
I14
F0.375
S'new'
p116
I0
tp117
a(I9
I17
F0.375
g105
I0
tp118
a(I9
I17
F0.375
g107
I0
tp119
a(I9
I19
F0.375
S'new'
p120
I0
tp121
a(I9
I129
I0
S'stable'
p122
I0
tp123
a(I9
I191
F0.25
S'powerful'
p124
I0
tp125
a(I9
I230
I0
S'full'
p126
I0
tp127
a(I9
I291
F0.375
g109
I0
tp128
a(I9
I293
F0.125
S'first'
p129
I0
tp130
a(I9
I298
F0.375
S'new'
p131
I0
tp132
as(S'straight'
p133
S'talk'
p134
tp135
(lp136
(I1
I47
F0.625
S'straight'
p137
I0
tp138
as(S'7'
p139
S'tab'
p140
tp141
(lp142
(I8
I0
F0.125
S'first'
p143
I0
tp144
a(I9
I9
F0.25
S'original'
p145
I0
tp146
a(I9
I76
F0.125
S'first'
p147
I0
tp148
as(S'movie'
p149
tp150
(lp151
(I9
I132
I0
S'large'
p152
I5
tp153
a(I9
I255
F1.0
S'better'
p154
I5
tp155
a(I9
I314
F1.0
S'best'
p156
I5
tp157
as(S'new'
p158
S'ipad'
p159
tp160
(lp161
(I1
I16
F0.375
g103
I0
tp162
a(I6
I14
F0.375
g116
I0
tp163
a(I9
I17
F0.375
g105
I0
tp164
a(I9
I17
F0.375
g107
I0
tp165
a(I9
I19
F0.375
g120
I0
tp166
a(I9
I298
F0.375
g131
I0
tp167
as(S'broad'
p168
S'daylight'
p169
tp170
(lp171
(I1
I9
F0.25
S'broad'
p172
I0
tp173
a(I1
I16
F0.25
S'broad'
p174
I0
tp175
a(I1
I17
I0
S'harsh'
p176
I0
tp177
as(S'long'
p178
S'time'
p179
tp180
(lp181
(I1
I105
F-0.5
S'long'
p182
I13
tp183
a(I3
I59
F-0.5
S'long'
p184
I13
tp185
a(I7
I2
F-0.5
S'long'
p186
I13
tp187
a(I7
I88
F-0.5
S'long'
p188
I13
tp189
a(I9
I60
F-0.5
S'long'
p190
I13
tp191
as(S'devices'
p192
tp193
(lp194
(I1
I138
F0.125
S'able'
p195
I8
tp196
a(I2
I7
F-0.5
S'heavy'
p197
I8
tp198
a(I2
I7
F0.25
S'portable'
p199
I8
tp200
a(I5
I101
F0.125
S'first'
p201
I8
tp202
a(I6
I1
F-0.125
S'slow'
p203
I8
tp204
a(I6
I1
F-0.75
S'unresponsive'
p205
I8
tp206
as(S'kindle'
p207
tp208
(lp209
(I5
I86
I0
S'more'
p210
I0
tp211
a(I5
I86
F1.0
S'best'
p212
I0
tp213
a(I6
I26
I0
S'old'
p214
I0
tp215
a(I8
I36
F0.125
S'able'
p216
I0
tp217
as(S'tablets'
p218
tp219
(lp220
(I2
I7
I0
S'big'
p221
I0
tp222
a(I2
I21
F-0.625
S'other'
p223
I0
tp224
a(I3
I43
I0
S'many'
p225
I0
tp226
a(I4
I3
I0
S'great'
p227
I0
tp228
a(I4
I8
F0.25
S'larger'
p229
I0
tp230
a(I5
I6
F-0.625
S'other'
p231
I0
tp232
a(I5
I86
I0
S'different'
p233
I0
tp234
a(I6
I5
F1.0
S'better'
p235
I0
tp236
a(I7
I0
F0.375
S'new'
p237
I0
tp238
a(I8
I41
I0
S'large'
p239
I0
tp240
a(I9
I136
I0
S'many'
p241
I0
tp242
a(I9
I136
I0
S'most'
p243
I0
tp244
a(I9
I136
F0.25
S'larger'
p245
I0
tp246
a(I9
I241
F1.0
S'best'
p247
I0
tp248
a(I9
I243
I0
S'such'
p249
I0
tp250
a(I9
I243
F-0.25
S'thin'
p251
I0
tp252
as(S'ipad'
p253
S'mini'
p254
tp255
(lp256
(I9
I230
I0
g126
I0
tp257
as(S'android'
p258
tp259
(lp260
(I1
I116
F1.0
S'best'
p261
I0
tp262
a(I7
I0
F0.375
S'new'
p263
I0
tp264
a(I7
I4
F-0.75
S'single'
p265
I0
tp266
a(I7
I67
F1.0
S'best'
p267
I0
tp268
a(I9
I26
F1.0
S'best'
p269
I0
tp270
as(S'honey'
p271
S'comb'
p272
tp273
(lp274
(I8
I87
F0.375
S'available'
p275
I0
tp276
as(S'market'
p277
tp278
(lp279
(I9
I166
F0.375
S'available'
p280
I16
tp281
a(I9
I166
I0
S'android'
p282
I16
tp283
as(S'micro'
p284
S'sd'
p285
S'card'
p286
tp287
(lp288
(I9
I243
F-0.625
S'light'
p289
I0
tp290
as(S'movies'
p291
tp292
(lp293
(I9
I198
I0
S'internal'
p294
I3
tp295
a(I9
I315
I0
S'most'
p296
I3
tp297
as(S'sim'
p298
S'card'
p299
tp300
(lp301
(I5
I107
F-0.25
S'plugged'
p302
I0
tp303
a(I9
I180
I0
S'same'
p304
I0
tp305
as(S'warranty'
p306
tp307
(lp308
(I1
I126
F0.375
S'new'
p309
I2
tp310
a(I1
I133
F0.5
S'possible'
p311
I2
tp312
as(S'international'
p313
S'version'
p314
tp315
(lp316
(I4
I11
F-0.5
S'international'
p317
I0
tp318
a(I5
I55
F-0.5
S'international'
p319
I0
tp320
a(I8
I20
F-0.5
S'international'
p321
I0
tp322
as(g139
g139
S'tablet'
p323
tp324
(lp325
(I1
I26
F-0.75
S'difficult'
p326
I0
tp327
a(I5
I55
F1.0
S'good'
p328
I0
tp329
a(I5
I62
F0.5
S'second'
p330
I0
tp331
a(I9
I13
F0.875
S'nice'
p332
I0
tp333
a(I9
I76
F0.5
S'second'
p334
I0
tp335
a(I9
I99
I0
S'only'
p336
I0
tp337
a(I9
I136
F-0.625
S'other'
p338
I0
tp339
a(I9
I295
F-0.375
S'serious'
p340
I0
tp341
a(I9
I326
F1.0
S'best'
p342
I0
tp343
a(I1
I26
F-0.75
g326
I0
tp344
a(I5
I55
F1.0
g328
I0
tp345
a(I5
I62
F0.5
g330
I0
tp346
a(I9
I13
F0.875
g332
I0
tp347
a(I9
I76
F0.5
g334
I0
tp348
a(I9
I99
I0
g336
I0
tp349
a(I9
I136
F-0.625
g338
I0
tp350
a(I9
I295
F-0.375
g340
I0
tp351
a(I9
I326
F1.0
g342
I0
tp352
a(I0
I6
F-0.625
S'light'
p353
I14
tp354
a(I0
I6
F0.125
S'colorful'
p355
I14
tp356
a(I0
I14
F0.625
S'perfect'
p357
I14
tp358
a(I1
I26
F-0.75
g326
I14
tp359
a(I1
I42
I0
S'only'
p360
I14
tp361
a(I3
I55
F0.625
S'interested'
p362
I14
tp363
a(I3
I55
F-0.625
S'other'
p364
I14
tp365
a(I3
I56
F0.625
S'superior'
p366
I14
tp367
a(I4
I5
I0
S'big'
p368
I14
tp369
a(I4
I5
I0
S'useful'
p370
I14
tp371
a(I5
I9
I0
S'general'
p372
I14
tp373
a(I5
I31
F1.0
S'good'
p374
I14
tp375
a(I5
I32
F-0.375
S'smaller'
p376
I14
tp377
a(I5
I45
F1.0
S'good'
p378
I14
tp379
a(I5
I55
F1.0
g328
I14
tp380
a(I5
I57
I0
S'great'
p381
I14
tp382
a(I5
I62
F0.5
g330
I14
tp383
a(I5
I104
F1.0
S'best'
p384
I14
tp385
a(I5
I104
F0.375
S'available'
p386
I14
tp387
a(I6
I2
F-0.25
S'past'
p388
I14
tp389
a(I6
I2
I0
S'lag'
p390
I14
tp391
a(I7
I1
F0.625
S'easy'
p392
I14
tp393
a(I7
I23
F-0.125
S'overall'
p394
I14
tp395
a(I7
I23
I0
S'great'
p396
I14
tp397
a(I7
I44
F0.625
S'easy'
p398
I14
tp399
a(I7
I69
I0
S'great'
p400
I14
tp401
a(I7
I93
I0
S'great'
p402
I14
tp403
a(I8
I14
F0.25
S'powerful'
p404
I14
tp405
a(I9
I13
F0.875
g332
I14
tp406
a(I9
I76
F0.5
g334
I14
tp407
a(I9
I78
F0.125
S'first'
p408
I14
tp409
a(I9
I88
F0.25
S'larger'
p410
I14
tp411
a(I9
I91
F-0.75
S'little'
p412
I14
tp413
a(I9
I95
F0.375
S'interesting'
p414
I14
tp415
a(I9
I95
F-0.75
S'little'
p416
I14
tp417
a(I9
I99
I0
g336
I14
tp418
a(I9
I133
F1.0
S'good'
p419
I14
tp420
a(I9
I136
F-0.625
g338
I14
tp421
a(I9
I141
I0
S'great'
p422
I14
tp423
a(I9
I142
I0
S'only'
p424
I14
tp425
a(I9
I145
F0.125
S'first'
p426
I14
tp427
a(I9
I171
F-0.5
S'international'
p428
I14
tp429
a(I9
I189
F-0.625
S'light'
p430
I14
tp431
a(I9
I212
F0.25
S'larger'
p432
I14
tp433
a(I9
I215
I0
S'only'
p434
I14
tp435
a(I9
I295
F-0.375
g340
I14
tp436
a(I9
I299
F0.5
S'expensive'
p437
I14
tp438
a(I9
I301
F1.0
S'best'
p439
I14
tp440
a(I9
I326
F1.0
g342
I14
tp441
as(S'samsung'
p442
S'galaxy'
p443
S'tab'
p444
tp445
(lp446
(I4
I10
F0.375
S'interesting'
p447
I0
tp448
a(I9
I138
F0.5
S'second'
p449
I0
tp450
a(I4
I10
F0.375
g447
I0
tp451
a(I9
I138
F0.5
g449
I0
tp452
a(I1
I58
F0.25
S'original'
p453
I0
tp454
a(I5
I90
F-0.625
S'absent'
p455
I0
tp456
a(I6
I18
F0.25
S'original'
p457
I0
tp458
a(I8
I0
F0.125
g143
I0
tp459
a(I9
I58
F0.125
S'first'
p460
I0
tp461
a(I3
I39
F-0.25
S'disappointed'
p462
I7
tp463
a(I4
I10
F0.375
g447
I7
tp464
a(I5
I78
F-0.75
S'downfall'
p465
I7
tp466
a(I9
I138
F0.5
g449
I7
tp467
a(I9
I248
I0
S'close'
p468
I7
tp469
a(I9
I323
I0
S'subsequent'
p470
I7
tp471
a(I1
I58
F0.25
g453
I0
tp472
a(I1
I66
F0.25
S'original'
p473
I0
tp474
a(I3
I40
F-0.75
S'stupid'
p475
I0
tp476
a(I5
I90
F-0.625
g455
I0
tp477
a(I6
I18
F0.25
g457
I0
tp478
a(I9
I58
F0.125
g460
I0
tp479
a(I9
I180
F-0.5
S'international'
p480
I0
tp481
as(S'one'
p482
S'hand'
p483
tp484
(lp485
(I4
I9
F-0.625
S'other'
p486
I2
tp487
a(I9
I204
F-0.75
S'comfortable'
p488
I2
tp489
as(S'data'
p490
S'plan'
p491
tp492
(lp493
(I7
I34
I0
S'monthly'
p494
I0
tp495
a(I7
I41
F0.5
S'eligible'
p496
I0
tp497
a(I9
I158
F1.0
S'best'
p498
I0
tp499
a(I1
I102
I0
S'fastest'
p500
I13
tp501
a(I7
I34
I0
g494
I13
tp502
a(I7
I41
F0.5
g496
I13
tp503
a(I9
I158
F1.0
g498
I13
tp504
as(S't'
p505
S'mobile'
p506
S'sim'
p507
tp508
(lp509
(I5
I107
F-0.25
g302
I0
tp510
as(S'wifi'
p511
tp512
(lp513
(I3
I37
F-0.625
S'bad'
p514
I0
tp515
a(I5
I158
I0
S'anymore'
p516
I0
tp517
a(I8
I27
F0.625
S'interested'
p518
I0
tp519
a(I9
I219
F0.625
S'straight'
p520
I0
tp521
as(S'picture'
p522
S'quality'
p523
tp524
(lp525
(I7
I80
F1.0
S'good'
p526
I1
tp527
a(I9
I274
F1.0
S'best'
p528
I1
tp529
as(S'apps'
p530
tp531
(lp532
(I6
I16
I0
S'many'
p533
I0
tp534
a(I7
I4
F0.375
S'available'
p535
I0
tp536
a(I8
I7
I0
S'most'
p537
I0
tp538
a(I8
I7
F-0.375
S'small'
p539
I0
tp540
a(I9
I2
I0
S'great'
p541
I0
tp542
as(S'amazon'
p543
tp544
(lp545
(I1
I45
F-0.25
S'cheaper'
p546
I13
tp547
a(I2
I15
F0.875
S'happy'
p548
I13
tp549
a(I6
I28
F0.125
S'able'
p550
I13
tp551
a(I8
I38
I0
S'big'
p552
I13
tp553
as(S'screen'
p554
S'resolution'
p555
tp556
(lp557
(I3
I20
F1.0
S'best'
p558
I0
tp559
a(I5
I88
F-0.25
S'higher'
p560
I0
tp561
a(I8
I58
F0.75
S'due'
p562
I0
tp563
a(I8
I58
I0
S'high'
p564
I0
tp565
a(I8
I58
F0.5
S'possible'
p566
I0
tp567
a(I8
I58
F0.125
S'enough'
p568
I0
tp569
a(I9
I143
F-0.25
g7
I0
tp570
a(I9
I264
I0
S'high'
p571
I0
tp572
a(I9
I264
I0
S'large'
p573
I0
tp574
a(I3
I20
F1.0
g558
I1
tp575
a(I5
I88
F-0.25
g560
I1
tp576
a(I8
I58
F0.75
g562
I1
tp577
a(I8
I58
I0
g564
I1
tp578
a(I9
I16
F1.0
S'good'
p579
I1
tp580
a(I9
I16
F1.0
S'better'
p581
I1
tp582
a(I9
I19
F1.0
S'better'
p583
I1
tp584
a(I9
I257
I0
S'big'
p585
I1
tp586
a(I9
I264
I0
g571
I1
tp587
a(I9
I274
I0
S'high'
p588
I1
tp589
as.