(dp0
(S'battery'
p1
S'life'
p2
tp3
(lp4
(I0
I3
I0
S'old'
p5
I1
tp6
a(I0
I4
I0
S'external'
p7
I1
tp8
a(I0
I25
F-0.5
S'poor'
p9
I1
tp10
a(I1
I33
F-0.25
S'disappointing'
p11
I1
tp12
a(I6
I8
F0.375
S'extra'
p13
I1
tp14
a(I6
I8
F0.375
S'extended'
p15
I1
tp16
a(I11
I3
I0
S'such'
p17
I1
tp18
a(I13
I27
F1.0
S'good'
p19
I1
tp20
a(I13
I31
I0
S'great'
p21
I1
tp22
a(I1
I33
F-0.25
g11
I19
tp23
a(I6
I8
F0.375
g13
I19
tp24
a(I6
I8
F0.375
g15
I19
tp25
a(I11
I3
I0
g17
I19
tp26
a(I13
I27
F1.0
g19
I19
tp27
a(I0
I3
I0
g5
I15
tp28
a(I0
I4
I0
g7
I15
tp29
a(I0
I25
F-0.5
g9
I15
tp30
a(I0
I26
F0.5
S'second'
p31
I15
tp32
a(I1
I7
I0
S'fast'
p33
I15
tp34
a(I1
I10
F0.25
S'favorite'
p35
I15
tp36
a(I4
I3
F0.5
S'second'
p37
I15
tp38
a(I4
I8
F-0.75
S'short'
p39
I15
tp40
a(I6
I7
I0
S'fast'
p41
I15
tp42
a(I10
I0
F-0.625
S'bad'
p43
I15
tp44
a(I11
I11
F0.625
S'changeable'
p45
I15
tp46
a(I12
I2
F-0.5
S'heavy'
p47
I15
tp48
a(I12
I2
F0.125
S'last'
p49
I15
tp50
a(I12
I3
F0.375
S'new'
p51
I15
tp52
a(I13
I31
I0
g21
I15
tp53
as(S'only'
p54
S'problem'
p55
tp56
(lp57
(I0
I19
I0
S'only'
p58
I5
tp59
a(I4
I8
I0
S'only'
p60
I5
tp61
as(S'internal'
p62
S'storage'
p63
tp64
(lp65
(I0
I29
I0
S'internal'
p66
I0
tp67
a(I6
I32
I0
S'internal'
p68
I0
tp69
a(I6
I32
F0.625
S'correct'
p70
I0
tp71
a(I6
I33
I0
S'internal'
p72
I0
tp73
a(I6
I34
I0
S'internal'
p74
I0
tp75
as(S'amaze'
p76
tp77
(lp78
(I0
I1
I0
S'latest'
p79
I8
tp80
a(I0
I45
F0.625
S'superior'
p81
I8
tp82
as(S'camera'
p83
tp84
(lp85
(I0
I29
I0
S'great'
p86
I1
tp87
as.