(dp0
(S'front'
p1
S'camera'
p2
tp3
(lp4
(I2
I2
I0
S'wish'
p5
I0
tp6
as(S'battery'
p7
S'life'
p8
tp9
(lp10
(I9
I6
F-0.75
S'short'
p11
I1
tp12
a(I9
I6
F-0.375
S'disable'
p13
I1
tp14
a(I9
I22
F1.0
S'good'
p15
I1
tp16
a(I0
I30
F-0.5
S'less'
p17
I15
tp18
a(I7
I7
F-0.875
S'worst'
p19
I15
tp20
a(I9
I6
F-0.75
g11
I15
tp21
a(I11
I12
F0.25
S'original'
p22
I15
tp23
a(I11
I12
F-0.625
S'average'
p24
I15
tp25
as(S'verizon'
p26
tp27
(lp28
(I1
I8
F-0.5
S'sure'
p29
I0
tp30
a(I1
I8
F0.75
S'due'
p31
I0
tp32
a(I9
I16
I0
S'only'
p33
I0
tp34
a(I9
I16
I0
S'prepaid'
p35
I0
tp36
as(S'plus'
p37
tp38
(lp39
(I1
I2
F0.875
S'nice'
p40
I16
tp41
a(I6
I1
F0.625
S'easy'
p42
I16
tp43
as.