(dp0
(S'model'
p1
tp2
(lp3
(I11
I4
I0
S'different'
p4
tp5
a(I14
I6
I0
S'particular'
p6
tp7
a(I48
I0
F0.25
S'send'
p8
tp9
a(I112
I3
I0
S'asian'
p10
tp11
a(I214
I0
I0
S'asian'
p12
tp13
a(I227
I0
I0
S'chinese'
p14
tp15
as(S'great'
p16
tp17
(lp18
(I217
I35
I0
S'same'
p19
tp20
as(S'battery'
p21
S'life'
p22
tp23
(lp24
(I2
I1
F1.0
S'good'
p25
tp26
a(I81
I1
F1.0
S'good'
p27
tp28
a(I150
I0
I0
S'normal'
p29
tp30
a(I195
I0
F-0.5
S'regular'
p31
tp32
a(I195
I0
F0.125
S'last'
p33
tp34
a(I249
I0
F-0.625
S'other'
p35
tp36
a(I249
I0
F0.375
S'similar'
p37
tp38
as(S'root'
p39
tp40
(lp41
(I85
I19
F0.125
S'able'
p42
tp43
a(I85
I25
F0.125
S'able'
p44
tp45
a(I109
I1
F0.125
S'able'
p46
tp47
as(S'network'
p48
tp49
(lp50
(I182
I1
F0.625
S'easy'
p51
tp52
as(S'galaxy'
p53
S's2'
p54
tp55
(lp56
(I218
I1
F0.375
S'similar'
p57
tp58
as(S'motorola'
p59
tp60
(lp61
(I32
I0
F1.0
S'good'
p62
tp63
a(I32
I0
I0
S'cellular'
p64
tp65
a(I35
I0
F0.125
S'first'
p66
tp67
a(I37
I3
F-0.25
S'past'
p68
tp69
a(I43
I5
I0
S'great'
p70
tp71
a(I50
I0
F0.875
S'happy'
p72
tp73
a(I62
I6
F0.375
S'new'
p74
tp75
a(I104
I1
I0
S'generic'
p76
tp77
a(I107
I4
F0.25
S'original'
p78
tp79
a(I111
I1
F-0.75
S'unable'
p80
tp81
a(I194
I1
F0.25
S'original'
p82
tp83
a(I212
I0
F0.25
S'original'
p84
tp85
a(I231
I3
F0.5
S'rate'
p86
tp87
a(I242
I1
I0
S'android'
p88
tp89
as(S'came'
p90
tp91
(lp92
(I91
I3
I0
S'gingerbread'
p93
tp94
a(I91
I3
F-0.25
S'late'
p95
tp96
a(I100
I1
F0.125
S'first'
p97
tp98
as(S'money'
p99
tp100
(lp101
(I112
I15
F-0.5
S'less'
p102
tp103
a(I194
I3
F0.125
S'amazon'
p104
tp105
a(I217
I10
F0.375
S'extra'
p106
tp107
a(I217
I35
F0.375
S'new'
p108
tp109
a(I217
I35
F-0.375
S'serious'
p110
tp111
a(I236
I1
F0.75
S'worth'
p112
tp113
as(S'motorola'
p114
S'atrix'
p115
tp116
(lp117
(I50
I0
F0.875
g72
tp118
a(I116
I0
I0
S'general'
p119
tp120
a(I116
I4
F0.25
S'original'
p121
tp122
a(I212
I0
F0.25
g84
tp123
a(I231
I3
F0.5
g86
tp124
a(I242
I1
I0
g88
tp125
as(S'nice'
p126
tp127
(lp128
(I258
I0
I0
S'y'
p129
tp130
as(S'screen'
p131
tp132
(lp133
(I2
I1
F0.5
S'clear'
p134
tp135
a(I11
I1
I0
S'chinese'
p136
tp137
a(I16
I1
F-0.75
S'bright'
p138
tp139
a(I20
I1
I0
S'great'
p140
tp141
a(I29
I9
I0
S'large'
p142
tp143
a(I46
I2
F-0.25
S'white'
p144
tp145
a(I48
I0
F0.25
S'larger'
p146
tp147
a(I121
I3
I0
S'big'
p148
tp149
a(I124
I0
F0.625
S'major'
p150
tp151
a(I130
I1
I0
S'great'
p152
tp153
a(I131
I3
I0
S'fast'
p154
tp155
a(I131
I3
I0
S'crystal'
p156
tp157
a(I131
I3
F0.5
S'clear'
p158
tp159
a(I131
I3
F-0.375
S'small'
p160
tp161
a(I131
I3
I0
S'big'
p162
tp163
a(I140
I4
F1.0
S'best'
p164
tp165
a(I140
I4
F0.5
S'whole'
p166
tp167
a(I140
I4
F-0.625
S'other'
p168
tp169
a(I168
I1
F0.625
S'perfect'
p170
tp171
a(I177
I4
F-0.375
S'smaller'
p172
tp173
a(I190
I22
I0
S'large'
p174
tp175
a(I190
I22
I0
S'high'
p176
tp177
a(I208
I0
I0
S'big'
p178
tp179
a(I217
I13
F0.5
S'touch'
p180
tp181
a(I217
I13
F0.25
S'responsive'
p182
tp183
a(I239
I0
F0.375
S'new'
p184
tp185
a(I239
I0
I0
S'plastic'
p186
tp187
a(I239
I0
F1.0
S'best'
p188
tp189
a(I250
I2
I0
S'big'
p190
tp191
a(I252
I1
F1.0
S'good'
p192
tp193
a(I255
I2
I0
S'later'
p194
tp195
a(I261
I0
F1.0
S'good'
p196
tp197
a(I261
I0
I0
S'fast'
p198
tp199
a(I261
I0
F1.0
S'good'
p200
tp201
a(I261
I0
F1.0
S'good'
p202
tp203
as(S'sound'
p204
tp205
(lp206
(I26
I22
F1.0
S'good'
p207
tp208
a(I228
I0
F1.0
S'good'
p209
tp210
as(S'service'
p211
tp212
(lp213
(I69
I2
F-0.125
S'overall'
p214
tp215
a(I69
I2
I0
S'great'
p216
tp217
a(I83
I0
F0.25
S'portable'
p218
tp219
a(I95
I1
I0
S'active'
p220
tp221
a(I95
I4
I0
S'representative'
p222
tp223
a(I101
I2
I0
S'great'
p224
tp225
a(I114
I3
F-0.625
S'incompetent'
p226
tp227
a(I250
I2
I0
S'great'
p228
tp229
as(S'everything'
p230
tp231
(lp232
(I57
I1
F0.375
S'available'
p233
tp234
a(I112
I6
F-0.375
S'beast'
p235
tp236
a(I180
I1
F0.125
S'first'
p237
tp238
a(I180
I1
I0
S'chinese'
p239
tp240
a(I180
I1
F0.625
S'easy'
p241
tp242
a(I197
I3
F0.625
S'perfect'
p243
tp244
a(I211
I0
F1.0
S'better'
p245
tp246
as(S'problems'
p247
tp248
(lp249
(I29
I11
I0
S'few'
p250
tp251
a(I47
I0
I0
S'many'
p252
tp253
a(I47
I0
F-0.75
S'little'
p254
tp255
a(I47
I3
F-0.625
S'bad'
p256
tp257
a(I143
I3
F-0.75
S'minor'
p258
tp259
as(S'settings'
p260
tp261
(lp262
(I26
I3
F-0.25
S'lowest'
p263
tp264
a(I95
I6
I0
S'same'
p265
tp266
a(I95
I6
I0
S'exact'
p267
tp268
a(I112
I3
F-0.625
S'other'
p269
tp270
as(S'back'
p271
tp272
(lp273
(I85
I25
F0.375
S'flash'
p274
tp275
as(S'version'
p276
tp277
(lp278
(I22
I1
F-0.5
S'weak'
p279
tp280
a(I46
I1
F0.375
S'newest'
p281
tp282
a(I57
I12
I0
S'latest'
p283
tp284
a(I89
I0
I0
S'android'
p285
tp286
a(I92
I0
F0.375
S'new'
p287
tp288
a(I95
I2
I0
S'weird'
p289
tp290
a(I126
I4
I0
S'chinese'
p291
tp292
a(I161
I1
F-0.625
S'other'
p293
tp294
a(I190
I14
F-0.625
S'other'
p295
tp296
a(I190
I14
I0
S'gingerbread'
p297
tp298
a(I244
I5
I0
S'asian'
p299
tp300
a(I257
I7
I0
S'latest'
p301
tp302
as(S'life'
p303
tp304
(lp305
(I140
I4
I0
S'android'
p306
tp307
a(I150
I0
I0
g29
tp308
a(I249
I0
F-0.625
g35
tp309
a(I249
I0
F0.375
g37
tp310
as(S'using'
p311
tp312
(lp313
(I85
I13
F0.625
S'interested'
p314
tp315
a(I246
I15
F0.5
S'careful'
p316
tp317
as(S'operating'
p318
S'system'
p319
tp320
(lp321
(I91
I3
I0
S'android'
p322
tp323
as(S'a'
p324
S'long'
p325
S'time'
p326
tp327
(lp328
(I80
I1
F-0.5
S'long'
p329
tp330
a(I115
I1
F-0.5
S'long'
p331
tp332
a(I121
I1
F-0.5
S'longest'
p333
tp334
a(I167
I2
F-0.5
S'long'
p335
tp336
a(I224
I0
F0.125
S'first'
p337
tp338
a(I261
I0
F-0.5
S'long'
p339
tp340
as(S'straight'
p341
S'talk'
p342
tp343
(lp344
(I91
I1
F0.625
S'straight'
p345
tp346
a(I91
I13
F0.625
S'straight'
p347
tp348
a(I152
I6
F0.625
S'straight'
p349
tp350
a(I164
I2
F0.625
S'straight'
p351
tp352
a(I201
I0
F0.625
S'straight'
p353
tp354
as(S'quality'
p355
tp356
(lp357
(I26
I13
F1.0
S'good'
p358
tp359
a(I26
I15
I0
S'great'
p360
tp361
a(I26
I22
F-0.75
S'painful'
p362
tp363
a(I26
I22
F1.0
S'good'
p364
tp365
a(I39
I0
I0
S'very'
p366
tp367
a(I46
I1
F-0.25
S'low'
p368
tp369
a(I88
I7
F-0.25
S'higher'
p370
tp371
a(I91
I9
F1.0
S'good'
p372
tp373
a(I91
I9
I0
S'screen'
p374
tp375
a(I113
I6
F1.0
S'good'
p376
tp377
a(I127
I0
F1.0
S'good'
p378
tp379
a(I185
I0
I0
S'efficient'
p380
tp381
a(I217
I8
F-0.375
S'top'
p382
tp383
a(I217
I28
F0.625
S'superior'
p384
tp385
a(I249
I0
F-0.5
S'poor'
p386
tp387
a(I255
I0
I0
S'upload'
p388
tp389
a(I255
I0
I0
S'great'
p390
tp391
a(I256
I1
I0
S'internet'
p392
tp393
a(I256
I1
F-0.125
S'super'
p394
tp395
a(I256
I1
F-0.75
S'bright'
p396
tp397
as(S'camera'
p398
tp399
(lp400
(I15
I0
F1.0
S'better'
p401
tp402
a(I33
I4
I0
S'fast'
p403
tp404
a(I33
I4
F0.375
S'reliable'
p405
tp406
a(I99
I2
I0
S'great'
p407
tp408
a(I100
I1
F0.5
S'primary'
p409
tp410
a(I167
I4
F-0.5
S'less'
p411
tp412
a(I173
I4
F1.0
S'good'
p413
tp414
a(I201
I0
I0
S'great'
p415
tp416
a(I218
I0
I0
S'great'
p417
tp418
a(I228
I0
F1.0
S'good'
p419
tp420
a(I238
I0
F1.0
S'good'
p421
tp422
a(I265
I0
I0
S'great'
p423
tp424
as(S'market'
p425
tp426
(lp427
(I112
I1
I0
S'asian'
p428
tp429
a(I112
I10
F-0.75
S'unable'
p430
tp431
a(I112
I11
I0
S'asian'
p432
tp433
a(I157
I5
F-0.125
S'foreign'
p434
tp435
as(S'mb865'
p436
tp437
(lp438
(I100
I5
F0.375
S'new'
p439
tp440
as(S'return'
p441
tp442
(lp443
(I210
I1
F1.0
S'better'
p444
tp445
as(S'excellent'
p446
tp447
(lp448
(I169
I1
F0.25
S'portable'
p449
tp450
a(I185
I0
F0.75
S'ideal'
p451
tp452
a(I234
I0
F-0.625
S'steady'
p453
tp454
as(S'firmware'
p455
tp456
(lp457
(I11
I0
I0
S'chinese'
p458
tp459
a(I85
I3
I0
S'different'
p460
tp461
a(I85
I5
I0
S'different'
p462
tp463
a(I85
I6
I0
S'different'
p464
tp465
a(I85
I8
I0
S'different'
p466
tp467
a(I85
I23
I0
S'install'
p468
tp469
a(I85
I23
F0.375
S'new'
p470
tp471
a(I102
I14
I0
S'chinese'
p472
tp473
as(S'from'
p474
S'tablet'
p475
S'distributors'
p476
tp477
(lp478
(I88
I0
F0.125
S'tablet'
p479
tp480
as(S'different'
p481
S'firmware'
p482
S'versions'
p483
tp484
(lp485
(I85
I3
I0
g460
tp486
a(I85
I5
I0
g462
tp487
a(I85
I6
I0
g464
tp488
a(I85
I8
I0
g466
tp489
as(S'people'
p490
tp491
(lp492
(I26
I17
I0
S'most'
p493
tp494
a(I26
I20
I0
S'most'
p495
tp496
a(I47
I2
F1.0
S'better'
p497
tp498
a(I148
I11
F-0.375
S'serious'
p499
tp500
a(I157
I5
F-0.75
S'worse'
p501
tp502
a(I179
I1
F0.125
S'first'
p503
tp504
a(I179
I1
F0.625
S'kind'
p505
tp506
a(I226
I0
I0
S'different'
p507
tp508
as(S'portable'
p509
S'guy'
p510
tp511
(lp512
(I11
I0
F0.25
S'portable'
p513
tp514
a(I11
I1
F0.25
S'portable'
p515
tp516
a(I96
I2
F0.25
S'portable'
p517
tp518
a(I109
I2
F0.25
S'portable'
p519
tp520
a(I111
I4
F0.25
S'portable'
p521
tp522
a(I111
I4
F0.5
S'careful'
p523
tp524
a(I112
I15
F0.25
S'portable'
p525
tp526
a(I114
I0
F0.25
S'portable'
p527
tp528
a(I215
I0
F0.25
S'portable'
p529
tp530
as(S'dual'
p531
S'core'
p532
tp533
(lp534
(I73
I23
F-0.5
S'humble'
p535
tp536
a(I142
I1
F1.0
S'better'
p537
tp538
as(S'data'
p539
tp540
(lp541
(I91
I7
I0
S'limited'
p542
tp543
a(I91
I7
F0.375
S'much'
p544
tp545
a(I95
I2
I0
S'mobile'
p546
tp547
a(I95
I6
F0.125
S'able'
p548
tp549
a(I95
I6
I0
S'mobile'
p550
tp551
a(I95
I7
I0
S'mobile'
p552
tp553
a(I106
I3
F0.125
S'first'
p554
tp555
a(I114
I1
F-0.5
S'unsuccessful'
p556
tp557
a(I246
I16
F-0.25
S'low'
p558
tp559
as(S'seller'
p560
tp561
(lp562
(I11
I5
I0
S'different'
p563
tp564
a(I45
I5
I0
S'different'
p565
tp566
a(I107
I5
F0.5
S'careful'
p567
tp568
a(I153
I0
F-0.125
S'overall'
p569
tp570
a(I215
I7
F0.375
S'reliable'
p571
tp572
as(S'android'
p573
tp574
(lp575
(I71
I0
F1.0
S'good'
p576
tp577
a(I142
I0
F-0.375
S'simple'
p578
tp579
a(I142
I0
I0
S'basic'
p580
tp581
a(I142
I1
I0
S'latest'
p582
tp583
a(I142
I1
F0.375
S'available'
p584
tp585
a(I150
I0
I0
S'most'
p586
tp587
a(I150
I0
F0.25
S'recent'
p588
tp589
a(I170
I1
F0.5
S'advanced'
p590
tp591
a(I190
I22
I0
S'basic'
p592
tp593
a(I202
I0
F1.0
S'best'
p594
tp595
a(I207
I0
F0.75
S'beautiful'
p596
tp597
a(I207
I0
F0.125
S'first'
p598
tp599
a(I214
I4
F1.0
S'best'
p600
tp601
as(S'case'
p602
tp603
(lp604
(I26
I4
I0
S'only'
p605
tp606
a(I26
I9
F-0.625
S'other'
p607
tp608
a(I90
I0
F0.5
S'clear'
p609
tp610
a(I135
I2
F0.5
S'stylish'
p611
tp612
as(S'works'
p613
tp614
(lp615
(I9
I5
I0
S'great'
p616
tp617
a(I32
I0
F0.625
S'easy'
p618
tp619
a(I32
I0
I0
S'great'
p620
tp621
a(I34
I0
I0
S'great'
p622
tp623
a(I47
I1
F-0.125
S'overall'
p624
tp625
a(I81
I0
I0
S'great'
p626
tp627
a(I215
I5
F1.0
S'good'
p628
tp629
a(I217
I11
F1.0
S'good'
p630
tp631
as(S'card'
p632
tp633
(lp634
(I59
I5
I0
S'local'
p635
tp636
a(I106
I0
I0
S'overseas'
p637
tp638
a(I178
I0
F-0.25
S'plugged'
p639
tp640
as(g324
S'motorola'
p641
S'atrix'
p642
tp643
(lp644
(I50
I0
F0.875
g72
tp645
a(I116
I0
I0
g119
tp646
a(I116
I4
F0.25
g121
tp647
a(I212
I0
F0.25
g84
tp648
a(I231
I3
F0.5
g86
tp649
a(I242
I1
I0
g88
tp650
as(S'from'
p651
S'portable'
p652
S'guy'
p653
tp654
(lp655
(I11
I0
F0.25
g513
tp656
a(I11
I1
F0.25
g515
tp657
a(I96
I2
F0.25
g517
tp658
a(I111
I4
F0.25
g521
tp659
a(I111
I4
F0.5
g523
tp660
a(I112
I15
F0.25
g525
tp661
a(I215
I0
F0.25
g529
tp662
as(S'product'
p663
tp664
(lp665
(I31
I0
I0
S'great'
p666
tp667
a(I60
I1
F1.0
S'good'
p668
tp669
a(I60
I1
I0
S'valuable'
p670
tp671
a(I139
I2
F-0.625
S'bad'
p672
tp673
a(I157
I7
F0.5
S'accurate'
p674
tp675
a(I191
I2
F1.0
S'good'
p676
tp677
a(I194
I8
I0
S'website'
p678
tp679
a(I253
I0
I0
S'great'
p680
tp681
as(S'think'
p682
tp683
(lp684
(I176
I1
F0.125
S'appropriate'
p685
tp686
a(I176
I1
F0.625
S'necessary'
p687
tp688
as(S'battery'
p689
tp690
(lp691
(I2
I1
F1.0
g25
tp692
a(I4
I6
I0
S'august'
p693
tp694
a(I4
I6
F-0.5
S'less'
p695
tp696
a(I6
I2
I0
S'most'
p697
tp698
a(I6
I2
I0
S'old'
p699
tp700
a(I81
I1
F1.0
g27
tp701
a(I83
I0
F1.0
S'good'
p702
tp703
a(I88
I6
F0.5
S'second'
p704
tp705
a(I88
I6
F-0.75
S'dead'
p706
tp707
a(I88
I7
I0
S'same'
p708
tp709
a(I112
I7
F-0.625
S'other'
p710
tp711
a(I132
I2
F0.375
S'new'
p712
tp713
a(I140
I3
F0.625
S'decent'
p714
tp715
a(I145
I0
F0.75
S'constant'
p716
tp717
a(I149
I0
F-0.75
S'dead'
p718
tp719
a(I156
I1
F1.0
S'better'
p720
tp721
a(I167
I5
F-0.75
S'care'
p722
tp723
a(I171
I0
F0.125
S'usual'
p724
tp725
a(I190
I5
I0
S'only'
p726
tp727
a(I195
I0
F-0.5
g31
tp728
a(I195
I0
F0.125
g33
tp729
a(I217
I36
F0.375
S'extra'
p730
tp731
a(I224
I0
F0.375
S'new'
p732
tp733
a(I255
I0
F1.0
S'good'
p734
tp735
a(I268
I2
F1.0
S'good'
p736
tp737
as(S'since'
p738
tp739
(lp740
(I232
I1
I0
S'great'
p741
tp742
as(S'samsung'
p743
tp744
(lp745
(I32
I0
F1.0
S'better'
p746
tp747
as(S'cell'
p748
tp749
(lp750
(I35
I0
I0
S'more'
p751
tp752
a(I35
I0
F0.875
S'happy'
p753
tp754
a(I46
I8
F0.625
S'positive'
p755
tp756
a(I85
I2
I0
S'common'
p757
tp758
a(I92
I2
F1.0
S'best'
p759
tp760
a(I103
I2
F0.5
S'second'
p761
tp762
a(I267
I5
I0
S'most'
p763
tp764
as(S'thing'
p765
tp766
(lp767
(I2
I2
F1.0
S'best'
p768
tp769
a(I24
I0
F-0.875
S'negative'
p770
tp771
a(I26
I28
F-0.625
S'other'
p772
tp773
a(I70
I0
I0
S'only'
p774
tp775
a(I71
I0
F0.5
S'whole'
p776
tp777
a(I75
I8
I0
S'only'
p778
tp779
a(I80
I1
F0.5
S'whole'
p780
tp781
a(I88
I10
I0
S'same'
p782
tp783
a(I152
I4
I0
S'only'
p784
tp785
a(I157
I1
F0.875
S'important'
p786
tp787
a(I164
I1
F-0.625
S'other'
p788
tp789
a(I164
I2
F-0.625
S'other'
p790
tp791
a(I169
I1
F1.0
S'better'
p792
tp793
a(I170
I3
I0
S'cosmetic'
p794
tp795
a(I217
I4
F0.875
S'important'
p796
tp797
a(I217
I34
F-0.125
S'super'
p798
tp799
a(I246
I6
I0
S'same'
p800
tp801
a(I246
I12
I0
S'next'
p802
tp803
a(I249
I0
F-0.625
S'bad'
p804
tp805
as(S'sim'
p806
S'card'
p807
tp808
(lp809
(I59
I4
I0
S'old'
p810
tp811
a(I59
I5
F0.375
S'new'
p812
tp813
a(I59
I5
I0
g635
tp814
a(I96
I3
F0.5
S'compatible'
p815
tp816
a(I96
I10
F-0.125
S'overall'
p817
tp818
a(I96
I10
F0.375
S'new'
p819
tp820
a(I96
I10
I0
S'android'
p821
tp822
a(I106
I0
I0
g637
tp823
a(I123
I0
F0.125
S'able'
p824
tp825
a(I126
I3
F0.625
S'easy'
p826
tp827
a(I131
I1
I0
S'normal'
p828
tp829
a(I223
I6
I0
S'local'
p830
tp831
as(S'charge'
p832
tp833
(lp834
(I73
I18
F-0.75
S'short'
p835
tp836
a(I132
I5
F-0.625
S'bad'
p837
tp838
a(I190
I11
F-0.75
S'single'
p839
tp840
as(S'device'
p841
tp842
(lp843
(I33
I2
F0.625
S'convenient'
p844
tp845
a(I33
I2
I0
S'useful'
p846
tp847
a(I68
I0
F1.0
S'best'
p848
tp849
a(I68
I0
I0
S'fastest'
p850
tp851
a(I75
I7
I0
S'only'
p852
tp853
a(I142
I2
F-0.75
S'single'
p854
tp855
a(I144
I1
F0.625
S'fair'
p856
tp857
as(S'sd'
p858
S'card'
p859
tp860
(lp861
(I178
I0
F-0.25
g639
tp862
as(S'atrix'
p863
tp864
(lp865
(I26
I9
I0
S'great'
p866
tp867
a(I54
I4
F-0.625
S'other'
p868
tp869
a(I80
I0
F0.25
S'original'
p870
tp871
a(I100
I0
I0
S'third'
p872
tp873
a(I116
I0
I0
g119
tp874
a(I116
I1
F0.25
S'original'
p875
tp876
a(I116
I4
F0.25
g121
tp877
a(I133
I0
F0.5
S'true'
p878
tp879
a(I142
I0
I0
S'faster'
p880
tp881
a(I180
I0
I0
S'user'
p882
tp883
a(I180
I0
F0.375
S'friendly'
p884
tp885
a(I180
I0
F0.25
S'original'
p886
tp887
a(I211
I2
I0
S'more'
p888
tp889
a(I232
I1
F0.25
S'original'
p890
tp891
a(I257
I0
F0.125
S'first'
p892
tp893
as(S'dual'
p894
S'core'
p895
S'processor'
p896
tp897
(lp898
(I26
I4
I0
S'fast'
p899
tp900
a(I73
I23
F-0.5
g535
tp901
as(S'pretty'
p902
tp903
(lp904
(I246
I31
F0.625
S'safe'
p905
tp906
as(S'price'
p907
tp908
(lp909
(I1
I0
I0
S'great'
p910
tp911
a(I47
I0
I0
S'same'
p912
tp913
a(I47
I3
F1.0
S'better'
p914
tp915
a(I57
I5
I0
S'great'
p916
tp917
a(I118
I10
F-0.25
S'lower'
p918
tp919
a(I126
I10
F1.0
S'good'
p920
tp921
a(I160
I1
F0.75
S'worth'
p922
tp923
a(I165
I2
F0.875
S'nice'
p924
tp925
a(I223
I7
F1.0
S'good'
p926
tp927
a(I245
I0
F1.0
S'good'
p928
tp929
a(I256
I1
F1.0
S'good'
p930
tp931
a(I265
I0
F-0.25
S'low'
p932
tp933
as(S'time'
p934
tp935
(lp936
(I68
I1
I0
S'great'
p937
tp938
a(I80
I1
F-0.5
g329
tp939
a(I88
I9
F-0.25
S'disappointed'
p940
tp941
a(I88
I9
F0.125
S'last'
p942
tp943
a(I108
I3
F-0.625
S'bad'
p944
tp945
a(I112
I2
F0.125
S'first'
p946
tp947
a(I112
I3
F0.125
S'first'
p948
tp949
a(I115
I1
F-0.5
g331
tp950
a(I121
I1
F-0.5
g333
tp951
a(I148
I3
I0
S'next'
p952
tp953
a(I167
I2
F-0.5
g335
tp954
a(I171
I0
I0
S'more'
p955
tp956
a(I215
I0
F0.5
S'second'
p957
tp958
a(I215
I3
F0.125
S'first'
p959
tp960
a(I224
I0
F0.125
g337
tp961
a(I233
I2
F0.125
S'first'
p962
tp963
a(I255
I0
I0
S'more'
p964
tp965
a(I257
I2
F0.375
S'much'
p966
tp967
a(I257
I5
F-0.875
S'hard'
p968
tp969
a(I261
I0
F-0.5
g339
tp970
as(S'tablet'
p971
S'distributors'
p972
tp973
(lp974
(I88
I0
F0.125
g479
tp975
a(I88
I3
F0.125
S'tablet'
p976
tp977
as(S'smartphone'
p978
tp979
(lp980
(I15
I0
F1.0
S'good'
p981
tp982
a(I52
I2
F0.125
S'first'
p983
tp984
a(I67
I8
F0.375
S'new'
p985
tp986
a(I73
I0
F0.375
S'new'
p987
tp988
a(I73
I9
I0
S'traditional'
p989
tp990
a(I96
I1
F0.125
S'first'
p991
tp992
a(I165
I2
F0.5
S'recommend'
p993
tp994
a(I165
I2
I0
S'such'
p995
tp996
a(I217
I2
I0
S'great'
p997
tp998
a(I218
I1
I0
S'great'
p999
tp1000
a(I260
I0
F1.0
S'good'
p1001
tp1002
as(S'micro'
p1003
S'sd'
p1004
S'card'
p1005
tp1006
(lp1007
(I26
I16
F0.625
S'acceptable'
p1008
tp1009
a(I178
I0
F-0.25
g639
tp1010
as(S'working'
p1011
tp1012
(lp1013
(I162
I4
F1.0
S'good'
p1014
tp1015
as(S'better'
p1016
tp1017
(lp1018
(I80
I0
F0.375
S'much'
p1019
tp1020
a(I148
I10
F0.375
S'much'
p1021
tp1022
as(S'months'
p1023
tp1024
(lp1025
(I4
I12
F-0.75
S'abnormal'
p1026
tp1027
a(I88
I6
I0
S'later'
p1028
tp1029
a(I88
I8
F0.125
S'last'
p1030
tp1031
a(I97
I1
I0
S'few'
p1032
tp1033
a(I195
I0
I0
S'later'
p1034
tp1035
a(I195
I0
I0
S'great'
p1036
tp1037
a(I235
I0
F1.0
S'good'
p1038
tp1039
as(S'apps'
p1040
tp1041
(lp1042
(I18
I0
F-0.5
S'sure'
p1043
tp1044
a(I18
I0
I0
S'next'
p1045
tp1046
a(I43
I8
F0.25
S'favorite'
p1047
tp1048
a(I56
I0
F1.0
S'good'
p1049
tp1050
a(I112
I11
F-0.5
S'certain'
p1051
tp1052
a(I112
I11
F-0.5
S'unavailable'
p1053
tp1054
a(I215
I2
F0.375
S'worked'
p1055
tp1056
a(I217
I18
I0
S'few'
p1057
tp1058
a(I217
I18
F-0.625
S'free'
p1059
tp1060
as(S'core'
p1061
S'processor'
p1062
tp1063
(lp1064
(I26
I4
I0
g899
tp1065
a(I73
I23
F-0.5
g535
tp1066
as(S'days'
p1067
tp1068
(lp1069
(I4
I2
I0
S'few'
p1070
tp1071
a(I42
I0
I0
S'fast'
p1072
tp1073
a(I88
I9
I0
S'few'
p1074
tp1075
a(I253
I4
I0
S'later'
p1076
tp1077
as(S'fast'
p1078
tp1079
(lp1080
(I217
I24
F-0.125
S'super'
p1081
tp1082
a(I269
I0
I0
S'great'
p1083
tp1084
as(S'sound'
p1085
S'quality'
p1086
tp1087
(lp1088
(I26
I22
F-0.75
g362
tp1089
a(I26
I22
F1.0
g364
tp1090
a(I26
I22
F1.0
g207
tp1091
a(I255
I0
I0
g388
tp1092
a(I255
I0
I0
g390
tp1093
as.