(dp0
(S'screen'
p1
S'size'
p2
tp3
(lp4
(I3
I718
I0
S'big'
p5
I3
tp6
a(I4
I108
I0
S'great'
p7
I3
tp8
a(I5
I108
I0
S'large'
p9
I3
tp10
a(I5
I108
I0
S'large'
p11
I3
tp12
a(I5
I168
I0
S'more'
p13
I3
tp14
a(I5
I233
I0
S'large'
p15
I3
tp16
a(I7
I211
F-0.75
S'bright'
p17
I3
tp18
a(I7
I303
I0
S'large'
p19
I3
tp20
as(S'android'
p21
S'and'
p22
S'ios'
p23
tp24
(lp25
(I1
I147
I0
S'android'
p26
I0
tp27
a(I3
I60
F0.25
S'professional'
p28
I0
tp29
a(I3
I60
F0.625
S'superior'
p30
I0
tp31
a(I3
I60
I0
S'android'
p32
I0
tp33
a(I3
I100
I0
S'android'
p34
I0
tp35
a(I3
I699
I0
S'close'
p36
I0
tp37
a(I7
I283
F0.625
S'interested'
p38
I0
tp39
a(I3
I174
F-0.125
S'slow'
p40
I0
tp41
a(I3
I710
F-0.125
S'complicated'
p42
I0
tp43
a(I5
I88
F1.0
S'better'
p44
I0
tp45
a(I5
I232
I0
S'faster'
p46
I0
tp47
a(I7
I128
F1.0
S'good'
p48
I0
tp49
a(I7
I131
F0.125
S'popular'
p50
I0
tp51
a(I7
I131
F-0.5
S'sure'
p52
I0
tp53
a(I7
I283
F0.625
g38
I0
tp54
as(S'sound'
p55
tp56
(lp57
(I3
I672
I0
S'great'
p58
I7
tp59
a(I5
I51
F0.125
S'above'
p60
I7
tp61
as(S'mobile'
p62
tp63
(lp64
(I5
I136
I0
S'great'
p65
I0
tp66
as(S'battery'
p67
S'life'
p68
tp69
(lp70
(I2
I38
I0
S'great'
p71
I1
tp72
a(I3
I495
I0
S'great'
p73
I1
tp74
a(I5
I105
I0
S'great'
p75
I1
tp76
a(I5
I132
I0
S'great'
p77
I1
tp78
a(I5
I132
F-0.5
S'power'
p79
I1
tp80
a(I5
I132
F0.375
S'extended'
p81
I1
tp82
a(I2
I38
I0
g71
I19
tp83
a(I3
I495
I0
g73
I19
tp84
a(I5
I105
I0
g75
I19
tp85
a(I5
I132
I0
g77
I19
tp86
a(I3
I671
I0
S'more'
p87
I15
tp88
a(I5
I132
F-0.5
g79
I15
tp89
a(I5
I132
F0.375
g81
I15
tp90
a(I5
I245
F0.5
S'told'
p91
I15
tp92
a(I5
I257
F1.0
S'better'
p93
I15
tp94
as(S'home'
p95
S'screen'
p96
tp97
(lp98
(I3
I290
F0.625
S'right'
p99
I0
tp100
as(S'email'
p101
tp102
(lp103
(I3
I323
F-0.375
S'manual'
p104
I5
tp105
a(I7
I44
I0
S'own'
p106
I5
tp107
a(I7
I44
F-0.375
S'tile'
p108
I5
tp109
a(I7
I310
F1.0
S'good'
p110
I5
tp111
as(S'return'
p112
S'policy'
p113
tp114
(lp115
(I3
I519
I0
S'most'
p116
I0
tp117
as(S'call'
p118
S'quality'
p119
tp120
(lp121
(I2
I120
I0
S'great'
p122
I0
tp123
a(I3
I31
F-0.25
S'google'
p124
I0
tp125
a(I3
I31
I0
S'basic'
p126
I0
tp127
a(I3
I148
F0.625
S'acceptable'
p128
I0
tp129
a(I3
I148
F1.0
S'better'
p130
I0
tp131
a(I3
I162
F1.0
S'better'
p132
I0
tp133
a(I3
I318
F-0.25
S'low'
p134
I0
tp135
a(I5
I11
F1.0
S'good'
p136
I0
tp137
a(I5
I207
I0
S'great'
p138
I0
tp139
a(I7
I248
F-0.5
S'poor'
p140
I0
tp141
as(S'7'
p142
S'screen'
p143
tp144
(lp145
(I0
I13
F0.75
S'beautiful'
p146
I0
tp147
a(I3
I287
F0.25
S'larger'
p148
I0
tp149
a(I3
I290
F0.625
g99
I0
tp150
a(I3
I499
I0
S'big'
p151
I0
tp152
a(I5
I59
F0.875
S'important'
p153
I0
tp154
a(I6
I7
F0.625
S'easy'
p155
I0
tp156
a(I7
I215
F-0.375
S'small'
p157
I0
tp158
as(S'camera'
p159
tp160
(lp161
(I0
I9
F1.0
S'good'
p162
I1
tp163
a(I2
I58
F-0.75
S'secondary'
p164
I1
tp165
a(I2
I80
F0.625
S'hold'
p166
I1
tp167
a(I2
I125
I0
S'unbelievable'
p168
I1
tp169
a(I3
I32
F1.0
S'good'
p170
I1
tp171
a(I3
I110
F1.0
S'best'
p172
I1
tp173
a(I3
I238
F1.0
S'best'
p174
I1
tp175
a(I3
I348
I0
S'external'
p176
I1
tp177
a(I3
I612
F0.875
S'happy'
p178
I1
tp179
a(I3
I672
F0.875
S'nice'
p180
I1
tp181
a(I4
I90
I0
S'many'
p182
I1
tp183
a(I5
I144
I0
S'incredible'
p184
I1
tp185
a(I7
I140
F0.625
S'easy'
p186
I1
tp187
a(I7
I276
F1.0
S'better'
p188
I1
tp189
a(I7
I292
F1.0
S'good'
p190
I1
tp191
as(S'operating'
p192
S'system'
p193
tp194
(lp195
(I3
I7
I0
S'great'
p196
I2
tp197
a(I3
I20
F-0.625
S'other'
p198
I2
tp199
a(I7
I314
F0.875
S'nice'
p200
I2
tp201
as(S'smooth'
p202
tp203
(lp204
(I3
I237
I0
S'buttery'
p205
I16
tp206
a(I5
I8
I0
S'butter'
p207
I16
tp208
as(S'live'
p209
S'tiles'
p210
tp211
(lp212
(I0
I27
F0.5
S'live'
p213
I0
tp214
a(I1
I29
F0.5
S'live'
p215
I0
tp216
a(I2
I91
F0.375
S'alive'
p217
I0
tp218
a(I3
I66
F0.5
S'live'
p219
I0
tp220
a(I3
I66
F0.25
S'effective'
p221
I0
tp222
a(I3
I396
I0
S'large'
p223
I0
tp224
a(I3
I396
F0.5
S'live'
p225
I0
tp226
a(I3
I548
F0.5
S'live'
p227
I0
tp228
a(I3
I593
F0.5
S'live'
p229
I0
tp230
as(S'local'
p231
S'scouts'
p232
tp233
(lp234
(I3
I421
I0
S'local'
p235
I0
tp236
a(I3
I423
I0
S'local'
p237
I0
tp238
a(I3
I462
I0
S'local'
p239
I0
tp240
as(S'windows'
p241
tp242
(lp243
(I0
I20
F0.5
S'second'
p244
I0
tp245
a(I0
I68
I0
S'great'
p246
I0
tp247
a(I1
I92
F0.125
S'key'
p248
I0
tp249
a(I1
I118
F0.375
S'available'
p250
I0
tp251
a(I1
I124
F0.375
S'available'
p252
I0
tp253
a(I1
I133
F0.5
S'second'
p254
I0
tp255
a(I1
I146
I0
S'most'
p256
I0
tp257
a(I2
I27
F1.0
S'best'
p258
I0
tp259
a(I3
I164
F-0.625
S'other'
p260
I0
tp261
a(I3
I381
F-0.625
S'other'
p262
I0
tp263
a(I3
I395
F0.375
S'new'
p264
I0
tp265
a(I3
I514
I0
S'big'
p266
I0
tp267
a(I3
I514
F0.375
S'critic'
p268
I0
tp269
a(I3
I692
F0.125
S'first'
p270
I0
tp271
a(I3
I709
I0
S'fast'
p272
I0
tp273
a(I5
I117
F-0.375
S'top'
p274
I0
tp275
a(I5
I205
F1.0
S'best'
p276
I0
tp277
a(I7
I144
F0.375
S'available'
p278
I0
tp279
a(I7
I264
F0.125
S'first'
p280
I0
tp281
a(I7
I264
I0
S'real'
p282
I0
tp283
a(I7
I328
F-0.625
S'other'
p284
I0
tp285
as(S'button'
p286
tp287
(lp288
(I3
I162
I-100
S'*top'
p289
I19
tp290
a(I3
I162
F-0.875
S'hard'
p291
I19
tp292
a(I3
I162
I-100
S'at*miss'
p293
I19
tp294
a(I3
I162
F-0.75
S'single'
p295
I19
tp296
a(I3
I417
F0.875
S'music'
p297
I19
tp298
a(I5
I26
F-0.375
S'top'
p299
I19
tp300
a(I5
I235
I0
S'great'
p301
I19
tp302
a(I7
I235
I-100
S'lower/to'
p303
I19
tp304
as(S'apple'
p305
tp306
(lp307
(I3
I126
I0
S'incredible'
p308
I4
tp309
a(I4
I82
F0.625
S'easy'
p310
I4
tp311
a(I5
I90
F1.0
S'better'
p312
I4
tp313
as(S'signal'
p314
S'strength'
p315
tp316
(lp317
(I7
I362
I0
S'signal'
p318
I0
tp319
as(S'single'
p320
S'core'
p321
S'processor'
p322
tp323
(lp324
(I0
I66
I0
S'faster'
p325
I0
tp326
a(I2
I30
F-0.75
S'single'
p327
I0
tp328
a(I3
I42
F-0.75
S'single'
p329
I0
tp330
a(I3
I252
F-0.75
S'single'
p331
I0
tp332
a(I0
I66
I0
g325
I0
tp333
a(I2
I30
F-0.75
g327
I0
tp334
a(I3
I42
F-0.75
g329
I0
tp335
a(I3
I252
F-0.75
g331
I0
tp336
as(S'better'
p337
S'than'
p338
S'iphone'
p339
tp340
(lp341
(I1
I49
F0.375
S'much'
p342
I0
tp343
a(I3
I39
F1.0
S'good'
p344
I0
tp345
a(I3
I39
F1.0
S'better'
p346
I0
tp347
a(I0
I77
I0
S'most'
p348
I1
tp349
a(I1
I86
F0.375
S'similar'
p350
I1
tp351
a(I3
I39
F1.0
g344
I1
tp352
a(I3
I39
F1.0
g346
I1
tp353
a(I3
I97
F0.375
S'reliable'
p354
I1
tp355
a(I3
I481
F-0.5
S'sure'
p356
I1
tp357
a(I3
I551
F0.875
S'happy'
p358
I1
tp359
a(I3
I653
F0.25
S'used'
p360
I1
tp361
a(I3
I653
F0.375
S'available'
p362
I1
tp363
a(I5
I69
F0.875
S'nice'
p364
I1
tp365
a(I5
I112
F0.25
S'used'
p366
I1
tp367
a(I5
I119
F0.25
S'bigger'
p368
I1
tp369
a(I5
I123
F0.25
S'used'
p370
I1
tp371
a(I5
I225
I0
S'old'
p372
I1
tp373
a(I6
I0
I0
S'two-year'
p374
I1
tp375
a(I6
I0
I0
S'old'
p376
I1
tp377
a(I7
I10
F-0.625
S'quite'
p378
I1
tp379
a(I7
I260
F-0.75
S'sick'
p380
I1
tp381
a(I7
I260
I0
S'same'
p382
I1
tp383
as(S'in'
p384
S'program'
p385
S'list'
p386
tp387
(lp388
(I3
I736
F-0.625
S'other'
p389
I0
tp390
a(I3
I736
F0.5
S'second'
p391
I0
tp392
as(S'amazon'
p393
tp394
(lp395
(I3
I237
F0.375
S'new'
p396
I13
tp397
a(I3
I277
F0.625
S'kind'
p398
I13
tp399
a(I3
I277
F0.875
S'courteous'
p400
I13
tp401
a(I7
I196
I0
S'website'
p402
I13
tp403
as(S'large'
p404
S'screen'
p405
tp406
(lp407
(I0
I3
I0
S'large'
p408
I3
tp409
a(I1
I64
I0
S'large'
p410
I3
tp411
a(I1
I64
F-0.75
S'comfortable'
p412
I3
tp413
a(I1
I69
F0.75
S'beautiful'
p414
I3
tp415
a(I2
I24
I0
S'large'
p416
I3
tp417
a(I2
I151
I0
S'large'
p418
I3
tp419
a(I2
I151
F0.625
S'perfect'
p420
I3
tp421
a(I3
I66
I0
S'large'
p422
I3
tp423
a(I3
I72
F0.25
S'larger'
p424
I3
tp425
a(I3
I123
I0
S'large'
p426
I3
tp427
a(I3
I135
I0
S'large'
p428
I3
tp429
a(I3
I135
F0.625
S'easy'
p430
I3
tp431
a(I3
I287
F0.25
g148
I3
tp432
a(I3
I720
F0.25
S'larger'
p433
I3
tp434
a(I4
I93
F0.625
S'easy'
p435
I3
tp436
a(I4
I93
I0
S'large'
p437
I3
tp438
a(I5
I108
I0
g9
I3
tp439
a(I5
I108
I0
g11
I3
tp440
a(I5
I134
I0
S'large'
p441
I3
tp442
a(I5
I134
F0.625
S'perfect'
p443
I3
tp444
a(I5
I233
I0
g15
I3
tp445
a(I7
I275
F0.25
S'larger'
p446
I3
tp447
a(I7
I275
I0
S'high'
p448
I3
tp449
a(I7
I303
I0
g19
I3
tp450
a(I7
I347
I0
S'large'
p451
I3
tp452
as(S'shirt'
p453
S'pocket'
p454
tp455
(lp456
(I3
I716
I0
S'close'
p457
I1
tp458
a(I3
I716
I0
S'least'
p459
I1
tp460
a(I3
I716
I0
S'slippery'
p461
I1
tp462
as(S'microsoft'
p463
tp464
(lp465
(I5
I93
F1.0
S'better'
p466
I0
tp467
a(I7
I12
I0
S'different'
p468
I0
tp469
a(I7
I365
I0
S'funny'
p470
I0
tp471
as(S'white'
p472
S'dots'
p473
tp474
(lp475
(I3
I751
F-0.75
S'little'
p476
I0
tp477
a(I3
I751
F-0.25
S'white'
p478
I0
tp479
a(I3
I752
F0.5
S'touch'
p480
I0
tp481
a(I3
I752
F-0.75
S'little'
p482
I0
tp483
a(I3
I752
F-0.25
S'white'
p484
I0
tp485
a(I3
I755
F0.5
S'touch'
p486
I0
tp487
a(I3
I755
F-0.75
S'little'
p488
I0
tp489
a(I3
I755
F-0.25
S'white'
p490
I0
tp491
as(S'big'
p492
S'screen'
p493
tp494
(lp495
(I0
I50
I0
S'such'
p496
I1
tp497
a(I0
I50
I0
S'big'
p498
I1
tp499
a(I1
I142
I0
S'big'
p500
I1
tp501
a(I3
I98
F0.25
S'bigger'
p502
I1
tp503
a(I3
I194
I0
S'big'
p504
I1
tp505
a(I3
I344
F-0.75
S'bright'
p506
I1
tp507
a(I3
I497
I0
S'big'
p508
I1
tp509
a(I3
I499
I0
g151
I1
tp510
a(I3
I504
I0
S'big'
p511
I1
tp512
a(I3
I545
I0
S'such'
p513
I1
tp514
a(I3
I545
I0
S'big'
p515
I1
tp516
a(I3
I674
I0
S'big'
p517
I1
tp518
a(I4
I78
I0
S'big'
p519
I1
tp520
a(I5
I33
F0.875
S'nice'
p521
I1
tp522
a(I5
I139
I0
S'big'
p523
I1
tp524
a(I5
I139
F0.75
S'beautiful'
p525
I1
tp526
a(I5
I226
I0
S'big'
p527
I1
tp528
as(S'a'
p529
S'samsung'
p530
S'focus'
p531
tp532
(lp533
(I1
I2
I0
S'old'
p534
I0
tp535
a(I1
I2
I0
S'weird'
p536
I0
tp537
a(I1
I63
I0
S'old'
p538
I0
tp539
a(I1
I79
I0
S'old'
p540
I0
tp541
a(I3
I72
F0.75
S'due'
p542
I0
tp543
a(I3
I233
I0
S'next'
p544
I0
tp545
a(I3
I493
I0
S'slower'
p546
I0
tp547
a(I5
I241
F0.375
S'new'
p548
I0
tp549
a(I7
I96
I0
S'forth'
p550
I0
tp551
a(I7
I263
I0
S'later'
p552
I0
tp553
a(I7
I268
I0
S'useful'
p554
I0
tp555
a(I7
I289
F-0.375
S'smaller'
p556
I0
tp557
a(I7
I304
I0
S'more'
p558
I0
tp559
a(I7
I304
F0.125
S'solid'
p560
I0
tp561
as(S'contacts'
p562
tp563
(lp564
(I3
I128
I0
S'cool'
p565
I0
tp566
a(I4
I44
I0
S're-enter'
p567
I0
tp568
a(I4
I45
I0
S'current'
p569
I0
tp570
as(S'mango'
p571
tp572
(lp573
(I3
I644
F0.375
S'new'
p574
I1
tp575
a(I3
I761
F0.375
S'new'
p576
I1
tp577
a(I3
I771
F1.0
S'good'
p578
I1
tp579
a(I3
I771
I-100
S'ivimg'
p580
I1
tp581
a(I3
I771
I-100
S'viewcommander-mobile'
p582
I1
tp583
a(I3
I771
I0
S'close'
p584
I1
tp585
a(I4
I84
I0
S'more'
p586
I1
tp587
a(I4
I84
F-0.5
S'fun'
p588
I1
tp589
a(I7
I264
I0
S'sweetest'
p590
I1
tp591
as(S'htc'
p592
S'titan'
p593
tp594
(lp595
(I1
I73
F-0.125
S'slouch'
p596
I0
tp597
a(I3
I708
F0.875
S'happy'
p598
I0
tp599
a(I4
I55
F-0.625
S'sorry'
p600
I0
tp601
a(I7
I146
I0
S'big'
p602
I0
tp603
a(I7
I328
I0
S'few'
p604
I0
tp605
a(I7
I328
I0
S'exclusive'
p606
I0
tp607
a(I1
I69
I0
S'large'
p608
I0
tp609
a(I1
I73
F-0.125
g596
I0
tp610
a(I1
I149
I0
S'great'
p611
I0
tp612
a(I2
I49
I0
S'great'
p613
I0
tp614
a(I3
I11
F0.25
S'bigger'
p615
I0
tp616
a(I3
I43
I0
S'faster'
p617
I0
tp618
a(I3
I65
I0
S'such'
p619
I0
tp620
a(I3
I494
I0
S'general'
p621
I0
tp622
a(I3
I561
I0
S'latest'
p623
I0
tp624
a(I3
I708
F0.875
g598
I0
tp625
a(I3
I721
F0.25
S'larger'
p626
I0
tp627
a(I4
I62
F0.375
S'new'
p628
I0
tp629
a(I4
I108
I0
S'particular'
p630
I0
tp631
a(I5
I15
F0.625
S'superior'
p632
I0
tp633
a(I5
I18
F0.125
S'solid'
p634
I0
tp635
a(I5
I26
I0
S'flush'
p636
I0
tp637
a(I5
I118
I0
S'big'
p638
I0
tp639
a(I5
I121
F0.875
S'happier'
p640
I0
tp641
a(I5
I180
F-0.75
S'sad'
p642
I0
tp643
a(I5
I255
F0.375
S'new'
p644
I0
tp645
a(I7
I133
F-0.875
S'hard'
p646
I0
tp647
a(I7
I133
F-0.875
S'unhappy'
p648
I0
tp649
a(I7
I146
I0
g602
I0
tp650
a(I7
I247
I0
S'such'
p651
I0
tp652
a(I7
I285
I0
S'large'
p653
I0
tp654
a(I7
I292
F0.5
S'clear'
p655
I0
tp656
as(S'data'
p657
tp658
(lp659
(I3
I628
F-0.375
S'simple'
p660
I13
tp661
a(I3
I628
I0
S'e-mail'
p662
I13
tp663
a(I3
I628
I0
S'cellular'
p664
I13
tp665
a(I3
I629
I0
S'cellular'
p666
I13
tp667
a(I3
I629
I0
S'cellular'
p668
I13
tp669
a(I3
I633
I0
S'cellular'
p670
I13
tp671
a(I7
I359
F-0.375
S'serious'
p672
I13
tp673
a(I7
I363
I0
S'slower'
p674
I13
tp675
as(S'much'
p676
S'better'
p677
tp678
(lp679
(I1
I49
F0.375
g342
I9
tp680
a(I5
I45
F0.375
S'much'
p681
I9
tp682
a(I7
I258
F0.375
S'much'
p683
I9
tp684
as(S'samsung'
p685
S'focus'
p686
S's'
p687
tp688
(lp689
(I1
I2
I0
g534
I0
tp690
a(I1
I2
I0
g536
I0
tp691
a(I1
I63
I0
g538
I0
tp692
a(I1
I79
I0
g540
I0
tp693
a(I3
I72
F0.75
g542
I0
tp694
a(I3
I233
I0
g544
I0
tp695
a(I3
I493
I0
g546
I0
tp696
a(I5
I241
F0.375
g548
I0
tp697
a(I7
I96
I0
g550
I0
tp698
a(I7
I263
I0
g552
I0
tp699
a(I7
I268
I0
g554
I0
tp700
a(I7
I289
F-0.375
g556
I0
tp701
a(I7
I304
I0
g558
I0
tp702
a(I7
I304
F0.125
g560
I0
tp703
a(I1
I2
I0
g534
I0
tp704
a(I1
I2
I0
g536
I0
tp705
a(I1
I63
I0
g538
I0
tp706
a(I1
I79
I0
g540
I0
tp707
a(I3
I72
F0.75
g542
I0
tp708
a(I3
I233
I0
g544
I0
tp709
a(I3
I493
I0
g546
I0
tp710
a(I5
I241
F0.375
g548
I0
tp711
a(I7
I96
I0
g550
I0
tp712
a(I7
I263
I0
g552
I0
tp713
a(I7
I268
I0
g554
I0
tp714
a(I7
I289
F-0.375
g556
I0
tp715
a(I7
I304
I0
g558
I0
tp716
a(I7
I304
F0.125
g560
I0
tp717
a(I1
I2
I0
g534
I7
tp718
a(I1
I63
I0
g538
I7
tp719
a(I1
I79
I0
g540
I7
tp720
a(I3
I233
I0
g544
I7
tp721
a(I3
I657
I0
S'own'
p722
I7
tp723
a(I3
I719
F0.25
S'bigger'
p724
I7
tp725
a(I5
I241
F0.375
g548
I7
tp726
a(I7
I96
I0
g550
I7
tp727
a(I7
I268
I0
g554
I7
tp728
a(I7
I304
I0
g558
I7
tp729
a(I7
I304
F0.125
g560
I7
tp730
a(I1
I2
I0
g536
I4
tp731
a(I1
I11
F1.0
S'good'
p732
I4
tp733
a(I1
I11
F1.0
S'better'
p734
I4
tp735
a(I1
I13
I0
S'faster'
p736
I4
tp737
a(I1
I135
F-0.25
S'thin'
p738
I4
tp739
a(I2
I47
F1.0
S'good'
p740
I4
tp741
a(I3
I72
F0.75
g542
I4
tp742
a(I3
I493
I0
g546
I4
tp743
a(I5
I22
F0.375
S'honest'
p744
I4
tp745
a(I5
I52
I0
S'same'
p746
I4
tp747
a(I7
I263
I0
g552
I4
tp748
a(I7
I289
F-0.375
g556
I4
tp749
as(S'light'
p750
S'conditions'
p751
tp752
(lp753
(I7
I276
F-0.25
S'low'
p754
I0
tp755
a(I7
I276
F-0.625
S'light'
p756
I0
tp757
a(I7
I295
F-0.625
S'light'
p758
I0
tp759
a(I7
I296
F-0.25
S'low'
p760
I0
tp761
a(I7
I296
F-0.625
S'light'
p762
I0
tp763
as(S'customer'
p764
S'service'
p765
tp766
(lp767
(I3
I281
I0
S'great'
p768
I3
tp769
a(I3
I373
I0
S'great'
p770
I3
tp771
as(S'office'
p772
tp773
(lp774
(I1
I92
F-0.5
S'open'
p775
I15
tp776
as(S'apps'
p777
tp778
(lp779
(I0
I5
I0
S'few'
p780
I0
tp781
a(I1
I27
F0.125
S'plenty'
p782
I0
tp783
a(I1
I85
F0.25
S'favorite'
p784
I0
tp785
a(I1
I103
F0.375
S'available'
p786
I0
tp787
a(I1
I105
F0.125
S'popular'
p788
I0
tp789
a(I1
I105
I0
S'useful'
p790
I0
tp791
a(I1
I106
I0
S'most'
p792
I0
tp793
a(I1
I109
I0
S'great'
p794
I0
tp795
a(I1
I109
F0.375
S'available'
p796
I0
tp797
a(I2
I77
I0
S'many'
p798
I0
tp799
a(I2
I126
F0.375
S'available'
p800
I0
tp801
a(I2
I133
F0.125
S'impressive'
p802
I0
tp803
a(I3
I15
F-0.875
S'negative'
p804
I0
tp805
a(I3
I15
I0
S'many'
p806
I0
tp807
a(I3
I15
F0.375
S'available'
p808
I0
tp809
a(I3
I114
F0.375
S'available'
p810
I0
tp811
a(I3
I121
I0
S'official'
p812
I0
tp813
a(I3
I121
F-0.125
S'mine'
p814
I0
tp815
a(I3
I181
I0
S'many'
p816
I0
tp817
a(I3
I472
F-0.625
S'free'
p818
I0
tp819
a(I3
I595
F0.25
S'favorite'
p820
I0
tp821
a(I3
I645
I0
S'social'
p822
I0
tp823
a(I3
I676
I0
S'many'
p824
I0
tp825
a(I3
I764
F-0.625
S'other'
p826
I0
tp827
a(I4
I27
F0.125
S'able'
p828
I0
tp829
a(I4
I27
I0
S'most'
p830
I0
tp831
a(I5
I5
F0.125
S'spectacular'
p832
I0
tp833
a(I5
I83
F1.0
S'better'
p834
I0
tp835
a(I5
I83
I0
S'more'
p836
I0
tp837
a(I6
I5
F-0.5
S'regular'
p838
I0
tp839
a(I7
I49
F-0.625
S'other'
p840
I0
tp841
a(I7
I50
I0
S'many'
p842
I0
tp843
a(I7
I59
I0
S'more'
p844
I0
tp845
a(I7
I63
F0.625
S'major'
p846
I0
tp847
a(I7
I144
I0
S'critical'
p848
I0
tp849
a(I7
I167
F0.125
S'able'
p850
I0
tp851
a(I7
I228
F0.875
S'important'
p852
I0
tp853
a(I7
I228
F0.375
S'available'
p854
I0
tp855
a(I7
I322
I0
S'many'
p856
I0
tp857
a(I7
I322
I0
S'older'
p858
I0
tp859
a(I7
I326
F0.5
S'expensive'
p860
I0
tp861
a(I7
I335
F0.625
S'major'
p862
I0
tp863
a(I7
I335
F0.375
S'available'
p864
I0
tp865
a(I7
I335
I0
S'such'
p866
I0
tp867
as(S'build'
p868
S'quality'
p869
tp870
(lp871
(I5
I234
I0
S'incredible'
p872
I2
tp873
a(I7
I109
I0
S'more'
p874
I2
tp875
a(I7
I151
F0.5
S'second'
p876
I2
tp877
as(S'facebook'
p878
tp879
(lp880
(I7
I46
F0.625
S'easy'
p881
I0
tp882
as.