(dp0
(S'seller'
p1
tp2
(lp3
(I4
I140
I0
S'different'
p4
I19
tp5
a(I10
I7
F-0.125
S'overall'
p6
I19
tp7
a(I10
I7
F0.875
S'happy'
p8
I19
tp9
a(I13
I12
F0.5
S'accurate'
p10
I19
tp11
a(I18
I10
F-0.625
S'other'
p12
I19
tp13
a(I34
I41
I0
S'different'
p14
I19
tp15
a(I38
I103
F1.0
S'better'
p16
I19
tp17
a(I38
I109
I0
S'great'
p18
I19
tp19
as(S'a'
p20
S'new'
p21
S'sim'
p22
tp23
(lp24
(I17
I15
F0.375
S'new'
p25
I0
tp26
a(I17
I16
F0.375
S'new'
p27
I0
tp28
a(I27
I12
F0.375
S'new'
p29
I0
tp30
a(I29
I0
F0.375
S'new'
p31
I0
tp32
as(S'battery'
p33
S'life'
p34
tp35
(lp36
(I2
I38
F0.125
S'last'
p37
I1
tp38
a(I2
I38
I0
S'update'
p39
I1
tp40
a(I3
I57
F-0.5
S'longer'
p41
I1
tp42
a(I8
I32
F-0.75
S'short'
p43
I1
tp44
a(I11
I10
F-0.5
S'poor'
p45
I1
tp46
a(I11
I13
F-0.875
S'awful'
p47
I1
tp48
a(I11
I40
F-0.5
S'longer'
p49
I1
tp50
a(I16
I4
I0
S'great'
p51
I1
tp52
a(I16
I4
F-0.5
S'sure'
p53
I1
tp54
a(I16
I4
F0.25
S'original'
p55
I1
tp56
a(I21
I34
F1.0
S'good'
p57
I1
tp58
a(I27
I14
F-0.5
S'poor'
p59
I1
tp60
a(I27
I70
F-0.75
S'short'
p61
I1
tp62
a(I33
I3
F-0.625
S'other'
p63
I1
tp64
a(I34
I2
I0
S'great'
p65
I1
tp66
a(I2
I38
F0.125
g37
I19
tp67
a(I2
I38
I0
g39
I19
tp68
a(I11
I13
F-0.875
g47
I19
tp69
a(I16
I4
I0
g51
I19
tp70
a(I21
I34
F1.0
g57
I19
tp71
a(I34
I2
I0
g65
I19
tp72
as(S'motorola'
p73
tp74
(lp75
(I2
I41
I0
S'old'
p76
I0
tp77
a(I11
I15
F-0.625
S'other'
p78
I0
tp79
a(I12
I20
F-0.375
S'black'
p80
I0
tp81
a(I26
I3
I0
S'older'
p82
I0
tp83
a(I27
I54
F0.5
S'technical'
p84
I0
tp85
a(I31
I24
I0
S'utilitarian'
p86
I0
tp87
as(S'service'
p88
tp89
(lp90
(I19
I14
I0
S'standard'
p91
I16
tp92
a(I19
I25
I0
S'full'
p93
I16
tp94
a(I21
I16
I0
S'full'
p95
I16
tp96
a(I21
I40
I0
S'great'
p97
I16
tp98
as(S'verizon'
p99
S'store'
p100
tp101
(lp102
(I17
I26
F-0.5
S'separate'
p103
I0
tp104
a(I21
I39
I0
S'local'
p105
I0
tp106
a(I21
I39
I0
S'corporate'
p107
I0
tp108
a(I27
I10
I0
S'local'
p109
I0
tp110
a(I34
I37
F-0.75
S'unable'
p111
I0
tp112
a(I4
I27
I0
S'more'
p113
I0
tp114
a(I5
I13
F0.375
S'new'
p115
I0
tp116
a(I5
I29
F1.0
S'good'
p117
I0
tp118
a(I11
I7
F0.125
S'usual'
p119
I0
tp120
a(I11
I48
F0.125
S'able'
p121
I0
tp122
a(I17
I21
F-0.25
S'past'
p123
I0
tp124
a(I17
I26
F-0.5
g103
I0
tp125
a(I27
I10
I0
g109
I0
tp126
a(I31
I37
F0.125
S'usual'
p127
I0
tp128
a(I34
I37
F-0.75
g111
I0
tp129
as(S'camera'
p130
tp131
(lp132
(I3
I47
I0
S'great'
p133
I1
tp134
a(I38
I112
F0.375
S'much'
p135
I1
tp136
as(S'contract'
p137
tp138
(lp139
(I2
I6
F0.5
S'true'
p140
I0
tp141
a(I3
I58
F0.125
S'renewal'
p142
I0
tp143
as(S'iphone'
p144
tp145
(lp146
(I15
I15
F0.125
S'last'
p147
I1
tp148
as(S'an'
p149
S'extended'
p150
S'battery'
p151
tp152
(lp153
(I4
I84
F0.375
S'extended'
p154
I0
tp155
a(I4
I84
F0.375
S'extended'
p156
I0
tp157
a(I13
I14
F0.5
S'recommend'
p158
I0
tp159
a(I13
I14
F0.375
S'extended'
p160
I0
tp161
a(I17
I69
F0.375
S'extended'
p162
I0
tp163
a(I31
I10
F0.375
S'extended'
p164
I0
tp165
a(I31
I14
F0.375
S'extended'
p166
I0
tp167
a(I31
I14
F0.375
S'extended'
p168
I0
tp169
a(I31
I19
F0.375
S'extended'
p170
I0
tp171
a(I37
I1
F0.375
S'extended'
p172
I0
tp173
a(I4
I84
F0.375
g154
I0
tp174
a(I4
I84
F0.375
g156
I0
tp175
a(I13
I14
F0.5
g158
I0
tp176
a(I13
I14
F0.375
g160
I0
tp177
a(I17
I69
F0.375
g162
I0
tp178
a(I31
I10
F0.375
g164
I0
tp179
a(I31
I12
F0.375
S'extended'
p180
I0
tp181
a(I31
I14
F0.375
g166
I0
tp182
a(I31
I14
F0.375
g168
I0
tp183
a(I31
I19
F0.375
g170
I0
tp184
a(I34
I33
F0.375
S'extended'
p185
I0
tp186
a(I37
I1
F0.375
g172
I0
tp187
a(I1
I0
F-0.625
S'bad'
p188
I15
tp189
a(I1
I2
F-0.625
S'bad'
p190
I15
tp191
a(I2
I22
F0.5
S'careful'
p192
I15
tp193
a(I2
I41
F-0.375
S'wear'
p194
I15
tp195
a(I3
I57
F-0.5
g41
I15
tp196
a(I4
I21
F0.625
S'removable'
p197
I15
tp198
a(I4
I43
F-0.75
S'dry'
p199
I15
tp200
a(I4
I84
F0.375
g154
I15
tp201
a(I4
I84
F0.375
g156
I15
tp202
a(I4
I157
I0
S'most'
p203
I15
tp204
a(I8
I32
F-0.75
g43
I15
tp205
a(I11
I10
F-0.5
g45
I15
tp206
a(I11
I14
F-0.5
S'sure'
p207
I15
tp208
a(I11
I40
F-0.5
g49
I15
tp209
a(I13
I14
F0.5
g158
I15
tp210
a(I13
I14
F0.375
g160
I15
tp211
a(I15
I8
F1.0
S'better'
p212
I15
tp213
a(I16
I4
F-0.5
g53
I15
tp214
a(I16
I4
F0.25
g55
I15
tp215
a(I16
I23
F0.125
S'last'
p216
I15
tp217
a(I17
I69
F0.375
g162
I15
tp218
a(I18
I1
F0.375
S'new'
p219
I15
tp220
a(I21
I26
F0.125
S'last'
p221
I15
tp222
a(I26
I0
F-0.25
S'low'
p223
I15
tp224
a(I26
I18
F-0.375
S'daily'
p225
I15
tp226
a(I26
I18
I0
S'more'
p227
I15
tp228
a(I27
I14
F-0.5
g59
I15
tp229
a(I27
I24
F0.125
S'last'
p230
I15
tp231
a(I27
I70
F-0.75
g61
I15
tp232
a(I28
I6
F0.375
S'new'
p233
I15
tp234
a(I28
I6
F-0.5
S'weak'
p235
I15
tp236
a(I31
I10
F0.375
g164
I15
tp237
a(I31
I12
F0.375
g180
I15
tp238
a(I31
I14
F0.375
g166
I15
tp239
a(I31
I14
F0.375
g168
I15
tp240
a(I31
I19
F0.375
g170
I15
tp241
a(I33
I3
F-0.625
g63
I15
tp242
a(I34
I24
F0.375
S'new'
p243
I15
tp244
a(I34
I33
F0.375
g185
I15
tp245
a(I37
I1
F0.375
g172
I15
tp246
a(I38
I21
F0.125
S'last'
p247
I15
tp248
a(I38
I74
F-0.625
S'bad'
p249
I15
tp250
a(I38
I107
F-0.25
S'low'
p251
I15
tp252
a(I38
I107
I0
S'fast'
p253
I15
tp254
a(I39
I0
F0.375
S'new'
p255
I15
tp256
as(g20
S'long'
p257
S'time'
p258
tp259
(lp260
(I4
I88
F-0.5
S'long'
p261
I12
tp262
a(I4
I170
F-0.5
S'long'
p263
I12
tp264
a(I19
I5
F-0.5
S'long'
p265
I12
tp266
a(I31
I19
F-0.5
S'long'
p267
I12
tp268
a(I34
I29
F0.125
S'renewal'
p269
I12
tp270
as(S'android'
p271
tp272
(lp273
(I2
I20
F0.875
S'nice'
p274
I0
tp275
a(I2
I20
F0.375
S'dependable'
p276
I0
tp277
a(I4
I1
I0
S'basic'
p278
I0
tp279
a(I12
I10
F-0.5
S'less'
p280
I0
tp281
a(I12
I10
F0.625
S'major'
p282
I0
tp283
a(I31
I11
F-0.75
S'comfortable'
p284
I0
tp285
a(I31
I35
I0
S'latest'
p286
I0
tp287
a(I37
I44
F-0.625
S'other'
p288
I0
tp289
a(I38
I48
I0
S'next'
p290
I0
tp291
as(S'upgrade'
p292
tp293
(lp294
(I3
I58
F0.5
S'eligible'
p295
I3
tp296
a(I8
I28
F0.75
S'due'
p297
I3
tp298
a(I11
I29
F0.375
S'new'
p299
I3
tp300
a(I17
I31
F0.75
S'due'
p301
I3
tp302
a(I38
I39
F-0.5
S'longer'
p303
I3
tp304
as(S'replacement'
p305
tp306
(lp307
(I8
I30
F0.5
S'temporary'
p308
I13
tp309
a(I17
I34
F1.0
S'best'
p310
I13
tp311
a(I17
I34
F0.125
S'solid'
p312
I13
tp313
a(I18
I2
F0.375
S'available'
p314
I13
tp315
a(I18
I2
I0
S'representative'
p316
I13
tp317
a(I18
I2
F0.375
S'new'
p318
I13
tp319
a(I36
I31
I0
S'reconsider'
p320
I13
tp321
as(S'music'
p322
tp323
(lp324
(I4
I155
F-0.625
S'other'
p325
I0
tp326
as(S'droid'
p327
S'bionic'
p328
tp329
(lp330
(I3
I93
I0
S'bionic'
p331
I0
tp332
a(I20
I3
F0.5
S'second'
p333
I0
tp334
a(I20
I3
I0
S'bionic'
p335
I0
tp336
a(I23
I3
F0.5
S'second'
p337
I0
tp338
a(I27
I63
I0
S'bionic'
p339
I0
tp340
a(I3
I93
I0
g331
I0
tp341
a(I4
I29
I0
S'old'
p342
I0
tp343
a(I4
I36
I0
S'old'
p344
I0
tp345
a(I20
I3
F0.5
g333
I0
tp346
a(I20
I3
I0
g335
I0
tp347
a(I23
I3
F0.5
g337
I0
tp348
a(I23
I25
F-0.625
S'other'
p349
I0
tp350
a(I27
I63
I0
g339
I0
tp351
a(I31
I22
F0.25
S'original'
p352
I0
tp353
a(I13
I1
I0
S'third'
p354
I0
tp355
a(I15
I16
F-0.875
S'inferior'
p356
I0
tp357
a(I17
I52
F0.375
S'new'
p358
I0
tp359
a(I25
I24
F0.125
S'first'
p360
I0
tp361
a(I27
I50
F0.75
S'receive'
p362
I0
tp363
a(I31
I8
F-0.75
S'wrong'
p364
I0
tp365
a(I31
I10
I0
S'summary'
p366
I0
tp367
a(I34
I18
F0.125
S'first'
p368
I0
tp369
a(I35
I11
F0.375
S'early'
p370
I0
tp371
as(S'data'
p372
tp373
(lp374
(I2
I29
I0
S'signal'
p375
I13
tp376
a(I2
I30
I0
S'signal'
p377
I13
tp378
a(I4
I48
F0.375
S'new'
p379
I13
tp380
a(I27
I21
F0.125
S'plenty'
p381
I13
tp382
as(S'perfect'
p383
S'shape'
p384
tp385
(lp386
(I15
I7
F0.625
S'perfect'
p387
I1
tp388
as(g20
S'sim'
p389
S'card'
p390
tp391
(lp392
(I3
I72
F-0.5
S'sure'
p393
I0
tp394
a(I3
I72
F0.25
S'larger'
p395
I0
tp396
a(I5
I5
I0
S'identical'
p397
I0
tp398
a(I11
I7
F0.25
S'bigger'
p399
I0
tp400
a(I13
I7
F-0.625
S'free'
p401
I0
tp402
a(I15
I27
F-0.375
S'pull'
p403
I0
tp404
a(I16
I6
F-0.5
S'separate'
p405
I0
tp406
a(I16
I6
F1.0
S'good'
p407
I0
tp408
a(I16
I6
F0.5
S'true'
p409
I0
tp410
a(I17
I15
F0.375
g25
I0
tp411
a(I17
I16
F0.375
g27
I0
tp412
a(I21
I39
F-0.625
S'free'
p413
I0
tp414
a(I27
I10
I0
S'cloned'
p415
I0
tp416
a(I27
I12
F0.375
g29
I0
tp417
a(I29
I0
F0.375
g31
I0
tp418
a(I33
I1
I0
S'needed'
p419
I0
tp420
a(I38
I11
I0
S'different'
p421
I0
tp422
a(I3
I72
F-0.5
g393
I0
tp423
a(I3
I72
F0.25
g395
I0
tp424
a(I5
I5
I0
g397
I0
tp425
a(I11
I7
F0.25
g399
I0
tp426
a(I13
I7
F-0.625
g401
I0
tp427
a(I15
I27
F-0.375
g403
I0
tp428
a(I16
I6
F-0.5
g405
I0
tp429
a(I16
I6
F1.0
g407
I0
tp430
a(I16
I6
F0.5
g409
I0
tp431
a(I17
I15
F0.375
g25
I0
tp432
a(I17
I16
F0.375
g27
I0
tp433
a(I21
I39
F-0.625
g413
I0
tp434
a(I27
I10
I0
g415
I0
tp435
a(I27
I12
F0.375
g29
I0
tp436
a(I29
I0
F0.375
g31
I0
tp437
a(I33
I1
I0
g419
I0
tp438
a(I38
I11
I0
g421
I0
tp439
as(S'wall'
p440
S'charger'
p441
tp442
(lp443
(I24
I3
I0
S'cable'
p444
I1
tp445
as(S'apps'
p446
tp447
(lp448
(I2
I21
F0.375
S'available'
p449
I0
tp450
a(I3
I32
I0
S'more'
p451
I0
tp452
a(I4
I136
F-0.375
S'crash'
p453
I0
tp454
a(I4
I140
F-0.5
S'open'
p455
I0
tp456
a(I8
I12
I0
S'great'
p457
I0
tp458
a(I11
I15
I0
S'same'
p459
I0
tp460
a(I24
I16
I0
S'many'
p461
I0
tp462
a(I24
I25
F-0.5
S'disappear'
p463
I0
tp464
a(I36
I4
F0.875
S'music'
p465
I0
tp466
a(I38
I43
I0
S'such'
p467
I0
tp468
a(I38
I82
F-0.5
S'sure'
p469
I0
tp470
as(S'amazon'
p471
tp472
(lp473
(I3
I68
F-0.25
S'cheaper'
p474
I13
tp475
a(I11
I51
I0
S'great'
p476
I13
tp477
a(I17
I19
F0.375
S'new'
p478
I13
tp479
a(I31
I38
I0
S'wish'
p480
I13
tp481
a(I36
I16
I0
S'great'
p482
I13
tp483
a(I38
I102
I0
S'different'
p484
I13
tp485
as(S'4g'
p486
S'lte'
p487
tp488
(lp489
(I13
I6
F0.5
S'compatible'
p490
I0
tp491
as.