(dp0
(S'screen'
p1
S'size'
p2
tp3
(lp4
(I4
I193
I0
S'big'
p5
I3
tp6
a(I5
I181
F0.25
S'larger'
p7
I3
tp8
a(I5
I234
I0
S'big'
p9
I3
tp10
a(I5
I234
F0.25
S'larger'
p11
I3
tp12
a(I5
I238
I0
S'same'
p13
I3
tp14
as(S'data'
p15
S'speeds'
p16
tp17
(lp18
(I1
I44
F-0.625
S'average'
p19
I0
tp20
a(I1
I2
I0
S'mobile'
p21
I0
tp22
a(I1
I2
I0
S'close'
p23
I0
tp24
a(I6
I3
F-0.125
S'slow'
p25
I0
tp26
a(I8
I159
F-0.625
S'average'
p27
I0
tp28
a(I11
I2
I0
S'high'
p29
I0
tp30
a(I11
I57
F1.0
S'good'
p31
I0
tp32
as(S'apple'
p33
tp34
(lp35
(I5
I158
F1.0
S'better'
p36
I4
tp37
a(I9
I49
F0.125
S'usual'
p38
I4
tp39
a(I14
I14
F-0.75
S'sad'
p40
I4
tp41
as(S'faster'
p42
tp43
(lp44
(I5
I8
F0.375
S'much'
p45
I7
tp46
as(S'call'
p47
S'quality'
p48
tp49
(lp50
(I4
I32
I0
S'great'
p51
I0
tp52
as(S'inch'
p53
S'screen'
p54
tp55
(lp56
(I1
I106
F-0.75
S'bright'
p57
I0
tp58
a(I7
I76
F0.375
S'much'
p59
I0
tp60
as(S'battery'
p61
S'life'
p62
tp63
(lp64
(I3
I4
I0
S'great'
p65
I1
tp66
a(I4
I202
I0
S'more'
p67
I1
tp68
a(I4
I225
F-0.625
S'average'
p69
I1
tp70
a(I4
I273
F-0.5
S'poor'
p71
I1
tp72
a(I5
I172
F0.625
S'removable'
p73
I1
tp74
a(I5
I193
F1.0
S'good'
p75
I1
tp76
a(I5
I223
I0
S'standard'
p77
I1
tp78
a(I5
I224
F0.375
S'extended'
p79
I1
tp80
a(I5
I234
F1.0
S'good'
p81
I1
tp82
a(I6
I18
F1.0
S'good'
p83
I1
tp84
a(I6
I106
F0.125
S'first'
p85
I1
tp86
a(I6
I106
I0
S'phenomenal'
p87
I1
tp88
a(I6
I108
I0
S'useful'
p89
I1
tp90
a(I7
I29
F1.0
S'good'
p91
I1
tp92
a(I7
I29
F1.0
S'better'
p93
I1
tp94
a(I8
I63
I0
S'great'
p95
I1
tp96
a(I8
I156
F0.875
S'happy'
p97
I1
tp98
a(I8
I156
I0
S'great'
p99
I1
tp100
a(I9
I56
F-0.5
S'poor'
p101
I1
tp102
a(I11
I3
F-0.5
S'poor'
p103
I1
tp104
a(I11
I49
F-0.25
S'low'
p105
I1
tp106
a(I11
I56
F1.0
S'better'
p107
I1
tp108
a(I14
I36
F1.0
S'better'
p109
I1
tp110
a(I3
I4
I0
g65
I19
tp111
a(I4
I225
F-0.625
g69
I19
tp112
a(I5
I224
F0.375
g79
I19
tp113
a(I6
I18
F1.0
g83
I19
tp114
a(I7
I29
F1.0
g91
I19
tp115
a(I7
I29
F1.0
g93
I19
tp116
a(I8
I63
I0
g95
I19
tp117
a(I9
I56
F-0.5
g101
I19
tp118
a(I11
I56
F1.0
g107
I19
tp119
a(I14
I36
F1.0
g109
I19
tp120
a(I0
I6
F-0.75
S'short'
p121
I15
tp122
a(I3
I16
I0
S'same'
p123
I15
tp124
a(I3
I16
F0.25
S'noted'
p125
I15
tp126
a(I4
I64
F-0.25
S'yellow'
p127
I15
tp128
a(I4
I137
F-0.75
S'dead'
p129
I15
tp130
a(I4
I161
F1.0
S'better'
p131
I15
tp132
a(I4
I202
I0
g67
I15
tp133
a(I4
I209
F0.375
S'extra'
p134
I15
tp135
a(I4
I273
F-0.5
g71
I15
tp136
a(I5
I50
F-0.25
S'anemic'
p137
I15
tp138
a(I5
I69
F0.25
S'larger'
p139
I15
tp140
a(I5
I69
F0.375
S'available'
p141
I15
tp142
a(I5
I69
F0.75
S'accommodate'
p143
I15
tp144
a(I5
I69
F0.25
S'bigger'
p145
I15
tp146
a(I5
I172
F0.625
g73
I15
tp147
a(I5
I193
F1.0
g75
I15
tp148
a(I5
I223
I0
g77
I15
tp149
a(I5
I234
F1.0
g81
I15
tp150
a(I6
I38
F0.375
S'extra'
p151
I15
tp152
a(I6
I106
F0.125
g85
I15
tp153
a(I6
I106
I0
g87
I15
tp154
a(I6
I108
I0
g89
I15
tp155
a(I7
I7
F-0.75
S'dead'
p156
I15
tp157
a(I8
I156
F0.875
g97
I15
tp158
a(I8
I156
I0
g99
I15
tp159
a(I9
I81
I0
S'numeric'
p160
I15
tp161
a(I11
I3
F-0.5
g103
I15
tp162
a(I11
I4
I0
S'standard'
p163
I15
tp164
a(I11
I49
F-0.25
g105
I15
tp165
as(S'bluetooth'
p166
tp167
(lp168
(I14
I46
F0.125
S'able'
p169
I3
tp170
a(I14
I46
F0.875
S'music'
p171
I3
tp172
as(S'skyrocket'
p173
tp174
(lp175
(I1
I156
I0
S'great'
p176
I0
tp177
a(I1
I156
F1.0
S'good'
p178
I0
tp179
a(I4
I46
I0
S'current'
p180
I0
tp181
a(I4
I63
F-0.5
S'longer'
p182
I0
tp183
a(I4
I146
F0.125
S'last'
p184
I0
tp185
a(I4
I160
F0.375
S'available'
p186
I0
tp187
a(I4
I269
F0.125
S'impressive'
p188
I0
tp189
a(I5
I0
F-0.625
S'free'
p190
I0
tp191
a(I5
I15
I0
S'faster'
p192
I0
tp193
a(I5
I156
F0.5
S'comparable'
p194
I0
tp195
a(I7
I115
I0
S'plastic'
p196
I0
tp197
a(I7
I128
F1.0
S'good'
p198
I0
tp199
a(I7
I153
F-0.75
S'short'
p200
I0
tp201
a(I8
I8
F0.125
S'last'
p202
I0
tp203
a(I8
I56
I0
S'more'
p204
I0
tp205
a(I8
I110
F0.375
S'much'
p206
I0
tp207
a(I14
I49
F0.5
S'second'
p208
I0
tp209
as(S'front'
p210
S'facing'
p211
S'camera'
p212
tp213
(lp214
(I1
I108
I0
S'great'
p215
I0
tp216
a(I8
I152
F1.0
S'good'
p217
I0
tp218
a(I0
I2
F0.25
S'sharp'
p219
I1
tp220
a(I1
I5
F-0.5
S'complaint'
p221
I1
tp222
a(I1
I108
I0
g215
I1
tp223
a(I5
I38
I0
S'great'
p224
I1
tp225
a(I6
I26
F1.0
S'better'
p226
I1
tp227
a(I8
I28
I0
S'faster'
p228
I1
tp229
a(I8
I151
I0
S'different'
p230
I1
tp231
a(I8
I186
I0
S'more'
p232
I1
tp233
a(I8
I186
F0.25
S'sharp'
p234
I1
tp235
a(I8
I186
F-0.75
S'bright'
p236
I1
tp237
a(I8
I186
F0.125
S'colorful'
p238
I1
tp239
a(I8
I186
F0.5
S'clear'
p240
I1
tp241
a(I9
I33
F0.125
S'last'
p242
I1
tp243
a(I9
I89
F1.0
S'better'
p244
I1
tp245
a(I11
I46
F1.0
S'good'
p246
I1
tp247
as(S'speed'
p248
tp249
(lp250
(I5
I181
F0.625
S'superior'
p251
I9
tp252
a(I11
I41
I0
S'incredible'
p253
I9
tp254
as(S'google'
p255
tp256
(lp257
(I4
I244
F-0.125
S'refresh'
p258
I4
tp259
a(I8
I50
I-100
S'work-a-round'
p260
I4
tp261
as(S'a'
p262
S'samsung'
p263
S'galaxy'
p264
tp265
(lp266
(I4
I276
F-0.5
S'regular'
p267
I0
tp268
a(I4
I276
F-0.5
g267
I0
tp269
a(I4
I259
F-0.625
S'lighter'
p270
I7
tp271
a(I4
I276
F-0.5
g267
I7
tp272
a(I5
I189
I0
S'android'
p273
I7
tp274
a(I7
I42
F-0.125
S'overall'
p275
I7
tp276
a(I1
I46
F-0.625
S'other'
p277
I0
tp278
a(I4
I50
F-0.5
S'regular'
p279
I0
tp280
a(I4
I57
I0
S'standard'
p281
I0
tp282
a(I4
I58
F-0.5
S'less'
p283
I0
tp284
a(I4
I58
I0
S'standard'
p285
I0
tp286
a(I4
I90
F1.0
S'better'
p287
I0
tp288
a(I9
I33
F1.0
S'better'
p289
I0
tp290
as(S'better'
p291
S'than'
p292
S'iphone'
p293
tp294
(lp295
(I5
I96
F-0.125
S'overall'
p296
I0
tp297
a(I5
I96
F-0.5
S'sure'
p298
I0
tp299
a(I5
I96
F1.0
S'better'
p300
I0
tp301
a(I5
I96
F0.75
S'due'
p302
I0
tp303
a(I7
I26
F0.25
S'responsive'
p304
I0
tp305
a(I7
I26
I0
S'old'
p306
I0
tp307
a(I11
I39
F1.0
S'better'
p308
I0
tp309
a(I1
I67
F0.375
S'much'
p310
I1
tp311
a(I1
I67
F0.625
S'easier'
p312
I1
tp313
a(I1
I67
F0.75
S'due'
p314
I1
tp315
a(I1
I80
F0.75
S'due'
p316
I1
tp317
a(I1
I98
I0
S'old'
p318
I1
tp319
a(I4
I80
F-0.75
S'painful'
p320
I1
tp321
a(I4
I88
F1.0
S'best'
p322
I1
tp323
a(I4
I94
F0.375
S'available'
p324
I1
tp325
a(I4
I220
I0
S'old'
p326
I1
tp327
a(I4
I222
I0
S'old'
p328
I1
tp329
a(I4
I222
I-100
S'3gs-android'
p330
I1
tp331
a(I4
I237
F0.875
S'happy'
p332
I1
tp333
a(I5
I8
I0
S'such'
p334
I1
tp335
a(I5
I8
I-100
S'non-brainer'
p336
I1
tp337
a(I5
I8
F0.375
S'flash'
p338
I1
tp339
a(I5
I96
F-0.125
g296
I1
tp340
a(I5
I96
F-0.5
g298
I1
tp341
a(I5
I96
F1.0
g300
I1
tp342
a(I5
I96
F0.75
g302
I1
tp343
a(I5
I212
I0
S'faster'
p344
I1
tp345
a(I6
I23
F0.5
S'loyal'
p346
I1
tp347
a(I7
I26
F0.25
g304
I1
tp348
a(I7
I26
I0
g306
I1
tp349
a(I7
I88
I-100
S'all-mighty'
p350
I1
tp351
a(I7
I106
F0.25
S'original'
p352
I1
tp353
a(I8
I65
F-0.5
S'long'
p354
I1
tp355
a(I11
I23
F0.625
S'perfect'
p356
I1
tp357
a(I11
I26
F0.125
S'first'
p358
I1
tp359
a(I11
I39
F1.0
g308
I1
tp360
a(I14
I5
F1.0
S'good'
p361
I1
tp362
a(I14
I17
F0.25
S'original'
p363
I1
tp364
as(S'android'
p365
tp366
(lp367
(I1
I11
F0.125
S'able'
p368
I0
tp369
a(I1
I141
F0.125
S'first'
p370
I0
tp371
a(I4
I131
F1.0
S'best'
p372
I0
tp373
a(I4
I159
F1.0
S'best'
p374
I0
tp375
a(I4
I272
F0.125
S'first'
p376
I0
tp377
a(I11
I51
I0
S'final'
p378
I0
tp379
as(S'larger'
p380
S'screen'
p381
tp382
(lp383
(I4
I69
F0.25
S'larger'
p384
I0
tp385
a(I4
I69
I0
S'same'
p386
I0
tp387
a(I5
I75
I0
S'most'
p388
I0
tp389
a(I5
I75
F0.25
S'larger'
p390
I0
tp391
a(I5
I181
F0.25
g7
I0
tp392
a(I5
I234
I0
g9
I0
tp393
a(I7
I100
F0.25
S'larger'
p394
I0
tp395
a(I8
I71
F0.25
S'larger'
p396
I0
tp397
a(I14
I35
F0.25
S'larger'
p398
I0
tp399
a(I14
I35
F0.625
S'easier'
p400
I0
tp401
a(I14
I37
F0.25
S'larger'
p402
I0
tp403
as(S'voice'
p404
tp405
(lp406
(I4
I22
F-0.5
S'open'
p407
I4
tp408
a(I4
I138
F-0.25
S'google'
p409
I4
tp410
a(I9
I83
F1.0
S'good'
p411
I4
tp412
as(S'large'
p413
S'screen'
p414
tp415
(lp416
(I3
I21
I0
S'large'
p417
I3
tp418
a(I4
I69
F0.25
g384
I3
tp419
a(I4
I69
I0
g386
I3
tp420
a(I4
I130
I0
S'large'
p421
I3
tp422
a(I4
I225
I0
S'large'
p423
I3
tp424
a(I5
I36
I0
S'large'
p425
I3
tp426
a(I5
I36
F-0.75
S'bright'
p427
I3
tp428
a(I5
I75
I0
g388
I3
tp429
a(I5
I75
F0.25
g390
I3
tp430
a(I5
I165
I0
S'large'
p431
I3
tp432
a(I5
I181
F0.25
g7
I3
tp433
a(I5
I234
I0
g9
I3
tp434
a(I6
I43
I0
S'large'
p435
I3
tp436
a(I7
I100
F0.25
g394
I3
tp437
a(I8
I34
I0
S'large'
p438
I3
tp439
a(I8
I71
F0.25
g396
I3
tp440
a(I14
I35
F0.25
g398
I3
tp441
a(I14
I35
F0.625
g400
I3
tp442
a(I14
I37
F0.25
g402
I3
tp443
as(S'upgrade'
p444
tp445
(lp446
(I4
I146
F0.5
S'eligible'
p447
I3
tp448
a(I6
I46
F0.5
S'eligible'
p449
I3
tp450
a(I7
I42
F0.5
S'eligible'
p451
I3
tp452
a(I8
I37
F0.375
S'available'
p453
I3
tp454
a(I8
I72
I0
S'great'
p455
I3
tp456
a(I8
I135
I0
S'next'
p457
I3
tp458
as(S'bigger'
p459
S'screen'
p460
tp461
(lp462
(I4
I161
F0.25
S'bigger'
p463
I2
tp464
a(I4
I220
F0.25
S'bigger'
p465
I2
tp466
a(I5
I14
F0.25
S'bigger'
p467
I2
tp468
a(I5
I212
F0.25
S'bigger'
p469
I2
tp470
a(I5
I239
F0.25
S'bigger'
p471
I2
tp472
a(I7
I79
F0.25
S'bigger'
p473
I2
tp474
a(I11
I39
F0.25
S'bigger'
p475
I2
tp476
as(S'calls'
p477
tp478
(lp479
(I1
I89
F0.875
S'important'
p480
I0
tp481
a(I4
I2
F0.875
S'important'
p482
I0
tp483
a(I5
I91
F0.625
S'easy'
p484
I0
tp485
a(I7
I129
I0
S'great'
p486
I0
tp487
a(I11
I6
I0
S'few'
p488
I0
tp489
as(S'dual'
p490
S'core'
p491
S'processor'
p492
tp493
(lp494
(I14
I42
F-0.5
S'sure'
p495
I0
tp496
a(I14
I42
F-0.5
g495
I0
tp497
a(I7
I82
I0
S'faster'
p498
I1
tp499
a(I14
I42
F-0.5
g495
I1
tp500
as(S'unlimited'
p501
S'data'
p502
S'plan'
p503
tp504
(lp505
(I5
I117
F-0.5
S'unlimited'
p506
I0
tp507
a(I7
I66
F-0.375
S'simple'
p508
I0
tp509
a(I5
I117
F-0.5
g506
I0
tp510
a(I7
I66
F-0.375
g508
I0
tp511
a(I5
I103
F-0.5
S'separate'
p512
I0
tp513
a(I5
I117
F-0.5
g506
I0
tp514
a(I1
I44
F-0.625
g19
I13
tp515
a(I5
I103
F-0.5
g512
I13
tp516
a(I5
I117
F-0.5
g506
I13
tp517
a(I8
I10
F0.5
S'strong'
p518
I13
tp519
as(S'network'
p520
tp521
(lp522
(I11
I39
I0
S'faster'
p523
I0
tp524
as(S'much'
p525
S'better'
p526
tp527
(lp528
(I5
I168
F0.375
S'much'
p529
I9
tp530
as(S'wifi'
p531
tp532
(lp533
(I4
I138
F-0.75
S'off'
p534
I0
tp535
a(I5
I155
F-0.125
S'public'
p536
I0
tp537
a(I8
I10
I0
S'mobile'
p538
I0
tp539
a(I8
I193
I0
S'great'
p540
I0
tp541
as(S'apps'
p542
tp543
(lp544
(I1
I148
F-0.5
S'open'
p545
I0
tp546
a(I4
I16
I0
S'few'
p547
I0
tp548
a(I4
I67
F-0.875
S'load'
p549
I0
tp550
a(I4
I85
I0
S'fast'
p551
I0
tp552
a(I4
I107
F1.0
S'better'
p553
I0
tp554
a(I4
I149
F0.375
S'available'
p555
I0
tp556
a(I4
I179
I0
S'big'
p557
I0
tp558
a(I5
I83
F0.625
S'easy'
p559
I0
tp560
a(I5
I91
I0
S'great'
p561
I0
tp562
a(I5
I120
F0.375
S'available'
p563
I0
tp564
a(I5
I122
I0
S'own'
p565
I0
tp566
a(I5
I172
I0
S'great'
p567
I0
tp568
a(I5
I172
F-0.625
S'free'
p569
I0
tp570
a(I6
I17
F1.0
S'good'
p571
I0
tp572
a(I6
I35
F-0.625
S'free'
p573
I0
tp574
a(I6
I35
F0.5
S'expensive'
p575
I0
tp576
a(I6
I109
I0
S'many'
p577
I0
tp578
a(I7
I43
I0
S'many'
p579
I0
tp580
a(I7
I126
F0.375
S'available'
p581
I0
tp582
a(I7
I126
I0
S'exclusive'
p583
I0
tp584
a(I7
I147
I0
S'multiple'
p585
I0
tp586
a(I8
I117
F0.625
S'aware'
p587
I0
tp588
a(I8
I118
F-0.625
S'free'
p589
I0
tp590
a(I8
I127
F-0.625
S'free'
p591
I0
tp592
a(I8
I191
F-0.625
S'free'
p593
I0
tp594
a(I11
I15
F-0.625
S'other'
p595
I0
tp596
a(I11
I33
I0
S'only'
p597
I0
tp598
a(I11
I35
I0
S'such'
p599
I0
tp600
a(I11
I39
F0.625
S'easier'
p601
I0
tp602
a(I13
I3
I0
S'android'
p603
I0
tp604
as(S'amazon'
p605
tp606
(lp607
(I6
I81
F0.5
S'told'
p608
I13
tp609
a(I6
I94
F-0.875
S'unhappy'
p610
I13
tp611
a(I14
I0
I0
S'wish'
p612
I13
tp613
as.