(dp0
(S'screen'
p1
S'size'
p2
tp3
(lp4
(I4
I24
F0.25
S'sharp'
p5
I3
tp6
a(I5
I9
I0
S'big'
p7
I3
tp8
a(I15
I3
F1.0
S'good'
p9
I3
tp10
a(I15
I15
F0.25
S'bigger'
p11
I3
tp12
a(I16
I51
I0
S'big'
p13
I3
tp14
a(I17
I19
I0
S'great'
p15
I3
tp16
a(I17
I199
F0.375
S'honest'
p17
I3
tp18
a(I17
I199
F-0.5
S'sure'
p19
I3
tp20
a(I17
I199
I0
S'big'
p21
I3
tp22
a(I25
I35
F0.875
S'nice'
p23
I3
tp24
a(I25
I35
I0
S'large'
p25
I3
tp26
a(I25
I76
I0
S'great'
p27
I3
tp28
a(I25
I76
I0
S'big'
p29
I3
tp30
a(I25
I76
I0
S'great'
p31
I3
tp32
a(I25
I76
F0.75
S'beautiful'
p33
I3
tp34
a(I30
I63
F-0.75
S'bright'
p35
I3
tp36
as(S'samsung'
p37
S'galaxy'
p38
S'note'
p39
tp40
(lp41
(I25
I26
F0.125
S'able'
p42
I0
tp43
a(I30
I90
F0.125
S'capable'
p44
I0
tp45
a(I25
I26
F0.125
g42
I0
tp46
a(I30
I90
F0.125
g44
I0
tp47
a(I7
I37
I0
S'different'
p48
I0
tp49
a(I7
I37
F-0.5
S'less'
p50
I0
tp51
a(I9
I0
I0
S'diminutive'
p52
I0
tp53
a(I17
I119
F0.625
S'easier'
p54
I0
tp55
a(I29
I25
F-0.125
S'bean'
p56
I0
tp57
a(I1
I51
I0
S'common'
p58
I7
tp59
a(I1
I51
F0.75
S'give'
p60
I7
tp61
a(I2
I19
I0
S'big'
p62
I7
tp63
a(I4
I0
F0.5
S'second'
p64
I7
tp65
a(I9
I63
F0.25
S'larger'
p66
I7
tp67
a(I12
I115
I-100
S'on/'
p68
I7
tp69
a(I17
I140
I0
S'european'
p70
I7
tp71
a(I24
I17
I0
S'android'
p72
I7
tp73
a(I25
I26
F0.125
g42
I7
tp74
a(I30
I90
F0.125
g44
I7
tp75
a(I30
I140
F-0.375
S'small'
p76
I7
tp77
a(I30
I140
F-0.375
S'manual'
p78
I7
tp79
a(I30
I193
F0.875
S'happy'
p80
I7
tp81
a(I5
I48
I0
S'latest'
p82
I0
tp83
a(I5
I48
F-0.375
S'smaller'
p84
I0
tp85
a(I7
I37
I0
g48
I0
tp86
a(I9
I0
I0
g52
I0
tp87
a(I17
I69
F-0.625
S'light'
p88
I0
tp89
a(I29
I25
F-0.125
g56
I0
tp90
as(S'super'
p91
S'amoled'
p92
S'hd'
p93
tp94
(lp95
(I12
I111
F-0.625
S'other'
p96
I0
tp97
as(S'battery'
p98
S'life'
p99
tp100
(lp101
(I4
I26
I0
S'great'
p102
I1
tp103
a(I8
I0
F1.0
S'better'
p104
I1
tp105
a(I9
I80
F1.0
S'better'
p106
I1
tp107
a(I9
I80
I0
S'great'
p108
I1
tp109
a(I10
I0
F1.0
S'good'
p110
I1
tp111
a(I14
I42
F1.0
S'good'
p112
I1
tp113
a(I25
I73
F1.0
S'better'
p114
I1
tp115
a(I30
I31
F0.375
S'extra'
p116
I1
tp117
a(I30
I31
I0
S'external'
p118
I1
tp119
a(I31
I11
F1.0
S'good'
p120
I1
tp121
a(I4
I26
I0
g102
I19
tp122
a(I9
I80
F1.0
g106
I19
tp123
a(I9
I80
I0
g108
I19
tp124
a(I10
I0
F1.0
g110
I19
tp125
a(I14
I42
F1.0
g112
I19
tp126
a(I1
I37
F0.625
S'decent'
p127
I15
tp128
a(I2
I0
F-0.75
S'dead'
p129
I15
tp130
a(I7
I34
F0.125
S'last'
p131
I15
tp132
a(I8
I0
F1.0
g104
I15
tp133
a(I9
I87
F0.5
S'added'
p134
I15
tp135
a(I9
I87
F0.375
S'watch'
p136
I15
tp137
a(I12
I90
I0
S'big'
p138
I15
tp139
a(I17
I38
F1.0
S'best'
p140
I15
tp141
a(I22
I8
F-0.375
S'daily'
p142
I15
tp143
a(I25
I20
I0
S'real'
p144
I15
tp145
a(I25
I73
F1.0
g114
I15
tp146
a(I25
I103
F0.125
S'last'
p147
I15
tp148
a(I25
I103
F-0.5
S'long'
p149
I15
tp150
a(I30
I31
F0.375
g116
I15
tp151
a(I30
I31
I0
g118
I15
tp152
a(I30
I185
F-0.5
S'less'
p153
I15
tp154
a(I30
I200
F0.125
S'last'
p155
I15
tp156
a(I31
I11
F1.0
g120
I15
tp157
as(S'text'
p158
tp159
(lp160
(I12
I96
F0.625
S'easy'
p161
I18
tp162
a(I17
I53
F0.75
S'receive'
p163
I18
tp164
a(I30
I8
F-0.375
S'simple'
p165
I18
tp166
a(I30
I15
I0
S'more'
p167
I18
tp168
a(I30
I15
F-0.75
S'short'
p169
I18
tp170
as(S'tablet'
p171
tp172
(lp173
(I2
I4
F1.0
S'best'
p174
I14
tp175
a(I2
I4
F-0.375
S'small'
p176
I14
tp177
a(I7
I45
F-0.5
S'less'
p178
I14
tp179
a(I16
I56
F0.25
S'larger'
p180
I14
tp181
a(I17
I164
F0.25
S'portable'
p182
I14
tp183
a(I24
I23
F0.375
S'extra'
p184
I14
tp185
a(I30
I94
F-0.625
S'other'
p186
I14
tp187
a(I30
I96
I0
S'hybrid'
p188
I14
tp189
a(I30
I182
I0
S'big'
p190
I14
tp191
as(S'camera'
p192
tp193
(lp194
(I12
I98
F1.0
S'best'
p195
I1
tp196
a(I17
I58
F0.125
S'digital'
p197
I1
tp198
a(I17
I188
F1.0
S'good'
p199
I1
tp200
a(I30
I72
F0.125
S'capable'
p201
I1
tp202
a(I30
I72
I0
S'most'
p203
I1
tp204
as(S'inch'
p205
S'screen'
p206
tp207
(lp208
(I9
I50
I0
S'big'
p209
I0
tp210
a(I30
I63
F-0.75
g35
I0
tp211
as(S's'
p212
S'pen'
p213
S'stylus'
p214
tp215
(lp216
(I10
I18
F0.875
S'nice'
p217
I0
tp218
a(I10
I20
F-0.375
S'small'
p219
I0
tp220
a(I30
I103
I0
S'active'
p221
I0
tp222
as(S'iphone'
p223
tp224
(lp225
(I7
I56
F-0.625
S'glad'
p226
I1
tp227
a(I7
I56
F0.375
S'new'
p228
I1
tp229
a(I17
I206
F-0.625
S'sometime'
p230
I1
tp231
a(I25
I86
I-100
S"'neither"
p232
I1
tp233
a(I25
I92
F-0.5
S'sure'
p234
I1
tp235
a(I31
I1
F-0.75
S'sick'
p236
I1
tp237
as(S'u'
p238
g212
S'warranty'
p239
tp240
(lp241
(I14
I14
I0
S'full'
p242
I0
tp243
a(I14
I14
I0
g242
I2
tp244
as(S'internet'
p245
tp246
(lp247
(I17
I31
I0
S'faster'
p248
I6
tp249
a(I25
I104
F-0.625
S'other'
p250
I6
tp251
as(S'mobile'
p252
tp253
(lp254
(I17
I184
F0.25
S'unlocked'
p255
I0
tp256
as(S'poor'
p257
S'customer'
p258
S'service'
p259
tp260
(lp261
(I18
I3
F-0.5
S'poor'
p262
I0
tp263
a(I18
I5
F-0.5
S'poor'
p264
I0
tp265
a(I18
I8
I0
S'very'
p266
I0
tp267
a(I18
I8
F-0.5
S'poor'
p268
I0
tp269
a(I18
I17
F-0.5
S'poor'
p270
I0
tp271
a(I12
I14
F0.25
S'helpful'
p272
I3
tp273
a(I15
I26
F-0.875
S'worst'
p274
I3
tp275
a(I18
I3
F-0.5
g262
I3
tp276
a(I18
I5
F-0.5
g264
I3
tp277
a(I18
I8
F-0.5
g268
I3
tp278
a(I18
I17
F-0.5
g270
I3
tp279
a(I18
I22
F1.0
S'better'
p280
I3
tp281
a(I9
I157
F0.375
S'much'
p282
I16
tp283
a(I12
I14
F0.25
g272
I16
tp284
a(I17
I82
F0.75
S'due'
p285
I16
tp286
a(I9
I105
I0
S'more'
p287
I11
tp288
a(I15
I26
F-0.875
g274
I11
tp289
a(I18
I3
F-0.5
g262
I11
tp290
a(I18
I5
F-0.5
g264
I11
tp291
a(I18
I8
F-0.5
g268
I11
tp292
a(I18
I17
F-0.5
g270
I11
tp293
a(I18
I22
F1.0
g280
I11
tp294
as(S'android'
p295
tp296
(lp297
(I1
I5
I-100
S'os-dropped'
p298
I0
tp299
a(I5
I13
F0.625
S'easy'
p300
I0
tp301
a(I25
I1
F1.0
S'best'
p302
I0
tp303
a(I30
I179
F0.375
S'newest'
p304
I0
tp305
a(I31
I14
I0
S'many'
p306
I0
tp307
a(I31
I14
I0
S'different'
p308
I0
tp309
as(S'ice'
p310
S'cream'
p311
tp312
(lp313
(I9
I109
F0.875
S'important'
p314
I2
tp315
a(I9
I109
F0.125
S'able'
p316
I2
tp317
a(I29
I3
I0
S'android'
p318
I2
tp319
as(S'big'
p320
S'screen'
p321
tp322
(lp323
(I5
I1
I0
S'big'
p324
I1
tp325
a(I5
I9
I0
g7
I1
tp326
a(I5
I15
I0
S'big'
p327
I1
tp328
a(I6
I4
I0
S'big'
p329
I1
tp330
a(I9
I50
I0
g209
I1
tp331
a(I12
I70
I0
S'big'
p332
I1
tp333
a(I17
I19
I0
g15
I1
tp334
a(I17
I157
I0
S'big'
p335
I1
tp336
a(I17
I182
F0.25
S'bigger'
p337
I1
tp338
a(I17
I199
F0.375
g17
I1
tp339
a(I17
I199
F-0.5
g19
I1
tp340
a(I17
I212
I0
S'big'
p341
I1
tp342
a(I20
I6
I0
S'such'
p343
I1
tp344
a(I20
I6
I0
S'large'
p345
I1
tp346
a(I25
I76
I0
g29
I1
tp347
a(I25
I76
I0
g31
I1
tp348
a(I25
I76
F0.75
g33
I1
tp349
a(I30
I3
F0.25
S'larger'
p350
I1
tp351
as(S'car'
p352
S'dock'
p353
tp354
(lp355
(I9
I148
I0
S'very'
p356
I0
tp357
a(I9
I148
I0
S'few'
p358
I0
tp359
a(I9
I148
I0
S'integrated'
p360
I0
tp361
as(S'contact'
p362
S'cleaner'
p363
tp364
(lp365
(I17
I143
F-0.625
S'cleaner'
p366
I0
tp367
as(S'data'
p368
tp369
(lp370
(I9
I77
F1.0
S'good'
p371
I13
tp372
a(I15
I22
F0.375
S'new'
p373
I13
tp374
a(I15
I22
I0
S'old'
p375
I13
tp376
a(I15
I24
I0
S'old'
p377
I13
tp378
a(I29
I23
F0.125
S'supplied'
p379
I13
tp380
a(I29
I23
I0
S'cable'
p381
I13
tp382
a(I30
I180
F0.5
S'compatible'
p383
I13
tp384
as(S'international'
p385
S'version'
p386
tp387
(lp388
(I0
I0
F0.25
S'unlocked'
p389
I0
tp390
a(I1
I9
F-0.5
S'international'
p391
I0
tp392
a(I1
I37
F-0.5
S'international'
p393
I0
tp394
a(I19
I7
F-0.5
S'international'
p395
I0
tp396
a(I24
I21
F0.25
S'unlocked'
p397
I0
tp398
a(I24
I21
F-0.5
S'international'
p399
I0
tp400
a(I25
I107
F-0.5
S'international'
p401
I0
tp402
a(I25
I113
F-0.5
S'international'
p403
I0
tp404
a(I26
I1
F-0.5
S'international'
p405
I0
tp406
as(S'pocket'
p407
tp408
(lp409
(I7
I22
F1.0
S'like'
p410
I17
tp411
a(I16
I49
F-0.125
S'breast'
p412
I17
tp413
a(I17
I45
F1.0
S'like'
p414
I17
tp415
a(I17
I166
F-0.25
S'thin'
p416
I17
tp417
a(I17
I166
F-0.625
S'light'
p418
I17
tp419
a(I25
I2
I0
S'big'
p420
I17
tp421
a(I25
I97
I0
S'lightweight'
p422
I17
tp423
as(S'wifi'
p424
tp425
(lp426
(I9
I100
F-0.625
S'free'
p427
I0
tp428
as(S'apps'
p429
tp430
(lp431
(I1
I4
F-0.125
S'slow'
p432
I0
tp433
a(I5
I16
F0.125
S'plenty'
p434
I0
tp435
a(I5
I18
F0.375
S'available'
p436
I0
tp437
a(I9
I89
F-0.625
S'other'
p438
I0
tp439
a(I17
I57
I0
S'exclusive'
p440
I0
tp441
a(I17
I101
F0.125
S'popular'
p442
I0
tp443
a(I17
I101
I0
S'chinese'
p444
I0
tp445
a(I17
I102
F0.125
S'native'
p446
I0
tp447
a(I17
I102
I0
S'chinese'
p448
I0
tp449
a(I17
I106
F-0.625
S'free'
p450
I0
tp451
a(I17
I169
I0
S'many'
p452
I0
tp453
a(I27
I12
I0
S'many'
p454
I0
tp455
a(I30
I11
F0.375
S'available'
p456
I0
tp457
as(S'amazon'
p458
tp459
(lp460
(I9
I112
F1.0
S'good'
p461
I13
tp462
a(I9
I115
F-0.625
S'other'
p463
I13
tp464
a(I12
I13
F-0.25
S'order'
p465
I13
tp466
a(I18
I1
I-100
S'star-rated'
p467
I13
tp468
a(I30
I79
I-100
S'g-note'
p469
I13
tp470
a(I30
I109
F0.25
S'main'
p471
I13
tp472
a(I30
I112
F-0.25
S'direct'
p473
I13
tp474
as(S'one'
p475
S'hand'
p476
tp477
(lp478
(I2
I43
F-0.75
S'impossible'
p479
I2
tp480
a(I15
I9
I0
S'more'
p481
I2
tp482
as.