(dp0
(S'battery'
p1
S'life'
p2
tp3
(lp4
(I19
I8
I0
S'great'
p5
I1
tp6
a(I19
I20
F0.375
S'reliable'
p7
I1
tp8
a(I3
I36
F0.25
S'original'
p9
I15
tp10
a(I4
I0
F0.375
S'new'
p11
I15
tp12
a(I21
I9
F0.375
S'new'
p13
I15
tp14
as(S'calls'
p15
tp16
(lp17
(I3
I59
I0
S'few'
p18
I0
tp19
a(I5
I0
I0
S'basic'
p20
I0
tp21
as(S'smart'
p22
tp23
(lp24
(I16
I1
I0
S'great'
p25
I10
tp26
as(S'text'
p27
tp28
(lp29
(I23
I14
I0
S'old'
p30
I18
tp31
as(S'replacement'
p32
tp33
(lp34
(I2
I8
F-0.25
S'direct'
p35
I13
tp36
a(I9
I3
I0
S'quick'
p37
I13
tp38
a(I17
I22
I0
S'exact'
p39
I13
tp40
as(S'take'
p41
S'pictures'
p42
tp43
(lp44
(I3
I47
F0.625
S'decent'
p45
I0
tp46
as(S'prepaid'
p47
tp48
(lp49
(I11
I0
I0
S'different'
p50
I0
tp51
as(S'same'
p52
S'model'
p53
tp54
(lp55
(I15
I8
I0
S'same'
p56
I2
tp57
a(I15
I11
I0
S'same'
p58
I2
tp59
a(I23
I28
I0
S'same'
p60
I2
tp61
as(S'verizon'
p62
tp63
(lp64
(I1
I1
I0
S'local'
p65
I0
tp66
a(I2
I25
F0.375
S'new'
p67
I0
tp68
a(I3
I13
F0.5
S'compatible'
p69
I0
tp70
a(I9
I10
F-0.25
S'loose'
p71
I0
tp72
a(I11
I9
F-0.625
S'other'
p73
I0
tp74
a(I11
I29
F-0.5
S'sure'
p75
I0
tp76
a(I23
I7
F0.125
S'able'
p77
I0
tp78
as(S'flip'
p79
tp80
(lp81
(I3
I51
F-0.375
S'simple'
p82
I4
tp83
a(I7
I5
F0.625
S'easy'
p84
I4
tp85
a(I7
I18
F0.875
S'happy'
p86
I4
tp87
a(I13
I1
I0
S'cool'
p88
I4
tp89
as(S'exact'
p90
S'same'
p91
tp92
(lp93
(I2
I1
I0
S'exact'
p94
I2
tp95
a(I3
I40
I0
S'exact'
p96
I2
tp97
as.