(dp0
(S'battery'
p1
S'life'
p2
tp3
(lp4
(I0
I26
F0.875
S'nice'
p5
I1
tp6
a(I1
I2
I0
S'great'
p7
I1
tp8
a(I1
I32
F1.0
S'good'
p9
I1
tp10
a(I3
I11
F-0.625
S'average'
p11
I1
tp12
a(I3
I112
F-0.5
S'complaint'
p13
I1
tp14
a(I3
I112
F-0.5
S'longer'
p15
I1
tp16
a(I3
I114
F-0.5
S'poorest'
p17
I1
tp18
a(I5
I0
I0
S'great'
p19
I1
tp20
a(I6
I20
F-0.5
S'poor'
p21
I1
tp22
a(I10
I1
F1.0
S'good'
p23
I1
tp24
a(I1
I2
I0
g7
I19
tp25
a(I3
I11
F-0.625
g11
I19
tp26
a(I3
I112
F-0.5
g15
I19
tp27
a(I6
I20
F-0.5
g21
I19
tp28
a(I10
I1
F1.0
g23
I19
tp29
a(I0
I26
F0.875
g5
I15
tp30
a(I1
I32
F1.0
g9
I15
tp31
a(I3
I112
F-0.5
g13
I15
tp32
a(I3
I114
F-0.5
g17
I15
tp33
a(I5
I0
I0
g19
I15
tp34
a(I7
I75
F0.625
S'easy'
p35
I15
tp36
a(I7
I133
I0
S'great'
p37
I15
tp38
a(I16
I15
F0.375
S'new'
p39
I15
tp40
as(S'many'
p41
S'years'
p42
tp43
(lp44
(I3
I104
F-0.125
S'mine'
p45
I3
tp46
a(I3
I104
I0
S'many'
p47
I3
tp48
a(I7
I61
I0
S'many'
p49
I3
tp50
a(I14
I98
I0
S'many'
p51
I3
tp52
as(S'usb'
p53
S'cable'
p54
tp55
(lp56
(I0
I23
I0
S'proprietary'
p57
I2
tp58
a(I0
I23
I0
S'cable'
p59
I2
tp60
a(I7
I122
I0
S'cable'
p61
I2
tp62
as(S'smartphone'
p63
tp64
(lp65
(I1
I14
F0.5
S'true'
p66
I0
tp67
a(I7
I45
I0
S'real'
p68
I0
tp69
a(I11
I86
F0.125
S'capable'
p70
I0
tp71
a(I19
I59
F0.125
S'capable'
p72
I0
tp73
as(S'keys'
p74
tp75
(lp76
(I0
I17
F0.625
S'easier'
p77
I9
tp78
a(I0
I20
F-0.375
S'small'
p79
I9
tp80
a(I1
I33
F0.25
S'larger'
p81
I9
tp82
a(I11
I95
I0
S'alternate'
p83
I9
tp84
as(S'call'
p85
S'quality'
p86
tp87
(lp88
(I3
I1
F1.0
S'good'
p89
I0
tp90
a(I3
I27
F1.0
S'good'
p91
I0
tp92
a(I3
I29
F1.0
S'good'
p93
I0
tp94
a(I3
I33
F0.5
S'comparable'
p95
I0
tp96
a(I14
I56
F1.0
S'good'
p97
I0
tp98
a(I15
I20
F1.0
S'good'
p99
I0
tp100
a(I16
I2
F1.0
S'good'
p101
I0
tp102
as(S'works'
p103
S'fine'
p104
tp105
(lp106
(I7
I23
F-0.5
S'sure'
p107
I9
tp108
as(S'qwerty'
p109
S'keyboard'
p110
tp111
(lp112
(I11
I47
I0
S'full'
p113
I0
tp114
a(I16
I29
F-0.375
S'small'
p115
I0
tp116
a(I20
I29
F0.625
S'easy'
p117
I0
tp118
a(I11
I47
I0
g113
I0
tp119
a(I19
I1
I0
S'fast'
p120
I0
tp121
a(I20
I29
F0.625
g117
I0
tp122
a(I6
I12
F-0.375
S'small'
p123
I2
tp124
a(I6
I12
F0.625
S'easy'
p125
I2
tp126
a(I7
I73
F0.625
S'easy'
p127
I2
tp128
a(I7
I94
I0
S'full'
p129
I2
tp130
a(I11
I18
F-0.375
S'small'
p131
I2
tp132
a(I11
I94
I0
S'alternate'
p133
I2
tp134
a(I16
I29
F-0.375
g115
I2
tp135
a(I19
I37
F-0.375
S'small'
p136
I2
tp137
a(I19
I74
F0.625
S'easy'
p138
I2
tp139
as(S'pantech'
p140
tp141
(lp142
(I3
I32
I0
S'more'
p143
I0
tp144
a(I3
I32
F-0.75
S'comfortable'
p145
I0
tp146
a(I3
I33
F-0.75
S'hate'
p147
I0
tp148
a(I7
I15
F-0.625
S'other'
p149
I0
tp150
a(I7
I58
F-0.5
S'sure'
p151
I0
tp152
a(I15
I19
F0.375
S'new'
p153
I0
tp154
as(S'internet'
p155
tp156
(lp157
(I7
I33
F-0.375
S'daily'
p158
I6
tp159
a(I7
I111
F-0.125
S'slow'
p160
I6
tp161
a(I11
I98
F0.875
S'music'
p162
I6
tp163
a(I16
I11
F0.125
S'first'
p164
I6
tp165
a(I16
I11
F1.0
S'good'
p166
I6
tp167
a(I16
I11
I0
S'signal'
p168
I6
tp169
as(S'mobile'
p170
tp171
(lp172
(I14
I7
F-0.625
S'average'
p173
I0
tp174
as(S'calls'
p175
tp176
(lp177
(I3
I95
F-0.625
S'bad'
p178
I0
tp179
a(I14
I30
I0
S'local'
p180
I0
tp181
as(S'text'
p182
S'messages'
p183
tp184
(lp185
(I0
I3
I0
S'old'
p186
I0
tp187
a(I3
I15
I0
S'few'
p188
I0
tp189
a(I3
I114
I0
S'text'
p190
I0
tp191
a(I10
I2
F-0.375
S'daily'
p192
I0
tp193
a(I10
I2
I0
S'full'
p194
I0
tp195
a(I11
I11
I0
S'many'
p196
I0
tp197
a(I16
I9
I0
S'text'
p198
I0
tp199
a(I11
I11
I0
g196
I18
tp200
a(I14
I3
F0.375
S'new'
p201
I18
tp202
a(I0
I3
I0
g186
I1
tp203
a(I0
I31
I0
S'old'
p204
I1
tp205
a(I3
I15
I0
g188
I1
tp206
a(I3
I114
I0
g190
I1
tp207
a(I7
I69
F0.375
S'new'
p208
I1
tp209
a(I7
I70
I0
S'old'
p210
I1
tp211
a(I10
I2
F-0.375
g192
I1
tp212
a(I10
I2
I0
g194
I1
tp213
a(I16
I9
I0
g198
I1
tp214
as(S'camera'
p215
tp216
(lp217
(I0
I32
F1.0
S'good'
p218
I1
tp219
a(I4
I8
F1.0
S'good'
p220
I1
tp221
a(I11
I53
F1.0
S'best'
p222
I1
tp223
a(I18
I7
I0
S'great'
p224
I1
tp225
a(I18
I13
I0
S'great'
p226
I1
tp227
a(I19
I67
F0.625
S'kind'
p228
I1
tp229
a(I19
I67
F-0.5
S'weak'
p230
I1
tp231
as(S'a'
p232
S'data'
p233
S'plan'
p234
tp235
(lp236
(I7
I50
I0
S'same'
p237
I0
tp238
a(I7
I97
F-0.5
S'unlimited'
p239
I0
tp240
a(I14
I115
I0
S'traditional'
p241
I0
tp242
a(I19
I53
F1.0
S'good'
p243
I0
tp244
a(I7
I50
I0
g237
I0
tp245
a(I7
I97
F-0.5
g239
I0
tp246
a(I14
I115
I0
g241
I0
tp247
a(I19
I53
F1.0
g243
I0
tp248
a(I7
I97
F-0.5
g239
I13
tp249
a(I14
I115
I0
g241
I13
tp250
a(I19
I53
F1.0
g243
I13
tp251
as(S'car'
p252
S'charger'
p253
tp254
(lp255
(I0
I23
F0.375
S'extra'
p256
I0
tp257
as(g232
S'sim'
p258
S'card'
p259
tp260
(lp261
(I1
I30
F0.5
S'told'
p262
I0
tp263
a(I9
I3
I0
S'local'
p264
I0
tp265
a(I9
I3
F0.625
S'perfect'
p266
I0
tp267
a(I14
I36
F0.375
S'new'
p268
I0
tp269
a(I15
I5
F-0.5
S'separate'
p270
I0
tp271
a(I20
I38
F0.375
S'new'
p272
I0
tp273
a(I1
I30
F0.5
g262
I0
tp274
a(I9
I3
I0
g264
I0
tp275
a(I9
I3
F0.625
g266
I0
tp276
a(I14
I36
F0.375
g268
I0
tp277
a(I15
I5
F-0.5
g270
I0
tp278
a(I20
I38
F0.375
g272
I0
tp279
as(S'monthly'
p280
S'charge'
p281
tp282
(lp283
(I11
I103
I0
S'monthly'
p284
I0
tp285
as(S'texts'
p286
tp287
(lp288
(I3
I20
F-0.25
S'low'
p289
I0
tp290
a(I3
I79
F-0.125
S'delete'
p291
I0
tp292
a(I3
I79
I0
S'full'
p293
I0
tp294
a(I3
I82
I0
S'full'
p295
I0
tp296
a(I3
I82
F0.375
S'new'
p297
I0
tp298
a(I11
I20
F-0.125
S'slow'
p299
I0
tp300
a(I20
I2
I0
S'few'
p301
I0
tp302
as(S'texting'
p303
tp304
(lp305
(I7
I138
F0.375
S'meant'
p306
I0
tp307
a(I12
I0
F-0.25
S'thin'
p308
I0
tp309
a(I15
I23
F1.0
S'good'
p310
I0
tp311
a(I16
I2
F0.625
S'easy'
p312
I0
tp313
a(I19
I50
F1.0
S'good'
p314
I0
tp315
a(I20
I28
I-100
S'occcasional'
p316
I0
tp317
as(S'amazon'
p318
tp319
(lp320
(I11
I84
I-100
S'elgible'
p321
I13
tp322
a(I11
I84
F0.375
S'prime'
p323
I13
tp324
as.