(dp0
(S'thanks'
p1
tp2
(lp3
(I65
I7
I0
S'big'
p4
I12
tp5
as(S'apple'
p6
S'products'
p7
tp8
(lp9
(I13
I16
F-0.625
S'other'
p10
I0
tp11
as(S'customer'
p12
tp13
(lp14
(I13
I11
I0
S'quick'
p15
I11
tp16
a(I35
I15
F-0.25
S'low'
p17
I11
tp18
a(I63
I10
F-0.625
S'other'
p19
I11
tp20
a(I63
I10
I0
S'electronic'
p21
I11
tp22
a(I63
I10
F-0.5
S'sure'
p23
I11
tp24
as(S'service'
p25
tp26
(lp27
(I0
I46
F1.0
S'good'
p28
I16
tp29
a(I6
I2
F-0.5
S'certain'
p30
I16
tp31
a(I55
I20
I0
S'incredible'
p32
I16
tp33
a(I58
I10
F-0.625
S'free'
p34
I16
tp35
a(I66
I11
F1.0
S'good'
p36
I16
tp37
as(S'new'
p38
S'iphone'
p39
tp40
(lp41
(I9
I14
F0.375
S'newer'
p42
I0
tp43
a(I12
I0
F0.375
S'new'
p44
I0
tp45
a(I12
I0
I0
S'unbelievable'
p46
I0
tp47
a(I21
I1
F0.375
S'new'
p48
I0
tp49
a(I21
I3
F0.375
S'new'
p50
I0
tp51
a(I30
I1
F0.375
S'new'
p52
I0
tp53
a(I38
I4
F0.375
S'new'
p54
I0
tp55
a(I38
I6
F0.375
S'new'
p56
I0
tp57
a(I44
I2
F0.375
S'new'
p58
I0
tp59
a(I44
I16
F0.375
S'new'
p60
I0
tp61
a(I61
I9
I0
S'earlier'
p62
I0
tp63
as(S'many'
p64
S'times'
p65
tp66
(lp67
(I20
I0
I0
S'many'
p68
I5
tp69
a(I35
I13
I0
S'many'
p70
I5
tp71
as(S'an'
p72
S'unlocked'
p73
S'iphone'
p74
tp75
(lp76
(I0
I1
F-0.75
S'wrong'
p77
I0
tp78
a(I9
I14
F0.375
g42
I0
tp79
a(I22
I12
F0.25
S'unlocked'
p80
I0
tp81
a(I30
I1
F0.375
g52
I0
tp82
a(I34
I0
I0
S'same'
p83
I0
tp84
a(I38
I4
F0.375
g54
I0
tp85
a(I64
I5
F0.25
S'unlocked'
p86
I0
tp87
a(I66
I17
I0
S'january'
p88
I0
tp89
a(I0
I1
F-0.75
g77
I0
tp90
a(I9
I14
F0.375
g42
I0
tp91
a(I22
I12
F0.25
g80
I0
tp92
a(I30
I1
F0.375
g52
I0
tp93
a(I34
I0
I0
g83
I0
tp94
a(I38
I4
F0.375
g54
I0
tp95
a(I64
I5
F0.25
g86
I0
tp96
a(I66
I17
I0
g88
I0
tp97
as(S'to'
p98
S'apple'
p99
S'store'
p100
tp101
(lp102
(I53
I27
F0.5
S'told'
p103
I0
tp104
a(I53
I27
F0.5
g103
I0
tp105
a(I9
I16
F-0.5
S'less'
p106
I4
tp107
a(I10
I3
F-0.75
S'unable'
p108
I4
tp109
a(I13
I16
F-0.625
g10
I4
tp110
a(I22
I12
F0.5
S'whole'
p111
I4
tp112
a(I26
I22
I0
S'more'
p113
I4
tp114
a(I45
I3
F0.25
S'refurbished'
p115
I4
tp116
a(I45
I3
F-0.5
S'less'
p117
I4
tp118
a(I45
I3
F0.5
S'expensive'
p119
I4
tp120
a(I49
I30
I0
S'website'
p121
I4
tp122
a(I53
I21
F0.5
S'eligible'
p123
I4
tp124
a(I53
I26
F0.5
S'eligible'
p125
I4
tp126
a(I53
I27
F0.5
g103
I4
tp127
as(S'factory'
p128
tp129
(lp130
(I3
I0
F1.0
S'good'
p131
I2
tp132
a(I55
I0
F0.375
S'new'
p133
I2
tp134
as(S'seller'
p135
tp136
(lp137
(I9
I3
F1.0
S'good'
p138
I19
tp139
a(I22
I4
I0
S'different'
p140
I19
tp141
a(I49
I7
F0.625
S'kind'
p142
I19
tp143
a(I49
I7
F0.625
S'responsible'
p144
I19
tp145
a(I66
I29
F-0.125
S'overall'
p146
I19
tp147
a(I66
I29
F0.5
S'attentive'
p148
I19
tp149
a(I66
I29
F1.0
S'best'
p150
I19
tp151
as(S'venezuela'
p152
tp153
(lp154
(I49
I6
F0.125
S'first'
p155
I0
tp156
a(I50
I4
F-0.75
S'impossible'
p157
I0
tp158
a(I55
I12
F0.625
S'perfect'
p159
I0
tp160
as(S'scratches'
p161
tp162
(lp163
(I13
I17
F0.375
S'new'
p164
I4
tp165
a(I59
I3
F-0.625
S'free'
p166
I4
tp167
a(I59
I3
I0
S'cosmetic'
p168
I4
tp169
a(I59
I3
I0
S'great'
p170
I4
tp171
a(I60
I2
F-0.75
S'little'
p172
I4
tp173
as(S'smart'
p174
S'phones'
p175
tp176
(lp177
(I35
I5
I0
S'older'
p178
I0
tp179
a(I35
I6
I0
S'current'
p180
I0
tp181
as(S'battery'
p182
tp183
(lp184
(I6
I2
F-0.75
S'dead'
p185
I15
tp186
a(I6
I3
F-0.625
S'other'
p187
I15
tp188
a(I9
I18
F0.125
S'last'
p189
I15
tp190
a(I27
I4
F-0.75
S'dead'
p191
I15
tp192
a(I27
I4
F0.5
S'second'
p193
I15
tp194
a(I38
I55
F-0.5
S'poor'
p195
I15
tp196
a(I55
I9
I0
S'empty'
p197
I15
tp198
a(I56
I9
F0.125
S'last'
p199
I15
tp200
as(S'good'
p201
S'condition'
p202
tp203
(lp204
(I0
I14
F1.0
S'good'
p205
I6
tp206
a(I26
I0
F1.0
S'good'
p207
I6
tp208
a(I26
I24
F1.0
S'good'
p209
I6
tp210
a(I27
I20
F1.0
S'good'
p211
I6
tp212
a(I38
I4
F1.0
S'good'
p213
I6
tp214
a(I45
I13
F1.0
S'good'
p215
I6
tp216
a(I49
I25
F1.0
S'good'
p217
I6
tp218
a(I49
I25
F0.375
S'new'
p219
I6
tp220
a(I64
I4
F-0.125
S'overall'
p221
I6
tp222
a(I64
I4
F1.0
S'good'
p223
I6
tp224
as(S'first'
p225
S'time'
p226
tp227
(lp228
(I22
I21
F0.125
S'first'
p229
I10
tp230
a(I38
I62
F0.125
S'first'
p231
I10
tp232
a(I44
I17
F0.125
S'first'
p233
I10
tp234
a(I60
I5
F0.125
S'first'
p235
I10
tp236
as(S'sim'
p237
S'card'
p238
tp239
(lp240
(I12
I7
F-0.125
S'foreign'
p241
I0
tp242
as(S'serial'
p243
S'number'
p244
tp245
(lp246
(I20
I0
I0
S'serial'
p247
I0
tp248
a(I38
I7
I0
S'serial'
p249
I0
tp250
a(I55
I2
I0
S'serial'
p251
I0
tp252
as(S'buy'
p253
S'an'
p254
S'iphone'
p255
tp256
(lp257
(I22
I12
F0.25
g80
I1
tp258
a(I22
I19
F0.25
S'bigger'
p259
I1
tp260
a(I34
I0
I0
g83
I1
tp261
a(I38
I32
I0
S'least'
p262
I1
tp263
a(I0
I1
F-0.75
g77
I1
tp264
a(I9
I14
F0.375
g42
I1
tp265
a(I12
I0
F0.375
g44
I1
tp266
a(I12
I0
I0
g46
I1
tp267
a(I20
I0
I0
S'old'
p268
I1
tp269
a(I21
I1
F0.375
g48
I1
tp270
a(I21
I3
F0.375
g50
I1
tp271
a(I22
I12
F0.25
g80
I1
tp272
a(I22
I13
F0.5
S'second'
p273
I1
tp274
a(I22
I19
F0.25
g259
I1
tp275
a(I27
I21
F1.0
S'good'
p276
I1
tp277
a(I30
I1
F0.375
g52
I1
tp278
a(I34
I0
I0
g83
I1
tp279
a(I35
I32
I0
S'old'
p280
I1
tp281
a(I38
I4
F0.375
g54
I1
tp282
a(I38
I6
F0.375
g56
I1
tp283
a(I38
I32
I0
g262
I1
tp284
a(I38
I39
F1.0
S'best'
p285
I1
tp286
a(I42
I0
F0.125
S'first'
p287
I1
tp288
a(I44
I2
F0.375
g58
I1
tp289
a(I44
I16
F0.375
g60
I1
tp290
a(I46
I2
I0
S'great'
p291
I1
tp292
a(I49
I0
I0
S'serial'
p293
I1
tp294
a(I49
I1
I0
S'different'
p295
I1
tp296
a(I49
I4
I0
S'more'
p297
I1
tp298
a(I61
I9
I0
g62
I1
tp299
a(I64
I5
F0.25
g86
I1
tp300
a(I65
I1
I0
S'earlier'
p301
I1
tp302
a(I66
I17
I0
g88
I1
tp303
as(S'perfect'
p304
S'conditions'
p305
tp306
(lp307
(I51
I13
I0
S'great'
p308
I0
tp309
as(S'warranty'
p310
tp311
(lp312
(I24
I0
F-0.75
S'little'
p313
I2
tp314
a(I55
I1
F0.375
S'new'
p315
I2
tp316
a(I55
I1
F0.375
S'extended'
p317
I2
tp318
a(I55
I5
F0.375
S'extended'
p319
I2
tp320
as(S'an'
p321
S'apple'
p322
S'store'
p323
tp324
(lp325
(I53
I27
F0.5
g103
I0
tp326
as(S'amazon'
p327
tp328
(lp329
(I3
I0
F-0.75
S'little'
p330
I13
tp331
a(I6
I2
F0.125
S'first'
p332
I13
tp333
a(I20
I4
F-0.5
S'less'
p334
I13
tp335
a(I45
I29
I0
S'many'
p336
I13
tp337
as.