(dp0
(S'xbox'
p1
tp2
(lp3
(I2
I96
F-0.625
S'bad'
p4
I0
tp5
a(I3
I72
F0.5
S'live'
p6
I0
tp7
as(S'mobile'
p8
tp9
(lp10
(I2
I128
F1.0
S'good'
p11
I0
tp12
as(S'battery'
p13
S'life'
p14
tp15
(lp16
(I1
I46
F-0.5
S'longer'
p17
I1
tp18
a(I1
I68
F-0.5
S'long'
p19
I1
tp20
a(I1
I181
F1.0
S'good'
p21
I1
tp22
a(I2
I210
F1.0
S'good'
p23
I1
tp24
a(I3
I121
F-0.375
S'top'
p25
I1
tp26
a(I3
I121
F1.0
S'good'
p27
I1
tp28
a(I3
I123
F-0.875
S'deficient'
p29
I1
tp30
a(I6
I64
F-0.25
S'precious'
p31
I1
tp32
a(I6
I232
F-0.625
S'surprising'
p33
I1
tp34
a(I1
I46
F-0.5
g17
I19
tp35
a(I1
I181
F1.0
g21
I19
tp36
a(I2
I210
F1.0
g23
I19
tp37
a(I3
I121
F1.0
g27
I19
tp38
a(I3
I123
F-0.875
g29
I19
tp39
a(I1
I51
F0.5
S'aggressive'
p40
I15
tp41
a(I1
I68
F-0.5
g19
I15
tp42
a(I1
I212
I0
S'initial'
p43
I15
tp44
a(I1
I219
F0.375
S'extra'
p45
I15
tp46
a(I1
I223
F-0.75
S'short'
p47
I15
tp48
a(I1
I290
I-100
S'9/10with'
p49
I15
tp50
a(I2
I186
F0.125
S'first'
p51
I15
tp52
a(I3
I121
F-0.375
g25
I15
tp53
a(I6
I64
F-0.25
g31
I15
tp54
a(I6
I232
F-0.625
g33
I15
tp55
as(S'email'
p56
tp57
(lp58
(I2
I165
F1.0
S'best'
p59
I5
tp60
as(S'single'
p61
S'core'
p62
S'processor'
p63
tp64
(lp65
(I1
I274
F-0.75
S'single'
p66
I0
tp67
a(I1
I275
F-0.75
S'single'
p68
I0
tp69
a(I1
I275
I0
S'faster'
p70
I0
tp71
a(I1
I277
F-0.75
S'single'
p72
I0
tp73
a(I1
I278
F-0.75
S'single'
p74
I0
tp75
a(I0
I28
F-0.75
S'single'
p76
I0
tp77
a(I1
I274
F-0.75
g66
I0
tp78
a(I1
I275
F-0.75
g68
I0
tp79
a(I1
I277
F-0.75
g72
I0
tp80
a(I1
I278
F-0.75
g74
I0
tp81
a(I6
I62
F-0.75
S'single'
p82
I0
tp83
a(I0
I25
F-0.75
S'unable'
p84
I0
tp85
a(I1
I274
F-0.75
g66
I0
tp86
a(I1
I275
F-0.75
g68
I0
tp87
a(I1
I275
I0
g70
I0
tp88
a(I1
I277
F-0.75
g72
I0
tp89
a(I1
I278
F-0.75
g74
I0
tp90
a(I0
I25
F-0.75
g84
I1
tp91
a(I1
I37
I0
S'faster'
p92
I1
tp93
a(I1
I275
I0
g70
I1
tp94
a(I1
I276
I0
S'faster'
p95
I1
tp96
a(I0
I28
F-0.75
g76
I3
tp97
a(I1
I274
F-0.75
g66
I3
tp98
a(I1
I275
F-0.75
g68
I3
tp99
a(I1
I277
F-0.75
g72
I3
tp100
a(I1
I278
F-0.75
g74
I3
tp101
a(I6
I62
F-0.75
g82
I3
tp102
as(S'text'
p103
tp104
(lp105
(I1
I350
I0
S'more'
p106
I18
tp107
a(I6
I45
F0.625
S'fair'
p108
I18
tp109
a(I6
I45
F0.25
S'sharper'
p110
I18
tp111
a(I6
I119
F-0.25
S'white'
p112
I18
tp113
a(I6
I119
F-0.375
S'black'
p114
I18
tp115
a(I6
I119
F0.625
S'sexy'
p116
I18
tp117
a(I6
I119
F-0.75
S'dark'
p118
I18
tp119
as(S'last'
p120
S'year'
p121
tp122
(lp123
(I1
I30
F0.125
S'last'
p124
I3
tp125
a(I1
I54
F0.125
S'last'
p126
I3
tp127
a(I1
I193
F0.125
S'last'
p128
I3
tp129
a(I6
I30
F0.125
S'last'
p130
I3
tp131
a(I6
I41
F0.125
S'last'
p132
I3
tp133
as(S'focus'
p134
tp135
(lp136
(I1
I42
F0.25
S'original'
p137
I4
tp138
a(I1
I43
F0.25
S'original'
p139
I4
tp140
a(I1
I44
F0.25
S'original'
p141
I4
tp142
a(I1
I48
I0
S'internal'
p143
I4
tp144
a(I1
I128
F0.25
S'original'
p145
I4
tp146
a(I1
I129
F0.25
S'original'
p147
I4
tp148
a(I1
I185
F-0.625
S'bad'
p149
I4
tp150
a(I1
I206
F0.25
S'original'
p151
I4
tp152
a(I1
I310
F0.875
S'happy'
p153
I4
tp154
a(I1
I313
F-0.25
S'thin'
p155
I4
tp156
a(I1
I317
F0.25
S'original'
p157
I4
tp158
a(I1
I346
F0.375
S'new'
p159
I4
tp160
a(I1
I364
F0.25
S'original'
p161
I4
tp162
a(I2
I87
F1.0
S'good'
p163
I4
tp164
a(I3
I131
F0.25
S'original'
p165
I4
tp166
a(I6
I222
F-0.625
S'bad'
p167
I4
tp168
a(I6
I222
I0
S'old'
p169
I4
tp170
as(S'games'
p171
tp172
(lp173
(I0
I34
I0
S'play'
p174
I19
tp175
a(I0
I34
F0.375
S'much'
p176
I19
tp177
a(I2
I183
F-0.375
S'smooth'
p178
I19
tp179
a(I6
I76
I0
S'many'
p180
I19
tp181
a(I6
I154
F-0.625
S'other'
p182
I19
tp183
a(I6
I154
F0.125
S'popular'
p184
I19
tp185
a(I6
I155
I0
S'many'
p186
I19
tp187
a(I6
I155
F-0.625
S'other'
p188
I19
tp189
as(S'operating'
p190
S'system'
p191
tp192
(lp193
(I1
I296
F-0.625
S'other'
p194
I2
tp195
as(S'iphone'
p196
tp197
(lp198
(I1
I3
F1.0
S'better'
p199
I1
tp200
a(I1
I18
I0
S'android'
p201
I1
tp202
a(I1
I28
I0
S'anymore'
p203
I1
tp204
a(I2
I142
F-0.125
S'former'
p205
I1
tp206
a(I2
I142
F1.0
S'good'
p207
I1
tp208
a(I2
I143
F-0.375
S'top'
p209
I1
tp210
a(I2
I194
F-0.625
S'lighter'
p211
I1
tp212
a(I3
I111
F-0.5
S'sure'
p213
I1
tp214
a(I3
I149
F-0.25
S'thin'
p215
I1
tp216
a(I3
I149
F-0.25
S'thinner'
p217
I1
tp218
a(I6
I30
F-0.875
S'stuck'
p219
I1
tp220
a(I6
I43
F0.125
S'impressive'
p221
I1
tp222
a(I6
I44
F0.125
S'colorful'
p223
I1
tp224
a(I6
I44
I0
S'next'
p225
I1
tp226
a(I6
I45
F0.5
S'obvious'
p227
I1
tp228
a(I6
I85
F-0.375
S'small'
p229
I1
tp230
a(I6
I86
F-0.375
S'small'
p231
I1
tp232
a(I6
I164
F-0.75
S'single'
p233
I1
tp234
a(I6
I241
F1.0
S'better'
p235
I1
tp236
a(I6
I283
F1.0
S'better'
p237
I1
tp238
as(S'front'
p239
S'facing'
p240
S'camera'
p241
tp242
(lp243
(I1
I179
F-0.375
S'smaller'
p244
I0
tp245
a(I1
I359
I0
S'rear'
p246
I0
tp247
a(I1
I359
F0.125
S'digital'
p248
I0
tp249
a(I1
I179
F-0.375
g244
I14
tp250
a(I3
I119
F-0.25
S'lower'
p251
I14
tp252
a(I0
I24
I0
S'rear'
p253
I1
tp254
a(I0
I24
F0.125
S'able'
p255
I1
tp256
a(I1
I271
F0.5
S'true'
p257
I1
tp258
a(I1
I316
F0.875
S'nice'
p259
I1
tp260
a(I1
I357
I0
S'mere'
p261
I1
tp262
a(I1
I359
I0
g246
I1
tp263
a(I1
I359
F0.125
g248
I1
tp264
a(I2
I148
F0.125
S'dedicated'
p265
I1
tp266
a(I2
I169
I0
S'great'
p267
I1
tp268
a(I3
I154
F-0.625
S'average'
p269
I1
tp270
a(I6
I28
I0
S'external'
p271
I1
tp272
a(I6
I281
I0
S'great'
p273
I1
tp274
as(S'live'
p275
S'tiles'
p276
tp277
(lp278
(I1
I161
F0.5
S'live'
p279
I0
tp280
a(I1
I161
I0
S'cool'
p281
I0
tp282
a(I1
I161
I0
S'different'
p283
I0
tp284
a(I1
I296
F0.5
S'live'
p285
I0
tp286
a(I2
I35
F0.5
S'live'
p287
I0
tp288
a(I3
I7
F0.375
S'dynamic'
p289
I0
tp290
a(I3
I7
F0.5
S'live'
p291
I0
tp292
a(I3
I7
F0.75
S'beautiful'
p293
I0
tp294
a(I3
I26
I0
S'large'
p295
I0
tp296
a(I3
I26
F0.5
S'live'
p297
I0
tp298
a(I3
I161
F0.5
S'live'
p299
I0
tp300
a(I5
I6
F0.5
S'live'
p301
I0
tp302
a(I5
I19
F0.5
S'live'
p303
I0
tp304
a(I6
I51
F0.5
S'live'
p305
I0
tp306
a(I6
I204
F0.5
S'live'
p307
I0
tp308
a(I6
I204
F-0.375
S'simple'
p309
I0
tp310
a(I1
I161
F0.5
g279
I0
tp311
a(I1
I161
I0
g281
I0
tp312
a(I1
I161
I0
g283
I0
tp313
a(I1
I296
F0.5
g285
I0
tp314
a(I2
I35
F0.5
g287
I0
tp315
a(I2
I82
F0.375
S'dynamic'
p316
I0
tp317
a(I3
I7
F0.375
g289
I0
tp318
a(I3
I7
F0.5
g291
I0
tp319
a(I3
I7
F0.75
g293
I0
tp320
a(I3
I26
I0
g295
I0
tp321
a(I3
I26
F0.5
g297
I0
tp322
a(I3
I161
F0.5
g299
I0
tp323
a(I5
I6
F0.5
g301
I0
tp324
a(I5
I19
F0.5
g303
I0
tp325
a(I6
I51
F0.5
g305
I0
tp326
a(I6
I204
F0.5
g307
I0
tp327
a(I6
I204
F-0.375
g309
I0
tp328
as(S'windows'
p329
tp330
(lp331
(I1
I0
F0.375
S'new'
p332
I0
tp333
a(I1
I3
F0.75
S'give'
p334
I0
tp335
a(I1
I26
F-0.125
S'overall'
p336
I0
tp337
a(I1
I106
F0.625
S'interested'
p338
I0
tp339
a(I1
I295
F0.5
S'whole'
p340
I0
tp341
a(I1
I342
F0.375
S'new'
p342
I0
tp343
a(I2
I20
F0.375
S'exciting'
p344
I0
tp345
a(I2
I85
F-0.625
S'free'
p346
I0
tp347
a(I2
I130
I0
S'weird'
p348
I0
tp349
a(I3
I5
F-0.625
S'other'
p350
I0
tp351
a(I3
I6
F-0.625
S'other'
p352
I0
tp353
a(I3
I25
F0.375
S'new'
p354
I0
tp355
a(I4
I30
I0
S'old'
p356
I0
tp357
a(I5
I13
I0
S'competitive'
p358
I0
tp359
a(I5
I13
F-0.625
S'other'
p360
I0
tp361
a(I6
I242
I0
S'real'
p362
I0
tp363
as(S'so'
p364
S'much'
p365
S'better'
p366
tp367
(lp368
(I6
I153
F0.375
S'much'
p369
I0
tp370
a(I5
I20
F0.375
S'much'
p371
I9
tp372
a(I6
I153
F0.375
g369
I9
tp373
as(S'apple'
p374
tp375
(lp376
(I2
I103
F-0.25
S'higher'
p377
I4
tp378
a(I2
I196
I0
S'high'
p379
I4
tp380
a(I6
I198
I0
S'current'
p381
I4
tp382
as(S'smooth'
p383
tp384
(lp385
(I1
I109
I0
S'such'
p386
I16
tp387
a(I1
I160
F0.25
S'responsive'
p388
I16
tp389
as(S'integration'
p390
tp391
(lp392
(I1
I162
I0
S'cool'
p393
I0
tp394
a(I2
I1
F0.375
S'interesting'
p395
I0
tp396
a(I5
I28
I0
S'most'
p397
I0
tp398
a(I6
I173
I0
S'total'
p399
I0
tp400
as(S'android'
p401
S'or'
p402
S'ios'
p403
tp404
(lp405
(I1
I220
F-0.5
S'open'
p406
I0
tp407
a(I1
I221
I-100
S'dummy-ed'
p408
I0
tp409
a(I2
I13
F-0.125
S'former'
p410
I0
tp411
a(I2
I13
F0.25
S'familiar'
p412
I0
tp413
a(I5
I0
F0.5
S'comparable'
p414
I0
tp415
a(I5
I0
I0
S'toe-to-toe'
p416
I0
tp417
a(I6
I112
I0
S'android'
p418
I0
tp419
a(I6
I127
F0.25
S'recent'
p420
I0
tp421
as(S'hands'
p422
tp423
(lp424
(I1
I244
I0
S'more'
p425
I15
tp426
a(I1
I351
I0
S'big'
p427
I15
tp428
a(I2
I64
F-0.5
S'less'
p429
I15
tp430
a(I2
I188
I0
S'such'
p431
I15
tp432
a(I2
I188
I0
S'infant'
p433
I15
tp434
a(I6
I84
F0.5
S'true'
p435
I15
tp436
a(I6
I84
I0
S'big'
p437
I15
tp438
a(I6
I268
F-0.375
S'smaller'
p439
I15
tp440
as(S'000'
p441
S'apps'
p442
tp443
(lp444
(I1
I182
F-0.75
S'dearth'
p445
I0
tp446
a(I1
I302
F-0.375
S'top'
p447
I0
tp448
a(I2
I18
I0
S'different'
p449
I0
tp450
a(I0
I9
I0
S'different'
p451
I0
tp452
a(I1
I1
F-0.5
S'open'
p453
I0
tp454
a(I1
I2
F-0.625
S'other'
p455
I0
tp456
a(I1
I4
I0
S'faster'
p457
I0
tp458
a(I1
I57
F0.625
S'wanted'
p459
I0
tp460
a(I1
I180
F-0.5
S'sure'
p461
I0
tp462
a(I1
I180
F-0.625
S'other'
p463
I0
tp464
a(I1
I182
F-0.75
g445
I0
tp465
a(I1
I302
F-0.375
g447
I0
tp466
a(I1
I305
I0
S'few'
p467
I0
tp468
a(I1
I305
F0.125
S'key'
p469
I0
tp470
a(I1
I305
F-0.625
S'other'
p471
I0
tp472
a(I2
I17
F0.75
S'beautiful'
p473
I0
tp474
a(I2
I18
I0
g449
I0
tp475
a(I2
I80
F0.375
S'available'
p476
I0
tp477
a(I2
I108
I0
S'non-issue'
p478
I0
tp479
a(I2
I108
I0
S'many'
p480
I0
tp481
a(I2
I175
F-0.5
S'less'
p482
I0
tp483
a(I2
I175
F0.375
S'available'
p484
I0
tp485
a(I3
I102
F-0.625
S'free'
p486
I0
tp487
a(I3
I164
I0
S'few'
p488
I0
tp489
a(I5
I28
I0
S'social'
p490
I0
tp491
a(I6
I74
F0.5
S'elegant'
p492
I0
tp493
a(I6
I106
F0.125
S'visible'
p494
I0
tp495
a(I6
I113
I0
S'many'
p496
I0
tp497
a(I6
I152
F-0.625
S'other'
p498
I0
tp499
a(I6
I175
F0.125
S'key'
p500
I0
tp501
a(I6
I230
F0.25
S'favorite'
p502
I0
tp503
a(I6
I244
F0.375
S'available'
p504
I0
tp505
a(I6
I248
I0
S'esoteric'
p506
I0
tp507
a(I6
I276
F1.0
S'good'
p508
I0
tp509
as(S'dedicated'
p510
S'camera'
p511
S'button'
p512
tp513
(lp514
(I2
I148
F0.125
g265
I0
tp515
a(I6
I35
I0
S'handy'
p516
I0
tp517
a(I2
I148
F0.125
g265
I0
tp518
a(I6
I28
I0
g271
I0
tp519
a(I6
I35
I-100
S'power/sleep'
p520
I0
tp521
a(I6
I35
I0
g516
I0
tp522
a(I1
I45
F-0.125
S'accidental'
p523
I19
tp524
a(I3
I47
F0.875
S'music'
p525
I19
tp526
a(I3
I119
I0
S'sensitive'
p527
I19
tp528
a(I6
I35
I0
g516
I19
tp529
as(S'mango'
p530
tp531
(lp532
(I2
I99
I0
S'more'
p533
I1
tp534
a(I2
I99
F1.0
S'better'
p535
I1
tp536
a(I2
I135
F1.0
S'better'
p537
I1
tp538
as(S'dual'
p539
S'core'
p540
tp541
(lp542
(I1
I275
F-0.75
g68
I0
tp543
as(S'zune'
p544
tp545
(lp546
(I1
I301
F1.0
S'best'
p547
I0
tp548
as(S'plus'
p549
tp550
(lp551
(I2
I171
F0.875
S'nice'
p552
I16
tp553
a(I6
I207
I0
S'big'
p554
I16
tp555
as(S'office'
p556
tp557
(lp558
(I2
I83
F-0.625
S'other'
p559
I15
tp560
a(I2
I117
I0
S'great'
p561
I15
tp562
a(I3
I162
F0.125
S'native'
p563
I15
tp564
as(S'user'
p565
S'interface'
p566
tp567
(lp568
(I1
I18
I0
S'different'
p569
I0
tp570
a(I3
I122
I0
S'own'
p571
I0
tp572
a(I3
I122
F0.125
S'above'
p573
I0
tp574
a(I5
I6
F0.5
S'functional'
p575
I0
tp576
a(I6
I169
I0
S'fluid'
p577
I0
tp578
a(I1
I18
I0
g569
I1
tp579
a(I1
I33
F0.5
S'touch'
p580
I1
tp581
a(I1
I33
F0.375
S'friendly'
p582
I1
tp583
a(I6
I1
F0.75
S'beautiful'
p584
I1
tp585
a(I6
I1
F-0.125
S'super'
p586
I1
tp587
a(I6
I1
F0.625
S'easy'
p588
I1
tp589
a(I6
I116
I0
S'unified'
p590
I1
tp591
a(I6
I169
I0
g577
I1
tp592
a(I6
I190
F0.25
S'main'
p593
I1
tp594
as(S'facebook'
p595
tp596
(lp597
(I2
I137
F0.625
S'extraordinary'
p598
I0
tp599
as.