(dp0
(S'verizon'
p1
S'stores'
p2
tp3
(lp4
(I4
I10
F-0.625
S'free'
p5
I0
tp6
a(I8
I5
F0.25
S'read'
p7
I0
tp8
as(S'verizon'
p9
S'wireless'
p10
S'store'
p11
tp12
(lp13
(I6
I0
I0
S'local'
p14
I0
tp15
a(I11
I7
I0
S'local'
p16
I0
tp17
a(I11
I13
F0.5
S'whole'
p18
I0
tp19
a(I11
I13
F0.375
S'new'
p20
I0
tp21
a(I11
I13
F0.5
g18
I0
tp22
a(I11
I13
F0.375
g20
I0
tp23
a(I6
I0
I0
g14
I0
tp24
a(I11
I7
I0
g16
I0
tp25
a(I4
I0
F-0.625
S'free'
p26
I0
tp27
a(I4
I1
F-0.625
S'free'
p28
I0
tp29
a(I4
I10
F-0.625
g5
I0
tp30
a(I6
I0
I0
g14
I0
tp31
a(I8
I5
F0.25
g7
I0
tp32
a(I11
I7
I0
g16
I0
tp33
a(I11
I13
F0.5
g18
I0
tp34
a(I11
I13
F0.375
g20
I0
tp35
a(I11
I24
I0
S'handy'
p36
I0
tp37
a(I3
I1
F-0.625
S'free'
p38
I0
tp39
a(I3
I18
F-0.625
S'free'
p40
I0
tp41
a(I4
I10
F-0.625
g5
I0
tp42
a(I6
I0
I0
g14
I0
tp43
a(I8
I5
F0.25
g7
I0
tp44
a(I11
I7
I0
g16
I0
tp45
as(S'data'
p46
S'plan'
p47
tp48
(lp49
(I8
I27
I0
S'cellular'
p50
I0
tp51
a(I8
I27
I0
S'real'
p52
I0
tp53
a(I8
I27
I0
S'nervous'
p54
I0
tp55
a(I8
I27
I0
g50
I13
tp56
a(I8
I32
I0
S'cellular'
p57
I13
tp58
a(I8
I36
I0
S'cellular'
p59
I13
tp60
a(I8
I37
F-0.375
S'disable'
p61
I13
tp62
a(I8
I37
I0
S'cellular'
p63
I13
tp64
a(I8
I38
I0
S'cellular'
p65
I13
tp66
a(I8
I43
I0
S'cellular'
p67
I13
tp68
a(I10
I18
I0
S'cellular'
p69
I13
tp70
as(S'a'
p71
S'verizon'
p72
S'store'
p73
tp74
(lp75
(I4
I0
F-0.625
g26
I0
tp76
a(I4
I10
F-0.625
g5
I0
tp77
a(I6
I0
I0
g14
I0
tp78
a(I8
I5
F0.25
g7
I0
tp79
a(I11
I7
I0
g16
I0
tp80
a(I11
I13
F0.5
g18
I0
tp81
a(I11
I13
F0.375
g20
I0
tp82
a(I11
I24
I0
g36
I0
tp83
as(S'account'
p84
tp85
(lp86
(I6
I3
F0.5
S'personal'
p87
I3
tp88
a(I6
I3
I0
S'corporate'
p89
I3
tp90
a(I6
I3
I0
S'least'
p91
I3
tp92
a(I8
I20
F0.375
S'new'
p93
I3
tp94
a(I8
I23
F-0.125
S'deactivate'
p95
I3
tp96
a(I8
I24
F0.75
S'due'
p97
I3
tp98
a(I10
I16
F0.375
S'new'
p99
I3
tp100
as(S'cellular'
p101
S'data'
p102
tp103
(lp104
(I8
I27
I0
g50
I0
tp105
a(I8
I32
I0
g57
I0
tp106
a(I8
I36
I0
g59
I0
tp107
a(I8
I37
F-0.375
g61
I0
tp108
a(I8
I37
I0
g63
I0
tp109
a(I8
I38
I0
g65
I0
tp110
a(I8
I43
I0
g67
I0
tp111
a(I10
I18
I0
g69
I0
tp112
as(S'new'
p113
S'sim'
p114
S'card'
p115
tp116
(lp117
(I2
I8
F0.375
S'new'
p118
I0
tp119
a(I3
I16
F0.375
S'new'
p120
I0
tp121
a(I8
I17
F0.375
S'new'
p122
I0
tp123
a(I8
I19
F0.375
S'new'
p124
I0
tp125
a(I8
I20
F0.125
S'able'
p126
I0
tp127
a(I8
I20
I0
S'reactivate'
p128
I0
tp129
a(I8
I29
F0.375
S'new'
p130
I0
tp131
a(I8
I31
F0.375
S'new'
p132
I0
tp133
a(I8
I34
F0.375
S'new'
p134
I0
tp135
a(I8
I34
F0.375
S'new'
p136
I0
tp137
a(I10
I16
F0.375
S'new'
p138
I0
tp139
a(I10
I19
F0.375
S'new'
p140
I0
tp141
a(I10
I20
F-0.25
S'inexpensive'
p142
I0
tp143
a(I0
I2
I0
S'great'
p144
I0
tp145
a(I0
I2
F0.625
S'easy'
p146
I0
tp147
a(I1
I0
I0
S'carrier'
p148
I0
tp149
a(I2
I0
F-0.375
S'small'
p150
I0
tp151
a(I2
I0
I0
S'large'
p152
I0
tp153
a(I2
I8
F0.375
g118
I0
tp154
a(I3
I0
F-0.625
S'free'
p155
I0
tp156
a(I3
I16
F0.375
g120
I0
tp157
a(I8
I15
I0
S'old'
p158
I0
tp159
a(I8
I17
F0.375
g122
I0
tp160
a(I8
I19
F0.375
g124
I0
tp161
a(I8
I20
F0.125
g126
I0
tp162
a(I8
I20
I0
g128
I0
tp163
a(I8
I29
F0.375
g130
I0
tp164
a(I8
I31
F0.375
g132
I0
tp165
a(I8
I34
F0.375
g134
I0
tp166
a(I8
I34
F0.375
g136
I0
tp167
a(I10
I1
I0
S'standard'
p168
I0
tp169
a(I10
I16
F0.375
g138
I0
tp170
a(I10
I19
F0.375
g140
I0
tp171
a(I10
I20
F-0.25
g142
I0
tp172
a(I10
I22
F-0.75
S'wrong'
p173
I0
tp174
a(I10
I29
F0.125
S'able'
p175
I0
tp176
a(I11
I28
F-0.75
S'wrong'
p177
I0
tp178
a(I2
I8
F0.375
g118
I0
tp179
a(I3
I16
F0.375
g120
I0
tp180
a(I8
I17
F0.375
g122
I0
tp181
a(I8
I19
F0.375
g124
I0
tp182
a(I8
I20
F0.125
g126
I0
tp183
a(I8
I29
F0.375
g130
I0
tp184
a(I8
I31
F0.375
g132
I0
tp185
a(I8
I34
F0.375
g134
I0
tp186
a(I8
I34
F0.375
g136
I0
tp187
a(I10
I16
F0.375
g138
I0
tp188
a(I10
I19
F0.375
g140
I0
tp189
a(I10
I20
F-0.25
g142
I0
tp190
as(S'customer'
p191
S'service'
p192
tp193
(lp194
(I11
I1
F-0.625
S'free'
p195
I3
tp196
a(I11
I1
F-0.625
g195
I16
tp197
as(S'ipad'
p198
tp199
(lp200
(I8
I29
F-0.5
S'regular'
p201
I0
tp202
a(I8
I29
I0
S'monthly'
p203
I0
tp204
a(I8
I30
I0
S'cellular'
p205
I0
tp206
a(I8
I32
F0.125
S'able'
p207
I0
tp208
a(I8
I43
F0.125
S'able'
p209
I0
tp210
a(I11
I11
I0
S'next'
p211
I0
tp212
as(S'amazon'
p213
tp214
(lp215
(I4
I8
F0.375
S'prime'
p216
I13
tp217
as(g71
S'sim'
p218
S'card'
p219
tp220
(lp221
(I0
I2
I0
g144
I0
tp222
a(I0
I2
F0.625
g146
I0
tp223
a(I1
I0
I0
g148
I0
tp224
a(I2
I0
F-0.375
g150
I0
tp225
a(I2
I0
I0
g152
I0
tp226
a(I2
I8
F0.375
g118
I0
tp227
a(I3
I0
F-0.625
g155
I0
tp228
a(I3
I16
F0.375
g120
I0
tp229
a(I8
I15
I0
g158
I0
tp230
a(I8
I17
F0.375
g122
I0
tp231
a(I8
I19
F0.375
g124
I0
tp232
a(I8
I20
F0.125
g126
I0
tp233
a(I8
I20
I0
g128
I0
tp234
a(I8
I29
F0.375
g130
I0
tp235
a(I8
I31
F0.375
g132
I0
tp236
a(I8
I34
F0.375
g134
I0
tp237
a(I8
I34
F0.375
g136
I0
tp238
a(I10
I1
I0
g168
I0
tp239
a(I10
I16
F0.375
g138
I0
tp240
a(I10
I19
F0.375
g140
I0
tp241
a(I10
I20
F-0.25
g142
I0
tp242
a(I10
I22
F-0.75
g173
I0
tp243
a(I10
I29
F0.125
g175
I0
tp244
a(I11
I28
F-0.75
g177
I0
tp245
as(S'prepaid'
p246
S'cellular'
p247
tp248
(lp249
(I8
I28
I0
S'same'
p250
I0
tp251
a(I8
I28
I0
g250
I0
tp252
a(I8
I31
F0.375
S'new'
p253
I0
tp254
as.