(dp0
(S'a'
p1
S'droid'
p2
S'x'
p3
tp4
(lp5
(I5
I16
F0.375
S'new'
p6
I0
tp7
a(I8
I1
I0
S'many'
p8
I0
tp9
a(I8
I73
F-0.125
S'slow'
p10
I0
tp11
a(I16
I357
F0.25
S'original'
p12
I0
tp13
a(I16
I368
F0.75
S'fit'
p14
I0
tp15
a(I16
I450
F0.625
S'noticeable'
p16
I0
tp17
a(I16
I568
F0.125
S'first'
p18
I0
tp19
a(I16
I607
I0
S'same'
p20
I0
tp21
a(I16
I630
F1.0
S'better'
p22
I0
tp23
a(I16
I671
I0
S'old'
p24
I0
tp25
a(I16
I803
I0
S'old'
p26
I0
tp27
a(I16
I835
F0.25
S'original'
p28
I0
tp29
a(I5
I16
F0.375
g6
I0
tp30
a(I8
I1
I0
g8
I0
tp31
a(I8
I73
F-0.125
g10
I0
tp32
a(I16
I357
F0.25
g12
I0
tp33
a(I16
I368
F0.75
g14
I0
tp34
a(I16
I450
F0.625
g16
I0
tp35
a(I16
I568
F0.125
g18
I0
tp36
a(I16
I607
I0
g20
I0
tp37
a(I16
I630
F1.0
g22
I0
tp38
a(I16
I671
I0
g24
I0
tp39
a(I16
I803
I0
g26
I0
tp40
a(I16
I835
F0.25
g28
I0
tp41
a(I2
I8
F0.5
S'strong'
p42
I0
tp43
a(I4
I85
F-0.625
S'average'
p44
I0
tp45
a(I5
I16
F0.375
g6
I0
tp46
a(I8
I1
I0
g8
I0
tp47
a(I8
I180
I0
S'fast'
p48
I0
tp49
a(I8
I180
I0
S'old'
p50
I0
tp51
a(I16
I51
F0.5
S'possible'
p52
I0
tp53
a(I16
I51
F0.25
S'original'
p54
I0
tp55
a(I16
I110
I0
S'cool'
p56
I0
tp57
a(I16
I301
F0.875
S'nice'
p58
I0
tp59
a(I16
I315
F0.25
S'original'
p60
I0
tp61
a(I16
I317
I0
S'old'
p62
I0
tp63
a(I16
I357
F0.25
g12
I0
tp64
a(I16
I364
F0.25
S'original'
p65
I0
tp66
a(I16
I568
F0.125
g18
I0
tp67
a(I16
I603
F0.25
S'original'
p68
I0
tp69
a(I16
I606
F0.25
S'larger'
p70
I0
tp71
a(I16
I607
I0
g20
I0
tp72
a(I16
I610
F0.25
S'original'
p73
I0
tp74
a(I16
I630
F1.0
g22
I0
tp75
a(I16
I649
F0.25
S'original'
p76
I0
tp77
a(I16
I671
I0
g24
I0
tp78
a(I16
I777
F0.25
S'original'
p79
I0
tp80
a(I16
I778
I0
S'old'
p81
I0
tp82
a(I16
I803
I0
g26
I0
tp83
a(I16
I835
F0.25
g28
I0
tp84
a(I16
I943
F-0.125
S'former'
p85
I0
tp86
a(I18
I115
F0.125
S'first'
p87
I0
tp88
a(I20
I126
F0.875
S'important'
p89
I0
tp90
as(S'end'
p91
S'of'
p92
S'day'
p93
tp94
(lp95
(I11
I13
I0
S'full'
p96
I0
tp97
a(I14
I42
I0
S'entire'
p98
I0
tp99
a(I14
I42
I0
S'entire'
p100
I0
tp101
as(S'motorola'
p102
tp103
(lp104
(I0
I66
I0
S'site'
p105
I0
tp106
a(I4
I7
I0
S'old'
p107
I0
tp108
a(I6
I0
F0.125
S'usual'
p109
I0
tp110
a(I6
I13
F0.5
S'compatible'
p111
I0
tp112
a(I7
I25
F0.375
S'friendly'
p113
I0
tp114
a(I8
I112
F-0.625
S'other'
p115
I0
tp116
a(I13
I13
F-0.625
S'other'
p117
I0
tp118
a(I13
I20
I0
S'such'
p119
I0
tp120
a(I16
I59
F1.0
S'better'
p121
I0
tp122
a(I16
I115
F-0.125
S'mine'
p123
I0
tp124
a(I16
I115
F0.5
S'possible'
p125
I0
tp126
a(I16
I300
F1.0
S'good'
p127
I0
tp128
a(I16
I391
I0
S'such'
p129
I0
tp130
a(I16
I566
F0.25
S'original'
p131
I0
tp132
a(I17
I41
F0.125
S'able'
p133
I0
tp134
a(I17
I42
I0
S'logged'
p135
I0
tp136
a(I18
I19
F0.625
S'kind'
p137
I0
tp138
a(I18
I96
F-0.25
S'precious'
p139
I0
tp140
a(I18
I175
F0.375
S'new'
p141
I0
tp142
a(I19
I58
F0.25
S'original'
p143
I0
tp144
a(I20
I193
I0
S'general'
p145
I0
tp146
as(S'galaxy'
p147
S'nexus'
p148
tp149
(lp150
(I13
I257
F0.375
S'new'
p151
I0
tp152
a(I14
I87
F-0.625
S'glad'
p153
I0
tp154
a(I16
I345
F1.0
S'better'
p155
I0
tp156
a(I16
I345
F-0.75
S'worse'
p157
I0
tp158
a(I16
I348
I0
S'least'
p159
I0
tp160
a(I16
I442
F0.125
S'equal'
p161
I0
tp162
a(I14
I87
F-0.625
g153
I0
tp163
a(I16
I151
F-0.625
S'other'
p164
I0
tp165
a(I16
I198
I0
S'spec'
p166
I0
tp167
a(I16
I348
I0
g159
I0
tp168
as(S'i.'
p169
S'e.'
p170
tp171
(lp172
(I3
I14
F-0.375
S'black'
p173
I0
tp174
as(S'call'
p175
S'quality'
p176
tp177
(lp178
(I8
I184
F-0.5
S'call'
p179
I0
tp180
a(I13
I83
F1.0
S'good'
p181
I0
tp182
a(I13
I166
I0
S'great'
p183
I0
tp184
a(I13
I166
F0.125
S'able'
p185
I0
tp186
a(I13
I166
F1.0
S'good'
p187
I0
tp188
a(I14
I13
F1.0
S'best'
p189
I0
tp190
a(I14
I122
I0
S'great'
p191
I0
tp192
a(I16
I231
F1.0
S'good'
p193
I0
tp194
a(I19
I37
F1.0
S'good'
p195
I0
tp196
a(I20
I199
F0.25
S'bigger'
p197
I0
tp198
a(I20
I199
I0
S'most'
p199
I0
tp200
a(I20
I199
F0.5
S'clear'
p201
I0
tp202
as(S'camera'
p203
tp204
(lp205
(I0
I9
I0
S'great'
p206
I1
tp207
a(I7
I24
F-0.5
S'regular'
p208
I1
tp209
a(I7
I68
F-0.5
S'poor'
p210
I1
tp211
a(I8
I40
F-0.625
S'average'
p212
I1
tp213
a(I13
I98
F0.875
S'nice'
p214
I1
tp215
a(I14
I29
F1.0
S'good'
p216
I1
tp217
a(I16
I540
F0.375
S'new'
p218
I1
tp219
a(I16
I697
F1.0
S'better'
p220
I1
tp221
a(I16
I804
I0
S'great'
p222
I1
tp223
a(I16
I804
F0.875
S'important'
p224
I1
tp225
a(I16
I910
F0.75
S'thought'
p226
I1
tp227
a(I19
I38
F1.0
S'good'
p228
I1
tp229
a(I20
I82
I0
S'big'
p230
I1
tp231
a(I20
I113
F1.0
S'better'
p232
I1
tp233
a(I20
I174
F0.875
S'important'
p234
I1
tp235
a(I20
I190
I0
S'abetter'
p236
I1
tp237
as(S'gorilla'
p238
S'glass'
p239
tp240
(lp241
(I2
I6
F0.5
S'strong'
p242
I0
tp243
a(I8
I38
I0
S'great'
p244
I0
tp245
a(I14
I116
F-0.625
S'unbreakable'
p246
I0
tp247
a(I20
I19
F-0.75
S'tough'
p248
I0
tp249
a(I20
I113
F1.0
S'good'
p250
I0
tp251
a(I8
I38
I0
g244
I9
tp252
a(I8
I39
F1.0
S'best'
p253
I9
tp254
a(I13
I61
I0
S'couch'
p255
I9
tp256
a(I14
I116
F-0.625
g246
I9
tp257
a(I18
I60
F0.625
S'easy'
p258
I9
tp259
a(I18
I60
F-0.625
S'clean'
p260
I9
tp261
as(S'color'
p262
S'saturation'
p263
tp264
(lp265
(I12
I32
F1.0
S'better'
p266
I0
tp267
as(S'operating'
p268
S'system'
p269
tp270
(lp271
(I14
I148
F0.375
S'much'
p272
I2
tp273
a(I14
I148
F0.5
S'possible'
p274
I2
tp275
a(I16
I818
F0.375
S'new'
p276
I2
tp277
a(I16
I818
I0
S'old'
p278
I2
tp279
as(S'iphone'
p280
tp281
(lp282
(I0
I10
F-0.625
S'bad'
p283
I1
tp284
a(I0
I10
F1.0
S'good'
p285
I1
tp286
a(I0
I13
I0
S'more'
p287
I1
tp288
a(I0
I22
F-0.625
S'bad'
p289
I1
tp290
a(I0
I22
F0.125
S'last'
p291
I1
tp292
a(I3
I97
F0.375
S'new'
p293
I1
tp294
a(I7
I31
F0.875
S'happy'
p295
I1
tp296
a(I13
I238
F0.5
S'stronger'
p297
I1
tp298
a(I13
I238
F-0.25
S'cheaper'
p299
I1
tp300
a(I15
I19
F1.0
S'better'
p301
I1
tp302
a(I16
I135
F0.375
S'new'
p303
I1
tp304
a(I16
I354
F0.5
S'absolute'
p305
I1
tp306
a(I16
I354
F0.125
S'equal'
p307
I1
tp308
a(I16
I568
F0.5
S'whole'
p309
I1
tp310
a(I16
I706
I0
S'wider'
p311
I1
tp312
a(I17
I66
I0
S'big'
p313
I1
tp314
a(I20
I68
F-0.75
S'worse'
p315
I1
tp316
a(I20
I199
F1.0
S'good'
p317
I1
tp318
as(S'brain'
p319
S'cancer'
p320
tp321
(lp322
(I16
I203
F0.75
S'due'
p323
I0
tp324
as(S'extended'
p325
S'period'
p326
tp327
(lp328
(I8
I81
F0.375
S'extended'
p329
I0
tp330
a(I13
I88
F0.375
S'extended'
p331
I0
tp332
a(I18
I76
F0.375
S'extended'
p333
I0
tp334
as(S'droid'
p335
S'razr'
p336
tp337
(lp338
(I0
I40
F1.0
S'good'
p339
I0
tp340
a(I2
I8
F0.5
g42
I0
tp341
a(I3
I4
I0
S'more'
p342
I0
tp343
a(I12
I19
I0
S'most'
p344
I0
tp345
a(I12
I19
F-0.75
S'likely'
p346
I0
tp347
a(I12
I39
I0
S'old'
p348
I0
tp349
a(I16
I296
F0.375
S'new'
p350
I0
tp351
a(I16
I301
F0.875
g58
I0
tp352
a(I16
I568
F0.125
g18
I0
tp353
a(I16
I606
F0.25
g70
I0
tp354
a(I16
I607
I0
g20
I0
tp355
a(I16
I649
F0.25
g76
I0
tp356
a(I16
I649
F0.5
S'possible'
p357
I0
tp358
a(I16
I666
F-0.625
S'other'
p359
I0
tp360
a(I20
I126
F0.875
g89
I0
tp361
a(I0
I3
F0.375
S'meant'
p362
I0
tp363
a(I0
I40
F1.0
g339
I0
tp364
a(I3
I4
I0
g342
I0
tp365
a(I4
I40
F0.625
S'superior'
p366
I0
tp367
a(I4
I47
F-0.625
S'other'
p368
I0
tp369
a(I4
I47
F0.875
S'nice'
p370
I0
tp371
a(I4
I67
F0.75
S'beautiful'
p372
I0
tp373
a(I4
I67
I0
S'next'
p374
I0
tp375
a(I4
I98
F0.375
S'new'
p376
I0
tp377
a(I7
I25
F0.375
S'new'
p378
I0
tp379
a(I8
I119
F0.125
S'able'
p380
I0
tp381
a(I8
I126
F0.125
S'last'
p382
I0
tp383
a(I12
I19
I0
g344
I0
tp384
a(I12
I19
F-0.75
g346
I0
tp385
a(I12
I39
I0
g348
I0
tp386
a(I13
I21
F0.25
S'original'
p387
I0
tp388
a(I13
I66
F1.0
S'better'
p389
I0
tp390
a(I14
I60
I0
S'phenomenal'
p391
I0
tp392
a(I14
I154
F0.125
S'able'
p393
I0
tp394
a(I14
I159
F-0.5
S'weak'
p395
I0
tp396
a(I16
I11
F0.5
S'second'
p397
I0
tp398
a(I16
I47
I0
S'more'
p399
I0
tp400
a(I16
I296
F0.375
g350
I0
tp401
a(I16
I309
F0.125
S'first'
p402
I0
tp403
a(I16
I356
F1.0
S'good'
p404
I0
tp405
a(I16
I490
F0.5
S'second'
p406
I0
tp407
a(I16
I627
F0.125
S'able'
p408
I0
tp409
a(I16
I647
I0
S'few'
p410
I0
tp411
a(I16
I649
F0.5
g357
I0
tp412
a(I16
I666
F-0.625
g359
I0
tp413
a(I16
I686
I0
S'more'
p414
I0
tp415
a(I16
I786
F0.625
S'safe'
p416
I0
tp417
a(I16
I786
F0.75
S'due'
p418
I0
tp419
a(I18
I44
F0.375
S'new'
p420
I0
tp421
a(I18
I130
F0.25
S'original'
p422
I0
tp423
a(I18
I198
F0.75
S'beautiful'
p424
I0
tp425
a(I18
I211
I0
S'identical'
p426
I0
tp427
a(I18
I212
F0.875
S'happy'
p428
I0
tp429
a(I19
I15
F0.375
S'louder'
p430
I0
tp431
a(I19
I57
I0
S'next'
p432
I0
tp433
a(I20
I102
F-0.375
S'smaller'
p434
I0
tp435
a(I20
I156
I0
S'own'
p436
I0
tp437
a(I20
I156
I0
S'bionic'
p438
I0
tp439
as(S'twice'
p440
g1
S'day'
p441
tp442
(lp443
(I13
I144
I0
S'least'
p444
I0
tp445
a(I13
I144
F-0.5
S'sure'
p446
I0
tp447
as(S'wifi'
p448
tp449
(lp450
(I8
I45
F-0.875
S'trouble'
p451
I0
tp452
a(I13
I95
F-0.5
S'certain'
p453
I0
tp454
a(I16
I163
I0
S'full'
p455
I0
tp456
a(I17
I83
I0
S'faster'
p457
I0
tp458
as(S'ice'
p459
S'cream'
p460
S'sandwich'
p461
tp462
(lp463
(I20
I19
F0.375
S'available'
p464
I0
tp465
a(I20
I19
F0.875
S'nice'
p466
I0
tp467
a(I20
I19
F0.375
g464
I0
tp468
a(I20
I19
F0.875
g466
I0
tp469
as(S'android'
p470
tp471
(lp472
(I4
I50
I0
S'few'
p473
I0
tp474
a(I8
I146
F1.0
S'best'
p475
I0
tp476
a(I8
I177
F0.75
S'due'
p477
I0
tp478
a(I11
I25
F-0.625
S'unlike'
p479
I0
tp480
a(I11
I25
F-0.625
S'other'
p481
I0
tp482
a(I13
I34
F0.375
S'new'
p483
I0
tp484
a(I13
I42
F0.5
S'true'
p485
I0
tp486
a(I13
I70
F-0.5
S'sure'
p487
I0
tp488
a(I13
I75
F-0.5
S'sure'
p489
I0
tp490
a(I14
I126
I0
S'topic'
p491
I0
tp492
a(I16
I336
F0.375
S'honest'
p493
I0
tp494
a(I16
I464
F0.25
S'familiar'
p495
I0
tp496
a(I16
I680
F0.375
S'new'
p497
I0
tp498
a(I16
I831
F-0.625
S'other'
p499
I0
tp500
a(I16
I924
I0
S'next'
p501
I0
tp502
a(I19
I56
F1.0
S'better'
p503
I0
tp504
a(I19
I56
F-0.625
S'other'
p505
I0
tp506
a(I19
I56
I0
S'current'
p507
I0
tp508
a(I20
I75
F0.125
S'mighty'
p509
I0
tp510
a(I20
I91
F0.125
S'first'
p511
I0
tp512
as(S'third'
p513
S'party'
p514
S'apps'
p515
tp516
(lp517
(I16
I814
I0
S'third'
p518
I0
tp519
a(I16
I826
I0
S'third'
p520
I0
tp521
a(I16
I831
I0
S'third'
p522
I0
tp523
a(I16
I835
I0
S'third'
p524
I0
tp525
a(I16
I835
I0
S'such'
p526
I0
tp527
a(I16
I839
I0
S'third'
p528
I0
tp529
a(I16
I840
I0
S'third'
p530
I0
tp531
a(I16
I814
I0
g518
I0
tp532
a(I16
I826
I0
g520
I0
tp533
a(I16
I831
I0
g522
I0
tp534
a(I16
I835
I0
g524
I0
tp535
a(I16
I839
I0
g528
I0
tp536
a(I16
I840
I0
g530
I0
tp537
a(I4
I39
F0.125
S'essential'
p538
I0
tp539
a(I8
I25
F-0.625
S'other'
p540
I0
tp541
a(I8
I116
I0
S'unnecessary'
p542
I0
tp543
a(I14
I40
F-0.375
S'crazy'
p544
I0
tp545
a(I14
I146
I0
S'most'
p546
I0
tp547
a(I14
I147
I0
S'generic'
p548
I0
tp549
a(I15
I13
F0.875
S'music'
p550
I0
tp551
a(I16
I182
I-100
S'14mbremoved'
p552
I0
tp553
a(I16
I509
I0
S'closing'
p554
I0
tp555
a(I16
I513
F0.375
S'new'
p556
I0
tp557
a(I16
I522
F0.25
S'recent'
p558
I0
tp559
a(I16
I523
I0
S'few'
p560
I0
tp561
a(I16
I636
F-0.625
S'free'
p562
I0
tp563
a(I16
I671
F0.25
S'largest'
p564
I0
tp565
a(I16
I835
I0
g526
I0
tp566
a(I16
I887
F0.125
S'able'
p567
I0
tp568
a(I17
I78
F0.375
S'new'
p569
I0
tp570
a(I17
I86
F-0.875
S'awful'
p571
I0
tp572
a(I18
I193
I0
S'own'
p573
I0
tp574
a(I19
I124
F-0.5
S'sure'
p575
I0
tp576
a(I19
I124
F0.25
S'larger'
p577
I0
tp578
a(I19
I133
F-0.625
S'want'
p579
I0
tp580
a(I20
I40
F0.375
S'new'
p581
I0
tp582
as(S'smart'
p583
tp584
(lp585
(I8
I101
F-0.625
S'other'
p586
I10
tp587
a(I13
I258
F1.0
S'good'
p588
I10
tp589
a(I14
I166
F0.875
S'nicest'
p590
I10
tp591
a(I15
I2
F0.125
S'first'
p592
I10
tp593
a(I16
I68
I0
S'big'
p594
I10
tp595
a(I16
I192
F0.375
S'new'
p596
I10
tp597
a(I18
I168
F1.0
S'best'
p598
I10
tp599
as(g1
S'new'
p600
S'customer'
p601
tp602
(lp603
(I8
I21
F0.375
S'new'
p604
I0
tp605
a(I11
I11
F0.375
S'new'
p606
I0
tp607
a(I13
I261
F0.375
S'new'
p608
I0
tp609
a(I16
I147
F0.375
S'new'
p610
I0
tp611
a(I20
I130
F-0.5
S'less'
p612
I0
tp613
a(I20
I130
F0.375
S'new'
p614
I0
tp615
a(I2
I14
I0
S'most'
p616
I11
tp617
a(I2
I14
F-0.625
S'bad'
p618
I11
tp619
a(I8
I21
F0.375
g604
I11
tp620
a(I11
I11
F0.375
g606
I11
tp621
a(I13
I261
F0.375
g608
I11
tp622
a(I16
I147
F0.375
g610
I11
tp623
a(I16
I582
F-0.25
S'late'
p624
I11
tp625
a(I16
I727
I0
S'great'
p626
I11
tp627
a(I20
I130
F-0.5
g612
I11
tp628
a(I20
I130
F0.375
g614
I11
tp629
as(S'google'
p630
tp631
(lp632
(I14
I24
I0
S'close'
p633
I4
tp634
a(I16
I476
I-100
S're-named'
p635
I4
tp636
a(I16
I503
I0
S'same'
p637
I4
tp638
a(I16
I638
F-0.625
S'free'
p639
I4
tp640
as(S'at'
p641
S'verizon'
p642
S'store'
p643
tp644
(lp645
(I3
I90
I0
S'local'
p646
I0
tp647
a(I3
I90
I0
S'corporate'
p648
I0
tp649
a(I8
I22
F0.375
S'mean'
p650
I0
tp651
a(I12
I3
I0
S'local'
p652
I0
tp653
a(I3
I90
I0
g646
I0
tp654
a(I3
I90
I0
g648
I0
tp655
a(I8
I22
F0.375
g650
I0
tp656
a(I12
I3
I0
g652
I0
tp657
a(I16
I580
I0
S'local'
p658
I0
tp659
a(I16
I580
F0.375
S'new'
p660
I0
tp661
a(I16
I934
I0
S'local'
p662
I0
tp663
a(I18
I35
I0
S'next'
p664
I0
tp665
a(I3
I80
F0.5
S'told'
p666
I0
tp667
a(I3
I90
I0
g646
I0
tp668
a(I3
I90
I0
g648
I0
tp669
a(I6
I73
F-0.625
S'glad'
p670
I0
tp671
a(I8
I21
F0.375
S'available'
p672
I0
tp673
a(I8
I21
F0.375
S'new'
p674
I0
tp675
a(I8
I22
F0.375
g650
I0
tp676
a(I8
I129
I0
S'slower'
p677
I0
tp678
a(I8
I129
I0
S'slowest'
p679
I0
tp680
a(I12
I3
I0
g652
I0
tp681
a(I13
I116
F0.375
S'honest'
p682
I0
tp683
a(I13
I203
F0.5
S'told'
p684
I0
tp685
a(I16
I127
I0
S'more'
p686
I0
tp687
a(I16
I580
I0
g658
I0
tp688
a(I16
I582
F-0.625
S'other'
p689
I0
tp690
a(I16
I646
F0.625
S'hold'
p691
I0
tp692
a(I16
I839
F0.375
S'available'
p693
I0
tp694
a(I16
I848
F-0.5
S'sure'
p695
I0
tp696
a(I16
I934
I0
g662
I0
tp697
a(I18
I35
I0
g664
I0
tp698
a(I18
I45
F0.5
S'second'
p699
I0
tp700
a(I19
I85
F-0.375
S'top'
p701
I0
tp702
a(I20
I86
F0.125
S'able'
p703
I0
tp704
a(I20
I164
F0.5
S'eligible'
p705
I0
tp706
as(S'much'
p707
S'better'
p708
tp709
(lp710
(I7
I0
F0.375
S'much'
p711
I9
tp712
a(I14
I121
F0.375
S'much'
p713
I9
tp714
a(I14
I121
F-0.625
S'other'
p715
I9
tp716
a(I17
I90
F0.375
S'much'
p717
I9
tp718
as(S'sd'
p719
S'card'
p720
tp721
(lp722
(I14
I148
F-0.625
S'free'
p723
I0
tp724
as(g1
S'car'
p725
S'charger'
p726
tp727
(lp728
(I14
I21
F0.625
S'necessary'
p729
I0
tp730
a(I14
I21
F0.25
S'portable'
p731
I0
tp732
a(I16
I432
I0
S'anal'
p733
I0
tp734
a(I18
I76
I0
S'next'
p735
I0
tp736
a(I20
I160
F0.125
S'charger'
p737
I0
tp738
as(S'dual'
p739
S'core'
p740
S'processor'
p741
tp742
(lp743
(I16
I65
I0
S'fast'
p744
I0
tp745
a(I19
I10
F-0.25
S'lower'
p746
I0
tp747
a(I13
I19
F-0.75
S'single'
p748
I0
tp749
a(I16
I65
I0
g744
I0
tp750
as(S'unlimited'
p751
S'data'
p752
S'plan'
p753
tp754
(lp755
(I4
I40
F-0.5
S'unlimited'
p756
I0
tp757
a(I16
I892
F-0.5
S'unlimited'
p758
I0
tp759
a(I4
I40
F-0.5
g756
I13
tp760
a(I4
I44
F-0.25
S'cheapest'
p761
I13
tp762
a(I12
I45
F-0.5
S'heavy'
p763
I13
tp764
a(I12
I54
F-0.5
S'heavy'
p765
I13
tp766
a(I14
I165
F0.5
S'expensive'
p767
I13
tp768
a(I16
I217
F-0.375
S'double'
p769
I13
tp770
a(I16
I892
F-0.5
g758
I13
tp771
as(S'htc'
p772
S'rezound'
p773
tp774
(lp775
(I0
I5
F-0.875
S'stuck'
p776
I0
tp777
a(I0
I5
F-0.625
S'glad'
p778
I0
tp779
a(I17
I8
F0.375
S'new'
p780
I0
tp781
a(I20
I94
F1.0
S'good'
p782
I0
tp783
a(I0
I5
F-0.625
g778
I0
tp784
a(I19
I3
F0.25
S'sharp'
p785
I0
tp786
a(I20
I94
F1.0
g782
I0
tp787
as(S'of'
p788
S'battery'
p789
S'life'
p790
tp791
(lp792
(I0
I70
F0.625
S'aware'
p793
I0
tp794
a(I8
I172
F1.0
S'good'
p795
I0
tp796
a(I11
I17
F-0.25
S'battery'
p797
I0
tp798
a(I11
I17
F1.0
S'good'
p799
I0
tp800
a(I11
I28
F0.125
S'essential'
p801
I0
tp802
a(I11
I28
F0.625
S'removable'
p803
I0
tp804
a(I13
I194
F-0.5
S'poorest'
p805
I0
tp806
a(I16
I309
I0
S'great'
p807
I0
tp808
a(I16
I464
F0.625
S'aware'
p809
I0
tp810
a(I16
I589
F-0.5
S'longer'
p811
I0
tp812
a(I16
I836
F-0.875
S'stuck'
p813
I0
tp814
a(I19
I27
F-0.875
S'worst'
p815
I0
tp816
a(I19
I110
F-0.5
S'poor'
p817
I0
tp818
a(I20
I145
F1.0
S'better'
p819
I0
tp820
a(I0
I50
F1.0
S'good'
p821
I1
tp822
a(I0
I70
F0.625
g793
I1
tp823
a(I4
I42
F-0.625
S'bad'
p824
I1
tp825
a(I4
I100
F-0.5
S'poor'
p826
I1
tp827
a(I5
I10
F1.0
S'good'
p828
I1
tp829
a(I6
I11
F1.0
S'good'
p830
I1
tp831
a(I6
I17
F-0.25
S'low'
p832
I1
tp833
a(I6
I28
I0
S'great'
p834
I1
tp835
a(I7
I8
F-0.625
S'bad'
p836
I1
tp837
a(I7
I8
F0.75
S'due'
p838
I1
tp839
a(I8
I62
F-0.75
S'short'
p840
I1
tp841
a(I8
I172
F1.0
g795
I1
tp842
a(I8
I192
F-0.375
S'simple'
p843
I1
tp844
a(I11
I12
I0
S'great'
p845
I1
tp846
a(I11
I17
F-0.25
g797
I1
tp847
a(I11
I17
F1.0
g799
I1
tp848
a(I11
I28
F0.125
g801
I1
tp849
a(I11
I28
F0.625
g803
I1
tp850
a(I13
I194
F-0.5
g805
I1
tp851
a(I13
I221
F-0.5
S'longer'
p852
I1
tp853
a(I16
I186
F-0.75
S'short'
p854
I1
tp855
a(I16
I229
F1.0
S'best'
p856
I1
tp857
a(I16
I262
I0
S'great'
p858
I1
tp859
a(I16
I281
F-0.5
S'long'
p860
I1
tp861
a(I16
I309
I0
g807
I1
tp862
a(I16
I464
F0.625
g809
I1
tp863
a(I16
I574
I0
S'great'
p864
I1
tp865
a(I16
I589
F-0.5
g811
I1
tp866
a(I16
I597
F-0.875
S'worst'
p867
I1
tp868
a(I16
I729
F0.875
S'important'
p869
I1
tp870
a(I16
I814
F-0.75
S'short'
p871
I1
tp872
a(I16
I836
F-0.875
g813
I1
tp873
a(I17
I98
F-0.75
S'short'
p874
I1
tp875
a(I18
I139
F0.375
S'new'
p876
I1
tp877
a(I19
I27
F-0.875
g815
I1
tp878
a(I19
I52
F-0.75
S'short'
p879
I1
tp880
a(I19
I110
F-0.5
g817
I1
tp881
a(I20
I14
F1.0
S'good'
p882
I1
tp883
a(I20
I145
F1.0
g819
I1
tp884
a(I20
I147
F0.625
S'acceptable'
p885
I1
tp886
a(I0
I50
F1.0
g821
I19
tp887
a(I4
I42
F-0.625
g824
I19
tp888
a(I5
I10
F1.0
g828
I19
tp889
a(I6
I11
F1.0
g830
I19
tp890
a(I6
I28
I0
g834
I19
tp891
a(I7
I8
F-0.625
g836
I19
tp892
a(I7
I8
F0.75
g838
I19
tp893
a(I8
I62
F-0.75
g840
I19
tp894
a(I8
I172
F1.0
g795
I19
tp895
a(I11
I17
F-0.25
g797
I19
tp896
a(I11
I17
F1.0
g799
I19
tp897
a(I11
I28
F0.125
g801
I19
tp898
a(I16
I186
F-0.75
g854
I19
tp899
a(I16
I229
F1.0
g856
I19
tp900
a(I16
I262
I0
g858
I19
tp901
a(I16
I597
F-0.875
g867
I19
tp902
a(I17
I75
F-0.5
S'longer'
p903
I19
tp904
a(I17
I75
I0
S'general'
p905
I19
tp906
a(I19
I27
F-0.875
g815
I19
tp907
a(I19
I52
F-0.75
g879
I19
tp908
a(I20
I14
F1.0
g882
I19
tp909
a(I20
I147
F0.625
g885
I19
tp910
a(I0
I70
F0.625
g793
I15
tp911
a(I3
I11
F-0.75
S'dead'
p912
I15
tp913
a(I3
I12
F0.25
S'bigger'
p914
I15
tp915
a(I4
I100
F-0.5
g826
I15
tp916
a(I6
I17
F-0.25
g832
I15
tp917
a(I8
I129
F0.375
S'extra'
p918
I15
tp919
a(I8
I130
I0
S'more'
p920
I15
tp921
a(I8
I133
F0.5
S'inaccessible'
p922
I15
tp923
a(I8
I133
I0
S'external'
p924
I15
tp925
a(I8
I147
F-0.75
S'irreplaceable'
p926
I15
tp927
a(I8
I153
F1.0
S'better'
p928
I15
tp929
a(I8
I192
F-0.375
g843
I15
tp930
a(I11
I12
I0
g845
I15
tp931
a(I11
I25
F0.625
S'removable'
p932
I15
tp933
a(I11
I28
F0.625
g803
I15
tp934
a(I12
I38
I0
S'only'
p935
I15
tp936
a(I12
I38
F-0.875
S'negative'
p937
I15
tp938
a(I12
I38
F0.625
S'removable'
p939
I15
tp940
a(I13
I34
F0.375
S'extra'
p941
I15
tp942
a(I13
I144
F0.125
S'last'
p943
I15
tp944
a(I13
I194
F-0.5
g805
I15
tp945
a(I13
I221
F-0.5
g852
I15
tp946
a(I14
I85
I0
S'user'
p947
I15
tp948
a(I14
I85
F0.625
S'replaceable'
p949
I15
tp950
a(I14
I102
F-0.5
S'sudden'
p951
I15
tp952
a(I14
I102
F-0.75
S'dead'
p953
I15
tp954
a(I14
I104
F-0.75
S'dead'
p955
I15
tp956
a(I14
I147
I0
S'real'
p957
I15
tp958
a(I16
I21
F-0.875
S'worst'
p959
I15
tp960
a(I16
I154
F0.125
S'last'
p961
I15
tp962
a(I16
I162
I0
S'full'
p963
I15
tp964
a(I16
I162
F0.5
S'strictest'
p965
I15
tp966
a(I16
I169
I0
S'full'
p967
I15
tp968
a(I16
I281
F-0.5
g860
I15
tp969
a(I16
I309
I0
g807
I15
tp970
a(I16
I328
F0.625
S'replaceable'
p971
I15
tp972
a(I16
I433
I0
S'thicker'
p973
I15
tp974
a(I16
I433
F-0.125
S'overall'
p975
I15
tp976
a(I16
I463
I0
S'more'
p977
I15
tp978
a(I16
I464
F0.625
g809
I15
tp979
a(I16
I574
I0
g864
I15
tp980
a(I16
I589
F-0.5
g811
I15
tp981
a(I16
I615
F-0.5
S'long'
p982
I15
tp983
a(I16
I621
F0.625
S'removable'
p984
I15
tp985
a(I16
I664
F0.25
S'portable'
p986
I15
tp987
a(I16
I664
I0
S'external'
p988
I15
tp989
a(I16
I708
F0.625
S'removable'
p990
I15
tp991
a(I16
I729
F0.875
g869
I15
tp992
a(I16
I789
F0.5
S'true'
p993
I15
tp994
a(I16
I798
I0
S'external'
p995
I15
tp996
a(I16
I814
F-0.75
g871
I15
tp997
a(I16
I836
F-0.875
g813
I15
tp998
a(I16
I877
I0
S'later'
p999
I15
tp1000
a(I16
I903
F0.25
S'bigger'
p1001
I15
tp1002
a(I16
I937
I0
S'more'
p1003
I15
tp1004
a(I16
I953
I0
S'more'
p1005
I15
tp1006
a(I16
I960
F-0.75
S'dead'
p1007
I15
tp1008
a(I17
I98
F-0.75
g874
I15
tp1009
a(I17
I106
F0.375
S'extended'
p1010
I15
tp1011
a(I18
I83
F-0.75
S'dead'
p1012
I15
tp1013
a(I18
I83
F-0.625
S'fresh'
p1014
I15
tp1015
a(I18
I117
I0
S'fast'
p1016
I15
tp1017
a(I18
I139
F0.375
g876
I15
tp1018
a(I18
I146
I0
S'big'
p1019
I15
tp1020
a(I18
I173
F0.625
S'removable'
p1021
I15
tp1022
a(I18
I212
I0
S'more'
p1023
I15
tp1024
a(I19
I5
F0.25
S'larger'
p1025
I15
tp1026
a(I19
I30
F0.125
S'last'
p1027
I15
tp1028
a(I19
I110
F-0.5
g817
I15
tp1029
a(I19
I112
F1.0
S'better'
p1030
I15
tp1031
a(I20
I2
F0.125
S'first'
p1032
I15
tp1033
a(I20
I2
I0
S'empty'
p1034
I15
tp1035
a(I20
I2
F0.125
S'able'
p1036
I15
tp1037
a(I20
I7
F0.375
S'new'
p1038
I15
tp1039
a(I20
I103
F0.625
S'removable'
p1040
I15
tp1041
a(I20
I103
F0.625
S'removable'
p1042
I15
tp1043
a(I20
I145
F1.0
g819
I15
tp1044
as(S'customer'
p1045
S'service'
p1046
tp1047
(lp1048
(I2
I14
I0
g616
I3
tp1049
a(I2
I14
F-0.625
g618
I3
tp1050
a(I3
I78
F0.875
S'happy'
p1051
I3
tp1052
a(I16
I727
I0
g626
I3
tp1053
a(I16
I763
F0.375
S'new'
p1054
I3
tp1055
a(I16
I771
F-0.75
S'likely'
p1056
I3
tp1057
a(I18
I46
F-0.375
S'unacceptable'
p1058
I3
tp1059
a(I3
I78
F0.875
g1051
I16
tp1060
a(I3
I106
F0.625
S'easier'
p1061
I16
tp1062
a(I12
I41
I0
S'standard'
p1063
I16
tp1064
a(I13
I57
F1.0
S'good'
p1065
I16
tp1066
a(I16
I435
F-0.75
S'worse'
p1067
I16
tp1068
a(I16
I763
F0.375
g1054
I16
tp1069
a(I16
I771
F-0.75
g1056
I16
tp1070
a(I16
I854
F0.375
S'reliable'
p1071
I16
tp1072
a(I18
I46
F-0.375
g1058
I16
tp1073
a(I20
I154
F1.0
S'better'
p1074
I16
tp1075
as(S'amazon'
p1076
tp1077
(lp1078
(I3
I117
I0
S'great'
p1079
I13
tp1080
a(I13
I57
F-0.5
S'regular'
p1081
I13
tp1082
a(I16
I101
F0.625
S'aware'
p1083
I13
tp1084
a(I16
I147
I-100
S'-10+'
p1085
I13
tp1086
a(I18
I115
F-0.375
S'smooth'
p1087
I13
tp1088
as(S'4g'
p1089
S'lte'
p1090
tp1091
(lp1092
(I17
I79
F0.125
S'last'
p1093
I0
tp1094
a(I17
I79
I0
S'least'
p1095
I0
tp1096
a(I17
I79
F0.5
S'touch'
p1097
I0
tp1098
as.