(dp0
(S'qwerty'
p1
S'keyboard'
p2
tp3
(lp4
(I4
I3
F0.625
S'easy'
p5
I0
tp6
a(I0
I35
F0.25
S'larger'
p7
I2
tp8
a(I1
I28
F-0.375
S'small'
p9
I2
tp10
a(I2
I38
I0
S'full'
p11
I2
tp12
a(I3
I11
F-0.5
S'actual'
p13
I2
tp14
a(I4
I3
F0.625
g5
I2
tp15
a(I6
I37
F-0.625
S'light'
p16
I2
tp17
a(I6
I37
I0
S'full'
p18
I2
tp19
as(S'messages'
p20
tp21
(lp22
(I2
I10
I0
S'many'
p23
I1
tp24
a(I2
I12
F-0.5
S'sure'
p25
I1
tp26
as(S'battery'
p27
tp28
(lp29
(I0
I29
F0.375
S'new'
p30
I15
tp31
a(I2
I25
F0.375
S'new'
p32
I15
tp33
a(I2
I32
F0.375
S'new'
p34
I15
tp35
a(I6
I57
F0.125
S'last'
p36
I15
tp37
a(I6
I69
F0.375
S'new'
p38
I15
tp39
a(I6
I74
F-0.625
S'bad'
p40
I15
tp41
as(S'texting'
p42
tp43
(lp44
(I2
I46
F1.0
S'good'
p45
I0
tp46
a(I2
I46
F0.625
S'easy'
p47
I0
tp48
a(I3
I1
I0
S'great'
p49
I0
tp50
as(S'smart'
p51
tp52
(lp53
(I6
I17
I0
S'more'
p54
I10
tp55
as(S'no'
p56
S'longer'
p57
tp58
(lp59
(I2
I5
F0.625
S'necessary'
p60
I7
tp61
as(S'data'
p62
S'plan'
p63
tp64
(lp65
(I4
I14
F0.375
S'extra'
p66
I0
tp67
as(S'call'
p68
S'quality'
p69
tp70
(lp71
(I0
I23
F1.0
S'good'
p72
I0
tp73
a(I4
I18
F1.0
S'good'
p74
I0
tp75
a(I4
I21
F0.5
S'clear'
p76
I0
tp77
as(S'calls'
p78
tp79
(lp80
(I0
I13
F1.0
S'good'
p81
I0
tp82
a(I1
I44
F0.5
S'clear'
p83
I0
tp84
as(S'sim'
p85
S'card'
p86
tp87
(lp88
(I1
I24
F0.625
S'easy'
p89
I0
tp90
a(I1
I24
I0
S'old'
p91
I0
tp92
a(I1
I50
I0
S'great'
p93
I0
tp94
a(I1
I50
I0
S'old'
p95
I0
tp96
a(I6
I30
F0.375
S'register'
p97
I0
tp98
as(S'many'
p99
S'features'
p100
tp101
(lp102
(I2
I34
I0
S'many'
p103
I0
tp104
a(I2
I51
I0
S'many'
p105
I0
tp106
a(I2
I62
I0
S'many'
p107
I0
tp108
as(S'touch'
p109
S'screen'
p110
tp111
(lp112
(I1
I38
F0.5
S'touch'
p113
I2
tp114
a(I1
I40
F1.0
S'best'
p115
I2
tp116
a(I1
I42
F0.5
S'touch'
p117
I2
tp118
as(S'text'
p119
tp120
(lp121
(I6
I42
F0.625
S'easy'
p122
I18
tp123
as(S'link'
p124
tp125
(lp126
(I1
I17
F0.375
S'newer'
p127
I6
tp128
a(I2
I34
F-0.125
S'overall'
p129
I6
tp130
a(I6
I0
I0
S'close'
p131
I6
tp132
as.