(dp0
(S'model'
p1
tp2
(lp3
(I0
I1
I0
S'same'
p4
tp5
a(I5
I0
I0
S'particular'
p6
tp7
a(I54
I2
I0
S'same'
p8
tp9
a(I85
I0
I0
S'basic'
p10
tp11
a(I103
I1
I0
S'same'
p12
tp13
a(I125
I3
F1.0
S'good'
p14
tp15
a(I149
I1
F0.875
S'happy'
p16
tp17
a(I149
I2
F-0.5
S'tried'
p18
tp19
a(I149
I2
F0.5
S'true'
p20
tp21
a(I155
I1
F-0.125
S'mine'
p22
tp23
as(S'browser'
p24
tp25
(lp26
(I72
I0
I0
S'toggle'
p27
tp28
a(I80
I3
F-0.5
S'complaint'
p29
tp30
a(I80
I3
F0.625
S'easy'
p31
tp32
a(I101
I1
F-0.75
S'hate'
p33
tp34
a(I108
I1
F0.125
S'key'
p35
tp36
a(I150
I2
F-0.375
S'disable'
p37
tp38
as(S'battery'
p39
S'life'
p40
tp41
(lp42
(I22
I4
F1.0
S'good'
p43
tp44
a(I25
I0
I0
S'great'
p45
tp46
a(I90
I4
F1.0
S'good'
p47
tp48
a(I92
I0
F1.0
S'good'
p49
tp50
a(I102
I3
F1.0
S'good'
p51
tp52
a(I111
I1
F0.625
S'decent'
p53
tp54
a(I130
I1
F-0.75
S'short'
p55
tp56
a(I132
I0
F1.0
S'good'
p57
tp58
a(I139
I15
F-0.5
S'poor'
p59
tp60
as(S'minutes'
p61
tp62
(lp63
(I5
I0
F-0.375
S'double'
p64
tp65
a(I5
I1
F-0.625
S'free'
p66
tp67
a(I8
I0
I0
S'many'
p68
tp69
a(I9
I7
I0
S'monthly'
p70
tp71
a(I11
I0
F-0.25
S'triple'
p72
tp73
a(I11
I0
I0
S'same'
p74
tp75
a(I22
I1
F0.125
S'first'
p76
tp77
a(I22
I2
F-0.625
S'free'
p78
tp79
a(I22
I3
F-0.625
S'free'
p80
tp81
a(I23
I2
F-0.25
S'triple'
p82
tp83
a(I23
I10
I0
S'anniversary'
p84
tp85
a(I23
I11
I0
S'more'
p86
tp87
a(I24
I2
I0
S'least'
p88
tp89
a(I24
I2
I0
S'great'
p90
tp91
a(I56
I2
F-0.5
S'less'
p92
tp93
a(I57
I1
F-0.5
S'less'
p94
tp95
a(I65
I1
F-0.625
S'average'
p96
tp97
a(I67
I0
F-0.25
S'triple'
p98
tp99
a(I67
I0
F-0.375
S'double'
p100
tp101
a(I78
I2
I0
S'few'
p102
tp103
a(I81
I4
I0
S'few'
p104
tp105
a(I84
I4
F-0.375
S'double'
p106
tp107
a(I91
I4
F-0.375
S'double'
p108
tp109
a(I97
I7
F-0.375
S'double'
p110
tp111
a(I102
I6
F-0.375
S'double'
p112
tp113
a(I118
I2
I0
S'same'
p114
tp115
a(I129
I0
F-0.25
S'triple'
p116
tp117
a(I136
I4
F0.375
S'extra'
p118
tp119
a(I136
I4
I0
S'total'
p120
tp121
a(I138
I0
F0.5
S'expensive'
p122
tp123
a(I148
I1
F-0.375
S'double'
p124
tp125
a(I155
I1
F-0.375
S'double'
p126
tp127
a(I164
I14
F-0.625
S'free'
p128
tp129
a(I164
I25
F-0.625
S'free'
p130
tp131
a(I166
I0
F-0.375
S'double'
p132
tp133
a(I167
I0
I0
S'more'
p134
tp135
a(I167
I0
F-0.375
S'double'
p136
tp137
a(I167
I0
I0
S'great'
p138
tp139
a(I176
I0
F-0.375
S'double'
p140
tp141
a(I176
I4
F-0.25
S'triple'
p142
tp143
as(S'year'
p144
tp145
(lp146
(I56
I4
F-0.25
S'past'
p147
tp148
a(I151
I0
F-0.625
S'sorry'
p149
tp150
as(S'little'
p151
tp152
(lp153
(I51
I0
F1.0
S'good'
p154
tp155
as(S'land'
p156
tp157
(lp158
(I164
I0
I0
S'old'
p159
tp160
a(I164
I5
F0.5
S'rid'
p161
tp162
a(I164
I11
F0.5
S'possible'
p163
tp164
a(I164
I22
I0
S'old'
p165
tp166
a(I164
I24
I0
S'old'
p167
tp168
as(S'flip'
p169
tp170
(lp171
(I123
I0
F0.875
S'nice'
p172
tp173
a(I123
I0
I0
S'old'
p174
tp175
as(S'money'
p176
tp177
(lp178
(I9
I1
I0
S'more'
p179
tp180
a(I93
I6
F0.75
S'worth'
p181
tp182
a(I156
I2
I0
S'great'
p183
tp184
as(S'minute'
p185
tp186
(lp187
(I109
I3
I0
S'great'
p188
tp189
as(S'first'
p190
S'time'
p191
tp192
(lp193
(I40
I0
F0.125
S'first'
p194
tp195
a(I113
I0
F0.125
S'first'
p196
tp197
a(I129
I0
F0.125
S'first'
p198
tp199
a(I136
I0
F0.125
S'first'
p200
tp201
a(I144
I0
F0.125
S'first'
p202
tp203
a(I145
I3
F0.125
S'first'
p204
tp205
as(S'price'
p206
tp207
(lp208
(I26
I1
I0
S'more'
p209
tp210
a(I34
I0
F-0.25
S'low'
p211
tp212
a(I63
I1
F0.375
S'new'
p213
tp214
a(I63
I1
F1.0
S'good'
p215
tp216
a(I85
I1
I0
S'fifth'
p217
tp218
a(I100
I6
I0
S'great'
p219
tp220
a(I119
I0
F1.0
S'best'
p221
tp222
a(I146
I4
I0
S'great'
p223
tp224
a(I155
I2
F-0.25
S'low'
p225
tp226
a(I174
I1
F1.0
S'good'
p227
tp228
as(S'customer'
p229
tp230
(lp231
(I164
I19
F1.0
S'good'
p232
tp233
as(S'samsung'
p234
S't301g'
p235
tp236
(lp237
(I127
I0
I0
S'third'
p238
tp239
as(S'service'
p240
tp241
(lp242
(I0
I1
F0.375
S'reliable'
p243
tp244
a(I15
I6
F-0.75
S'difficult'
p245
tp246
a(I23
I8
F-0.625
S'average'
p247
tp248
a(I76
I0
F1.0
S'good'
p249
tp250
a(I91
I1
I0
S'full'
p251
tp252
a(I91
I1
F0.625
S'partial'
p253
tp254
a(I92
I0
F1.0
S'best'
p255
tp256
a(I109
I9
F-0.25
S'cheaper'
p257
tp258
a(I109
I9
F1.0
S'better'
p259
tp260
a(I132
I2
I0
S'special'
p261
tp262
a(I156
I2
I0
S'great'
p263
tp264
a(I162
I4
F0.375
S'available'
p265
tp266
a(I164
I11
I0
S'great'
p267
tp268
a(I166
I5
I0
S'great'
p269
tp270
as(S'code'
p271
tp272
(lp273
(I132
I2
I0
S'dial'
p274
tp275
a(I132
I2
F-0.5
S'long'
p276
tp277
as(S'samsung'
p278
tp279
(lp280
(I9
I6
I0
S'same'
p281
tp282
a(I61
I1
F-0.375
S'manual'
p283
tp284
a(I127
I0
I0
g238
tp285
as(S'triple'
p286
S'minutes'
p287
tp288
(lp289
(I5
I0
F-0.375
g64
tp290
a(I9
I1
F0.625
S'aware'
p291
tp292
a(I9
I7
I0
g70
tp293
a(I11
I0
F-0.25
g72
tp294
a(I11
I0
I0
g74
tp295
a(I19
I1
F0.125
S'first'
p296
tp297
a(I23
I2
F-0.25
g82
tp298
a(I24
I1
I0
S'great'
p299
tp300
a(I24
I2
I0
g88
tp301
a(I24
I2
I0
g90
tp302
a(I67
I0
F-0.25
g98
tp303
a(I67
I0
F-0.375
g100
tp304
a(I84
I4
F-0.375
g106
tp305
a(I129
I0
F-0.25
g116
tp306
a(I135
I2
I0
S'great'
p307
tp308
a(I138
I0
F0.5
g122
tp309
a(I168
I1
F-0.625
S'free'
p310
tp311
a(I174
I1
F0.875
S'happy'
p312
tp313
a(I176
I0
F-0.375
g140
tp314
a(I176
I4
F-0.25
g142
tp315
a(I178
I1
F0.625
S'easy'
p316
tp317
a(I178
I1
I0
S'great'
p318
tp319
as(S'number'
p320
tp321
(lp322
(I21
I1
F0.625
S'easier'
p323
tp324
a(I48
I3
I0
S'serial'
p325
tp326
a(I129
I4
F0.5
S'told'
p327
tp328
a(I129
I4
I0
S'same'
p329
tp330
a(I152
I4
F-0.5
S'less'
p331
tp332
a(I152
I5
F0.125
S'able'
p333
tp334
a(I152
I5
I0
S'same'
p335
tp336
as(S'tracfone'
p337
tp338
(lp339
(I39
I3
F0.125
S'last'
p340
tp341
a(I57
I2
I0
S'quick'
p342
tp343
a(I59
I2
F0.625
S'perfect'
p344
tp345
a(I81
I6
F0.875
S'happy'
p346
tp347
a(I91
I4
I0
S'great'
p348
tp349
a(I99
I0
F1.0
S'best'
p350
tp351
a(I99
I1
I0
S'more'
p352
tp353
a(I110
I0
I0
S'great'
p354
tp355
a(I117
I0
I0
S'february'
p356
tp357
a(I176
I7
F0.375
S'follow'
p358
tp359
as(S'line'
p360
S'number'
p361
tp362
(lp363
(I48
I3
I0
g325
tp364
as(S'plus'
p365
tp366
(lp367
(I93
I5
F1.0
S'good'
p368
tp369
as(S'month'
p370
tp371
(lp372
(I7
I4
I0
S'same'
p373
tp374
a(I13
I7
I0
S'old'
p375
tp376
as(S'free'
p377
S'minutes'
p378
tp379
(lp380
(I5
I1
F-0.625
g66
tp381
a(I22
I2
F-0.625
g78
tp382
a(I22
I3
F-0.625
g80
tp383
a(I164
I14
F-0.625
g128
tp384
a(I164
I25
F-0.625
g130
tp385
as(S'reception'
p386
tp387
(lp388
(I7
I1
F0.625
S'easy'
p389
tp390
a(I7
I1
I0
S'great'
p391
tp392
a(I20
I0
F1.0
S'good'
p393
tp394
a(I20
I0
I0
S'cellular'
p395
tp396
a(I28
I1
I0
S'great'
p397
tp398
a(I28
I1
F0.625
S'easy'
p399
tp400
a(I39
I3
F1.0
S'good'
p401
tp402
a(I97
I2
F-0.625
S'bad'
p403
tp404
a(I132
I0
F1.0
S'good'
p405
tp406
a(I177
I0
F1.0
S'good'
p407
tp408
as(S'customer'
p409
S'service'
p410
tp411
(lp412
(I15
I6
F-0.75
g245
tp413
a(I164
I19
F1.0
g232
tp414
as(S'life'
p415
tp416
(lp417
(I22
I4
F1.0
g43
tp418
a(I25
I0
I0
g45
tp419
a(I85
I2
I0
S'real'
p420
tp421
a(I90
I4
F1.0
g47
tp422
a(I102
I3
F1.0
g51
tp423
a(I111
I1
F0.625
g53
tp424
a(I119
I3
F0.875
S'important'
p425
tp426
a(I130
I1
F-0.75
g55
tp427
as(S'voice'
p428
S'mail'
p429
tp430
(lp431
(I8
I0
F0.875
S'nice'
p432
tp433
a(I164
I24
F-0.25
S'google'
p434
tp435
as(S'right'
p436
tp437
(lp438
(I121
I2
F0.375
S'upper'
p439
tp440
a(I164
I21
F0.375
S'upper'
p441
tp442
a(I177
I3
F-0.375
S'top'
p443
tp444
as(S'double'
p445
S'minutes'
p446
tp447
(lp448
(I5
I0
F-0.375
g64
tp449
a(I67
I0
F-0.25
g98
tp450
a(I67
I0
F-0.375
g100
tp451
a(I84
I4
F-0.375
g106
tp452
a(I91
I4
F-0.375
g108
tp453
a(I97
I7
F-0.375
g110
tp454
a(I102
I6
F-0.375
g112
tp455
a(I148
I1
F-0.375
g124
tp456
a(I155
I1
F-0.375
g126
tp457
a(I166
I0
F-0.375
g132
tp458
a(I167
I0
I0
g134
tp459
a(I167
I0
F-0.375
g136
tp460
a(I167
I0
I0
g138
tp461
a(I176
I0
F-0.375
g140
tp462
a(I176
I4
F-0.25
g142
tp463
as(S'minutes'
p464
S'for'
p465
S'life'
p466
tp467
(lp468
(I23
I2
F-0.25
g82
tp469
a(I102
I6
F-0.375
g112
tp470
a(I119
I3
F0.875
g425
tp471
as(S'signal'
p472
tp473
(lp474
(I170
I0
F1.0
S'good'
p475
tp476
as(S'1200'
p477
S'minutes'
p478
tp479
(lp480
(I23
I11
I0
g86
tp481
as(S'slider'
p482
tp483
(lp484
(I29
I0
F0.125
S'first'
p485
tp486
a(I106
I1
F0.625
S'easy'
p487
tp488
a(I107
I2
I0
S'great'
p489
tp490
a(I153
I1
F0.375
S'much'
p491
tp492
a(I169
I1
F1.0
S'good'
p493
tp494
as(S'people'
p495
tp496
(lp497
(I0
I6
F0.25
S'helpful'
p498
tp499
a(I72
I2
I0
S'most'
p500
tp501
a(I72
I2
F-0.75
S'likely'
p502
tp503
a(I129
I7
F-0.625
S'other'
p504
tp505
a(I131
I0
I0
S'text'
p506
tp507
a(I164
I1
F-0.625
S'other'
p508
tp509
as(S'feature'
p510
tp511
(lp512
(I7
I2
I0
S'great'
p513
tp514
as(S'get'
p515
S'triple'
p516
S'minutes'
p517
tp518
(lp519
(I9
I7
I0
g70
tp520
a(I11
I0
F-0.25
g72
tp521
a(I11
I0
I0
g74
tp522
a(I174
I1
F0.875
g312
tp523
as(S'google'
p524
tp525
(lp526
(I164
I7
F-0.625
S'free'
p527
tp528
as(S'transfer'
p529
tp530
(lp531
(I164
I26
F-0.25
S'google'
p532
tp533
as(S'years'
p534
tp535
(lp536
(I9
I0
I0
S'few'
p537
tp538
a(I19
I0
I0
S'few'
p539
tp540
a(I19
I0
F0.625
S'necessary'
p541
tp542
a(I104
I0
I0
S'old'
p543
tp544
a(I137
I1
I0
S'old'
p545
tp546
a(I143
I0
I0
S'old'
p547
tp548
as(S'plan'
p549
tp550
(lp551
(I23
I12
F0.125
S'typical'
p552
tp553
a(I141
I3
F0.625
S'aware'
p554
tp555
a(I141
I12
F0.75
S'worth'
p556
tp557
as(S'bluetooth'
p558
tp559
(lp560
(I15
I1
F0.5
S'compatible'
p561
tp562
a(I15
I4
F0.5
S'check'
p563
tp564
a(I140
I7
F1.0
S'better'
p565
tp566
as(S'r'
p567
S'minutes'
p568
tp569
(lp570
(I5
I0
F-0.375
g64
tp571
a(I5
I1
F-0.625
g66
tp572
a(I8
I0
I0
g68
tp573
a(I9
I7
I0
g70
tp574
a(I11
I0
F-0.25
g72
tp575
a(I11
I0
I0
g74
tp576
a(I22
I1
F0.125
g76
tp577
a(I22
I2
F-0.625
g78
tp578
a(I22
I3
F-0.625
g80
tp579
a(I23
I2
F-0.25
g82
tp580
a(I23
I10
I0
g84
tp581
a(I23
I11
I0
g86
tp582
a(I24
I2
I0
g88
tp583
a(I24
I2
I0
g90
tp584
a(I56
I2
F-0.5
g92
tp585
a(I57
I1
F-0.5
g94
tp586
a(I65
I1
F-0.625
g96
tp587
a(I67
I0
F-0.25
g98
tp588
a(I67
I0
F-0.375
g100
tp589
a(I78
I2
I0
g102
tp590
a(I81
I4
I0
g104
tp591
a(I84
I4
F-0.375
g106
tp592
a(I91
I4
F-0.375
g108
tp593
a(I97
I7
F-0.375
g110
tp594
a(I102
I6
F-0.375
g112
tp595
a(I129
I0
F-0.25
g116
tp596
a(I136
I4
F0.375
g118
tp597
a(I136
I4
I0
g120
tp598
a(I138
I0
F0.5
g122
tp599
a(I148
I1
F-0.375
g124
tp600
a(I155
I1
F-0.375
g126
tp601
a(I164
I14
F-0.625
g128
tp602
a(I164
I25
F-0.625
g130
tp603
a(I166
I0
F-0.375
g132
tp604
a(I167
I0
I0
g134
tp605
a(I167
I0
F-0.375
g136
tp606
a(I167
I0
I0
g138
tp607
a(I176
I0
F-0.375
g140
tp608
a(I176
I4
F-0.25
g142
tp609
as(S'triple'
p610
tp611
(lp612
(I9
I1
F0.625
g291
tp613
a(I14
I0
F0.625
S'easy'
p614
tp615
a(I19
I1
F0.125
g296
tp616
a(I24
I1
I0
g299
tp617
a(I135
I2
I0
g307
tp618
a(I168
I1
F-0.625
g310
tp619
a(I174
I1
F0.875
g312
tp620
a(I178
I1
F0.625
g316
tp621
a(I178
I1
I0
g318
tp622
as(S'problem'
p623
tp624
(lp625
(I83
I2
I0
S'only'
p626
tp627
a(I91
I3
I0
S'same'
p628
tp629
a(I171
I1
I0
S'only'
p630
tp631
a(I177
I1
I0
S'only'
p632
tp633
a(I177
I1
I0
S'real'
p634
tp635
a(I177
I3
I0
S'great'
p636
tp637
as(S'and'
p638
S'triple'
p639
S'minutes'
p640
tp641
(lp642
(I5
I0
F-0.375
g64
tp643
a(I19
I1
F0.125
g296
tp644
a(I67
I0
F-0.25
g98
tp645
a(I67
I0
F-0.375
g100
tp646
a(I129
I0
F-0.25
g116
tp647
a(I138
I0
F0.5
g122
tp648
a(I168
I1
F-0.625
g310
tp649
a(I174
I1
F0.875
g312
tp650
a(I178
I1
F0.625
g316
tp651
a(I178
I1
I0
g318
tp652
as(S'battery'
p653
tp654
(lp655
(I9
I3
F0.375
S'extra'
p656
tp657
a(I47
I1
F-0.75
S'difficult'
p658
tp659
a(I47
I1
F-0.5
S'open'
p660
tp661
a(I92
I0
F1.0
g49
tp662
a(I113
I1
F-0.75
S'difficult'
p663
tp664
a(I129
I11
I0
S'many'
p665
tp666
a(I132
I0
F1.0
g57
tp667
a(I139
I15
F-0.5
g59
tp668
as(S'smart'
p669
tp670
(lp671
(I134
I6
F-0.625
S'other'
p672
tp673
as(S'has'
p674
S'triple'
p675
S'minutes'
p676
tp677
(lp678
(I9
I7
I0
g70
tp679
a(I67
I0
F-0.25
g98
tp680
a(I67
I0
F-0.375
g100
tp681
a(I129
I0
F-0.25
g116
tp682
as(S'hold'
p683
S'a'
p684
S'charge'
p685
tp686
(lp687
(I109
I4
F1.0
S'good'
p688
tp689
a(I128
I0
F-0.5
S'flimsy'
p690
tp691
as(S'cell'
p692
tp693
(lp694
(I5
I2
I0
S'more'
p695
tp696
a(I23
I24
I0
S'few'
p697
tp698
a(I75
I1
F-0.5
S'regular'
p699
tp700
a(I75
I1
I0
S'great'
p701
tp702
a(I81
I6
I0
S'particular'
p703
tp704
a(I93
I1
F0.125
S'last'
p705
tp706
a(I154
I4
F-0.375
S'simple'
p707
tp708
a(I154
I4
F0.625
S'easy'
p709
tp710
a(I162
I0
F-0.625
S'other'
p711
tp712
a(I166
I1
F0.875
S'happy'
p713
tp714
as(S'n'
p715
S'area'
p716
tp717
(lp718
(I4
I1
I0
S'wide'
p719
tp720
a(I139
I5
F0.125
S'first'
p721
tp722
as(S'cheap'
p723
tp724
(lp725
(I83
I1
F-0.625
S'other'
p726
tp727
a(I138
I0
F-0.75
S'unreliable'
p728
tp729
a(I162
I0
F1.0
S'good'
p730
tp731
a(I162
I0
F1.0
S'good'
p732
tp733
as(S'area'
p734
tp735
(lp736
(I4
I1
I0
g719
tp737
a(I139
I5
F0.125
g721
tp738
as(S'charge'
p739
tp740
(lp741
(I109
I4
F1.0
g688
tp742
a(I128
I0
F-0.5
g690
tp743
a(I129
I6
F1.0
S'better'
p744
tp745
a(I135
I0
F0.125
S'last'
p746
tp747
as(S'land'
p748
S'line'
p749
S'number'
p750
tp751
(lp752
(I164
I0
I0
g159
tp753
a(I164
I11
F0.5
g163
tp754
a(I164
I22
I0
g165
tp755
a(I164
I24
I0
g167
tp756
as(S'works'
p757
tp758
(lp759
(I56
I5
F0.375
S'senior'
p760
tp761
a(I65
I0
F-0.5
S'less'
p762
tp763
a(I91
I1
I0
S'great'
p764
tp765
a(I115
I4
I0
S'great'
p766
tp767
a(I115
I4
F-0.5
S'sure'
p768
tp769
a(I120
I1
F0.625
S'easy'
p770
tp771
a(I127
I1
F1.0
S'good'
p772
tp773
as(S're'
p774
S'no'
p775
S'way'
p776
tp777
(lp778
(I72
I0
F-0.375
S'disable'
p779
tp780
a(I72
I0
F0.5
S'suggest'
p781
tp782
a(I84
I1
F-0.25
S'white'
p783
tp784
a(I84
I1
F-0.25
S'yellow'
p785
tp786
a(I86
I1
F-0.375
S'disable'
p787
tp788
as(S'text'
p789
S'messages'
p790
tp791
(lp792
(I23
I19
I0
S'text'
p793
tp794
a(I81
I1
I0
S'signal'
p795
tp796
as(S'call'
p797
tp798
(lp799
(I2
I3
F0.5
S'second'
p800
tp801
a(I2
I3
F0.5
S'whole'
p802
tp803
a(I97
I7
F-0.25
S'hung'
p804
tp805
as(S'line'
p806
tp807
(lp808
(I45
I13
F-0.125
S'overall'
p809
tp810
a(I164
I4
F0.75
S'proper'
p811
tp812
a(I164
I13
F0.375
S'new'
p813
tp814
as(S'save'
p815
S'money'
p816
tp817
(lp818
(I156
I2
I0
g183
tp819
as(S'voice'
p820
tp821
(lp822
(I141
I11
F-0.25
S'google'
p823
tp824
a(I164
I8
F-0.25
S'google'
p825
tp826
a(I164
I24
F-0.25
g434
tp827
as(S'with'
p828
S'triple'
p829
S'minutes'
p830
tp831
(lp832
(I11
I0
F-0.25
g72
tp833
a(I11
I0
I0
g74
tp834
a(I23
I2
F-0.25
g82
tp835
a(I67
I0
F-0.25
g98
tp836
a(I67
I0
F-0.375
g100
tp837
a(I129
I0
F-0.25
g116
tp838
as(S'do'
p839
S"n't"
p840
S'text'
p841
tp842
(lp843
(I141
I5
F-0.625
S'free'
p844
tp845
a(I141
I6
F-0.5
S'open'
p846
tp847
as(S'time'
p848
tp849
(lp850
(I2
I3
F-0.5
S'actual'
p851
tp852
a(I16
I1
F0.625
S'easy'
p853
tp854
a(I17
I0
I0
S'most'
p855
tp856
a(I17
I0
F0.125
S'able'
p857
tp858
a(I28
I2
F-0.5
S'long'
p859
tp860
a(I40
I0
F0.125
g194
tp861
a(I70
I5
F1.0
S'good'
p862
tp863
a(I99
I1
I0
S'old'
p864
tp865
a(I113
I0
F0.125
g196
tp866
a(I114
I3
F-0.5
S'long'
p867
tp868
a(I117
I3
F0.125
S'last'
p869
tp870
a(I129
I0
F0.125
g198
tp871
a(I136
I0
F0.125
g200
tp872
a(I142
I0
I0
S'next'
p873
tp874
a(I144
I0
F0.125
g202
tp875
a(I145
I3
F0.125
g204
tp876
as(S'find'
p877
tp878
(lp879
(I61
I0
F-0.125
S'cant'
p880
tp881
as(S'card'
p882
tp883
(lp884
(I4
I3
I0
S'one-year'
p885
tp886
a(I42
I0
F0.75
S'worth'
p887
tp888
as(S'1'
p889
S'year'
p890
tp891
(lp892
(I151
I0
F-0.625
g149
tp893
as(S'land'
p894
S'line'
p895
tp896
(lp897
(I164
I0
I0
g159
tp898
a(I164
I5
F0.5
g161
tp899
a(I164
I11
F0.5
g163
tp900
a(I164
I22
I0
g165
tp901
a(I164
I24
I0
g167
tp902
as(S'size'
p903
tp904
(lp905
(I29
I3
F-0.375
S'smaller'
p906
tp907
a(I29
I3
F0.625
S'convenient'
p908
tp909
a(I35
I6
I0
S'most'
p910
tp911
a(I37
I4
F0.625
S'perfect'
p912
tp913
a(I121
I0
F-0.375
S'small'
p914
tp915
as(S'make'
p916
tp917
(lp918
(I0
I4
I0
S'economical'
p919
tp920
as(S't301g'
p921
tp922
(lp923
(I3
I0
F0.375
S'new'
p924
tp925
a(I9
I0
F0.125
S'first'
p926
tp927
a(I54
I0
F0.5
S'second'
p928
tp929
as(S'per'
p930
S'month'
p931
tp932
(lp933
(I7
I4
I0
g373
tp934
as(S'deal'
p935
tp936
(lp937
(I72
I0
I0
S'big'
p938
tp939
a(I127
I2
F1.0
S'good'
p940
tp941
a(I139
I9
I0
S'great'
p942
tp943
a(I146
I0
I0
S'great'
p944
tp945
a(I147
I2
F1.0
S'best'
p946
tp947
a(I160
I1
F1.0
S'good'
p948
tp949
a(I176
I1
I0
S'great'
p950
tp951
as(S'to'
p952
S'google'
p953
S'voice'
p954
tp955
(lp956
(I164
I7
F-0.625
g527
tp957
a(I164
I24
F-0.25
g434
tp958
as(S'coverage'
p959
S'area'
p960
tp961
(lp962
(I127
I1
F1.0
S'good'
p963
tp964
a(I139
I2
I0
S'same'
p965
tp966
a(I139
I5
F0.125
g721
tp967
as(S'days'
p968
tp969
(lp970
(I0
I5
I0
S'few'
p971
tp972
a(I24
I0
I0
S'few'
p973
tp974
a(I32
I0
I0
S'few'
p975
tp976
a(I55
I3
I0
S'few'
p977
tp978
a(I55
I3
I0
S'later'
p979
tp980
a(I55
I3
F1.0
S'better'
p981
tp982
as(S'google'
p983
S'voice'
p984
tp985
(lp986
(I141
I11
F-0.25
g823
tp987
a(I164
I7
F-0.625
g527
tp988
a(I164
I8
F-0.25
g825
tp989
a(I164
I24
F-0.25
g434
tp990
as(S'cost'
p991
tp992
(lp993
(I57
I3
F-0.5
S'less'
p994
tp995
a(I156
I0
F-0.25
S'low'
p996
tp997
as(S'easy'
p998
S'to'
p999
S'use'
p1000
tp1001
(lp1002
(I136
I7
F-0.625
S'light'
p1003
tp1004
as(S'text'
p1005
tp1006
(lp1007
(I109
I7
I0
S'old'
p1008
tp1009
a(I141
I5
F-0.625
g844
tp1010
a(I141
I6
F-0.5
g846
tp1011
as(S'calls'
p1012
tp1013
(lp1014
(I15
I2
F0.125
S'able'
p1015
tp1016
a(I81
I2
F-0.375
S'static'
p1017
tp1018
a(I91
I3
I0
S'few'
p1019
tp1020
a(I91
I3
F-0.625
S'other'
p1021
tp1022
a(I109
I6
I0
S'own'
p1023
tp1024
a(I115
I1
F0.125
S'outside'
p1025
tp1026
a(I115
I1
I0
S'few'
p1027
tp1028
as.