(dp0
(S'seller'
p1
tp2
(lp3
(I4
I10
F0.875
S'nice'
p4
I19
tp5
a(I5
I11
F0.25
S'helpful'
p6
I19
tp7
a(I10
I6
F0.125
S'impressive'
p8
I19
tp9
a(I11
I13
F0.375
S'reliable'
p10
I19
tp11
a(I22
I7
F0.375
S'new'
p12
I19
tp13
as(S'iphone'
p14
tp15
(lp16
(I2
I9
F0.5
S'second'
p17
I1
tp18
a(I5
I3
F0.375
S'new'
p19
I1
tp20
a(I5
I13
F-0.375
S'black'
p21
I1
tp22
a(I10
I4
F0.375
S'new'
p23
I1
tp24
a(I11
I3
F0.375
S'new'
p25
I1
tp26
a(I14
I12
F0.375
S'new'
p27
I1
tp28
a(I14
I16
F-0.25
S'white'
p29
I1
tp30
a(I20
I5
I0
S'great'
p31
I1
tp32
a(I22
I2
F-0.5
S'open'
p33
I1
tp34
as(S'only'
p35
S'thing'
p36
tp37
(lp38
(I20
I6
I0
S'only'
p39
I13
tp40
a(I22
I14
I0
S'only'
p41
I13
tp42
a(I22
I16
I0
S'only'
p43
I13
tp44
as(S'sim'
p45
S'card'
p46
tp47
(lp48
(I5
I10
F0.375
S'new'
p49
I0
tp50
a(I5
I10
F-0.375
S'smaller'
p51
I0
tp52
a(I22
I12
F0.375
S'new'
p53
I0
tp54
a(I22
I12
I0
S'old'
p55
I0
tp56
a(I22
I12
F-0.75
S'invalid'
p57
I0
tp58
as.