(dp0
(S'seller'
p1
tp2
(lp3
(I11
I3
F0.625
S'aware'
p4
I19
tp5
as(S'international'
p6
S'version'
p7
tp8
(lp9
(I15
I11
F-0.5
S'international'
p10
I0
tp11
as(S'battery'
p12
S'life'
p13
tp14
(lp15
(I0
I33
F1.0
S'better'
p16
I1
tp17
a(I12
I2
F-0.75
S'short'
p18
I1
tp19
a(I0
I4
F-0.75
S'dead'
p20
I15
tp21
a(I0
I10
I0
S'own'
p22
I15
tp23
a(I0
I13
F-0.75
S'dead'
p24
I15
tp25
a(I0
I16
F-0.125
S'mine'
p26
I15
tp27
a(I0
I16
F-0.625
S'clean'
p28
I15
tp29
a(I0
I16
I0
S'more'
p30
I15
tp31
a(I0
I16
F1.0
S'good'
p32
I15
tp33
a(I5
I25
F-0.625
S'bad'
p34
I15
tp35
a(I10
I2
I0
S'quick'
p36
I15
tp37
a(I19
I6
F-0.25
S'low'
p38
I15
tp39
as(S'quick'
p40
S'start'
p41
tp42
(lp43
(I0
I1
I0
S'quick'
p44
I0
tp45
a(I1
I52
I0
S'quick'
p46
I0
tp47
a(I5
I6
I0
S'quick'
p48
I0
tp49
as(S'samsung'
p50
S'galaxy'
p51
S's2'
p52
tp53
(lp54
(I0
I15
I0
S'own'
p55
I0
tp56
a(I0
I15
I0
g55
I0
tp57
a(I0
I31
F-0.625
S'other'
p58
I0
tp59
a(I17
I0
F0.875
S'happy'
p60
I0
tp61
a(I0
I15
I0
g55
I7
tp62
a(I1
I44
F0.25
S'original'
p63
I7
tp64
a(I0
I31
F-0.625
g58
I0
tp65
a(I17
I0
F0.875
g60
I0
tp66
a(I19
I2
F0.875
S'nice'
p67
I0
tp68
as(S'camera'
p69
tp70
(lp71
(I10
I0
F1.0
S'good'
p72
I1
tp73
a(I15
I11
I0
S'rear'
p74
I1
tp75
a(I17
I2
I0
S'great'
p76
I1
tp77
as.