(dp0
(S'text'
p1
S'and'
p2
S'data'
p3
tp4
(lp5
(I7
I19
I0
S'interactive'
p6
I0
tp7
a(I22
I129
F-0.125
S'slow'
p8
I0
tp9
a(I67
I14
F-0.25
S'inexpensive'
p10
I0
tp11
a(I74
I20
I0
S'faster'
p12
I0
tp13
a(I99
I51
I0
S'great'
p14
I0
tp15
a(I5
I117
F0.125
S'able'
p16
I18
tp17
a(I6
I36
F-0.625
S'steal'
p18
I18
tp19
a(I6
I72
F-0.625
S'free'
p20
I18
tp21
a(I11
I50
F0.5
S'true'
p22
I18
tp23
a(I12
I6
I0
S'crisp'
p24
I18
tp25
a(I12
I58
F-0.375
S'small'
p26
I18
tp27
a(I13
I106
F0.25
S'sharp'
p28
I18
tp29
a(I13
I106
F0.5
S'clear'
p30
I18
tp31
a(I18
I128
F0.375
S'complete'
p32
I18
tp33
a(I25
I34
F-0.875
S'worst'
p34
I18
tp35
a(I27
I16
F-0.5
S'failed'
p36
I18
tp37
a(I38
I29
F0.75
S'receive'
p38
I18
tp39
a(I42
I38
I0
S'same'
p40
I18
tp41
a(I46
I40
F-0.75
S'hate'
p42
I18
tp43
a(I50
I106
F-0.625
S'free'
p44
I18
tp45
a(I58
I7
F-0.75
S'little'
p46
I18
tp47
a(I67
I14
F-0.25
g10
I18
tp48
a(I67
I119
I0
S'same'
p49
I18
tp50
a(I68
I190
I0
S'e-mail'
p51
I18
tp52
a(I81
I5
F-0.5
S'regular'
p53
I18
tp54
a(I86
I94
F-0.5
S'open'
p55
I18
tp56
a(I96
I18
F-0.5
S'call'
p57
I18
tp58
a(I2
I3
I0
S'exclusive'
p59
I13
tp60
a(I3
I26
F-0.5
S'unlimited'
p61
I13
tp62
a(I7
I19
I0
g6
I13
tp63
a(I14
I102
F-0.125
S'slow'
p64
I13
tp65
a(I22
I129
F-0.125
g8
I13
tp66
a(I34
I10
F-0.5
S'actual'
p67
I13
tp68
a(I42
I43
I0
S'great'
p69
I13
tp70
a(I45
I40
F-0.375
S'daily'
p71
I13
tp72
a(I50
I39
F-0.125
S'slow'
p73
I13
tp74
a(I50
I90
I0
S'mobile'
p75
I13
tp76
a(I50
I91
I0
S'overseas'
p77
I13
tp78
a(I50
I91
F-0.75
S'unable'
p79
I13
tp80
a(I50
I91
I0
S'mobile'
p81
I13
tp82
a(I50
I91
F0.5
S'expensive'
p83
I13
tp84
a(I50
I127
I0
S'user'
p85
I13
tp86
a(I50
I138
F0.125
S'able'
p87
I13
tp88
a(I54
I30
I0
S'fast'
p89
I13
tp90
a(I64
I20
I0
S'least'
p91
I13
tp92
a(I64
I20
F-0.125
S'slow'
p93
I13
tp94
a(I65
I57
I0
S'more'
p95
I13
tp96
a(I65
I116
F-0.5
S'unlimited'
p97
I13
tp98
a(I71
I111
I0
S'cellular'
p99
I13
tp100
a(I73
I20
I0
S'cable'
p101
I13
tp102
a(I74
I20
I0
g12
I13
tp103
a(I78
I49
I0
S'more'
p104
I13
tp105
a(I79
I40
F0.875
S'nice'
p106
I13
tp107
a(I86
I29
F-0.625
S'average'
p108
I13
tp109
a(I86
I29
F-0.75
S'little'
p110
I13
tp111
a(I95
I71
F-0.5
S'regular'
p112
I13
tp113
a(I95
I126
F0.25
S'larger'
p114
I13
tp115
a(I95
I203
F0.125
S'able'
p116
I13
tp117
a(I99
I51
I0
g14
I13
tp118
a(I106
I24
F1.0
S'good'
p119
I13
tp120
a(I108
I8
F0.5
S'expensive'
p121
I13
tp122
a(I108
I10
F0.375
S'extra'
p123
I13
tp124
as(S'battery'
p125
S'life'
p126
tp127
(lp128
(I1
I43
F-0.625
S'average'
p129
I1
tp130
a(I1
I70
I0
S'great'
p131
I1
tp132
a(I2
I46
F-0.75
S'short'
p133
I1
tp134
a(I5
I159
F0.125
S'impressive'
p135
I1
tp136
a(I5
I270
F-0.75
S'short'
p137
I1
tp138
a(I6
I3
F1.0
S'good'
p139
I1
tp140
a(I12
I113
F-0.5
S'long'
p141
I1
tp142
a(I18
I16
F1.0
S'good'
p143
I1
tp144
a(I29
I17
F1.0
S'good'
p145
I1
tp146
a(I29
I39
I0
S'great'
p147
I1
tp148
a(I29
I63
F0.125
S'last'
p149
I1
tp150
a(I34
I41
I0
S'adequate'
p151
I1
tp152
a(I34
I62
F0.625
S'easy'
p153
I1
tp154
a(I34
I62
F0.125
S'impressive'
p155
I1
tp156
a(I36
I6
F-0.625
S'other'
p157
I1
tp158
a(I37
I61
F0.125
S'last'
p159
I1
tp160
a(I39
I27
F1.0
S'good'
p161
I1
tp162
a(I45
I2
F-0.375
S'daily'
p163
I1
tp164
a(I50
I125
F1.0
S'good'
p165
I1
tp166
a(I50
I134
I0
S'phenomenal'
p167
I1
tp168
a(I52
I18
F1.0
S'good'
p169
I1
tp170
a(I53
I15
F1.0
S'better'
p171
I1
tp172
a(I54
I10
F0.625
S'decent'
p173
I1
tp174
a(I63
I3
I0
S'great'
p175
I1
tp176
a(I63
I3
I0
S'least'
p177
I1
tp178
a(I63
I21
F-0.625
S'bad'
p179
I1
tp180
a(I66
I5
F-0.375
S'double'
p181
I1
tp182
a(I67
I59
F1.0
S'good'
p183
I1
tp184
a(I68
I158
I0
S'great'
p185
I1
tp186
a(I68
I260
F1.0
S'good'
p187
I1
tp188
a(I74
I115
F1.0
S'good'
p189
I1
tp190
a(I75
I42
F0.75
S'receive'
p191
I1
tp192
a(I75
I42
I0
S'update'
p193
I1
tp194
a(I75
I42
F0.375
S'much'
p195
I1
tp196
a(I86
I75
F1.0
S'good'
p197
I1
tp198
a(I87
I87
F-0.625
S'average'
p199
I1
tp200
a(I94
I18
I-100
S'cons-battery'
p201
I1
tp202
a(I94
I46
F1.0
S'good'
p203
I1
tp204
a(I95
I23
F-0.625
S'bad'
p205
I1
tp206
a(I95
I89
F-0.5
S'poor'
p207
I1
tp208
a(I95
I112
F1.0
S'good'
p209
I1
tp210
a(I99
I51
I0
S'great'
p211
I1
tp212
a(I106
I46
F1.0
S'good'
p213
I1
tp214
a(I108
I14
I0
S'great'
p215
I1
tp216
a(I108
I82
I0
S'3d'
p217
I1
tp218
a(I1
I70
I0
g131
I19
tp219
a(I5
I159
F0.125
g135
I19
tp220
a(I5
I270
F-0.75
g137
I19
tp221
a(I6
I3
F1.0
g139
I19
tp222
a(I18
I16
F1.0
g143
I19
tp223
a(I29
I17
F1.0
g145
I19
tp224
a(I29
I39
I0
g147
I19
tp225
a(I29
I63
F0.125
g149
I19
tp226
a(I34
I41
I0
g151
I19
tp227
a(I34
I62
F0.125
g155
I19
tp228
a(I36
I6
F-0.625
g157
I19
tp229
a(I39
I27
F1.0
g161
I19
tp230
a(I50
I134
I0
g167
I19
tp231
a(I52
I18
F1.0
g169
I19
tp232
a(I53
I15
F1.0
g171
I19
tp233
a(I54
I10
F0.625
g173
I19
tp234
a(I61
I77
I0
S'real'
p235
I19
tp236
a(I61
I127
F-0.375
S'daily'
p237
I19
tp238
a(I63
I3
I0
g175
I19
tp239
a(I63
I3
I0
g177
I19
tp240
a(I67
I59
F1.0
g183
I19
tp241
a(I68
I157
F-0.375
S'simple'
p242
I19
tp243
a(I68
I158
I0
g185
I19
tp244
a(I74
I115
F1.0
g189
I19
tp245
a(I75
I42
F0.375
g195
I19
tp246
a(I86
I75
F1.0
g197
I19
tp247
a(I87
I31
F0.25
S'aged'
p248
I19
tp249
a(I87
I87
F-0.625
g199
I19
tp250
a(I94
I117
F1.0
S'better'
p251
I19
tp252
a(I95
I23
F-0.625
g205
I19
tp253
a(I99
I86
F1.0
S'good'
p254
I19
tp255
a(I108
I82
I0
g217
I19
tp256
a(I1
I43
F-0.625
g129
I15
tp257
a(I2
I46
F-0.75
g133
I15
tp258
a(I2
I108
I0
S'hot'
p259
I15
tp260
a(I3
I2
F-0.25
S'low'
p261
I15
tp262
a(I3
I2
F0.125
S'last'
p263
I15
tp264
a(I3
I2
F-0.5
S'long'
p265
I15
tp266
a(I5
I171
F-0.25
S'low'
p267
I15
tp268
a(I6
I47
F0.125
S'last'
p269
I15
tp270
a(I6
I54
F-0.125
S'slow'
p271
I15
tp272
a(I7
I70
I0
S'more'
p273
I15
tp274
a(I7
I101
I0
S'later'
p275
I15
tp276
a(I11
I73
F0.125
S'last'
p277
I15
tp278
a(I12
I63
I0
S'faster'
p279
I15
tp280
a(I12
I100
I0
S'normal'
p281
I15
tp282
a(I12
I113
F-0.5
g141
I15
tp283
a(I14
I54
F-0.125
S'opposite'
p284
I15
tp285
a(I14
I60
F-0.25
S'low'
p286
I15
tp287
a(I14
I86
F0.125
S'last'
p288
I15
tp289
a(I16
I11
I0
S'trade-off'
p290
I15
tp291
a(I18
I88
F-0.375
S'pull'
p292
I15
tp293
a(I18
I133
I0
S'full'
p294
I15
tp295
a(I18
I134
F-0.75
S'dead'
p296
I15
tp297
a(I22
I61
F0.625
S'replaceable'
p298
I15
tp299
a(I22
I158
F-0.75
S'dead'
p300
I15
tp301
a(I28
I21
I0
S'third'
p302
I15
tp303
a(I31
I13
F0.125
S'usual'
p304
I15
tp305
a(I33
I14
I0
S'great'
p306
I15
tp307
a(I34
I62
F0.625
g153
I15
tp308
a(I37
I9
F-0.625
S'bad'
p309
I15
tp310
a(I37
I61
F0.125
g159
I15
tp311
a(I38
I57
F0.375
S'extra'
p312
I15
tp313
a(I38
I58
F0.375
S'extra'
p314
I15
tp315
a(I39
I63
I0
S'full'
p316
I15
tp317
a(I42
I165
F-0.625
S'free'
p318
I15
tp319
a(I42
I183
I0
S'quick'
p320
I15
tp321
a(I45
I2
F-0.375
g163
I15
tp322
a(I45
I8
F-0.375
S'pull'
p323
I15
tp324
a(I46
I92
F-0.75
S'dead'
p325
I15
tp326
a(I50
I83
I0
S'quick'
p327
I15
tp328
a(I50
I84
F0.375
S'new'
p329
I15
tp330
a(I50
I125
F1.0
g165
I15
tp331
a(I58
I36
F0.5
S'clear'
p332
I15
tp333
a(I61
I261
F0.125
S'last'
p334
I15
tp335
a(I61
I347
F0.25
S'biggest'
p336
I15
tp337
a(I62
I22
I0
S'blue'
p338
I15
tp339
a(I62
I30
I0
S'slippery'
p340
I15
tp341
a(I63
I21
F-0.625
g179
I15
tp342
a(I65
I45
I0
S'internal'
p343
I15
tp344
a(I66
I5
F-0.375
g181
I15
tp345
a(I66
I41
F0.125
S'last'
p346
I15
tp347
a(I68
I260
F1.0
g187
I15
tp348
a(I70
I3
F0.125
S'last'
p349
I15
tp350
a(I70
I3
F-0.5
S'long'
p351
I15
tp352
a(I70
I11
F-0.625
S'bad'
p353
I15
tp354
a(I71
I40
I0
S'full'
p355
I15
tp356
a(I71
I219
I0
S'full'
p357
I15
tp358
a(I71
I241
F0.5
S'second'
p359
I15
tp360
a(I72
I45
F0.375
S'new'
p361
I15
tp362
a(I72
I87
F0.625
S'replaceable'
p363
I15
tp364
a(I73
I24
F0.125
S'last'
p365
I15
tp366
a(I75
I42
F0.75
g191
I15
tp367
a(I75
I42
I0
g193
I15
tp368
a(I77
I133
F0.25
S'biggest'
p369
I15
tp370
a(I78
I4
F0.625
S'removable'
p371
I15
tp372
a(I79
I66
F0.125
S'last'
p373
I15
tp374
a(I81
I129
F0.625
S'major'
p375
I15
tp376
a(I83
I41
F-0.5
S'sure'
p377
I15
tp378
a(I83
I46
F0.375
S'new'
p379
I15
tp380
a(I85
I22
F0.375
S'new'
p381
I15
tp382
a(I86
I76
F0.25
S'original'
p383
I15
tp384
a(I86
I76
F0.125
S'last'
p385
I15
tp386
a(I86
I98
F1.0
S'good'
p387
I15
tp388
a(I86
I156
I0
S'faster'
p389
I15
tp390
a(I94
I46
F1.0
g203
I15
tp391
a(I94
I108
F0.625
S'manageable'
p392
I15
tp393
a(I95
I89
F-0.5
g207
I15
tp394
a(I95
I112
F1.0
g209
I15
tp395
a(I95
I130
I0
S'thick'
p396
I15
tp397
a(I99
I51
I0
g211
I15
tp398
a(I100
I0
F-0.625
S'bad'
p399
I15
tp400
a(I106
I46
F1.0
g213
I15
tp401
a(I107
I1
F-0.75
S'dead'
p402
I15
tp403
a(I107
I3
I0
S'own'
p404
I15
tp405
a(I108
I14
I0
g215
I15
tp406
as(S'a'
p407
S'dual'
p408
S'core'
p409
tp410
(lp411
(I16
I6
F-0.75
S'single'
p412
I0
tp413
a(I46
I154
F0.5
S'second'
p414
I0
tp415
a(I71
I202
F-0.75
S'single'
p416
I0
tp417
a(I71
I293
F-0.75
S'single'
p418
I0
tp419
a(I71
I293
F-0.5
S'less'
p420
I0
tp421
as(S'mobile'
p422
S'sim'
p423
S'card'
p424
tp425
(lp426
(I5
I50
F0.375
S'new'
p427
I0
tp428
a(I5
I163
I0
S'prepaid'
p429
I0
tp430
a(I56
I15
I0
S'current'
p431
I0
tp432
a(I56
I15
F-0.5
S'regular'
p433
I0
tp434
a(I65
I194
I0
S'asian'
p435
I0
tp436
a(I65
I205
I0
S'old'
p437
I0
tp438
a(I80
I58
F-0.375
S'simple'
p439
I0
tp440
a(I94
I165
I0
S'own'
p441
I0
tp442
a(I5
I14
F0.125
S'able'
p443
I0
tp444
a(I5
I50
F0.375
g427
I0
tp445
a(I5
I136
I0
S'local'
p446
I0
tp447
a(I5
I163
I0
g429
I0
tp448
a(I18
I39
I0
S'funny'
p449
I0
tp450
a(I47
I15
F0.375
S'new'
p451
I0
tp452
a(I56
I15
I0
g431
I0
tp453
a(I56
I15
F-0.5
g433
I0
tp454
a(I56
I72
I0
S'same'
p455
I0
tp456
a(I61
I92
I0
S'prepaid'
p457
I0
tp458
a(I65
I194
I0
g435
I0
tp459
a(I65
I198
I0
S'asian'
p460
I0
tp461
a(I65
I200
I0
S'prepaid'
p462
I0
tp463
a(I65
I205
I0
g437
I0
tp464
a(I69
I2
F0.25
S'original'
p465
I0
tp466
a(I73
I9
I0
S'current'
p467
I0
tp468
a(I86
I202
I0
S'old'
p469
I0
tp470
a(I94
I165
I0
g441
I0
tp471
a(I95
I71
I0
S'own'
p472
I0
tp473
as(g407
S'great'
p474
S'deal'
p475
tp476
(lp477
(I5
I242
F1.0
S'good'
p478
I9
tp479
a(I50
I127
I0
S'great'
p480
I9
tp481
a(I50
I204
I0
S'great'
p482
I9
tp483
a(I53
I16
I0
S'great'
p484
I9
tp485
a(I56
I23
I0
S'great'
p486
I9
tp487
a(I68
I94
I0
S'great'
p488
I9
tp489
a(I68
I205
I0
S'great'
p490
I9
tp491
a(I71
I288
I0
S'great'
p492
I9
tp493
a(I77
I85
I0
S'great'
p494
I9
tp495
a(I79
I34
I0
S'great'
p496
I9
tp497
as(g407
S'text'
p498
S'message'
p499
tp500
(lp501
(I5
I117
F0.125
g16
I0
tp502
a(I25
I34
F-0.875
g34
I0
tp503
a(I38
I29
F0.75
g38
I0
tp504
a(I42
I38
I0
g40
I0
tp505
a(I46
I292
I0
S'recipient'
p506
I0
tp507
a(I65
I177
F-0.5
S'longer'
p508
I0
tp509
a(I81
I5
F-0.5
g53
I0
tp510
as(S'tmobile'
p511
tp512
(lp513
(I2
I5
F0.375
S'follow'
p514
I0
tp515
a(I6
I67
F-0.5
S'regular'
p516
I0
tp517
a(I6
I74
F-0.5
S'regular'
p518
I0
tp519
a(I7
I82
I0
S'local'
p520
I0
tp521
a(I11
I0
F0.375
S'much'
p522
I0
tp523
a(I18
I25
I0
S'local'
p524
I0
tp525
a(I36
I5
I0
S'decided'
p526
I0
tp527
a(I58
I63
F0.125
S'solid'
p528
I0
tp529
a(I71
I59
F1.0
S'good'
p530
I0
tp531
a(I71
I65
I0
S'post-paid'
p532
I0
tp533
a(I71
I190
I0
S'faster'
p534
I0
tp535
a(I81
I70
F-0.875
S'unsympathetic'
p536
I0
tp537
a(I86
I35
F1.0
S'better'
p538
I0
tp539
a(I94
I55
F-0.625
S'other'
p540
I0
tp541
a(I94
I165
F-0.625
S'other'
p542
I0
tp543
as(S'service'
p544
tp545
(lp546
(I7
I183
F0.125
S'able'
p547
I16
tp548
a(I15
I27
F1.0
S'good'
p549
I16
tp550
a(I18
I39
F1.0
S'good'
p551
I16
tp552
a(I18
I48
F1.0
S'good'
p553
I16
tp554
a(I22
I138
F0.375
S'available'
p555
I16
tp556
a(I22
I138
I0
S'most'
p557
I16
tp558
a(I25
I49
F0.625
S'acceptable'
p559
I16
tp560
a(I46
I112
F0.875
S'happy'
p561
I16
tp562
a(I46
I236
F1.0
S'best'
p563
I16
tp564
a(I50
I67
F-0.125
S'slow'
p565
I16
tp566
a(I50
I121
I0
S'real'
p567
I16
tp568
a(I67
I37
F0.5
S'comparable'
p569
I16
tp570
a(I68
I125
F0.375
S'new'
p571
I16
tp572
a(I71
I106
I0
S'prepaid'
p573
I16
tp574
a(I71
I163
F-0.25
S'low'
p575
I16
tp576
a(I71
I181
I0
S'great'
p577
I16
tp578
a(I71
I277
I0
S'cable'
p579
I16
tp580
a(I71
I282
F-0.625
S'other'
p581
I16
tp582
a(I87
I31
F-0.875
S'worst'
p583
I16
tp584
a(I96
I47
F1.0
S'good'
p585
I16
tp586
a(I99
I99
F-0.625
S'other'
p587
I16
tp588
a(I102
I1
F0.125
S'able'
p589
I16
tp590
a(I108
I99
F-0.75
S'unreliable'
p591
I16
tp592
as(S'send'
p593
g407
S'text'
p594
tp595
(lp596
(I5
I117
F0.125
g16
I0
tp597
a(I6
I72
F-0.625
g20
I0
tp598
a(I18
I128
F0.375
g32
I0
tp599
a(I38
I29
F0.75
g38
I0
tp600
a(I42
I38
I0
g40
I0
tp601
a(I99
I34
F0.125
S'first'
p602
I0
tp603
a(I99
I34
F0.125
S'able'
p604
I0
tp605
as(S'bells'
p606
S'and'
p607
S'whistles'
p608
tp609
(lp610
(I12
I36
F0.125
S'enough'
p611
I0
tp612
a(I13
I27
I0
S'same'
p613
I0
tp614
a(I67
I126
F-0.625
S'other'
p615
I0
tp616
a(I67
I126
F0.625
S'perfect'
p617
I0
tp618
a(I78
I39
I0
S'same'
p619
I0
tp620
a(I78
I39
F-0.25
S'cheaper'
p621
I0
tp622
a(I94
I26
F0.5
S'whole'
p623
I0
tp624
as(S't'
p625
S'mobile'
p626
S'prepaid'
p627
tp628
(lp629
(I61
I2
F0.375
S'new'
p630
I0
tp631
a(I61
I2
F-0.625
S'other'
p632
I0
tp633
a(I64
I35
F1.0
S'best'
p634
I0
tp635
a(I99
I7
I0
S'such'
p636
I0
tp637
a(I6
I49
F-0.125
S'overall'
p638
I0
tp639
a(I6
I49
F-0.375
S'top'
p640
I0
tp641
a(I15
I36
F-0.375
S'simple'
p642
I0
tp643
a(I18
I45
F0.875
S'happy'
p644
I0
tp645
a(I18
I97
I0
S'monthly'
p646
I0
tp647
a(I40
I8
F0.5
S'told'
p648
I0
tp649
a(I61
I2
F0.375
g630
I0
tp650
a(I61
I2
F-0.625
g632
I0
tp651
a(I61
I82
F0.375
S'new'
p652
I0
tp653
a(I62
I68
F1.0
S'good'
p654
I0
tp655
a(I62
I69
F1.0
S'good'
p656
I0
tp657
a(I63
I0
F1.0
S'best'
p658
I0
tp659
a(I64
I35
F1.0
g634
I0
tp660
a(I65
I195
I0
S'asian'
p661
I0
tp662
a(I67
I0
F1.0
S'best'
p663
I0
tp664
a(I68
I187
F-0.625
S'other'
p665
I0
tp666
a(I71
I32
F0.375
S'new'
p667
I0
tp668
a(I71
I174
I0
S'monthly'
p669
I0
tp670
a(I71
I258
F-0.25
S'inexpensive'
p671
I0
tp672
a(I99
I7
I0
g636
I0
tp673
as(S'samsung'
p674
S'galaxy'
p675
S'exhibit'
p676
tp677
(lp678
(I67
I69
I0
S'more'
p679
I0
tp680
a(I67
I69
I0
g679
I0
tp681
a(I106
I16
F0.5
S'expensive'
p682
I0
tp683
a(I6
I59
F-0.25
S'google'
p684
I0
tp685
a(I26
I5
F0.375
S'new'
p686
I0
tp687
a(I45
I5
F0.5
S'second'
p688
I0
tp689
a(I46
I273
F0.125
S'last'
p690
I0
tp691
a(I67
I69
I0
g679
I0
tp692
a(I5
I111
F-0.25
S'unhelpful'
p693
I7
tp694
a(I8
I9
I0
S'old'
p695
I7
tp696
a(I26
I5
F0.375
g686
I7
tp697
a(I29
I49
I0
S'old'
p698
I7
tp699
a(I29
I81
I0
S'different'
p700
I7
tp701
a(I34
I0
F-0.875
S'worst'
p702
I7
tp703
a(I35
I33
I0
S'same'
p704
I7
tp705
a(I45
I5
F0.5
g688
I7
tp706
a(I45
I15
I0
S'e-mailed'
p707
I7
tp708
a(I45
I24
I0
S'identical'
p709
I7
tp710
a(I45
I25
F0.75
S'fit'
p711
I7
tp712
a(I45
I32
F0.25
S'polished'
p713
I7
tp714
a(I45
I32
F0.125
S'last'
p715
I7
tp716
a(I46
I40
F-0.75
S'hate'
p717
I7
tp718
a(I46
I237
F0.5
S'satisfactory'
p719
I7
tp720
a(I50
I12
F-0.625
S'bad'
p721
I7
tp722
a(I50
I14
I0
S'anymore'
p723
I7
tp724
a(I50
I132
I0
S'quick'
p725
I7
tp726
a(I50
I133
F-0.75
S'bright'
p727
I7
tp728
a(I50
I134
F-0.75
S'brighter'
p729
I7
tp730
a(I50
I135
I0
S'stable'
p731
I7
tp732
a(I50
I228
I0
S'old'
p733
I7
tp734
a(I54
I19
I0
S'latest'
p735
I7
tp736
a(I55
I20
F-0.625
S'other'
p737
I7
tp738
a(I61
I152
F-0.25
S'low'
p739
I7
tp740
a(I62
I24
F0.125
S'typical'
p741
I7
tp742
a(I62
I63
F1.0
S'good'
p743
I7
tp744
a(I67
I69
I0
g679
I7
tp745
a(I70
I3
I0
S'proprietary'
p746
I7
tp747
a(I77
I55
I0
S'common'
p748
I7
tp749
a(I79
I28
F0.125
S'able'
p750
I7
tp751
a(I105
I25
F0.375
S'oomph'
p752
I7
tp753
a(I1
I54
F-0.375
S'smaller'
p754
I0
tp755
a(I53
I4
F1.0
S'good'
p756
I0
tp757
a(I67
I20
I0
S'faster'
p758
I0
tp759
a(I67
I24
I0
S'awhile'
p760
I0
tp761
a(I67
I24
F0.25
S'original'
p762
I0
tp763
a(I97
I41
F0.375
S'much'
p764
I0
tp765
a(I106
I16
F0.5
g682
I0
tp766
a(I108
I130
F1.0
S'good'
p767
I0
tp768
a(I6
I59
F-0.25
g684
I2
tp769
a(I34
I57
F0.875
S'happy'
p770
I2
tp771
a(I35
I62
F-0.375
S'black'
p772
I2
tp773
a(I35
I63
F1.0
S'better'
p774
I2
tp775
a(I46
I192
F0.125
S'first'
p776
I2
tp777
a(I46
I273
F0.125
g690
I2
tp778
a(I46
I275
F0.75
S'due'
p779
I2
tp780
a(I59
I35
F-0.125
S'slow'
p781
I2
tp782
a(I61
I70
I0
S'more'
p783
I2
tp784
a(I62
I33
F1.0
S'good'
p785
I2
tp786
a(I62
I35
F0.25
S'original'
p787
I2
tp788
a(I62
I47
I0
S'carry-over'
p789
I2
tp790
a(I62
I55
F-0.625
S'other'
p791
I2
tp792
a(I67
I23
F-0.75
S'wrong'
p793
I2
tp794
a(I67
I36
F1.0
S'good'
p795
I2
tp796
a(I77
I124
I0
S'more'
p797
I2
tp798
as(g407
S'good'
p799
S'price'
p800
tp801
(lp802
(I2
I1
F1.0
S'good'
p803
I4
tp804
a(I6
I79
F1.0
S'good'
p805
I4
tp806
a(I15
I22
F0.375
S'much'
p807
I4
tp808
a(I15
I22
F-0.25
S'higher'
p809
I4
tp810
a(I22
I106
F1.0
S'good'
p811
I4
tp812
a(I26
I39
F1.0
S'good'
p813
I4
tp814
a(I39
I66
F1.0
S'good'
p815
I4
tp816
a(I42
I122
F0.625
S'fair'
p817
I4
tp818
a(I46
I4
F1.0
S'good'
p819
I4
tp820
a(I46
I20
F1.0
S'good'
p821
I4
tp822
a(I55
I24
F1.0
S'good'
p823
I4
tp824
a(I61
I208
F0.5
S'reasonable'
p825
I4
tp826
a(I65
I118
F1.0
S'good'
p827
I4
tp828
a(I77
I74
F-0.25
S'low'
p829
I4
tp830
a(I80
I70
F1.0
S'good'
p831
I4
tp832
a(I83
I74
F1.0
S'good'
p833
I4
tp834
a(I89
I2
I0
S'competitive'
p835
I4
tp836
a(I95
I164
F1.0
S'good'
p837
I4
tp838
a(I95
I191
I0
S'such'
p839
I4
tp840
a(I95
I191
F1.0
S'good'
p841
I4
tp842
as(S'lg'
p843
S'optimus'
p844
S'v'
p845
tp846
(lp847
(I50
I39
I0
S'many'
p848
I0
tp849
as(g625
S'mobile'
p850
S'customer'
p851
tp852
(lp853
(I18
I43
F1.0
S'good'
p854
I0
tp855
a(I42
I44
F0.5
S'loyal'
p856
I0
tp857
as(S'front'
p858
S'facing'
p859
S'camera'
p860
tp861
(lp862
(I5
I175
F0.625
S'decent'
p863
I0
tp864
a(I13
I32
I0
S'basic'
p865
I0
tp866
a(I13
I32
F-0.125
S'front'
p867
I0
tp868
a(I61
I48
I0
S'rear'
p869
I0
tp870
a(I68
I260
I0
S'rear'
p871
I0
tp872
a(I83
I34
F-0.125
S'front'
p873
I0
tp874
a(I94
I140
I0
S'rear'
p875
I0
tp876
a(I13
I32
F-0.125
g867
I0
tp877
a(I61
I48
I0
g869
I0
tp878
a(I68
I260
I0
g871
I0
tp879
a(I83
I34
F-0.125
g873
I0
tp880
a(I94
I140
I0
g875
I0
tp881
a(I5
I175
F0.625
g863
I0
tp882
a(I13
I32
I0
g865
I0
tp883
a(I13
I32
F-0.125
g867
I0
tp884
a(I18
I105
F-0.875
S'regret'
p885
I0
tp886
a(I61
I48
I0
g869
I0
tp887
a(I68
I260
I0
g871
I0
tp888
a(I83
I34
F-0.125
g873
I0
tp889
a(I94
I140
I0
g875
I0
tp890
a(I5
I175
F0.625
g863
I1
tp891
a(I12
I36
I0
S'more'
p892
I1
tp893
a(I13
I32
I0
g865
I1
tp894
a(I13
I82
F1.0
S'good'
p895
I1
tp896
a(I13
I82
I0
S'basic'
p897
I1
tp898
a(I18
I103
F0.5
S'told'
p899
I1
tp900
a(I18
I105
F-0.875
g885
I1
tp901
a(I20
I2
I0
S'great'
p902
I1
tp903
a(I22
I40
I0
S'rear'
p904
I1
tp905
a(I25
I14
F1.0
S'good'
p906
I1
tp907
a(I33
I17
I0
S'least'
p908
I1
tp909
a(I34
I62
F1.0
S'good'
p910
I1
tp911
a(I34
I62
F0.5
S'so-so'
p912
I1
tp913
a(I42
I98
F-0.625
S'want'
p914
I1
tp915
a(I42
I98
F1.0
S'good'
p916
I1
tp917
a(I42
I98
I0
S'real'
p918
I1
tp919
a(I54
I6
F-0.5
S'poor'
p920
I1
tp921
a(I61
I138
F1.0
S'good'
p922
I1
tp923
a(I63
I21
F-0.625
S'bad'
p924
I1
tp925
a(I64
I8
I0
S'great'
p926
I1
tp927
a(I66
I8
I0
S'rear'
p928
I1
tp929
a(I66
I8
F1.0
S'better'
p930
I1
tp931
a(I66
I9
F1.0
S'good'
p932
I1
tp933
a(I67
I23
F-0.75
S'likely'
p934
I1
tp935
a(I67
I54
I0
S'rear'
p936
I1
tp937
a(I68
I81
F-0.125
S'front'
p938
I1
tp939
a(I68
I180
F0.125
S'able'
p940
I1
tp941
a(I72
I83
F-0.625
S'other'
p942
I1
tp943
a(I77
I70
F1.0
S'good'
p944
I1
tp945
a(I78
I21
F0.875
S'nice'
p946
I1
tp947
a(I78
I70
F1.0
S'good'
p948
I1
tp949
a(I80
I57
F1.0
S'good'
p950
I1
tp951
a(I83
I2
I0
S'particular'
p952
I1
tp953
a(I83
I2
F0.5
S'clear'
p954
I1
tp955
a(I83
I14
F-0.625
S'bad'
p956
I1
tp957
a(I86
I15
I0
S'more'
p958
I1
tp959
a(I87
I73
I0
S'great'
p960
I1
tp961
a(I96
I5
F-0.625
S'bad'
p962
I1
tp963
a(I108
I183
F1.0
S'good'
p964
I1
tp965
a(I108
I183
F-0.625
S'average'
p966
I1
tp967
as(g407
S'high'
p968
S'end'
p969
tp970
(lp971
(I1
I0
I0
S'high'
p972
I0
tp973
a(I2
I36
I0
S'high'
p974
I0
tp975
a(I7
I21
I0
S'high'
p976
I0
tp977
a(I16
I3
I0
S'high'
p978
I0
tp979
a(I16
I6
F0.375
S'new'
p980
I0
tp981
a(I29
I16
F-0.25
S'higher'
p982
I0
tp983
a(I46
I335
F-0.25
S'higher'
p984
I0
tp985
a(I61
I351
I0
S'high'
p986
I0
tp987
a(I67
I13
I0
S'high'
p988
I0
tp989
a(I67
I13
F-0.25
S'low'
p990
I0
tp991
a(I67
I18
I0
S'high'
p992
I0
tp993
a(I67
I27
I0
S'high'
p994
I0
tp995
a(I68
I343
I0
S'high'
p996
I0
tp997
a(I71
I186
I0
S'high'
p998
I0
tp999
a(I74
I82
F-0.25
S'higher'
p1000
I0
tp1001
a(I77
I87
I0
S'many'
p1002
I0
tp1003
a(I77
I87
I0
S'high'
p1004
I0
tp1005
a(I80
I38
F-0.25
S'higher'
p1006
I0
tp1007
a(I81
I66
I0
S'high'
p1008
I0
tp1009
a(I108
I148
I0
S'high'
p1010
I0
tp1011
as(S'memory'
p1012
tp1013
(lp1014
(I7
I43
F0.25
S'bigger'
p1015
I5
tp1016
a(I14
I19
F-0.625
S'free'
p1017
I5
tp1018
a(I22
I18
I0
S'generic'
p1019
I5
tp1020
a(I29
I13
F0.5
S'clear'
p1021
I5
tp1022
a(I30
I8
F0.75
S'expendable'
p1023
I5
tp1024
a(I37
I28
F-0.125
S'slow'
p1025
I5
tp1026
a(I46
I45
I0
S'internal'
p1027
I5
tp1028
a(I46
I234
I0
S'entire'
p1029
I5
tp1030
a(I50
I0
I0
S'internal'
p1031
I5
tp1032
a(I50
I4
I0
S'internal'
p1033
I5
tp1034
a(I50
I207
I0
S'more'
p1035
I5
tp1036
a(I50
I209
F0.5
S'clear'
p1037
I5
tp1038
a(I50
I214
I0
S'more'
p1039
I5
tp1040
a(I56
I75
I0
S'more'
p1041
I5
tp1042
a(I58
I48
I0
S'internal'
p1043
I5
tp1044
a(I58
I48
F1.0
S'best'
p1045
I5
tp1046
a(I58
I51
I0
S'external'
p1047
I5
tp1048
a(I58
I52
F-0.75
S'protected'
p1049
I5
tp1050
a(I59
I45
F-0.25
S'low'
p1051
I5
tp1052
a(I61
I11
I0
S'internal'
p1053
I5
tp1054
a(I61
I78
I0
S'same'
p1055
I5
tp1056
a(I61
I188
F-0.75
S'unable'
p1057
I5
tp1058
a(I61
I227
F0.375
S'available'
p1059
I5
tp1060
a(I62
I15
I0
S'internal'
p1061
I5
tp1062
a(I62
I18
I0
S'internal'
p1063
I5
tp1064
a(I65
I9
I0
S'external'
p1065
I5
tp1066
a(I65
I120
F-0.75
S'little'
p1067
I5
tp1068
a(I67
I17
I0
S'internal'
p1069
I5
tp1070
a(I67
I44
I0
S'internal'
p1071
I5
tp1072
a(I67
I82
F0.125
S'enough'
p1073
I5
tp1074
a(I68
I144
I0
S'internal'
p1075
I5
tp1076
a(I68
I145
I0
S'internal'
p1077
I5
tp1078
a(I68
I147
I0
S'internal'
p1079
I5
tp1080
a(I68
I203
I0
S'external'
p1081
I5
tp1082
a(I71
I94
F-0.5
S'poor'
p1083
I5
tp1084
a(I71
I154
I0
S'more'
p1085
I5
tp1086
a(I71
I154
F0.125
S'memory'
p1087
I5
tp1088
a(I71
I168
I-100
S'thru'
p1089
I5
tp1090
a(I72
I93
F-0.25
S'low'
p1091
I5
tp1092
a(I72
I93
I0
S'internal'
p1093
I5
tp1094
a(I79
I16
F-0.5
S'inadequate'
p1095
I5
tp1096
a(I79
I17
I0
S'full'
p1097
I5
tp1098
a(I79
I18
I0
S'full'
p1099
I5
tp1100
a(I86
I127
I0
S'most'
p1101
I5
tp1102
a(I86
I130
F0.125
S'enough'
p1103
I5
tp1104
a(I86
I160
F1.0
S'better'
p1105
I5
tp1106
a(I94
I120
F0.25
S'main'
p1107
I5
tp1108
a(I94
I123
F0.25
S'main'
p1109
I5
tp1110
a(I94
I178
I0
S'internal'
p1111
I5
tp1112
a(I95
I26
I0
S'more'
p1113
I5
tp1114
a(I95
I59
I0
S'more'
p1115
I5
tp1116
a(I95
I59
F0.125
S'enough'
p1117
I5
tp1118
a(I95
I66
I0
S'internal'
p1119
I5
tp1120
a(I95
I93
F0.5
S'told'
p1121
I5
tp1122
a(I99
I31
F0.375
S'dynamic'
p1123
I5
tp1124
a(I105
I1
F1.0
S'good'
p1125
I5
tp1126
a(I105
I1
I0
S'internal'
p1127
I5
tp1128
a(I106
I30
F0.375
S'available'
p1129
I5
tp1130
as(S'root'
p1131
tp1132
(lp1133
(I5
I220
F0.375
S'complete'
p1134
I0
tp1135
a(I29
I28
F0.125
S'able'
p1136
I0
tp1137
a(I65
I155
F0.625
S'easy'
p1138
I0
tp1139
a(I66
I3
F0.125
S'able'
p1140
I0
tp1141
a(I68
I322
F0.625
S'easy'
p1142
I0
tp1143
a(I86
I138
I0
S'install'
p1144
I0
tp1145
a(I86
I138
I-100
S'root-stock'
p1146
I0
tp1147
a(I108
I192
F0.625
S'easy'
p1148
I0
tp1149
as(g407
S'2'
p1150
S'year'
p1151
tp1152
(lp1153
(I11
I11
F0.125
S'last'
p1154
I0
tp1155
a(I37
I36
I0
S'old'
p1156
I0
tp1157
a(I46
I239
I0
S'old'
p1158
I0
tp1159
a(I66
I59
I0
S'old'
p1160
I0
tp1161
a(I67
I37
F0.375
S'extra'
p1162
I0
tp1163
as(S'times'
p1164
g407
S'day'
p1165
tp1166
(lp1167
(I1
I45
F-0.25
S'battery'
p1168
I0
tp1169
a(I2
I59
I0
S'old'
p1170
I0
tp1171
a(I18
I76
I0
S'multiple'
p1172
I0
tp1173
a(I22
I176
F-0.125
S'slow'
p1174
I0
tp1175
a(I29
I18
I0
S'least'
p1176
I0
tp1177
a(I29
I18
I0
S'most'
p1178
I0
tp1179
a(I35
I0
I0
S'least'
p1180
I0
tp1181
a(I38
I29
I0
S'different'
p1182
I0
tp1183
a(I65
I99
I0
S'entire'
p1184
I0
tp1185
a(I65
I99
I0
S'few'
p1186
I0
tp1187
a(I86
I11
I0
S'more'
p1188
I0
tp1189
a(I94
I20
F0.375
S'much'
p1190
I0
tp1191
a(I108
I62
I0
S'least'
p1192
I0
tp1193
as(S'twice'
p1194
g407
S'day'
p1195
tp1196
(lp1197
(I16
I10
F-0.375
S'daily'
p1198
I0
tp1199
a(I18
I94
I0
S'least'
p1200
I0
tp1201
a(I61
I264
F-0.375
S'manual'
p1202
I0
tp1203
a(I85
I3
I0
S'least'
p1204
I0
tp1205
a(I94
I20
F0.375
g1190
I0
tp1206
as(g407
S'good'
p1207
S'deal'
p1208
tp1209
(lp1210
(I5
I242
F1.0
g478
I5
tp1211
a(I11
I50
F1.0
S'good'
p1212
I5
tp1213
a(I11
I64
F1.0
S'good'
p1214
I5
tp1215
a(I18
I75
F1.0
S'good'
p1216
I5
tp1217
a(I46
I250
F1.0
S'good'
p1218
I5
tp1219
a(I56
I27
F1.0
S'good'
p1220
I5
tp1221
a(I67
I105
F1.0
S'good'
p1222
I5
tp1223
a(I68
I271
F1.0
S'good'
p1224
I5
tp1225
a(I71
I130
F1.0
S'good'
p1226
I5
tp1227
a(I79
I50
F1.0
S'good'
p1228
I5
tp1229
a(I83
I7
F1.0
S'good'
p1230
I5
tp1231
a(I99
I66
F1.0
S'good'
p1232
I5
tp1233
a(I99
I96
F1.0
S'good'
p1234
I5
tp1235
a(I99
I96
F0.5
S'true'
p1236
I5
tp1237
a(I99
I97
F1.0
S'good'
p1238
I5
tp1239
as(S'single'
p1240
S'core'
p1241
S'processor'
p1242
tp1243
(lp1244
(I13
I78
F0.125
S'capable'
p1245
I0
tp1246
a(I13
I78
F0.375
S'conscious'
p1247
I0
tp1248
a(I13
I78
F-0.75
S'single'
p1249
I0
tp1250
a(I16
I6
F-0.75
g412
I0
tp1251
a(I38
I23
F-0.75
S'single'
p1252
I0
tp1253
a(I46
I255
I0
S'great'
p1254
I0
tp1255
a(I46
I255
F-0.75
S'single'
p1256
I0
tp1257
a(I59
I33
F-0.75
S'single'
p1258
I0
tp1259
a(I68
I175
F-0.75
S'single'
p1260
I0
tp1261
a(I71
I202
F-0.75
g416
I0
tp1262
a(I71
I293
F-0.75
g418
I0
tp1263
a(I71
I293
F-0.5
g420
I0
tp1264
a(I76
I8
F-0.75
S'single'
p1265
I0
tp1266
as(S'sometimes'
p1267
tp1268
(lp1269
(I5
I40
F-0.125
S'slow'
p1270
I17
tp1271
a(I5
I40
I0
S'awhile'
p1272
I17
tp1273
a(I15
I42
F-0.125
S'slow'
p1274
I17
tp1275
as(S'sd'
p1276
S'card'
p1277
tp1278
(lp1279
(I65
I9
I0
S'sd'
p1280
I0
tp1281
a(I67
I48
F0.5
S'possible'
p1282
I0
tp1283
a(I68
I144
F-0.5
S'actual'
p1284
I0
tp1285
a(I68
I144
F0.625
S'removable'
p1286
I0
tp1287
a(I77
I56
I0
S'third'
p1288
I0
tp1289
a(I77
I56
F0.625
S'removable'
p1290
I0
tp1291
a(I80
I34
I0
S'external'
p1292
I0
tp1293
a(I80
I36
I0
S'internal'
p1294
I0
tp1295
a(I80
I41
I0
S'external'
p1296
I0
tp1297
a(I80
I41
I0
S'external'
p1298
I0
tp1299
a(I86
I30
I0
S'external'
p1300
I0
tp1301
as(S'unlimited'
p1302
S'data'
p1303
tp1304
(lp1305
(I3
I26
F-0.5
g61
I0
tp1306
a(I65
I116
F-0.5
g97
I0
tp1307
a(I99
I51
I0
g14
I0
tp1308
as(S'top'
p1309
S'of'
p1310
S'line'
p1311
tp1312
(lp1313
(I13
I108
F-0.375
S'top'
p1314
I0
tp1315
a(I50
I46
I0
S'many'
p1316
I0
tp1317
a(I50
I46
F-0.375
S'top'
p1318
I0
tp1319
a(I61
I210
F-0.375
S'top'
p1320
I0
tp1321
a(I61
I238
F-0.375
S'top'
p1322
I0
tp1323
a(I66
I66
F-0.375
S'top'
p1324
I0
tp1325
a(I79
I32
F-0.375
S'top'
p1326
I0
tp1327
as(S'wi'
p1328
S'fi'
p1329
S'calling'
p1330
tp1331
(lp1332
(I6
I61
I0
S'monthly'
p1333
I0
tp1334
a(I14
I31
F0.375
S'much'
p1335
I0
tp1336
a(I14
I31
F1.0
S'better'
p1337
I0
tp1338
a(I29
I57
I0
S'cool'
p1339
I0
tp1340
as(g407
S'long'
p1341
S'time'
p1342
tp1343
(lp1344
(I5
I17
F-0.5
S'long'
p1345
I12
tp1346
a(I22
I22
I0
S'same'
p1347
I12
tp1348
a(I26
I55
F-0.5
S'longest'
p1349
I12
tp1350
a(I29
I110
F-0.5
S'longer'
p1351
I12
tp1352
a(I29
I110
F0.375
S'standby'
p1353
I12
tp1354
a(I31
I7
F-0.5
S'long'
p1355
I12
tp1356
a(I35
I50
F-0.5
S'long'
p1357
I12
tp1358
a(I42
I79
F-0.5
S'long'
p1359
I12
tp1360
a(I46
I85
F-0.5
S'long'
p1361
I12
tp1362
a(I61
I163
F-0.5
S'long'
p1363
I12
tp1364
a(I65
I86
F-0.5
S'long'
p1365
I12
tp1366
a(I81
I11
F-0.5
S'long'
p1367
I12
tp1368
a(I95
I56
F-0.5
S'long'
p1369
I12
tp1370
as(S'android'
p1371
tp1372
(lp1373
(I2
I1
F-0.5
S'sure'
p1374
I0
tp1375
a(I2
I42
F-0.625
S'other'
p1376
I0
tp1377
a(I2
I79
I0
S'only'
p1378
I0
tp1379
a(I2
I79
F-0.875
S'negative'
p1380
I0
tp1381
a(I5
I126
F1.0
S'better'
p1382
I0
tp1383
a(I5
I208
F0.375
S'new'
p1384
I0
tp1385
a(I8
I2
F-0.625
S'other'
p1386
I0
tp1387
a(I11
I39
F-0.625
S'other'
p1388
I0
tp1389
a(I16
I7
F1.0
S'good'
p1390
I0
tp1391
a(I22
I0
I0
S'third'
p1392
I0
tp1393
a(I22
I166
F1.0
S'best'
p1394
I0
tp1395
a(I25
I43
F-0.5
S'afraid'
p1396
I0
tp1397
a(I25
I43
F-0.25
S'late'
p1398
I0
tp1399
a(I26
I96
I0
S'old'
p1400
I0
tp1401
a(I26
I113
F0.25
S'bigger'
p1402
I0
tp1403
a(I26
I113
I0
S'gingerbread'
p1404
I0
tp1405
a(I29
I67
F1.0
S'best'
p1406
I0
tp1407
a(I29
I92
F1.0
S'best'
p1408
I0
tp1409
a(I37
I61
F-0.625
S'other'
p1410
I0
tp1411
a(I39
I83
I0
S'many'
p1412
I0
tp1413
a(I42
I97
I0
S'most'
p1414
I0
tp1415
a(I46
I109
F0.125
S'first'
p1416
I0
tp1417
a(I46
I229
I0
S'earlier'
p1418
I0
tp1419
a(I46
I310
I0
S'old'
p1420
I0
tp1421
a(I47
I2
F0.125
S'first'
p1422
I0
tp1423
a(I50
I18
I0
S'older'
p1424
I0
tp1425
a(I50
I189
I0
S'full'
p1426
I0
tp1427
a(I50
I189
F0.25
S'unlocked'
p1428
I0
tp1429
a(I56
I86
I0
S'real'
p1430
I0
tp1431
a(I58
I1
F0.125
S'first'
p1432
I0
tp1433
a(I59
I25
F0.125
S'first'
p1434
I0
tp1435
a(I59
I26
F0.125
S'able'
p1436
I0
tp1437
a(I61
I294
F1.0
S'good'
p1438
I0
tp1439
a(I62
I21
I0
S'traditional'
p1440
I0
tp1441
a(I62
I21
I0
S'capacitive'
p1442
I0
tp1443
a(I65
I69
F0.125
S'first'
p1444
I0
tp1445
a(I65
I146
I0
S'great'
p1446
I0
tp1447
a(I67
I21
I0
S'latest'
p1448
I0
tp1449
a(I68
I62
F0.125
S'capable'
p1450
I0
tp1451
a(I70
I65
I0
S'rich'
p1452
I0
tp1453
a(I70
I66
F0.5
S'expensive'
p1454
I0
tp1455
a(I72
I2
F0.5
S'second'
p1456
I0
tp1457
a(I72
I10
F-0.625
S'other'
p1458
I0
tp1459
a(I74
I40
I0
S'great'
p1460
I0
tp1461
a(I74
I40
F0.125
S'first'
p1462
I0
tp1463
a(I77
I75
I0
S'common'
p1464
I0
tp1465
a(I78
I43
F0.375
S'available'
p1466
I0
tp1467
a(I78
I82
F0.75
S'due'
p1468
I0
tp1469
a(I78
I88
F0.375
S'new'
p1470
I0
tp1471
a(I81
I67
F0.625
S'easy'
p1472
I0
tp1473
a(I81
I86
I0
S'stable'
p1474
I0
tp1475
a(I86
I145
F1.0
S'good'
p1476
I0
tp1477
a(I87
I75
F0.375
S'new'
p1478
I0
tp1479
a(I94
I117
F-0.25
S'inexpensive'
p1480
I0
tp1481
a(I95
I80
I0
S'particular'
p1482
I0
tp1483
a(I97
I19
F0.875
S'nice'
p1484
I0
tp1485
a(I97
I19
I0
S'basic'
p1486
I0
tp1487
a(I97
I44
F0.5
S'functional'
p1488
I0
tp1489
a(I97
I44
F0.125
S'solid'
p1490
I0
tp1491
a(I106
I44
F0.125
S'first'
p1492
I0
tp1493
as(S'bloatware'
p1494
tp1495
(lp1496
(I1
I68
F0.5
S'rid'
p1497
I0
tp1498
a(I13
I10
F0.75
S'due'
p1499
I0
tp1500
a(I22
I68
F0.5
S'rid'
p1501
I0
tp1502
a(I33
I16
F0.5
S'rid'
p1503
I0
tp1504
a(I39
I55
F0.75
S'due'
p1505
I0
tp1506
a(I40
I4
F-0.75
S'little'
p1507
I0
tp1508
a(I46
I126
F0.75
S'due'
p1509
I0
tp1510
a(I61
I152
F0.5
S'rid'
p1511
I0
tp1512
a(I61
I345
F0.5
S'rid'
p1513
I0
tp1514
a(I85
I37
F0.125
S'typical'
p1515
I0
tp1516
a(I86
I30
F0.5
S'rid'
p1517
I0
tp1518
a(I86
I128
F1.0
S'good'
p1519
I0
tp1520
a(I94
I89
F0.5
S'rid'
p1521
I0
tp1522
as(S'iphone'
p1523
tp1524
(lp1525
(I7
I193
F-0.875
S'hard'
p1526
I1
tp1527
a(I7
I193
F-0.625
S'bad'
p1528
I1
tp1529
a(I11
I70
F0.125
S'last'
p1530
I1
tp1531
a(I11
I75
F-0.125
S'overall'
p1532
I1
tp1533
a(I11
I75
I0
S'great'
p1534
I1
tp1535
a(I12
I133
F-0.375
S'smaller'
p1536
I1
tp1537
a(I14
I44
F0.875
S'nice'
p1538
I1
tp1539
a(I19
I0
F-0.125
S'former'
p1540
I1
tp1541
a(I22
I28
F-0.625
S'steal'
p1542
I1
tp1543
a(I34
I13
I0
S'useful'
p1544
I1
tp1545
a(I34
I30
I0
S'same'
p1546
I1
tp1547
a(I39
I23
F0.25
S'unlocked'
p1548
I1
tp1549
a(I39
I97
F0.25
S'unlocked'
p1550
I1
tp1551
a(I39
I97
F0.375
S'similar'
p1552
I1
tp1553
a(I61
I211
I0
S'earlier'
p1554
I1
tp1555
a(I61
I211
I0
S'android'
p1556
I1
tp1557
a(I64
I36
I0
S'more'
p1558
I1
tp1559
a(I64
I37
I0
S'latest'
p1560
I1
tp1561
a(I65
I114
F0.625
S'superior'
p1562
I1
tp1563
a(I67
I36
I0
S'great'
p1564
I1
tp1565
a(I67
I36
F0.75
S'worth'
p1566
I1
tp1567
a(I68
I4
F-0.75
S'difficult'
p1568
I1
tp1569
a(I71
I79
F1.0
S'good'
p1570
I1
tp1571
a(I71
I198
F-0.25
S'past'
p1572
I1
tp1573
a(I71
I198
F-0.5
S'sure'
p1574
I1
tp1575
a(I78
I10
I0
S'old'
p1576
I1
tp1577
a(I78
I10
F-0.5
S'heavy'
p1578
I1
tp1579
a(I78
I10
I0
S'next'
p1580
I1
tp1581
a(I81
I52
F0.625
S'easy'
p1582
I1
tp1583
a(I81
I52
F1.0
S'good'
p1584
I1
tp1585
a(I83
I26
F1.0
S'better'
p1586
I1
tp1587
a(I95
I105
I0
S'few'
p1588
I1
tp1589
a(I96
I12
I0
S'old'
p1590
I1
tp1591
a(I96
I23
I0
S'old'
p1592
I1
tp1593
a(I96
I29
F0.25
S'responsive'
p1594
I1
tp1595
as(S'slow'
p1596
tp1597
(lp1598
(I22
I109
I0
S'slower'
p1599
I17
tp1600
as(S'smart'
p1601
tp1602
(lp1603
(I1
I51
F1.0
S'best'
p1604
I10
tp1605
a(I1
I82
F1.0
S'best'
p1606
I10
tp1607
a(I2
I83
F0.125
S'first'
p1608
I10
tp1609
a(I6
I50
F0.125
S'first'
p1610
I10
tp1611
a(I7
I190
F-0.625
S'other'
p1612
I10
tp1613
a(I12
I103
F0.5
S'live'
p1614
I10
tp1615
a(I15
I31
F-0.625
S'other'
p1616
I10
tp1617
a(I22
I51
I0
S'real'
p1618
I10
tp1619
a(I22
I51
F-0.5
S'mush'
p1620
I10
tp1621
a(I22
I70
F0.25
S'used'
p1622
I10
tp1623
a(I25
I2
F-0.25
S'lower'
p1624
I10
tp1625
a(I25
I2
F-0.625
S'other'
p1626
I10
tp1627
a(I25
I10
F-0.25
S'cheaper'
p1628
I10
tp1629
a(I26
I8
I0
S'own'
p1630
I10
tp1631
a(I26
I110
F0.375
S'newer'
p1632
I10
tp1633
a(I26
I133
F-0.625
S'other'
p1634
I10
tp1635
a(I38
I44
F0.125
S'first'
p1636
I10
tp1637
a(I42
I147
F1.0
S'good'
p1638
I10
tp1639
a(I45
I0
F0.125
S'first'
p1640
I10
tp1641
a(I47
I6
F0.125
S'first'
p1642
I10
tp1643
a(I47
I25
F-0.625
S'other'
p1644
I10
tp1645
a(I52
I17
F0.125
S'first'
p1646
I10
tp1647
a(I59
I13
F1.0
S'best'
p1648
I10
tp1649
a(I60
I19
F0.125
S'last'
p1650
I10
tp1651
a(I61
I197
F0.5
S'true'
p1652
I10
tp1653
a(I61
I313
F-0.5
S'less'
p1654
I10
tp1655
a(I61
I313
I0
S'many'
p1656
I10
tp1657
a(I63
I3
F1.0
S'good'
p1658
I10
tp1659
a(I63
I3
I0
S'most'
p1660
I10
tp1661
a(I63
I3
F-0.625
S'other'
p1662
I10
tp1663
a(I68
I109
F1.0
S'best'
p1664
I10
tp1665
a(I68
I160
F0.125
S'first'
p1666
I10
tp1667
a(I68
I228
I0
S'standard'
p1668
I10
tp1669
a(I68
I228
I0
S'most'
p1670
I10
tp1671
a(I68
I280
F1.0
S'good'
p1672
I10
tp1673
a(I68
I305
F0.75
S'worth'
p1674
I10
tp1675
a(I68
I314
F0.125
S'first'
p1676
I10
tp1677
a(I68
I324
F-0.375
S'smaller'
p1678
I10
tp1679
a(I69
I0
F0.125
S'first'
p1680
I10
tp1681
a(I72
I85
F0.125
S'first'
p1682
I10
tp1683
a(I74
I74
F1.0
S'better'
p1684
I10
tp1685
a(I74
I80
I0
S'basic'
p1686
I10
tp1687
a(I75
I84
F0.375
S'new'
p1688
I10
tp1689
a(I77
I120
F0.125
S'first'
p1690
I10
tp1691
a(I79
I33
F0.125
S'first'
p1692
I10
tp1693
a(I81
I17
F-0.625
S'other'
p1694
I10
tp1695
a(I90
I3
F0.125
S'first'
p1696
I10
tp1697
a(I94
I14
F0.125
S'first'
p1698
I10
tp1699
a(I94
I152
F0.125
S'first'
p1700
I10
tp1701
a(I95
I23
I0
S'most'
p1702
I10
tp1703
a(I97
I0
F0.125
S'first'
p1704
I10
tp1705
as(S'network'
p1706
tp1707
(lp1708
(I16
I26
I0
S'user'
p1709
I0
tp1710
a(I16
I26
F0.375
S'friendly'
p1711
I0
tp1712
a(I22
I113
F0.25
S'largest'
p1713
I0
tp1714
a(I29
I24
I0
S'same'
p1715
I0
tp1716
a(I37
I11
F1.0
S'good'
p1717
I0
tp1718
a(I54
I29
I0
S'cellular'
p1719
I0
tp1720
a(I58
I23
F-0.125
S'slow'
p1721
I0
tp1722
a(I58
I40
I0
S'great'
p1723
I0
tp1724
a(I58
I62
F0.125
S'last'
p1725
I0
tp1726
a(I61
I216
I0
S'cellular'
p1727
I0
tp1728
a(I61
I219
I0
S'cellular'
p1729
I0
tp1730
a(I68
I212
I0
S'same'
p1731
I0
tp1732
a(I71
I47
I0
S'android'
p1733
I0
tp1734
a(I73
I31
I0
S'same'
p1735
I0
tp1736
a(I78
I65
F1.0
S'good'
p1737
I0
tp1738
a(I86
I55
F-0.5
S'sure'
p1739
I0
tp1740
a(I89
I20
F-0.125
S'slow'
p1741
I0
tp1742
as(S'calls'
p1743
tp1744
(lp1745
(I1
I57
I0
S'more'
p1746
I0
tp1747
a(I1
I57
F-0.75
S'difficult'
p1748
I0
tp1749
a(I2
I70
I0
S'many'
p1750
I0
tp1751
a(I6
I71
F-0.5
S'international'
p1752
I0
tp1753
a(I15
I2
I0
S'great'
p1754
I0
tp1755
a(I18
I72
F0.875
S'music'
p1756
I0
tp1757
a(I22
I87
F0.625
S'decent'
p1758
I0
tp1759
a(I27
I6
F0.125
S'able'
p1760
I0
tp1761
a(I50
I226
F1.0
S'good'
p1762
I0
tp1763
a(I61
I96
I0
S'domestic'
p1764
I0
tp1765
a(I61
I96
F-0.625
S'free'
p1766
I0
tp1767
a(I61
I97
F0.375
S'much'
p1768
I0
tp1769
a(I61
I97
F-0.25
S'cheaper'
p1770
I0
tp1771
a(I61
I97
F-0.5
S'international'
p1772
I0
tp1773
a(I68
I161
F1.0
S'good'
p1774
I0
tp1775
a(I68
I161
F0.5
S'clear'
p1776
I0
tp1777
a(I68
I161
F0.875
S'important'
p1778
I0
tp1779
a(I68
I235
F-0.25
S'dropped'
p1780
I0
tp1781
a(I68
I241
F0.5
S'clear'
p1782
I0
tp1783
a(I77
I2
I0
S'signal'
p1784
I0
tp1785
a(I77
I101
I0
S'internet'
p1786
I0
tp1787
a(I79
I22
F0.875
S'important'
p1788
I0
tp1789
a(I96
I48
I0
S'more'
p1790
I0
tp1791
a(I96
I63
I0
S'few'
p1792
I0
tp1793
a(I96
I63
F0.875
S'music'
p1794
I0
tp1795
a(I99
I82
F-0.625
S'bad'
p1796
I0
tp1797
as(S'make'
p1798
g407
S'call'
p1799
tp1800
(lp1801
(I6
I70
F0.625
S'aware'
p1802
I0
tp1803
a(I22
I177
F-0.5
S'hassle'
p1804
I0
tp1805
a(I42
I135
F-0.5
S'sure'
p1806
I0
tp1807
a(I68
I221
F0.125
S'first'
p1808
I0
tp1809
a(I86
I20
I0
S'quick'
p1810
I0
tp1811
as(S'google'
p1812
S'voice'
p1813
tp1814
(lp1815
(I6
I64
F-0.25
S'google'
p1816
I0
tp1817
a(I6
I69
F1.0
S'good'
p1818
I0
tp1819
a(I6
I69
F0.875
S'happy'
p1820
I0
tp1821
a(I6
I78
F-0.25
S'google'
p1822
I0
tp1823
a(I20
I2
I0
S'great'
p1824
I0
tp1825
a(I27
I14
F-0.25
S'google'
p1826
I0
tp1827
a(I33
I19
F-0.25
S'google'
p1828
I0
tp1829
a(I34
I56
F-0.25
S'google'
p1830
I0
tp1831
a(I50
I107
F0.125
S'able'
p1832
I0
tp1833
a(I61
I99
F0.375
S'reliable'
p1834
I0
tp1835
a(I61
I99
I0
S'normal'
p1836
I0
tp1837
a(I68
I21
F-0.25
S'google'
p1838
I0
tp1839
a(I6
I64
F-0.25
g1816
I4
tp1840
a(I6
I69
F1.0
g1818
I4
tp1841
a(I6
I69
F0.875
g1820
I4
tp1842
a(I6
I78
F-0.25
g1822
I4
tp1843
a(I27
I14
F-0.25
g1826
I4
tp1844
a(I29
I103
F0.5
S'added'
p1845
I4
tp1846
a(I33
I19
F-0.25
g1828
I4
tp1847
a(I34
I20
I0
S'normal'
p1848
I4
tp1849
a(I34
I50
I0
S'same'
p1850
I4
tp1851
a(I34
I56
F-0.25
g1830
I4
tp1852
a(I61
I99
F0.375
g1834
I4
tp1853
a(I61
I99
I0
g1836
I4
tp1854
a(I68
I21
F-0.25
g1838
I4
tp1855
a(I72
I18
F0.875
S'happy'
p1856
I4
tp1857
a(I72
I18
F0.125
S'usual'
p1858
I4
tp1859
a(I72
I51
F0.5
S'clear'
p1860
I4
tp1861
a(I79
I1
F0.125
S'able'
p1862
I4
tp1863
a(I86
I30
F1.0
S'better'
p1864
I4
tp1865
a(I94
I80
F0.375
S'new'
p1866
I4
tp1867
a(I99
I104
I0
S'prepaid'
p1868
I4
tp1869
a(I108
I191
F0.5
S'clear'
p1870
I4
tp1871
a(I20
I2
I0
g1824
I4
tp1872
a(I50
I107
F0.125
g1832
I4
tp1873
as(S'text'
p1874
S'messages'
p1875
tp1876
(lp1877
(I5
I110
I0
S'text'
p1878
I0
tp1879
a(I5
I114
F-0.375
S'disable'
p1880
I0
tp1881
a(I5
I117
F0.125
g16
I0
tp1882
a(I25
I34
F-0.875
g34
I0
tp1883
a(I38
I29
F0.75
g38
I0
tp1884
a(I46
I302
I0
S'text'
p1885
I0
tp1886
a(I52
I4
I0
S'text'
p1887
I0
tp1888
a(I61
I255
I0
S'text'
p1889
I0
tp1890
a(I62
I5
I0
S'text'
p1891
I0
tp1892
a(I81
I5
F-0.5
g53
I0
tp1893
as(S'ice'
p1894
S'cream'
p1895
S'sandwich'
p1896
tp1897
(lp1898
(I99
I73
F0.875
S'nice'
p1899
I0
tp1900
as(S'able'
p1901
S'to'
p1902
S'use'
p1903
tp1904
(lp1905
(I31
I10
I0
S'caribbean'
p1906
I12
tp1907
a(I50
I150
F-0.375
S'disable'
p1908
I12
tp1909
a(I71
I108
I0
S'conditional'
p1910
I12
tp1911
a(I71
I108
F0.375
S'enable'
p1912
I12
tp1913
as(S'30'
p1914
g407
S'month'
p1915
tp1916
(lp1917
(I11
I57
F0.5
S'possible'
p1918
I0
tp1919
a(I61
I33
F0.125
S'first'
p1920
I0
tp1921
a(I76
I2
F0.125
S'able'
p1922
I0
tp1923
a(I76
I2
F0.125
S'first'
p1924
I0
tp1925
a(I85
I41
F-0.625
S'bad'
p1926
I0
tp1927
as(S'smartphone'
p1928
tp1929
(lp1930
(I5
I85
F-0.125
S'overall'
p1931
I0
tp1932
a(I5
I85
F0.875
S'happy'
p1933
I0
tp1934
a(I6
I37
I0
S'basic'
p1935
I0
tp1936
a(I7
I28
F-0.25
S'inexpensive'
p1937
I0
tp1938
a(I8
I32
I0
S'least'
p1939
I0
tp1940
a(I10
I31
F-0.125
S'overall'
p1941
I0
tp1942
a(I10
I31
F0.875
S'nice'
p1943
I0
tp1944
a(I11
I1
I0
S'great'
p1945
I0
tp1946
a(I12
I8
F0.125
S'first'
p1947
I0
tp1948
a(I13
I118
F0.5
S'true'
p1949
I0
tp1950
a(I26
I60
F-0.625
S'other'
p1951
I0
tp1952
a(I35
I69
I0
S'slowest'
p1953
I0
tp1954
a(I39
I92
F0.125
S'first'
p1955
I0
tp1956
a(I42
I28
F0.125
S'first'
p1957
I0
tp1958
a(I42
I36
F0.125
S'first'
p1959
I0
tp1960
a(I42
I36
I0
S'real'
p1961
I0
tp1962
a(I42
I142
F0.125
S'first'
p1963
I0
tp1964
a(I46
I285
F0.125
S'first'
p1965
I0
tp1966
a(I46
I327
F-0.625
S'bad'
p1967
I0
tp1968
a(I50
I32
F0.125
S'first'
p1969
I0
tp1970
a(I50
I213
F0.125
S'first'
p1971
I0
tp1972
a(I53
I0
F0.125
S'capable'
p1973
I0
tp1974
a(I61
I44
F0.125
S'first'
p1975
I0
tp1976
a(I61
I119
F1.0
S'best'
p1977
I0
tp1978
a(I61
I232
F0.125
S'first'
p1979
I0
tp1980
a(I61
I232
F-0.5
S'fun'
p1981
I0
tp1982
a(I61
I351
F0.875
S'nice'
p1983
I0
tp1984
a(I61
I351
F0.5
S'comparable'
p1985
I0
tp1986
a(I68
I131
F0.125
S'first'
p1987
I0
tp1988
a(I68
I131
F0.625
S'easy'
p1989
I0
tp1990
a(I68
I187
F1.0
S'best'
p1991
I0
tp1992
a(I68
I188
F1.0
S'good'
p1993
I0
tp1994
a(I68
I209
F1.0
S'better'
p1995
I0
tp1996
a(I68
I209
I0
S'current'
p1997
I0
tp1998
a(I68
I259
F0.125
S'first'
p1999
I0
tp2000
a(I68
I259
F0.375
S'much'
p2001
I0
tp2002
a(I68
I259
F0.125
S'first'
p2003
I0
tp2004
a(I71
I105
F0.5
S'comparable'
p2005
I0
tp2006
a(I71
I243
F0.125
S'first'
p2007
I0
tp2008
a(I76
I0
F0.125
S'first'
p2009
I0
tp2010
a(I76
I4
I0
S'real'
p2011
I0
tp2012
a(I76
I21
F1.0
S'best'
p2013
I0
tp2014
a(I78
I15
I0
S'great'
p2015
I0
tp2016
a(I78
I15
F0.25
S'powerful'
p2017
I0
tp2018
a(I78
I18
F0.125
S'first'
p2019
I0
tp2020
a(I79
I64
F-0.625
S'other'
p2021
I0
tp2022
a(I80
I59
F-0.375
S'simple'
p2023
I0
tp2024
a(I80
I59
F-0.25
S'inexpensive'
p2025
I0
tp2026
a(I90
I1
F0.125
S'capable'
p2027
I0
tp2028
a(I95
I169
F1.0
S'good'
p2029
I0
tp2030
a(I99
I93
F1.0
S'best'
p2031
I0
tp2032
a(I105
I4
F1.0
S'good'
p2033
I0
tp2034
a(I106
I44
F0.125
S'first'
p2035
I0
tp2036
a(I106
I50
F0.375
S'new'
p2037
I0
tp2038
a(I108
I8
F0.75
S'due'
p2039
I0
tp2040
as(S'100'
p2041
S'minutes'
p2042
tp2043
(lp2044
(I6
I36
F-0.625
S'free'
p2045
I0
tp2046
a(I11
I28
I0
S'monthly'
p2047
I0
tp2048
a(I27
I14
F-0.625
S'free'
p2049
I0
tp2050
a(I50
I107
I0
S'limited'
p2051
I0
tp2052
a(I108
I95
I0
S'great'
p2053
I0
tp2054
as(S'data'
p2055
S'plan'
p2056
tp2057
(lp2058
(I2
I3
I0
g59
I0
tp2059
a(I3
I26
F-0.5
g61
I0
tp2060
a(I22
I129
F-0.125
g8
I0
tp2061
a(I25
I16
I0
S'prepaid'
p2062
I0
tp2063
a(I34
I10
F-0.5
g67
I0
tp2064
a(I42
I204
I0
S'monthly'
p2065
I0
tp2066
a(I61
I336
F-0.5
S'unlimited'
p2067
I0
tp2068
a(I65
I116
F-0.5
g97
I0
tp2069
a(I71
I111
I0
S'traditional'
p2070
I0
tp2071
a(I71
I111
I0
g99
I0
tp2072
a(I75
I55
I0
S'monthly'
p2073
I0
tp2074
a(I95
I71
F-0.5
g112
I0
tp2075
a(I95
I126
F0.25
g114
I0
tp2076
a(I108
I8
F0.5
g121
I0
tp2077
as(S'internet'
p2078
tp2079
(lp2080
(I11
I52
F-0.125
S'public'
p2081
I6
tp2082
a(I24
I3
F0.125
S'capable'
p2083
I6
tp2084
a(I25
I19
F-0.125
S'slow'
p2085
I6
tp2086
a(I26
I163
I0
S'great'
p2087
I6
tp2088
a(I29
I69
F-0.125
S'slow'
p2089
I6
tp2090
a(I39
I68
I0
S'fast'
p2091
I6
tp2092
a(I39
I73
F-0.625
S'free'
p2093
I6
tp2094
a(I40
I2
F-0.125
S'slow'
p2095
I6
tp2096
a(I42
I61
F-0.625
S'free'
p2097
I6
tp2098
a(I46
I74
F-0.125
S'slow'
p2099
I6
tp2100
a(I50
I186
F0.125
S'capable'
p2101
I6
tp2102
a(I54
I37
F0.5
S'possible'
p2103
I6
tp2104
a(I65
I115
F0.625
S'easy'
p2105
I6
tp2106
a(I71
I277
I-100
S'136/month'
p2107
I6
tp2108
a(I71
I277
I0
S'cable'
p2109
I6
tp2110
a(I78
I64
F-0.5
S'heavy'
p2111
I6
tp2112
a(I79
I5
F1.0
S'good'
p2113
I6
tp2114
a(I86
I97
F0.625
S'fair'
p2115
I6
tp2116
a(I94
I99
F-0.125
S'slow'
p2117
I6
tp2118
a(I94
I99
I0
S'dial'
p2119
I6
tp2120
a(I99
I128
F-0.125
S'slow'
p2121
I6
tp2122
as(g625
S'mobile'
p2123
S'store'
p2124
tp2125
(lp2126
(I7
I10
F-0.5
S'less'
p2127
I0
tp2128
a(I80
I51
F-0.375
S'double'
p2129
I0
tp2130
a(I95
I206
I0
S'local'
p2131
I0
tp2132
a(I11
I26
F-0.625
S'clean'
p2133
I0
tp2134
a(I12
I92
F0.5
S'second'
p2135
I0
tp2136
a(I80
I58
F-0.375
g439
I0
tp2137
as(S'wifi'
p2138
tp2139
(lp2140
(I1
I73
I0
S'quick'
p2141
I0
tp2142
a(I11
I57
F0.375
S'much'
p2143
I0
tp2144
a(I26
I48
F-0.5
S'poor'
p2145
I0
tp2146
a(I26
I116
F0.375
S'available'
p2147
I0
tp2148
a(I26
I116
I0
S'great'
p2149
I0
tp2150
a(I34
I18
F-0.625
S'free'
p2151
I0
tp2152
a(I34
I20
F-0.625
S'free'
p2153
I0
tp2154
a(I34
I50
I0
S'adequate'
p2155
I0
tp2156
a(I34
I56
F-0.625
S'free'
p2157
I0
tp2158
a(I46
I8
I0
S'own'
p2159
I0
tp2160
a(I46
I8
I0
S'faster'
p2161
I0
tp2162
a(I46
I52
F1.0
S'good'
p2163
I0
tp2164
a(I53
I22
I0
S'own'
p2165
I0
tp2166
a(I68
I15
F-0.625
S'free'
p2167
I0
tp2168
a(I68
I270
I0
S'net'
p2169
I0
tp2170
a(I68
I359
I0
S'such'
p2171
I0
tp2172
a(I71
I20
F1.0
S'good'
p2173
I0
tp2174
a(I71
I61
F1.0
S'good'
p2175
I0
tp2176
a(I71
I162
F0.375
S'much'
p2177
I0
tp2178
as(S'samsung'
p2179
S'exhibit'
p2180
S'ii'
p2181
tp2182
(lp2183
(I6
I59
F-0.25
g684
I0
tp2184
a(I14
I90
F-0.25
S'low'
p2185
I0
tp2186
a(I26
I5
F0.375
g686
I0
tp2187
a(I50
I38
F0.125
S'solid'
p2188
I0
tp2189
a(I67
I69
I0
g679
I0
tp2190
a(I78
I16
I0
S'fast'
p2191
I0
tp2192
a(I81
I60
F0.625
S'perfect'
p2193
I0
tp2194
a(I85
I24
F1.0
S'good'
p2195
I0
tp2196
a(I87
I30
I0
S'great'
p2197
I0
tp2198
a(I1
I10
F0.125
S'exhibit'
p2199
I0
tp2200
a(I1
I10
F-0.625
S'light'
p2201
I0
tp2202
a(I6
I59
F-0.25
g684
I0
tp2203
a(I14
I90
F-0.25
g2185
I0
tp2204
a(I30
I8
F-0.5
S'less'
p2205
I0
tp2206
a(I34
I24
F0.875
S'attractive'
p2207
I0
tp2208
a(I34
I57
F0.875
g770
I0
tp2209
a(I46
I192
F0.125
g776
I0
tp2210
a(I46
I201
F0.125
S'solid'
p2211
I0
tp2212
a(I46
I201
F-0.75
S'comfortable'
p2213
I0
tp2214
a(I46
I215
F0.125
S'capable'
p2215
I0
tp2216
a(I46
I251
F-0.5
S'less'
p2217
I0
tp2218
a(I50
I38
F0.125
g2188
I0
tp2219
a(I62
I30
F-0.875
S'harder'
p2220
I0
tp2221
a(I66
I0
F0.625
S'straight'
p2222
I0
tp2223
a(I67
I23
F-0.75
g793
I0
tp2224
a(I77
I124
I0
g797
I0
tp2225
a(I78
I16
I0
g2191
I0
tp2226
a(I81
I60
F0.625
g2193
I0
tp2227
a(I81
I82
I0
S'large'
p2228
I0
tp2229
a(I81
I116
F0.125
S'practical'
p2230
I0
tp2231
a(I85
I24
F1.0
g2195
I0
tp2232
a(I87
I30
I0
g2197
I0
tp2233
as(S'apps'
p2234
tp2235
(lp2236
(I2
I60
I0
S'few'
p2237
I0
tp2238
a(I2
I60
I0
S'such'
p2239
I0
tp2240
a(I5
I34
F0.375
S'extra'
p2241
I0
tp2242
a(I5
I38
F0.375
S'extra'
p2243
I0
tp2244
a(I5
I100
I0
S'unnecessary'
p2245
I0
tp2246
a(I5
I209
I0
S'different'
p2247
I0
tp2248
a(I6
I24
F-0.625
S'other'
p2249
I0
tp2250
a(I6
I81
I0
S'many'
p2251
I0
tp2252
a(I6
I81
F0.875
S'nice'
p2253
I0
tp2254
a(I7
I39
F-0.5
S'open'
p2255
I0
tp2256
a(I7
I129
I0
S'many'
p2257
I0
tp2258
a(I7
I149
I0
S'rubbish'
p2259
I0
tp2260
a(I10
I22
F0.125
S'informational'
p2261
I0
tp2262
a(I12
I33
I0
S'many'
p2263
I0
tp2264
a(I12
I107
F-0.5
S'certain'
p2265
I0
tp2266
a(I13
I18
F0.875
S'nice'
p2267
I0
tp2268
a(I14
I18
I0
S'unnecessary'
p2269
I0
tp2270
a(I14
I40
I0
S'many'
p2271
I0
tp2272
a(I14
I86
F-0.625
S'free'
p2273
I0
tp2274
a(I15
I12
I0
S'many'
p2275
I0
tp2276
a(I16
I8
I0
S'many'
p2277
I0
tp2278
a(I18
I71
F-0.375
S'loaded'
p2279
I0
tp2280
a(I18
I71
I0
S'useful'
p2281
I0
tp2282
a(I18
I71
F-0.625
S'free'
p2283
I0
tp2284
a(I18
I81
I0
S'great'
p2285
I0
tp2286
a(I18
I81
F-0.125
S'overall'
p2287
I0
tp2288
a(I18
I111
F-0.375
S'small'
p2289
I0
tp2290
a(I20
I1
F-0.625
S'free'
p2291
I0
tp2292
a(I20
I5
I0
S'many'
p2293
I0
tp2294
a(I21
I14
I0
S'different'
p2295
I0
tp2296
a(I21
I25
F-0.625
S'other'
p2297
I0
tp2298
a(I22
I1
F-0.5
S'unwanted'
p2299
I0
tp2300
a(I22
I134
I0
S'faster'
p2301
I0
tp2302
a(I22
I134
F0.375
S'available'
p2303
I0
tp2304
a(I26
I39
I0
S'latest'
p2305
I0
tp2306
a(I26
I108
F0.375
S'extra'
p2307
I0
tp2308
a(I29
I109
I0
S'few'
p2309
I0
tp2310
a(I34
I34
F-0.625
S'other'
p2311
I0
tp2312
a(I35
I23
I0
S'few'
p2313
I0
tp2314
a(I35
I27
F0.125
S'able'
p2315
I0
tp2316
a(I35
I27
I0
S'many'
p2317
I0
tp2318
a(I36
I6
I0
S'buggy'
p2319
I0
tp2320
a(I37
I34
F-0.5
S'sure'
p2321
I0
tp2322
a(I37
I34
F-0.625
S'other'
p2323
I0
tp2324
a(I38
I59
I0
S'many'
p2325
I0
tp2326
a(I38
I61
I0
S'multiple'
p2327
I0
tp2328
a(I40
I10
I0
S'more'
p2329
I0
tp2330
a(I42
I31
I0
S'social'
p2331
I0
tp2332
a(I42
I117
I0
S'more'
p2333
I0
tp2334
a(I42
I123
F0.25
S'responsive'
p2335
I0
tp2336
a(I46
I68
I0
S'few'
p2337
I0
tp2338
a(I46
I78
F-0.125
S'minimum'
p2339
I0
tp2340
a(I46
I124
F-0.5
S'open'
p2341
I0
tp2342
a(I46
I236
F-0.125
S'overall'
p2343
I0
tp2344
a(I46
I358
F-0.625
S'other'
p2345
I0
tp2346
a(I46
I358
I0
S'such'
p2347
I0
tp2348
a(I46
I360
I0
S'different'
p2349
I0
tp2350
a(I47
I24
F-0.5
S'unwanted'
p2351
I0
tp2352
a(I50
I27
I0
S'few'
p2353
I0
tp2354
a(I50
I114
I0
S'minimal'
p2355
I0
tp2356
a(I50
I125
I0
S'same'
p2357
I0
tp2358
a(I50
I125
I0
S'more'
p2359
I0
tp2360
a(I50
I136
F0.125
S'flaky'
p2361
I0
tp2362
a(I52
I18
F0.625
S'easy'
p2363
I0
tp2364
a(I56
I85
F-0.125
S'slow'
p2365
I0
tp2366
a(I58
I36
F-0.375
S'smooth'
p2367
I0
tp2368
a(I58
I44
F0.375
S'newest'
p2369
I0
tp2370
a(I58
I50
F1.0
S'good'
p2371
I0
tp2372
a(I58
I50
I0
S'most'
p2373
I0
tp2374
a(I61
I273
I0
S'full'
p2375
I0
tp2376
a(I61
I321
I0
S'few'
p2377
I0
tp2378
a(I61
I359
F-0.625
S'other'
p2379
I0
tp2380
a(I61
I359
F0.25
S'helpful'
p2381
I0
tp2382
a(I61
I359
F0.125
S'able'
p2383
I0
tp2384
a(I61
I363
F0.625
S'safe'
p2385
I0
tp2386
a(I64
I4
I0
S'minimal'
p2387
I0
tp2388
a(I64
I36
F0.875
S'nice'
p2389
I0
tp2390
a(I65
I71
F0.875
S'nice'
p2391
I0
tp2392
a(I65
I71
F0.375
S'available'
p2393
I0
tp2394
a(I65
I98
F-0.5
S'long'
p2395
I0
tp2396
a(I65
I153
F-0.25
S'late'
p2397
I0
tp2398
a(I65
I153
F0.375
S'new'
p2399
I0
tp2400
a(I66
I36
F-0.625
S'free'
p2401
I0
tp2402
a(I66
I72
I0
S'many'
p2403
I0
tp2404
a(I67
I18
F0.25
S'favorite'
p2405
I0
tp2406
a(I67
I22
I0
S'most'
p2407
I0
tp2408
a(I67
I22
I0
S'useful'
p2409
I0
tp2410
a(I67
I22
F0.125
S'usual'
p2411
I0
tp2412
a(I67
I22
I0
S'most'
p2413
I0
tp2414
a(I68
I27
F-0.5
S'open'
p2415
I0
tp2416
a(I68
I144
I0
S'most'
p2417
I0
tp2418
a(I68
I144
I0
S'android'
p2419
I0
tp2420
a(I68
I164
F1.0
S'better'
p2421
I0
tp2422
a(I68
I190
I0
S'social'
p2423
I0
tp2424
a(I68
I204
F0.875
S'music'
p2425
I0
tp2426
a(I68
I222
I0
S'many'
p2427
I0
tp2428
a(I71
I101
F0.375
S'available'
p2429
I0
tp2430
a(I71
I154
F-0.5
S'open'
p2431
I0
tp2432
a(I71
I165
F-0.5
S'less'
p2433
I0
tp2434
a(I71
I167
F-0.625
S'other'
p2435
I0
tp2436
a(I71
I167
F0.75
S'due'
p2437
I0
tp2438
a(I71
I188
F0.625
S'sophisticated'
p2439
I0
tp2440
a(I71
I209
F0.375
S'available'
p2441
I0
tp2442
a(I71
I289
I0
S'many'
p2443
I0
tp2444
a(I77
I47
I0
S'most'
p2445
I0
tp2446
a(I77
I114
I0
S'many'
p2447
I0
tp2448
a(I79
I18
F-0.625
S'free'
p2449
I0
tp2450
a(I81
I21
I0
S'only'
p2451
I0
tp2452
a(I81
I21
F-0.875
S'negative'
p2453
I0
tp2454
a(I81
I21
I0
S'many'
p2455
I0
tp2456
a(I81
I89
I0
S'most'
p2457
I0
tp2458
a(I81
I91
I0
S'most'
p2459
I0
tp2460
a(I83
I64
F-0.125
S'slow'
p2461
I0
tp2462
a(I83
I67
F-0.5
S'less'
p2463
I0
tp2464
a(I84
I1
I0
S'great'
p2465
I0
tp2466
a(I85
I30
F0.125
S'first'
p2467
I0
tp2468
a(I85
I30
F1.0
S'good'
p2469
I0
tp2470
a(I85
I31
I0
S'full'
p2471
I0
tp2472
a(I85
I31
F0.5
S'rid'
p2473
I0
tp2474
a(I86
I12
F0.375
S'working'
p2475
I0
tp2476
a(I86
I33
I0
S'close'
p2477
I0
tp2478
a(I86
I33
F0.375
S'available'
p2479
I0
tp2480
a(I86
I68
I0
S'many'
p2481
I0
tp2482
a(I86
I142
F0.125
S'popular'
p2483
I0
tp2484
a(I94
I119
F0.5
S'primary'
p2485
I0
tp2486
a(I94
I122
F-0.625
S'other'
p2487
I0
tp2488
a(I94
I157
F0.375
S'available'
p2489
I0
tp2490
a(I94
I162
F-0.5
S'certain'
p2491
I0
tp2492
a(I94
I165
F1.0
S'better'
p2493
I0
tp2494
a(I95
I12
I0
S'many'
p2495
I0
tp2496
a(I95
I59
I0
S'few'
p2497
I0
tp2498
a(I95
I140
F0.875
S'music'
p2499
I0
tp2500
a(I99
I1
F-0.375
S'simple'
p2501
I0
tp2502
a(I99
I45
I0
S'many'
p2503
I0
tp2504
a(I99
I63
F-0.875
S'worst'
p2505
I0
tp2506
a(I100
I0
F0.375
S'new'
p2507
I0
tp2508
a(I105
I3
I0
S'great'
p2509
I0
tp2510
a(I106
I32
I0
S'many'
p2511
I0
tp2512
a(I106
I38
F-0.625
S'free'
p2513
I0
tp2514
a(I108
I83
F-0.5
S'less'
p2515
I0
tp2516
a(I108
I83
F-0.625
S'other'
p2517
I0
tp2518
a(I108
I92
F-0.125
S'slow'
p2519
I0
tp2520
a(I108
I104
F0.625
S'decent'
p2521
I0
tp2522
a(I108
I115
I0
S'great'
p2523
I0
tp2524
as(S'amazon'
p2525
tp2526
(lp2527
(I0
I0
F0.125
S'first'
p2528
I13
tp2529
a(I5
I52
F0.375
S'new'
p2530
I13
tp2531
a(I5
I52
F-0.75
S'sufficient'
p2532
I13
tp2533
a(I5
I119
F0.25
S'stellar'
p2534
I13
tp2535
a(I22
I81
F0.5
S'true'
p2536
I13
tp2537
a(I37
I2
F0.125
S'first'
p2538
I13
tp2539
a(I50
I37
F0.125
S'usual'
p2540
I13
tp2541
a(I50
I44
F-0.5
S'less'
p2542
I13
tp2543
a(I61
I72
F0.25
S'read'
p2544
I13
tp2545
a(I61
I227
F-0.625
S'free'
p2546
I13
tp2547
a(I64
I38
F-0.625
S'free'
p2548
I13
tp2549
a(I65
I44
F0.875
S'music'
p2550
I13
tp2551
a(I68
I142
I0
S'rebate'
p2552
I13
tp2553
a(I71
I275
I-100
S'walmart/tmobile'
p2554
I13
tp2555
a(I86
I140
F0.375
S'available'
p2556
I13
tp2557
a(I97
I47
F0.375
S'available'
p2558
I13
tp2559
a(I97
I47
F0.375
S'available'
p2560
I13
tp2561
a(I106
I42
I0
S'great'
p2562
I13
tp2563
as(g1150
S'year'
p2564
S'contract'
p2565
tp2566
(lp2567
(I11
I11
F0.125
g1154
I0
tp2568
a(I18
I172
F-0.75
S'stupid'
p2569
I0
tp2570
a(I77
I154
F-0.875
S'stuck'
p2571
I0
tp2572
a(I79
I36
I0
S'more'
p2573
I0
tp2574
a(I1
I65
F-0.625
S'free'
p2575
I0
tp2576
a(I14
I75
F-0.75
S'off'
p2577
I0
tp2578
a(I18
I50
F-0.375
S'serious'
p2579
I0
tp2580
a(I18
I97
I0
S'annual'
p2581
I0
tp2582
a(I18
I97
F0.875
S'happy'
p2583
I0
tp2584
a(I18
I172
F-0.75
g2569
I0
tp2585
a(I39
I77
I0
S'monthly'
p2586
I0
tp2587
a(I42
I45
F-0.25
S'inexpensive'
p2588
I0
tp2589
a(I42
I46
I0
S'monthly'
p2590
I0
tp2591
a(I54
I26
F-0.625
S'free'
p2592
I0
tp2593
a(I56
I28
F-0.625
S'free'
p2594
I0
tp2595
a(I62
I76
F0.375
S'new'
p2596
I0
tp2597
a(I67
I23
F-0.875
S'hard'
p2598
I0
tp2599
a(I72
I0
F-0.375
S'crazy'
p2600
I0
tp2601
a(I77
I154
F-0.875
g2571
I0
tp2602
a(I79
I36
I0
g2573
I0
tp2603
a(I86
I209
F-0.5
S'less'
p2604
I0
tp2605
a(I87
I5
F-0.625
S'free'
p2606
I0
tp2607
a(I94
I108
I0
S'great'
p2608
I0
tp2609
a(I96
I13
F0.5
S'expensive'
p2610
I0
tp2611
a(I96
I16
I0
S'two-year'
p2612
I0
tp2613
a(I99
I105
I0
S'annual'
p2614
I0
tp2615
as(S'power'
p2616
S'button'
p2617
tp2618
(lp2619
(I8
I0
I0
S'slippery'
p2620
I0
tp2621
a(I8
I0
F-0.875
S'hard'
p2622
I0
tp2623
a(I14
I99
I0
S'many'
p2624
I0
tp2625
a(I65
I89
F0.625
S'kind'
p2626
I0
tp2627
a(I65
I90
F-0.375
S'simple'
p2628
I0
tp2629
a(I83
I34
F-0.125
S'slow'
p2630
I0
tp2631
a(I87
I65
F-0.75
S'difficult'
p2632
I0
tp2633
a(I95
I155
I0
S'only'
p2634
I0
tp2635
a(I95
I159
I0
S'high'
p2636
I0
tp2637
as(S'touch'
p2638
S'screen'
p2639
tp2640
(lp2641
(I5
I30
I0
S'normal'
p2642
I2
tp2643
a(I6
I2
I0
S'great'
p2644
I2
tp2645
a(I12
I25
F0.5
S'touch'
p2646
I2
tp2647
a(I18
I92
F0.5
S'touch'
p2648
I2
tp2649
a(I23
I3
F0.5
S'touch'
p2650
I2
tp2651
a(I26
I139
F-0.125
S'slow'
p2652
I2
tp2653
a(I26
I142
F-0.875
S'awful'
p2654
I2
tp2655
a(I29
I34
I0
S'sensitive'
p2656
I2
tp2657
a(I30
I8
F1.0
S'good'
p2658
I2
tp2659
a(I31
I12
F0.5
S'touch'
p2660
I2
tp2661
a(I31
I12
F0.25
S'responsive'
p2662
I2
tp2663
a(I35
I21
I0
S'sensitive'
p2664
I2
tp2665
a(I42
I173
F0.125
S'first'
p2666
I2
tp2667
a(I44
I24
F0.25
S'responsive'
p2668
I2
tp2669
a(I46
I50
F0.25
S'responsive'
p2670
I2
tp2671
a(I50
I199
F0.5
S'touch'
p2672
I2
tp2673
a(I56
I18
F0.5
S'touch'
p2674
I2
tp2675
a(I56
I18
F0.625
S'easier'
p2676
I2
tp2677
a(I61
I141
F0.5
S'touch'
p2678
I2
tp2679
a(I61
I141
I0
S'sensitive'
p2680
I2
tp2681
a(I61
I275
F0.5
S'touch'
p2682
I2
tp2683
a(I61
I276
F0.5
S'touch'
p2684
I2
tp2685
a(I61
I286
I0
S'great'
p2686
I2
tp2687
a(I61
I326
F0.5
S'touch'
p2688
I2
tp2689
a(I62
I34
I0
S'capacitive'
p2690
I2
tp2691
a(I65
I64
F0.5
S'touch'
p2692
I2
tp2693
a(I68
I80
F0.25
S'sharp'
p2694
I2
tp2695
a(I68
I80
F0.5
S'clear'
p2696
I2
tp2697
a(I68
I318
I0
S'same'
p2698
I2
tp2699
a(I68
I354
F0.5
S'touch'
p2700
I2
tp2701
a(I71
I19
F0.25
S'receptive'
p2702
I2
tp2703
a(I71
I19
F-0.625
S'clean'
p2704
I2
tp2705
a(I76
I22
I0
S'slippery'
p2706
I2
tp2707
a(I76
I22
F0.375
S'reflective'
p2708
I2
tp2709
a(I79
I12
F0.5
S'touch'
p2710
I2
tp2711
a(I83
I61
F0.125
S'first'
p2712
I2
tp2713
a(I86
I73
F0.5
S'touch'
p2714
I2
tp2715
a(I86
I73
F0.625
S'easy'
p2716
I2
tp2717
a(I94
I129
F1.0
S'good'
p2718
I2
tp2719
a(I94
I135
F1.0
S'good'
p2720
I2
tp2721
a(I95
I179
F0.5
S'touch'
p2722
I2
tp2723
a(I108
I105
F0.25
S'responsive'
p2724
I2
tp2725
a(I108
I105
F1.0
S'good'
p2726
I2
tp2727
as.