(dp0
(S'screen'
p1
S'size'
p2
tp3
(lp4
(I2
I87
I0
S'trade-off'
p5
I3
tp6
a(I7
I458
I0
S'large'
p7
I3
tp8
a(I10
I12
I0
S'large'
p9
I3
tp10
a(I10
I105
F0.75
S'due'
p11
I3
tp12
a(I10
I105
F-0.25
S'thin'
p13
I3
tp14
a(I10
I205
F0.375
S'much'
p15
I3
tp16
a(I10
I219
F-0.125
S'overall'
p17
I3
tp18
a(I13
I281
I0
S'quick'
p19
I3
tp20
a(I13
I451
F0.625
S'perfect'
p21
I3
tp22
a(I20
I90
F0.25
S'bigger'
p23
I3
tp24
a(I20
I90
F0.75
S'worth'
p25
I3
tp26
a(I20
I90
F0.875
S'nice'
p27
I3
tp28
a(I20
I185
F0.625
S'easy'
p29
I3
tp30
a(I21
I39
F0.25
S'effective'
p31
I3
tp32
a(I23
I30
I0
S'real'
p33
I3
tp34
as(S'pixel'
p35
S'density'
p36
tp37
(lp38
(I7
I12
F-0.25
S'abundant'
p39
I0
tp40
a(I7
I337
I0
S'high'
p41
I0
tp42
a(I14
I161
F0.625
S'noticeable'
p43
I0
tp44
as(S'listening'
p45
S'to'
p46
S'music'
p47
tp48
(lp49
(I2
I66
F0.875
S'music'
p50
I0
tp51
a(I7
I354
F0.875
S'music'
p52
I0
tp53
a(I7
I363
F0.875
S'music'
p54
I0
tp55
as(S'droid'
p56
S'razr'
p57
S'maxx'
p58
tp59
(lp60
(I23
I123
F-0.625
S'glad'
p61
I0
tp62
a(I6
I98
F-0.75
S'sad'
p63
I0
tp64
a(I13
I281
F0.75
S'due'
p65
I0
tp66
a(I19
I82
F0.5
S'hopeful'
p67
I0
tp68
a(I23
I123
F-0.625
g61
I0
tp69
a(I13
I320
F0.25
S'read'
p70
I0
tp71
a(I13
I320
F1.0
S'better'
p72
I0
tp73
a(I13
I320
F1.0
S'better'
p74
I0
tp75
a(I3
I104
I0
S'sturdy'
p76
I0
tp77
a(I7
I67
F1.0
S'better'
p78
I0
tp79
a(I7
I74
I0
S'full'
p80
I0
tp81
a(I7
I77
F-0.25
S'disappointing'
p82
I0
tp83
a(I7
I78
F0.25
S'sharp'
p84
I0
tp85
a(I7
I463
I0
S'wider'
p86
I0
tp87
a(I13
I320
F1.0
g72
I0
tp88
a(I13
I320
F1.0
g74
I0
tp89
a(I15
I79
F0.375
S'went'
p90
I0
tp91
a(I16
I76
F0.375
S'confident'
p92
I0
tp93
a(I0
I34
F0.25
S'original'
p94
I0
tp95
a(I0
I357
F0.875
S'happy'
p96
I0
tp97
a(I0
I359
I0
S'old'
p98
I0
tp99
a(I8
I28
F0.25
S'original'
p100
I0
tp101
a(I10
I19
I0
S'adopter'
p102
I0
tp103
a(I10
I20
F0.25
S'original'
p104
I0
tp105
a(I10
I24
F0.25
S'original'
p106
I0
tp107
a(I10
I223
F0.25
S'original'
p108
I0
tp109
a(I13
I163
F0.25
S'original'
p110
I0
tp111
a(I13
I320
F0.25
g70
I0
tp112
a(I13
I417
F0.125
S'first'
p113
I0
tp114
a(I15
I25
F0.25
S'original'
p115
I0
tp116
a(I16
I62
I-100
S'years-old'
p117
I0
tp118
a(I16
I62
F-0.25
S'cheaper'
p119
I0
tp120
a(I16
I138
F0.25
S'original'
p121
I0
tp122
a(I16
I138
I0
S'incredible'
p123
I0
tp124
a(I19
I16
F0.25
S'original'
p125
I0
tp126
a(I23
I12
F-0.25
S'ready'
p127
I0
tp128
as(S'google'
p129
tp130
(lp131
(I5
I37
I0
S'more'
p132
I4
tp133
a(I5
I38
I0
S'most'
p134
I4
tp135
a(I7
I94
F-0.75
S'pure'
p136
I4
tp137
a(I7
I94
F-0.25
S'ready'
p138
I4
tp139
a(I8
I85
F-0.5
S'sure'
p140
I4
tp141
a(I9
I41
F-0.375
S'standardized'
p142
I4
tp143
a(I9
I83
F-0.625
S'glad'
p144
I4
tp145
a(I12
I37
I0
S'more'
p146
I4
tp147
a(I13
I154
F0.625
S'interested'
p148
I4
tp149
a(I13
I168
I0
S'song'
p150
I4
tp151
a(I13
I339
F0.125
S'able'
p152
I4
tp153
a(I14
I36
F-0.25
S'direct'
p154
I4
tp155
a(I14
I137
F1.0
S'better'
p156
I4
tp157
a(I18
I9
I0
S'wish'
p158
I4
tp159
a(I20
I46
F0.875
S'music'
p160
I4
tp161
a(I21
I19
I0
S'most'
p162
I4
tp163
as(S'dual'
p164
S'core'
p165
tp166
(lp167
(I7
I459
F0.25
S'powerful'
p168
I0
tp169
as(S'poor'
p170
S'battery'
p171
S'life'
p172
tp173
(lp174
(I0
I212
F-0.5
S'poor'
p175
I0
tp176
a(I10
I92
F-0.5
S'poor'
p177
I0
tp178
a(I13
I499
F-0.5
S'poor'
p179
I0
tp180
a(I14
I58
F-0.5
S'poor'
p181
I0
tp182
a(I14
I58
I0
S'standard'
p183
I0
tp184
a(I15
I47
F-0.5
S'poor'
p185
I0
tp186
a(I19
I63
F-0.625
S'bad'
p187
I0
tp188
a(I19
I63
F-0.5
S'poor'
p189
I0
tp190
a(I22
I45
F-0.5
S'poor'
p191
I0
tp192
a(I0
I212
F-0.5
g175
I1
tp193
a(I0
I373
F-0.75
S'short'
p194
I1
tp195
a(I2
I31
F-0.625
S'bad'
p196
I1
tp197
a(I2
I86
F-0.875
S'awful'
p198
I1
tp199
a(I2
I114
F-0.5
S'less'
p200
I1
tp201
a(I2
I115
F-0.625
S'bad'
p202
I1
tp203
a(I2
I115
I0
S'bionic'
p204
I1
tp205
a(I3
I116
F-0.25
S'battery'
p206
I1
tp207
a(I3
I194
F0.25
S'stellar'
p208
I1
tp209
a(I3
I194
F0.375
S'extra'
p210
I1
tp211
a(I3
I229
F1.0
S'good'
p212
I1
tp213
a(I7
I9
F0.5
S'so-so'
p214
I1
tp215
a(I7
I338
I0
S'great'
p216
I1
tp217
a(I7
I402
F0.25
S'original'
p218
I1
tp219
a(I7
I428
F0.375
S'extended'
p220
I1
tp221
a(I7
I431
F0.375
S'extra'
p222
I1
tp223
a(I7
I557
I0
S'great'
p224
I1
tp225
a(I7
I558
I0
S'most'
p226
I1
tp227
a(I7
I559
F-0.75
S'shorter'
p228
I1
tp229
a(I7
I628
F-0.5
S'regular'
p230
I1
tp231
a(I10
I52
F0.375
S'extended'
p232
I1
tp233
a(I10
I92
F-0.5
g177
I1
tp234
a(I10
I106
I0
S'optional'
p235
I1
tp236
a(I10
I106
F0.375
S'extended'
p237
I1
tp238
a(I11
I26
F-0.625
S'bad'
p239
I1
tp240
a(I13
I115
F0.375
S'extended'
p241
I1
tp242
a(I13
I129
I0
S'cycle'
p243
I1
tp244
a(I13
I174
I0
S'great'
p245
I1
tp246
a(I13
I281
I0
S'standard'
p247
I1
tp248
a(I13
I281
F0.375
S'extended'
p249
I1
tp250
a(I13
I281
F0.5
S'flat'
p251
I1
tp252
a(I13
I293
F0.375
S'extended'
p253
I1
tp254
a(I13
I351
I0
S'great'
p255
I1
tp256
a(I13
I433
F0.75
S'due'
p257
I1
tp258
a(I13
I433
F-0.625
S'bad'
p259
I1
tp260
a(I13
I499
F-0.5
g179
I1
tp261
a(I13
I514
F0.375
S'much'
p262
I1
tp263
a(I14
I9
F0.125
S'solid'
p264
I1
tp265
a(I14
I58
F-0.5
g181
I1
tp266
a(I14
I58
I0
g183
I1
tp267
a(I14
I95
F-0.75
S'short'
p268
I1
tp269
a(I14
I129
F1.0
S'good'
p270
I1
tp271
a(I15
I47
F-0.5
g185
I1
tp272
a(I16
I149
F0.375
S'extended'
p273
I1
tp274
a(I18
I6
I0
S'full'
p275
I1
tp276
a(I18
I6
I0
S'full'
p277
I1
tp278
a(I18
I22
F-0.625
S'bad'
p279
I1
tp280
a(I18
I22
I0
S'immediate'
p281
I1
tp282
a(I19
I29
F-0.875
S'awful'
p283
I1
tp284
a(I19
I63
F-0.625
g187
I1
tp285
a(I19
I63
F-0.5
g189
I1
tp286
a(I20
I16
F1.0
S'better'
p287
I1
tp288
a(I20
I27
F0.5
S'greater'
p289
I1
tp290
a(I20
I135
F-0.875
S'awful'
p291
I1
tp292
a(I20
I167
F0.375
S'extra'
p293
I1
tp294
a(I20
I167
I0
S'external'
p295
I1
tp296
a(I20
I246
F1.0
S'good'
p297
I1
tp298
a(I21
I12
I0
S'great'
p299
I1
tp300
a(I21
I58
F-0.5
S'less'
p301
I1
tp302
a(I22
I45
F-0.5
g191
I1
tp303
a(I23
I39
F-0.625
S'bad'
p304
I1
tp305
a(I23
I113
F0.375
S'extended'
p306
I1
tp307
a(I0
I212
F-0.5
g175
I19
tp308
a(I2
I31
F-0.625
g196
I19
tp309
a(I2
I86
F-0.875
g198
I19
tp310
a(I2
I115
F-0.625
g202
I19
tp311
a(I2
I115
I0
g204
I19
tp312
a(I3
I116
F-0.25
g206
I19
tp313
a(I3
I194
F0.25
g208
I19
tp314
a(I6
I45
F-0.75
S'short'
p315
I19
tp316
a(I7
I9
F0.5
g214
I19
tp317
a(I7
I338
I0
g216
I19
tp318
a(I7
I557
I0
g224
I19
tp319
a(I9
I139
F0.625
S'easier'
p320
I19
tp321
a(I10
I106
I0
g235
I19
tp322
a(I10
I106
F0.375
g237
I19
tp323
a(I11
I26
F-0.625
g239
I19
tp324
a(I13
I174
I0
g245
I19
tp325
a(I13
I281
F0.5
g251
I19
tp326
a(I13
I351
I0
g255
I19
tp327
a(I14
I9
F0.125
g264
I19
tp328
a(I14
I58
F-0.5
g181
I19
tp329
a(I14
I129
F1.0
g270
I19
tp330
a(I16
I230
F0.625
S'easier'
p331
I19
tp332
a(I18
I22
F-0.625
g279
I19
tp333
a(I18
I22
I0
g281
I19
tp334
a(I19
I29
F-0.875
g283
I19
tp335
a(I19
I63
F-0.5
g189
I19
tp336
a(I20
I135
F-0.875
g291
I19
tp337
a(I21
I58
F-0.5
g301
I19
tp338
a(I23
I113
F0.375
g306
I19
tp339
a(I0
I6
F0.375
S'extended'
p340
I15
tp341
a(I0
I281
F0.375
S'extended'
p342
I15
tp343
a(I0
I297
F0.375
S'extended'
p344
I15
tp345
a(I0
I301
F0.375
S'extended'
p346
I15
tp347
a(I0
I304
F-0.25
S'low'
p348
I15
tp349
a(I0
I373
F-0.75
g194
I15
tp350
a(I1
I109
F-0.25
S'lower'
p351
I15
tp352
a(I1
I137
F-0.375
S'smaller'
p353
I15
tp354
a(I1
I138
F-0.375
S'smaller'
p355
I15
tp356
a(I1
I138
I0
S'external'
p357
I15
tp358
a(I1
I179
F0.375
S'extended'
p359
I15
tp360
a(I1
I231
I0
S'plastic'
p361
I15
tp362
a(I2
I112
F1.0
S'good'
p363
I15
tp364
a(I2
I114
F-0.5
g200
I15
tp365
a(I3
I3
I0
S'useful'
p366
I15
tp367
a(I3
I3
F0.375
S'extended'
p368
I15
tp369
a(I3
I11
I0
S'high'
p370
I15
tp371
a(I3
I23
F0.375
S'extended'
p372
I15
tp373
a(I3
I38
F0.25
S'bigger'
p374
I15
tp375
a(I3
I117
F0.375
S'extended'
p376
I15
tp377
a(I3
I149
F0.375
S'extended'
p378
I15
tp379
a(I3
I151
I0
S'normal'
p380
I15
tp381
a(I3
I194
F0.375
g210
I15
tp382
a(I3
I212
F0.125
S'last'
p383
I15
tp384
a(I3
I229
F1.0
g212
I15
tp385
a(I3
I233
F0.375
S'extended'
p386
I15
tp387
a(I3
I237
F0.125
S'last'
p388
I15
tp389
a(I3
I239
F0.375
S'extended'
p390
I15
tp391
a(I3
I241
F0.375
S'extended'
p392
I15
tp393
a(I3
I243
F0.375
S'extended'
p394
I15
tp395
a(I3
I281
F0.375
S'extended'
p396
I15
tp397
a(I6
I21
F0.125
S'last'
p398
I15
tp399
a(I6
I23
F0.375
S'extended'
p400
I15
tp401
a(I6
I23
F0.375
S'extra'
p402
I15
tp403
a(I6
I43
F0.125
S'last'
p404
I15
tp405
a(I6
I46
F0.375
S'extended'
p406
I15
tp407
a(I6
I47
F0.375
S'extended'
p408
I15
tp409
a(I6
I93
I0
S'external'
p410
I15
tp411
a(I6
I93
F-0.625
S'free'
p412
I15
tp413
a(I7
I13
F0.375
S'extended'
p414
I15
tp415
a(I7
I13
F0.375
S'extra'
p416
I15
tp417
a(I7
I26
F0.375
S'extended'
p418
I15
tp419
a(I7
I27
I0
S'external'
p420
I15
tp421
a(I7
I40
F0.375
S'extended'
p422
I15
tp423
a(I7
I40
I0
S'own'
p424
I15
tp425
a(I7
I40
F0.375
S'extended'
p426
I15
tp427
a(I7
I373
I0
S'standard'
p428
I15
tp429
a(I7
I373
F0.125
S'last'
p430
I15
tp431
a(I7
I380
F0.5
S'second'
p432
I15
tp433
a(I7
I402
F0.25
g218
I15
tp434
a(I7
I428
F0.375
g220
I15
tp435
a(I7
I431
F0.375
g222
I15
tp436
a(I7
I553
F0.25
S'larger'
p437
I15
tp438
a(I7
I558
I0
g226
I15
tp439
a(I7
I559
F-0.75
g228
I15
tp440
a(I7
I627
F0.375
S'extended'
p441
I15
tp442
a(I7
I628
F-0.5
g230
I15
tp443
a(I8
I19
F-0.75
S'dead'
p444
I15
tp445
a(I8
I30
F0.625
S'easy'
p446
I15
tp447
a(I9
I120
F-0.625
S'bad'
p448
I15
tp449
a(I9
I144
F0.125
S'last'
p450
I15
tp451
a(I9
I178
F0.375
S'new'
p452
I15
tp453
a(I9
I183
I0
S'fast'
p454
I15
tp455
a(I9
I183
F0.375
S'new'
p456
I15
tp457
a(I9
I192
F0.375
S'extended'
p458
I15
tp459
a(I10
I47
F0.375
S'extended'
p460
I15
tp461
a(I10
I52
F0.375
g232
I15
tp462
a(I10
I89
I0
S'few'
p463
I15
tp464
a(I10
I89
I0
S'full'
p465
I15
tp466
a(I10
I92
F-0.5
g177
I15
tp467
a(I10
I94
F0.375
S'available'
p468
I15
tp469
a(I10
I261
I0
S'more'
p470
I15
tp471
a(I13
I115
F0.375
g241
I15
tp472
a(I13
I129
I0
g243
I15
tp473
a(I13
I200
F1.0
S'good'
p474
I15
tp475
a(I13
I224
F0.375
S'extended'
p476
I15
tp477
a(I13
I249
F0.375
S'extended'
p478
I15
tp479
a(I13
I261
F0.375
S'extra'
p480
I15
tp481
a(I13
I281
I0
g247
I15
tp482
a(I13
I281
F0.375
g249
I15
tp483
a(I13
I293
F0.375
g253
I15
tp484
a(I13
I328
F0.375
S'extended'
p485
I15
tp486
a(I13
I385
F1.0
S'best'
p487
I15
tp488
a(I13
I407
F0.375
S'much'
p489
I15
tp490
a(I13
I407
F0.375
S'extended'
p491
I15
tp492
a(I13
I433
F0.75
g257
I15
tp493
a(I13
I433
F-0.625
g259
I15
tp494
a(I13
I438
F0.25
S'larger'
p495
I15
tp496
a(I13
I453
F0.375
S'extra'
p497
I15
tp498
a(I13
I499
F-0.5
g179
I15
tp499
a(I13
I514
F0.375
g262
I15
tp500
a(I14
I58
I0
g183
I15
tp501
a(I14
I60
I0
S'standard'
p502
I15
tp503
a(I14
I95
F-0.75
g268
I15
tp504
a(I14
I182
F0.875
S'nice'
p505
I15
tp506
a(I14
I293
F0.25
S'bigger'
p507
I15
tp508
a(I14
I323
F0.375
S'new'
p509
I15
tp510
a(I15
I5
F-0.5
S'sure'
p511
I15
tp512
a(I15
I6
F-0.25
S'late'
p513
I15
tp514
a(I15
I6
F-0.75
S'dead'
p515
I15
tp516
a(I15
I41
F-0.5
S'less'
p517
I15
tp518
a(I15
I47
F-0.5
g185
I15
tp519
a(I15
I53
F-0.25
S'low'
p520
I15
tp521
a(I15
I71
F-0.625
S'average'
p522
I15
tp523
a(I16
I104
F-0.625
S'fresh'
p524
I15
tp525
a(I16
I149
F0.375
g273
I15
tp526
a(I16
I264
F-0.25
S'low'
p527
I15
tp528
a(I18
I5
F0.5
S'flat'
p529
I15
tp530
a(I18
I6
I0
g275
I15
tp531
a(I18
I6
I0
g277
I15
tp532
a(I19
I61
I0
S'normal'
p533
I15
tp534
a(I19
I63
F-0.625
g187
I15
tp535
a(I19
I79
F0.125
S'last'
p536
I15
tp537
a(I19
I96
I0
S'hot'
p538
I15
tp539
a(I19
I98
I0
S'hot'
p540
I15
tp541
a(I20
I16
F1.0
g287
I15
tp542
a(I20
I27
F0.5
g289
I15
tp543
a(I20
I167
F0.375
g293
I15
tp544
a(I20
I167
I0
g295
I15
tp545
a(I20
I246
F1.0
g297
I15
tp546
a(I21
I12
I0
g299
I15
tp547
a(I21
I33
F0.625
S'removable'
p548
I15
tp549
a(I22
I45
F-0.5
g191
I15
tp550
a(I22
I64
F0.375
S'extended'
p551
I15
tp552
a(I23
I39
F-0.625
g304
I15
tp553
a(I23
I118
F0.375
S'much'
p554
I15
tp555
as(S'personal'
p556
S'preference'
p557
tp558
(lp559
(I10
I260
F0.5
S'personal'
p560
I0
tp561
a(I12
I85
F0.5
S'personal'
p562
I0
tp563
a(I23
I55
F0.5
S'personal'
p564
I0
tp565
as(S'call'
p566
S'quality'
p567
tp568
(lp569
(I2
I27
F-0.625
S'bad'
p570
I0
tp571
a(I3
I95
F1.0
S'better'
p572
I0
tp573
a(I3
I229
F1.0
S'good'
p574
I0
tp575
a(I6
I12
F1.0
S'best'
p576
I0
tp577
a(I6
I60
F-0.625
S'bad'
p578
I0
tp579
a(I11
I15
F-0.5
S'poor'
p580
I0
tp581
a(I11
I15
F-0.625
S'bad'
p582
I0
tp583
a(I13
I312
I0
S'great'
p584
I0
tp585
a(I14
I221
I0
S'great'
p586
I0
tp587
a(I15
I47
F-0.125
S'overall'
p588
I0
tp589
a(I16
I207
F0.5
S'clear'
p590
I0
tp591
a(I17
I6
I0
S'crystal'
p592
I0
tp593
a(I17
I6
F0.5
S'clear'
p594
I0
tp595
a(I20
I163
F1.0
S'best'
p596
I0
tp597
a(I22
I74
I0
S'great'
p598
I0
tp599
as(S'dial'
p600
S'pad'
p601
tp602
(lp603
(I1
I23
I0
S'big'
p604
I0
tp605
a(I1
I23
F-0.625
S'clean'
p606
I0
tp607
a(I1
I23
I0
S'dial'
p608
I0
tp609
a(I11
I34
I0
S'dial'
p610
I0
tp611
a(I12
I64
I0
S'dial'
p612
I0
tp613
a(I13
I301
I0
S'dial'
p614
I0
tp615
as(S'give'
p616
S'a'
p617
S'try'
p618
tp619
(lp620
(I16
I123
F0.5
S'willing'
p621
I0
tp622
as(S'camera'
p623
tp624
(lp625
(I0
I342
F1.0
S'good'
p626
I1
tp627
a(I1
I8
F1.0
S'good'
p628
I1
tp629
a(I1
I36
F1.0
S'good'
p630
I1
tp631
a(I2
I50
F0.5
S'second'
p632
I1
tp633
a(I2
I51
F0.125
S'native'
p634
I1
tp635
a(I6
I18
F0.5
S'true'
p636
I1
tp637
a(I6
I76
F-0.625
S'bad'
p638
I1
tp639
a(I6
I76
F0.875
S'nice'
p640
I1
tp641
a(I7
I47
F-0.875
S'hard'
p642
I1
tp643
a(I7
I328
F-0.625
S'bad'
p644
I1
tp645
a(I7
I457
I0
S'quick'
p646
I1
tp647
a(I7
I480
I0
S'great'
p648
I1
tp649
a(I9
I31
F1.0
S'best'
p650
I1
tp651
a(I9
I127
F-0.625
S'bad'
p652
I1
tp653
a(I10
I256
F0.125
S'able'
p654
I1
tp655
a(I13
I219
F1.0
S'good'
p656
I1
tp657
a(I13
I262
F0.125
S'first'
p658
I1
tp659
a(I13
I264
F1.0
S'good'
p660
I1
tp661
a(I13
I264
F0.125
S'enough'
p662
I1
tp663
a(I13
I324
F-0.125
S'alternative'
p664
I1
tp665
a(I13
I389
F1.0
S'good'
p666
I1
tp667
a(I13
I389
F-0.625
S'other'
p668
I1
tp669
a(I13
I390
F1.0
S'good'
p670
I1
tp671
a(I13
I489
F1.0
S'good'
p672
I1
tp673
a(I14
I217
F0.875
S'nice'
p674
I1
tp675
a(I14
I241
F0.875
S'agree'
p676
I1
tp677
a(I14
I290
F1.0
S'good'
p678
I1
tp679
a(I16
I82
I0
S'great'
p680
I1
tp681
a(I16
I133
F-0.625
S'light'
p682
I1
tp683
a(I16
I135
F-0.625
S'average'
p684
I1
tp685
a(I16
I137
I0
S'great'
p686
I1
tp687
a(I16
I158
F-0.625
S'other'
p688
I1
tp689
a(I16
I245
I0
S'hot'
p690
I1
tp691
a(I19
I102
F-0.625
S'bad'
p692
I1
tp693
a(I20
I100
F1.0
S'best'
p694
I1
tp695
a(I20
I103
F-0.875
S'awful'
p696
I1
tp697
a(I20
I104
F0.125
S'able'
p698
I1
tp699
a(I22
I19
I0
S'own'
p700
I1
tp701
a(I22
I68
F0.875
S'nice'
p702
I1
tp703
as(S'lot'
p704
S'of'
p705
S'people'
p706
tp707
(lp708
(I3
I361
F-0.625
S'other'
p709
I0
tp710
a(I7
I460
F-0.875
S'trouble'
p711
I0
tp712
a(I7
I510
F0.375
S'believe'
p713
I0
tp714
as(S'4'
p715
S'5'
p716
S'hours'
p717
tp718
(lp719
(I13
I386
F1.0
S'good'
p720
I0
tp721
as(S'iphone'
p722
tp723
(lp724
(I0
I11
F0.25
S'original'
p725
I1
tp726
a(I0
I30
F1.0
S'better'
p727
I1
tp728
a(I0
I246
F0.875
S'nice'
p729
I1
tp730
a(I0
I371
F-0.75
S'off'
p731
I1
tp732
a(I1
I206
F0.375
S'early'
p733
I1
tp734
a(I2
I96
F-0.375
S'small'
p735
I1
tp736
a(I2
I102
F0.375
S'new'
p737
I1
tp738
a(I2
I103
I0
S'next'
p739
I1
tp740
a(I3
I234
I-100
S'issues-many'
p741
I1
tp742
a(I7
I476
I0
S'faster'
p743
I1
tp744
a(I7
I478
F0.125
S'capable'
p745
I1
tp746
a(I7
I484
I0
S'sturdier'
p747
I1
tp748
a(I7
I523
F1.0
S'better'
p749
I1
tp750
a(I7
I530
F0.5
S'accurate'
p751
I1
tp752
a(I8
I75
I0
S'least'
p753
I1
tp754
a(I8
I75
I0
S'high'
p755
I1
tp756
a(I9
I57
F-0.25
S'google'
p757
I1
tp758
a(I10
I23
I0
S'own'
p759
I1
tp760
a(I10
I243
F0.375
S'newest'
p761
I1
tp762
a(I11
I5
F0.375
S'new'
p763
I1
tp764
a(I11
I11
I0
S'few'
p765
I1
tp766
a(I13
I21
I0
S'least'
p767
I1
tp768
a(I13
I28
I0
S'closer'
p769
I1
tp770
a(I13
I47
F-0.375
S'simple'
p771
I1
tp772
a(I13
I47
I0
S'great'
p773
I1
tp774
a(I13
I155
F-0.625
S'free'
p775
I1
tp776
a(I20
I103
F1.0
S'good'
p777
I1
tp778
a(I22
I1
I0
S'few'
p779
I1
tp780
a(I23
I149
F0.375
S'available'
p781
I1
tp782
a(I23
I155
I0
S'such'
p783
I1
tp784
as(S'bad'
p785
S'battery'
p786
S'life'
p787
tp788
(lp789
(I2
I31
F-0.625
g196
I0
tp790
a(I2
I115
F-0.625
g202
I0
tp791
a(I2
I115
I0
g204
I0
tp792
a(I11
I26
F-0.625
g239
I0
tp793
a(I13
I293
F0.375
g253
I0
tp794
a(I13
I433
F0.75
g257
I0
tp795
a(I13
I433
F-0.625
g259
I0
tp796
a(I18
I22
F-0.625
g279
I0
tp797
a(I18
I22
I0
g281
I0
tp798
a(I19
I63
F-0.625
g187
I0
tp799
a(I19
I63
F-0.5
g189
I0
tp800
a(I23
I39
F-0.625
g304
I0
tp801
as(S'build'
p802
S'quality'
p803
tp804
(lp805
(I3
I115
F1.0
S'good'
p806
I2
tp807
a(I8
I43
F-0.125
S'overall'
p808
I2
tp809
a(I8
I43
F-0.25
S'low'
p810
I2
tp811
a(I8
I45
F0.25
S'consistent'
p812
I2
tp813
a(I9
I30
F-0.25
S'disappointed'
p814
I2
tp815
a(I10
I153
F0.25
S'stellar'
p816
I2
tp817
a(I18
I40
F0.375
S'star'
p818
I2
tp819
as(S'headphone'
p820
S'jack'
p821
tp822
(lp823
(I7
I121
F-0.375
S'disable'
p824
I0
tp825
a(I7
I121
F0.125
S'able'
p826
I0
tp827
as(S'buttons'
p828
tp829
(lp830
(I7
I539
I0
S'physical'
p831
I13
tp832
a(I9
I37
F0.125
S'solid'
p833
I13
tp834
a(I9
I37
F-0.25
S'loose'
p835
I13
tp836
a(I9
I47
I0
S'vertical'
p837
I13
tp838
a(I9
I47
I0
S'horizontal'
p839
I13
tp840
a(I9
I82
I0
S'soft'
p841
I13
tp842
a(I9
I84
F0.375
S'available'
p843
I13
tp844
a(I9
I154
I0
S'user'
p845
I13
tp846
a(I10
I218
I0
S'appear'
p847
I13
tp848
a(I10
I270
F0.375
S'available'
p849
I13
tp850
a(I14
I212
F-0.75
S'dark'
p851
I13
tp852
a(I14
I252
I0
S'physical'
p853
I13
tp854
a(I15
I87
I0
S'physical'
p855
I13
tp856
a(I16
I42
I0
S'old'
p857
I13
tp858
a(I16
I42
I-100
S'text-based'
p859
I13
tp860
a(I16
I42
F-0.375
S'smaller'
p861
I13
tp862
a(I16
I45
I0
S'big'
p863
I13
tp864
a(I16
I53
F0.375
S'new'
p865
I13
tp866
a(I21
I44
I0
S'navigational'
p867
I13
tp868
a(I22
I26
F0.375
S'new'
p869
I13
tp870
a(I22
I26
I0
S'soft'
p871
I13
tp872
a(I23
I80
I0
S'soft'
p873
I13
tp874
a(I23
I86
I0
S'soft'
p875
I13
tp876
as(S'early'
p877
S'adopter'
p878
tp879
(lp880
(I13
I342
F0.375
S'early'
p881
I1
tp882
a(I16
I6
F0.375
S'early'
p883
I1
tp884
as(S'ice'
p885
S'cream'
p886
S'sandwich'
p887
tp888
(lp889
(I0
I93
I0
S'phenomenal'
p890
I0
tp891
a(I2
I8
I0
S'great'
p892
I0
tp893
a(I3
I389
F0.75
S'beautiful'
p894
I0
tp895
a(I10
I62
F0.625
S'easy'
p896
I0
tp897
a(I11
I24
I0
S'more'
p898
I0
tp899
a(I12
I67
F-0.625
S'clean'
p900
I0
tp901
a(I14
I190
I0
S'current'
p902
I0
tp903
a(I19
I47
I0
S'great'
p904
I0
tp905
a(I19
I81
F0.875
S'nice'
p906
I0
tp907
a(I22
I10
I0
S'next'
p908
I0
tp909
a(I12
I67
F-0.625
g900
I2
tp910
a(I13
I33
I-100
S'pros/cons/hardware/software'
p911
I2
tp912
a(I15
I8
F0.875
S'nice'
p913
I2
tp914
a(I22
I10
I0
g908
I2
tp915
a(I23
I80
I-100
S'os/software'
p916
I2
tp917
a(I0
I93
I0
g890
I0
tp918
a(I2
I8
I0
g892
I0
tp919
a(I3
I389
F0.75
g894
I0
tp920
a(I10
I62
F0.625
g896
I0
tp921
a(I11
I24
I0
g898
I0
tp922
a(I14
I190
I0
g902
I0
tp923
a(I19
I47
I0
g904
I0
tp924
a(I19
I81
F0.875
g906
I0
tp925
a(I0
I93
I0
g890
I0
tp926
a(I2
I8
I0
g892
I0
tp927
a(I3
I389
F0.75
g894
I0
tp928
a(I10
I62
F0.625
g896
I0
tp929
a(I11
I24
I0
g898
I0
tp930
a(I14
I190
I0
g902
I0
tp931
a(I19
I47
I0
g904
I0
tp932
a(I19
I81
F0.875
g906
I0
tp933
as(S'an'
p934
S'extended'
p935
S'battery'
p936
tp937
(lp938
(I0
I6
F0.375
g340
I0
tp939
a(I0
I281
F0.375
g342
I0
tp940
a(I0
I297
F0.375
g344
I0
tp941
a(I3
I3
I0
g366
I0
tp942
a(I3
I3
F0.375
g368
I0
tp943
a(I3
I23
F0.375
g372
I0
tp944
a(I3
I149
F0.375
g378
I0
tp945
a(I3
I233
F0.375
g386
I0
tp946
a(I3
I239
F0.375
g390
I0
tp947
a(I3
I243
F0.375
g394
I0
tp948
a(I3
I281
F0.375
g396
I0
tp949
a(I6
I23
F0.375
g400
I0
tp950
a(I6
I23
F0.375
g402
I0
tp951
a(I6
I46
F0.375
g406
I0
tp952
a(I6
I47
F0.375
g408
I0
tp953
a(I7
I13
F0.375
g414
I0
tp954
a(I7
I13
F0.375
g416
I0
tp955
a(I7
I402
F0.25
g218
I0
tp956
a(I7
I627
F0.375
g441
I0
tp957
a(I9
I192
F0.375
g458
I0
tp958
a(I10
I47
F0.375
g460
I0
tp959
a(I10
I52
F0.375
g232
I0
tp960
a(I13
I115
F0.375
g241
I0
tp961
a(I13
I224
F0.375
g476
I0
tp962
a(I13
I249
F0.375
g478
I0
tp963
a(I13
I281
I0
g247
I0
tp964
a(I13
I281
F0.375
g249
I0
tp965
a(I13
I293
F0.375
g253
I0
tp966
a(I13
I328
F0.375
g485
I0
tp967
a(I20
I167
F0.375
g293
I0
tp968
a(I20
I167
I0
g295
I0
tp969
a(I22
I64
F0.375
g551
I0
tp970
a(I0
I6
F0.375
g340
I0
tp971
a(I0
I281
F0.375
g342
I0
tp972
a(I0
I297
F0.375
g344
I0
tp973
a(I0
I301
F0.375
g346
I0
tp974
a(I1
I179
F0.375
g359
I0
tp975
a(I3
I3
I0
g366
I0
tp976
a(I3
I3
F0.375
g368
I0
tp977
a(I3
I23
F0.375
g372
I0
tp978
a(I3
I117
F0.375
g376
I0
tp979
a(I3
I149
F0.375
g378
I0
tp980
a(I3
I233
F0.375
g386
I0
tp981
a(I3
I239
F0.375
g390
I0
tp982
a(I3
I241
F0.375
g392
I0
tp983
a(I3
I243
F0.375
g394
I0
tp984
a(I3
I281
F0.375
g396
I0
tp985
a(I6
I23
F0.375
g400
I0
tp986
a(I6
I23
F0.375
g402
I0
tp987
a(I6
I46
F0.375
g406
I0
tp988
a(I6
I47
F0.375
g408
I0
tp989
a(I7
I13
F0.375
g414
I0
tp990
a(I7
I13
F0.375
g416
I0
tp991
a(I7
I26
F0.375
g418
I0
tp992
a(I7
I40
F0.375
g422
I0
tp993
a(I7
I40
I0
g424
I0
tp994
a(I7
I40
F0.375
g426
I0
tp995
a(I7
I402
F0.25
g218
I0
tp996
a(I7
I428
F0.375
g220
I0
tp997
a(I7
I627
F0.375
g441
I0
tp998
a(I9
I192
F0.375
g458
I0
tp999
a(I10
I47
F0.375
g460
I0
tp1000
a(I10
I52
F0.375
g232
I0
tp1001
a(I13
I115
F0.375
g241
I0
tp1002
a(I13
I224
F0.375
g476
I0
tp1003
a(I13
I249
F0.375
g478
I0
tp1004
a(I13
I281
I0
g247
I0
tp1005
a(I13
I281
F0.375
g249
I0
tp1006
a(I13
I293
F0.375
g253
I0
tp1007
a(I13
I328
F0.375
g485
I0
tp1008
a(I13
I407
F0.375
g489
I0
tp1009
a(I13
I407
F0.375
g491
I0
tp1010
a(I13
I438
F0.25
g495
I0
tp1011
a(I16
I149
F0.375
g273
I0
tp1012
a(I20
I167
F0.375
g293
I0
tp1013
a(I20
I167
I0
g295
I0
tp1014
a(I22
I64
F0.375
g551
I0
tp1015
as(S'android'
p1016
tp1017
(lp1018
(I0
I74
F1.0
S'best'
p1019
I0
tp1020
a(I0
I97
I0
S'real'
p1021
I0
tp1022
a(I0
I111
F0.375
S'new'
p1023
I0
tp1024
a(I0
I262
I0
S'latest'
p1025
I0
tp1026
a(I0
I318
F0.125
S'last'
p1027
I0
tp1028
a(I0
I368
F0.375
S'new'
p1029
I0
tp1030
a(I1
I20
F0.375
S'new'
p1031
I0
tp1032
a(I1
I169
F1.0
S'best'
p1033
I0
tp1034
a(I2
I41
F-0.375
S'top'
p1035
I0
tp1036
a(I2
I44
F0.375
S'new'
p1037
I0
tp1038
a(I2
I52
I0
S'third'
p1039
I0
tp1040
a(I3
I43
F0.375
S'new'
p1041
I0
tp1042
a(I3
I75
F0.125
S'impressive'
p1043
I0
tp1044
a(I3
I398
F1.0
S'better'
p1045
I0
tp1046
a(I5
I38
F0.5
S'loyal'
p1047
I0
tp1048
a(I6
I4
F1.0
S'best'
p1049
I0
tp1050
a(I7
I64
I0
S'earlier'
p1051
I0
tp1052
a(I7
I538
F1.0
S'good'
p1053
I0
tp1054
a(I10
I215
F-0.625
S'other'
p1055
I0
tp1056
a(I10
I243
F-0.625
S'other'
p1057
I0
tp1058
a(I11
I44
F0.625
S'major'
p1059
I0
tp1060
a(I12
I57
F1.0
S'best'
p1061
I0
tp1062
a(I12
I107
F1.0
S'best'
p1063
I0
tp1064
a(I13
I192
F0.375
S'new'
p1065
I0
tp1066
a(I13
I278
F0.375
S'newest'
p1067
I0
tp1068
a(I13
I307
F0.375
S'new'
p1069
I0
tp1070
a(I13
I318
F0.375
S'new'
p1071
I0
tp1072
a(I14
I187
F0.375
S'newest'
p1073
I0
tp1074
a(I14
I201
F0.875
S'happy'
p1075
I0
tp1076
a(I14
I255
F0.875
S'important'
p1077
I0
tp1078
a(I14
I261
F1.0
S'best'
p1079
I0
tp1080
a(I14
I262
F-0.25
S'past'
p1081
I0
tp1082
a(I14
I264
F1.0
S'best'
p1083
I0
tp1084
a(I14
I286
F0.125
S'first'
p1085
I0
tp1086
a(I14
I299
F0.375
S'newest'
p1087
I0
tp1088
a(I16
I4
F-0.625
S'other'
p1089
I0
tp1090
a(I16
I23
I0
S'old'
p1091
I0
tp1092
a(I16
I24
F-0.5
S'sure'
p1093
I0
tp1094
a(I16
I94
F0.5
S'second'
p1095
I0
tp1096
a(I16
I224
F0.5
S'true'
p1097
I0
tp1098
a(I17
I7
I0
S'great'
p1099
I0
tp1100
a(I18
I31
I0
S'latest'
p1101
I0
tp1102
a(I18
I32
I0
S'latest'
p1103
I0
tp1104
a(I18
I38
F0.625
S'major'
p1105
I0
tp1106
a(I19
I30
F0.125
S'first'
p1107
I0
tp1108
a(I20
I7
F1.0
S'best'
p1109
I0
tp1110
a(I20
I19
F-0.625
S'other'
p1111
I0
tp1112
a(I20
I29
I0
S'end-all'
p1113
I0
tp1114
a(I20
I124
F0.625
S'superior'
p1115
I0
tp1116
a(I21
I8
F0.125
S'first'
p1117
I0
tp1118
a(I21
I101
F0.375
S'early'
p1119
I0
tp1120
a(I22
I15
F-0.625
S'other'
p1121
I0
tp1122
a(I23
I78
F0.25
S'main'
p1123
I0
tp1124
as(S'updates'
p1125
tp1126
(lp1127
(I1
I117
F-0.5
S'regular'
p1128
I12
tp1129
a(I2
I57
F-0.125
S'future'
p1130
I12
tp1131
a(I3
I17
F0.375
S'available'
p1132
I12
tp1133
a(I7
I290
F0.125
S'first'
p1134
I12
tp1135
a(I7
I301
F0.125
S'first'
p1136
I12
tp1137
a(I7
I407
F0.375
S'new'
p1138
I12
tp1139
a(I7
I407
F0.375
S'early'
p1140
I12
tp1141
a(I7
I454
F-0.25
S'potential'
p1142
I12
tp1143
a(I12
I39
F-0.5
S'upset'
p1144
I12
tp1145
a(I12
I39
F0.125
S'first'
p1146
I12
tp1147
a(I14
I112
F-0.125
S'slow'
p1148
I12
tp1149
a(I16
I18
F-0.125
S'future'
p1150
I12
tp1151
a(I18
I35
I0
S'latest'
p1152
I12
tp1153
a(I20
I34
F-0.125
S'future'
p1154
I12
tp1155
a(I20
I34
F0.375
S'newest'
p1156
I12
tp1157
a(I23
I50
F0.875
S'happy'
p1158
I12
tp1159
as(S'voice'
p1160
tp1161
(lp1162
(I1
I33
F-0.25
S'dropped'
p1163
I4
tp1164
a(I1
I77
F0.125
S'capable'
p1165
I4
tp1166
a(I3
I225
F-0.25
S'low'
p1167
I4
tp1168
a(I14
I65
I0
S'different'
p1169
I4
tp1170
a(I16
I220
I0
S'many'
p1171
I4
tp1172
a(I20
I197
I0
S'real-time'
p1173
I4
tp1174
as(S'sd'
p1175
S'card'
p1176
S'slot'
p1177
tp1178
(lp1179
(I7
I84
I0
S'wish'
p1180
I0
tp1181
a(I10
I136
I0
S'sd'
p1182
I0
tp1183
a(I1
I139
F0.625
S'removable'
p1184
I0
tp1185
a(I3
I382
I0
S'bionic'
p1186
I0
tp1187
a(I10
I136
I0
g1182
I0
tp1188
a(I13
I143
F-0.625
S'bad'
p1189
I0
tp1190
as(S'learning'
p1191
S'curve'
p1192
tp1193
(lp1194
(I3
I339
I0
S'big'
p1195
I2
tp1196
a(I7
I577
I0
S'next'
p1197
I2
tp1198
as(g617
S'galaxy'
p1199
S'nexus'
p1200
tp1201
(lp1202
(I0
I2
F-0.875
S'inferior'
p1203
I0
tp1204
a(I2
I84
F-0.625
S'other'
p1205
I0
tp1206
a(I3
I49
F0.375
S'newest'
p1207
I0
tp1208
a(I7
I455
F0.375
S'available'
p1209
I0
tp1210
a(I8
I53
F-0.25
S'google'
p1211
I0
tp1212
a(I10
I214
I0
S'least'
p1213
I0
tp1214
a(I10
I284
I0
S'most'
p1215
I0
tp1216
a(I10
I284
F0.875
S'important'
p1217
I0
tp1218
a(I13
I22
F-0.625
S'glad'
p1219
I0
tp1220
a(I13
I338
I0
S'more'
p1221
I0
tp1222
a(I13
I387
F0.625
S'find'
p1223
I0
tp1224
a(I13
I419
F-0.5
S'less'
p1225
I0
tp1226
a(I13
I431
F0.375
S'available'
p1227
I0
tp1228
a(I14
I225
I0
S'own'
p1229
I0
tp1230
a(I16
I120
F-0.125
S'overall'
p1231
I0
tp1232
a(I20
I102
F-0.75
S'short'
p1233
I0
tp1234
a(I20
I115
I0
S'different'
p1235
I0
tp1236
a(I21
I22
F0.125
S'last'
p1237
I0
tp1238
a(I0
I2
F-0.875
g1203
I0
tp1239
a(I2
I84
F-0.625
g1205
I0
tp1240
a(I3
I49
F0.375
g1207
I0
tp1241
a(I7
I455
F0.375
g1209
I0
tp1242
a(I8
I53
F-0.25
g1211
I0
tp1243
a(I10
I214
I0
g1213
I0
tp1244
a(I10
I284
I0
g1215
I0
tp1245
a(I10
I284
F0.875
g1217
I0
tp1246
a(I13
I22
F-0.625
g1219
I0
tp1247
a(I13
I338
I0
g1221
I0
tp1248
a(I13
I387
F0.625
g1223
I0
tp1249
a(I13
I419
F-0.5
g1225
I0
tp1250
a(I13
I431
F0.375
g1227
I0
tp1251
a(I14
I225
I0
g1229
I0
tp1252
a(I16
I120
F-0.125
g1231
I0
tp1253
a(I20
I102
F-0.75
g1233
I0
tp1254
a(I20
I115
I0
g1235
I0
tp1255
a(I21
I22
F0.125
g1237
I0
tp1256
a(I2
I84
F-0.625
g1205
I0
tp1257
a(I8
I53
F-0.25
g1211
I0
tp1258
a(I10
I284
I0
g1215
I0
tp1259
a(I10
I284
F0.875
g1217
I0
tp1260
a(I13
I22
F-0.625
g1219
I0
tp1261
a(I13
I387
F0.625
g1223
I0
tp1262
a(I14
I225
I0
g1229
I0
tp1263
a(I21
I96
F0.5
S'upgraded'
p1264
I0
tp1265
as(g617
S'third'
p1266
S'party'
p1267
tp1268
(lp1269
(I0
I99
I0
S'third'
p1270
I0
tp1271
a(I3
I28
I0
S'third'
p1272
I0
tp1273
a(I3
I406
I0
S'third'
p1274
I0
tp1275
a(I12
I2
I0
S'third'
p1276
I0
tp1277
a(I16
I253
I0
S'third'
p1278
I0
tp1279
a(I20
I174
I0
S'third'
p1280
I0
tp1281
a(I20
I215
I0
S'third'
p1282
I0
tp1283
as(S'samsung'
p1284
S'galaxy'
p1285
tp1286
(lp1287
(I3
I53
F-0.625
S'other'
p1288
I0
tp1289
a(I7
I389
F0.375
S'similar'
p1290
I0
tp1291
a(I7
I504
F-0.25
S'disappointing'
p1292
I0
tp1293
a(I13
I431
F0.375
S'new'
p1294
I0
tp1295
a(I16
I116
F0.375
S'new'
p1296
I0
tp1297
a(I0
I236
I0
S'third'
p1298
I7
tp1299
a(I0
I242
I0
S'android'
p1300
I7
tp1301
a(I0
I286
F0.25
S'recent'
p1302
I7
tp1303
a(I3
I53
F-0.625
g1288
I7
tp1304
a(I7
I389
F0.375
g1290
I7
tp1305
a(I7
I504
F-0.25
g1292
I7
tp1306
a(I9
I168
I0
S'next'
p1307
I7
tp1308
a(I9
I173
I0
S'next'
p1309
I7
tp1310
a(I10
I150
I0
S'only'
p1311
I7
tp1312
a(I12
I25
F-0.5
S'certain'
p1313
I7
tp1314
a(I13
I431
F0.375
g1294
I7
tp1315
a(I14
I161
F-0.625
S'other'
p1316
I7
tp1317
a(I16
I116
F0.375
g1296
I7
tp1318
a(I16
I279
I0
S'great'
p1319
I7
tp1320
a(I18
I47
F0.625
S'aware'
p1321
I7
tp1322
a(I21
I29
F0.125
S'first'
p1323
I7
tp1324
as(g617
S'nexus'
p1325
S'device'
p1326
tp1327
(lp1328
(I7
I305
F1.0
S'best'
p1329
I0
tp1330
a(I7
I305
F0.375
S'available'
p1331
I0
tp1332
a(I7
I570
F0.5
S'true'
p1333
I0
tp1334
a(I7
I590
F0.5
S'true'
p1335
I0
tp1336
a(I13
I88
I0
S'cool'
p1337
I0
tp1338
a(I13
I419
F-0.5
g1225
I0
tp1339
a(I18
I68
F0.5
S'true'
p1340
I0
tp1341
a(I20
I94
F0.125
S'capable'
p1342
I0
tp1343
a(I0
I2
F-0.875
g1203
I0
tp1344
a(I0
I239
I0
S'later'
p1345
I0
tp1346
a(I1
I132
I0
S'more'
p1347
I0
tp1348
a(I1
I145
F0.75
S'due'
p1349
I0
tp1350
a(I2
I39
I0
S'fast'
p1351
I0
tp1352
a(I3
I45
I0
S'more'
p1353
I0
tp1354
a(I3
I45
F0.375
S'reliable'
p1355
I0
tp1356
a(I3
I49
F0.375
g1207
I0
tp1357
a(I7
I74
I0
S'signal'
p1358
I0
tp1359
a(I7
I76
F-0.875
S'awful'
p1360
I0
tp1361
a(I7
I155
F0.375
S'available'
p1362
I0
tp1363
a(I7
I455
F0.375
g1209
I0
tp1364
a(I7
I570
F0.5
g1333
I0
tp1365
a(I7
I590
F0.5
g1335
I0
tp1366
a(I8
I74
F-0.75
S'worse'
p1367
I0
tp1368
a(I9
I0
F0.125
S'first'
p1369
I0
tp1370
a(I10
I214
I0
g1213
I0
tp1371
a(I10
I231
F1.0
S'better'
p1372
I0
tp1373
a(I13
I303
F-0.75
S'single'
p1374
I0
tp1375
a(I13
I338
I0
g1221
I0
tp1376
a(I13
I419
F-0.5
g1225
I0
tp1377
a(I13
I428
F0.75
S'worth'
p1378
I0
tp1379
a(I13
I431
F0.375
g1227
I0
tp1380
a(I13
I472
F0.5
S'second'
p1381
I0
tp1382
a(I13
I502
F0.25
S'original'
p1383
I0
tp1384
a(I14
I132
F0.125
S'last'
p1385
I0
tp1386
a(I14
I133
F0.625
S'aware'
p1387
I0
tp1388
a(I14
I136
F-0.125
S'overall'
p1389
I0
tp1390
a(I14
I136
F0.875
S'happy'
p1391
I0
tp1392
a(I15
I84
F0.375
S'new'
p1393
I0
tp1394
a(I16
I16
I0
S'entire'
p1395
I0
tp1396
a(I16
I120
F-0.125
g1231
I0
tp1397
a(I18
I68
F0.5
g1340
I0
tp1398
a(I20
I102
F-0.75
g1233
I0
tp1399
a(I20
I115
I0
g1235
I0
tp1400
a(I21
I22
F0.125
g1237
I0
tp1401
a(I23
I99
F-0.5
S'certain'
p1402
I0
tp1403
as(S'calls'
p1404
tp1405
(lp1406
(I0
I214
F-0.75
S'likely'
p1407
I0
tp1408
a(I0
I324
F0.75
S'receive'
p1409
I0
tp1410
a(I1
I202
I0
S'signal'
p1411
I0
tp1412
a(I1
I202
F-0.5
S'weak'
p1413
I0
tp1414
a(I2
I28
F1.0
S'good'
p1415
I0
tp1416
a(I3
I97
F-0.25
S'dropped'
p1417
I0
tp1418
a(I3
I99
I0
S'many'
p1419
I0
tp1420
a(I3
I136
F0.125
S'able'
p1421
I0
tp1422
a(I3
I225
I0
S'few'
p1423
I0
tp1424
a(I3
I299
F0.125
S'first'
p1425
I0
tp1426
a(I4
I7
I0
S'most'
p1427
I0
tp1428
a(I6
I54
F-0.25
S'dropped'
p1429
I0
tp1430
a(I7
I303
F-0.25
S'dropped'
p1431
I0
tp1432
a(I7
I395
F-0.25
S'dropped'
p1433
I0
tp1434
a(I7
I488
I0
S'great'
p1435
I0
tp1436
a(I8
I12
F-0.25
S'dropped'
p1437
I0
tp1438
a(I13
I81
I0
S'most'
p1439
I0
tp1440
a(I14
I316
F-0.75
S'short'
p1441
I0
tp1442
a(I14
I317
I0
S'more'
p1443
I0
tp1444
a(I14
I319
F-0.25
S'dropped'
p1445
I0
tp1446
a(I20
I164
I0
S'crystal'
p1447
I0
tp1448
a(I20
I164
F0.5
S'clear'
p1449
I0
tp1450
a(I21
I85
F0.5
S'clear'
p1451
I0
tp1452
as(S'signal'
p1453
S'strength'
p1454
tp1455
(lp1456
(I0
I180
I0
S'signal'
p1457
I0
tp1458
a(I0
I180
F-0.5
S'poor'
p1459
I0
tp1460
a(I1
I28
I0
S'signal'
p1461
I0
tp1462
a(I1
I34
I0
S'signal'
p1463
I0
tp1464
a(I1
I34
I0
S'signal'
p1465
I0
tp1466
a(I6
I50
I0
S'signal'
p1467
I0
tp1468
a(I6
I51
I0
S'signal'
p1469
I0
tp1470
a(I7
I397
I0
S'signal'
p1471
I0
tp1472
a(I8
I13
F0.5
S'strong'
p1473
I0
tp1474
a(I8
I13
I0
S'signal'
p1475
I0
tp1476
a(I8
I13
I0
S'dial'
p1477
I0
tp1478
a(I13
I1
F-0.625
S'bad'
p1479
I0
tp1480
a(I13
I332
I0
S'signal'
p1481
I0
tp1482
a(I13
I334
I0
S'signal'
p1483
I0
tp1484
a(I23
I3
F-0.625
S'unpredictable'
p1485
I0
tp1486
a(I0
I335
I0
S'same'
p1487
I1
tp1488
a(I5
I10
F1.0
S'good'
p1489
I1
tp1490
a(I5
I21
F-0.75
S'painful'
p1491
I1
tp1492
a(I7
I72
I0
S'third'
p1493
I1
tp1494
a(I7
I399
I0
S'forth'
p1495
I1
tp1496
a(I8
I13
F0.5
g1473
I1
tp1497
a(I8
I13
I0
g1475
I1
tp1498
a(I8
I13
I0
g1477
I1
tp1499
a(I9
I2
F0.75
S'receive'
p1500
I1
tp1501
a(I9
I119
F-0.625
S'bad'
p1502
I1
tp1503
a(I9
I119
F-0.5
S'sure'
p1504
I1
tp1505
a(I10
I226
F0.125
S'solid'
p1506
I1
tp1507
a(I13
I1
F-0.625
g1479
I1
tp1508
a(I13
I19
I0
S'update'
p1509
I1
tp1510
a(I13
I175
F-0.5
S'weak'
p1511
I1
tp1512
a(I13
I383
I0
S'normal'
p1513
I1
tp1514
a(I13
I475
F0.5
S'strong'
p1515
I1
tp1516
a(I13
I479
F1.0
S'good'
p1517
I1
tp1518
a(I14
I134
F-0.25
S'low'
p1519
I1
tp1520
a(I14
I230
F-0.5
S'poor'
p1521
I1
tp1522
a(I19
I47
F0.625
S'major'
p1523
I1
tp1524
a(I19
I67
F0.375
S'reliable'
p1525
I1
tp1526
a(I20
I200
I0
S'least'
p1527
I1
tp1528
a(I20
I200
F1.0
S'good'
p1529
I1
tp1530
a(I23
I100
I0
S'signal'
p1531
I1
tp1532
as(S'family'
p1533
S'member'
p1534
tp1535
(lp1536
(I3
I303
F0.375
S'unintelligible'
p1537
I2
tp1538
as(S'speaker'
p1539
tp1540
(lp1541
(I0
I69
F0.5
S'second'
p1542
I8
tp1543
a(I0
I69
I0
S'external'
p1544
I8
tp1545
a(I0
I359
F0.125
S'enough'
p1546
I8
tp1547
a(I1
I135
I0
S'external'
p1548
I8
tp1549
a(I7
I14
F-0.875
S'negative'
p1550
I8
tp1551
a(I7
I70
F0.5
S'second'
p1552
I8
tp1553
a(I7
I119
F0.125
S'able'
p1554
I8
tp1555
a(I7
I119
F0.75
S'ear'
p1556
I8
tp1557
a(I7
I491
I0
S'great'
p1558
I8
tp1559
a(I8
I73
F-0.625
S'bad'
p1560
I8
tp1561
a(I9
I33
F-0.25
S'low'
p1562
I8
tp1563
a(I11
I30
F-0.5
S'weak'
p1564
I8
tp1565
a(I13
I376
F0.375
S'loud'
p1566
I8
tp1567
a(I13
I376
I0
S'many'
p1568
I8
tp1569
a(I13
I377
F0.875
S'nice'
p1570
I8
tp1571
a(I14
I53
F-0.875
S'awful'
p1572
I8
tp1573
a(I14
I55
F-0.875
S'worst'
p1574
I8
tp1575
a(I14
I231
I0
S'soft'
p1576
I8
tp1577
a(I16
I164
F-0.5
S'worthless'
p1578
I8
tp1579
as(S'no'
p1580
S'sd'
p1581
S'card'
p1582
tp1583
(lp1584
(I13
I143
F-0.625
g1189
I0
tp1585
as(S'data'
p1586
tp1587
(lp1588
(I0
I224
F-0.625
S'other'
p1589
I13
tp1590
a(I0
I266
I0
S'faster'
p1591
I13
tp1592
a(I0
I288
F0.75
S'receive'
p1593
I13
tp1594
a(I0
I369
I0
S'incredible'
p1595
I13
tp1596
a(I1
I30
F0.5
S'strong'
p1597
I13
tp1598
a(I1
I33
F-0.75
S'short'
p1599
I13
tp1600
a(I2
I29
F-0.625
S'unfathomable'
p1601
I13
tp1602
a(I3
I378
F0.875
S'nice'
p1603
I13
tp1604
a(I7
I262
F0.375
S'much'
p1605
I13
tp1606
a(I7
I303
F-0.5
S'poor'
p1607
I13
tp1608
a(I7
I317
F0.5
S'clear'
p1609
I13
tp1610
a(I7
I321
I0
S'real-time'
p1611
I13
tp1612
a(I8
I64
I0
S'great'
p1613
I13
tp1614
a(I13
I6
F-0.25
S'dropped'
p1615
I13
tp1616
a(I14
I135
I0
S'more'
p1617
I13
tp1618
a(I14
I135
I0
S'stable'
p1619
I13
tp1620
a(I19
I10
I0
S'signal'
p1621
I13
tp1622
a(I20
I62
I0
S'signal'
p1623
I13
tp1624
a(I21
I13
F-0.375
S'disable'
p1625
I13
tp1626
a(I23
I156
F0.375
S'available'
p1627
I13
tp1628
as(S'much'
p1629
S'better'
p1630
tp1631
(lp1632
(I9
I126
F0.375
S'much'
p1633
I9
tp1634
a(I13
I116
F0.375
S'much'
p1635
I9
tp1636
a(I13
I192
F0.375
S'much'
p1637
I9
tp1638
a(I20
I50
F0.375
S'much'
p1639
I9
tp1640
a(I21
I32
F0.375
S'much'
p1641
I9
tp1642
as(S'of'
p1643
S'battery'
p1644
S'life'
p1645
tp1646
(lp1647
(I3
I229
F1.0
g212
I0
tp1648
a(I7
I402
F0.25
g218
I0
tp1649
a(I7
I428
F0.375
g220
I0
tp1650
a(I7
I431
F0.375
g222
I0
tp1651
a(I7
I558
I0
g226
I0
tp1652
a(I7
I628
F-0.5
g230
I0
tp1653
a(I10
I52
F0.375
g232
I0
tp1654
a(I10
I92
F-0.5
g177
I0
tp1655
a(I13
I115
F0.375
g241
I0
tp1656
a(I13
I281
I0
g247
I0
tp1657
a(I13
I281
F0.375
g249
I0
tp1658
a(I13
I281
F0.5
g251
I0
tp1659
a(I13
I293
F0.375
g253
I0
tp1660
a(I13
I351
I0
g255
I0
tp1661
a(I13
I499
F-0.5
g179
I0
tp1662
a(I14
I58
F-0.5
g181
I0
tp1663
a(I14
I58
I0
g183
I0
tp1664
a(I14
I129
F1.0
g270
I0
tp1665
a(I15
I47
F-0.5
g185
I0
tp1666
a(I18
I6
I0
g275
I0
tp1667
a(I18
I6
I0
g277
I0
tp1668
a(I20
I16
F1.0
g287
I0
tp1669
a(I21
I58
F-0.5
g301
I0
tp1670
a(I23
I39
F-0.625
g304
I0
tp1671
as(S'turn'
p1672
S'by'
p1673
S'turn'
p1674
tp1675
(lp1676
(I0
I35
F-0.625
S'free'
p1677
I0
tp1678
as(S'verizon'
p1679
S'store'
p1680
tp1681
(lp1682
(I0
I326
F-0.125
S'mine'
p1683
I0
tp1684
a(I7
I175
I0
S'visual'
p1685
I0
tp1686
a(I14
I287
I0
S'same'
p1687
I0
tp1688
a(I14
I287
I0
S'own'
p1689
I0
tp1690
a(I16
I91
I0
S'different'
p1691
I0
tp1692
a(I17
I0
I0
S'local'
p1693
I0
tp1694
a(I23
I191
I0
S'local'
p1695
I0
tp1696
a(I23
I191
F-0.75
S'painful'
p1697
I0
tp1698
a(I0
I87
F0.25
S'original'
p1699
I0
tp1700
a(I0
I137
F0.5
S'loyal'
p1701
I0
tp1702
a(I0
I138
F0.625
S'fair'
p1703
I0
tp1704
a(I0
I138
F0.625
S'fair'
p1705
I0
tp1706
a(I0
I184
I0
S'most'
p1707
I0
tp1708
a(I1
I17
F0.625
S'aware'
p1709
I0
tp1710
a(I1
I34
F-0.625
S'other'
p1711
I0
tp1712
a(I1
I158
F1.0
S'good'
p1713
I0
tp1714
a(I3
I47
I0
S'great'
p1715
I0
tp1716
a(I3
I196
F-0.25
S'cheapest'
p1717
I0
tp1718
a(I3
I219
F-0.375
S'simple'
p1719
I0
tp1720
a(I3
I256
F-0.375
S'nearest'
p1721
I0
tp1722
a(I4
I3
F-0.125
S'overall'
p1723
I0
tp1724
a(I7
I91
F-0.5
S'sure'
p1725
I0
tp1726
a(I7
I171
I0
S'third'
p1727
I0
tp1728
a(I7
I175
I0
g1685
I0
tp1729
a(I7
I273
F-0.75
S'stupid'
p1730
I0
tp1731
a(I7
I313
F0.375
S'new'
p1732
I0
tp1733
a(I8
I11
I0
S'website'
p1734
I0
tp1735
a(I8
I50
F-0.875
S'hard'
p1736
I0
tp1737
a(I9
I109
F0.375
S'extra'
p1738
I0
tp1739
a(I9
I119
F1.0
S'better'
p1740
I0
tp1741
a(I10
I66
I0
S'next'
p1742
I0
tp1743
a(I10
I66
F0.125
S'fellow'
p1744
I0
tp1745
a(I10
I127
F1.0
S'good'
p1746
I0
tp1747
a(I10
I127
I0
S'signal'
p1748
I0
tp1749
a(I11
I43
I0
S'big'
p1750
I0
tp1751
a(I12
I55
F0.625
S'fair'
p1752
I0
tp1753
a(I13
I74
F-0.625
S'other'
p1754
I0
tp1755
a(I13
I78
F-0.625
S'other'
p1756
I0
tp1757
a(I13
I421
F1.0
S'best'
p1758
I0
tp1759
a(I13
I479
I0
S'latest'
p1760
I0
tp1761
a(I14
I26
F-0.75
S'dependent'
p1762
I0
tp1763
a(I14
I188
F-0.25
S'sorely'
p1764
I0
tp1765
a(I14
I286
F0.125
S'first'
p1766
I0
tp1767
a(I14
I308
F-0.25
S'google'
p1768
I0
tp1769
a(I16
I16
I0
S'own'
p1770
I0
tp1771
a(I16
I91
I0
g1691
I0
tp1772
a(I16
I185
I0
S'bionic'
p1773
I0
tp1774
a(I17
I0
I0
g1693
I0
tp1775
a(I19
I3
F-0.625
S'other'
p1776
I0
tp1777
a(I19
I9
F0.375
S'much'
p1778
I0
tp1779
a(I19
I99
F0.5
S'told'
p1780
I0
tp1781
a(I20
I14
F-0.375
S'crazy'
p1782
I0
tp1783
a(I23
I191
I0
g1695
I0
tp1784
as(S'volume'
p1785
tp1786
(lp1787
(I0
I359
F-0.25
S'low'
p1788
I6
tp1789
a(I1
I6
F-0.625
S'average'
p1790
I6
tp1791
a(I3
I92
F-0.25
S'low'
p1792
I6
tp1793
a(I8
I15
F-0.25
S'low'
p1794
I6
tp1795
a(I8
I75
F0.25
S'maximized'
p1796
I6
tp1797
a(I8
I75
F-0.25
S'higher'
p1798
I6
tp1799
a(I8
I118
F-0.25
S'low'
p1800
I6
tp1801
a(I9
I33
I0
S'full'
p1802
I6
tp1803
a(I10
I247
I0
S'high'
p1804
I6
tp1805
a(I10
I248
F-0.25
S'low'
p1806
I6
tp1807
a(I11
I31
F-0.25
S'highest'
p1808
I6
tp1809
a(I12
I95
F-0.375
S'black'
p1810
I6
tp1811
a(I13
I303
I0
S'normal'
p1812
I6
tp1813
a(I14
I45
F0.5
S'careful'
p1814
I6
tp1815
a(I14
I54
F-0.25
S'low'
p1816
I6
tp1817
a(I14
I54
F-0.25
S'low'
p1818
I6
tp1819
a(I14
I295
F-0.25
S'low'
p1820
I6
tp1821
a(I16
I171
F-0.25
S'low'
p1822
I6
tp1823
a(I20
I230
I0
S'soft'
p1824
I6
tp1825
a(I20
I236
F-0.25
S'low'
p1826
I6
tp1827
a(I22
I35
I0
S'high'
p1828
I6
tp1829
a(I22
I36
F-0.25
S'low'
p1830
I6
tp1831
as(S'apps'
p1832
tp1833
(lp1834
(I0
I251
I0
S'many'
p1835
I0
tp1836
a(I0
I268
I0
S'different'
p1837
I0
tp1838
a(I0
I303
F0.5
S'recommended'
p1839
I0
tp1840
a(I2
I21
F0.375
S'new'
p1841
I0
tp1842
a(I3
I58
F0.125
S'native'
p1843
I0
tp1844
a(I3
I208
F-0.25
S'google'
p1845
I0
tp1846
a(I3
I356
I0
S'great'
p1847
I0
tp1848
a(I3
I382
I0
S'many'
p1849
I0
tp1850
a(I4
I7
F0.75
S'due'
p1851
I0
tp1852
a(I7
I8
F-0.375
S'simple'
p1853
I0
tp1854
a(I7
I164
I0
S'many'
p1855
I0
tp1856
a(I7
I164
F0.5
S'possible'
p1857
I0
tp1858
a(I7
I271
F0.25
S'recent'
p1859
I0
tp1860
a(I7
I271
F-0.5
S'disappear'
p1861
I0
tp1862
a(I7
I476
F-0.125
S'overall'
p1863
I0
tp1864
a(I7
I476
I0
S'fastest'
p1865
I0
tp1866
a(I7
I540
F-0.5
S'open'
p1867
I0
tp1868
a(I7
I593
I0
S'same'
p1869
I0
tp1870
a(I8
I88
F-0.5
S'open'
p1871
I0
tp1872
a(I9
I117
F0.625
S'easy'
p1873
I0
tp1874
a(I10
I27
I0
S'most'
p1875
I0
tp1876
a(I10
I122
F1.0
S'good'
p1877
I0
tp1878
a(I10
I145
F0.5
S'whole'
p1879
I0
tp1880
a(I10
I145
F0.375
S'available'
p1881
I0
tp1882
a(I10
I146
F0.25
S'used'
p1883
I0
tp1884
a(I10
I272
F0.375
S'available'
p1885
I0
tp1886
a(I12
I68
F-0.375
S'daily'
p1887
I0
tp1888
a(I13
I1
F-0.667
S'incompatible'
p1889
I0
tp1890
a(I13
I55
I0
S'desktop'
p1891
I0
tp1892
a(I13
I164
F-0.75
S'unable'
p1893
I0
tp1894
a(I13
I324
F0.375
S'available'
p1895
I0
tp1896
a(I13
I339
I0
S'proprietary'
p1897
I0
tp1898
a(I13
I339
I0
S'useful'
p1899
I0
tp1900
a(I14
I52
F-0.625
S'other'
p1901
I0
tp1902
a(I14
I88
I0
S'multiple'
p1903
I0
tp1904
a(I14
I280
F-0.625
S'other'
p1905
I0
tp1906
a(I14
I291
I0
S'great'
p1907
I0
tp1908
a(I16
I28
I0
S'different'
p1909
I0
tp1910
a(I16
I103
F-0.75
S'little'
p1911
I0
tp1912
a(I16
I109
I0
S'different'
p1913
I0
tp1914
a(I16
I201
F-0.75
S'impossible'
p1915
I0
tp1916
a(I16
I201
F0.5
S'rid'
p1917
I0
tp1918
a(I16
I201
F-0.25
S'google'
p1919
I0
tp1920
a(I16
I209
I0
S'great'
p1921
I0
tp1922
a(I16
I228
F0.5
S'functional'
p1923
I0
tp1924
a(I16
I263
F0.75
S'due'
p1925
I0
tp1926
a(I16
I275
I0
S'many'
p1927
I0
tp1928
a(I18
I39
F1.0
S'best'
p1929
I0
tp1930
a(I20
I190
F0.875
S'music'
p1931
I0
tp1932
a(I23
I68
F-0.625
S'other'
p1933
I0
tp1934
a(I23
I153
F-0.625
S'free'
p1935
I0
tp1936
a(I23
I155
I0
S'few'
p1937
I0
tp1938
as.