(dp0
(S'keyboard'
p1
tp2
(lp3
(I7
I40
I0
S'full'
p4
I2
tp5
a(I7
I40
I0
S'great'
p6
I2
tp7
a(I8
I24
I0
S'very'
p8
I2
tp9
a(I8
I24
F-0.375
S'small'
p10
I2
tp11
a(I9
I4
F-0.5
S'regular'
p12
I2
tp13
a(I9
I15
I0
S'great'
p14
I2
tp15
a(I11
I1
F0.625
S'easier'
p16
I2
tp17
as(S'battery'
p18
S'life'
p19
tp20
(lp21
(I1
I31
F-0.5
S'longer'
p22
I1
tp23
a(I1
I38
F-0.5
S'poor'
p24
I1
tp25
a(I7
I17
F-0.625
S'bad'
p26
I1
tp27
a(I7
I29
F1.0
S'good'
p28
I1
tp29
a(I7
I38
I0
S'great'
p30
I1
tp31
a(I9
I1
F0.5
S'possible'
p32
I1
tp33
a(I1
I38
F-0.5
g24
I19
tp34
a(I7
I17
F-0.625
g26
I19
tp35
a(I1
I31
F-0.5
g22
I15
tp36
a(I7
I29
F1.0
g28
I15
tp37
a(I7
I38
I0
g30
I15
tp38
a(I9
I1
F0.5
g32
I15
tp39
a(I9
I27
I0
S'same'
p40
I15
tp41
a(I16
I2
I0
S'more'
p42
I15
tp43
a(I17
I16
F0.375
S'new'
p44
I15
tp45
as(S'touch'
p46
S'screen'
p47
tp48
(lp49
(I3
I4
F0.5
S'touch'
p50
I2
tp51
a(I7
I32
F0.625
S'easier'
p52
I2
tp53
a(I8
I5
F0.5
S'touch'
p54
I2
tp55
a(I8
I20
F0.5
S'touch'
p56
I2
tp57
a(I9
I6
F0.5
S'touch'
p58
I2
tp59
a(I14
I0
F0.5
S'touch'
p60
I2
tp61
a(I14
I0
I0
S'user'
p62
I2
tp63
as.