(dp0
(S'thanks'
p1
tp2
(lp3
(I18
I6
F0.625
S'easier'
p4
I12
tp5
a(I81
I9
F0.625
S'easier'
p6
I12
tp7
as(S'battery'
p8
S'life'
p9
tp10
(lp11
(I31
I28
F-0.5
S'poor'
p12
I1
tp13
a(I34
I3
F1.0
S'good'
p14
I1
tp15
a(I70
I3
F-0.75
S'short'
p16
I1
tp17
a(I34
I3
F1.0
g14
I19
tp18
a(I70
I3
F-0.75
g16
I19
tp19
a(I31
I28
F-0.5
g12
I15
tp20
a(I74
I5
F1.0
S'good'
p21
I15
tp22
a(I75
I0
F0.375
S'new'
p23
I15
tp24
a(I75
I0
F0.125
S'last'
p25
I15
tp26
a(I78
I2
F-0.75
S'impossible'
p27
I15
tp28
as(S'iphone'
p29
S'4s'
p30
S'desbloqueado'
p31
tp32
(lp33
(I7
I5
F-0.625
S'other'
p34
I0
tp35
a(I0
I9
F0.875
S'happy'
p36
I1
tp37
a(I0
I15
F0.875
S'happy'
p38
I1
tp39
a(I3
I2
I0
S'great'
p40
I1
tp41
a(I6
I28
F0.875
S'happy'
p42
I1
tp43
a(I6
I28
F0.375
S'new'
p44
I1
tp45
a(I7
I5
F-0.625
g34
I1
tp46
a(I8
I11
I0
S'local'
p47
I1
tp48
a(I8
I18
I0
S'old'
p49
I1
tp50
a(I8
I18
F0.375
S'new'
p51
I1
tp52
a(I10
I0
F0.375
S'new'
p53
I1
tp54
a(I14
I12
F0.375
S'similar'
p55
I1
tp56
a(I14
I12
F-0.375
S'smaller'
p57
I1
tp58
a(I14
I12
F-0.5
S'heavier'
p59
I1
tp60
a(I15
I0
F-0.375
S'authorized'
p61
I1
tp62
a(I15
I4
F0.375
S'new'
p63
I1
tp64
a(I15
I5
F0.375
S'new'
p65
I1
tp66
a(I15
I12
F0.375
S'new'
p67
I1
tp68
a(I15
I12
F0.25
S'refurbished'
p69
I1
tp70
a(I15
I19
I0
S'own'
p71
I1
tp72
a(I18
I7
F0.25
S'original'
p73
I1
tp74
a(I22
I3
F0.625
S'perfect'
p75
I1
tp76
a(I29
I0
F0.375
S'new'
p77
I1
tp78
a(I29
I1
F0.375
S'new'
p79
I1
tp80
a(I30
I0
F0.375
S'new'
p81
I1
tp82
a(I30
I0
F0.25
S'refurbished'
p83
I1
tp84
a(I31
I4
I0
S'great'
p85
I1
tp86
a(I31
I29
F0.375
S'new'
p87
I1
tp88
a(I31
I30
I0
S'general'
p89
I1
tp90
a(I35
I0
F0.375
S'new'
p91
I1
tp92
a(I35
I0
F0.25
S'unlocked'
p93
I1
tp94
a(I37
I24
F-0.875
S'worst'
p95
I1
tp96
a(I43
I52
F0.375
S'new'
p97
I1
tp98
a(I50
I1
F-0.625
S'sorry'
p99
I1
tp100
a(I51
I4
F-0.25
S'white'
p101
I1
tp102
a(I53
I3
I0
S'ur'
p103
I1
tp104
a(I54
I12
F-0.625
S'other'
p105
I1
tp106
a(I62
I6
F0.375
S'new'
p107
I1
tp108
a(I65
I14
F-0.125
S'invest'
p109
I1
tp110
a(I73
I2
F0.125
S'able'
p111
I1
tp112
a(I74
I9
I0
S'great'
p113
I1
tp114
a(I80
I0
F0.375
S'new'
p115
I1
tp116
a(I83
I8
F-0.75
S'damaged'
p117
I1
tp118
a(I84
I6
I0
S'quick'
p119
I1
tp120
a(I85
I14
I0
S'great'
p121
I1
tp122
a(I87
I5
F0.5
S'told'
p123
I1
tp124
as(S'la'
p125
S'compra'
p126
tp127
(lp128
(I7
I5
I0
S'final'
p129
I0
tp130
as(S'service'
p131
tp132
(lp133
(I3
I11
F0.5
S'willing'
p134
I16
tp135
a(I70
I15
I0
S'great'
p136
I16
tp137
a(I77
I2
I0
S'canadian'
p138
I16
tp139
a(I88
I3
I0
S'great'
p140
I16
tp141
as(S'got'
p142
S'iphone'
p143
tp144
(lp145
(I30
I0
F0.375
g81
I0
tp146
a(I30
I0
F0.25
g83
I0
tp147
a(I35
I0
F0.375
g91
I0
tp148
a(I35
I0
F0.25
g93
I0
tp149
a(I84
I6
I0
g119
I0
tp150
as(S'accessories'
p151
tp152
(lp153
(I13
I1
I0
S'site'
p154
I5
tp155
a(I75
I0
I0
S'generic'
p156
I5
tp157
as(S'camera'
p158
tp159
(lp160
(I6
I4
F0.875
S'music'
p161
I1
tp162
a(I17
I3
F1.0
S'better'
p163
I1
tp164
a(I43
I46
I0
S'rear'
p165
I1
tp166
a(I65
I12
F1.0
S'best'
p167
I1
tp168
a(I65
I22
F1.0
S'best'
p169
I1
tp170
as(S'apple'
p171
S'iphone'
p172
tp173
(lp174
(I10
I0
F0.375
g53
I0
tp175
a(I15
I19
I0
g71
I0
tp176
a(I18
I7
F0.25
g73
I0
tp177
a(I50
I1
F-0.625
g99
I0
tp178
a(I51
I4
F-0.25
g101
I0
tp179
a(I54
I12
F-0.625
g105
I0
tp180
as(S'to'
p181
S'apple'
p182
S'store'
p183
tp184
(lp185
(I15
I19
I0
S'apple'
p186
I0
tp187
a(I37
I22
F-0.5
S'less'
p188
I0
tp189
a(I65
I27
I0
S'closest'
p190
I0
tp191
a(I65
I29
F-0.625
S'other'
p192
I0
tp193
a(I68
I8
F-0.625
S'other'
p194
I0
tp195
a(I70
I40
F-0.5
S'less'
p196
I0
tp197
a(I15
I19
I0
g186
I0
tp198
a(I37
I22
F-0.5
g188
I0
tp199
a(I65
I27
I0
g190
I0
tp200
a(I65
I29
F-0.625
g192
I0
tp201
a(I68
I8
F-0.625
g194
I0
tp202
a(I70
I40
F-0.5
g196
I0
tp203
a(I6
I22
F0.375
S'much'
p204
I4
tp205
a(I65
I17
F-0.5
S'sure'
p206
I4
tp207
a(I65
I27
I0
g190
I4
tp208
a(I70
I28
I0
S'website'
p209
I4
tp210
a(I70
I28
F-0.25
S'cheaper'
p211
I4
tp212
as(S'factory'
p213
tp214
(lp215
(I6
I2
F-0.375
S'black'
p216
I2
tp217
a(I35
I1
F0.375
S'new'
p218
I2
tp219
as(S'original'
p220
S'packaging'
p221
tp222
(lp223
(I19
I0
F0.25
S'original'
p224
I0
tp225
a(I39
I5
F0.25
S'original'
p226
I0
tp227
a(I54
I1
F0.25
S'original'
p228
I0
tp229
a(I58
I0
F0.25
S'original'
p230
I0
tp231
as(S'seller'
p232
tp233
(lp234
(I36
I1
I0
S'great'
p235
I19
tp236
a(I42
I2
F0.625
S'correct'
p237
I19
tp238
a(I48
I6
F1.0
S'good'
p239
I19
tp240
a(I60
I21
F0.25
S'helpful'
p241
I19
tp242
a(I65
I9
F0.875
S'courteous'
p243
I19
tp244
a(I83
I6
F0.875
S'nice'
p245
I19
tp246
a(I83
I6
F0.125
S'appropriate'
p247
I19
tp248
as(S'white'
p249
tp250
(lp251
(I31
I3
F0.375
S'new'
p252
I9
tp253
a(I31
I3
F0.75
S'beautiful'
p254
I9
tp255
as(S'a'
p256
S'new'
p257
S'iphone'
p258
tp259
(lp260
(I6
I28
F0.875
g42
I0
tp261
a(I6
I28
F0.375
g44
I0
tp262
a(I7
I5
F-0.625
g34
I0
tp263
a(I8
I18
I0
g49
I0
tp264
a(I8
I18
F0.375
g51
I0
tp265
a(I10
I0
F0.375
g53
I0
tp266
a(I15
I4
F0.375
g63
I0
tp267
a(I15
I5
F0.375
g65
I0
tp268
a(I15
I12
F0.375
g67
I0
tp269
a(I15
I12
F0.25
g69
I0
tp270
a(I29
I0
F0.375
g77
I0
tp271
a(I29
I1
F0.375
g79
I0
tp272
a(I30
I0
F0.375
g81
I0
tp273
a(I30
I0
F0.25
g83
I0
tp274
a(I31
I4
I0
g85
I0
tp275
a(I31
I29
F0.375
g87
I0
tp276
a(I35
I0
F0.375
g91
I0
tp277
a(I35
I0
F0.25
g93
I0
tp278
a(I37
I24
F-0.875
g95
I0
tp279
a(I43
I52
F0.375
g97
I0
tp280
a(I62
I6
F0.375
g107
I0
tp281
a(I80
I0
F0.375
g115
I0
tp282
a(I84
I6
I0
g119
I0
tp283
a(I87
I5
F0.5
g123
I0
tp284
a(I6
I28
F0.875
g42
I0
tp285
a(I6
I28
F0.375
g44
I0
tp286
a(I7
I5
F-0.625
g34
I0
tp287
a(I8
I18
I0
g49
I0
tp288
a(I8
I18
F0.375
g51
I0
tp289
a(I10
I0
F0.375
g53
I0
tp290
a(I15
I4
F0.375
g63
I0
tp291
a(I15
I5
F0.375
g65
I0
tp292
a(I15
I12
F0.375
g67
I0
tp293
a(I15
I12
F0.25
g69
I0
tp294
a(I29
I0
F0.375
g77
I0
tp295
a(I29
I1
F0.375
g79
I0
tp296
a(I30
I0
F0.375
g81
I0
tp297
a(I30
I0
F0.25
g83
I0
tp298
a(I31
I4
I0
g85
I0
tp299
a(I31
I29
F0.375
g87
I0
tp300
a(I35
I0
F0.375
g91
I0
tp301
a(I35
I0
F0.25
g93
I0
tp302
a(I37
I24
F-0.875
g95
I0
tp303
a(I43
I52
F0.375
g97
I0
tp304
a(I62
I6
F0.375
g107
I0
tp305
a(I80
I0
F0.375
g115
I0
tp306
a(I84
I6
I0
g119
I0
tp307
a(I87
I5
F0.5
g123
I0
tp308
as(S'good'
p309
S'condition'
p310
tp311
(lp312
(I2
I0
F1.0
S'good'
p313
I6
tp314
a(I33
I0
F1.0
S'good'
p315
I6
tp316
a(I33
I0
I0
S'physical'
p317
I6
tp318
a(I36
I0
F1.0
S'good'
p319
I6
tp320
a(I60
I4
F1.0
S'good'
p321
I6
tp322
a(I60
I4
F0.875
S'important'
p323
I6
tp324
a(I61
I8
F1.0
S'good'
p325
I6
tp326
a(I85
I19
F1.0
S'good'
p327
I6
tp328
as(S'missing'
p329
S'parts'
p330
tp331
(lp332
(I87
I5
F0.125
S'further'
p333
I1
tp334
as(S'first'
p335
S'time'
p336
tp337
(lp338
(I8
I15
F0.125
S'first'
p339
I10
tp340
a(I8
I19
F0.125
S'first'
p341
I10
tp342
a(I45
I0
F0.125
S'first'
p343
I10
tp344
a(I65
I1
F0.125
S'first'
p345
I10
tp346
a(I73
I8
F0.125
S'first'
p347
I10
tp348
as(S'sim'
p349
S'card'
p350
tp351
(lp352
(I15
I1
F0.125
S'able'
p353
I0
tp354
a(I65
I16
F0.375
S'new'
p355
I0
tp356
a(I70
I36
F-0.5
S'regular'
p357
I0
tp358
a(I73
I4
I0
S'generic'
p359
I0
tp360
as(S'serial'
p361
S'number'
p362
tp363
(lp364
(I37
I5
I0
S'serial'
p365
I0
tp366
a(I50
I1
I0
S'serial'
p367
I0
tp368
a(I84
I9
I0
S'serial'
p369
I0
tp370
as(S'an'
p371
S'apple'
p372
S'store'
p373
tp374
(lp375
(I15
I19
I0
g186
I0
tp376
a(I65
I29
F-0.625
g192
I0
tp377
a(I68
I8
F-0.625
g194
I0
tp378
as(S'en'
p379
S'el'
p380
tp381
(lp382
(I50
I20
I0
S'inclusive'
p383
I0
tp384
as(S'country'
p385
tp386
(lp387
(I54
I7
F1.0
S'good'
p388
I5
tp389
as(S'amazon'
p390
tp391
(lp392
(I23
I10
I0
S'same'
p393
I13
tp394
a(I52
I6
F0.375
S'honest'
p395
I13
tp396
a(I78
I0
I0
S'great'
p397
I13
tp398
as.