(dp0
(S't'
p1
S'customer'
p2
S'service'
p3
tp4
(lp5
(I0
I62
F-0.5
S'sure'
p6
I1
tp7
a(I1
I43
F1.0
S'good'
p8
I1
tp9
a(I17
I23
F-0.375
S'sat'
p10
I1
tp11
a(I21
I17
F0.875
S'happy'
p12
I1
tp13
a(I36
I37
F1.0
S'good'
p14
I1
tp15
a(I0
I62
F-0.5
g6
I3
tp16
a(I1
I43
F1.0
g8
I3
tp17
a(I17
I23
F-0.375
g10
I3
tp18
a(I21
I17
F0.875
g12
I3
tp19
a(I36
I37
F1.0
g14
I3
tp20
a(I1
I43
F1.0
g8
I16
tp21
a(I3
I33
F-0.125
S'public'
p22
I16
tp23
a(I9
I9
I0
S'great'
p24
I16
tp25
a(I17
I23
F-0.375
g10
I16
tp26
a(I26
I40
I0
S'great'
p27
I16
tp28
a(I26
I40
F0.125
S'usual'
p29
I16
tp30
a(I36
I37
F1.0
g14
I16
tp31
a(I0
I62
F-0.5
g6
I11
tp32
a(I21
I17
F0.875
g12
I11
tp33
a(I36
I46
F0.375
S'new'
p34
I11
tp35
as(S'battery'
p36
S'life'
p37
tp38
(lp39
(I0
I75
F-0.5
S'longer'
p40
I1
tp41
a(I0
I162
I0
S'empty'
p42
I1
tp43
a(I20
I6
I0
S'great'
p44
I1
tp45
a(I20
I100
F0.125
S'last'
p46
I1
tp47
a(I23
I12
F-0.5
S'less'
p48
I1
tp49
a(I24
I14
F-0.5
S'less'
p50
I1
tp51
a(I26
I15
F-0.5
S'poor'
p52
I1
tp53
a(I30
I0
F-0.75
S'short'
p54
I1
tp55
a(I0
I75
F-0.5
g40
I15
tp56
a(I0
I162
I0
g42
I15
tp57
a(I2
I36
F-0.5
S'flimsy'
p58
I15
tp59
a(I9
I35
F-0.5
S'certain'
p60
I15
tp61
a(I9
I35
F0.125
S'last'
p62
I15
tp63
a(I24
I3
F-0.5
S'long'
p64
I15
tp65
a(I24
I4
F-0.625
S'bad'
p66
I15
tp67
a(I26
I59
F0.125
S'last'
p68
I15
tp69
a(I26
I100
F-0.25
S'loose'
p70
I15
tp71
a(I26
I100
F0.375
S'tight'
p72
I15
tp73
a(I26
I100
F-0.375
S'top'
p74
I15
tp75
a(I30
I0
F-0.75
g54
I15
tp76
a(I34
I10
I0
S'full'
p77
I15
tp78
a(I34
I10
F-0.625
S'generous'
p79
I15
tp80
a(I35
I49
I0
S'term'
p81
I15
tp82
as(S'smartphone'
p83
tp84
(lp85
(I0
I96
I0
S'old'
p86
I0
tp87
a(I0
I227
I0
S'great'
p88
I0
tp89
a(I13
I4
F0.125
S'first'
p90
I0
tp91
a(I28
I9
F0.125
S'first'
p92
I0
tp93
a(I30
I3
F0.125
S'first'
p94
I0
tp95
a(I31
I1
F0.125
S'first'
p96
I0
tp97
a(I31
I1
F0.625
S'easy'
p98
I0
tp99
a(I31
I1
F0.5
S'high-tech'
p100
I0
tp101
a(I32
I107
F-0.625
S'other'
p102
I0
tp103
a(I32
I115
F0.125
S'first'
p104
I0
tp105
a(I32
I115
I0
S'great'
p106
I0
tp107
a(I34
I24
F0.375
S'new'
p108
I0
tp109
as(S'right'
p110
S'away'
p111
tp112
(lp113
(I28
I4
F0.625
S'right'
p114
I7
tp115
as(S'text'
p116
tp117
(lp118
(I0
I86
F-0.5
S'long'
p119
I18
tp120
a(I6
I42
F-0.375
S'small'
p121
I18
tp122
a(I20
I36
F0.625
S'easy'
p123
I18
tp124
as(S'a'
p125
S'25'
p126
S'credit'
p127
tp128
(lp129
(I0
I55
I0
S'automatic'
p130
I0
tp131
a(I2
I18
F0.25
S'helpful'
p132
I0
tp133
a(I10
I31
I0
S'promotional'
p134
I0
tp135
a(I16
I31
I0
S'later'
p136
I0
tp137
a(I17
I25
F0.5
S'told'
p138
I0
tp139
a(I17
I30
F-0.625
S'other'
p140
I0
tp141
a(I17
I76
F0.875
S'nice'
p142
I0
tp143
a(I17
I76
F0.25
S'helpful'
p144
I0
tp145
a(I17
I76
F-0.75
S'painless'
p146
I0
tp147
a(I18
I4
F0.75
S'due'
p148
I0
tp149
a(I18
I8
F0.125
S'able'
p150
I0
tp151
a(I22
I39
F-0.625
S'free'
p152
I0
tp153
a(I27
I8
F-0.125
S'persistent'
p154
I0
tp155
a(I35
I18
F-0.75
S'difficult'
p156
I0
tp157
a(I35
I20
F0.375
S'available'
p158
I0
tp159
as(S'slide'
p160
S'out'
p161
S'keyboard'
p162
tp163
(lp164
(I1
I71
I0
S'faster'
p165
I0
tp166
a(I6
I14
F0.125
S'digital'
p167
I0
tp168
a(I6
I15
F-0.5
S'sure'
p169
I0
tp170
a(I6
I15
F-0.5
S'long'
p171
I0
tp172
a(I17
I68
I0
S'great'
p173
I0
tp174
a(I26
I106
F1.0
S'good'
p175
I0
tp176
a(I30
I8
F-0.25
S'quit'
p177
I0
tp178
a(I32
I86
F0.625
S'easy'
p179
I0
tp180
a(I32
I86
F0.625
S'easy'
p181
I0
tp182
a(I36
I32
F-0.375
S'smooth'
p183
I0
tp184
a(I36
I49
I0
S'great'
p185
I0
tp186
a(I26
I31
I0
S'great'
p187
I6
tp188
a(I30
I8
F-0.25
g177
I6
tp189
a(I0
I85
F0.75
S'due'
p190
I2
tp191
a(I0
I86
I0
S'handy'
p192
I2
tp193
a(I0
I185
F0.625
S'easy'
p194
I2
tp195
a(I1
I71
I0
g165
I2
tp196
a(I4
I58
I0
S'physical'
p197
I2
tp198
a(I4
I83
I0
S'physical'
p199
I2
tp200
a(I5
I5
I0
S'real'
p201
I2
tp202
a(I6
I14
F0.125
g167
I2
tp203
a(I6
I15
F-0.5
g169
I2
tp204
a(I6
I15
F-0.5
g171
I2
tp205
a(I6
I28
F0.875
S'nice'
p206
I2
tp207
a(I6
I66
I0
S'real'
p208
I2
tp209
a(I7
I10
F0.875
S'nice'
p210
I2
tp211
a(I7
I10
I-100
S'fat-finger'
p212
I2
tp213
a(I12
I38
F1.0
S'good'
p214
I2
tp215
a(I12
I59
I0
S'full'
p216
I2
tp217
a(I13
I30
I0
S'most'
p218
I2
tp219
a(I13
I60
I0
S'supper'
p220
I2
tp221
a(I13
I60
F0.625
S'easy'
p222
I2
tp223
a(I17
I16
I0
S'most'
p224
I2
tp225
a(I17
I17
I0
S'handy'
p226
I2
tp227
a(I17
I68
I0
g173
I2
tp228
a(I21
I67
I0
S'full'
p229
I2
tp230
a(I21
I67
I0
S'more'
p231
I2
tp232
a(I26
I106
F1.0
g175
I2
tp233
a(I32
I86
F0.625
g179
I2
tp234
a(I32
I86
F0.625
g181
I2
tp235
a(I32
I107
F0.625
S'easy'
p236
I2
tp237
a(I34
I20
I0
S'such'
p238
I2
tp239
a(I35
I38
F0.375
S'much'
p240
I2
tp241
a(I36
I32
F-0.375
g183
I2
tp242
a(I36
I49
I0
g185
I2
tp243
as(S'gophone'
p244
tp245
(lp246
(I5
I10
I0
S'very'
p247
I0
tp248
a(I5
I10
F0.25
S'helpful'
p249
I0
tp250
a(I12
I27
I0
S'current'
p251
I0
tp252
a(I20
I43
F-0.125
S'overall'
p253
I0
tp254
a(I21
I13
I0
S'great'
p255
I0
tp256
a(I21
I13
F0.875
S'happy'
p257
I0
tp258
a(I21
I34
I0
S'particular'
p259
I0
tp260
a(I23
I44
F0.25
S'original'
p261
I0
tp262
a(I28
I38
I0
S'own'
p263
I0
tp264
a(I35
I15
I0
S'great'
p265
I0
tp266
a(I35
I15
F0.125
S'solid'
p267
I0
tp268
as(S'camera'
p269
tp270
(lp271
(I4
I83
F-0.375
S'picture'
p272
I1
tp273
a(I4
I83
F0.625
S'removable'
p274
I1
tp275
a(I10
I10
F0.875
S'nice'
p276
I1
tp277
a(I10
I10
F-0.125
S'overall'
p278
I1
tp279
a(I11
I4
F0.625
S'easy'
p280
I1
tp281
a(I16
I40
F-0.75
S'dark'
p282
I1
tp283
a(I20
I10
F1.0
S'best'
p284
I1
tp285
a(I20
I10
I0
S'handy'
p286
I1
tp287
a(I32
I106
F-0.625
S'average'
p288
I1
tp289
as(S'pantech'
p290
S'crossover'
p291
tp292
(lp293
(I4
I101
F0.5
S'second'
p294
I0
tp295
a(I21
I20
F-0.5
S'heavy'
p296
I0
tp297
a(I4
I101
F0.5
g294
I0
tp298
a(I26
I53
F0.875
S'nice'
p299
I0
tp300
a(I26
I105
F0.625
S'easy'
p301
I0
tp302
a(I21
I20
F-0.5
g296
I0
tp303
as(S'get'
p304
S'25'
p305
S'credit'
p306
tp307
(lp308
(I2
I18
F0.25
g132
I0
tp309
a(I16
I31
I0
g136
I0
tp310
a(I17
I30
F-0.625
g140
I0
tp311
a(I17
I76
F0.875
g142
I0
tp312
a(I17
I76
F0.25
g144
I0
tp313
a(I17
I76
F-0.75
g146
I0
tp314
a(I27
I8
F-0.125
g154
I0
tp315
as(S'great'
p316
S'deal'
p317
tp318
(lp319
(I0
I227
I0
S'great'
p320
I10
tp321
a(I7
I21
I0
S'great'
p322
I10
tp323
a(I10
I51
I0
S'great'
p324
I10
tp325
a(I16
I29
I0
S'great'
p326
I10
tp327
a(I18
I18
I0
S'great'
p328
I10
tp329
a(I21
I49
I0
S'great'
p330
I10
tp331
a(I32
I73
I0
S'great'
p332
I10
tp333
a(I32
I105
I0
S'great'
p334
I10
tp335
a(I32
I114
I0
S'great'
p336
I10
tp337
as(S'to'
p338
S'get'
p339
S'credit'
p340
tp341
(lp342
(I1
I61
F-0.5
S'hassle'
p343
I0
tp344
a(I2
I18
F0.25
g132
I0
tp345
a(I17
I30
F-0.625
g140
I0
tp346
a(I17
I76
F0.875
g142
I0
tp347
a(I17
I76
F0.25
g144
I0
tp348
a(I17
I76
F-0.75
g146
I0
tp349
a(I27
I8
F-0.125
g154
I0
tp350
a(I32
I119
F-0.625
S'free'
p351
I0
tp352
a(I0
I55
I0
g130
I3
tp353
a(I0
I112
F0.125
S'first'
p354
I3
tp355
a(I1
I58
F0.125
S'first'
p356
I3
tp357
a(I1
I58
F0.125
S'able'
p358
I3
tp359
a(I1
I61
F-0.5
g343
I3
tp360
a(I2
I18
F0.25
g132
I3
tp361
a(I6
I31
F0.875
S'happy'
p362
I3
tp363
a(I10
I20
F-0.625
S'free'
p364
I3
tp365
a(I10
I31
I0
g134
I3
tp366
a(I12
I3
F-0.5
S'longer'
p367
I3
tp368
a(I16
I31
I0
g136
I3
tp369
a(I17
I25
F0.5
g138
I3
tp370
a(I17
I30
F-0.625
g140
I3
tp371
a(I17
I76
F0.875
g142
I3
tp372
a(I17
I76
F0.25
g144
I3
tp373
a(I17
I76
F-0.75
g146
I3
tp374
a(I18
I4
F0.75
g148
I3
tp375
a(I18
I8
F0.125
g150
I3
tp376
a(I21
I31
I0
S'representative'
p377
I3
tp378
a(I22
I39
F-0.625
g152
I3
tp379
a(I27
I8
F-0.125
g154
I3
tp380
a(I32
I119
F-0.625
g351
I3
tp381
a(I35
I18
F-0.75
g156
I3
tp382
a(I35
I20
F0.375
g158
I3
tp383
as(S'no'
p384
S'airtime'
p385
S'credit'
p386
tp387
(lp388
(I0
I55
I0
g130
I0
tp389
a(I35
I18
F-0.75
g156
I0
tp390
a(I35
I20
F0.375
g158
I0
tp391
a(I0
I55
I0
g130
I0
tp392
a(I16
I31
I0
g136
I0
tp393
a(I22
I29
F-0.75
S'lost'
p394
I0
tp395
a(I32
I119
F-0.625
S'free'
p396
I0
tp397
a(I32
I119
F-0.625
g351
I0
tp398
a(I35
I18
F-0.75
g156
I0
tp399
a(I35
I20
F0.375
g158
I0
tp400
as(S'for'
p401
S'25'
p402
S'credit'
p403
tp404
(lp405
(I17
I25
F0.5
g138
I0
tp406
a(I35
I20
F0.375
g158
I0
tp407
as(S'prepaid'
p408
tp409
(lp410
(I9
I2
I0
S'big'
p411
I0
tp412
a(I9
I2
F-0.375
S'small'
p413
I0
tp414
as(S'sd'
p415
S'card'
p416
tp417
(lp418
(I0
I194
F-0.125
S'future'
p419
I0
tp420
a(I4
I51
F0.375
S'new'
p421
I0
tp422
as(S'amazon'
p423
S'customer'
p424
S'service'
p425
tp426
(lp427
(I34
I18
I0
S'fast'
p428
I0
tp429
a(I3
I31
F-0.5
S'sure'
p430
I13
tp431
a(I5
I22
I0
S'quick'
p432
I13
tp433
a(I6
I29
F1.0
S'good'
p434
I13
tp435
a(I6
I30
I0
S'great'
p436
I13
tp437
a(I9
I17
I0
S'e-mailed'
p438
I13
tp439
a(I16
I16
F1.0
S'good'
p440
I13
tp441
a(I16
I32
I0
S'e-mailed'
p442
I13
tp443
a(I22
I9
F1.0
S'good'
p444
I13
tp445
a(I22
I61
F-0.75
S'disappointment'
p446
I13
tp447
a(I23
I18
F-0.5
S'complaint'
p448
I13
tp449
a(I23
I24
F0.5
S'told'
p450
I13
tp451
a(I23
I29
F0.5
S'willing'
p452
I13
tp453
a(I34
I18
I0
g428
I13
tp454
as(S'contract'
p455
tp456
(lp457
(I22
I90
F0.375
S'new'
p458
I0
tp459
as(S'android'
p460
tp461
(lp462
(I0
I108
F1.0
S'best'
p463
I0
tp464
a(I7
I31
F0.125
S'first'
p465
I0
tp466
a(I7
I32
F-0.75
S'little'
p467
I0
tp468
a(I9
I36
F-0.625
S'other'
p469
I0
tp470
a(I9
I36
F-0.75
S'little'
p471
I0
tp472
a(I13
I97
F0.125
S'first'
p473
I0
tp474
a(I18
I18
F0.125
S'first'
p475
I0
tp476
a(I19
I7
F-0.625
S'other'
p477
I0
tp478
a(I20
I31
F0.125
S'first'
p479
I0
tp480
a(I20
I89
I0
S'many'
p481
I0
tp482
a(I26
I69
I0
S'same'
p483
I0
tp484
a(I30
I0
I0
S'many'
p485
I0
tp486
a(I30
I0
F-0.25
S'modern'
p487
I0
tp488
a(I32
I22
I0
S'great'
p489
I0
tp490
a(I32
I95
F0.375
S'new'
p491
I0
tp492
a(I32
I99
F0.125
S'last'
p493
I0
tp494
a(I32
I108
F0.5
S'upgraded'
p495
I0
tp496
a(I32
I126
F0.25
S'recent'
p497
I0
tp498
a(I32
I126
F-0.25
S'thin'
p499
I0
tp500
as(S'air'
p501
S'time'
p502
S'credit'
p503
tp504
(lp505
(I0
I55
I0
g130
I0
tp506
a(I16
I31
I0
g136
I0
tp507
a(I20
I23
F-0.75
S'little'
p508
I0
tp509
a(I32
I119
F-0.625
g351
I0
tp510
a(I35
I18
F-0.75
g156
I0
tp511
a(I35
I20
F0.375
g158
I0
tp512
a(I0
I201
F-0.625
S'free'
p513
I0
tp514
a(I7
I5
F-0.875
S'hard'
p515
I0
tp516
a(I7
I5
F-0.625
S'free'
p517
I0
tp518
a(I20
I18
F-0.125
S'air'
p519
I0
tp520
a(I20
I23
F-0.75
g508
I0
tp521
a(I22
I117
I0
S'prepaid'
p522
I0
tp523
a(I23
I37
I0
S'next'
p524
I0
tp525
as(S'with'
p526
S'25'
p527
S'airtime'
p528
tp529
(lp530
(I0
I208
F0.125
S'able'
p531
I0
tp532
a(I0
I51
F-0.625
S'free'
p533
I0
tp534
a(I0
I208
F0.125
g531
I0
tp535
a(I0
I209
F0.125
S'able'
p536
I0
tp537
a(I5
I7
F0.875
S'attractive'
p538
I0
tp539
a(I5
I7
F-0.75
S'difficult'
p540
I0
tp541
a(I16
I24
F-0.375
S'top'
p542
I0
tp543
a(I22
I29
F-0.75
g394
I0
tp544
a(I32
I73
F-0.625
S'free'
p545
I0
tp546
a(I32
I119
F-0.625
g396
I0
tp547
as(S'account'
p548
tp549
(lp550
(I0
I61
F0.375
S'new'
p551
I3
tp552
a(I5
I8
I0
S'appear'
p553
I3
tp554
a(I16
I39
I0
S'e-mail'
p555
I3
tp556
a(I36
I36
F-0.625
S'other'
p557
I3
tp558
as(S'smart'
p559
tp560
(lp561
(I0
I5
F0.125
S'first'
p562
I10
tp563
a(I0
I15
I0
S'many'
p564
I10
tp565
a(I0
I40
F0.125
S'first'
p566
I10
tp567
a(I0
I156
F0.375
S'newer'
p568
I10
tp569
a(I4
I14
F0.125
S'first'
p570
I10
tp571
a(I6
I48
F0.375
S'new'
p572
I10
tp573
a(I11
I0
F0.125
S'first'
p574
I10
tp575
a(I13
I60
F1.0
S'good'
p576
I10
tp577
a(I13
I63
F-0.375
S'fanciest'
p578
I10
tp579
a(I20
I66
I0
S'fastest'
p580
I10
tp581
as(S'calls'
p582
tp583
(lp584
(I2
I26
F-0.625
S'free'
p585
I0
tp586
a(I6
I36
I0
S'few'
p587
I0
tp588
a(I27
I18
F-0.625
S'free'
p589
I0
tp590
a(I34
I8
I0
S'crystal'
p591
I0
tp592
a(I34
I8
F0.5
S'clear'
p593
I0
tp594
a(I34
I8
F0.5
S'clear'
p595
I0
tp596
as(S'sim'
p597
S'card'
p598
tp599
(lp600
(I2
I47
F0.375
S'new'
p601
I0
tp602
a(I4
I43
I0
S'great'
p603
I0
tp604
a(I9
I43
F-0.625
S'other'
p605
I0
tp606
a(I12
I63
F-0.5
S'sure'
p607
I0
tp608
a(I17
I93
F0.625
S'easy'
p609
I0
tp610
a(I20
I78
F0.625
S'accessible'
p611
I0
tp612
a(I20
I85
F1.0
S'good'
p613
I0
tp614
a(I21
I15
F0.375
S'new'
p615
I0
tp616
as(S'internet'
p617
tp618
(lp619
(I22
I110
F-0.625
S'free'
p620
I6
tp621
a(I24
I15
F-0.125
S'super'
p622
I6
tp623
a(I24
I15
F-0.125
S'slow'
p624
I6
tp625
as(g125
S'car'
p626
S'charger'
p627
tp628
(lp629
(I28
I21
F0.875
S'nice'
p630
I0
tp631
a(I32
I11
F-0.625
S'wall'
p632
I0
tp633
a(I34
I17
F-0.625
S'wall'
p634
I0
tp635
a(I35
I48
F0.125
S'charger'
p636
I0
tp637
a(I35
I48
F0.125
S'charger'
p638
I0
tp639
as(g125
S'data'
p640
S'plan'
p641
tp642
(lp643
(I0
I115
I0
S'monthly'
p644
I0
tp645
a(I9
I40
I0
S'monthly'
p646
I0
tp647
a(I12
I32
F-0.5
S'sure'
p648
I0
tp649
a(I22
I70
I0
S'more'
p650
I0
tp651
a(I32
I50
F-0.25
S'low'
p652
I0
tp653
a(I35
I67
I0
S'wish'
p654
I0
tp655
a(I0
I115
I0
g644
I0
tp656
a(I9
I40
I0
g646
I0
tp657
a(I12
I32
F-0.5
g648
I0
tp658
a(I22
I70
I0
g650
I0
tp659
a(I32
I50
F-0.25
g652
I0
tp660
a(I35
I67
I0
g654
I0
tp661
a(I5
I3
I0
S'mobile'
p662
I13
tp663
a(I12
I22
F-0.5
S'sure'
p664
I13
tp665
a(I12
I32
F-0.5
g648
I13
tp666
a(I12
I76
F-0.5
S'unlimited'
p667
I13
tp668
a(I22
I70
I0
g650
I13
tp669
a(I22
I77
I0
S'minimal'
p670
I13
tp671
a(I35
I67
I0
g654
I13
tp672
as(S'get'
p673
S'25'
p674
S'airtime'
p675
tp676
(lp677
(I0
I51
F-0.625
g533
I0
tp678
a(I0
I208
F0.125
g531
I0
tp679
as(S'wifi'
p680
tp681
(lp682
(I3
I12
I0
S'residential'
p683
I0
tp684
a(I3
I43
I0
S'mobile'
p685
I0
tp686
a(I4
I24
F-0.5
S'unavailable'
p687
I0
tp688
a(I12
I68
I0
S'great'
p689
I0
tp690
a(I16
I33
F-0.625
S'free'
p691
I0
tp692
a(I17
I63
F-0.625
S'other'
p693
I0
tp694
a(I17
I92
F0.375
S'enable'
p695
I0
tp696
a(I18
I21
F0.125
S'able'
p697
I0
tp698
as(S'apps'
p699
tp700
(lp701
(I0
I24
I0
S'few'
p702
I0
tp703
a(I0
I92
F0.5
S'compatible'
p704
I0
tp705
a(I0
I92
I0
S'most'
p706
I0
tp707
a(I0
I92
F-0.25
S'modern'
p708
I0
tp709
a(I0
I97
I0
S'such'
p710
I0
tp711
a(I0
I107
I0
S'more'
p712
I0
tp713
a(I0
I217
I0
S'many'
p714
I0
tp715
a(I3
I17
F0.25
S'related'
p716
I0
tp717
a(I9
I25
I0
S'such'
p718
I0
tp719
a(I9
I29
F-0.625
S'free'
p720
I0
tp721
a(I9
I29
F0.375
S'available'
p722
I0
tp723
a(I12
I14
F-0.625
S'bad'
p724
I0
tp725
a(I17
I71
I0
S'android'
p726
I0
tp727
a(I20
I2
I0
S'many'
p728
I0
tp729
a(I20
I67
I0
S'few'
p730
I0
tp731
a(I20
I68
F0.125
S'able'
p732
I0
tp733
a(I20
I94
F0.125
S'able'
p734
I0
tp735
a(I20
I94
I0
S'many'
p736
I0
tp737
a(I26
I30
F-0.625
S'other'
p738
I0
tp739
a(I27
I11
F-0.625
S'free'
p740
I0
tp741
a(I27
I11
I0
S'such'
p742
I0
tp743
a(I27
I15
F0.375
S'available'
p744
I0
tp745
a(I27
I15
F-0.625
S'free'
p746
I0
tp747
a(I34
I27
F0.625
S'easy'
p748
I0
tp749
a(I34
I27
I0
S'great'
p750
I0
tp751
a(I34
I34
I0
S'many'
p752
I0
tp753
a(I35
I12
F-0.375
S'simple'
p754
I0
tp755
as(S'touch'
p756
S'screen'
p757
tp758
(lp759
(I0
I7
F0.5
S'touch'
p760
I2
tp761
a(I0
I13
F0.5
S'touch'
p762
I2
tp763
a(I0
I49
F1.0
S'good'
p764
I2
tp765
a(I0
I66
I0
S'most'
p766
I2
tp767
a(I0
I66
F0.5
S'touch'
p768
I2
tp769
a(I9
I24
F0.5
S'touch'
p770
I2
tp771
a(I10
I38
F0.5
S'touch'
p772
I2
tp773
a(I10
I38
I0
S'sensitive'
p774
I2
tp775
a(I10
I48
F0.25
S'responsive'
p776
I2
tp777
a(I12
I40
F-0.875
S'trouble'
p778
I2
tp779
a(I12
I40
F0.5
S'touch'
p780
I2
tp781
a(I17
I15
F0.5
S'touch'
p782
I2
tp783
a(I17
I16
F0.5
S'touch'
p784
I2
tp785
a(I20
I35
F0.25
S'responsive'
p786
I2
tp787
a(I21
I40
F0.5
S'touch'
p788
I2
tp789
a(I22
I94
F-0.875
S'awful'
p790
I2
tp791
a(I22
I94
I0
S'great'
p792
I2
tp793
a(I26
I47
F0.5
S'touch'
p794
I2
tp795
a(I31
I29
F0.5
S'touch'
p796
I2
tp797
a(I34
I2
F0.5
S'touch'
p798
I2
tp799
as.