(dp0
(S'battery'
p1
S'life'
p2
tp3
(lp4
(I0
I27
F1.0
S'better'
p5
I1
tp6
a(I1
I50
F0.375
S'much'
p7
I1
tp8
a(I2
I151
F-0.875
S'worst'
p9
I1
tp10
a(I2
I153
I0
S'same'
p11
I1
tp12
a(I2
I165
F-0.75
S'short'
p13
I1
tp14
a(I2
I214
I0
S'great'
p15
I1
tp16
a(I2
I228
F-0.875
S'worst'
p17
I1
tp18
a(I4
I54
F-0.5
S'poor'
p19
I1
tp20
a(I4
I96
F-0.5
S'longer'
p21
I1
tp22
a(I5
I27
F-0.75
S'short'
p23
I1
tp24
a(I5
I61
F0.875
S'important'
p25
I1
tp26
a(I5
I65
I0
S'same'
p27
I1
tp28
a(I8
I171
F0.25
S'biggest'
p29
I1
tp30
a(I9
I4
F-0.875
S'worst'
p31
I1
tp32
a(I9
I25
I0
S'only'
p33
I1
tp34
a(I9
I25
F-0.875
S'negative'
p35
I1
tp36
a(I9
I55
I0
S'fast'
p37
I1
tp38
a(I9
I55
F0.625
S'easy'
p39
I1
tp40
a(I0
I27
F1.0
g5
I19
tp41
a(I1
I50
F0.375
g7
I19
tp42
a(I2
I165
F-0.75
g13
I19
tp43
a(I2
I214
I0
g15
I19
tp44
a(I2
I228
F-0.875
g17
I19
tp45
a(I4
I96
F-0.5
g21
I19
tp46
a(I5
I61
F0.875
g25
I19
tp47
a(I5
I65
I0
g27
I19
tp48
a(I9
I4
F-0.875
g31
I19
tp49
a(I2
I33
I0
S'quick'
p50
I15
tp51
a(I2
I151
F-0.875
g9
I15
tp52
a(I2
I153
I0
g11
I15
tp53
a(I4
I8
I0
S'big'
p54
I15
tp55
a(I4
I9
F-0.625
S'bad'
p56
I15
tp57
a(I4
I9
F0.25
S'larger'
p58
I15
tp59
a(I4
I34
I-100
S'negative-'
p60
I15
tp61
a(I4
I34
F0.125
S'first'
p62
I15
tp63
a(I4
I34
F-0.875
S'stuck'
p64
I15
tp65
a(I4
I38
I0
S'external'
p66
I15
tp67
a(I4
I54
F-0.5
g19
I15
tp68
a(I4
I145
F-0.75
S'dead'
p69
I15
tp70
a(I5
I27
F-0.75
g23
I15
tp71
a(I5
I48
F0.125
S'last'
p72
I15
tp73
a(I5
I48
F-0.5
S'long'
p74
I15
tp75
a(I7
I48
I0
S'real'
p76
I15
tp77
a(I8
I131
F0.875
S'nice'
p78
I15
tp79
a(I8
I131
F0.125
S'able'
p80
I15
tp81
a(I8
I171
F0.25
g29
I15
tp82
a(I8
I175
I0
S'total'
p83
I15
tp84
a(I9
I25
I0
g33
I15
tp85
a(I9
I25
F-0.875
g35
I15
tp86
a(I9
I35
F0.375
S'new'
p87
I15
tp88
a(I9
I55
I0
g37
I15
tp89
a(I9
I55
F0.625
g39
I15
tp90
a(I10
I3
F0.625
S'replaceable'
p91
I15
tp92
a(I10
I6
F0.625
S'replaceable'
p93
I15
tp94
a(I10
I7
F0.625
S'replaceable'
p95
I15
tp96
a(I10
I40
I-100
S'lack-luster'
p97
I15
tp98
as(S'keys'
p99
tp100
(lp101
(I4
I32
I0
S'large'
p102
I9
tp103
a(I4
I50
F-0.75
S'comfortable'
p104
I9
tp105
a(I4
I50
F0.625
S'easy'
p106
I9
tp107
a(I4
I79
I0
S'tactile'
p108
I9
tp109
a(I5
I78
I0
S'numeric'
p110
I9
tp111
a(I7
I58
I0
S'individual'
p112
I9
tp113
a(I8
I41
F-0.625
S'light'
p114
I9
tp115
as(S'motorola'
p116
tp117
(lp118
(I4
I15
I0
S'wish'
p119
I0
tp120
a(I4
I157
I0
S'passionate'
p121
I0
tp122
as(S'text'
p123
tp124
(lp125
(I2
I211
F-0.375
S'black'
p126
I18
tp127
a(I2
I211
F-0.25
S'white'
p128
I18
tp129
a(I2
I211
F-0.875
S'worst'
p130
I18
tp131
a(I7
I17
F1.0
S'good'
p132
I18
tp133
a(I8
I27
F-0.25
S'white'
p134
I18
tp135
as(S'water'
p136
S'damage'
p137
tp138
(lp139
(I8
I15
I0
S'normal'
p140
I0
tp141
as(S'original'
p142
S'droid'
p143
tp144
(lp145
(I4
I6
F0.25
S'original'
p146
I0
tp147
a(I4
I14
F0.25
S'original'
p148
I0
tp149
a(I5
I19
F0.25
S'original'
p150
I0
tp151
a(I5
I49
F0.25
S'original'
p152
I0
tp153
a(I5
I54
F0.875
S'happy'
p154
I0
tp155
a(I5
I54
F0.25
S'original'
p156
I0
tp157
a(I5
I67
I0
S'least'
p158
I0
tp159
a(I5
I67
F0.25
S'original'
p160
I0
tp161
a(I5
I71
F0.25
S'original'
p162
I0
tp163
a(I5
I80
F0.25
S'original'
p164
I0
tp165
a(I5
I101
F0.25
S'original'
p166
I0
tp167
a(I6
I5
F0.25
S'original'
p168
I0
tp169
a(I6
I5
I0
S'faster'
p170
I0
tp171
a(I6
I5
F0.625
S'easier'
p172
I0
tp173
a(I9
I33
F0.25
S'original'
p174
I0
tp175
a(I10
I10
F0.25
S'original'
p176
I0
tp177
a(I10
I21
F0.25
S'original'
p178
I0
tp179
a(I10
I113
F0.25
S'original'
p180
I0
tp181
as(S'camera'
p182
tp183
(lp184
(I1
I20
F0.5
S'true'
p185
I1
tp186
a(I1
I38
I0
S'more'
p187
I1
tp188
a(I2
I97
I0
S'physical'
p189
I1
tp190
a(I2
I181
I0
S'most'
p191
I1
tp192
a(I2
I182
F0.125
S'able'
p193
I1
tp194
a(I2
I182
F0.125
S'digital'
p195
I1
tp196
a(I4
I11
I0
S'physical'
p197
I1
tp198
a(I4
I64
F1.0
S'better'
p199
I1
tp200
a(I4
I115
F1.0
S'good'
p201
I1
tp202
a(I5
I4
F0.125
S'dedicated'
p203
I1
tp204
a(I8
I161
F1.0
S'good'
p205
I1
tp206
a(I10
I21
F1.0
S'better'
p207
I1
tp208
as(S'qwerty'
p209
S'keyboard'
p210
tp211
(lp212
(I2
I111
F1.0
S'best'
p213
I0
tp214
a(I2
I160
F1.0
S'best'
p215
I0
tp216
a(I4
I110
I0
S'full'
p217
I0
tp218
a(I5
I75
I0
S'many'
p219
I0
tp220
a(I5
I75
I0
S'full'
p221
I0
tp222
a(I8
I74
I0
S'physical'
p223
I0
tp224
as(S'iphone'
p225
tp226
(lp227
(I1
I41
F1.0
S'good'
p228
I1
tp229
as(S'droid'
p230
S'x'
p231
tp232
(lp233
(I2
I29
F-0.75
S'hate'
p234
I0
tp235
a(I2
I79
F1.0
S'good'
p236
I0
tp237
a(I2
I83
F0.125
S'first'
p238
I0
tp239
a(I2
I83
I0
S'most'
p240
I0
tp241
a(I2
I93
F-0.375
S'smaller'
p242
I0
tp243
a(I4
I31
F0.625
S'superior'
p244
I0
tp245
a(I4
I31
F1.0
S'best'
p246
I0
tp247
a(I5
I49
F0.25
g152
I0
tp248
a(I7
I30
F0.375
S'flexible'
p249
I0
tp250
as(S'speed'
p251
tp252
(lp253
(I1
I36
F0.25
S'favorite'
p254
I9
tp255
a(I4
I106
I0
S'fast'
p256
I9
tp257
as(S'typing'
p258
tp259
(lp260
(I8
I158
F1.0
S'good'
p261
I3
tp262
a(I10
I27
I0
S'faster'
p263
I3
tp264
as(S'a'
p265
S'physical'
p266
S'keyboard'
p267
tp268
(lp269
(I0
I5
I0
S'physical'
p270
I0
tp271
a(I0
I23
I0
S'physical'
p272
I0
tp273
a(I0
I24
I0
S'physical'
p274
I0
tp275
a(I0
I25
I0
S'physical'
p276
I0
tp277
a(I1
I41
I0
S'physical'
p278
I0
tp279
a(I2
I30
I0
S'physical'
p280
I0
tp281
a(I2
I109
I0
S'physical'
p282
I0
tp283
a(I2
I110
I0
S'physical'
p284
I0
tp285
a(I4
I30
I0
S'physical'
p286
I0
tp287
a(I4
I31
I0
S'physical'
p288
I0
tp289
a(I4
I42
I0
S'physical'
p290
I0
tp291
a(I4
I78
I0
S'physical'
p292
I0
tp293
a(I4
I79
I0
S'physical'
p294
I0
tp295
a(I4
I79
F1.0
S'best'
p296
I0
tp297
a(I5
I9
I0
S'physical'
p298
I0
tp299
a(I5
I9
F1.0
S'best'
p300
I0
tp301
a(I5
I20
I0
S'physical'
p302
I0
tp303
a(I5
I28
F1.0
S'best'
p304
I0
tp305
a(I5
I28
I0
S'physical'
p306
I0
tp307
a(I5
I34
I0
S'physical'
p308
I0
tp309
a(I5
I36
I0
S'physical'
p310
I0
tp311
a(I5
I39
I0
S'physical'
p312
I0
tp313
a(I5
I84
I0
S'physical'
p314
I0
tp315
a(I5
I87
I0
S'physical'
p316
I0
tp317
a(I7
I41
I0
S'physical'
p318
I0
tp319
a(I7
I48
I0
S'physical'
p320
I0
tp321
a(I8
I42
I0
S'physical'
p322
I0
tp323
a(I8
I42
F1.0
S'best'
p324
I0
tp325
a(I8
I157
I0
S'physical'
p326
I0
tp327
a(I8
I169
I0
S'physical'
p328
I0
tp329
a(I10
I109
I0
S'physical'
p330
I0
tp331
a(I0
I5
I0
g270
I0
tp332
a(I0
I23
I0
g272
I0
tp333
a(I0
I24
I0
g274
I0
tp334
a(I0
I25
I0
g276
I0
tp335
a(I1
I41
I0
g278
I0
tp336
a(I2
I30
I0
g280
I0
tp337
a(I2
I109
I0
g282
I0
tp338
a(I2
I110
I0
g284
I0
tp339
a(I4
I30
I0
g286
I0
tp340
a(I4
I31
I0
g288
I0
tp341
a(I4
I42
I0
g290
I0
tp342
a(I4
I78
I0
g292
I0
tp343
a(I4
I79
I0
g294
I0
tp344
a(I4
I79
F1.0
g296
I0
tp345
a(I5
I9
I0
g298
I0
tp346
a(I5
I9
F1.0
g300
I0
tp347
a(I5
I20
I0
g302
I0
tp348
a(I5
I28
F1.0
g304
I0
tp349
a(I5
I28
I0
g306
I0
tp350
a(I5
I34
I0
g308
I0
tp351
a(I5
I36
I0
g310
I0
tp352
a(I5
I39
I0
g312
I0
tp353
a(I5
I84
I0
g314
I0
tp354
a(I5
I87
I0
g316
I0
tp355
a(I7
I41
I0
g318
I0
tp356
a(I7
I48
I0
g320
I0
tp357
a(I8
I42
I0
g322
I0
tp358
a(I8
I42
F1.0
g324
I0
tp359
a(I8
I157
I0
g326
I0
tp360
a(I8
I169
I0
g328
I0
tp361
a(I10
I109
I0
g330
I0
tp362
as(S'emails'
p363
tp364
(lp365
(I5
I31
F-0.125
S'delete'
p366
I0
tp367
a(I7
I46
I0
S'normal'
p368
I0
tp369
as(S'button'
p370
tp371
(lp372
(I2
I167
F-0.375
S'top'
p373
I19
tp374
a(I8
I22
I0
S'physical'
p375
I19
tp376
a(I8
I84
F-0.25
S'loose'
p377
I19
tp378
as(S'verizon'
p379
tp380
(lp381
(I1
I7
F-0.875
S'awful'
p382
I0
tp383
a(I1
I7
F-0.875
S'awful'
p384
I0
tp385
a(I2
I57
I0
S'big'
p386
I0
tp387
a(I2
I57
F-0.625
S'other'
p388
I0
tp389
a(I4
I115
I0
S'fastest'
p390
I0
tp391
a(I6
I7
I0
S'decided'
p392
I0
tp393
a(I7
I20
F0.25
S'favorite'
p394
I0
tp395
as(S'android'
p396
tp397
(lp398
(I4
I51
I0
S'most'
p399
I0
tp400
a(I10
I93
F-0.875
S'worst'
p401
I0
tp402
as(S'slide'
p403
S'out'
p404
S'keyboard'
p405
tp406
(lp407
(I8
I42
I0
g322
I0
tp408
a(I8
I42
F1.0
g324
I0
tp409
a(I0
I5
I0
g270
I2
tp410
a(I0
I23
I0
g272
I2
tp411
a(I0
I24
I0
g274
I2
tp412
a(I0
I25
I0
g276
I2
tp413
a(I0
I28
F0.75
S'due'
p414
I2
tp415
a(I1
I0
F-0.5
S'actual'
p416
I2
tp417
a(I1
I41
I0
g278
I2
tp418
a(I2
I20
I0
S'touchscreen'
p419
I2
tp420
a(I2
I30
I0
g280
I2
tp421
a(I2
I69
I0
S'great'
p422
I2
tp423
a(I2
I109
I0
g282
I2
tp424
a(I2
I110
I0
g284
I2
tp425
a(I2
I115
F0.875
S'music'
p426
I2
tp427
a(I2
I160
F1.0
g215
I2
tp428
a(I2
I177
F0.875
S'nice'
p429
I2
tp430
a(I2
I203
F-0.25
S'matter'
p431
I2
tp432
a(I4
I5
I0
S'wide'
p433
I2
tp434
a(I4
I16
I0
S'great'
p435
I2
tp436
a(I4
I30
I0
g286
I2
tp437
a(I4
I31
I0
g288
I2
tp438
a(I4
I42
I0
g290
I2
tp439
a(I4
I49
F1.0
S'best'
p440
I2
tp441
a(I4
I67
F1.0
S'best'
p442
I2
tp443
a(I4
I78
I0
g292
I2
tp444
a(I4
I79
I0
g294
I2
tp445
a(I4
I79
F1.0
g296
I2
tp446
a(I4
I112
F0.25
S'sweet'
p447
I2
tp448
a(I4
I130
I0
S'different'
p449
I2
tp450
a(I4
I135
F1.0
S'best'
p451
I2
tp452
a(I5
I9
I0
g298
I2
tp453
a(I5
I9
F1.0
g300
I2
tp454
a(I5
I20
I0
g302
I2
tp455
a(I5
I28
F1.0
g304
I2
tp456
a(I5
I28
I0
g306
I2
tp457
a(I5
I29
I0
S'great'
p458
I2
tp459
a(I5
I29
I0
S'fast'
p460
I2
tp461
a(I5
I34
I0
g308
I2
tp462
a(I5
I36
I0
g310
I2
tp463
a(I5
I37
F-0.375
S'serious'
p464
I2
tp465
a(I5
I39
I0
g312
I2
tp466
a(I5
I71
F-0.375
S'smaller'
p467
I2
tp468
a(I5
I82
F1.0
S'good'
p469
I2
tp470
a(I5
I84
I0
g314
I2
tp471
a(I5
I86
I0
S'different'
p472
I2
tp473
a(I5
I87
I0
g316
I2
tp474
a(I7
I4
I0
S'horizontal'
p475
I2
tp476
a(I7
I19
F0.25
S'larger'
p477
I2
tp478
a(I7
I41
I0
g318
I2
tp479
a(I7
I48
I0
g320
I2
tp480
a(I8
I42
I0
g322
I2
tp481
a(I8
I42
F1.0
g324
I2
tp482
a(I8
I57
F-0.5
S'open'
p483
I2
tp484
a(I8
I123
F0.875
S'nice'
p485
I2
tp486
a(I8
I157
I0
g326
I2
tp487
a(I8
I159
F0.875
S'nice'
p488
I2
tp489
a(I8
I169
I0
g328
I2
tp490
a(I9
I50
F0.5
S'absolute'
p491
I2
tp492
a(I9
I70
F-0.5
S'open'
p493
I2
tp494
a(I10
I27
F0.125
S'spectacular'
p495
I2
tp496
a(I10
I71
F1.0
S'good'
p497
I2
tp498
a(I10
I109
I0
g330
I2
tp499
as(S'droid'
p500
S'4'
p501
S'keyboard'
p502
tp503
(lp504
(I4
I31
F0.625
g244
I0
tp505
a(I4
I31
I0
g288
I0
tp506
a(I4
I31
F1.0
g246
I0
tp507
a(I4
I130
I0
g449
I0
tp508
a(I4
I135
F1.0
g451
I0
tp509
a(I5
I83
F0.375
S'new'
p510
I0
tp511
a(I8
I42
I0
g322
I0
tp512
a(I8
I42
F1.0
g324
I0
tp513
a(I10
I109
I0
g330
I0
tp514
as(S'keyboard'
p515
S'on'
p516
S'droid'
p517
tp518
(lp519
(I4
I14
F0.25
g148
I0
tp520
a(I4
I31
F0.625
g244
I0
tp521
a(I4
I31
I0
g288
I0
tp522
a(I4
I31
F1.0
g246
I0
tp523
a(I4
I112
F0.25
g447
I0
tp524
a(I4
I130
I0
g449
I0
tp525
a(I4
I135
F1.0
g451
I0
tp526
a(I5
I20
I0
g302
I0
tp527
a(I5
I71
F-0.375
g467
I0
tp528
a(I5
I71
F0.25
g162
I0
tp529
a(I7
I48
I0
g320
I0
tp530
a(I8
I42
I0
g322
I0
tp531
a(I8
I42
F1.0
g324
I0
tp532
a(I10
I109
I0
g330
I0
tp533
a(I0
I9
I0
S'great'
p534
I0
tp535
a(I1
I13
F1.0
S'good'
p536
I0
tp537
a(I1
I28
I0
S'fast'
p538
I0
tp539
a(I1
I30
I0
S'fast'
p540
I0
tp541
a(I2
I79
F1.0
g236
I0
tp542
a(I2
I83
F0.125
g238
I0
tp543
a(I2
I83
I0
g240
I0
tp544
a(I2
I93
F-0.375
g242
I0
tp545
a(I2
I108
I0
S'wrestle'
p546
I0
tp547
a(I2
I108
I0
S'update'
p548
I0
tp549
a(I3
I7
F-0.625
S'sorry'
p550
I0
tp551
a(I4
I6
F0.25
g146
I0
tp552
a(I4
I14
F0.25
g148
I0
tp553
a(I4
I31
F0.625
g244
I0
tp554
a(I4
I31
F1.0
g246
I0
tp555
a(I4
I108
F1.0
S'best'
p556
I0
tp557
a(I4
I110
F0.125
S'first'
p558
I0
tp559
a(I5
I19
F0.25
g150
I0
tp560
a(I5
I49
F0.25
g152
I0
tp561
a(I5
I54
F0.875
g154
I0
tp562
a(I5
I54
F0.25
g156
I0
tp563
a(I5
I65
I0
S'old'
p564
I0
tp565
a(I5
I67
I0
g158
I0
tp566
a(I5
I67
F0.25
g160
I0
tp567
a(I5
I71
F0.25
g162
I0
tp568
a(I5
I80
F0.25
g164
I0
tp569
a(I5
I82
I0
S'old'
p570
I0
tp571
a(I5
I83
F0.375
g510
I0
tp572
a(I5
I101
F0.25
g166
I0
tp573
a(I6
I5
F0.25
g168
I0
tp574
a(I6
I5
I0
g170
I0
tp575
a(I6
I5
F0.625
g172
I0
tp576
a(I7
I30
F0.375
g249
I0
tp577
a(I7
I42
I0
S'different'
p578
I0
tp579
a(I8
I58
I0
S'older'
p580
I0
tp581
a(I8
I127
F0.125
S'first'
p582
I0
tp583
a(I8
I135
I0
S'metal'
p584
I0
tp585
a(I8
I156
F0.125
S'first'
p586
I0
tp587
a(I8
I156
F-0.125
S'overall'
p588
I0
tp589
a(I9
I33
F0.25
g174
I0
tp590
a(I9
I54
F0.625
S'perfect'
p591
I0
tp592
a(I10
I10
F0.25
g176
I0
tp593
a(I10
I21
F0.25
g178
I0
tp594
a(I10
I108
I0
S'website'
p595
I0
tp596
a(I10
I113
F0.25
g180
I0
tp597
as(S'speaker'
p598
tp599
(lp600
(I2
I5
F0.125
S'able'
p601
I8
tp602
a(I2
I5
F-0.125
S'mine'
p603
I8
tp604
a(I2
I8
F0.125
S'first'
p605
I8
tp606
as(g265
S'virtual'
p607
S'keyboard'
p608
tp609
(lp610
(I4
I30
I0
g286
I0
tp611
a(I4
I31
I0
g288
I0
tp612
a(I5
I9
I0
g298
I0
tp613
a(I5
I9
F1.0
g300
I0
tp614
a(I5
I84
I0
g314
I0
tp615
a(I5
I86
I0
g472
I0
tp616
a(I4
I30
I0
g286
I0
tp617
a(I4
I31
I0
g288
I0
tp618
a(I5
I9
I0
g298
I0
tp619
a(I5
I9
F1.0
g300
I0
tp620
a(I5
I84
I0
g314
I0
tp621
a(I5
I86
I0
g472
I0
tp622
as(S'blackberry'
p623
tp624
(lp625
(I4
I37
I0
S'different'
p626
I1
tp627
a(I8
I151
I0
S'more'
p628
I1
tp629
as(S'smart'
p630
S'actions'
p631
tp632
(lp633
(I2
I37
F-0.625
S'other'
p634
I0
tp635
a(I2
I37
F-0.625
g634
I10
tp636
a(I5
I3
F0.125
S'first'
p637
I10
tp638
a(I5
I32
F-0.625
S'other'
p639
I10
tp640
a(I8
I156
F0.125
S'first'
p641
I10
tp642
as(S'much'
p643
S'better'
p644
tp645
(lp646
(I1
I3
F0.375
S'much'
p647
I9
tp648
a(I4
I4
F0.375
S'much'
p649
I9
tp650
a(I5
I50
F0.375
S'much'
p651
I9
tp652
as(S'apps'
p653
tp654
(lp655
(I0
I15
I0
S'educational'
p656
I0
tp657
a(I2
I96
I0
S'quicker'
p658
I0
tp659
a(I2
I175
I0
S'more'
p660
I0
tp661
a(I3
I5
F-0.25
S'google'
p662
I0
tp663
a(I4
I151
F-0.625
S'other'
p664
I0
tp665
a(I7
I45
I0
S'such'
p666
I0
tp667
a(I7
I45
F1.0
S'better'
p668
I0
tp669
a(I7
I46
F1.0
S'good'
p670
I0
tp671
a(I7
I46
F-0.25
S'battery'
p672
I0
tp673
a(I8
I12
F-0.625
S'other'
p674
I0
tp675
a(I8
I93
F0.25
S'larger'
p676
I0
tp677
a(I8
I93
F-0.125
S'slow'
p678
I0
tp679
a(I8
I94
I0
S'least'
p680
I0
tp681
as(S'touch'
p682
S'screen'
p683
tp684
(lp685
(I2
I180
F0.5
S'touch'
p686
I2
tp687
a(I2
I180
F0.25
S'responsive'
p688
I2
tp689
a(I5
I7
F0.5
S'touch'
p690
I2
tp691
a(I7
I1
F0.5
S'touch'
p692
I2
tp693
a(I7
I7
I0
S'more'
p694
I2
tp695
a(I7
I7
F0.5
S'touch'
p696
I2
tp697
a(I7
I93
F0.5
S'touch'
p698
I2
tp699
a(I8
I88
F0.5
S'touch'
p700
I2
tp701
a(I8
I158
F0.5
S'touch'
p702
I2
tp703
a(I10
I105
F-0.375
S'black'
p704
I2
tp705
as(S'worst'
p706
tp707
(lp708
(I4
I140
I0
S'very'
p709
I5
tp710
as.