(dp0
(S'vivid'
p1
tp2
(lp3
(I2
I40
I0
S'such'
p4
I1
tp5
a(I6
I10
F1.0
S'good'
p6
I1
tp7
as(S'camera'
p8
tp9
(lp10
(I2
I53
I0
S'great'
p11
I1
tp12
a(I5
I3
I0
S'genial'
p13
I1
tp14
a(I6
I2
I0
S'great'
p15
I1
tp16
a(I6
I3
I0
S'great'
p17
I1
tp18
a(I8
I6
F1.0
S'good'
p19
I1
tp20
as(S'battery'
p21
S'life'
p22
tp23
(lp24
(I1
I9
F1.0
S'good'
p25
I1
tp26
a(I1
I17
F1.0
S'good'
p27
I1
tp28
a(I2
I22
F-0.25
S'disappointing'
p29
I1
tp30
a(I0
I27
F0.125
S'able'
p31
I15
tp32
a(I0
I54
F-0.75
S'dead'
p33
I15
tp34
a(I1
I21
F0.625
S'replaceable'
p35
I15
tp36
a(I2
I2
F0.625
S'removable'
p37
I15
tp38
a(I2
I2
F0.625
S'cover'
p39
I15
tp40
a(I2
I56
I0
S'quick'
p41
I15
tp42
as(S'sim'
p43
S'card'
p44
tp45
(lp46
(I0
I36
F0.125
S'able'
p47
I0
tp48
a(I8
I4
F-0.125
S'foreign'
p49
I0
tp50
as.