(dp0
(S'battery'
p1
S'life'
p2
tp3
(lp4
(I1
I81
F1.0
S'good'
p5
I1
tp6
a(I3
I0
I0
S'great'
p7
I1
tp8
a(I7
I44
I0
S'incredible'
p9
I1
tp10
a(I9
I14
F1.0
S'good'
p11
I1
tp12
a(I9
I28
I0
S'great'
p13
I1
tp14
a(I9
I28
I0
S'great'
p15
I1
tp16
a(I10
I17
F1.0
S'good'
p17
I1
tp18
a(I11
I18
F0.625
S'decent'
p19
I1
tp20
a(I17
I15
F-0.75
S'short'
p21
I1
tp22
a(I17
I81
F-0.5
S'poor'
p23
I1
tp24
a(I1
I15
F0.375
S'extra'
p25
I15
tp26
a(I3
I108
F-0.75
S'difficult'
p27
I15
tp28
a(I3
I108
F-0.5
S'open'
p29
I15
tp30
a(I9
I28
I0
g13
I15
tp31
a(I11
I33
F-0.75
S'difficult'
p32
I15
tp33
a(I17
I11
I0
S'many'
p34
I15
tp35
a(I17
I81
F-0.5
g23
I15
tp36
a(I17
I179
F-0.5
S'long'
p37
I15
tp38
as(S'coverage'
p39
S'area'
p40
tp41
(lp42
(I15
I2
F1.0
S'good'
p43
I0
tp44
a(I17
I65
I0
S'same'
p45
I0
tp46
a(I17
I68
F0.125
S'first'
p47
I0
tp48
as(S'samsung'
p49
tp50
(lp51
(I1
I18
I0
S'same'
p52
I7
tp53
a(I6
I8
F-0.375
S'manual'
p54
I7
tp55
a(I15
I0
I0
S'third'
p56
I7
tp57
as(S'tracfone'
p58
tp59
(lp60
(I3
I68
F0.125
S'last'
p61
I0
tp62
a(I5
I30
I0
S'quick'
p63
I0
tp64
a(I6
I2
F0.625
S'perfect'
p65
I0
tp66
a(I7
I79
F0.875
S'happy'
p67
I0
tp68
a(I9
I62
F1.0
S'best'
p69
I0
tp70
a(I9
I63
I0
S'more'
p71
I0
tp72
a(I11
I14
I0
S'more'
p73
I0
tp74
a(I11
I14
I0
S'great'
p75
I0
tp76
as(S'browser'
p77
S'button'
p78
tp79
(lp80
(I7
I32
I0
S'toggle'
p81
I0
tp82
a(I7
I32
I0
S'different'
p83
I0
tp84
a(I7
I69
F-0.5
S'complaint'
p85
I0
tp86
a(I7
I69
F0.625
S'easy'
p87
I0
tp88
a(I10
I11
F-0.75
S'hate'
p89
I0
tp90
a(I17
I163
F0.25
S'used'
p91
I0
tp92
a(I3
I70
F-0.75
S'tough'
p93
I19
tp94
a(I7
I32
I0
g83
I19
tp95
a(I10
I38
F-0.125
S'delete'
p96
I19
tp97
a(I11
I56
I-100
S"'browse"
p98
I19
tp99
a(I17
I163
F0.25
g91
I19
tp100
a(I7
I32
I0
g81
I0
tp101
a(I7
I69
F-0.5
g85
I0
tp102
a(I7
I69
F0.625
g87
I0
tp103
a(I10
I11
F-0.75
g89
I0
tp104
a(I11
I1
F0.125
S'key'
p105
I0
tp106
a(I17
I142
F-0.375
S'disable'
p107
I0
tp108
as(S'plus'
p109
tp110
(lp111
(I9
I35
F1.0
S'good'
p112
I16
tp113
as(S'free'
p114
S'minutes'
p115
tp116
(lp117
(I0
I26
F-0.625
S'free'
p118
I0
tp119
a(I1
I79
F-0.625
S'free'
p120
I0
tp121
a(I1
I80
F-0.625
S'free'
p122
I0
tp123
a(I19
I37
F-0.625
S'free'
p124
I0
tp125
a(I19
I52
F-0.625
S'free'
p126
I0
tp127
as(S'reception'
p128
tp129
(lp130
(I1
I1
F0.625
S'easy'
p131
I0
tp132
a(I1
I1
I0
S'great'
p133
I0
tp134
a(I3
I8
I0
S'great'
p135
I0
tp136
a(I3
I8
F0.625
S'easy'
p137
I0
tp138
a(I3
I68
F1.0
S'good'
p139
I0
tp140
a(I9
I49
F-0.625
S'bad'
p141
I0
tp142
a(I17
I22
F1.0
S'good'
p143
I0
tp144
a(I22
I22
F1.0
S'good'
p145
I0
tp146
as(S'signal'
p147
tp148
(lp149
(I20
I0
F1.0
S'good'
p150
I1
tp151
as(S'internet'
p152
tp153
(lp154
(I5
I30
F0.625
S'easy'
p155
I6
tp156
a(I14
I7
F-0.625
S'useless'
p157
I6
tp158
a(I17
I25
I0
S'dial'
p159
I6
tp160
a(I19
I68
F0.5
S'second'
p161
I6
tp162
as(S'voice'
p163
S'mail'
p164
tp165
(lp166
(I1
I7
F0.875
S'nice'
p167
I0
tp168
as(S'code'
p169
tp170
(lp171
(I17
I24
I0
S'dial'
p172
I3
tp173
a(I17
I24
F-0.5
S'long'
p174
I3
tp175
as(S'double'
p176
S'minutes'
p177
tp178
(lp179
(I0
I25
F-0.375
S'double'
p180
I0
tp181
a(I7
I10
F-0.25
S'triple'
p182
I0
tp183
a(I7
I10
F-0.375
S'double'
p184
I0
tp185
a(I8
I8
F-0.375
S'double'
p186
I0
tp187
a(I10
I20
F-0.375
S'double'
p188
I0
tp189
a(I17
I134
F-0.375
S'double'
p190
I0
tp191
a(I17
I176
F-0.375
S'double'
p192
I0
tp193
a(I19
I57
F-0.375
S'double'
p194
I0
tp195
a(I19
I64
I0
S'more'
p196
I0
tp197
a(I19
I64
F-0.375
S'double'
p198
I0
tp199
a(I22
I11
F-0.375
S'double'
p200
I0
tp201
a(I22
I15
F-0.25
S'triple'
p202
I0
tp203
as(S'minutes'
p204
S'for'
p205
S'life'
p206
tp207
(lp208
(I1
I87
F-0.25
S'triple'
p209
I0
tp210
a(I9
I28
I0
g15
I0
tp211
a(I10
I20
F-0.375
g188
I0
tp212
a(I13
I3
F0.875
S'important'
p213
I0
tp214
a(I1
I81
F1.0
g5
I19
tp215
a(I3
I0
I0
g7
I19
tp216
a(I7
I44
I0
g9
I19
tp217
a(I8
I12
I0
S'real'
p218
I19
tp219
a(I9
I14
F1.0
g11
I19
tp220
a(I9
I28
I0
g15
I19
tp221
a(I10
I17
F1.0
g17
I19
tp222
a(I11
I18
F0.625
g19
I19
tp223
a(I13
I3
F0.875
g213
I19
tp224
a(I17
I15
F-0.75
g21
I19
tp225
as(S'slider'
p226
tp227
(lp228
(I3
I13
F0.125
S'first'
p229
I0
tp230
a(I10
I38
I0
S'great'
p231
I0
tp232
a(I17
I159
F0.375
S'much'
p233
I0
tp234
a(I19
I73
F1.0
S'good'
p235
I0
tp236
as(S'hold'
p237
S'a'
p238
S'charge'
p239
tp240
(lp241
(I11
I7
F1.0
S'good'
p242
I0
tp243
a(I16
I0
F-0.5
S'flimsy'
p244
I0
tp245
as(S'get'
p246
S'triple'
p247
S'minutes'
p248
tp249
(lp250
(I1
I19
I0
S'monthly'
p251
I0
tp252
a(I1
I26
F-0.25
S'triple'
p253
I0
tp254
a(I1
I26
I0
S'same'
p255
I0
tp256
a(I22
I1
F0.875
S'happy'
p257
I0
tp258
as(S'smart'
p259
tp260
(lp261
(I17
I35
F-0.625
S'other'
p262
I10
tp263
as(S'has'
p264
S'triple'
p265
S'minutes'
p266
tp267
(lp268
(I1
I19
I0
g251
I0
tp269
a(I3
I35
I0
S'great'
p270
I0
tp271
a(I7
I10
F-0.25
g182
I0
tp272
a(I7
I10
F-0.375
g184
I0
tp273
a(I17
I0
F-0.25
S'triple'
p274
I0
tp275
a(I0
I25
F-0.375
g180
I0
tp276
a(I1
I12
F0.625
S'aware'
p277
I0
tp278
a(I1
I19
I0
g251
I0
tp279
a(I1
I26
F-0.25
g253
I0
tp280
a(I1
I26
I0
g255
I0
tp281
a(I1
I64
F0.125
S'first'
p282
I0
tp283
a(I1
I87
F-0.25
g209
I0
tp284
a(I2
I1
I0
S'great'
p285
I0
tp286
a(I2
I2
I0
S'least'
p287
I0
tp288
a(I2
I2
I0
S'great'
p289
I0
tp290
a(I3
I35
I0
g270
I0
tp291
a(I7
I10
F-0.25
g182
I0
tp292
a(I7
I10
F-0.375
g184
I0
tp293
a(I8
I8
F-0.375
g186
I0
tp294
a(I17
I0
F-0.25
g274
I0
tp295
a(I17
I40
I0
S'great'
p296
I0
tp297
a(I17
I61
F0.5
S'expensive'
p298
I0
tp299
a(I19
I67
F-0.625
S'free'
p300
I0
tp301
a(I22
I1
F0.875
g257
I0
tp302
a(I22
I11
F-0.375
g200
I0
tp303
a(I22
I15
F-0.25
g202
I0
tp304
a(I22
I31
F0.625
S'easy'
p305
I0
tp306
a(I22
I31
I0
S'great'
p307
I0
tp308
a(I1
I12
F0.625
g277
I1
tp309
a(I1
I46
F0.625
S'easy'
p310
I1
tp311
a(I1
I64
F0.125
g282
I1
tp312
a(I2
I1
I0
g285
I1
tp313
a(I3
I35
I0
g270
I1
tp314
a(I17
I40
I0
g296
I1
tp315
a(I19
I67
F-0.625
g300
I1
tp316
a(I22
I1
F0.875
g257
I1
tp317
a(I22
I31
F0.625
g305
I1
tp318
a(I22
I31
I0
g307
I1
tp319
as(S't301g'
p320
tp321
(lp322
(I0
I14
F0.375
S'new'
p323
I0
tp324
a(I1
I11
F0.125
S'first'
p325
I0
tp326
a(I5
I6
F0.5
S'second'
p327
I0
tp328
as(S'calls'
p329
tp330
(lp331
(I1
I50
F0.125
S'able'
p332
I0
tp333
a(I7
I74
F-0.375
S'static'
p334
I0
tp335
a(I9
I19
F-0.625
S'other'
p336
I0
tp337
a(I9
I56
F0.625
S'easy'
p338
I0
tp339
a(I11
I9
I0
S'own'
p340
I0
tp341
a(I11
I41
F0.125
S'outside'
p342
I0
tp343
a(I11
I41
I0
S'few'
p344
I0
tp345
as(S'text'
p346
S'messages'
p347
tp348
(lp349
(I1
I105
I0
S'text'
p350
I0
tp351
a(I7
I73
I0
S'signal'
p352
I0
tp353
a(I17
I101
F-0.5
S'open'
p354
I18
tp355
a(I17
I102
F-0.625
S'free'
p356
I18
tp357
a(I17
I103
F-0.5
S'open'
p358
I18
tp359
as(S'customer'
p360
S'service'
p361
tp362
(lp363
(I1
I55
F-0.75
S'difficult'
p364
I3
tp365
a(I19
I44
F1.0
S'good'
p366
I3
tp367
a(I0
I1
F0.375
S'reliable'
p368
I16
tp369
a(I1
I55
F-0.75
g364
I16
tp370
a(I1
I94
F-0.625
S'average'
p371
I16
tp372
a(I9
I16
I0
S'full'
p373
I16
tp374
a(I9
I16
F0.625
S'partial'
p375
I16
tp376
a(I9
I27
F1.0
S'good'
p377
I16
tp378
a(I9
I27
F1.0
S'best'
p379
I16
tp380
a(I9
I27
F1.0
S'good'
p381
I16
tp382
a(I9
I27
F0.125
S'enough'
p383
I16
tp384
a(I11
I13
F-0.25
S'cheaper'
p385
I16
tp386
a(I11
I13
F1.0
S'better'
p387
I16
tp388
a(I17
I24
I0
S'special'
p389
I16
tp390
a(I19
I32
I0
S'great'
p391
I16
tp392
a(I19
I63
I0
S'great'
p393
I16
tp394
a(I19
I44
F1.0
g366
I11
tp395
as(S'land'
p396
S'line'
p397
S'number'
p398
tp399
(lp400
(I19
I19
I0
S'old'
p401
I0
tp402
a(I19
I33
F0.5
S'possible'
p403
I0
tp404
a(I19
I48
I0
S'old'
p405
I0
tp406
a(I19
I51
I0
S'old'
p407
I0
tp408
a(I3
I113
I0
S'serial'
p409
I0
tp410
a(I19
I19
I0
g401
I0
tp411
a(I19
I25
F0.5
S'rid'
p412
I0
tp413
a(I19
I33
F0.5
g403
I0
tp414
a(I19
I48
I0
g405
I0
tp415
a(I19
I51
I0
g407
I0
tp416
a(I19
I19
I0
g401
I7
tp417
a(I19
I25
F0.5
g412
I7
tp418
a(I19
I33
F0.5
g403
I7
tp419
a(I19
I48
I0
g405
I7
tp420
a(I19
I51
I0
g407
I7
tp421
as(S'per'
p422
S'month'
p423
tp424
(lp425
(I1
I4
I0
S'same'
p426
I0
tp427
as(S'flip'
p428
tp429
(lp430
(I14
I10
F0.875
S'nice'
p431
I4
tp432
a(I14
I10
I0
S'old'
p433
I4
tp434
as(S'save'
p435
S'money'
p436
tp437
(lp438
(I17
I180
I0
S'great'
p439
I0
tp440
as(S'first'
p441
S'time'
p442
tp443
(lp444
(I3
I72
F0.125
S'first'
p445
I10
tp446
a(I11
I32
F0.125
S'first'
p447
I10
tp448
a(I17
I0
F0.125
S'first'
p449
I10
tp450
a(I17
I41
F0.125
S'first'
p451
I10
tp452
a(I17
I120
F0.125
S'first'
p453
I10
tp454
a(I17
I124
F0.125
S'first'
p455
I10
tp456
as.