(dp0
(S'lg'
p1
S'optimus'
p2
tp3
(lp4
(I6
I151
F0.25
S'elite'
p5
I0
tp6
a(I9
I273
I0
S'least'
p7
I0
tp8
as(S'big'
p9
S'screen'
p10
tp11
(lp12
(I0
I66
F0.875
S'nice'
p13
I1
tp14
a(I0
I66
I0
S'big'
p15
I1
tp16
a(I0
I66
F0.625
S'easy'
p17
I1
tp18
a(I6
I3
F0.25
S'bigger'
p19
I1
tp20
a(I6
I105
I0
S'big'
p21
I1
tp22
a(I6
I149
I0
S'big'
p23
I1
tp24
a(I7
I6
I0
S'big'
p25
I1
tp26
a(I9
I116
I0
S'big'
p27
I1
tp28
a(I9
I153
F0.25
S'biggest'
p29
I1
tp30
a(I9
I153
F0.375
S'available'
p31
I1
tp32
a(I9
I228
I0
S'big'
p33
I1
tp34
a(I9
I228
F0.875
S'nice'
p35
I1
tp36
as(S'metro'
p37
S'pcs'
p38
tp39
(lp40
(I0
I31
F0.875
S'gracious'
p41
I0
tp42
a(I0
I49
F1.0
S'good'
p43
I0
tp44
a(I6
I121
I0
S'signal'
p45
I0
tp46
a(I6
I121
F1.0
S'good'
p47
I0
tp48
a(I8
I8
F1.0
S'best'
p49
I0
tp50
a(I9
I271
F-0.5
S'sure'
p51
I0
tp52
a(I0
I41
I0
S'more'
p53
I1
tp54
a(I0
I49
F1.0
g43
I1
tp55
a(I6
I92
F-0.125
S'opposite'
p56
I1
tp57
a(I6
I120
F0.375
S'reliable'
p58
I1
tp59
a(I8
I8
F1.0
g49
I1
tp60
a(I9
I124
F-0.375
S'vary'
p61
I1
tp62
a(I9
I135
I0
S'faster'
p63
I1
tp64
a(I9
I135
I0
S'android'
p65
I1
tp66
a(I9
I137
F1.0
S'best'
p67
I1
tp68
a(I9
I271
F-0.5
g51
I1
tp69
as(S'battery'
p70
S'life'
p71
tp72
(lp73
(I0
I33
F0.375
S'extended'
p74
I1
tp75
a(I0
I77
F-0.25
S'low'
p76
I1
tp77
a(I9
I71
F-0.75
S'short'
p78
I1
tp79
a(I9
I71
F0.375
S'extended'
p80
I1
tp81
a(I0
I77
F-0.25
g76
I19
tp82
a(I9
I40
I0
S'real'
p83
I19
tp84
a(I9
I71
F-0.75
g78
I19
tp85
as(S'many'
p86
S'times'
p87
tp88
(lp89
(I5
I2
I0
S'many'
p90
I5
tp91
a(I6
I4
I0
S'many'
p92
I5
tp93
a(I6
I5
I0
S'many'
p94
I5
tp95
a(I6
I131
I0
S'many'
p96
I5
tp97
a(I8
I16
I0
S'many'
p98
I5
tp99
a(I9
I49
I0
S'many'
p100
I5
tp101
as(S'sim'
p102
S'card'
p103
tp104
(lp105
(I2
I14
F-0.75
S'sad'
p106
I0
tp107
a(I2
I14
F0.625
S'kind'
p108
I0
tp109
a(I9
I262
F-0.25
S'disappointing'
p110
I0
tp111
as(S'metropcs'
p112
tp113
(lp114
(I6
I50
I0
S'great'
p115
I0
tp116
as(S'reboots'
p117
tp118
(lp119
(I2
I8
F0.125
S'last'
p120
I0
tp121
as(S'data'
p122
tp123
(lp124
(I6
I107
F-0.5
S'unlimited'
p125
I13
tp126
as(S'random'
p127
tp128
(lp129
(I6
I23
F-0.75
S'single'
p130
I5
tp131
as(S'verizon'
p132
tp133
(lp134
(I0
I41
I0
S'website'
p135
I0
tp136
a(I6
I57
I0
S'faster'
p137
I0
tp138
a(I6
I57
I0
S'slower'
p139
I0
tp140
a(I6
I60
F1.0
S'good'
p141
I0
tp142
a(I6
I70
I0
S'yeah'
p143
I0
tp144
as(S'apps'
p145
tp146
(lp147
(I0
I25
I0
S'same'
p148
I0
tp149
a(I8
I20
I0
S'latest'
p150
I0
tp151
a(I9
I107
F-0.5
S'open'
p152
I0
tp153
as(S'camera'
p154
tp155
(lp156
(I0
I16
F-0.125
S'overall'
p157
I1
tp158
a(I4
I1
I0
S'great'
p159
I1
tp160
a(I9
I220
F0.5
S'clear'
p161
I1
tp162
as(S'an'
p163
S'extended'
p164
S'battery'
p165
tp166
(lp167
(I0
I18
F0.375
S'extended'
p168
I0
tp169
a(I0
I33
F0.375
g74
I0
tp170
a(I0
I53
F0.375
S'extended'
p171
I0
tp172
a(I6
I21
F0.375
S'extended'
p173
I0
tp174
a(I9
I71
F0.375
g80
I0
tp175
a(I9
I105
F0.375
S'extended'
p176
I0
tp177
a(I9
I105
F0.375
S'extended'
p178
I0
tp179
a(I0
I18
F0.375
g168
I0
tp180
a(I0
I33
F0.375
g74
I0
tp181
a(I0
I53
F0.375
g171
I0
tp182
a(I6
I21
F0.375
g173
I0
tp183
a(I6
I26
F0.375
S'extended'
p184
I0
tp185
a(I9
I71
F0.375
g80
I0
tp186
a(I9
I105
F0.375
g176
I0
tp187
a(I9
I105
F0.375
g178
I0
tp188
a(I0
I18
F0.375
g168
I15
tp189
a(I0
I33
F0.375
g74
I15
tp190
a(I0
I53
F0.375
g171
I15
tp191
a(I0
I59
F0.125
S'last'
p192
I15
tp193
a(I5
I9
F0.125
S'last'
p194
I15
tp195
a(I5
I9
F-0.5
S'long'
p196
I15
tp197
a(I6
I13
F-0.5
S'regular'
p198
I15
tp199
a(I6
I21
F0.375
g173
I15
tp200
a(I6
I26
F0.375
g184
I15
tp201
a(I9
I71
F0.375
g80
I15
tp202
a(I9
I105
F0.375
g176
I15
tp203
a(I9
I105
F0.375
g178
I15
tp204
as.