(dp0
(S'double'
p1
S'minutes'
p2
tp3
(lp4
(I1
I37
F-0.375
S'double'
p5
I0
tp6
a(I1
I46
F-0.375
S'double'
p7
I0
tp8
a(I1
I51
F-0.375
S'double'
p9
I0
tp10
a(I1
I51
F0.5
S'expensive'
p11
I0
tp12
a(I2
I2
F-0.375
S'double'
p13
I0
tp14
a(I2
I24
F-0.375
S'double'
p15
I0
tp16
a(I3
I3
F-0.375
S'double'
p17
I0
tp18
a(I4
I18
F-0.375
S'double'
p19
I0
tp20
a(I6
I11
F-0.375
S'double'
p21
I0
tp22
a(I6
I11
I0
S'great'
p23
I0
tp24
a(I8
I0
F-0.375
S'double'
p25
I0
tp26
a(I8
I3
I0
S'wish'
p27
I0
tp28
a(I8
I3
F-0.375
S'double'
p29
I0
tp30
a(I8
I54
F-0.375
S'double'
p31
I0
tp32
a(I8
I67
F-0.375
S'double'
p33
I0
tp34
as(S'minutes'
p35
S'for'
p36
S'life'
p37
tp38
(lp39
(I1
I46
F-0.375
g7
I0
tp40
a(I2
I2
F-0.375
g13
I0
tp41
as(S'customer'
p42
S'service'
p43
tp44
(lp45
(I4
I18
I0
S'great'
p46
I3
tp47
a(I8
I7
F-0.75
S'impossible'
p48
I3
tp49
a(I0
I36
F0.5
S'technical'
p50
I16
tp51
a(I0
I36
F1.0
S'good'
p52
I16
tp53
a(I2
I6
I0
S'great'
p54
I16
tp55
a(I2
I40
I0
S'different'
p56
I16
tp57
a(I4
I18
I0
g46
I16
tp58
a(I8
I167
F0.625
S'superior'
p59
I16
tp60
a(I8
I7
F-0.75
g48
I11
tp61
a(I8
I11
I0
S'many'
p62
I11
tp63
as(S'sim'
p64
S'card'
p65
tp66
(lp67
(I2
I29
F0.375
S'new'
p68
I0
tp69
a(I5
I19
F0.375
S'new'
p70
I0
tp71
a(I5
I22
F0.375
S'new'
p72
I0
tp73
a(I5
I24
F0.375
S'new'
p74
I0
tp75
a(I7
I35
F0.375
S'new'
p76
I0
tp77
a(I7
I38
F0.375
S'new'
p78
I0
tp79
a(I7
I42
F0.375
S'new'
p80
I0
tp81
as(S'samsung'
p82
tp83
(lp84
(I5
I17
F0.25
S'original'
p85
I7
tp86
a(I5
I34
I0
S'such'
p87
I7
tp88
a(I8
I153
F-0.625
S'bad'
p89
I7
tp90
as(S'amazon'
p91
tp92
(lp93
(I6
I38
I0
S'current'
p94
I13
tp95
a(I8
I6
I0
S'great'
p96
I13
tp97
as(S'tracfone'
p98
tp99
(lp100
(I0
I33
F0.875
S'happy'
p101
I0
tp102
a(I1
I4
F-0.625
S'other'
p103
I0
tp104
a(I1
I23
I0
S'old'
p105
I0
tp106
a(I2
I8
F0.5
S'second'
p107
I0
tp108
a(I2
I9
F0.125
S'first'
p109
I0
tp110
a(I2
I23
F1.0
S'best'
p111
I0
tp112
a(I3
I0
I0
S'old'
p113
I0
tp114
a(I4
I24
F-0.25
S'past'
p115
I0
tp116
a(I5
I18
F0.375
S'new'
p117
I0
tp118
a(I5
I18
F0.25
S'original'
p119
I0
tp120
a(I5
I18
F0.5
S'hopeful'
p121
I0
tp122
a(I5
I24
F0.375
S'new'
p123
I0
tp124
a(I8
I71
F-0.625
S'other'
p125
I0
tp126
as.