(dp0
(S'virgin'
p1
S'mobile'
p2
tp3
(lp4
(I5
I8
I0
S'e-mail'
p5
I0
tp6
a(I10
I16
I0
S'basic'
p7
I0
tp8
a(I10
I170
F-0.25
S'inexpensive'
p9
I0
tp10
a(I12
I96
F0.125
S'last'
p11
I0
tp12
a(I12
I104
F-0.625
S'glad'
p13
I0
tp14
a(I12
I124
F0.5
S'reasonable'
p15
I0
tp16
a(I14
I200
I0
S'great'
p17
I0
tp18
a(I16
I41
F-0.25
S'past'
p19
I0
tp20
a(I16
I162
F0.375
S'new'
p21
I0
tp22
a(I16
I162
I0
S'old'
p23
I0
tp24
a(I10
I16
I0
g7
I0
tp25
a(I12
I65
I0
S'site'
p26
I0
tp27
a(I12
I104
F-0.625
g13
I0
tp28
a(I14
I66
I0
S'great'
p29
I0
tp30
a(I14
I87
F-0.5
S'less'
p31
I0
tp32
a(I14
I87
F0.5
S'expensive'
p33
I0
tp34
a(I16
I162
F0.375
g21
I0
tp35
a(I16
I162
I0
g23
I0
tp36
a(I2
I12
F0.5
S'personal'
p37
I0
tp38
a(I5
I8
I0
g5
I0
tp39
a(I10
I170
F-0.25
g9
I0
tp40
a(I12
I96
F0.125
g11
I0
tp41
a(I12
I124
F0.5
g15
I0
tp42
a(I14
I200
I0
g17
I0
tp43
a(I16
I41
F-0.25
g19
I0
tp44
as(S'on'
p45
S'screen'
p46
S'keyboard'
p47
tp48
(lp49
(I0
I56
F-0.75
S'bright'
p50
I0
tp51
a(I0
I56
F0.5
S'clear'
p52
I0
tp53
a(I1
I62
F-0.375
S'small'
p54
I0
tp55
a(I10
I84
I0
S'physical'
p56
I0
tp57
a(I10
I84
F0.875
S'nice'
p58
I0
tp59
a(I10
I137
F-0.375
S'small'
p60
I0
tp61
a(I10
I181
F-0.625
S'light'
p62
I0
tp63
a(I12
I23
F0.25
S'responsive'
p64
I0
tp65
a(I12
I23
I0
S'great'
p66
I0
tp67
a(I12
I51
F0.25
S'larger'
p68
I0
tp69
a(I14
I45
F1.0
S'better'
p70
I0
tp71
a(I14
I163
I0
S'efficient'
p72
I0
tp73
a(I14
I169
F-0.75
S'bright'
p74
I0
tp75
a(I17
I75
I0
S'narrow'
p76
I0
tp77
a(I17
I202
I0
S'physical'
p78
I0
tp79
a(I17
I202
F0.5
S'desirable'
p80
I0
tp81
as(S'battery'
p82
S'life'
p83
tp84
(lp85
(I0
I12
F1.0
S'better'
p86
I1
tp87
a(I0
I45
I0
S'quick'
p88
I1
tp89
a(I0
I62
I0
S'great'
p90
I1
tp91
a(I0
I114
F-0.5
S'poor'
p92
I1
tp93
a(I1
I89
F-0.5
S'poor'
p94
I1
tp95
a(I6
I28
I0
S'very'
p96
I1
tp97
a(I6
I28
F-0.75
S'short'
p98
I1
tp99
a(I7
I0
F0.125
S'first'
p100
I1
tp101
a(I9
I37
F1.0
S'good'
p102
I1
tp103
a(I11
I140
F0.125
S'last'
p104
I1
tp105
a(I11
I168
F1.0
S'good'
p106
I1
tp107
a(I11
I176
F-0.625
S'bad'
p108
I1
tp109
a(I11
I176
F-0.625
S'bad'
p110
I1
tp111
a(I11
I176
F0.375
S'extra'
p112
I1
tp113
a(I11
I176
F-0.5
S'long'
p114
I1
tp115
a(I11
I213
I0
S'most'
p116
I1
tp117
a(I11
I213
F-0.625
S'bad'
p118
I1
tp119
a(I12
I48
F-0.875
S'awful'
p120
I1
tp121
a(I12
I64
F1.0
S'good'
p122
I1
tp123
a(I12
I64
F0.625
S'easy'
p124
I1
tp125
a(I12
I190
I0
S'more'
p126
I1
tp127
a(I12
I199
F0.5
S'willing'
p128
I1
tp129
a(I13
I69
F-0.375
S'double'
p130
I1
tp131
a(I14
I97
F-0.5
S'poor'
p132
I1
tp133
a(I14
I115
F1.0
S'better'
p134
I1
tp135
a(I14
I165
F-0.25
S'low'
p136
I1
tp137
a(I16
I57
F-0.75
S'short'
p138
I1
tp139
a(I0
I12
F1.0
g86
I19
tp140
a(I0
I45
I0
g88
I19
tp141
a(I0
I62
I0
g90
I19
tp142
a(I9
I37
F1.0
g102
I19
tp143
a(I11
I140
F0.125
g104
I19
tp144
a(I11
I168
F1.0
g106
I19
tp145
a(I11
I213
F-0.625
g118
I19
tp146
a(I12
I64
F0.625
g124
I19
tp147
a(I13
I11
F0.875
S'nicer'
p148
I19
tp149
a(I14
I115
F1.0
g134
I19
tp150
a(I16
I57
F-0.75
g138
I19
tp151
as(S'faster'
p152
tp153
(lp154
(I1
I98
F-0.75
S'little'
p155
I7
tp156
a(I8
I27
F0.375
S'much'
p157
I7
tp158
a(I8
I42
F0.375
S'much'
p159
I7
tp160
a(I8
I43
F0.375
S'much'
p161
I7
tp162
a(I13
I5
F0.375
S'much'
p163
I7
tp164
a(I17
I74
F0.375
S'much'
p165
I7
tp166
as(S'slide'
p167
S'out'
p168
S'keyboard'
p169
tp170
(lp171
(I5
I60
I0
S'useful'
p172
I0
tp173
a(I10
I7
F0.625
S'easy'
p174
I0
tp175
a(I10
I49
F0.875
S'nice'
p176
I0
tp177
a(I12
I10
I0
S'physical'
p178
I0
tp179
a(I12
I23
I0
g66
I0
tp180
a(I12
I120
F-0.625
S'glorious'
p181
I0
tp182
a(I12
I220
F-0.625
S'other'
p183
I0
tp184
a(I14
I31
F0.875
S'nice'
p185
I0
tp186
a(I14
I45
F1.0
g70
I0
tp187
a(I17
I73
F-0.625
S'glad'
p188
I0
tp189
a(I17
I73
I0
S'physical'
p190
I0
tp191
a(I12
I120
F-0.625
g181
I6
tp192
a(I12
I220
F-0.625
g183
I6
tp193
a(I0
I1
I0
S'physical'
p194
I2
tp195
a(I0
I13
I0
S'physical'
p196
I2
tp197
a(I0
I53
I0
S'physical'
p198
I2
tp199
a(I0
I120
F-0.875
S'hard'
p200
I2
tp201
a(I1
I98
F0.25
S'original'
p202
I2
tp203
a(I1
I98
I0
S'physical'
p204
I2
tp205
a(I2
I5
I0
S'more'
p206
I2
tp207
a(I2
I30
I0
S'faster'
p208
I2
tp209
a(I5
I60
I0
g172
I2
tp210
a(I5
I61
I0
S'optional'
p211
I2
tp212
a(I7
I22
I0
S'physical'
p213
I2
tp214
a(I8
I22
I0
S'full'
p215
I2
tp216
a(I8
I42
F0.875
S'nice'
p217
I2
tp218
a(I10
I7
F0.625
g174
I2
tp219
a(I10
I49
F0.875
g176
I2
tp220
a(I10
I63
I0
S'physical'
p221
I2
tp222
a(I10
I65
I0
S'physical'
p223
I2
tp224
a(I10
I84
I0
g56
I2
tp225
a(I10
I84
F0.875
g58
I2
tp226
a(I10
I97
I0
S'physical'
p227
I2
tp228
a(I11
I4
F0.625
S'easy'
p229
I2
tp230
a(I11
I51
F-0.75
S'difficult'
p231
I2
tp232
a(I11
I226
F0.75
S'beautiful'
p233
I2
tp234
a(I11
I239
F0.875
S'nice'
p235
I2
tp236
a(I12
I10
I0
g178
I2
tp237
a(I12
I23
I0
g66
I2
tp238
a(I12
I52
F0.125
S'able'
p239
I2
tp240
a(I12
I82
I0
S'useful'
p241
I2
tp242
a(I12
I170
I0
S'physical'
p243
I2
tp244
a(I12
I170
I0
S'physical'
p245
I2
tp246
a(I12
I204
F0.375
S'much'
p247
I2
tp248
a(I13
I63
I0
S'full'
p249
I2
tp250
a(I14
I31
F0.875
g185
I2
tp251
a(I14
I45
F1.0
g70
I2
tp252
a(I14
I163
I0
g72
I2
tp253
a(I15
I17
I0
S'real'
p254
I2
tp255
a(I15
I21
F0.875
S'nice'
p256
I2
tp257
a(I16
I13
F0.125
S'able'
p258
I2
tp259
a(I16
I73
I0
S'physical'
p260
I2
tp261
a(I16
I73
I0
S'big'
p262
I2
tp263
a(I17
I73
F-0.625
g188
I2
tp264
a(I17
I73
I0
g190
I2
tp265
a(I17
I75
I0
g76
I2
tp266
a(I17
I200
I0
S'physical'
p267
I2
tp268
a(I17
I202
I0
g78
I2
tp269
a(I17
I202
F0.5
g80
I2
tp270
as(S'download'
p271
tp272
(lp273
(I0
I127
F-0.375
S'manual'
p274
I1
tp275
as(S'camera'
p276
tp277
(lp278
(I0
I54
I0
S'great'
p279
I1
tp280
a(I0
I71
F1.0
S'better'
p281
I1
tp282
a(I1
I61
F-0.125
S'slow'
p283
I1
tp284
a(I1
I61
F1.0
S'good'
p285
I1
tp286
a(I2
I36
F-0.375
S'small'
p287
I1
tp288
a(I9
I28
F0.625
S'fair'
p289
I1
tp290
a(I9
I40
F1.0
S'good'
p291
I1
tp292
a(I10
I139
F0.75
S'worth'
p293
I1
tp294
a(I11
I186
I0
S'great'
p295
I1
tp296
a(I12
I181
I0
S'physical'
p297
I1
tp298
a(I15
I10
F1.0
S'good'
p299
I1
tp300
a(I17
I106
F1.0
S'better'
p301
I1
tp302
a(I17
I143
F1.0
S'good'
p303
I1
tp304
a(I18
I21
F0.625
S'decent'
p305
I1
tp306
as(S'qwerty'
p307
S'keyboard'
p308
tp309
(lp310
(I10
I120
F0.25
S'responsive'
p311
I0
tp312
a(I14
I163
I0
g72
I0
tp313
as(S'2'
p314
S'years'
p315
tp316
(lp317
(I11
I83
I0
S'anymore'
p318
I3
tp319
as(S'a'
p320
S'physical'
p321
S'keyboard'
p322
tp323
(lp324
(I0
I1
I0
g194
I0
tp325
a(I0
I13
I0
g196
I0
tp326
a(I0
I53
I0
g198
I0
tp327
a(I1
I98
F0.25
g202
I0
tp328
a(I1
I98
I0
g204
I0
tp329
a(I7
I22
I0
g213
I0
tp330
a(I10
I63
I0
g221
I0
tp331
a(I10
I65
I0
g223
I0
tp332
a(I10
I84
I0
g56
I0
tp333
a(I10
I84
F0.875
g58
I0
tp334
a(I10
I97
I0
g227
I0
tp335
a(I12
I10
I0
g178
I0
tp336
a(I12
I170
I0
g243
I0
tp337
a(I12
I170
I0
g245
I0
tp338
a(I16
I73
I0
g260
I0
tp339
a(I16
I73
I0
g262
I0
tp340
a(I17
I73
F-0.625
g188
I0
tp341
a(I17
I73
I0
g190
I0
tp342
a(I17
I75
I0
g76
I0
tp343
a(I17
I200
I0
g267
I0
tp344
a(I17
I202
I0
g78
I0
tp345
a(I17
I202
F0.5
g80
I0
tp346
a(I0
I1
I0
g194
I0
tp347
a(I0
I13
I0
g196
I0
tp348
a(I0
I53
I0
g198
I0
tp349
a(I1
I98
F0.25
g202
I0
tp350
a(I1
I98
I0
g204
I0
tp351
a(I7
I22
I0
g213
I0
tp352
a(I10
I63
I0
g221
I0
tp353
a(I10
I65
I0
g223
I0
tp354
a(I10
I84
I0
g56
I0
tp355
a(I10
I84
F0.875
g58
I0
tp356
a(I10
I97
I0
g227
I0
tp357
a(I12
I10
I0
g178
I0
tp358
a(I12
I170
I0
g243
I0
tp359
a(I12
I170
I0
g245
I0
tp360
a(I16
I73
I0
g260
I0
tp361
a(I16
I73
I0
g262
I0
tp362
a(I17
I73
F-0.625
g188
I0
tp363
a(I17
I73
I0
g190
I0
tp364
a(I17
I75
I0
g76
I0
tp365
a(I17
I200
I0
g267
I0
tp366
a(I17
I202
I0
g78
I0
tp367
a(I17
I202
F0.5
g80
I0
tp368
as(S'to'
p369
S'sd'
p370
S'card'
p371
tp372
(lp373
(I4
I34
F0.125
S'further'
p374
I0
tp375
a(I5
I70
I0
S'most'
p376
I0
tp377
a(I9
I40
I0
S'great'
p378
I0
tp379
a(I10
I80
F0.875
S'nice'
p380
I0
tp381
a(I14
I130
F-0.625
S'free'
p382
I0
tp383
a(I19
I4
F0.375
S'much'
p384
I0
tp385
a(I4
I34
F0.125
g374
I0
tp386
a(I5
I70
I0
g376
I0
tp387
a(I9
I40
I0
g378
I0
tp388
a(I10
I80
F0.875
g380
I0
tp389
a(I14
I130
F-0.625
g382
I0
tp390
a(I19
I4
F0.375
g384
I0
tp391
as(S'juice'
p392
S'defender'
p393
tp394
(lp395
(I12
I158
I0
S'downloaded'
p396
I0
tp397
as(S'button'
p398
tp399
(lp400
(I1
I98
F-0.25
S'matter'
p401
I19
tp402
a(I5
I63
I0
S'next'
p403
I19
tp404
a(I12
I182
F1.0
S'best'
p405
I19
tp406
as(S'intercept'
p407
tp408
(lp409
(I0
I144
F0.25
S'used'
p410
I0
tp411
a(I8
I35
F1.0
S'better'
p412
I0
tp413
a(I11
I48
F1.0
S'good'
p414
I0
tp415
a(I11
I190
I0
S'only'
p416
I0
tp417
a(I11
I190
F-0.625
S'other'
p418
I0
tp419
a(I14
I145
F-0.875
S'awful'
p420
I0
tp421
a(I14
I159
F-0.625
S'bad'
p422
I0
tp423
as(S'an'
p424
S'extended'
p425
S'battery'
p426
tp427
(lp428
(I3
I42
F0.375
S'extended'
p429
I0
tp430
a(I5
I59
F-0.75
S'likely'
p431
I0
tp432
a(I5
I59
F0.375
S'extended'
p433
I0
tp434
a(I12
I54
F0.375
S'extended'
p435
I0
tp436
a(I12
I54
F0.375
S'available'
p437
I0
tp438
a(I12
I54
F0.375
S'available'
p439
I0
tp440
a(I12
I160
I0
S'later'
p441
I0
tp442
a(I12
I207
F0.375
S'extended'
p443
I0
tp444
a(I14
I196
F0.375
S'extended'
p445
I0
tp446
a(I0
I114
F-0.5
g92
I15
tp447
a(I1
I6
F0.25
S'powerful'
p448
I15
tp449
a(I1
I76
F-0.625
S'bad'
p450
I15
tp451
a(I1
I89
F-0.5
g94
I15
tp452
a(I2
I9
I0
S'full'
p453
I15
tp454
a(I2
I18
F0.125
S'first'
p455
I15
tp456
a(I2
I18
I0
S'most'
p457
I15
tp458
a(I2
I18
F0.875
S'important'
p459
I15
tp460
a(I3
I42
F0.375
g429
I15
tp461
a(I4
I44
F-0.5
S'long'
p462
I15
tp463
a(I5
I59
F-0.75
g431
I15
tp464
a(I5
I59
F0.375
g433
I15
tp465
a(I6
I14
F0.125
S'first'
p466
I15
tp467
a(I6
I28
I0
g96
I15
tp468
a(I6
I28
F-0.75
g98
I15
tp469
a(I6
I29
I0
S'hot'
p470
I15
tp471
a(I7
I0
F0.125
g100
I15
tp472
a(I11
I24
F-0.625
S'free'
p473
I15
tp474
a(I11
I26
F0.125
S'last'
p475
I15
tp476
a(I11
I49
I0
S'fast'
p477
I15
tp478
a(I11
I176
F-0.625
g108
I15
tp479
a(I11
I176
F-0.625
g110
I15
tp480
a(I11
I176
F0.375
g112
I15
tp481
a(I11
I176
F-0.5
g114
I15
tp482
a(I11
I213
I0
g116
I15
tp483
a(I12
I30
F0.125
S'last'
p484
I15
tp485
a(I12
I48
F-0.875
g120
I15
tp486
a(I12
I54
F0.375
g435
I15
tp487
a(I12
I54
F0.375
g437
I15
tp488
a(I12
I54
F0.375
g439
I15
tp489
a(I12
I60
F0.125
S'enough'
p490
I15
tp491
a(I12
I64
F1.0
g122
I15
tp492
a(I12
I160
I0
g441
I15
tp493
a(I12
I189
F0.5
S'recommend'
p494
I15
tp495
a(I12
I190
I0
g126
I15
tp496
a(I12
I199
F0.5
g128
I15
tp497
a(I12
I207
F0.375
g443
I15
tp498
a(I13
I22
F-0.25
S'low'
p499
I15
tp500
a(I13
I69
F-0.375
g130
I15
tp501
a(I14
I6
F0.625
S'replaceable'
p502
I15
tp503
a(I14
I7
F-0.625
S'bad'
p504
I15
tp505
a(I14
I7
F0.125
S'last'
p506
I15
tp507
a(I14
I97
F-0.5
g132
I15
tp508
a(I14
I165
F-0.25
g136
I15
tp509
a(I14
I196
F0.375
g445
I15
tp510
a(I16
I12
F0.375
S'new'
p511
I15
tp512
a(I17
I64
F0.625
S'easy'
p513
I15
tp514
a(I17
I70
F-0.625
S'bad'
p515
I15
tp516
a(I17
I164
F-0.75
S'dead'
p517
I15
tp518
a(I17
I165
F-0.75
S'dead'
p519
I15
tp520
a(I17
I196
F-0.25
S'lowest'
p521
I15
tp522
a(I18
I13
I0
S'quick'
p523
I15
tp524
as(S'many'
p525
S'apps'
p526
tp527
(lp528
(I0
I46
I0
S'many'
p529
I0
tp530
a(I4
I71
I0
S'many'
p531
I0
tp532
a(I11
I29
F0.5
S'careful'
p533
I0
tp534
a(I11
I29
I0
S'many'
p535
I0
tp536
a(I11
I64
I0
S'many'
p537
I0
tp538
a(I11
I184
I0
S'many'
p539
I0
tp540
a(I11
I184
I0
S'many'
p541
I0
tp542
a(I12
I70
I0
S'many'
p543
I0
tp544
a(I13
I17
I0
S'many'
p545
I0
tp546
a(I13
I38
I0
S'useful'
p547
I0
tp548
a(I14
I130
I0
S'few'
p549
I0
tp550
a(I14
I216
I0
S'many'
p551
I0
tp552
a(I15
I3
I0
S'great'
p553
I0
tp554
a(I17
I152
I0
S'many'
p555
I0
tp556
a(I19
I4
I0
S'many'
p557
I0
tp558
a(I0
I34
I0
S'great'
p559
I0
tp560
a(I0
I34
I0
S'such'
p561
I0
tp562
a(I0
I46
I0
g529
I0
tp563
a(I0
I84
I0
S'few'
p564
I0
tp565
a(I0
I87
F-0.5
S'poor'
p566
I0
tp567
a(I1
I89
F-0.125
S'slow'
p568
I0
tp569
a(I4
I60
I0
S'internal'
p570
I0
tp571
a(I4
I60
F-0.625
S'free'
p572
I0
tp573
a(I4
I71
I0
g531
I0
tp574
a(I5
I47
I0
S'cool'
p575
I0
tp576
a(I5
I72
I0
S'internal'
p577
I0
tp578
a(I9
I40
I0
S'most'
p579
I0
tp580
a(I10
I44
I0
S'few'
p581
I0
tp582
a(I10
I119
F-0.375
S'small'
p583
I0
tp584
a(I10
I145
F0.375
S'new'
p585
I0
tp586
a(I10
I188
F-0.625
S'free'
p587
I0
tp588
a(I10
I188
F-0.625
S'other'
p589
I0
tp590
a(I10
I199
F-0.5
S'open'
p591
I0
tp592
a(I10
I258
I0
S'great'
p593
I0
tp594
a(I11
I29
F0.5
g533
I0
tp595
a(I11
I29
I0
g535
I0
tp596
a(I11
I31
F0.125
S'able'
p597
I0
tp598
a(I11
I64
I0
g537
I0
tp599
a(I11
I77
I0
S'few'
p600
I0
tp601
a(I11
I184
I0
g539
I0
tp602
a(I11
I184
I0
g541
I0
tp603
a(I11
I223
F-0.5
S'less'
p604
I0
tp605
a(I12
I21
F0.625
S'add'
p606
I0
tp607
a(I12
I21
I0
S'android'
p608
I0
tp609
a(I12
I69
I0
S'few'
p610
I0
tp611
a(I12
I70
I0
g543
I0
tp612
a(I12
I163
F-0.875
S'hard'
p613
I0
tp614
a(I12
I166
I0
S'most'
p615
I0
tp616
a(I12
I168
F0.375
S'meant'
p617
I0
tp618
a(I13
I17
I0
g545
I0
tp619
a(I13
I19
I0
S'specific'
p620
I0
tp621
a(I13
I38
I0
g547
I0
tp622
a(I14
I9
F0.75
S'due'
p623
I0
tp624
a(I14
I76
F0.875
S'music'
p625
I0
tp626
a(I14
I76
F0.375
S'specialized'
p627
I0
tp628
a(I14
I130
I0
g549
I0
tp629
a(I14
I183
F-0.5
S'weak'
p630
I0
tp631
a(I14
I216
I0
g551
I0
tp632
a(I15
I44
F-0.125
S'delete'
p633
I0
tp634
a(I16
I24
F0.375
S'working'
p635
I0
tp636
a(I16
I107
F0.375
S'available'
p637
I0
tp638
a(I16
I136
I0
S'close'
p639
I0
tp640
a(I16
I136
F-0.5
S'open'
p641
I0
tp642
a(I17
I17
I0
S'fast'
p643
I0
tp644
a(I17
I35
F-0.625
S'free'
p645
I0
tp646
a(I17
I152
I0
g555
I0
tp647
a(I17
I155
F-0.5
S'extinct'
p648
I0
tp649
a(I18
I13
I0
S'unnecessary'
p650
I0
tp651
a(I19
I2
I0
S'such'
p652
I0
tp653
a(I19
I4
I0
g557
I0
tp654
a(I19
I10
F0.375
S'extra'
p655
I0
tp656
as(g320
S'long'
p657
S'time'
p658
tp659
(lp660
(I0
I30
I0
S'current'
p661
I12
tp662
a(I1
I85
F-0.5
S'longer'
p663
I12
tp664
a(I2
I9
F-0.5
S'long'
p665
I12
tp666
a(I2
I9
F-0.125
S'mine'
p667
I12
tp668
a(I5
I16
F-0.5
S'long'
p669
I12
tp670
a(I5
I75
F-0.5
S'long'
p671
I12
tp672
a(I11
I125
F-0.5
S'long'
p673
I12
tp674
a(I12
I132
F-0.5
S'long'
p675
I12
tp676
as(S'android'
p677
tp678
(lp679
(I2
I36
F-0.5
S'regular'
p680
I0
tp681
a(I4
I7
F0.875
S'happy'
p682
I0
tp683
a(I4
I50
F0.625
S'acceptable'
p684
I0
tp685
a(I10
I248
F0.375
S'much'
p686
I0
tp687
a(I10
I254
F0.375
S'new'
p688
I0
tp689
a(I10
I261
F0.125
S'first'
p690
I0
tp691
a(I11
I18
F-0.625
S'free'
p692
I0
tp693
a(I11
I36
I0
S'physical'
p694
I0
tp695
a(I11
I178
I0
S'real'
p696
I0
tp697
a(I11
I240
I0
S'old'
p698
I0
tp699
a(I14
I85
F0.125
S'first'
p700
I0
tp701
a(I14
I86
F0.875
S'nice'
p702
I0
tp703
a(I14
I163
F1.0
S'better'
p704
I0
tp705
a(I14
I175
F0.375
S'much'
p706
I0
tp707
a(I14
I211
F0.125
S'solid'
p708
I0
tp709
a(I16
I112
F0.125
S'first'
p710
I0
tp711
a(I16
I140
F0.125
S'native'
p712
I0
tp713
a(I17
I79
F0.625
S'accessible'
p714
I0
tp715
a(I17
I98
F-0.625
S'free'
p716
I0
tp717
a(I17
I98
F0.5
S'functional'
p718
I0
tp719
as(S'voice'
p720
tp721
(lp722
(I0
I118
I0
S'human'
p723
I4
tp724
a(I16
I68
F0.125
S'enough'
p725
I4
tp726
as(S'smart'
p727
tp728
(lp729
(I0
I24
F0.125
S'first'
p730
I10
tp731
a(I10
I28
F-0.625
S'other'
p732
I10
tp733
a(I10
I43
F0.125
S'first'
p734
I10
tp735
a(I10
I48
F0.125
S'first'
p736
I10
tp737
a(I10
I61
F0.125
S'first'
p738
I10
tp739
a(I11
I15
F0.875
S'happy'
p740
I10
tp741
a(I12
I193
F0.5
S'second'
p742
I10
tp743
as(S'lg'
p744
S'optimus'
p745
S'slider'
p746
tp747
(lp748
(I8
I38
F-0.625
S'glad'
p749
I0
tp750
a(I12
I49
F-0.625
S'glad'
p751
I0
tp752
a(I12
I49
I0
S'great'
p753
I0
tp754
a(I5
I11
F-0.5
S'less'
p755
I0
tp756
a(I6
I12
F-0.625
S'glad'
p757
I0
tp758
a(I11
I183
F0.25
S'original'
p759
I0
tp760
a(I11
I193
F0.25
S'original'
p761
I0
tp762
a(I12
I49
I0
g753
I0
tp763
a(I12
I150
F0.625
S'positive'
p764
I0
tp765
a(I12
I151
F0.25
S'biggest'
p766
I0
tp767
a(I12
I151
F0.625
S'positive'
p768
I0
tp769
a(I16
I83
F0.375
S'early'
p770
I0
tp771
a(I17
I203
F1.0
S'better'
p772
I0
tp773
a(I8
I38
F-0.625
g749
I0
tp774
a(I12
I49
F-0.625
g751
I0
tp775
a(I12
I105
F-0.625
S'glad'
p776
I0
tp777
a(I15
I41
F0.5
S'clear'
p778
I0
tp779
a(I5
I11
F-0.5
g755
I0
tp780
a(I6
I6
F-0.375
S'robust'
p781
I0
tp782
a(I10
I29
F0.875
S'happy'
p783
I0
tp784
a(I10
I62
I0
S'physical'
p785
I0
tp786
a(I11
I211
I0
S'only'
p787
I0
tp788
a(I12
I49
I0
g753
I0
tp789
a(I12
I150
F0.625
g764
I0
tp790
a(I12
I229
F-0.375
S'smooth'
p791
I0
tp792
a(I14
I88
F0.375
S'new'
p793
I0
tp794
a(I16
I143
F-0.375
S'double'
p795
I0
tp796
a(I17
I158
F-0.125
S'present'
p797
I0
tp798
a(I17
I159
F-0.375
S'smooth'
p799
I0
tp800
a(I17
I178
F-0.625
S'bad'
p801
I0
tp802
a(I17
I189
F1.0
S'good'
p803
I0
tp804
a(I17
I203
F1.0
g772
I0
tp805
as(S'calls'
p806
tp807
(lp808
(I0
I84
F-0.125
S'slow'
p809
I0
tp810
a(I0
I125
I0
S'many'
p811
I0
tp812
a(I14
I70
F0.5
S'clearer'
p813
I0
tp814
a(I14
I135
I0
S'few'
p815
I0
tp816
a(I14
I135
F-0.25
S'dropped'
p817
I0
tp818
a(I16
I183
F0.75
S'receive'
p819
I0
tp820
a(I17
I27
I0
S'general'
p821
I0
tp822
a(I17
I27
I0
S'own'
p823
I0
tp824
as(S'amazon'
p825
tp826
(lp827
(I14
I104
I0
S'great'
p828
I13
tp829
a(I16
I228
F-0.5
S'sure'
p830
I13
tp831
as(S'on'
p832
S'optimus'
p833
S'v'
p834
tp835
(lp836
(I0
I12
I0
S'same'
p837
I0
tp838
a(I6
I12
F-0.625
g757
I0
tp839
a(I10
I162
F-0.5
S'regular'
p840
I0
tp841
a(I11
I170
F0.25
S'original'
p842
I0
tp843
a(I11
I178
F0.25
S'original'
p844
I0
tp845
a(I11
I183
F0.25
g759
I0
tp846
a(I11
I193
F0.25
g761
I0
tp847
a(I12
I151
F0.25
g766
I0
tp848
a(I12
I151
F0.625
g768
I0
tp849
a(I16
I76
F-0.875
S'worst'
p850
I0
tp851
a(I16
I80
F-0.25
S'past'
p852
I0
tp853
a(I0
I12
I0
g837
I0
tp854
a(I0
I84
F0.25
S'original'
p855
I0
tp856
a(I6
I12
F-0.625
g757
I0
tp857
a(I10
I162
F-0.5
g840
I0
tp858
a(I11
I170
F0.25
g842
I0
tp859
a(I11
I178
F0.25
g844
I0
tp860
a(I11
I183
F0.25
g759
I0
tp861
a(I11
I193
F0.25
g761
I0
tp862
a(I12
I151
F0.25
g766
I0
tp863
a(I12
I151
F0.625
g768
I0
tp864
a(I16
I65
F1.0
S'best'
p865
I0
tp866
a(I16
I76
F-0.875
g850
I0
tp867
a(I16
I80
F-0.25
g852
I0
tp868
a(I16
I88
F0.625
S'fair'
p869
I0
tp870
a(I16
I160
I0
S'great'
p871
I0
tp872
a(I0
I12
I0
g837
I0
tp873
a(I0
I84
F0.25
g855
I0
tp874
a(I6
I12
F-0.625
g757
I0
tp875
a(I10
I162
F-0.5
g840
I0
tp876
a(I11
I170
F0.25
g842
I0
tp877
a(I11
I178
F0.25
g844
I0
tp878
a(I11
I179
F0.25
S'original'
p879
I0
tp880
a(I11
I183
F0.25
g759
I0
tp881
a(I11
I193
F0.25
g761
I0
tp882
a(I11
I207
F0.5
S'compatible'
p883
I0
tp884
a(I12
I151
F0.25
g766
I0
tp885
a(I12
I151
F0.625
g768
I0
tp886
a(I14
I15
I0
S'old'
p887
I0
tp888
a(I14
I19
I0
S'old'
p889
I0
tp890
a(I15
I41
F0.5
g778
I0
tp891
a(I16
I80
F-0.25
g852
I0
tp892
a(I16
I83
F0.375
g770
I0
tp893
a(I16
I88
F0.625
g869
I0
tp894
as(S'text'
p895
S'messages'
p896
tp897
(lp898
(I1
I4
I0
S'few'
p899
I0
tp900
a(I10
I23
I0
S'text'
p901
I0
tp902
a(I16
I195
F0.75
S'receive'
p903
I0
tp904
a(I16
I216
I0
S'text'
p905
I0
tp906
a(I16
I249
F0.375
S'new'
p907
I0
tp908
a(I11
I78
F-0.375
S'simple'
p909
I18
tp910
a(I11
I202
F-0.75
S'short'
p911
I18
tp912
a(I16
I195
F0.75
g903
I18
tp913
a(I16
I197
F-0.75
S'single'
p914
I18
tp915
a(I16
I249
F0.375
g907
I18
tp916
a(I19
I7
I0
S'fast'
p917
I18
tp918
a(I1
I4
I0
g899
I1
tp919
a(I10
I23
I0
g901
I1
tp920
a(I11
I89
I0
S'more'
p921
I1
tp922
a(I16
I216
I0
g905
I1
tp923
as(S'data'
p924
tp925
(lp926
(I5
I49
I0
S'such'
p927
I13
tp928
a(I8
I27
I0
S'great'
p929
I13
tp930
a(I10
I18
F0.375
S'new'
p931
I13
tp932
a(I11
I230
F-0.625
S'free'
p933
I13
tp934
a(I12
I98
I0
S'signal'
p935
I13
tp936
a(I12
I104
F-0.625
S'glad'
p937
I13
tp938
a(I12
I104
F0.375
S'reliable'
p939
I13
tp940
a(I16
I149
F-0.125
S'slow'
p941
I13
tp942
a(I17
I68
I0
S'mobile'
p943
I13
tp944
as(S'smartphone'
p945
tp946
(lp947
(I1
I57
I0
S'basic'
p948
I0
tp949
a(I1
I78
I0
S'common'
p950
I0
tp951
a(I1
I82
F1.0
S'good'
p952
I0
tp953
a(I1
I98
I0
S'great'
p954
I0
tp955
a(I1
I98
F-0.75
S'little'
p956
I0
tp957
a(I2
I43
F-0.375
S'simple'
p958
I0
tp959
a(I2
I43
F0.625
S'easy'
p960
I0
tp961
a(I3
I59
F-0.625
S'other'
p962
I0
tp963
a(I7
I16
F0.125
S'first'
p964
I0
tp965
a(I10
I240
F0.125
S'first'
p966
I0
tp967
a(I10
I262
I0
S'great'
p968
I0
tp969
a(I10
I262
F0.375
S'new'
p970
I0
tp971
a(I11
I68
F0.125
S'first'
p972
I0
tp973
a(I12
I149
F0.125
S'first'
p974
I0
tp975
a(I13
I64
F0.125
S'first'
p976
I0
tp977
a(I14
I86
F-0.625
S'other'
p978
I0
tp979
a(I17
I53
F-0.25
S'modern'
p980
I0
tp981
a(I19
I0
F0.125
S'first'
p982
I0
tp983
as(S'micro'
p984
S'sd'
p985
S'card'
p986
tp987
(lp988
(I10
I80
F0.875
g380
I0
tp989
a(I12
I207
F0.25
S'larger'
p990
I0
tp991
as(S'on'
p992
S'sd'
p993
S'card'
p994
tp995
(lp996
(I4
I34
F0.125
g374
I0
tp997
a(I5
I70
I0
g376
I0
tp998
a(I9
I40
I0
g378
I0
tp999
a(I10
I80
F0.875
g380
I0
tp1000
a(I14
I130
F-0.625
g382
I0
tp1001
a(I19
I4
F0.375
g384
I0
tp1002
as(S'customer'
p1003
S'service'
p1004
tp1005
(lp1006
(I0
I118
F-0.875
S'awful'
p1007
I3
tp1008
a(I1
I56
F-0.875
S'hard'
p1009
I3
tp1010
a(I12
I98
F-0.5
S'poor'
p1011
I3
tp1012
a(I12
I125
I0
S'great'
p1013
I3
tp1014
a(I16
I172
I0
S'mobile'
p1015
I3
tp1016
a(I1
I56
F-0.875
g1009
I16
tp1017
a(I4
I62
I0
S'great'
p1018
I16
tp1019
a(I9
I40
F-0.5
S'poor'
p1020
I16
tp1021
a(I9
I40
F1.0
S'best'
p1022
I16
tp1023
a(I10
I17
I0
S'monthly'
p1024
I16
tp1025
a(I10
I170
I0
S'monthly'
p1026
I16
tp1027
a(I10
I177
I0
S'full'
p1028
I16
tp1029
a(I10
I185
I0
S'sprint'
p1030
I16
tp1031
a(I10
I236
I0
S'internet'
p1032
I16
tp1033
a(I15
I13
I0
S'different'
p1034
I16
tp1035
a(I16
I41
F0.875
S'happy'
p1036
I16
tp1037
a(I16
I172
I0
g1015
I16
tp1038
a(I17
I204
F0.375
S'new'
p1039
I16
tp1040
a(I0
I118
F-0.875
g1007
I11
tp1041
a(I12
I98
F-0.5
g1011
I11
tp1042
a(I12
I125
I0
g1013
I11
tp1043
a(I16
I12
F0.5
S'loyal'
p1044
I11
tp1045
a(I16
I189
I0
S'real'
p1046
I11
tp1047
as(S'wifi'
p1048
tp1049
(lp1050
(I11
I45
I0
S'great'
p1051
I0
tp1052
as(S'internal'
p1053
S'memory'
p1054
tp1055
(lp1056
(I0
I1
I0
S'more'
p1057
I0
tp1058
a(I0
I1
I0
S'internal'
p1059
I0
tp1060
a(I4
I60
F0.375
S'available'
p1061
I0
tp1062
a(I4
I60
F0.5
S'greater'
p1063
I0
tp1064
a(I4
I70
I0
S'internal'
p1065
I0
tp1066
a(I4
I70
F-0.375
S'small'
p1067
I0
tp1068
a(I5
I23
I0
S'internal'
p1069
I0
tp1070
a(I5
I23
I0
S'internal'
p1071
I0
tp1072
a(I5
I66
I0
S'internal'
p1073
I0
tp1074
a(I5
I67
I0
S'internal'
p1075
I0
tp1076
a(I5
I72
I0
S'internal'
p1077
I0
tp1078
a(I10
I127
I0
S'internal'
p1079
I0
tp1080
a(I10
I129
I0
S'internal'
p1081
I0
tp1082
a(I10
I130
I0
S'internal'
p1083
I0
tp1084
a(I11
I30
I0
S'internal'
p1085
I0
tp1086
a(I11
I31
I0
S'internal'
p1087
I0
tp1088
a(I11
I59
I0
S'more'
p1089
I0
tp1090
a(I11
I59
I0
S'internal'
p1091
I0
tp1092
a(I11
I119
I0
S'internal'
p1093
I0
tp1094
a(I11
I120
F-0.375
S'small'
p1095
I0
tp1096
a(I11
I120
I0
S'internal'
p1097
I0
tp1098
a(I11
I183
I0
S'internal'
p1099
I0
tp1100
a(I11
I222
I0
S'internal'
p1101
I0
tp1102
a(I11
I224
I0
S'internal'
p1103
I0
tp1104
a(I11
I224
F-0.5
S'less'
p1105
I0
tp1106
a(I12
I141
F-0.5
S'complaint'
p1107
I0
tp1108
a(I12
I141
I0
S'internal'
p1109
I0
tp1110
a(I12
I142
F-0.25
S'low'
p1111
I0
tp1112
a(I13
I69
I0
S'internal'
p1113
I0
tp1114
a(I14
I60
I0
S'internal'
p1115
I0
tp1116
a(I14
I61
I0
S'internal'
p1117
I0
tp1118
a(I14
I61
F0.375
S'much'
p1119
I0
tp1120
a(I14
I65
I0
S'internal'
p1121
I0
tp1122
a(I14
I84
I0
S'internal'
p1123
I0
tp1124
a(I14
I129
I0
S'internal'
p1125
I0
tp1126
a(I16
I146
I0
S'internal'
p1127
I0
tp1128
a(I17
I17
F-0.625
S'bad'
p1129
I0
tp1130
a(I17
I17
I0
S'internal'
p1131
I0
tp1132
a(I17
I18
I0
S'internal'
p1133
I0
tp1134
a(I17
I19
I0
S'internal'
p1135
I0
tp1136
a(I17
I19
F-0.625
S'free'
p1137
I0
tp1138
a(I17
I20
I0
S'internal'
p1139
I0
tp1140
a(I17
I23
I0
S'internal'
p1141
I0
tp1142
a(I17
I24
F-0.125
S'minimum'
p1143
I0
tp1144
a(I17
I24
F-0.625
S'free'
p1145
I0
tp1146
a(I17
I24
I0
S'internal'
p1147
I0
tp1148
a(I17
I108
I0
S'internal'
p1149
I0
tp1150
a(I17
I150
I0
S'internal'
p1151
I0
tp1152
a(I17
I152
I0
S'internal'
p1153
I0
tp1154
a(I17
I152
I0
S'internal'
p1155
I0
tp1156
a(I17
I153
I0
S'internal'
p1157
I0
tp1158
a(I17
I180
I0
S'internal'
p1159
I0
tp1160
a(I17
I198
I0
S'internal'
p1161
I0
tp1162
a(I19
I3
I0
S'internal'
p1163
I0
tp1164
a(I19
I9
I0
S'internal'
p1165
I0
tp1166
a(I19
I9
I0
S'most'
p1167
I0
tp1168
a(I0
I1
I0
g1057
I5
tp1169
a(I0
I1
I0
g1059
I5
tp1170
a(I0
I59
F-0.375
S'small'
p1171
I5
tp1172
a(I2
I24
I0
S'more'
p1173
I5
tp1174
a(I4
I46
F-0.25
S'low'
p1175
I5
tp1176
a(I4
I60
F0.375
g1061
I5
tp1177
a(I4
I60
F0.5
g1063
I5
tp1178
a(I4
I70
I0
g1065
I5
tp1179
a(I4
I70
F-0.375
g1067
I5
tp1180
a(I5
I23
I0
g1069
I5
tp1181
a(I5
I23
I0
g1071
I5
tp1182
a(I5
I66
I0
g1073
I5
tp1183
a(I5
I67
I0
g1075
I5
tp1184
a(I5
I72
I0
g1077
I5
tp1185
a(I8
I45
F0.125
S'last'
p1186
I5
tp1187
a(I8
I45
I0
S'least'
p1188
I5
tp1189
a(I10
I127
I0
g1079
I5
tp1190
a(I10
I129
I0
g1081
I5
tp1191
a(I10
I130
I0
g1083
I5
tp1192
a(I10
I131
F-0.25
S'low'
p1193
I5
tp1194
a(I10
I135
F0.25
S'larger'
p1195
I5
tp1196
a(I10
I215
F-0.25
S'low'
p1197
I5
tp1198
a(I11
I30
I0
g1085
I5
tp1199
a(I11
I31
I0
g1087
I5
tp1200
a(I11
I59
I0
g1089
I5
tp1201
a(I11
I59
I0
g1091
I5
tp1202
a(I11
I119
I0
g1093
I5
tp1203
a(I11
I120
F-0.375
g1095
I5
tp1204
a(I11
I120
I0
g1097
I5
tp1205
a(I11
I183
I0
g1099
I5
tp1206
a(I11
I222
I0
g1101
I5
tp1207
a(I11
I223
F-0.25
S'low'
p1208
I5
tp1209
a(I11
I224
I0
g1103
I5
tp1210
a(I11
I224
F-0.5
g1105
I5
tp1211
a(I11
I230
I0
S'more'
p1212
I5
tp1213
a(I12
I141
F-0.5
g1107
I5
tp1214
a(I12
I141
I0
g1109
I5
tp1215
a(I12
I142
F-0.25
g1111
I5
tp1216
a(I13
I69
I0
g1113
I5
tp1217
a(I14
I60
I0
g1115
I5
tp1218
a(I14
I61
I0
g1117
I5
tp1219
a(I14
I61
F0.375
g1119
I5
tp1220
a(I14
I65
I0
g1121
I5
tp1221
a(I14
I84
I0
g1123
I5
tp1222
a(I14
I129
I0
g1125
I5
tp1223
a(I14
I131
I0
S'full'
p1224
I5
tp1225
a(I16
I146
I0
g1127
I5
tp1226
a(I16
I150
I0
S'large'
p1227
I5
tp1228
a(I17
I17
F-0.625
g1129
I5
tp1229
a(I17
I17
I0
g1131
I5
tp1230
a(I17
I18
I0
g1133
I5
tp1231
a(I17
I19
I0
g1135
I5
tp1232
a(I17
I19
F-0.625
g1137
I5
tp1233
a(I17
I20
I0
g1139
I5
tp1234
a(I17
I23
I0
g1141
I5
tp1235
a(I17
I24
F-0.125
g1143
I5
tp1236
a(I17
I24
F-0.625
g1145
I5
tp1237
a(I17
I24
I0
g1147
I5
tp1238
a(I17
I41
I0
S'limited'
p1239
I5
tp1240
a(I17
I108
I0
g1149
I5
tp1241
a(I17
I150
I0
g1151
I5
tp1242
a(I17
I152
I0
g1153
I5
tp1243
a(I17
I152
I0
g1155
I5
tp1244
a(I17
I153
I0
g1157
I5
tp1245
a(I17
I180
I0
g1159
I5
tp1246
a(I17
I198
I0
g1161
I5
tp1247
a(I18
I20
I0
S'minimal'
p1248
I5
tp1249
a(I19
I3
I0
g1163
I5
tp1250
a(I19
I9
I0
g1165
I5
tp1251
a(I19
I9
I0
g1167
I5
tp1252
as(S'touch'
p1253
S'screen'
p1254
tp1255
(lp1256
(I0
I15
F1.0
S'good'
p1257
I2
tp1258
a(I0
I15
F0.5
S'touch'
p1259
I2
tp1260
a(I0
I15
F0.5
S'touch'
p1261
I2
tp1262
a(I0
I68
F0.5
S'touch'
p1263
I2
tp1264
a(I5
I33
F0.5
S'touch'
p1265
I2
tp1266
a(I5
I48
F0.5
S'touch'
p1267
I2
tp1268
a(I6
I13
F0.5
S'touch'
p1269
I2
tp1270
a(I10
I242
F0.5
S'touch'
p1271
I2
tp1272
a(I10
I243
F0.5
S'touch'
p1273
I2
tp1274
a(I11
I129
F1.0
S'good'
p1275
I2
tp1276
a(I11
I178
F0.5
S'touch'
p1277
I2
tp1278
a(I11
I202
F0.5
S'touch'
p1279
I2
tp1280
a(I14
I100
F0.5
S'touch'
p1281
I2
tp1282
a(I14
I100
F-0.375
S'smooth'
p1283
I2
tp1284
a(I14
I100
F0.25
S'responsive'
p1285
I2
tp1286
a(I16
I55
F0.5
S'touch'
p1287
I2
tp1288
a(I16
I55
F0.875
S'nice'
p1289
I2
tp1290
a(I16
I92
F0.5
S'touch'
p1291
I2
tp1292
as.