(dp0
(S'seller'
p1
tp2
(lp3
(I0
I15
I0
S'different'
p4
I19
tp5
a(I12
I20
F-0.636
S'genuine'
p6
I19
tp7
as(S'samsung'
p8
tp9
(lp10
(I1
I22
I0
S'next'
p11
I7
tp12
a(I1
I39
F0.25
S'original'
p13
I7
tp14
as(S'iphone'
p15
tp16
(lp17
(I10
I16
F0.375
S'new'
p18
I1
tp19
as(S'battery'
p20
tp21
(lp22
(I1
I39
F-0.75
S'dead'
p23
I15
tp24
a(I2
I1
F-0.375
S'wear'
p25
I15
tp26
a(I2
I1
F0.625
S'necessary'
p27
I15
tp28
a(I10
I5
F1.0
S'better'
p29
I15
tp30
a(I12
I23
F0.375
S'new'
p31
I15
tp32
a(I12
I36
F0.125
S'outside'
p33
I15
tp34
a(I12
I36
F0.375
S'extra'
p35
I15
tp36
as.