(dp0
(S'plan'
p1
tp2
(lp3
(I11
I5
I0
S'monthly'
p4
tp5
a(I68
I1
I0
S'monthly'
p6
tp7
a(I103
I5
F0.125
S'able'
p8
tp9
a(I172
I11
I0
S'monthly'
p10
tp11
a(I197
I20
F-0.25
S'low'
p12
tp13
a(I225
I23
F-0.5
S'sure'
p14
tp15
as(S't'
p16
S'customer'
p17
S'service'
p18
tp19
(lp20
(I21
I38
F1.0
S'good'
p21
tp22
a(I101
I13
F-0.375
S'sat'
p23
tp24
a(I127
I12
F0.875
S'happy'
p25
tp26
a(I227
I2
F1.0
S'good'
p27
tp28
as(S'battery'
p29
S'life'
p30
tp31
(lp32
(I9
I2
F-0.5
S'longer'
p33
tp34
a(I14
I2
I0
S'empty'
p35
tp36
a(I114
I5
F0.625
S'easier'
p37
tp38
a(I114
I5
I0
S'great'
p39
tp40
a(I125
I7
F0.125
S'last'
p41
tp42
a(I152
I3
F-0.5
S'less'
p43
tp44
a(I158
I2
F-0.5
S'less'
p45
tp46
a(I186
I0
F-0.75
S'short'
p47
tp48
as(S'problem'
p49
tp50
(lp51
(I12
I13
I0
S'id'
p52
tp53
a(I26
I2
I0
S'same'
p54
tp55
a(I51
I14
F0.625
S'easier'
p56
tp57
a(I56
I3
I0
S'only'
p58
tp59
a(I59
I3
F0.375
S'similar'
p60
tp61
a(I97
I4
F0.25
S'biggest'
p62
tp63
a(I101
I10
F0.875
S'nice'
p64
tp65
a(I104
I1
F0.25
S'biggest'
p66
tp67
a(I150
I1
I0
S'same'
p68
tp69
as(S'keyboard'
p70
tp71
(lp72
(I10
I6
F0.75
S'due'
p73
tp74
a(I10
I7
I0
S'handy'
p75
tp76
a(I17
I7
F0.625
S'easy'
p77
tp78
a(I24
I6
I0
S'faster'
p79
tp80
a(I40
I1
I0
S'physical'
p81
tp82
a(I43
I1
I0
S'physical'
p83
tp84
a(I49
I4
I0
S'real'
p85
tp86
a(I51
I13
F0.125
S'digital'
p87
tp88
a(I51
I14
F-0.5
S'sure'
p89
tp90
a(I51
I14
F-0.5
S'long'
p91
tp92
a(I56
I22
I0
S'real'
p93
tp94
a(I59
I0
F0.875
S'nice'
p95
tp96
a(I79
I12
F1.0
S'good'
p97
tp98
a(I80
I9
I0
S'full'
p99
tp100
a(I87
I19
I0
S'most'
p101
tp102
a(I87
I41
I0
S'supper'
p103
tp104
a(I87
I41
F0.625
S'easy'
p105
tp106
a(I101
I9
I0
S'most'
p107
tp108
a(I101
I10
I0
S'handy'
p109
tp110
a(I103
I6
I0
S'great'
p111
tp112
a(I134
I1
I0
S'full'
p113
tp114
a(I134
I1
I0
S'more'
p115
tp116
a(I174
I6
F1.0
S'good'
p117
tp118
a(I202
I3
F0.625
S'easy'
p119
tp120
a(I202
I3
F0.625
S'easy'
p121
tp122
a(I207
I0
F0.625
S'easy'
p123
tp124
a(I214
I15
I0
S'such'
p125
tp126
a(I223
I8
F0.375
S'much'
p127
tp128
a(I226
I2
F-0.375
S'smooth'
p129
tp130
a(I228
I1
I0
S'great'
p131
tp132
as(S'a'
p133
S'data'
p134
S'plan'
p135
tp136
(lp137
(I11
I5
I0
g4
tp138
a(I68
I1
I0
g6
tp139
a(I79
I6
F-0.5
S'sure'
p140
tp141
a(I142
I14
I0
S'more'
p142
tp143
a(I197
I20
F-0.25
g12
tp144
as(g133
S'great'
p145
S'deal'
p146
tp147
(lp148
(I20
I3
I0
S'great'
p149
tp150
a(I60
I4
I0
S'great'
p151
tp152
a(I74
I5
I0
S'great'
p153
tp154
a(I87
I6
I0
S'big'
p155
tp156
a(I108
I0
I0
S'great'
p157
tp158
a(I130
I1
I0
S'great'
p159
tp160
a(I200
I1
I0
S'great'
p161
tp162
a(I206
I3
I0
S'great'
p163
tp164
a(I207
I4
I0
S'great'
p165
tp166
a(I210
I0
I0
S'great'
p167
tp168
as(S'25'
p169
S'credit'
p170
tp171
(lp172
(I5
I2
I0
S'automatic'
p173
tp174
a(I28
I4
F0.25
S'helpful'
p175
tp176
a(I71
I19
I0
S'promotional'
p177
tp178
a(I99
I0
F0.375
S'new'
p179
tp180
a(I99
I1
I0
S'later'
p181
tp182
a(I101
I15
F0.5
S'told'
p183
tp184
a(I101
I20
F-0.625
S'other'
p185
tp186
a(I103
I13
F0.875
S'nice'
p187
tp188
a(I103
I13
F0.25
S'helpful'
p189
tp190
a(I103
I13
F-0.75
S'painless'
p191
tp192
a(I107
I3
F0.75
S'due'
p193
tp194
a(I107
I7
F0.125
S'able'
p195
tp196
a(I140
I4
F-0.625
S'free'
p197
tp198
a(I172
I4
F-0.125
S'mine'
p199
tp200
a(I176
I3
F-0.125
S'persistent'
p201
tp202
a(I221
I0
F-0.75
S'difficult'
p203
tp204
a(I221
I2
F0.375
S'available'
p205
tp206
a(I225
I2
F0.125
S'first'
p207
tp208
a(I225
I2
I0
S'least'
p209
tp210
as(S'text'
p211
tp212
(lp213
(I10
I7
F-0.5
S'long'
p214
tp215
a(I56
I1
F-0.375
S'small'
p216
tp217
a(I118
I3
F0.625
S'easy'
p218
tp219
as(S'seems'
p220
tp221
(lp222
(I49
I5
I0
S'more'
p223
tp224
a(I49
I5
F-0.125
S'complex'
p225
tp226
as(S'nice'
p227
tp228
(lp229
(I103
I22
F0.625
S'easy'
p230
tp231
a(I137
I2
F-0.375
S'simple'
p232
tp233
a(I155
I1
F0.625
S'easy'
p234
tp235
as(S'price'
p236
tp237
(lp238
(I3
I8
I0
S'great'
p239
tp240
a(I7
I3
F0.25
S'original'
p241
tp242
a(I13
I0
I0
S'same'
p243
tp244
a(I15
I2
I0
S'third'
p245
tp246
a(I17
I10
I0
S'great'
p247
tp248
a(I23
I6
F0.75
S'worth'
p249
tp250
a(I45
I1
I0
S'great'
p251
tp252
a(I45
I2
F0.625
S'acceptable'
p253
tp254
a(I51
I15
F1.0
S'good'
p255
tp256
a(I55
I1
I0
S'great'
p257
tp258
a(I55
I1
I0
S'great'
p259
tp260
a(I87
I37
F1.0
S'better'
p261
tp262
a(I87
I42
I0
S'full'
p263
tp264
a(I128
I13
F0.375
S'much'
p265
tp266
a(I128
I13
F-0.25
S'higher'
p267
tp268
a(I129
I6
F-0.25
S'google'
p269
tp270
a(I129
I6
F-0.25
S'cheaper'
p271
tp272
a(I136
I2
I0
S'great'
p273
tp274
a(I137
I5
I0
S'great'
p275
tp276
a(I179
I0
F-0.875
S'hard'
p277
tp278
a(I210
I3
I0
S'great'
p279
tp280
a(I218
I1
F1.0
S'good'
p281
tp282
a(I219
I2
I0
S'great'
p283
tp284
a(I223
I7
F0.375
S'much'
p285
tp286
a(I223
I7
F-0.25
S'higher'
p287
tp288
a(I223
I29
F-0.5
S'regular'
p289
tp290
a(I223
I29
F-0.625
S'bad'
p291
tp292
as(S'slide'
p293
S'out'
p294
S'keyboard'
p295
tp296
(lp297
(I24
I6
I0
g79
tp298
a(I51
I13
F0.125
g87
tp299
a(I51
I14
F-0.5
g89
tp300
a(I51
I14
F-0.5
g91
tp301
a(I103
I6
I0
g111
tp302
a(I174
I6
F1.0
g117
tp303
a(I186
I7
F-0.25
S'quit'
p304
tp305
a(I202
I3
F0.625
g119
tp306
a(I202
I3
F0.625
g121
tp307
a(I226
I2
F-0.375
g129
tp308
a(I228
I1
I0
g131
tp309
as(S'service'
p310
tp311
(lp312
(I21
I38
F1.0
g21
tp313
a(I31
I17
F-0.625
S'free'
p314
tp315
a(I31
I27
F-0.125
S'public'
p316
tp317
a(I65
I4
I0
S'great'
p318
tp319
a(I101
I13
F-0.375
g23
tp320
a(I167
I3
I0
S'great'
p321
tp322
a(I167
I3
F0.125
S'usual'
p323
tp324
a(I227
I2
F1.0
g27
tp325
as(S'everything'
p326
tp327
(lp328
(I79
I12
F0.5
S'so-so'
p329
tp330
a(I192
I4
F0.25
S'helpful'
p331
tp332
a(I213
I4
F0.5
S'clear'
p333
tp334
as(S'problems'
p335
tp336
(lp337
(I12
I18
F0.375
S'new'
p338
tp339
a(I87
I79
F0.5
S'strong'
p340
tp341
a(I87
I79
F0.125
S'key'
p342
tp343
a(I87
I79
F-0.625
S'other'
p344
tp345
as(S'getting'
p346
tp347
(lp348
(I3
I7
I0
S'quick'
p349
tp350
a(I127
I0
F-0.875
S'trouble'
p351
tp352
as(S'slide'
p353
tp354
(lp355
(I165
I3
I0
S'great'
p356
tp357
a(I186
I7
F-0.25
g304
tp358
as(S'number'
p359
tp360
(lp361
(I25
I4
F-0.875
S'negative'
p362
tp363
a(I69
I0
I0
S'old'
p364
tp365
a(I71
I3
I0
S'cellular'
p366
tp367
a(I127
I3
F-0.125
S'slow'
p368
tp369
a(I127
I10
I0
S'same'
p370
tp371
a(I142
I3
F0.375
S'new'
p372
tp373
a(I142
I7
F0.375
S'new'
p374
tp375
a(I197
I9
F0.5
S'possible'
p376
tp377
a(I197
I9
I0
S'old'
p378
tp379
a(I197
I12
I0
S'old'
p380
tp381
as(S'get'
p382
S'25'
p383
S'airtime'
p384
tp385
(lp386
(I4
I0
F-0.625
S'free'
p387
tp388
as(S'camera'
p389
tp390
(lp391
(I43
I1
F-0.375
S'picture'
p392
tp393
a(I43
I1
F0.625
S'removable'
p394
tp395
a(I71
I0
F0.875
S'nice'
p396
tp397
a(I71
I0
F-0.125
S'overall'
p398
tp399
a(I76
I2
F0.625
S'easy'
p400
tp401
a(I114
I8
F1.0
S'best'
p402
tp403
a(I114
I8
I0
S'handy'
p404
tp405
a(I206
I3
F-0.625
S'average'
p406
tp407
as(S'n'
p408
S'first'
p409
S'place'
p410
tp411
(lp412
(I31
I1
F0.125
S'first'
p413
tp414
a(I63
I10
F0.125
S'first'
p415
tp416
a(I63
I15
F0.125
S'first'
p417
tp418
a(I227
I10
F0.125
S'first'
p419
tp420
as(S'pantech'
p421
S'crossover'
p422
tp423
(lp424
(I47
I1
F0.5
S'second'
p425
tp426
a(I128
I2
F-0.5
S'heavy'
p427
tp428
as(S'get'
p429
S'25'
p430
S'credit'
p431
tp432
(lp433
(I28
I4
F0.25
g175
tp434
a(I99
I0
F0.375
g179
tp435
a(I99
I1
I0
g181
tp436
a(I101
I20
F-0.625
g185
tp437
a(I103
I13
F0.875
g187
tp438
a(I103
I13
F0.25
g189
tp439
a(I103
I13
F-0.75
g191
tp440
a(I176
I3
F-0.125
g201
tp441
as(S'airtime'
p442
S'credit'
p443
tp444
(lp445
(I5
I2
I0
g173
tp446
a(I98
I0
F-0.375
S'top'
p447
tp448
a(I99
I0
F0.375
g179
tp449
a(I99
I1
I0
g181
tp450
a(I138
I19
F-0.75
S'lost'
p451
tp452
a(I209
I1
F-0.625
S'free'
p453
tp454
a(I209
I1
F-0.625
S'free'
p455
tp456
a(I221
I0
F-0.75
g203
tp457
a(I221
I2
F0.375
g205
tp458
as(S'pantech'
p459
tp460
(lp461
(I47
I1
F0.5
g425
tp462
a(I174
I5
F0.625
S'easy'
p463
tp464
as(S'touch'
p465
tp466
(lp467
(I3
I7
F1.0
S'good'
p468
tp469
a(I67
I10
F0.25
S'responsive'
p470
tp471
a(I87
I6
I0
S'soft'
p472
tp473
as(S'with'
p474
S'25'
p475
S'airtime'
p476
tp477
(lp478
(I98
I0
F-0.375
g447
tp479
as(S'fine'
p480
tp481
(lp482
(I0
I5
F-0.625
S'other'
p483
tp484
a(I182
I3
I0
S'android'
p485
tp486
as(S'to'
p487
S'get'
p488
S'credit'
p489
tp490
(lp491
(I23
I6
F-0.5
S'hassle'
p492
tp493
a(I28
I4
F0.25
g175
tp494
a(I99
I0
F0.375
g179
tp495
a(I101
I20
F-0.625
g185
tp496
a(I103
I13
F0.875
g187
tp497
a(I103
I13
F0.25
g189
tp498
a(I103
I13
F-0.75
g191
tp499
a(I176
I3
F-0.125
g201
tp500
a(I209
I1
F-0.625
g455
tp501
as(S'purchase'
p502
g133
S'data'
p503
tp504
(lp505
(I142
I14
I0
g142
tp506
as(S'minutes'
p507
tp508
(lp509
(I23
I5
F0.625
S'hold'
p510
tp511
a(I23
I5
I0
S'few'
p512
tp513
a(I30
I3
F-0.625
S'free'
p514
tp515
a(I36
I5
I0
S'monthly'
p516
tp517
a(I68
I3
I0
S'many'
p518
tp519
a(I107
I5
I0
S'later'
p520
tp521
a(I107
I14
F0.625
S'perfect'
p522
tp523
a(I142
I11
F0.125
S'able'
p524
tp525
a(I144
I8
F0.625
S'hold'
p526
tp527
a(I144
I8
I0
S'later'
p528
tp529
as(S'right'
p530
tp531
(lp532
(I118
I6
I0
S'website'
p533
tp534
as(S'no'
p535
S'airtime'
p536
S'credit'
p537
tp538
(lp539
(I5
I2
I0
g173
tp540
a(I98
I0
F-0.375
g447
tp541
a(I99
I0
F0.375
g179
tp542
a(I209
I1
F-0.625
g453
tp543
a(I209
I1
F-0.625
g455
tp544
a(I221
I0
F-0.75
g203
tp545
a(I221
I2
F0.375
g205
tp546
as(S'for'
p547
S'25'
p548
S'credit'
p549
tp550
(lp551
(I99
I0
F0.375
g179
tp552
a(I101
I15
F0.5
g183
tp553
a(I172
I4
F-0.125
g199
tp554
a(I221
I2
F0.375
g205
tp555
a(I225
I2
F0.125
g207
tp556
a(I225
I2
I0
g209
tp557
as(S'crossover'
p558
tp559
(lp560
(I128
I2
F-0.5
g427
tp561
as(S'features'
p562
tp563
(lp564
(I76
I5
F0.25
S'sign'
p565
tp566
a(I81
I0
F1.0
S'good'
p567
tp568
a(I103
I9
F0.875
S'nice'
p569
tp570
a(I103
I17
I0
S'great'
p571
tp572
a(I127
I7
F0.625
S'easy'
p573
tp574
a(I127
I9
F-0.625
S'other'
p575
tp576
a(I128
I4
I0
S'more'
p577
tp578
a(I128
I4
I0
S'along'
p579
tp580
a(I134
I1
F1.0
S'good'
p581
tp582
a(I137
I2
F0.875
S'nice'
p583
tp584
a(I152
I1
F0.625
S'easy'
p585
tp586
a(I152
I1
I0
S'great'
p587
tp588
as(S'prepaid'
p589
tp590
(lp591
(I64
I2
I0
S'big'
p592
tp593
a(I64
I2
F-0.375
S'small'
p594
tp595
as(S'little'
p596
tp597
(lp598
(I83
I0
F1.0
S'good'
p599
tp600
as(S'people'
p601
tp602
(lp603
(I31
I17
I0
S'many'
p604
tp605
a(I52
I2
I0
S'many'
p606
tp607
a(I59
I3
I0
S'many'
p608
tp609
a(I64
I0
F-0.375
S'small'
p610
tp611
a(I107
I8
I0
S'many'
p612
tp613
a(I114
I15
I0
S'many'
p614
tp615
a(I164
I0
I0
S'few'
p616
tp617
a(I186
I25
F0.875
S'nice'
p618
tp619
a(I209
I0
I0
S'few'
p620
tp621
as(S'work'
p622
tp623
(lp624
(I93
I2
F0.125
S'solid'
p625
tp626
as(S'sd'
p627
S'card'
p628
tp629
(lp630
(I17
I13
F-0.125
S'future'
p631
tp632
a(I39
I6
F0.375
S'new'
p633
tp634
as(S'contract'
p635
tp636
(lp637
(I108
I6
I0
S'android'
p638
tp639
a(I144
I2
F0.375
S'new'
p640
tp641
as(S'android'
p642
tp643
(lp644
(I5
I1
I0
S'great'
p645
tp646
a(I11
I0
F1.0
S'best'
p647
tp648
a(I17
I6
F-0.25
S'google'
p649
tp650
a(I60
I0
F0.125
S'first'
p651
tp652
a(I61
I0
F0.125
S'first'
p653
tp654
a(I61
I1
F-0.75
S'little'
p655
tp656
a(I67
I22
F-0.625
S'other'
p657
tp658
a(I67
I22
F-0.75
S'little'
p659
tp660
a(I87
I72
F0.125
S'first'
p661
tp662
a(I108
I0
F0.125
S'first'
p663
tp664
a(I117
I1
F0.125
S'first'
p665
tp666
a(I171
I2
I0
S'same'
p667
tp668
a(I186
I0
I0
S'many'
p669
tp670
a(I186
I0
F-0.25
S'modern'
p671
tp672
a(I195
I1
I0
S'great'
p673
tp674
a(I205
I1
F0.125
S'last'
p675
tp676
a(I210
I1
F0.25
S'recent'
p677
tp678
a(I210
I1
F-0.25
S'thin'
p679
tp680
as(S'air'
p681
S'time'
p682
S'credit'
p683
tp684
(lp685
(I5
I2
I0
g173
tp686
a(I99
I0
F0.375
g179
tp687
a(I99
I1
I0
g181
tp688
a(I115
I1
F-0.75
S'little'
p689
tp690
a(I209
I1
F-0.625
g455
tp691
a(I221
I0
F-0.75
g203
tp692
a(I221
I2
F0.375
g205
tp693
as(S'month'
p694
tp695
(lp696
(I11
I6
I0
S'least'
p697
tp698
a(I75
I0
F0.375
S'new'
p699
tp700
a(I75
I0
F-0.625
S'other'
p701
tp702
a(I107
I7
F0.125
S'first'
p703
tp704
a(I197
I20
I0
S'least'
p705
tp706
a(I227
I1
F0.125
S'first'
p707
tp708
as(S'works'
p709
tp710
(lp711
(I2
I3
F0.5
S'drive'
p712
tp713
a(I12
I15
I0
S'cable'
p714
tp715
a(I12
I15
I0
S'great'
p716
tp717
a(I17
I14
I0
S'great'
p718
tp719
a(I32
I5
F1.0
S'good'
p720
tp721
a(I34
I0
I0
S'great'
p722
tp723
a(I62
I2
I0
S'cool'
p724
tp725
a(I62
I2
I0
S'great'
p726
tp727
a(I67
I14
F0.625
S'easy'
p728
tp729
a(I103
I8
I0
S'great'
p730
tp731
a(I103
I20
I0
S'great'
p732
tp733
a(I157
I5
I0
S'great'
p734
tp735
a(I214
I11
F-0.5
S'heavy'
p736
tp737
a(I221
I4
I0
S'great'
p738
tp739
as(S'gophone'
p740
tp741
(lp742
(I49
I9
I0
S'very'
p743
tp744
a(I49
I9
F0.25
S'helpful'
p745
tp746
a(I58
I2
I0
S'android'
p747
tp748
a(I79
I1
I0
S'current'
p749
tp750
a(I92
I0
I0
S'android'
p751
tp752
a(I127
I10
I0
S'great'
p753
tp754
a(I128
I13
I0
S'particular'
p755
tp756
a(I154
I0
F0.25
S'original'
p757
tp758
a(I183
I3
I0
S'own'
p759
tp760
a(I220
I9
I0
S'great'
p761
tp762
a(I220
I9
F0.125
S'solid'
p763
tp764
as(g133
S'car'
p765
S'charger'
p766
tp767
(lp768
(I180
I1
F0.875
S'nice'
p769
tp770
a(I193
I11
F-0.625
S'wall'
p771
tp772
a(I214
I15
F-0.625
S'wall'
p773
tp774
as(S'account'
p775
tp776
(lp777
(I7
I1
F0.375
S'new'
p778
tp779
a(I49
I7
I0
S'appear'
p780
tp781
a(I87
I67
F-0.25
S'google'
p782
tp783
a(I99
I7
I0
S'e-mail'
p784
tp785
a(I227
I1
F-0.625
S'other'
p786
tp787
as(S'back'
p788
tp789
(lp790
(I67
I2
I0
S'awhile'
p791
tp792
a(I214
I15
I0
S'current'
p793
tp794
as(S'battery'
p795
tp796
(lp797
(I9
I2
F-0.5
g33
tp798
a(I14
I2
I0
g35
tp799
a(I30
I7
F-0.5
S'flimsy'
p800
tp801
a(I67
I21
F-0.5
S'certain'
p802
tp803
a(I67
I21
F0.125
S'last'
p804
tp805
a(I156
I1
F-0.5
S'long'
p806
tp807
a(I156
I2
F-0.625
S'bad'
p808
tp809
a(I170
I0
F0.125
S'last'
p810
tp811
a(I174
I2
F-0.25
S'loose'
p812
tp813
a(I174
I2
F0.375
S'tight'
p814
tp815
a(I174
I2
F-0.375
S'top'
p816
tp817
a(I186
I0
F-0.75
g47
tp818
a(I214
I9
I0
S'full'
p819
tp820
a(I214
I9
F-0.625
S'generous'
p821
tp822
a(I223
I18
I0
S'term'
p823
tp824
as(S'smart'
p825
tp826
(lp827
(I0
I5
F0.125
S'first'
p828
tp829
a(I0
I12
I0
S'many'
p830
tp831
a(I2
I9
F0.125
S'first'
p832
tp833
a(I13
I5
F0.375
S'newer'
p834
tp835
a(I36
I1
F0.125
S'first'
p836
tp837
a(I41
I1
I0
S'only'
p838
tp839
a(I56
I6
F0.375
S'new'
p840
tp841
a(I76
I0
F0.125
S'first'
p842
tp843
a(I87
I19
I0
S'android'
p844
tp845
a(I87
I41
F1.0
S'good'
p846
tp847
a(I87
I44
F-0.375
S'fanciest'
p848
tp849
a(I112
I0
F-0.625
S'other'
p850
tp851
a(I112
I0
I0
S'android'
p852
tp853
a(I122
I1
I0
S'fastest'
p854
tp855
as(S'25'
p856
S'air'
p857
S'time'
p858
tp859
(lp860
(I17
I20
F-0.625
S'free'
p861
tp862
a(I58
I2
F-0.875
S'hard'
p863
tp864
a(I58
I2
F-0.625
S'free'
p865
tp866
a(I153
I2
I0
S'next'
p867
tp868
as(S'came'
p869
tp870
(lp871
(I206
I2
F-0.125
S'slow'
p872
tp873
as(S'airtime'
p874
tp875
(lp876
(I4
I0
F-0.625
g387
tp877
a(I18
I2
F0.125
S'able'
p878
tp879
a(I49
I6
F0.875
S'attractive'
p880
tp881
a(I49
I6
F-0.75
S'difficult'
p882
tp883
a(I98
I0
F-0.375
g447
tp884
a(I138
I19
F-0.75
g451
tp885
a(I200
I1
F-0.625
S'free'
p886
tp887
a(I209
I1
F-0.625
g453
tp888
as(S'calls'
p889
tp890
(lp891
(I30
I3
F-0.625
S'free'
p892
tp893
a(I54
I2
I0
S'few'
p894
tp895
a(I176
I11
F-0.625
S'free'
p896
tp897
a(I214
I7
I0
S'crystal'
p898
tp899
a(I214
I7
F0.5
S'clear'
p900
tp901
a(I214
I7
F0.5
S'clear'
p902
tp903
as(S'credit'
p904
tp905
(lp906
(I5
I2
I0
g173
tp907
a(I11
I3
F0.125
S'first'
p908
tp909
a(I23
I4
F0.125
S'first'
p910
tp911
a(I23
I4
F0.125
S'able'
p912
tp913
a(I23
I6
F-0.5
g492
tp914
a(I28
I4
F0.25
g175
tp915
a(I52
I8
F0.875
S'happy'
p916
tp917
a(I71
I9
F-0.625
S'free'
p918
tp919
a(I71
I19
I0
g177
tp920
a(I78
I2
F-0.5
S'longer'
p921
tp922
a(I99
I0
F0.375
g179
tp923
a(I99
I1
I0
g181
tp924
a(I101
I15
F0.5
g183
tp925
a(I101
I20
F-0.625
g185
tp926
a(I101
I32
F0.125
S'received'
p927
tp928
a(I103
I13
F0.875
g187
tp929
a(I103
I13
F0.25
g189
tp930
a(I103
I13
F-0.75
g191
tp931
a(I107
I3
F0.75
g193
tp932
a(I107
I7
F0.125
g195
tp933
a(I140
I4
F-0.625
g197
tp934
a(I172
I4
F-0.125
g199
tp935
a(I176
I3
F-0.125
g201
tp936
a(I209
I1
F-0.625
g455
tp937
a(I221
I0
F-0.75
g203
tp938
a(I221
I2
F0.375
g205
tp939
a(I225
I2
F0.125
g207
tp940
a(I225
I2
I0
g209
tp941
as(S'sim'
p942
S'card'
p943
tp944
(lp945
(I30
I16
F0.375
S'new'
p946
tp947
a(I38
I4
I0
S'great'
p948
tp949
a(I69
I0
F-0.625
S'other'
p950
tp951
a(I80
I13
F-0.5
S'sure'
p952
tp953
a(I104
I3
F0.625
S'easy'
p954
tp955
a(I124
I4
F0.625
S'accessible'
p956
tp957
a(I124
I11
F1.0
S'good'
p958
tp959
a(I127
I10
F0.375
S'new'
p960
tp961
a(I223
I23
I0
S'total'
p962
tp963
a(I223
I23
I0
S'internal'
p964
tp965
a(I223
I23
F0.5
S'drive'
p966
tp967
as(S'update'
p968
tp969
(lp970
(I83
I6
F-0.625
S'free'
p971
tp972
a(I132
I1
I0
S'android'
p973
tp974
as(S'device'
p975
tp976
(lp977
(I31
I4
F-0.375
S'small'
p978
tp979
a(I31
I4
F-0.375
S'small'
p980
tp981
a(I31
I6
F0.5
S'personal'
p982
tp983
a(I31
I9
F-0.25
S'cheap'
p984
tp985
a(I31
I9
F0.625
S'easy'
p986
tp987
a(I31
I34
I0
S'mobile'
p988
tp989
a(I86
I0
F-0.75
S'little'
p990
tp991
a(I129
I0
F0.25
S'suppose'
p992
tp993
a(I169
I3
F0.625
S'easy'
p994
tp995
a(I193
I1
F-0.375
S'small'
p996
tp997
a(I214
I20
F0.5
S'thankful'
p998
tp999
a(I220
I1
I0
S'android'
p1000
tp1001
a(I220
I1
F0.125
S'rugged'
p1002
tp1003
as(g133
S'25'
p1004
S'credit'
p1005
tp1006
(lp1007
(I5
I2
I0
g173
tp1008
a(I28
I4
F0.25
g175
tp1009
a(I71
I19
I0
g177
tp1010
a(I99
I0
F0.375
g179
tp1011
a(I99
I1
I0
g181
tp1012
a(I101
I15
F0.5
g183
tp1013
a(I101
I20
F-0.625
g185
tp1014
a(I103
I13
F0.875
g187
tp1015
a(I103
I13
F0.25
g189
tp1016
a(I103
I13
F-0.75
g191
tp1017
a(I107
I3
F0.75
g193
tp1018
a(I107
I7
F0.125
g195
tp1019
a(I140
I4
F-0.625
g197
tp1020
a(I172
I4
F-0.125
g199
tp1021
a(I176
I3
F-0.125
g201
tp1022
a(I221
I0
F-0.75
g203
tp1023
a(I221
I2
F0.375
g205
tp1024
a(I225
I2
F0.125
g207
tp1025
a(I225
I2
I0
g209
tp1026
as(S'great'
p1027
S'deal'
p1028
tp1029
(lp1030
(I20
I3
I0
g149
tp1031
a(I60
I4
I0
g151
tp1032
a(I74
I5
I0
g153
tp1033
a(I87
I6
I0
g155
tp1034
a(I108
I0
I0
g157
tp1035
a(I130
I1
I0
g159
tp1036
a(I200
I1
I0
g161
tp1037
a(I206
I3
I0
g163
tp1038
a(I207
I4
I0
g165
tp1039
a(I210
I0
I0
g167
tp1040
as(S'call'
p1041
tp1042
(lp1043
(I0
I11
I0
S'same'
p1044
tp1045
a(I0
I11
F-0.25
S'hanging'
p1046
tp1047
a(I11
I6
F-0.625
S'free'
p1048
tp1049
a(I11
I6
F-0.625
S'free'
p1050
tp1051
a(I47
I1
I0
S'android'
p1052
tp1053
a(I49
I8
F0.125
S'first'
p1054
tp1055
a(I49
I9
F0.5
S'second'
p1056
tp1057
a(I56
I13
F-0.5
S'actual'
p1058
tp1059
a(I78
I4
F-0.75
S'incorrect'
p1060
tp1061
as(S'bought'
p1062
tp1063
(lp1064
(I177
I0
I0
S'mobile'
p1065
tp1066
as(S'customer'
p1067
tp1068
(lp1069
(I127
I12
F0.875
g25
tp1070
a(I227
I10
F0.375
S'new'
p1071
tp1072
as(S'on'
p1073
S'google'
p1074
S'play'
p1075
tp1076
(lp1077
(I51
I10
F-0.25
S'google'
p1078
tp1079
a(I78
I7
F-0.25
S'google'
p1080
tp1081
a(I99
I6
F-0.25
S'google'
p1082
tp1083
as(S'call'
p1084
S'me'
p1085
S'back'
p1086
tp1087
(lp1088
(I11
I6
F-0.625
g1048
tp1089
a(I11
I6
F-0.625
g1050
tp1090
as(S'air'
p1091
S'time'
p1092
tp1093
(lp1094
(I0
I12
F0.5
S'second'
p1095
tp1096
a(I17
I20
F-0.625
g861
tp1097
a(I58
I2
F-0.875
g863
tp1098
a(I58
I2
F-0.625
g865
tp1099
a(I115
I1
F-0.75
g689
tp1100
a(I147
I1
I0
S'prepaid'
p1101
tp1102
a(I153
I2
I0
g867
tp1103
as(S'screen'
p1104
tp1105
(lp1106
(I0
I6
F0.5
S'touch'
p1107
tp1108
a(I0
I12
I0
S'few'
p1109
tp1110
a(I0
I12
F-0.625
S'other'
p1111
tp1112
a(I2
I9
F-0.375
S'small'
p1113
tp1114
a(I7
I2
I0
S'most'
p1115
tp1116
a(I7
I2
F0.5
S'touch'
p1117
tp1118
a(I24
I2
I0
S'only'
p1119
tp1120
a(I24
I2
F-0.875
S'negative'
p1121
tp1122
a(I31
I34
I0
S'large'
p1123
tp1124
a(I31
I36
F0.5
S'drive'
p1125
tp1126
a(I48
I1
F0.25
S'main'
p1127
tp1128
a(I51
I13
F-0.375
S'small'
p1129
tp1130
a(I73
I3
F0.5
S'touch'
p1131
tp1132
a(I73
I3
I0
S'sensitive'
p1133
tp1134
a(I74
I2
F0.25
S'responsive'
p1135
tp1136
a(I79
I14
F-0.875
S'trouble'
p1137
tp1138
a(I79
I14
F0.5
S'touch'
p1139
tp1140
a(I87
I7
F-0.75
S'bright'
p1141
tp1142
a(I89
I0
F0.5
S'touch'
p1143
tp1144
a(I89
I0
F-0.375
S'smooth'
p1145
tp1146
a(I99
I4
I0
S'more'
p1147
tp1148
a(I101
I9
F0.5
S'touch'
p1149
tp1150
a(I103
I6
F0.875
S'nice'
p1151
tp1152
a(I118
I2
F0.25
S'responsive'
p1153
tp1154
a(I125
I7
I0
S'capacitive'
p1155
tp1156
a(I125
I7
F-0.75
S'unresponsive'
p1157
tp1158
a(I128
I2
F0.5
S'awkward'
p1159
tp1160
a(I128
I2
I0
S'large'
p1161
tp1162
a(I129
I1
F0.5
S'touch'
p1163
tp1164
a(I136
I2
F0.5
S'clear'
p1165
tp1166
a(I136
I2
I0
S'full'
p1167
tp1168
a(I144
I5
F-0.875
S'awful'
p1169
tp1170
a(I144
I5
I0
S'great'
p1171
tp1172
a(I146
I0
F-0.375
S'small'
p1173
tp1174
a(I162
I0
I0
S'sensitive'
p1175
tp1176
a(I165
I3
F0.5
S'strong'
p1177
tp1178
a(I171
I1
F0.625
S'easy'
p1179
tp1180
a(I174
I7
F1.0
S'better'
p1181
tp1182
a(I176
I4
I0
S'big'
p1183
tp1184
a(I186
I0
F-0.667
S'incompatible'
p1185
tp1186
a(I186
I3
F-0.375
S'small'
p1187
tp1188
a(I186
I3
F0.625
S'easy'
p1189
tp1190
a(I186
I3
F0.25
S'forgive'
p1191
tp1192
a(I192
I13
F0.5
S'touch'
p1193
tp1194
a(I193
I13
F0.25
S'bigger'
p1195
tp1196
a(I196
I1
F-0.375
S'black'
p1197
tp1198
a(I210
I2
F-0.375
S'small'
p1199
tp1200
a(I211
I0
F-0.75
S'unresponsive'
p1201
tp1202
a(I214
I2
F0.5
S'touch'
p1203
tp1204
a(I214
I14
F0.875
S'nice'
p1205
tp1206
a(I214
I15
I0
S'most'
p1207
tp1208
a(I220
I2
F0.125
S'impressive'
p1209
tp1210
a(I223
I19
F0.25
S'responsive'
p1211
tp1212
a(I223
I19
F1.0
S'best'
p1213
tp1214
a(I226
I3
F0.25
S'responsive'
p1215
tp1216
as(S'time'
p1217
tp1218
(lp1219
(I0
I12
F0.5
g1095
tp1220
a(I8
I2
F0.125
S'first'
p1221
tp1222
a(I17
I20
F-0.625
g861
tp1223
a(I38
I0
F-0.5
S'long'
p1224
tp1225
a(I50
I4
F0.5
S'second'
p1226
tp1227
a(I56
I8
F-0.875
S'hard'
p1228
tp1229
a(I58
I2
F-0.875
g863
tp1230
a(I67
I11
I0
S'same'
p1231
tp1232
a(I70
I6
F0.125
S'first'
p1233
tp1234
a(I71
I13
F0.125
S'last'
p1235
tp1236
a(I84
I1
I0
S'anymore'
p1237
tp1238
a(I87
I29
F0.375
S'mean'
p1239
tp1240
a(I87
I60
F-0.5
S'sure'
p1241
tp1242
a(I87
I69
F0.125
S'first'
p1243
tp1244
a(I99
I2
I0
S'same'
p1245
tp1246
a(I101
I21
I0
S'same'
p1247
tp1248
a(I101
I23
I0
S'more'
p1249
tp1250
a(I101
I28
F0.125
S'first'
p1251
tp1252
a(I115
I1
F-0.75
g689
tp1253
a(I128
I10
F0.375
S'mean'
p1254
tp1255
a(I133
I0
F-0.5
S'long'
p1256
tp1257
a(I142
I1
I0
S'same'
p1258
tp1259
a(I142
I13
I0
S'text'
p1260
tp1261
a(I153
I2
I0
g867
tp1262
a(I153
I5
I0
S'same'
p1263
tp1264
a(I171
I4
F0.375
S'extra'
p1265
tp1266
a(I183
I2
F0.5
S'elegant'
p1267
tp1268
a(I183
I2
I0
S'same'
p1269
tp1270
a(I203
I1
I0
S'such'
p1271
tp1272
a(I203
I3
I0
S'initial'
p1273
tp1274
a(I225
I20
F-0.75
S'lost'
p1275
tp1276
as(S'25'
p1277
S'airtime'
p1278
tp1279
(lp1280
(I4
I0
F-0.625
g387
tp1281
a(I49
I6
F0.875
g880
tp1282
a(I49
I6
F-0.75
g882
tp1283
a(I98
I0
F-0.375
g447
tp1284
as(S'data'
p1285
tp1286
(lp1287
(I78
I13
F-0.5
S'sure'
p1288
tp1289
a(I79
I6
F-0.5
g140
tp1290
a(I81
I7
F-0.5
S'unlimited'
p1291
tp1292
a(I142
I14
I0
g142
tp1293
a(I142
I20
I0
S'minimal'
p1294
tp1295
as(S'smartphone'
p1296
tp1297
(lp1298
(I10
I14
I0
S'old'
p1299
tp1300
a(I20
I3
I0
S'great'
p1301
tp1302
a(I86
I2
F0.125
S'first'
p1303
tp1304
a(I179
I0
F0.125
S'first'
p1305
tp1306
a(I186
I2
F0.125
S'first'
p1307
tp1308
a(I190
I1
F0.125
S'first'
p1309
tp1310
a(I190
I1
F0.625
S'easy'
p1311
tp1312
a(I190
I1
F0.5
S'high-tech'
p1313
tp1314
a(I207
I0
F-0.625
S'other'
p1315
tp1316
a(I208
I0
F0.125
S'first'
p1317
tp1318
a(I208
I0
I0
S'great'
p1319
tp1320
a(I214
I19
F0.375
S'new'
p1321
tp1322
as(S'card'
p1323
tp1324
(lp1325
(I17
I13
F-0.125
g631
tp1326
a(I17
I19
I0
S'active'
p1327
tp1328
a(I38
I4
I0
g948
tp1329
a(I45
I2
F0.875
S'nice'
p1330
tp1331
a(I46
I0
F-0.625
S'free'
p1332
tp1333
a(I104
I3
F0.625
g954
tp1334
a(I124
I4
F0.625
g956
tp1335
a(I124
I11
F1.0
g958
tp1336
a(I223
I23
I0
g962
tp1337
a(I223
I23
I0
g964
tp1338
a(I223
I23
F0.5
g966
tp1339
as(S'25'
p1340
S'airtime'
p1341
S'credit'
p1342
tp1343
(lp1344
(I5
I2
I0
g173
tp1345
a(I98
I0
F-0.375
g447
tp1346
a(I99
I0
F0.375
g179
tp1347
a(I99
I1
I0
g181
tp1348
a(I221
I0
F-0.75
g203
tp1349
a(I221
I2
F0.375
g205
tp1350
as(S'data'
p1351
S'plan'
p1352
tp1353
(lp1354
(I11
I5
I0
g4
tp1355
a(I68
I1
I0
g6
tp1356
a(I79
I6
F-0.5
g140
tp1357
a(I142
I14
I0
g142
tp1358
a(I197
I20
F-0.25
g12
tp1359
as(S'customer'
p1360
S'service'
p1361
tp1362
(lp1363
(I21
I38
F1.0
g21
tp1364
a(I101
I13
F-0.375
g23
tp1365
a(I127
I12
F0.875
g25
tp1366
a(I227
I2
F1.0
g27
tp1367
as(S'wifi'
p1368
tp1369
(lp1370
(I31
I11
I0
S'residential'
p1371
tp1372
a(I31
I34
I0
S'mobile'
p1373
tp1374
a(I36
I11
F-0.5
S'unavailable'
p1375
tp1376
a(I87
I1
F0.125
S'able'
p1377
tp1378
a(I99
I3
F-0.625
S'free'
p1379
tp1380
a(I103
I2
F-0.625
S'other'
p1381
tp1382
a(I104
I2
F0.375
S'enable'
p1383
tp1384
a(I108
I3
F0.125
S'able'
p1385
tp1386
as(S'deal'
p1387
tp1388
(lp1389
(I7
I3
F1.0
S'good'
p1390
tp1391
a(I20
I3
I0
g149
tp1392
a(I28
I4
I0
S'big'
p1393
tp1394
a(I41
I0
F1.0
S'best'
p1395
tp1396
a(I58
I0
F1.0
S'good'
p1397
tp1398
a(I60
I4
I0
g151
tp1399
a(I71
I0
F1.0
S'good'
p1400
tp1401
a(I74
I5
I0
g153
tp1402
a(I87
I6
I0
g155
tp1403
a(I102
I8
F-0.625
S'bad'
p1404
tp1405
a(I108
I0
I0
g157
tp1406
a(I130
I1
I0
g159
tp1407
a(I200
I1
I0
g161
tp1408
a(I203
I6
F1.0
S'good'
p1409
tp1410
a(I206
I3
I0
g163
tp1411
a(I207
I4
I0
g165
tp1412
a(I210
I0
I0
g167
tp1413
as(S'apps'
p1414
tp1415
(lp1416
(I1
I5
I0
S'few'
p1417
tp1418
a(I10
I11
F0.5
S'compatible'
p1419
tp1420
a(I10
I11
I0
S'most'
p1421
tp1422
a(I10
I11
F-0.25
S'modern'
p1423
tp1424
a(I10
I15
I0
S'such'
p1425
tp1426
a(I10
I21
I0
S'more'
p1427
tp1428
a(I18
I7
I0
S'android'
p1429
tp1430
a(I18
I8
I0
S'many'
p1431
tp1432
a(I31
I15
F0.25
S'related'
p1433
tp1434
a(I67
I11
I0
S'such'
p1435
tp1436
a(I67
I15
F-0.625
S'free'
p1437
tp1438
a(I67
I15
F0.375
S'available'
p1439
tp1440
a(I78
I8
F-0.625
S'bad'
p1441
tp1442
a(I103
I9
I0
S'android'
p1443
tp1444
a(I114
I2
I0
S'many'
p1445
tp1446
a(I121
I2
I0
S'android'
p1447
tp1448
a(I122
I2
I0
S'few'
p1449
tp1450
a(I122
I2
F0.125
S'able'
p1451
tp1452
a(I125
I5
F0.125
S'able'
p1453
tp1454
a(I125
I5
I0
S'many'
p1455
tp1456
a(I165
I2
F-0.625
S'other'
p1457
tp1458
a(I176
I5
F-0.625
S'free'
p1459
tp1460
a(I176
I5
I0
S'such'
p1461
tp1462
a(I176
I8
F0.375
S'available'
p1463
tp1464
a(I176
I8
F-0.625
S'free'
p1465
tp1466
a(I215
I1
F0.625
S'easy'
p1467
tp1468
a(I215
I1
I0
S'great'
p1469
tp1470
a(I217
I2
I0
S'many'
p1471
tp1472
a(I220
I6
F-0.375
S'simple'
p1473
tp1474
as(S'days'
p1475
tp1476
(lp1477
(I35
I0
F0.125
S'first'
p1478
tp1479
a(I74
I3
I0
S'few'
p1480
tp1481
a(I87
I39
I0
S'update'
p1482
tp1483
a(I99
I0
I0
S'few'
p1484
tp1485
a(I101
I14
I0
S'later'
p1486
tp1487
a(I101
I19
I0
S'more'
p1488
tp1489
a(I101
I20
I0
S'later'
p1490
tp1491
a(I101
I33
I0
S'later'
p1492
tp1493
a(I144
I11
F0.875
S'happy'
p1494
tp1495
a(I193
I0
I0
S'few'
p1496
tp1497
a(I193
I10
I0
S'later'
p1498
tp1499
a(I197
I2
I0
S'later'
p1500
tp1501
a(I225
I3
I0
S'few'
p1502
tp1503
as(S'touch'
p1504
S'screen'
p1505
tp1506
(lp1507
(I0
I6
F0.5
g1107
tp1508
a(I0
I12
I0
g1109
tp1509
a(I0
I12
F-0.625
g1111
tp1510
a(I3
I7
F1.0
g468
tp1511
a(I7
I2
I0
g1115
tp1512
a(I7
I2
F0.5
g1117
tp1513
a(I67
I10
F0.25
g470
tp1514
a(I73
I3
F0.5
g1131
tp1515
a(I73
I3
I0
g1133
tp1516
a(I74
I2
F0.25
g1135
tp1517
a(I79
I14
F-0.875
g1137
tp1518
a(I79
I14
F0.5
g1139
tp1519
a(I89
I0
F0.5
g1143
tp1520
a(I89
I0
F-0.375
g1145
tp1521
a(I101
I9
F0.5
g1149
tp1522
a(I118
I2
F0.25
g1153
tp1523
a(I129
I1
F0.5
g1163
tp1524
a(I144
I5
F-0.875
g1169
tp1525
a(I144
I5
I0
g1171
tp1526
a(I192
I13
F0.5
g1193
tp1527
a(I214
I2
F0.5
g1203
tp1528
as(S'every'
p1529
tp1530
(lp1531
(I152
I7
F-0.625
S'other'
p1532
tp1533
as.