(dp0
(S'battery'
p1
S'life'
p2
tp3
(lp4
(I0
I6
F1.0
S'good'
p5
I1
tp6
a(I0
I8
F-0.75
S'short'
p7
I1
tp8
a(I0
I9
F-0.75
S'short'
p9
I1
tp10
a(I0
I12
F-0.25
S'past'
p11
I1
tp12
a(I0
I76
F0.375
S'new'
p13
I1
tp14
a(I5
I0
I0
S'great'
p15
I1
tp16
a(I6
I2
F-0.5
S'unimpressive'
p17
I1
tp18
a(I9
I48
F1.0
S'good'
p19
I1
tp20
a(I9
I71
F1.0
S'good'
p21
I1
tp22
a(I0
I6
F1.0
g5
I19
tp23
a(I0
I8
F-0.75
g7
I19
tp24
a(I0
I12
F-0.25
g11
I19
tp25
a(I6
I2
F-0.5
g17
I19
tp26
a(I9
I71
F1.0
g21
I19
tp27
a(I0
I7
F0.375
S'new'
p28
I15
tp29
a(I0
I9
F-0.75
g9
I15
tp30
a(I0
I76
F0.375
g13
I15
tp31
a(I5
I0
I0
g15
I15
tp32
a(I6
I17
F0.375
S'reliable'
p33
I15
tp34
a(I6
I22
F0.375
S'reliable'
p35
I15
tp36
a(I9
I48
F1.0
g19
I15
tp37
as(S'flip'
p38
S'hinge'
p39
tp40
(lp41
(I10
I14
F-0.5
S'weak'
p42
I0
tp43
a(I5
I0
F-0.5
S'regular'
p44
I4
tp45
a(I6
I16
F1.0
S'good'
p46
I4
tp47
a(I10
I14
F-0.5
g42
I4
tp48
as(S'convoy'
p49
tp50
(lp51
(I0
I5
F0.25
S'original'
p52
I0
tp53
a(I0
I11
I0
S'old'
p54
I0
tp55
a(I0
I14
I0
S'old'
p56
I0
tp57
a(I0
I17
I0
S'old'
p58
I0
tp59
a(I0
I19
I0
S'old'
p60
I0
tp61
a(I0
I19
I0
S'many'
p62
I0
tp63
a(I0
I21
F0.375
S'much'
p64
I0
tp65
a(I0
I21
I0
S'old'
p66
I0
tp67
a(I0
I21
F0.375
S'new'
p68
I0
tp69
a(I0
I21
F0.375
S'new'
p70
I0
tp71
a(I0
I24
F0.375
S'new'
p72
I0
tp73
a(I0
I25
F0.375
S'new'
p74
I0
tp75
a(I0
I26
F-0.25
S'thinner'
p76
I0
tp77
a(I0
I26
F-0.625
S'lighter'
p78
I0
tp79
a(I0
I26
I0
S'thick'
p80
I0
tp81
a(I0
I34
F0.375
S'new'
p82
I0
tp83
a(I0
I75
I0
S'older'
p84
I0
tp85
a(I5
I2
F0.25
S'original'
p86
I0
tp87
a(I8
I8
F-0.625
S'other'
p88
I0
tp89
a(I9
I26
I0
S'next'
p90
I0
tp91
a(I9
I47
F0.25
S'original'
p92
I0
tp93
a(I10
I29
F-0.125
S'overall'
p94
I0
tp95
as(S'customer'
p96
S'service'
p97
tp98
(lp99
(I16
I24
F-0.5
S'poor'
p100
I3
tp101
a(I0
I46
I0
S'same'
p102
I16
tp103
as(S'buttons'
p104
tp105
(lp106
(I0
I16
I0
S'external'
p107
I13
tp108
a(I0
I20
F0.5
S'functional'
p109
I13
tp110
a(I0
I78
I0
S'external'
p111
I13
tp112
a(I5
I22
I0
S'large'
p113
I13
tp114
a(I7
I2
F0.25
S'bigger'
p115
I13
tp116
a(I7
I14
I0
S'large'
p117
I13
tp118
a(I7
I14
F0.625
S'easy'
p119
I13
tp120
a(I8
I34
I0
S'decide'
p121
I13
tp122
a(I9
I66
F-0.5
S'press'
p123
I13
tp124
a(I14
I2
I0
S'sensitive'
p125
I13
tp126
as(S'samsung'
p127
tp128
(lp129
(I14
I0
I0
S'described'
p130
I7
tp131
a(I16
I23
F0.375
S'available'
p132
I7
tp133
as(S'camera'
p134
tp135
(lp136
(I5
I4
F1.0
S'better'
p137
I1
tp138
a(I6
I16
F-0.5
S'weak'
p139
I1
tp140
as(S'little'
p141
S'bit'
p142
tp143
(lp144
(I5
I0
F-0.75
S'little'
p145
I10
tp146
as.