(dp0
(S'seller'
p1
tp2
(lp3
(I25
I38
I0
S'least'
p4
I19
tp5
a(I39
I3
F0.5
S'polite'
p6
I19
tp7
as(S'apps'
p8
tp9
(lp10
(I0
I67
I0
S'critical'
p11
I0
tp12
a(I6
I11
I0
S'big'
p13
I0
tp14
a(I22
I6
I0
S'fast'
p15
I0
tp16
a(I22
I6
F0.25
S'sharp'
p17
I0
tp18
a(I22
I6
I0
S'great'
p19
I0
tp20
as(S'iphone'
p21
tp22
(lp23
(I0
I24
F-0.5
S'heavier'
p24
I1
tp25
a(I16
I3
I0
S'assistant'
p26
I1
tp27
a(I16
I5
F-0.625
S'sorry'
p28
I1
tp29
a(I34
I36
F1.0
S'better'
p30
I1
tp31
a(I34
I47
F-0.625
S'lighter'
p32
I1
tp33
as(S'skyrocket'
p34
tp35
(lp36
(I0
I28
I0
S'least'
p37
I0
tp38
a(I0
I29
F0.75
S'beautiful'
p39
I0
tp40
a(I20
I0
I0
S'old'
p41
I0
tp42
a(I22
I0
F0.375
S'much'
p43
I0
tp44
a(I22
I0
F0.125
S'visible'
p45
I0
tp46
a(I34
I23
F-0.25
S'cheaper'
p47
I0
tp48
as(S'calls'
p49
tp50
(lp51
(I34
I38
F0.625
S'easy'
p52
I0
tp53
a(I34
I38
F0.75
S'due'
p54
I0
tp55
a(I35
I49
F1.0
S'good'
p56
I0
tp57
as(S'tech'
p58
S'savvy'
p59
tp60
(lp61
(I0
I6
I0
S'tech'
p62
I0
tp63
a(I0
I52
I0
S'tech'
p64
I0
tp65
a(I0
I53
I0
S'tech'
p66
I0
tp67
as(S'android'
p68
tp69
(lp70
(I1
I6
F0.125
S'first'
p71
I0
tp72
a(I25
I36
I0
S'latest'
p73
I0
tp74
a(I26
I0
F0.125
S'first'
p75
I0
tp76
a(I37
I6
I0
S'latest'
p77
I0
tp78
as(S'data'
p79
tp80
(lp81
(I0
I0
F0.375
S'new'
p82
I13
tp83
a(I33
I7
F0.25
S'consistent'
p84
I13
tp85
as(S'galaxy'
p86
tp87
(lp88
(I18
I6
I0
S'different'
p89
I0
tp90
a(I18
I6
F-0.625
S'other'
p91
I0
tp92
a(I34
I15
F-0.25
S'ready'
p93
I0
tp94
as(S'button'
p95
tp96
(lp97
(I0
I34
F0.5
S'second'
p98
I19
tp99
a(I0
I39
F0.625
S'easy'
p100
I19
tp101
a(I0
I42
I0
S'physical'
p102
I19
tp103
a(I0
I42
F0.5
S'touch'
p104
I19
tp105
a(I0
I42
I0
S'sensitive'
p106
I19
tp107
as(S'warranty'
p108
tp109
(lp110
(I30
I4
F0.5
S'true'
p111
I2
tp112
as(S'service'
p113
tp114
(lp115
(I0
I19
F0.125
S'able'
p116
I16
tp117
a(I22
I40
F0.375
S'extra'
p118
I16
tp119
a(I35
I5
I0
S'high'
p120
I16
tp121
a(I35
I5
I0
S'monthly'
p122
I16
tp123
a(I35
I52
F-0.5
S'regular'
p124
I16
tp125
a(I35
I52
I0
S'monthly'
p126
I16
tp127
as(S'sim'
p128
S'card'
p129
tp130
(lp131
(I0
I14
F0.375
S'new'
p132
I0
tp133
a(I29
I2
F0.375
S'new'
p134
I0
tp135
a(I35
I58
I0
S'local'
p136
I0
tp137
as(S'samsung'
p138
tp139
(lp140
(I4
I29
I0
S'faster'
p141
I7
tp142
a(I29
I15
I0
S'standard'
p143
I7
tp144
a(I29
I18
F0.25
S'original'
p145
I7
tp146
a(I34
I25
F0.375
S'new'
p147
I7
tp148
a(I34
I30
F1.0
S'good'
p149
I7
tp150
a(I34
I47
F-0.625
S'free'
p151
I7
tp152
as(S'music'
p153
S'player'
p154
tp155
(lp156
(I34
I34
F0.875
S'important'
p157
I0
tp158
a(I39
I17
F0.875
S'music'
p159
I0
tp160
as(S'camera'
p161
tp162
(lp163
(I0
I33
I0
S'great'
p164
I1
tp165
a(I4
I5
I0
S'fast'
p166
I1
tp167
a(I4
I9
I0
S'incredible'
p168
I1
tp169
a(I5
I18
I0
S'great'
p170
I1
tp171
a(I35
I38
I0
S'real'
p172
I1
tp173
a(I35
I38
I0
S'real'
p174
I1
tp175
as(S'mobile'
p176
tp177
(lp178
(I38
I8
F0.375
S'new'
p179
I0
tp180
as(S'battery'
p181
S'life'
p182
tp183
(lp184
(I18
I10
F-0.5
S'long'
p185
I1
tp186
a(I19
I9
F-0.5
S'poor'
p187
I1
tp188
a(I19
I22
F-0.75
S'short'
p189
I1
tp190
a(I25
I91
I0
S'great'
p191
I1
tp192
a(I26
I1
F-0.75
S'bright'
p193
I1
tp194
a(I34
I33
F-0.25
S'battery'
p195
I1
tp196
a(I34
I45
F0.625
S'acceptable'
p197
I1
tp198
a(I18
I10
F-0.5
g185
I19
tp199
a(I19
I9
F-0.5
g187
I19
tp200
a(I19
I22
F-0.75
g189
I19
tp201
a(I34
I33
F-0.25
g195
I19
tp202
a(I3
I1
F-0.75
S'abnormal'
p203
I15
tp204
a(I8
I3
F0.375
S'new'
p205
I15
tp206
a(I15
I9
F0.375
S'new'
p207
I15
tp208
a(I25
I91
I0
g191
I15
tp209
a(I26
I1
F-0.75
g193
I15
tp210
a(I34
I45
F0.625
g197
I15
tp211
a(I39
I17
F-0.25
S'low'
p212
I15
tp213
a(I39
I39
I0
S'old'
p214
I15
tp215
as.