(dp0
(S'text'
p1
S'message'
p2
tp3
(lp4
(I3
I28
I0
S'monthly'
p5
I0
tp6
a(I11
I62
F0.5
S'second'
p7
I0
tp8
as(S'memory'
p9
S'card'
p10
tp11
(lp12
(I0
I72
F0.625
S'add'
p13
I0
tp14
a(I0
I72
I0
S'internal'
p15
I0
tp16
a(I0
I87
I0
S'full'
p17
I0
tp18
a(I3
I32
I0
S'internal'
p19
I0
tp20
a(I3
I35
I0
S'internal'
p21
I0
tp22
a(I11
I60
I0
S'internal'
p23
I0
tp24
a(I11
I60
I0
S'slim'
p25
I0
tp26
a(I0
I69
I0
S'internal'
p27
I5
tp28
a(I0
I72
F0.625
g13
I5
tp29
a(I0
I72
I0
g15
I5
tp30
a(I0
I78
F-0.25
S'low'
p31
I5
tp32
a(I0
I86
I0
S'full'
p33
I5
tp34
a(I0
I87
I0
g17
I5
tp35
a(I0
I100
I0
S'internal'
p36
I5
tp37
a(I0
I115
F-0.25
S'low'
p38
I5
tp39
a(I2
I3
I0
S'internal'
p40
I5
tp41
a(I3
I6
F0.125
S'enough'
p42
I5
tp43
a(I3
I31
I0
S'internal'
p44
I5
tp45
a(I3
I32
I0
g19
I5
tp46
a(I3
I35
I0
g21
I5
tp47
a(I3
I60
F1.0
S'best'
p48
I5
tp49
a(I5
I0
I0
S'most'
p50
I5
tp51
a(I5
I71
I0
S'internal'
p52
I5
tp53
a(I11
I60
I0
g23
I5
tp54
a(I11
I60
I0
g25
I5
tp55
a(I11
I68
I0
S'internal'
p56
I5
tp57
as(S'battery'
p58
S'life'
p59
tp60
(lp61
(I0
I60
F1.0
S'good'
p62
I1
tp63
a(I5
I134
F1.0
S'good'
p64
I1
tp65
a(I11
I46
F1.0
S'good'
p66
I1
tp67
a(I4
I1
F-0.25
S'low'
p68
I15
tp69
a(I5
I23
F0.125
S'last'
p70
I15
tp71
a(I5
I134
F1.0
g64
I15
tp72
a(I10
I47
F0.375
S'new'
p73
I15
tp74
as(S'a'
p75
S'data'
p76
S'plan'
p77
tp78
(lp79
(I0
I38
I0
S'mobile'
p80
I0
tp81
a(I3
I29
I0
S'faster'
p82
I0
tp83
a(I5
I22
F0.5
S'true'
p84
I0
tp85
a(I5
I141
F-0.25
S'low'
p86
I0
tp87
a(I11
I40
F-0.75
S'secondary'
p88
I0
tp89
a(I0
I38
I0
g80
I0
tp90
a(I3
I29
I0
g82
I0
tp91
a(I5
I22
F0.5
g84
I0
tp92
a(I5
I141
F-0.25
g86
I0
tp93
a(I11
I40
F-0.75
g88
I0
tp94
a(I0
I38
I0
g80
I13
tp95
a(I3
I29
I0
g82
I13
tp96
a(I5
I111
F-0.625
S'free'
p97
I13
tp98
a(I11
I40
F-0.75
g88
I13
tp99
a(I11
I50
F-0.5
S'separate'
p100
I13
tp101
a(I11
I58
I0
S'more'
p102
I13
tp103
as(S'service'
p104
tp105
(lp106
(I1
I36
I0
S'great'
p107
I16
tp108
a(I1
I44
F-0.625
S'bad'
p109
I16
tp110
a(I1
I44
F-0.625
S'bad'
p111
I16
tp112
a(I5
I76
F1.0
S'good'
p113
I16
tp114
a(I12
I2
F1.0
S'good'
p115
I16
tp116
as(S'gophone'
p117
tp118
(lp119
(I0
I48
F0.5
S'true'
p120
I0
tp121
as(S'camera'
p122
tp123
(lp124
(I1
I32
I0
S'great'
p125
I1
tp126
a(I1
I32
F1.0
S'good'
p127
I1
tp128
a(I9
I29
F1.0
S'good'
p129
I1
tp130
a(I9
I29
I0
S'great'
p131
I1
tp132
a(I11
I37
I0
S'great'
p133
I1
tp134
as(S'straight'
p135
S'talk'
p136
tp137
(lp138
(I3
I51
F0.625
S'straight'
p139
I0
tp140
a(I3
I52
F0.625
S'straight'
p141
I0
tp142
a(I3
I51
F0.625
g139
I13
tp143
a(I3
I52
F0.625
g141
I13
tp144
as(S'wifi'
p145
tp146
(lp147
(I0
I37
F-0.625
S'free'
p148
I0
tp149
a(I0
I37
I0
S'net'
p150
I0
tp151
a(I3
I29
I0
S'internet'
p152
I0
tp153
a(I5
I93
I0
S'built'
p154
I0
tp155
a(I5
I93
I0
S'local'
p156
I0
tp157
as(S'sd'
p158
S'card'
p159
tp160
(lp161
(I0
I101
I0
S'included'
p162
I0
tp163
a(I0
I101
F-0.625
S'free'
p164
I0
tp165
a(I5
I30
I0
S'sd'
p166
I0
tp167
a(I10
I40
I0
S'external'
p168
I0
tp169
a(I11
I25
I0
S'internal'
p170
I0
tp171
as(S'bloatware'
p172
tp173
(lp174
(I3
I33
F-0.375
S'top'
p175
I0
tp176
a(I5
I86
I0
S'most'
p177
I0
tp178
as(S'voice'
p179
tp180
(lp181
(I0
I33
F1.0
S'good'
p182
I4
tp183
as(S'att'
p184
S'sim'
p185
S'card'
p186
tp187
(lp188
(I3
I53
F-0.5
S'sure'
p189
I0
tp190
as(S'slow'
p191
tp192
(lp193
(I0
I57
F0.625
S'acceptable'
p194
I17
tp195
as(S'smart'
p196
tp197
(lp198
(I0
I7
F0.375
S'similar'
p199
I10
tp200
a(I0
I7
F-0.625
S'other'
p201
I10
tp202
a(I0
I8
F0.125
S'first'
p203
I10
tp204
a(I0
I112
F1.0
S'better'
p205
I10
tp206
a(I3
I40
F-0.25
S'inexpensive'
p207
I10
tp208
a(I5
I20
F0.125
S'first'
p209
I10
tp210
a(I7
I15
F0.125
S'first'
p211
I10
tp212
a(I11
I79
F1.0
S'better'
p213
I10
tp214
a(I12
I5
F-0.625
S'other'
p215
I10
tp216
a(I12
I5
F0.375
S'available'
p217
I10
tp218
as(S'calls'
p219
tp220
(lp221
(I9
I25
F-0.5
S'unlimited'
p222
I0
tp223
a(I10
I5
F1.0
S'good'
p224
I0
tp225
a(I10
I9
F-0.25
S'dropped'
p226
I0
tp227
a(I10
I19
I0
S'few'
p228
I0
tp229
a(I10
I19
I0
S'close'
p230
I0
tp231
as(S'fusion'
p232
tp233
(lp234
(I5
I48
I0
S'android'
p235
I0
tp236
a(I9
I46
F0.625
S'superior'
p237
I0
tp238
as(S'text'
p239
S'messages'
p240
tp241
(lp242
(I3
I28
I0
S'text'
p243
I0
tp244
a(I3
I28
I0
g5
I0
tp245
a(I5
I73
I0
S'text'
p246
I0
tp247
a(I3
I28
I0
g5
I18
tp248
a(I3
I28
I0
g243
I1
tp249
a(I5
I73
I0
g246
I1
tp250
as(S'internet'
p251
tp252
(lp253
(I5
I66
F0.125
S'able'
p254
I6
tp255
as(S'basic'
p256
S'smartphone'
p257
tp258
(lp259
(I0
I55
F1.0
S'good'
p260
I0
tp261
a(I0
I55
I0
S'basic'
p262
I0
tp263
a(I5
I18
I0
S'basic'
p264
I0
tp265
a(I5
I84
F0.5
S'expensive'
p266
I0
tp267
a(I0
I55
F1.0
g260
I0
tp268
a(I0
I55
I0
g262
I0
tp269
a(I0
I71
F0.125
S'first'
p270
I0
tp271
a(I0
I71
I0
S'most'
p272
I0
tp273
a(I1
I15
F0.125
S'first'
p274
I0
tp275
a(I5
I18
I0
g264
I0
tp276
a(I5
I84
F0.5
g266
I0
tp277
a(I5
I131
I0
S'android'
p278
I0
tp279
a(I12
I7
F-0.25
S'inexpensive'
p280
I0
tp281
as(S'internal'
p282
S'storage'
p283
tp284
(lp285
(I0
I101
I0
S'internal'
p286
I0
tp287
a(I10
I39
I0
S'internal'
p288
I0
tp289
as(S'apps'
p290
tp291
(lp292
(I0
I36
I0
S'android'
p293
I0
tp294
a(I0
I71
I0
S'different'
p295
I0
tp296
a(I0
I74
I0
S'useful'
p297
I0
tp298
a(I0
I74
I0
S'least'
p299
I0
tp300
a(I0
I101
I0
S'few'
p301
I0
tp302
a(I0
I101
F-0.625
S'want'
p303
I0
tp304
a(I2
I3
I0
S'more'
p305
I0
tp306
a(I3
I32
I0
S'most'
p307
I0
tp308
a(I3
I35
I0
S'most'
p309
I0
tp310
a(I5
I2
I0
S'more'
p311
I0
tp312
a(I5
I3
I0
S'few'
p313
I0
tp314
a(I5
I3
I0
S'basic'
p315
I0
tp316
a(I5
I25
F-0.75
S'unable'
p317
I0
tp318
a(I5
I26
I0
S'many'
p319
I0
tp320
a(I5
I73
I0
S'many'
p321
I0
tp322
a(I5
I89
I0
S'many'
p323
I0
tp324
a(I7
I16
F-0.625
S'free'
p325
I0
tp326
a(I10
I5
I0
S'most'
p327
I0
tp328
a(I10
I35
I0
S'basic'
p329
I0
tp330
a(I10
I40
I0
S'own'
p331
I0
tp332
a(I11
I44
F0.125
S'able'
p333
I0
tp334
a(I11
I44
I0
S'many'
p335
I0
tp336
a(I11
I60
I0
S'few'
p337
I0
tp338
as(S'internal'
p339
S'memory'
p340
tp341
(lp342
(I0
I69
I0
g27
I0
tp343
a(I0
I72
F0.625
g13
I0
tp344
a(I0
I72
I0
g15
I0
tp345
a(I0
I100
I0
g36
I0
tp346
a(I2
I3
I0
g40
I0
tp347
a(I3
I31
I0
g44
I0
tp348
a(I3
I32
I0
g19
I0
tp349
a(I3
I35
I0
g21
I0
tp350
a(I5
I71
I0
g52
I0
tp351
a(I11
I60
I0
g23
I0
tp352
a(I11
I60
I0
g25
I0
tp353
a(I11
I68
I0
g56
I0
tp354
as(S'touch'
p355
S'screen'
p356
tp357
(lp358
(I0
I4
F0.5
S'touch'
p359
I2
tp360
a(I0
I121
F0.5
S'touch'
p361
I2
tp362
a(I1
I21
F0.5
S'touch'
p363
I2
tp364
a(I5
I133
I0
S'full'
p365
I2
tp366
a(I9
I44
F0.5
S'touch'
p367
I2
tp368
a(I9
I44
F0.25
S'responsive'
p369
I2
tp370
a(I10
I5
F0.25
S'responsive'
p371
I2
tp372
as.