(dp0
(S'a'
p1
S'long'
p2
S'time'
p3
tp4
(lp5
(I1
I1
I0
S'most'
p6
I12
tp7
a(I6
I340
F-0.5
S'long'
p8
I12
tp9
a(I8
I21
F-0.5
S'long'
p10
I12
tp11
a(I9
I59
F-0.5
S'long'
p12
I12
tp13
a(I20
I53
F-0.5
S'long'
p14
I12
tp15
a(I22
I147
F0.5
S'willing'
p16
I12
tp17
a(I24
I87
F-0.5
S'long'
p18
I12
tp19
as(S'smart'
p20
S'actions'
p21
tp22
(lp23
(I4
I95
F0.625
S'easy'
p24
I0
tp25
a(I4
I217
F-0.5
S'complaint'
p26
I0
tp27
a(I11
I3
I0
S'great'
p28
I0
tp29
a(I2
I73
F1.0
S'best'
p30
I10
tp31
a(I4
I217
F-0.5
g26
I10
tp32
a(I4
I245
F1.0
S'best'
p33
I10
tp34
a(I6
I100
F0.375
S'new'
p35
I10
tp36
a(I7
I52
F0.875
S'happy'
p37
I10
tp38
a(I9
I7
F-0.625
S'other'
p39
I10
tp40
a(I9
I7
F-0.625
S'other'
p41
I10
tp42
a(I9
I86
F0.125
S'first'
p43
I10
tp44
a(I12
I48
F-0.75
S'stupid'
p45
I10
tp46
a(I19
I159
F1.0
S'best'
p47
I10
tp48
a(I19
I175
I0
S'many'
p49
I10
tp50
a(I19
I191
I0
S'android'
p51
I10
tp52
a(I24
I12
F0.125
S'first'
p53
I10
tp54
a(I25
I315
I0
S'different'
p55
I10
tp56
a(I25
I411
F-0.5
S'relative'
p57
I10
tp58
a(I25
I411
F-0.625
S'other'
p59
I10
tp60
as(S'motorola'
p61
S'droid'
p62
tp63
(lp64
(I1
I13
F0.25
S'original'
p65
I0
tp66
a(I2
I77
F0.25
S'responsive'
p67
I0
tp68
a(I6
I299
I0
S'own'
p69
I0
tp70
a(I7
I0
F0.375
S'new'
p71
I0
tp72
a(I10
I64
F-0.25
S'thin'
p73
I0
tp74
a(I18
I92
F0.25
S'original'
p75
I0
tp76
a(I20
I39
F0.125
S'first'
p77
I0
tp78
a(I1
I13
F0.25
g65
I0
tp79
a(I2
I77
F0.25
g67
I0
tp80
a(I2
I141
I0
S'cooperative'
p81
I0
tp82
a(I4
I124
F0.25
S'helpful'
p83
I0
tp84
a(I4
I237
F-0.5
S'unwanted'
p85
I0
tp86
a(I5
I32
F-0.5
S'less'
p87
I0
tp88
a(I5
I35
F-0.125
S'invest'
p89
I0
tp90
a(I6
I45
F0.125
S'able'
p91
I0
tp92
a(I6
I259
F-0.625
S'glad'
p93
I0
tp94
a(I6
I299
I0
g69
I0
tp95
a(I7
I0
F0.375
g71
I0
tp96
a(I7
I97
I0
S'own'
p97
I0
tp98
a(I9
I226
F0.875
S'nice'
p99
I0
tp100
a(I10
I146
F1.0
S'best'
p101
I0
tp102
a(I17
I47
F-0.375
S'exchanged'
p103
I0
tp104
a(I18
I92
F0.25
g75
I0
tp105
a(I19
I113
F-0.125
S'overall'
p106
I0
tp107
a(I21
I2
F0.5
S'willing'
p108
I0
tp109
a(I22
I132
F-0.75
S'modest'
p110
I0
tp111
a(I22
I281
F1.0
S'good'
p112
I0
tp113
a(I24
I90
F-0.5
S'sure'
p114
I0
tp115
a(I25
I200
F-0.625
S'other'
p116
I0
tp117
a(I25
I283
I0
S'website'
p118
I0
tp119
a(I25
I404
F0.125
S'last'
p120
I0
tp121
a(I25
I413
F0.375
S'reliable'
p122
I0
tp123
as(g1
S'droid'
p124
S'x'
p125
tp126
(lp127
(I4
I197
F0.25
S'larger'
p128
I0
tp129
a(I6
I9
F0.25
S'original'
p130
I0
tp131
a(I7
I3
I0
S'old'
p132
I0
tp133
a(I8
I3
I0
S'more'
p134
I0
tp135
a(I8
I3
F0.5
S'functional'
p136
I0
tp137
a(I8
I5
F0.125
S'last'
p138
I0
tp139
a(I9
I185
F-0.125
S'overall'
p140
I0
tp141
a(I9
I236
F-0.125
S'overall'
p142
I0
tp143
a(I9
I296
F-0.75
S'had'
p144
I0
tp145
a(I10
I64
F-0.25
g73
I0
tp146
a(I11
I0
F0.25
S'original'
p147
I0
tp148
a(I11
I78
F0.875
S'important'
p149
I0
tp150
a(I12
I61
F0.875
S'happy'
p151
I0
tp152
a(I19
I64
F0.875
S'happy'
p153
I0
tp154
a(I22
I80
F0.5
S'upgraded'
p155
I0
tp156
a(I22
I138
F0.5
S'second'
p157
I0
tp158
a(I23
I0
F0.375
S'new'
p159
I0
tp160
a(I25
I325
I0
S'old'
p161
I0
tp162
a(I25
I348
I0
S'many'
p163
I0
tp164
as(S'gorilla'
p165
S'glass'
p166
S'screen'
p167
tp168
(lp169
(I3
I17
F0.75
S'beautiful'
p170
I0
tp171
a(I25
I264
F0.25
S'sharp'
p172
I0
tp173
a(I8
I41
I0
S'great'
p174
I0
tp175
a(I9
I335
I0
S'many'
p176
I0
tp177
a(I15
I18
F-0.75
S'tough'
p178
I0
tp179
a(I17
I7
F1.0
S'good'
p180
I0
tp181
a(I17
I7
F-0.5
S'long'
p182
I0
tp183
a(I25
I264
F0.25
g172
I0
tp184
a(I0
I46
F0.5
S'firm'
p185
I9
tp186
a(I3
I100
F0.875
S'nice'
p187
I9
tp188
a(I4
I117
I0
S'many'
p189
I9
tp190
a(I6
I182
F-0.625
S'shot'
p191
I9
tp192
a(I8
I41
I0
g174
I9
tp193
a(I9
I304
I0
S'more'
p194
I9
tp195
a(I11
I34
I0
S'same'
p196
I9
tp197
a(I15
I18
F-0.75
g178
I9
tp198
a(I17
I7
F-0.5
g182
I9
tp199
a(I22
I93
I0
S'dial'
p200
I9
tp201
as(g1
S'3rd'
p202
S'party'
p203
tp204
(lp205
(I4
I25
F-0.625
S'other'
p206
I0
tp207
a(I18
I15
I0
S'more'
p208
I0
tp209
as(S'to'
p210
S'battery'
p211
S'life'
p212
tp213
(lp214
(I1
I69
F-0.75
S'short'
p215
I0
tp216
a(I2
I63
F-0.5
S'long'
p217
I0
tp218
a(I3
I21
F0.625
S'removable'
p219
I0
tp220
a(I3
I21
F0.125
S'sealed'
p221
I0
tp222
a(I4
I80
I0
S'only'
p223
I0
tp224
a(I4
I80
F-0.875
S'negative'
p225
I0
tp226
a(I4
I80
F1.0
S'better'
p227
I0
tp228
a(I4
I110
F0.125
S'solid'
p229
I0
tp230
a(I4
I193
F-0.5
S'insane'
p231
I0
tp232
a(I4
I194
F0.875
S'important'
p233
I0
tp234
a(I6
I45
F0.375
S'much'
p235
I0
tp236
a(I6
I45
I0
S'such'
p237
I0
tp238
a(I6
I57
I0
S'large'
p239
I0
tp240
a(I6
I57
F0.625
S'extraordinary'
p241
I0
tp242
a(I6
I304
I0
S'appear'
p243
I0
tp244
a(I10
I17
F-0.625
S'bad'
p245
I0
tp246
a(I10
I17
F0.125
S'last'
p247
I0
tp248
a(I10
I17
F1.0
S'best'
p249
I0
tp250
a(I10
I97
I0
S'great'
p251
I0
tp252
a(I10
I149
F0.5
S'second'
p253
I0
tp254
a(I12
I121
I0
S'large'
p255
I0
tp256
a(I12
I121
F0.625
S'easy'
p257
I0
tp258
a(I17
I4
F0.75
S'due'
p259
I0
tp260
a(I19
I103
F-0.5
S'poor'
p261
I0
tp262
a(I20
I77
F1.0
S'good'
p263
I0
tp264
a(I25
I20
I0
S'extensive'
p265
I0
tp266
a(I25
I23
F1.0
S'good'
p267
I0
tp268
a(I25
I65
F1.0
S'good'
p269
I0
tp270
a(I25
I296
F-0.25
S'low'
p271
I0
tp272
a(I25
I313
I0
S'more'
p273
I0
tp274
as(g1
S'full'
p275
S'day'
p276
tp277
(lp278
(I2
I75
I0
S'full'
p279
I0
tp280
a(I4
I127
I0
S'full'
p281
I0
tp282
a(I6
I135
I0
S'full'
p283
I0
tp284
a(I20
I44
I0
S'full'
p285
I0
tp286
a(I22
I157
I0
S'full'
p287
I0
tp288
a(I22
I239
I0
S'full'
p289
I0
tp290
a(I22
I270
F-0.75
S'impossible'
p291
I0
tp292
a(I22
I270
I0
S'full'
p293
I0
tp294
a(I25
I350
F0.125
S'able'
p295
I0
tp296
a(I25
I350
I0
S'more'
p297
I0
tp298
a(I25
I350
I0
S'full'
p299
I0
tp300
as(S'service'
p301
tp302
(lp303
(I1
I64
F-0.875
S'awful'
p304
I16
tp305
a(I1
I68
F1.0
S'better'
p306
I16
tp307
a(I2
I60
I0
S'widest'
p308
I16
tp309
a(I2
I60
F0.375
S'reliable'
p310
I16
tp311
a(I2
I62
F0.375
S'reliable'
p312
I16
tp313
a(I2
I62
F0.25
S'consistent'
p314
I16
tp315
a(I2
I62
F0.125
S'enough'
p316
I16
tp317
a(I2
I63
I0
S'great'
p318
I16
tp319
a(I3
I96
F0.25
S'stellar'
p320
I16
tp321
a(I3
I96
F0.375
S'reliable'
p322
I16
tp323
a(I19
I101
F0.75
S'due'
p324
I16
tp325
a(I22
I131
F0.625
S'major'
p326
I16
tp327
a(I24
I68
F0.375
S'reliable'
p328
I16
tp329
a(I25
I305
F0.875
S'happy'
p330
I16
tp331
as(S'music'
p332
tp333
(lp334
(I9
I289
F-0.375
S'daily'
p335
I0
tp336
as(S'2'
p337
S'days'
p338
tp339
(lp340
(I1
I114
F0.875
S'happy'
p341
I3
tp342
a(I4
I157
F-0.625
S'moderate'
p343
I3
tp344
a(I10
I17
F-0.25
S'ready'
p345
I3
tp346
as(S'angry'
p347
S'birds'
p348
tp349
(lp350
(I9
I14
F0.125
S'entertaining'
p351
I0
tp352
as(S'camera'
p353
tp354
(lp355
(I2
I112
I0
S'fast'
p356
I1
tp357
a(I2
I113
I0
S'fast'
p358
I1
tp359
a(I3
I30
I0
S'useful'
p360
I1
tp361
a(I3
I30
F0.125
S'dedicated'
p362
I1
tp363
a(I4
I86
I0
S'only'
p364
I1
tp365
a(I4
I86
F-0.875
S'negative'
p366
I1
tp367
a(I4
I86
F-0.25
S'low'
p368
I1
tp369
a(I4
I149
I0
S'rear'
p370
I1
tp371
a(I5
I65
F0.875
S'nice'
p372
I1
tp373
a(I6
I69
F0.875
S'nice'
p374
I1
tp375
a(I6
I348
F0.125
S'digital'
p376
I1
tp377
a(I8
I8
I0
S'anymore'
p378
I1
tp379
a(I8
I24
F1.0
S'good'
p380
I1
tp381
a(I8
I24
I0
S'real'
p382
I1
tp383
a(I8
I24
F1.0
S'good'
p384
I1
tp385
a(I8
I91
I0
S'great'
p386
I1
tp387
a(I9
I80
I0
S'fast'
p388
I1
tp389
a(I9
I80
F0.25
S'sharp'
p390
I1
tp391
a(I9
I328
F1.0
S'good'
p392
I1
tp393
a(I9
I328
F1.0
S'good'
p394
I1
tp395
a(I10
I142
F0.5
S'clear'
p396
I1
tp397
a(I11
I14
F0.625
S'decent'
p398
I1
tp399
a(I11
I45
I0
S'great'
p400
I1
tp401
a(I19
I65
F1.0
S'best'
p402
I1
tp403
a(I19
I65
F-0.875
S'worst'
p404
I1
tp405
a(I19
I68
I0
S'incredible'
p406
I1
tp407
a(I19
I112
F1.0
S'good'
p408
I1
tp409
a(I22
I10
I0
S'great'
p410
I1
tp411
a(I22
I264
I0
S'crystal'
p412
I1
tp413
a(I25
I165
I0
S'only'
p414
I1
tp415
a(I25
I165
F-0.875
S'negative'
p416
I1
tp417
a(I25
I165
F1.0
S'best'
p418
I1
tp419
a(I25
I317
I0
S'great'
p420
I1
tp421
as(g1
S'razr'
p422
S'maxx'
p423
tp424
(lp425
(I0
I51
F0.875
S'happy'
p426
I0
tp427
a(I1
I117
F0.375
S'new'
p428
I0
tp429
a(I1
I143
F1.0
S'good'
p430
I0
tp431
a(I4
I76
I0
S'faster'
p432
I0
tp433
a(I4
I139
I0
S'standard'
p434
I0
tp435
a(I5
I58
I0
S'closing'
p436
I0
tp437
a(I6
I46
I0
S'standard'
p438
I0
tp439
a(I6
I53
I0
S'standard'
p440
I0
tp441
a(I6
I54
I0
S'standard'
p442
I0
tp443
a(I6
I54
F0.625
S'decent'
p444
I0
tp445
a(I6
I54
F-0.375
S'near'
p446
I0
tp447
a(I6
I55
I0
S'many'
p448
I0
tp449
a(I7
I115
I0
S'more'
p450
I0
tp451
a(I9
I177
I0
S'common'
p452
I0
tp453
a(I11
I54
F-0.5
S'regular'
p454
I0
tp455
a(I12
I50
F0.75
S'due'
p456
I0
tp457
a(I12
I104
I0
S'many'
p458
I0
tp459
a(I16
I4
F0.5
S'second'
p460
I0
tp461
a(I19
I69
F0.625
S'perfect'
p462
I0
tp463
a(I19
I103
F0.375
S'extra'
p464
I0
tp465
a(I19
I153
F0.875
S'happy'
p466
I0
tp467
a(I20
I5
F0.375
S'new'
p468
I0
tp469
a(I22
I174
I0
S'great'
p470
I0
tp471
a(I23
I0
F0.125
S'last'
p472
I0
tp473
a(I24
I32
F0.875
S'happy'
p474
I0
tp475
a(I24
I47
F0.75
S'worth'
p476
I0
tp477
a(I25
I82
I0
S'more'
p478
I0
tp479
a(I25
I82
F-0.75
S'comfortable'
p480
I0
tp481
a(I25
I82
F-0.5
S'regular'
p482
I0
tp483
a(I25
I242
F0.75
S'beautiful'
p484
I0
tp485
a(I25
I242
F0.375
S'new'
p486
I0
tp487
a(I25
I242
I0
S'updated'
p488
I0
tp489
a(I25
I256
F0.375
S'new'
p490
I0
tp491
a(I25
I419
F0.125
S'first'
p492
I0
tp493
a(I25
I422
F0.375
S'new'
p494
I0
tp495
as(S'form'
p496
S'factor'
p497
tp498
(lp499
(I2
I67
F-0.25
S'thin'
p500
I1
tp501
a(I25
I214
I0
S'same'
p502
I1
tp503
as(S'4'
p504
S'5'
p505
S'hours'
p506
tp507
(lp508
(I7
I4
I0
S'more'
p509
I0
tp510
as(S'droid'
p511
g125
S'and'
p512
tp513
(lp514
(I6
I9
F0.25
g130
I0
tp515
a(I8
I5
F0.125
g138
I0
tp516
a(I11
I78
F0.875
g149
I0
tp517
a(I19
I64
F0.875
g153
I0
tp518
a(I25
I325
I0
g161
I0
tp519
a(I4
I197
F0.25
g128
I0
tp520
a(I6
I9
F0.25
g130
I0
tp521
a(I7
I3
I0
g132
I0
tp522
a(I8
I3
I0
g134
I0
tp523
a(I8
I3
F0.5
g136
I0
tp524
a(I8
I5
F0.125
g138
I0
tp525
a(I9
I185
F-0.125
g140
I0
tp526
a(I9
I236
F-0.125
g142
I0
tp527
a(I9
I296
F-0.75
g144
I0
tp528
a(I10
I64
F-0.25
g73
I0
tp529
a(I11
I0
F0.25
g147
I0
tp530
a(I11
I78
F0.875
g149
I0
tp531
a(I12
I61
F0.875
g151
I0
tp532
a(I19
I64
F0.875
g153
I0
tp533
a(I22
I80
F0.5
g155
I0
tp534
a(I22
I138
F0.5
g157
I0
tp535
a(I23
I0
F0.375
g159
I0
tp536
a(I25
I325
I0
g161
I0
tp537
a(I25
I348
I0
g163
I0
tp538
a(I1
I86
F0.25
S'original'
p539
I0
tp540
a(I4
I97
F0.25
S'original'
p541
I0
tp542
a(I4
I197
F0.25
g128
I0
tp543
a(I6
I9
F0.25
g130
I0
tp544
a(I7
I3
I0
g132
I0
tp545
a(I8
I5
F0.125
g138
I0
tp546
a(I8
I39
F-0.25
S'google'
p547
I0
tp548
a(I9
I185
F-0.125
g140
I0
tp549
a(I9
I236
F-0.125
g142
I0
tp550
a(I9
I296
F-0.75
g144
I0
tp551
a(I10
I64
F-0.25
g73
I0
tp552
a(I11
I0
F0.25
g147
I0
tp553
a(I11
I27
I0
S'old'
p554
I0
tp555
a(I11
I78
F0.875
g149
I0
tp556
a(I12
I61
F0.875
g151
I0
tp557
a(I20
I39
F0.125
g77
I0
tp558
a(I22
I80
F0.5
g155
I0
tp559
a(I22
I138
F0.5
g157
I0
tp560
a(I22
I168
I0
S'more'
p561
I0
tp562
a(I22
I168
F0.25
S'responsive'
p563
I0
tp564
a(I22
I254
F-0.125
S'overall'
p565
I0
tp566
a(I22
I254
I0
S'great'
p567
I0
tp568
a(I23
I0
F0.375
g159
I0
tp569
a(I25
I0
F0.5
S'upgraded'
p570
I0
tp571
a(I25
I0
F0.25
S'original'
p572
I0
tp573
a(I25
I41
F0.375
S'new'
p574
I0
tp575
a(I25
I46
F1.0
S'better'
p576
I0
tp577
a(I25
I46
F0.375
S'new'
p578
I0
tp579
a(I25
I117
F0.875
S'happy'
p580
I0
tp581
a(I25
I142
F0.125
S'first'
p582
I0
tp583
a(I25
I145
F0.375
S'fine'
p584
I0
tp585
a(I25
I145
I0
S'old'
p586
I0
tp587
a(I25
I166
I0
S'old'
p588
I0
tp589
a(I25
I166
F0.25
S'favorite'
p590
I0
tp591
a(I25
I325
I0
g161
I0
tp592
a(I25
I348
I0
g163
I0
tp593
as(S'verizon'
p594
tp595
(lp596
(I1
I53
I0
S'least'
p597
I0
tp598
a(I1
I135
F-0.5
S'less'
p599
I0
tp600
a(I4
I11
F0.375
S'went'
p601
I0
tp602
a(I5
I32
I0
S'cooperative'
p603
I0
tp604
a(I6
I2
F0.5
S'true'
p605
I0
tp606
a(I6
I32
F0.125
S'first'
p607
I0
tp608
a(I6
I283
F0.75
S'due'
p609
I0
tp610
a(I6
I295
I0
S'more'
p611
I0
tp612
a(I7
I36
I0
S'total'
p613
I0
tp614
a(I9
I195
F-0.875
S'hard'
p615
I0
tp616
a(I9
I255
I0
S'local'
p617
I0
tp618
a(I10
I29
F0.875
S'nice'
p619
I0
tp620
a(I10
I30
F0.625
S'superior'
p621
I0
tp622
a(I12
I85
F1.0
S'best'
p623
I0
tp624
a(I20
I67
F-0.75
S'sick'
p625
I0
tp626
a(I24
I23
I0
S'local'
p627
I0
tp628
a(I24
I33
I0
S'local'
p629
I0
tp630
a(I24
I68
F1.0
S'good'
p631
I0
tp632
a(I25
I421
I0
S'normal'
p633
I0
tp634
as(S'battery'
p635
S'life'
p636
S'amazing'
p637
tp638
(lp639
(I2
I63
F-0.5
g217
I0
tp640
a(I25
I20
I0
g265
I0
tp641
a(I2
I63
F-0.5
g217
I0
tp642
a(I25
I20
I0
g265
I0
tp643
as(S'good'
p644
S'battery'
p645
S'life'
p646
tp647
(lp648
(I2
I63
F-0.5
g217
I0
tp649
a(I3
I22
F1.0
S'good'
p650
I0
tp651
a(I4
I66
F1.0
S'good'
p652
I0
tp653
a(I4
I108
F0.5
S'strong'
p654
I0
tp655
a(I6
I304
I0
g243
I0
tp656
a(I6
I366
I0
S'great'
p657
I0
tp658
a(I10
I17
F-0.625
g245
I0
tp659
a(I10
I17
F0.125
g247
I0
tp660
a(I10
I17
F1.0
g249
I0
tp661
a(I10
I122
F1.0
S'good'
p662
I0
tp663
a(I13
I19
F1.0
S'good'
p664
I0
tp665
a(I13
I19
F1.0
S'better'
p666
I0
tp667
a(I18
I47
F1.0
S'good'
p668
I0
tp669
a(I18
I49
F1.0
S'good'
p670
I0
tp671
a(I19
I200
F1.0
S'good'
p672
I0
tp673
a(I20
I13
F1.0
S'good'
p674
I0
tp675
a(I20
I77
F1.0
g263
I0
tp676
a(I22
I183
F1.0
S'good'
p677
I0
tp678
a(I25
I23
F1.0
g267
I0
tp679
a(I25
I65
F1.0
g269
I0
tp680
a(I25
I346
F1.0
S'good'
p681
I0
tp682
as(S'droid'
p683
S'razr'
p684
S'maxx'
p685
tp686
(lp687
(I1
I117
F0.375
g428
I0
tp688
a(I9
I185
F-0.125
g140
I0
tp689
a(I9
I236
F-0.125
g142
I0
tp690
a(I10
I64
F-0.25
g73
I0
tp691
a(I11
I0
F0.25
g147
I0
tp692
a(I11
I54
F-0.5
g454
I0
tp693
a(I12
I50
F0.75
g456
I0
tp694
a(I12
I61
F0.875
g151
I0
tp695
a(I19
I103
F0.375
g464
I0
tp696
a(I23
I0
F0.375
g159
I0
tp697
a(I23
I0
F0.125
g472
I0
tp698
a(I25
I348
I0
g163
I0
tp699
a(I1
I117
F0.375
g428
I0
tp700
a(I4
I97
F0.25
g541
I0
tp701
a(I8
I39
F-0.25
g547
I0
tp702
a(I9
I185
F-0.125
g140
I0
tp703
a(I9
I236
F-0.125
g142
I0
tp704
a(I10
I64
F-0.25
g73
I0
tp705
a(I11
I0
F0.25
g147
I0
tp706
a(I11
I54
F-0.5
g454
I0
tp707
a(I11
I78
F0.875
g149
I0
tp708
a(I12
I61
F0.875
g151
I0
tp709
a(I19
I103
F0.375
g464
I0
tp710
a(I23
I0
F0.375
g159
I0
tp711
a(I25
I348
I0
g163
I0
tp712
as(S'social'
p713
S'networking'
p714
tp715
(lp716
(I0
I12
I0
S'social'
p717
I0
tp718
a(I9
I115
I0
S'few'
p719
I0
tp720
a(I9
I115
I0
S'social'
p721
I0
tp722
a(I22
I249
I0
S'social'
p723
I0
tp724
as(S'android'
p725
tp726
(lp727
(I1
I60
F0.375
S'new'
p728
I0
tp729
a(I2
I1
I0
S'many'
p730
I0
tp731
a(I2
I5
F0.75
S'due'
p732
I0
tp733
a(I6
I190
F0.125
S'first'
p734
I0
tp735
a(I6
I385
F0.125
S'subject'
p736
I0
tp737
a(I6
I385
F0.875
S'happy'
p738
I0
tp739
a(I8
I12
F-0.125
S'slow'
p740
I0
tp741
a(I9
I76
I0
S'most'
p742
I0
tp743
a(I9
I76
F-0.625
S'other'
p744
I0
tp745
a(I10
I88
F0.125
S'typical'
p746
I0
tp747
a(I11
I65
I0
S'standard'
p748
I0
tp749
a(I18
I69
F-0.625
S'free'
p750
I0
tp751
a(I19
I103
I0
S'most'
p752
I0
tp753
a(I19
I110
I0
S'generic'
p754
I0
tp755
a(I20
I74
F0.375
S'new'
p756
I0
tp757
a(I22
I188
I0
S'latest'
p758
I0
tp759
a(I22
I193
F0.125
S'first'
p760
I0
tp761
a(I25
I358
F0.375
S'available'
p762
I0
tp763
as(S'nexus'
p764
tp765
(lp766
(I1
I77
F-0.75
S'bright'
p767
I0
tp768
a(I4
I250
F0.75
S'due'
p769
I0
tp770
a(I9
I257
F0.625
S'superior'
p771
I0
tp772
a(I19
I193
F0.625
S'fair'
p773
I0
tp774
a(I24
I72
F0.125
S'amazon'
p775
I0
tp776
a(I24
I72
F0.5
S'second'
p777
I0
tp778
a(I25
I237
F1.0
S'better'
p779
I0
tp780
as(S'color'
p781
S'saturation'
p782
tp783
(lp784
(I9
I292
F0.625
S'perfect'
p785
I0
tp786
as(S'end'
p787
S'of'
p788
S'day'
p789
tp790
(lp791
(I11
I22
I0
S'same'
p792
I0
tp793
as(S'learning'
p794
S'curve'
p795
tp796
(lp797
(I4
I68
F-0.375
S'small'
p798
I2
tp799
a(I6
I290
F0.75
S'due'
p800
I2
tp801
as(S'upgrade'
p802
tp803
(lp804
(I0
I79
F0.625
S'major'
p805
I3
tp806
a(I0
I93
F0.625
S'major'
p807
I3
tp808
a(I2
I2
F0.5
S'eligible'
p809
I3
tp810
a(I4
I10
F0.75
S'due'
p811
I3
tp812
a(I4
I96
I0
S'later'
p813
I3
tp814
a(I6
I38
F0.75
S'due'
p815
I3
tp816
a(I25
I20
F0.25
S'recent'
p817
I3
tp818
as(S'iphone'
p819
tp820
(lp821
(I0
I66
F1.0
S'best'
p822
I1
tp823
a(I1
I59
F0.5
S'eligible'
p824
I1
tp825
a(I1
I59
I0
S'blah'
p826
I1
tp827
a(I1
I72
F-0.375
S'small'
p828
I1
tp829
a(I1
I72
F-0.5
S'heavy'
p830
I1
tp831
a(I6
I92
I0
S'more'
p832
I1
tp833
a(I6
I159
I0
S'faster'
p834
I1
tp835
a(I6
I304
F1.0
S'good'
p836
I1
tp837
a(I7
I14
I0
S'old'
p838
I1
tp839
a(I9
I80
F1.0
S'better'
p840
I1
tp841
a(I9
I204
F0.5
S'compare'
p842
I1
tp843
a(I9
I303
I-100
S'butcomfortable'
p844
I1
tp845
a(I9
I320
I0
S'faster'
p846
I1
tp847
a(I11
I55
I0
S'big'
p848
I1
tp849
a(I12
I18
I0
S'more'
p850
I1
tp851
a(I12
I41
F-0.875
S'awful'
p852
I1
tp853
a(I12
I119
F0.375
S'new'
p854
I1
tp855
a(I13
I57
F-0.5
S'sure'
p856
I1
tp857
a(I20
I57
I0
S'hear'
p858
I1
tp859
a(I22
I209
F0.625
S'superior'
p860
I1
tp861
a(I25
I28
I0
S'same'
p862
I1
tp863
a(I25
I208
F1.0
S'good'
p864
I1
tp865
a(I25
I361
F-0.5
S'longer'
p866
I1
tp867
a(I25
I410
F-0.5
S'sure'
p868
I1
tp869
a(I25
I410
F0.375
S'new'
p870
I1
tp871
as(S'e.'
p872
S'g.'
p873
tp874
(lp875
(I22
I50
I0
S'faster'
p876
I0
tp877
as(S'samsung'
p878
S'galaxy'
p879
tp880
(lp881
(I19
I68
I0
S'galaxy'
p882
I0
tp883
a(I24
I53
F0.75
S'due'
p884
I0
tp885
a(I6
I155
F-0.875
S'regret'
p886
I7
tp887
a(I19
I68
I0
g882
I7
tp888
a(I20
I93
I0
S'wish'
p889
I7
tp890
a(I24
I53
F0.75
g884
I7
tp891
a(I1
I105
I0
S'old'
p892
I0
tp893
a(I9
I293
F-0.75
S'bright'
p894
I0
tp895
a(I10
I90
F0.75
S'due'
p896
I0
tp897
a(I13
I3
F-0.625
S'other'
p898
I0
tp899
as(S'calls'
p900
tp901
(lp902
(I1
I4
I0
S'few'
p903
I0
tp904
a(I4
I238
I0
S'signal'
p905
I0
tp906
a(I4
I238
F-0.875
S'hard'
p907
I0
tp908
a(I5
I14
F0.125
S'able'
p909
I0
tp910
a(I9
I180
I0
S'most'
p911
I0
tp912
a(I9
I227
F1.0
S'good'
p913
I0
tp914
a(I10
I24
I0
S'many'
p915
I0
tp916
a(I19
I81
F0.75
S'worth'
p917
I0
tp918
a(I19
I81
F-0.625
S'bad'
p919
I0
tp920
a(I19
I123
F-0.25
S'dropped'
p921
I0
tp922
a(I25
I344
I0
S'great'
p923
I0
tp924
as(S'battery'
p925
S'life'
p926
S'and'
p927
tp928
(lp929
(I1
I69
F-0.75
g215
I0
tp930
a(I2
I63
F-0.5
g217
I0
tp931
a(I3
I21
F0.625
g219
I0
tp932
a(I3
I21
F0.125
g221
I0
tp933
a(I4
I66
F1.0
g652
I0
tp934
a(I4
I80
I0
g223
I0
tp935
a(I4
I80
F-0.875
g225
I0
tp936
a(I4
I80
F1.0
g227
I0
tp937
a(I4
I194
F0.875
g233
I0
tp938
a(I10
I17
F-0.625
g245
I0
tp939
a(I10
I17
F0.125
g247
I0
tp940
a(I10
I17
F1.0
g249
I0
tp941
a(I10
I122
F1.0
g662
I0
tp942
a(I10
I149
F0.5
g253
I0
tp943
a(I11
I2
F0.25
S'larger'
p944
I0
tp945
a(I12
I121
I0
g255
I0
tp946
a(I12
I121
F0.625
g257
I0
tp947
a(I13
I19
F1.0
g664
I0
tp948
a(I13
I19
F1.0
g666
I0
tp949
a(I17
I4
F0.75
g259
I0
tp950
a(I18
I49
F1.0
g670
I0
tp951
a(I19
I103
F-0.5
g261
I0
tp952
a(I19
I138
F0.875
S'attractive'
p953
I0
tp954
a(I20
I77
F1.0
g263
I0
tp955
a(I20
I83
I0
S'quick'
p956
I0
tp957
a(I22
I12
F0.25
S'stellar'
p958
I0
tp959
a(I25
I20
I0
g265
I0
tp960
a(I25
I23
F1.0
g267
I0
tp961
a(I25
I39
F-0.75
S'impossible'
p962
I0
tp963
a(I25
I178
F-0.25
S'battery'
p964
I0
tp965
a(I25
I296
F-0.25
g271
I0
tp966
a(I1
I69
F-0.75
g215
I1
tp967
a(I2
I63
F-0.5
g217
I1
tp968
a(I3
I21
F0.625
g219
I1
tp969
a(I3
I21
F0.125
g221
I1
tp970
a(I4
I66
F1.0
g652
I1
tp971
a(I4
I80
I0
g223
I1
tp972
a(I4
I80
F-0.875
g225
I1
tp973
a(I4
I80
F1.0
g227
I1
tp974
a(I4
I194
F0.875
g233
I1
tp975
a(I10
I17
F-0.625
g245
I1
tp976
a(I10
I17
F0.125
g247
I1
tp977
a(I10
I17
F1.0
g249
I1
tp978
a(I10
I122
F1.0
g662
I1
tp979
a(I10
I149
F0.5
g253
I1
tp980
a(I11
I2
F0.25
g944
I1
tp981
a(I12
I121
I0
g255
I1
tp982
a(I12
I121
F0.625
g257
I1
tp983
a(I13
I19
F1.0
g664
I1
tp984
a(I13
I19
F1.0
g666
I1
tp985
a(I17
I4
F0.75
g259
I1
tp986
a(I18
I49
F1.0
g670
I1
tp987
a(I19
I103
F-0.5
g261
I1
tp988
a(I19
I138
F0.875
g953
I1
tp989
a(I20
I77
F1.0
g263
I1
tp990
a(I20
I83
I0
g956
I1
tp991
a(I22
I12
F0.25
g958
I1
tp992
a(I25
I20
I0
g265
I1
tp993
a(I25
I23
F1.0
g267
I1
tp994
a(I25
I39
F-0.75
g962
I1
tp995
a(I25
I178
F-0.25
g964
I1
tp996
a(I25
I296
F-0.25
g271
I1
tp997
as(S'on'
p998
S'one'
p999
S'charge'
p1000
tp1001
(lp1002
(I4
I247
F-0.75
S'single'
p1003
I0
tp1004
a(I6
I56
I0
S'full'
p1005
I0
tp1006
a(I9
I130
I0
S'full'
p1007
I0
tp1008
a(I10
I94
F-0.75
S'single'
p1009
I0
tp1010
a(I22
I204
I0
S'full'
p1011
I0
tp1012
as(S'heavy'
p1013
S'use'
p1014
tp1015
(lp1016
(I1
I93
F-0.5
S'heavy'
p1017
I1
tp1018
a(I2
I96
F-0.5
S'heavy'
p1019
I1
tp1020
a(I3
I28
F-0.5
S'heavy'
p1021
I1
tp1022
a(I3
I86
F-0.5
S'heavy'
p1023
I1
tp1024
a(I4
I127
F-0.5
S'heavy'
p1025
I1
tp1026
a(I4
I229
F-0.5
S'heavy'
p1027
I1
tp1028
a(I4
I246
F-0.5
S'heavy'
p1029
I1
tp1030
a(I6
I255
F-0.625
S'moderate'
p1031
I1
tp1032
a(I6
I255
F-0.5
S'heavy'
p1033
I1
tp1034
a(I18
I35
F-0.5
S'heavy'
p1035
I1
tp1036
a(I19
I177
F-0.5
S'heavy'
p1037
I1
tp1038
a(I20
I45
F-0.5
S'heavy'
p1039
I1
tp1040
a(I22
I58
F0.125
S'impressive'
p1041
I1
tp1042
a(I22
I274
F-0.5
S'heavy'
p1043
I1
tp1044
a(I25
I350
F-0.5
S'heavy'
p1045
I1
tp1046
as(S'on'
p1047
S'battery'
p1048
S'life'
p1049
tp1050
(lp1051
(I1
I69
F-0.75
g215
I0
tp1052
a(I2
I63
F-0.5
g217
I0
tp1053
a(I2
I111
F0.375
S'reported'
p1054
I0
tp1055
a(I2
I111
F-0.625
S'bad'
p1056
I0
tp1057
a(I2
I111
F0.375
S'extended'
p1058
I0
tp1059
a(I4
I80
I0
g223
I0
tp1060
a(I4
I80
F-0.875
g225
I0
tp1061
a(I4
I80
F1.0
g227
I0
tp1062
a(I4
I108
F0.5
g654
I0
tp1063
a(I4
I110
F0.125
g229
I0
tp1064
a(I4
I193
F-0.5
g231
I0
tp1065
a(I4
I194
F0.875
g233
I0
tp1066
a(I6
I45
F0.375
g235
I0
tp1067
a(I6
I45
I0
g237
I0
tp1068
a(I6
I154
F0.375
S'much'
p1069
I0
tp1070
a(I6
I304
I0
g243
I0
tp1071
a(I9
I187
F-0.75
S'short'
p1072
I0
tp1073
a(I10
I17
F-0.625
g245
I0
tp1074
a(I10
I17
F0.125
g247
I0
tp1075
a(I10
I17
F1.0
g249
I0
tp1076
a(I10
I40
I0
S'great'
p1077
I0
tp1078
a(I10
I97
I0
g251
I0
tp1079
a(I10
I98
F-0.5
S'sure'
p1080
I0
tp1081
a(I10
I122
F1.0
g662
I0
tp1082
a(I10
I149
F0.5
g253
I0
tp1083
a(I11
I2
F0.25
g944
I0
tp1084
a(I12
I94
F0.125
S'impressive'
p1085
I0
tp1086
a(I12
I121
I0
g255
I0
tp1087
a(I12
I121
F0.625
g257
I0
tp1088
a(I17
I4
F0.75
g259
I0
tp1089
a(I18
I49
F1.0
g670
I0
tp1090
a(I19
I1
F-0.75
S'short'
p1091
I0
tp1092
a(I19
I103
F-0.5
g261
I0
tp1093
a(I19
I138
F0.875
g953
I0
tp1094
a(I19
I200
F1.0
g672
I0
tp1095
a(I20
I77
F1.0
g263
I0
tp1096
a(I24
I96
F1.0
S'better'
p1097
I0
tp1098
a(I25
I20
I0
g265
I0
tp1099
a(I25
I23
F1.0
g267
I0
tp1100
a(I25
I39
F-0.75
g962
I0
tp1101
a(I25
I65
F1.0
g269
I0
tp1102
a(I25
I178
F-0.25
g964
I0
tp1103
a(I25
I296
F-0.25
g271
I0
tp1104
a(I25
I313
I0
g273
I0
tp1105
as(S'call'
p1106
S'quality'
p1107
tp1108
(lp1109
(I3
I101
F1.0
S'good'
p1110
I0
tp1111
a(I6
I251
F1.0
S'good'
p1112
I0
tp1113
a(I7
I67
I0
S'great'
p1114
I0
tp1115
a(I7
I67
F0.5
S'clear'
p1116
I0
tp1117
a(I8
I26
I0
S'great'
p1118
I0
tp1119
a(I10
I16
F1.0
S'good'
p1120
I0
tp1121
a(I10
I17
F0.875
S'nice'
p1122
I0
tp1123
a(I10
I155
I0
S'great'
p1124
I0
tp1125
a(I25
I47
I0
S'great'
p1126
I0
tp1127
a(I25
I48
I0
S'great'
p1128
I0
tp1129
as(S'ice'
p1130
S'cream'
p1131
S'sandwich'
p1132
tp1133
(lp1134
(I22
I9
F0.375
S'new'
p1135
I0
tp1136
a(I22
I251
I-100
S'iphone.-no'
p1137
I0
tp1138
a(I22
I299
F0.625
S'perfect'
p1139
I0
tp1140
a(I24
I35
I0
S'current'
p1141
I0
tp1142
a(I24
I83
F-0.5
S'miss'
p1143
I0
tp1144
a(I22
I9
F0.375
g1135
I2
tp1145
a(I24
I35
I0
g1141
I2
tp1146
a(I24
I83
F-0.5
g1143
I2
tp1147
a(I22
I299
F0.625
g1139
I0
tp1148
as(S'due'
p1149
S'to'
p1150
S'battery'
p1151
tp1152
(lp1153
(I4
I250
F0.125
S'last'
p1154
I0
tp1155
a(I11
I25
F0.375
S'extended'
p1156
I0
tp1157
a(I12
I50
F-0.375
S'top'
p1158
I0
tp1159
a(I17
I4
F0.75
g259
I0
tp1160
as(S'data'
p1161
tp1162
(lp1163
(I0
I26
I0
S'internal'
p1164
I13
tp1165
a(I1
I80
F-0.5
S'unlimited'
p1166
I13
tp1167
a(I3
I38
I0
S'cellular'
p1168
I13
tp1169
a(I7
I95
I0
S'next'
p1170
I13
tp1171
a(I9
I193
I0
S'standard'
p1172
I13
tp1173
a(I10
I23
F-0.5
S'unlimited'
p1174
I13
tp1175
a(I12
I8
F-0.625
S'free'
p1176
I13
tp1177
a(I17
I11
F0.5
S'technical'
p1178
I13
tp1179
a(I20
I90
I0
S'signal'
p1180
I13
tp1181
a(I22
I58
I0
S'fastest'
p1182
I13
tp1183
a(I22
I110
F-0.5
S'poor'
p1184
I13
tp1185
a(I22
I113
F-0.875
S'trouble'
p1186
I13
tp1187
a(I24
I42
I0
S'monthly'
p1188
I13
tp1189
a(I25
I305
F-0.625
S'free'
p1190
I13
tp1191
as(S'much'
p1192
S'better'
p1193
tp1194
(lp1195
(I1
I142
F0.375
S'much'
p1196
I9
tp1197
a(I6
I67
F0.375
S'much'
p1198
I9
tp1199
a(I6
I305
F0.375
S'much'
p1200
I9
tp1201
a(I9
I56
F0.375
S'much'
p1202
I9
tp1203
a(I9
I340
F0.375
S'much'
p1204
I9
tp1205
as(S'with'
p1206
S'battery'
p1207
S'life'
p1208
tp1209
(lp1210
(I2
I63
F-0.5
g217
I0
tp1211
a(I2
I111
F0.375
g1054
I0
tp1212
a(I2
I111
F-0.625
g1056
I0
tp1213
a(I2
I111
F0.375
g1058
I0
tp1214
a(I6
I347
I0
S'great'
p1215
I0
tp1216
a(I9
I58
I0
S'great'
p1217
I0
tp1218
a(I10
I17
F-0.625
g245
I0
tp1219
a(I10
I17
F0.125
g247
I0
tp1220
a(I10
I17
F1.0
g249
I0
tp1221
a(I10
I98
F-0.5
g1080
I0
tp1222
a(I11
I2
F0.25
g944
I0
tp1223
a(I17
I4
F0.75
g259
I0
tp1224
a(I22
I183
F1.0
g677
I0
tp1225
a(I25
I20
I0
g265
I0
tp1226
a(I25
I65
F1.0
g269
I0
tp1227
a(I25
I313
I0
g273
I0
tp1228
a(I1
I69
F-0.75
g215
I1
tp1229
a(I2
I63
F-0.5
g217
I1
tp1230
a(I2
I111
F0.375
g1054
I1
tp1231
a(I2
I111
F-0.625
g1056
I1
tp1232
a(I2
I111
F0.375
g1058
I1
tp1233
a(I3
I21
F0.625
g219
I1
tp1234
a(I3
I21
F0.125
g221
I1
tp1235
a(I3
I22
F1.0
g650
I1
tp1236
a(I4
I66
F1.0
g652
I1
tp1237
a(I4
I80
I0
g223
I1
tp1238
a(I4
I80
F-0.875
g225
I1
tp1239
a(I4
I80
F1.0
g227
I1
tp1240
a(I4
I108
F0.5
g654
I1
tp1241
a(I4
I110
F0.125
g229
I1
tp1242
a(I4
I161
F0.125
S'spectacular'
p1243
I1
tp1244
a(I4
I193
F-0.5
g231
I1
tp1245
a(I4
I194
F0.875
g233
I1
tp1246
a(I4
I269
I0
S'fast'
p1247
I1
tp1248
a(I6
I45
F0.375
g235
I1
tp1249
a(I6
I45
I0
g237
I1
tp1250
a(I6
I57
I0
g239
I1
tp1251
a(I6
I57
F0.625
g241
I1
tp1252
a(I6
I154
F0.375
g1069
I1
tp1253
a(I6
I304
I0
g243
I1
tp1254
a(I6
I347
I0
g1215
I1
tp1255
a(I6
I366
I0
g657
I1
tp1256
a(I9
I58
I0
g1217
I1
tp1257
a(I9
I187
F-0.75
g1072
I1
tp1258
a(I10
I17
F-0.625
g245
I1
tp1259
a(I10
I17
F0.125
g247
I1
tp1260
a(I10
I17
F1.0
g249
I1
tp1261
a(I10
I40
I0
g1077
I1
tp1262
a(I10
I97
I0
g251
I1
tp1263
a(I10
I98
F-0.5
g1080
I1
tp1264
a(I10
I122
F1.0
g662
I1
tp1265
a(I10
I149
F0.5
g253
I1
tp1266
a(I11
I2
F0.25
g944
I1
tp1267
a(I12
I94
F0.125
g1085
I1
tp1268
a(I12
I121
I0
g255
I1
tp1269
a(I12
I121
F0.625
g257
I1
tp1270
a(I13
I19
F1.0
g664
I1
tp1271
a(I13
I19
F1.0
g666
I1
tp1272
a(I17
I4
F0.75
g259
I1
tp1273
a(I18
I47
F1.0
g668
I1
tp1274
a(I18
I49
F1.0
g670
I1
tp1275
a(I19
I1
F-0.75
g1091
I1
tp1276
a(I19
I103
F-0.5
g261
I1
tp1277
a(I19
I138
F0.875
g953
I1
tp1278
a(I19
I200
F1.0
g672
I1
tp1279
a(I20
I13
F1.0
g674
I1
tp1280
a(I20
I77
F1.0
g263
I1
tp1281
a(I20
I83
I0
g956
I1
tp1282
a(I22
I12
F0.25
g958
I1
tp1283
a(I22
I183
F1.0
g677
I1
tp1284
a(I22
I213
I0
S'great'
p1285
I1
tp1286
a(I24
I96
F1.0
g1097
I1
tp1287
a(I25
I20
I0
g265
I1
tp1288
a(I25
I23
F1.0
g267
I1
tp1289
a(I25
I39
F-0.75
g962
I1
tp1290
a(I25
I65
F1.0
g269
I1
tp1291
a(I25
I178
F-0.25
g964
I1
tp1292
a(I25
I296
F-0.25
g271
I1
tp1293
a(I25
I313
I0
g273
I1
tp1294
a(I25
I346
F1.0
g681
I1
tp1295
a(I25
I408
I0
S'incredible'
p1296
I1
tp1297
a(I0
I3
F0.625
S'extraordinary'
p1298
I19
tp1299
a(I0
I3
I0
S'unplugged'
p1300
I19
tp1301
a(I1
I69
F-0.75
g215
I19
tp1302
a(I3
I22
F1.0
g650
I19
tp1303
a(I3
I31
I0
S'adequate'
p1304
I19
tp1305
a(I3
I31
I0
S'normal'
p1306
I19
tp1307
a(I4
I108
F0.5
g654
I19
tp1308
a(I4
I110
F0.125
g229
I19
tp1309
a(I4
I193
F-0.5
g231
I19
tp1310
a(I4
I194
F0.875
g233
I19
tp1311
a(I4
I269
I0
g1247
I19
tp1312
a(I6
I45
I0
g237
I19
tp1313
a(I6
I304
I0
g243
I19
tp1314
a(I6
I366
I0
g657
I19
tp1315
a(I9
I58
I0
g1217
I19
tp1316
a(I9
I187
F-0.75
g1072
I19
tp1317
a(I10
I17
F0.125
g247
I19
tp1318
a(I10
I17
F1.0
g249
I19
tp1319
a(I10
I40
I0
g1077
I19
tp1320
a(I10
I122
F1.0
g662
I19
tp1321
a(I10
I149
F0.5
g253
I19
tp1322
a(I13
I19
F1.0
g664
I19
tp1323
a(I13
I19
F1.0
g666
I19
tp1324
a(I18
I47
F1.0
g668
I19
tp1325
a(I18
I69
I0
S'android'
p1326
I19
tp1327
a(I19
I138
F0.875
g953
I19
tp1328
a(I19
I200
F1.0
g672
I19
tp1329
a(I20
I13
F1.0
g674
I19
tp1330
a(I20
I83
I0
g956
I19
tp1331
a(I22
I12
F0.25
g958
I19
tp1332
a(I22
I46
F0.625
S'easier'
p1333
I19
tp1334
a(I22
I147
F0.625
S'easier'
p1335
I19
tp1336
a(I22
I147
F-0.5
S'less'
p1337
I19
tp1338
a(I22
I147
F0.5
S'expensive'
p1339
I19
tp1340
a(I22
I183
F1.0
g677
I19
tp1341
a(I22
I213
I0
g1285
I19
tp1342
a(I25
I20
I0
g265
I19
tp1343
a(I25
I178
F-0.25
g964
I19
tp1344
a(I25
I346
F1.0
g681
I19
tp1345
a(I25
I408
I0
g1296
I19
tp1346
a(I0
I45
F-0.625
S'other'
p1347
I15
tp1348
a(I0
I59
F-0.5
S'long'
p1349
I15
tp1350
a(I1
I6
F0.625
S'decent'
p1351
I15
tp1352
a(I1
I6
I0
S'great'
p1353
I15
tp1354
a(I1
I92
F-0.5
S'worry'
p1355
I15
tp1356
a(I1
I92
F-0.5
S'longer'
p1357
I15
tp1358
a(I1
I140
F-0.75
S'short'
p1359
I15
tp1360
a(I2
I21
F0.375
S'extended'
p1361
I15
tp1362
a(I2
I63
F-0.5
g217
I15
tp1363
a(I2
I81
F-0.5
S'poor'
p1364
I15
tp1365
a(I2
I93
F-0.5
S'less'
p1366
I15
tp1367
a(I2
I111
F0.375
g1054
I15
tp1368
a(I2
I111
F-0.625
g1056
I15
tp1369
a(I2
I111
F0.375
g1058
I15
tp1370
a(I3
I21
F0.625
g219
I15
tp1371
a(I3
I21
F0.125
g221
I15
tp1372
a(I3
I23
F0.5
S'stronger'
p1373
I15
tp1374
a(I3
I73
F0.25
S'original'
p1375
I15
tp1376
a(I4
I6
F0.125
S'last'
p1377
I15
tp1378
a(I4
I38
F0.375
S'extended'
p1379
I15
tp1380
a(I4
I61
I0
S'more'
p1381
I15
tp1382
a(I4
I66
F1.0
g652
I15
tp1383
a(I4
I80
I0
g223
I15
tp1384
a(I4
I80
F-0.875
g225
I15
tp1385
a(I4
I80
F1.0
g227
I15
tp1386
a(I4
I138
F-0.875
S'hard'
p1387
I15
tp1388
a(I4
I161
F0.125
g1243
I15
tp1389
a(I4
I195
F0.375
S'extra'
p1390
I15
tp1391
a(I4
I195
I0
S'large'
p1392
I15
tp1393
a(I4
I246
F0.25
S'biggest'
p1394
I15
tp1395
a(I4
I250
F0.125
g1154
I15
tp1396
a(I5
I39
F-0.25
S'revolutionary'
p1397
I15
tp1398
a(I6
I6
F0.5
S'true'
p1399
I15
tp1400
a(I6
I6
F0.625
S'removable'
p1401
I15
tp1402
a(I6
I10
F0.25
S'bigger'
p1403
I15
tp1404
a(I6
I45
F0.375
g235
I15
tp1405
a(I6
I56
F-0.25
S'low'
p1406
I15
tp1407
a(I6
I57
I0
g239
I15
tp1408
a(I6
I57
F0.625
g241
I15
tp1409
a(I6
I65
I0
S'full'
p1410
I15
tp1411
a(I6
I82
F-0.5
S'less'
p1412
I15
tp1413
a(I6
I154
F0.375
g1069
I15
tp1414
a(I6
I267
I0
S'such'
p1415
I15
tp1416
a(I6
I267
I0
S'large'
p1417
I15
tp1418
a(I6
I347
I0
g1215
I15
tp1419
a(I7
I105
F1.0
S'good'
p1420
I15
tp1421
a(I7
I116
F0.75
S'worth'
p1422
I15
tp1423
a(I8
I21
F0.375
S'much'
p1424
I15
tp1425
a(I8
I60
F-0.75
S'bright'
p1426
I15
tp1427
a(I9
I10
I0
S'large'
p1428
I15
tp1429
a(I9
I32
I0
S'large'
p1430
I15
tp1431
a(I9
I92
F0.25
S'bigger'
p1432
I15
tp1433
a(I9
I107
F-0.25
S'battery'
p1434
I15
tp1435
a(I9
I116
F-0.75
S'dead'
p1436
I15
tp1437
a(I9
I119
F-0.875
S'worst'
p1438
I15
tp1439
a(I9
I146
F-0.875
S'stuck'
p1440
I15
tp1441
a(I9
I173
I0
S'full'
p1442
I15
tp1443
a(I9
I279
F-0.5
S'inadequate'
p1444
I15
tp1445
a(I9
I289
I0
S'real'
p1446
I15
tp1447
a(I10
I17
F-0.625
g245
I15
tp1448
a(I10
I82
I0
S'large'
p1449
I15
tp1450
a(I10
I88
F0.5
S'greater'
p1451
I15
tp1452
a(I10
I97
I0
g251
I15
tp1453
a(I10
I98
F-0.5
g1080
I15
tp1454
a(I11
I2
F0.25
g944
I15
tp1455
a(I11
I3
I0
S'internal'
p1456
I15
tp1457
a(I11
I25
F0.375
g1156
I15
tp1458
a(I12
I50
F-0.375
g1158
I15
tp1459
a(I12
I51
I0
S'incredible'
p1460
I15
tp1461
a(I12
I94
F0.125
g1085
I15
tp1462
a(I12
I121
I0
g255
I15
tp1463
a(I12
I121
F0.625
g257
I15
tp1464
a(I13
I2
F-0.5
S'weak'
p1465
I15
tp1466
a(I13
I2
F0.875
S'lucky'
p1467
I15
tp1468
a(I15
I2
I0
S'phenomenal'
p1469
I15
tp1470
a(I17
I4
F0.75
g259
I15
tp1471
a(I18
I13
F-0.5
S'insane'
p1472
I15
tp1473
a(I18
I49
F1.0
g670
I15
tp1474
a(I19
I1
F-0.75
g1091
I15
tp1475
a(I19
I61
F0.25
S'powerful'
p1476
I15
tp1477
a(I19
I61
F0.875
S'important'
p1478
I15
tp1479
a(I19
I61
F-0.5
S'weak'
p1480
I15
tp1481
a(I19
I67
F0.25
S'stellar'
p1482
I15
tp1483
a(I19
I67
F0.5
S'accurate'
p1484
I15
tp1485
a(I19
I103
F-0.5
g261
I15
tp1486
a(I19
I187
F1.0
S'better'
p1487
I15
tp1488
a(I20
I77
F1.0
g263
I15
tp1489
a(I22
I37
I0
S'big'
p1490
I15
tp1491
a(I22
I41
I0
S'non-issue'
p1492
I15
tp1493
a(I22
I73
F0.625
S'removable'
p1494
I15
tp1495
a(I22
I87
I0
S'such'
p1496
I15
tp1497
a(I22
I151
F-0.5
S'long'
p1498
I15
tp1499
a(I22
I232
F0.875
S'important'
p1500
I15
tp1501
a(I22
I232
F0.375
S'extended'
p1502
I15
tp1503
a(I22
I239
F0.375
S'new'
p1504
I15
tp1505
a(I22
I239
I0
S'more'
p1506
I15
tp1507
a(I22
I269
I0
S'empty'
p1508
I15
tp1509
a(I22
I269
I0
S'full'
p1510
I15
tp1511
a(I24
I24
F0.25
S'powerful'
p1512
I15
tp1513
a(I24
I57
F0.25
S'larger'
p1514
I15
tp1515
a(I24
I87
F0.375
S'reliable'
p1516
I15
tp1517
a(I24
I96
F1.0
g1097
I15
tp1518
a(I25
I15
I0
S'hot'
p1519
I15
tp1520
a(I25
I23
F1.0
g267
I15
tp1521
a(I25
I39
F-0.75
g962
I15
tp1522
a(I25
I65
F1.0
g269
I15
tp1523
a(I25
I78
I0
S'great'
p1524
I15
tp1525
a(I25
I82
F0.375
S'extra'
p1526
I15
tp1527
a(I25
I131
F-0.75
S'dead'
p1528
I15
tp1529
a(I25
I162
F0.875
S'nice'
p1530
I15
tp1531
a(I25
I162
F-0.75
S'little'
p1532
I15
tp1533
a(I25
I205
I0
S'optional'
p1534
I15
tp1535
a(I25
I296
F-0.25
g271
I15
tp1536
a(I25
I310
F0.25
S'biggest'
p1537
I15
tp1538
a(I25
I313
I0
g273
I15
tp1539
as(S'of'
p1540
S'battery'
p1541
S'life'
p1542
tp1543
(lp1544
(I4
I80
I0
g223
I0
tp1545
a(I4
I80
F-0.875
g225
I0
tp1546
a(I4
I80
F1.0
g227
I0
tp1547
a(I4
I110
F0.125
g229
I0
tp1548
a(I6
I45
F0.375
g235
I0
tp1549
a(I6
I45
I0
g237
I0
tp1550
a(I6
I57
I0
g239
I0
tp1551
a(I6
I57
F0.625
g241
I0
tp1552
a(I6
I154
F0.375
g1069
I0
tp1553
a(I9
I187
F-0.75
g1072
I0
tp1554
a(I10
I17
F-0.625
g245
I0
tp1555
a(I10
I17
F0.125
g247
I0
tp1556
a(I10
I17
F1.0
g249
I0
tp1557
a(I10
I98
F-0.5
g1080
I0
tp1558
a(I10
I122
F1.0
g662
I0
tp1559
a(I12
I94
F0.125
g1085
I0
tp1560
a(I19
I103
F-0.5
g261
I0
tp1561
a(I22
I12
F0.25
g958
I0
tp1562
a(I25
I23
F1.0
g267
I0
tp1563
a(I25
I178
F-0.25
g964
I0
tp1564
a(I25
I313
I0
g273
I0
tp1565
as(S'on'
p1566
S'razr'
p1567
S'maxx'
p1568
tp1569
(lp1570
(I1
I117
F0.375
g428
I0
tp1571
a(I1
I143
F1.0
g430
I0
tp1572
a(I4
I76
I0
g432
I0
tp1573
a(I4
I139
I0
g434
I0
tp1574
a(I5
I58
I0
g436
I0
tp1575
a(I6
I46
I0
g438
I0
tp1576
a(I6
I54
I0
g442
I0
tp1577
a(I6
I54
F0.625
g444
I0
tp1578
a(I6
I54
F-0.375
g446
I0
tp1579
a(I6
I55
I0
g448
I0
tp1580
a(I7
I115
I0
g450
I0
tp1581
a(I9
I177
I0
g452
I0
tp1582
a(I11
I54
F-0.5
g454
I0
tp1583
a(I12
I50
F0.75
g456
I0
tp1584
a(I16
I4
F0.5
g460
I0
tp1585
a(I19
I69
F0.625
g462
I0
tp1586
a(I19
I103
F0.375
g464
I0
tp1587
a(I19
I153
F0.875
g466
I0
tp1588
a(I20
I5
F0.375
g468
I0
tp1589
a(I25
I242
F0.75
g484
I0
tp1590
a(I25
I242
F0.375
g486
I0
tp1591
a(I25
I242
I0
g488
I0
tp1592
a(I25
I419
F0.125
g492
I0
tp1593
as(S'love'
p1594
S'love'
p1595
S'love'
p1596
tp1597
(lp1598
(I0
I105
F1.0
S'love'
p1599
I2
tp1600
a(I0
I105
F1.0
S'good'
p1601
I2
tp1602
a(I6
I202
I0
S'more'
p1603
I2
tp1604
as(S'alarm'
p1605
S'clock'
p1606
tp1607
(lp1608
(I24
I42
I0
S'useful'
p1609
I0
tp1610
as(S'great'
p1611
S'battery'
p1612
S'life'
p1613
tp1614
(lp1615
(I2
I63
F-0.5
g217
I0
tp1616
a(I6
I347
I0
g1215
I0
tp1617
a(I6
I366
I0
g657
I0
tp1618
a(I9
I58
I0
g1217
I0
tp1619
a(I10
I17
F-0.625
g245
I0
tp1620
a(I10
I17
F0.125
g247
I0
tp1621
a(I10
I17
F1.0
g249
I0
tp1622
a(I10
I40
I0
g1077
I0
tp1623
a(I10
I97
I0
g251
I0
tp1624
a(I12
I94
F0.125
g1085
I0
tp1625
a(I12
I121
I0
g255
I0
tp1626
a(I12
I121
F0.625
g257
I0
tp1627
a(I20
I83
I0
g956
I0
tp1628
a(I22
I213
I0
g1285
I0
tp1629
a(I25
I20
I0
g265
I0
tp1630
a(I25
I23
F1.0
g267
I0
tp1631
a(I2
I63
F-0.5
g217
I0
tp1632
a(I6
I347
I0
g1215
I0
tp1633
a(I6
I366
I0
g657
I0
tp1634
a(I9
I58
I0
g1217
I0
tp1635
a(I10
I17
F-0.625
g245
I0
tp1636
a(I10
I17
F0.125
g247
I0
tp1637
a(I10
I17
F1.0
g249
I0
tp1638
a(I10
I40
I0
g1077
I0
tp1639
a(I10
I97
I0
g251
I0
tp1640
a(I12
I94
F0.125
g1085
I0
tp1641
a(I12
I121
I0
g255
I0
tp1642
a(I12
I121
F0.625
g257
I0
tp1643
a(I20
I83
I0
g956
I0
tp1644
a(I22
I213
I0
g1285
I0
tp1645
a(I25
I20
I0
g265
I0
tp1646
a(I25
I23
F1.0
g267
I0
tp1647
as(S'wifi'
p1648
tp1649
(lp1650
(I0
I9
F-0.125
S'public'
p1651
I0
tp1652
a(I3
I77
F0.375
S'available'
p1653
I0
tp1654
a(I6
I19
I0
S'great'
p1655
I0
tp1656
a(I9
I110
F-0.5
S'sure'
p1657
I0
tp1658
a(I10
I129
I0
S'sensitive'
p1659
I0
tp1660
a(I17
I5
I0
S'quick'
p1661
I0
tp1662
a(I17
I5
F0.75
S'constant'
p1663
I0
tp1664
a(I17
I5
I0
S'quick'
p1665
I0
tp1666
a(I25
I126
F-0.625
S'free'
p1667
I0
tp1668
as(S'super'
p1669
S'amoled'
p1670
S'screen'
p1671
tp1672
(lp1673
(I11
I13
F0.75
S'beautiful'
p1674
I0
tp1675
a(I22
I43
F0.875
S'nice'
p1676
I0
tp1677
a(I25
I24
F0.75
S'beautiful'
p1678
I0
tp1679
as(S'apps'
p1680
tp1681
(lp1682
(I0
I11
I0
S'most'
p1683
I0
tp1684
a(I0
I36
F0.375
S'available'
p1685
I0
tp1686
a(I0
I77
I0
S'old'
p1687
I0
tp1688
a(I1
I33
I0
S'download'
p1689
I0
tp1690
a(I1
I33
I0
S'install'
p1691
I0
tp1692
a(I3
I66
F-0.625
S'other'
p1693
I0
tp1694
a(I3
I66
F0.375
S'available'
p1695
I0
tp1696
a(I4
I7
I0
S'updated'
p1697
I0
tp1698
a(I4
I42
F0.75
S'fit'
p1699
I0
tp1700
a(I4
I51
I0
S'many'
p1701
I0
tp1702
a(I6
I65
F-0.5
S'sure'
p1703
I0
tp1704
a(I7
I81
F-0.75
S'unresponsive'
p1705
I0
tp1706
a(I8
I23
F0.875
S'nice'
p1707
I0
tp1708
a(I9
I57
F-0.625
S'other'
p1709
I0
tp1710
a(I10
I17
I0
S'more'
p1711
I0
tp1712
a(I10
I20
F-0.75
S'single'
p1713
I0
tp1714
a(I10
I20
F-0.5
S'suspect'
p1715
I0
tp1716
a(I11
I4
I0
S'appear'
p1717
I0
tp1718
a(I11
I21
I0
S'old'
p1719
I0
tp1720
a(I13
I72
I0
S'forth'
p1721
I0
tp1722
a(I20
I89
F0.625
S'add'
p1723
I0
tp1724
a(I20
I89
I0
S'minimal'
p1725
I0
tp1726
a(I24
I8
F-0.375
S'alter'
p1727
I0
tp1728
a(I24
I43
F0.625
S'easy'
p1729
I0
tp1730
a(I24
I62
F0.375
S'available'
p1731
I0
tp1732
a(I25
I20
I0
S'great'
p1733
I0
tp1734
a(I25
I277
F0.75
S'give'
p1735
I0
tp1736
a(I25
I282
F-0.625
S'free'
p1737
I0
tp1738
a(I25
I367
I0
S'many'
p1739
I0
tp1740
as(S'amazon'
p1741
tp1742
(lp1743
(I7
I93
I0
S'post-haste'
p1744
I13
tp1745
a(I11
I100
F0.875
S'happy'
p1746
I13
tp1747
a(I12
I74
F-0.875
S'stuck'
p1748
I13
tp1749
a(I13
I5
F-0.625
S'glad'
p1750
I13
tp1751
a(I18
I105
F0.5
S'careful'
p1752
I13
tp1753
a(I19
I187
I0
S'great'
p1754
I13
tp1755
as(S'power'
p1756
S'button'
p1757
tp1758
(lp1759
(I4
I60
F-0.5
S'actual'
p1760
I0
tp1761
a(I4
I208
F-0.5
S'flimsy'
p1762
I0
tp1763
a(I10
I128
F1.0
S'better'
p1764
I0
tp1765
as(S'razr'
p1766
S'maxx'
p1767
S'hd'
p1768
tp1769
(lp1770
(I6
I164
F0.5
S'clear'
p1771
I0
tp1772
a(I25
I242
F0.75
g484
I0
tp1773
a(I25
I242
F0.375
g486
I0
tp1774
a(I25
I242
I0
g488
I0
tp1775
a(I0
I51
F0.875
g426
I0
tp1776
a(I1
I117
F0.375
g428
I0
tp1777
a(I1
I143
F1.0
g430
I0
tp1778
a(I4
I76
I0
g432
I0
tp1779
a(I4
I139
I0
g434
I0
tp1780
a(I5
I58
I0
g436
I0
tp1781
a(I6
I46
I0
g438
I0
tp1782
a(I6
I53
I0
g440
I0
tp1783
a(I6
I54
I0
g442
I0
tp1784
a(I6
I54
F0.625
g444
I0
tp1785
a(I6
I54
F-0.375
g446
I0
tp1786
a(I6
I55
I0
g448
I0
tp1787
a(I7
I115
I0
g450
I0
tp1788
a(I9
I177
I0
g452
I0
tp1789
a(I11
I54
F-0.5
g454
I0
tp1790
a(I12
I50
F0.75
g456
I0
tp1791
a(I12
I104
I0
g458
I0
tp1792
a(I16
I4
F0.5
g460
I0
tp1793
a(I19
I69
F0.625
g462
I0
tp1794
a(I19
I103
F0.375
g464
I0
tp1795
a(I19
I153
F0.875
g466
I0
tp1796
a(I20
I5
F0.375
g468
I0
tp1797
a(I22
I174
I0
g470
I0
tp1798
a(I23
I0
F0.125
g472
I0
tp1799
a(I24
I32
F0.875
g474
I0
tp1800
a(I24
I47
F0.75
g476
I0
tp1801
a(I25
I82
I0
g478
I0
tp1802
a(I25
I82
F-0.75
g480
I0
tp1803
a(I25
I82
F-0.5
g482
I0
tp1804
a(I25
I242
F0.75
g484
I0
tp1805
a(I25
I242
F0.375
g486
I0
tp1806
a(I25
I242
I0
g488
I0
tp1807
a(I25
I256
F0.375
g490
I0
tp1808
a(I25
I419
F0.125
g492
I0
tp1809
a(I25
I422
F0.375
g494
I0
tp1810
a(I0
I55
I0
S'standard'
p1811
I0
tp1812
a(I0
I61
F0.25
S'original'
p1813
I0
tp1814
a(I1
I88
I0
S'more'
p1815
I0
tp1816
a(I1
I88
F-0.75
S'comfortable'
p1817
I0
tp1818
a(I1
I117
F0.375
g428
I0
tp1819
a(I1
I118
F0.75
S'due'
p1820
I0
tp1821
a(I1
I143
F1.0
g430
I0
tp1822
a(I2
I9
I0
S'later'
p1823
I0
tp1824
a(I4
I40
I0
S'standard'
p1825
I0
tp1826
a(I4
I139
I0
g434
I0
tp1827
a(I5
I58
I0
g436
I0
tp1828
a(I6
I53
I0
g440
I0
tp1829
a(I6
I54
I0
g442
I0
tp1830
a(I6
I54
F0.625
g444
I0
tp1831
a(I6
I54
F-0.375
g446
I0
tp1832
a(I6
I55
I0
g448
I0
tp1833
a(I6
I73
I0
S'standard'
p1834
I0
tp1835
a(I6
I154
I0
S'general'
p1836
I0
tp1837
a(I6
I301
I0
S'fast'
p1838
I0
tp1839
a(I7
I115
I0
g450
I0
tp1840
a(I7
I117
I0
S'cool'
p1841
I0
tp1842
a(I9
I177
I0
g452
I0
tp1843
a(I9
I265
F-0.5
S'less'
p1844
I0
tp1845
a(I9
I295
F0.375
S'new'
p1846
I0
tp1847
a(I9
I310
I0
S'fast'
p1848
I0
tp1849
a(I11
I54
F-0.5
g454
I0
tp1850
a(I12
I104
I0
g458
I0
tp1851
a(I13
I8
F0.625
S'superior'
p1852
I0
tp1853
a(I13
I43
F-0.5
S'regular'
p1854
I0
tp1855
a(I16
I4
F0.5
g460
I0
tp1856
a(I19
I103
F0.375
g464
I0
tp1857
a(I19
I114
I0
S'standard'
p1858
I0
tp1859
a(I19
I187
F0.375
S'new'
p1860
I0
tp1861
a(I20
I5
F0.375
g468
I0
tp1862
a(I24
I16
I0
S'old'
p1863
I0
tp1864
a(I24
I32
F0.875
g474
I0
tp1865
a(I24
I85
F0.5
S'hopeful'
p1866
I0
tp1867
a(I24
I87
F1.0
S'better'
p1868
I0
tp1869
a(I24
I91
I0
S'different'
p1870
I0
tp1871
a(I24
I91
F-0.375
S'animal'
p1872
I0
tp1873
a(I25
I33
F0.25
S'original'
p1874
I0
tp1875
a(I25
I82
F-0.5
g482
I0
tp1876
a(I25
I147
I0
S'faster'
p1877
I0
tp1878
a(I25
I242
F0.75
g484
I0
tp1879
a(I25
I242
F0.375
g486
I0
tp1880
a(I25
I242
I0
g488
I0
tp1881
a(I25
I256
F0.375
g490
I0
tp1882
a(I25
I419
F0.125
g492
I0
tp1883
a(I25
I422
F0.375
g494
I0
tp1884
a(I0
I51
F0.875
g426
I0
tp1885
a(I4
I76
I0
g432
I0
tp1886
a(I6
I46
I0
g438
I0
tp1887
a(I6
I58
F0.75
S'beautiful'
p1888
I0
tp1889
a(I6
I246
F-0.5
S'sure'
p1890
I0
tp1891
a(I9
I56
F-0.375
S'small'
p1892
I0
tp1893
a(I9
I56
F0.375
S'loud'
p1894
I0
tp1895
a(I9
I120
F0.75
S'worth'
p1896
I0
tp1897
a(I9
I275
F0.625
S'aware'
p1898
I0
tp1899
a(I9
I282
I0
S'awhile'
p1900
I0
tp1901
a(I9
I286
F0.375
S'much'
p1902
I0
tp1903
a(I9
I330
F0.5
S'compare'
p1904
I0
tp1905
a(I10
I10
F-0.25
S'potential'
p1906
I0
tp1907
a(I12
I50
F0.75
g456
I0
tp1908
a(I19
I21
F-0.375
S'smooth'
p1909
I0
tp1910
a(I19
I68
F0.875
S'happy'
p1911
I0
tp1912
a(I19
I68
F0.5
S'second'
p1913
I0
tp1914
a(I19
I69
F0.625
g462
I0
tp1915
a(I19
I153
F0.875
g466
I0
tp1916
a(I20
I9
F0.375
S'new'
p1917
I0
tp1918
a(I22
I54
I0
S'more'
p1919
I0
tp1920
a(I22
I54
F0.125
S'solid'
p1921
I0
tp1922
a(I22
I174
I0
g470
I0
tp1923
a(I22
I210
F0.375
S'new'
p1924
I0
tp1925
a(I22
I210
F1.0
S'better'
p1926
I0
tp1927
a(I23
I0
F0.125
g472
I0
tp1928
a(I24
I47
F0.75
g476
I0
tp1929
a(I25
I82
I0
g478
I0
tp1930
a(I25
I82
F-0.75
g480
I0
tp1931
a(I25
I229
I0
S'more'
p1932
I0
tp1933
as.