(dp0
(S'windows'
p1
tp2
(lp3
(I3
I2
F-0.25
S'low'
p4
I0
tp5
a(I7
I31
F0.5
S'possible'
p6
I0
tp7
as(S'battery'
p8
S'life'
p9
tp10
(lp11
(I2
I4
I0
S'great'
p12
I1
tp13
a(I4
I43
F0.25
S'stellar'
p14
I1
tp15
a(I5
I14
F-0.5
S'long'
p16
I1
tp17
a(I5
I14
F0.875
S'important'
p18
I1
tp19
a(I9
I30
F1.0
S'good'
p20
I1
tp21
a(I1
I0
F0.125
S'first'
p22
I15
tp23
a(I1
I4
F-0.25
S'turned'
p24
I15
tp25
a(I1
I4
F-0.75
S'dead'
p26
I15
tp27
a(I3
I21
I0
S'fast'
p28
I15
tp29
a(I3
I21
F1.0
S'good'
p30
I15
tp31
a(I4
I29
F0.125
S'charger'
p32
I15
tp33
a(I10
I34
F0.125
S'last'
p34
I15
tp35
as(S'nokia'
p36
S'lumia'
p37
tp38
(lp39
(I7
I4
F-0.375
S'happen'
p40
I0
tp41
a(I9
I3
F0.375
S'new'
p42
I0
tp43
a(I1
I10
F-0.125
S'super'
p44
I0
tp45
a(I1
I10
I0
S'great'
p46
I0
tp47
a(I3
I16
F0.375
S'new'
p48
I0
tp49
a(I7
I4
F-0.375
g40
I0
tp50
a(I9
I3
F0.375
g42
I0
tp51
a(I9
I16
I0
S'old'
p52
I0
tp53
a(I9
I17
I0
S'old'
p54
I0
tp55
a(I10
I46
F-0.625
S'other'
p56
I0
tp57
a(I4
I2
F0.375
S'new'
p58
I0
tp59
as(S'sim'
p60
S'card'
p61
tp62
(lp63
(I14
I14
F0.125
S'able'
p64
I0
tp65
a(I14
I14
I0
S'local'
p66
I0
tp67
as(S'apps'
p68
tp69
(lp70
(I3
I11
I0
S'many'
p71
I0
tp72
a(I4
I11
F-0.625
S'free'
p73
I0
tp74
a(I7
I28
I0
S'adequate'
p75
I0
tp76
a(I7
I28
I0
S'android'
p77
I0
tp78
a(I7
I28
F-0.625
S'bad'
p79
I0
tp80
a(I13
I2
F-0.5
S'certain'
p81
I0
tp82
as(S'camera'
p83
tp84
(lp85
(I7
I24
I0
S'quick'
p86
I1
tp87
a(I10
I45
I0
S'useful'
p88
I1
tp89
as.