(dp0
(S'seller'
p1
tp2
(lp3
(I12
I8
F0.875
S'reputable'
p4
I19
tp5
a(I14
I0
F0.875
S'reputable'
p6
I19
tp7
a(I21
I6
F0.625
S'easy'
p8
I19
tp9
a(I22
I16
I0
S'rubbish'
p10
I19
tp11
a(I27
I0
I0
S'great'
p12
I19
tp13
a(I27
I5
F1.0
S'good'
p14
I19
tp15
a(I46
I3
I0
S'great'
p16
I19
tp17
as(S'happy'
p18
S'with'
p19
S'purchase'
p20
tp21
(lp22
(I4
I20
F0.875
S'happy'
p23
I0
tp24
a(I6
I38
F-0.125
S'overall'
p25
I0
tp26
a(I6
I38
F0.875
S'happy'
p27
I0
tp28
a(I21
I9
F0.875
S'happy'
p29
I0
tp30
a(I43
I5
F0.875
S'happy'
p31
I0
tp32
a(I44
I2
F0.875
S'happy'
p33
I0
tp34
as(S'battery'
p35
S'life'
p36
tp37
(lp38
(I3
I9
F-0.75
S'short'
p39
I1
tp40
a(I6
I15
F-0.375
S'top'
p41
I1
tp42
a(I14
I50
F1.0
S'good'
p43
I1
tp44
a(I14
I50
F1.0
S'better'
p45
I1
tp46
a(I14
I51
F0.375
S'similar'
p47
I1
tp48
a(I33
I5
F-0.75
S'short'
p49
I1
tp50
a(I14
I51
F0.375
g47
I19
tp51
a(I0
I24
I0
S'same'
p52
I15
tp53
a(I3
I9
F-0.75
g39
I15
tp54
a(I6
I15
F-0.375
g41
I15
tp55
a(I6
I34
F0.25
S'original'
p56
I15
tp57
a(I11
I6
F0.5
S'possible'
p58
I15
tp59
a(I14
I50
F1.0
g43
I15
tp60
a(I14
I50
F1.0
g45
I15
tp61
a(I14
I53
F1.0
S'best'
p62
I15
tp63
a(I28
I1
F-0.5
S'poor'
p64
I15
tp65
a(I33
I5
F-0.75
g49
I15
tp66
a(I41
I1
F-0.625
S'bad'
p67
I15
tp68
as(S'stolen'
p69
tp70
(lp71
(I44
I26
F0.75
S'worth'
p72
I0
tp73
as(S'android'
p74
tp75
(lp76
(I14
I20
F-0.625
S'bad'
p77
I0
tp78
a(I14
I20
I0
S'latest'
p79
I0
tp80
a(I14
I75
F-0.25
S'modern'
p81
I0
tp82
a(I43
I6
F-0.75
S'likely'
p83
I0
tp84
as(S'great'
p85
S'condition'
p86
tp87
(lp88
(I0
I27
I0
S'great'
p89
I7
tp90
a(I14
I118
I0
S'great'
p91
I7
tp92
a(I15
I30
I0
S'great'
p93
I7
tp94
a(I17
I0
I0
S'great'
p95
I7
tp96
a(I24
I1
I0
S'great'
p97
I7
tp98
a(I33
I23
I0
S'great'
p99
I7
tp100
a(I44
I36
I0
S'great'
p101
I7
tp102
a(I47
I3
I0
S'great'
p103
I7
tp104
as(S'upgrade'
p105
tp106
(lp107
(I10
I18
F0.375
S'new'
p108
I3
tp109
a(I15
I24
I0
S'big'
p110
I3
tp111
a(I31
I14
F0.125
S'enough'
p112
I3
tp113
as(S'text'
p114
tp115
(lp116
(I0
I7
F0.125
S'able'
p117
I18
tp118
a(I14
I78
I0
S'switch'
p119
I18
tp120
a(I39
I5
F-0.75
S'unable'
p121
I18
tp122
as(S'apple'
p123
tp124
(lp125
(I6
I11
I0
S'great'
p126
I4
tp127
a(I13
I3
F-0.375
S'manual'
p128
I4
tp129
a(I14
I36
F0.25
S'biggest'
p130
I4
tp131
a(I29
I7
F0.375
S'new'
p132
I4
tp133
a(I33
I13
F-0.625
S'other'
p134
I4
tp135
a(I46
I47
F0.5
S'told'
p136
I4
tp137
as(S'siri'
p138
tp139
(lp140
(I0
I3
F0.125
S'capable'
p141
I0
tp142
a(I0
I17
F-0.5
S'complaint'
p143
I0
tp144
a(I0
I17
F-0.75
S'difficult'
p145
I0
tp146
a(I0
I17
F-0.75
S'impossible'
p147
I0
tp148
a(I14
I73
I0
S'site'
p149
I0
tp150
a(I17
I5
I0
S'own'
p151
I0
tp152
a(I31
I15
I0
S'faster'
p153
I0
tp154
a(I31
I15
I0
S'cool'
p155
I0
tp156
a(I33
I1
F0.625
S'easy'
p157
I0
tp158
a(I33
I1
I0
S'such'
p159
I0
tp160
as(S'verizon'
p161
tp162
(lp163
(I10
I11
F-0.25
S'white'
p164
I0
tp165
a(I15
I23
F0.25
S'helpful'
p166
I0
tp167
a(I15
I26
F-0.5
S'sure'
p168
I0
tp169
a(I46
I30
F0.125
S'able'
p170
I0
tp171
a(I46
I41
F-0.75
S'unable'
p172
I0
tp173
as(S'amazon'
p174
tp175
(lp176
(I10
I40
I0
S'old'
p177
I13
tp178
a(I31
I29
F0.5
S'told'
p179
I13
tp180
a(I46
I5
F-0.625
S'free'
p181
I13
tp182
as(S'new'
p183
S'iphone'
p184
tp185
(lp186
(I1
I0
F0.375
S'new'
p187
I0
tp188
a(I4
I29
F0.375
S'new'
p189
I0
tp190
a(I4
I29
I0
S'more'
p191
I0
tp192
a(I10
I27
F0.375
S'new'
p193
I0
tp194
a(I10
I27
F0.25
S'used'
p195
I0
tp196
a(I13
I4
F0.25
S'used'
p197
I0
tp198
a(I15
I10
F0.375
S'new'
p199
I0
tp200
a(I33
I16
F0.375
S'new'
p201
I0
tp202
a(I47
I20
F0.375
S'new'
p203
I0
tp204
a(I1
I0
F0.375
g187
I1
tp205
a(I4
I25
F0.125
S'first'
p206
I1
tp207
a(I4
I29
F0.375
g189
I1
tp208
a(I4
I29
I0
g191
I1
tp209
a(I6
I6
F0.125
S'able'
p210
I1
tp211
a(I10
I27
F0.375
g193
I1
tp212
a(I10
I27
F0.25
g195
I1
tp213
a(I13
I4
F0.25
g197
I1
tp214
a(I14
I12
I0
S'great'
p215
I1
tp216
a(I14
I19
F-0.625
S'average'
p217
I1
tp218
a(I14
I19
F-0.5
S'longer'
p219
I1
tp220
a(I14
I40
F-0.125
S'overall'
p221
I1
tp222
a(I14
I88
F-0.5
S'inadequate'
p223
I1
tp224
a(I15
I10
F0.375
g199
I1
tp225
a(I15
I15
F0.75
S'beautiful'
p226
I1
tp227
a(I15
I24
I0
S'next'
p228
I1
tp229
a(I18
I9
F0.125
S'first'
p230
I1
tp231
a(I22
I9
I0
S'later'
p232
I1
tp233
a(I29
I0
F0.25
S'refurbished'
p234
I1
tp235
a(I29
I0
I0
S'online'
p236
I1
tp237
a(I33
I16
F0.375
g201
I1
tp238
a(I43
I8
F0.5
S'second'
p239
I1
tp240
a(I44
I26
F0.25
S'used'
p241
I1
tp242
a(I44
I41
F1.0
S'good'
p243
I1
tp244
a(I46
I43
F0.875
S'happy'
p245
I1
tp246
a(I47
I0
F0.25
S'refurbished'
p247
I1
tp248
a(I47
I20
F0.375
g203
I1
tp249
a(I47
I28
F0.375
S'conscious'
p250
I1
tp251
as(S'camera'
p252
tp253
(lp254
(I0
I2
F-0.625
S'other'
p255
I1
tp256
a(I14
I41
I0
S'rear'
p257
I1
tp258
a(I14
I41
F-0.75
S'modest'
p259
I1
tp260
a(I14
I42
I0
S'rear'
p261
I1
tp262
a(I14
I44
I0
S'rear'
p263
I1
tp264
a(I14
I44
F-0.375
S'top'
p265
I1
tp266
a(I14
I47
F-0.125
S'overall'
p267
I1
tp268
a(I14
I47
F-0.375
S'top'
p269
I1
tp270
a(I14
I86
F1.0
S'good'
p271
I1
tp272
a(I14
I90
F-0.25
S'higher'
p273
I1
tp274
a(I31
I15
F0.125
S'essential'
p275
I1
tp276
a(I31
I22
F0.375
S'new'
p277
I1
tp278
a(I37
I14
F0.75
S'due'
p279
I1
tp280
as.