(dp0
(S'seller'
p1
tp2
(lp3
(I0
I10
F1.0
S'good'
p4
I19
tp5
a(I22
I65
I0
S'great'
p6
I19
tp7
as(S'android'
p8
tp9
(lp10
(I24
I6
F0.125
S'first'
p11
I0
tp12
as(S'straight'
p13
S'talk'
p14
tp15
(lp16
(I4
I7
F0.625
S'straight'
p17
I0
tp18
a(I4
I15
F0.625
S'straight'
p19
I0
tp20
a(I14
I3
F0.625
S'straight'
p21
I0
tp22
a(I24
I13
F0.625
S'straight'
p23
I0
tp24
a(I28
I12
F0.625
S'straight'
p25
I0
tp26
a(I4
I7
F0.625
g17
I13
tp27
a(I4
I15
F0.625
g19
I13
tp28
a(I14
I3
F0.625
g21
I13
tp29
a(I24
I13
F0.625
g23
I13
tp30
a(I28
I12
F0.625
g25
I13
tp31
as(S'battery'
p32
S'life'
p33
tp34
(lp35
(I3
I26
F-0.5
S'weak'
p36
I1
tp37
a(I4
I10
F0.125
S'last'
p38
I1
tp39
a(I4
I10
I0
S'such'
p40
I1
tp41
a(I19
I40
F1.0
S'best'
p42
I1
tp43
a(I19
I92
F1.0
S'good'
p44
I1
tp45
a(I22
I26
F1.0
S'good'
p46
I1
tp47
a(I22
I66
F-0.5
S'poor'
p48
I1
tp49
a(I22
I70
F0.25
S'stellar'
p50
I1
tp51
a(I29
I9
F-0.75
S'short'
p52
I1
tp53
a(I4
I10
I0
g40
I19
tp54
a(I22
I70
F0.25
g50
I19
tp55
a(I29
I9
F-0.75
g52
I19
tp56
a(I0
I12
F-0.75
S'dead'
p57
I15
tp58
a(I0
I16
F0.375
S'new'
p59
I15
tp60
a(I0
I16
F0.375
S'new'
p61
I15
tp62
a(I2
I7
I0
S'generic'
p63
I15
tp64
a(I3
I24
F-0.5
S'weak'
p65
I15
tp66
a(I3
I26
F-0.5
g36
I15
tp67
a(I4
I10
F0.125
g38
I15
tp68
a(I15
I11
F0.375
S'extra'
p69
I15
tp70
a(I19
I40
F1.0
g42
I15
tp71
a(I19
I81
F0.375
S'new'
p72
I15
tp73
a(I19
I88
F0.625
S'decent'
p74
I15
tp75
a(I19
I92
F1.0
g44
I15
tp76
a(I22
I15
F0.125
S'last'
p77
I15
tp78
a(I22
I26
F1.0
g46
I15
tp79
a(I22
I66
F-0.5
g48
I15
tp80
a(I22
I67
F0.5
S'greater'
p81
I15
tp82
a(I26
I9
I0
S'faster'
p83
I15
tp84
a(I32
I2
F0.125
S'last'
p85
I15
tp86
a(I32
I3
F0.125
S'last'
p87
I15
tp88
as(S'sim'
p89
S'card'
p90
tp91
(lp92
(I12
I6
I0
S'current'
p93
I0
tp94
a(I19
I14
I0
S'standard'
p95
I0
tp96
a(I21
I20
F0.375
S'new'
p97
I0
tp98
a(I29
I5
I0
S'european'
p99
I0
tp100
a(I33
I12
F-0.5
S'regular'
p101
I0
tp102
as(S'samsung'
p103
S'galaxy'
p104
tp105
(lp106
(I17
I2
F-0.625
S'other'
p107
I0
tp108
a(I6
I18
I0
S'real'
p109
I7
tp110
a(I7
I28
F0.25
S'original'
p111
I7
tp112
a(I17
I2
F-0.625
g107
I7
tp113
a(I8
I8
F0.5
S'comparable'
p114
I0
tp115
a(I19
I29
F0.25
S'sharp'
p116
I0
tp117
a(I19
I29
I0
S'old'
p118
I0
tp119
a(I22
I9
F-0.125
S'overall'
p120
I0
tp121
a(I33
I8
F1.0
S'good'
p122
I0
tp123
as(S'flash'
p124
tp125
(lp126
(I19
I51
F0.5
S'drive'
p127
I2
tp128
a(I19
I71
F1.0
S'best'
p129
I2
tp130
as(S'service'
p131
tp132
(lp133
(I2
I25
F1.0
S'good'
p134
I16
tp135
as(S'apps'
p136
tp137
(lp138
(I5
I15
I0
S'useful'
p139
I0
tp140
a(I5
I15
I0
S'more'
p141
I0
tp142
a(I12
I16
F0.25
S'helpful'
p143
I0
tp144
a(I12
I16
F-0.5
S'unavailable'
p145
I0
tp146
a(I18
I3
F-0.625
S'free'
p147
I0
tp148
a(I19
I47
I0
S'downloaded'
p149
I0
tp150
a(I19
I56
I0
S'few'
p151
I0
tp152
a(I19
I57
I0
S'more'
p153
I0
tp154
a(I19
I57
I0
S'later'
p155
I0
tp156
a(I22
I23
I0
S'android'
p157
I0
tp158
a(I31
I9
I0
S'same'
p159
I0
tp160
as(S'amazon'
p161
tp162
(lp163
(I18
I6
F0.5
S'stylish'
p164
I13
tp165
a(I18
I6
F0.125
S'colourful'
p166
I13
tp167
a(I22
I52
I0
S'more'
p168
I13
tp169
a(I25
I0
I0
S'own'
p170
I13
tp171
a(I29
I12
F0.375
S'prime'
p172
I13
tp173
as(S'camera'
p174
tp175
(lp176
(I24
I7
F0.875
S'nice'
p177
I1
tp178
as(S'mobile'
p179
tp180
(lp181
(I2
I28
F-0.875
S'worst'
p182
I0
tp183
a(I2
I44
F0.25
S'changed'
p184
I0
tp185
as.