(dp0
(S'original'
p1
S'evo'
p2
tp3
(lp4
(I1
I231
F0.25
S'original'
p5
I0
tp6
a(I2
I5
F0.5
S'rid'
p7
I0
tp8
a(I2
I5
F0.25
S'original'
p9
I0
tp10
a(I3
I61
F-0.125
S'overall'
p11
I0
tp12
a(I3
I61
F0.25
S'original'
p13
I0
tp14
a(I3
I61
F1.0
S'better'
p15
I0
tp16
a(I3
I188
F0.25
S'original'
p17
I0
tp18
a(I4
I8
F0.25
S'original'
p19
I0
tp20
a(I4
I54
F0.25
S'original'
p21
I0
tp22
a(I4
I56
F0.25
S'original'
p23
I0
tp24
a(I4
I104
F0.25
S'original'
p25
I0
tp26
a(I4
I108
F0.25
S'original'
p27
I0
tp28
a(I4
I112
F0.25
S'original'
p29
I0
tp30
a(I4
I175
F0.25
S'original'
p31
I0
tp32
a(I4
I180
F0.375
S'similar'
p33
I0
tp34
a(I4
I180
F0.25
S'original'
p35
I0
tp36
a(I5
I3
F0.125
S'first'
p37
I0
tp38
a(I5
I3
F0.25
S'original'
p39
I0
tp40
a(I5
I15
F0.25
S'original'
p41
I0
tp42
a(I6
I138
F0.25
S'original'
p43
I0
tp44
a(I6
I143
F0.25
S'original'
p45
I0
tp46
a(I6
I143
F1.0
S'good'
p47
I0
tp48
a(I6
I150
F0.375
S'loud'
p49
I0
tp50
a(I6
I150
F0.25
S'original'
p51
I0
tp52
a(I6
I157
F0.25
S'original'
p53
I0
tp54
a(I6
I160
F0.25
S'original'
p55
I0
tp56
a(I6
I162
F0.25
S'original'
p57
I0
tp58
a(I6
I164
F0.25
S'original'
p59
I0
tp60
a(I6
I186
F0.25
S'original'
p61
I0
tp62
a(I7
I266
F0.25
S'original'
p63
I0
tp64
a(I7
I270
F0.25
S'original'
p65
I0
tp66
a(I7
I281
F0.25
S'original'
p67
I0
tp68
a(I7
I304
F0.25
S'original'
p69
I0
tp70
a(I8
I24
F0.25
S'original'
p71
I0
tp72
a(I8
I26
F0.25
S'original'
p73
I0
tp74
a(I9
I70
F0.25
S'original'
p75
I0
tp76
a(I9
I189
F0.25
S'original'
p77
I0
tp78
a(I9
I239
F0.25
S'original'
p79
I0
tp80
a(I9
I239
F0.125
S'first'
p81
I0
tp82
a(I9
I240
F0.25
S'original'
p83
I0
tp84
a(I9
I240
F0.875
S'happy'
p85
I0
tp86
a(I12
I0
F0.25
S'original'
p87
I0
tp88
a(I12
I32
F0.25
S'original'
p89
I0
tp90
a(I12
I46
F0.25
S'original'
p91
I0
tp92
a(I12
I51
F0.25
S'original'
p93
I0
tp94
a(I12
I76
F0.25
S'original'
p95
I0
tp96
a(I12
I174
F0.25
S'original'
p97
I0
tp98
a(I12
I174
F1.0
S'better'
p99
I0
tp100
a(I12
I198
F0.25
S'original'
p101
I0
tp102
as(S'volume'
p103
tp104
(lp105
(I6
I150
I0
S'high'
p106
I6
tp107
a(I6
I159
I0
S'high'
p108
I6
tp109
a(I7
I2
F-0.25
S'highest'
p110
I6
tp111
a(I12
I79
F-0.25
S'higher'
p112
I6
tp113
as(S'aluminum'
p114
S'bezel'
p115
tp116
(lp117
(I13
I89
I0
S'brushed'
p118
I0
tp119
as(S'sense'
p120
tp121
(lp122
(I1
I8
I0
S'latest'
p123
I8
tp124
a(I1
I175
F-0.125
S'overall'
p125
I8
tp126
a(I3
I89
F-0.75
S'hate'
p127
I8
tp128
a(I7
I43
F1.0
S'better'
p129
I8
tp130
a(I7
I106
I0
S'cool'
p131
I8
tp132
a(I7
I106
F0.625
S'easy'
p133
I8
tp134
a(I7
I276
F0.5
S'functional'
p135
I8
tp136
a(I9
I36
F0.375
S'new'
p137
I8
tp138
a(I12
I225
F0.375
S'new'
p139
I8
tp140
a(I13
I13
F0.625
S'easy'
p141
I8
tp142
as(S'end'
p143
S'of'
p144
S'day'
p145
tp146
(lp147
(I7
I221
I0
S'exact'
p148
I0
tp149
as(S'galaxy'
p150
S's2'
p151
tp152
(lp153
(I9
I487
F0.5
S'comparable'
p154
I0
tp155
as(S'ring'
p156
S'tones'
p157
tp158
(lp159
(I4
I146
F0.5
S'personal'
p160
I0
tp161
a(I4
I147
F0.5
S'personal'
p162
I0
tp163
a(I4
I149
I0
S'general'
p164
I0
tp165
as(S'technical'
p166
S'support'
p167
tp168
(lp169
(I6
I26
F0.5
S'technical'
p170
I0
tp171
a(I6
I26
F0.5
S'technical'
p172
I0
tp173
as(S'menu'
p174
S'button'
p175
tp176
(lp177
(I7
I182
I0
S'traditional'
p178
I0
tp179
as(S'evo'
p180
S'shift'
p181
tp182
(lp183
(I9
I210
I0
S'great'
p184
I0
tp185
as(S'old'
p186
S'evo'
p187
tp188
(lp189
(I1
I11
I0
S'old'
p190
I0
tp191
a(I1
I15
I0
S'old'
p192
I0
tp193
a(I1
I15
F0.375
S'new'
p194
I0
tp195
a(I1
I110
I0
S'old'
p196
I0
tp197
a(I1
I118
I0
S'old'
p198
I0
tp199
a(I1
I128
I0
S'old'
p200
I0
tp201
a(I1
I128
F0.375
S'dependable'
p202
I0
tp203
a(I3
I192
I0
S'old'
p204
I0
tp205
a(I3
I192
F-0.75
S'comfortable'
p206
I0
tp207
a(I6
I67
I0
S'old'
p208
I0
tp209
a(I6
I75
F0.375
S'much'
p210
I0
tp211
a(I6
I75
I0
S'buttoned'
p212
I0
tp213
a(I7
I142
F-0.5
S'separate'
p214
I0
tp215
a(I7
I242
I0
S'old'
p216
I0
tp217
a(I7
I247
I0
S'old'
p218
I0
tp219
a(I7
I316
I0
S'old'
p220
I0
tp221
a(I9
I95
I0
S'old'
p222
I0
tp223
a(I9
I95
F0.125
S'able'
p224
I0
tp225
a(I9
I164
I0
S'old'
p226
I0
tp227
a(I9
I239
F0.25
g79
I0
tp228
a(I9
I239
F0.125
g81
I0
tp229
a(I9
I336
I0
S'old'
p230
I0
tp231
a(I12
I62
I0
S'old'
p232
I0
tp233
a(I12
I67
I0
S'old'
p234
I0
tp235
a(I12
I81
I0
S'old'
p236
I0
tp237
a(I12
I96
F0.375
S'new'
p238
I0
tp239
a(I12
I98
F-0.625
S'lighter'
p240
I0
tp241
a(I12
I98
I0
S'old'
p242
I0
tp243
a(I12
I99
I0
S'old'
p244
I0
tp245
a(I12
I138
F0.375
S'new'
p246
I0
tp247
a(I12
I138
I0
S'old'
p248
I0
tp249
a(I12
I155
I0
S'old'
p250
I0
tp251
a(I12
I170
I0
S'old'
p252
I0
tp253
a(I13
I70
I0
S'old'
p254
I0
tp255
a(I13
I80
I0
S'old'
p256
I0
tp257
a(I13
I96
I0
S'old'
p258
I0
tp259
a(I13
I103
I0
S'old'
p260
I0
tp261
a(I13
I118
I0
S'old'
p262
I0
tp263
a(I13
I128
I0
S'old'
p264
I0
tp265
as(S'dual-core'
p266
S'processor'
p267
tp268
(lp269
(I9
I416
I0
S'rear'
p270
I0
tp271
as(S'beats'
p272
S'audio'
p273
tp274
(lp275
(I7
I250
F0.5
S'clear'
p276
I0
tp277
a(I12
I77
F1.0
S'best'
p278
I0
tp279
as(S'signal'
p280
tp281
(lp282
(I9
I427
F1.0
S'good'
p283
I1
tp284
as(S'build'
p285
S'quality'
p286
tp287
(lp288
(I6
I17
F-0.5
S'poor'
p289
I2
tp290
a(I13
I94
F-0.5
S'poor'
p291
I2
tp292
as(S'google'
p293
tp294
(lp295
(I6
I105
F1.0
S'good'
p296
I4
tp297
as(S'lte'
p298
S'network'
p299
tp300
(lp301
(I3
I31
F0.375
S'new'
p302
I0
tp303
a(I3
I203
I0
S'non-issue'
p304
I0
tp305
a(I4
I53
F0.375
S'available'
p306
I0
tp307
a(I7
I316
F0.25
S'sweet'
p308
I0
tp309
a(I3
I203
I0
g304
I0
tp310
a(I6
I46
F-0.375
S'serious'
p311
I0
tp312
a(I6
I174
I0
S'different'
p313
I0
tp314
a(I7
I29
F-0.75
S'short'
p315
I0
tp316
a(I7
I166
I0
S'slowest'
p317
I0
tp318
a(I7
I248
F-0.5
S'open'
p319
I0
tp320
a(I7
I316
F0.25
g308
I0
tp321
a(I7
I353
F-0.625
S'bad'
p322
I0
tp323
a(I7
I354
F-0.625
S'bad'
p324
I0
tp325
a(I7
I358
I0
S'more'
p326
I0
tp327
a(I9
I233
F0.75
S'due'
p328
I0
tp329
a(I9
I492
F-0.25
S'ready'
p330
I0
tp331
a(I10
I8
F-0.125
S'overall'
p332
I0
tp333
a(I12
I62
F-0.5
S'regular'
p334
I0
tp335
as(S'sprint'
p336
S'store'
p337
tp338
(lp339
(I1
I43
I0
S'cool'
p340
I0
tp341
a(I1
I161
F-0.75
S'worse'
p342
I0
tp343
a(I2
I15
I0
S'sprint'
p344
I0
tp345
a(I4
I78
I0
S'different'
p346
I0
tp347
a(I6
I52
I0
S'same'
p348
I0
tp349
a(I6
I202
F-0.75
S'wrong'
p350
I0
tp351
a(I1
I150
I0
S'update'
p352
I0
tp353
a(I1
I161
F-0.75
g342
I0
tp354
a(I3
I151
F0.125
S'capable'
p355
I0
tp356
a(I3
I169
F-0.25
S'disappointing'
p357
I0
tp358
a(I3
I203
I0
S'least'
p359
I0
tp360
a(I4
I78
I0
g346
I0
tp361
a(I4
I79
I0
S'only'
p362
I0
tp363
a(I7
I8
F1.0
S'good'
p364
I0
tp365
a(I7
I143
I0
S'few'
p366
I0
tp367
a(I7
I143
F-0.5
S'separate'
p368
I0
tp369
a(I7
I157
F0.625
S'fair'
p370
I0
tp371
a(I7
I316
I0
S'great'
p372
I0
tp373
a(I7
I326
F0.625
S'aware'
p374
I0
tp375
a(I7
I352
F0.5
S'technical'
p376
I0
tp377
a(I7
I362
F0.375
S'new'
p378
I0
tp379
a(I9
I474
I0
S'faster'
p380
I0
tp381
a(I12
I160
F-0.625
S'other'
p382
I0
tp383
a(I13
I130
F-0.75
S'dependent'
p384
I0
tp385
as(S'facial'
p386
S'recognition'
p387
tp388
(lp389
(I3
I198
I0
S'facial'
p390
I0
tp391
a(I9
I73
I0
S'facial'
p392
I0
tp393
as(S'android'
p394
tp395
(lp396
(I1
I8
I0
S'latest'
p397
I0
tp398
a(I3
I19
F1.0
S'best'
p399
I0
tp400
a(I3
I139
I0
S'few'
p401
I0
tp402
a(I4
I104
F0.125
S'first'
p403
I0
tp404
a(I6
I8
F0.375
S'similar'
p405
I0
tp406
a(I7
I120
I0
S'great'
p407
I0
tp408
a(I7
I178
F0.5
S'advanced'
p409
I0
tp410
a(I7
I265
F1.0
S'best'
p411
I0
tp412
a(I9
I33
F0.375
S'new'
p413
I0
tp414
a(I10
I20
I0
S'current'
p415
I0
tp416
a(I13
I6
F0.125
S'first'
p417
I0
tp418
as(S'iphone'
p419
tp420
(lp421
(I2
I2
I0
S'great'
p422
I1
tp423
a(I2
I18
F1.0
S'better'
p424
I1
tp425
a(I4
I7
F1.0
S'better'
p426
I1
tp427
a(I7
I155
I0
S'latest'
p428
I1
tp429
a(I7
I292
F0.375
S'new'
p430
I1
tp431
a(I12
I30
F-0.375
S'simple'
p432
I1
tp433
a(I12
I95
I-100
S'size/shape'
p434
I1
tp435
as(S'samsung'
p436
S'galaxy'
p437
S's3'
p438
tp439
(lp440
(I1
I164
F0.75
S'worth'
p441
I0
tp442
a(I9
I464
F0.5
S'told'
p443
I0
tp444
a(I1
I164
F0.75
g441
I0
tp445
a(I3
I61
F-0.375
S'top'
p446
I0
tp447
a(I5
I22
F0.875
S'happier'
p448
I7
tp449
a(I9
I464
F0.5
g443
I7
tp450
a(I9
I468
F0.375
S'available'
p451
I7
tp452
a(I3
I61
F-0.375
g446
I0
tp453
a(I7
I313
F-0.625
S'free'
p454
I0
tp455
a(I9
I487
F0.5
g154
I0
tp456
as(S'a'
p457
S'big'
p458
S'deal'
p459
tp460
(lp461
(I3
I87
I0
S'big'
p462
I7
tp463
a(I5
I21
I0
S'big'
p464
I7
tp465
a(I8
I15
I0
S'big'
p466
I7
tp467
a(I9
I129
I0
S'big'
p468
I7
tp469
a(I9
I208
I0
S'big'
p470
I7
tp471
a(I9
I309
I0
S'big'
p472
I7
tp473
a(I10
I4
I0
S'big'
p474
I7
tp475
a(I12
I125
I0
S'big'
p476
I7
tp477
a(I13
I129
I0
S'big'
p478
I7
tp479
as(S'operating'
p480
S'system'
p481
tp482
(lp483
(I9
I491
F-0.375
S'unstable'
p484
I2
tp485
a(I10
I9
I0
S'specific'
p486
I2
tp487
a(I10
I13
I0
S'mobile'
p488
I2
tp489
a(I10
I21
I0
S'earlier'
p490
I2
tp491
as(S'upgrade'
p492
tp493
(lp494
(I1
I28
F0.5
S'eligible'
p495
I3
tp496
a(I4
I106
F0.375
S'early'
p497
I3
tp498
a(I4
I171
I0
S'great'
p499
I3
tp500
a(I6
I66
I0
S'great'
p501
I3
tp502
a(I12
I35
F0.75
S'due'
p503
I3
tp504
a(I13
I74
I0
S'great'
p505
I3
tp506
as(S'and'
p507
S'battery'
p508
S'life'
p509
tp510
(lp511
(I1
I10
F1.0
S'better'
p512
I1
tp513
a(I1
I31
F-0.75
S'worse'
p514
I1
tp515
a(I3
I42
I0
S'internal'
p516
I1
tp517
a(I3
I102
F1.0
S'best'
p518
I1
tp519
a(I3
I102
F1.0
S'good'
p520
I1
tp521
a(I4
I116
F0.125
S'last'
p522
I1
tp523
a(I4
I116
I0
S'least'
p524
I1
tp525
a(I6
I16
F1.0
S'good'
p526
I1
tp527
a(I7
I171
I0
S'great'
p528
I1
tp529
a(I10
I3
I0
S'great'
p530
I1
tp531
a(I12
I67
F0.375
S'extra'
p532
I1
tp533
a(I1
I10
F1.0
g512
I1
tp534
a(I1
I31
F-0.75
g514
I1
tp535
a(I1
I38
F-0.25
S'battery'
p536
I1
tp537
a(I3
I42
I0
g516
I1
tp538
a(I3
I101
F1.0
S'good'
p539
I1
tp540
a(I3
I102
F1.0
g518
I1
tp541
a(I3
I102
F1.0
g520
I1
tp542
a(I4
I3
I0
S'great'
p543
I1
tp544
a(I4
I116
F0.125
g522
I1
tp545
a(I4
I116
I0
g524
I1
tp546
a(I6
I16
F1.0
g526
I1
tp547
a(I7
I75
F0.125
S'solid'
p548
I1
tp549
a(I7
I111
F-0.75
S'wrong'
p550
I1
tp551
a(I7
I171
I0
g528
I1
tp552
a(I8
I8
F-0.5
S'less'
p553
I1
tp554
a(I9
I214
F1.0
S'better'
p555
I1
tp556
a(I9
I302
F0.375
S'much'
p557
I1
tp558
a(I10
I3
I0
g530
I1
tp559
a(I12
I14
F-0.625
S'bad'
p560
I1
tp561
a(I12
I45
F1.0
S'good'
p562
I1
tp563
a(I12
I67
F0.375
g532
I1
tp564
a(I13
I79
F0.5
S'respectable'
p565
I1
tp566
a(I1
I31
F-0.75
g514
I19
tp567
a(I1
I38
F-0.25
g536
I19
tp568
a(I3
I101
F1.0
g539
I19
tp569
a(I3
I102
F1.0
g520
I19
tp570
a(I7
I75
F0.125
g548
I19
tp571
a(I7
I103
I0
S'real'
p572
I19
tp573
a(I7
I111
F-0.75
g550
I19
tp574
a(I7
I171
I0
g528
I19
tp575
a(I7
I287
F0.625
S'decent'
p576
I19
tp577
a(I8
I8
F-0.5
g553
I19
tp578
a(I9
I214
F1.0
g555
I19
tp579
a(I9
I302
F0.375
g557
I19
tp580
a(I12
I45
F1.0
g562
I19
tp581
a(I12
I60
F0.625
S'easier'
p582
I19
tp583
a(I12
I60
I0
S'fast'
p584
I19
tp585
a(I13
I79
F0.5
g565
I19
tp586
a(I1
I1
F1.0
S'best'
p587
I15
tp588
a(I1
I2
F0.625
S'replaceable'
p589
I15
tp590
a(I1
I2
I0
S'large'
p591
I15
tp592
a(I1
I10
F1.0
g512
I15
tp593
a(I1
I99
F0.375
S'extended'
p594
I15
tp595
a(I1
I113
F0.625
S'removable'
p596
I15
tp597
a(I1
I118
F0.625
S'necessary'
p598
I15
tp599
a(I1
I129
F0.375
S'new'
p600
I15
tp601
a(I1
I133
I0
S'physical'
p602
I15
tp603
a(I1
I141
F0.75
S'ideal'
p604
I15
tp605
a(I1
I141
I0
S'external'
p606
I15
tp607
a(I1
I150
F-0.375
S'pull'
p608
I15
tp609
a(I1
I207
F0.625
S'removable'
p610
I15
tp611
a(I3
I42
I0
g516
I15
tp612
a(I3
I102
F1.0
g518
I15
tp613
a(I3
I185
F-0.25
S'low'
p614
I15
tp615
a(I4
I3
I0
g543
I15
tp616
a(I4
I16
F0.5
S'second'
p617
I15
tp618
a(I4
I16
I0
S'internal'
p619
I15
tp620
a(I4
I16
F0.25
S'original'
p621
I15
tp622
a(I4
I71
F0.125
S'first'
p623
I15
tp624
a(I4
I71
F-0.625
S'bad'
p625
I15
tp626
a(I4
I72
F0.625
S'replaceable'
p627
I15
tp628
a(I4
I116
F0.125
g522
I15
tp629
a(I4
I116
I0
g524
I15
tp630
a(I4
I119
F-0.5
S'long'
p631
I15
tp632
a(I6
I16
F1.0
g526
I15
tp633
a(I6
I83
F0.625
S'kind'
p634
I15
tp635
a(I6
I83
F-0.375
S'buried'
p636
I15
tp637
a(I6
I156
F0.25
S'original'
p638
I15
tp639
a(I7
I63
F0.625
S'replaceable'
p640
I15
tp641
a(I7
I252
I0
S'awhile'
p642
I15
tp643
a(I7
I252
I0
S'hot'
p644
I15
tp645
a(I7
I253
I0
S'hot'
p646
I15
tp647
a(I7
I253
F-0.5
S'afraid'
p648
I15
tp649
a(I7
I269
F0.125
S'last'
p650
I15
tp651
a(I7
I285
F0.625
S'removable'
p652
I15
tp653
a(I7
I285
F-0.5
S'sure'
p654
I15
tp655
a(I9
I93
F1.0
S'better'
p656
I15
tp657
a(I9
I169
I0
S'least'
p658
I15
tp659
a(I9
I299
F-0.5
S'longer'
p660
I15
tp661
a(I9
I301
F0.625
S'replaceable'
p662
I15
tp663
a(I9
I406
F-0.75
S'dead'
p664
I15
tp665
a(I10
I3
I0
g530
I15
tp666
a(I12
I14
F-0.625
g560
I15
tp667
a(I12
I19
I0
S'internal'
p668
I15
tp669
a(I12
I38
I0
S'internal'
p670
I15
tp671
a(I12
I67
F0.375
g532
I15
tp672
a(I12
I99
F0.625
S'removable'
p673
I15
tp674
as(S'new'
p675
S'evo'
p676
tp677
(lp678
(I1
I15
I0
g192
I0
tp679
a(I1
I15
F0.375
g194
I0
tp680
a(I1
I17
F0.375
S'new'
p681
I0
tp682
a(I1
I20
F0.375
S'new'
p683
I0
tp684
a(I1
I128
I0
g200
I0
tp685
a(I1
I128
F0.375
g202
I0
tp686
a(I2
I7
F0.375
S'new'
p687
I0
tp688
a(I3
I188
F0.25
g17
I0
tp689
a(I4
I13
F0.375
S'new'
p690
I0
tp691
a(I4
I45
F0.375
S'new'
p692
I0
tp693
a(I4
I54
F0.25
g21
I0
tp694
a(I4
I176
F0.375
S'newest'
p695
I0
tp696
a(I5
I3
F0.125
g37
I0
tp697
a(I5
I3
F0.25
g39
I0
tp698
a(I5
I17
F0.375
S'new'
p699
I0
tp700
a(I6
I125
F0.375
S'new'
p701
I0
tp702
a(I7
I126
F0.375
S'new'
p703
I0
tp704
a(I7
I142
F-0.5
g214
I0
tp705
a(I7
I143
F0.375
S'new'
p706
I0
tp707
a(I12
I35
F0.375
S'new'
p708
I0
tp709
a(I12
I38
F0.375
S'new'
p710
I0
tp711
a(I12
I96
F0.375
g238
I0
tp712
a(I12
I138
F0.375
g246
I0
tp713
a(I12
I138
I0
g248
I0
tp714
a(I12
I165
F0.375
S'new'
p715
I0
tp716
as(S'micro'
p717
S'sd'
p718
S'card'
p719
tp720
(lp721
(I9
I215
F0.625
S'easy'
p722
I0
tp723
a(I3
I130
F0.625
S'removable'
p724
I0
tp725
a(I3
I181
F-0.125
S'delete'
p726
I0
tp727
a(I9
I137
F0.375
S'extra'
p728
I0
tp729
as(S'button'
p730
S'on'
p731
S'side'
p732
tp733
(lp734
(I6
I94
F-0.75
S'bright'
p735
I0
tp736
a(I6
I94
F-0.375
S'disable'
p737
I0
tp738
a(I9
I85
F0.625
S'easy'
p739
I0
tp740
a(I12
I82
I0
S'own'
p741
I0
tp742
a(I12
I82
I0
S'physical'
p743
I0
tp744
a(I12
I207
F-0.375
S'top'
p745
I0
tp746
a(I12
I207
F-0.625
S'other'
p747
I0
tp748
a(I3
I144
F-0.625
S'rough'
p749
I19
tp750
a(I3
I145
I0
S'fourth'
p751
I19
tp752
a(I4
I19
F0.375
S'new'
p753
I19
tp754
a(I6
I94
F-0.375
g737
I19
tp755
a(I7
I183
I-100
S'long-pressed'
p756
I19
tp757
a(I9
I105
I0
S'more'
p758
I19
tp759
a(I9
I105
F0.5
S'rid'
p760
I19
tp761
a(I9
I359
I0
S'fast'
p762
I19
tp763
a(I12
I10
F0.625
S'easier'
p764
I19
tp765
a(I12
I82
I0
g741
I19
tp766
a(I12
I82
I0
g743
I19
tp767
a(I12
I134
F0.875
S'nice'
p768
I19
tp769
a(I12
I139
I0
S'only'
p770
I19
tp771
a(I12
I139
F0.625
S'easy'
p772
I19
tp773
a(I12
I207
F-0.375
g745
I19
tp774
a(I13
I11
I0
S'handy'
p775
I19
tp776
a(I13
I72
I0
S'most'
p777
I19
tp778
as(S'rapid'
p779
S'shooting'
p780
tp781
(lp782
(I9
I47
I0
S'rapid'
p783
I0
tp784
a(I9
I48
I0
S'rapid'
p785
I0
tp786
a(I9
I63
I0
S'rapid'
p787
I0
tp788
as(S'htc'
p789
S'evo'
p790
S'lte'
p791
tp792
(lp793
(I1
I164
F0.5
S'loyal'
p794
I0
tp795
a(I3
I61
F-0.125
g11
I0
tp796
a(I3
I61
F0.25
g13
I0
tp797
a(I3
I61
F1.0
g15
I0
tp798
a(I4
I53
F0.375
g306
I0
tp799
a(I6
I110
I0
S'least'
p800
I0
tp801
a(I12
I51
F0.25
g93
I0
tp802
a(I13
I2
F0.375
S'reliable'
p803
I0
tp804
a(I1
I164
F0.5
g794
I0
tp805
a(I2
I7
F0.375
g687
I0
tp806
a(I3
I61
F-0.125
g11
I0
tp807
a(I3
I61
F0.25
g13
I0
tp808
a(I3
I61
F1.0
g15
I0
tp809
a(I3
I62
F0.125
S'first'
p810
I0
tp811
a(I4
I122
F0.5
S'upgraded'
p812
I0
tp813
a(I5
I7
F0.25
S'original'
p814
I0
tp815
a(I6
I110
I0
g800
I0
tp816
a(I9
I16
F0.25
S'original'
p817
I0
tp818
a(I9
I68
I0
S'old'
p819
I0
tp820
a(I9
I239
F0.25
g79
I0
tp821
a(I9
I239
F0.125
g81
I0
tp822
a(I9
I377
F0.875
S'happy'
p823
I0
tp824
a(I9
I470
F0.125
S'first'
p825
I0
tp826
a(I12
I51
F0.25
g93
I0
tp827
a(I12
I170
I0
g252
I0
tp828
a(I1
I15
I0
g192
I0
tp829
a(I1
I15
F0.375
g194
I0
tp830
a(I1
I17
F0.375
g681
I0
tp831
a(I1
I17
F0.25
S'sharp'
p832
I0
tp833
a(I1
I110
I0
g196
I0
tp834
a(I3
I61
F-0.125
g11
I0
tp835
a(I3
I61
F0.25
g13
I0
tp836
a(I3
I61
F1.0
g15
I0
tp837
a(I4
I13
F0.375
g690
I0
tp838
a(I4
I45
F0.375
g692
I0
tp839
a(I4
I53
F0.375
g306
I0
tp840
a(I4
I176
F0.375
g695
I0
tp841
a(I5
I17
F0.375
g699
I0
tp842
a(I6
I92
I0
S'rooted'
p843
I0
tp844
a(I6
I92
F0.375
S'early'
p845
I0
tp846
a(I6
I125
F0.375
g701
I0
tp847
a(I6
I158
F-0.75
S'unable'
p848
I0
tp849
a(I6
I164
F0.25
g59
I0
tp850
a(I7
I21
I0
S'cool'
p851
I0
tp852
a(I7
I97
F-0.625
S'want'
p853
I0
tp854
a(I7
I142
F-0.5
g214
I0
tp855
a(I7
I238
I0
S'old'
p856
I0
tp857
a(I7
I238
F-0.5
S'sure'
p858
I0
tp859
a(I7
I271
I0
S'more'
p860
I0
tp861
a(I7
I271
F0.5
S'functional'
p862
I0
tp863
a(I7
I316
I0
g220
I0
tp864
a(I9
I371
I0
S'great'
p865
I0
tp866
a(I12
I51
F0.25
g93
I0
tp867
a(I12
I96
F0.375
g238
I0
tp868
a(I13
I2
F0.375
g803
I0
tp869
a(I13
I75
F0.25
S'responsive'
p870
I0
tp871
a(I13
I87
F-0.5
S'suspect'
p872
I0
tp873
as(S'music'
p874
tp875
(lp876
(I4
I115
I0
S'great'
p877
I0
tp878
a(I10
I3
I0
S'own'
p879
I0
tp880
a(I12
I72
F0.5
S'drive'
p881
I0
tp882
as(S'kickstand'
p883
tp884
(lp885
(I0
I2
I0
S'great'
p886
I0
tp887
a(I9
I209
I0
S'great'
p888
I0
tp889
a(I9
I243
F0.25
S'original'
p890
I0
tp891
a(I9
I243
F1.0
S'good'
p892
I0
tp893
a(I12
I141
F0.5
S'stronger'
p894
I0
tp895
a(I12
I142
I0
S'old'
p896
I0
tp897
as(S'dual'
p898
S'core'
p899
S'processor'
p900
tp901
(lp902
(I3
I189
I0
S'quick'
p903
I0
tp904
a(I9
I416
I0
g270
I0
tp905
as(S'shutter'
p906
S'button'
p907
tp908
(lp909
(I1
I10
I0
S'external'
p910
I0
tp911
a(I4
I19
F0.375
g753
I0
tp912
as(S'data'
p913
tp914
(lp915
(I6
I48
I0
S'signal'
p916
I13
tp917
a(I9
I309
I0
S'cable'
p918
I13
tp919
as(S'much'
p920
S'better'
p921
tp922
(lp923
(I1
I45
F0.375
S'much'
p924
I9
tp925
a(I3
I196
F0.375
S'much'
p926
I9
tp927
a(I4
I112
F0.375
S'much'
p928
I9
tp929
a(I6
I67
F0.375
S'much'
p930
I9
tp931
a(I9
I44
F0.375
S'much'
p932
I9
tp933
a(I9
I479
F0.375
S'much'
p934
I9
tp935
a(I9
I495
F0.375
S'much'
p936
I9
tp937
as(S'first'
p938
S'gen'
p939
S'evo'
p940
tp941
(lp942
(I7
I96
F0.125
S'first'
p943
I0
tp944
a(I12
I224
F0.125
S'first'
p945
I0
tp946
as(S'customer'
p947
S'service'
p948
tp949
(lp950
(I9
I492
F1.0
S'best'
p951
I3
tp952
a(I4
I26
F-0.625
S'bad'
p953
I16
tp954
a(I4
I172
I0
S'great'
p955
I16
tp956
a(I6
I205
F-0.5
S'poor'
p957
I16
tp958
a(I7
I246
I0
S'full'
p959
I16
tp960
a(I9
I216
F-0.625
S'sporadic'
p961
I16
tp962
a(I10
I14
F1.0
S'best'
p963
I16
tp964
a(I13
I46
F-0.625
S'bad'
p965
I16
tp966
a(I13
I52
F1.0
S'good'
p967
I16
tp968
as(S'call'
p969
S'quality'
p970
tp971
(lp972
(I3
I55
F-0.625
S'average'
p973
I0
tp974
a(I3
I131
I0
S'great'
p975
I0
tp976
a(I3
I131
I0
S'great'
p977
I0
tp978
a(I4
I51
I0
S'great'
p979
I0
tp980
a(I7
I55
F1.0
S'good'
p981
I0
tp982
as(S'internal'
p983
S'storage'
p984
tp985
(lp986
(I3
I131
I0
S'internal'
p987
I0
tp988
a(I3
I131
F0.375
S'extra'
p989
I0
tp990
a(I3
I178
I0
S'internal'
p991
I0
tp992
a(I3
I181
I0
S'internal'
p993
I0
tp994
a(I3
I186
I0
S'internal'
p995
I0
tp996
a(I3
I187
I0
S'internal'
p997
I0
tp998
a(I3
I187
I0
S'more'
p999
I0
tp1000
a(I6
I98
I0
S'internal'
p1001
I0
tp1002
a(I6
I98
F-0.125
S'slow'
p1003
I0
tp1004
a(I7
I175
I0
S'internal'
p1005
I0
tp1006
a(I7
I236
I0
S'internal'
p1007
I0
tp1008
a(I7
I238
F0.375
S'new'
p1009
I0
tp1010
a(I7
I238
F0.125
S'enough'
p1011
I0
tp1012
a(I7
I238
I0
S'internal'
p1013
I0
tp1014
a(I7
I238
I0
S'least'
p1015
I0
tp1016
a(I3
I131
I0
g987
I1
tp1017
a(I3
I131
F0.375
g989
I1
tp1018
a(I3
I178
I0
g991
I1
tp1019
a(I3
I181
I0
g993
I1
tp1020
a(I3
I182
F-0.25
S'low'
p1021
I1
tp1022
a(I3
I186
I0
g995
I1
tp1023
a(I3
I187
I0
g997
I1
tp1024
a(I3
I187
I0
g999
I1
tp1025
a(I6
I98
I0
g1001
I1
tp1026
a(I6
I98
F-0.125
g1003
I1
tp1027
a(I7
I175
I0
g1005
I1
tp1028
a(I7
I236
I0
g1007
I1
tp1029
a(I7
I238
F0.375
g1009
I1
tp1030
a(I7
I238
F0.125
g1011
I1
tp1031
a(I7
I238
I0
g1013
I1
tp1032
a(I7
I238
I0
g1015
I1
tp1033
as(S'apps'
p1034
tp1035
(lp1036
(I1
I117
F-0.5
S'certain'
p1037
I0
tp1038
a(I3
I79
F0.375
S'similar'
p1039
I0
tp1040
a(I3
I143
F-0.5
S'open'
p1041
I0
tp1042
a(I3
I143
I0
S'closing'
p1043
I0
tp1044
a(I3
I165
I0
S'own'
p1045
I0
tp1046
a(I3
I172
I0
S'normal'
p1047
I0
tp1048
a(I3
I173
I0
S'individual'
p1049
I0
tp1050
a(I4
I15
F0.875
S'music'
p1051
I0
tp1052
a(I4
I51
I0
S'useful'
p1053
I0
tp1054
a(I6
I94
F-0.375
S'disable'
p1055
I0
tp1056
a(I7
I185
F-0.5
S'unwanted'
p1057
I0
tp1058
a(I8
I21
I0
S'such'
p1059
I0
tp1060
a(I8
I23
I0
S'such'
p1061
I0
tp1062
a(I9
I5
F-0.625
S'other'
p1063
I0
tp1064
a(I9
I5
F-0.375
S'small'
p1065
I0
tp1066
a(I9
I5
I0
S'such'
p1067
I0
tp1068
a(I9
I39
F-0.5
S'open'
p1069
I0
tp1070
a(I9
I105
F-0.5
S'open'
p1071
I0
tp1072
a(I9
I191
I0
S'few'
p1073
I0
tp1074
a(I9
I476
F-0.625
S'free'
p1075
I0
tp1076
a(I9
I476
F0.375
S'available'
p1077
I0
tp1078
a(I9
I483
I0
S'such'
p1079
I0
tp1080
a(I12
I4
F0.625
S'easy'
p1081
I0
tp1082
a(I12
I4
F0.25
S'recent'
p1083
I0
tp1084
as(S'feels'
p1085
tp1086
(lp1087
(I3
I66
F-0.75
S'comfortable'
p1088
I14
tp1089
a(I9
I24
F-0.625
S'light'
p1090
I14
tp1091
a(I9
I294
F1.0
S'good'
p1092
I14
tp1093
a(I9
I335
I0
S'great'
p1094
I14
tp1095
as(S'camera'
p1096
S'button'
p1097
tp1098
(lp1099
(I1
I142
F-0.625
S'other'
p1100
I0
tp1101
a(I4
I19
F0.125
S'typical'
p1102
I0
tp1103
a(I4
I19
F0.375
g753
I0
tp1104
a(I9
I63
I0
S'physical'
p1105
I0
tp1106
a(I9
I143
I0
S'physical'
p1107
I0
tp1108
a(I9
I287
F0.25
S'main'
p1109
I0
tp1110
a(I10
I27
I0
S'physical'
p1111
I0
tp1112
a(I12
I9
F0.125
S'dedicated'
p1113
I0
tp1114
a(I12
I82
I0
g741
I0
tp1115
a(I12
I82
I0
g743
I0
tp1116
a(I12
I134
F0.875
g768
I0
tp1117
a(I12
I139
I0
g770
I0
tp1118
a(I12
I139
F0.625
g772
I0
tp1119
a(I13
I11
I0
g775
I0
tp1120
a(I1
I17
I0
S'3d'
p1121
I1
tp1122
a(I1
I142
F-0.625
g1100
I1
tp1123
a(I2
I9
I0
S'anymore'
p1124
I1
tp1125
a(I3
I57
F-0.625
S'average'
p1126
I1
tp1127
a(I3
I82
I0
S'great'
p1128
I1
tp1129
a(I4
I7
F-0.25
S'low'
p1130
I1
tp1131
a(I4
I7
F-0.625
S'light'
p1132
I1
tp1133
a(I4
I18
F0.125
S'spectacular'
p1134
I1
tp1135
a(I4
I19
F0.125
g1102
I1
tp1136
a(I4
I35
I0
S'great'
p1137
I1
tp1138
a(I7
I105
F1.0
S'good'
p1139
I1
tp1140
a(I7
I267
F0.25
S'responsive'
p1141
I1
tp1142
a(I7
I330
I0
S'great'
p1143
I1
tp1144
a(I9
I42
F1.0
S'good'
p1145
I1
tp1146
a(I9
I56
F1.0
S'good'
p1147
I1
tp1148
a(I9
I63
I0
g1105
I1
tp1149
a(I9
I143
I0
g1107
I1
tp1150
a(I9
I206
I0
S'adequate'
p1151
I1
tp1152
a(I9
I285
F1.0
S'good'
p1153
I1
tp1154
a(I9
I287
F0.25
g1109
I1
tp1155
a(I9
I355
I0
S'great'
p1156
I1
tp1157
a(I9
I495
F-0.125
S'overall'
p1158
I1
tp1159
a(I10
I27
I0
g1111
I1
tp1160
a(I12
I4
F0.375
S'new'
p1161
I1
tp1162
a(I12
I9
F0.125
g1113
I1
tp1163
a(I12
I136
I0
S'faster'
p1164
I1
tp1165
a(I13
I57
F1.0
S'good'
p1166
I1
tp1167
a(I13
I67
F1.0
S'good'
p1168
I1
tp1169
as(S'power'
p1170
S'button'
p1171
tp1172
(lp1173
(I12
I10
F0.625
g764
I0
tp1174
a(I12
I101
F-0.375
S'top'
p1175
I0
tp1176
a(I12
I103
F-0.375
S'top'
p1177
I0
tp1178
a(I12
I207
F-0.375
g745
I0
tp1179
as.