(dp0
(S'screen'
p1
S'size'
p2
tp3
(lp4
(I37
I19
F1.0
S'good'
p5
I3
tp6
a(I50
I6
F-0.375
S'small'
p7
I3
tp8
a(I54
I1
I0
S'great'
p9
I3
tp10
as(S'battery'
p11
S'life'
p12
tp13
(lp14
(I11
I15
F0.125
S'last'
p15
I1
tp16
a(I12
I26
F0.875
S'happy'
p17
I1
tp18
a(I12
I39
F1.0
S'better'
p19
I1
tp20
a(I31
I1
F1.0
S'good'
p21
I1
tp22
a(I36
I2
F-0.5
S'longer'
p23
I1
tp24
a(I38
I44
F-0.75
S'unreliable'
p25
I1
tp26
a(I11
I15
F0.125
g15
I19
tp27
a(I12
I26
F0.875
g17
I19
tp28
a(I36
I2
F-0.5
g23
I19
tp29
a(I38
I44
F-0.75
g25
I19
tp30
a(I9
I10
F0.375
S'extended'
p31
I15
tp32
a(I12
I34
F0.125
S'first'
p33
I15
tp34
a(I12
I34
I0
S'few'
p35
I15
tp36
a(I12
I39
F1.0
g19
I15
tp37
a(I14
I11
F0.125
S'last'
p38
I15
tp39
a(I17
I6
I0
S'wish'
p40
I15
tp41
a(I17
I11
F0.375
S'new'
p42
I15
tp43
a(I31
I1
F1.0
g21
I15
tp44
a(I31
I23
F0.625
S'removable'
p45
I15
tp46
a(I33
I2
F-0.75
S'dead'
p47
I15
tp48
a(I33
I3
F0.375
S'new'
p49
I15
tp50
a(I38
I0
F0.5
S'flat'
p51
I15
tp52
a(I38
I64
F0.5
S'true'
p53
I15
tp54
a(I38
I73
F-0.75
S'dead'
p55
I15
tp56
a(I54
I3
F0.625
S'replaceable'
p57
I15
tp58
as(S'android'
p59
tp60
(lp61
(I12
I41
F1.0
S'best'
p62
I0
tp63
a(I17
I4
F0.125
S'first'
p64
I0
tp65
a(I17
I4
I0
S'more'
p66
I0
tp67
as(S'samsung'
p68
tp69
(lp70
(I12
I40
F0.375
S'new'
p71
I7
tp72
a(I50
I17
I0
S'website'
p73
I7
tp74
as(S'camera'
p75
tp76
(lp77
(I12
I30
I0
S'great'
p78
I1
tp79
a(I21
I0
F1.0
S'good'
p80
I1
tp81
a(I21
I2
F1.0
S'best'
p82
I1
tp83
a(I37
I31
F-0.75
S'difficult'
p84
I1
tp85
a(I43
I0
F0.625
S'easy'
p86
I1
tp87
a(I43
I0
F0.875
S'nice'
p88
I1
tp89
a(I54
I9
F-0.125
S'slow'
p90
I1
tp91
a(I58
I3
F-0.5
S'regular'
p92
I1
tp93
a(I67
I20
F-0.5
S'actual'
p94
I1
tp95
as(S'iphone'
p96
tp97
(lp98
(I37
I9
F-0.375
S'small'
p99
I1
tp100
a(I44
I4
I0
S'old'
p101
I1
tp102
as(S'apps'
p103
tp104
(lp105
(I28
I13
F-0.625
S'other'
p106
I0
tp107
a(I28
I13
I0
S'most'
p108
I0
tp109
a(I38
I37
I0
S'few'
p110
I0
tp111
a(I50
I14
F0.25
S'favorite'
p112
I0
tp113
a(I50
I15
I0
S'many'
p114
I0
tp115
a(I54
I6
I0
S'different'
p116
I0
tp117
a(I62
I15
I0
S'great'
p118
I0
tp119
as(S'a'
p120
S'big'
p121
S'screen'
p122
tp123
(lp124
(I12
I10
I0
S'big'
p125
I0
tp126
a(I12
I24
I0
S'big'
p127
I0
tp128
a(I31
I6
I0
S'big'
p129
I0
tp130
a(I31
I6
I0
S'great'
p131
I0
tp132
a(I38
I60
I0
S'big'
p133
I0
tp134
a(I43
I13
I0
S'big'
p135
I0
tp136
a(I58
I1
I0
S'big'
p137
I0
tp138
a(I58
I1
F0.625
S'easy'
p139
I0
tp140
a(I61
I13
I0
S'big'
p141
I0
tp142
a(I61
I17
I0
S'big'
p143
I0
tp144
a(I67
I25
I0
S'big'
p145
I0
tp146
a(I12
I10
I0
g125
I1
tp147
a(I12
I24
I0
g127
I1
tp148
a(I31
I6
I0
g129
I1
tp149
a(I31
I6
I0
g131
I1
tp150
a(I38
I60
I0
g133
I1
tp151
a(I43
I11
I0
S'wide'
p152
I1
tp153
a(I43
I13
I0
g135
I1
tp154
a(I58
I1
I0
g137
I1
tp155
a(I58
I1
F0.625
g139
I1
tp156
a(I61
I13
I0
g141
I1
tp157
a(I61
I17
I0
g143
I1
tp158
a(I67
I25
I0
g145
I1
tp159
as(S'next'
p160
S'day'
p161
tp162
(lp163
(I7
I6
I0
S'next'
p164
I4
tp165
a(I7
I6
F0.875
S'happy'
p166
I4
tp167
a(I27
I3
I0
S'next'
p168
I4
tp169
a(I27
I10
I0
S'next'
p170
I4
tp171
a(I27
I10
I0
S'next'
p172
I4
tp173
as(S'on'
p174
S'straight'
p175
S'talk'
p176
tp177
(lp178
(I23
I12
F0.625
S'straight'
p179
I0
tp180
a(I23
I12
F0.125
S'first'
p181
I0
tp182
a(I38
I27
F0.625
S'straight'
p183
I0
tp184
a(I38
I49
F0.125
S'able'
p185
I0
tp186
a(I38
I55
I0
S'least'
p187
I0
tp188
a(I38
I89
F0.625
S'straight'
p189
I0
tp190
a(I23
I12
F0.625
g179
I0
tp191
a(I23
I12
F0.125
g181
I0
tp192
a(I38
I27
F0.625
g183
I0
tp193
a(I38
I49
F0.125
g185
I0
tp194
a(I38
I55
I0
g187
I0
tp195
a(I38
I89
F0.625
g189
I0
tp196
a(I23
I12
F0.625
g179
I13
tp197
a(I23
I12
F0.125
g181
I13
tp198
a(I38
I27
F0.625
g183
I13
tp199
a(I38
I49
F0.125
g185
I13
tp200
a(I38
I89
F0.625
g189
I13
tp201
a(I38
I55
I0
g187
I17
tp202
as(S'galaxy'
p203
S'note'
p204
tp205
(lp206
(I9
I8
F0.375
S'new'
p207
I0
tp208
a(I2
I2
F0.25
S'larger'
p209
I0
tp210
a(I9
I8
F0.375
g207
I0
tp211
as(S'long'
p212
S'time'
p213
tp214
(lp215
(I4
I0
F-0.5
S'long'
p216
I13
tp217
a(I16
I11
F-0.5
S'long'
p218
I13
tp219
a(I17
I10
F-0.75
S'short'
p220
I13
tp221
a(I24
I11
F-0.5
S'long'
p222
I13
tp223
a(I38
I7
F-0.5
S'long'
p224
I13
tp225
a(I61
I12
F-0.5
S'long'
p226
I13
tp227
a(I61
I12
F0.75
S'worth'
p228
I13
tp229
as(S'seller'
p230
tp231
(lp232
(I8
I26
I0
S'least'
p233
I19
tp234
a(I10
I0
F0.5
S'satisfied'
p235
I19
tp236
a(I14
I19
F-0.25
S'disappointed'
p237
I19
tp238
a(I16
I12
F0.375
S'honest'
p239
I19
tp240
a(I33
I6
I0
S'more'
p241
I19
tp242
as(S'weeks'
p243
tp244
(lp245
(I0
I1
F0.125
S'first'
p246
I18
tp247
a(I17
I13
F-0.5
S'less'
p248
I18
tp249
a(I19
I9
I0
S'few'
p250
I18
tp251
a(I56
I5
I0
S'later'
p252
I18
tp253
a(I65
I1
F0.125
S'first'
p254
I18
tp255
a(I67
I4
I0
S'few'
p256
I18
tp257
as(S'sim'
p258
S'card'
p259
tp260
(lp261
(I0
I4
F-0.75
S'likely'
p262
I0
tp263
a(I8
I3
I0
S'standard'
p264
I0
tp265
a(I19
I4
F-0.625
S'other'
p266
I0
tp267
a(I19
I14
I0
S'old'
p268
I0
tp269
a(I38
I27
F-0.5
S'regular'
p270
I0
tp271
a(I38
I49
F-0.625
S'other'
p272
I0
tp273
a(I61
I2
F0.375
S'new'
p274
I0
tp275
as(S'usb'
p276
S'port'
p277
tp278
(lp279
(I56
I1
F0.125
S'first'
p280
I0
tp281
a(I56
I1
F0.625
S'perfect'
p282
I0
tp283
as(S'car'
p284
S'charger'
p285
tp286
(lp287
(I5
I0
F0.375
S'dependable'
p288
I0
tp289
as(S'internet'
p290
tp291
(lp292
(I38
I39
F0.625
S'fair'
p293
I6
tp294
as(S's'
p295
S'pen'
p296
tp297
(lp298
(I25
I19
I0
S'own'
p299
I0
tp300
a(I25
I19
F-0.75
S'little'
p301
I0
tp302
as(S'amazon'
p303
tp304
(lp305
(I11
I13
I0
S'quick'
p306
I13
tp307
a(I28
I15
I-100
S'buyng'
p308
I13
tp309
a(I35
I11
F0.375
S'prime'
p310
I13
tp311
as(S'little'
p312
S'bit'
p313
tp314
(lp315
(I31
I12
F1.0
S'good'
p316
I10
tp317
a(I31
I12
F-0.375
S'impatient'
p318
I10
tp319
as.