(dp0
(S'service'
p1
tp2
(lp3
(I4
I21
I0
S'signal'
p4
I16
tp5
a(I10
I7
F1.0
S'good'
p6
I16
tp7
as(S'numbers'
p8
tp9
(lp10
(I2
I8
F-0.75
S'inconvenient'
p11
I11
tp12
a(I3
I17
I0
S'big'
p13
I11
tp14
a(I8
I2
F0.25
S'bigger'
p15
I11
tp16
a(I12
I2
I0
S'big'
p17
I11
tp18
a(I13
I2
I0
S'large'
p19
I11
tp20
a(I15
I29
I0
S'big'
p21
I11
tp22
a(I18
I52
F-0.375
S'small'
p23
I11
tp24
a(I18
I52
F1.0
S'good'
p25
I11
tp26
a(I20
I0
I0
S'big'
p27
I11
tp28
a(I20
I0
F0.75
S'ideal'
p29
I11
tp30
as(S'volume'
p31
tp32
(lp33
(I2
I26
F-0.25
S'low'
p34
I6
tp35
a(I2
I28
I0
S'adequate'
p36
I6
tp37
a(I3
I5
F-0.25
S'highest'
p38
I6
tp39
a(I3
I87
I0
S'wish'
p40
I6
tp41
a(I3
I87
F0.625
S'easier'
p42
I6
tp43
a(I4
I16
F0.875
S'nice'
p44
I6
tp45
a(I4
I16
F1.0
S'good'
p46
I6
tp47
a(I11
I16
F-0.25
S'low'
p48
I6
tp49
a(I18
I30
F-0.25
S'low'
p50
I6
tp51
as(S'battery'
p52
S'life'
p53
tp54
(lp55
(I1
I37
F-0.75
S'short'
p56
I1
tp57
a(I1
I38
F-0.5
S'long'
p58
I1
tp59
a(I4
I5
F-0.875
S'awful'
p60
I1
tp61
a(I7
I7
I0
S'great'
p62
I1
tp63
a(I15
I6
F1.0
S'good'
p64
I1
tp65
a(I1
I37
F-0.75
g56
I15
tp66
a(I1
I38
F-0.5
g58
I15
tp67
a(I3
I66
F0.5
S'so-so'
p68
I15
tp69
a(I7
I7
I0
g62
I15
tp70
a(I18
I45
F-0.5
S'sure'
p71
I15
tp72
a(I19
I32
I0
S'old'
p73
I15
tp74
as(S'camera'
p75
tp76
(lp77
(I10
I14
F-0.5
S'less'
p78
I1
tp79
as(S'smart'
p80
tp81
(lp82
(I3
I95
F0.625
S'easy'
p83
I10
tp84
a(I3
I95
F-0.125
S'complicated'
p85
I10
tp86
a(I8
I11
F0.375
S'newer'
p87
I10
tp88
a(I19
I5
I0
S'android'
p89
I10
tp90
a(I19
I11
F0.5
S'strong'
p91
I10
tp92
as(S'replacement'
p93
tp94
(lp95
(I3
I76
I0
S'great'
p96
I13
tp97
a(I11
I8
I0
S'adequate'
p98
I13
tp99
a(I18
I29
F-0.25
S'direct'
p100
I13
tp101
as(S'buttons'
p102
tp103
(lp104
(I2
I6
I0
S'large'
p105
I13
tp106
a(I2
I37
I0
S'big'
p107
I13
tp108
a(I2
I37
F0.625
S'easy'
p109
I13
tp110
a(I5
I23
I0
S'large'
p111
I13
tp112
a(I5
I23
F0.625
S'easy'
p113
I13
tp114
a(I5
I23
I0
S'dial'
p115
I13
tp116
a(I7
I6
I0
S'physical'
p117
I13
tp118
a(I7
I22
F0.875
S'nice'
p119
I13
tp120
a(I10
I23
I0
S'few'
p121
I13
tp122
a(I13
I6
I0
S'big'
p123
I13
tp124
a(I15
I8
F-0.625
S'bad'
p125
I13
tp126
a(I19
I37
I0
S'large'
p127
I13
tp128
a(I19
I37
F0.625
S'easy'
p129
I13
tp130
as(S'sim'
p131
S'card'
p132
tp133
(lp134
(I1
I4
F-0.5
S'international'
p135
I0
tp136
a(I1
I32
I0
S'old'
p137
I0
tp138
a(I1
I32
F0.625
S'easy'
p139
I0
tp140
a(I4
I16
I0
S'old'
p141
I0
tp142
a(I15
I64
F-0.5
S'long'
p143
I0
tp144
a(I15
I64
F-0.875
S'hard'
p145
I0
tp146
a(I18
I32
I0
S'ancient'
p147
I0
tp148
as(S'dropped'
p149
S'calls'
p150
tp151
(lp152
(I18
I31
F-0.25
S'dropped'
p153
I0
tp154
a(I3
I69
F0.125
S'able'
p155
I0
tp156
a(I18
I31
F-0.25
g153
I0
tp157
as(S'mp3'
p158
S'player'
p159
tp160
(lp161
(I2
I14
I0
S'premier'
p162
I1
tp163
as(S'flip'
p164
tp165
(lp166
(I1
I14
F-0.375
S'simple'
p167
I4
tp168
a(I1
I25
F-0.875
S'harder'
p169
I4
tp170
a(I1
I25
F-0.875
S'harder'
p171
I4
tp172
a(I1
I25
F-0.25
S'inexpensive'
p173
I4
tp174
a(I1
I25
F-0.375
S'simple'
p175
I4
tp176
a(I1
I36
F-0.75
S'tough'
p177
I4
tp178
a(I1
I36
I0
S'basic'
p179
I4
tp180
a(I5
I36
F0.875
S'nice'
p181
I4
tp182
a(I8
I12
I0
S'old'
p183
I4
tp184
a(I10
I3
F-0.125
S'overall'
p185
I4
tp186
a(I10
I3
F1.0
S'best'
p187
I4
tp188
a(I10
I3
F0.375
S'new'
p189
I4
tp190
a(I13
I2
I0
S'basic'
p191
I4
tp192
a(I13
I2
F-0.375
S'simple'
p193
I4
tp194
a(I13
I9
F-0.375
S'simple'
p195
I4
tp196
a(I19
I0
F-0.625
S'other'
p197
I4
tp198
as(S'sound'
p199
S'quality'
p200
tp201
(lp202
(I3
I33
I0
S'tinny'
p203
I0
tp204
a(I7
I0
F1.0
S'good'
p205
I0
tp206
a(I1
I31
I0
S'tinny'
p207
I7
tp208
a(I7
I0
F1.0
g205
I7
tp209
a(I8
I5
I0
S'weird'
p210
I7
tp211
a(I10
I1
F-0.5
S'less'
p212
I7
tp213
a(I10
I1
F0.25
S'stellar'
p214
I7
tp215
a(I10
I35
F-0.5
S'open'
p216
I7
tp217
as(S'hear'
p218
tp219
(lp220
(I8
I4
F-0.375
S'static'
p221
I16
tp222
as(S'bells'
p223
S'and'
p224
S'whistles'
p225
tp226
(lp227
(I3
I97
I0
S'many'
p228
I0
tp229
as(S'radio'
p230
tp231
(lp232
(I0
I5
F0.125
S'able'
p233
I0
tp234
a(I10
I23
F-0.625
S'other'
p235
I0
tp236
as.