(dp0
(S'windows'
p1
tp2
(lp3
(I4
I1
I0
S'most'
p4
tp5
a(I4
I1
F0.75
S'due'
p6
tp7
a(I4
I1
I0
S'great'
p8
tp9
a(I4
I2
I0
S'current'
p10
tp11
a(I6
I21
F0.375
S'new'
p12
tp13
a(I6
I21
F0.625
S'aware'
p14
tp15
a(I7
I44
F1.0
S'best'
p16
tp17
a(I7
I44
F-0.25
S'cheapest'
p18
tp19
a(I14
I14
F0.375
S'new'
p20
tp21
a(I14
I18
F0.625
S'easy'
p22
tp23
a(I14
I57
F0.5
S'live'
p24
tp25
a(I14
I97
I0
S'current'
p26
tp27
a(I23
I3
F0.125
S'first'
p28
tp29
a(I23
I17
I0
S'id'
p30
tp31
a(I31
I4
I0
S'mobile'
p32
tp33
a(I35
I5
F0.375
S'new'
p34
tp35
a(I38
I10
F0.125
S'first'
p36
tp37
a(I42
I4
F0.625
S'easy'
p38
tp39
a(I42
I4
F0.375
S'friendly'
p40
tp41
a(I56
I8
F0.125
S'first'
p42
tp43
a(I62
I1
F0.125
S'first'
p44
tp45
a(I72
I3
I0
S'entire'
p46
tp47
a(I78
I1
F0.875
S'nice'
p48
tp49
a(I83
I2
F-0.625
S'other'
p50
tp51
a(I85
I8
F0.375
S'much'
p52
tp53
a(I85
I38
F-0.625
S'other'
p54
tp55
a(I90
I0
F0.375
S'new'
p56
tp57
a(I91
I0
F0.5
S'second'
p58
tp59
a(I115
I3
I0
S'mobile'
p60
tp61
a(I118
I2
I0
S'most'
p62
tp63
a(I121
I10
I0
S'efficient'
p64
tp65
a(I130
I5
I0
S'download'
p66
tp67
a(I133
I3
I0
S'great'
p68
tp69
a(I133
I5
F0.125
S'impressive'
p70
tp71
a(I134
I4
I0
S'current'
p72
tp73
a(I149
I6
I0
S'most'
p74
tp75
a(I155
I0
F-0.625
S'sorry'
p76
tp77
a(I160
I6
F0.375
S'new'
p78
tp79
a(I163
I25
I0
S'unnecessary'
p80
tp81
a(I185
I11
F0.375
S'dynamic'
p82
tp83
a(I189
I2
F0.125
S'first'
p84
tp85
a(I189
I10
I0
S'most'
p86
tp87
a(I192
I2
F0.125
S'supportive'
p88
tp89
a(I200
I2
F-0.25
S'past'
p90
tp91
a(I212
I0
F0.375
S'available'
p92
tp93
a(I225
I4
F0.125
S'first'
p94
tp95
a(I226
I1
F1.0
S'best'
p96
tp97
a(I226
I14
F1.0
S'better'
p98
tp99
a(I228
I24
I0
S'mobile'
p100
tp101
a(I230
I0
I0
S'mobile'
p102
tp103
a(I230
I1
I0
S'mobile'
p104
tp105
a(I230
I1
I0
S'mobile'
p106
tp107
a(I239
I21
F0.125
S'enough'
p108
tp109
a(I243
I9
I0
S'android'
p110
tp111
a(I243
I9
F0.125
S'first'
p112
tp113
a(I249
I20
I0
S'mobile'
p114
tp115
a(I254
I6
F0.125
S'first'
p116
tp117
a(I264
I0
F0.125
S'able'
p118
tp119
a(I267
I2
F-0.125
S'super'
p120
tp121
a(I267
I2
F0.625
S'easy'
p122
tp123
a(I269
I20
F0.5
S'second'
p124
tp125
a(I276
I3
F0.25
S'contest'
p126
tp127
a(I292
I1
F-0.625
S'free'
p128
tp129
a(I292
I2
F0.5
S'compatible'
p130
tp131
a(I293
I3
I0
S'most'
p132
tp133
a(I293
I3
F0.375
S'new'
p134
tp135
a(I293
I3
F0.375
S'available'
p136
tp137
a(I304
I1
F0.5
S'elegant'
p138
tp139
a(I305
I15
I0
S'id'
p140
tp141
a(I306
I9
F0.375
S'available'
p142
tp143
a(I309
I2
F0.75
S'favor'
p144
tp145
a(I318
I5
F-0.625
S'other'
p146
tp147
a(I328
I2
F0.375
S'new'
p148
tp149
a(I328
I2
I0
S'mobile'
p150
tp151
a(I342
I3
F-0.125
S'future'
p152
tp153
a(I350
I6
F0.125
S'downside'
p154
tp155
a(I369
I2
I0
S'great'
p156
tp157
a(I373
I0
F0.125
S'first'
p158
tp159
a(I374
I5
F0.125
S'first'
p160
tp161
a(I377
I8
F1.0
S'better'
p162
tp163
a(I384
I27
I0
S'basic'
p164
tp165
a(I386
I3
I0
S'nervous'
p166
tp167
a(I388
I0
F0.5
S'second'
p168
tp169
a(I388
I0
F0.375
S'new'
p170
tp171
a(I391
I0
F0.125
S'first'
p172
tp173
a(I393
I2
F0.625
S'kind'
p174
tp175
a(I396
I1
F0.375
S'new'
p176
tp177
a(I422
I0
F0.375
S'new'
p178
tp179
a(I428
I73
I0
S'few'
p180
tp181
a(I428
I105
F0.375
S'available'
p182
tp183
a(I441
I9
I0
S'same'
p184
tp185
a(I447
I24
I0
S'dig'
p186
tp187
as(S'a'
p188
S'samsung'
p189
S'focus'
p190
tp191
(lp192
(I6
I81
F0.375
S'new'
p193
tp194
a(I85
I25
F-0.5
S'heavier'
p195
tp196
a(I109
I1
F0.5
S'true'
p197
tp198
a(I109
I1
I0
S'old'
p199
tp200
a(I109
I1
F0.375
S'new'
p201
tp202
a(I109
I6
I0
S'faster'
p203
tp204
a(I149
I0
F0.25
S'original'
p205
tp206
a(I185
I3
F1.0
S'best'
p207
tp208
a(I291
I3
I0
S'same'
p209
tp210
a(I311
I0
F0.625
S'decent'
p211
tp212
a(I410
I0
F0.25
S'original'
p213
tp214
as(S'nice'
p215
tp216
(lp217
(I162
I1
F-0.625
S'clean'
p218
tp219
a(I282
I18
I0
S'few'
p220
tp221
a(I282
I23
F-0.625
S'other'
p222
tp223
a(I287
I2
I0
S'exclusive'
p224
tp225
a(I377
I7
F0.625
S'easy'
p226
tp227
as(S'call'
p228
S'quality'
p229
tp230
(lp231
(I1
I2
I0
S'great'
p232
tp233
a(I6
I57
F1.0
S'best'
p234
tp235
a(I14
I21
F0.625
S'superior'
p236
tp237
a(I31
I34
F-0.5
S'poor'
p238
tp239
a(I38
I34
I0
S'great'
p240
tp241
a(I85
I1
I0
S'same'
p242
tp243
a(I164
I16
F1.0
S'good'
p244
tp245
a(I178
I1
F-0.875
S'hard'
p246
tp247
a(I197
I20
F-0.5
S'call'
p248
tp249
a(I238
I2
F0.5
S'clear'
p250
tp251
a(I252
I2
F0.875
S'nice'
p252
tp253
a(I271
I11
F1.0
S'good'
p254
tp255
a(I296
I4
F1.0
S'good'
p256
tp257
a(I302
I8
F0.875
S'important'
p258
tp259
a(I328
I7
I0
S'great'
p260
tp261
a(I354
I11
I0
S'great'
p262
tp263
a(I373
I4
F0.75
S'classic'
p264
tp265
a(I383
I2
I0
S'great'
p266
tp267
a(I383
I2
I0
S'signal'
p268
tp269
a(I394
I6
F0.125
S'last'
p270
tp271
a(I394
I6
I0
S'least'
p272
tp273
a(I410
I7
I0
S'great'
p274
tp275
a(I413
I2
F0.625
S'perfect'
p276
tp277
a(I428
I36
F1.0
S'good'
p278
tp279
as(S'7'
p280
S'5'
p281
S'mango'
p282
tp283
(lp284
(I340
I7
F0.625
S'easy'
p285
tp286
as(S'operating'
p287
S'system'
p288
tp289
(lp290
(I0
I0
I0
S'fast'
p291
tp292
a(I5
I4
F0.875
S'important'
p293
tp294
a(I22
I5
F-0.25
S'ready'
p295
tp296
a(I65
I2
F0.625
S'major'
p297
tp298
a(I122
I1
F0.375
S'new'
p299
tp300
a(I142
I0
I0
S'mobile'
p301
tp302
a(I207
I1
F0.375
S'new'
p303
tp304
a(I224
I8
F0.75
S'beautiful'
p305
tp306
a(I224
I8
F0.625
S'easy'
p307
tp308
a(I247
I3
I0
S'great'
p309
tp310
a(I252
I1
F0.625
S'major'
p311
tp312
a(I262
I1
I0
S'android'
p313
tp314
a(I262
I1
I0
S'such'
p315
tp316
a(I318
I3
F-0.625
S'light'
p317
tp318
a(I318
I3
I0
S'efficient'
p319
tp320
a(I343
I6
I0
S'great'
p321
tp322
a(I357
I3
F0.625
S'easy'
p323
tp324
a(I376
I1
I0
S'quick'
p325
tp326
a(I395
I5
F-0.375
S'robust'
p327
tp328
a(I405
I3
F1.0
S'best'
p329
tp330
a(I424
I6
F0.625
S'acceptable'
p331
tp332
a(I424
I6
F-0.75
S'dead'
p333
tp334
a(I441
I2
F1.0
S'good'
p335
tp336
a(I445
I2
F0.75
S'beautiful'
p337
tp338
a(I445
I2
F0.625
S'easy'
p339
tp340
as(S'live'
p341
S'tiles'
p342
tp343
(lp344
(I14
I40
I0
S'more'
p345
tp346
a(I14
I40
F0.5
S'live'
p347
tp348
a(I38
I22
F0.5
S'live'
p349
tp350
a(I40
I13
F0.5
S'live'
p351
tp352
a(I52
I3
F0.25
S'favorite'
p353
tp354
a(I52
I3
F0.5
S'live'
p355
tp356
a(I81
I4
F0.5
S'live'
p357
tp358
a(I81
I4
F0.375
S'alive'
p359
tp360
a(I124
I2
F0.5
S'live'
p361
tp362
a(I154
I12
F0.5
S'live'
p363
tp364
a(I185
I11
F0.5
S'live'
p365
tp366
a(I195
I1
F0.5
S'live'
p367
tp368
a(I216
I15
F0.5
S'live'
p369
tp370
a(I224
I15
F0.5
S'live'
p371
tp372
a(I239
I13
F0.5
S'live'
p373
tp374
a(I242
I2
F0.5
S'live'
p375
tp376
a(I244
I7
F0.5
S'live'
p377
tp378
a(I249
I24
F0.5
S'live'
p379
tp380
a(I249
I24
F0.875
S'nice'
p381
tp382
a(I253
I3
F0.5
S'live'
p383
tp384
a(I259
I3
F0.5
S'live'
p385
tp386
a(I267
I1
F0.5
S'live'
p387
tp388
a(I269
I4
F0.5
S'live'
p389
tp390
a(I269
I29
F0.5
S'live'
p391
tp392
a(I269
I29
F-0.375
S'simple'
p393
tp394
a(I280
I3
F0.5
S'live'
p395
tp396
a(I285
I5
F0.5
S'live'
p397
tp398
a(I302
I5
F0.5
S'live'
p399
tp400
a(I320
I2
F0.5
S'live'
p401
tp402
a(I334
I2
F0.5
S'live'
p403
tp404
a(I354
I7
F0.5
S'live'
p405
tp406
a(I354
I7
F-0.375
S'smaller'
p407
tp408
a(I360
I4
F0.5
S'live'
p409
tp410
a(I368
I2
F0.5
S'live'
p411
tp412
a(I376
I1
F0.5
S'live'
p413
tp414
a(I377
I4
F0.5
S'live'
p415
tp416
a(I377
I4
F0.875
S'nicer'
p417
tp418
a(I389
I1
F0.5
S'live'
p419
tp420
a(I403
I6
F0.5
S'live'
p421
tp422
a(I412
I4
F0.5
S'live'
p423
tp424
a(I437
I2
F0.5
S'live'
p425
tp426
a(I437
I2
F0.625
S'easy'
p427
tp428
as(S'great'
p429
S'n'
p430
S'hand'
p431
tp432
(lp433
(I123
I1
I0
S'great'
p434
tp435
a(I151
I4
I0
S'great'
p436
tp437
a(I216
I17
F0.25
S'larger'
p438
tp439
a(I268
I6
I0
S'great'
p440
tp441
a(I367
I0
F-0.625
S'light'
p442
tp443
a(I367
I0
I0
S'great'
p444
tp445
a(I410
I3
I0
S'great'
p446
tp447
a(I431
I7
I0
S'great'
p448
tp449
as(S'features'
p450
tp451
(lp452
(I4
I2
F0.375
S'available'
p453
tp454
a(I14
I67
I0
S'many'
p455
tp456
a(I14
I91
I0
S'many'
p457
tp458
a(I42
I5
F0.25
S'favorite'
p459
tp460
a(I42
I8
F0.625
S'easy'
p461
tp462
a(I53
I4
I0
S'android'
p463
tp464
a(I94
I1
F-0.625
S'free'
p465
tp466
a(I94
I1
I0
S'many'
p467
tp468
a(I94
I1
F-0.625
S'other'
p469
tp470
a(I118
I2
F-0.625
S'other'
p471
tp472
a(I132
I15
F-0.125
S'overall'
p473
tp474
a(I144
I4
I0
S'such'
p475
tp476
a(I178
I1
F-0.625
S'other'
p477
tp478
a(I189
I10
I0
S'many'
p479
tp480
a(I189
I10
I0
S'slower'
p481
tp482
a(I228
I22
F1.0
S'good'
p483
tp484
a(I236
I1
F1.0
S'best'
p485
tp486
a(I236
I1
I0
S'great'
p487
tp488
a(I305
I6
I0
S'most'
p489
tp490
a(I354
I6
F0.375
S'new'
p491
tp492
a(I379
I8
F0.125
S'enough'
p493
tp494
a(I413
I3
F0.5
S'true'
p495
tp496
a(I428
I4
F-0.625
S'other'
p497
tp498
a(I449
I6
F0.375
S'new'
p499
tp500
as(S'look'
p501
S'and'
p502
S'feel'
p503
tp504
(lp505
(I14
I98
F0.25
S'familiar'
p506
tp507
a(I14
I98
F0.5
S'whole'
p508
tp509
a(I14
I98
F0.375
S'new'
p510
tp511
a(I59
I5
F0.25
S'professional'
p512
tp513
a(I59
I5
F-0.625
S'want'
p514
tp515
a(I141
I0
F1.0
S'best'
p516
tp517
a(I249
I23
I0
S'android'
p518
tp519
a(I428
I9
F-0.375
S'smooth'
p520
tp521
a(I441
I4
F1.0
S'good'
p522
tp523
as(S'experience'
p524
tp525
(lp526
(I13
I32
I0
S'real'
p527
tp528
a(I13
I32
F0.125
S'far'
p529
tp530
a(I25
I4
F0.625
S'superior'
p531
tp532
a(I27
I0
F0.875
S'nice'
p533
tp534
a(I106
I4
F1.0
S'best'
p535
tp536
a(I106
I4
I0
S'most'
p537
tp538
a(I148
I4
F0.375
S'early'
p539
tp540
a(I148
I9
I0
S'such'
p541
tp542
a(I153
I7
I0
S'different'
p543
tp544
a(I172
I1
F1.0
S'good'
p545
tp546
a(I197
I23
F-0.5
S'actual'
p547
tp548
a(I197
I27
F-0.125
S'overall'
p549
tp550
a(I230
I0
F-0.625
S'bad'
p551
tp552
a(I258
I33
F-0.5
S'actual'
p553
tp554
a(I258
I34
F-0.125
S'overall'
p555
tp556
a(I276
I0
F1.0
S'better'
p557
tp558
a(I277
I0
I0
S'different'
p559
tp560
a(I301
I8
I0
S'website'
p561
tp562
a(I315
I0
F0.5
S'personal'
p563
tp564
a(I318
I5
F0.125
S'able'
p565
tp566
a(I354
I21
F0.375
S'new'
p567
tp568
a(I401
I4
F1.0
S'good'
p569
tp570
a(I431
I6
I0
S'great'
p571
tp572
a(I431
I6
I0
S'local'
p573
tp574
a(I437
I16
F0.375
S'new'
p575
tp576
a(I442
I2
F-0.875
S'negative'
p577
tp578
a(I447
I25
F0.25
S'sweet'
p579
tp580
as(S'sweet'
p581
S'spot'
p582
tp583
(lp584
(I13
I19
F0.25
S'sweet'
p585
tp586
a(I38
I5
F0.25
S'sweet'
p587
tp588
a(I151
I2
F0.25
S'sweet'
p589
tp590
as(S'with'
p591
S'nokia'
p592
S'lumia'
p593
tp594
(lp595
(I83
I12
F0.5
S'drive'
p596
tp597
a(I216
I12
F0.5
S'drive'
p598
tp599
a(I228
I24
F-0.375
S'black'
p600
tp601
a(I236
I7
F-0.5
S'sure'
p602
tp603
a(I254
I13
F-0.125
S'overall'
p604
tp605
a(I301
I8
I0
S'few'
p606
tp607
a(I343
I1
F-0.625
S'free'
p608
tp609
a(I361
I1
F0.375
S'much'
p610
tp611
a(I361
I1
I0
S'special'
p612
tp613
a(I408
I5
F0.375
S'new'
p614
tp615
a(I408
I5
F-0.625
S'free'
p616
tp617
as(S'facebook'
p618
S'and'
p619
S'twitter'
p620
tp621
(lp622
(I7
I28
F0.875
S'music'
p623
tp624
a(I59
I5
I0
S'forth'
p625
tp626
a(I157
I9
F1.0
S'good'
p627
tp628
a(I428
I57
F0.5
S'live'
p629
tp630
as(S'third'
p631
S'party'
p632
S'apps'
p633
tp634
(lp635
(I7
I29
I0
S'third'
p636
tp637
a(I14
I5
I0
S'third'
p638
tp639
a(I54
I4
I0
S'third'
p640
tp641
a(I62
I10
I0
S'third'
p642
tp643
a(I62
I10
F0.375
S'jittery'
p644
tp645
a(I195
I12
I0
S'such'
p646
tp647
a(I195
I12
I0
S'toggle'
p648
tp649
a(I211
I19
I0
S'third'
p650
tp651
a(I211
I19
I0
S'cool'
p652
tp653
a(I211
I19
I0
S'useful'
p654
tp655
a(I403
I2
I0
S'third'
p656
tp657
a(I445
I3
I0
S'most'
p658
tp659
as(g281
S'stars'
p660
tp661
(lp662
(I177
I5
I0
S'full'
p663
tp664
a(I228
I1
F1.0
S'better'
p665
tp666
a(I349
I1
I0
S'more'
p667
tp668
a(I366
I1
F0.625
S'perfect'
p669
tp670
a(I447
I30
I0
S'full'
p671
tp672
as(S'store'
p673
tp674
(lp675
(I1
I0
F0.125
S'last'
p676
tp677
a(I62
I0
I0
S'only'
p678
tp679
a(I81
I15
F1.0
S'good'
p680
tp681
a(I108
I2
F-0.625
S'nearby'
p682
tp683
a(I140
I5
F0.5
S'second'
p684
tp685
a(I163
I4
F0.125
S'last'
p686
tp687
a(I168
I2
F1.0
S'good'
p688
tp689
a(I251
I8
I0
S'local'
p690
tp691
a(I267
I0
F0.5
S'slick'
p692
tp693
a(I298
I8
F0.5
S'told'
p694
tp695
a(I337
I15
I0
S'corporate'
p696
tp697
a(I348
I0
F-0.625
S'other'
p698
tp699
a(I365
I19
F0.25
S'bigger'
p700
tp701
a(I439
I3
F-0.375
S'smooth'
p702
tp703
a(I441
I10
I0
S'retail'
p704
tp705
a(I441
I10
I0
S'retail'
p706
tp707
as(S'diagnostic'
p708
S'tool'
p709
tp710
(lp711
(I7
I30
F0.25
S'diagnostic'
p712
tp713
a(I7
I32
F0.25
S'diagnostic'
p714
tp715
a(I7
I32
F0.25
S'diagnostic'
p716
tp717
as(S'software'
p718
tp719
(lp720
(I6
I25
F0.125
S'first'
p721
tp722
a(I23
I3
I0
S'incredible'
p723
tp724
a(I79
I15
F0.875
S'music'
p725
tp726
a(I90
I9
F-0.125
S'future'
p727
tp728
a(I96
I0
F0.25
S'familiar'
p729
tp730
a(I119
I9
F-0.5
S'sure'
p731
tp732
a(I122
I13
F0.375
S'available'
p733
tp734
a(I137
I2
F-0.5
S'less'
p735
tp736
a(I137
I2
I0
S'monumental'
p737
tp738
a(I137
I4
F1.0
S'best'
p739
tp740
a(I160
I6
F-0.375
S'simple'
p741
tp742
a(I167
I1
F0.625
S'easier'
p743
tp744
a(I172
I2
F1.0
S'better'
p745
tp746
a(I187
I6
I0
S'useful'
p747
tp748
a(I245
I8
F-0.125
S'ultimate'
p749
tp750
a(I324
I4
I0
S'great'
p751
tp752
a(I358
I3
F1.0
S'good'
p753
tp754
a(I379
I3
F0.375
S'new'
p755
tp756
a(I398
I1
F1.0
S'good'
p757
tp758
a(I408
I16
F-0.375
S'smooth'
p759
tp760
as(S'android'
p761
S'and'
p762
S'os'
p763
tp764
(lp765
(I6
I3
F0.125
S'last'
p766
tp767
a(I14
I16
F0.625
S'easy'
p768
tp769
a(I43
I0
F0.875
S'nice'
p770
tp771
a(I43
I0
F-0.125
S'alternative'
p772
tp773
a(I62
I3
I0
S'android'
p774
tp775
a(I106
I0
I0
S'stable'
p776
tp777
a(I106
I0
F0.25
S'responsive'
p778
tp779
a(I151
I2
F-0.375
S'simple'
p780
tp781
a(I151
I2
I0
S'fluid'
p782
tp783
a(I185
I1
F-0.5
S'less'
p784
tp785
a(I237
I0
F1.0
S'best'
p786
tp787
a(I262
I1
F-0.125
S'complex'
p788
tp789
a(I292
I4
I0
S'android'
p790
tp791
a(I294
I1
I0
S'android'
p792
tp793
a(I323
I5
I0
S'android'
p794
tp795
a(I374
I3
I0
S'great'
p796
tp797
a(I418
I1
F-0.625
S'other'
p798
tp799
a(I431
I6
F0.25
S'recent'
p800
tp801
as(S'nokia'
p802
tp803
(lp804
(I1
I10
F0.5
S'drive'
p805
tp806
a(I2
I4
F-0.375
S'top'
p807
tp808
a(I6
I78
I0
S'great'
p809
tp810
a(I13
I14
F0.5
S'drive'
p811
tp812
a(I14
I67
I0
S'exclusive'
p813
tp814
a(I17
I9
I0
S'proprietary'
p815
tp816
a(I29
I3
F0.125
S'first'
p817
tp818
a(I31
I11
F0.5
S'drive'
p819
tp820
a(I38
I36
I0
S'least'
p821
tp822
a(I47
I0
F-0.875
S'stuck'
p823
tp824
a(I50
I0
F1.0
S'best'
p825
tp826
a(I70
I19
F0.5
S'drive'
p827
tp828
a(I70
I19
I0
S'quick'
p829
tp830
a(I83
I12
F0.5
g596
tp831
a(I85
I3
F-0.75
S'little'
p832
tp833
a(I85
I3
F0.875
S'happy'
p834
tp835
a(I85
I29
I0
S'standard'
p836
tp837
a(I85
I40
F-0.625
S'glad'
p838
tp839
a(I97
I1
F0.375
S'new'
p840
tp841
a(I97
I1
F0.375
S'reliable'
p842
tp843
a(I109
I10
I0
S'exclusive'
p844
tp845
a(I118
I7
I0
S'update'
p846
tp847
a(I119
I7
F0.75
S'beautiful'
p848
tp849
a(I122
I13
F-0.625
S'other'
p850
tp851
a(I136
I6
I0
S'special'
p852
tp853
a(I142
I12
F-0.25
S'white'
p854
tp855
a(I151
I8
I0
S'great'
p856
tp857
a(I151
I8
F0.75
S'beautiful'
p858
tp859
a(I155
I2
F0.375
S'new'
p860
tp861
a(I159
I9
F0.375
S'honest'
p862
tp863
a(I159
I11
F0.5
S'drive'
p864
tp865
a(I163
I14
F0.5
S'drive'
p866
tp867
a(I163
I18
F0.375
S'loud'
p868
tp869
a(I164
I13
F0.5
S'drive'
p870
tp871
a(I181
I4
F0.375
S'new'
p872
tp873
a(I201
I8
F0.25
S'familiar'
p874
tp875
a(I202
I2
F0.625
S'easy'
p876
tp877
a(I210
I6
F-0.625
S'free'
p878
tp879
a(I210
I6
F0.5
S'drive'
p880
tp881
a(I216
I12
F0.5
g598
tp882
a(I228
I19
F0.5
S'drive'
p883
tp884
a(I236
I7
F-0.5
g602
tp885
a(I240
I2
F0.375
S'new'
p886
tp887
a(I244
I9
F0.5
S'drive'
p888
tp889
a(I249
I1
F0.125
S'first'
p890
tp891
a(I249
I10
F-0.625
S'other'
p892
tp893
a(I253
I14
F-0.375
S'manual'
p894
tp895
a(I253
I19
F0.25
S'original'
p896
tp897
a(I254
I4
F-0.25
S'past'
p898
tp899
a(I254
I13
F-0.125
g604
tp900
a(I255
I11
F0.125
S'last'
p901
tp902
a(I268
I18
F-0.625
S'irrelevant'
p903
tp904
a(I269
I9
I0
S'wish'
p905
tp906
a(I280
I1
F-0.625
S'fresh'
p907
tp908
a(I280
I1
F0.375
S'new'
p909
tp910
a(I280
I4
I0
S'next'
p911
tp912
a(I286
I2
F1.0
S'best'
p913
tp914
a(I286
I2
F0.375
S'new'
p915
tp916
a(I292
I0
I0
S'old'
p917
tp918
a(I294
I2
I0
S'old'
p919
tp920
a(I294
I13
F0.5
S'drive'
p921
tp922
a(I332
I9
I0
S'old'
p923
tp924
a(I336
I1
F0.125
S'first'
p925
tp926
a(I336
I4
I0
S'add-on'
p927
tp928
a(I336
I5
I0
S'special'
p929
tp930
a(I336
I5
I0
S'add-on'
p931
tp932
a(I346
I4
F0.5
S'drive'
p933
tp934
a(I349
I2
F1.0
S'good'
p935
tp936
a(I349
I6
F0.5
S'drive'
p937
tp938
a(I352
I12
F0.5
S'comparable'
p939
tp940
a(I360
I4
F0.5
S'drive'
p941
tp942
a(I361
I1
F0.375
g610
tp943
a(I361
I1
I0
g612
tp944
a(I379
I5
F-0.5
S'sure'
p945
tp946
a(I384
I4
F0.375
S'new'
p947
tp948
a(I384
I4
F0.375
S'new'
p949
tp950
a(I408
I5
F0.375
g614
tp951
a(I408
I5
F-0.625
g616
tp952
a(I420
I1
I0
S'great'
p953
tp954
a(I421
I7
F-0.25
S'late'
p955
tp956
a(I430
I3
F-0.125
S'overall'
p957
tp958
a(I430
I3
F0.875
S'happy'
p959
tp960
a(I447
I6
F0.375
S'new'
p961
tp962
a(I447
I20
F0.5
S'possible'
p963
tp964
as(S'sim'
p965
S'card'
p966
tp967
(lp968
(I181
I3
F-0.5
S'regular'
p969
tp970
as(g430
S'r'
p971
S'hand'
p972
tp973
(lp974
(I6
I59
F0.5
S'second'
p975
tp976
a(I123
I1
I0
g434
tp977
a(I132
I12
F-0.625
S'other'
p978
tp979
a(I133
I8
F0.125
S'solid'
p980
tp981
a(I140
I10
F-0.125
S'super'
p982
tp983
a(I151
I4
I0
g436
tp984
a(I216
I17
F0.25
g438
tp985
a(I244
I12
I0
S'big'
p986
tp987
a(I249
I37
F-0.625
S'other'
p988
tp989
a(I268
I6
I0
g440
tp990
a(I276
I1
F-0.75
S'comfortable'
p991
tp992
a(I313
I4
F1.0
S'good'
p993
tp994
a(I340
I2
F0.125
S'solid'
p995
tp996
a(I353
I6
I0
S'immediate'
p997
tp998
a(I367
I0
F-0.625
g442
tp999
a(I367
I0
I0
g444
tp1000
a(I383
I5
F-0.625
S'other'
p1001
tp1002
a(I384
I20
F0.625
S'perfect'
p1003
tp1004
a(I410
I3
I0
g446
tp1005
a(I418
I1
F0.125
S'first'
p1006
tp1007
a(I428
I29
F-0.625
S'steady'
p1008
tp1009
a(I431
I7
I0
g448
tp1010
as(S'os'
p1011
S'and'
p1012
S'android'
p1013
tp1014
(lp1015
(I6
I3
F0.125
g766
tp1016
a(I14
I16
F0.625
g768
tp1017
a(I43
I0
F0.875
g770
tp1018
a(I43
I0
F-0.125
g772
tp1019
a(I62
I3
I0
g774
tp1020
a(I106
I0
I0
g776
tp1021
a(I106
I0
F0.25
g778
tp1022
a(I151
I2
F-0.375
g780
tp1023
a(I151
I2
I0
g782
tp1024
a(I185
I1
F-0.5
g784
tp1025
a(I237
I0
F1.0
g786
tp1026
a(I262
I1
F-0.125
g788
tp1027
a(I292
I4
I0
g790
tp1028
a(I294
I1
I0
g792
tp1029
a(I323
I5
I0
g794
tp1030
a(I374
I3
I0
g796
tp1031
a(I418
I1
F-0.625
g798
tp1032
a(I431
I6
F0.25
g800
tp1033
as(S't'
p1034
g281
S'stars'
p1035
tp1036
(lp1037
(I177
I5
I0
g663
tp1038
a(I228
I1
F1.0
g665
tp1039
a(I349
I1
I0
g667
tp1040
a(I366
I1
F0.625
g669
tp1041
a(I447
I30
I0
g671
tp1042
as(S'nokia'
p1043
S'and'
p1044
S'microsoft'
p1045
tp1046
(lp1047
(I236
I7
F-0.5
g602
tp1048
a(I268
I18
F-0.625
g903
tp1049
a(I268
I18
F-0.25
S'late'
p1050
tp1051
a(I292
I9
I0
S'wish'
p1052
tp1053
a(I292
I9
I0
S'own'
p1054
tp1055
as(S'easy'
p1056
S'to'
p1057
S'use'
p1058
tp1059
(lp1060
(I53
I1
F-0.5
S'heavy'
p1061
tp1062
a(I340
I7
F-0.625
S'average'
p1063
tp1064
as(S'smartphone'
p1065
tp1066
(lp1067
(I6
I3
I0
S'slowest'
p1068
tp1069
a(I7
I4
F0.125
S'first'
p1070
tp1071
a(I7
I28
F0.125
S'usual'
p1072
tp1073
a(I14
I85
F1.0
S'best'
p1074
tp1075
a(I38
I0
F1.0
S'better'
p1076
tp1077
a(I42
I12
F0.375
S'much'
p1078
tp1079
a(I42
I12
F0.25
S'offered'
p1080
tp1081
a(I46
I0
F0.5
S'stylish'
p1082
tp1083
a(I55
I1
F0.125
S'first'
p1084
tp1085
a(I72
I7
F-0.25
S'modern'
p1086
tp1087
a(I110
I0
I0
S'latest'
p1088
tp1089
a(I121
I0
F0.125
S'first'
p1090
tp1091
a(I128
I1
F1.0
S'best'
p1092
tp1093
a(I140
I9
F1.0
S'best'
p1094
tp1095
a(I180
I10
F-0.125
S'slow'
p1096
tp1097
a(I180
I23
F-0.625
S'other'
p1098
tp1099
a(I193
I0
I0
S'android'
p1100
tp1101
a(I195
I0
F1.0
S'best'
p1102
tp1103
a(I195
I27
F1.0
S'best'
p1104
tp1105
a(I218
I0
F1.0
S'best'
p1106
tp1107
a(I228
I24
F0.125
S'first'
p1108
tp1109
a(I242
I7
I0
S'least'
p1110
tp1111
a(I287
I3
F1.0
S'better'
p1112
tp1113
a(I295
I7
F0.5
S'second'
p1114
tp1115
a(I302
I9
F0.125
S'first'
p1116
tp1117
a(I358
I0
F0.375
S'new'
p1118
tp1119
a(I366
I10
F1.0
S'best'
p1120
tp1121
a(I391
I2
I0
S'most'
p1122
tp1123
a(I405
I7
F0.625
S'easy'
p1124
tp1125
a(I410
I1
F1.0
S'best'
p1126
tp1127
a(I410
I10
F1.0
S'best'
p1128
tp1129
a(I445
I5
F1.0
S'better'
p1130
tp1131
a(I448
I2
F0.625
S'easy'
p1132
tp1133
as(S'nokia'
p1134
S'lumia'
p1135
tp1136
(lp1137
(I14
I97
I0
S'current'
p1138
tp1139
a(I83
I12
F0.5
g596
tp1140
a(I85
I5
F0.375
S'available'
p1141
tp1142
a(I97
I1
F0.375
g840
tp1143
a(I97
I1
F0.375
g842
tp1144
a(I109
I10
I0
g844
tp1145
a(I142
I12
F-0.25
g854
tp1146
a(I149
I28
F0.375
S'new'
p1147
tp1148
a(I151
I8
I0
g856
tp1149
a(I151
I8
F0.75
g858
tp1150
a(I155
I2
F0.375
g860
tp1151
a(I163
I14
F0.5
g866
tp1152
a(I216
I12
F0.5
g598
tp1153
a(I224
I6
F0.625
S'perfect'
p1154
tp1155
a(I228
I24
F-0.375
g600
tp1156
a(I236
I7
F-0.5
g602
tp1157
a(I245
I3
I0
S'song'
p1158
tp1159
a(I254
I13
F-0.125
g604
tp1160
a(I268
I4
F0.875
S'happier'
p1161
tp1162
a(I292
I0
I0
g917
tp1163
a(I294
I2
I0
g919
tp1164
a(I301
I8
I0
g606
tp1165
a(I343
I1
F-0.625
g608
tp1166
a(I361
I1
F0.375
g610
tp1167
a(I361
I1
I0
g612
tp1168
a(I369
I0
I0
S'great'
p1169
tp1170
a(I386
I0
F0.125
S'solid'
p1171
tp1172
a(I408
I5
F0.375
g614
tp1173
a(I408
I5
F-0.625
g616
tp1174
a(I447
I6
F0.375
g961
tp1175
as(S'reviews'
p1176
tp1177
(lp1178
(I22
I3
I0
S'initial'
p1179
tp1180
a(I24
I0
I0
S'most'
p1181
tp1182
a(I24
I0
F-0.625
S'other'
p1183
tp1184
a(I33
I2
F-0.875
S'negative'
p1185
tp1186
a(I53
I3
F-0.75
S'wrong'
p1187
tp1188
a(I56
I13
F1.0
S'good'
p1189
tp1190
a(I57
I8
I0
S'most'
p1191
tp1192
a(I101
I8
F0.625
S'positive'
p1193
tp1194
a(I132
I6
F-0.75
S'likely'
p1195
tp1196
a(I132
I16
F-0.875
S'negative'
p1197
tp1198
a(I138
I0
I0
S'great'
p1199
tp1200
a(I142
I11
F1.0
S'good'
p1201
tp1202
a(I163
I6
F-0.625
S'other'
p1203
tp1204
a(I163
I6
I0
S'many'
p1205
tp1206
a(I184
I1
F0.625
S'positive'
p1207
tp1208
a(I184
I1
I0
S'total'
p1209
tp1210
a(I215
I3
I0
S'many'
p1211
tp1212
a(I215
I3
F-0.125
S'former'
p1213
tp1214
a(I221
I5
I0
S'most'
p1215
tp1216
a(I236
I1
F-0.625
S'other'
p1217
tp1218
a(I268
I0
F0.625
S'positive'
p1219
tp1220
a(I268
I23
I0
S'most'
p1221
tp1222
a(I287
I0
I0
S'many'
p1223
tp1224
a(I306
I2
F-0.875
S'negative'
p1225
tp1226
a(I323
I8
I0
S'great'
p1227
tp1228
a(I337
I0
I0
S'many'
p1229
tp1230
a(I342
I1
I0
S'great'
p1231
tp1232
a(I361
I5
F0.375
S'newest'
p1233
tp1234
a(I361
I5
F0.125
S'first'
p1235
tp1236
a(I361
I7
I0
S'many'
p1237
tp1238
a(I361
I9
F-0.625
S'other'
p1239
tp1240
a(I372
I0
F0.375
S'much'
p1241
tp1242
a(I442
I6
F-0.625
S'other'
p1243
tp1244
as(S'fast'
p1245
tp1246
(lp1247
(I14
I21
F-0.125
S'super'
p1248
tp1249
a(I14
I43
F-0.375
S'crazy'
p1250
tp1251
a(I14
I43
F0.625
S'easy'
p1252
tp1253
a(I14
I43
F0.375
S'reliable'
p1254
tp1255
a(I73
I0
I0
S'very'
p1256
tp1257
a(I234
I5
F-0.125
S'super'
p1258
tp1259
a(I305
I14
F0.5
S'accurate'
p1260
tp1261
a(I317
I15
F-0.375
S'crazy'
p1262
tp1263
as(g188
S'good'
p1264
S'thing'
p1265
tp1266
(lp1267
(I23
I11
F1.0
S'good'
p1268
tp1269
a(I38
I3
F1.0
S'good'
p1270
tp1271
a(I104
I3
F1.0
S'good'
p1272
tp1273
a(I144
I4
F1.0
S'good'
p1274
tp1275
a(I161
I3
I0
S'only'
p1276
tp1277
a(I185
I34
F1.0
S'good'
p1278
tp1279
a(I185
I34
F-0.625
S'free'
p1280
tp1281
a(I223
I3
F1.0
S'good'
p1282
tp1283
a(I365
I23
F1.0
S'good'
p1284
tp1285
a(I365
I23
I0
S'many'
p1286
tp1287
a(I381
I0
I0
S'only'
p1288
tp1289
a(I408
I20
I0
S'only'
p1290
tp1291
as(S'f'
p1292
S'are'
p1293
S'looking'
p1294
tp1295
(lp1296
(I49
I0
F1.0
S'good'
p1297
tp1298
a(I49
I0
F-0.125
S'mine'
p1299
tp1300
a(I85
I42
F1.0
S'good'
p1301
tp1302
a(I102
I1
F0.875
S'nice'
p1303
tp1304
as(S'couple'
p1305
S'of'
p1306
S'days'
p1307
tp1308
(lp1309
(I6
I60
F-0.75
S'comfortable'
p1310
tp1311
a(I31
I30
F0.125
S'first'
p1312
tp1313
a(I62
I0
I0
S'later'
p1314
tp1315
as(S'email'
p1316
tp1317
(lp1318
(I6
I6
I0
S'great'
p1319
tp1320
a(I6
I57
I0
S'great'
p1321
tp1322
a(I14
I20
I0
S'current'
p1323
tp1324
a(I79
I3
F0.5
S'primary'
p1325
tp1326
a(I100
I9
I0
S'different'
p1327
tp1328
a(I139
I4
I0
S'desktop'
p1329
tp1330
a(I143
I7
I0
S'entire'
p1331
tp1332
a(I176
I3
I0
S'great'
p1333
tp1334
a(I189
I8
F-0.375
S'simple'
p1335
tp1336
a(I239
I16
I0
S'corporate'
p1337
tp1338
a(I245
I3
F0.375
S'new'
p1339
tp1340
a(I245
I3
F0.375
S'new'
p1341
tp1342
a(I258
I46
F0.5
S'primary'
p1343
tp1344
a(I384
I55
F0.5
S'live'
p1345
tp1346
a(I439
I7
F1.0
S'best'
p1347
tp1348
as(g430
S'low'
p1349
S'light'
p1350
tp1351
(lp1352
(I56
I18
F-0.25
S'low'
p1353
tp1354
a(I122
I13
F-0.25
S'low'
p1355
tp1356
a(I244
I8
F1.0
S'good'
p1357
tp1358
as(S'angry'
p1359
S'birds'
p1360
tp1361
(lp1362
(I14
I67
I0
S'angry'
p1363
tp1364
a(I157
I7
I0
S'angry'
p1365
tp1366
a(I157
I7
I0
S'angry'
p1367
tp1368
a(I157
I7
I0
S'angry'
p1369
tp1370
a(I197
I7
I0
S'angry'
p1371
tp1372
a(I397
I5
I0
S'angry'
p1373
tp1374
as(S'need'
p1375
tp1376
(lp1377
(I74
I2
F0.625
S'necessary'
p1378
tp1379
a(I211
I12
F-0.375
S'simple'
p1380
tp1381
a(I282
I39
I0
S'sore'
p1382
tp1383
a(I318
I3
I0
S'more'
p1384
tp1385
as(g430
S'direct'
p1386
S'sunlight'
p1387
tp1388
(lp1389
(I81
I10
F-0.25
S'direct'
p1390
tp1391
a(I96
I15
F-0.25
S'direct'
p1392
tp1393
a(I109
I0
F-0.25
S'direct'
p1394
tp1395
a(I149
I9
F-0.25
S'direct'
p1396
tp1397
a(I185
I12
F-0.25
S'direct'
p1398
tp1399
a(I225
I2
F-0.25
S'direct'
p1400
tp1401
a(I269
I5
F-0.25
S'direct'
p1402
tp1403
a(I291
I3
F-0.25
S'direct'
p1404
tp1405
as(S'front'
p1406
S'facing'
p1407
S'camera'
p1408
tp1409
(lp1410
(I14
I31
F-0.625
S'light'
p1411
tp1412
a(I343
I5
F1.0
S'good'
p1413
tp1414
a(I343
I5
F1.0
S'best'
p1415
tp1416
as(S'lumia'
p1417
tp1418
(lp1419
(I4
I2
F0.5
S'compatible'
p1420
tp1421
a(I12
I2
I0
S'more'
p1422
tp1423
a(I12
I2
I0
S'normal'
p1424
tp1425
a(I12
I2
F0.375
S'new'
p1426
tp1427
a(I14
I33
I0
S'big'
p1428
tp1429
a(I14
I33
F-0.375
S'small'
p1430
tp1431
a(I14
I76
I0
S'dial'
p1432
tp1433
a(I14
I85
F1.0
S'best'
p1434
tp1435
a(I14
I97
I0
g1138
tp1436
a(I31
I32
I0
S'update'
p1437
tp1438
a(I37
I1
I0
S'great'
p1439
tp1440
a(I59
I5
F-0.25
S'white'
p1441
tp1442
a(I59
I7
F-0.5
S'sure'
p1443
tp1444
a(I70
I2
I0
S'own'
p1445
tp1446
a(I70
I12
F-0.875
S'unhappy'
p1447
tp1448
a(I85
I5
F0.375
g1141
tp1449
a(I86
I1
F-0.625
S'bad'
p1450
tp1451
a(I87
I7
I0
S'great'
p1452
tp1453
a(I87
I7
F0.25
S'responsive'
p1454
tp1455
a(I96
I19
F-0.25
S'white'
p1456
tp1457
a(I107
I0
F0.75
S'beautiful'
p1458
tp1459
a(I118
I4
I0
S'next'
p1460
tp1461
a(I122
I16
I0
S'prospective'
p1462
tp1463
a(I128
I2
F-0.375
S'black'
p1464
tp1465
a(I133
I7
F-0.625
S'glad'
p1466
tp1467
a(I139
I0
I0
S'different'
p1468
tp1469
a(I149
I25
F-0.75
S'wrong'
p1470
tp1471
a(I149
I28
F0.375
g1147
tp1472
a(I149
I29
F-0.625
S'free'
p1473
tp1474
a(I158
I1
F0.375
S'new'
p1475
tp1476
a(I159
I3
F0.375
S'much'
p1477
tp1478
a(I159
I3
F0.125
S'solid'
p1479
tp1480
a(I168
I0
F0.5
S'clear'
p1481
tp1482
a(I176
I0
F-0.375
S'black'
p1483
tp1484
a(I179
I1
F0.375
S'new'
p1485
tp1486
a(I187
I0
F0.5
S'drive'
p1487
tp1488
a(I211
I6
F-0.625
S'other'
p1489
tp1490
a(I218
I0
F0.375
S'new'
p1491
tp1492
a(I224
I6
F0.625
g1154
tp1493
a(I228
I24
F-0.375
g600
tp1494
a(I245
I3
I0
g1158
tp1495
a(I268
I4
F0.875
g1161
tp1496
a(I282
I1
F1.0
S'good'
p1497
tp1498
a(I291
I9
F1.0
S'best'
p1499
tp1500
a(I296
I7
I0
S'store'
p1501
tp1502
a(I301
I8
I0
g606
tp1503
a(I305
I10
I0
S'current'
p1504
tp1505
a(I324
I11
F0.375
S'alive'
p1506
tp1507
a(I324
I11
I0
S'least'
p1508
tp1509
a(I336
I9
F0.875
S'happy'
p1510
tp1511
a(I343
I1
F-0.625
g608
tp1512
a(I346
I0
F0.75
S'beautiful'
p1513
tp1514
a(I353
I1
I0
S'same'
p1515
tp1516
a(I357
I0
F0.375
S'new'
p1517
tp1518
a(I368
I1
F1.0
S'good'
p1519
tp1520
a(I368
I1
I0
S'fast'
p1521
tp1522
a(I368
I1
F0.25
S'responsive'
p1523
tp1524
a(I369
I0
I0
g1169
tp1525
a(I386
I0
F0.125
g1171
tp1526
a(I389
I5
I0
S'next'
p1527
tp1528
a(I389
I5
F0.5
S'eligible'
p1529
tp1530
a(I396
I0
F0.375
S'new'
p1531
tp1532
a(I403
I9
F0.75
S'beautiful'
p1533
tp1534
a(I411
I3
F0.75
S'due'
p1535
tp1536
a(I429
I0
I0
S'great'
p1537
tp1538
as(S'right'
p1539
tp1540
(lp1541
(I5
I1
I0
S'sturdy'
p1542
tp1543
a(I101
I2
I0
S'fast'
p1544
tp1545
a(I142
I8
F0.375
S'available'
p1546
tp1547
a(I315
I2
F0.75
S'wonder'
p1548
tp1549
a(I428
I59
F-0.25
S'lower'
p1550
tp1551
a(I428
I98
I0
S'great'
p1552
tp1553
as(S'things'
p1554
tp1555
(lp1556
(I13
I2
F-0.625
S'clean'
p1557
tp1558
a(I17
I3
F0.25
S'favorite'
p1559
tp1560
a(I25
I9
F-0.375
S'small'
p1561
tp1562
a(I31
I32
F1.0
S'good'
p1563
tp1564
a(I36
I2
F0.375
S'interesting'
p1565
tp1566
a(I59
I4
I0
S'most'
p1567
tp1568
a(I73
I4
I0
S'faster'
p1569
tp1570
a(I75
I12
F-0.625
S'other'
p1571
tp1572
a(I83
I2
F1.0
S'best'
p1573
tp1574
a(I109
I0
F-0.375
S'top'
p1575
tp1576
a(I124
I7
I0
S'many'
p1577
tp1578
a(I124
I7
F-0.625
S'other'
p1579
tp1580
a(I158
I0
I0
S'faster'
p1581
tp1582
a(I158
I0
F1.0
S'better'
p1583
tp1584
a(I162
I6
I0
S'few'
p1585
tp1586
a(I163
I6
I0
S'great'
p1587
tp1588
a(I199
I0
I0
S'many'
p1589
tp1590
a(I210
I6
I0
S'many'
p1591
tp1592
a(I210
I6
F-0.5
S'sure'
p1593
tp1594
a(I210
I7
F-0.75
S'little'
p1595
tp1596
a(I210
I7
F0.625
S'easier'
p1597
tp1598
a(I239
I22
F-0.625
S'allergic'
p1599
tp1600
a(I239
I22
F1.0
S'better'
p1601
tp1602
a(I249
I27
F1.0
S'better'
p1603
tp1604
a(I249
I36
F-0.25
S'past'
p1605
tp1606
a(I269
I25
I0
S'many'
p1607
tp1608
a(I269
I25
F-0.5
S'ordinary'
p1609
tp1610
a(I269
I25
I0
S'such'
p1611
tp1612
a(I282
I23
I0
S'third'
p1613
tp1614
a(I296
I9
I0
S'most'
p1615
tp1616
a(I313
I12
F0.625
S'easy'
p1617
tp1618
a(I315
I2
I0
S'faster'
p1619
tp1620
a(I334
I5
I0
S'few'
p1621
tp1622
a(I335
I11
F-0.75
S'little'
p1623
tp1624
a(I337
I0
I0
S'many'
p1625
tp1626
a(I337
I0
F1.0
S'good'
p1627
tp1628
a(I337
I2
I0
S'more'
p1629
tp1630
a(I337
I2
F0.125
S'impressive'
p1631
tp1632
a(I356
I5
F-0.125
S'overall'
p1633
tp1634
a(I356
I5
F0.375
S'extra'
p1635
tp1636
a(I373
I0
F1.0
S'good'
p1637
tp1638
a(I373
I4
F0.625
S'major'
p1639
tp1640
a(I405
I0
F0.625
S'positive'
p1641
tp1642
a(I411
I12
I0
S'specific'
p1643
tp1644
a(I419
I2
I0
S'android'
p1645
tp1646
a(I419
I2
F0.25
S'familiar'
p1647
tp1648
a(I419
I3
I0
S'different'
p1649
tp1650
a(I419
I3
F0.625
S'easy'
p1651
tp1652
a(I433
I0
F1.0
S'good'
p1653
tp1654
as(S'apple'
p1655
tp1656
(lp1657
(I6
I13
F0.625
S'certified'
p1658
tp1659
a(I6
I18
F0.125
S'typical'
p1660
tp1661
a(I45
I0
I0
S'least'
p1662
tp1663
a(I130
I0
I0
S'fanatic'
p1664
tp1665
a(I132
I17
I0
S'android'
p1666
tp1667
a(I163
I0
F-0.25
S'google'
p1668
tp1669
a(I217
I7
F1.0
S'better'
p1670
tp1671
a(I226
I1
I0
S'own'
p1672
tp1673
a(I282
I21
I0
S'good-bye'
p1674
tp1675
a(I301
I3
I0
S'big'
p1676
tp1677
a(I309
I1
I0
S'great'
p1678
tp1679
a(I366
I3
I0
S'android'
p1680
tp1681
a(I395
I8
F1.0
S'good'
p1682
tp1683
a(I401
I38
F0.25
S'familiar'
p1684
tp1685
a(I402
I0
I0
S'big'
p1686
tp1687
a(I421
I2
F-0.875
S'hard'
p1688
tp1689
a(I437
I15
I0
S'entire'
p1690
tp1691
as(S'hardware'
p1692
tp1693
(lp1694
(I6
I44
I0
S'great'
p1695
tp1696
a(I6
I75
F-0.25
S'low'
p1697
tp1698
a(I13
I5
F-0.5
S'weak'
p1699
tp1700
a(I23
I12
F-0.125
S'overall'
p1701
tp1702
a(I45
I0
F1.0
S'best'
p1703
tp1704
a(I45
I0
I0
S'mobile'
p1705
tp1706
a(I82
I0
I0
S'android'
p1707
tp1708
a(I118
I2
F0.375
S'new'
p1709
tp1710
a(I118
I2
F-0.75
S'likely'
p1711
tp1712
a(I121
I0
I0
S'large'
p1713
tp1714
a(I137
I8
F0.375
S'new'
p1715
tp1716
a(I148
I5
F0.125
S'solid'
p1717
tp1718
a(I185
I0
I0
S'great'
p1719
tp1720
a(I185
I5
I0
S'great'
p1721
tp1722
a(I189
I10
F-0.625
S'other'
p1723
tp1724
a(I205
I2
F0.75
S'beautiful'
p1725
tp1726
a(I287
I1
F0.625
S'sexy'
p1727
tp1728
a(I318
I1
F0.5
S'elegant'
p1729
tp1730
a(I318
I5
I0
S'older'
p1731
tp1732
a(I329
I12
F0.375
S'confident'
p1733
tp1734
a(I332
I3
I0
S'great'
p1735
tp1736
a(I387
I11
F0.875
S'attractive'
p1737
tp1738
a(I391
I3
I0
S'great'
p1739
tp1740
a(I408
I23
F0.875
S'reputable'
p1741
tp1742
as(S'single'
p1743
S'core'
p1744
S'processor'
p1745
tp1746
(lp1747
(I30
I2
F-0.75
S'single'
p1748
tp1749
a(I30
I2
I0
S'fast'
p1750
tp1751
a(I33
I8
F-0.75
S'single'
p1752
tp1753
a(I75
I14
F-0.75
S'single'
p1754
tp1755
a(I122
I10
F-0.75
S'single'
p1756
tp1757
a(I143
I2
F-0.75
S'single'
p1758
tp1759
a(I197
I0
F-0.75
S'single'
p1760
tp1761
a(I211
I5
F-0.75
S'single'
p1762
tp1763
a(I313
I9
F-0.125
S'slow'
p1764
tp1765
a(I313
I9
F-0.75
S'single'
p1766
tp1767
a(I337
I3
F-0.75
S'single'
p1768
tp1769
a(I337
I3
F0.125
S'enough'
p1770
tp1771
a(I354
I9
F-0.75
S'single'
p1772
tp1773
a(I411
I5
F-0.75
S'single'
p1774
tp1775
as(S'design'
p1776
tp1777
(lp1778
(I6
I18
I0
S'great'
p1779
tp1780
a(I6
I18
F0.625
S'industrial'
p1781
tp1782
a(I6
I19
F0.75
S'beautiful'
p1783
tp1784
a(I14
I22
F0.75
S'beautiful'
p1785
tp1786
a(I14
I23
F-0.5
S'international'
p1787
tp1788
a(I85
I40
F1.0
S'best'
p1789
tp1790
a(I121
I14
F1.0
S'best'
p1791
tp1792
a(I135
I0
F0.875
S'nice'
p1793
tp1794
a(I140
I6
F0.125
S'solid'
p1795
tp1796
a(I160
I3
I0
S'great'
p1797
tp1798
a(I194
I0
F0.75
S'beautiful'
p1799
tp1800
a(I214
I2
F-0.5
S'heavy'
p1801
tp1802
a(I226
I3
F0.875
S'nice'
p1803
tp1804
a(I226
I3
F-0.25
S'white'
p1805
tp1806
a(I243
I8
F1.0
S'good'
p1807
tp1808
a(I261
I4
F0.875
S'nice'
p1809
tp1810
a(I278
I3
F0.625
S'perfect'
p1811
tp1812
a(I278
I3
I0
S'great'
p1813
tp1814
a(I313
I6
F-0.375
S'black'
p1815
tp1816
a(I316
I0
F1.0
S'good'
p1817
tp1818
a(I325
I3
I0
S'large'
p1819
tp1820
a(I346
I2
F0.75
S'beautiful'
p1821
tp1822
a(I360
I5
F0.75
S'beautiful'
p1823
tp1824
a(I399
I4
F-0.625
S'bad'
p1825
tp1826
a(I409
I4
F0.5
S'stylish'
p1827
tp1828
a(I445
I0
F0.625
S'industrial'
p1829
tp1830
as(g188
S'long'
p1831
S'time'
p1832
tp1833
(lp1834
(I6
I0
F-0.5
S'long'
p1835
tp1836
a(I6
I0
F0.25
S'professional'
p1837
tp1838
a(I14
I0
F-0.5
S'long'
p1839
tp1840
a(I99
I3
F-0.5
S'long'
p1841
tp1842
a(I115
I2
F-0.5
S'long'
p1843
tp1844
a(I115
I2
I0
S'mobile'
p1845
tp1846
a(I118
I8
F-0.5
S'long'
p1847
tp1848
a(I119
I1
F-0.5
S'long'
p1849
tp1850
a(I119
I1
F-0.5
S'long'
p1851
tp1852
a(I130
I0
F-0.5
S'long'
p1853
tp1854
a(I160
I2
F-0.5
S'long'
p1855
tp1856
a(I160
I4
F-0.5
S'long'
p1857
tp1858
a(I334
I0
F-0.5
S'long'
p1859
tp1860
a(I374
I3
F-0.5
S'long'
p1861
tp1862
a(I393
I0
F-0.5
S'long'
p1863
tp1864
a(I404
I1
F-0.5
S'long'
p1865
tp1866
a(I431
I7
F-0.5
S'long'
p1867
tp1868
as(S'android'
p1869
tp1870
(lp1871
(I6
I3
F0.125
g766
tp1872
a(I14
I0
I0
S'least'
p1873
tp1874
a(I14
I13
F0.625
S'kind'
p1875
tp1876
a(I14
I13
F0.25
S'tired'
p1877
tp1878
a(I14
I13
F-0.75
S'unreliable'
p1879
tp1880
a(I81
I11
I0
S'high'
p1881
tp1882
a(I81
I11
F-0.375
S'top'
p1883
tp1884
a(I185
I1
F-0.5
g784
tp1885
a(I185
I16
F0.125
S'typical'
p1886
tp1887
a(I354
I21
I0
S'same'
p1888
tp1889
a(I354
I21
I0
S'old'
p1890
tp1891
a(I374
I3
I0
g796
tp1892
a(I378
I0
F0.25
S'tired'
p1893
tp1894
a(I431
I6
F0.25
g800
tp1895
as(S'microsoft'
p1896
tp1897
(lp1898
(I6
I22
I0
S'old'
p1899
tp1900
a(I72
I6
F0.5
S'possible'
p1901
tp1902
a(I115
I3
F-0.5
S'sure'
p1903
tp1904
a(I258
I53
F0.125
S'native'
p1905
tp1906
a(I268
I18
F-0.25
g1050
tp1907
a(I280
I6
I0
S'great'
p1908
tp1909
a(I292
I9
I0
g1052
tp1910
a(I292
I9
I0
g1054
tp1911
a(I361
I2
I0
S'least'
p1912
tp1913
a(I416
I1
F-0.625
S'free'
p1914
tp1915
as(S'upgrade'
p1916
tp1917
(lp1918
(I15
I0
F0.375
S'available'
p1919
tp1920
a(I77
I4
F0.75
S'due'
p1921
tp1922
a(I96
I19
F0.375
S'available'
p1923
tp1924
a(I118
I2
F-0.625
S'bad'
p1925
tp1926
a(I118
I3
F1.0
S'better'
p1927
tp1928
a(I149
I29
F0.5
S'eligible'
p1929
tp1930
a(I214
I0
F0.375
S'early'
p1931
tp1932
a(I340
I0
F0.75
S'due'
p1933
tp1934
a(I389
I5
I0
S'discounted'
p1935
tp1936
a(I397
I7
F0.5
S'eligible'
p1937
tp1938
a(I406
I0
F-0.25
S'ready'
p1939
tp1940
a(I406
I0
I0
S'cool'
p1941
tp1942
a(I411
I13
F0.75
S'worth'
p1943
tp1944
a(I424
I3
F0.5
S'eligible'
p1945
tp1946
as(S'thing'
p1947
tp1948
(lp1949
(I6
I1
I0
S'great'
p1950
tp1951
a(I6
I1
F0.125
S'last'
p1952
tp1953
a(I11
I0
F1.0
S'best'
p1954
tp1955
a(I23
I11
F1.0
g1268
tp1956
a(I25
I0
I0
S'most'
p1957
tp1958
a(I34
I3
F0.25
S'biggest'
p1959
tp1960
a(I38
I3
F1.0
g1270
tp1961
a(I75
I13
F-0.75
S'single'
p1962
tp1963
a(I83
I12
I0
S'only'
p1964
tp1965
a(I93
I6
I0
S'only'
p1966
tp1967
a(I104
I3
F1.0
g1272
tp1968
a(I119
I5
F0.125
S'first'
p1969
tp1970
a(I121
I17
F-0.75
S'little'
p1971
tp1972
a(I139
I5
I0
S'only'
p1973
tp1974
a(I143
I14
I0
S'more'
p1975
tp1976
a(I144
I4
F1.0
g1274
tp1977
a(I149
I18
F0.125
S'last'
p1978
tp1979
a(I155
I5
I0
S'more'
p1980
tp1981
a(I161
I3
I0
g1276
tp1982
a(I163
I30
I0
S'next'
p1983
tp1984
a(I163
I30
I0
S'big'
p1985
tp1986
a(I163
I30
F1.0
S'best'
p1987
tp1988
a(I185
I34
F1.0
g1278
tp1989
a(I185
I34
F-0.625
g1280
tp1990
a(I216
I8
F0.625
S'positive'
p1991
tp1992
a(I216
I9
F1.0
S'best'
p1993
tp1994
a(I223
I3
F1.0
g1282
tp1995
a(I223
I4
I0
S'only'
p1996
tp1997
a(I235
I2
I0
S'only'
p1998
tp1999
a(I245
I6
F0.5
S'whole'
p2000
tp2001
a(I249
I2
I0
S'only'
p2002
tp2003
a(I272
I0
F0.75
S'beautiful'
p2004
tp2005
a(I288
I1
F0.125
S'first'
p2006
tp2007
a(I315
I1
F0.125
S'first'
p2008
tp2009
a(I336
I6
I0
S'only'
p2010
tp2011
a(I336
I6
F-0.875
S'negative'
p2012
tp2013
a(I352
I5
I0
S'only'
p2014
tp2015
a(I352
I5
F-0.25
S'white'
p2016
tp2017
a(I352
I6
F0.25
S'main'
p2018
tp2019
a(I365
I23
F1.0
g1284
tp2020
a(I365
I23
I0
g1286
tp2021
a(I374
I5
F-0.625
S'bad'
p2022
tp2023
a(I381
I0
I0
g1288
tp2024
a(I389
I4
I0
S'only'
p2025
tp2026
a(I397
I1
F0.625
S'sexy'
p2027
tp2028
a(I408
I20
I0
g1290
tp2029
a(I422
I7
F-0.625
S'other'
p2030
tp2031
a(I428
I5
I0
S'only'
p2032
tp2033
a(I428
I92
F0.125
S'first'
p2034
tp2035
as(g430
S'hand'
p2036
tp2037
(lp2038
(I6
I59
F0.5
g975
tp2039
a(I123
I1
I0
g434
tp2040
a(I132
I12
F-0.625
g978
tp2041
a(I133
I8
F0.125
g980
tp2042
a(I140
I10
F-0.125
g982
tp2043
a(I151
I4
I0
g436
tp2044
a(I216
I17
F0.25
g438
tp2045
a(I244
I12
I0
g986
tp2046
a(I249
I37
F-0.625
g988
tp2047
a(I268
I6
I0
g440
tp2048
a(I276
I1
F-0.75
g991
tp2049
a(I313
I4
F1.0
g993
tp2050
a(I340
I2
F0.125
g995
tp2051
a(I353
I6
I0
g997
tp2052
a(I367
I0
F-0.625
g442
tp2053
a(I367
I0
I0
g444
tp2054
a(I383
I5
F-0.625
g1001
tp2055
a(I384
I20
F0.625
g1003
tp2056
a(I410
I3
I0
g446
tp2057
a(I418
I1
F0.125
g1006
tp2058
a(I428
I29
F-0.625
g1008
tp2059
a(I431
I7
I0
g448
tp2060
as(S'one-handed'
p2061
S'operation'
p2062
tp2063
(lp2064
(I37
I7
F-0.75
S'difficult'
p2065
tp2066
a(I195
I5
I0
S'large'
p2067
tp2068
as(S'data'
p2069
tp2070
(lp2071
(I101
I4
F1.0
S'better'
p2072
tp2073
a(I112
I2
I0
S'great'
p2074
tp2075
a(I112
I2
I0
S'overseas'
p2076
tp2077
a(I123
I1
I0
S'fast'
p2078
tp2079
a(I125
I4
I0
S'most'
p2080
tp2081
a(I149
I16
I0
S'fast'
p2082
tp2083
a(I153
I2
F-0.375
S'small'
p2084
tp2085
a(I249
I10
I0
S'signal'
p2086
tp2087
a(I279
I3
I0
S'more'
p2088
tp2089
a(I340
I12
I0
S'cool'
p2090
tp2091
a(I371
I2
I0
S'minimal'
p2092
tp2093
a(I447
I29
I0
S'great'
p2094
tp2095
as(g188
S'single'
p2096
S'core'
p2097
tp2098
(lp2099
(I30
I2
F-0.75
g1748
tp2100
a(I33
I8
F-0.75
g1752
tp2101
a(I75
I14
F-0.75
g1754
tp2102
a(I75
I15
F-0.75
S'single'
p2103
tp2104
a(I82
I0
F-0.75
S'single'
p2105
tp2106
a(I143
I2
F-0.75
g1758
tp2107
a(I197
I0
F-0.75
g1760
tp2108
a(I211
I5
F-0.75
g1762
tp2109
a(I313
I9
F-0.125
g1764
tp2110
a(I313
I9
F-0.75
g1766
tp2111
a(I317
I28
F-0.75
S'single'
p2112
tp2113
a(I317
I28
F-0.375
S'smooth'
p2114
tp2115
a(I337
I3
F-0.75
g1768
tp2116
a(I354
I9
F-0.75
g1772
tp2117
a(I385
I7
F-0.75
S'single'
p2118
tp2119
a(I411
I5
F-0.75
g1774
tp2120
as(S'quality'
p2121
tp2122
(lp2123
(I1
I2
I0
g232
tp2124
a(I6
I57
F1.0
g234
tp2125
a(I14
I9
I0
S'high'
p2126
tp2127
a(I25
I4
I0
S'high'
p2128
tp2129
a(I38
I34
I0
g240
tp2130
a(I40
I14
F-0.25
S'higher'
p2131
tp2132
a(I57
I10
F0.375
S'available'
p2133
tp2134
a(I71
I0
F0.625
S'easy'
p2135
tp2136
a(I76
I3
F1.0
S'better'
p2137
tp2138
a(I85
I1
I0
g242
tp2139
a(I91
I12
F1.0
S'best'
p2140
tp2141
a(I102
I1
I0
S'high'
p2142
tp2143
a(I104
I8
I0
S'same'
p2144
tp2145
a(I124
I11
F0.5
S'reasonable'
p2146
tp2147
a(I131
I3
F-0.25
S'low'
p2148
tp2149
a(I164
I16
F1.0
g244
tp2150
a(I168
I2
F0.875
S'nice'
p2151
tp2152
a(I178
I1
F-0.875
g246
tp2153
a(I180
I15
F0.5
S'comparable'
p2154
tp2155
a(I182
I0
I0
S'high'
p2156
tp2157
a(I182
I0
I0
S'stable'
p2158
tp2159
a(I197
I6
F-0.25
S'abundant'
p2160
tp2161
a(I197
I6
I0
S'high'
p2162
tp2163
a(I197
I19
F1.0
S'good'
p2164
tp2165
a(I197
I20
F-0.5
g248
tp2166
a(I211
I12
F1.0
S'good'
p2167
tp2168
a(I238
I2
F0.5
g250
tp2169
a(I252
I2
F0.875
g252
tp2170
a(I259
I3
F1.0
S'good'
p2171
tp2172
a(I261
I4
F-0.375
S'top'
p2173
tp2174
a(I271
I11
F1.0
g254
tp2175
a(I296
I4
F1.0
g256
tp2176
a(I302
I8
F0.875
g258
tp2177
a(I306
I0
I0
S'high'
p2178
tp2179
a(I313
I5
I0
S'soft'
p2180
tp2181
a(I328
I7
I0
g260
tp2182
a(I330
I0
I0
S'great'
p2183
tp2184
a(I334
I6
I0
S'more'
p2185
tp2186
a(I340
I21
F-0.5
S'poor'
p2187
tp2188
a(I340
I21
I0
S'same'
p2189
tp2190
a(I354
I11
I0
g262
tp2191
a(I358
I1
F-0.25
S'past'
p2192
tp2193
a(I364
I0
I0
S'high'
p2194
tp2195
a(I364
I0
F0.625
S'polish'
p2196
tp2197
a(I365
I26
I0
S'great'
p2198
tp2199
a(I366
I6
F0.75
S'beautiful'
p2200
tp2201
a(I383
I2
I0
g268
tp2202
a(I386
I1
I0
S'real'
p2203
tp2204
a(I391
I2
I0
S'great'
p2205
tp2206
a(I391
I2
I0
S'great'
p2207
tp2208
a(I394
I7
I0
S'high'
p2209
tp2210
a(I401
I16
F-0.5
S'insane'
p2211
tp2212
a(I406
I4
F0.375
S'much'
p2213
tp2214
a(I408
I11
F1.0
S'good'
p2215
tp2216
a(I410
I4
F-0.625
S'light'
p2217
tp2218
a(I413
I2
F0.625
g276
tp2219
a(I414
I1
I0
S'great'
p2220
tp2221
a(I426
I3
F0.875
S'happy'
p2222
tp2223
a(I428
I7
F1.0
S'best'
p2224
tp2225
a(I428
I7
F1.0
S'best'
p2226
tp2227
a(I428
I7
I0
S'high'
p2228
tp2229
a(I428
I36
F1.0
g278
tp2230
a(I436
I9
I0
S'high'
p2231
tp2232
as(S'sure'
p2233
tp2234
(lp2235
(I423
I7
I0
S'more'
p2236
tp2237
as(S'make'
p2238
tp2239
(lp2240
(I354
I19
I0
S'plastic'
p2241
tp2242
a(I354
I19
F0.125
S'solid'
p2243
tp2244
as(S'work'
p2245
tp2246
(lp2247
(I31
I39
F1.0
S'good'
p2248
tp2249
a(I101
I0
I0
S'old'
p2250
tp2251
a(I149
I18
I0
S'entire'
p2252
tp2253
a(I192
I6
F0.875
S'important'
p2254
tp2255
a(I238
I8
I0
S'great'
p2256
tp2257
a(I239
I19
I0
S'most'
p2258
tp2259
a(I245
I13
I0
S'more'
p2260
tp2261
a(I258
I25
F-0.875
S'hard'
p2262
tp2263
a(I293
I0
F-0.625
S'average'
p2264
tp2265
a(I384
I54
I0
S'fast'
p2266
tp2267
a(I384
I54
F0.5
S'live'
p2268
tp2269
a(I384
I54
I0
S'fast'
p2270
tp2271
a(I422
I8
F0.125
S'able'
p2272
tp2273
as(S'facebook'
p2274
tp2275
(lp2276
(I22
I12
F0.125
S'native'
p2277
tp2278
a(I59
I5
I0
g625
tp2279
a(I124
I5
I0
S'same'
p2280
tp2281
a(I339
I3
F0.5
S'live'
p2282
tp2283
a(I339
I3
F-0.75
S'single'
p2284
tp2285
a(I428
I57
F0.5
g629
tp2286
as(S'words'
p2287
S'with'
p2288
S'friends'
p2289
tp2290
(lp2291
(I171
I4
F-0.5
S'miss'
p2292
tp2293
as(S'love'
p2294
tp2295
(lp2296
(I320
I2
I0
S'android'
p2297
tp2298
a(I320
I2
F1.0
S'love'
p2299
tp2300
as(S'battery'
p2301
S'life'
p2302
tp2303
(lp2304
(I6
I6
I0
S'great'
p2305
tp2306
a(I6
I25
F0.5
S'functional'
p2307
tp2308
a(I6
I25
F-0.125
S'slow'
p2309
tp2310
a(I6
I25
F-0.875
S'worst'
p2311
tp2312
a(I6
I44
F1.0
S'best'
p2313
tp2314
a(I6
I44
F0.125
S'further'
p2315
tp2316
a(I6
I58
F0.125
S'enough'
p2317
tp2318
a(I9
I4
I0
S'great'
p2319
tp2320
a(I13
I13
I0
S'great'
p2321
tp2322
a(I16
I4
F1.0
S'good'
p2323
tp2324
a(I16
I4
I0
S'incredible'
p2325
tp2326
a(I25
I6
F1.0
S'good'
p2327
tp2328
a(I47
I2
I0
S'big'
p2329
tp2330
a(I73
I1
F1.0
S'good'
p2331
tp2332
a(I74
I0
I0
S'large'
p2333
tp2334
a(I91
I11
F1.0
S'good'
p2335
tp2336
a(I111
I2
F1.0
S'good'
p2337
tp2338
a(I139
I1
I0
S'great'
p2339
tp2340
a(I158
I2
F1.0
S'good'
p2341
tp2342
a(I163
I19
F1.0
S'good'
p2343
tp2344
a(I164
I18
F1.0
S'good'
p2345
tp2346
a(I193
I1
F-0.25
S'battery'
p2347
tp2348
a(I197
I22
F1.0
S'good'
p2349
tp2350
a(I221
I21
F0.875
S'important'
p2351
tp2352
a(I237
I2
F0.625
S'superior'
p2353
tp2354
a(I249
I15
F0.625
S'acceptable'
p2355
tp2356
a(I252
I5
I0
S'few'
p2357
tp2358
a(I254
I10
F0.625
S'superior'
p2359
tp2360
a(I316
I2
F0.125
S'usual'
p2361
tp2362
a(I320
I1
F0.625
S'easy'
p2363
tp2364
a(I340
I6
I0
S'great'
p2365
tp2366
a(I346
I4
I0
S'great'
p2367
tp2368
a(I354
I13
I0
S'great'
p2369
tp2370
a(I367
I2
F1.0
S'good'
p2371
tp2372
a(I374
I3
F1.0
S'best'
p2373
tp2374
a(I375
I2
F1.0
S'good'
p2375
tp2376
a(I397
I5
I0
S'great'
p2377
tp2378
a(I397
I6
F1.0
S'good'
p2379
tp2380
a(I401
I25
I0
S'adequate'
p2381
tp2382
a(I408
I17
F-0.5
S'long'
p2383
tp2384
a(I408
I17
F-0.875
S'trouble'
p2385
tp2386
a(I408
I17
F-0.625
S'free'
p2387
tp2388
a(I410
I7
I0
S'great'
p2389
tp2390
a(I427
I0
F1.0
S'good'
p2391
tp2392
a(I428
I45
F-0.625
S'other'
p2393
tp2394
a(I428
I45
F-0.625
S'average'
p2395
tp2396
a(I438
I1
I0
S'great'
p2397
tp2398
as(S'back'
p2399
tp2400
(lp2401
(I239
I5
F0.875
S'happy'
p2402
tp2403
a(I428
I76
F0.625
S'hold'
p2404
tp2405
as(S'carl'
p2406
S'zeiss'
p2407
tp2408
(lp2409
(I287
I3
I0
S'great'
p2410
tp2411
as(S'life'
p2412
tp2413
(lp2414
(I6
I1
F0.25
S'fiddle'
p2415
tp2416
a(I6
I44
F0.125
g2315
tp2417
a(I6
I73
F-0.375
S'daily'
p2418
tp2419
a(I9
I4
I0
g2319
tp2420
a(I16
I4
I0
g2325
tp2421
a(I25
I6
F1.0
g2327
tp2422
a(I40
I8
F0.625
S'easier'
p2423
tp2424
a(I73
I1
F1.0
g2331
tp2425
a(I91
I11
F1.0
g2335
tp2426
a(I94
I1
F0.625
S'easier'
p2427
tp2428
a(I126
I1
F0.625
S'easier'
p2429
tp2430
a(I158
I2
F1.0
g2341
tp2431
a(I163
I6
F0.125
S'digital'
p2432
tp2433
a(I163
I19
F1.0
g2343
tp2434
a(I164
I18
F1.0
g2345
tp2435
a(I193
I1
F-0.25
g2347
tp2436
a(I197
I22
F1.0
g2349
tp2437
a(I221
I21
F0.875
g2351
tp2438
a(I249
I15
F0.625
g2355
tp2439
a(I252
I5
I0
g2357
tp2440
a(I254
I10
F0.625
g2359
tp2441
a(I316
I2
F0.125
g2361
tp2442
a(I320
I2
F0.625
S'easier'
p2443
tp2444
a(I346
I4
I0
g2367
tp2445
a(I354
I13
I0
g2369
tp2446
a(I397
I5
I0
g2377
tp2447
a(I397
I6
F1.0
g2379
tp2448
a(I401
I13
F0.625
S'easier'
p2449
tp2450
a(I401
I25
I0
g2381
tp2451
a(I408
I17
F-0.5
g2383
tp2452
a(I408
I17
F-0.875
g2385
tp2453
a(I408
I17
F-0.625
g2387
tp2454
a(I427
I0
F1.0
g2391
tp2455
a(I428
I45
F-0.625
g2393
tp2456
a(I428
I45
F-0.625
g2395
tp2457
a(I438
I1
I0
g2397
tp2458
as(S'number'
p2459
S'of'
p2460
S'apps'
p2461
tp2462
(lp2463
(I195
I3
I0
S'large'
p2464
tp2465
a(I245
I8
F0.25
S'related'
p2466
tp2467
a(I245
I8
F-0.75
S'single'
p2468
tp2469
a(I245
I8
F-0.375
S'tile'
p2470
tp2471
a(I294
I18
I0
S'useful'
p2472
tp2473
as(S'smooth'
p2474
tp2475
(lp2476
(I7
I10
I0
S'buttery'
p2477
tp2478
a(I51
I6
I0
S'rich'
p2479
tp2480
as(S'music'
p2481
tp2482
(lp2483
(I90
I6
F0.125
S'library'
p2484
tp2485
a(I245
I3
I0
S'own'
p2486
tp2487
a(I245
I8
I0
S'specific'
p2488
tp2489
a(I258
I58
F-0.5
S'certain'
p2490
tp2491
a(I258
I58
F0.125
S'popular'
p2492
tp2493
a(I262
I1
F-0.5
S'unlimited'
p2494
tp2495
a(I377
I5
F1.0
S'best'
p2496
tp2497
a(I408
I13
F-0.25
S'google'
p2498
tp2499
a(I428
I80
I0
S'great'
p2500
tp2501
a(I437
I13
F0.75
S'beautiful'
p2502
tp2503
as(S'user'
p2504
tp2505
(lp2506
(I6
I65
F1.0
S'good'
p2507
tp2508
a(I7
I6
I0
S'great'
p2509
tp2510
a(I14
I16
F1.0
S'better'
p2511
tp2512
a(I31
I28
F0.125
S'enough'
p2513
tp2514
a(I35
I8
F0.375
S'much'
p2515
tp2516
a(I129
I0
F0.75
S'beautiful'
p2517
tp2518
a(I185
I9
I0
S'more'
p2519
tp2520
a(I185
I9
F-0.125
S'complex'
p2521
tp2522
a(I185
I9
F-0.625
S'average'
p2523
tp2524
a(I249
I43
F0.5
S'advanced'
p2525
tp2526
a(I253
I10
F0.5
S'whole'
p2527
tp2528
a(I308
I3
I0
S'great'
p2529
tp2530
a(I340
I16
F0.75
S'due'
p2531
tp2532
a(I385
I8
F-0.625
S'moderate'
p2533
tp2534
a(I386
I9
F0.5
S'whole'
p2535
tp2536
a(I388
I3
F-0.5
S'heavy'
p2537
tp2538
a(I401
I25
F-0.5
S'heavy'
p2539
tp2540
as(S'feel'
p2541
tp2542
(lp2543
(I14
I98
F0.25
g506
tp2544
a(I38
I2
I0
S'great'
p2545
tp2546
a(I157
I17
F-0.125
S'overall'
p2547
tp2548
a(I249
I23
I0
g518
tp2549
a(I373
I0
I0
S'great'
p2550
tp2551
a(I397
I2
I0
S'sturdy'
p2552
tp2553
a(I428
I9
F-0.375
g520
tp2554
a(I428
I42
F0.125
S'solid'
p2555
tp2556
a(I428
I42
F-0.5
S'flimsy'
p2557
tp2558
as(g188
S'100'
p2559
S'credit'
p2560
tp2561
(lp2562
(I132
I13
I0
S'more'
p2563
tp2564
a(I132
I13
F-0.625
S'free'
p2565
tp2566
as(S'awesome'
p2567
tp2568
(lp2569
(I379
I0
F0.125
S'first'
p2570
tp2571
a(I418
I1
F0.5
S'loyal'
p2572
tp2573
a(I442
I6
F0.375
S'early'
p2574
tp2575
as(S'looking'
p2576
tp2577
(lp2578
(I6
I64
F1.0
S'good'
p2579
tp2580
a(I14
I13
F0.75
S'beautiful'
p2581
tp2582
a(I25
I8
F-0.125
S'overall'
p2583
tp2584
a(I25
I8
I0
S'great'
p2585
tp2586
a(I49
I0
F1.0
g1297
tp2587
a(I49
I0
F-0.125
g1299
tp2588
a(I51
I8
F1.0
S'good'
p2589
tp2590
a(I85
I42
F1.0
g1301
tp2591
a(I102
I1
F0.875
g1303
tp2592
a(I164
I14
F1.0
S'good'
p2593
tp2594
a(I182
I0
F0.625
S'easy'
p2595
tp2596
a(I182
I0
F0.875
S'nice'
p2597
tp2598
a(I311
I4
F0.875
S'nice'
p2599
tp2600
a(I317
I10
I0
S'great'
p2601
tp2602
a(I317
I10
F0.125
S'solid'
p2603
tp2604
a(I317
I12
F-0.625
S'fresh'
p2605
tp2606
a(I320
I3
F1.0
S'good'
p2607
tp2608
as(S'lack'
p2609
S'of'
p2610
S'apps'
p2611
tp2612
(lp2613
(I14
I72
I0
S'great'
p2614
tp2615
a(I57
I12
F0.375
S'much'
p2616
tp2617
a(I191
I1
I0
S'more'
p2618
tp2619
a(I191
I1
F0.375
S'available'
p2620
tp2621
a(I191
I1
F0.625
S'major'
p2622
tp2623
a(I195
I15
F-0.625
S'other'
p2624
tp2625
a(I251
I1
I0
S'many'
p2626
tp2627
a(I251
I1
I0
S'same'
p2628
tp2629
a(I268
I13
F-0.5
S'complaint'
p2630
tp2631
a(I268
I13
I0
S'more'
p2632
tp2633
a(I270
I0
F1.0
S'better'
p2634
tp2635
a(I270
I0
I0
S'least'
p2636
tp2637
a(I270
I0
F-0.625
S'bad'
p2638
tp2639
a(I337
I7
F0.125
S'popular'
p2640
tp2641
a(I361
I1
F-0.25
S'google'
p2642
tp2643
a(I403
I1
F0.625
S'major'
p2644
tp2645
as(S'contacts'
p2646
tp2647
(lp2648
(I8
I1
F-0.25
S'google'
p2649
tp2650
a(I64
I18
F-0.125
S'super'
p2651
tp2652
a(I64
I18
F0.625
S'easy'
p2653
tp2654
a(I100
I9
I0
S'few'
p2655
tp2656
a(I163
I8
F-0.25
S'google'
p2657
tp2658
a(I163
I8
F-0.25
S'google'
p2659
tp2660
a(I195
I19
F0.25
S'recent'
p2661
tp2662
as(S'live'
p2663
tp2664
(lp2665
(I384
I43
F0.5
S'personal'
p2666
tp2667
as(S'update'
p2668
tp2669
(lp2670
(I122
I21
F-0.5
S'sure'
p2671
tp2672
a(I122
I22
I0
S'update'
p2673
tp2674
a(I130
I7
I0
S'next'
p2675
tp2676
a(I132
I11
F-0.5
S'sure'
p2677
tp2678
a(I137
I4
I0
S'most'
p2679
tp2680
a(I149
I28
F0.125
S'last'
p2681
tp2682
a(I157
I11
I0
S'latest'
p2683
tp2684
a(I215
I8
F0.375
S'new'
p2685
tp2686
a(I251
I4
F0.375
S'new'
p2687
tp2688
a(I251
I5
I0
S'next'
p2689
tp2690
a(I252
I5
I0
S'quick'
p2691
tp2692
a(I292
I4
F-0.125
S'future'
p2693
tp2694
a(I292
I5
F0.75
S'receive'
p2695
tp2696
a(I292
I5
F-0.625
S'free'
p2697
tp2698
a(I292
I9
F0.125
S'last'
p2699
tp2700
as(S'nokia'
p2701
S'drive'
p2702
tp2703
(lp2704
(I1
I10
F0.5
g805
tp2705
a(I13
I14
F0.5
g811
tp2706
a(I31
I11
F0.5
g819
tp2707
a(I50
I0
F1.0
g825
tp2708
a(I70
I19
F0.5
g827
tp2709
a(I70
I19
I0
g829
tp2710
a(I83
I12
F0.5
g596
tp2711
a(I151
I8
I0
g856
tp2712
a(I151
I8
F0.75
g858
tp2713
a(I159
I9
F0.375
g862
tp2714
a(I159
I11
F0.5
g864
tp2715
a(I163
I14
F0.5
g866
tp2716
a(I164
I13
F0.5
g870
tp2717
a(I210
I6
F-0.625
g878
tp2718
a(I210
I6
F0.5
g880
tp2719
a(I216
I12
F0.5
g598
tp2720
a(I228
I19
F0.5
g883
tp2721
a(I244
I9
F0.5
g888
tp2722
a(I269
I9
I0
g905
tp2723
a(I294
I13
F0.5
g921
tp2724
a(I330
I5
I0
S'great'
p2725
tp2726
a(I346
I4
F0.5
g933
tp2727
a(I349
I6
F0.5
g937
tp2728
a(I352
I12
F0.5
g939
tp2729
a(I360
I4
F0.5
g941
tp2730
as(S'time'
p2731
tp2732
(lp2733
(I6
I0
F-0.5
g1835
tp2734
a(I6
I0
F0.25
g1837
tp2735
a(I13
I5
F0.125
S'first'
p2736
tp2737
a(I14
I0
F-0.5
g1839
tp2738
a(I17
I2
F0.125
S'first'
p2739
tp2740
a(I70
I27
I0
S'more'
p2741
tp2742
a(I76
I1
F0.125
S'last'
p2743
tp2744
a(I81
I5
F0.125
S'informative'
p2745
tp2746
a(I81
I5
I0
S'same'
p2747
tp2748
a(I99
I3
F-0.5
g1841
tp2749
a(I100
I8
F0.125
S'last'
p2750
tp2751
a(I114
I3
I0
S'technician'
p2752
tp2753
a(I114
I3
F0.375
S'new'
p2754
tp2755
a(I115
I2
F-0.5
g1843
tp2756
a(I115
I2
I0
g1845
tp2757
a(I118
I8
F-0.5
g1847
tp2758
a(I119
I1
F-0.5
g1849
tp2759
a(I119
I1
F-0.5
g1851
tp2760
a(I127
I0
F0.125
S'first'
p2761
tp2762
a(I130
I0
F-0.5
g1853
tp2763
a(I134
I3
F0.125
S'last'
p2764
tp2765
a(I151
I9
F-0.5
S'sure'
p2766
tp2767
a(I160
I2
F-0.5
g1855
tp2768
a(I160
I4
F-0.5
g1857
tp2769
a(I164
I6
F0.125
S'first'
p2770
tp2771
a(I164
I6
F0.125
S'able'
p2772
tp2773
a(I164
I26
I0
S'same'
p2774
tp2775
a(I171
I1
F0.5
S'second'
p2776
tp2777
a(I190
I2
F-0.5
S'complaint'
p2778
tp2779
a(I197
I6
I0
S'close'
p2780
tp2781
a(I197
I13
F0.125
S'visible'
p2782
tp2783
a(I197
I13
I0
S'most'
p2784
tp2785
a(I216
I19
F-0.875
S'hard'
p2786
tp2787
a(I238
I6
F0.25
S'favorite'
p2788
tp2789
a(I245
I1
I0
S'more'
p2790
tp2791
a(I245
I1
I0
S'high'
p2792
tp2793
a(I245
I17
F0.125
S'entertaining'
p2794
tp2795
a(I245
I19
F0.625
S'necessary'
p2796
tp2797
a(I245
I19
I0
S'different'
p2798
tp2799
a(I249
I27
I0
S'same'
p2800
tp2801
a(I249
I36
F0.375
S'much'
p2802
tp2803
a(I252
I15
F-0.875
S'hard'
p2804
tp2805
a(I258
I51
F0.125
S'first'
p2806
tp2807
a(I259
I1
F0.125
S'last'
p2808
tp2809
a(I268
I27
I0
S'more'
p2810
tp2811
a(I282
I21
I0
S'same'
p2812
tp2813
a(I282
I32
F0.125
S'last'
p2814
tp2815
a(I334
I0
F-0.5
g1859
tp2816
a(I352
I7
F0.125
S'first'
p2817
tp2818
a(I356
I6
I0
S'real'
p2819
tp2820
a(I361
I4
F0.25
S'read'
p2821
tp2822
a(I361
I4
I0
S'many'
p2823
tp2824
a(I363
I1
F0.125
S'first'
p2825
tp2826
a(I374
I3
F-0.5
g1861
tp2827
a(I384
I0
F-0.875
S'hard'
p2828
tp2829
a(I393
I0
F-0.5
g1863
tp2830
a(I404
I1
F-0.5
g1865
tp2831
a(I416
I1
I0
S'great'
p2832
tp2833
a(I416
I1
F0.375
S'much'
p2834
tp2835
a(I418
I1
F0.125
S'first'
p2836
tp2837
a(I419
I5
F0.125
S'first'
p2838
tp2839
a(I421
I12
F0.125
S'last'
p2840
tp2841
a(I427
I8
F-0.5
S'less'
p2842
tp2843
a(I431
I2
F0.375
S'steep'
p2844
tp2845
a(I431
I7
F-0.5
g1867
tp2846
a(I434
I0
F1.0
S'better'
p2847
tp2848
a(I439
I1
F0.125
S'able'
p2849
tp2850
a(I439
I10
F0.75
S'due'
p2851
tp2852
as(S'creative'
p2853
S'studio'
p2854
tp2855
(lp2856
(I216
I14
I0
S'creative'
p2857
tp2858
a(I349
I6
I0
S'creative'
p2859
tp2860
a(I397
I5
I0
S'creative'
p2861
tp2862
as(S'4g'
p2863
S'lte'
p2864
tp2865
(lp2866
(I74
I0
I0
S'fast'
p2867
tp2868
a(I74
I0
I0
S'real'
p2869
tp2870
a(I139
I3
F0.375
S'enable'
p2871
tp2872
a(I149
I13
F0.125
S'first'
p2873
tp2874
a(I258
I32
F0.875
S'nice'
p2875
tp2876
a(I368
I4
I0
S'faster'
p2877
tp2878
a(I445
I1
I0
S'slower'
p2879
tp2880
as(S'looks'
p2881
tp2882
(lp2883
(I1
I2
I0
S'great'
p2884
tp2885
a(I1
I6
I0
S'great'
p2886
tp2887
a(I17
I8
F-0.375
S'black'
p2888
tp2889
a(I17
I14
I0
S'great'
p2890
tp2891
a(I25
I4
F0.5
S'clear'
p2892
tp2893
a(I25
I4
F-0.625
S'clean'
p2894
tp2895
a(I34
I1
I0
S'great'
p2896
tp2897
a(I34
I1
I0
S'incredible'
p2898
tp2899
a(I49
I2
F1.0
S'good'
p2900
tp2901
a(I53
I5
F0.25
S'professional'
p2902
tp2903
a(I61
I1
F0.125
S'solid'
p2904
tp2905
a(I61
I1
F1.0
S'good'
p2906
tp2907
a(I105
I2
F0.625
S'easy'
p2908
tp2909
a(I132
I6
I0
S'great'
p2910
tp2911
a(I163
I21
F-0.625
S'bad'
p2912
tp2913
a(I164
I10
F0.75
S'beautiful'
p2914
tp2915
a(I197
I3
F1.0
S'good'
p2916
tp2917
a(I197
I13
F0.25
S'sharper'
p2918
tp2919
a(I205
I3
F1.0
S'good'
p2920
tp2921
a(I206
I0
F1.0
S'best'
p2922
tp2923
a(I226
I10
F0.875
S'nice'
p2924
tp2925
a(I226
I10
F0.625
S'easy'
p2926
tp2927
a(I242
I0
F1.0
S'good'
p2928
tp2929
a(I242
I0
I0
S'great'
p2930
tp2931
a(I322
I2
I0
S'fast'
p2932
tp2933
a(I370
I2
F1.0
S'good'
p2934
tp2935
a(I394
I0
F0.75
S'beautiful'
p2936
tp2937
a(I412
I2
F-0.5
S'heavy'
p2938
tp2939
a(I434
I2
I0
S'great'
p2940
tp2941
as(S'microsoft'
p2942
S'and'
p2943
S'nokia'
p2944
tp2945
(lp2946
(I236
I7
F-0.5
g602
tp2947
a(I268
I18
F-0.625
g903
tp2948
a(I268
I18
F-0.25
g1050
tp2949
a(I292
I9
I0
g1052
tp2950
a(I292
I9
I0
g1054
tp2951
as(S'screen'
p2952
tp2953
(lp2954
(I0
I2
F0.25
S'bigger'
p2955
tp2956
a(I1
I2
F0.375
S'reflective'
p2957
tp2958
a(I12
I4
F-0.75
S'bright'
p2959
tp2960
a(I13
I12
F-0.75
S'bright'
p2961
tp2962
a(I13
I12
F-0.375
S'smooth'
p2963
tp2964
a(I13
I12
F0.25
S'responsive'
p2965
tp2966
a(I14
I13
I0
S'same'
p2967
tp2968
a(I14
I32
F1.0
S'best'
p2969
tp2970
a(I14
I84
F0.625
S'kind'
p2971
tp2972
a(I14
I84
F-0.5
S'shocked'
p2973
tp2974
a(I14
I84
F0.375
S'much'
p2975
tp2976
a(I14
I84
I0
S'more'
p2977
tp2978
a(I14
I84
F0.75
S'beautiful'
p2979
tp2980
a(I15
I1
F-0.375
S'smaller'
p2981
tp2982
a(I17
I10
F-0.5
S'complaint'
p2983
tp2984
a(I23
I14
I0
S'incredible'
p2985
tp2986
a(I23
I14
F1.0
S'best'
p2987
tp2988
a(I37
I4
F-0.875
S'awful'
p2989
tp2990
a(I37
I7
I0
S'slower'
p2991
tp2992
a(I37
I7
F-0.5
S'less'
p2993
tp2994
a(I38
I5
F0.875
S'nice'
p2995
tp2996
a(I38
I9
F0.625
S'easy'
p2997
tp2998
a(I38
I45
F0.25
S'larger'
p2999
tp3000
a(I38
I45
F0.25
S'larger'
p3001
tp3002
a(I42
I18
F0.25
S'larger'
p3003
tp3004
a(I51
I15
I0
S'next'
p3005
tp3006
a(I59
I2
I0
S'big'
p3007
tp3008
a(I64
I4
I0
S'great'
p3009
tp3010
a(I67
I1
F-0.375
S'black'
p3011
tp3012
a(I77
I2
F0.25
S'responsive'
p3013
tp3014
a(I87
I8
F-0.75
S'bright'
p3015
tp3016
a(I87
I9
I0
S'large'
p3017
tp3018
a(I98
I0
F0.25
S'bigger'
p3019
tp3020
a(I98
I0
F0.5
S'live'
p3021
tp3022
a(I130
I5
F0.75
S'beautiful'
p3023
tp3024
a(I130
I5
F0.625
S'easy'
p3025
tp3026
a(I131
I4
F0.5
S'odd'
p3027
tp3028
a(I135
I0
F0.25
S'larger'
p3029
tp3030
a(I140
I6
F-0.75
S'bright'
p3031
tp3032
a(I141
I0
F0.75
S'beautiful'
p3033
tp3034
a(I141
I0
I0
S'large'
p3035
tp3036
a(I149
I3
F-0.75
S'difficult'
p3037
tp3038
a(I149
I4
I0
S'wish'
p3039
tp3040
a(I149
I10
F1.0
S'best'
p3041
tp3042
a(I162
I6
F0.875
S'nice'
p3043
tp3044
a(I162
I6
I0
S'big'
p3045
tp3046
a(I162
I6
F0.625
S'easy'
p3047
tp3048
a(I176
I3
I0
S'big'
p3049
tp3050
a(I176
I3
F0.5
S'clear'
p3051
tp3052
a(I178
I4
I0
S'entire'
p3053
tp3054
a(I178
I9
I0
S'blue'
p3055
tp3056
a(I184
I10
F0.25
S'larger'
p3057
tp3058
a(I184
I10
I0
S'more'
p3059
tp3060
a(I185
I2
I0
S'great'
p3061
tp3062
a(I185
I3
I0
S'great'
p3063
tp3064
a(I187
I8
F0.75
S'beautiful'
p3065
tp3066
a(I195
I10
F-0.375
S'small'
p3067
tp3068
a(I197
I23
F-0.25
S'higher'
p3069
tp3070
a(I201
I1
F-0.375
S'black'
p3071
tp3072
a(I201
I1
F-0.75
S'dark'
p3073
tp3074
a(I204
I3
F0.75
S'beautiful'
p3075
tp3076
a(I206
I5
F0.5
S'live'
p3077
tp3078
a(I206
I5
F0.25
S'main'
p3079
tp3080
a(I211
I17
F-0.75
S'tough'
p3081
tp3082
a(I214
I3
I0
S'great'
p3083
tp3084
a(I216
I0
F0.75
S'beautiful'
p3085
tp3086
a(I216
I0
F0.625
S'easy'
p3087
tp3088
a(I217
I1
F1.0
S'good'
p3089
tp3090
a(I224
I8
F0.5
S'clear'
p3091
tp3092
a(I225
I1
I0
S'fluid'
p3093
tp3094
a(I225
I1
F0.75
S'beautiful'
p3095
tp3096
a(I226
I12
F0.25
S'larger'
p3097
tp3098
a(I226
I12
F0.875
S'nice'
p3099
tp3100
a(I228
I4
F0.25
S'sharp'
p3101
tp3102
a(I245
I2
I0
S'big'
p3103
tp3104
a(I249
I18
F-0.75
S'bright'
p3105
tp3106
a(I252
I2
F0.5
S'clear'
p3107
tp3108
a(I265
I0
I0
S'big'
p3109
tp3110
a(I267
I1
F-0.75
S'bright'
p3111
tp3112
a(I267
I1
F0.5
S'clear'
p3113
tp3114
a(I288
I2
F-0.625
S'free'
p3115
tp3116
a(I294
I5
F1.0
S'better'
p3117
tp3118
a(I294
I14
F-0.75
S'bright'
p3119
tp3120
a(I296
I8
F-0.75
S'bright'
p3121
tp3122
a(I300
I4
F-0.375
S'small'
p3123
tp3124
a(I301
I1
I0
S'logged'
p3125
tp3126
a(I309
I0
F-0.5
S'shocked'
p3127
tp3128
a(I309
I0
F0.375
S'much'
p3129
tp3130
a(I309
I0
I0
S'more'
p3131
tp3132
a(I309
I0
F0.75
S'beautiful'
p3133
tp3134
a(I311
I3
F0.875
S'nice'
p3135
tp3136
a(I312
I2
F-0.625
S'bad'
p3137
tp3138
a(I312
I2
I0
S'next'
p3139
tp3140
a(I315
I2
I0
S'more'
p3141
tp3142
a(I327
I3
F1.0
S'better'
p3143
tp3144
a(I330
I1
I0
S'great'
p3145
tp3146
a(I331
I1
I0
S'large'
p3147
tp3148
a(I343
I3
I0
S'great'
p3149
tp3150
a(I344
I0
I0
S'great'
p3151
tp3152
a(I344
I0
I0
S'big'
p3153
tp3154
a(I351
I5
F0.5
S'bold'
p3155
tp3156
a(I353
I1
F0.25
S'bigger'
p3157
tp3158
a(I353
I7
F-0.75
S'bright'
p3159
tp3160
a(I353
I7
F0.25
S'sharp'
p3161
tp3162
a(I354
I1
F-0.375
S'small'
p3163
tp3164
a(I354
I2
F0.875
S'nice'
p3165
tp3166
a(I354
I2
F0.25
S'sharp'
p3167
tp3168
a(I354
I3
F0.25
S'bigger'
p3169
tp3170
a(I355
I0
F0.375
S'indestructible'
p3171
tp3172
a(I359
I2
I0
S'large'
p3173
tp3174
a(I359
I2
F0.625
S'easy'
p3175
tp3176
a(I361
I1
F-0.75
S'bright'
p3177
tp3178
a(I365
I9
F0.625
S'superior'
p3179
tp3180
a(I365
I20
F0.25
S'larger'
p3181
tp3182
a(I365
I24
F0.25
S'bigger'
p3183
tp3184
a(I377
I1
F1.0
S'good'
p3185
tp3186
a(I388
I3
F-0.375
S'black'
p3187
tp3188
a(I391
I5
F0.75
S'beautiful'
p3189
tp3190
a(I401
I7
F-0.625
S'clean'
p3191
tp3192
a(I401
I8
F-0.375
S'small'
p3193
tp3194
a(I404
I8
F-0.375
S'small'
p3195
tp3196
a(I410
I7
F1.0
S'best'
p3197
tp3198
a(I411
I8
F-0.375
S'black'
p3199
tp3200
a(I411
I11
F-0.375
S'black'
p3201
tp3202
a(I412
I3
F0.25
S'bigger'
p3203
tp3204
a(I412
I4
F1.0
S'best'
p3205
tp3206
a(I418
I1
F0.75
S'beautiful'
p3207
tp3208
a(I428
I4
F0.375
S'newer'
p3209
tp3210
a(I428
I14
I0
S'high'
p3211
tp3212
a(I436
I6
I0
S'big'
p3213
tp3214
a(I441
I4
F0.5
S'touch'
p3215
tp3216
a(I441
I5
F0.5
S'touch'
p3217
tp3218
a(I441
I10
F0.875
S'happy'
p3219
tp3220
a(I449
I2
F0.875
S'nice'
p3221
tp3222
as(S'look'
p3223
tp3224
(lp3225
(I13
I13
I0
S'great'
p3226
tp3227
a(I13
I24
I0
S'great'
p3228
tp3229
a(I14
I98
F0.5
g508
tp3230
a(I14
I98
F0.375
g510
tp3231
a(I59
I5
F0.25
g512
tp3232
a(I59
I5
F-0.625
g514
tp3233
a(I110
I4
F0.375
S'new'
p3234
tp3235
a(I120
I0
I0
S'great'
p3236
tp3237
a(I141
I0
F1.0
g516
tp3238
a(I151
I8
F0.75
S'worth'
p3239
tp3240
a(I151
I8
F0.5
S'second'
p3241
tp3242
a(I161
I2
F-0.625
S'clean'
p3243
tp3244
a(I162
I4
I0
S'different'
p3245
tp3246
a(I187
I3
F-0.625
S'bad'
p3247
tp3248
a(I191
I0
I0
S'generic'
p3249
tp3250
a(I441
I4
F1.0
g522
tp3251
as(S'everything'
p3252
tp3253
(lp3254
(I25
I4
F-0.375
S'black'
p3255
tp3256
a(I108
I4
F-0.375
S'smaller'
p3257
tp3258
a(I119
I16
I0
S'quick'
p3259
tp3260
a(I119
I16
I0
S'fluid'
p3261
tp3262
a(I119
I16
F0.875
S'attractive'
p3263
tp3264
a(I119
I16
F0.125
S'solid'
p3265
tp3266
a(I154
I6
F-0.375
S'smooth'
p3267
tp3268
a(I197
I26
F1.0
S'better'
p3269
tp3270
a(I205
I6
F0.125
S'able'
p3271
tp3272
a(I217
I3
I0
S'quick'
p3273
tp3274
a(I238
I3
I0
S'hear'
p3275
tp3276
a(I249
I42
I0
S'fast'
p3277
tp3278
a(I261
I4
F0.625
S'easy'
p3279
tp3280
a(I270
I0
F-0.375
S'black'
p3281
tp3282
a(I294
I11
F0.375
S'new'
p3283
tp3284
a(I313
I8
I0
S'futuristic'
p3285
tp3286
a(I326
I1
F0.75
S'beautiful'
p3287
tp3288
a(I326
I1
F-0.625
S'clean'
p3289
tp3290
a(I326
I1
F-0.375
S'simple'
p3291
tp3292
a(I341
I3
F0.625
S'easier'
p3293
tp3294
a(I349
I3
F-0.375
S'simple'
p3295
tp3296
a(I349
I8
I0
S'most'
p3297
tp3298
a(I349
I9
F0.75
S'beautiful'
p3299
tp3300
a(I419
I5
F0.5
S'obvious'
p3301
tp3302
a(I438
I3
I0
S'most'
p3303
tp3304
as(S'windows'
p3305
S'os'
p3306
tp3307
(lp3308
(I0
I1
F0.125
S'solid'
p3309
tp3310
a(I4
I1
I0
g4
tp3311
a(I4
I1
F0.75
g6
tp3312
a(I4
I1
I0
g8
tp3313
a(I7
I44
F1.0
g16
tp3314
a(I7
I44
F-0.25
g18
tp3315
a(I14
I14
F0.375
g20
tp3316
a(I14
I14
F0.375
S'new'
p3317
tp3318
a(I14
I14
F0.375
S'much'
p3319
tp3320
a(I14
I14
F-0.625
S'other'
p3321
tp3322
a(I14
I14
I0
S'fluid'
p3323
tp3324
a(I14
I14
I0
S'stable'
p3325
tp3326
a(I14
I16
F0.625
g768
tp3327
a(I14
I18
F0.625
g22
tp3328
a(I17
I2
F0.875
S'happy'
p3329
tp3330
a(I17
I17
F0.375
S'new'
p3331
tp3332
a(I38
I10
F0.125
g36
tp3333
a(I42
I4
F0.625
g38
tp3334
a(I42
I4
F0.375
g40
tp3335
a(I62
I1
F0.125
g44
tp3336
a(I78
I1
F0.875
g48
tp3337
a(I85
I8
F0.375
g52
tp3338
a(I105
I0
F1.0
S'best'
p3339
tp3340
a(I106
I0
I0
g776
tp3341
a(I106
I0
F0.25
g778
tp3342
a(I115
I3
I0
g60
tp3343
a(I118
I2
I0
g62
tp3344
a(I118
I3
I0
S'great'
p3345
tp3346
a(I133
I5
F0.125
g70
tp3347
a(I149
I6
I0
g74
tp3348
a(I155
I0
F-0.625
g76
tp3349
a(I185
I5
I0
S'great'
p3350
tp3351
a(I185
I11
F0.375
g82
tp3352
a(I185
I11
F-0.625
S'other'
p3353
tp3354
a(I189
I2
F0.125
g84
tp3355
a(I189
I2
I0
S'great'
p3356
tp3357
a(I189
I10
I0
g86
tp3358
a(I212
I0
F0.375
g92
tp3359
a(I226
I1
F1.0
g96
tp3360
a(I228
I24
I0
g100
tp3361
a(I237
I0
F1.0
g786
tp3362
a(I239
I21
F0.125
g108
tp3363
a(I249
I20
I0
g114
tp3364
a(I249
I41
F0.125
S'solid'
p3365
tp3366
a(I254
I6
F0.125
g116
tp3367
a(I254
I6
F0.25
S'sweet'
p3368
tp3369
a(I269
I22
F-0.5
S'fun'
p3370
tp3371
a(I276
I3
F0.25
g126
tp3372
a(I292
I4
I0
g790
tp3373
a(I293
I3
I0
g132
tp3374
a(I293
I3
F0.375
g134
tp3375
a(I293
I3
F0.375
g136
tp3376
a(I306
I9
F0.375
g142
tp3377
a(I318
I5
F-0.625
g146
tp3378
a(I328
I2
F0.375
g148
tp3379
a(I328
I2
I0
g150
tp3380
a(I342
I3
I0
S'great'
p3381
tp3382
a(I342
I3
F-0.125
g152
tp3383
a(I356
I3
I0
S'old'
p3384
tp3385
a(I369
I2
I0
g156
tp3386
a(I373
I0
F0.125
g158
tp3387
a(I386
I3
I0
g166
tp3388
a(I386
I3
F0.625
S'convenient'
p3389
tp3390
a(I386
I3
F0.5
S'whole'
p3391
tp3392
a(I388
I0
F0.5
g168
tp3393
a(I388
I0
F0.375
g170
tp3394
a(I391
I0
F0.125
g172
tp3395
a(I408
I23
F0.125
S'solid'
p3396
tp3397
a(I418
I1
F-0.625
g798
tp3398
a(I428
I105
F0.375
g182
tp3399
a(I447
I24
I0
g186
tp3400
as(S'samsung'
p3401
tp3402
(lp3403
(I6
I26
F0.125
S'typical'
p3404
tp3405
a(I6
I81
F0.375
g193
tp3406
a(I13
I0
I0
S'old'
p3407
tp3408
a(I101
I0
I0
S'latest'
p3409
tp3410
a(I109
I1
F0.5
g197
tp3411
a(I109
I1
I0
g199
tp3412
a(I109
I1
F0.375
g201
tp3413
a(I109
I6
I0
g203
tp3414
a(I149
I0
F0.25
g205
tp3415
a(I158
I0
F0.375
S'new'
p3416
tp3417
a(I163
I14
I0
S'old'
p3418
tp3419
a(I163
I20
I0
S'old'
p3420
tp3421
a(I179
I0
I0
S'android'
p3422
tp3423
a(I215
I0
I0
S'android'
p3424
tp3425
a(I291
I3
I0
g209
tp3426
a(I292
I7
I0
S'android'
p3427
tp3428
a(I410
I0
F0.25
g213
tp3429
as(S'focus'
p3430
tp3431
(lp3432
(I37
I7
F0.25
S'responsive'
p3433
tp3434
a(I85
I25
F-0.5
g195
tp3435
a(I185
I3
F1.0
g207
tp3436
a(I216
I2
F1.0
S'better'
p3437
tp3438
a(I311
I0
F0.625
g211
tp3439
a(I358
I10
I0
S'old'
p3440
tp3441
as(S'camera'
p3442
tp3443
(lp3444
(I6
I65
I0
S'great'
p3445
tp3446
a(I14
I7
F1.0
S'best'
p3447
tp3448
a(I14
I26
F1.0
S'better'
p3449
tp3450
a(I14
I26
F-0.375
S'manual'
p3451
tp3452
a(I14
I27
F-0.5
S'sure'
p3453
tp3454
a(I14
I49
I0
S'many'
p3455
tp3456
a(I15
I9
I0
S'faster'
p3457
tp3458
a(I17
I10
I0
S'great'
p3459
tp3460
a(I17
I10
F-0.375
S'top'
p3461
tp3462
a(I17
I10
F0.375
S'available'
p3463
tp3464
a(I17
I11
F1.0
S'better'
p3465
tp3466
a(I21
I1
F0.5
S'drive'
p3467
tp3468
a(I21
I1
F-0.625
S'free'
p3469
tp3470
a(I21
I3
I0
S'great'
p3471
tp3472
a(I34
I6
F1.0
S'best'
p3473
tp3474
a(I37
I9
F-0.875
S'inferior'
p3475
tp3476
a(I42
I7
I0
S'great'
p3477
tp3478
a(I49
I2
I0
S'same'
p3479
tp3480
a(I51
I9
F1.0
S'good'
p3481
tp3482
a(I57
I4
F0.125
S'equal'
p3483
tp3484
a(I57
I4
F1.0
S'better'
p3485
tp3486
a(I74
I1
F0.125
S'key'
p3487
tp3488
a(I81
I18
F1.0
S'good'
p3489
tp3490
a(I81
I19
F1.0
S'good'
p3491
tp3492
a(I96
I3
F1.0
S'good'
p3493
tp3494
a(I104
I8
F1.0
S'good'
p3495
tp3496
a(I119
I8
F0.25
S'main'
p3497
tp3498
a(I121
I0
F0.125
S'solid'
p3499
tp3500
a(I121
I1
I0
S'different'
p3501
tp3502
a(I124
I11
F1.0
S'good'
p3503
tp3504
a(I157
I15
F1.0
S'best'
p3505
tp3506
a(I161
I3
F1.0
S'good'
p3507
tp3508
a(I162
I7
I0
S'quick'
p3509
tp3510
a(I168
I2
I0
S'curious'
p3511
tp3512
a(I180
I14
I0
S'great'
p3513
tp3514
a(I189
I8
I0
S'more'
p3515
tp3516
a(I211
I14
F-0.5
S'actual'
p3517
tp3518
a(I225
I3
I0
S'cool'
p3519
tp3520
a(I228
I28
I0
S'great'
p3521
tp3522
a(I252
I3
F0.125
S'dedicated'
p3523
tp3524
a(I262
I1
I0
S'great'
p3525
tp3526
a(I262
I1
I0
S'real'
p3527
tp3528
a(I265
I1
F-0.375
S'top'
p3529
tp3530
a(I269
I12
F1.0
S'good'
p3531
tp3532
a(I269
I12
I0
S'ample'
p3533
tp3534
a(I269
I12
F-0.625
S'light'
p3535
tp3536
a(I276
I2
F-0.125
S'accidental'
p3537
tp3538
a(I288
I6
F0.5
S'obvious'
p3539
tp3540
a(I293
I2
F1.0
S'good'
p3541
tp3542
a(I294
I16
I0
S'great'
p3543
tp3544
a(I340
I15
I0
S'great'
p3545
tp3546
a(I343
I5
F1.0
g1413
tp3547
a(I343
I5
F1.0
g1415
tp3548
a(I367
I1
I0
S'great'
p3549
tp3550
a(I376
I2
F-0.25
S'low'
p3551
tp3552
a(I391
I5
I0
S'great'
p3553
tp3554
a(I401
I32
I0
S'active'
p3555
tp3556
a(I416
I1
I0
S'great'
p3557
tp3558
a(I427
I5
F0.125
S'able'
p3559
tp3560
a(I427
I5
F0.5
S'touch'
p3561
tp3562
a(I428
I33
I0
S'great'
p3563
tp3564
a(I428
I34
F0.25
S'main'
p3565
tp3566
a(I428
I43
F0.25
S'main'
p3567
tp3568
a(I431
I5
F-0.625
S'other'
p3569
tp3570
a(I434
I4
F-0.125
S'overall'
p3571
tp3572
a(I445
I1
F1.0
S'good'
p3573
tp3574
as(S'using'
p3575
tp3576
(lp3577
(I346
I5
F-0.5
S'heavy'
p3578
tp3579
as(S'tech'
p3580
S'geek'
p3581
tp3582
(lp3583
(I97
I16
I0
S'tech'
p3584
tp3585
as(S'mobile'
p3586
tp3587
(lp3588
(I4
I2
I0
S'great'
p3589
tp3590
a(I56
I9
I0
S'phenomenal'
p3591
tp3592
a(I105
I0
I0
S'great'
p3593
tp3594
a(I105
I1
I0
S'entire'
p3595
tp3596
a(I236
I2
F0.25
S'powerful'
p3597
tp3598
a(I249
I36
F0.5
S'primary'
p3599
tp3600
a(I258
I54
I0
S'incredible'
p3601
tp3602
a(I318
I7
F0.625
S'major'
p3603
tp3604
a(I436
I12
F0.25
S'familiar'
p3605
tp3606
a(I436
I12
I0
S'different'
p3607
tp3608
as(g430
S'one'
p3609
S'place'
p3610
tp3611
(lp3612
(I187
I4
F-0.625
S'other'
p3613
tp3614
a(I211
I11
I0
S'integrated'
p3615
tp3616
as(S'pictures'
p3617
tp3618
(lp3619
(I14
I49
F0.125
S'profile'
p3620
tp3621
a(I34
I5
I0
S'great'
p3622
tp3623
a(I56
I14
F1.0
S'good'
p3624
tp3625
a(I75
I24
F-0.625
S'light'
p3626
tp3627
a(I75
I26
I0
S'great'
p3628
tp3629
a(I93
I5
F0.625
S'easy'
p3630
tp3631
a(I93
I5
I0
S'apple'
p3632
tp3633
a(I104
I9
F0.125
S'solid'
p3634
tp3635
a(I119
I11
F-0.75
S'forget'
p3636
tp3637
a(I119
I14
F-0.625
S'clean'
p3638
tp3639
a(I119
I14
I0
S'detailed'
p3640
tp3641
a(I162
I4
I0
S'next'
p3642
tp3643
a(I173
I1
F0.125
S'profile'
p3644
tp3645
a(I206
I5
F0.875
S'nice'
p3646
tp3647
a(I206
I5
F0.25
S'favorite'
p3648
tp3649
a(I239
I18
F-0.125
S'super'
p3650
tp3651
a(I242
I5
F-0.625
S'average'
p3652
tp3653
a(I245
I8
F0.875
S'music'
p3654
tp3655
a(I288
I8
F0.875
S'nice'
p3656
tp3657
a(I291
I3
F0.625
S'easy'
p3658
tp3659
a(I291
I8
I0
S'download'
p3660
tp3661
a(I346
I4
I0
S'great'
p3662
tp3663
a(I354
I14
I0
S'great'
p3664
tp3665
a(I365
I13
F0.25
S'sharper'
p3666
tp3667
a(I365
I13
F0.875
S'important'
p3668
tp3669
a(I366
I5
F-0.625
S'other'
p3670
tp3671
a(I390
I5
I0
S'anymore'
p3672
tp3673
a(I397
I5
I0
S'great'
p3674
tp3675
a(I410
I9
I0
S'great'
p3676
tp3677
a(I428
I24
I0
S'great'
p3678
tp3679
a(I428
I24
F-0.25
S'low'
p3680
tp3681
a(I428
I24
F-0.625
S'light'
p3682
tp3683
a(I428
I30
F1.0
S'better'
p3684
tp3685
a(I433
I3
F0.875
S'music'
p3686
tp3687
as(S'windows'
p3688
S'live'
p3689
tp3690
(lp3691
(I14
I57
F0.5
g24
tp3692
a(I23
I17
I0
g30
tp3693
a(I35
I5
F0.375
g34
tp3694
a(I72
I3
I0
g46
tp3695
a(I185
I11
F0.375
g82
tp3696
a(I305
I15
I0
g140
tp3697
as(S'people'
p3698
tp3699
(lp3700
(I6
I0
I0
S'most'
p3701
tp3702
a(I6
I11
I0
S'many'
p3703
tp3704
a(I6
I18
I0
S'many'
p3705
tp3706
a(I6
I68
I0
S'most'
p3707
tp3708
a(I14
I51
F-0.625
S'other'
p3709
tp3710
a(I14
I61
I0
S'many'
p3711
tp3712
a(I14
I95
I0
S'many'
p3713
tp3714
a(I70
I16
I0
S'many'
p3715
tp3716
a(I85
I8
F-0.625
S'other'
p3717
tp3718
a(I85
I20
I0
S'harsh'
p3719
tp3720
a(I85
I20
I0
S'mechanical'
p3721
tp3722
a(I97
I6
F-0.625
S'other'
p3723
tp3724
a(I121
I8
I0
S'most'
p3725
tp3726
a(I122
I14
I0
S'many'
p3727
tp3728
a(I133
I5
I0
S'most'
p3729
tp3730
a(I180
I23
F-0.625
S'other'
p3731
tp3732
a(I185
I0
I0
S'most'
p3733
tp3734
a(I185
I26
I0
S'many'
p3735
tp3736
a(I210
I4
I0
S'common'
p3737
tp3738
a(I221
I5
I0
S'most'
p3739
tp3740
a(I235
I3
I0
S'few'
p3741
tp3742
a(I249
I42
I0
S'most'
p3743
tp3744
a(I278
I1
F-0.625
S'other'
p3745
tp3746
a(I280
I2
F0.5
S'touch'
p3747
tp3748
a(I305
I14
I0
S'many'
p3749
tp3750
a(I317
I25
F-0.625
S'fresh'
p3751
tp3752
a(I317
I25
F0.375
S'new'
p3753
tp3754
a(I337
I4
I0
S'most'
p3755
tp3756
a(I337
I5
I0
S'most'
p3757
tp3758
a(I337
I5
F0.125
S'able'
p3759
tp3760
a(I340
I13
F0.25
S'helpful'
p3761
tp3762
a(I350
I7
F-0.5
S'sure'
p3763
tp3764
a(I350
I7
I0
S'more'
p3765
tp3766
a(I352
I4
I0
S'many'
p3767
tp3768
a(I356
I1
I0
S'high'
p3769
tp3770
a(I395
I3
I0
S'many'
p3771
tp3772
a(I401
I6
F0.625
S'easy'
p3773
tp3774
a(I428
I37
F0.5
S'clear'
p3775
tp3776
as(S'form'
p3777
S'factor'
p3778
tp3779
(lp3780
(I284
I2
I0
S'great'
p3781
tp3782
as(S'samsung'
p3783
S'focus'
p3784
tp3785
(lp3786
(I6
I81
F0.375
g193
tp3787
a(I85
I25
F-0.5
g195
tp3788
a(I109
I1
F0.5
g197
tp3789
a(I109
I1
I0
g199
tp3790
a(I109
I1
F0.375
g201
tp3791
a(I109
I6
I0
g203
tp3792
a(I149
I0
F0.25
g205
tp3793
a(I185
I3
F1.0
g207
tp3794
a(I291
I3
I0
g209
tp3795
a(I311
I0
F0.625
g211
tp3796
a(I410
I0
F0.25
g213
tp3797
as(S'works'
p3798
tp3799
(lp3800
(I58
I4
I0
S'great'
p3801
tp3802
a(I70
I41
I0
S'great'
p3803
tp3804
a(I132
I10
F1.0
S'best'
p3805
tp3806
a(I146
I10
I0
S'great'
p3807
tp3808
a(I176
I1
I0
S'great'
p3809
tp3810
a(I239
I17
I0
S'great'
p3811
tp3812
a(I239
I17
F-0.125
S'overall'
p3813
tp3814
a(I253
I7
I0
S'great'
p3815
tp3816
a(I330
I6
F-0.75
S'wrong'
p3817
tp3818
a(I358
I9
I0
S'great'
p3819
tp3820
a(I363
I0
I0
S'great'
p3821
tp3822
a(I377
I5
I0
S'great'
p3823
tp3824
as(S'ease'
p3825
S'of'
p3826
S'use'
p3827
tp3828
(lp3829
(I178
I9
F-0.625
S'light'
p3830
tp3831
as(S'think'
p3832
tp3833
(lp3834
(I296
I5
I0
S'least'
p3835
tp3836
as(S'wide'
p3837
S'angle'
p3838
tp3839
(lp3840
(I14
I31
I0
S'wide'
p3841
tp3842
a(I225
I3
I0
S'wide'
p3843
tp3844
a(I346
I4
I0
S'wide'
p3845
tp3846
as(S'better'
p3847
tp3848
(lp3849
(I14
I31
F0.375
S'much'
p3850
tp3851
a(I14
I31
F-0.25
S'low'
p3852
tp3853
a(I27
I1
F0.375
S'much'
p3854
tp3855
a(I72
I14
F0.375
S'much'
p3856
tp3857
a(I102
I0
F0.375
S'much'
p3858
tp3859
a(I221
I20
F-0.75
S'little'
p3860
tp3861
a(I255
I10
F0.375
S'much'
p3862
tp3863
a(I315
I3
F0.375
S'much'
p3864
tp3865
a(I346
I4
F0.375
S'much'
p3866
tp3867
a(I428
I17
F0.375
S'much'
p3868
tp3869
a(I428
I33
F0.375
S'much'
p3870
tp3871
a(I428
I33
F-0.25
S'low'
p3872
tp3873
as(S'device'
p3874
tp3875
(lp3876
(I6
I5
F1.0
S'best'
p3877
tp3878
a(I6
I31
I0
S'android'
p3879
tp3880
a(I6
I37
F-0.375
S'daily'
p3881
tp3882
a(I6
I47
F0.125
S'first'
p3883
tp3884
a(I14
I98
F-0.625
S'other'
p3885
tp3886
a(I22
I0
F0.125
S'first'
p3887
tp3888
a(I22
I10
F-0.5
S'sure'
p3889
tp3890
a(I22
I18
I0
S'android'
p3891
tp3892
a(I31
I24
F0.5
S'susceptible'
p3893
tp3894
a(I38
I42
I0
S'android'
p3895
tp3896
a(I38
I46
I0
S'android'
p3897
tp3898
a(I53
I11
I0
S'android'
p3899
tp3900
a(I142
I5
F0.5
S'expensive'
p3901
tp3902
a(I163
I30
I0
S'mobile'
p3903
tp3904
a(I164
I0
F-0.75
S'wrong'
p3905
tp3906
a(I171
I0
F-0.625
S'other'
p3907
tp3908
a(I176
I1
F-0.625
S'free'
p3909
tp3910
a(I180
I22
F1.0
S'best'
p3911
tp3912
a(I186
I0
F0.375
S'much'
p3913
tp3914
a(I192
I7
F-0.5
S'less'
p3915
tp3916
a(I212
I0
F0.125
S'solid'
p3917
tp3918
a(I226
I10
F0.375
S'new'
p3919
tp3920
a(I238
I0
F1.0
S'best'
p3921
tp3922
a(I238
I0
F-0.75
S'little'
p3923
tp3924
a(I245
I18
F-0.5
S'less'
p3925
tp3926
a(I245
I18
F-0.25
S'potential'
p3927
tp3928
a(I249
I37
I0
S'only'
p3929
tp3930
a(I249
I37
I0
S'mobile'
p3931
tp3932
a(I263
I0
F-0.625
S'free'
p3933
tp3934
a(I266
I5
F0.375
S'new'
p3935
tp3936
a(I269
I1
F0.75
S'beautiful'
p3937
tp3938
a(I279
I1
F-0.375
S'daily'
p3939
tp3940
a(I279
I1
F0.5
S'personal'
p3941
tp3942
a(I287
I1
F1.0
S'best'
p3943
tp3944
a(I292
I7
F0.375
S'new'
p3945
tp3946
a(I292
I7
F0.375
S'new'
p3947
tp3948
a(I292
I7
I0
S'update'
p3949
tp3950
a(I292
I9
I0
S'old'
p3951
tp3952
a(I295
I8
I0
S'great'
p3953
tp3954
a(I296
I6
I0
S'android'
p3955
tp3956
a(I311
I3
I0
S'great'
p3957
tp3958
a(I344
I0
I0
S'general'
p3959
tp3960
a(I354
I16
I0
S'such'
p3961
tp3962
a(I360
I1
F0.125
S'capable'
p3963
tp3964
a(I361
I4
F0.875
S'important'
p3965
tp3966
a(I393
I6
I0
S'great'
p3967
tp3968
a(I408
I19
F1.0
S'good'
p3969
tp3970
a(I409
I1
F0.5
S'personal'
p3971
tp3972
a(I431
I7
F0.125
S'first'
p3973
tp3974
as(S'call'
p3975
tp3976
(lp3977
(I14
I21
F0.625
g236
tp3978
a(I31
I34
F-0.5
g238
tp3979
a(I38
I36
F-0.5
S'miss'
p3980
tp3981
a(I85
I14
F0.625
S'responsible'
p3982
tp3983
a(I245
I15
F0.875
S'important'
p3984
tp3985
a(I254
I10
I0
S'fast'
p3986
tp3987
a(I254
I10
F0.625
S'easy'
p3988
tp3989
a(I289
I1
I0
S'many'
p3990
tp3991
a(I373
I4
F0.75
g264
tp3992
a(I383
I2
I0
g266
tp3993
a(I394
I6
F0.125
g270
tp3994
a(I394
I6
I0
g272
tp3995
a(I410
I7
I0
g274
tp3996
a(I411
I11
I0
S'most'
p3997
tp3998
as(S'fun'
p3999
S'to'
p4000
S'use'
p4001
tp4002
(lp4003
(I14
I73
I0
S'write'
p4004
tp4005
as(S'much'
p4006
S'better'
p4007
tp4008
(lp4009
(I14
I31
F0.375
g3850
tp4010
a(I14
I31
F-0.25
g3852
tp4011
a(I27
I1
F0.375
g3854
tp4012
a(I72
I14
F0.375
g3856
tp4013
a(I102
I0
F0.375
g3858
tp4014
a(I255
I10
F0.375
g3862
tp4015
a(I315
I3
F0.375
g3864
tp4016
a(I346
I4
F0.375
g3866
tp4017
a(I428
I17
F0.375
g3868
tp4018
a(I428
I33
F0.375
g3870
tp4019
a(I428
I33
F-0.25
g3872
tp4020
as(S'battery'
p4021
tp4022
(lp4023
(I6
I6
I0
g2305
tp4024
a(I6
I25
F0.5
g2307
tp4025
a(I6
I25
F-0.125
g2309
tp4026
a(I6
I25
F-0.875
g2311
tp4027
a(I6
I44
F1.0
g2313
tp4028
a(I6
I57
F1.0
S'good'
p4029
tp4030
a(I6
I57
I0
S'great'
p4031
tp4032
a(I6
I58
F0.125
g2317
tp4033
a(I7
I23
F0.625
S'removable'
p4034
tp4035
a(I7
I25
F0.125
S'able'
p4036
tp4037
a(I7
I25
F0.875
S'important'
p4038
tp4039
a(I13
I13
I0
g2321
tp4040
a(I14
I40
F-0.5
S'less'
p4041
tp4042
a(I14
I41
F-0.375
S'black'
p4043
tp4044
a(I14
I41
I0
S'fast'
p4045
tp4046
a(I14
I41
F-0.25
S'white'
p4047
tp4048
a(I16
I4
F1.0
g2323
tp4049
a(I21
I4
F-0.5
S'sure'
p4050
tp4051
a(I21
I4
F0.375
S'enable'
p4052
tp4053
a(I47
I2
I0
g2329
tp4054
a(I62
I4
I0
S'signal'
p4055
tp4056
a(I74
I0
I0
g2333
tp4057
a(I79
I18
F0.5
S'strong'
p4058
tp4059
a(I91
I10
F0.625
S'removable'
p4060
tp4061
a(I111
I2
F1.0
g2337
tp4062
a(I122
I11
F-0.875
S'nasty'
p4063
tp4064
a(I139
I1
I0
g2339
tp4065
a(I149
I16
F1.0
S'good'
p4066
tp4067
a(I163
I26
I0
S'many'
p4068
tp4069
a(I208
I1
I0
S'wish'
p4070
tp4071
a(I237
I2
F0.625
g2353
tp4072
a(I293
I0
I0
S'full'
p4073
tp4074
a(I293
I0
F0.125
S'last'
p4075
tp4076
a(I318
I9
I0
S'user'
p4077
tp4078
a(I320
I1
F0.625
g2363
tp4079
a(I333
I1
F1.0
S'good'
p4080
tp4081
a(I337
I1
F0.625
S'removable'
p4082
tp4083
a(I337
I5
F0.625
S'removable'
p4084
tp4085
a(I340
I6
I0
g2365
tp4086
a(I367
I2
F1.0
g2371
tp4087
a(I374
I3
F1.0
g2373
tp4088
a(I375
I2
F1.0
g2375
tp4089
a(I399
I3
F0.625
S'replaceable'
p4090
tp4091
a(I401
I42
F0.625
S'removable'
p4092
tp4093
a(I401
I43
F-0.625
S'bad'
p4094
tp4095
a(I401
I45
F0.625
S'removable'
p4096
tp4097
a(I410
I7
I0
g2389
tp4098
a(I415
I8
F-0.625
S'average'
p4099
tp4100
a(I438
I4
F-0.5
S'less'
p4101
tp4102
a(I442
I6
F-0.5
S'long'
p4103
tp4104
as(S'turn'
p4105
S'by'
p4106
S'turn'
p4107
tp4108
(lp4109
(I305
I14
F-0.625
S'free'
p4110
tp4111
a(I340
I11
F-0.625
S'free'
p4112
tp4113
as(S'blah'
p4114
S'blah'
p4115
tp4116
(lp4117
(I163
I5
F-0.25
S'google'
p4118
tp4119
as(S'great'
p4120
S'battery'
p4121
S'life'
p4122
tp4123
(lp4124
(I6
I6
I0
g2305
tp4125
a(I6
I44
F1.0
g2313
tp4126
a(I6
I44
F0.125
g2315
tp4127
a(I9
I4
I0
g2319
tp4128
a(I13
I13
I0
g2321
tp4129
a(I139
I1
I0
g2339
tp4130
a(I340
I6
I0
g2365
tp4131
a(I346
I4
I0
g2367
tp4132
a(I354
I13
I0
g2369
tp4133
a(I374
I3
F1.0
g2373
tp4134
a(I397
I5
I0
g2377
tp4135
a(I410
I7
I0
g2389
tp4136
a(I428
I45
F-0.625
g2393
tp4137
a(I428
I45
F-0.625
g2395
tp4138
a(I438
I1
I0
g2397
tp4139
as(S'apps'
p4140
tp4141
(lp4142
(I3
I2
I0
S'android'
p4143
tp4144
a(I3
I2
F0.125
S'impressive'
p4145
tp4146
a(I4
I2
F-0.125
S'future'
p4147
tp4148
a(I6
I36
F0.375
S'available'
p4149
tp4150
a(I6
I55
F0.375
S'new'
p4151
tp4152
a(I7
I40
F-0.5
S'less'
p4153
tp4154
a(I13
I13
I0
S'few'
p4155
tp4156
a(I14
I9
I0
S'android'
p4157
tp4158
a(I14
I68
F0.25
S'main'
p4159
tp4160
a(I14
I69
I0
S'more'
p4161
tp4162
a(I14
I72
I0
g2614
tp4163
a(I14
I84
I0
S'same'
p4164
tp4165
a(I14
I84
I0
S'android'
p4166
tp4167
a(I15
I10
F0.875
S'nice'
p4168
tp4169
a(I17
I3
I0
S'more'
p4170
tp4171
a(I18
I4
F0.125
S'popular'
p4172
tp4173
a(I24
I7
F-0.5
S'open'
p4174
tp4175
a(I24
I7
I0
S'many'
p4176
tp4177
a(I31
I15
I0
S'most'
p4178
tp4179
a(I31
I15
F0.875
S'important'
p4180
tp4181
a(I38
I17
F-0.5
S'less'
p4182
tp4183
a(I38
I21
I0
S'most'
p4184
tp4185
a(I38
I21
F0.625
S'major'
p4186
tp4187
a(I38
I22
I0
S'more'
p4188
tp4189
a(I38
I23
F-0.625
S'other'
p4190
tp4191
a(I38
I23
F0.625
S'major'
p4192
tp4193
a(I40
I16
I0
S'many'
p4194
tp4195
a(I41
I3
I0
S'specific'
p4196
tp4197
a(I41
I3
F0.375
S'much'
p4198
tp4199
a(I41
I3
I0
S'more'
p4200
tp4201
a(I51
I9
F0.125
S'enough'
p4202
tp4203
a(I52
I1
I0
S'many'
p4204
tp4205
a(I52
I3
I0
S'close'
p4206
tp4207
a(I52
I3
F-0.625
S'other'
p4208
tp4209
a(I54
I5
F0.625
S'partial'
p4210
tp4211
a(I54
I8
F0.25
S'main'
p4212
tp4213
a(I57
I12
F0.375
g2616
tp4214
a(I62
I10
F0.375
g644
tp4215
a(I63
I2
I0
S'fewer'
p4216
tp4217
a(I72
I16
F1.0
S'better'
p4218
tp4219
a(I75
I3
I0
S'lag'
p4220
tp4221
a(I75
I30
F-0.5
S'jumbled'
p4222
tp4223
a(I79
I11
I0
S'notable'
p4224
tp4225
a(I81
I24
I0
S'many'
p4226
tp4227
a(I90
I7
F-0.375
S'static'
p4228
tp4229
a(I90
I9
I0
S'few'
p4230
tp4231
a(I91
I5
I0
S'few'
p4232
tp4233
a(I93
I7
F0.25
S'bigger'
p4234
tp4235
a(I97
I13
F0.375
S'available'
p4236
tp4237
a(I100
I7
I0
S'useful'
p4238
tp4239
a(I101
I3
F0.375
S'available'
p4240
tp4241
a(I119
I19
I0
S'more'
p4242
tp4243
a(I139
I3
I0
S'great'
p4244
tp4245
a(I139
I3
I0
S'more'
p4246
tp4247
a(I140
I8
I0
S'faster'
p4248
tp4249
a(I146
I7
F0.375
S'available'
p4250
tp4251
a(I146
I9
I0
S'great'
p4252
tp4253
a(I149
I22
F0.25
S'favorite'
p4254
tp4255
a(I151
I9
F0.125
S'key'
p4256
tp4257
a(I153
I6
F0.875
S'happy'
p4258
tp4259
a(I154
I1
I0
S'useful'
p4260
tp4261
a(I157
I9
I0
S'many'
p4262
tp4263
a(I157
I9
F0.125
S'native'
p4264
tp4265
a(I157
I9
I0
S'such'
p4266
tp4267
a(I162
I3
I0
S'many'
p4268
tp4269
a(I162
I6
I0
S'most'
p4270
tp4271
a(I162
I6
I0
S'basic'
p4272
tp4273
a(I163
I17
I0
S'many'
p4274
tp4275
a(I163
I17
I0
S'useful'
p4276
tp4277
a(I163
I17
I0
S'chinese'
p4278
tp4279
a(I163
I17
I0
S'dictionary'
p4280
tp4281
a(I163
I17
I0
S'dictionary'
p4282
tp4283
a(I170
I8
F0.25
S'favorite'
p4284
tp4285
a(I170
I8
F0.375
S'available'
p4286
tp4287
a(I185
I1
I0
S'stable'
p4288
tp4289
a(I185
I11
I0
S'more'
p4290
tp4291
a(I186
I3
F0.125
S'plenty'
p4292
tp4293
a(I191
I1
I0
g2618
tp4294
a(I191
I1
F0.375
g2620
tp4295
a(I191
I1
F0.625
g2622
tp4296
a(I193
I0
I0
S'most'
p4297
tp4298
a(I195
I12
I0
g646
tp4299
a(I195
I12
I0
g648
tp4300
a(I195
I15
F-0.625
g2624
tp4301
a(I195
I18
F0.875
S'important'
p4302
tp4303
a(I195
I18
F0.375
S'available'
p4304
tp4305
a(I197
I6
F-0.375
S'smooth'
p4306
tp4307
a(I198
I2
F0.125
S'key'
p4308
tp4309
a(I206
I2
I0
S'exclusive'
p4310
tp4311
a(I206
I7
I0
S'great'
p4312
tp4313
a(I211
I11
I0
S'big'
p4314
tp4315
a(I211
I11
I0
S'different'
p4316
tp4317
a(I211
I17
I0
S'android'
p4318
tp4319
a(I211
I19
I0
g652
tp4320
a(I211
I19
I0
g654
tp4321
a(I215
I10
F0.375
S'new'
p4322
tp4323
a(I215
I10
F1.0
S'good'
p4324
tp4325
a(I216
I0
F0.375
S'much'
p4326
tp4327
a(I216
I7
F0.125
S'popular'
p4328
tp4329
a(I224
I27
I0
S'more'
p4330
tp4331
a(I233
I4
I0
S'fewer'
p4332
tp4333
a(I236
I7
F0.375
S'new'
p4334
tp4335
a(I242
I0
I0
S'most'
p4336
tp4337
a(I242
I4
I0
S'few'
p4338
tp4339
a(I244
I3
I0
S'most'
p4340
tp4341
a(I245
I8
F0.25
g2466
tp4342
a(I245
I8
F-0.75
g2468
tp4343
a(I245
I8
F-0.375
g2470
tp4344
a(I248
I1
F0.625
S'easy'
p4345
tp4346
a(I249
I34
I0
S'android'
p4347
tp4348
a(I251
I1
I0
g2626
tp4349
a(I254
I12
I0
S'wish'
p4350
tp4351
a(I256
I0
F0.125
S'enough'
p4352
tp4353
a(I265
I0
F0.625
S'necessary'
p4354
tp4355
a(I268
I13
I0
g2632
tp4356
a(I268
I20
I0
S'many'
p4357
tp4358
a(I268
I20
I0
S'more'
p4359
tp4360
a(I268
I20
I0
S'current'
p4361
tp4362
a(I268
I24
I0
S'such'
p4363
tp4364
a(I269
I8
F0.75
S'beautiful'
p4365
tp4366
a(I270
I0
F1.0
g2634
tp4367
a(I270
I0
I0
g2636
tp4368
a(I270
I0
F-0.625
g2638
tp4369
a(I275
I0
I0
S'android'
p4370
tp4371
a(I275
I0
F-0.5
S'less'
p4372
tp4373
a(I291
I4
I0
S'exclusive'
p4374
tp4375
a(I293
I1
F-0.375
S'smooth'
p4376
tp4377
a(I294
I2
I0
S'few'
p4378
tp4379
a(I294
I18
I0
g2472
tp4380
a(I295
I4
F-0.375
S'crash'
p4381
tp4382
a(I305
I14
F0.25
S'favorite'
p4383
tp4384
a(I306
I8
I0
S'same'
p4385
tp4386
a(I306
I9
F0.25
S'used'
p4387
tp4388
a(I306
I12
I0
S'great'
p4389
tp4390
a(I309
I0
I0
S'same'
p4391
tp4392
a(I309
I0
I0
S'android'
p4393
tp4394
a(I315
I2
I0
S'more'
p4395
tp4396
a(I321
I3
F-0.625
S'free'
p4397
tp4398
a(I321
I4
I0
S'useful'
p4399
tp4400
a(I321
I4
F-0.625
S'free'
p4401
tp4402
a(I321
I7
I0
S'total'
p4403
tp4404
a(I321
I8
F0.125
S'popular'
p4405
tp4406
a(I321
I10
F0.125
S'popular'
p4407
tp4408
a(I324
I7
F-0.5
S'sure'
p4409
tp4410
a(I336
I10
I0
S'later'
p4411
tp4412
a(I337
I7
F0.125
g2640
tp4413
a(I337
I8
I0
S'many'
p4414
tp4415
a(I337
I8
I0
S'official'
p4416
tp4417
a(I339
I2
F0.625
S'necessary'
p4418
tp4419
a(I339
I2
I0
S'great'
p4420
tp4421
a(I340
I22
I0
S'most'
p4422
tp4423
a(I342
I3
F-0.5
S'sure'
p4424
tp4425
a(I343
I7
F1.0
S'good'
p4426
tp4427
a(I346
I4
I0
S'such'
p4428
tp4429
a(I347
I1
I0
S'faster'
p4430
tp4431
a(I347
I2
I0
S'many'
p4432
tp4433
a(I358
I7
F1.0
S'best'
p4434
tp4435
a(I361
I1
F-0.25
g2642
tp4436
a(I365
I20
I0
S'most'
p4437
tp4438
a(I366
I2
F0.75
S'beautiful'
p4439
tp4440
a(I366
I3
F0.75
S'beautiful'
p4441
tp4442
a(I366
I4
F0.875
S'happy'
p4443
tp4444
a(I366
I7
I0
S'more'
p4445
tp4446
a(I366
I8
F1.0
S'better'
p4447
tp4448
a(I366
I8
I0
S'different'
p4449
tp4450
a(I367
I4
F0.125
S'essential'
p4451
tp4452
a(I367
I4
I0
S'android'
p4453
tp4454
a(I376
I2
F-0.125
S'future'
p4455
tp4456
a(I379
I3
F0.375
S'new'
p4457
tp4458
a(I384
I29
I0
S'many'
p4459
tp4460
a(I389
I3
I0
S'most'
p4461
tp4462
a(I391
I1
I0
S'most'
p4463
tp4464
a(I403
I1
F0.625
g2644
tp4465
a(I407
I0
I0
S'few'
p4466
tp4467
a(I407
I1
I0
S'most'
p4468
tp4469
a(I407
I1
F0.625
S'necessary'
p4470
tp4471
a(I407
I1
F-0.5
S'unavailable'
p4472
tp4473
a(I411
I5
F0.625
S'major'
p4474
tp4475
a(I412
I0
I0
S'few'
p4476
tp4477
a(I412
I1
F0.375
S'available'
p4478
tp4479
a(I424
I3
I0
S'great'
p4480
tp4481
a(I424
I3
F0.375
S'new'
p4482
tp4483
a(I428
I105
I0
S'general'
p4484
tp4485
a(I428
I105
F0.5
S'true'
p4486
tp4487
a(I428
I105
F0.125
S'popular'
p4488
tp4489
a(I428
I106
F0.125
S'popular'
p4490
tp4491
a(I434
I3
F0.375
S'available'
p4492
tp4493
a(I441
I3
I0
S'few'
p4494
tp4495
a(I445
I2
I0
S'many'
p4496
tp4497
a(I445
I3
I0
g658
tp4498
a(I445
I4
I0
S'few'
p4499
tp4500
a(I445
I4
F0.875
S'important'
p4501
tp4502
as(S'feels'
p4503
tp4504
(lp4505
(I0
I1
F-0.25
S'modern'
p4506
tp4507
a(I2
I2
F0.5
S'expensive'
p4508
tp4509
a(I78
I1
I0
S'sturdy'
p4510
tp4511
a(I101
I8
F-0.625
S'seamless'
p4512
tp4513
a(I101
I8
F0.125
S'solid'
p4514
tp4515
a(I105
I2
I0
S'great'
p4516
tp4517
a(I121
I14
I0
S'most'
p4518
tp4519
a(I239
I11
F-0.625
S'natural'
p4520
tp4521
a(I285
I2
F0.625
S'easy'
p4522
tp4523
a(I285
I2
F0.125
S'solid'
p4524
tp4525
as(S'days'
p4526
tp4527
(lp4528
(I6
I60
F-0.75
g1310
tp4529
a(I17
I16
F0.125
S'last'
p4530
tp4531
a(I17
I16
I0
S'few'
p4532
tp4533
a(I62
I0
I0
g1314
tp4534
a(I68
I7
I0
S'few'
p4535
tp4536
a(I68
I7
I0
S'later'
p4537
tp4538
a(I74
I1
I0
S'full'
p4539
tp4540
a(I74
I1
F-0.5
S'heavy'
p4541
tp4542
a(I114
I8
I0
S'few'
p4543
tp4544
a(I144
I0
F1.0
S'good'
p4545
tp4546
a(I163
I30
I0
S'few'
p4547
tp4548
a(I193
I0
F-0.75
S'comfortable'
p4549
tp4550
a(I251
I10
I0
S'later'
p4551
tp4552
a(I251
I10
I0
S'later'
p4553
tp4554
a(I282
I38
I0
S'few'
p4555
tp4556
a(I285
I5
I0
S'many'
p4557
tp4558
a(I321
I6
I0
S'normal'
p4559
tp4560
a(I406
I3
I0
S'few'
p4561
tp4562
as(S'build'
p4563
S'quality'
p4564
tp4565
(lp4566
(I6
I8
I0
S'great'
p4567
tp4568
a(I14
I22
I0
S'great'
p4569
tp4570
a(I132
I15
F-0.5
S'sure'
p4571
tp4572
a(I261
I4
F-0.375
g2173
tp4573
a(I279
I1
F-0.25
S'higher'
p4574
tp4575
a(I291
I1
I0
S'great'
p4576
tp4577
a(I337
I9
I0
S'more'
p4578
tp4579
a(I365
I26
I0
g2198
tp4580
a(I391
I2
I0
g2205
tp4581
a(I391
I2
I0
g2207
tp4582
as.