(dp0
(S'battery'
p1
S'life'
p2
tp3
(lp4
(I0
I3
F0.625
S'removable'
p5
I1
tp6
a(I0
I3
I0
S'great'
p7
I1
tp8
a(I0
I19
F-0.75
S'worse'
p9
I1
tp10
a(I0
I127
F1.0
S'better'
p11
I1
tp12
a(I0
I181
F1.0
S'good'
p13
I1
tp14
a(I0
I237
F0.5
S'reasonable'
p15
I1
tp16
a(I0
I256
I0
S'great'
p17
I1
tp18
a(I0
I256
F0.875
S'music'
p19
I1
tp20
a(I0
I258
F-0.5
S'long'
p21
I1
tp22
a(I0
I258
F1.0
S'good'
p23
I1
tp24
a(I2
I17
F-0.625
S'average'
p25
I1
tp26
a(I2
I17
F-0.5
S'poor'
p27
I1
tp28
a(I3
I33
F1.0
S'good'
p29
I1
tp30
a(I0
I19
F-0.75
g9
I19
tp31
a(I0
I181
F1.0
g13
I19
tp32
a(I0
I237
F0.5
g15
I19
tp33
a(I0
I256
F0.875
g19
I19
tp34
a(I2
I17
F-0.625
g25
I19
tp35
a(I2
I17
F-0.5
g27
I19
tp36
a(I2
I186
I0
S'real'
p37
I19
tp38
a(I3
I33
F1.0
g29
I19
tp39
a(I0
I3
F0.625
g5
I15
tp40
a(I0
I3
I0
g7
I15
tp41
a(I0
I127
F1.0
g11
I15
tp42
a(I0
I256
I0
g17
I15
tp43
a(I0
I257
F-0.5
S'irremovable'
p44
I15
tp45
a(I0
I258
F-0.5
g21
I15
tp46
a(I0
I258
F1.0
g23
I15
tp47
a(I0
I259
F-0.5
S'irremovable'
p48
I15
tp49
a(I0
I328
I0
S'external'
p50
I15
tp51
a(I1
I68
I0
S'current'
p52
I15
tp53
a(I3
I31
F0.625
S'removable'
p54
I15
tp55
as(S'sense'
p56
tp57
(lp58
(I0
I29
F0.75
S'due'
p59
I8
tp60
a(I0
I309
I0
S'own'
p61
I8
tp62
a(I1
I127
I0
S'fastest'
p63
I8
tp64
as(S'email'
p65
tp66
(lp67
(I2
I90
F-0.625
S'pinch'
p68
I5
tp69
as(S'text'
p70
tp71
(lp72
(I3
I43
I0
S'enter'
p73
I18
tp74
as(S'micro'
p75
S'sd'
p76
tp77
(lp78
(I3
I99
F0.625
S'removable'
p79
I0
tp80
as(S'quad'
p81
S'core'
p82
tp83
(lp84
(I0
I171
I0
S'quad'
p85
I0
tp86
a(I0
I171
I0
g85
I3
tp87
as(S'sync'
p88
tp89
(lp90
(I3
I17
F-0.5
S'poor'
p91
I0
tp92
a(I3
I46
F-0.125
S'slow'
p93
I0
tp94
as(S'camera'
p95
tp96
(lp97
(I0
I42
F0.125
S'digital'
p98
I1
tp99
a(I0
I102
F1.0
S'best'
p100
I1
tp101
a(I0
I127
F1.0
S'better'
p102
I1
tp103
a(I0
I204
F0.25
S'responsive'
p104
I1
tp105
a(I0
I293
I0
S'rear'
p106
I1
tp107
a(I0
I293
F1.0
S'best'
p108
I1
tp109
a(I1
I101
F0.625
S'superior'
p110
I1
tp111
a(I1
I141
F1.0
S'best'
p112
I1
tp113
a(I2
I151
F1.0
S'best'
p114
I1
tp115
a(I2
I154
I0
S'great'
p116
I1
tp117
a(I2
I154
I0
S'special'
p118
I1
tp119
a(I3
I1
I0
S'fast'
p120
I1
tp121
a(I3
I28
F0.125
S'native'
p122
I1
tp123
as(S'dropbox'
p124
tp125
(lp126
(I0
I150
F-0.625
S'free'
p127
I0
tp128
as(S'iphone'
p129
tp130
(lp131
(I0
I7
F0.25
S'sharp'
p132
I1
tp133
a(I0
I212
F1.0
S'good'
p134
I1
tp135
a(I0
I229
F-0.125
S'overall'
p136
I1
tp137
a(I0
I229
F1.0
S'good'
p138
I1
tp139
a(I0
I245
I0
S'old'
p140
I1
tp141
a(I1
I141
I0
S'close'
p142
I1
tp143
a(I3
I9
F-0.375
S'smaller'
p144
I1
tp145
a(I3
I88
I0
S'old'
p146
I1
tp147
a(I3
I95
I0
S'old'
p148
I1
tp149
a(I3
I107
I0
S'fast'
p150
I1
tp151
as(S'memory'
p152
tp153
(lp154
(I0
I118
I0
S'large'
p155
I5
tp156
a(I0
I147
I0
S'internal'
p157
I5
tp158
a(I1
I3
F0.375
S'available'
p159
I5
tp160
a(I1
I41
I0
S'external'
p161
I5
tp162
a(I1
I93
F0.375
S'available'
p163
I5
tp164
a(I2
I66
F0.375
S'extra'
p165
I5
tp166
a(I2
I67
I0
S'more'
p167
I5
tp168
a(I2
I67
I0
S'more'
p169
I5
tp170
a(I2
I68
I0
S'high'
p171
I5
tp172
a(I3
I169
F0.375
S'available'
p173
I5
tp174
as(S'google'
p175
tp176
(lp177
(I0
I98
F-0.375
S'smooth'
p178
I4
tp179
a(I0
I305
I0
S'latest'
p180
I4
tp181
as(S'galaxy'
p182
tp183
(lp184
(I1
I179
I0
S'forth'
p185
I0
tp186
a(I3
I14
F0.625
S'interested'
p187
I0
tp188
as(S'locked'
p189
S'bootloader'
p190
tp191
(lp192
(I3
I122
F0.125
S'enthusiast'
p193
I0
tp194
a(I3
I122
F0.125
g193
I0
tp195
as(S'button'
p196
tp197
(lp198
(I0
I297
F-0.375
S'top'
p199
I19
tp200
a(I0
I338
F-0.375
S'top'
p201
I19
tp202
a(I0
I342
I0
S'haptic'
p203
I19
tp204
a(I0
I349
F-0.375
S'top'
p205
I19
tp206
as(S'storage'
p207
tp208
(lp209
(I0
I27
F-0.625
S'free'
p210
I1
tp211
a(I0
I33
F-0.5
S'less'
p212
I1
tp213
a(I0
I36
F0.375
S'available'
p214
I1
tp215
a(I0
I59
F0.375
S'available'
p216
I1
tp217
a(I2
I156
I0
S'external'
p218
I1
tp219
a(I3
I100
F0.875
S'nice'
p220
I1
tp221
as(S'htc'
p222
S'one'
p223
S'x'
p224
tp225
(lp226
(I0
I22
I0
S'latest'
p227
I0
tp228
a(I0
I142
I0
S'old'
p229
I0
tp230
a(I1
I39
I0
S'many'
p231
I0
tp232
a(I2
I136
F0.75
S'due'
p233
I0
tp234
a(I3
I40
F0.5
S'true'
p235
I0
tp236
a(I3
I109
I0
S'incredible'
p237
I0
tp238
as(S'android'
p239
tp240
(lp241
(I0
I193
F1.0
S'best'
p242
I0
tp243
a(I2
I21
F0.375
S'new'
p244
I0
tp245
a(I2
I76
F0.125
S'first'
p246
I0
tp247
a(I2
I86
I0
S'next'
p248
I0
tp249
a(I2
I86
F0.625
S'major'
p250
I0
tp251
a(I2
I130
F0.375
S'new'
p252
I0
tp253
a(I3
I168
F-0.5
S'poor'
p254
I0
tp255
a(I3
I171
F-0.5
S'open'
p256
I0
tp257
a(I3
I193
I0
S'own'
p258
I0
tp259
a(I3
I207
F1.0
S'better'
p260
I0
tp261
as(S'upgrade'
p262
tp263
(lp264
(I0
I50
F0.5
S'eligible'
p265
I3
tp266
a(I0
I143
I0
S'next'
p267
I3
tp268
a(I0
I305
I0
S'big'
p269
I3
tp270
a(I2
I160
F-0.625
S'free'
p271
I3
tp272
a(I3
I89
I0
S'next'
p273
I3
tp274
as(S'browser'
p275
tp276
(lp277
(I0
I243
F0.125
S'native'
p278
I0
tp279
a(I3
I58
I0
S'internet'
p280
I0
tp281
as(S'calls'
p282
tp283
(lp284
(I1
I165
F0.5
S'clear'
p285
I0
tp286
a(I3
I4
I0
S'most'
p287
I0
tp288
as(S'interface'
p289
tp290
(lp291
(I0
I313
I0
S'more'
p292
I1
tp293
a(I3
I16
F-0.75
S'poorly'
p294
I1
tp295
as(S'music'
p296
tp297
(lp298
(I0
I98
F-0.625
S'free'
p299
I0
tp300
a(I0
I139
F0.125
S'digital'
p301
I0
tp302
as(S'data'
p303
tp304
(lp305
(I1
I153
F-0.25
S'higher'
p306
I13
tp307
as(S'an'
p308
S'sd'
p309
S'card'
p310
tp311
(lp312
(I3
I113
I0
S'external'
p313
I0
tp314
a(I3
I113
I0
g313
I0
tp315
as(S'videos'
p316
tp317
(lp318
(I0
I47
F0.625
S'easier'
p319
I8
tp320
a(I0
I357
F1.0
S'good'
p321
I8
tp322
a(I2
I95
F0.75
S'beautiful'
p323
I8
tp324
as(S'apps'
p325
tp326
(lp327
(I0
I221
I0
S'same'
p328
I0
tp329
a(I0
I239
F0.25
S'recent'
p330
I0
tp331
a(I0
I239
F0.125
S'last'
p332
I0
tp333
a(I0
I352
F0.125
S'native'
p334
I0
tp335
a(I0
I368
F0.5
S'willing'
p336
I0
tp337
a(I1
I154
F-0.25
S'lower'
p338
I0
tp339
a(I2
I80
F0.875
S'music'
p340
I0
tp341
a(I2
I93
F-0.625
S'other'
p342
I0
tp343
a(I3
I19
F-0.375
S'disable'
p344
I0
tp345
a(I3
I50
F-0.625
S'other'
p346
I0
tp347
a(I3
I85
I0
S'many'
p348
I0
tp349
a(I3
I146
I0
S'social'
p350
I0
tp351
as.