(dp0
(S'slot'
p1
tp2
(lp3
(I26
I5
F-0.625
S'other'
p4
tp5
a(I133
I13
F0.625
S'accessible'
p6
tp7
as(S'purchase'
p8
tp9
(lp10
(I26
I2
F0.875
S'happy'
p11
tp12
a(I101
I7
F0.875
S'happy'
p13
tp14
a(I112
I0
F1.0
S'best'
p15
tp16
a(I134
I11
F0.875
S'happy'
p17
tp18
a(I184
I11
F0.875
S'happy'
p19
tp20
as(S'right'
p21
tp22
(lp23
(I82
I0
F-0.25
S'lower'
p24
tp25
a(I122
I0
F-0.25
S'lower'
p26
tp27
as(S'y'
p28
S'duos'
p29
tp30
(lp31
(I88
I2
F-0.375
S'small'
p32
tp33
as(S'nice'
p34
tp35
(lp36
(I51
I0
F1.0
S'good'
p37
tp38
a(I54
I7
F-0.375
S'simple'
p39
tp40
a(I126
I3
F-0.375
S'small'
p41
tp42
as(S'perfect'
p43
tp44
(lp45
(I188
I3
F-0.375
S'small'
p46
tp47
a(I188
I3
F0.375
S'new'
p48
tp49
as(S'two'
p50
S'sim'
p51
tp52
(lp53
(I0
I0
F0.5
S'personal'
p54
tp55
a(I26
I3
F0.5
S'second'
p56
tp57
a(I185
I3
F0.125
S'able'
p58
tp59
as(S'touch'
p60
tp61
(lp62
(I93
I4
F1.0
S'good'
p63
tp64
a(I184
I3
I0
S'different'
p65
tp66
as(S'operating'
p67
S'system'
p68
tp69
(lp70
(I54
I14
I0
S'old'
p71
tp72
a(I127
I4
F0.625
S'easy'
p73
tp74
a(I127
I4
I0
S'fast'
p75
tp76
a(I127
I4
F0.625
S'easy'
p77
tp78
a(I127
I4
F0.375
S'friendly'
p79
tp80
a(I136
I0
F-0.5
S'weak'
p81
tp82
as(S'quality'
p83
tp84
(lp85
(I12
I2
F1.0
S'good'
p86
tp87
a(I21
I0
F1.0
S'good'
p88
tp89
a(I72
I3
F0.125
S'usual'
p90
tp91
a(I143
I0
F1.0
S'good'
p92
tp93
a(I145
I0
F1.0
S'good'
p94
tp95
a(I172
I8
F1.0
S'good'
p96
tp97
as(S'two'
p98
S'sim'
p99
S'cards'
p100
tp101
(lp102
(I26
I3
F0.5
g56
tp103
a(I26
I5
F-0.625
S'sorry'
p104
tp105
a(I68
I2
F0.625
S'easy'
p106
tp107
a(I185
I3
F0.125
g58
tp108
as(S'sd'
p109
S'card'
p110
tp111
(lp112
(I2
I5
F0.625
S'convenient'
p113
tp114
a(I6
I3
F-0.625
S'other'
p115
tp116
a(I48
I0
F-0.625
S'free'
p117
tp118
a(I80
I0
I0
S'external'
p119
tp120
a(I126
I7
I0
S'big'
p121
tp122
as(S'sim'
p123
S'cards'
p124
tp125
(lp126
(I7
I2
I0
S'different'
p127
tp128
a(I26
I3
F0.5
g56
tp129
a(I26
I5
F-0.625
g104
tp130
a(I47
I19
F-0.625
S'other'
p131
tp132
a(I47
I20
F0.25
S'used'
p133
tp134
a(I68
I2
F0.625
g106
tp135
a(I126
I10
F0.625
S'easy'
p136
tp137
a(I126
I10
I0
S'many'
p138
tp139
a(I126
I10
F-0.625
S'other'
p140
tp141
a(I130
I1
I0
S'active'
p142
tp143
a(I185
I3
F0.125
g58
tp144
as(S'store'
p145
tp146
(lp147
(I126
I10
F-0.25
S'google'
p148
tp149
a(I133
I14
F-0.5
S'less'
p150
tp151
as(S'very'
p152
S'good'
p153
S'product'
p154
tp155
(lp156
(I78
I0
F1.0
S'good'
p157
tp158
a(I79
I2
F1.0
S'good'
p159
tp160
a(I102
I3
F1.0
S'good'
p161
tp162
a(I169
I0
F1.0
S'good'
p163
tp164
a(I188
I0
F1.0
S'good'
p165
tp166
as(S'sim'
p167
S'card'
p168
tp169
(lp170
(I2
I1
F0.125
S'able'
p171
tp172
a(I6
I1
I0
S'national'
p173
tp174
a(I6
I1
I0
S'geographic'
p175
tp176
a(I6
I3
F-0.625
g115
tp177
a(I7
I2
I0
g127
tp178
a(I26
I3
F0.5
g56
tp179
a(I47
I19
F-0.625
g131
tp180
a(I47
I20
F0.25
g133
tp181
a(I47
I30
I0
S'physical'
p182
tp183
a(I80
I0
F-0.375
S'simple'
p184
tp185
a(I91
I0
F0.375
S'extra'
p186
tp187
a(I93
I2
F0.625
S'easy'
p188
tp189
a(I102
I3
F0.5
S'second'
p190
tp191
a(I126
I10
I0
g138
tp192
a(I126
I10
F-0.625
g140
tp193
a(I127
I2
F-0.5
S'international'
p194
tp195
a(I134
I12
F0.625
S'add'
p196
tp197
a(I158
I1
F0.625
S'easy'
p198
tp199
a(I158
I1
F0.625
S'easy'
p200
tp201
a(I185
I3
F0.125
g58
tp202
as(S'however'
p203
tp204
(lp205
(I178
I0
I0
S'romanian'
p206
tp207
as(S'sims'
p208
tp209
(lp210
(I8
I0
F0.125
S'whit'
p211
tp212
a(I144
I1
I0
S'local'
p213
tp214
a(I151
I0
I0
S'great'
p215
tp216
as(S'only'
p217
S'one'
p218
S'sim'
p219
tp220
(lp221
(I26
I3
F0.5
g56
tp222
as(S'quad'
p223
S'band'
p224
tp225
(lp226
(I144
I0
I0
S'quad'
p227
tp228
as(S'card'
p229
tp230
(lp231
(I2
I2
F-0.625
S'other'
p232
tp233
a(I2
I5
F0.625
g113
tp234
a(I6
I1
I0
g173
tp235
a(I6
I1
I0
g175
tp236
a(I6
I3
F-0.625
g115
tp237
a(I48
I0
F-0.625
g117
tp238
a(I134
I12
F0.625
g196
tp239
as(S'wifi'
p240
tp241
(lp242
(I139
I0
F-0.375
S'disable'
p243
tp244
as(S'happy'
p245
S'with'
p246
S'purchase'
p247
tp248
(lp249
(I26
I2
F0.875
g11
tp250
a(I101
I7
F0.875
g13
tp251
a(I134
I11
F0.875
g17
tp252
a(I184
I11
F0.875
g19
tp253
as(S'memory'
p254
S'card'
p255
tp256
(lp257
(I4
I10
F-0.375
S'small'
p258
tp259
a(I5
I5
F1.0
S'better'
p260
tp261
a(I5
I5
F-0.5
S'poor'
p262
tp263
a(I37
I1
I0
S'internal'
p264
tp265
a(I37
I1
F-0.75
S'little'
p266
tp267
a(I37
I1
I0
S'external'
p268
tp269
a(I37
I1
F-0.25
S'low'
p270
tp271
a(I38
I3
F-0.625
S'free'
p272
tp273
a(I48
I0
F-0.625
g117
tp274
a(I52
I2
F0.625
S'find'
p275
tp276
a(I52
I2
F0.625
S'easy'
p277
tp278
a(I80
I0
I0
S'internal'
p279
tp280
a(I80
I0
F-0.375
S'small'
p281
tp282
a(I83
I1
I0
S'internal'
p283
tp284
a(I83
I1
I0
S'internal'
p285
tp286
a(I150
I1
I0
S'internal'
p287
tp288
as(S'resolution'
p289
tp290
(lp291
(I9
I1
F1.0
S'good'
p292
tp293
a(I98
I0
F-0.25
S'low'
p294
tp295
a(I138
I3
F1.0
S'good'
p296
tp297
a(I155
I1
I0
S'more'
p298
tp299
a(I172
I6
F-0.25
S'low'
p300
tp301
as(S'email'
p302
tp303
(lp304
(I99
I1
F0.875
S'nice'
p305
tp306
a(I185
I6
I0
S'basic'
p307
tp308
as(S'text'
p309
tp310
(lp311
(I103
I5
F-0.25
S'cheaper'
p312
tp313
a(I122
I1
F0.125
S'native'
p314
tp315
as(S'price'
p316
tp317
(lp318
(I23
I5
F1.0
S'good'
p319
tp320
a(I43
I0
I0
S'great'
p321
tp322
a(I54
I1
F0.75
S'due'
p323
tp324
a(I90
I2
F1.0
S'best'
p325
tp326
a(I93
I4
F0.25
S'responsive'
p327
tp328
a(I117
I0
F-0.125
S'slow'
p329
tp330
a(I142
I11
F-0.375
S'double'
p331
tp332
as(S'service'
p333
tp334
(lp335
(I110
I1
I0
S'different'
p336
tp337
a(I170
I1
I0
S'internet'
p338
tp339
as(S'need'
p340
tp341
(lp342
(I14
I0
I0
S'quick'
p343
tp344
as(S'dual'
p345
S'sim'
p346
tp347
(lp348
(I0
I0
F0.5
g54
tp349
a(I35
I0
I0
S'great'
p350
tp351
a(I46
I0
F-0.75
S'single'
p352
tp353
a(I46
I11
F-0.75
S'single'
p354
tp355
a(I47
I17
F-0.75
S'single'
p356
tp357
a(I47
I19
F-0.625
g131
tp358
a(I47
I20
F0.25
g133
tp359
a(I80
I0
F-0.375
g184
tp360
a(I93
I2
F0.625
g188
tp361
a(I118
I1
F-0.5
S'less'
p362
tp363
a(I118
I1
F-0.5
S'international'
p364
tp365
a(I126
I10
I0
g138
tp366
a(I126
I10
F-0.625
g140
tp367
as(S'unlimited'
p368
S'voice'
p369
tp370
(lp371
(I47
I30
F-0.5
S'unlimited'
p372
tp373
as(S'memory'
p374
tp375
(lp376
(I4
I10
F-0.375
g258
tp377
a(I5
I3
I0
S'full'
p378
tp379
a(I5
I5
F1.0
g260
tp380
a(I5
I5
F-0.5
g262
tp381
a(I21
I1
I0
S'internal'
p382
tp383
a(I37
I1
I0
g264
tp384
a(I37
I1
F-0.75
g266
tp385
a(I37
I1
I0
g268
tp386
a(I37
I1
F-0.25
g270
tp387
a(I38
I3
F-0.625
g272
tp388
a(I51
I2
I0
S'internal'
p389
tp390
a(I52
I2
F0.625
g275
tp391
a(I52
I2
F0.625
g277
tp392
a(I61
I2
F-0.25
S'low'
p393
tp394
a(I61
I5
I0
S'own'
p395
tp396
a(I61
I5
I0
S'internal'
p397
tp398
a(I61
I7
F-0.75
S'unable'
p399
tp400
a(I72
I1
F-0.25
S'low'
p401
tp402
a(I80
I0
I0
g279
tp403
a(I80
I0
F-0.375
g281
tp404
a(I83
I1
I0
g283
tp405
a(I83
I1
I0
g285
tp406
a(I84
I2
I0
S'full'
p407
tp408
a(I88
I2
I0
S'internal'
p409
tp410
a(I88
I5
I0
S'external'
p411
tp412
a(I100
I2
F-0.5
S'sure'
p413
tp414
a(I100
I2
I0
S'limited'
p415
tp416
a(I100
I4
F-0.25
S'low'
p417
tp418
a(I105
I0
F0.375
S'much'
p419
tp420
a(I105
I0
I0
S'internal'
p421
tp422
a(I116
I2
I0
S'internal'
p423
tp424
a(I147
I11
I0
S'big'
p425
tp426
a(I150
I1
I0
g287
tp427
as(S'product'
p428
tp429
(lp430
(I78
I0
F1.0
g157
tp431
a(I79
I0
I0
S'great'
p432
tp433
a(I79
I2
F1.0
g159
tp434
a(I82
I0
I0
S'okey'
p435
tp436
a(I102
I3
F1.0
g161
tp437
a(I103
I5
F1.0
S'best'
p438
tp439
a(I163
I0
F-0.125
S'overall'
p440
tp441
a(I169
I0
F1.0
g163
tp442
a(I188
I0
F1.0
g165
tp443
as(S'google'
p444
tp445
(lp446
(I47
I17
I0
S'full'
p447
tp448
a(I126
I10
I0
S'many'
p449
tp450
as(S'features'
p451
tp452
(lp453
(I2
I6
I0
S'many'
p454
tp455
a(I2
I6
F-0.625
S'other'
p456
tp457
a(I55
I2
I0
S'android'
p458
tp459
a(I87
I2
I0
S'more'
p460
tp461
a(I110
I4
F-0.25
S'modern'
p462
tp463
a(I110
I4
I0
S'technological'
p464
tp465
a(I126
I3
F-0.625
S'other'
p466
tp467
a(I156
I0
I0
S'many'
p468
tp469
as(S'dual'
p470
S'sim'
p471
S'functionality'
p472
tp473
(lp474
(I47
I20
F0.25
g133
tp475
as(S'flash'
p476
tp477
(lp478
(I46
I8
F-0.125
S'mine'
p479
tp480
as(S'on'
p481
S'sd'
p482
S'card'
p483
tp484
(lp485
(I2
I5
F0.625
g113
tp486
a(I6
I3
F-0.625
g115
tp487
a(I48
I0
F-0.625
g117
tp488
a(I80
I0
I0
g119
tp489
a(I126
I7
I0
g121
tp490
as(S'one'
p491
S'sim'
p492
S'card'
p493
tp494
(lp495
(I2
I1
F0.125
g171
tp496
a(I6
I1
I0
g173
tp497
a(I6
I1
I0
g175
tp498
a(I6
I3
F-0.625
g115
tp499
a(I26
I3
F0.5
g56
tp500
a(I47
I19
F-0.625
g131
tp501
a(I47
I20
F0.25
g133
tp502
a(I47
I30
I0
g182
tp503
a(I80
I0
F-0.375
g184
tp504
a(I126
I10
I0
g138
tp505
a(I126
I10
F-0.625
g140
tp506
a(I127
I2
F-0.5
g194
tp507
a(I185
I3
F0.125
g58
tp508
as(S'android'
p509
tp510
(lp511
(I22
I1
F0.375
S'much'
p512
tp513
a(I22
I1
I0
S'same'
p514
tp515
a(I87
I0
I0
S'basic'
p516
tp517
a(I133
I11
I0
S'general'
p518
tp519
as(S'n'
p520
S'europe'
p521
tp522
(lp523
(I187
I0
I0
S'forth'
p524
tp525
as(S'network'
p526
tp527
(lp528
(I84
I3
F0.25
S'edge'
p529
tp530
a(I84
I3
F-0.125
S'slow'
p531
tp532
as(S'thing'
p533
tp534
(lp535
(I12
I1
I0
S'only'
p536
tp537
a(I21
I5
F0.5
S'second'
p538
tp539
a(I22
I3
I0
S'only'
p540
tp541
a(I23
I3
I0
S'only'
p542
tp543
a(I27
I1
I0
S'only'
p544
tp545
a(I31
I5
I0
S'only'
p546
tp547
a(I57
I0
F-0.625
S'bad'
p548
tp549
a(I146
I2
I0
S'android'
p550
tp551
a(I149
I0
F-0.625
S'bad'
p552
tp553
as(S'reason'
p554
tp555
(lp556
(I26
I3
I0
S'only'
p557
tp558
a(I46
I11
F-0.375
S'slightest'
p559
tp560
a(I89
I3
I0
S'real'
p561
tp562
a(I116
I0
F0.125
S'key'
p563
tp564
a(I134
I14
F-0.625
S'other'
p565
tp566
as(S'duos'
p567
tp568
(lp569
(I88
I2
F-0.375
g32
tp570
as(S'data'
p571
tp572
(lp573
(I47
I20
F-0.5
S'separate'
p574
tp575
a(I47
I33
I0
S'cellular'
p576
tp577
as(S'micro'
p578
S'sd'
p579
S'card'
p580
tp581
(lp582
(I2
I5
F0.625
g113
tp583
a(I48
I0
F-0.625
g117
tp584
as(S'make'
p585
tp586
(lp587
(I104
I7
F0.625
S'easy'
p588
tp589
as(S'work'
p590
tp591
(lp592
(I21
I4
F0.5
S'willing'
p593
tp594
a(I41
I0
F-0.625
S'other'
p595
tp596
a(I46
I5
F-0.5
S'separate'
p597
tp598
as(S'a'
p599
S'dual'
p600
S'sim'
p601
tp602
(lp603
(I0
I0
F0.5
g54
tp604
a(I35
I0
I0
g350
tp605
a(I46
I0
F-0.75
g352
tp606
a(I46
I11
F-0.75
g354
tp607
a(I47
I17
F-0.75
g356
tp608
a(I47
I19
F-0.625
g131
tp609
a(I47
I20
F0.25
g133
tp610
a(I80
I0
F-0.375
g184
tp611
a(I93
I2
F0.625
g188
tp612
a(I118
I1
F-0.5
g362
tp613
a(I118
I1
F-0.5
g364
tp614
a(I126
I10
I0
g138
tp615
a(I126
I10
F-0.625
g140
tp616
as(S'screen'
p617
S'resolution'
p618
tp619
(lp620
(I9
I1
I0
S'only'
p621
tp622
a(I9
I1
F1.0
g292
tp623
a(I47
I7
F1.0
S'better'
p624
tp625
a(I98
I0
F-0.25
g294
tp626
a(I155
I1
I0
g298
tp627
a(I172
I6
F-0.25
g300
tp628
as(S'battery'
p629
S'life'
p630
tp631
(lp632
(I46
I5
F1.0
S'good'
p633
tp634
a(I47
I22
I0
S'great'
p635
tp636
a(I101
I3
F1.0
S'good'
p637
tp638
a(I108
I4
F1.0
S'good'
p639
tp640
a(I139
I0
F-0.75
S'short'
p641
tp642
a(I139
I0
I0
S'more'
p643
tp644
a(I139
I0
I0
S'more'
p645
tp646
a(I152
I0
F1.0
S'good'
p647
tp648
a(I152
I0
F0.375
S'content'
p649
tp650
a(I182
I6
F1.0
S'good'
p651
tp652
a(I182
I7
F1.0
S'good'
p653
tp654
as(S'problem'
p655
tp656
(lp657
(I122
I0
I0
S'only'
p658
tp659
a(I135
I3
I0
S'only'
p660
tp661
a(I145
I1
I0
S'only'
p662
tp663
a(I161
I1
F0.125
S'first'
p664
tp665
as(S'one'
p666
S'sim'
p667
tp668
(lp669
(I0
I0
F0.5
g54
tp670
a(I2
I1
F0.125
g171
tp671
a(I22
I1
F-0.625
S'other'
p672
tp673
a(I26
I3
F0.5
g56
tp674
a(I35
I0
I0
g350
tp675
a(I46
I10
F-0.75
S'single'
p676
tp677
a(I46
I11
F-0.125
S'invest'
p678
tp679
a(I46
I11
F-0.75
g354
tp680
a(I47
I17
F-0.75
g356
tp681
a(I47
I19
F-0.625
g131
tp682
a(I47
I20
F0.25
g133
tp683
a(I47
I22
F0.375
S'extra'
p684
tp685
a(I47
I27
I0
S'orange'
p686
tp687
a(I47
I30
I0
g182
tp688
a(I80
I0
F-0.375
g184
tp689
a(I126
I10
I0
g138
tp690
a(I126
I10
F-0.625
g140
tp691
a(I127
I2
F-0.5
g194
tp692
a(I130
I0
F-0.375
S'double'
p693
tp694
a(I185
I3
F0.125
g58
tp695
as(S'back'
p696
tp697
(lp698
(I59
I1
F-0.875
S'trouble'
p699
tp700
as(g520
S'one'
p701
tp702
(lp703
(I46
I11
F-0.125
g678
tp704
as(S'fine'
p705
tp706
(lp707
(I16
I1
F0.5
S'second'
p708
tp709
as(S'life'
p710
tp711
(lp712
(I47
I22
I0
g635
tp713
a(I101
I3
F1.0
g637
tp714
a(I108
I4
F1.0
g639
tp715
a(I139
I0
F-0.75
g641
tp716
a(I152
I0
F0.375
g649
tp717
a(I182
I6
F1.0
g651
tp718
a(I182
I7
F1.0
g653
tp719
as(S'good'
p720
S'battery'
p721
S'life'
p722
tp723
(lp724
(I46
I5
F1.0
g633
tp725
a(I101
I3
F1.0
g637
tp726
a(I108
I4
F1.0
g639
tp727
a(I139
I0
F-0.75
g641
tp728
a(I139
I0
I0
g643
tp729
a(I139
I0
I0
g645
tp730
a(I152
I0
F1.0
g647
tp731
a(I152
I0
F0.375
g649
tp732
a(I182
I6
F1.0
g651
tp733
a(I182
I7
F1.0
g653
tp734
as(S'battery'
p735
tp736
(lp737
(I6
I4
I0
S'inside'
p738
tp739
a(I6
I4
I0
S'next'
p740
tp741
a(I36
I0
F0.125
S'last'
p742
tp743
a(I46
I5
F1.0
g633
tp744
a(I47
I27
F0.625
S'removable'
p745
tp746
a(I47
I27
F0.375
S'extra'
p747
tp748
a(I95
I4
F0.125
S'last'
p749
tp750
a(I102
I2
I0
S'compact'
p751
tp752
a(I139
I0
I0
g643
tp753
a(I139
I0
I0
g645
tp754
a(I147
I7
I0
S'more'
p755
tp756
a(I152
I0
F1.0
g647
tp757
a(I165
I0
I0
S'internet'
p758
tp759
a(I177
I2
F0.125
S'last'
p760
tp761
as(S'smart'
p762
tp763
(lp764
(I11
I0
F0.125
S'first'
p765
tp766
a(I47
I8
I0
S'different'
p767
tp768
a(I59
I2
F-0.25
S'cheaper'
p769
tp770
a(I111
I1
I0
S'great'
p771
tp772
a(I126
I4
F-0.625
S'other'
p773
tp774
a(I182
I3
F0.125
S'first'
p775
tp776
a(I183
I0
F0.125
S'first'
p777
tp778
as(S'samsung'
p779
S'galaxy'
p780
tp781
(lp782
(I47
I4
F0.125
S'electrical'
p783
tp784
as(S'cell'
p785
tp786
(lp787
(I6
I1
F-0.625
S'other'
p788
tp789
a(I60
I0
F0.875
S'attractive'
p790
tp791
a(I96
I0
F1.0
S'good'
p792
tp793
a(I114
I0
F0.375
S'meant'
p794
tp795
a(I114
I0
I0
S'local'
p796
tp797
a(I129
I0
F-0.375
S'small'
p798
tp799
a(I129
I0
F0.125
S'practical'
p800
tp801
a(I129
I0
I0
S'full'
p802
tp803
as(S'calls'
p804
tp805
(lp806
(I49
I0
I0
S'local'
p807
tp808
a(I79
I1
I0
S'same'
p809
tp810
as(S'update'
p811
tp812
(lp813
(I26
I1
I0
S'valuable'
p814
tp815
as(S'galaxy'
p816
g28
tp817
(lp818
(I104
I0
F0.375
S'new'
p819
tp820
a(I182
I4
F0.25
S'bigger'
p821
tp822
as(S'able'
p823
S'to'
p824
S'use'
p825
tp826
(lp827
(I47
I14
F-0.75
S'likely'
p828
tp829
a(I139
I0
F-0.125
S'overall'
p830
tp831
a(I186
I0
F0.125
S'able'
p832
tp833
as(S'time'
p834
tp835
(lp836
(I11
I1
I0
S'normal'
p837
tp838
a(I26
I3
F1.0
S'good'
p839
tp840
a(I26
I3
F-0.625
S'bad'
p841
tp842
a(I31
I3
F0.125
S'last'
p843
tp844
a(I47
I28
F0.5
S'expensive'
p845
tp846
a(I47
I34
I0
S'more'
p847
tp848
a(I54
I9
F0.5
S'strong'
p849
tp850
a(I57
I0
I0
S'same'
p851
tp852
a(I64
I0
F0.125
S'able'
p853
tp854
a(I91
I0
I0
S'same'
p855
tp856
a(I102
I2
F-0.5
S'long'
p857
tp858
a(I103
I2
I0
S'same'
p859
tp860
a(I128
I0
I0
S'same'
p861
tp862
a(I134
I15
I0
S'next'
p863
tp864
a(I134
I16
F0.5
S'whole'
p865
tp866
a(I139
I0
I0
S'same'
p867
tp868
a(I139
I0
I0
S'more'
p869
tp870
a(I161
I0
I0
S'big'
p871
tp872
a(I183
I1
F1.0
S'good'
p873
tp874
as(S'pocket'
p875
tp876
(lp877
(I58
I1
I0
S'great'
p878
tp879
a(I72
I0
F-0.375
S'small'
p880
tp881
a(I72
I0
F0.625
S'easy'
p882
tp883
a(I182
I5
F0.625
S'easy'
p884
tp885
a(I182
I5
I0
S'big'
p886
tp887
as(S'samsung'
p888
S'galaxy'
p889
g28
tp890
(lp891
(I47
I4
F0.125
g783
tp892
as(S'nternal'
p893
S'memory'
p894
tp895
(lp896
(I21
I1
I0
g382
tp897
a(I37
I1
I0
g264
tp898
a(I37
I1
F-0.75
g266
tp899
a(I37
I1
I0
g268
tp900
a(I37
I1
F-0.25
g270
tp901
a(I51
I2
I0
g389
tp902
a(I61
I5
I0
g395
tp903
a(I61
I5
I0
g397
tp904
a(I80
I0
I0
g279
tp905
a(I80
I0
F-0.375
g281
tp906
a(I83
I1
I0
g283
tp907
a(I83
I1
I0
g285
tp908
a(I88
I2
I0
g409
tp909
a(I105
I0
F0.375
g419
tp910
a(I105
I0
I0
g421
tp911
a(I116
I2
I0
g423
tp912
a(I150
I1
I0
g287
tp913
as(S'touch'
p914
S'screen'
p915
tp916
(lp917
(I19
I4
F0.5
S'touch'
p918
tp919
a(I93
I4
F1.0
g63
tp920
a(I93
I4
I0
S'active'
p921
tp922
a(I103
I6
I0
S'wide'
p923
tp924
a(I182
I12
F0.5
S'touch'
p925
tp926
a(I184
I3
I0
g65
tp927
a(I185
I2
F0.25
S'responsive'
p928
tp929
as(S'galaxy'
p930
g28
S'duos'
p931
tp932
(lp933
(I88
I2
F-0.375
g32
tp934
as(S'google'
p935
S'play'
p936
tp937
(lp938
(I133
I14
F-0.25
S'google'
p939
tp940
a(I139
I0
F-0.25
S'google'
p941
tp942
as(S'screen'
p943
tp944
(lp945
(I9
I1
I0
g621
tp946
a(I19
I4
F0.5
g918
tp947
a(I23
I3
I0
S'sensitive'
p948
tp949
a(I46
I8
F0.25
S'responsive'
p950
tp951
a(I47
I7
F1.0
g624
tp952
a(I54
I6
I0
S'sensitive'
p953
tp954
a(I61
I1
F-0.375
S'small'
p955
tp956
a(I67
I8
F-0.25
S'white'
p957
tp958
a(I67
I8
I0
S'entire'
p959
tp960
a(I68
I2
F0.5
S'clear'
p961
tp962
a(I93
I4
I0
g921
tp963
a(I103
I6
I0
g923
tp964
a(I115
I1
F-0.375
S'small'
p965
tp966
a(I142
I8
F-0.375
S'small'
p967
tp968
a(I142
I8
F-0.75
S'painful'
p969
tp970
a(I155
I0
F-0.75
S'bright'
p971
tp972
a(I169
I2
F0.625
S'decent'
p973
tp974
a(I182
I4
F-0.75
S'bright'
p975
tp976
a(I182
I4
F0.25
S'responsive'
p977
tp978
a(I182
I12
F0.5
g925
tp979
a(I185
I2
F0.25
g928
tp980
a(I191
I0
F-0.625
S'light'
p981
tp982
as(S'samsung'
p983
tp984
(lp985
(I45
I7
F0.25
S'original'
p986
tp987
a(I47
I4
F0.125
g783
tp988
a(I68
I1
F-0.625
S'other'
p989
tp990
a(I89
I0
F-0.625
S'other'
p991
tp992
a(I154
I1
F-0.625
S'other'
p993
tp994
as(S'camera'
p995
tp996
(lp997
(I18
I1
F-0.25
S'low'
p998
tp999
a(I18
I3
F1.0
S'better'
p1000
tp1001
a(I18
I3
F1.0
S'better'
p1002
tp1003
a(I47
I7
F1.0
S'better'
p1004
tp1005
a(I47
I12
F0.5
S'willing'
p1006
tp1007
a(I52
I1
F0.875
S'music'
p1008
tp1009
a(I55
I3
F-0.75
S'secondary'
p1010
tp1011
a(I63
I0
I0
S'basic'
p1012
tp1013
a(I93
I12
F1.0
S'good'
p1014
tp1015
a(I139
I0
I0
S'faster'
p1016
tp1017
a(I139
I0
F1.0
S'good'
p1018
tp1019
as(S'f'
p1020
S'use'
p1021
tp1022
(lp1023
(I47
I6
I0
S'old'
p1024
tp1025
a(I47
I14
F-0.75
g828
tp1026
a(I49
I0
F-0.625
S'other'
p1027
tp1028
a(I120
I0
I0
S'great'
p1029
tp1030
a(I121
I1
F-0.75
S'sufficient'
p1031
tp1032
a(I121
I1
I0
S'basic'
p1033
tp1034
a(I123
I0
I0
S'full'
p1035
tp1036
a(I139
I0
F-0.125
g830
tp1037
a(I172
I3
F1.0
S'good'
p1038
tp1039
a(I172
I3
F-0.625
S'light'
p1040
tp1041
a(I186
I0
F0.125
g832
tp1042
as(S'travel'
p1043
tp1044
(lp1045
(I5
I0
F-0.5
S'international'
p1046
tp1047
a(I32
I1
F-0.5
S'international'
p1048
tp1049
a(I142
I4
F-0.5
S'international'
p1050
tp1051
as(S'works'
p1052
S'fine'
p1053
tp1054
(lp1055
(I147
I18
F0.625
S'easy'
p1056
tp1057
as(S'galaxy'
p1058
tp1059
(lp1060
(I104
I0
F0.375
g819
tp1061
a(I182
I4
F0.25
g821
tp1062
as(S'feature'
p1063
tp1064
(lp1065
(I85
I1
I0
S'cool'
p1066
tp1067
a(I104
I8
F0.875
S'nice'
p1068
tp1069
a(I119
I1
F-0.375
S'simple'
p1070
tp1071
a(I119
I1
F0.625
S'easy'
p1072
tp1073
as(S'dual'
p1074
S'sim'
p1075
S'card'
p1076
tp1077
(lp1078
(I47
I19
F-0.625
g131
tp1079
a(I47
I20
F0.25
g133
tp1080
a(I80
I0
F-0.375
g184
tp1081
a(I93
I2
F0.625
g188
tp1082
a(I126
I10
I0
g138
tp1083
a(I126
I10
F-0.625
g140
tp1084
as(S'orange'
p1085
S'store'
p1086
tp1087
(lp1088
(I47
I30
I0
S'many'
p1089
tp1090
as(S'works'
p1091
tp1092
(lp1093
(I0
I0
I0
S'great'
p1094
tp1095
a(I19
I3
I0
S'great'
p1096
tp1097
a(I38
I0
F1.0
S'good'
p1098
tp1099
a(I50
I0
I0
S'great'
p1100
tp1101
a(I77
I1
I0
S'normal'
p1102
tp1103
a(I113
I0
I0
S'net'
p1104
tp1105
a(I120
I3
I0
S'great'
p1106
tp1107
a(I147
I18
F0.625
g1056
tp1108
as(S'better'
p1109
tp1110
(lp1111
(I47
I33
F0.375
S'much'
p1112
tp1113
as(S'call'
p1114
tp1115
(lp1116
(I120
I8
I0
S'standard'
p1117
tp1118
a(I182
I1
F0.625
S'easy'
p1119
tp1120
as(S'system'
p1121
tp1122
(lp1123
(I58
I2
I0
S'same'
p1124
tp1125
a(I88
I4
F0.125
S'first'
p1126
tp1127
a(I110
I3
I0
S'android'
p1128
tp1129
a(I116
I2
F-0.75
S'unable'
p1130
tp1131
a(I116
I2
F0.125
S'first'
p1132
tp1133
a(I127
I4
F0.625
g77
tp1134
a(I127
I4
F0.375
g79
tp1135
a(I136
I0
F-0.5
g81
tp1136
as(S'apps'
p1137
tp1138
(lp1139
(I5
I5
F-0.25
S'modern'
p1140
tp1141
a(I19
I8
I0
S'different'
p1142
tp1143
a(I21
I2
I0
S'few'
p1144
tp1145
a(I56
I1
F0.5
S'functional'
p1146
tp1147
a(I61
I5
F-0.25
S'google'
p1148
tp1149
a(I83
I1
F0.375
S'much'
p1150
tp1151
a(I88
I5
F0.25
S'original'
p1152
tp1153
a(I88
I6
I0
S'few'
p1154
tp1155
a(I93
I4
I0
S'few'
p1156
tp1157
a(I93
I11
I0
S'different'
p1158
tp1159
a(I107
I0
I0
S'few'
p1160
tp1161
a(I110
I3
F0.375
S'available'
p1162
tp1163
a(I116
I4
F0.25
S'eat'
p1164
tp1165
a(I117
I0
I0
S'many'
p1166
tp1167
a(I117
I0
F0.75
S'due'
p1168
tp1169
a(I118
I1
I0
S'sprint'
p1170
tp1171
a(I126
I6
F-0.5
S'sure'
p1172
tp1173
a(I126
I7
I0
S'big'
p1174
tp1175
a(I142
I10
I0
S'many'
p1176
tp1177
a(I142
I10
F0.5
S'possible'
p1178
tp1179
a(I169
I2
I0
S'android'
p1180
tp1181
a(I180
I3
I0
S'basic'
p1182
tp1183
a(I180
I3
I0
S'social'
p1184
tp1185
a(I184
I7
F0.375
S'new'
p1186
tp1187
as(S'days'
p1188
tp1189
(lp1190
(I19
I8
I0
S'full'
p1191
tp1192
a(I99
I1
I0
S'few'
p1193
tp1194
a(I118
I2
I0
S'few'
p1195
tp1196
a(I134
I1
I0
S'few'
p1197
tp1198
a(I134
I1
I0
S'great'
p1199
tp1200
a(I141
I1
F0.125
S'first'
p1201
tp1202
a(I141
I1
I0
S'few'
p1203
tp1204
a(I156
I0
I0
S'few'
p1205
tp1206
a(I182
I7
I0
S'least'
p1207
tp1208
as(S'cards'
p1209
tp1210
(lp1211
(I4
I10
F0.5
S'expensive'
p1212
tp1213
a(I26
I5
F-0.625
g104
tp1214
a(I68
I2
F0.625
g106
tp1215
a(I126
I10
F0.625
g136
tp1216
a(I130
I1
I0
g142
tp1217
as.