(dp0
(S'someone'
p1
S'else'
p2
tp3
(lp4
(I0
I17
F0.375
S'new'
p5
I5
tp6
as(S'battery'
p7
S'life'
p8
tp9
(lp10
(I3
I59
I0
S'great'
p11
I1
tp12
a(I3
I59
F1.0
S'good'
p13
I1
tp14
a(I11
I27
F0.375
S'reliable'
p15
I1
tp16
a(I11
I27
F1.0
S'good'
p17
I1
tp18
a(I3
I4
F-0.5
S'less'
p19
I15
tp20
a(I3
I5
F0.375
S'available'
p21
I15
tp22
a(I11
I27
F0.375
g15
I15
tp23
a(I11
I27
F1.0
g17
I15
tp24
as(S'several'
p25
S'times'
p26
tp27
(lp28
(I1
I97
F-0.875
S'hard'
p29
I4
tp30
a(I16
I101
F0.5
S'touch'
p31
I4
tp32
as(S'slide'
p33
S'out'
p34
S'keyboard'
p35
tp36
(lp37
(I3
I169
F0.625
S'easy'
p38
I0
tp39
a(I16
I44
I0
S'physical'
p40
I0
tp41
a(I1
I77
F0.625
S'easier'
p42
I2
tp43
a(I3
I169
F0.625
g38
I2
tp44
a(I3
I172
F0.625
S'easier'
p45
I2
tp46
a(I6
I13
F0.75
S'due'
p47
I2
tp48
a(I16
I10
I0
S'physical'
p49
I2
tp50
a(I16
I44
I0
g40
I2
tp51
as(S'memory'
p52
tp53
(lp54
(I16
I107
F-0.5
S'try'
p55
I5
tp56
as(S'camera'
p57
tp58
(lp59
(I2
I12
F1.0
S'better'
p60
I1
tp61
a(I6
I29
F1.0
S'best'
p62
I1
tp63
a(I11
I29
F-0.625
S'bad'
p64
I1
tp65
a(I16
I113
F1.0
S'better'
p66
I1
tp67
as(S'bluetooth'
p68
tp69
(lp70
(I3
I83
I0
S'same'
p71
I3
tp72
as(S'a'
p73
S'touch'
p74
S'screen'
p75
tp76
(lp77
(I0
I2
F0.5
S'touch'
p78
I0
tp79
a(I0
I2
F-0.375
S'simple'
p80
I0
tp81
a(I0
I10
F0.5
S'touch'
p82
I0
tp83
a(I1
I14
F0.5
S'touch'
p84
I0
tp85
a(I1
I34
F0.5
S'touch'
p86
I0
tp87
a(I1
I77
F0.25
S'responsive'
p88
I0
tp89
a(I1
I77
F-0.75
S'little'
p90
I0
tp91
a(I3
I0
F0.5
S'touch'
p92
I0
tp93
a(I3
I60
F0.5
S'touch'
p94
I0
tp95
a(I3
I60
I0
S'great'
p96
I0
tp97
a(I3
I77
F0.5
S'touch'
p98
I0
tp99
a(I3
I148
F0.5
S'touch'
p100
I0
tp101
a(I3
I159
I0
S'large'
p102
I0
tp103
a(I3
I159
F0.5
S'clear'
p104
I0
tp105
a(I6
I23
F-0.375
S'crazy'
p106
I0
tp107
a(I6
I23
F0.5
S'touch'
p108
I0
tp109
a(I6
I28
F0.125
S'first'
p110
I0
tp111
a(I6
I38
F0.5
S'touch'
p112
I0
tp113
a(I6
I38
F-0.75
S'difficult'
p114
I0
tp115
a(I12
I29
F-0.375
S'simple'
p116
I0
tp117
a(I12
I35
F0.5
S'touch'
p118
I0
tp119
a(I12
I62
F-0.375
S'small'
p120
I0
tp121
a(I13
I11
F-0.125
S'overall'
p122
I0
tp123
a(I13
I13
F0.5
S'touch'
p124
I0
tp125
a(I15
I0
F-0.375
S'top'
p126
I0
tp127
a(I16
I44
F0.5
S'touch'
p128
I0
tp129
a(I16
I45
F-0.125
S'slow'
p130
I0
tp131
a(I16
I45
F0.5
S'touch'
p132
I0
tp133
a(I16
I52
F0.375
S'honest'
p134
I0
tp135
a(I16
I52
F0.5
S'touch'
p136
I0
tp137
a(I16
I52
I0
S'sensitive'
p138
I0
tp139
a(I16
I101
I0
S'sensitive'
p140
I0
tp141
a(I16
I106
F0.5
S'touch'
p142
I0
tp143
a(I0
I2
F0.5
g78
I2
tp144
a(I0
I2
F-0.375
g80
I2
tp145
a(I0
I10
F0.5
g82
I2
tp146
a(I1
I14
F0.5
g84
I2
tp147
a(I1
I34
F0.5
g86
I2
tp148
a(I1
I77
F0.25
g88
I2
tp149
a(I1
I77
F-0.75
g90
I2
tp150
a(I3
I0
F0.5
g92
I2
tp151
a(I3
I57
F0.125
S'first'
p152
I2
tp153
a(I3
I60
F0.5
g94
I2
tp154
a(I3
I60
I0
g96
I2
tp155
a(I3
I77
F0.5
g98
I2
tp156
a(I3
I148
F0.5
g100
I2
tp157
a(I3
I159
I0
g102
I2
tp158
a(I3
I159
F0.5
g104
I2
tp159
a(I6
I23
F-0.375
g106
I2
tp160
a(I6
I23
F0.5
g108
I2
tp161
a(I6
I28
F0.125
g110
I2
tp162
a(I6
I38
F0.5
g112
I2
tp163
a(I6
I38
F-0.75
g114
I2
tp164
a(I12
I29
F-0.375
g116
I2
tp165
a(I12
I35
F0.5
g118
I2
tp166
a(I12
I62
F-0.375
g120
I2
tp167
a(I13
I11
F-0.125
g122
I2
tp168
a(I13
I13
F0.5
g124
I2
tp169
a(I15
I0
F-0.375
g126
I2
tp170
a(I16
I44
F0.5
g128
I2
tp171
a(I16
I45
F-0.125
g130
I2
tp172
a(I16
I45
F0.5
g132
I2
tp173
a(I16
I52
F0.375
g134
I2
tp174
a(I16
I52
F0.5
g136
I2
tp175
a(I16
I52
I0
g138
I2
tp176
a(I16
I101
I0
g140
I2
tp177
a(I16
I106
F0.5
g142
I2
tp178
as(S'internet'
p179
tp180
(lp181
(I1
I14
I0
S'fast'
p182
I6
tp183
as(S'button'
p184
tp185
(lp186
(I3
I185
I-100
S'84/year'
p187
I19
tp188
as(S'verizon'
p189
tp190
(lp191
(I3
I16
F0.5
S'technical'
p192
I0
tp193
a(I3
I106
F0.625
S'easy'
p194
I0
tp195
a(I3
I120
F-0.625
S'useless'
p196
I0
tp197
a(I16
I1
I0
S'signal'
p198
I0
tp199
as(S'music'
p200
S'player'
p201
tp202
(lp203
(I3
I88
F0.875
S'music'
p204
I0
tp205
a(I3
I90
I0
S'entire'
p206
I0
tp207
as(S'prepaid'
p208
tp209
(lp210
(I0
I0
F1.0
S'best'
p211
I0
tp212
a(I0
I9
F0.125
S'first'
p213
I0
tp214
a(I0
I16
I0
S'great'
p215
I0
tp216
a(I3
I39
I0
S'more'
p217
I0
tp218
a(I3
I39
F-0.625
S'other'
p219
I0
tp220
a(I9
I2
I0
S'current'
p221
I0
tp222
a(I11
I21
F-0.625
S'other'
p223
I0
tp224
a(I13
I8
F-0.625
S'other'
p225
I0
tp226
as(S'sound'
p227
tp228
(lp229
(I1
I88
I0
S'hot'
p230
I7
tp231
a(I3
I93
I0
S'robotic'
p232
I7
tp233
a(I16
I112
F1.0
S'good'
p234
I7
tp235
as(S'smart'
p236
tp237
(lp238
(I3
I148
F-0.25
S'ready'
p239
I10
tp240
a(I3
I182
F0.5
S'true'
p241
I10
tp242
as(S'calls'
p243
tp244
(lp245
(I2
I2
F0.5
S'clear'
p246
I0
tp247
a(I3
I2
F1.0
S'good'
p248
I0
tp249
a(I3
I63
F0.875
S'music'
p250
I0
tp251
a(I3
I68
F0.5
S'clear'
p252
I0
tp253
a(I8
I21
F0.625
S'easy'
p254
I0
tp255
a(I8
I21
F0.125
S'enough'
p256
I0
tp257
as(S'text'
p258
S'messages'
p259
tp260
(lp261
(I3
I140
I0
S'text'
p262
I0
tp263
a(I3
I140
I0
S'more'
p264
I0
tp265
a(I3
I155
F-0.25
S'direct'
p266
I0
tp267
a(I12
I33
F0.25
S'are'
p268
I0
tp269
a(I3
I134
F0.375
S'new'
p270
I18
tp271
a(I3
I155
F-0.25
g266
I18
tp272
a(I12
I33
F0.25
g268
I18
tp273
as(S'customer'
p274
S'service'
p275
tp276
(lp277
(I3
I145
F-0.625
S'bad'
p278
I3
tp279
a(I1
I3
F1.0
S'good'
p280
I16
tp281
a(I16
I82
I0
S'anymore'
p282
I16
tp283
as(S'exact'
p284
S'same'
p285
tp286
(lp287
(I1
I55
I0
S'exact'
p288
I2
tp289
a(I3
I19
I0
S'exact'
p290
I2
tp291
a(I12
I3
I0
S'exact'
p292
I2
tp293
as(S'texting'
p294
tp295
(lp296
(I3
I24
I0
S'great'
p297
I0
tp298
a(I6
I25
F0.875
S'nice'
p299
I0
tp300
a(I9
I3
I0
S'same'
p301
I0
tp302
as(S'mp3'
p303
S'player'
p304
tp305
(lp306
(I3
I75
I0
S'basic'
p307
I1
tp308
a(I7
I2
I0
S'big'
p309
I1
tp310
a(I7
I2
F0.625
S'easy'
p311
I1
tp312
as.