(dp0
(S'seller'
p1
tp2
(lp3
(I3
I43
F-0.75
S'unable'
p4
I19
tp5
a(I3
I43
F-0.75
S'unable'
p6
I19
tp7
a(I17
I46
F0.5
S'possible'
p8
I19
tp9
a(I22
I13
I0
S'more'
p10
I19
tp11
as(S'ear'
p12
S'buds'
p13
tp14
(lp15
(I6
I52
F0.75
S'ear'
p16
I0
tp17
a(I16
I5
F0.75
S'ear'
p18
I0
tp19
as(S'new'
p20
S'condition'
p21
tp22
(lp23
(I6
I55
F0.375
S'new'
p24
I4
tp25
as(S'battery'
p26
S'life'
p27
tp28
(lp29
(I4
I8
F0.625
S'easy'
p30
I1
tp31
a(I4
I8
F-0.125
S'overall'
p32
I1
tp33
a(I6
I15
F1.0
S'good'
p34
I1
tp35
a(I15
I26
F0.5
S'crucial'
p36
I1
tp37
a(I19
I0
F-0.875
S'worst'
p38
I1
tp39
a(I27
I48
F1.0
S'best'
p40
I1
tp41
a(I29
I9
F-0.875
S'awful'
p42
I1
tp43
a(I4
I8
F-0.125
g32
I19
tp44
a(I15
I26
F0.5
g36
I19
tp45
a(I19
I0
F-0.875
g38
I19
tp46
a(I21
I21
F-0.5
S'long'
p47
I19
tp48
a(I27
I48
F1.0
g40
I19
tp49
a(I29
I9
F-0.875
g42
I19
tp50
a(I4
I8
F0.625
g30
I15
tp51
a(I5
I10
I0
S'incredible'
p52
I15
tp53
a(I6
I15
F1.0
g34
I15
tp54
a(I6
I24
F-0.5
S'less'
p55
I15
tp56
a(I17
I6
F0.125
S'last'
p57
I15
tp58
a(I17
I50
F0.125
S'last'
p59
I15
tp60
a(I18
I14
F0.125
S'last'
p61
I15
tp62
a(I21
I27
I0
S'same'
p63
I15
tp64
a(I21
I27
F0.25
S'bigger'
p65
I15
tp66
a(I26
I10
I0
S'full'
p67
I15
tp68
a(I26
I61
F0.375
S'new'
p69
I15
tp70
a(I26
I62
F0.375
S'extended'
p71
I15
tp72
a(I26
I63
F0.25
S'original'
p73
I15
tp74
as(S'internet'
p75
tp76
(lp77
(I3
I11
F-0.125
S'slow'
p78
I6
tp79
a(I21
I3
I-100
S'argee'
p80
I6
tp81
a(I25
I3
I0
S'great'
p82
I6
tp83
as(S'motorola'
p84
tp85
(lp86
(I25
I12
I0
S'own'
p87
I0
tp88
a(I27
I36
I0
S'old'
p89
I0
tp90
as(S'droid'
p91
S'razr'
p92
tp93
(lp94
(I3
I31
F0.375
S'new'
p95
I0
tp96
a(I13
I0
F0.25
S'refurbished'
p97
I0
tp98
a(I13
I16
F0.25
S'favorite'
p99
I0
tp100
a(I26
I20
F0.875
S'happy'
p101
I0
tp102
a(I0
I10
I0
S'same'
p103
I0
tp104
a(I13
I16
F0.25
g99
I0
tp105
a(I26
I27
F0.375
S'new'
p106
I0
tp107
a(I27
I5
F0.25
S'original'
p108
I0
tp109
a(I27
I41
F0.375
S'new'
p110
I0
tp111
as(S'original'
p112
S'box'
p113
tp114
(lp115
(I3
I32
F0.25
S'original'
p116
I2
tp117
a(I3
I51
F0.25
S'original'
p118
I2
tp119
a(I17
I37
F0.375
S'new'
p120
I2
tp121
a(I17
I37
F0.25
S'original'
p122
I2
tp123
as(S'a'
p124
S'sim'
p125
S'card'
p126
tp127
(lp128
(I6
I0
F-0.625
S'other'
p129
I0
tp130
a(I6
I19
F0.375
S'new'
p131
I0
tp132
a(I6
I19
F-0.625
S'free'
p133
I0
tp134
a(I6
I29
F0.375
S'new'
p135
I0
tp136
a(I26
I17
F0.125
S'able'
p137
I0
tp138
a(I27
I11
I0
S'different'
p139
I0
tp140
a(I6
I0
F-0.625
g129
I0
tp141
a(I6
I19
F0.375
g131
I0
tp142
a(I6
I19
F-0.625
g133
I0
tp143
a(I6
I29
F0.375
g135
I0
tp144
a(I26
I17
F0.125
g137
I0
tp145
a(I27
I11
I0
g139
I0
tp146
as(S'replacement'
p147
tp148
(lp149
(I25
I16
I0
S'needed'
p150
I13
tp151
as(S'apps'
p152
tp153
(lp154
(I3
I23
F0.375
S'new'
p155
I0
tp156
a(I6
I22
I0
S'own'
p157
I0
tp158
a(I11
I1
F0.625
S'easy'
p159
I0
tp160
a(I11
I1
I0
S'many'
p161
I0
tp162
a(I11
I1
I0
S'useful'
p163
I0
tp164
a(I11
I1
F0.125
S'able'
p165
I0
tp166
as(S'amazon'
p167
tp168
(lp169
(I26
I78
F-0.25
S'disappointed'
p170
I13
tp171
as(S'verizon'
p172
S'store'
p173
tp174
(lp175
(I26
I22
I0
S'local'
p176
I0
tp177
a(I6
I30
F-0.75
S'secondary'
p178
I0
tp179
a(I18
I22
I0
S'old'
p180
I0
tp181
a(I26
I22
I0
g176
I0
tp182
as(S'camera'
p183
tp184
(lp185
(I3
I21
F0.75
S'beautiful'
p186
I1
tp187
a(I10
I4
F0.625
S'fair'
p188
I1
tp189
a(I10
I4
F-0.5
S'poor'
p190
I1
tp191
a(I18
I0
I0
S'great'
p192
I1
tp193
a(I26
I13
F-0.625
S'bad'
p194
I1
tp195
as(S'charging'
p196
tp197
(lp198
(I17
I28
F0.375
S'new'
p199
I12
tp200
a(I17
I28
I0
S'cable'
p201
I12
tp202
a(I21
I19
I0
S'wish'
p203
I12
tp204
as(S'speaker'
p205
tp206
(lp207
(I16
I5
I0
S'external'
p208
I8
tp209
as.