(dp0
(S'blackberry'
p1
S'curve'
p2
tp3
(lp4
(I17
I7
F-0.75
S'little'
p5
I0
tp6
a(I1
I5
F0.875
S'nice'
p7
I1
tp8
a(I1
I5
F-0.375
S'small'
p9
I1
tp10
a(I3
I0
F1.0
S'best'
p11
I1
tp12
a(I12
I0
F1.0
S'best'
p13
I1
tp14
a(I13
I1
F0.25
S'favorite'
p15
I1
tp16
a(I17
I7
F-0.75
g5
I1
tp17
as.