(dp0
(S'battery'
p1
S'life'
p2
tp3
(lp4
(I7
I53
F1.0
S'good'
p5
I1
tp6
a(I0
I30
F-0.75
S'dead'
p7
I15
tp8
a(I1
I110
F-0.625
S'bad'
p9
I15
tp10
a(I4
I4
I0
S'same'
p11
I15
tp12
a(I6
I14
F0.375
S'complete'
p13
I15
tp14
a(I7
I3
F0.375
S'new'
p15
I15
tp16
a(I12
I11
I0
S'great'
p17
I15
tp18
as(S'keyboard'
p19
tp20
(lp21
(I0
I50
I0
S'physical'
p22
I2
tp23
a(I1
I7
F-0.75
S'difficult'
p24
I2
tp25
a(I1
I43
I0
S'large'
p26
I2
tp27
a(I1
I43
F-0.625
S'other'
p28
I2
tp29
a(I3
I1
I0
S'great'
p30
I2
tp31
a(I7
I30
I0
S'large'
p32
I2
tp33
a(I8
I10
I0
S'sturdy'
p34
I2
tp35
a(I8
I10
F0.25
S'larger'
p36
I2
tp37
a(I12
I4
F0.625
S'easy'
p38
I2
tp39
as(S'text'
p40
tp41
(lp42
(I1
I62
F0.5
S'functional'
p43
I18
tp44
a(I1
I62
F0.125
S'able'
p45
I18
tp46
as(S'octane'
p47
S'cell'
p48
tp49
(lp50
(I1
I40
F-0.625
S'other'
p51
I0
tp52
a(I1
I109
I0
S'old'
p53
I0
tp54
a(I7
I20
F0.5
S'second'
p55
I0
tp56
a(I9
I10
F0.375
S'available'
p57
I0
tp58
as(S'texting'
p59
tp60
(lp61
(I0
I3
F0.75
S'constant'
p62
I0
tp63
as(S'verizon'
p64
tp65
(lp66
(I1
I1
F0.625
S'easy'
p67
I0
tp68
a(I1
I98
F0.375
S'available'
p69
I0
tp70
a(I6
I9
F0.375
S'new'
p71
I0
tp72
a(I7
I17
F-0.625
S'other'
p73
I0
tp74
a(I7
I17
I0
S'anymore'
p75
I0
tp76
a(I10
I19
F0.375
S'new'
p77
I0
tp78
as.