(dp0
(S'times'
p1
tp2
(lp3
(I19
I10
I0
S'few'
p4
tp5
a(I67
I4
F-0.625
S'other'
p6
tp7
a(I89
I3
I0
S'few'
p8
tp9
a(I131
I1
I0
S'faster'
p10
tp11
as(S'problem'
p12
tp13
(lp14
(I19
I12
I0
S'only'
p15
tp16
a(I83
I0
F0.625
S'major'
p17
tp18
a(I111
I5
I0
S'bionic'
p19
tp20
as(S'new'
p21
S'condition'
p22
tp23
(lp24
(I45
I0
F0.375
S'new'
p25
tp26
as(S'battery'
p27
S'life'
p28
tp29
(lp30
(I28
I0
F0.625
S'easy'
p31
tp32
a(I28
I0
F-0.125
S'overall'
p33
tp34
a(I35
I6
F1.0
S'good'
p35
tp36
a(I59
I6
F1.0
S'best'
p37
tp38
a(I59
I6
F-0.625
S'bad'
p39
tp40
a(I68
I20
F0.5
S'crucial'
p41
tp42
a(I92
I0
F-0.875
S'worst'
p43
tp44
a(I134
I0
F1.0
S'best'
p45
tp46
a(I139
I1
I0
S'same'
p47
tp48
a(I139
I1
I0
S'old'
p49
tp50
a(I139
I1
I0
S'bionic'
p51
tp52
a(I146
I7
F-0.875
S'awful'
p53
tp54
as(S'purchase'
p55
tp56
(lp57
(I20
I0
F0.875
S'happy'
p58
tp59
a(I74
I2
F0.875
S'happy'
p60
tp61
a(I141
I0
F1.0
S'good'
p62
tp63
a(I141
I2
F0.125
S'last'
p64
tp65
as(S'droid'
p66
tp67
(lp68
(I20
I0
F0.375
S'new'
p69
tp70
a(I59
I0
F0.25
S'refurbished'
p71
tp72
a(I120
I0
F0.875
S'happy'
p73
tp74
as(S'charging'
p75
tp76
(lp77
(I79
I1
F0.375
S'new'
p78
tp79
a(I79
I1
I0
S'cable'
p80
tp81
as(S'motorola'
p82
tp83
(lp84
(I111
I4
I0
S'own'
p85
tp86
a(I131
I1
I0
S'old'
p87
tp88
as(S'condition'
p89
tp90
(lp91
(I45
I0
F0.375
g25
tp92
a(I78
I3
I0
S'great'
p93
tp94
a(I79
I0
F1.0
S'better'
p95
tp96
a(I99
I0
I0
S'great'
p97
tp98
a(I99
I0
I0
S'mint'
p99
tp100
as(S'screen'
p101
tp102
(lp103
(I24
I2
I0
S'plastic'
p104
tp105
a(I34
I0
F-0.375
S'black'
p106
tp107
a(I38
I1
F-0.75
S'unresponsive'
p108
tp109
a(I40
I2
F-0.125
S'slow'
p110
tp111
a(I59
I6
F0.875
S'nice'
p112
tp113
a(I59
I6
F0.5
S'clear'
p114
tp115
a(I85
I0
F1.0
S'good'
p116
tp117
as(S'everything'
p118
tp119
(lp120
(I20
I2
F-0.375
S'smooth'
p121
tp122
a(I62
I1
F0.5
S'reasonable'
p123
tp124
a(I84
I0
F-0.625
S'other'
p125
tp126
as(S'verizon'
p127
S'store'
p128
tp129
(lp130
(I120
I2
I0
S'local'
p131
tp132
as(S'camera'
p133
tp134
(lp135
(I19
I4
F0.75
S'beautiful'
p136
tp137
a(I35
I6
F1.0
S'good'
p138
tp139
a(I53
I4
F0.625
S'fair'
p140
tp141
a(I53
I4
F-0.5
S'poor'
p142
tp143
a(I85
I0
I0
S'great'
p144
tp145
a(I116
I12
F-0.625
S'bad'
p146
tp147
as(S'motorola'
p148
S'droid'
p149
tp150
(lp151
(I111
I4
I0
g85
tp152
a(I131
I1
I0
g87
tp153
as(S'life'
p154
tp155
(lp156
(I28
I0
F-0.125
g33
tp157
a(I59
I6
F1.0
g37
tp158
a(I59
I6
F-0.625
g39
tp159
a(I68
I20
F0.5
g41
tp160
a(I92
I0
F-0.875
g43
tp161
a(I98
I3
F-0.5
S'long'
p162
tp163
a(I134
I0
F1.0
g45
tp164
a(I139
I1
I0
g47
tp165
a(I139
I1
I0
g49
tp166
a(I139
I1
I0
g51
tp167
a(I146
I7
F-0.875
g53
tp168
as(S'right'
p169
tp170
(lp171
(I24
I5
F-0.375
S'top'
p172
tp173
a(I24
I7
F-0.25
S'lower'
p174
tp175
a(I39
I2
F-0.375
S'manual'
p176
tp177
as(S'droid'
p178
S'razr'
p179
tp180
(lp181
(I20
I0
F0.375
g69
tp182
a(I59
I0
F0.25
g71
tp183
a(I61
I2
F0.25
S'favorite'
p184
tp185
a(I120
I0
F0.875
g73
tp186
as(S'verizon'
p187
tp188
(lp189
(I39
I2
F-0.75
S'secondary'
p190
tp191
a(I90
I0
I0
S'old'
p192
tp193
a(I120
I2
I0
g131
tp194
as(S'price'
p195
tp196
(lp197
(I28
I0
F0.75
S'worth'
p198
tp199
a(I47
I4
I0
S'latest'
p200
tp201
a(I47
I4
F-0.25
S'highest'
p202
tp203
a(I47
I4
I0
S'most'
p204
tp205
a(I108
I0
F0.5
S'reasonable'
p206
tp207
a(I114
I0
I0
S'great'
p208
tp209
as(S'seller'
p210
tp211
(lp212
(I23
I0
F-0.75
S'unable'
p213
tp214
a(I23
I0
F-0.75
S'unable'
p215
tp216
a(I82
I6
F0.5
S'possible'
p217
tp218
a(I105
I2
I0
S'more'
p219
tp220
as(S'ear'
p221
S'buds'
p222
tp223
(lp224
(I44
I3
F0.75
S'ear'
p225
tp226
a(I71
I0
F0.75
S'ear'
p227
tp228
as(S'works'
p229
tp230
(lp231
(I0
I2
I0
S'great'
p232
tp233
a(I8
I0
F0.875
S'nice'
p234
tp235
a(I16
I0
I0
S'advertized'
p236
tp237
a(I16
I0
I0
S'great'
p238
tp239
a(I108
I0
I0
S'great'
p240
tp241
a(I122
I6
F0.5
S'functional'
p242
tp243
a(I142
I2
I0
S'great'
p244
tp245
as(S'product'
p246
tp247
(lp248
(I56
I0
F-0.5
S'actual'
p249
tp250
a(I62
I0
I0
S'great'
p251
tp252
a(I63
I0
F1.0
S'good'
p253
tp254
a(I107
I0
F0.875
S'happy'
p255
tp256
as(S'battery'
p257
tp258
(lp259
(I28
I0
F0.625
g31
tp260
a(I31
I1
I0
S'incredible'
p261
tp262
a(I35
I6
F1.0
g35
tp263
a(I38
I3
F-0.5
S'less'
p264
tp265
a(I75
I2
F0.125
S'last'
p266
tp267
a(I84
I0
F0.125
S'last'
p268
tp269
a(I89
I1
F0.125
S'last'
p270
tp271
a(I101
I1
I0
S'same'
p272
tp273
a(I101
I1
F0.25
S'bigger'
p274
tp275
a(I116
I10
I0
S'full'
p276
tp277
a(I122
I1
F0.375
S'new'
p278
tp279
a(I122
I2
F0.375
S'extended'
p280
tp281
a(I122
I3
F0.25
S'original'
p282
tp283
as(S'original'
p284
S'box'
p285
tp286
(lp287
(I20
I1
F0.25
S'original'
p288
tp289
a(I24
I5
F0.25
S'original'
p290
tp291
a(I82
I0
F0.375
S'new'
p292
tp293
a(I82
I0
F0.25
S'original'
p294
tp295
as(S'sim'
p296
S'card'
p297
tp298
(lp299
(I32
I0
F-0.625
S'other'
p300
tp301
a(I37
I1
F0.375
S'new'
p302
tp303
a(I37
I1
F-0.625
S'free'
p304
tp305
a(I39
I1
F0.375
S'new'
p306
tp307
a(I119
I0
F0.125
S'able'
p308
tp309
a(I127
I2
I0
S'different'
p310
tp311
as(S'charge'
p312
tp313
(lp314
(I44
I0
F-0.25
S'battery'
p315
tp316
a(I44
I0
F-0.5
S'long'
p317
tp318
a(I47
I6
I0
S'full'
p319
tp320
as(S'speaker'
p321
tp322
(lp323
(I71
I0
I0
S'external'
p324
tp325
as(S'pretty'
p326
tp327
(lp328
(I145
I0
F0.375
S'new'
p329
tp330
as(S'brand'
p331
tp332
(lp333
(I1
I2
F0.375
S'new'
p334
tp335
a(I9
I0
F0.375
S'new'
p336
tp337
a(I12
I1
F0.375
S'new'
p338
tp339
a(I22
I2
F0.375
S'new'
p340
tp341
a(I54
I1
F-0.25
S'ready'
p342
tp343
a(I54
I1
F0.375
S'new'
p344
tp345
a(I72
I0
F0.375
S'new'
p346
tp347
a(I74
I1
F0.375
S'new'
p348
tp349
a(I80
I0
F0.375
S'new'
p350
tp351
a(I123
I0
F0.375
S'new'
p352
tp353
a(I138
I0
F0.375
S'new'
p354
tp355
a(I138
I0
F-0.25
S'ready'
p356
tp357
as(S'time'
p358
tp359
(lp360
(I0
I0
F0.125
S'last'
p361
tp362
a(I26
I0
F-0.5
S'long'
p363
tp364
a(I38
I0
F-0.75
S'worse'
p365
tp366
a(I110
I2
F-0.875
S'hard'
p367
tp368
a(I128
I3
F-0.75
S'short'
p369
tp370
a(I140
I1
F-0.5
S'long'
p371
tp372
as(S'card'
p373
tp374
(lp375
(I37
I1
F0.375
g302
tp376
a(I37
I1
F-0.625
g304
tp377
a(I39
I1
F0.375
g306
tp378
as(S'charger'
p379
tp380
(lp381
(I39
I4
F-0.625
S'bad'
p382
tp383
a(I70
I4
F1.0
S'better'
p384
tp385
a(I82
I6
F0.375
S'new'
p386
tp387
a(I95
I1
I0
S'external'
p388
tp389
a(I116
I9
I0
S'wherever'
p390
tp391
as(S'a'
p392
S'sim'
p393
S'card'
p394
tp395
(lp396
(I32
I0
F-0.625
g300
tp397
a(I37
I1
F0.375
g302
tp398
a(I37
I1
F-0.625
g304
tp399
a(I39
I1
F0.375
g306
tp400
a(I119
I0
F0.125
g308
tp401
a(I127
I2
I0
g310
tp402
as(S'razr'
p403
tp404
(lp405
(I2
I0
I0
S'same'
p406
tp407
a(I61
I2
F0.25
g184
tp408
a(I120
I7
F0.375
S'new'
p409
tp410
a(I126
I0
F0.25
S'original'
p411
tp412
a(I132
I2
F0.375
S'new'
p413
tp414
as(S'apps'
p415
tp416
(lp417
(I19
I6
F0.375
S'new'
p418
tp419
a(I38
I1
I0
S'own'
p420
tp421
a(I57
I1
F0.625
S'easy'
p422
tp423
a(I57
I1
I0
S'many'
p424
tp425
a(I57
I1
I0
S'useful'
p426
tp427
as(S'days'
p428
tp429
(lp430
(I49
I10
F0.5
S'crucial'
p431
tp432
a(I49
I10
F0.375
S'busy'
p433
tp434
a(I75
I2
F0.625
S'easy'
p435
tp436
a(I132
I0
I0
S'few'
p437
tp438
as(S'fast'
p439
tp440
(lp441
(I144
I0
I0
S'great'
p442
tp443
as(S'every'
p444
tp445
(lp446
(I147
I1
I0
S'own'
p447
tp448
as.