(dp0
(S'android'
p1
tp2
(lp3
(I0
I18
F0.375
S'new'
p4
I0
tp5
a(I3
I0
F0.125
S'first'
p6
I0
tp7
a(I4
I17
F1.0
S'best'
p8
I0
tp9
a(I5
I9
F1.0
S'best'
p10
I0
tp11
a(I5
I19
F1.0
S'best'
p12
I0
tp13
a(I6
I39
F0.125
S'first'
p14
I0
tp15
a(I6
I39
F0.125
S'last'
p16
I0
tp17
a(I10
I46
I0
S'more'
p18
I0
tp19
a(I10
I46
F0.5
S'functional'
p20
I0
tp21
a(I11
I6
F1.0
S'best'
p22
I0
tp23
a(I16
I48
I0
S'different'
p24
I0
tp25
a(I16
I57
F-0.625
S'other'
p26
I0
tp27
as(S'updates'
p28
tp29
(lp30
(I5
I7
F-0.25
S'google'
p31
I12
tp32
a(I5
I12
I0
S'fast'
p33
I12
tp34
a(I6
I22
I0
S'immediate'
p35
I12
tp36
a(I8
I44
I0
S'latest'
p37
I12
tp38
as(S'ice'
p39
S'cream'
p40
tp41
(lp42
(I15
I9
F1.0
S'better'
p43
I2
tp44
as(S'battery'
p45
S'life'
p46
tp47
(lp48
(I8
I32
F0.625
S'add'
p49
I1
tp50
a(I8
I51
F1.0
S'better'
p51
I1
tp52
a(I11
I21
F1.0
S'good'
p53
I1
tp54
a(I12
I6
F-0.625
S'bad'
p55
I1
tp56
a(I14
I16
F1.0
S'good'
p57
I1
tp58
a(I8
I46
F0.375
S'extra'
p59
I15
tp60
a(I8
I51
F1.0
g51
I15
tp61
a(I14
I16
F1.0
g57
I15
tp62
as(S'apple'
p63
tp64
(lp65
(I10
I19
F0.625
S'convenient'
p66
I4
tp67
as(S'galaxy'
p68
S'nexus'
p69
tp70
(lp71
(I5
I13
F-0.125
S'slouch'
p72
I0
tp73
a(I5
I14
I0
S'adequate'
p74
I0
tp75
a(I5
I15
F0.125
S'first'
p76
I0
tp77
a(I5
I15
F-0.125
S'bean'
p78
I0
tp79
a(I8
I0
F0.625
S'perfect'
p80
I0
tp81
a(I8
I18
F0.5
S'second'
p82
I0
tp83
a(I8
I51
F0.375
S'much'
p84
I0
tp85
a(I8
I54
F0.375
S'newest'
p86
I0
tp87
a(I9
I0
F-0.25
S'white'
p88
I0
tp89
a(I6
I27
F-0.625
S'other'
p90
I0
tp91
a(I8
I0
F0.625
g80
I0
tp92
a(I8
I18
F0.5
g82
I0
tp93
a(I8
I23
F1.0
S'good'
p94
I0
tp95
a(I8
I35
F-0.875
S'harder'
p96
I0
tp97
a(I8
I41
F-0.625
S'other'
p98
I0
tp99
a(I8
I51
F0.375
g84
I0
tp100
a(I9
I0
F-0.25
g88
I0
tp101
a(I16
I35
F0.375
S'similar'
p102
I0
tp103
as(S'iphone'
p104
tp105
(lp106
(I6
I65
F-0.25
S'cheaper'
p107
I1
tp108
a(I8
I23
F-0.25
S'thinner'
p109
I1
tp110
a(I8
I23
F-0.625
S'lighter'
p111
I1
tp112
a(I8
I27
I0
S'old'
p113
I1
tp114
a(I8
I46
F0.625
S'easy'
p115
I1
tp116
a(I10
I11
F0.625
S'easy'
p117
I1
tp118
a(I10
I14
F-0.625
S'unlike'
p119
I1
tp120
a(I10
I52
F-0.625
S'other'
p121
I1
tp122
a(I10
I62
I0
S'metal'
p123
I1
tp124
as(S'galaxy'
p125
S's3'
p126
tp127
(lp128
(I5
I13
F-0.125
g72
I0
tp129
a(I5
I15
F0.125
g76
I0
tp130
a(I5
I15
F-0.125
g78
I0
tp131
a(I8
I54
F0.375
g86
I0
tp132
a(I1
I9
I0
S'old'
p133
I0
tp134
a(I5
I13
F-0.125
g72
I0
tp135
a(I5
I14
I0
g74
I0
tp136
a(I5
I15
F0.125
g76
I0
tp137
a(I5
I15
F-0.125
g78
I0
tp138
a(I8
I54
F0.375
g86
I0
tp139
as(S'google'
p140
S'play'
p141
tp142
(lp143
(I3
I2
F-0.25
S'google'
p144
I0
tp145
a(I8
I36
F-0.5
S'less'
p146
I0
tp147
a(I8
I41
F0.125
S'popular'
p148
I0
tp149
a(I8
I36
F-0.5
g146
I4
tp150
a(I8
I41
F0.125
g148
I4
tp151
as(S'minor'
p152
S'issue'
p153
tp154
(lp155
(I10
I71
F-0.75
S'minor'
p156
I2
tp157
as(S'form'
p158
S'factor'
p159
tp160
(lp161
(I8
I11
F0.625
S'convenient'
p162
I1
tp163
as(S'low'
p164
S'volume'
p165
tp166
(lp167
(I8
I57
F-0.25
S'low'
p168
I0
tp169
a(I8
I63
F-0.25
S'low'
p170
I0
tp171
a(I10
I76
F-0.25
S'low'
p172
I0
tp173
a(I12
I14
F-0.25
S'low'
p174
I0
tp175
a(I8
I57
F-0.25
g168
I6
tp176
a(I8
I63
F-0.25
g170
I6
tp177
a(I10
I76
F-0.25
g172
I6
tp178
a(I12
I14
F-0.25
g174
I6
tp179
as(S'apps'
p180
tp181
(lp182
(I6
I60
F-0.625
S'other'
p183
I0
tp184
a(I8
I1
F-0.25
S'google'
p185
I0
tp186
as(S'camera'
p187
tp188
(lp189
(I6
I63
F0.625
S'decent'
p190
I1
tp191
a(I6
I63
I0
S'great'
p192
I1
tp193
a(I8
I5
I0
S'fast'
p194
I1
tp195
a(I11
I23
F0.625
S'decent'
p196
I1
tp197
a(I11
I30
F0.25
S'responsive'
p198
I1
tp199
as.