(dp0
(S'virgin'
p1
S'mobile'
p2
tp3
(lp4
(I1
I42
I0
S'mobile'
p5
I0
tp6
a(I2
I6
F0.25
S'helpful'
p7
I0
tp8
a(I1
I42
I0
g5
I0
tp9
a(I8
I21
F0.5
S'expensive'
p10
I0
tp11
a(I8
I21
I0
S'local'
p12
I0
tp13
a(I2
I6
F0.25
g7
I0
tp14
as(S'battery'
p15
S'life'
p16
tp17
(lp18
(I1
I49
F0.5
S'assist'
p19
I1
tp20
a(I2
I18
F-0.75
S'short'
p21
I1
tp22
a(I5
I0
F-0.625
S'bad'
p23
I1
tp24
a(I5
I0
F0.125
S'last'
p25
I1
tp26
a(I8
I8
F-0.25
S'low'
p27
I1
tp28
a(I15
I17
F-0.25
S'battery'
p29
I1
tp30
a(I16
I19
F-0.625
S'bad'
p31
I1
tp32
a(I20
I15
F-0.75
S'short'
p33
I1
tp34
a(I20
I23
F-0.75
S'short'
p35
I1
tp36
a(I5
I0
F-0.625
g23
I19
tp37
a(I5
I0
F0.125
g25
I19
tp38
a(I6
I27
I0
S'such'
p39
I19
tp40
a(I8
I8
F-0.25
g27
I19
tp41
a(I15
I17
F-0.25
g29
I19
tp42
a(I20
I15
F-0.75
g33
I19
tp43
a(I20
I23
F-0.75
g35
I19
tp44
a(I1
I49
F0.5
g19
I15
tp45
a(I2
I10
F-0.375
S'wear'
p46
I15
tp47
a(I2
I18
F-0.75
g21
I15
tp48
a(I2
I49
F0.125
S'last'
p49
I15
tp50
a(I2
I49
F0.375
S'much'
p51
I15
tp52
a(I5
I44
I0
S'android'
p53
I15
tp54
a(I8
I1
F-0.5
S'weak'
p55
I15
tp56
a(I10
I0
F-0.625
S'bad'
p57
I15
tp58
a(I16
I19
F-0.625
g31
I15
tp59
a(I17
I9
I0
S'awhile'
p60
I15
tp61
a(I21
I1
F-0.75
S'dead'
p62
I15
tp63
as(S'keyboard'
p64
tp65
(lp66
(I2
I45
F0.625
S'easy'
p67
I2
tp68
a(I2
I50
F-0.375
S'small'
p69
I2
tp70
a(I5
I49
F-0.125
S'slow'
p71
I2
tp72
a(I6
I9
F-0.375
S'small'
p73
I2
tp74
a(I7
I7
F1.0
S'good'
p75
I2
tp76
a(I8
I31
F0.875
S'nice'
p77
I2
tp78
a(I9
I4
F-0.375
S'small'
p79
I2
tp80
a(I9
I46
I0
S'full'
p81
I2
tp82
a(I9
I60
F-0.75
S'worse'
p83
I2
tp84
a(I9
I62
I0
S'touchscreen'
p85
I2
tp86
a(I9
I94
I0
S'physical'
p87
I2
tp88
a(I21
I6
I0
S'physical'
p89
I2
tp90
a(I21
I7
I0
S'physical'
p91
I2
tp92
as(S'keys'
p93
tp94
(lp95
(I2
I31
F-0.5
S'flimsy'
p96
I9
tp97
a(I2
I31
I0
S'plastic'
p98
I9
tp99
a(I5
I10
F-0.75
S'dark'
p100
I9
tp101
a(I5
I11
F-0.375
S'small'
p102
I9
tp103
a(I5
I11
F0.625
S'easy'
p104
I9
tp105
a(I15
I15
F0.25
S'wedge-shaped'
p106
I9
tp107
as(S'google'
p108
S'play'
p109
tp110
(lp111
(I19
I0
F-0.25
S'google'
p112
I0
tp113
as(S'deal'
p114
S'breaker'
p115
tp116
(lp117
(I6
I22
I0
S'instant'
p118
I0
tp119
as(S'camera'
p120
tp121
(lp122
(I0
I6
F-0.875
S'worst'
p123
I1
tp124
a(I0
I6
I0
S'android'
p125
I1
tp126
a(I9
I66
F-0.5
S'poor'
p127
I1
tp128
a(I11
I32
F1.0
S'best'
p129
I1
tp130
as(S'operating'
p131
S'system'
p132
tp133
(lp134
(I5
I14
F-0.5
S'sure'
p135
I2
tp136
as(S'venture'
p137
tp138
(lp139
(I2
I19
F0.625
S'perfect'
p140
I2
tp141
a(I9
I41
F0.75
S'worth'
p142
I2
tp143
as(S'times'
p144
S'a'
p145
S'day'
p146
tp147
(lp148
(I11
I37
I0
S'least'
p149
I0
tp150
as(S'android'
p151
tp152
(lp153
(I3
I3
F0.125
S'first'
p154
I0
tp155
a(I5
I7
F0.125
S'first'
p156
I0
tp157
a(I7
I8
I0
S'few'
p158
I0
tp159
a(I11
I18
I0
S'latest'
p160
I0
tp161
a(I11
I22
I0
S'most'
p162
I0
tp163
a(I15
I12
F0.125
S'typical'
p164
I0
tp165
a(I15
I18
I0
S'subsequent'
p166
I0
tp167
as(S'youtube'
p168
S'videos'
p169
tp170
(lp171
(I21
I8
F0.5
S'clear'
p172
I2
tp173
a(I9
I74
F0.5
S'personal'
p174
I8
tp175
a(I16
I11
F0.875
S'music'
p176
I8
tp177
a(I21
I8
F0.5
g172
I8
tp178
as(S'calls'
p179
tp180
(lp181
(I3
I5
I0
S'blue'
p182
I0
tp183
a(I6
I30
F-0.5
S'unlimited'
p184
I0
tp185
a(I9
I21
F-0.25
S'dropped'
p186
I0
tp187
as(S'blackberry'
p188
tp189
(lp190
(I9
I34
F0.375
S'much'
p191
I1
tp192
a(I9
I34
F-0.25
S'higher'
p193
I1
tp194
a(I21
I6
I0
S'closest'
p195
I1
tp196
as(S'data'
p197
tp198
(lp199
(I5
I45
F-0.375
S'disable'
p200
I13
tp201
as(S'apps'
p202
tp203
(lp204
(I1
I18
I0
S'few'
p205
I0
tp206
a(I1
I20
F-0.625
S'free'
p207
I0
tp208
a(I5
I23
F-0.625
S'free'
p209
I0
tp210
a(I9
I37
F-0.5
S'certain'
p211
I0
tp212
a(I11
I37
F-0.125
S'slow'
p213
I0
tp214
a(I20
I8
F-0.625
S'other'
p215
I0
tp216
a(I20
I17
I0
S'full'
p217
I0
tp218
as(S'internal'
p219
S'memory'
p220
tp221
(lp222
(I6
I29
I0
S'internal'
p223
I0
tp224
a(I9
I63
F-0.25
S'low'
p225
I0
tp226
a(I9
I63
I0
S'internal'
p227
I0
tp228
a(I11
I21
I0
S'internal'
p229
I0
tp230
a(I11
I22
I0
S'internal'
p231
I0
tp232
a(I20
I9
F-0.25
S'low'
p233
I0
tp234
a(I1
I18
F1.0
S'good'
p235
I5
tp236
a(I1
I18
F-0.625
S'free'
p237
I5
tp238
a(I2
I34
I0
S'full'
p239
I5
tp240
a(I6
I29
I0
g223
I5
tp241
a(I8
I28
F-0.375
S'small'
p242
I5
tp243
a(I9
I63
F-0.25
g225
I5
tp244
a(I9
I63
I0
g227
I5
tp245
a(I11
I21
I0
g229
I5
tp246
a(I11
I22
I0
g231
I5
tp247
a(I20
I9
F-0.25
g233
I5
tp248
a(I20
I17
F1.0
S'good'
p249
I5
tp250
as(S'touch'
p251
S'screen'
p252
tp253
(lp254
(I1
I7
F0.5
S'touch'
p255
I2
tp256
a(I11
I2
F0.5
S'touch'
p257
I2
tp258
a(I16
I12
F0.5
S'accurate'
p259
I2
tp260
a(I19
I0
F0.875
S'nice'
p261
I2
tp262
a(I20
I21
F0.5
S'touch'
p263
I2
tp264
a(I20
I27
F0.5
S'touch'
p265
I2
tp266
a(I21
I4
F0.5
S'touch'
p267
I2
tp268
as.