(dp0
(S'calling'
p1
tp2
(lp3
(I90
I2
I0
S'great'
p4
tp5
as(S'problem'
p6
tp7
(lp8
(I59
I1
I0
S'same'
p9
tp10
a(I143
I8
F-0.25
S'legitimate'
p11
tp12
a(I143
I10
I0
S'same'
p13
tp14
as(S'battery'
p15
S'life'
p16
tp17
(lp18
(I54
I1
F1.0
S'good'
p19
tp20
a(I68
I0
I0
S'great'
p21
tp22
a(I68
I0
F0.625
S'easy'
p23
tp24
a(I87
I3
F0.875
S'important'
p25
tp26
a(I87
I3
F1.0
S'good'
p27
tp28
a(I149
I4
F0.75
S'due'
p29
tp30
a(I149
I4
F-0.25
S'low'
p31
tp32
a(I149
I4
F-0.75
S'unable'
p33
tp34
a(I164
I2
F1.0
S'good'
p35
tp36
a(I166
I2
F1.0
S'good'
p37
tp38
as(S'minutes'
p39
tp40
(lp41
(I108
I3
F-0.375
S'simple'
p42
tp43
a(I113
I3
I0
S'few'
p44
tp45
a(I189
I4
I0
S'later'
p46
tp47
as(S'year'
p48
tp49
(lp50
(I41
I8
I0
S'full'
p51
tp52
a(I135
I0
I0
S'great'
p53
tp54
a(I135
I0
F0.125
S'last'
p55
tp56
a(I199
I0
I0
S'old'
p57
tp58
as(S'needs'
p59
tp60
(lp61
(I83
I8
I0
S'individual'
p62
tp63
as(S'cheap'
p64
tp65
(lp66
(I13
I0
I0
S'great'
p67
tp68
a(I54
I1
F1.0
S'good'
p69
tp70
a(I103
I0
F0.375
S'new'
p71
tp72
a(I138
I1
I0
S'quick'
p73
tp74
a(I166
I0
F-0.375
S'crazy'
p75
tp76
a(I166
I1
F-0.375
S'crazy'
p77
tp78
a(I185
I2
F0.875
S'nice'
p79
tp80
a(I201
I3
F-0.5
S'did'
p81
tp82
a(I201
I8
F-0.75
S'unreliable'
p83
tp84
a(I202
I0
I0
S'great'
p85
tp86
as(S'talk'
p87
tp88
(lp89
(I25
I0
I0
S'basic'
p90
tp91
a(I82
I0
I0
S'basic'
p92
tp93
a(I83
I8
F-0.5
S'unlimited'
p94
tp95
a(I179
I10
F0.625
S'straight'
p96
tp97
as(S'money'
p98
tp99
(lp100
(I12
I6
F0.75
S'worth'
p101
tp102
a(I27
I4
I0
S'more'
p103
tp104
as(S'samsung'
p105
S'a157'
p106
S'gophone'
p107
tp108
(lp109
(I204
I16
F0.125
S'popular'
p110
tp111
as(S'nice'
p112
tp113
(lp114
(I95
I0
I0
S'real'
p115
tp116
a(I95
I0
F-0.375
S'kid'
p117
tp118
a(I131
I0
I0
S'basic'
p119
tp120
as(S'price'
p121
tp122
(lp123
(I26
I0
F1.0
S'good'
p124
tp125
a(I85
I2
I0
S'more'
p126
tp127
a(I85
I2
I0
S'great'
p128
tp129
as(S'call'
p130
S'quality'
p131
tp132
(lp133
(I41
I6
F1.0
S'good'
p134
tp135
a(I63
I1
I0
S'great'
p136
tp137
a(I67
I6
F1.0
S'good'
p138
tp139
as(S'service'
p140
tp141
(lp142
(I67
I6
F0.375
S'reliable'
p143
tp144
a(I101
I3
I0
S'big'
p145
tp146
a(I155
I2
F0.375
S'available'
p147
tp148
as(S'everything'
p149
tp150
(lp151
(I66
I0
F0.625
S'perfect'
p152
tp153
a(I166
I3
I0
S'great'
p154
tp155
as(S'samsung'
p156
tp157
(lp158
(I81
I6
F-0.625
S'other'
p159
tp160
a(I201
I1
F0.125
S'first'
p161
tp162
as(S'works'
p163
tp164
(lp165
(I180
I0
I0
S'great'
p166
tp167
a(I207
I0
F1.0
S'best'
p168
tp169
as(S'back'
p170
tp171
(lp172
(I131
I2
F0.375
S'extra'
p173
tp174
a(I179
I13
I0
S'great'
p175
tp176
as(S'camera'
p177
tp178
(lp179
(I89
I2
F0.625
S'kind'
p180
tp181
a(I138
I3
I0
S'basic'
p182
tp183
as(S'month'
p184
tp185
(lp186
(I27
I5
F0.5
S'told'
p187
tp188
a(I27
I5
F-0.125
S'minimum'
p189
tp190
a(I36
I0
F0.125
S'first'
p191
tp192
a(I61
I7
F-0.5
S'less'
p193
tp194
a(I109
I0
F0.125
S'last'
p195
tp196
a(I176
I1
F0.375
S'new'
p197
tp198
a(I185
I7
F-0.5
S'complaint'
p199
tp200
as(S'days'
p201
tp202
(lp203
(I55
I1
F-0.5
S'less'
p204
tp205
a(I83
I10
I0
S'later'
p206
tp207
a(I120
I7
I0
S'most'
p208
tp209
a(I176
I3
I0
S'later'
p210
tp211
as(S'reception'
p212
tp213
(lp214
(I9
I2
F1.0
S'good'
p215
tp216
a(I9
I2
F-0.375
S'small'
p217
tp218
a(I16
I2
I0
S'great'
p219
tp220
a(I56
I2
F1.0
S'good'
p221
tp222
a(I56
I10
F-0.5
S'poor'
p223
tp224
a(I134
I2
I0
S'most'
p225
tp226
a(I149
I3
F1.0
S'good'
p227
tp228
a(I163
I1
F1.0
S'good'
p229
tp230
a(I172
I0
I0
S'great'
p231
tp232
a(I210
I2
I0
S'great'
p233
tp234
as(S'quality'
p235
tp236
(lp237
(I19
I1
I0
S'great'
p238
tp239
a(I29
I2
F-0.25
S'low'
p240
tp241
a(I41
I6
F1.0
g134
tp242
a(I56
I3
F0.625
S'superior'
p243
tp244
a(I63
I1
I0
g136
tp245
a(I70
I2
F1.0
S'good'
p246
tp247
a(I92
I1
F-0.5
S'poor'
p248
tp249
a(I146
I0
F1.0
S'good'
p250
tp251
a(I149
I1
F0.625
S'superior'
p252
tp253
a(I164
I2
I0
S'sensitive'
p254
tp255
as(S'life'
p256
tp257
(lp258
(I68
I0
F0.625
g23
tp259
a(I87
I3
F1.0
g27
tp260
as(S'unit'
p261
tp262
(lp263
(I28
I4
F-0.5
S'power'
p264
tp265
a(I28
I5
F-0.625
S'bad'
p266
tp267
a(I29
I2
F-0.25
S'low'
p268
tp269
a(I183
I1
I0
S'same'
p270
tp271
as(S'features'
p272
tp273
(lp274
(I11
I0
I0
S'basic'
p275
tp276
a(I90
I2
I0
S'many'
p277
tp278
a(I152
I0
F0.375
S'extra'
p279
tp280
a(I183
I1
I0
S'different'
p281
tp282
a(I188
I3
I0
S'many'
p283
tp284
a(I199
I0
F1.0
S'better'
p285
tp286
a(I199
I0
I0
S'faster'
p287
tp288
a(I199
I0
F0.125
S'last'
p289
tp290
a(I210
I0
I0
S'more'
p291
tp292
a(I210
I0
I0
S'useful'
p293
tp294
as(S'prepaid'
p295
tp296
(lp297
(I191
I1
F-0.625
S'other'
p298
tp299
as(S'little'
p300
tp301
(lp302
(I85
I0
F1.0
S'good'
p303
tp304
as(S'people'
p305
tp306
(lp307
(I14
I0
F1.0
S'good'
p308
tp309
a(I33
I2
F0.125
S'typical'
p310
tp311
a(I45
I0
F0.125
S'practical'
p312
tp313
a(I56
I6
F-0.625
S'bad'
p314
tp315
a(I99
I1
I0
S'own'
p316
tp317
a(I169
I1
F1.0
S'good'
p318
tp319
as(S'light'
p320
S'weight'
p321
tp322
(lp323
(I19
I1
F-0.625
S'light'
p324
tp325
a(I52
I6
I0
S'dial'
p326
tp327
a(I52
I6
F-0.125
S'super'
p328
tp329
a(I52
I6
F-0.625
S'light'
p330
tp331
as(S'contract'
p332
tp333
(lp334
(I61
I0
I0
S'great'
p335
tp336
a(I182
I11
F-0.5
S'unlimited'
p337
tp338
a(I182
I11
F-0.75
S'little'
p339
tp340
as(S'a157'
p341
tp342
(lp343
(I149
I5
F0.375
S'newer'
p344
tp345
a(I204
I16
F0.125
g110
tp346
as(S'plan'
p347
tp348
(lp349
(I44
I0
I0
S'monthly'
p350
tp351
a(I83
I8
F-0.375
S'simple'
p352
tp353
a(I135
I1
F0.125
S'able'
p354
tp355
a(I198
I2
F1.0
S'best'
p356
tp357
as(S'battery'
p358
tp359
(lp360
(I5
I2
F1.0
S'good'
p361
tp362
a(I54
I1
F1.0
g19
tp363
a(I68
I0
I0
g21
tp364
a(I81
I3
F-0.5
S'sure'
p365
tp366
a(I87
I3
F0.875
g25
tp367
a(I149
I4
F0.75
g29
tp368
a(I149
I4
F-0.25
g31
tp369
a(I149
I4
F-0.75
g33
tp370
a(I164
I2
F1.0
g35
tp371
a(I166
I2
F1.0
g37
tp372
a(I179
I6
F0.125
S'last'
p373
tp374
a(I179
I13
F-0.75
S'dead'
p375
tp376
a(I179
I13
F-0.75
S'dead'
p377
tp378
as(S'voice'
p379
tp380
(lp381
(I5
I2
F0.625
S'easy'
p382
tp383
a(I5
I2
F1.0
S'good'
p384
tp385
a(I31
I2
F-0.75
S'little'
p386
tp387
a(I70
I1
I0
S'great'
p388
tp389
a(I179
I9
F0.5
S'primary'
p390
tp391
as(S'simple'
p392
tp393
(lp394
(I17
I1
F-0.75
S'dead'
p395
tp396
a(I47
I0
F0.375
S'reliable'
p397
tp398
a(I152
I1
F0.625
S'easy'
p399
tp400
as(S'external'
p401
S'display'
p402
tp403
(lp404
(I61
I7
F0.125
S'first'
p405
tp406
a(I139
I3
I0
S'external'
p407
tp408
a(I145
I1
I0
S'external'
p409
tp410
a(I145
I2
I0
S'external'
p411
tp412
as(S'new'
p413
S'sim'
p414
S'card'
p415
tp416
(lp417
(I27
I2
F0.375
S'new'
p418
tp419
a(I40
I2
I0
S'old'
p420
tp421
a(I75
I5
F0.375
S'new'
p422
tp423
a(I75
I5
F0.375
S'new'
p424
tp425
a(I75
I5
I0
S'only'
p426
tp427
a(I101
I7
F0.375
S'new'
p428
tp429
a(I195
I1
F0.375
S'new'
p430
tp431
as(S'cell'
p432
tp433
(lp434
(I40
I2
I0
S'old'
p435
tp436
a(I40
I2
I0
S'old'
p437
tp438
a(I41
I1
F0.375
S'early'
p439
tp440
a(I134
I0
F0.125
S'last'
p441
tp442
a(I134
I0
I0
S'normal'
p443
tp444
a(I134
I2
I0
S'old'
p445
tp446
a(I170
I0
F0.875
S'happy'
p447
tp448
a(I171
I2
F-0.375
S'simple'
p449
tp450
a(I188
I4
F0.375
S'new'
p451
tp452
a(I198
I1
F0.5
S'personal'
p453
tp454
a(I201
I0
I0
S'many'
p455
tp456
as(S'calls'
p457
tp458
(lp459
(I52
I3
F-0.625
S'bad'
p460
tp461
a(I165
I2
F0.75
S'receive'
p462
tp463
a(I185
I2
F1.0
S'good'
p464
tp465
a(I201
I4
F-0.25
S'dropped'
p466
tp467
as(S'thing'
p468
tp469
(lp470
(I48
I1
I0
S'only'
p471
tp472
a(I48
I1
F-0.375
S'small'
p473
tp474
a(I62
I1
F1.0
S'good'
p475
tp476
a(I92
I2
F1.0
S'good'
p477
tp478
a(I197
I1
F-0.75
S'single'
p479
tp480
a(I197
I1
F-0.875
S'negative'
p481
tp482
a(I201
I7
F1.0
S'good'
p483
tp484
as(S'sim'
p485
S'card'
p486
tp487
(lp488
(I27
I2
F0.375
g418
tp489
a(I33
I15
I0
S'old'
p490
tp491
a(I40
I2
I0
g420
tp492
a(I48
I0
I0
S'great'
p493
tp494
a(I75
I4
I0
S'old'
p495
tp496
a(I75
I5
F0.375
g422
tp497
a(I75
I5
F0.375
g424
tp498
a(I75
I5
I0
g426
tp499
a(I89
I1
F0.125
S'last'
p500
tp501
a(I89
I1
F0.375
S'extra'
p502
tp503
a(I101
I7
F0.375
g428
tp504
a(I134
I0
F0.25
S'original'
p505
tp506
a(I138
I2
F0.25
S'larger'
p507
tp508
a(I195
I1
F0.375
g430
tp509
a(I205
I4
I0
S'old'
p510
tp511
a(I205
I4
F1.0
S'good'
p512
tp513
as(S'charge'
p514
tp515
(lp516
(I21
I1
F-0.75
S'single'
p517
tp518
a(I87
I3
F-0.5
S'longer'
p519
tp520
a(I90
I2
F0.125
S'further'
p521
tp522
a(I185
I2
F0.5
S'reasonable'
p523
tp524
a(I185
I2
I0
S'monthly'
p525
tp526
as(S'nothing'
p527
tp528
(lp529
(I83
I10
F0.625
S'easy'
p530
tp531
a(I89
I2
F1.0
S'good'
p532
tp533
a(I125
I6
I0
S'more'
p534
tp535
a(I169
I0
I0
S'special'
p536
tp537
as(S'bells'
p538
S'and'
p539
S'whistles'
p540
tp541
(lp542
(I9
I0
I0
S'unnecessary'
p543
tp544
a(I70
I0
F0.875
S'happy'
p545
tp546
as(S'call'
p547
tp548
(lp549
(I67
I6
F1.0
g138
tp550
a(I132
I0
F0.5
S'whole'
p551
tp552
a(I149
I4
I0
S'quick'
p553
tp554
a(I165
I2
F0.375
S'much'
p555
tp556
as(S'replacement'
p557
tp558
(lp559
(I64
I0
I0
S'great'
p560
tp561
a(I129
I0
I0
S'mobile'
p562
tp563
as(S'new'
p564
S'sim'
p565
tp566
(lp567
(I27
I2
F0.375
g418
tp568
a(I40
I2
I0
g420
tp569
a(I75
I5
F0.375
g422
tp570
a(I75
I5
F0.375
g424
tp571
a(I75
I5
I0
g426
tp572
a(I101
I7
F0.375
g428
tp573
a(I195
I1
F0.375
g430
tp574
as(S'easy'
p575
tp576
(lp577
(I64
I0
I0
S'handy'
p578
tp579
as(S'samsung'
p580
S'a157'
p581
tp582
(lp583
(I204
I16
F0.125
g110
tp584
as(S'screen'
p585
tp586
(lp587
(I2
I8
F-0.375
S'small'
p588
tp589
a(I49
I5
F-0.375
S'black'
p590
tp591
a(I87
I2
F-0.75
S'bright'
p592
tp593
a(I87
I2
F0.625
S'easy'
p594
tp595
a(I120
I4
F-0.375
S'small'
p596
tp597
a(I120
I8
F0.25
S'larger'
p598
tp599
a(I145
I1
F-0.375
S'smaller'
p600
tp601
a(I145
I1
I0
S'current'
p602
tp603
a(I145
I1
I0
S'standard'
p604
tp605
a(I145
I1
F0.5
S'greater'
p606
tp607
a(I179
I1
F-0.75
S'dead'
p608
tp609
a(I190
I0
F-0.375
S'small'
p610
tp611
as(S'time'
p612
tp613
(lp614
(I41
I0
I0
S'perspective'
p615
tp616
a(I56
I0
F-0.5
S'long'
p617
tp618
a(I80
I1
F0.625
S'easy'
p619
tp620
a(I100
I0
F0.75
S'worth'
p621
tp622
a(I148
I3
I0
S'next'
p623
tp624
a(I190
I2
F1.0
S'good'
p625
tp626
a(I190
I2
F-0.75
S'short'
p627
tp628
as(S'walmart'
p629
tp630
(lp631
(I141
I0
F0.375
S'new'
p632
tp633
as(S'easy'
p634
S'to'
p635
S'use'
p636
tp637
(lp638
(I64
I0
I0
g578
tp639
as(S'per'
p640
S'minute'
p641
tp642
(lp643
(I137
I3
I0
S'basic'
p644
tp645
as(S'smartphone'
p646
tp647
(lp648
(I87
I1
F0.5
S'stylish'
p649
tp650
as(S'card'
p651
tp652
(lp653
(I33
I15
I0
g490
tp654
a(I48
I0
I0
g493
tp655
a(I205
I4
F1.0
g512
tp656
as(S'a'
p657
S'sim'
p658
S'card'
p659
tp660
(lp661
(I27
I2
F0.375
g418
tp662
a(I33
I15
I0
g490
tp663
a(I40
I2
I0
g420
tp664
a(I48
I0
I0
g493
tp665
a(I75
I4
I0
g495
tp666
a(I75
I5
F0.375
g422
tp667
a(I75
I5
F0.375
g424
tp668
a(I75
I5
I0
g426
tp669
a(I89
I1
F0.125
g500
tp670
a(I89
I1
F0.375
g502
tp671
a(I101
I7
F0.375
g428
tp672
a(I134
I0
F0.25
g505
tp673
a(I138
I2
F0.25
g507
tp674
a(I195
I1
F0.375
g430
tp675
a(I205
I4
I0
g510
tp676
a(I205
I4
F1.0
g512
tp677
as(S'looking'
p678
tp679
(lp680
(I110
I3
F1.0
S'good'
p681
tp682
a(I147
I0
F0.875
S'nice'
p683
tp684
as(S'deal'
p685
tp686
(lp687
(I22
I1
F1.0
S'better'
p688
tp689
a(I35
I0
I0
S'great'
p690
tp691
a(I46
I7
I0
S'big'
p692
tp693
a(I56
I3
F1.0
S'best'
p694
tp695
a(I56
I3
F-0.25
S'past'
p696
tp697
a(I98
I1
I0
S'big'
p698
tp699
a(I144
I0
F-0.625
S'bad'
p700
tp701
as(S'flip'
p702
tp703
(lp704
(I39
I0
F-0.375
S'simple'
p705
tp706
a(I93
I2
I0
S'standard'
p707
tp708
a(I129
I2
F1.0
S'better'
p709
tp710
a(I129
I2
F-0.625
S'other'
p711
tp712
a(I136
I0
I0
S'old'
p713
tp714
a(I183
I0
F0.125
S'last'
p715
tp716
a(I206
I1
F-0.375
S'small'
p717
tp718
a(I206
I1
I0
S'slim'
p719
tp720
as(S'text'
p721
tp722
(lp723
(I188
I6
I0
S'more'
p724
tp725
a(I188
I6
F-0.5
S'wished'
p726
tp727
as.