(dp0
(S'android'
p1
tp2
(lp3
(I4
I11
F0.75
S'due'
p4
I0
tp5
a(I5
I1
F-0.125
S'overall'
p6
I0
tp7
a(I10
I3
I0
S'older'
p8
I0
tp9
as(S'battery'
p10
tp11
(lp12
(I12
I28
F-0.625
S'remove'
p13
I15
tp14
as(S'low'
p15
S'memory'
p16
tp17
(lp18
(I12
I7
F-0.25
S'low'
p19
I0
tp20
a(I12
I8
F-0.25
S'low'
p21
I0
tp22
a(I12
I9
F-0.25
S'low'
p23
I0
tp24
a(I1
I33
I0
S'internal'
p25
I5
tp26
a(I4
I9
F0.75
S'due'
p27
I5
tp28
a(I12
I7
F-0.25
g19
I5
tp29
a(I12
I8
F-0.25
g21
I5
tp30
a(I12
I9
F-0.25
g23
I5
tp31
as(S'apps'
p32
tp33
(lp34
(I3
I16
I0
S'many'
p35
I0
tp36
as(S'gb'
p37
S'micro'
p38
tp39
(lp40
(I8
I13
I0
S'install'
p41
I0
tp42
as(S'touch'
p43
S'screen'
p44
tp45
(lp46
(I0
I16
F0.5
S'touch'
p47
I2
tp48
as.