(dp0
(S'memory'
p1
S'card'
p2
tp3
(lp4
(I4
I31
F-0.5
S'separate'
p5
I0
tp6
a(I4
I83
F0.875
S'music'
p7
I0
tp8
as(S'battery'
p9
S'life'
p10
tp11
(lp12
(I7
I37
I0
S'great'
p13
I1
tp14
a(I4
I55
F-0.625
S'bad'
p15
I15
tp16
a(I4
I62
F1.0
S'good'
p17
I15
tp18
a(I7
I37
I0
g13
I15
tp19
a(I8
I39
I0
S'full'
p20
I15
tp21
as(S'keyboard'
p22
tp23
(lp24
(I2
I2
F0.125
S'first'
p25
I2
tp26
a(I3
I56
I0
S'physical'
p27
I2
tp28
a(I4
I22
F0.625
S'easy'
p29
I2
tp30
a(I5
I13
I0
S'full'
p31
I2
tp32
a(I7
I13
F-0.375
S'small'
p33
I2
tp34
a(I7
I13
F-0.75
S'difficult'
p35
I2
tp36
a(I8
I10
I0
S'great'
p37
I2
tp38
a(I8
I98
I0
S'only'
p39
I2
tp40
as(S'several'
p41
S'times'
p42
tp43
(lp44
(I5
I25
I0
S'sturdy'
p45
I4
tp46
a(I5
I25
F-0.125
S'mine'
p47
I4
tp48
as(S'dial'
p49
S'pad'
p50
tp51
(lp52
(I2
I29
I0
S'dial'
p53
I0
tp54
a(I2
I30
I0
S'dial'
p55
I0
tp56
a(I8
I132
I0
S'dial'
p57
I0
tp58
a(I8
I155
I0
S'dial'
p59
I0
tp60
a(I0
I22
F0.375
S'much'
p61
I1
tp62
as(S'text'
p63
tp64
(lp65
(I3
I37
F0.5
S'hopeful'
p66
I18
tp67
a(I4
I87
F0.125
S'first'
p68
I18
tp69
a(I7
I64
F0.625
S'convenient'
p70
I18
tp71
a(I7
I108
I0
S'illegible'
p72
I18
tp73
a(I7
I126
F0.125
S'first'
p74
I18
tp75
a(I8
I29
F1.0
S'good'
p76
I18
tp77
as(S'every'
p78
S'day'
p79
tp80
(lp81
(I5
I36
I0
S'more'
p82
I5
tp83
a(I5
I36
I0
S'more'
p84
I5
tp85
as(S'camera'
p86
tp87
(lp88
(I4
I6
F1.0
S'good'
p89
I1
tp90
a(I4
I22
F0.625
S'easy'
p91
I1
tp92
a(I4
I107
I0
S'sensitive'
p93
I1
tp94
a(I7
I85
F1.0
S'good'
p95
I1
tp96
as(S'home'
p97
S'screen'
p98
tp99
(lp100
(I0
I9
I0
S'great'
p101
I0
tp102
a(I7
I15
I0
S'different'
p103
I0
tp104
a(I7
I15
F-0.625
S'other'
p105
I0
tp106
a(I8
I129
F0.375
S'similar'
p107
I0
tp108
as(S'message'
p109
tp110
(lp111
(I7
I58
I0
S'next'
p112
I1
tp113
a(I7
I58
I0
S'instructional'
p114
I1
tp115
a(I7
I71
F0.375
S'new'
p116
I1
tp117
a(I8
I33
I0
S'entire'
p118
I1
tp119
as(S'30'
p120
S'seconds'
p121
tp122
(lp123
(I8
I143
F-0.5
S'less'
p124
I1
tp125
a(I8
I144
F-0.5
S'less'
p126
I1
tp127
a(I8
I145
F-0.5
S'less'
p128
I1
tp129
a(I8
I145
F0.625
S'add'
p130
I1
tp131
a(I3
I21
I0
S'few'
p132
I7
tp133
a(I3
I21
I0
S'song'
p134
I7
tp135
a(I4
I25
F-0.5
S'longer'
p136
I7
tp137
a(I8
I118
I0
S'few'
p138
I7
tp139
a(I8
I143
F-0.5
g124
I7
tp140
a(I8
I144
F-0.5
g126
I7
tp141
a(I8
I145
F-0.5
g128
I7
tp142
a(I8
I145
F0.625
g130
I7
tp143
as(S'button'
p144
tp145
(lp146
(I3
I50
I0
S'physical'
p147
I19
tp148
a(I7
I75
F-0.125
S'delete'
p149
I19
tp150
a(I7
I133
I-100
S'send/answer'
p151
I19
tp152
a(I8
I135
F0.875
S'character'
p153
I19
tp154
a(I8
I164
F-0.625
S'green'
p155
I19
tp156
a(I8
I164
I0
S'dial'
p157
I19
tp158
a(I8
I164
F-0.375
S'red'
p159
I19
tp160
as(S'messages'
p161
tp162
(lp163
(I7
I71
I0
S'multiple'
p164
I1
tp165
a(I7
I71
F-0.75
S'short'
p166
I1
tp167
as(S'intensity'
p168
tp169
(lp170
(I7
I48
F0.875
S'happy'
p171
I0
tp172
as(S'buttons'
p173
tp174
(lp175
(I2
I3
F-0.875
S'hard'
p176
I13
tp177
a(I3
I13
F0.625
S'easy'
p178
I13
tp179
a(I3
I50
I0
S'physical'
p180
I13
tp181
a(I7
I122
F-0.75
S'wrong'
p182
I13
tp183
a(I7
I158
F0.625
S'easy'
p184
I13
tp185
a(I8
I27
F0.5
S'willing'
p186
I13
tp187
a(I8
I27
F0.5
S'flat'
p188
I13
tp189
as(S'calls'
p190
tp191
(lp192
(I7
I5
I0
S'own'
p193
I0
tp194
a(I7
I31
I0
S'few'
p195
I0
tp196
a(I7
I62
F1.0
S'good'
p197
I0
tp198
a(I8
I148
I0
S'many'
p199
I0
tp200
a(I8
I185
F0.125
S'able'
p201
I0
tp202
as(S'texting'
p203
tp204
(lp205
(I3
I34
F1.0
S'good'
p206
I0
tp207
a(I4
I32
F1.0
S'good'
p208
I0
tp209
a(I4
I81
F1.0
S'good'
p210
I0
tp211
a(I4
I93
F0.125
S'appropriate'
p212
I0
tp213
a(I4
I95
F0.125
S'last'
p214
I0
tp215
a(I4
I96
F0.375
S'new'
p216
I0
tp217
a(I7
I94
F-0.125
S'overall'
p218
I0
tp219
a(I7
I94
F-0.5
S'aside'
p220
I0
tp221
as(S'contacts'
p222
tp223
(lp224
(I7
I64
I0
S'most'
p225
I0
tp226
a(I8
I130
F0.375
S'much'
p227
I0
tp228
as(S'contact'
p229
tp230
(lp231
(I5
I4
F0.125
S'able'
p232
I10
tp233
as(S'mass'
p234
S'storage'
p235
tp236
(lp237
(I8
I139
F0.5
S'establish'
p238
I0
tp239
as(S'a'
p240
S'data'
p241
S'plan'
p242
tp243
(lp244
(I4
I78
F0.875
S'happy'
p245
I0
tp246
a(I4
I85
F0.5
S'functional'
p247
I0
tp248
a(I4
I86
F0.5
S'expensive'
p249
I0
tp250
a(I5
I37
I0
S'full'
p251
I0
tp252
a(I4
I78
F0.875
g245
I0
tp253
a(I4
I85
F0.5
g247
I0
tp254
a(I4
I86
F0.5
g249
I0
tp255
a(I5
I37
I0
g251
I0
tp256
a(I4
I85
F0.5
g247
I13
tp257
a(I5
I37
I0
g251
I13
tp258
a(I7
I100
F-0.375
S'disable'
p259
I13
tp260
a(I8
I139
I0
S'cable'
p261
I13
tp262
as(S'pocket'
p263
tp264
(lp265
(I7
I52
I0
S'more'
p266
I17
tp267
a(I8
I97
F0.375
S'early'
p268
I17
tp269
as(S'keypad'
p270
tp271
(lp272
(I8
I126
I0
S'physical'
p273
I0
tp274
a(I8
I134
I0
S'earlier'
p275
I0
tp276
as(S'apps'
p277
tp278
(lp279
(I4
I77
I0
S'few'
p280
I0
tp281
a(I4
I91
F-0.625
S'free'
p282
I0
tp283
a(I4
I91
F-0.625
S'other'
p284
I0
tp285
as(S'touch'
p286
S'screen'
p287
tp288
(lp289
(I0
I9
I0
g101
I2
tp290
a(I3
I1
F0.5
S'touch'
p291
I2
tp292
a(I3
I15
F0.875
S'nice'
p293
I2
tp294
a(I3
I70
F0.5
S'touch'
p295
I2
tp296
a(I4
I106
F0.5
S'touch'
p297
I2
tp298
a(I7
I38
F0.5
S'touch'
p299
I2
tp300
a(I7
I107
I0
S'sensitive'
p301
I2
tp302
a(I7
I121
F0.5
S'touch'
p303
I2
tp304
a(I7
I151
F0.5
S'touch'
p305
I2
tp306
a(I8
I99
F-0.625
S'light'
p307
I2
tp308
a(I8
I115
F0.5
S'touch'
p309
I2
tp310
a(I8
I119
F0.5
S'touch'
p311
I2
tp312
a(I8
I168
F0.5
S'touch'
p313
I2
tp314
a(I8
I169
F0.5
S'touch'
p315
I2
tp316
a(I8
I178
F0.5
S'touch'
p317
I2
tp318
as(S'sound'
p319
S'quality'
p320
tp321
(lp322
(I4
I51
F1.0
S'good'
p323
I0
tp324
a(I7
I81
F0.875
S'music'
p325
I0
tp326
as.