(dp0
(S'seller'
p1
tp2
(lp3
(I0
I8
F0.875
S'happy'
p4
I19
tp5
a(I14
I45
F0.875
S'courteous'
p6
I19
tp7
a(I14
I47
F0.125
S'able'
p8
I19
tp9
a(I15
I30
I0
S'great'
p10
I19
tp11
as(S'battery'
p12
S'life'
p13
tp14
(lp15
(I6
I2
F-0.5
S'poor'
p16
I1
tp17
a(I14
I52
F1.0
S'better'
p18
I1
tp19
as(S'much'
p20
S'better'
p21
tp22
(lp23
(I14
I2
F0.375
S'much'
p24
I9
tp25
as(S'charging'
p26
tp27
(lp28
(I20
I1
F-0.875
S'trouble'
p29
I12
tp30
as(S'return'
p31
S'period'
p32
tp33
(lp34
(I11
I3
F-0.25
S'past'
p35
I0
tp36
a(I11
I23
F-0.25
S'past'
p37
I0
tp38
as(S'sprint'
p39
S'store'
p40
tp41
(lp42
(I6
I0
F0.125
S'able'
p43
I0
tp44
a(I4
I15
F-0.5
S'sure'
p45
I0
tp46
a(I4
I15
F0.5
S'drive'
p47
I0
tp48
as(S'service'
p49
tp50
(lp51
(I6
I4
F1.0
S'better'
p52
I16
tp53
a(I22
I12
I0
S'more'
p54
I16
tp55
as(S'new'
p56
S'battery'
p57
tp58
(lp59
(I0
I23
I0
S'anew'
p60
I1
tp61
a(I1
I24
F0.375
S'new'
p62
I1
tp63
a(I6
I21
F0.375
S'new'
p64
I1
tp65
a(I10
I7
F0.375
S'new'
p66
I1
tp67
a(I14
I32
F0.375
S'new'
p68
I1
tp69
a(I14
I35
F0.375
S'new'
p70
I1
tp71
a(I14
I35
F-0.5
S'sure'
p72
I1
tp73
a(I0
I23
I0
g60
I15
tp74
a(I1
I6
F-0.5
S'less'
p75
I15
tp76
a(I1
I19
F-0.75
S'dead'
p77
I15
tp78
a(I1
I24
F0.375
g62
I15
tp79
a(I6
I2
F-0.5
g16
I15
tp80
a(I6
I18
I0
S'hot'
p81
I15
tp82
a(I6
I21
F0.375
g64
I15
tp83
a(I10
I7
F0.375
g66
I15
tp84
a(I14
I20
F0.375
S'extra'
p85
I15
tp86
a(I14
I20
I0
S'quick'
p87
I15
tp88
a(I14
I32
F0.375
g68
I15
tp89
a(I14
I35
F0.375
g70
I15
tp90
a(I14
I35
F-0.5
g72
I15
tp91
a(I14
I52
F1.0
g18
I15
tp92
as(S'galaxy'
p93
S's'
p94
tp95
(lp96
(I11
I29
F0.375
S'new'
p97
I0
tp98
a(I14
I42
F0.125
S'capable'
p99
I0
tp100
a(I14
I42
F0.125
S'last'
p101
I0
tp102
a(I15
I1
F1.0
S'good'
p103
I0
tp104
a(I11
I29
F0.375
g97
I0
tp105
a(I14
I42
F0.125
g99
I0
tp106
a(I14
I42
F0.125
g101
I0
tp107
a(I15
I1
F1.0
g103
I0
tp108
as(S'long'
p109
S'time'
p110
tp111
(lp112
(I1
I30
F-0.5
S'long'
p113
I13
tp114
a(I7
I0
F-0.5
S'long'
p115
I13
tp116
a(I13
I0
F-0.5
S'long'
p117
I13
tp118
a(I15
I19
I0
S'same'
p119
I13
tp120
as.