(dp0
(S'seller'
p1
tp2
(lp3
(I16
I5
I0
S'quick'
p4
I19
tp5
as(S'android'
p6
tp7
(lp8
(I4
I34
F0.75
S'give'
p9
I0
tp10
a(I4
I34
I0
S'only'
p11
I0
tp12
a(I8
I7
F1.0
S'best'
p13
I0
tp14
a(I10
I17
I0
S'third'
p15
I0
tp16
a(I13
I35
I0
S'more'
p17
I0
tp18
a(I13
I35
F0.125
S'savvy'
p19
I0
tp20
a(I13
I35
F0.5
S'possible'
p21
I0
tp22
a(I13
I36
I0
S'many'
p23
I0
tp24
a(I13
I56
F0.5
S'strong'
p25
I0
tp26
a(I13
I56
F0.75
S'beautiful'
p27
I0
tp28
a(I13
I56
F-0.625
S'clean'
p29
I0
tp30
a(I16
I2
F0.375
S'available'
p31
I0
tp32
as(S'nexus'
p33
tp34
(lp35
(I4
I26
F0.5
S'rid'
p36
I0
tp37
a(I7
I13
I0
S'old'
p38
I0
tp39
a(I7
I27
F-0.625
S'other'
p40
I0
tp41
a(I10
I14
F0.75
S'due'
p42
I0
tp43
a(I10
I22
F0.25
S'original'
p44
I0
tp45
a(I13
I65
F0.375
S'honest'
p46
I0
tp47
as(S'battery'
p48
S'life'
p49
tp50
(lp51
(I2
I11
F1.0
S'good'
p52
I1
tp53
a(I7
I34
F-0.625
S'bad'
p54
I1
tp55
a(I8
I15
F-0.75
S'short'
p56
I1
tp57
a(I9
I22
F-0.625
S'bad'
p58
I1
tp59
a(I13
I54
F0.375
S'extended'
p60
I1
tp61
a(I13
I107
F-0.25
S'lower'
p62
I1
tp63
a(I14
I5
I0
S'next'
p64
I1
tp65
a(I14
I21
F-0.5
S'less'
p66
I1
tp67
a(I14
I89
F-0.5
S'poor'
p68
I1
tp69
a(I16
I4
F1.0
S'good'
p70
I1
tp71
a(I2
I11
F1.0
g52
I19
tp72
a(I8
I15
F-0.75
g56
I19
tp73
a(I13
I54
F0.375
g60
I19
tp74
a(I13
I107
F-0.25
g62
I19
tp75
a(I14
I21
F-0.5
g66
I19
tp76
a(I16
I4
F1.0
g70
I19
tp77
as(S'apps'
p78
tp79
(lp80
(I5
I6
I0
S'multiple'
p81
I0
tp82
a(I9
I17
I0
S'closing'
p83
I0
tp84
a(I9
I17
F-0.625
S'other'
p85
I0
tp86
a(I13
I8
I0
S'old'
p87
I0
tp88
a(I14
I83
I0
S'mobile'
p89
I0
tp90
a(I16
I21
F0.5
S'compatible'
p91
I0
tp92
as(S'much'
p93
S'better'
p94
tp95
(lp96
(I9
I32
F0.375
S'much'
p97
I9
tp98
as(S'network'
p99
tp100
(lp101
(I16
I24
I0
S'useful'
p102
I0
tp103
as(S'verizon'
p104
tp105
(lp106
(I1
I14
I0
S'few'
p107
I0
tp108
a(I10
I1
F-0.5
S'outright'
p109
I0
tp110
a(I10
I13
F0.75
S'due'
p111
I0
tp112
a(I13
I3
F-0.5
S'worthless'
p113
I0
tp114
a(I14
I2
I0
S'local'
p115
I0
tp116
a(I14
I77
F-0.625
S'free'
p117
I0
tp118
a(I16
I27
F0.375
S'available'
p119
I0
tp120
as(S'sim'
p121
S'card'
p122
tp123
(lp124
(I2
I13
F0.375
S'new'
p125
I0
tp126
a(I2
I16
I0
S'same'
p127
I0
tp128
a(I14
I1
I0
S'on-line'
p129
I0
tp130
as(S'samsung'
p131
tp132
(lp133
(I2
I3
F1.0
S'best'
p134
I7
tp135
a(I9
I30
I0
S'latest'
p136
I7
tp137
a(I13
I79
F-0.5
S'sure'
p138
I7
tp139
a(I14
I46
I0
S'earlier'
p140
I7
tp141
a(I16
I21
F0.5
S'compatible'
p142
I7
tp143
a(I16
I26
F0.5
S'compatible'
p144
I7
tp145
as(S'amazon'
p146
tp147
(lp148
(I9
I7
F-0.25
S'shop'
p149
I13
tp150
as(S'unlimited'
p151
S'data'
p152
tp153
(lp154
(I10
I1
F-0.5
S'unlimited'
p155
I0
tp156
as(S'an'
p157
S'extended'
p158
S'battery'
p159
tp160
(lp161
(I4
I19
F0.375
S'extended'
p162
I0
tp163
a(I4
I19
F-0.125
S'glove'
p164
I0
tp165
a(I7
I24
F0.375
S'extended'
p166
I0
tp167
a(I10
I11
F0.375
S'extended'
p168
I0
tp169
a(I10
I11
F-0.625
S'other'
p170
I0
tp171
a(I13
I73
F0.375
S'extended'
p172
I0
tp173
a(I14
I12
F0.375
S'extended'
p174
I0
tp175
a(I14
I88
F0.375
S'extended'
p176
I0
tp177
a(I14
I88
F0.375
S'extra'
p178
I0
tp179
a(I15
I18
F0.375
S'extended'
p180
I0
tp181
a(I16
I56
F0.375
S'extended'
p182
I0
tp183
a(I4
I19
F0.375
g162
I0
tp184
a(I4
I19
F-0.125
g164
I0
tp185
a(I7
I24
F0.375
g166
I0
tp186
a(I10
I11
F0.375
g168
I0
tp187
a(I10
I11
F-0.625
g170
I0
tp188
a(I13
I73
F0.375
g172
I0
tp189
a(I14
I12
F0.375
g174
I0
tp190
a(I14
I88
F0.375
g176
I0
tp191
a(I14
I88
F0.375
g178
I0
tp192
a(I15
I18
F0.375
g180
I0
tp193
a(I16
I56
F0.375
g182
I0
tp194
a(I4
I12
I0
S'hot'
p195
I15
tp196
a(I4
I19
F0.375
g162
I15
tp197
a(I4
I19
F-0.125
g164
I15
tp198
a(I7
I24
F0.375
g166
I15
tp199
a(I7
I34
F-0.625
g54
I15
tp200
a(I9
I12
F1.0
S'better'
p201
I15
tp202
a(I9
I22
F-0.625
g58
I15
tp203
a(I10
I11
F0.375
g168
I15
tp204
a(I10
I11
F-0.625
g170
I15
tp205
a(I12
I6
I-100
S'note2-'
p206
I15
tp207
a(I12
I6
F1.0
S'better'
p208
I15
tp209
a(I12
I10
I0
S'fast'
p210
I15
tp211
a(I12
I34
F0.375
S'extra'
p212
I15
tp213
a(I13
I34
I0
S'passable'
p214
I15
tp215
a(I13
I52
F-0.375
S'kid'
p216
I15
tp217
a(I13
I73
F0.375
g172
I15
tp218
a(I13
I87
F0.375
S'new'
p219
I15
tp220
a(I14
I5
I0
g64
I15
tp221
a(I14
I12
F0.375
g174
I15
tp222
a(I14
I88
F0.375
g176
I15
tp223
a(I14
I88
F0.375
g178
I15
tp224
a(I14
I89
F-0.5
g68
I15
tp225
a(I15
I18
F0.375
g180
I15
tp226
a(I15
I27
F0.125
S'charger'
p227
I15
tp228
a(I15
I27
I0
S'cable'
p229
I15
tp230
a(I16
I33
F0.625
S'major'
p231
I15
tp232
a(I16
I56
F0.375
g182
I15
tp233
a(I16
I71
F0.375
S'new'
p234
I15
tp235
as.