(dp0
(S'seller'
p1
tp2
(lp3
(I56
I3
F-0.5
S'sure'
p4
I19
tp5
a(I73
I0
I0
S'great'
p6
I19
tp7
as(S'blackberry'
p8
tp9
(lp10
(I22
I17
I0
S'more'
p11
I1
tp12
a(I29
I0
I0
S'real'
p13
I1
tp14
a(I34
I25
F-0.625
S'glad'
p15
I1
tp16
a(I35
I3
F1.0
S'good'
p17
I1
tp18
a(I35
I3
F0.125
S'first'
p19
I1
tp20
a(I74
I0
F0.25
S'refurbished'
p21
I1
tp22
as(S'el'
p23
S'tel'
p24
S'eacute'
p25
tp26
(lp27
(I42
I11
F-0.889
S'unfortunate'
p28
I0
tp29
as(S'cellular'
p30
S'provider'
p31
tp32
(lp33
(I22
I13
I0
S'cellular'
p34
I0
tp35
a(I22
I21
I0
S'cellular'
p36
I0
tp37
a(I22
I26
I0
S'more'
p38
I0
tp39
as(S'quad'
p40
S'band'
p41
tp42
(lp43
(I4
I7
F-0.625
S'other'
p44
I0
tp45
as(S'movistar'
p46
tp47
(lp48
(I78
I15
F0.625
S'perfect'
p49
I0
tp50
as(S'service'
p51
tp52
(lp53
(I40
I17
F1.0
S'good'
p54
I16
tp55
a(I49
I0
F1.0
S'good'
p56
I16
tp57
a(I49
I0
F1.0
S'good'
p58
I16
tp59
a(I65
I0
F0.5
S'technical'
p60
I16
tp61
a(I78
I11
F0.125
S'able'
p62
I16
tp63
a(I78
I11
I0
S'mobile'
p64
I16
tp65
as(S'camera'
p66
tp67
(lp68
(I25
I4
F1.0
S'good'
p69
I1
tp70
a(I60
I8
I0
S'great'
p71
I1
tp72
as.