(dp0
(S'battery'
p1
S'life'
p2
tp3
(lp4
(I0
I10
F-0.5
S'poor'
p5
I1
tp6
a(I0
I15
F1.0
S'good'
p7
I1
tp8
a(I0
I48
F1.0
S'good'
p9
I1
tp10
a(I0
I68
F1.0
S'good'
p11
I1
tp12
a(I2
I145
F-0.625
S'average'
p13
I1
tp14
a(I2
I153
F-0.625
S'average'
p15
I1
tp16
a(I2
I153
F0.25
S'bigger'
p17
I1
tp18
a(I2
I153
F0.625
S'removable'
p19
I1
tp20
a(I2
I153
F1.0
S'good'
p21
I1
tp22
a(I2
I162
F-0.125
S'overall'
p23
I1
tp24
a(I4
I13
F0.5
S'reasonable'
p25
I1
tp26
a(I5
I14
F-0.125
S'slow'
p27
I1
tp28
a(I5
I14
F-0.5
S'poor'
p29
I1
tp30
a(I5
I20
F0.25
S'responsive'
p31
I1
tp32
a(I5
I20
F1.0
S'good'
p33
I1
tp34
a(I5
I115
F0.25
S'larger'
p35
I1
tp36
a(I5
I115
F-0.5
S'longer'
p37
I1
tp38
a(I5
I144
F0.125
S'last'
p39
I1
tp40
a(I6
I0
F0.625
S'major'
p41
I1
tp42
a(I8
I37
I0
S'great'
p43
I1
tp44
a(I8
I37
F0.625
S'removable'
p45
I1
tp46
a(I8
I45
F1.0
S'good'
p47
I1
tp48
a(I10
I65
F1.0
S'good'
p49
I1
tp50
a(I10
I65
F1.0
S'good'
p51
I1
tp52
a(I10
I70
F-0.625
S'bad'
p53
I1
tp54
a(I10
I136
F0.25
S'portable'
p55
I1
tp56
a(I0
I15
F1.0
g7
I19
tp57
a(I0
I48
F1.0
g9
I19
tp58
a(I2
I153
F1.0
g21
I19
tp59
a(I4
I13
F0.5
g25
I19
tp60
a(I5
I144
F0.125
g39
I19
tp61
a(I8
I37
I0
g43
I19
tp62
a(I10
I65
F1.0
g49
I19
tp63
as(S'sense'
p64
tp65
(lp66
(I10
I142
F-0.625
S'unprofessional'
p67
I8
tp68
a(I10
I142
F-0.5
S'less'
p69
I8
tp70
as(S'of'
p71
S'one'
p72
S'x'
p73
tp74
(lp75
(I2
I28
F0.375
S'newer'
p76
I0
tp77
a(I2
I55
F1.0
S'good'
p78
I0
tp79
a(I4
I98
I0
S'different'
p80
I0
tp81
a(I4
I205
F0.25
S'original'
p82
I0
tp83
a(I5
I38
I0
S'more'
p84
I0
tp85
a(I2
I28
F0.375
g76
I0
tp86
a(I2
I55
F1.0
g78
I0
tp87
a(I4
I98
I0
g80
I0
tp88
a(I4
I101
F-0.625
S'other'
p89
I0
tp90
a(I4
I205
F0.25
g82
I0
tp91
a(I5
I38
I0
g84
I0
tp92
a(I5
I136
F0.75
S'due'
p93
I0
tp94
a(I8
I3
F0.75
S'due'
p95
I0
tp96
as(S'call'
p97
S'quality'
p98
tp99
(lp100
(I2
I31
F1.0
S'good'
p101
I0
tp102
a(I6
I0
F1.0
S'good'
p103
I0
tp104
a(I8
I32
I0
S'most'
p105
I0
tp106
as(S'camera'
p107
tp108
(lp109
(I0
I5
I0
S'incredible'
p110
I1
tp111
a(I0
I25
F-0.625
S'average'
p112
I1
tp113
a(I2
I59
I0
S'rear'
p114
I1
tp115
a(I2
I61
F-0.5
S'regular'
p116
I1
tp117
a(I2
I109
F1.0
S'good'
p118
I1
tp119
a(I5
I88
I0
S'faster'
p120
I1
tp121
a(I5
I88
F-0.625
S'other'
p122
I1
tp123
a(I5
I100
F0.125
S'dedicated'
p124
I1
tp125
a(I5
I139
I0
S'great'
p126
I1
tp127
a(I8
I10
I0
S'extensive'
p128
I1
tp129
a(I8
I29
I0
S'great'
p130
I1
tp131
a(I10
I34
F1.0
S'best'
p132
I1
tp133
as(S'dropbox'
p134
tp135
(lp136
(I2
I46
I0
S'total'
p137
I0
tp138
a(I4
I161
F-0.625
S'free'
p139
I0
tp140
a(I4
I172
F-0.625
S'free'
p141
I0
tp142
a(I4
I178
F0.75
S'give'
p143
I0
tp144
a(I4
I178
F-0.625
S'free'
p145
I0
tp146
as(S'iphone'
p147
tp148
(lp149
(I0
I3
I0
S'latest'
p150
I1
tp151
a(I0
I3
I0
S'more'
p152
I1
tp153
a(I0
I64
F0.25
S'original'
p154
I1
tp155
a(I2
I0
I0
S'most'
p156
I1
tp157
a(I2
I101
F0.5
S'second'
p158
I1
tp159
a(I2
I158
I0
S'jailbreak'
p160
I1
tp161
a(I4
I21
I0
S'old'
p162
I1
tp163
a(I4
I69
I0
S'special'
p164
I1
tp165
a(I5
I70
I0
S'many'
p166
I1
tp167
a(I5
I90
F0.625
S'fair'
p168
I1
tp169
a(I5
I90
F1.0
S'better'
p170
I1
tp171
a(I5
I90
I0
S'same'
p172
I1
tp173
a(I5
I160
I0
S'same'
p174
I1
tp175
a(I8
I49
I0
S'close'
p176
I1
tp177
a(I10
I6
F0.375
S'new'
p178
I1
tp179
as(S'memory'
p180
tp181
(lp182
(I4
I36
I0
S'external'
p183
I5
tp184
a(I4
I38
F0.375
S'available'
p185
I5
tp186
a(I8
I45
F-0.375
S'top'
p187
I5
tp188
a(I8
I45
I0
S'minimal'
p189
I5
tp190
a(I8
I45
I0
S'internal'
p191
I5
tp192
as(S'build'
p193
S'quality'
p194
tp195
(lp196
(I2
I100
F1.0
S'best'
p197
I2
tp198
a(I4
I1
F1.0
S'best'
p199
I2
tp200
a(I4
I4
F1.0
S'good'
p201
I2
tp202
as(S'google'
p203
tp204
(lp205
(I0
I108
F-0.625
S'bad'
p206
I4
tp207
as(S'locked'
p208
S'bootloader'
p209
tp210
(lp211
(I5
I151
F0.25
S'unlocked'
p212
I0
tp213
a(I8
I35
F-0.375
S'locked'
p214
I0
tp215
a(I5
I151
F0.25
g212
I0
tp216
a(I8
I35
F-0.375
g214
I0
tp217
as(S'2'
p218
S'years'
p219
tp220
(lp221
(I4
I182
F-0.25
S'past'
p222
I3
tp223
as(S'apple'
p224
tp225
(lp226
(I0
I57
I0
S'few'
p227
I4
tp228
a(I4
I167
I0
S'active'
p229
I4
tp230
a(I6
I4
F-0.125
S'slow'
p231
I4
tp232
as(S'upgrade'
p233
tp234
(lp235
(I0
I65
F0.25
S'favorite'
p236
I3
tp237
a(I0
I65
I0
S'big'
p238
I3
tp239
a(I4
I173
I0
S'own'
p240
I3
tp241
a(I4
I173
F-0.75
S'dead'
p242
I3
tp243
a(I4
I192
F0.75
S'worth'
p244
I3
tp245
a(I4
I204
F0.5
S'eligible'
p246
I3
tp247
a(I7
I16
F0.75
S'due'
p248
I3
tp249
a(I7
I16
F-0.25
S'white'
p250
I3
tp251
a(I9
I10
I0
S'great'
p252
I3
tp253
a(I10
I6
I0
S'apple'
p254
I3
tp255
a(I10
I6
F0.625
S'hold'
p256
I3
tp257
as(S'quad-core'
p258
S'processor'
p259
tp260
(lp261
(I5
I36
F0.75
S'due'
p262
I0
tp263
as(S'beautiful'
p264
S'screen'
p265
tp266
(lp267
(I0
I65
F0.75
S'beautiful'
p268
I0
tp269
a(I2
I9
I0
S'big'
p270
I0
tp271
a(I4
I38
F0.75
S'beautiful'
p272
I0
tp273
a(I10
I1
I0
S'fast'
p274
I0
tp275
a(I10
I1
F0.75
S'beautiful'
p276
I0
tp277
a(I10
I85
F0.75
S'beautiful'
p278
I0
tp279
as(S'sim'
p280
S'card'
p281
tp282
(lp283
(I10
I147
F-0.25
S'whiter'
p284
I0
tp285
as(S'selling'
p286
S'point'
p287
tp288
(lp289
(I4
I162
F-0.5
S'sure'
p290
I0
tp291
a(I4
I162
I0
S'big'
p292
I0
tp293
a(I5
I34
F1.0
S'best'
p294
I0
tp295
a(I5
I109
F0.625
S'major'
p296
I0
tp297
a(I5
I109
I0
S'more'
p298
I0
tp299
as(S'music'
p300
tp301
(lp302
(I0
I69
F-0.625
S'cloud'
p303
I0
tp304
a(I2
I34
F1.0
S'good'
p305
I0
tp306
a(I2
I34
I0
S'even'
p307
I0
tp308
a(I2
I50
F0.875
S'important'
p309
I0
tp310
as(S'cloud'
p311
S'storage'
p312
tp313
(lp314
(I5
I119
F-0.625
S'cloud'
p315
I0
tp316
a(I5
I119
F-0.75
S'hate'
p317
I0
tp318
a(I2
I46
F0.375
S'extra'
p319
I1
tp320
a(I4
I79
F-0.625
S'free'
p321
I1
tp322
a(I5
I119
F-0.625
g315
I1
tp323
a(I5
I119
F-0.75
g317
I1
tp324
as(S'much'
p325
S'better'
p326
tp327
(lp328
(I4
I82
F0.375
S'much'
p329
I9
tp330
a(I6
I0
F0.375
S'much'
p331
I9
tp332
a(I9
I10
F0.375
S'much'
p333
I9
tp334
a(I9
I12
F0.375
S'much'
p335
I9
tp336
as(S'smartphone'
p337
tp338
(lp339
(I0
I73
F1.0
S'best'
p340
I0
tp341
a(I1
I7
F1.0
S'enjoy'
p342
I0
tp343
a(I2
I15
F-0.125
S'overall'
p344
I0
tp345
a(I2
I15
F1.0
S'best'
p346
I0
tp347
a(I2
I31
F1.0
S'good'
p348
I0
tp349
a(I2
I91
F0.375
S'new'
p350
I0
tp351
a(I3
I13
I0
S'android'
p352
I0
tp353
a(I4
I138
F0.5
S'obvious'
p354
I0
tp355
a(I5
I37
F0.125
S'popular'
p356
I0
tp357
a(I7
I18
F0.375
S'available'
p358
I0
tp359
a(I9
I10
I0
S'pervious'
p360
I0
tp361
a(I10
I69
F1.0
S'best'
p362
I0
tp363
as(S'galaxy'
p364
S's3'
p365
tp366
(lp367
(I10
I59
I0
S'galaxy'
p368
I0
tp369
a(I10
I64
F0.25
S'bigger'
p370
I0
tp371
a(I6
I1
F-0.375
S'robust'
p372
I0
tp373
as(S'an'
p374
S'sd'
p375
S'card'
p376
tp377
(lp378
(I4
I78
F0.625
S'convenient'
p379
I0
tp380
a(I5
I120
F-0.5
S'careless'
p381
I0
tp382
a(I10
I42
I0
S'own'
p383
I0
tp384
a(I4
I78
F0.625
g379
I0
tp385
a(I5
I120
F-0.5
g381
I0
tp386
a(I10
I42
I0
g383
I0
tp387
as(S'a'
p388
S'removable'
p389
S'battery'
p390
tp391
(lp392
(I0
I14
F0.625
S'removable'
p393
I0
tp394
a(I2
I153
F-0.625
g15
I0
tp395
a(I2
I153
F0.25
g17
I0
tp396
a(I2
I153
F0.625
g19
I0
tp397
a(I4
I171
F0.625
S'removable'
p398
I0
tp399
a(I7
I6
F0.625
S'removable'
p400
I0
tp401
a(I8
I11
F0.625
S'removable'
p402
I0
tp403
a(I8
I37
F0.625
g45
I0
tp404
a(I8
I45
F1.0
g47
I0
tp405
a(I0
I14
F0.625
g393
I0
tp406
a(I2
I153
F-0.625
g15
I0
tp407
a(I2
I153
F0.25
g17
I0
tp408
a(I2
I153
F0.625
g19
I0
tp409
a(I4
I171
F0.625
g398
I0
tp410
a(I7
I6
F0.625
g400
I0
tp411
a(I8
I11
F0.625
g402
I0
tp412
a(I8
I37
F0.625
g45
I0
tp413
a(I8
I45
F1.0
g47
I0
tp414
a(I0
I10
F-0.5
g5
I15
tp415
a(I0
I14
F0.625
g393
I15
tp416
a(I0
I68
F1.0
g11
I15
tp417
a(I2
I145
F-0.625
g13
I15
tp418
a(I2
I153
F-0.625
g15
I15
tp419
a(I2
I153
F0.25
g17
I15
tp420
a(I2
I153
F0.625
g19
I15
tp421
a(I2
I162
F-0.125
g23
I15
tp422
a(I4
I29
F-0.125
S'slow'
p423
I15
tp424
a(I4
I63
F-0.625
S'bad'
p425
I15
tp426
a(I4
I63
F0.25
S'bigger'
p427
I15
tp428
a(I4
I171
F0.625
g398
I15
tp429
a(I4
I188
F0.25
S'powerful'
p430
I15
tp431
a(I4
I201
F0.25
S'original'
p432
I15
tp433
a(I4
I201
F-0.125
S'slouch'
p434
I15
tp435
a(I5
I14
F-0.125
g27
I15
tp436
a(I5
I14
F-0.5
g29
I15
tp437
a(I5
I20
F0.25
g31
I15
tp438
a(I5
I20
F1.0
g33
I15
tp439
a(I5
I114
F-0.375
S'smaller'
p440
I15
tp441
a(I5
I114
I0
S'such'
p442
I15
tp443
a(I5
I115
F0.25
g35
I15
tp444
a(I5
I115
F-0.5
g37
I15
tp445
a(I5
I122
F-0.25
S'precious'
p446
I15
tp447
a(I5
I132
F0.25
S'bigger'
p448
I15
tp449
a(I6
I0
F0.625
g41
I15
tp450
a(I7
I6
F0.625
g400
I15
tp451
a(I8
I11
F0.625
g402
I15
tp452
a(I8
I37
F0.625
g45
I15
tp453
a(I8
I45
F1.0
g47
I15
tp454
a(I10
I41
I0
S'user'
p455
I15
tp456
a(I10
I41
F0.625
S'replaceable'
p457
I15
tp458
a(I10
I65
F1.0
g51
I15
tp459
a(I10
I70
F-0.625
g53
I15
tp460
a(I10
I120
F0.375
S'extra'
p461
I15
tp462
a(I10
I122
I0
S'most'
p463
I15
tp464
a(I10
I126
F0.25
S'main'
p465
I15
tp466
a(I10
I129
I0
S'full'
p467
I15
tp468
a(I10
I136
F0.25
g55
I15
tp469
as(S'apps'
p470
tp471
(lp472
(I2
I87
F-0.625
S'free'
p473
I0
tp474
a(I4
I15
F0.25
S'recent'
p475
I0
tp476
a(I4
I15
F0.125
S'last'
p477
I0
tp478
as.