(dp0
(S'battery'
p1
S'life'
p2
tp3
(lp4
(I6
I15
F-0.75
S'short'
p5
I1
tp6
a(I9
I68
F1.0
S'good'
p7
I1
tp8
a(I6
I15
F-0.75
g5
I15
tp9
a(I6
I17
F-0.75
S'short'
p10
I15
tp11
a(I9
I64
F0.875
S'nice'
p12
I15
tp13
a(I14
I13
F-0.75
S'dead'
p14
I15
tp15
as(S'nice'
p16
S'looking'
p17
tp18
(lp19
(I11
I4
F0.875
S'nice'
p20
I1
tp21
as(S'xperia'
p22
S's'
p23
tp24
(lp25
(I9
I8
F0.375
S'new'
p26
I0
tp27
a(I9
I11
I0
S'particular'
p28
I0
tp29
a(I9
I20
I0
S'least'
p30
I0
tp31
as(S'music'
p32
S'player'
p33
tp34
(lp35
(I18
I24
F0.875
S'music'
p36
I0
tp37
a(I18
I25
F-0.625
S'free'
p38
I0
tp39
as(S'camera'
p40
tp41
(lp42
(I7
I4
F1.0
S'best'
p43
I1
tp44
a(I7
I4
I0
S'great'
p45
I1
tp46
a(I14
I0
F1.0
S'best'
p47
I1
tp48
a(I14
I3
I0
S'great'
p49
I1
tp50
a(I14
I5
F0.625
S'perfect'
p51
I1
tp52
a(I14
I9
F1.0
S'good'
p53
I1
tp54
a(I15
I1
F1.0
S'good'
p55
I1
tp56
as(S'sony'
p57
tp58
(lp59
(I2
I24
F0.5
S'obvious'
p60
I5
tp61
a(I18
I10
F0.125
S'last'
p62
I5
tp63
as.