(dp0
(S'life'
p1
tp2
(lp3
(I58
I6
F1.0
S'good'
p4
tp5
a(I66
I3
I0
S'great'
p6
tp7
a(I86
I2
F-0.5
S'long'
p8
tp9
a(I100
I9
I0
S'phenomenal'
p10
tp11
a(I136
I1
I0
S'great'
p12
tp13
a(I160
I3
F-0.5
S'long'
p14
tp15
a(I178
I6
I0
S'great'
p16
tp17
a(I179
I2
I0
S'great'
p18
tp19
as(S'problem'
p20
tp21
(lp22
(I28
I4
I0
S'big'
p23
tp24
a(I35
I3
F0.5
S'technical'
p25
tp26
a(I63
I19
I0
S'same'
p27
tp28
a(I63
I19
I0
S'overseas'
p29
tp30
a(I63
I21
F0.5
S'pointed'
p31
tp32
a(I151
I2
I0
S'same'
p33
tp34
as(S'n'
p35
S'uk'
p36
tp37
(lp38
(I4
I0
F0.375
S'new'
p39
tp40
a(I4
I2
F-0.75
S'short'
p41
tp42
as(S'battery'
p43
S'life'
p44
tp45
(lp46
(I1
I0
I0
S'great'
p47
tp48
a(I14
I1
F1.0
S'good'
p49
tp50
a(I22
I0
F1.0
S'good'
p51
tp52
a(I58
I6
F1.0
g4
tp53
a(I66
I3
I0
g6
tp54
a(I86
I2
F-0.5
g8
tp55
a(I100
I9
I0
g10
tp56
a(I118
I0
I0
S'great'
p57
tp58
a(I136
I1
I0
g12
tp59
a(I154
I3
F-0.5
S'long'
p60
tp61
a(I160
I3
F-0.5
g14
tp62
a(I178
I6
I0
g16
tp63
a(I179
I2
I0
g18
tp64
a(I186
I1
F0.625
S'easy'
p65
tp66
a(I186
I1
F-0.375
S'simple'
p67
tp68
a(I186
I1
F1.0
S'good'
p69
tp70
as(S'purchase'
p71
tp72
(lp73
(I31
I0
I0
S'useful'
p74
tp75
a(I31
I0
F0.25
S'profitable'
p76
tp77
a(I33
I5
F-0.125
S'overall'
p78
tp79
a(I33
I5
F0.875
S'happy'
p80
tp81
a(I116
I0
F0.75
S'definite'
p82
tp83
a(I163
I0
F1.0
S'good'
p84
tp85
as(S'minutes'
p86
tp87
(lp88
(I3
I3
F-0.5
S'international'
p89
tp90
a(I49
I0
F-0.625
S'free'
p91
tp92
a(I49
I0
I0
S'more'
p93
tp94
a(I58
I3
I0
S'many'
p95
tp96
a(I100
I0
I0
S'more'
p97
tp98
a(I100
I11
I0
S'few'
p99
tp100
a(I111
I2
I0
S'many'
p101
tp102
a(I138
I10
I0
S'more'
p103
tp104
a(I144
I8
I0
S'many'
p105
tp106
as(S'little'
p107
tp108
(lp109
(I58
I0
F1.0
S'good'
p110
tp111
as(S'dual'
p112
S'band'
p113
tp114
(lp115
(I6
I0
I0
S'quad'
p116
tp117
a(I32
I1
I0
S'quad'
p118
tp119
as(S'sim'
p120
S'card'
p121
tp122
(lp123
(I7
I0
I0
S'european'
p124
tp125
a(I7
I0
F0.625
S'perfect'
p126
tp127
a(I9
I0
F-0.625
S'other'
p128
tp129
a(I21
I1
F-0.125
S'super'
p130
tp131
a(I21
I1
F0.625
S'easy'
p132
tp133
a(I21
I1
I0
S'instal'
p134
tp135
a(I21
I1
I0
S'local'
p136
tp137
a(I33
I1
I0
S'great'
p138
tp139
a(I57
I0
I0
S'local'
p140
tp141
a(I79
I2
I0
S'useful'
p142
tp143
a(I92
I1
F-0.5
S'international'
p144
tp145
a(I92
I1
I0
S'great'
p146
tp147
a(I101
I2
F0.125
S'able'
p148
tp149
a(I104
I1
F0.125
S'able'
p150
tp151
a(I132
I1
I0
S'different'
p152
tp153
a(I132
I1
F0.5
S'second'
p154
tp155
a(I146
I3
I0
S'quick'
p156
tp157
a(I161
I3
F-0.25
S'cheaper'
p158
tp159
a(I180
I2
F-0.5
S'international'
p160
tp161
a(I182
I0
F0.625
S'perfect'
p162
tp163
a(I184
I16
I0
S'standard'
p164
tp165
a(I184
I19
I0
S'standard'
p166
tp167
a(I191
I1
I0
S'french'
p168
tp169
a(I191
I1
I0
S'orange'
p170
tp171
as(S'traveling'
p172
tp173
(lp174
(I150
I0
I0
S'great'
p175
tp176
a(I150
I0
F-0.375
S'simple'
p177
tp178
as(S'text'
p179
tp180
(lp181
(I32
I5
F0.25
S'voice'
p182
tp183
a(I69
I2
F0.125
S'able'
p184
tp185
a(I69
I2
F-0.625
S'other'
p186
tp187
as(S'nice'
p188
tp189
(lp190
(I20
I0
I0
S'ergonomic'
p191
tp192
as(S'price'
p193
tp194
(lp195
(I9
I2
F1.0
S'good'
p196
tp197
a(I68
I2
F-0.25
S'low'
p198
tp199
a(I97
I1
F0.625
S'beat'
p200
tp201
a(I128
I3
F0.125
S'able'
p202
tp203
a(I128
I3
F-0.625
S'other'
p204
tp205
a(I128
I3
F-0.75
S'modest'
p206
tp207
a(I136
I0
F-0.5
S'sure'
p208
tp209
a(I164
I4
I0
S'such'
p210
tp211
a(I172
I2
F1.0
S'good'
p212
tp213
a(I184
I27
F0.5
S'reasonable'
p214
tp215
as(S'overseas'
p216
tp217
(lp218
(I146
I3
I0
S'cellular'
p219
tp220
as(S'dual'
p221
S'sim'
p222
S'feature'
p223
tp224
(lp225
(I55
I1
F-0.5
S'international'
p226
tp227
a(I127
I0
F0.875
S'nice'
p228
tp229
a(I127
I0
F0.5
S'functional'
p230
tp231
a(I156
I0
I0
S'useful'
p232
tp233
a(I178
I1
F1.0
S'best'
p234
tp235
as(S'service'
p236
tp237
(lp238
(I3
I3
F-0.5
S'international'
p239
tp240
as(S'few'
p241
S'days'
p242
tp243
(lp244
(I60
I2
I0
S'few'
p245
tp246
a(I85
I1
I0
S'few'
p247
tp248
a(I151
I0
I0
S'few'
p249
tp250
as(S'countries'
p251
tp252
(lp253
(I68
I3
I0
S'few'
p254
tp255
a(I68
I3
I0
S'european'
p256
tp257
a(I74
I2
F0.125
S'able'
p258
tp259
a(I143
I2
F-0.625
S'other'
p260
tp261
a(I143
I2
F0.75
S'due'
p262
tp263
a(I162
I1
I0
S'different'
p264
tp265
a(I178
I0
I0
S'european'
p266
tp267
a(I181
I1
I0
S'different'
p268
tp269
a(I184
I2
I0
S'most'
p270
tp271
as(S'charger'
p272
tp273
(lp274
(I53
I1
I0
S'wired'
p275
tp276
a(I63
I1
F0.5
S'compatible'
p277
tp278
a(I172
I1
F-0.5
S'separate'
p279
tp280
as(S'number'
p281
tp282
(lp283
(I5
I3
I0
S'dial'
p284
tp285
a(I35
I2
F-0.625
S'free'
p286
tp287
a(I96
I1
I0
S'useful'
p288
tp289
a(I177
I3
F-0.25
S'direct'
p290
tp291
a(I182
I2
I0
S'dial'
p292
tp293
a(I184
I22
I0
S'local'
p294
tp295
a(I190
I3
I0
S'local'
p296
tp297
as(S'need'
p298
tp299
(lp300
(I162
I0
F0.375
S'interesting'
p301
tp302
as(S'back'
p303
tp304
(lp305
(I42
I10
I0
S'great'
p306
tp307
as(S'quad'
p308
tp309
(lp310
(I96
I0
F-0.375
S'simple'
p311
tp312
a(I148
I3
F0.5
S'true'
p313
tp314
a(I148
I8
F0.5
S'true'
p315
tp316
as(S'dual'
p317
S'sim'
p318
tp319
(lp320
(I41
I2
I0
S'useful'
p321
tp322
a(I55
I1
F-0.5
g226
tp323
a(I63
I8
F0.25
S'unlocked'
p324
tp325
a(I65
I1
F0.875
S'nice'
p326
tp327
a(I175
I0
F1.0
S'good'
p328
tp329
as(S'week'
p330
tp331
(lp332
(I81
I4
I0
S'least'
p333
tp334
a(I134
I1
F0.625
S'easy'
p335
tp336
a(I138
I2
F0.125
S'first'
p337
tp338
as(S'best'
p339
S'sellers'
p340
tp341
(lp342
(I48
I1
F1.0
S'best'
p343
tp344
a(I63
I22
I0
S'mobile'
p345
tp346
a(I63
I22
F1.0
S'best'
p347
tp348
a(I63
I23
I0
S'mobile'
p349
tp350
a(I63
I23
F1.0
S'best'
p351
tp352
a(I119
I0
F1.0
S'best'
p353
tp354
a(I119
I4
F1.0
S'best'
p355
tp356
as(S'bought'
p357
S'a'
p358
S'sim'
p359
tp360
(lp361
(I57
I0
I0
g140
tp362
a(I191
I1
I0
g168
tp363
as(S'quality'
p364
tp365
(lp366
(I1
I0
F1.0
S'good'
p367
tp368
a(I14
I2
F-0.875
S'awful'
p369
tp370
a(I23
I1
F-0.25
S'low'
p371
tp372
a(I71
I3
F-0.25
S'low'
p373
tp374
a(I87
I3
I0
S'basic'
p375
tp376
a(I124
I2
F1.0
S'good'
p377
tp378
a(I176
I2
F-0.5
S'poor'
p379
tp380
a(I183
I4
I0
S'adequate'
p381
tp382
as(S'product'
p383
tp384
(lp385
(I36
I0
F1.0
S'good'
p386
tp387
a(I40
I0
F0.75
S'respect'
p388
tp389
a(I91
I0
F0.125
S'able'
p390
tp391
a(I107
I2
I0
S'great'
p392
tp393
a(I120
I0
I0
S'such'
p394
tp395
a(I124
I0
F1.0
S'good'
p396
tp397
a(I140
I1
I0
S'great'
p398
tp399
as(S'two'
p400
S'sim'
p401
S'cards'
p402
tp403
(lp404
(I36
I2
I0
S'handy'
p405
tp406
as(S'mobile'
p407
tp408
(lp409
(I121
I0
I0
S'great'
p410
tp411
as(S'menu'
p412
tp413
(lp414
(I31
I1
F0.25
S'inductive'
p415
tp416
a(I63
I15
F0.125
S'able'
p417
tp418
a(I63
I15
I0
S'english'
p419
tp420
a(I63
I16
F0.625
S'easy'
p421
tp422
as(S'simple'
p423
S'to'
p424
S'use'
p425
tp426
(lp427
(I37
I2
F-0.375
S'simple'
p428
tp429
as(S'features'
p430
tp431
(lp432
(I62
I1
F0.25
S'used'
p433
tp434
a(I63
I23
I0
S'specific'
p435
tp436
a(I93
I0
I0
S'standard'
p437
tp438
a(I93
I2
I0
S'basic'
p439
tp440
a(I100
I2
F-0.375
S'small'
p441
tp442
a(I146
I4
F0.375
S'extra'
p443
tp444
a(I147
I1
I0
S'special'
p445
tp446
a(I168
I1
F0.25
S'related'
p447
tp448
as(S'band'
p449
tp450
(lp451
(I6
I0
I0
g116
tp452
a(I32
I1
I0
g118
tp453
as(S'feature'
p454
tp455
(lp456
(I127
I0
F0.875
g228
tp457
a(I127
I0
F0.5
g230
tp458
a(I155
I1
F1.0
S'good'
p459
tp460
a(I156
I0
I0
g232
tp461
a(I178
I1
F1.0
g234
tp462
as(S'call'
p463
tp464
(lp465
(I146
I4
I0
S'basic'
p466
tp467
a(I161
I3
F-0.25
S'cheaper'
p468
tp469
a(I170
I2
I0
S'local'
p470
tp471
a(I184
I12
F0.5
S'clear'
p472
tp473
as(S'sim'
p474
S'cards'
p475
tp476
(lp477
(I36
I2
I0
g405
tp478
a(I40
I1
F-0.625
S'other'
p479
tp480
a(I57
I0
I0
g140
tp481
a(I101
I2
F0.125
g148
tp482
a(I132
I1
I0
g152
tp483
a(I161
I3
F-0.25
g158
tp484
a(I184
I16
I0
g164
tp485
a(I184
I19
I0
g166
tp486
a(I184
I19
F0.375
S'available'
p487
tp488
as(S'simple'
p489
tp490
(lp491
(I115
I0
F0.875
S'nice'
p492
tp493
a(I154
I3
F-0.625
S'other'
p494
tp495
a(I154
I3
F1.0
S'good'
p496
tp497
as(S'works'
p498
tp499
(lp500
(I100
I12
F0.75
S'give'
p501
tp502
a(I147
I1
I0
S'great'
p503
tp504
a(I159
I0
F0.375
S'new'
p505
tp506
a(I189
I1
I0
S'great'
p507
tp508
as(S'battery'
p509
tp510
(lp511
(I1
I0
I0
g47
tp512
a(I14
I1
F1.0
g49
tp513
a(I20
I0
F1.0
S'good'
p514
tp515
a(I22
I0
F1.0
g51
tp516
a(I75
I0
F-0.625
S'bad'
p517
tp518
a(I82
I0
F0.125
S'last'
p519
tp520
a(I85
I1
I0
S'great'
p521
tp522
a(I102
I1
F-0.75
S'dead'
p523
tp524
a(I118
I0
I0
g57
tp525
a(I128
I1
I0
S'great'
p526
tp527
a(I135
I1
F0.125
S'last'
p528
tp529
a(I135
I1
F-0.5
S'long'
p530
tp531
a(I141
I1
F0.125
S'last'
p532
tp533
a(I154
I3
F-0.5
g60
tp534
a(I186
I1
F0.625
g65
tp535
a(I186
I1
F-0.375
g67
tp536
a(I186
I1
F1.0
g69
tp537
as(S'smart'
p538
tp539
(lp540
(I189
I0
I0
S'basic'
p541
tp542
as(S'reception'
p543
tp544
(lp545
(I89
I2
I0
S'most'
p546
tp547
a(I100
I4
F1.0
S'good'
p548
tp549
a(I178
I5
F1.0
S'good'
p550
tp551
a(I181
I2
I0
S'great'
p552
tp553
a(I184
I27
F1.0
S'good'
p554
tp555
as(S'network'
p556
tp557
(lp558
(I10
I4
I0
S'same'
p559
tp560
a(I113
I2
I0
S'frequent'
p561
tp562
a(I113
I11
F1.0
S'better'
p563
tp564
a(I113
I11
I0
S'stable'
p565
tp566
as(S'cell'
p567
tp568
(lp569
(I75
I0
F-0.75
S'secondary'
p570
tp571
a(I78
I2
F-0.375
S'nearest'
p572
tp573
a(I112
I0
F0.875
S'happy'
p574
tp575
a(I147
I1
F-0.375
S'simple'
p576
tp577
a(I160
I0
I0
S'basic'
p578
tp579
a(I179
I0
I0
S'great'
p580
tp581
a(I179
I1
F0.5
S'personal'
p582
tp583
as(S'calls'
p584
tp585
(lp586
(I3
I3
F-0.625
S'free'
p587
tp588
a(I169
I3
F0.5
S'clear'
p589
tp590
a(I181
I1
F0.125
S'able'
p591
tp592
as(S'cheap'
p593
tp594
(lp595
(I28
I0
F-0.375
S'small'
p596
tp597
a(I28
I0
I0
S'efficient'
p598
tp599
a(I136
I3
F1.0
S'good'
p600
tp601
as(S'charge'
p602
tp603
(lp604
(I3
I5
F1.0
S'good'
p605
tp606
a(I63
I4
I0
S'initial'
p607
tp608
a(I182
I4
I0
S'great'
p609
tp610
as(S'speaker'
p611
S'volume'
p612
tp613
(lp614
(I61
I0
F0.375
S'loud'
p615
tp616
a(I173
I0
F-0.25
S'low'
p617
tp618
as(S'samsung'
p619
tp620
(lp621
(I138
I2
F-0.75
S'little'
p622
tp623
a(I168
I3
F1.0
S'good'
p624
tp625
a(I184
I26
I0
S'proprietary'
p626
tp627
as(S'sims'
p628
tp629
(lp630
(I100
I14
F0.375
S'new'
p631
tp632
a(I100
I14
F-0.5
S'sure'
p633
tp634
a(I112
I3
F0.125
S'key'
p635
tp636
a(I178
I2
F0.625
S'easy'
p637
tp638
as(S'quad'
p639
S'band'
p640
tp641
(lp642
(I6
I0
I0
g116
tp643
a(I32
I1
I0
g118
tp644
a(I148
I3
F0.5
g313
tp645
a(I148
I8
F0.5
g315
tp646
as(S'product'
p647
S'description'
p648
tp649
(lp650
(I63
I10
I0
S'least'
p651
tp652
as(S'time'
p653
tp654
(lp655
(I33
I4
F-0.875
S'hard'
p656
tp657
a(I63
I18
I0
S'different'
p658
tp659
a(I68
I3
F-0.5
S'sure'
p660
tp661
a(I68
I3
I0
S'next'
p662
tp663
a(I68
I5
I0
S'same'
p664
tp665
a(I74
I3
F-0.5
S'long'
p666
tp667
a(I100
I14
I0
S'next'
p668
tp669
a(I106
I0
I0
S'same'
p670
tp671
a(I107
I1
I0
S'great'
p672
tp673
a(I113
I9
F0.125
S'first'
p674
tp675
a(I183
I3
F-0.5
S'long'
p676
tp677
as(g358
S'quad'
p678
S'band'
p679
tp680
(lp681
(I6
I0
I0
g116
tp682
a(I32
I1
I0
g118
tp683
a(I148
I3
F0.5
g313
tp684
a(I148
I8
F0.5
g315
tp685
as(S'trip'
p686
tp687
(lp688
(I8
I0
I0
S'overseas'
p689
tp690
a(I12
I1
I0
S'overseas'
p691
tp692
a(I21
I0
F0.125
S'last'
p693
tp694
a(I23
I2
F-0.75
S'short'
p695
tp696
a(I100
I12
I0
S'entire'
p697
tp698
a(I129
I0
I0
S'cutthroat'
p699
tp700
as(S'card'
p701
tp702
(lp703
(I7
I0
F0.625
g126
tp704
a(I33
I1
I0
g138
tp705
a(I79
I2
I0
g142
tp706
a(I92
I1
I0
g146
tp707
a(I132
I1
F0.5
g154
tp708
a(I182
I0
F0.625
g162
tp709
a(I191
I1
I0
g170
tp710
as(S'country'
p711
tp712
(lp713
(I9
I0
F-0.125
S'foreign'
p714
tp715
as(g358
S'sim'
p716
S'card'
p717
tp718
(lp719
(I7
I0
I0
g124
tp720
a(I7
I0
F0.625
g126
tp721
a(I9
I0
F-0.625
g128
tp722
a(I21
I1
F-0.125
g130
tp723
a(I21
I1
F0.625
g132
tp724
a(I21
I1
I0
g134
tp725
a(I21
I1
I0
g136
tp726
a(I33
I1
I0
g138
tp727
a(I57
I0
I0
g140
tp728
a(I79
I2
I0
g142
tp729
a(I92
I1
F-0.5
g144
tp730
a(I92
I1
I0
g146
tp731
a(I101
I2
F0.125
g148
tp732
a(I104
I1
F0.125
g150
tp733
a(I132
I1
I0
g152
tp734
a(I132
I1
F0.5
g154
tp735
a(I146
I3
I0
g156
tp736
a(I161
I3
F-0.25
g158
tp737
a(I180
I2
F-0.5
g160
tp738
a(I182
I0
F0.625
g162
tp739
a(I184
I16
I0
g164
tp740
a(I184
I19
I0
g166
tp741
a(I191
I1
I0
g168
tp742
a(I191
I1
I0
g170
tp743
as(S'mobile'
p744
S'best'
p745
S'sellers'
p746
tp747
(lp748
(I48
I1
F1.0
g343
tp749
a(I63
I22
I0
g345
tp750
a(I63
I22
F1.0
g347
tp751
a(I63
I23
I0
g349
tp752
a(I63
I23
F1.0
g351
tp753
a(I119
I0
F1.0
g353
tp754
a(I119
I4
F1.0
g355
tp755
as(S'travel'
p756
tp757
(lp758
(I31
I2
I0
S'great'
p759
tp760
a(I56
I0
I0
S'great'
p761
tp762
a(I56
I0
F0.625
S'easy'
p763
tp764
a(I74
I0
F1.0
S'good'
p765
tp766
a(I104
I0
F-0.5
S'international'
p767
tp768
a(I160
I5
I0
S'great'
p769
tp770
a(I160
I5
I0
S'prepaid'
p771
tp772
as(S't'
p773
S'mobile'
p774
S'sim'
p775
tp776
(lp777
(I63
I8
F0.25
g324
tp778
a(I146
I3
I0
g156
tp779
as(S'texting'
p780
tp781
(lp782
(I41
I3
I0
S'great'
p783
tp784
a(I41
I3
F1.0
S'good'
p785
tp786
a(I115
I0
F-0.375
S'simple'
p787
tp788
as(S'light'
p789
tp790
(lp791
(I154
I1
F0.875
S'nice'
p792
tp793
as(S'days'
p794
tp795
(lp796
(I31
I2
F0.375
S'reliable'
p797
tp798
a(I60
I2
I0
g245
tp799
a(I85
I1
I0
g247
tp800
a(I136
I2
I0
S'great'
p801
tp802
a(I149
I1
F0.375
S'early'
p803
tp804
a(I151
I0
I0
g249
tp805
as(S'cards'
p806
tp807
(lp808
(I36
I2
I0
g405
tp809
a(I40
I1
F-0.625
g479
tp810
a(I184
I19
F0.375
g487
tp811
as(S'cost'
p812
tp813
(lp814
(I56
I1
I0
S'great'
p815
tp816
a(I95
I1
F0.5
S'reasonable'
p817
tp818
a(I183
I1
I0
S'high'
p819
tp820
as(S'sound'
p821
S'quality'
p822
tp823
(lp824
(I124
I2
F1.0
g377
tp825
a(I183
I4
I0
g381
tp826
as.