(dp0
(S'year'
p1
S'of'
p2
S'service'
p3
tp4
(lp5
(I6
I60
I0
S'great'
p6
I0
tp7
a(I7
I50
I0
S'basic'
p8
I0
tp9
a(I2
I36
F0.125
S'first'
p10
I16
tp11
a(I4
I19
I0
S'same'
p12
I16
tp13
a(I6
I45
I0
S'human'
p14
I16
tp15
a(I6
I60
I0
g6
I16
tp16
a(I7
I50
I0
g8
I16
tp17
as(S'long'
p18
S'distance'
p19
tp20
(lp21
(I4
I22
F-0.5
S'long'
p22
I0
tp23
a(I4
I24
F-0.5
S'long'
p24
I0
tp25
as(S'1'
p26
S'year'
p27
tp28
(lp29
(I1
I0
F0.5
S'whole'
p30
I10
tp31
as(S'minutes'
p32
S'for'
p33
S'life'
p34
tp35
(lp36
(I2
I26
F-0.375
S'double'
p37
I0
tp38
a(I3
I4
F-0.25
S'triple'
p39
I0
tp40
a(I6
I12
F-0.375
S'double'
p41
I0
tp42
as(S'customer'
p43
S'service'
p44
tp45
(lp46
(I2
I36
F0.125
g10
I3
tp47
a(I6
I45
I0
g14
I3
tp48
a(I7
I108
F-0.5
S'longer'
p49
I3
tp50
a(I7
I108
F-0.5
g49
I11
tp51
as(S'1200'
p52
S'minutes'
p53
tp54
(lp55
(I1
I9
F0.375
S'extra'
p56
I0
tp57
a(I1
I9
F-0.375
S'top'
p58
I0
tp59
a(I4
I24
F-0.5
S'less'
p60
I0
tp61
a(I6
I12
F-0.375
g41
I0
tp62
as(S'triple'
p63
S'minutes'
p64
tp65
(lp66
(I2
I26
F-0.375
g37
I0
tp67
a(I3
I4
F-0.25
g39
I0
tp68
a(I6
I25
F-0.5
S'sure'
p69
I0
tp70
as(S'tracfone'
p71
S'website'
p72
tp73
(lp74
(I2
I26
I0
S'website'
p75
I0
tp76
a(I2
I46
I0
S'same'
p77
I0
tp78
a(I2
I26
I0
g75
I0
tp79
a(I2
I46
I0
g77
I0
tp80
a(I4
I19
F-0.5
S'less'
p81
I0
tp82
a(I6
I44
F0.5
S'disposable'
p83
I0
tp84
as.