(dp0
(S'seller'
p1
tp2
(lp3
(I16
I7
I0
S'website'
p4
I19
tp5
as(S'sprint'
p6
tp7
(lp8
(I2
I15
F1.0
S'good'
p9
I0
tp10
a(I10
I0
I0
S'full'
p11
I0
tp12
a(I15
I0
F-0.125
S'mine'
p13
I0
tp14
a(I16
I18
F-0.875
S'trouble'
p15
I0
tp16
as(S'iphone'
p17
tp18
(lp19
(I1
I11
F-0.25
S'white'
p20
I1
tp21
a(I1
I11
F-0.375
S'black'
p22
I1
tp23
a(I1
I33
F0.375
S'new'
p24
I1
tp25
a(I2
I1
F0.375
S'new'
p26
I1
tp27
a(I6
I6
F-0.375
S'small'
p28
I1
tp29
a(I9
I15
F0.875
S'happier'
p30
I1
tp31
a(I13
I10
F0.25
S'original'
p32
I1
tp33
a(I13
I24
F0.375
S'new'
p34
I1
tp35
a(I13
I24
I0
S'great'
p36
I1
tp37
a(I15
I24
I0
S'third'
p38
I1
tp39
a(I15
I43
F0.375
S'new'
p40
I1
tp41
a(I16
I21
F0.25
S'original'
p42
I1
tp43
a(I17
I12
F-0.625
S'other'
p44
I1
tp45
a(I19
I4
F0.375
S'new'
p46
I1
tp47
as(S'no'
p48
S'problems'
p49
tp50
(lp51
(I15
I36
I0
S'adamant'
p52
I17
tp53
as(S'apple'
p54
tp55
(lp56
(I9
I19
F-0.625
S'other'
p57
I4
tp58
a(I15
I25
F0.25
S'original'
p59
I4
tp60
as(S'apps'
p61
tp62
(lp63
(I1
I7
I0
S'useful'
p64
I0
tp65
a(I2
I11
I0
S'such'
p66
I0
tp67
a(I2
I73
I0
S'many'
p68
I0
tp69
as(S'no'
p70
S'scratches'
p71
tp72
(lp73
(I13
I8
F0.375
S'new'
p74
I1
tp75
as.