(dp0
(S'require'
p1
S'a'
p2
S'data'
p3
tp4
(lp5
(I12
I46
I0
S'many'
p6
I0
tp7
a(I0
I5
I0
S'e-mail'
p8
I13
tp9
a(I10
I79
F-0.875
S'hard'
p10
I13
tp11
a(I10
I91
F0.375
S'extra'
p12
I13
tp13
a(I12
I46
I0
g6
I13
tp14
a(I17
I3
F-0.25
S'higher'
p15
I13
tp16
a(I18
I117
F0.375
S'extra'
p17
I13
tp18
a(I21
I23
I0
S'monthly'
p19
I13
tp20
as(S'every'
p21
S'time'
p22
tp23
(lp24
(I9
I122
I0
S're-entering'
p25
I14
tp26
a(I9
I350
F0.5
S'second'
p27
I14
tp28
a(I18
I115
F0.125
S'outside'
p29
I14
tp30
as(S'battery'
p31
S'life'
p32
tp33
(lp34
(I5
I58
F-0.75
S'short'
p35
I1
tp36
a(I5
I78
F0.5
S'reasonable'
p37
I1
tp38
a(I7
I35
F1.0
S'good'
p39
I1
tp40
a(I9
I53
F1.0
S'good'
p41
I1
tp42
a(I9
I324
I0
S'least'
p43
I1
tp44
a(I21
I21
I0
S'great'
p45
I1
tp46
a(I3
I69
F-0.75
S'short'
p47
I15
tp48
a(I7
I9
F1.0
S'good'
p49
I15
tp50
a(I9
I38
I0
S'buggy'
p51
I15
tp52
a(I9
I38
F0.5
S'second'
p53
I15
tp54
a(I9
I40
F0.375
S'new'
p55
I15
tp56
a(I9
I324
I0
g43
I15
tp57
a(I9
I331
F-0.75
S'dead'
p58
I15
tp59
a(I20
I85
F-0.25
S'low'
p60
I15
tp61
a(I20
I86
F-0.25
S'low'
p62
I15
tp63
a(I20
I86
F-0.25
S'low'
p64
I15
tp65
as(S'smartphone'
p66
tp67
(lp68
(I9
I223
F1.0
S'like'
p69
I0
tp70
a(I9
I280
F-0.5
S'actual'
p71
I0
tp72
as(S'lock'
p73
S'screen'
p74
tp75
(lp76
(I9
I348
F0.5
S'touch'
p77
I0
tp78
a(I9
I348
F0.5
S'touch'
p79
I0
tp80
a(I9
I354
F0.5
S'whole'
p81
I0
tp82
a(I10
I36
F0.25
S'responsive'
p83
I0
tp84
a(I12
I30
F-0.625
S'light'
p85
I0
tp86
as(S'bright'
p87
S'side'
p88
tp89
(lp90
(I20
I27
F-0.625
S'other'
p91
I1
tp92
a(I20
I27
F-0.75
S'bright'
p93
I1
tp94
a(I20
I30
F-0.75
S'bright'
p95
I1
tp96
a(I20
I41
F-0.75
S'bright'
p97
I1
tp98
a(I20
I44
F-0.75
S'bright'
p99
I1
tp100
as(S'call'
p101
S'quality'
p102
tp103
(lp104
(I1
I84
I0
S'great'
p105
I0
tp106
a(I5
I78
F1.0
S'good'
p107
I0
tp108
a(I9
I304
F0.625
S'perfect'
p109
I0
tp110
a(I10
I59
F1.0
S'good'
p111
I0
tp112
a(I11
I64
I0
S'great'
p113
I0
tp114
as(S'customer'
p115
S'support'
p116
tp117
(lp118
(I1
I112
F0.5
S'technical'
p119
I0
tp120
as(S'camera'
p121
tp122
(lp123
(I0
I3
F-0.625
S'bad'
p124
I1
tp125
a(I1
I71
F-0.5
S'weak'
p126
I1
tp127
a(I2
I9
F0.125
S'first'
p128
I1
tp129
a(I9
I88
F-0.875
S'awful'
p130
I1
tp131
a(I10
I47
F-0.5
S'worthless'
p132
I1
tp133
a(I10
I67
F-0.5
S'regular'
p134
I1
tp135
a(I10
I150
F1.0
S'good'
p136
I1
tp137
a(I18
I137
I0
S'great'
p138
I1
tp139
a(I20
I104
F1.0
S'good'
p140
I1
tp141
as(S'samsung'
p142
S'brightside'
p143
tp144
(lp145
(I1
I68
I0
S'old'
p146
I0
tp147
a(I1
I68
I0
S'great'
p148
I0
tp149
a(I1
I157
F0.5
S'second'
p150
I0
tp151
a(I9
I110
I0
S'update'
p152
I0
tp153
a(I1
I68
I0
g146
I7
tp154
a(I1
I68
I0
g148
I7
tp155
a(I1
I157
F0.5
g150
I7
tp156
a(I9
I29
F0.5
S'told'
p157
I7
tp158
a(I9
I110
I0
g152
I7
tp159
a(I9
I243
F0.375
S'looked'
p160
I7
tp161
a(I10
I4
F-0.125
S'overall'
p162
I7
tp163
a(I10
I48
F-0.889
S'unfortunate'
p164
I7
tp165
a(I10
I54
F-0.875
S'stuck'
p166
I7
tp167
a(I18
I106
F0.5
S'second'
p168
I7
tp169
a(I1
I66
I0
S'next'
p170
I0
tp171
a(I3
I234
F0.875
S'happy'
p172
I0
tp173
a(I9
I133
I0
S'third'
p174
I0
tp175
a(I9
I274
F0.375
S'similar'
p176
I0
tp177
a(I9
I274
F-0.75
S'wrong'
p178
I0
tp179
a(I12
I39
F0.375
S'much'
p180
I0
tp181
a(I18
I59
F0.125
S'first'
p182
I0
tp183
a(I20
I0
I0
S'great'
p184
I0
tp185
a(I20
I3
F0.875
S'happy'
p186
I0
tp187
as(S'slide'
p188
S'out'
p189
S'qwerty'
p190
tp191
(lp192
(I1
I85
F0.875
S'nice'
p193
I0
tp194
a(I11
I89
F1.0
S'best'
p195
I0
tp196
a(I18
I46
I0
S'real'
p197
I0
tp198
a(I1
I85
F0.875
g193
I6
tp199
a(I1
I118
F1.0
S'good'
p200
I6
tp201
a(I8
I49
I0
S'large'
p202
I0
tp203
a(I9
I224
I0
S'slid'
p204
I0
tp205
a(I11
I64
I0
S'full'
p206
I0
tp207
a(I11
I89
F1.0
g195
I0
tp208
a(I18
I46
I0
g197
I0
tp209
a(I21
I19
F0.25
S'bigger'
p210
I0
tp211
as(S'go'
p212
S'to'
p213
S'settings'
p214
tp215
(lp216
(I3
I17
F0.5
S'touch'
p217
I0
tp218
a(I9
I83
F1.0
S'good'
p219
I0
tp220
a(I9
I83
I0
S'very'
p221
I0
tp222
a(I2
I45
I0
S'own'
p223
I1
tp224
a(I3
I17
F0.5
g217
I1
tp225
a(I9
I83
F1.0
g219
I1
tp226
a(I9
I83
I0
g221
I1
tp227
as(g2
S'touch'
p228
S'screen'
p229
tp230
(lp231
(I1
I37
F0.5
S'touch'
p232
I0
tp233
a(I1
I37
I0
S'sensitive'
p234
I0
tp235
a(I1
I84
I0
S'great'
p236
I0
tp237
a(I1
I96
F-0.625
S'unpredictable'
p238
I0
tp239
a(I1
I99
F0.5
S'touch'
p240
I0
tp241
a(I3
I9
F0.125
S'able'
p242
I0
tp243
a(I3
I9
F0.125
S'able'
p244
I0
tp245
a(I3
I9
F-0.375
S'top'
p246
I0
tp247
a(I3
I20
F0.25
S'main'
p248
I0
tp249
a(I3
I103
I0
S'fast'
p250
I0
tp251
a(I3
I135
F0.5
S'touch'
p252
I0
tp253
a(I3
I135
I0
S'active'
p254
I0
tp255
a(I3
I207
F0.875
S'nice'
p256
I0
tp257
a(I3
I224
F0.5
S'touch'
p258
I0
tp259
a(I3
I224
I0
S'sensitive'
p260
I0
tp261
a(I3
I258
F0.5
S'touch'
p262
I0
tp263
a(I3
I258
F-0.625
S'quiet'
p264
I0
tp265
a(I3
I258
I0
S'large'
p266
I0
tp267
a(I5
I9
F0.25
S'responsive'
p268
I0
tp269
a(I5
I9
I0
S'older'
p270
I0
tp271
a(I5
I9
I0
S'basic'
p272
I0
tp273
a(I5
I78
F0.5
S'touch'
p274
I0
tp275
a(I5
I86
F0.5
S'touch'
p276
I0
tp277
a(I5
I86
F0.25
S'responsive'
p278
I0
tp279
a(I7
I2
F0.5
S'touch'
p280
I0
tp281
a(I8
I68
I0
S'sensitive'
p282
I0
tp283
a(I9
I12
I0
S'sensitive'
p284
I0
tp285
a(I9
I16
F0.5
S'touch'
p286
I0
tp287
a(I9
I112
I0
S'sensitive'
p288
I0
tp289
a(I9
I164
F0.5
S'touch'
p290
I0
tp291
a(I9
I164
F0.5
S'touch'
p292
I0
tp293
a(I9
I189
F0.5
S'touch'
p294
I0
tp295
a(I9
I199
I0
S'sensitive'
p296
I0
tp297
a(I9
I222
F0.5
S'touch'
p298
I0
tp299
a(I9
I268
I0
S'sensitive'
p300
I0
tp301
a(I9
I321
I0
S'sensitive'
p302
I0
tp303
a(I9
I333
F0.5
S'touch'
p304
I0
tp305
a(I9
I340
F0.5
S'touch'
p306
I0
tp307
a(I9
I348
F0.5
g77
I0
tp308
a(I9
I348
F0.5
g79
I0
tp309
a(I9
I398
F0.5
S'touch'
p310
I0
tp311
a(I10
I27
F0.5
S'touch'
p312
I0
tp313
a(I10
I36
F0.25
g83
I0
tp314
a(I10
I53
F0.5
S'touch'
p315
I0
tp316
a(I10
I60
F0.5
S'accurate'
p317
I0
tp318
a(I10
I60
F0.25
S'responsive'
p319
I0
tp320
a(I10
I61
F1.0
S'good'
p321
I0
tp322
a(I10
I94
I0
S'sensitive'
p323
I0
tp324
a(I10
I102
F0.5
S'touch'
p325
I0
tp326
a(I10
I138
I0
S'sensitive'
p327
I0
tp328
a(I10
I147
F0.5
S'touch'
p329
I0
tp330
a(I10
I158
F0.5
S'touch'
p331
I0
tp332
a(I11
I75
F-0.625
S'other'
p333
I0
tp334
a(I11
I75
F0.875
S'nice'
p335
I0
tp336
a(I11
I75
F0.25
S'responsive'
p337
I0
tp338
a(I12
I15
F0.5
S'touch'
p339
I0
tp340
a(I12
I20
F0.5
S'touch'
p341
I0
tp342
a(I12
I30
F-0.625
g85
I0
tp343
a(I12
I47
I0
S'resistive'
p344
I0
tp345
a(I12
I62
F0.5
S'touch'
p346
I0
tp347
a(I12
I71
F0.875
S'nice'
p348
I0
tp349
a(I18
I0
F0.5
S'touch'
p350
I0
tp351
a(I18
I46
F-0.75
S'single'
p352
I0
tp353
a(I18
I57
F0.5
S'touch'
p354
I0
tp355
a(I18
I57
F0.875
S'important'
p356
I0
tp357
a(I18
I78
I0
S'sensitive'
p358
I0
tp359
a(I18
I121
F0.5
S'touch'
p360
I0
tp361
a(I18
I135
F0.25
S'responsive'
p362
I0
tp363
a(I20
I117
I0
S'sensitive'
p364
I0
tp365
a(I21
I0
F0.5
S'touch'
p366
I0
tp367
a(I21
I4
F-0.875
S'awful'
p368
I0
tp369
a(I21
I20
F0.5
S'touch'
p370
I0
tp371
as(S'blue'
p372
S'tooth'
p373
tp374
(lp375
(I3
I122
I0
S'blue'
p376
I0
tp377
a(I3
I148
I0
S'blue'
p378
I0
tp379
a(I3
I149
I0
S'blue'
p380
I0
tp381
a(I3
I151
I0
S'blue'
p382
I0
tp383
a(I3
I151
I0
S'blue'
p384
I0
tp385
a(I3
I157
I0
S'blue'
p386
I0
tp387
a(I3
I161
F0.5
S'possible'
p388
I0
tp389
a(I3
I161
I0
S'blue'
p390
I0
tp391
a(I3
I161
I0
S'very'
p392
I0
tp393
a(I3
I161
F0.625
S'noticeable'
p394
I0
tp395
a(I3
I164
F1.0
S'good'
p396
I0
tp397
a(I3
I164
I0
S'blue'
p398
I0
tp399
a(I3
I165
I0
S'blue'
p400
I0
tp401
a(I3
I165
F0.875
S'important'
p402
I0
tp403
as(S'times'
p404
g2
S'day'
p405
tp406
(lp407
(I10
I135
I0
S'many'
p408
I0
tp409
as(S'memory'
p410
tp411
(lp412
(I1
I31
I0
S'full'
p413
I5
tp414
a(I10
I125
F0.625
S'necessary'
p415
I5
tp416
a(I11
I81
I0
S'external'
p417
I5
tp418
a(I16
I13
I0
S'full'
p419
I5
tp420
a(I18
I48
F-0.25
S'low'
p421
I5
tp422
as(g2
S'text'
p423
S'message'
p424
tp425
(lp426
(I9
I190
F0.375
S'new'
p427
I0
tp428
a(I9
I242
F0.125
S'last'
p429
I0
tp430
a(I9
I190
F0.375
g427
I0
tp431
a(I9
I242
F0.125
g429
I0
tp432
a(I2
I11
I0
S'song'
p433
I18
tp434
a(I2
I11
I0
S'song'
p435
I18
tp436
a(I4
I1
I0
S'few'
p437
I18
tp438
a(I9
I190
F0.375
g427
I18
tp439
a(I9
I241
F-0.75
S'worse'
p440
I18
tp441
a(I9
I242
F0.125
g429
I18
tp442
a(I1
I146
F0.375
S'new'
p443
I1
tp444
a(I1
I151
F0.375
S'new'
p445
I1
tp446
as(S'voice'
p447
S'mail'
p448
tp449
(lp450
(I1
I19
I0
S'big'
p451
I0
tp452
a(I5
I62
I0
S'dial'
p453
I0
tp454
a(I9
I359
I0
S'dial'
p455
I0
tp456
a(I4
I25
F-0.25
S'low'
p457
I4
tp458
a(I5
I62
I0
g453
I4
tp459
a(I9
I359
I0
g455
I4
tp460
a(I20
I44
F0.5
S'clear'
p461
I4
tp462
a(I1
I19
I0
g451
I13
tp463
as(S'menu'
p464
tp465
(lp466
(I1
I125
F-0.5
S'open'
p467
I2
tp468
a(I1
I140
F0.25
S'helpful'
p469
I2
tp470
a(I2
I80
F-0.875
S'awful'
p471
I2
tp472
a(I9
I248
F0.25
S'main'
p473
I2
tp474
a(I9
I350
F-0.375
S'ugly'
p475
I2
tp476
a(I10
I170
F0.25
S'main'
p477
I2
tp478
as(S'social'
p479
S'media'
p480
tp481
(lp482
(I3
I172
F-0.5
S'sure'
p483
I0
tp484
a(I3
I172
I0
S'social'
p485
I0
tp486
a(I3
I172
I0
S'e-mail'
p487
I0
tp488
a(I18
I46
I0
S'social'
p489
I0
tp490
a(I20
I46
I0
S'social'
p491
I0
tp492
a(I20
I49
I0
S'social'
p493
I0
tp494
as(S'button'
p495
tp496
(lp497
(I1
I126
F-0.75
S'wrong'
p498
I19
tp499
a(I7
I3
I0
S'sensitive'
p500
I19
tp501
a(I10
I121
F-0.75
S'wrong'
p502
I19
tp503
a(I12
I62
F0.625
S'easy'
p504
I19
tp505
a(I12
I62
F0.5
S'touch'
p506
I19
tp507
a(I12
I62
F-0.75
S'wrong'
p508
I19
tp509
a(I18
I139
F0.875
S'nice'
p510
I19
tp511
a(I21
I23
F-0.625
S'push'
p512
I19
tp513
as(S'to'
p514
S'make'
p515
S'calls'
p516
tp517
(lp518
(I1
I110
F0.125
S'able'
p519
I0
tp520
a(I1
I2
I0
S'own'
p521
I0
tp522
a(I1
I110
F0.125
g519
I0
tp523
a(I3
I152
F0.5
S'clear'
p524
I0
tp525
a(I3
I152
F0.375
S'loud'
p526
I0
tp527
a(I8
I69
F0.625
S'acceptable'
p528
I0
tp529
a(I9
I212
F-0.75
S'difficult'
p530
I0
tp531
a(I9
I358
F0.25
S'recent'
p532
I0
tp533
a(I9
I360
F0.25
S'recent'
p534
I0
tp535
a(I18
I90
I0
S'sensitive'
p536
I0
tp537
a(I18
I90
F-0.25
S'unaware'
p538
I0
tp539
as(S'qwerty'
p540
S'keyboard'
p541
tp542
(lp543
(I8
I49
I0
g202
I0
tp544
a(I9
I224
I0
g204
I0
tp545
a(I11
I64
I0
g206
I0
tp546
a(I11
I64
I0
S'large'
p547
I0
tp548
a(I11
I64
F0.625
S'easy'
p549
I0
tp550
a(I18
I46
I0
g197
I0
tp551
as(S'slide'
p552
S'out'
p553
S'keyboard'
p554
tp555
(lp556
(I1
I85
F0.875
g193
I0
tp557
a(I1
I118
F1.0
g200
I0
tp558
a(I9
I65
F-0.125
S'overall'
p559
I0
tp560
a(I9
I335
F-0.75
S'tough'
p561
I0
tp562
a(I2
I59
I0
S'most'
p563
I2
tp564
a(I3
I71
F-0.75
S'comfortable'
p565
I2
tp566
a(I3
I184
F-0.75
S'likely'
p567
I2
tp568
a(I6
I3
F0.25
S'larger'
p569
I2
tp570
a(I9
I65
F-0.125
g559
I2
tp571
a(I9
I335
F-0.75
g561
I2
tp572
a(I9
I345
F-0.75
S'difficult'
p573
I2
tp574
a(I9
I345
F-0.5
S'open'
p575
I2
tp576
a(I9
I345
F-0.25
S'thin'
p577
I2
tp578
a(I9
I345
I0
S'slippery'
p579
I2
tp580
a(I9
I371
F-0.375
S'small'
p581
I2
tp582
a(I9
I371
F-0.875
S'hard'
p583
I2
tp584
a(I10
I10
F0.25
S'responsive'
p585
I2
tp586
a(I10
I11
I0
S'full'
p587
I2
tp588
a(I10
I132
F0.375
S'newest'
p589
I2
tp590
a(I10
I150
I0
S'great'
p591
I2
tp592
a(I11
I64
I0
g547
I2
tp593
a(I11
I64
F0.625
g549
I2
tp594
a(I12
I73
F-0.375
S'smaller'
p595
I2
tp596
as(S'on'
p597
S'touch'
p598
S'screen'
p599
tp600
(lp601
(I1
I84
I0
g236
I0
tp602
a(I1
I99
F0.5
g240
I0
tp603
a(I3
I9
F0.125
g242
I0
tp604
a(I3
I9
F0.125
g244
I0
tp605
a(I3
I9
F-0.375
g246
I0
tp606
a(I3
I20
F0.25
g248
I0
tp607
a(I3
I103
I0
g250
I0
tp608
a(I3
I135
F0.5
g252
I0
tp609
a(I3
I135
I0
g254
I0
tp610
a(I3
I207
F0.875
g256
I0
tp611
a(I3
I224
F0.5
g258
I0
tp612
a(I3
I224
I0
g260
I0
tp613
a(I3
I258
F0.5
g262
I0
tp614
a(I3
I258
F-0.625
g264
I0
tp615
a(I3
I258
I0
g266
I0
tp616
a(I5
I9
F0.25
g268
I0
tp617
a(I5
I9
I0
g270
I0
tp618
a(I5
I9
I0
g272
I0
tp619
a(I5
I78
F0.5
g274
I0
tp620
a(I5
I86
F0.5
g276
I0
tp621
a(I5
I86
F0.25
g278
I0
tp622
a(I7
I2
F0.5
g280
I0
tp623
a(I9
I12
I0
g284
I0
tp624
a(I9
I16
F0.5
g286
I0
tp625
a(I9
I112
I0
g288
I0
tp626
a(I9
I126
F0.5
S'touch'
p627
I0
tp628
a(I9
I164
F0.5
g290
I0
tp629
a(I9
I164
F0.5
g292
I0
tp630
a(I9
I189
F0.5
g294
I0
tp631
a(I9
I199
I0
g296
I0
tp632
a(I9
I268
I0
g300
I0
tp633
a(I9
I333
F0.5
g304
I0
tp634
a(I9
I340
F0.5
g306
I0
tp635
a(I9
I348
F0.5
g77
I0
tp636
a(I9
I348
F0.5
g79
I0
tp637
a(I9
I398
F0.5
g310
I0
tp638
a(I10
I36
F0.25
g83
I0
tp639
a(I10
I53
F0.5
g315
I0
tp640
a(I10
I60
F0.5
g317
I0
tp641
a(I10
I60
F0.25
g319
I0
tp642
a(I10
I102
F0.5
g325
I0
tp643
a(I10
I138
I0
g327
I0
tp644
a(I10
I147
F0.5
g329
I0
tp645
a(I11
I75
F-0.625
g333
I0
tp646
a(I11
I75
F0.875
g335
I0
tp647
a(I11
I75
F0.25
g337
I0
tp648
a(I12
I15
F0.5
g339
I0
tp649
a(I12
I30
F-0.625
g85
I0
tp650
a(I12
I47
I0
g344
I0
tp651
a(I12
I62
F0.5
g346
I0
tp652
a(I18
I0
F0.5
g350
I0
tp653
a(I18
I46
F-0.75
g352
I0
tp654
a(I18
I78
I0
g358
I0
tp655
a(I18
I135
F0.25
g362
I0
tp656
a(I20
I117
I0
g364
I0
tp657
a(I21
I0
F0.5
g366
I0
tp658
a(I21
I4
F-0.875
g368
I0
tp659
a(I21
I20
F0.5
g370
I0
tp660
a(I1
I37
F0.5
g232
I2
tp661
a(I1
I37
I0
g234
I2
tp662
a(I1
I84
I0
g236
I2
tp663
a(I1
I96
F-0.625
g238
I2
tp664
a(I1
I99
F0.5
g240
I2
tp665
a(I3
I9
F0.125
g242
I2
tp666
a(I3
I9
F0.125
g244
I2
tp667
a(I3
I9
F-0.375
g246
I2
tp668
a(I3
I20
F0.25
g248
I2
tp669
a(I3
I103
I0
g250
I2
tp670
a(I3
I135
F0.5
g252
I2
tp671
a(I3
I135
I0
g254
I2
tp672
a(I3
I207
F0.875
g256
I2
tp673
a(I3
I224
F0.5
g258
I2
tp674
a(I3
I224
I0
g260
I2
tp675
a(I3
I258
F0.5
g262
I2
tp676
a(I3
I258
F-0.625
g264
I2
tp677
a(I3
I258
I0
g266
I2
tp678
a(I5
I9
F0.25
g268
I2
tp679
a(I5
I9
I0
g270
I2
tp680
a(I5
I9
I0
g272
I2
tp681
a(I5
I78
F0.5
g274
I2
tp682
a(I5
I86
F0.5
g276
I2
tp683
a(I5
I86
F0.25
g278
I2
tp684
a(I7
I2
F0.5
g280
I2
tp685
a(I8
I68
I0
g282
I2
tp686
a(I9
I12
I0
g284
I2
tp687
a(I9
I16
F0.5
g286
I2
tp688
a(I9
I112
I0
g288
I2
tp689
a(I9
I126
F0.5
g627
I2
tp690
a(I9
I164
F0.5
g290
I2
tp691
a(I9
I164
F0.5
g292
I2
tp692
a(I9
I189
F0.5
g294
I2
tp693
a(I9
I199
I0
g296
I2
tp694
a(I9
I222
F0.5
g298
I2
tp695
a(I9
I268
I0
g300
I2
tp696
a(I9
I321
I0
g302
I2
tp697
a(I9
I333
F0.5
g304
I2
tp698
a(I9
I340
F0.5
g306
I2
tp699
a(I9
I348
F0.5
g77
I2
tp700
a(I9
I348
F0.5
g79
I2
tp701
a(I9
I398
F0.5
g310
I2
tp702
a(I10
I27
F0.5
g312
I2
tp703
a(I10
I36
F0.25
g83
I2
tp704
a(I10
I53
F0.5
g315
I2
tp705
a(I10
I60
F0.5
g317
I2
tp706
a(I10
I60
F0.25
g319
I2
tp707
a(I10
I61
F1.0
g321
I2
tp708
a(I10
I94
I0
g323
I2
tp709
a(I10
I102
F0.5
g325
I2
tp710
a(I10
I138
I0
g327
I2
tp711
a(I10
I147
F0.5
g329
I2
tp712
a(I10
I158
F0.5
g331
I2
tp713
a(I11
I75
F-0.625
g333
I2
tp714
a(I11
I75
F0.875
g335
I2
tp715
a(I11
I75
F0.25
g337
I2
tp716
a(I12
I15
F0.5
g339
I2
tp717
a(I12
I20
F0.5
g341
I2
tp718
a(I12
I30
F-0.625
g85
I2
tp719
a(I12
I47
I0
g344
I2
tp720
a(I12
I62
F0.5
g346
I2
tp721
a(I12
I71
F0.875
g348
I2
tp722
a(I18
I0
F0.5
g350
I2
tp723
a(I18
I46
F-0.75
g352
I2
tp724
a(I18
I57
F0.5
g354
I2
tp725
a(I18
I57
F0.875
g356
I2
tp726
a(I18
I78
I0
g358
I2
tp727
a(I18
I121
F0.5
g360
I2
tp728
a(I18
I135
F0.25
g362
I2
tp729
a(I20
I117
I0
g364
I2
tp730
a(I21
I0
F0.5
g366
I2
tp731
a(I21
I4
F-0.875
g368
I2
tp732
a(I21
I20
F0.5
g370
I2
tp733
as(S'upgrade'
p734
tp735
(lp736
(I2
I64
F0.5
S'eligible'
p737
I3
tp738
a(I7
I1
F-0.625
S'free'
p739
I3
tp740
a(I7
I22
F0.875
S'nice'
p741
I3
tp742
a(I9
I43
F0.5
S'rid'
p743
I3
tp744
a(I9
I283
F0.125
S'able'
p745
I3
tp746
as(S'smart'
p747
tp748
(lp749
(I7
I0
F-0.25
S'ready'
p750
I10
tp751
a(I8
I53
F1.0
S'good'
p752
I10
tp753
a(I12
I51
F1.0
S'better'
p754
I10
tp755
a(I20
I12
I0
S'close'
p756
I10
tp757
a(I20
I101
I0
S'fast'
p758
I10
tp759
a(I20
I106
I0
S'fast'
p760
I10
tp761
a(I21
I22
F0.125
S'capable'
p762
I10
tp763
as(S'at'
p764
S'verizon'
p765
S'store'
p766
tp767
(lp768
(I1
I15
F0.5
S'told'
p769
I0
tp770
a(I1
I15
F0.5
g769
I0
tp771
a(I18
I75
I0
S'normal'
p772
I0
tp773
a(I18
I115
I0
S'local'
p774
I0
tp775
a(I1
I15
F0.5
g769
I0
tp776
a(I1
I55
I0
S'different'
p777
I0
tp778
a(I1
I64
I0
S'old'
p779
I0
tp780
a(I7
I18
I0
S'least'
p781
I0
tp782
a(I7
I18
F-0.5
S'sure'
p783
I0
tp784
a(I8
I0
F0.375
S'reliable'
p785
I0
tp786
a(I9
I100
F0.5
S'true'
p787
I0
tp788
a(I9
I193
F-0.625
S'bad'
p789
I0
tp790
a(I9
I386
F0.625
S'aware'
p791
I0
tp792
a(I18
I85
F0.25
S'lovely'
p793
I0
tp794
a(I18
I115
I0
g774
I0
tp795
as(S'amazon'
p796
tp797
(lp798
(I7
I14
F0.125
S'pair'
p799
I13
tp800
a(I11
I53
F-0.75
S'bright'
p801
I13
tp802
a(I11
I53
F-0.625
S'green'
p803
I13
tp804
as(S'contacts'
p805
tp806
(lp807
(I7
I30
F0.25
S'favorite'
p808
I0
tp809
a(I7
I32
I0
S'quick'
p810
I0
tp811
a(I9
I360
F0.375
S'new'
p812
I0
tp813
a(I13
I8
I-100
S"don'twant"
p814
I0
tp815
as(S'text'
p816
S'messages'
p817
tp818
(lp819
(I1
I49
I0
S'text'
p820
I0
tp821
a(I1
I49
I0
S'more'
p822
I0
tp823
a(I1
I49
I0
S'recipient'
p824
I0
tp825
a(I9
I288
I0
S'many'
p826
I0
tp827
a(I1
I25
I0
S'store'
p828
I1
tp829
a(I1
I49
I0
g820
I1
tp830
a(I1
I49
I0
g822
I1
tp831
a(I1
I49
I0
g824
I1
tp832
a(I3
I111
I0
S'full'
p833
I1
tp834
a(I3
I114
I0
S'messaging'
p835
I1
tp836
a(I3
I114
I0
S'full'
p837
I1
tp838
a(I9
I240
F-0.5
S'long'
p839
I1
tp840
a(I9
I288
I0
g826
I1
tp841
a(I11
I14
F-0.625
S'unfinished'
p842
I1
tp843
as(S'music'
p844
tp845
(lp846
(I2
I12
F1.0
S'good'
p847
I0
tp848
as(S'30'
p849
g2
S'month'
p850
tp851
(lp852
(I3
I218
F0.875
S'nice'
p853
I0
tp854
a(I9
I73
F0.375
S'extra'
p855
I0
tp856
as(g2
S'data'
p857
S'plan'
p858
tp859
(lp860
(I0
I5
I0
g8
I0
tp861
a(I10
I79
F-0.875
g10
I0
tp862
a(I10
I91
F0.375
g12
I0
tp863
a(I12
I46
I0
g6
I0
tp864
a(I17
I3
F-0.25
g15
I0
tp865
a(I18
I117
F0.375
g17
I0
tp866
a(I0
I5
I0
g8
I0
tp867
a(I10
I79
F-0.875
g10
I0
tp868
a(I10
I91
F0.375
g12
I0
tp869
a(I12
I46
I0
g6
I0
tp870
a(I17
I3
F-0.25
g15
I0
tp871
a(I18
I117
F0.375
g17
I0
tp872
as(S'internet'
p873
tp874
(lp875
(I5
I62
I0
S'more'
p876
I6
tp877
a(I20
I92
F0.5
S'rid'
p878
I6
tp879
as(S'pocket'
p880
tp881
(lp882
(I1
I88
F-0.375
S'pull'
p883
I17
tp884
a(I2
I4
I0
S'dial'
p885
I17
tp886
a(I2
I8
I0
S'own'
p887
I17
tp888
a(I18
I110
F-0.375
S'small'
p889
I17
tp890
as(S'texting'
p891
tp892
(lp893
(I5
I22
I0
S'most'
p894
I0
tp895
a(I5
I22
F0.625
S'major'
p896
I0
tp897
a(I8
I63
F0.625
S'easy'
p898
I0
tp899
a(I9
I156
I0
S'quick'
p900
I0
tp901
a(I10
I64
F-0.5
S'heavy'
p902
I0
tp903
a(I11
I79
I0
S'threaded'
p904
I0
tp905
a(I18
I57
I0
S'e-mail'
p906
I0
tp907
as(S'e'
p908
S'mail'
p909
tp910
(lp911
(I1
I19
I0
g451
I2
tp912
as(S'activation'
p913
S'fee'
p914
tp915
(lp916
(I1
I120
I0
S'same'
p917
I0
tp918
as.