(dp0
(S'battery'
p1
S'life'
p2
tp3
(lp4
(I6
I7
F-0.5
S'regular'
p5
I1
tp6
a(I9
I11
F-0.5
S'long'
p7
I1
tp8
a(I9
I11
F0.875
S'important'
p9
I1
tp10
a(I18
I14
I0
S'least'
p11
I1
tp12
a(I18
I14
F0.625
S'removable'
p13
I1
tp14
a(I20
I47
F-0.5
S'long'
p15
I1
tp16
a(I6
I7
F-0.5
g5
I19
tp17
a(I9
I11
F-0.5
g7
I19
tp18
a(I9
I11
F0.875
g9
I19
tp19
a(I18
I14
I0
g11
I19
tp20
a(I0
I32
F-0.875
S'worst'
p21
I15
tp22
a(I9
I2
F0.375
S'early'
p23
I15
tp24
a(I9
I35
F0.375
S'new'
p25
I15
tp26
a(I18
I14
F0.625
g13
I15
tp27
a(I18
I45
I0
S'great'
p28
I15
tp29
a(I20
I47
F-0.5
g15
I15
tp30
as(S'touch'
p31
S'screen'
p32
tp33
(lp34
(I0
I13
F0.5
S'touch'
p35
I2
tp36
a(I0
I13
I0
S'cool'
p37
I2
tp38
a(I2
I12
F1.0
S'good'
p39
I2
tp40
a(I11
I11
F0.25
S'responsive'
p41
I2
tp42
a(I11
I84
F0.5
S'touch'
p43
I2
tp44
as(S'camera'
p45
tp46
(lp47
(I6
I21
I0
S'great'
p48
I1
tp49
a(I20
I50
I0
S'great'
p50
I1
tp51
a(I27
I152
F-0.125
S'frontal'
p52
I1
tp53
as(S'operating'
p54
S'system'
p55
tp56
(lp57
(I18
I66
F1.0
S'good'
p58
I2
tp59
a(I27
I159
F0.875
S'nice'
p60
I2
tp61
as(S'iphone'
p62
tp63
(lp64
(I2
I12
F-0.625
S'bad'
p65
I1
tp66
a(I11
I68
I0
S'old'
p67
I1
tp68
a(I18
I13
F0.25
S'original'
p69
I1
tp70
as(S'windows'
p71
tp72
(lp73
(I27
I154
I0
S'great'
p74
I0
tp75
a(I27
I159
F0.125
S'first'
p76
I0
tp77
as(S'button'
p78
tp79
(lp80
(I0
I23
F-0.375
S'top'
p81
I19
tp82
a(I9
I20
I0
S'french'
p83
I19
tp84
a(I27
I72
F-0.625
S'push'
p85
I19
tp86
as(S'applications'
p87
tp88
(lp89
(I2
I6
F0.125
S'popular'
p90
I3
tp91
a(I7
I4
F0.125
S'enough'
p92
I3
tp93
a(I7
I4
I0
S'least'
p94
I3
tp95
a(I20
I42
F-0.625
S'other'
p96
I3
tp97
as(S'sd'
p98
S'card'
p99
tp100
(lp101
(I22
I14
F-0.75
S'little'
p102
I0
tp103
a(I26
I1
F-0.625
S'conventional'
p104
I0
tp105
a(I27
I22
F-0.5
S'regular'
p106
I0
tp107
as(S'music'
p108
S'player'
p109
tp110
(lp111
(I27
I78
F0.875
S'music'
p112
I0
tp113
a(I27
I95
F0.875
S'music'
p114
I0
tp115
a(I11
I49
F0.125
S'able'
p116
I0
tp117
a(I11
I49
I0
S'internet'
p118
I0
tp119
as(S'seller'
p120
tp121
(lp122
(I22
I34
F1.0
S'good'
p123
I19
tp124
as(S'android'
p125
tp126
(lp127
(I27
I133
F0.375
S'much'
p128
I0
tp129
as(S'voice'
p130
tp131
(lp132
(I20
I5
I0
S'more'
p133
I4
tp134
a(I20
I5
F0.5
S'clear'
p135
I4
tp136
as(S'audio'
p137
S'quality'
p138
tp139
(lp140
(I27
I105
F0.875
S'music'
p141
I0
tp142
a(I27
I106
F1.0
S'good'
p143
I0
tp144
a(I27
I106
F0.875
S'important'
p145
I0
tp146
as(S'microsoft'
p147
tp148
(lp149
(I18
I30
I0
S'stable'
p150
I0
tp151
a(I22
I13
F-0.25
S'baffled'
p152
I0
tp153
a(I27
I95
I0
S'download'
p154
I0
tp155
as(S'calls'
p156
tp157
(lp158
(I0
I66
F1.0
S'good'
p159
I0
tp160
as(S'data'
p161
tp162
(lp163
(I0
I52
I0
S'least'
p164
I13
tp165
a(I6
I34
I0
S'high'
p166
I13
tp167
a(I20
I48
I0
S'mobile'
p168
I13
tp169
a(I20
I48
I0
S'total'
p170
I13
tp171
a(I22
I4
F0.625
S'easy'
p172
I13
tp173
as(S'zune'
p174
tp175
(lp176
(I11
I89
F-0.125
S'cant'
p177
I0
tp178
a(I17
I27
F-0.375
S'simple'
p179
I0
tp180
a(I18
I10
F0.875
S'music'
p181
I0
tp182
a(I25
I9
I0
S'downloaded'
p183
I0
tp184
as(S'nokia'
p185
S'lumia'
p186
tp187
(lp188
(I0
I19
F-0.5
S'sure'
p189
I0
tp190
a(I0
I30
I0
S'great'
p191
I0
tp192
a(I11
I0
F1.0
S'best'
p193
I0
tp194
a(I11
I0
F-0.75
S'disappointment'
p195
I0
tp196
a(I0
I19
F-0.5
g189
I0
tp197
a(I0
I33
F-0.75
S'wrong'
p198
I0
tp199
a(I11
I0
F1.0
g193
I0
tp200
a(I11
I0
F-0.75
g195
I0
tp201
a(I15
I2
F1.0
S'better'
p202
I0
tp203
a(I15
I3
F-0.5
S'less'
p204
I0
tp205
a(I18
I30
F0.125
S'solid'
p206
I0
tp207
a(I20
I5
F-0.625
S'surprising'
p208
I0
tp209
a(I22
I13
I0
S'old'
p210
I0
tp211
a(I27
I97
F1.0
S'good'
p212
I0
tp213
a(I27
I97
F0.875
S'music'
p214
I0
tp215
a(I0
I30
I0
g191
I0
tp216
a(I17
I27
F0.5
S'second'
p217
I0
tp218
as(S'own'
p219
S'ringtones'
p220
tp221
(lp222
(I0
I74
I0
S'own'
p223
I0
tp224
a(I27
I48
I0
S'own'
p225
I0
tp226
a(I27
I49
I0
S'own'
p227
I0
tp228
as(S'customer'
p229
S'service'
p230
tp231
(lp232
(I11
I34
I0
S'general'
p233
I3
tp234
a(I11
I34
F-0.75
S'little'
p235
I3
tp236
a(I27
I167
F-0.625
S'bad'
p237
I3
tp238
as(S'apps'
p239
tp240
(lp241
(I0
I4
I0
S'full'
p242
I0
tp243
a(I2
I12
F1.0
S'good'
p244
I0
tp245
a(I6
I5
I0
S'more'
p246
I0
tp247
a(I6
I13
I0
S'more'
p248
I0
tp249
a(I6
I27
F-0.5
S'less'
p250
I0
tp251
a(I6
I27
F0.375
S'available'
p252
I0
tp253
a(I11
I66
I0
S'few'
p254
I0
tp255
a(I13
I7
I0
S'internet'
p256
I0
tp257
a(I16
I6
I0
S'many'
p258
I0
tp259
a(I16
I13
F0.375
S'much'
p260
I0
tp261
a(I16
I13
F-0.5
S'less'
p262
I0
tp263
a(I17
I28
F1.0
S'good'
p264
I0
tp265
a(I17
I28
F-0.625
S'free'
p266
I0
tp267
a(I18
I51
I0
S'many'
p268
I0
tp269
a(I18
I67
I0
S'such'
p270
I0
tp271
a(I20
I41
I0
S'most'
p272
I0
tp273
a(I24
I4
F-0.75
S'little'
p274
I0
tp275
a(I24
I5
F0.125
S'popular'
p276
I0
tp277
a(I27
I17
F0.375
S'available'
p278
I0
tp279
as(S'build'
p280
S'quality'
p281
tp282
(lp283
(I17
I26
F0.5
S'strong'
p284
I2
tp285
as.