(dp0
(S'battery'
p1
tp2
(lp3
(I0
I17
F-0.5
S'longer'
p4
I15
tp5
a(I2
I2
F0.625
S'easy'
p6
I15
tp7
a(I2
I2
F1.0
S'good'
p8
I15
tp9
a(I2
I38
F1.0
S'better'
p10
I15
tp11
a(I7
I1
F-0.875
S'awful'
p12
I15
tp13
a(I7
I1
F-0.625
S'bad'
p14
I15
tp15
a(I7
I4
F1.0
S'better'
p16
I15
tp17
a(I7
I5
F1.0
S'good'
p18
I15
tp19
a(I9
I6
F-0.875
S'negative'
p20
I15
tp21
a(I10
I13
F-0.5
S'long'
p22
I15
tp23
a(I10
I13
F0.125
S'last'
p24
I15
tp25
as(S'camera'
p26
tp27
(lp28
(I0
I15
I0
S'rear'
p29
I1
tp30
a(I0
I15
I0
S'great'
p31
I1
tp32
a(I2
I33
I0
S'great'
p33
I1
tp34
a(I7
I9
I0
S'great'
p35
I1
tp36
a(I15
I6
I0
S'great'
p37
I1
tp38
as.