(dp0
(S'perfect'
p1
tp2
(lp3
(I441
I0
F1.0
S'better'
p4
tp5
a(I791
I1
F-0.375
S'smallest'
p6
tp7
a(I794
I0
I0
S'physical'
p8
tp9
a(I864
I0
F-0.25
S'white'
p10
tp11
a(I864
I0
I0
S'internal'
p12
tp13
a(I897
I1
F0.5
S'told'
p14
tp15
as(S'purchase'
p16
tp17
(lp18
(I22
I2
I0
S'great'
p19
tp20
a(I34
I7
F0.625
S'extraordinary'
p21
tp22
a(I34
I7
F1.0
S'good'
p23
tp24
a(I47
I0
I0
S'great'
p25
tp26
a(I49
I4
F-0.125
S'overall'
p27
tp28
a(I49
I4
F0.875
S'happy'
p29
tp30
a(I111
I2
I0
S'particular'
p31
tp32
a(I173
I10
F-0.875
S'regret'
p33
tp34
a(I226
I3
F1.0
S'good'
p35
tp36
a(I367
I1
F0.5
S'clear'
p37
tp38
a(I379
I0
F1.0
S'best'
p39
tp40
a(I386
I2
F0.125
S'first'
p41
tp42
a(I408
I0
F0.875
S'happy'
p43
tp44
a(I425
I3
F0.875
S'happy'
p45
tp46
a(I585
I15
F-0.75
S'likely'
p47
tp48
a(I591
I0
F-0.25
S'disappointing'
p49
tp50
a(I616
I0
F0.875
S'happy'
p51
tp52
a(I843
I6
F0.125
S'last'
p53
tp54
a(I860
I3
F0.875
S'happier'
p55
tp56
as(S'nice'
p57
tp58
(lp59
(I738
I18
I0
S'representative'
p60
tp61
a(I995
I1
I0
S'large'
p62
tp63
as(S'quad'
p64
S'core'
p65
tp66
(lp67
(I373
I6
F-0.5
S'international'
p68
tp69
as(S'a'
p70
S'quad'
p71
S'core'
p72
tp73
(lp74
(I373
I6
F-0.5
g68
tp75
as(S'version'
p76
tp77
(lp78
(I8
I0
F-0.5
S'international'
p79
tp80
a(I15
I2
F-0.5
S'international'
p81
tp82
a(I48
I3
F-0.5
S'international'
p83
tp84
a(I64
I1
F-0.5
S'international'
p85
tp86
a(I64
I1
F0.5
S'compatible'
p87
tp88
a(I66
I1
F1.0
S'better'
p89
tp90
a(I70
I6
F1.0
S'good'
p91
tp92
a(I82
I0
F0.25
S'unlocked'
p93
tp94
a(I82
I0
F-0.5
S'international'
p95
tp96
a(I86
I1
F-0.5
S'international'
p97
tp98
a(I89
I9
F-0.5
S'international'
p99
tp100
a(I95
I1
I0
S'faster'
p101
tp102
a(I95
I1
I0
S'more'
p103
tp104
a(I95
I1
F0.375
S'reliable'
p105
tp106
a(I98
I4
F-0.5
S'international'
p107
tp108
a(I114
I0
F-0.5
S'international'
p109
tp110
a(I115
I1
F-0.5
S'international'
p111
tp112
a(I115
I3
F0.25
S'unlocked'
p113
tp114
a(I121
I2
F-0.5
S'international'
p115
tp116
a(I121
I10
F-0.5
S'international'
p117
tp118
a(I139
I0
F-0.5
S'international'
p119
tp120
a(I139
I8
F-0.5
S'international'
p121
tp122
a(I159
I3
F-0.5
S'international'
p123
tp124
a(I173
I5
F-0.5
S'international'
p125
tp126
a(I174
I1
F-0.5
S'international'
p127
tp128
a(I179
I0
I0
S'european'
p129
tp130
a(I180
I4
F-0.5
S'international'
p131
tp132
a(I183
I1
I0
S'european'
p133
tp134
a(I183
I6
I0
S'european'
p135
tp136
a(I202
I2
F0.375
S'extended'
p137
tp138
a(I204
I2
I0
S'android'
p139
tp140
a(I204
I3
I0
S'android'
p141
tp142
a(I204
I4
I0
S'real'
p143
tp144
a(I204
I4
I0
S'android'
p145
tp146
a(I227
I0
F-0.5
S'international'
p147
tp148
a(I227
I0
I0
S'european'
p149
tp150
a(I229
I0
F0.25
S'unlocked'
p151
tp152
a(I262
I4
F-0.5
S'international'
p153
tp154
a(I274
I14
I0
S'competitive'
p155
tp156
a(I284
I8
I0
S'latest'
p157
tp158
a(I284
I8
I0
S'android'
p159
tp160
a(I284
I8
I0
S'petty'
p161
tp162
a(I295
I0
F-0.5
S'international'
p163
tp164
a(I301
I1
F-0.5
S'international'
p165
tp166
a(I307
I0
I0
S'european'
p167
tp168
a(I319
I2
F-0.5
S'international'
p169
tp170
a(I326
I0
I0
S'mobile'
p171
tp172
a(I341
I1
F0.375
S'new'
p173
tp174
a(I355
I0
F-0.5
S'international'
p175
tp176
a(I356
I1
F-0.5
S'actual'
p177
tp178
a(I356
I1
F-0.25
S'higher'
p179
tp180
a(I356
I1
F-0.125
S'bean'
p181
tp182
a(I356
I2
I0
S'android'
p183
tp184
a(I356
I2
F0.25
S'original'
p185
tp186
a(I359
I0
I0
S'french'
p187
tp188
a(I360
I3
F-0.5
S'international'
p189
tp190
a(I360
I3
I0
S'taiwan'
p191
tp192
a(I360
I8
F0.5
S'careful'
p193
tp194
a(I360
I8
F-0.5
S'international'
p195
tp196
a(I372
I9
I0
S'pebble'
p197
tp198
a(I372
I27
F-0.5
S'international'
p199
tp200
a(I372
I27
F1.0
S'better'
p201
tp202
a(I383
I0
F-0.5
S'international'
p203
tp204
a(I390
I3
F-0.5
S'international'
p205
tp206
a(I400
I0
I0
S'korean'
p207
tp208
a(I405
I0
I0
S'chinese'
p209
tp210
a(I405
I0
F0.375
S'similar'
p211
tp212
a(I406
I2
F-0.5
S'international'
p213
tp214
a(I449
I1
F-0.5
S'international'
p215
tp216
a(I454
I5
I0
S'such'
p217
tp218
a(I458
I3
F-0.5
S'international'
p219
tp220
a(I493
I1
F-0.5
S'international'
p221
tp222
a(I493
I4
F1.0
S'better'
p223
tp224
a(I493
I4
F-0.5
S'international'
p225
tp226
a(I518
I1
F-0.5
S'international'
p227
tp228
a(I527
I0
F-0.5
S'international'
p229
tp230
a(I527
I0
I0
S'real'
p231
tp232
a(I527
I1
I0
S'italian'
p233
tp234
a(I537
I1
F-0.5
S'international'
p235
tp236
a(I551
I1
F-0.5
S'international'
p237
tp238
a(I551
I1
F0.75
S'due'
p239
tp240
a(I551
I2
I0
S'french'
p241
tp242
a(I551
I2
I0
S'packaged'
p243
tp244
a(I564
I0
I0
S'old'
p245
tp246
a(I564
I0
I0
S'android'
p247
tp248
a(I572
I0
F-0.5
S'international'
p249
tp250
a(I579
I1
F-0.5
S'international'
p251
tp252
a(I589
I3
I0
S'android'
p253
tp254
a(I591
I3
F-0.5
S'international'
p255
tp256
a(I593
I0
F-0.5
S'international'
p257
tp258
a(I608
I0
F-0.5
S'international'
p259
tp260
a(I612
I0
F-0.5
S'international'
p261
tp262
a(I628
I1
I0
S'american'
p263
tp264
a(I662
I0
F-0.75
S'short'
p265
tp266
a(I662
I3
I0
S'european'
p267
tp268
a(I670
I0
F-0.5
S'international'
p269
tp270
a(I675
I0
F-0.5
S'international'
p271
tp272
a(I685
I0
F-0.5
S'international'
p273
tp274
a(I701
I2
I0
S'android'
p275
tp276
a(I701
I2
I0
S'android'
p277
tp278
a(I713
I3
F-0.5
S'international'
p279
tp280
a(I719
I0
F-0.5
S'international'
p281
tp282
a(I738
I4
F-0.5
S'international'
p283
tp284
a(I738
I11
F-0.5
S'international'
p285
tp286
a(I743
I0
F-0.5
S'international'
p287
tp288
a(I749
I0
I0
S'chinese'
p289
tp290
a(I749
I0
I0
S'chinese'
p291
tp292
a(I749
I0
F0.25
S'original'
p293
tp294
a(I749
I1
I0
S'chinese'
p295
tp296
a(I764
I3
I0
S'latest'
p297
tp298
a(I768
I7
F-0.5
S'international'
p299
tp300
a(I788
I0
F0.375
S'new'
p301
tp302
a(I817
I1
F-0.5
S'international'
p303
tp304
a(I824
I0
F-0.5
S'international'
p305
tp306
a(I838
I0
F-0.5
S'international'
p307
tp308
a(I838
I5
F-0.5
S'international'
p309
tp310
a(I880
I1
F0.375
S'available'
p311
tp312
a(I880
I1
F-0.5
S'international'
p313
tp314
a(I901
I0
F-0.5
S'international'
p315
tp316
a(I904
I2
F0.375
S'new'
p317
tp318
a(I912
I0
F-0.5
S'international'
p319
tp320
a(I922
I1
F-0.5
S'international'
p321
tp322
a(I948
I0
I0
S'same'
p323
tp324
a(I949
I0
F-0.5
S'international'
p325
tp326
a(I961
I1
F-0.5
S'international'
p327
tp328
a(I961
I4
F-0.5
S'international'
p329
tp330
a(I961
I7
I0
S'american'
p331
tp332
a(I977
I1
F-0.5
S'international'
p333
tp334
a(I977
I2
F-0.5
S'international'
p335
tp336
a(I977
I4
F-0.5
S'international'
p337
tp338
a(I977
I5
F-0.5
S'international'
p339
tp340
a(I1003
I1
F-0.5
S'international'
p341
tp342
a(I1003
I1
I0
S'american'
p343
tp344
a(I1003
I8
I0
S'gingerbread'
p345
tp346
a(I1006
I0
F-0.5
S'international'
p347
tp348
a(I1007
I9
F0.375
S'much'
p349
tp350
a(I1014
I2
I0
S'latest'
p351
tp352
as(S'droid'
p353
S'razr'
p354
S'maxx'
p355
tp356
(lp357
(I285
I6
F-0.5
S'regular'
p358
tp359
as(S'quad'
p360
S'core'
p361
S'processor'
p362
tp363
(lp364
(I373
I6
F-0.5
g68
tp365
a(I605
I1
F0.25
S'responsive'
p366
tp367
as(S'quality'
p368
tp369
(lp370
(I54
I1
I0
S'high'
p371
tp372
a(I152
I2
F1.0
S'better'
p373
tp374
a(I173
I3
I0
S'great'
p375
tp376
a(I277
I1
I0
S'high'
p377
tp378
a(I294
I3
F1.0
S'good'
p379
tp380
a(I314
I5
F1.0
S'good'
p381
tp382
a(I334
I6
I0
S'great'
p383
tp384
a(I484
I0
F1.0
S'best'
p385
tp386
a(I519
I0
F-0.25
S'low'
p387
tp388
a(I525
I13
I0
S'same'
p389
tp390
a(I533
I12
F1.0
S'good'
p391
tp392
a(I629
I0
F1.0
S'good'
p393
tp394
a(I629
I0
F-0.5
S'less'
p395
tp396
a(I629
I0
F0.25
S'original'
p397
tp398
a(I697
I2
F1.0
S'good'
p399
tp400
a(I745
I3
F1.0
S'good'
p401
tp402
a(I780
I3
I0
S'high'
p403
tp404
a(I795
I5
F0.875
S'nice'
p405
tp406
a(I876
I5
F1.0
S'better'
p407
tp408
a(I910
I0
I0
S'high'
p409
tp410
a(I914
I10
F-0.5
S'poor'
p411
tp412
a(I935
I3
F1.0
S'good'
p413
tp414
a(I936
I1
F1.0
S'good'
p415
tp416
as(g70
S'galaxy'
p417
S's3'
p418
tp419
(lp420
(I34
I3
F0.375
S'similar'
p421
tp422
a(I34
I3
I0
S'faster'
p423
tp424
a(I44
I1
F0.875
S'happy'
p425
tp426
a(I174
I1
F0.25
S'favorite'
p427
tp428
a(I183
I9
I0
S'galaxy'
p429
tp430
a(I208
I21
F1.0
S'better'
p431
tp432
a(I261
I11
F0.5
S'second'
p433
tp434
a(I350
I1
I0
S'real'
p435
tp436
a(I386
I4
F0.5
S'compatible'
p437
tp438
a(I409
I0
F-0.25
S'disappointing'
p439
tp440
a(I416
I0
I0
S'galaxy'
p441
tp442
a(I439
I0
F0.125
S'first'
p443
tp444
a(I591
I4
I0
S'more'
p445
tp446
a(I611
I1
I0
S'old'
p447
tp448
a(I611
I1
F-0.625
S'bad'
p449
tp450
a(I629
I0
I0
S'real'
p451
tp452
a(I650
I0
I0
S'galaxy'
p453
tp454
a(I701
I1
F0.375
S'new'
p455
tp456
a(I832
I4
F0.5
S'compatible'
p457
tp458
a(I854
I0
F-0.5
S'international'
p459
tp460
a(I972
I1
F-0.5
S'international'
p461
tp462
a(I986
I0
I0
S'same'
p463
tp464
a(I986
I0
F-0.625
S'other'
p465
tp466
as(S'samsung'
p467
S'galaxy'
p468
S's'
p469
tp470
(lp471
(I89
I10
F0.5
S'loyal'
p472
tp473
a(I89
I10
I0
S'fourth'
p474
tp475
a(I172
I8
I0
S'standard'
p476
tp477
a(I174
I1
F0.25
g427
tp478
a(I179
I6
F0.25
S'unlocked'
p479
tp480
a(I263
I0
I0
S'old'
p481
tp482
a(I290
I4
F-0.625
S'bad'
p483
tp484
a(I337
I0
I0
S'galaxy'
p485
tp486
a(I352
I13
I0
S'many'
p487
tp488
a(I352
I13
I0
S'advocate'
p489
tp490
a(I380
I0
F1.0
S'better'
p491
tp492
a(I404
I0
I0
S'different'
p493
tp494
a(I409
I0
F0.375
S'new'
p495
tp496
a(I490
I0
F0.375
S'new'
p497
tp498
a(I525
I0
F0.375
S'new'
p499
tp500
a(I537
I2
F-0.5
S'actual'
p501
tp502
a(I546
I6
F0.375
S'new'
p503
tp504
a(I573
I0
F0.25
S'refurbish'
p505
tp506
a(I591
I4
I0
g445
tp507
a(I629
I0
I0
g451
tp508
a(I669
I4
F0.375
S'new'
p509
tp510
a(I832
I4
F0.5
g457
tp511
a(I846
I0
F-0.625
S'other'
p512
tp513
a(I846
I0
F0.25
S'favorite'
p514
tp515
a(I884
I1
F0.375
S'new'
p516
tp517
a(I944
I0
I0
S'galaxy'
p518
tp519
as(S'ice'
p520
S'cream'
p521
tp522
(lp523
(I172
I8
I0
S'android'
p524
tp525
a(I831
I1
F0.125
S'first'
p526
tp527
a(I831
I1
F-0.25
S'google'
p528
tp529
as(S'ever'
p530
tp531
(lp532
(I371
I0
F0.125
S'first'
p533
tp534
as(S'excellent'
p535
tp536
(lp537
(I120
I0
I0
S'mobile'
p538
tp539
a(I530
I0
I0
S'mobile'
p540
tp541
a(I709
I1
F-0.5
S'heavy'
p542
tp543
as(S'store'
p544
tp545
(lp546
(I119
I3
F0.375
S'new'
p547
tp548
a(I119
I3
I0
S'real'
p549
tp550
a(I208
I10
F-0.625
S'free'
p551
tp552
a(I210
I3
F0.125
S'able'
p553
tp554
a(I356
I6
F-0.5
S'open'
p555
tp556
a(I371
I19
F-0.75
S'impossible'
p557
tp558
a(I412
I2
F0.5
S'compatible'
p559
tp560
a(I555
I2
I0
S'android'
p561
tp562
a(I555
I2
F0.625
S'easy'
p563
tp564
a(I804
I2
F-0.625
S'free'
p565
tp566
as(S'sudden'
p567
S'death'
p568
tp569
(lp570
(I48
I1
F-0.5
S'sudden'
p571
tp572
a(I116
I0
F-0.5
S'sudden'
p573
tp574
a(I685
I0
F-0.5
S'sudden'
p575
tp576
a(I691
I2
F-0.5
S'sudden'
p577
tp578
as(S'sim'
p579
S'card'
p580
tp581
(lp582
(I50
I1
I0
S'old'
p583
tp584
a(I105
I0
I0
S'normal'
p585
tp586
a(I121
I12
F-0.5
S'regular'
p587
tp588
a(I121
I13
F0.5
S'whole'
p589
tp590
a(I121
I13
F0.375
S'new'
p591
tp592
a(I139
I3
F-0.5
S'international'
p593
tp594
a(I149
I1
F0.375
S'new'
p595
tp596
a(I149
I1
I0
S'great'
p597
tp598
a(I174
I10
I0
S'full'
p599
tp600
a(I181
I3
F0.125
S'first'
p601
tp602
a(I181
I3
I0
S'old'
p603
tp604
a(I181
I4
F0.125
S'able'
p605
tp606
a(I301
I6
F-0.5
S'actual'
p607
tp608
a(I319
I3
F1.0
S'good'
p609
tp610
a(I372
I2
F0.375
S'new'
p611
tp612
a(I454
I4
F0.125
S'able'
p613
tp614
a(I499
I0
F-0.375
S'smaller'
p615
tp616
a(I569
I0
F-0.75
S'unable'
p617
tp618
a(I586
I3
I0
S'standard'
p619
tp620
a(I631
I1
F-0.625
S'other'
p621
tp622
a(I634
I1
F0.375
S'new'
p623
tp624
a(I662
I19
I0
S'european'
p625
tp626
a(I785
I0
F-0.625
S'sorry'
p627
tp628
a(I785
I1
I0
S'large'
p629
tp630
a(I785
I6
F-0.375
S'smaller'
p631
tp632
as(S'charge'
p633
tp634
(lp635
(I335
I6
I0
S'full'
p636
tp637
a(I335
I7
I0
S'full'
p638
tp639
a(I900
I0
I0
S'full'
p640
tp641
a(I1007
I10
F0.125
S'first'
p642
tp643
a(I1007
I10
I0
S'full'
p644
tp645
as(S'ce'
p646
S'cream'
p647
S'sandwich'
p648
tp649
(lp650
(I854
I1
F-0.125
S'bean'
p651
tp652
as(S'galaxy'
p653
S'siii'
p654
tp655
(lp656
(I178
I0
I0
S'more'
p657
tp658
a(I485
I0
I0
S'galaxy'
p659
tp660
a(I485
I2
I0
S'galaxy'
p661
tp662
as(S'arrived'
p663
S'on'
p664
S'time'
p665
tp666
(lp667
(I248
I0
I0
S'more'
p668
tp669
a(I295
I4
F0.875
S'happy'
p670
tp671
as(S'good'
p672
tp673
(lp674
(I88
I1
F1.0
S'good'
p675
tp676
a(I689
I0
I0
S'soul'
p677
tp678
a(I878
I0
F1.0
S'good'
p679
tp680
a(I951
I0
F0.625
S'easy'
p681
tp682
as(S'card'
p683
tp684
(lp685
(I0
I24
F-0.625
S'glad'
p686
tp687
a(I111
I3
F-0.5
S'sure'
p688
tp689
a(I149
I1
I0
g597
tp690
a(I181
I4
F0.125
g605
tp691
a(I239
I3
I0
S'empty'
p692
tp693
a(I239
I3
F0.875
S'music'
p694
tp695
a(I319
I3
F1.0
g609
tp696
a(I348
I44
F0.25
S'bigger'
p697
tp698
a(I569
I0
F-0.75
g617
tp699
a(I586
I3
I0
g619
tp700
a(I785
I1
I0
g629
tp701
a(I817
I0
F0.25
S'refurbished'
p702
tp703
a(I817
I0
I0
S'internal'
p704
tp705
a(I841
I16
I0
S'sd'
p706
tp707
as(S'love'
p708
tp709
(lp710
(I569
I2
F-0.625
S'bad'
p711
tp712
a(I952
I0
F1.0
S'love'
p713
tp714
as(S'customer'
p715
S'service'
p716
tp717
(lp718
(I262
I6
F1.0
S'best'
p719
tp720
a(I287
I2
F-0.875
S'worst'
p721
tp722
a(I287
I6
F-0.875
S'worst'
p723
tp724
a(I673
I8
F0.5
S'willing'
p725
tp726
a(I733
I6
F-0.875
S'deficient'
p727
tp728
a(I852
I1
I0
S'great'
p729
tp730
a(I990
I0
F-0.875
S'worst'
p731
tp732
as(S'surge'
p733
S'telecom'
p734
tp735
(lp736
(I593
I1
F-0.5
S'less'
p737
tp738
as(S'n'
p739
S'perfect'
p740
S'condition'
p741
tp742
(lp743
(I794
I0
I0
g8
tp744
a(I897
I1
F0.5
g14
tp745
a(I897
I1
F0.875
S'happier'
p746
tp747
as(S'fast'
p748
tp749
(lp750
(I7
I0
F1.0
S'good'
p751
tp752
a(I687
I1
F-0.125
S'super'
p753
tp754
as(S'problem'
p755
tp756
(lp757
(I58
I1
I0
S'only'
p758
tp759
a(I81
I5
F-0.375
S'unacceptable'
p760
tp761
a(I105
I0
I0
S'only'
p762
tp763
a(I145
I0
I0
S'common'
p764
tp765
a(I197
I0
I0
S'great'
p766
tp767
a(I210
I2
I0
S'only'
p768
tp769
a(I214
I10
F0.25
S'main'
p770
tp771
a(I215
I3
I0
S'same'
p772
tp773
a(I241
I3
I0
S'only'
p774
tp775
a(I360
I4
I0
S'taiwan'
p776
tp777
a(I377
I2
I0
S'only'
p778
tp779
a(I452
I2
I0
S'only'
p780
tp781
a(I553
I20
I0
S'big'
p782
tp783
a(I630
I1
I0
S'fast'
p784
tp785
a(I630
I1
I0
S'only'
p786
tp787
a(I646
I2
F-0.375
S'serious'
p788
tp789
a(I657
I0
I0
S'only'
p790
tp791
a(I713
I3
I0
S'only'
p792
tp793
a(I781
I4
F0.375
S'new'
p794
tp795
a(I854
I4
I0
S'same'
p796
tp797
a(I887
I4
I0
S'only'
p798
tp799
a(I940
I2
I0
S'same'
p800
tp801
a(I976
I4
I0
S'only'
p802
tp803
as(S'x'
p804
g804
g804
tp805
(lp806
(I333
I11
F-0.5
S'heavier'
p807
tp808
as(g70
S'micro'
p809
S'sim'
p810
tp811
(lp812
(I50
I1
I0
g583
tp813
a(I68
I2
F0.125
S'usual'
p814
tp815
a(I68
I2
I0
S'sized'
p816
tp817
a(I105
I0
I0
g585
tp818
a(I121
I12
F-0.5
g587
tp819
a(I174
I10
I0
g599
tp820
a(I181
I3
F0.125
g601
tp821
a(I181
I3
I0
g603
tp822
a(I454
I4
F0.125
g613
tp823
a(I465
I0
F0.125
S'able'
p824
tp825
as(S'happy'
p826
tp827
(lp828
(I111
I35
F0.125
S'key'
p829
tp830
a(I433
I2
F0.375
S'new'
p831
tp832
a(I642
I1
F0.5
S'bought'
p833
tp834
as(S'price'
p835
tp836
(lp837
(I11
I0
I0
S'high'
p838
tp839
a(I26
I0
F0.125
S'solid'
p840
tp841
a(I30
I5
F1.0
S'good'
p842
tp843
a(I38
I7
F0.75
S'worth'
p844
tp845
a(I40
I0
F1.0
S'good'
p846
tp847
a(I41
I1
F-0.25
S'low'
p848
tp849
a(I83
I2
I0
S'such'
p850
tp851
a(I83
I2
I0
S'great'
p852
tp853
a(I97
I3
F1.0
S'good'
p854
tp855
a(I104
I0
F0.625
S'decent'
p856
tp857
a(I111
I42
F-0.25
S'cheapest'
p858
tp859
a(I214
I20
I0
S'third'
p860
tp861
a(I222
I3
F1.0
S'good'
p862
tp863
a(I250
I1
F0.625
S'easy'
p864
tp865
a(I250
I1
I0
S'efficient'
p866
tp867
a(I250
I1
F1.0
S'good'
p868
tp869
a(I274
I4
F-0.25
S'higher'
p870
tp871
a(I322
I0
F0.625
S'fair'
p872
tp873
a(I375
I1
F-0.25
S'cheaper'
p874
tp875
a(I405
I0
F0.25
S'original'
p876
tp877
a(I424
I0
I0
S'great'
p878
tp879
a(I428
I0
F1.0
S'good'
p880
tp881
a(I436
I5
F0.375
S'interesting'
p882
tp883
a(I436
I5
F0.25
S'original'
p884
tp885
a(I465
I1
I0
S'full'
p886
tp887
a(I516
I0
F0.625
S'fair'
p888
tp889
a(I598
I1
I0
S'great'
p890
tp891
a(I642
I0
F0.75
S'worth'
p892
tp893
a(I649
I16
F0.5
S'reasonable'
p894
tp895
a(I658
I2
F1.0
S'good'
p896
tp897
a(I772
I0
F1.0
S'good'
p898
tp899
a(I833
I1
F0.5
S'reasonable'
p900
tp901
a(I891
I3
F1.0
S'good'
p902
tp903
a(I899
I6
I0
S'great'
p904
tp905
a(I952
I1
I0
S'great'
p906
tp907
a(I967
I0
F-0.25
S'low'
p908
tp909
a(I968
I0
F1.0
S'better'
p910
tp911
a(I985
I2
F1.0
S'good'
p912
tp913
as(S'service'
p914
tp915
(lp916
(I111
I18
F1.0
S'best'
p917
tp918
a(I141
I0
F1.0
S'good'
p919
tp920
a(I210
I3
F-0.5
S'less'
p921
tp922
a(I376
I3
F0.5
S'technical'
p923
tp924
a(I487
I0
F-0.5
S'poor'
p925
tp926
a(I673
I8
F0.5
g725
tp927
a(I733
I6
F-0.875
g727
tp928
a(I990
I0
F-0.875
g731
tp929
as(S'need'
p930
tp931
(lp932
(I198
I7
F0.125
S'above'
p933
tp934
a(I308
I3
F-0.625
S'other'
p935
tp936
as(S'recommend'
p937
tp938
(lp939
(I456
I0
I0
S'great'
p940
tp941
as(S'product'
p942
tp943
(lp944
(I40
I0
I0
S'great'
p945
tp946
a(I47
I3
F1.0
S'good'
p947
tp948
a(I74
I1
F1.0
S'good'
p949
tp950
a(I125
I6
F-0.636
S'genuine'
p951
tp952
a(I169
I0
F0.125
S'first'
p953
tp954
a(I182
I0
F1.0
S'good'
p955
tp956
a(I183
I11
F0.375
S'new'
p957
tp958
a(I219
I0
I0
S'great'
p959
tp960
a(I219
I0
I0
S'great'
p961
tp962
a(I222
I0
F1.0
S'good'
p963
tp964
a(I229
I8
F1.0
S'good'
p965
tp966
a(I270
I0
I0
S'only'
p967
tp968
a(I276
I0
F1.0
S'best'
p969
tp970
a(I276
I0
I0
S'cellular'
p971
tp972
a(I282
I1
F0.625
S'aware'
p973
tp974
a(I289
I0
I0
S'great'
p975
tp976
a(I348
I35
F-0.25
S'google'
p977
tp978
a(I367
I0
F0.625
S'fair'
p979
tp980
a(I390
I3
I0
S'android'
p981
tp982
a(I434
I2
F-0.625
S'want'
p983
tp984
a(I434
I2
F0.5
S'clear'
p985
tp986
a(I445
I0
F1.0
S'good'
p987
tp988
a(I516
I0
I0
S'great'
p989
tp990
a(I561
I1
F0.375
S'new'
p991
tp992
a(I673
I8
I0
S'own'
p993
tp994
a(I679
I0
F1.0
S'good'
p995
tp996
a(I685
I0
F-0.75
S'likely'
p997
tp998
a(I697
I2
F1.0
S'good'
p999
tp1000
a(I704
I1
F0.375
S'new'
p1001
tp1002
a(I725
I0
F0.625
S'positive'
p1003
tp1004
a(I788
I0
F1.0
S'good'
p1005
tp1006
a(I817
I0
F0.375
S'new'
p1007
tp1008
a(I817
I0
F0.375
S'new'
p1009
tp1010
a(I867
I0
F1.0
S'good'
p1011
tp1012
a(I874
I0
I0
S'great'
p1013
tp1014
a(I874
I0
F-0.625
S'light'
p1015
tp1016
a(I874
I0
F0.75
S'beautiful'
p1017
tp1018
a(I905
I0
I0
S'great'
p1019
tp1020
a(I917
I3
F-0.625
S'bad'
p1021
tp1022
a(I944
I0
F0.25
S'original'
p1023
tp1024
a(I947
I5
F1.0
S'better'
p1025
tp1026
a(I968
I0
I0
S'same'
p1027
tp1028
a(I975
I1
I0
S'korean'
p1029
tp1030
a(I999
I8
F0.875
S'nice'
p1031
tp1032
as(S'an'
p1033
S'nternational'
p1034
S'version'
p1035
tp1036
(lp1037
(I15
I2
F-0.5
g81
tp1038
a(I48
I3
F-0.5
g83
tp1039
a(I64
I1
F-0.5
g85
tp1040
a(I64
I1
F0.5
g87
tp1041
a(I82
I0
F0.25
g93
tp1042
a(I82
I0
F-0.5
g95
tp1043
a(I89
I9
F-0.5
g99
tp1044
a(I98
I4
F-0.5
g107
tp1045
a(I114
I0
F-0.5
g109
tp1046
a(I115
I1
F-0.5
g111
tp1047
a(I121
I2
F-0.5
g115
tp1048
a(I121
I10
F-0.5
g117
tp1049
a(I139
I0
F-0.5
g119
tp1050
a(I139
I8
F-0.5
g121
tp1051
a(I159
I3
F-0.5
g123
tp1052
a(I173
I5
F-0.5
g125
tp1053
a(I174
I1
F-0.5
g127
tp1054
a(I180
I4
F-0.5
g131
tp1055
a(I227
I0
F-0.5
g147
tp1056
a(I227
I0
I0
g149
tp1057
a(I262
I4
F-0.5
g153
tp1058
a(I295
I0
F-0.5
g163
tp1059
a(I319
I2
F-0.5
g169
tp1060
a(I360
I3
F-0.5
g189
tp1061
a(I360
I3
I0
g191
tp1062
a(I383
I0
F-0.5
g203
tp1063
a(I390
I3
F-0.5
g205
tp1064
a(I493
I4
F1.0
g223
tp1065
a(I493
I4
F-0.5
g225
tp1066
a(I527
I0
F-0.5
g229
tp1067
a(I527
I0
I0
g231
tp1068
a(I551
I1
F-0.5
g237
tp1069
a(I551
I1
F0.75
g239
tp1070
a(I572
I0
F-0.5
g249
tp1071
a(I579
I1
F-0.5
g251
tp1072
a(I591
I3
F-0.5
g255
tp1073
a(I593
I0
F-0.5
g257
tp1074
a(I608
I0
F-0.5
g259
tp1075
a(I662
I0
F-0.75
g265
tp1076
a(I670
I0
F-0.5
g269
tp1077
a(I675
I0
F-0.5
g271
tp1078
a(I685
I0
F-0.5
g273
tp1079
a(I713
I3
F-0.5
g279
tp1080
a(I719
I0
F-0.5
g281
tp1081
a(I738
I4
F-0.5
g283
tp1082
a(I738
I11
F-0.5
g285
tp1083
a(I743
I0
F-0.5
g287
tp1084
a(I768
I7
F-0.5
g299
tp1085
a(I817
I1
F-0.5
g303
tp1086
a(I838
I0
F-0.5
g307
tp1087
a(I838
I5
F-0.5
g309
tp1088
a(I880
I1
F0.375
g311
tp1089
a(I880
I1
F-0.5
g313
tp1090
a(I901
I0
F-0.5
g315
tp1091
a(I912
I0
F-0.5
g319
tp1092
a(I922
I1
F-0.5
g321
tp1093
a(I961
I1
F-0.5
g327
tp1094
a(I961
I4
F-0.5
g329
tp1095
a(I977
I5
F-0.5
g339
tp1096
a(I1003
I1
F-0.5
g341
tp1097
a(I1003
I1
I0
g343
tp1098
as(S'google'
p1099
tp1100
(lp1101
(I174
I2
F1.0
S'better'
p1102
tp1103
a(I348
I38
F0.625
S'find'
p1104
tp1105
as(S'things'
p1106
tp1107
(lp1108
(I0
I11
F-0.75
S'little'
p1109
tp1110
a(I9
I4
F0.75
S'due'
p1111
tp1112
a(I47
I2
F0.625
S'easier'
p1113
tp1114
a(I151
I3
I0
S'few'
p1115
tp1116
a(I151
I3
I0
S'few'
p1117
tp1118
a(I172
I4
F-0.375
S'simple'
p1119
tp1120
a(I173
I1
I0
S'great'
p1121
tp1122
a(I218
I2
I0
S'many'
p1123
tp1124
a(I235
I6
F0.375
S'new'
p1125
tp1126
a(I333
I15
I0
S'different'
p1127
tp1128
a(I334
I17
F0.25
S'main'
p1129
tp1130
a(I348
I1
I0
S'many'
p1131
tp1132
a(I348
I1
F1.0
S'good'
p1133
tp1134
a(I356
I5
F0.5
S'obvious'
p1135
tp1136
a(I370
I21
F-0.5
S'certain'
p1137
tp1138
a(I371
I3
I0
S'many'
p1139
tp1140
a(I371
I3
I0
S'different'
p1141
tp1142
a(I390
I13
I0
S'few'
p1143
tp1144
a(I390
I14
F0.5
S'obvious'
p1145
tp1146
a(I409
I1
I0
S'many'
p1147
tp1148
a(I409
I1
I0
S'few'
p1149
tp1150
a(I409
I2
I0
S'few'
p1151
tp1152
a(I485
I1
I0
S'many'
p1153
tp1154
a(I492
I2
I0
S'many'
p1155
tp1156
a(I525
I10
I0
S'same'
p1157
tp1158
a(I531
I2
F0.375
S'new'
p1159
tp1160
a(I580
I3
F-0.625
S'other'
p1161
tp1162
a(I655
I6
I0
S'great'
p1163
tp1164
a(I698
I6
F-0.75
S'hate'
p1165
tp1166
a(I709
I2
I0
S'different'
p1167
tp1168
a(I777
I2
I0
S'many'
p1169
tp1170
a(I777
I2
F-0.625
S'other'
p1171
tp1172
a(I777
I2
I0
S'many'
p1173
tp1174
a(I780
I3
F-0.5
S'less'
p1175
tp1176
a(I780
I3
F-0.25
S'ready'
p1177
tp1178
a(I791
I0
I0
S'chinese'
p1179
tp1180
a(I833
I10
I0
S'many'
p1181
tp1182
a(I904
I4
I0
S'many'
p1183
tp1184
a(I904
I4
I0
S'great'
p1185
tp1186
as(S'apple'
p1187
tp1188
(lp1189
(I118
I22
F0.25
S'tired'
p1190
tp1191
a(I169
I5
F1.0
S'good'
p1192
tp1193
a(I178
I2
I0
S'useful'
p1194
tp1195
a(I409
I6
F1.0
S'better'
p1196
tp1197
a(I416
I2
F0.5
S'whole'
p1198
tp1199
a(I494
I2
I0
S'latest'
p1200
tp1201
a(I701
I1
F0.5
S'whole'
p1202
tp1203
a(I701
I1
F0.375
S'appreciate'
p1204
tp1205
a(I701
I1
F0.5
S'whole'
p1206
tp1207
a(I701
I1
F0.5
S'whole'
p1208
tp1209
as(S'galaxy'
p1210
S's3'
p1211
S't'
p1212
tp1213
(lp1214
(I34
I3
F0.375
g421
tp1215
a(I34
I3
I0
g423
tp1216
a(I44
I1
F0.875
g425
tp1217
a(I174
I1
F0.25
g427
tp1218
a(I179
I6
I0
S'mobile'
p1219
tp1220
a(I183
I9
I0
g429
tp1221
a(I208
I21
F1.0
g431
tp1222
a(I261
I11
F0.5
g433
tp1223
a(I350
I1
I0
g435
tp1224
a(I386
I4
F0.5
g437
tp1225
a(I409
I0
F-0.25
g439
tp1226
a(I416
I0
I0
g441
tp1227
a(I439
I0
F0.125
g443
tp1228
a(I591
I4
I0
g445
tp1229
a(I611
I1
I0
g447
tp1230
a(I611
I1
F-0.625
g449
tp1231
a(I629
I0
I0
g451
tp1232
a(I650
I0
I0
g453
tp1233
a(I701
I1
F0.375
g455
tp1234
a(I832
I4
F0.5
g457
tp1235
a(I854
I0
F-0.5
g459
tp1236
a(I972
I1
F-0.5
g461
tp1237
a(I986
I0
I0
g463
tp1238
a(I986
I0
F-0.625
g465
tp1239
as(S'micro'
p1240
S'sim'
p1241
S'card'
p1242
tp1243
(lp1244
(I50
I1
I0
g583
tp1245
a(I105
I0
I0
g585
tp1246
a(I121
I12
F-0.5
g587
tp1247
a(I174
I10
I0
g599
tp1248
a(I181
I3
F0.125
g601
tp1249
a(I181
I3
I0
g603
tp1250
a(I181
I4
F0.125
g605
tp1251
a(I454
I4
F0.125
g613
tp1252
a(I465
I0
F0.125
g824
tp1253
a(I569
I0
F-0.75
g617
tp1254
as(S'death'
p1255
S'syndrome'
p1256
tp1257
(lp1258
(I116
I0
F-0.5
g573
tp1259
a(I685
I0
F-0.5
g575
tp1260
as(S'months'
p1261
S'of'
p1262
S'use'
p1263
tp1264
(lp1265
(I169
I3
I0
S'few'
p1266
tp1267
as(S'of'
p1268
S'galaxy'
p1269
S's3'
p1270
tp1271
(lp1272
(I34
I3
F0.375
g421
tp1273
a(I34
I3
I0
g423
tp1274
a(I174
I1
F0.25
g427
tp1275
a(I208
I21
F1.0
g431
tp1276
a(I386
I4
F0.5
g437
tp1277
a(I439
I0
F0.125
g443
tp1278
a(I591
I4
I0
g445
tp1279
a(I629
I0
I0
g451
tp1280
a(I701
I1
F0.375
g455
tp1281
a(I832
I4
F0.5
g457
tp1282
a(I986
I0
I0
g463
tp1283
a(I986
I0
F-0.625
g465
tp1284
as(g70
S'long'
p1285
S'time'
p1286
tp1287
(lp1288
(I109
I0
F-0.5
S'long'
p1289
tp1290
a(I111
I28
I0
S'website'
p1291
tp1292
a(I111
I28
F-0.5
S'long'
p1293
tp1294
a(I111
I38
F-0.5
S'long'
p1295
tp1296
a(I125
I0
F-0.5
S'long'
p1297
tp1298
a(I164
I3
F-0.5
S'long'
p1299
tp1300
a(I266
I0
F-0.5
S'long'
p1301
tp1302
a(I598
I0
F-0.5
S'long'
p1303
tp1304
a(I602
I4
F-0.5
S'long'
p1305
tp1306
a(I639
I1
F-0.5
S'long'
p1307
tp1308
a(I685
I1
F-0.5
S'long'
p1309
tp1310
a(I701
I1
F-0.5
S'long'
p1311
tp1312
a(I701
I1
F0.125
S'last'
p1313
tp1314
a(I754
I2
F-0.5
S'long'
p1315
tp1316
a(I833
I8
F-0.5
S'long'
p1317
tp1318
a(I994
I1
I0
S'next'
p1319
tp1320
as(S'android'
p1321
tp1322
(lp1323
(I38
I1
F0.125
S'first'
p1324
tp1325
a(I172
I29
F-0.625
S'natural'
p1326
tp1327
a(I356
I1
F-0.5
S'actual'
p1328
tp1329
a(I446
I0
F0.125
S'first'
p1330
tp1331
a(I454
I0
F1.0
S'best'
p1332
tp1333
a(I552
I1
I0
S'latest'
p1334
tp1335
a(I586
I2
I0
S'great'
p1336
tp1337
a(I616
I0
F0.125
S'first'
p1338
tp1339
a(I628
I0
F0.125
S'first'
p1340
tp1341
a(I787
I3
F-0.375
S'serious'
p1342
tp1343
a(I949
I3
F0.25
S'recent'
p1344
tp1345
a(I1017
I0
F0.125
S'first'
p1346
tp1347
as(S'know'
p1348
tp1349
(lp1350
(I215
I13
I0
S'most'
p1351
tp1352
as(g469
S'ii'
p1353
S's3'
p1354
tp1355
(lp1356
(I337
I0
I0
g485
tp1357
a(I944
I0
I0
g518
tp1358
a(I986
I0
I0
g463
tp1359
a(I986
I0
F-0.625
g465
tp1360
as(S'galaxy'
p1361
g469
S'ii'
p1362
tp1363
(lp1364
(I89
I10
I0
g474
tp1365
a(I89
I10
F0.125
S'first'
p1366
tp1367
a(I172
I8
I0
g476
tp1368
a(I174
I1
F0.25
g427
tp1369
a(I337
I0
I0
g485
tp1370
a(I636
I0
F-0.125
S'overall'
p1371
tp1372
a(I871
I1
I0
S'android'
p1373
tp1374
a(I871
I1
F1.0
S'best'
p1375
tp1376
a(I944
I0
I0
g518
tp1377
as(S'thing'
p1378
tp1379
(lp1380
(I47
I4
I0
S'real'
p1381
tp1382
a(I47
I4
F-0.625
S'bad'
p1383
tp1384
a(I47
I7
I0
S'great'
p1385
tp1386
a(I50
I1
I0
S'only'
p1387
tp1388
a(I79
I4
I0
S'only'
p1389
tp1390
a(I119
I2
F-0.625
S'bad'
p1391
tp1392
a(I130
I2
F-0.875
S'worst'
p1393
tp1394
a(I164
I13
I0
S'only'
p1395
tp1396
a(I183
I7
F0.125
S'first'
p1397
tp1398
a(I210
I3
I0
S'same'
p1399
tp1400
a(I211
I0
F1.0
S'good'
p1401
tp1402
a(I214
I1
I0
S'only'
p1403
tp1404
a(I217
I0
I0
S'only'
p1405
tp1406
a(I239
I6
I0
S'next'
p1407
tp1408
a(I284
I2
I0
S'big'
p1409
tp1410
a(I331
I2
F0.875
S'important'
p1411
tp1412
a(I348
I47
F0.25
S'powerful'
p1413
tp1414
a(I498
I1
I0
S'only'
p1415
tp1416
a(I501
I2
F0.125
S'first'
p1417
tp1418
a(I501
I14
I0
S'only'
p1419
tp1420
a(I503
I1
I0
S'only'
p1421
tp1422
a(I528
I5
F0.125
S'solid'
p1423
tp1424
a(I533
I4
I0
S'only'
p1425
tp1426
a(I533
I4
F0.125
S'able'
p1427
tp1428
a(I602
I9
I0
S'only'
p1429
tp1430
a(I616
I2
I0
S'such'
p1431
tp1432
a(I616
I2
I0
S'basic'
p1433
tp1434
a(I649
I14
I0
S'more'
p1435
tp1436
a(I649
I14
I0
S'plastic'
p1437
tp1438
a(I659
I6
I0
S'only'
p1439
tp1440
a(I659
I6
F0.125
S'able'
p1441
tp1442
a(I662
I18
I0
S'such'
p1443
tp1444
a(I701
I0
I0
S'next'
p1445
tp1446
a(I701
I0
I0
S'big'
p1447
tp1448
a(I701
I1
I0
S'only'
p1449
tp1450
a(I707
I0
I0
S'only'
p1451
tp1452
a(I707
I0
F-0.625
S'bad'
p1453
tp1454
a(I754
I2
F1.0
S'best'
p1455
tp1456
a(I759
I0
I0
S'only'
p1457
tp1458
a(I777
I4
I0
S'only'
p1459
tp1460
a(I791
I0
F-0.875
S'worst'
p1461
tp1462
a(I797
I6
I0
S'same'
p1463
tp1464
a(I838
I5
I0
S'such'
p1465
tp1466
a(I841
I13
I0
S'next'
p1467
tp1468
a(I901
I0
I0
S'only'
p1469
tp1470
a(I941
I0
I0
S'only'
p1471
tp1472
a(I965
I1
F1.0
S'best'
p1473
tp1474
a(I994
I1
F1.0
S'good'
p1475
tp1476
as(g70
S'samsung'
p1477
S'galaxy'
p1478
tp1479
(lp1480
(I89
I10
F0.5
g472
tp1481
a(I89
I10
I0
g474
tp1482
a(I172
I8
I0
g476
tp1483
a(I174
I1
F0.25
g427
tp1484
a(I179
I6
F0.25
g479
tp1485
a(I263
I0
I0
g481
tp1486
a(I290
I4
F-0.625
g483
tp1487
a(I352
I13
I0
g487
tp1488
a(I352
I13
I0
g489
tp1489
a(I380
I0
F1.0
g491
tp1490
a(I404
I0
I0
g493
tp1491
a(I409
I0
F0.375
g495
tp1492
a(I490
I0
F0.375
g497
tp1493
a(I525
I0
F0.375
g499
tp1494
a(I537
I2
F-0.5
g501
tp1495
a(I546
I6
F0.375
g503
tp1496
a(I573
I0
F0.25
g505
tp1497
a(I591
I4
I0
g445
tp1498
a(I629
I0
I0
g451
tp1499
a(I669
I4
F0.375
g509
tp1500
a(I832
I4
F0.5
g457
tp1501
a(I846
I0
F-0.625
g512
tp1502
a(I846
I0
F0.25
g514
tp1503
a(I884
I1
F0.375
g516
tp1504
as(S'couple'
p1505
S'of'
p1506
S'days'
p1507
tp1508
(lp1509
(I335
I7
I0
S'later'
p1510
tp1511
a(I925
I0
F0.375
S'working'
p1512
tp1513
a(I931
I0
F-0.625
S'moderate'
p1514
tp1515
as(S'size'
p1516
tp1517
(lp1518
(I44
I2
F-0.75
S'comfortable'
p1519
tp1520
a(I70
I0
F-0.375
S'small'
p1521
tp1522
a(I169
I6
I0
S'more'
p1523
tp1524
a(I284
I7
I0
S'big'
p1525
tp1526
a(I284
I7
I0
S'large'
p1527
tp1528
a(I294
I4
I0
S'great'
p1529
tp1530
a(I334
I4
F0.875
S'nice'
p1531
tp1532
a(I437
I1
F0.625
S'perfect'
p1533
tp1534
a(I553
I20
F-0.25
S'past'
p1535
tp1536
a(I553
I32
F-0.25
S'past'
p1537
tp1538
a(I585
I13
F-0.375
S'smaller'
p1539
tp1540
a(I592
I1
I0
S'great'
p1541
tp1542
a(I616
I3
F0.625
S'convenient'
p1543
tp1544
a(I616
I3
F0.25
S'helpful'
p1545
tp1546
a(I728
I1
F1.0
S'good'
p1547
tp1548
a(I728
I1
F-0.625
S'steady'
p1549
tp1550
a(I785
I1
F-0.375
S'small'
p1551
tp1552
a(I796
I2
F0.625
S'perfect'
p1553
tp1554
a(I880
I4
F-0.5
S'long'
p1555
tp1556
a(I894
I2
F0.25
S'bigger'
p1557
tp1558
a(I945
I0
F-0.75
S'uncomfortable'
p1559
tp1560
a(I985
I0
F0.625
S'perfect'
p1561
tp1562
a(I993
I1
I0
S'useful'
p1563
tp1564
a(I1011
I2
I0
S'big'
p1565
tp1566
a(I1013
I9
F0.375
S'extra'
p1567
tp1568
a(I1013
I19
F-0.625
S'natural'
p1569
tp1570
as(S'work'
p1571
tp1572
(lp1573
(I98
I4
I0
S'most'
p1574
tp1575
a(I151
I9
F0.5
S'personal'
p1576
tp1577
a(I283
I0
F1.0
S'good'
p1578
tp1579
a(I333
I19
F-0.25
S'potential'
p1580
tp1581
a(I373
I10
F-0.375
S'simple'
p1582
tp1583
a(I804
I10
F1.0
S'good'
p1584
tp1585
as(S'battery'
p1586
S'life'
p1587
tp1588
(lp1589
(I68
I3
F-0.75
S'short'
p1590
tp1591
a(I137
I3
I0
S'fast'
p1592
tp1593
a(I151
I6
F1.0
S'better'
p1594
tp1595
a(I157
I0
I0
S'incredible'
p1596
tp1597
a(I164
I1
F-0.75
S'short'
p1598
tp1599
a(I178
I2
F1.0
S'good'
p1600
tp1601
a(I178
I2
F0.5
S'aggressive'
p1602
tp1603
a(I190
I1
I0
S'fast'
p1604
tp1605
a(I190
I1
F-0.625
S'light'
p1606
tp1607
a(I190
I1
F1.0
S'good'
p1608
tp1609
a(I202
I2
F-0.5
S'poor'
p1610
tp1611
a(I205
I4
F-0.25
S'low'
p1612
tp1613
a(I241
I15
I0
S'same'
p1614
tp1615
a(I246
I1
I0
S'great'
p1616
tp1617
a(I283
I0
F-0.5
S'longer'
p1618
tp1619
a(I285
I0
F0.625
S'replaceable'
p1620
tp1621
a(I334
I15
F0.125
S'last'
p1622
tp1623
a(I336
I0
F-0.25
S'battery'
p1624
tp1625
a(I348
I1
F0.625
S'removable'
p1626
tp1627
a(I348
I30
F-0.5
S'less'
p1628
tp1629
a(I349
I0
F1.0
S'good'
p1630
tp1631
a(I372
I20
I0
S'great'
p1632
tp1633
a(I390
I7
F-0.625
S'fresh'
p1634
tp1635
a(I467
I3
F-0.5
S'long'
p1636
tp1637
a(I492
I6
F-0.75
S'short'
p1638
tp1639
a(I496
I0
F-0.25
S'lower'
p1640
tp1641
a(I590
I0
F-0.5
S'poor'
p1642
tp1643
a(I590
I0
F0.125
S'last'
p1644
tp1645
a(I592
I4
F0.625
S'acceptable'
p1646
tp1647
a(I602
I6
I0
S'great'
p1648
tp1649
a(I647
I1
F-0.5
S'poor'
p1650
tp1651
a(I664
I2
F-0.375
S'daily'
p1652
tp1653
a(I674
I4
F0.25
S'stellar'
p1654
tp1655
a(I687
I2
I0
S'great'
p1656
tp1657
a(I789
I2
F-0.25
S'low'
p1658
tp1659
a(I834
I4
F-0.75
S'short'
p1660
tp1661
a(I841
I29
F-0.625
S'moderate'
p1662
tp1663
a(I900
I0
F0.125
S'first'
p1664
tp1665
as(S'make'
p1666
g1212
S'work'
p1667
tp1668
(lp1669
(I283
I0
F1.0
g1578
tp1670
as(S'made'
p1671
tp1672
(lp1673
(I777
I0
I0
S'android'
p1674
tp1675
as(S'came'
p1676
tp1677
(lp1678
(I386
I4
F0.25
S'gear'
p1679
tp1680
a(I458
I6
F0.375
S'new'
p1681
tp1682
a(I701
I1
I0
S'e-mail'
p1683
tp1684
as(S'problems'
p1685
tp1686
(lp1687
(I159
I7
F-0.125
S'mine'
p1688
tp1689
a(I341
I0
I0
S'many'
p1690
tp1691
a(I553
I32
I0
S'common'
p1692
tp1693
a(I611
I2
I0
S'many'
p1694
tp1695
a(I659
I6
I0
S'same'
p1696
tp1697
a(I726
I2
F-0.75
S'minor'
p1698
tp1699
a(I726
I2
I0
S'such'
p1700
tp1701
a(I870
I3
I0
S'such'
p1702
tp1703
a(I902
I1
F0.625
S'convenient'
p1704
tp1705
a(I902
I1
F-0.375
S'small'
p1706
tp1707
as(S'nternational'
p1708
S'version'
p1709
tp1710
(lp1711
(I8
I0
F-0.5
g79
tp1712
a(I15
I2
F-0.5
g81
tp1713
a(I48
I3
F-0.5
g83
tp1714
a(I64
I1
F-0.5
g85
tp1715
a(I64
I1
F0.5
g87
tp1716
a(I82
I0
F0.25
g93
tp1717
a(I82
I0
F-0.5
g95
tp1718
a(I86
I1
F-0.5
g97
tp1719
a(I89
I9
F-0.5
g99
tp1720
a(I98
I4
F-0.5
g107
tp1721
a(I114
I0
F-0.5
g109
tp1722
a(I115
I1
F-0.5
g111
tp1723
a(I121
I2
F-0.5
g115
tp1724
a(I121
I10
F-0.5
g117
tp1725
a(I139
I0
F-0.5
g119
tp1726
a(I139
I8
F-0.5
g121
tp1727
a(I159
I3
F-0.5
g123
tp1728
a(I173
I5
F-0.5
g125
tp1729
a(I174
I1
F-0.5
g127
tp1730
a(I180
I4
F-0.5
g131
tp1731
a(I227
I0
F-0.5
g147
tp1732
a(I227
I0
I0
g149
tp1733
a(I262
I4
F-0.5
g153
tp1734
a(I295
I0
F-0.5
g163
tp1735
a(I301
I1
F-0.5
g165
tp1736
a(I319
I2
F-0.5
g169
tp1737
a(I355
I0
F-0.5
g175
tp1738
a(I360
I3
F-0.5
g189
tp1739
a(I360
I3
I0
g191
tp1740
a(I360
I8
F0.5
g193
tp1741
a(I360
I8
F-0.5
g195
tp1742
a(I372
I9
I0
g197
tp1743
a(I372
I27
F-0.5
g199
tp1744
a(I372
I27
F1.0
g201
tp1745
a(I383
I0
F-0.5
g203
tp1746
a(I390
I3
F-0.5
g205
tp1747
a(I406
I2
F-0.5
g213
tp1748
a(I449
I1
F-0.5
g215
tp1749
a(I458
I3
F-0.5
g219
tp1750
a(I493
I1
F-0.5
g221
tp1751
a(I493
I4
F1.0
g223
tp1752
a(I493
I4
F-0.5
g225
tp1753
a(I518
I1
F-0.5
g227
tp1754
a(I527
I0
F-0.5
g229
tp1755
a(I527
I0
I0
g231
tp1756
a(I537
I1
F-0.5
g235
tp1757
a(I551
I1
F-0.5
g237
tp1758
a(I551
I1
F0.75
g239
tp1759
a(I572
I0
F-0.5
g249
tp1760
a(I579
I1
F-0.5
g251
tp1761
a(I591
I3
F-0.5
g255
tp1762
a(I593
I0
F-0.5
g257
tp1763
a(I608
I0
F-0.5
g259
tp1764
a(I612
I0
F-0.5
g261
tp1765
a(I662
I0
F-0.75
g265
tp1766
a(I670
I0
F-0.5
g269
tp1767
a(I675
I0
F-0.5
g271
tp1768
a(I685
I0
F-0.5
g273
tp1769
a(I713
I3
F-0.5
g279
tp1770
a(I719
I0
F-0.5
g281
tp1771
a(I738
I4
F-0.5
g283
tp1772
a(I738
I11
F-0.5
g285
tp1773
a(I743
I0
F-0.5
g287
tp1774
a(I768
I7
F-0.5
g299
tp1775
a(I817
I1
F-0.5
g303
tp1776
a(I824
I0
F-0.5
g305
tp1777
a(I838
I0
F-0.5
g307
tp1778
a(I838
I5
F-0.5
g309
tp1779
a(I880
I1
F0.375
g311
tp1780
a(I880
I1
F-0.5
g313
tp1781
a(I901
I0
F-0.5
g315
tp1782
a(I912
I0
F-0.5
g319
tp1783
a(I922
I1
F-0.5
g321
tp1784
a(I948
I0
I0
g323
tp1785
a(I949
I0
F-0.5
g325
tp1786
a(I961
I1
F-0.5
g327
tp1787
a(I961
I4
F-0.5
g329
tp1788
a(I977
I1
F-0.5
g333
tp1789
a(I977
I2
F-0.5
g335
tp1790
a(I977
I4
F-0.5
g337
tp1791
a(I977
I5
F-0.5
g339
tp1792
a(I1003
I1
F-0.5
g341
tp1793
a(I1003
I1
I0
g343
tp1794
a(I1006
I0
F-0.5
g347
tp1795
as(S'unlocked'
p1796
S'nternational'
p1797
S'version'
p1798
tp1799
(lp1800
(I15
I2
F-0.5
g81
tp1801
a(I82
I0
F0.25
g93
tp1802
a(I82
I0
F-0.5
g95
tp1803
a(I173
I5
F-0.5
g125
tp1804
a(I174
I1
F-0.5
g127
tp1805
a(I227
I0
F-0.5
g147
tp1806
a(I227
I0
I0
g149
tp1807
a(I301
I1
F-0.5
g165
tp1808
a(I319
I2
F-0.5
g169
tp1809
a(I372
I9
I0
g197
tp1810
a(I372
I27
F-0.5
g199
tp1811
a(I372
I27
F1.0
g201
tp1812
a(I390
I3
F-0.5
g205
tp1813
a(I406
I2
F-0.5
g213
tp1814
a(I449
I1
F-0.5
g215
tp1815
a(I527
I0
F-0.5
g229
tp1816
a(I527
I0
I0
g231
tp1817
a(I551
I1
F-0.5
g237
tp1818
a(I551
I1
F0.75
g239
tp1819
a(I572
I0
F-0.5
g249
tp1820
a(I591
I3
F-0.5
g255
tp1821
a(I662
I0
F-0.75
g265
tp1822
a(I670
I0
F-0.5
g269
tp1823
a(I675
I0
F-0.5
g271
tp1824
a(I817
I1
F-0.5
g303
tp1825
a(I824
I0
F-0.5
g305
tp1826
a(I838
I0
F-0.5
g307
tp1827
a(I880
I1
F0.375
g311
tp1828
a(I880
I1
F-0.5
g313
tp1829
a(I912
I0
F-0.5
g319
tp1830
a(I948
I0
I0
g323
tp1831
a(I949
I0
F-0.5
g325
tp1832
a(I977
I1
F-0.5
g333
tp1833
a(I1006
I0
F-0.5
g347
tp1834
as(S'life'
p1835
tp1836
(lp1837
(I70
I2
I0
S'own'
p1838
tp1839
a(I157
I0
I0
g1596
tp1840
a(I164
I1
F-0.75
g1598
tp1841
a(I178
I2
F1.0
g1600
tp1842
a(I246
I1
I0
g1616
tp1843
a(I334
I15
F0.125
g1622
tp1844
a(I336
I0
F-0.25
g1624
tp1845
a(I348
I30
F-0.5
g1628
tp1846
a(I371
I16
F-0.5
S'less'
p1847
tp1848
a(I372
I20
I0
g1632
tp1849
a(I390
I15
I0
S'real'
p1850
tp1851
a(I467
I3
F-0.5
g1636
tp1852
a(I492
I6
F-0.75
g1638
tp1853
a(I496
I0
F-0.25
g1640
tp1854
a(I590
I0
F-0.5
g1642
tp1855
a(I592
I4
F0.625
g1646
tp1856
a(I602
I6
I0
g1648
tp1857
a(I647
I1
F-0.5
g1650
tp1858
a(I664
I2
F-0.375
g1652
tp1859
a(I687
I2
I0
g1656
tp1860
a(I844
I9
F0.625
S'easier'
p1861
tp1862
a(I883
I7
I0
S'more'
p1863
tp1864
as(S'with'
p1865
S'galaxy'
p1866
S's3'
p1867
tp1868
(lp1869
(I34
I3
F0.375
g421
tp1870
a(I34
I3
I0
g423
tp1871
a(I44
I1
F0.875
g425
tp1872
a(I174
I1
F0.25
g427
tp1873
a(I386
I4
F0.5
g437
tp1874
a(I832
I4
F0.5
g457
tp1875
a(I986
I0
I0
g463
tp1876
a(I986
I0
F-0.625
g465
tp1877
as(S'third'
p1878
S'party'
p1879
tp1880
(lp1881
(I738
I8
I0
S'third'
p1882
tp1883
a(I738
I11
I0
S'third'
p1884
tp1885
a(I738
I18
I0
S'third'
p1886
tp1887
as(S'use'
p1888
g1212
g739
tp1889
(lp1890
(I5
I0
F-0.25
S'cheaper'
p1891
tp1892
a(I38
I3
F-0.625
S'irregular'
p1893
tp1894
a(I150
I3
F-0.625
S'free'
p1895
tp1896
a(I150
I3
I0
S'limited'
p1897
tp1898
a(I164
I10
F-0.75
S'little'
p1899
tp1900
a(I230
I2
I0
S'extensive'
p1901
tp1902
a(I260
I3
F1.0
S'good'
p1903
tp1904
a(I273
I0
F0.75
S'due'
p1905
tp1906
a(I273
I0
F0.375
S'new'
p1907
tp1908
a(I285
I2
F-0.5
S'regular'
p1909
tp1910
a(I285
I2
I0
S'same'
p1911
tp1912
a(I346
I2
F0.125
S'first'
p1913
tp1914
a(I523
I2
F-0.625
S'light'
p1915
tp1916
a(I526
I1
F-0.625
S'light'
p1917
tp1918
a(I567
I1
I0
S'american'
p1919
tp1920
a(I585
I15
F-0.5
S'international'
p1921
tp1922
a(I605
I0
F-0.375
S'daily'
p1923
tp1924
a(I791
I1
I0
S'different'
p1925
tp1926
a(I863
I0
F-0.75
S'little'
p1927
tp1928
a(I863
I0
F0.125
S'practical'
p1929
tp1930
a(I900
I0
I0
S'normal'
p1931
tp1932
a(I938
I3
F-0.625
S'moderate'
p1933
tp1934
a(I1002
I5
I0
S'same'
p1935
tp1936
as(S'versi'
p1937
S'oacute'
p1938
g739
tp1939
(lp1940
(I557
I0
I0
S'fast'
p1941
tp1942
a(I557
I0
F-0.5
S'international'
p1943
tp1944
a(I791
I1
I0
g1925
tp1945
as(S'dual'
p1946
S'core'
p1947
tp1948
(lp1949
(I125
I4
I0
S'mobile'
p1950
tp1951
as(S'seller'
p1952
tp1953
(lp1954
(I124
I0
I0
S'great'
p1955
tp1956
a(I134
I0
F1.0
S'good'
p1957
tp1958
a(I134
I0
F-0.5
S'sure'
p1959
tp1960
a(I204
I6
F-0.5
S'sure'
p1961
tp1962
a(I213
I1
I0
S'later'
p1963
tp1964
a(I213
I1
I0
S'contacted'
p1965
tp1966
a(I350
I0
F-0.125
S'mine'
p1967
tp1968
a(I406
I6
F0.5
S'told'
p1969
tp1970
a(I474
I5
F1.0
S'good'
p1971
tp1972
a(I513
I0
F0.5
S'irresponsible'
p1973
tp1974
a(I550
I1
I0
S'same'
p1975
tp1976
a(I550
I3
F0.625
S'hold'
p1977
tp1978
a(I550
I3
F0.25
S'tired'
p1979
tp1980
a(I589
I4
I0
S'different'
p1981
tp1982
a(I614
I4
F1.0
S'good'
p1983
tp1984
a(I699
I2
F-0.25
S'grate'
p1985
tp1986
a(I733
I6
I0
S'different'
p1987
tp1988
a(I868
I1
F0.125
S'key'
p1989
tp1990
a(I934
I4
F-0.5
S'open'
p1991
tp1992
a(I960
I1
F1.0
S'best'
p1993
tp1994
a(I988
I1
I0
S'same'
p1995
tp1996
as(S'samsung'
p1997
S'galaxy'
p1998
S's3'
p1999
tp2000
(lp2001
(I174
I1
F0.25
g427
tp2002
a(I179
I6
F0.25
g479
tp2003
a(I261
I11
F0.5
g433
tp2004
a(I404
I0
I0
g493
tp2005
a(I409
I0
F0.375
g495
tp2006
a(I409
I0
F-0.25
g439
tp2007
a(I490
I0
F0.375
g497
tp2008
a(I573
I0
F0.25
g505
tp2009
a(I591
I4
I0
g445
tp2010
a(I629
I0
I0
g451
tp2011
a(I650
I0
I0
g453
tp2012
a(I832
I4
F0.5
g457
tp2013
a(I884
I1
F0.375
g516
tp2014
a(I986
I0
I0
g463
tp2015
a(I986
I0
F-0.625
g465
tp2016
as(S'battery'
p2017
tp2018
(lp2019
(I47
I7
F0.375
S'extra'
p2020
tp2021
a(I60
I0
F-0.625
S'bad'
p2022
tp2023
a(I68
I3
F-0.75
g1590
tp2024
a(I91
I0
F0.5
S'compliant'
p2025
tp2026
a(I111
I35
F1.0
S'better'
p2027
tp2028
a(I111
I35
F-0.125
S'future'
p2029
tp2030
a(I119
I3
F-0.625
S'other'
p2031
tp2032
a(I137
I3
I0
g1592
tp2033
a(I151
I6
F1.0
g1594
tp2034
a(I154
I0
F-0.5
S'less'
p2035
tp2036
a(I154
I0
F-0.25
S'low'
p2037
tp2038
a(I164
I2
F-0.25
S'low'
p2039
tp2040
a(I178
I2
F0.5
g1602
tp2041
a(I190
I1
I0
g1604
tp2042
a(I190
I1
F-0.625
g1606
tp2043
a(I190
I1
F1.0
g1608
tp2044
a(I202
I2
F-0.5
g1610
tp2045
a(I205
I4
F-0.25
g1612
tp2046
a(I230
I2
F0.5
S'strong'
p2047
tp2048
a(I239
I7
F0.125
S'last'
p2049
tp2050
a(I241
I15
I0
g1614
tp2051
a(I275
I0
F0.375
S'new'
p2052
tp2053
a(I283
I0
F-0.5
g1618
tp2054
a(I285
I0
F0.625
g1620
tp2055
a(I347
I2
F0.375
S'extra'
p2056
tp2057
a(I348
I1
F0.625
g1626
tp2058
a(I348
I33
I0
S'more'
p2059
tp2060
a(I348
I33
I0
S'net'
p2061
tp2062
a(I349
I0
F1.0
g1630
tp2063
a(I390
I7
F-0.625
g1634
tp2064
a(I417
I7
F-0.25
S'low'
p2065
tp2066
a(I425
I1
F0.875
S'nice'
p2067
tp2068
a(I426
I1
F0.25
S'original'
p2069
tp2070
a(I486
I0
F0.125
S'last'
p2071
tp2072
a(I486
I0
F-0.5
S'long'
p2073
tp2074
a(I489
I0
F1.0
S'good'
p2075
tp2076
a(I525
I3
I0
S'fast'
p2077
tp2078
a(I525
I11
F0.25
S'powerful'
p2079
tp2080
a(I543
I0
I0
S'large'
p2081
tp2082
a(I546
I1
F1.0
S'good'
p2083
tp2084
a(I547
I1
I0
S'faster'
p2085
tp2086
a(I559
I2
F0.25
S'original'
p2087
tp2088
a(I568
I1
F0.125
S'last'
p2089
tp2090
a(I590
I0
F0.125
g1644
tp2091
a(I657
I0
I0
S'more'
p2092
tp2093
a(I674
I4
F0.25
g1654
tp2094
a(I681
I1
F1.0
S'good'
p2095
tp2096
a(I690
I1
F0.125
S'last'
p2097
tp2098
a(I728
I1
F1.0
S'good'
p2099
tp2100
a(I787
I2
F0.5
S'live'
p2101
tp2102
a(I789
I2
F-0.25
g1658
tp2103
a(I834
I4
F-0.75
g1660
tp2104
a(I841
I29
F-0.625
g1662
tp2105
a(I841
I30
I0
S'full'
p2106
tp2107
a(I853
I0
F0.125
S'last'
p2108
tp2109
a(I870
I2
I0
S'external'
p2110
tp2111
a(I900
I0
F0.125
g1664
tp2112
a(I908
I3
F-0.25
S'lower'
p2113
tp2114
a(I908
I3
F0.375
S'extended'
p2115
tp2116
a(I908
I3
F0.375
S'available'
p2117
tp2118
a(I934
I1
F-0.875
S'awful'
p2119
tp2120
a(I938
I3
F0.25
S'powerful'
p2121
tp2122
a(I938
I3
I0
S'large'
p2123
tp2124
a(I1006
I2
I0
S'very'
p2125
tp2126
a(I1013
I11
F0.625
S'removable'
p2127
tp2128
as(g1212
S'works'
p2129
S'great'
p2130
tp2131
(lp2132
(I311
I2
I0
S'great'
p2133
tp2134
a(I348
I21
F1.0
S'best'
p2135
tp2136
a(I756
I0
F0.875
S'nice'
p2137
tp2138
a(I867
I0
I0
S'great'
p2139
tp2140
a(I891
I3
I0
S'great'
p2141
tp2142
a(I961
I0
F1.0
S'good'
p2143
tp2144
as(S'samsung'
p2145
S'galaxy'
p2146
tp2147
(lp2148
(I89
I10
F0.5
g472
tp2149
a(I89
I10
I0
g474
tp2150
a(I172
I8
I0
g476
tp2151
a(I174
I1
F0.25
g427
tp2152
a(I179
I6
F0.25
g479
tp2153
a(I263
I0
I0
g481
tp2154
a(I290
I4
F-0.625
g483
tp2155
a(I352
I13
I0
g487
tp2156
a(I352
I13
I0
g489
tp2157
a(I380
I0
F1.0
g491
tp2158
a(I404
I0
I0
g493
tp2159
a(I409
I0
F0.375
g495
tp2160
a(I490
I0
F0.375
g497
tp2161
a(I525
I0
F0.375
g499
tp2162
a(I537
I2
F-0.5
g501
tp2163
a(I546
I6
F0.375
g503
tp2164
a(I573
I0
F0.25
g505
tp2165
a(I591
I4
I0
g445
tp2166
a(I629
I0
I0
g451
tp2167
a(I669
I4
F0.375
g509
tp2168
a(I832
I4
F0.5
g457
tp2169
a(I846
I0
F-0.625
g512
tp2170
a(I846
I0
F0.25
g514
tp2171
a(I884
I1
F0.375
g516
tp2172
as(S'cell'
p2173
tp2174
(lp2175
(I2
I0
F-0.375
S'small'
p2176
tp2177
a(I111
I17
F-0.5
S'international'
p2178
tp2179
a(I111
I43
F-0.5
S'international'
p2180
tp2181
a(I266
I0
I0
S'many'
p2182
tp2183
a(I363
I0
F1.0
S'best'
p2184
tp2185
a(I369
I0
I0
S'great'
p2186
tp2187
a(I420
I1
F1.0
S'best'
p2188
tp2189
a(I465
I1
I0
S'current'
p2190
tp2191
a(I498
I0
F1.0
S'best'
p2192
tp2193
a(I512
I0
F1.0
S'good'
p2194
tp2195
a(I544
I0
F1.0
S'good'
p2196
tp2197
a(I582
I0
F0.5
S'compatible'
p2198
tp2199
a(I582
I0
I0
S'mobile'
p2200
tp2201
a(I891
I1
I0
S'most'
p2202
tp2203
a(I984
I0
F1.0
S'good'
p2204
tp2205
a(I999
I3
F1.0
S'best'
p2206
tp2207
as(S'version'
p2208
S'pebble'
p2209
S'blue'
p2210
tp2211
(lp2212
(I174
I1
F-0.5
g127
tp2213
a(I174
I1
I0
S'pebble'
p2214
tp2215
a(I372
I9
I0
g197
tp2216
a(I572
I0
F-0.5
g249
tp2217
a(I572
I0
I0
S'pebble'
p2218
tp2219
a(I670
I0
F-0.5
g269
tp2220
a(I670
I0
I0
S'pebble'
p2221
tp2222
a(I670
I0
F0.5
S'compatible'
p2223
tp2224
a(I675
I0
F-0.5
g271
tp2225
a(I675
I0
I0
S'pebble'
p2226
tp2227
a(I838
I0
F-0.5
g307
tp2228
a(I838
I0
I0
S'pebble'
p2229
tp2230
a(I948
I0
I0
S'pebble'
p2231
tp2232
a(I948
I0
I0
g323
tp2233
a(I949
I0
F-0.5
g325
tp2234
a(I949
I0
I0
S'pebble'
p2235
tp2236
as(S'warranty'
p2237
tp2238
(lp2239
(I58
I1
F0.875
S'important'
p2240
tp2241
a(I82
I0
F1.0
S'good'
p2242
tp2243
a(I111
I47
F-0.375
S'simple'
p2244
tp2245
a(I111
I47
F-0.5
S'international'
p2246
tp2247
a(I136
I0
F-0.5
S'international'
p2248
tp2249
a(I136
I0
F-0.5
S'international'
p2250
tp2251
a(I176
I2
F-0.5
S'international'
p2252
tp2253
a(I176
I2
I0
S'most'
p2254
tp2255
a(I389
I4
I0
S'most'
p2256
tp2257
a(I389
I4
I0
S'one-year'
p2258
tp2259
a(I501
I11
F0.25
S'original'
p2260
tp2261
a(I501
I11
F-0.375
S'void'
p2262
tp2263
a(I650
I6
I0
S'only'
p2264
tp2265
a(I705
I0
F-0.5
S'international'
p2266
tp2267
a(I738
I9
F0.125
S'able'
p2268
tp2269
a(I738
I13
I0
S'own'
p2270
tp2271
a(I738
I18
F0.875
S'nice'
p2272
tp2273
a(I781
I3
I0
S'mobile'
p2274
tp2275
a(I920
I1
F0.125
S'valid'
p2276
tp2277
a(I963
I0
F-0.5
S'international'
p2278
tp2279
as(S'time'
p2280
tp2281
(lp2282
(I33
I1
F0.125
S'first'
p2283
tp2284
a(I109
I0
F-0.5
g1289
tp2285
a(I111
I28
I0
g1291
tp2286
a(I111
I28
F-0.5
g1293
tp2287
a(I111
I38
F-0.5
g1295
tp2288
a(I125
I0
F-0.5
g1297
tp2289
a(I128
I2
F-0.25
S'ready'
p2290
tp2291
a(I151
I20
F1.0
S'better'
p2292
tp2293
a(I164
I3
F-0.5
g1299
tp2294
a(I172
I1
F0.125
S'first'
p2295
tp2296
a(I172
I1
I0
S'identical'
p2297
tp2298
a(I214
I8
F0.75
S'due'
p2299
tp2300
a(I215
I12
F0.125
S'first'
p2301
tp2302
a(I239
I3
I0
S'song'
p2303
tp2304
a(I248
I0
I0
g668
tp2305
a(I266
I0
F-0.5
g1301
tp2306
a(I267
I1
F0.125
S'last'
p2307
tp2308
a(I290
I4
F0.125
S'first'
p2309
tp2310
a(I290
I4
I0
S'android'
p2311
tp2312
a(I295
I4
F0.875
g670
tp2313
a(I299
I0
F0.875
S'nice'
p2314
tp2315
a(I335
I7
I0
S'more'
p2316
tp2317
a(I335
I8
F0.375
S'much'
p2318
tp2319
a(I357
I15
F0.125
S'first'
p2320
tp2321
a(I370
I17
F-0.75
S'short'
p2322
tp2323
a(I373
I9
F0.125
S'first'
p2324
tp2325
a(I413
I0
I0
S'brief'
p2326
tp2327
a(I427
I4
F-0.875
S'hard'
p2328
tp2329
a(I436
I1
I0
S'most'
p2330
tp2331
a(I466
I0
I0
S'same'
p2332
tp2333
a(I500
I0
F0.125
S'first'
p2334
tp2335
a(I501
I16
I0
S'angry'
p2336
tp2337
a(I502
I2
F1.0
S'enjoy'
p2338
tp2339
a(I533
I15
I0
S'more'
p2340
tp2341
a(I553
I6
I0
S'same'
p2342
tp2343
a(I585
I5
F0.125
S'first'
p2344
tp2345
a(I598
I0
F-0.5
g1303
tp2346
a(I602
I4
F-0.5
g1305
tp2347
a(I639
I1
F-0.5
g1307
tp2348
a(I650
I0
F0.5
S'second'
p2349
tp2350
a(I650
I1
F0.125
S'first'
p2351
tp2352
a(I655
I1
I0
S'same'
p2353
tp2354
a(I657
I0
F0.5
S'live'
p2355
tp2356
a(I658
I3
I0
S'arrive'
p2357
tp2358
a(I685
I1
F-0.5
g1309
tp2359
a(I698
I36
I0
S'next'
p2360
tp2361
a(I698
I36
F0.75
S'due'
p2362
tp2363
a(I701
I1
F-0.5
g1311
tp2364
a(I701
I1
F0.125
g1313
tp2365
a(I724
I1
F0.875
S'happy'
p2366
tp2367
a(I737
I1
I0
S'different'
p2368
tp2369
a(I754
I2
F-0.5
g1315
tp2370
a(I788
I0
F1.0
S'best'
p2371
tp2372
a(I833
I8
F-0.5
g1317
tp2373
a(I838
I0
I0
S'great'
p2374
tp2375
a(I864
I2
F-0.5
S'less'
p2376
tp2377
a(I865
I0
I0
S'e-mail'
p2378
tp2379
a(I883
I1
I0
S'more'
p2380
tp2381
a(I994
I1
I0
g1319
tp2382
a(I1002
I2
F0.125
S'first'
p2383
tp2384
a(I1002
I6
F0.125
S'first'
p2385
tp2386
a(I1007
I10
F0.5
S'whole'
p2387
tp2388
a(I1016
I0
I0
S'great'
p2389
tp2390
a(I1017
I0
F-0.5
S'less'
p2391
tp2392
as(S'find'
p2393
tp2394
(lp2395
(I581
I1
F-0.125
S'cant'
p2396
tp2397
as(S'months'
p2398
tp2399
(lp2400
(I55
I0
I0
S'own'
p2401
tp2402
a(I89
I5
I0
S'few'
p2403
tp2404
a(I164
I1
I0
S'few'
p2405
tp2406
a(I169
I3
I0
g1266
tp2407
a(I235
I1
I0
S'few'
p2408
tp2409
a(I306
I0
F0.125
S'last'
p2410
tp2411
a(I501
I16
I0
S'next'
p2412
tp2413
a(I501
I17
F-0.5
S'long'
p2414
tp2415
a(I550
I1
I0
S'later'
p2416
tp2417
a(I550
I1
I0
S'ocean'
p2418
tp2419
a(I568
I3
F-0.5
S'less'
p2420
tp2421
a(I673
I2
I0
S'later'
p2422
tp2423
a(I792
I0
I0
S'next'
p2424
tp2425
a(I876
I1
I0
S'few'
p2426
tp2427
a(I922
I2
I0
S'january'
p2428
tp2429
a(I940
I10
F-0.5
S'sure'
p2430
tp2431
as(S'samsung'
p2432
S'galaxy'
p2433
S'siii'
p2434
tp2435
(lp2436
(I178
I0
I0
g657
tp2437
a(I537
I2
F-0.5
g501
tp2438
as(S'working'
p2439
tp2440
(lp2441
(I111
I23
I0
S'internet'
p2442
tp2443
a(I623
I1
F1.0
S'good'
p2444
tp2445
a(I781
I0
F-0.625
S'other'
p2446
tp2447
a(I781
I0
F-0.375
S'stopped'
p2448
tp2449
a(I925
I0
F-0.75
S'dead'
p2450
tp2451
as(S'screen'
p2452
tp2453
(lp2454
(I9
I3
I0
S'incredible'
p2455
tp2456
a(I14
I5
I0
S'big'
p2457
tp2458
a(I15
I5
F1.0
S'best'
p2459
tp2460
a(I37
I1
I0
S'great'
p2461
tp2462
a(I37
I1
F-0.625
S'light'
p2463
tp2464
a(I37
I1
F0.625
S'easy'
p2465
tp2466
a(I41
I2
I0
S'real'
p2467
tp2468
a(I87
I3
I0
S'big'
p2469
tp2470
a(I87
I3
F-0.75
S'bright'
p2471
tp2472
a(I89
I5
I0
S'entire'
p2473
tp2474
a(I92
I0
F-0.25
S'white'
p2475
tp2476
a(I94
I0
I0
S'big'
p2477
tp2478
a(I106
I6
F0.875
S'nice'
p2479
tp2480
a(I111
I30
I0
S'large'
p2481
tp2482
a(I113
I1
F1.0
S'good'
p2483
tp2484
a(I118
I22
I0
S'same'
p2485
tp2486
a(I129
I2
I0
S'big'
p2487
tp2488
a(I137
I1
I0
S'android'
p2489
tp2490
a(I137
I1
I0
S'large'
p2491
tp2492
a(I137
I1
I0
S'efficient'
p2493
tp2494
a(I152
I2
F0.25
S'bigger'
p2495
tp2496
a(I156
I6
F0.25
S'bigger'
p2497
tp2498
a(I164
I5
F-0.75
S'impossible'
p2499
tp2500
a(I169
I1
F1.0
S'better'
p2501
tp2502
a(I169
I5
F-0.375
S'top'
p2503
tp2504
a(I173
I3
F0.25
S'bigger'
p2505
tp2506
a(I194
I2
I0
S'large'
p2507
tp2508
a(I202
I1
I0
S'large'
p2509
tp2510
a(I202
I1
I0
S'big'
p2511
tp2512
a(I233
I1
I0
S'big'
p2513
tp2514
a(I239
I10
F1.0
S'good'
p2515
tp2516
a(I246
I0
I0
S'large'
p2517
tp2518
a(I266
I0
F0.75
S'ideal'
p2519
tp2520
a(I280
I1
F0.25
S'bigger'
p2521
tp2522
a(I284
I8
I0
S'big'
p2523
tp2524
a(I322
I0
I0
S'large'
p2525
tp2526
a(I322
I0
F0.875
S'happy'
p2527
tp2528
a(I330
I2
I0
S'great'
p2529
tp2530
a(I335
I11
I0
S'big'
p2531
tp2532
a(I346
I2
F0.25
S'bigger'
p2533
tp2534
a(I348
I1
I0
S'large'
p2535
tp2536
a(I348
I53
F-0.5
S'sure'
p2537
tp2538
a(I348
I53
F-0.25
S'low'
p2539
tp2540
a(I350
I11
I0
S'big'
p2541
tp2542
a(I370
I8
F0.25
S'bigger'
p2543
tp2544
a(I370
I12
F0.5
S'clear'
p2545
tp2546
a(I387
I7
F-0.25
S'thin'
p2547
tp2548
a(I390
I14
F0.75
S'beautiful'
p2549
tp2550
a(I409
I3
F0.25
S'larger'
p2551
tp2552
a(I448
I1
F1.0
S'good'
p2553
tp2554
a(I448
I2
F-0.75
S'had'
p2555
tp2556
a(I448
I2
F0.875
S'nice'
p2557
tp2558
a(I454
I2
F0.75
S'beautiful'
p2559
tp2560
a(I454
I2
I0
S'large'
p2561
tp2562
a(I501
I9
F-0.5
S'cracked'
p2563
tp2564
a(I510
I0
F-0.75
S'bright'
p2565
tp2566
a(I525
I3
F0.75
S'beautiful'
p2567
tp2568
a(I528
I2
F0.25
S'larger'
p2569
tp2570
a(I551
I3
I0
S'great'
p2571
tp2572
a(I556
I1
F0.5
S'glossy'
p2573
tp2574
a(I556
I1
F-0.75
S'bright'
p2575
tp2576
a(I556
I1
F0.5
S'clear'
p2577
tp2578
a(I562
I3
F-0.375
S'small'
p2579
tp2580
a(I562
I4
F0.25
S'larger'
p2581
tp2582
a(I562
I4
F0.625
S'interested'
p2583
tp2584
a(I562
I5
I0
S'android'
p2585
tp2586
a(I562
I11
I0
S'large'
p2587
tp2588
a(I562
I11
F0.75
S'beautiful'
p2589
tp2590
a(I562
I11
F0.625
S'easy'
p2591
tp2592
a(I585
I8
I0
S'entire'
p2593
tp2594
a(I585
I11
F0.5
S'touch'
p2595
tp2596
a(I585
I13
F-0.25
S'past'
p2597
tp2598
a(I605
I0
I0
S'big'
p2599
tp2600
a(I605
I0
F0.75
S'beautiful'
p2601
tp2602
a(I647
I0
F0.875
S'nice'
p2603
tp2604
a(I652
I3
F-0.75
S'bright'
p2605
tp2606
a(I659
I2
I0
S'large'
p2607
tp2608
a(I659
I2
F-0.75
S'bright'
p2609
tp2610
a(I659
I2
F0.75
S'beautiful'
p2611
tp2612
a(I669
I5
F1.0
S'better'
p2613
tp2614
a(I698
I1
I0
S'incredible'
p2615
tp2616
a(I698
I10
F-0.375
S'top'
p2617
tp2618
a(I698
I17
F0.5
S'touch'
p2619
tp2620
a(I698
I19
F0.625
S'easy'
p2621
tp2622
a(I698
I22
F0.5
S'hi-tech'
p2623
tp2624
a(I701
I1
F0.25
S'bigger'
p2625
tp2626
a(I701
I1
I0
S'great'
p2627
tp2628
a(I704
I2
F0.25
S'original'
p2629
tp2630
a(I709
I0
I0
S'fast'
p2631
tp2632
a(I709
I0
F0.5
S'clear'
p2633
tp2634
a(I722
I0
I0
S'great'
p2635
tp2636
a(I726
I2
F-0.875
S'hard'
p2637
tp2638
a(I757
I1
I0
S'big'
p2639
tp2640
a(I778
I1
F0.25
S'bigger'
p2641
tp2642
a(I778
I3
I0
S'great'
p2643
tp2644
a(I808
I0
F0.75
S'beautiful'
p2645
tp2646
a(I810
I1
F1.0
S'good'
p2647
tp2648
a(I833
I1
I0
S'big'
p2649
tp2650
a(I833
I8
F0.5
S'touch'
p2651
tp2652
a(I841
I31
I0
S'large'
p2653
tp2654
a(I856
I7
F1.0
S'best'
p2655
tp2656
a(I879
I1
F0.75
S'beautiful'
p2657
tp2658
a(I879
I1
I0
S'big'
p2659
tp2660
a(I888
I2
F0.25
S'larger'
p2661
tp2662
a(I894
I1
F0.875
S'nice'
p2663
tp2664
a(I894
I1
F0.5
S'clear'
p2665
tp2666
a(I897
I6
I0
S'pic'
p2667
tp2668
a(I899
I1
F0.875
S'nice'
p2669
tp2670
a(I903
I2
F0.25
S'main'
p2671
tp2672
a(I948
I4
F-0.625
S'light'
p2673
tp2674
a(I948
I4
I0
S'large'
p2675
tp2676
a(I949
I2
F-0.5
S'poor'
p2677
tp2678
a(I974
I8
F0.875
S'nice'
p2679
tp2680
a(I993
I1
F0.625
S'find'
p2681
tp2682
a(I996
I2
F0.75
S'beautiful'
p2683
tp2684
a(I999
I5
I0
S'large'
p2685
tp2686
a(I1002
I6
F0.125
S'first'
p2687
tp2688
a(I1003
I2
I0
S'oled'
p2689
tp2690
a(I1007
I1
F0.25
S'bigger'
p2691
tp2692
a(I1012
I0
I0
S'great'
p2693
tp2694
a(I1013
I4
I0
S'big'
p2695
tp2696
a(I1013
I17
I0
S'big'
p2697
tp2698
a(I1013
I19
F-0.375
S'small'
p2699
tp2700
as(S'everything'
p2701
tp2702
(lp2703
(I50
I2
I0
S'great'
p2704
tp2705
a(I82
I0
I0
S'basic'
p2706
tp2707
a(I130
I6
I0
S'special'
p2708
tp2709
a(I160
I1
F0.625
S'perfect'
p2710
tp2711
a(I174
I9
F-0.5
S'sure'
p2712
tp2713
a(I373
I5
F-0.5
S'sure'
p2714
tp2715
a(I373
I8
F-0.125
S'bean'
p2716
tp2717
a(I610
I7
I0
S'cool'
p2718
tp2719
a(I698
I27
F0.375
S'new'
p2720
tp2721
a(I926
I0
F0.375
S'new'
p2722
tp2723
a(I926
I0
F-0.5
S'unlimited'
p2724
tp2725
a(I961
I0
F0.25
S'stellar'
p2726
tp2727
a(I1013
I3
F0.375
S'forcing'
p2728
tp2729
as(S'features'
p2730
tp2731
(lp2732
(I52
I0
F1.0
S'good'
p2733
tp2734
a(I143
I5
I0
S'cool'
p2735
tp2736
a(I169
I5
I0
S'many'
p2737
tp2738
a(I169
I5
I0
S'many'
p2739
tp2740
a(I172
I24
I0
S'central'
p2741
tp2742
a(I229
I4
F0.375
S'extra'
p2743
tp2744
a(I241
I8
F1.0
S'best'
p2745
tp2746
a(I308
I1
F0.125
S'first'
p2747
tp2748
a(I370
I18
I0
S'great'
p2749
tp2750
a(I431
I3
F0.375
S'interesting'
p2751
tp2752
a(I445
I0
F0.375
S'much'
p2753
tp2754
a(I454
I2
F0.25
S'familiar'
p2755
tp2756
a(I454
I2
I0
S'android'
p2757
tp2758
a(I454
I2
F0.125
S'usual'
p2759
tp2760
a(I519
I1
F0.5
S'expensive'
p2761
tp2762
a(I555
I1
I0
S'cool'
p2763
tp2764
a(I585
I5
I0
S'great'
p2765
tp2766
a(I594
I2
I0
S'many'
p2767
tp2768
a(I613
I1
I0
S'many'
p2769
tp2770
a(I613
I1
F1.0
S'good'
p2771
tp2772
a(I636
I5
F1.0
S'good'
p2773
tp2774
a(I651
I1
I0
S'useful'
p2775
tp2776
a(I716
I2
I0
S'full'
p2777
tp2778
a(I723
I1
I0
S'many'
p2779
tp2780
a(I737
I1
F-0.25
S'thin'
p2781
tp2782
a(I737
I1
F-0.625
S'light'
p2783
tp2784
a(I737
I1
I0
S'such'
p2785
tp2786
a(I737
I1
F0.375
S'much'
p2787
tp2788
a(I737
I2
F0.375
S'much'
p2789
tp2790
a(I737
I2
F0.375
S'much'
p2791
tp2792
a(I757
I2
I0
S'many'
p2793
tp2794
a(I808
I0
I0
S'great'
p2795
tp2796
a(I812
I0
I0
S'great'
p2797
tp2798
a(I841
I10
F0.25
S'favorite'
p2799
tp2800
a(I952
I1
I0
S'great'
p2801
tp2802
a(I974
I14
F0.125
S'typical'
p2803
tp2804
a(I974
I14
I0
S'such'
p2805
tp2806
as(S'samsung'
p2807
tp2808
(lp2809
(I35
I1
F0.5
S'technical'
p2810
tp2811
a(I38
I1
F0.125
S'first'
p2812
tp2813
a(I86
I3
F-0.5
S'international'
p2814
tp2815
a(I89
I10
F0.5
g472
tp2816
a(I172
I17
F0.375
S'new'
p2817
tp2818
a(I179
I6
F0.25
g479
tp2819
a(I182
I0
F1.0
S'best'
p2820
tp2821
a(I263
I0
I0
g481
tp2822
a(I288
I7
F0.5
S'technical'
p2823
tp2824
a(I301
I3
F-0.625
S'other'
p2825
tp2826
a(I340
I0
F0.875
S'happy'
p2827
tp2828
a(I352
I13
I0
g489
tp2829
a(I356
I6
I0
S'own'
p2830
tp2831
a(I362
I4
I0
S'external'
p2832
tp2833
a(I362
I7
F-0.75
S'unable'
p2834
tp2835
a(I362
I7
F0.375
S'new'
p2836
tp2837
a(I362
I7
F-0.636
S'genuine'
p2838
tp2839
a(I372
I22
I0
S'old'
p2840
tp2841
a(I404
I0
I0
g493
tp2842
a(I409
I0
F0.375
g495
tp2843
a(I409
I7
F0.375
S'new'
p2844
tp2845
a(I409
I7
I0
S'only'
p2846
tp2847
a(I454
I3
F0.875
S'nice'
p2848
tp2849
a(I490
I0
F0.375
g497
tp2850
a(I494
I2
I0
S'great'
p2851
tp2852
a(I514
I3
F0.125
S'first'
p2853
tp2854
a(I525
I0
F0.375
g499
tp2855
a(I537
I2
F-0.5
g501
tp2856
a(I546
I6
F0.375
g503
tp2857
a(I573
I0
F0.25
g505
tp2858
a(I594
I5
I0
S'old'
p2859
tp2860
a(I669
I4
F0.375
g509
tp2861
a(I701
I0
I0
S'most'
p2862
tp2863
a(I805
I0
F0.25
S'original'
p2864
tp2865
a(I805
I0
F0.25
S'original'
p2866
tp2867
a(I846
I0
F-0.625
g512
tp2868
a(I884
I1
F0.375
g516
tp2869
a(I936
I2
F1.0
S'good'
p2870
tp2871
a(I946
I0
F0.375
S'much'
p2872
tp2873
a(I974
I4
F0.5
S'second'
p2874
tp2875
a(I974
I7
F0.125
S'first'
p2876
tp2877
as(S'camera'
p2878
tp2879
(lp2880
(I63
I1
I0
S'next'
p2881
tp2882
a(I63
I1
F1.0
S'best'
p2883
tp2884
a(I106
I4
F-0.5
S'separate'
p2885
tp2886
a(I117
I0
F1.0
S'best'
p2887
tp2888
a(I268
I0
F0.875
S'nice'
p2889
tp2890
a(I330
I2
I0
S'great'
p2891
tp2892
a(I333
I3
F1.0
S'good'
p2893
tp2894
a(I370
I1
I0
S'phenomenal'
p2895
tp2896
a(I417
I7
F-0.5
S'open'
p2897
tp2898
a(I458
I13
F-0.625
S'other'
p2899
tp2900
a(I467
I1
I0
S'real'
p2901
tp2902
a(I480
I1
F1.0
S'good'
p2903
tp2904
a(I498
I1
I0
S'fast'
p2905
tp2906
a(I498
I1
F0.625
S'easy'
p2907
tp2908
a(I512
I3
F1.0
S'good'
p2909
tp2910
a(I528
I4
F1.0
S'good'
p2911
tp2912
a(I553
I29
F-0.5
S'sure'
p2913
tp2914
a(I562
I11
F0.625
S'decent'
p2915
tp2916
a(I566
I0
I0
S'great'
p2917
tp2918
a(I586
I0
F0.625
S'led'
p2919
tp2920
a(I636
I3
I0
S'rear'
p2921
tp2922
a(I636
I3
F1.0
S'good'
p2923
tp2924
a(I636
I3
F0.625
S'easy'
p2925
tp2926
a(I731
I2
F0.625
S'easy'
p2927
tp2928
a(I731
I2
F1.0
S'best'
p2929
tp2930
a(I731
I2
I0
S'cellular'
p2931
tp2932
a(I778
I1
I0
S'great'
p2933
tp2934
a(I808
I0
I0
S'great'
p2935
tp2936
a(I808
I0
I0
S'incredible'
p2937
tp2938
a(I838
I1
F0.25
S'main'
p2939
tp2940
a(I838
I5
I0
S'rear'
p2941
tp2942
a(I838
I5
I0
S'great'
p2943
tp2944
a(I852
I4
I0
S'great'
p2945
tp2946
a(I935
I2
F1.0
S'good'
p2947
tp2948
a(I949
I2
F-0.5
S'poor'
p2949
tp2950
a(I956
I2
F0.875
S'nice'
p2951
tp2952
a(I974
I18
F1.0
S'good'
p2953
tp2954
as(S'using'
p2955
tp2956
(lp2957
(I362
I6
F0.125
S'able'
p2958
tp2959
as(S'take'
p2960
tp2961
(lp2962
(I203
I0
F0.125
S'charger'
p2963
tp2964
as(S'mobile'
p2965
tp2966
(lp2967
(I51
I0
I0
S'old'
p2968
tp2969
a(I120
I2
F1.0
S'good'
p2970
tp2971
a(I436
I2
F0.625
S'advisable'
p2972
tp2973
a(I436
I2
I0
S'local'
p2974
tp2975
a(I461
I0
I0
S'old'
p2976
tp2977
a(I711
I0
I0
S'large'
p2978
tp2979
as(S'galaxy'
p2980
tp2981
(lp2982
(I44
I1
F0.875
g425
tp2983
a(I68
I1
F-0.5
S'international'
p2984
tp2985
a(I89
I10
I0
g474
tp2986
a(I111
I48
F1.0
S'love'
p2987
tp2988
a(I172
I8
I0
g476
tp2989
a(I174
I1
F0.25
g427
tp2990
a(I181
I6
F0.375
S'much'
p2991
tp2992
a(I290
I4
F-0.625
g483
tp2993
a(I350
I1
I0
g435
tp2994
a(I352
I13
I0
g487
tp2995
a(I380
I0
F1.0
g491
tp2996
a(I439
I0
F0.125
g443
tp2997
a(I591
I4
I0
g445
tp2998
a(I611
I1
I0
g447
tp2999
a(I629
I0
I0
g451
tp3000
a(I636
I0
F-0.125
g1371
tp3001
a(I701
I2
F0.625
S'positive'
p3002
tp3003
a(I704
I2
I0
S'old'
p3004
tp3005
a(I761
I2
F-0.5
S'miss'
p3006
tp3007
a(I764
I3
I0
S'great'
p3008
tp3009
a(I832
I4
F0.5
g457
tp3010
a(I846
I0
F0.25
g514
tp3011
a(I847
I1
F1.0
S'best'
p3012
tp3013
as(S'works'
p3014
tp3015
(lp3016
(I218
I1
F1.0
S'love'
p3017
tp3018
a(I311
I2
I0
g2133
tp3019
a(I348
I21
F1.0
g2135
tp3020
a(I422
I0
I0
S'more'
p3021
tp3022
a(I443
I6
F0.5
S'compatible'
p3023
tp3024
a(I529
I0
F1.0
S'good'
p3025
tp3026
a(I756
I0
F0.875
g2137
tp3027
a(I867
I0
I0
g2139
tp3028
a(I891
I3
I0
g2141
tp3029
a(I961
I0
F1.0
g2143
tp3030
as(S'better'
p3031
tp3032
(lp3033
(I118
I33
I0
S'more'
p3034
tp3035
a(I118
I33
F0.375
S'much'
p3036
tp3037
a(I348
I38
F0.375
S'much'
p3038
tp3039
a(I348
I49
I0
S'most'
p3040
tp3041
a(I810
I3
F0.375
S'much'
p3042
tp3043
a(I823
I0
F-0.25
S'cheaper'
p3044
tp3045
a(I841
I22
F0.375
S'much'
p3046
tp3047
a(I977
I2
F0.375
S'much'
p3048
tp3049
a(I1007
I1
F0.375
S'much'
p3050
tp3051
as(S'device'
p3052
tp3053
(lp3054
(I35
I2
F-0.625
S'free'
p3055
tp3056
a(I41
I0
I0
S'android'
p3057
tp3058
a(I41
I0
F0.125
S'first'
p3059
tp3060
a(I89
I9
F-0.5
S'international'
p3061
tp3062
a(I144
I1
I0
S'great'
p3063
tp3064
a(I151
I4
F0.375
S'new'
p3065
tp3066
a(I158
I0
I0
S'great'
p3067
tp3068
a(I183
I2
F-0.625
S'bad'
p3069
tp3070
a(I259
I0
F0.25
S'powerful'
p3071
tp3072
a(I284
I3
I0
S'great'
p3073
tp3074
a(I396
I4
F-0.625
S'light'
p3075
tp3076
a(I475
I0
F0.375
S'similar'
p3077
tp3078
a(I541
I1
I0
S'closer'
p3079
tp3080
a(I541
I1
F-0.375
S'top'
p3081
tp3082
a(I541
I1
I0
S'horizontal'
p3083
tp3084
a(I541
I1
F0.625
S'easy'
p3085
tp3086
a(I541
I1
F0.5
S'touch'
p3087
tp3088
a(I547
I2
I0
S'great'
p3089
tp3090
a(I551
I5
F-0.125
S'overall'
p3091
tp3092
a(I551
I5
I0
S'phenomenal'
p3093
tp3094
a(I594
I2
I0
S'electronic'
p3095
tp3096
a(I594
I2
F-0.75
S'wrong'
p3097
tp3098
a(I725
I0
F-0.5
S'power'
p3099
tp3100
a(I733
I5
F-0.75
S'difficult'
p3101
tp3102
a(I783
I0
I0
S'great'
p3103
tp3104
a(I812
I0
F0.875
S'nice'
p3105
tp3106
a(I831
I9
F-0.375
S'small'
p3107
tp3108
a(I833
I10
F0.625
S'decent'
p3109
tp3110
a(I871
I0
I0
S'great'
p3111
tp3112
a(I872
I0
F0.375
S'new'
p3113
tp3114
a(I924
I3
F0.875
S'nice'
p3115
tp3116
a(I946
I0
F-0.25
S'thin'
p3117
tp3118
a(I956
I0
F0.875
S'nice'
p3119
tp3120
a(I1009
I0
I0
S'electronic'
p3121
tp3122
as(S'costa'
p3123
S'rica'
p3124
tp3125
(lp3126
(I62
I2
F0.625
S'perfect'
p3127
tp3128
as(S'awesome'
p3129
tp3130
(lp3131
(I16
I0
I0
S'great'
p3132
tp3133
a(I26
I0
F-0.25
S'thin'
p3134
tp3135
a(I427
I3
F-0.125
S'overall'
p3136
tp3137
a(I698
I1
I0
S'many'
p3138
tp3139
a(I804
I0
F-0.375
S'smooth'
p3140
tp3141
as(S'daily'
p3142
S'basis'
p3143
tp3144
(lp3145
(I166
I2
F-0.375
S'daily'
p3146
tp3147
a(I531
I2
F-0.375
S'daily'
p3148
tp3149
a(I942
I2
F-0.375
S'daily'
p3150
tp3151
as(S'galaxy'
p3152
S's3'
p3153
tp3154
(lp3155
(I34
I3
F0.375
g421
tp3156
a(I34
I3
I0
g423
tp3157
a(I44
I1
F0.875
g425
tp3158
a(I174
I1
F0.25
g427
tp3159
a(I183
I9
I0
g429
tp3160
a(I208
I21
F1.0
g431
tp3161
a(I261
I11
F0.5
g433
tp3162
a(I350
I1
I0
g435
tp3163
a(I386
I4
F0.5
g437
tp3164
a(I409
I0
F-0.25
g439
tp3165
a(I416
I0
I0
g441
tp3166
a(I439
I0
F0.125
g443
tp3167
a(I591
I4
I0
g445
tp3168
a(I611
I1
I0
g447
tp3169
a(I611
I1
F-0.625
g449
tp3170
a(I629
I0
I0
g451
tp3171
a(I650
I0
I0
g453
tp3172
a(I701
I1
F0.375
g455
tp3173
a(I832
I4
F0.5
g457
tp3174
a(I854
I0
F-0.5
g459
tp3175
a(I972
I1
F-0.5
g461
tp3176
a(I986
I0
I0
g463
tp3177
a(I986
I0
F-0.625
g465
tp3178
as(S'm'
p3179
S'aacute'
p3180
g469
tp3181
(lp3182
(I710
I1
F0.25
S'professional'
p3183
tp3184
as(S'apps'
p3185
tp3186
(lp3187
(I9
I4
I0
S'cool'
p3188
tp3189
a(I13
I2
F-0.125
S'slow'
p3190
tp3191
a(I63
I9
I0
S'most'
p3192
tp3193
a(I63
I9
F-0.5
S'open'
p3194
tp3195
a(I109
I2
F0.375
S'available'
p3196
tp3197
a(I150
I2
F-0.625
S'free'
p3198
tp3199
a(I152
I1
F-0.625
S'other'
p3200
tp3201
a(I152
I1
F-0.375
S'daily'
p3202
tp3203
a(I156
I4
I0
S'most'
p3204
tp3205
a(I158
I1
F0.375
S'available'
p3206
tp3207
a(I178
I4
F-0.625
S'other'
p3208
tp3209
a(I178
I4
F0.375
S'available'
p3210
tp3211
a(I208
I11
F0.5
S'comparable'
p3212
tp3213
a(I208
I14
I0
S'more'
p3214
tp3215
a(I208
I15
I0
S'many'
p3216
tp3217
a(I208
I15
I0
S'more'
p3218
tp3219
a(I208
I15
F0.75
S'beautiful'
p3220
tp3221
a(I208
I15
F0.875
S'music'
p3222
tp3223
a(I208
I17
I0
S'most'
p3224
tp3225
a(I215
I2
I0
S'basic'
p3226
tp3227
a(I241
I17
I0
S'most'
p3228
tp3229
a(I277
I1
F-0.625
S'free'
p3230
tp3231
a(I277
I1
F0.375
S'much'
p3232
tp3233
a(I308
I3
I0
S'great'
p3234
tp3235
a(I344
I2
F-0.5
S'unwanted'
p3236
tp3237
a(I348
I1
F-0.625
S'free'
p3238
tp3239
a(I348
I1
I0
S'many'
p3240
tp3241
a(I348
I1
F-0.625
S'free'
p3242
tp3243
a(I348
I1
I0
S'android'
p3244
tp3245
a(I348
I20
F-0.625
S'free'
p3246
tp3247
a(I348
I20
F-0.25
S'cheaper'
p3248
tp3249
a(I348
I21
F0.75
S'give'
p3250
tp3251
a(I348
I29
F-0.625
S'other'
p3252
tp3253
a(I350
I6
I0
S'rubbish'
p3254
tp3255
a(I356
I6
I0
S'such'
p3256
tp3257
a(I387
I5
F0.125
S'able'
p3258
tp3259
a(I466
I0
I0
S'few'
p3260
tp3261
a(I565
I0
I0
S'android'
p3262
tp3263
a(I595
I11
I0
S'many'
p3264
tp3265
a(I652
I0
I0
S'large'
p3266
tp3267
a(I701
I2
I0
S'android'
p3268
tp3269
a(I712
I1
F0.625
S'easy'
p3270
tp3271
a(I802
I1
I0
S'many'
p3272
tp3273
a(I832
I3
F-0.75
S'unable'
p3274
tp3275
a(I832
I5
I0
S'movable'
p3276
tp3277
a(I832
I7
F-0.75
S'unable'
p3278
tp3279
a(I860
I2
I0
S'useful'
p3280
tp3281
a(I993
I9
I0
S'many'
p3282
tp3283
a(I993
I9
F-0.625
S'free'
p3284
tp3285
as(S'galaxy'
p3286
S's3'
p3287
S'gt'
p3288
tp3289
(lp3290
(I174
I1
F0.25
g427
tp3291
a(I350
I1
I0
g435
tp3292
a(I591
I4
I0
g445
tp3293
a(I986
I0
I0
g463
tp3294
a(I986
I0
F-0.625
g465
tp3295
as(S'days'
p3296
tp3297
(lp3298
(I157
I0
I0
S'few'
p3299
tp3300
a(I175
I0
I0
S'later'
p3301
tp3302
a(I335
I7
I0
g1510
tp3303
a(I370
I13
I0
S'full'
p3304
tp3305
a(I501
I1
I0
S'later'
p3306
tp3307
a(I568
I1
I0
S'few'
p3308
tp3309
a(I648
I0
I0
S'anymore'
p3310
tp3311
a(I650
I1
F0.125
S'first'
p3312
tp3313
a(I655
I2
I0
S'few'
p3314
tp3315
a(I832
I5
I0
S'few'
p3316
tp3317
a(I925
I0
F0.375
g1512
tp3318
a(I931
I0
F-0.625
g1514
tp3319
a(I940
I8
I0
S'forth'
p3320
tp3321
a(I970
I1
I0
S'few'
p3322
tp3323
a(I1013
I23
I0
S'later'
p3324
tp3325
as.