(dp0
(S'upgrade'
p1
S'date'
p2
tp3
(lp4
(I7
I51
I0
S'two-year'
p5
I0
tp6
a(I1
I12
F0.5
S'eligible'
p7
I3
tp8
a(I7
I0
F0.5
S'eligible'
p9
I3
tp10
a(I7
I51
I0
g5
I3
tp11
a(I11
I29
F0.375
S'early'
p12
I3
tp13
a(I13
I32
I0
S'full'
p14
I3
tp15
as(S'battery'
p16
S'life'
p17
tp18
(lp19
(I0
I22
F-0.75
S'short'
p20
I1
tp21
a(I0
I33
F-0.5
S'poor'
p22
I1
tp23
a(I0
I54
F-0.75
S'short'
p24
I1
tp25
a(I1
I29
F-0.75
S'short'
p26
I1
tp27
a(I4
I20
F1.0
S'best'
p28
I1
tp29
a(I5
I40
F1.0
S'better'
p30
I1
tp31
a(I7
I32
F-0.5
S'poor'
p32
I1
tp33
a(I9
I3
F-0.625
S'bad'
p34
I1
tp35
a(I9
I3
F0.25
S'bigger'
p36
I1
tp37
a(I0
I1
F-0.625
S'other'
p38
I19
tp39
a(I0
I22
F-0.75
g20
I19
tp40
a(I0
I33
F-0.5
g22
I19
tp41
a(I0
I54
F-0.75
g24
I19
tp42
a(I5
I40
F1.0
g30
I19
tp43
a(I7
I32
F-0.5
g32
I19
tp44
a(I9
I3
F-0.625
g34
I19
tp45
a(I0
I68
F0.125
S'charger'
p46
I15
tp47
a(I0
I110
F-0.75
S'dead'
p48
I15
tp49
a(I1
I28
F1.0
S'better'
p50
I15
tp51
a(I1
I29
F-0.75
g26
I15
tp52
a(I4
I18
F0.5
S'second'
p53
I15
tp54
a(I4
I20
F1.0
g28
I15
tp55
a(I7
I5
F0.375
S'new'
p56
I15
tp57
a(I7
I18
I0
S'hot'
p58
I15
tp59
a(I9
I3
F0.25
g36
I15
tp60
a(I9
I13
I0
S'hot'
p61
I15
tp62
a(I13
I72
I0
S'least'
p63
I15
tp64
as(S'charging'
p65
tp66
(lp67
(I13
I86
F0.125
S'first'
p68
I12
tp69
as(S'physical'
p70
S'keyboard'
p71
tp72
(lp73
(I5
I13
I0
S'physical'
p74
I0
tp75
a(I5
I15
I0
S'physical'
p76
I0
tp77
a(I11
I40
I0
S'physical'
p78
I0
tp79
a(I11
I47
I0
S'physical'
p80
I0
tp81
a(I11
I48
I0
S'physical'
p82
I0
tp83
as(S'samsung'
p84
tp85
(lp86
(I1
I4
F-0.625
S'other'
p87
I7
tp88
a(I7
I38
F0.5
S'obvious'
p89
I7
tp90
a(I7
I55
F0.75
S'cautious'
p91
I7
tp92
as(S'works'
p93
S'fine'
p94
tp95
(lp96
(I5
I3
F0.25
S'original'
p97
I9
tp98
as(S'broke'
p99
tp100
(lp101
(I0
I109
I0
S'same'
p102
I10
tp103
a(I13
I50
F0.5
S'bought'
p104
I10
tp105
as(S'iphone'
p106
tp107
(lp108
(I3
I8
F0.375
S'similar'
p109
I1
tp110
a(I7
I16
F0.25
S'used'
p111
I1
tp112
a(I11
I41
F0.375
S'new'
p113
I1
tp114
a(I11
I45
F0.375
S'new'
p115
I1
tp116
a(I11
I46
F1.0
S'better'
p117
I1
tp118
as(S'verizon'
p119
tp120
(lp121
(I0
I64
F-0.375
S'manual'
p122
I0
tp123
a(I0
I64
F0.375
S'available'
p124
I0
tp125
a(I7
I38
I0
S'local'
p126
I0
tp127
a(I7
I85
F0.375
S'new'
p128
I0
tp129
as(S'stratosphere'
p130
tp131
(lp132
(I0
I28
I0
S'old'
p133
I0
tp134
a(I0
I28
F0.375
S'new'
p135
I0
tp136
a(I0
I118
F0.25
S'original'
p137
I0
tp138
a(I4
I13
F0.5
S'second'
p139
I0
tp140
a(I11
I46
F-0.125
S'overall'
p141
I0
tp142
as(S'contract'
p143
tp144
(lp145
(I0
I24
F0.375
S'new'
p146
I0
tp147
a(I1
I1
F0.375
S'new'
p148
I0
tp149
a(I7
I39
I0
S'two-year'
p150
I0
tp151
a(I7
I45
I0
S'next'
p152
I0
tp153
as(S'seller'
p154
tp155
(lp156
(I11
I2
F1.0
S'best'
p157
I19
tp158
as(S'slide'
p159
S'out'
p160
S'keyboard'
p161
tp162
(lp163
(I5
I13
I0
g74
I0
tp164
a(I14
I12
F-0.5
S'sudden'
p165
I0
tp166
a(I0
I32
F-0.125
S'cant'
p167
I2
tp168
a(I4
I24
I0
S'great'
p169
I2
tp170
a(I4
I37
F1.0
S'best'
p171
I2
tp172
a(I4
I49
F-0.5
S'actual'
p173
I2
tp174
a(I5
I7
F-0.5
S'actual'
p175
I2
tp176
a(I5
I13
I0
g74
I2
tp177
a(I5
I15
I0
g76
I2
tp178
a(I11
I40
I0
g78
I2
tp179
a(I11
I47
I0
g80
I2
tp180
a(I11
I48
I0
g82
I2
tp181
a(I14
I12
F-0.5
g165
I2
tp182
as(S'replacement'
p183
tp184
(lp185
(I0
I11
F0.875
S'happy'
p186
I13
tp187
a(I0
I119
F-0.25
S'cheapest'
p188
I13
tp189
a(I7
I43
F-0.625
S'free'
p190
I13
tp191
a(I13
I47
I0
S'same'
p192
I13
tp193
as(S'warranty'
p194
S'period'
p195
tp196
(lp197
(I7
I40
I0
S'one-year'
p198
I0
tp199
a(I7
I58
I0
S'one-year'
p200
I0
tp201
a(I7
I39
I0
S'one-year'
p202
I2
tp203
a(I7
I40
I0
g198
I2
tp204
a(I7
I58
I0
g200
I2
tp205
as(S'one-year'
p206
S'warranty'
p207
tp208
(lp209
(I7
I39
I0
g202
I0
tp210
a(I7
I40
I0
g198
I0
tp211
a(I7
I58
I0
g200
I0
tp212
as(S'wireless'
p213
tp214
(lp215
(I11
I19
F0.125
S'first'
p216
I0
tp217
a(I11
I19
F0.375
S'new'
p218
I0
tp219
as(S'apps'
p220
tp221
(lp222
(I3
I8
I0
S'quick'
p223
I0
tp224
a(I4
I47
F-0.125
S'mine'
p225
I0
tp226
a(I4
I47
F0.375
S'much'
p227
I0
tp228
a(I4
I47
F-0.5
S'less'
p229
I0
tp230
a(I5
I22
I0
S'more'
p231
I0
tp232
a(I5
I22
F-0.5
S'open'
p233
I0
tp234
a(I5
I26
F-0.375
S'crash'
p235
I0
tp236
a(I5
I38
F-0.625
S'other'
p237
I0
tp238
a(I7
I17
I0
S'own'
p239
I0
tp240
a(I9
I2
I0
S'few'
p241
I0
tp242
a(I9
I2
F-0.125
S'slow'
p243
I0
tp244
a(I11
I6
I0
S'few'
p245
I0
tp246
as.