(dp0
(S'seller'
p1
tp2
(lp3
(I18
I8
I0
S'great'
p4
I19
tp5
a(I18
I13
F0.625
S'easy'
p6
I19
tp7
a(I18
I15
I0
S'quick'
p8
I19
tp9
a(I33
I0
F1.0
S'good'
p10
I19
tp11
as(S'iphone'
p12
tp13
(lp14
(I1
I15
F1.0
S'best'
p15
I1
tp16
a(I4
I2
F0.875
S'happy'
p17
I1
tp18
a(I5
I0
F0.125
S'first'
p19
I1
tp20
a(I10
I0
I0
S'great'
p21
I1
tp22
a(I14
I0
F1.0
S'good'
p23
I1
tp24
a(I14
I6
F0.5
S'bought'
p25
I1
tp26
a(I15
I0
F-0.625
S'other'
p27
I1
tp28
a(I15
I1
I0
S'faster'
p29
I1
tp30
a(I17
I0
F-0.25
S'white'
p31
I1
tp32
a(I18
I18
I-100
S'china-bought'
p33
I1
tp34
a(I18
I21
I0
S'great'
p35
I1
tp36
a(I27
I0
F0.125
S'first'
p37
I1
tp38
a(I28
I8
F0.25
S'original'
p39
I1
tp40
a(I28
I8
F-0.625
S'bad'
p41
I1
tp42
a(I28
I17
F-0.5
S'sure'
p43
I1
tp44
a(I30
I0
F0.375
S'new'
p45
I1
tp46
a(I32
I4
I0
S'total'
p47
I1
tp48
a(I32
I4
F0.375
S'new'
p49
I1
tp50
as(S'straight'
p51
S'talk'
p52
tp53
(lp54
(I20
I6
F0.625
S'straight'
p55
I0
tp56
a(I23
I8
I0
S'great'
p57
I0
tp58
a(I23
I8
F0.625
S'straight'
p59
I0
tp60
as(S'great'
p61
S'condition'
p62
tp63
(lp64
(I6
I25
I0
S'great'
p65
I7
tp66
a(I6
I25
F0.625
S'easy'
p67
I7
tp68
a(I12
I9
I0
S'great'
p69
I7
tp70
a(I17
I16
I0
S'great'
p71
I7
tp72
a(I17
I16
I0
S'great'
p73
I7
tp74
as(S'apple'
p75
tp76
(lp77
(I0
I0
F1.0
S'best'
p78
I4
tp79
a(I14
I4
F0.75
S'due'
p80
I4
tp81
a(I26
I6
F0.375
S'new'
p82
I4
tp83
as(S'sim'
p84
S'card'
p85
tp86
(lp87
(I20
I6
I0
S'monthly'
p88
I0
tp89
as.