(dp0
(S'seller'
p1
tp2
(lp3
(I24
I4
F0.625
S'kind'
p4
I19
tp5
as(S'iphone'
p6
tp7
(lp8
(I2
I2
I0
S'great'
p9
I1
tp10
a(I4
I3
F0.125
S'first'
p11
I1
tp12
a(I7
I0
F1.0
S'good'
p13
I1
tp14
a(I7
I0
F0.375
S'similar'
p15
I1
tp16
a(I10
I1
F0.375
S'new'
p17
I1
tp18
a(I13
I0
I0
S'great'
p19
I1
tp20
a(I13
I14
F-0.625
S'other'
p21
I1
tp22
a(I13
I14
F0.125
S'able'
p23
I1
tp24
a(I14
I1
F0.125
S'first'
p25
I1
tp26
a(I18
I22
I-100
S'free-floating'
p27
I1
tp28
a(I19
I70
I0
S'jailbreak'
p29
I1
tp30
a(I19
I75
F0.125
S'able'
p31
I1
tp32
a(I19
I75
I-100
S'task/cache'
p33
I1
tp34
a(I19
I75
F0.5
S'clear'
p35
I1
tp36
a(I19
I76
F0.375
S'new'
p37
I1
tp38
a(I19
I83
F1.0
S'good'
p39
I1
tp40
a(I19
I85
F0.375
S'new'
p41
I1
tp42
a(I19
I89
F0.25
S'used'
p43
I1
tp44
a(I20
I23
F1.0
S'good'
p45
I1
tp46
a(I20
I23
F0.75
S'worth'
p47
I1
tp48
a(I25
I1
F0.25
S'original'
p49
I1
tp50
a(I25
I21
I0
S'great'
p51
I1
tp52
a(I25
I21
F1.0
S'best'
p53
I1
tp54
as(S'droid'
p55
tp56
(lp57
(I19
I48
I0
S'least'
p58
I0
tp59
as(S'apple'
p60
tp61
(lp62
(I12
I0
F0.125
S'first'
p63
I4
tp64
a(I16
I0
F0.125
S'first'
p65
I4
tp66
a(I16
I1
I0
S'least'
p67
I4
tp68
as(S'verizon'
p69
tp70
(lp71
(I3
I23
F-0.625
S'free'
p72
I0
tp73
a(I9
I3
F0.375
S'new'
p74
I0
tp75
a(I10
I2
I0
S'local'
p76
I0
tp77
a(I25
I27
I0
S'normal'
p78
I0
tp79
as(S'amazon'
p80
tp81
(lp82
(I2
I7
F0.5
S'expensive'
p83
I13
tp84
a(I13
I14
F0.375
S'new'
p85
I13
tp86
a(I20
I20
F-0.125
S'private'
p87
I13
tp88
as.