(dp0
(S'battery'
p1
tp2
(lp3
(I11
I31
F0.5
S'second'
p4
I15
tp5
a(I17
I0
F0.125
S'last'
p6
I15
tp7
a(I17
I0
F-0.5
S'long'
p8
I15
tp9
a(I17
I55
F-0.75
S'short'
p10
I15
tp11
as(S'ring'
p12
S'tones'
p13
tp14
(lp15
(I0
I59
I0
S'few'
p16
I0
tp17
a(I0
I59
F0.125
S'ring'
p18
I0
tp19
a(I17
I34
F1.0
S'good'
p20
I0
tp21
as(S'smart'
p22
tp23
(lp24
(I0
I19
F1.0
S'better'
p25
I10
tp26
a(I15
I14
F0.625
S'easier'
p27
I10
tp28
as(S'nokia'
p29
tp30
(lp31
(I0
I19
F-0.625
S'bad'
p32
I0
tp33
a(I0
I43
F0.25
S'used'
p34
I0
tp35
a(I0
I43
F-0.625
S'free'
p36
I0
tp37
a(I3
I3
F0.5
S'second'
p38
I0
tp39
a(I15
I6
F0.125
S'first'
p40
I0
tp41
a(I15
I9
F0.125
S'first'
p42
I0
tp43
a(I15
I10
F-0.75
S'comfortable'
p44
I0
tp45
a(I15
I23
I0
S'old'
p46
I0
tp47
a(I15
I24
F0.75
S'fortunate'
p48
I0
tp49
a(I15
I24
F0.375
S'new'
p50
I0
tp51
a(I15
I31
F0.5
S'second'
p52
I0
tp53
a(I15
I31
F0.125
S'first'
p54
I0
tp55
a(I17
I3
I0
S'old'
p56
I0
tp57
a(I17
I24
I0
S'old'
p58
I0
tp59
a(I17
I27
I0
S'third'
p60
I0
tp61
as(S'calls'
p62
tp63
(lp64
(I8
I12
I0
S'dial'
p65
I0
tp66
a(I18
I16
F-0.5
S'unavailable'
p67
I0
tp68
as(S'sim'
p69
S'card'
p70
tp71
(lp72
(I0
I31
F0.375
S'new'
p73
I0
tp74
a(I9
I10
F0.375
S'new'
p75
I0
tp76
a(I14
I6
F0.125
S'able'
p77
I0
tp78
a(I14
I8
F0.125
S'first'
p79
I0
tp80
as(S'flip'
p81
tp82
(lp83
(I0
I42
F1.0
S'best'
p84
I4
tp85
a(I15
I21
F-0.375
S'simple'
p86
I4
tp87
a(I17
I2
F0.125
S'first'
p88
I4
tp89
as.