(dp0
(S'happy'
p1
S'with'
p2
S'purchase'
p3
tp4
(lp5
(I18
I1
F0.875
S'happy'
p6
tp7
a(I91
I1
F0.875
S'happy'
p8
tp9
a(I158
I1
F0.875
S'happy'
p10
tp11
a(I163
I2
F0.875
S'happy'
p12
tp13
as(S'perfect'
p14
tp15
(lp16
(I79
I1
I0
S'such'
p17
tp18
as(S'battery'
p19
S'life'
p20
tp21
(lp22
(I10
I1
F-0.75
S'short'
p23
tp24
a(I26
I4
F-0.375
S'top'
p25
tp26
a(I64
I16
F1.0
S'good'
p27
tp28
a(I64
I16
F1.0
S'better'
p29
tp30
a(I64
I17
F0.375
S'similar'
p31
tp32
a(I123
I3
F-0.75
S'short'
p33
tp34
as(S'purchase'
p35
tp36
(lp37
(I18
I1
F0.875
g6
tp38
a(I28
I0
F1.0
S'good'
p39
tp40
a(I31
I0
F-0.625
S'other'
p41
tp42
a(I91
I1
F0.875
g8
tp43
a(I158
I1
F0.875
g10
tp44
a(I163
I0
F1.0
S'good'
p45
tp46
a(I163
I2
F0.875
g12
tp47
a(I188
I2
I0
S'great'
p48
tp49
as(S'problem'
p50
tp51
(lp52
(I67
I3
I0
S'big'
p53
tp54
a(I128
I1
I0
S'only'
p55
tp56
a(I181
I2
F0.125
S'able'
p57
tp58
as(S'stolen'
p59
tp60
(lp61
(I51
I0
F0.375
S'allow'
p62
tp63
a(I166
I11
F0.75
S'worth'
p64
tp65
as(S'text'
p66
tp67
(lp68
(I0
I7
F0.125
S'able'
p69
tp70
a(I64
I30
I0
S'switch'
p71
tp72
a(I145
I2
F-0.75
S'unable'
p73
tp74
as(S'buying'
p75
tp76
(lp77
(I6
I0
F0.875
S'happier'
p78
tp79
a(I149
I1
F0.125
S'first'
p80
tp81
as(S'price'
p82
tp83
(lp84
(I37
I0
F1.0
S'good'
p85
tp86
a(I52
I2
F0.375
S'new'
p87
tp88
a(I52
I2
I0
S'great'
p89
tp90
a(I55
I1
F-0.25
S'lower'
p91
tp92
a(I138
I1
I0
S'great'
p93
tp94
a(I140
I3
F0.125
S'able'
p95
tp96
a(I149
I1
I0
S'great'
p97
tp98
a(I150
I3
I0
S'great'
p99
tp100
a(I151
I1
F0.5
S'reasonable'
p101
tp102
a(I167
I6
F1.0
S'good'
p103
tp104
as(S'siri'
p105
tp106
(lp107
(I0
I3
F0.125
S'capable'
p108
tp109
a(I3
I2
F-0.5
S'complaint'
p110
tp111
a(I3
I2
F-0.75
S'difficult'
p112
tp113
a(I3
I2
F-0.75
S'impossible'
p114
tp115
a(I64
I28
I0
S'site'
p116
tp117
a(I75
I2
I0
S'own'
p118
tp119
a(I118
I7
I0
S'faster'
p120
tp121
a(I118
I7
I0
S'cool'
p122
tp123
as(S'working'
p124
tp125
(lp126
(I132
I0
F1.0
S'good'
p127
tp128
as(S'everything'
p129
tp130
(lp131
(I113
I1
I0
S'more'
p132
tp133
as(S'problems'
p134
tp135
(lp136
(I76
I1
F-0.125
S'slow'
p137
tp138
a(I76
I1
F0.875
S'nice'
p139
tp140
a(I107
I0
F0.625
S'perfect'
p141
tp142
a(I178
I0
I0
S'only'
p143
tp144
as(S'getting'
p145
tp146
(lp147
(I12
I1
F0.75
S'worth'
p148
tp149
a(I12
I1
I0
S'android'
p150
tp151
a(I66
I1
F0.25
S'helpful'
p152
tp153
as(S'camera'
p154
tp155
(lp156
(I0
I2
F-0.625
S'other'
p157
tp158
a(I64
I11
I0
S'rear'
p159
tp160
a(I64
I11
F-0.75
S'modest'
p161
tp162
a(I64
I12
I0
S'rear'
p163
tp164
a(I64
I13
I0
S'rear'
p165
tp166
a(I64
I13
F-0.375
S'top'
p167
tp168
a(I64
I15
F-0.125
S'overall'
p169
tp170
a(I64
I15
F-0.375
S'top'
p171
tp172
a(I64
I34
F1.0
S'good'
p173
tp174
a(I64
I37
F-0.25
S'higher'
p175
tp176
a(I118
I7
F0.125
S'essential'
p177
tp178
a(I141
I9
F0.75
S'due'
p179
tp180
as(S'quality'
p181
tp182
(lp183
(I0
I2
I0
S'great'
p184
tp185
a(I25
I0
F-0.5
S'poor'
p186
tp187
a(I148
I1
I0
S'great'
p188
tp189
a(I194
I0
F-0.25
S'cheaper'
p190
tp191
as(S'product'
p192
tp193
(lp194
(I6
I0
F1.0
S'good'
p195
tp196
a(I21
I7
I0
S'same'
p197
tp198
a(I21
I7
F-0.25
S'cheaper'
p199
tp200
a(I26
I0
F0.125
S'last'
p201
tp202
a(I26
I0
I0
S'more'
p203
tp204
a(I46
I0
F0.875
S'happy'
p205
tp206
a(I72
I0
I0
S'great'
p207
tp208
a(I151
I1
I0
S'such'
p209
tp210
a(I151
I1
I0
S'great'
p211
tp212
a(I151
I1
I0
S'such'
p213
tp214
a(I190
I0
I0
S'great'
p215
tp216
as(S'n'
p217
S'perfect'
p218
tp219
(lp220
(I79
I1
I0
g17
tp221
as(S'apple'
p222
tp223
(lp224
(I26
I0
I0
S'great'
p225
tp226
a(I60
I0
F-0.375
S'manual'
p227
tp228
a(I64
I4
F-0.75
S'blew'
p229
tp230
a(I64
I9
F0.25
S'biggest'
p231
tp232
a(I73
I2
F-0.375
S'authorized'
p233
tp234
a(I114
I6
F0.375
S'new'
p235
tp236
a(I125
I4
F-0.625
S'other'
p237
tp238
a(I185
I4
F0.5
S'told'
p239
tp240
as(S'verizon'
p241
tp242
(lp243
(I45
I1
F-0.25
S'white'
p244
tp245
a(I71
I2
F0.25
S'helpful'
p246
tp247
a(I184
I1
F-0.75
S'unable'
p248
tp249
as(S'seller'
p250
tp251
(lp252
(I57
I1
F0.875
S'reputable'
p253
tp254
a(I61
I0
F0.875
S'reputable'
p255
tp256
a(I90
I3
F0.625
S'easy'
p257
tp258
a(I99
I0
I0
S'rubbish'
p259
tp260
a(I111
I0
I0
S'great'
p261
tp262
a(I111
I5
F1.0
S'good'
p263
tp264
a(I173
I0
I0
S'great'
p265
tp266
as(S'android'
p267
tp268
(lp269
(I64
I29
F-0.25
S'modern'
p270
tp271
as(S'battery'
p272
tp273
(lp274
(I4
I5
I0
S'same'
p275
tp276
a(I10
I1
F-0.75
g23
tp277
a(I26
I4
F-0.375
g25
tp278
a(I29
I4
F0.25
S'original'
p279
tp280
a(I54
I0
F0.5
S'possible'
p281
tp282
a(I64
I16
F1.0
g27
tp283
a(I64
I16
F1.0
g29
tp284
a(I64
I18
F1.0
S'best'
p285
tp286
a(I112
I1
F-0.5
S'poor'
p287
tp288
a(I123
I3
F-0.75
g33
tp289
a(I154
I0
F-0.625
S'bad'
p290
tp291
as(S'works'
p292
tp293
(lp294
(I7
I0
I0
S'great'
p295
tp296
a(I9
I1
F1.0
S'good'
p297
tp298
a(I9
I1
F0.375
S'new'
p299
tp300
a(I21
I5
I0
S'great'
p301
tp302
a(I74
I0
I0
S'great'
p303
tp304
a(I92
I2
I0
S'great'
p305
tp306
a(I95
I0
F1.0
S'good'
p307
tp308
a(I149
I3
I0
S'great'
p309
tp310
a(I155
I2
I0
S'great'
p311
tp312
as(S'great'
p313
S'condition'
p314
tp315
(lp316
(I5
I0
I0
S'great'
p317
tp318
a(I5
I0
F-0.25
S'ready'
p319
tp320
a(I35
I1
I0
S'great'
p321
tp322
a(I72
I3
I0
S'great'
p323
tp324
a(I74
I0
I0
S'great'
p325
tp326
a(I103
I1
I0
S'great'
p327
tp328
a(I129
I1
I0
S'great'
p329
tp330
a(I168
I2
I0
S'great'
p331
tp332
a(I188
I0
I0
S'great'
p333
tp334
as(S'upgrade'
p335
tp336
(lp337
(I45
I8
F0.375
S'new'
p338
tp339
a(I71
I2
I0
S'big'
p340
tp341
a(I118
I7
F0.125
S'enough'
p342
tp343
as(S'sent'
p344
tp345
(lp346
(I152
I1
F0.375
S'early'
p347
tp348
as(S'software'
p349
tp350
(lp351
(I64
I6
I0
S'later'
p352
tp353
a(I64
I45
F-0.5
S'poor'
p354
tp355
as(S'better'
p356
tp357
(lp358
(I118
I7
F-0.625
S'other'
p359
tp360
as(S'brand'
p361
tp362
(lp363
(I21
I4
F0.375
S'new'
p364
tp365
a(I21
I6
F0.375
S'new'
p366
tp367
a(I32
I0
F0.375
S'new'
p368
tp369
a(I55
I1
F0.375
S'new'
p370
tp371
a(I57
I4
F0.375
S'new'
p372
tp373
a(I60
I1
F0.375
S'new'
p374
tp375
a(I73
I0
F0.375
S'new'
p376
tp377
a(I85
I0
F0.375
S'new'
p378
tp379
a(I92
I0
F0.375
S'new'
p380
tp381
a(I97
I2
I0
S'great'
p382
tp383
a(I97
I2
F0.375
S'new'
p384
tp385
a(I111
I6
F0.375
S'new'
p386
tp387
a(I135
I0
F0.375
S'new'
p388
tp389
a(I138
I4
F0.375
S'new'
p390
tp391
a(I148
I1
F0.375
S'new'
p392
tp393
a(I158
I0
F0.375
S'new'
p394
tp395
a(I181
I1
F0.375
S'new'
p396
tp397
as(S'time'
p398
tp399
(lp400
(I45
I8
I0
S'next'
p401
tp402
a(I166
I7
F-0.75
S'worse'
p403
tp404
a(I170
I1
F0.875
S'happy'
p405
tp406
a(I183
I0
I0
S'such'
p407
tp408
a(I183
I0
I0
S'incredible'
p409
tp410
a(I192
I3
F-0.5
S'long'
p411
tp412
as(g217
S'great'
p413
S'condition'
p414
tp415
(lp416
(I5
I0
I0
g317
tp417
a(I5
I0
F-0.25
g319
tp418
a(I35
I1
I0
g321
tp419
a(I72
I3
I0
g323
tp420
a(I74
I0
I0
g325
tp421
a(I103
I1
I0
g327
tp422
a(I129
I1
I0
g329
tp423
a(I168
I2
I0
g331
tp424
a(I188
I0
I0
g333
tp425
as(S'condition'
p426
tp427
(lp428
(I2
I0
F0.375
S'new'
p429
tp430
a(I4
I0
F0.375
S'new'
p431
tp432
a(I5
I0
I0
g317
tp433
a(I5
I0
F-0.25
g319
tp434
a(I29
I2
F0.375
S'new'
p435
tp436
a(I29
I2
F0.625
S'positive'
p437
tp438
a(I35
I1
I0
g321
tp439
a(I72
I3
I0
g323
tp440
a(I74
I0
I0
g325
tp441
a(I87
I0
F1.0
S'good'
p442
tp443
a(I101
I1
F1.0
S'good'
p444
tp445
a(I103
I1
I0
g327
tp446
a(I114
I5
F1.0
S'better'
p447
tp448
a(I116
I0
F1.0
S'good'
p449
tp450
a(I129
I1
I0
g329
tp451
a(I144
I1
F0.375
S'new'
p452
tp453
a(I164
I0
F0.375
S'new'
p454
tp455
a(I164
I0
F0.5
S'functional'
p456
tp457
a(I168
I2
I0
g331
tp458
a(I172
I0
F1.0
S'good'
p459
tp460
a(I188
I0
I0
g333
tp461
as(S'charger'
p462
tp463
(lp464
(I136
I1
F0.375
S'new'
p465
tp466
a(I142
I2
F0.25
S'original'
p467
tp468
a(I163
I2
F0.375
S'new'
p469
tp470
a(I163
I2
F-0.125
S'overall'
p471
tp472
as(S'screen'
p473
tp474
(lp475
(I64
I4
F-0.375
S'top'
p476
tp477
a(I108
I2
F-0.375
S'smaller'
p478
tp479
a(I112
I2
F-0.75
S'unresponsive'
p480
tp481
a(I173
I0
F-0.625
S'other'
p482
tp483
a(I175
I2
F-0.375
S'small'
p484
tp485
as(S'deal'
p486
tp487
(lp488
(I7
I1
I0
S'great'
p489
tp490
a(I127
I1
I0
S'such'
p491
tp492
a(I127
I1
I0
S'great'
p493
tp494
a(I135
I0
F0.5
S'whole'
p495
tp496
a(I157
I2
F1.0
S'good'
p497
tp498
a(I180
I3
F1.0
S'good'
p499
tp500
as(S'life'
p501
tp502
(lp503
(I64
I17
F0.375
g31
tp504
as(g217
S'perfect'
p505
S'condition'
p506
tp507
(lp508
(I103
I1
I0
g327
tp509
as(S'days'
p510
tp511
(lp512
(I80
I1
I0
S'few'
p513
tp514
a(I81
I1
F0.125
S'able'
p515
tp516
a(I118
I10
I0
S'few'
p517
tp518
as.