(dp0
(S'piece'
p1
S'of'
p2
S'hardware'
p3
tp4
(lp5
(I10
I119
I0
S'great'
p6
I2
tp7
a(I12
I31
F0.125
S'solid'
p8
I2
tp9
a(I12
I54
F0.125
S'solid'
p10
I2
tp11
as(S'end'
p12
S'of'
p13
S'day'
p14
tp15
(lp16
(I1
I14
I0
S'high'
p17
I0
tp18
a(I1
I14
I0
S'full'
p19
I0
tp20
a(I19
I41
I0
S'next'
p21
I0
tp22
a(I22
I14
I0
S'full'
p23
I0
tp24
as(S'email'
p25
tp26
(lp27
(I2
I44
F0.375
S'much'
p28
I5
tp29
a(I2
I44
F1.0
S'better'
p30
I5
tp31
a(I3
I25
F0.375
S'new'
p32
I5
tp33
a(I5
I19
F0.375
S'new'
p34
I5
tp35
a(I8
I44
F-0.5
S'open'
p36
I5
tp37
as(S'user'
p38
S'experience'
p39
tp40
(lp41
(I5
I238
I0
S'great'
p42
I1
tp43
a(I5
I238
F-0.125
S'overall'
p44
I1
tp45
a(I8
I16
F1.0
S'best'
p46
I1
tp47
a(I10
I117
I0
S'such'
p48
I1
tp49
a(I10
I135
F-0.125
S'former'
p50
I1
tp51
as(S'call'
p52
S'quality'
p53
tp54
(lp55
(I4
I273
F1.0
S'good'
p56
I0
tp57
a(I5
I197
I0
S'great'
p58
I0
tp59
a(I5
I287
I0
S'great'
p60
I0
tp61
a(I6
I49
F-0.25
S'past'
p62
I0
tp63
a(I7
I35
F-0.5
S'poor'
p64
I0
tp65
a(I10
I143
F1.0
S'good'
p66
I0
tp67
a(I12
I50
F1.0
S'good'
p68
I0
tp69
a(I17
I24
I0
S'great'
p70
I0
tp71
a(I19
I20
F1.0
S'best'
p72
I0
tp73
a(I19
I20
F1.0
S'good'
p74
I0
tp75
as(S'give'
p76
S'a'
p77
S'try'
p78
tp79
(lp80
(I22
I89
F0.75
S'give'
p81
I0
tp82
as(S'operating'
p83
S'system'
p84
tp85
(lp86
(I5
I171
F-0.625
S'other'
p87
I2
tp88
a(I5
I171
I0
S'mobile'
p89
I2
tp90
a(I10
I5
F0.5
S'whole'
p91
I2
tp92
a(I11
I79
F0.125
S'capable'
p93
I2
tp94
a(I18
I24
F-0.375
S'smooth'
p95
I2
tp96
a(I22
I82
F0.25
S'responsive'
p97
I2
tp98
a(I10
I143
I0
S'great'
p99
I12
tp100
a(I10
I146
I0
S'cool'
p101
I12
tp102
a(I10
I146
F0.5
S'greater'
p103
I12
tp104
a(I18
I24
F-0.375
g95
I12
tp105
a(I22
I48
F-0.625
S'fresh'
p106
I12
tp107
a(I22
I82
F0.25
g97
I12
tp108
as(S'clear'
p109
S'black'
p110
S'display'
p111
tp112
(lp113
(I4
I4
F0.5
S'clear'
p114
I0
tp115
a(I4
I124
F0.5
S'clear'
p116
I0
tp117
a(I4
I4
F0.5
g114
I0
tp118
a(I4
I124
F0.5
g116
I0
tp119
a(I10
I197
F0.5
S'clear'
p120
I0
tp121
a(I4
I4
F0.5
g114
I19
tp122
a(I4
I112
F1.0
S'best'
p123
I19
tp124
a(I4
I124
F0.5
g116
I19
tp125
a(I5
I103
F0.125
S'usual'
p126
I19
tp127
a(I10
I197
F0.5
g120
I19
tp128
a(I10
I230
F-0.5
S'regular'
p129
I19
tp130
a(I11
I54
F0.25
S'deep'
p131
I19
tp132
a(I12
I34
I0
S'generic'
p133
I19
tp134
a(I15
I8
F1.0
S'best'
p135
I19
tp136
a(I20
I23
F-0.25
S'matte'
p137
I19
tp138
as(S'windows'
p139
tp140
(lp141
(I3
I12
F0.375
S'new'
p142
I0
tp143
a(I3
I13
F0.375
S'available'
p144
I0
tp145
a(I3
I64
I0
S'old'
p146
I0
tp147
a(I4
I22
I0
S'different'
p148
I0
tp149
a(I4
I52
F0.375
S'new'
p150
I0
tp151
a(I4
I53
F0.375
S'available'
p152
I0
tp153
a(I5
I146
I0
S'different'
p154
I0
tp155
a(I5
I160
F0.375
S'new'
p156
I0
tp157
a(I5
I268
F1.0
S'best'
p158
I0
tp159
a(I6
I22
I0
S'most'
p160
I0
tp161
a(I6
I98
F0.375
S'new'
p162
I0
tp163
a(I9
I24
F-0.375
S'serious'
p164
I0
tp165
a(I10
I133
F0.125
S'first'
p166
I0
tp167
a(I10
I235
I0
S'standard'
p168
I0
tp169
a(I11
I45
F0.5
S'second'
p170
I0
tp171
a(I11
I45
F0.375
S'new'
p172
I0
tp173
a(I19
I18
I0
S'few'
p174
I0
tp175
a(I19
I88
F0.125
S'first'
p176
I0
tp177
a(I19
I88
F0.75
S'cautious'
p178
I0
tp179
a(I19
I148
F0.125
S'first'
p180
I0
tp181
a(I19
I160
F0.125
S'first'
p182
I0
tp183
a(I19
I184
F0.125
S'first'
p184
I0
tp185
a(I19
I193
F0.5
S'true'
p186
I0
tp187
a(I19
I248
F0.375
S'new'
p188
I0
tp189
a(I19
I272
I0
S'next'
p190
I0
tp191
a(I19
I272
F0.625
S'major'
p192
I0
tp193
as(S'number'
p194
S'of'
p195
S'apps'
p196
tp197
(lp198
(I15
I26
F-0.375
S'top'
p199
I0
tp200
a(I0
I15
F-0.625
S'free'
p201
I0
tp202
a(I1
I9
F0.125
S'able'
p203
I0
tp204
a(I1
I9
I0
S'many'
p205
I0
tp206
a(I2
I15
F0.375
S'available'
p207
I0
tp208
a(I2
I16
F-0.625
S'other'
p209
I0
tp210
a(I2
I49
F-0.625
S'average'
p211
I0
tp212
a(I3
I1
I0
S'great'
p213
I0
tp214
a(I3
I13
F0.25
S'main'
p215
I0
tp216
a(I3
I51
I0
S'most'
p217
I0
tp218
a(I3
I52
I0
S'more'
p219
I0
tp220
a(I4
I9
F-0.5
S'less'
p221
I0
tp222
a(I4
I33
F0.125
S'last'
p223
I0
tp224
a(I4
I53
I0
S'few'
p225
I0
tp226
a(I4
I88
F-0.25
S'hung'
p227
I0
tp228
a(I4
I92
F-0.5
S'certain'
p229
I0
tp230
a(I4
I92
I0
S'specific'
p231
I0
tp232
a(I4
I171
F-0.375
S'top'
p233
I0
tp234
a(I4
I173
F-0.375
S'top'
p235
I0
tp236
a(I4
I209
F-0.5
S'separate'
p237
I0
tp238
a(I4
I278
F0.625
S'major'
p239
I0
tp240
a(I4
I288
F0.375
S'available'
p241
I0
tp242
a(I4
I289
F-0.5
S'sure'
p243
I0
tp244
a(I5
I207
I0
S'few'
p245
I0
tp246
a(I5
I264
F0.625
S'major'
p247
I0
tp248
a(I5
I316
F0.875
S'nice'
p249
I0
tp250
a(I5
I317
I0
S'exclusive'
p251
I0
tp252
a(I5
I324
I0
S'great'
p253
I0
tp254
a(I5
I330
I0
S'great'
p255
I0
tp256
a(I5
I334
I0
S'most'
p257
I0
tp258
a(I5
I334
F0.125
S'popular'
p259
I0
tp260
a(I5
I334
F0.375
S'available'
p261
I0
tp262
a(I5
I337
I0
S'total'
p263
I0
tp264
a(I6
I19
F-0.375
S'crazy'
p265
I0
tp266
a(I6
I84
I0
S'many'
p267
I0
tp268
a(I6
I84
F0.125
S'able'
p269
I0
tp270
a(I6
I106
I0
S'many'
p271
I0
tp272
a(I7
I16
I0
S'most'
p273
I0
tp274
a(I7
I16
F0.875
S'important'
p275
I0
tp276
a(I9
I43
F0.375
S'early'
p277
I0
tp278
a(I9
I43
F-0.5
S'sure'
p279
I0
tp280
a(I10
I73
F0.875
S'happy'
p281
I0
tp282
a(I10
I73
I0
S'more'
p283
I0
tp284
a(I10
I106
I0
S'more'
p285
I0
tp286
a(I10
I131
F0.125
S'popular'
p287
I0
tp288
a(I10
I161
I0
S'more'
p289
I0
tp290
a(I10
I169
I0
S'more'
p291
I0
tp292
a(I11
I11
F-0.625
S'free'
p293
I0
tp294
a(I11
I64
F0.375
S'available'
p295
I0
tp296
a(I14
I13
F0.125
S'popular'
p297
I0
tp298
a(I14
I21
I0
S'launch'
p299
I0
tp300
a(I14
I28
F0.875
S'nice'
p301
I0
tp302
a(I14
I28
I0
S'more'
p303
I0
tp304
a(I15
I26
F-0.375
g199
I0
tp305
a(I17
I43
I0
S'more'
p306
I0
tp307
a(I17
I43
I0
S'official'
p308
I0
tp309
a(I18
I28
F0.125
S'derivative'
p310
I0
tp311
a(I18
I50
F0.375
S'available'
p312
I0
tp313
a(I19
I21
F1.0
S'good'
p314
I0
tp315
a(I19
I59
I0
S'more'
p316
I0
tp317
a(I19
I67
I0
S'exclusive'
p318
I0
tp319
a(I19
I91
I0
S'more'
p320
I0
tp321
a(I19
I168
F-0.625
S'free'
p322
I0
tp323
a(I19
I199
I0
S'exclusive'
p324
I0
tp325
a(I19
I205
I0
S'most'
p326
I0
tp327
a(I19
I209
F-0.5
S'certain'
p328
I0
tp329
a(I19
I219
I0
S'most'
p330
I0
tp331
a(I19
I219
F-0.625
S'other'
p332
I0
tp333
a(I19
I219
F0.375
S'available'
p334
I0
tp335
a(I19
I252
F-0.125
S'requisite'
p336
I0
tp337
a(I19
I252
I0
S'such'
p338
I0
tp339
a(I19
I255
I0
S'more'
p340
I0
tp341
a(I19
I261
I0
S'more'
p342
I0
tp343
a(I19
I279
I0
S'only'
p344
I0
tp345
a(I19
I294
I0
S'more'
p346
I0
tp347
a(I20
I8
F-0.5
S'less'
p348
I0
tp349
a(I22
I30
I0
S'alphabetic'
p350
I0
tp351
a(I22
I42
I0
S'different'
p352
I0
tp353
a(I22
I87
I0
S'great'
p354
I0
tp355
a(I22
I113
I0
S'great'
p356
I0
tp357
a(I22
I131
I0
S'great'
p358
I0
tp359
a(I22
I131
I0
S'great'
p360
I0
tp361
as(S'apple'
p362
tp363
(lp364
(I4
I73
F0.625
S'fair'
p365
I4
tp366
a(I5
I176
I0
S'only'
p367
I4
tp368
a(I6
I77
I0
S'large'
p369
I4
tp370
a(I8
I39
F1.0
S'good'
p371
I4
tp372
a(I21
I22
F1.0
S'best'
p373
I4
tp374
a(I21
I24
F1.0
S'best'
p375
I4
tp376
as(S'look'
p377
S'and'
p378
S'feel'
p379
tp380
(lp381
(I9
I1
I0
S'great'
p382
I1
tp383
a(I22
I116
F0.625
S'sexy'
p384
I1
tp385
a(I22
I116
F-0.75
S'bright'
p386
I1
tp387
a(I22
I116
F0.375
S'alive'
p388
I1
tp389
as(S'integration'
p390
tp391
(lp392
(I9
I12
F-0.375
S'smooth'
p393
I0
tp394
a(I19
I182
F-0.125
S'overall'
p395
I0
tp396
as(S'music'
p397
tp398
(lp399
(I5
I12
F-0.875
S'trouble'
p400
I0
tp401
a(I5
I12
F0.375
S'new'
p402
I0
tp403
a(I8
I31
I0
S'internet'
p404
I0
tp405
as(S'iphone'
p406
S'or'
p407
S'android'
p408
tp409
(lp410
(I5
I195
F0.875
S'attractive'
p411
I0
tp412
a(I5
I216
I0
S'more'
p413
I0
tp414
a(I19
I50
I0
S'android'
p415
I0
tp416
a(I21
I26
F-0.625
S'other'
p417
I0
tp418
a(I22
I136
I0
S'more'
p419
I0
tp420
a(I22
I136
F0.75
S'beautiful'
p421
I0
tp422
a(I22
I136
I0
S'latest'
p423
I0
tp424
a(I2
I4
I0
S'stable'
p425
I1
tp426
a(I2
I4
I-100
S'user-friend'
p427
I1
tp428
a(I2
I14
F1.0
S'better'
p429
I1
tp430
a(I2
I42
F-0.5
S'heavy'
p431
I1
tp432
a(I3
I10
F0.5
S'loyal'
p433
I1
tp434
a(I3
I21
F0.125
S'first'
p435
I1
tp436
a(I3
I21
F0.125
S'impressive'
p437
I1
tp438
a(I3
I27
I0
S'switched'
p439
I1
tp440
a(I4
I39
F0.875
S'happy'
p441
I1
tp442
a(I4
I69
I0
S'even'
p443
I1
tp444
a(I4
I299
I0
S'identify'
p445
I1
tp446
a(I5
I216
I0
g413
I1
tp447
a(I6
I68
F0.25
S'recent'
p448
I1
tp449
a(I6
I94
F0.25
S'original'
p450
I1
tp451
a(I6
I109
F0.5
S'compare'
p452
I1
tp453
a(I7
I3
F0.375
S'new'
p454
I1
tp455
a(I7
I27
F0.375
S'new'
p456
I1
tp457
a(I10
I144
F0.625
S'easy'
p458
I1
tp459
a(I10
I144
F0.625
S'easy'
p460
I1
tp461
a(I10
I163
F1.0
S'good'
p462
I1
tp463
a(I10
I224
F0.125
S'last'
p464
I1
tp465
a(I11
I110
F0.125
S'first'
p466
I1
tp467
a(I13
I28
I0
S'different'
p468
I1
tp469
a(I14
I5
I0
S'most'
p470
I1
tp471
a(I14
I27
I0
S'faster'
p472
I1
tp473
a(I19
I33
F0.125
S'first'
p474
I1
tp475
a(I19
I50
I0
g415
I1
tp476
a(I19
I166
F0.625
S'easy'
p477
I1
tp478
a(I21
I26
F-0.625
g417
I1
tp479
a(I21
I27
F0.875
S'happy'
p480
I1
tp481
a(I22
I48
I0
S'cooler'
p482
I1
tp483
a(I22
I71
I0
S'old'
p484
I1
tp485
a(I22
I136
I0
g419
I1
tp486
a(I22
I136
F0.75
g421
I1
tp487
a(I22
I136
I0
g423
I1
tp488
a(I1
I9
F-0.375
S'static'
p489
I0
tp490
a(I3
I14
F-0.125
S'overall'
p491
I0
tp492
a(I5
I170
I0
S'refined'
p493
I0
tp494
a(I5
I195
F0.875
g411
I0
tp495
a(I10
I88
I0
S'more'
p496
I0
tp497
a(I10
I88
F-0.625
S'other'
p498
I0
tp499
a(I10
I192
F0.375
S'available'
p500
I0
tp501
as(g77
S'samsung'
p502
S'focus'
p503
tp504
(lp505
(I12
I37
F0.25
S'original'
p506
I0
tp507
a(I12
I37
F0.25
g506
I0
tp508
a(I5
I112
I0
S'old'
p509
I7
tp510
a(I12
I37
F0.25
g506
I7
tp511
a(I19
I222
F0.375
S'new'
p512
I7
tp513
a(I5
I180
F1.0
S'better'
p514
I4
tp515
a(I5
I184
F0.5
S'obvious'
p516
I4
tp517
a(I10
I234
I0
S'old'
p518
I4
tp519
a(I17
I27
I0
S'faster'
p520
I4
tp521
a(I17
I27
F0.25
S'original'
p522
I4
tp523
a(I22
I44
I0
S'old'
p524
I4
tp525
as(S'cyan'
p526
S'color'
p527
tp528
(lp529
(I4
I105
F-0.5
S'ordinary'
p530
I0
tp531
a(I5
I294
F0.75
S'beautiful'
p532
I0
tp533
a(I10
I8
F0.5
S'bold'
p534
I0
tp535
a(I11
I52
F0.875
S'nice'
p536
I0
tp537
a(I11
I74
I0
S'most'
p538
I0
tp539
a(I12
I43
I0
S'great'
p540
I0
tp541
a(I4
I105
F-0.5
g530
I0
tp542
a(I6
I129
I0
S'great'
p543
I0
tp544
a(I10
I242
F-0.375
S'black'
p545
I0
tp546
a(I11
I74
I0
g538
I0
tp547
a(I15
I27
F0.375
S'new'
p548
I0
tp549
a(I18
I38
F-0.375
S'black'
p550
I0
tp551
a(I22
I44
F0.375
S'new'
p552
I0
tp553
as(S'interface'
p554
tp555
(lp556
(I4
I210
F0.125
S'first'
p557
I1
tp558
a(I4
I225
I-100
S'live-tile'
p559
I1
tp560
a(I4
I287
F0.625
S'easy'
p561
I1
tp562
a(I5
I43
I-100
S'intitive'
p563
I1
tp564
a(I5
I245
I0
S'efficient'
p565
I1
tp566
a(I10
I221
F1.0
S'best'
p567
I1
tp568
a(I11
I45
F0.625
S'easy'
p569
I1
tp570
a(I19
I28
F-0.625
S'fresh'
p571
I1
tp572
a(I19
I28
F0.375
S'new'
p573
I1
tp574
a(I19
I191
F0.75
S'beautiful'
p575
I1
tp576
a(I19
I192
F0.125
S'able'
p577
I1
tp578
a(I22
I112
F0.75
S'beautiful'
p579
I1
tp580
as(S'front'
p581
S'facing'
p582
S'camera'
p583
tp584
(lp585
(I6
I113
I0
S'full'
p586
I0
tp587
a(I10
I257
I0
S'unbelievable'
p588
I0
tp589
a(I10
I257
F0.5
S'clear'
p590
I0
tp591
a(I19
I21
F1.0
S'good'
p592
I0
tp593
a(I1
I1
F1.0
S'better'
p594
I1
tp595
a(I1
I2
F0.25
S'read'
p596
I1
tp597
a(I1
I14
I0
S'descent'
p598
I1
tp599
a(I5
I56
I0
S'special'
p600
I1
tp601
a(I5
I189
I0
S'rear'
p602
I1
tp603
a(I5
I189
F-0.625
S'average'
p604
I1
tp605
a(I5
I189
I0
S'many'
p606
I1
tp607
a(I5
I308
F1.0
S'good'
p608
I1
tp609
a(I5
I339
F-0.25
S'higher'
p610
I1
tp611
a(I6
I113
I0
g586
I1
tp612
a(I8
I83
I0
S'high'
p613
I1
tp614
a(I8
I83
F0.25
S'professional'
p615
I1
tp616
a(I10
I48
F0.875
S'nice'
p617
I1
tp618
a(I10
I96
F-0.125
S'overall'
p619
I1
tp620
a(I10
I179
I0
S'integrate'
p621
I1
tp622
a(I10
I240
F0.5
S'primary'
p623
I1
tp624
a(I10
I257
F0.5
g590
I1
tp625
a(I11
I63
F1.0
S'good'
p626
I1
tp627
a(I11
I63
F1.0
S'good'
p628
I1
tp629
a(I11
I94
F0.25
S'sharp'
p630
I1
tp631
a(I16
I3
F1.0
S'good'
p632
I1
tp633
a(I19
I21
F1.0
g592
I1
tp634
a(I19
I245
F1.0
S'good'
p635
I1
tp636
a(I20
I19
F1.0
S'good'
p637
I1
tp638
a(I20
I19
F1.0
S'better'
p639
I1
tp640
a(I22
I30
I0
S'great'
p641
I1
tp642
a(I22
I114
I0
S'great'
p643
I1
tp644
as(S'iphone'
p645
S'and'
p646
S'android'
p647
tp648
(lp649
(I4
I299
I0
g445
I0
tp650
a(I5
I195
F0.875
g411
I0
tp651
a(I5
I216
I0
g413
I0
tp652
a(I19
I50
I0
g415
I0
tp653
a(I21
I26
F-0.625
g417
I0
tp654
a(I22
I136
I0
g419
I0
tp655
a(I22
I136
F0.75
g421
I0
tp656
a(I22
I136
I0
g423
I0
tp657
as(S'much'
p658
S'better'
p659
tp660
(lp661
(I5
I299
F0.375
S'much'
p662
I9
tp663
a(I10
I253
F0.375
S'much'
p664
I9
tp665
a(I11
I44
F0.375
S'much'
p666
I9
tp667
a(I11
I80
F0.375
S'much'
p668
I9
tp669
a(I19
I125
F0.375
S'much'
p670
I9
tp671
a(I19
I125
I0
S'many'
p672
I9
tp673
a(I22
I70
F0.375
S'much'
p674
I9
tp675
as(S'marketplace'
p676
tp677
(lp678
(I3
I13
F0.875
S'nicer'
p679
I0
tp680
a(I3
I13
I0
S'few'
p681
I0
tp682
a(I4
I214
F-0.75
S'single'
p683
I0
tp684
a(I12
I10
F0.375
S'available'
p685
I0
tp686
a(I22
I112
F-0.375
S'small'
p687
I0
tp688
as(S'zune'
p689
S'pass'
p690
tp691
(lp692
(I5
I12
F0.875
S'music'
p693
I0
tp694
a(I5
I89
F0.875
S'music'
p695
I0
tp696
a(I5
I10
I-100
S'appid=c3f8e570-68b3-4d6a-bdbb-c0a3f4360a51did'
p697
I0
tp698
a(I10
I69
F0.625
S'easy'
p699
I0
tp700
a(I17
I58
F0.875
S'music'
p701
I0
tp702
as(S'smartphone'
p703
tp704
(lp705
(I0
I0
F-0.625
S'other'
p706
I0
tp707
a(I0
I24
F1.0
S'best'
p708
I0
tp709
a(I0
I24
F-0.125
S'overall'
p710
I0
tp711
a(I2
I33
F0.375
S'new'
p712
I0
tp713
a(I4
I158
I0
S'only'
p714
I0
tp715
a(I4
I239
F0.125
S'first'
p716
I0
tp717
a(I5
I199
F0.125
S'first'
p718
I0
tp719
a(I5
I203
I0
S'great'
p720
I0
tp721
a(I5
I312
I0
S'incredible'
p722
I0
tp723
a(I6
I117
F0.125
S'typical'
p724
I0
tp725
a(I12
I16
F1.0
S'better'
p726
I0
tp727
a(I17
I30
F1.0
S'best'
p728
I0
tp729
a(I19
I125
F-0.625
S'other'
p730
I0
tp731
a(I19
I136
I0
S'mandatory'
p732
I0
tp733
a(I20
I12
F0.125
S'first'
p734
I0
tp735
a(I20
I12
F0.5
S'bought'
p736
I0
tp737
a(I20
I25
F0.125
S'first'
p738
I0
tp739
a(I21
I1
I0
S'real'
p740
I0
tp741
a(I21
I13
F0.125
S'key'
p742
I0
tp743
a(I22
I122
F0.25
S'powerful'
p744
I0
tp745
as(S'turn'
p746
S'by'
p747
S'turn'
p748
tp749
(lp750
(I5
I165
F-0.625
S'free'
p751
I0
tp752
a(I19
I68
I0
S'great'
p753
I0
tp754
a(I19
I199
F0.125
S'native'
p755
I0
tp756
a(I22
I64
F0.875
S'nice'
p757
I0
tp758
as(S'nokia'
p759
S'lumia'
p760
tp761
(lp762
(I4
I168
F1.0
S'good'
p763
I0
tp764
a(I10
I40
F0.125
S'able'
p765
I0
tp766
a(I10
I151
F-0.625
S'free'
p767
I0
tp768
a(I19
I274
F0.375
S'new'
p769
I0
tp770
a(I22
I81
F0.375
S'new'
p771
I0
tp772
a(I0
I15
F0.25
S'responsive'
p773
I0
tp774
a(I0
I15
I0
S'special'
p775
I0
tp776
a(I2
I27
I0
S'specific'
p777
I0
tp778
a(I4
I11
F0.5
S'drive'
p779
I0
tp780
a(I4
I47
F0.625
S'superior'
p781
I0
tp782
a(I4
I52
F0.5
S'technical'
p783
I0
tp784
a(I4
I79
F0.25
S'sweet'
p785
I0
tp786
a(I4
I96
F0.5
S'drive'
p787
I0
tp788
a(I4
I168
F1.0
g763
I0
tp789
a(I5
I13
F0.25
S'stellar'
p790
I0
tp791
a(I5
I162
F0.75
S'beautiful'
p792
I0
tp793
a(I7
I40
F-0.75
S'short'
p794
I0
tp795
a(I8
I89
F0.625
S'aware'
p796
I0
tp797
a(I10
I27
F0.5
S'loyal'
p798
I0
tp799
a(I10
I93
I0
S'great'
p800
I0
tp801
a(I10
I93
I0
S'specific'
p802
I0
tp803
a(I10
I121
F0.75
S'classic'
p804
I0
tp805
a(I10
I125
I0
S'only'
p806
I0
tp807
a(I10
I151
F-0.625
g767
I0
tp808
a(I10
I177
F-0.625
S'free'
p809
I0
tp810
a(I12
I36
I0
S'great'
p811
I0
tp812
a(I13
I5
F-0.375
S'top'
p813
I0
tp814
a(I19
I68
I0
S'exclusive'
p815
I0
tp816
a(I19
I69
I0
S'more'
p817
I0
tp818
a(I19
I80
F0.25
S'unlocked'
p819
I0
tp820
a(I19
I85
F0.75
S'beautiful'
p821
I0
tp822
a(I19
I97
F-0.25
S'past'
p823
I0
tp824
a(I19
I99
I0
S'old'
p825
I0
tp826
a(I19
I115
I0
S'more'
p827
I0
tp828
a(I19
I261
F1.0
S'better'
p829
I0
tp830
a(I19
I272
I0
S'next'
p831
I0
tp832
a(I19
I274
F0.375
g769
I0
tp833
a(I22
I74
F0.125
S'world-beater'
p834
I0
tp835
a(I22
I79
F-0.625
S'free'
p836
I0
tp837
a(I22
I102
I0
S'quick'
p838
I0
tp839
a(I22
I104
F1.0
S'good'
p840
I0
tp841
a(I3
I34
I0
S'close'
p842
I0
tp843
a(I4
I127
I0
S'exclusive'
p844
I0
tp845
a(I5
I40
F0.875
S'happy'
p846
I0
tp847
a(I5
I63
F0.375
S'much'
p848
I0
tp849
a(I5
I105
F-0.375
S'top'
p850
I0
tp851
a(I5
I268
F-0.125
S'overall'
p852
I0
tp853
a(I6
I86
F-0.125
S'mine'
p854
I0
tp855
a(I7
I33
I0
S'update'
p856
I0
tp857
a(I8
I96
F0.375
S'new'
p858
I0
tp859
a(I8
I97
F1.0
S'better'
p860
I0
tp861
a(I9
I0
F1.0
S'good'
p862
I0
tp863
a(I10
I40
F0.125
g765
I0
tp864
a(I12
I32
F1.0
S'enjoy'
p865
I0
tp866
a(I12
I32
I0
S'fast'
p867
I0
tp868
a(I17
I45
F-0.375
S'black'
p869
I0
tp870
a(I19
I74
I0
S'large'
p871
I0
tp872
a(I22
I61
F0.375
S'available'
p873
I0
tp874
a(I22
I81
F0.375
g771
I0
tp875
a(I22
I142
F1.0
S'best'
p876
I0
tp877
as(S'data'
p878
S'plan'
p879
tp880
(lp881
(I5
I29
F-0.5
S'heavy'
p882
I0
tp883
a(I5
I349
I0
S'current'
p884
I0
tp885
a(I4
I64
I0
S'own'
p886
I13
tp887
a(I5
I29
F-0.5
g882
I13
tp888
a(I5
I349
I0
g884
I13
tp889
a(I6
I104
I0
S'fast'
p890
I13
tp891
a(I8
I30
I0
S'cellular'
p892
I13
tp893
a(I8
I32
I0
S'cellular'
p894
I13
tp895
a(I9
I14
F0.5
S'personal'
p896
I13
tp897
a(I11
I46
F0.375
S'alive'
p898
I13
tp899
a(I19
I21
I0
S'fast'
p900
I13
tp901
as(S'great'
p902
S'battery'
p903
S'life'
p904
tp905
(lp906
(I1
I14
F0.125
S'last'
p907
I0
tp908
a(I5
I287
I0
S'great'
p909
I0
tp910
a(I12
I37
I0
S'great'
p911
I0
tp912
a(I12
I42
I0
S'great'
p913
I0
tp914
a(I13
I24
I0
S'great'
p915
I0
tp916
a(I17
I34
I0
S'great'
p917
I0
tp918
a(I22
I30
I0
S'great'
p919
I0
tp920
a(I22
I86
I0
S'great'
p921
I0
tp922
a(I1
I14
F0.125
g907
I1
tp923
a(I4
I206
F0.875
S'important'
p924
I1
tp925
a(I5
I186
F1.0
S'better'
p926
I1
tp927
a(I5
I287
I0
g909
I1
tp928
a(I5
I312
F-0.25
S'battery'
p929
I1
tp930
a(I6
I117
F-0.625
S'average'
p931
I1
tp932
a(I8
I34
I0
S'least'
p933
I1
tp934
a(I8
I69
F0.125
S'last'
p935
I1
tp936
a(I10
I236
F0.125
S'able'
p937
I1
tp938
a(I12
I37
I0
g911
I1
tp939
a(I12
I42
I0
g913
I1
tp940
a(I13
I24
I0
g915
I1
tp941
a(I17
I34
I0
g917
I1
tp942
a(I19
I18
I0
S'mobile'
p943
I1
tp944
a(I19
I18
F1.0
S'good'
p945
I1
tp946
a(I19
I75
F0.125
S'last'
p947
I1
tp948
a(I22
I11
F0.125
S'impressive'
p949
I1
tp950
a(I22
I30
I0
g919
I1
tp951
a(I22
I86
I0
g921
I1
tp952
a(I22
I124
I0
S'curious'
p953
I1
tp954
a(I1
I14
F0.125
g907
I19
tp955
a(I4
I206
F0.875
g924
I19
tp956
a(I5
I136
F0.625
S'easier'
p957
I19
tp958
a(I5
I186
F1.0
g926
I19
tp959
a(I5
I312
F-0.25
g929
I19
tp960
a(I6
I117
F-0.625
g931
I19
tp961
a(I8
I34
I0
g933
I19
tp962
a(I8
I69
F0.125
g935
I19
tp963
a(I10
I236
F0.125
g937
I19
tp964
a(I11
I82
F0.375
S'new'
p965
I19
tp966
a(I12
I42
I0
g913
I19
tp967
a(I13
I24
I0
g915
I19
tp968
a(I17
I34
I0
g917
I19
tp969
a(I19
I18
I0
g943
I19
tp970
a(I19
I18
F1.0
g945
I19
tp971
a(I19
I75
F0.125
g947
I19
tp972
a(I22
I11
F0.125
g949
I19
tp973
a(I22
I86
I0
g921
I19
tp974
a(I5
I54
F-0.25
S'low'
p975
I15
tp976
a(I5
I54
I0
S'graphic'
p977
I15
tp978
a(I5
I287
I0
g909
I15
tp979
a(I10
I19
F-0.25
S'low'
p980
I15
tp981
a(I10
I19
F1.0
S'good'
p982
I15
tp983
a(I10
I22
F-0.625
S'average'
p984
I15
tp985
a(I12
I37
I0
g911
I15
tp986
a(I17
I65
F0.125
S'last'
p987
I15
tp988
a(I20
I30
F-0.75
S'dead'
p989
I15
tp990
a(I22
I30
I0
g919
I15
tp991
a(I22
I124
I0
g953
I15
tp992
as(S'feels'
p993
tp994
(lp995
(I4
I110
F1.0
S'good'
p996
I14
tp997
a(I5
I100
F0.125
S'solid'
p998
I14
tp999
a(I8
I61
I0
S'great'
p1000
I14
tp1001
a(I9
I0
I0
S'great'
p1002
I14
tp1003
a(I14
I13
F-0.625
S'lighter'
p1004
I14
tp1005
a(I14
I13
F0.625
S'easier'
p1006
I14
tp1007
as(S'facebook'
p1008
tp1009
(lp1010
(I4
I23
I0
S'latest'
p1011
I0
tp1012
a(I11
I16
I0
S'self-portrait'
p1013
I0
tp1014
a(I11
I27
I0
S'big'
p1015
I0
tp1016
a(I19
I5
F-0.5
S'heavy'
p1017
I0
tp1018
a(I19
I252
I0
S'such'
p1019
I0
tp1020
a(I19
I252
I0
S'installed'
p1021
I0
tp1022
a(I20
I36
F-0.625
S'other'
p1023
I0
tp1024
a(I20
I36
F0.375
S'much'
p1025
I0
tp1026
as(S'build'
p1027
S'quality'
p1028
tp1029
(lp1030
(I5
I287
F0.75
S'beautiful'
p1031
I2
tp1032
a(I11
I112
F-0.25
S'higher'
p1033
I2
tp1034
a(I17
I4
F0.625
S'superior'
p1035
I2
tp1036
as(S'and'
p1037
S'live'
p1038
S'tiles'
p1039
tp1040
(lp1041
(I4
I22
F0.5
S'live'
p1042
I0
tp1043
a(I5
I86
F0.5
S'live'
p1044
I0
tp1045
a(I8
I19
F0.5
S'live'
p1046
I0
tp1047
a(I8
I34
F0.5
S'live'
p1048
I0
tp1049
a(I10
I84
F0.5
S'live'
p1050
I0
tp1051
a(I11
I77
F0.5
S'live'
p1052
I0
tp1053
a(I12
I33
F0.5
S'live'
p1054
I0
tp1055
a(I17
I49
F0.5
S'live'
p1056
I0
tp1057
a(I19
I86
F0.5
S'live'
p1058
I0
tp1059
a(I19
I215
F0.5
S'live'
p1060
I0
tp1061
a(I19
I215
F0.875
S'nice'
p1062
I0
tp1063
a(I19
I283
F0.5
S'live'
p1064
I0
tp1065
a(I4
I22
F0.5
g1042
I0
tp1066
a(I4
I23
F0.5
S'live'
p1067
I0
tp1068
a(I4
I23
I0
S'update'
p1069
I0
tp1070
a(I4
I131
F0.5
S'live'
p1071
I0
tp1072
a(I5
I86
F0.5
g1044
I0
tp1073
a(I8
I19
F0.5
g1046
I0
tp1074
a(I8
I34
F0.5
g1048
I0
tp1075
a(I10
I4
F0.5
S'live'
p1076
I0
tp1077
a(I10
I84
F0.5
g1050
I0
tp1078
a(I11
I77
F0.5
g1052
I0
tp1079
a(I12
I33
F0.5
g1054
I0
tp1080
a(I17
I49
F0.5
g1056
I0
tp1081
a(I17
I51
F0.5
S'live'
p1082
I0
tp1083
a(I19
I86
F0.5
g1058
I0
tp1084
a(I19
I215
F0.5
g1060
I0
tp1085
a(I19
I215
F0.875
g1062
I0
tp1086
a(I19
I283
F0.5
g1064
I0
tp1087
a(I4
I22
F0.5
g1042
I0
tp1088
a(I4
I23
F0.5
g1067
I0
tp1089
a(I4
I23
I0
g1069
I0
tp1090
a(I4
I131
F0.5
g1071
I0
tp1091
a(I5
I86
F0.5
g1044
I0
tp1092
a(I5
I252
F0.125
S'first'
p1093
I0
tp1094
a(I8
I19
F0.5
g1046
I0
tp1095
a(I8
I34
F0.5
g1048
I0
tp1096
a(I10
I4
F0.5
g1076
I0
tp1097
a(I10
I59
F0.875
S'important'
p1098
I0
tp1099
a(I10
I84
F0.5
g1050
I0
tp1100
a(I11
I77
F0.5
g1052
I0
tp1101
a(I11
I95
F-0.375
S'simple'
p1102
I0
tp1103
a(I12
I33
F0.5
g1054
I0
tp1104
a(I17
I49
F0.5
g1056
I0
tp1105
a(I17
I51
F0.5
g1082
I0
tp1106
a(I19
I86
F0.5
g1058
I0
tp1107
a(I19
I215
F0.5
g1060
I0
tp1108
a(I19
I215
F0.875
g1062
I0
tp1109
a(I19
I283
F0.5
g1064
I0
tp1110
a(I21
I7
I0
S'many'
p1111
I0
tp1112
a(I21
I7
F-0.375
S'top'
p1113
I0
tp1114
a(I21
I14
I0
S'same'
p1115
I0
tp1116
as.