(dp0
(S'seller'
p1
tp2
(lp3
(I10
I32
F-0.125
S'overall'
p4
I19
tp5
as(S'android'
p6
tp7
(lp8
(I6
I3
F0.125
S'first'
p9
I0
tp10
a(I14
I42
I0
S'update'
p11
I0
tp12
a(I16
I65
F0.375
S'new'
p13
I0
tp14
as(S'battery'
p15
tp16
(lp17
(I8
I43
F0.25
S'bigger'
p18
I15
tp19
a(I8
I43
F-0.625
S'average'
p20
I15
tp21
a(I12
I6
F1.0
S'good'
p22
I15
tp23
a(I12
I28
F0.75
S'due'
p24
I15
tp25
a(I12
I28
F-0.25
S'low'
p26
I15
tp27
a(I12
I30
I0
S'external'
p28
I15
tp29
a(I14
I8
F-0.25
S'low'
p30
I15
tp31
a(I16
I70
F0.625
S'removable'
p32
I15
tp33
a(I16
I71
F-0.75
S'short'
p34
I15
tp35
as(S'smartphone'
p36
tp37
(lp38
(I6
I18
I0
S'only'
p39
I0
tp40
a(I10
I50
F-0.625
S'want'
p41
I0
tp42
a(I10
I50
F0.5
S'functional'
p43
I0
tp44
a(I12
I7
F0.875
S'happy'
p45
I0
tp46
a(I16
I78
I0
S'few'
p47
I0
tp48
a(I16
I78
F-0.25
S'modern'
p49
I0
tp50
as(S'physical'
p51
S'keyboard'
p52
tp53
(lp54
(I7
I18
I0
S'physical'
p55
I0
tp56
a(I7
I19
I0
S'physical'
p57
I0
tp58
a(I8
I5
I0
S'physical'
p59
I0
tp60
a(I8
I5
F0.5
S'willing'
p61
I0
tp62
a(I8
I42
I0
S'physical'
p63
I0
tp64
a(I12
I26
I0
S'physical'
p65
I0
tp66
a(I6
I8
F0.375
S'flexible'
p67
I2
tp68
a(I7
I12
F1.0
S'enjoy'
p69
I2
tp70
a(I7
I12
I0
S'full'
p71
I2
tp72
a(I7
I13
I0
S'full'
p73
I2
tp74
a(I7
I18
I0
g55
I2
tp75
a(I7
I19
I0
g57
I2
tp76
a(I8
I5
I0
g59
I2
tp77
a(I8
I5
F0.5
g61
I2
tp78
a(I8
I15
F-0.75
S'comfortable'
p79
I2
tp80
a(I8
I42
I0
g63
I2
tp81
a(I8
I43
I0
S'tactile'
p82
I2
tp83
a(I9
I1
F0.625
S'easy'
p84
I2
tp85
a(I10
I21
I0
S'normal'
p86
I2
tp87
a(I10
I42
F0.5
S'flat'
p88
I2
tp89
a(I12
I4
F0.875
S'nice'
p90
I2
tp91
a(I12
I26
I0
g65
I2
tp92
a(I16
I56
F-0.375
S'smaller'
p93
I2
tp94
a(I16
I79
F0.5
S'functional'
p95
I2
tp96
as(S'samsung'
p97
tp98
(lp99
(I10
I17
F-0.5
S'miss'
p100
I7
tp101
a(I10
I17
I0
S'old'
p102
I7
tp103
a(I10
I26
F0.25
S'original'
p104
I7
tp105
as(S'camera'
p106
tp107
(lp108
(I10
I9
I0
S'self-portrait'
p109
I1
tp110
a(I10
I9
F0.625
S'easy'
p111
I1
tp112
a(I10
I45
F-0.125
S'slow'
p113
I1
tp114
a(I12
I5
I0
S'great'
p115
I1
tp116
a(I12
I5
I0
S'anymore'
p117
I1
tp118
a(I14
I35
F-0.625
S'quite'
p119
I1
tp120
a(I16
I5
F0.125
S'digital'
p121
I1
tp122
as(S'touch'
p123
S'screen'
p124
tp125
(lp126
(I8
I0
F0.5
S'touch'
p127
I2
tp128
a(I14
I30
I0
S'sensitive'
p129
I2
tp130
as.