(dp0
(S'battery'
p1
S'life'
p2
tp3
(lp4
(I1
I236
I0
S'later'
p5
I1
tp6
a(I1
I266
F1.0
S'better'
p7
I1
tp8
a(I1
I282
F-0.5
S'poor'
p9
I1
tp10
a(I2
I47
F1.0
S'good'
p11
I1
tp12
a(I4
I38
F-0.5
S'poor'
p13
I1
tp14
a(I4
I72
I0
S'normal'
p15
I1
tp16
a(I4
I111
I0
S'great'
p17
I1
tp18
a(I4
I229
F1.0
S'good'
p19
I1
tp20
a(I6
I4
F-0.5
S'long'
p21
I1
tp22
a(I6
I112
F-0.625
S'bad'
p23
I1
tp24
a(I1
I236
I0
g5
I19
tp25
a(I2
I47
F1.0
g11
I19
tp26
a(I4
I72
I0
g15
I19
tp27
a(I4
I111
I0
g17
I19
tp28
a(I4
I229
F1.0
g19
I19
tp29
a(I0
I12
F0.375
S'alive'
p30
I15
tp31
a(I1
I59
F0.375
S'honest'
p32
I15
tp33
a(I1
I59
F-0.5
S'sure'
p34
I15
tp35
a(I1
I59
F-0.75
S'unlucky'
p36
I15
tp37
a(I1
I69
F0.375
S'new'
p38
I15
tp39
a(I1
I69
F0.125
S'last'
p40
I15
tp41
a(I1
I126
F-0.625
S'other'
p42
I15
tp43
a(I1
I263
I0
S'fast'
p44
I15
tp45
a(I1
I266
F1.0
g7
I15
tp46
a(I1
I282
F-0.5
g9
I15
tp47
a(I2
I58
F0.5
S'true'
p48
I15
tp49
a(I2
I58
F1.0
S'best'
p50
I15
tp51
a(I4
I1
I0
S'fast'
p52
I15
tp53
a(I4
I38
F-0.5
g13
I15
tp54
a(I4
I39
F0.375
S'extended'
p55
I15
tp56
a(I4
I50
I0
S'sense'
p57
I15
tp58
a(I4
I50
F0.25
S'larger'
p59
I15
tp60
a(I4
I58
F0.375
S'extended'
p61
I15
tp62
a(I4
I141
I0
S'full'
p63
I15
tp64
a(I4
I141
I0
S'charged'
p65
I15
tp66
a(I4
I269
I0
S'faster'
p67
I15
tp68
a(I4
I270
I0
S'fast'
p69
I15
tp70
a(I5
I60
I0
S'more'
p71
I15
tp72
a(I5
I67
F0.125
S'last'
p73
I15
tp74
a(I5
I122
I0
S'wish'
p75
I15
tp76
a(I5
I122
F0.5
S'stronger'
p77
I15
tp78
a(I6
I4
F-0.5
g21
I15
tp79
a(I6
I6
I0
S'fastest'
p80
I15
tp81
a(I6
I73
F0.125
S'last'
p82
I15
tp83
a(I6
I74
I0
S'big'
p84
I15
tp85
a(I6
I112
F-0.625
g23
I15
tp86
a(I6
I146
F0.25
S'main'
p87
I15
tp88
a(I6
I146
F-0.25
S'breakage'
p89
I15
tp90
as(S'motorola'
p91
tp92
(lp93
(I1
I234
F0.25
S'original'
p94
I0
tp95
a(I3
I46
F0.5
S'loyal'
p96
I0
tp97
a(I4
I20
F0.875
S'nice'
p98
I0
tp99
as(S'camera'
p100
tp101
(lp102
(I2
I75
F1.0
S'good'
p103
I1
tp104
a(I4
I40
I0
S'slower'
p105
I1
tp106
a(I4
I170
I0
S'great'
p107
I1
tp108
a(I4
I243
F1.0
S'good'
p109
I1
tp110
a(I4
I247
F1.0
S'good'
p111
I1
tp112
a(I6
I87
F-0.375
S'top'
p113
I1
tp114
a(I6
I87
F-0.5
S'heavy'
p115
I1
tp116
a(I6
I178
I0
S'great'
p117
I1
tp118
as(S'plus'
p119
tp120
(lp121
(I1
I15
F-0.125
S'super'
p122
I16
tp123
as(S'iphone'
p124
tp125
(lp126
(I1
I86
I0
S'particular'
p127
I1
tp128
a(I1
I119
I0
S'faster'
p129
I1
tp130
a(I1
I119
I-100
S'down.-maybe'
p131
I1
tp132
a(I2
I41
F0.5
S'second'
p133
I1
tp134
a(I2
I75
F1.0
S'good'
p135
I1
tp136
a(I2
I75
I0
S'current'
p137
I1
tp138
a(I2
I87
F0.5
S'whole'
p139
I1
tp140
a(I5
I22
F-0.75
S'bright'
p141
I1
tp142
a(I5
I22
F0.25
S'sharp'
p143
I1
tp144
a(I6
I89
F0.25
S'bigger'
p145
I1
tp146
a(I6
I141
F1.0
S'good'
p147
I1
tp148
a(I6
I177
I0
S'old'
p149
I1
tp150
as(S'speed'
p151
tp152
(lp153
(I2
I94
I0
S'incredible'
p154
I9
tp155
a(I6
I133
I0
S'cable'
p156
I9
tp157
a(I6
I159
F0.875
S'nice'
p158
I9
tp159
as(S'internet'
p160
tp161
(lp162
(I2
I91
I0
S'basic'
p163
I6
tp164
as(S'droid'
p165
S'razr'
p166
tp167
(lp168
(I1
I25
F0.375
S'new'
p169
I0
tp170
a(I4
I168
F-0.125
S'overall'
p171
I0
tp172
a(I6
I82
I0
S'lightweight'
p173
I0
tp174
a(I6
I82
F0.25
S'portable'
p175
I0
tp176
a(I6
I142
F0.25
S'bigger'
p177
I0
tp178
a(I1
I25
F0.375
g169
I0
tp179
a(I1
I136
F0.25
S'original'
p180
I0
tp181
a(I1
I234
I0
S'old'
p182
I0
tp183
a(I2
I94
I-100
S'user-centric'
p184
I0
tp185
a(I3
I10
F0.125
S'first'
p186
I0
tp187
a(I4
I168
F-0.125
g171
I0
tp188
a(I6
I26
F0.25
S'original'
p189
I0
tp190
a(I6
I28
I0
S'current'
p191
I0
tp192
as(S'social'
p193
S'media'
p194
tp195
(lp196
(I5
I75
I0
S'social'
p197
I0
tp198
a(I5
I77
I0
S'social'
p199
I0
tp200
a(I6
I98
I0
S'social'
p201
I0
tp202
as(S'2'
p203
S'3'
p204
S'hours'
p205
tp206
(lp207
(I4
I234
F-0.25
S'low'
p208
I0
tp209
a(I1
I57
F0.875
S'music'
p210
I0
tp211
a(I4
I98
I0
S'more'
p212
I0
tp213
a(I4
I208
F1.0
S'good'
p214
I0
tp215
a(I4
I234
F-0.25
g208
I0
tp216
a(I6
I158
F0.625
S'easy'
p217
I0
tp218
as(S'pocket'
p219
tp220
(lp221
(I0
I21
F-0.625
S'light'
p222
I17
tp223
a(I0
I21
F-0.25
S'thin'
p224
I17
tp225
as(S'verizon'
p226
tp227
(lp228
(I0
I88
F0.25
S'helpful'
p229
I0
tp230
a(I1
I136
F-0.5
S'sure'
p231
I0
tp232
a(I1
I136
F0.75
S'worth'
p233
I0
tp234
a(I1
I136
F0.375
S'new'
p235
I0
tp236
a(I1
I161
F-0.5
S'actual'
p237
I0
tp238
a(I1
I205
F0.375
S'much'
p239
I0
tp240
a(I1
I211
F1.0
S'good'
p241
I0
tp242
a(I1
I211
F0.5
S'expensive'
p243
I0
tp244
a(I3
I29
F0.5
S'told'
p245
I0
tp246
a(I6
I49
F-0.375
S'nearest'
p247
I0
tp248
as(S'glass'
p249
tp250
(lp251
(I2
I69
F-0.75
S'tough'
p252
I9
tp253
a(I2
I91
F-0.125
S'mine'
p254
I9
tp255
as(S'ice'
p256
S'cream'
p257
S'sandwich'
p258
tp259
(lp260
(I0
I23
F-0.125
S'bean'
p261
I0
tp262
a(I0
I23
F-0.125
g261
I0
tp263
as(S'razr'
p264
S'maxx'
p265
tp266
(lp267
(I2
I56
F-0.625
S'want'
p268
I0
tp269
a(I1
I141
F0.375
S'new'
p270
I0
tp271
a(I1
I177
F0.875
S'nice'
p272
I0
tp273
a(I1
I191
F-0.375
S'crash'
p274
I0
tp275
a(I1
I275
F-0.5
S'less'
p276
I0
tp277
a(I2
I19
F0.25
S'original'
p278
I0
tp279
a(I2
I22
F0.25
S'original'
p280
I0
tp281
a(I2
I30
F0.375
S'new'
p282
I0
tp283
a(I2
I56
F-0.625
g268
I0
tp284
a(I3
I30
F-0.875
S'trouble'
p285
I0
tp286
a(I4
I152
I0
S'such'
p287
I0
tp288
a(I5
I32
F-0.75
S'comfortable'
p289
I0
tp290
a(I5
I32
F-0.625
S'light'
p291
I0
tp292
a(I6
I82
I0
g173
I0
tp293
a(I6
I82
F0.25
g175
I0
tp294
a(I6
I130
F0.25
S'read'
p295
I0
tp296
a(I6
I142
F0.25
g177
I0
tp297
a(I6
I166
F1.0
S'better'
p298
I0
tp299
a(I6
I58
F0.25
S'read'
p300
I0
tp301
as(S'upgrade'
p302
tp303
(lp304
(I1
I73
I0
S'next'
p305
I3
tp306
a(I1
I129
I0
S'latest'
p307
I3
tp308
a(I4
I215
F0.125
S'first'
p309
I3
tp310
a(I4
I215
F0.5
S'second'
p311
I3
tp312
a(I6
I28
F0.5
S'eligible'
p313
I3
tp314
a(I6
I28
F0.375
S'early'
p315
I3
tp316
a(I6
I42
I0
S'next'
p317
I3
tp318
as(S'music'
p319
tp320
(lp321
(I3
I8
F1.0
S'good'
p322
I0
tp323
a(I3
I10
I0
S'same'
p324
I0
tp325
as(S'data'
p326
tp327
(lp328
(I0
I27
I0
S'slim'
p329
I13
tp330
a(I0
I27
I0
S'signal'
p331
I13
tp332
a(I0
I74
I0
S'signal'
p333
I13
tp334
as(S'smart'
p335
S'actions'
p336
tp337
(lp338
(I4
I22
F0.625
S'easy'
p339
I0
tp340
a(I1
I138
F1.0
S'best'
p341
I10
tp342
a(I1
I155
F0.125
S'first'
p343
I10
tp344
a(I4
I121
F0.125
S'first'
p345
I10
tp346
a(I5
I13
F-0.625
S'other'
p347
I10
tp348
as(S'customer'
p349
S'service'
p350
tp351
(lp352
(I1
I148
F-0.625
S'useless'
p353
I3
tp354
a(I4
I227
F0.625
S'hold'
p355
I3
tp356
a(I4
I227
I0
S'third'
p357
I3
tp358
a(I1
I148
F-0.625
g353
I16
tp359
a(I4
I185
F-0.625
S'bad'
p360
I11
tp361
a(I4
I185
F0.5
S'loyal'
p362
I11
tp363
a(I4
I227
F0.625
g355
I11
tp364
a(I4
I227
I0
g357
I11
tp365
as(S'wireless'
p366
tp367
(lp368
(I1
I97
F0.125
S'first'
p369
I0
tp370
a(I4
I110
I0
S'fast'
p371
I0
tp372
a(I5
I117
F-0.125
S'super'
p373
I0
tp374
as(S'apps'
p375
tp376
(lp377
(I1
I114
F0.375
S'much'
p378
I0
tp379
a(I1
I114
F0.625
S'easier'
p380
I0
tp381
a(I1
I128
I0
S'many'
p382
I0
tp383
a(I1
I130
I0
S'commercial'
p384
I0
tp385
a(I1
I276
F0.25
S'favorite'
p386
I0
tp387
a(I3
I5
I0
S'many'
p388
I0
tp389
a(I3
I5
F-0.625
S'other'
p390
I0
tp391
a(I4
I14
F-0.625
S'free'
p392
I0
tp393
a(I4
I135
F-0.5
S'sure'
p394
I0
tp395
a(I4
I135
F-0.625
S'other'
p396
I0
tp397
a(I5
I57
F-0.625
S'free'
p398
I0
tp399
a(I6
I169
F-0.375
S'simple'
p400
I0
tp401
as(S'amazon'
p402
tp403
(lp404
(I1
I90
F-0.5
S'regular'
p405
I13
tp406
as.