(dp0
(S'problem'
p1
tp2
(lp3
(I48
I0
I0
S'mobile'
p4
tp5
as(S'perfect'
p6
tp7
(lp8
(I141
I0
F-0.375
S'small'
p9
tp10
a(I148
I0
F0.375
S'new'
p11
tp12
as(S'battery'
p13
S'life'
p14
tp15
(lp16
(I19
I2
F-0.5
S'weak'
p17
tp18
a(I21
I10
F0.125
S'last'
p19
tp20
a(I21
I10
I0
S'such'
p21
tp22
a(I79
I30
F1.0
S'best'
p23
tp24
a(I83
I2
F1.0
S'good'
p25
tp26
a(I103
I0
F1.0
S'good'
p27
tp28
a(I112
I0
F-0.5
S'poor'
p29
tp30
a(I112
I5
F0.25
S'stellar'
p31
tp32
a(I135
I0
F-0.75
S'short'
p33
tp34
as(S'talk'
p35
tp36
(lp37
(I21
I7
F0.625
S'straight'
p38
tp39
a(I21
I14
F0.625
S'straight'
p40
tp41
a(I42
I1
F0.625
S'straight'
p42
tp43
a(I62
I3
F0.625
S'straight'
p44
tp45
a(I67
I0
F0.625
S'straight'
p46
tp47
a(I72
I2
F0.625
S'straight'
p48
tp49
a(I79
I12
F0.625
S'straight'
p50
tp51
a(I81
I0
F0.625
S'straight'
p52
tp53
a(I106
I3
F0.625
S'straight'
p54
tp55
a(I120
I0
F0.625
S'straight'
p56
tp57
a(I129
I0
F0.625
S'straight'
p58
tp59
a(I129
I2
F0.625
S'straight'
p60
tp61
a(I132
I0
F0.625
S'straight'
p62
tp63
as(S'nice'
p64
tp65
(lp66
(I102
I1
I0
S'big'
p67
tp68
as(S'screen'
p69
tp70
(lp71
(I21
I9
I0
S'large'
p72
tp73
a(I41
I1
F0.625
S'perfect'
p74
tp75
a(I79
I15
I0
S'large'
p76
tp77
a(I79
I17
I0
S'large'
p78
tp79
a(I79
I18
F0.25
S'sharp'
p80
tp81
a(I79
I18
F0.625
S'easy'
p82
tp83
a(I79
I20
F0.5
S'clear'
p84
tp85
a(I79
I25
I0
S'fast'
p86
tp87
a(I88
I0
F-0.625
S'light'
p88
tp89
a(I88
I0
F1.0
S'good'
p90
tp91
a(I112
I2
F-0.625
S'lighter'
p92
tp93
a(I112
I5
I0
S'hot'
p94
tp95
a(I140
I1
F0.125
S'first'
p96
tp97
as(S'service'
p98
tp99
(lp100
(I6
I24
F1.0
S'good'
p101
tp102
as(S'everything'
p103
tp104
(lp105
(I23
I1
I0
S'great'
p106
tp107
a(I146
I2
F-0.125
S'foreign'
p108
tp109
as(S'problems'
p110
tp111
(lp112
(I50
I6
F-0.125
S'bean'
p113
tp114
a(I98
I0
F-0.75
S'little'
p115
tp116
a(I99
I0
I0
S'few'
p117
tp118
as(S'samsung'
p119
tp120
(lp121
(I24
I2
I0
S'standard'
p122
tp123
a(I39
I0
I0
S'real'
p124
tp125
a(I74
I2
F-0.625
S'other'
p126
tp127
a(I142
I1
F0.25
S'original'
p128
tp129
as(S'camera'
p130
tp131
(lp132
(I116
I3
F1.0
S'good'
p133
tp134
a(I117
I2
F0.875
S'nice'
p135
tp136
as(S'life'
p137
tp138
(lp139
(I21
I10
I0
g21
tp140
a(I112
I5
F0.25
g31
tp141
a(I135
I0
F-0.75
g33
tp142
as(S'with'
p143
S'straight'
p144
S'talk'
p145
tp146
(lp147
(I21
I7
F0.625
g38
tp148
a(I62
I3
F0.625
g44
tp149
a(I67
I0
F0.625
g46
tp150
a(I72
I2
F0.625
g48
tp151
a(I81
I0
F0.625
g52
tp152
a(I120
I0
F0.625
g56
tp153
a(I129
I2
F0.625
g60
tp154
a(I132
I0
F0.625
g62
tp155
as(S'straight'
p156
S'talk'
p157
tp158
(lp159
(I21
I7
F0.625
g38
tp160
a(I21
I14
F0.625
g40
tp161
a(I42
I1
F0.625
g42
tp162
a(I62
I3
F0.625
g44
tp163
a(I67
I0
F0.625
g46
tp164
a(I72
I2
F0.625
g48
tp165
a(I79
I12
F0.625
g50
tp166
a(I81
I0
F0.625
g52
tp167
a(I106
I3
F0.625
g54
tp168
a(I120
I0
F0.625
g56
tp169
a(I129
I0
F0.625
g58
tp170
a(I129
I2
F0.625
g60
tp171
a(I132
I0
F0.625
g62
tp172
as(S'skyrocket'
p173
tp174
(lp175
(I112
I3
F0.375
S'available'
p176
tp177
as(S'quality'
p178
tp179
(lp180
(I30
I2
I0
S'fast'
p181
tp182
a(I41
I2
I0
S'great'
p183
tp184
a(I41
I2
F1.0
S'good'
p185
tp186
a(I73
I0
F1.0
S'good'
p187
tp188
a(I73
I0
I0
S'useful'
p189
tp190
a(I83
I2
I0
S'great'
p191
tp192
a(I148
I2
I0
S'great'
p193
tp194
as(S'product'
p195
tp196
(lp197
(I0
I1
F1.0
S'good'
p198
tp199
a(I0
I3
F0.375
S'early'
p200
tp201
a(I10
I1
F-0.5
S'complaint'
p202
tp203
a(I10
I3
F0.375
S'new'
p204
tp205
a(I47
I0
F0.125
S'first'
p206
tp207
a(I105
I0
F0.875
S'happy'
p208
tp209
as(S'mobile'
p210
tp211
(lp212
(I7
I1
F-0.875
S'worst'
p213
tp214
as(S'galaxy'
p215
tp216
(lp217
(I50
I8
F0.5
S'comparable'
p218
tp219
a(I79
I19
F0.25
S'sharp'
p220
tp221
a(I79
I19
I0
S'old'
p222
tp223
a(I79
I19
F0.25
S'sharper'
p224
tp225
a(I98
I0
F-0.125
S'overall'
p226
tp227
a(I147
I2
F1.0
S'good'
p228
tp229
as(S'features'
p230
tp231
(lp232
(I63
I0
F0.375
S'available'
p233
tp234
a(I79
I0
I0
S'many'
p235
tp236
a(I109
I0
I0
S'great'
p237
tp238
as(S'flash'
p239
tp240
(lp241
(I79
I39
F0.5
S'drive'
p242
tp243
a(I79
I52
F0.375
S'new'
p244
tp245
a(I79
I52
F1.0
S'best'
p246
tp247
as(S'feature'
p248
tp249
(lp250
(I74
I2
F0.875
S'important'
p251
tp252
a(I115
I0
F-0.375
S'disable'
p253
tp254
as(S'seller'
p255
tp256
(lp257
(I1
I0
F1.0
S'good'
p258
tp259
a(I111
I5
I0
S'great'
p260
tp261
as(S'android'
p262
tp263
(lp264
(I112
I0
F0.125
S'first'
p265
tp266
a(I117
I1
F0.125
S'first'
p267
tp268
as(S'case'
p269
tp270
(lp271
(I22
I1
F0.5
S'careful'
p272
tp273
as(S'works'
p274
tp275
(lp276
(I30
I3
I0
S'great'
p277
tp278
a(I130
I0
I0
S'most'
p279
tp280
as(S'battery'
p281
tp282
(lp283
(I2
I1
F-0.75
S'dead'
p284
tp285
a(I2
I4
F0.375
S'new'
p286
tp287
a(I2
I4
F0.375
S'new'
p288
tp289
a(I6
I7
I0
S'generic'
p290
tp291
a(I19
I0
F-0.5
S'weak'
p292
tp293
a(I19
I2
F-0.5
g17
tp294
a(I21
I10
F0.125
g19
tp295
a(I40
I1
I0
S'least'
p296
tp297
a(I70
I5
F0.375
S'extra'
p298
tp299
a(I79
I30
F1.0
g23
tp300
a(I81
I4
F0.375
S'new'
p301
tp302
a(I83
I2
F1.0
g25
tp303
a(I100
I3
F0.125
S'last'
p304
tp305
a(I103
I0
F1.0
g27
tp306
a(I112
I0
F-0.5
g29
tp307
a(I112
I2
F0.5
S'greater'
p308
tp309
a(I124
I2
I0
S'faster'
p310
tp311
a(I142
I1
F0.125
S'last'
p312
tp313
a(I142
I2
F0.125
S'last'
p314
tp315
as(S'came'
p316
tp317
(lp318
(I79
I52
I0
S'android'
p319
tp320
as(S'samsung'
p321
S'galaxy'
p322
tp323
(lp324
(I74
I2
F-0.625
g126
tp325
as(S'cell'
p326
tp327
(lp328
(I129
I1
F1.0
S'best'
p329
tp330
as(S'sim'
p331
S'card'
p332
tp333
(lp334
(I61
I0
I0
S'current'
p335
tp336
a(I79
I7
I0
S'standard'
p337
tp338
a(I79
I10
I0
S'standard'
p339
tp340
a(I79
I10
I0
S'sized'
p341
tp342
a(I95
I1
F0.375
S'new'
p343
tp344
a(I134
I0
I0
S'european'
p345
tp346
a(I148
I4
F-0.5
S'regular'
p347
tp348
as(S'charge'
p349
tp350
(lp351
(I2
I4
I0
S'full'
p352
tp353
a(I79
I32
F-0.75
S'single'
p354
tp355
as(S'sd'
p356
S'card'
p357
tp358
(lp359
(I79
I34
I0
S'external'
p360
tp361
a(I79
I35
I0
S'internal'
p362
tp363
a(I79
I39
I0
S'sd'
p364
tp365
a(I79
I39
F0.5
S'personal'
p366
tp367
a(I79
I41
I0
S'external'
p368
tp369
as(S'price'
p370
tp371
(lp372
(I44
I1
F1.0
S'good'
p373
tp374
a(I73
I2
F1.0
S'good'
p375
tp376
a(I134
I1
F1.0
S'good'
p377
tp378
a(I138
I0
I0
S'great'
p379
tp380
a(I140
I2
F0.375
S'much'
p381
tp382
as(S'time'
p383
tp384
(lp385
(I16
I2
F-0.5
S'long'
p386
tp387
a(I35
I0
F0.375
S'extra'
p388
tp389
a(I41
I4
I0
S'same'
p390
tp391
a(I62
I3
F0.125
S'first'
p392
tp393
a(I105
I2
F0.375
S'much'
p394
tp395
a(I106
I5
F0.375
S'new'
p396
tp397
a(I114
I0
I0
S'normal'
p398
tp399
a(I135
I0
F0.625
S'correct'
p400
tp401
as(S'fine'
p402
tp403
(lp404
(I79
I12
F-0.5
S'sure'
p405
tp406
a(I79
I12
F0.25
S'unlocked'
p407
tp408
as(S'good'
p409
tp410
(lp411
(I128
I0
F1.0
S'good'
p412
tp413
as(S'card'
p414
tp415
(lp416
(I79
I10
I0
g339
tp417
a(I79
I10
I0
g341
tp418
a(I79
I39
I0
g364
tp419
as(S'charger'
p420
tp421
(lp422
(I11
I0
F0.375
S'new'
p423
tp424
a(I37
I2
F-0.75
S'wrong'
p425
tp426
a(I111
I4
F0.375
S'honest'
p427
tp428
as(S'size'
p429
tp430
(lp431
(I15
I1
F0.125
S'weigh'
p432
tp433
a(I32
I2
F0.625
S'easy'
p434
tp435
a(I32
I2
F0.625
S'easy'
p436
tp437
a(I79
I20
I0
S'standard'
p438
tp439
a(I79
I20
F-0.5
S'regular'
p440
tp441
a(I138
I0
F1.0
S'better'
p442
tp443
a(I141
I0
I0
S'big'
p444
tp445
as(S'apps'
p446
tp447
(lp448
(I34
I1
I0
S'useful'
p449
tp450
a(I34
I1
I0
S'more'
p451
tp452
a(I62
I3
F0.25
S'helpful'
p453
tp454
a(I76
I3
F-0.625
S'free'
p455
tp456
a(I79
I36
I0
S'downloaded'
p457
tp458
a(I79
I42
I0
S'few'
p459
tp460
a(I79
I42
I0
S'more'
p461
tp462
a(I79
I42
I0
S'later'
p463
tp464
a(I102
I2
I0
S'android'
p465
tp466
a(I141
I0
I0
S'same'
p467
tp468
as(S'days'
p469
tp470
(lp471
(I8
I4
I0
S'next'
p472
tp473
a(I21
I12
I0
S'later'
p474
tp475
a(I52
I0
I0
S'few'
p476
tp477
a(I78
I0
I0
S'few'
p478
tp479
a(I111
I3
I0
S'few'
p480
tp481
as(S'working'
p482
tp483
(lp484
(I121
I0
F1.0
S'good'
p485
tp486
a(I128
I0
F1.0
S'good'
p487
tp488
as.