(dp0
(S'problem'
p1
tp2
(lp3
(I1
I0
I0
S'economic'
p4
tp5
a(I47
I6
I0
S'only'
p6
tp7
a(I69
I0
F-0.375
S'serious'
p8
tp9
as(S'perfect'
p10
tp11
(lp12
(I31
I0
F-0.375
S'near'
p13
tp14
as(S'battery'
p15
S'life'
p16
tp17
(lp18
(I124
I3
F1.0
S'good'
p19
tp20
as(S'purchase'
p21
tp22
(lp23
(I90
I0
I0
S'great'
p24
tp25
as(S'service'
p26
tp27
(lp28
(I90
I1
F1.0
S'good'
p29
tp30
a(I107
I0
F1.0
S'good'
p31
tp32
a(I107
I0
F1.0
S'good'
p33
tp34
a(I141
I0
F0.5
S'technical'
p35
tp36
a(I175
I1
F0.125
S'able'
p37
tp38
a(I175
I1
I0
S'mobile'
p39
tp40
as(S'everything'
p41
tp42
(lp43
(I17
I0
F1.0
S'good'
p44
tp45
a(I46
I2
I0
S'great'
p46
tp47
a(I179
I1
F0.25
S'suppose'
p48
tp49
as(S'camera'
p50
tp51
(lp52
(I53
I0
F1.0
S'good'
p53
tp54
a(I133
I0
I0
S'great'
p55
tp56
as(S'product'
p57
tp58
(lp59
(I37
I0
F0.375
S'new'
p60
tp61
a(I96
I1
F0.75
S'due'
p62
tp63
a(I147
I0
F1.0
S'good'
p64
tp65
a(I182
I0
F-0.75
S'comfortable'
p66
tp67
a(I182
I0
F0.625
S'easy'
p68
tp69
a(I182
I0
F1.0
S'good'
p70
tp71
as(S'n'
p72
S'perfect'
p73
tp74
(lp75
(I31
I0
F-0.375
g13
tp76
as(S'work'
p77
tp78
(lp79
(I134
I0
F0.375
S'new'
p80
tp81
as(S'seller'
p82
tp83
(lp84
(I109
I2
F0.375
S'much'
p85
tp86
a(I109
I2
F-0.25
S'disappointed'
p87
tp88
a(I160
I0
I0
S'great'
p89
tp90
as(S'case'
p91
tp92
(lp93
(I124
I13
F0.375
S'indestructible'
p94
tp95
a(I183
I3
F-0.875
S'hard'
p96
tp97
as(S'works'
p98
tp99
(lp100
(I7
I1
I0
S'great'
p101
tp102
a(I58
I0
I0
S'great'
p103
tp104
as(S'venezuela'
p105
tp106
(lp107
(I18
I1
I0
S'least'
p108
tp109
a(I97
I1
F-0.889
S'unfortunate'
p110
tp111
as(S'battery'
p112
tp113
(lp114
(I138
I0
F-0.875
S'worst'
p115
tp116
as(S'cell'
p117
tp118
(lp119
(I66
I1
F1.0
S'good'
p120
tp121
a(I80
I0
F0.375
S'new'
p122
tp123
a(I99
I0
F1.0
S'good'
p124
tp125
a(I151
I1
I0
S'more'
p126
tp127
as(S'blackberry'
p128
tp129
(lp130
(I47
I7
I0
S'more'
p131
tp132
a(I63
I0
I0
S'real'
p133
tp134
a(I77
I1
F1.0
S'good'
p135
tp136
a(I77
I1
F0.125
S'first'
p137
tp138
a(I161
I0
F0.25
S'refurbished'
p139
tp140
as(S'cellular'
p141
S'provider'
p142
tp143
(lp144
(I47
I4
I0
S'cellular'
p145
tp146
a(I47
I11
I0
S'cellular'
p147
tp148
a(I47
I14
I0
S'more'
p149
tp150
as(S'quad'
p151
S'band'
p152
tp153
(lp154
(I7
I2
F-0.625
S'other'
p155
tp156
as(S'time'
p157
tp158
(lp159
(I124
I14
I0
S'more'
p160
tp161
a(I170
I0
I0
S'few'
p162
tp163
as(g72
S'venezuela'
p164
tp165
(lp166
(I18
I1
I0
g108
tp167
a(I97
I1
F-0.889
g110
tp168
as(S'movistar'
p169
tp170
(lp171
(I176
I3
F0.625
S'perfect'
p172
tp173
as(S'en'
p174
S'venezuela'
p175
tp176
(lp177
(I18
I1
I0
g108
tp178
a(I97
I1
F-0.889
g110
tp179
as.