(dp0
(S'battery'
p1
S'life'
p2
tp3
(lp4
(I1
I2
F1.0
S'good'
p5
I1
tp6
a(I1
I5
I0
S'great'
p7
I1
tp8
a(I1
I14
F-0.5
S'long'
p9
I1
tp10
a(I8
I54
F1.0
S'good'
p11
I1
tp12
a(I8
I56
F-0.125
S'overall'
p13
I1
tp14
a(I8
I56
I0
S'great'
p15
I1
tp16
a(I8
I64
F-0.5
S'less'
p17
I1
tp18
a(I8
I67
F-0.625
S'other'
p19
I1
tp20
a(I8
I67
F-0.25
S'lower'
p21
I1
tp22
a(I8
I84
F0.625
S'easy'
p23
I1
tp24
a(I8
I54
F1.0
g11
I19
tp25
a(I8
I56
I0
g15
I19
tp26
a(I8
I64
F-0.5
g17
I19
tp27
a(I8
I67
F-0.625
g19
I19
tp28
a(I8
I67
F-0.25
g21
I19
tp29
a(I8
I84
F0.625
g23
I19
tp30
a(I1
I2
F1.0
g5
I15
tp31
a(I1
I5
I0
g7
I15
tp32
a(I1
I14
F-0.5
g9
I15
tp33
a(I5
I2
F0.125
S'last'
p34
I15
tp35
a(I8
I56
F-0.125
g13
I15
tp36
a(I10
I4
F0.375
S'new'
p37
I15
tp38
as(S'nokia'
p39
tp40
(lp41
(I5
I7
F1.0
S'good'
p42
I0
tp43
a(I8
I2
F0.5
S'told'
p44
I0
tp45
a(I8
I37
F0.375
S'much'
p46
I0
tp47
a(I8
I56
F-0.625
S'other'
p48
I0
tp49
as(S'sim'
p50
S'card'
p51
tp52
(lp53
(I8
I35
F-0.25
S'ready'
p54
I0
tp55
a(I10
I3
F-0.5
S'less'
p56
I0
tp57
as(S'sound'
p58
S'quality'
p59
tp60
(lp61
(I7
I4
I0
S'most'
p62
I0
tp63
a(I8
I13
F0.5
S'clear'
p64
I0
tp65
a(I8
I56
F1.0
S'good'
p66
I0
tp67
as.