(dp0
(S'color'
p1
S'saturation'
p2
tp3
(lp4
(I92
I44
F0.625
S'perfect'
p5
tp6
as(S'right'
p7
tp8
(lp9
(I130
I5
F-0.375
S'top'
p10
tp11
as(S'motorola'
p12
tp13
(lp14
(I7
I10
F0.25
S'original'
p15
tp16
a(I20
I3
F0.25
S'responsive'
p17
tp18
a(I23
I28
I0
S'cooperative'
p19
tp20
a(I37
I9
F0.25
S'helpful'
p21
tp22
a(I42
I3
F-0.5
S'unwanted'
p23
tp24
a(I46
I3
F-0.5
S'less'
p25
tp26
a(I46
I5
F-0.125
S'invest'
p27
tp28
a(I52
I10
F0.125
S'able'
p29
tp30
a(I61
I12
F-0.625
S'glad'
p31
tp32
a(I64
I6
I0
S'own'
p33
tp34
a(I71
I0
F0.375
S'new'
p35
tp36
a(I73
I21
I0
S'own'
p37
tp38
a(I91
I8
F0.875
S'nice'
p39
tp40
a(I108
I11
F1.0
S'best'
p41
tp42
a(I134
I13
I0
S'many'
p43
tp44
a(I134
I13
F-0.375
S'exchanged'
p45
tp46
a(I141
I0
F0.25
S'original'
p47
tp48
a(I149
I1
F1.0
S'good'
p49
tp50
a(I159
I6
F-0.125
S'blackberry'
p51
tp52
a(I166
I2
F0.5
S'willing'
p53
tp54
a(I178
I5
F-0.75
S'modest'
p55
tp56
a(I196
I0
F-0.5
S'sure'
p57
tp58
a(I209
I4
F-0.625
S'other'
p59
tp60
a(I217
I25
F0.125
S'last'
p61
tp62
a(I218
I6
F0.375
S'reliable'
p63
tp64
as(S'to'
p65
S'battery'
p66
S'life'
p67
tp68
(lp69
(I10
I9
F-0.75
S'short'
p70
tp71
a(I15
I4
I0
S'android'
p72
tp73
a(I19
I3
F-0.5
S'long'
p74
tp75
a(I26
I8
F0.625
S'removable'
p76
tp77
a(I26
I8
F1.0
S'good'
p78
tp79
a(I33
I5
I0
S'only'
p80
tp81
a(I33
I5
F-0.875
S'negative'
p82
tp83
a(I33
I5
F1.0
S'better'
p84
tp85
a(I36
I9
F0.125
S'solid'
p86
tp87
a(I39
I21
F0.125
S'spectacular'
p88
tp89
a(I41
I4
F-0.5
S'insane'
p90
tp91
a(I41
I5
F0.875
S'important'
p92
tp93
a(I49
I7
F0.25
S'bigger'
p94
tp95
a(I52
I10
F0.375
S'much'
p96
tp97
a(I52
I10
I0
S'such'
p98
tp99
a(I52
I19
I0
S'large'
p100
tp101
a(I52
I19
F0.625
S'extraordinary'
p102
tp103
a(I65
I1
I0
S'appear'
p104
tp105
a(I92
I42
I0
S'real'
p106
tp107
a(I93
I11
F1.0
S'good'
p108
tp109
a(I97
I0
F-0.625
S'bad'
p110
tp111
a(I97
I0
F0.125
S'last'
p112
tp113
a(I97
I0
F1.0
S'best'
p114
tp115
a(I104
I7
I0
S'great'
p116
tp117
a(I109
I2
F0.5
S'second'
p118
tp119
a(I110
I2
F0.25
S'larger'
p120
tp121
a(I110
I2
I0
S'internal'
p122
tp123
a(I132
I0
F0.75
S'due'
p124
tp125
a(I149
I1
F-0.5
S'poor'
p126
tp127
a(I164
I11
F1.0
S'good'
p128
tp129
a(I165
I1
I0
S'great'
p130
tp131
a(I200
I1
I0
S'extensive'
p132
tp133
a(I201
I1
F1.0
S'good'
p134
tp135
a(I202
I4
F1.0
S'good'
p136
tp137
a(I211
I34
F-0.25
S'low'
p138
tp139
a(I213
I0
I0
S'more'
p140
tp141
as(S'call'
p142
S'quality'
p143
tp144
(lp145
(I29
I3
F1.0
S'good'
p146
tp147
a(I61
I4
F1.0
S'good'
p148
tp149
a(I72
I11
I0
S'great'
p150
tp151
a(I72
I11
F0.5
S'clear'
p152
tp153
a(I76
I6
I0
S'great'
p154
tp155
a(I97
I0
F1.0
S'good'
p156
tp157
a(I97
I0
F0.875
S'nice'
p158
tp159
a(I109
I8
I0
S'great'
p160
tp161
a(I201
I22
I0
S'great'
p162
tp163
a(I201
I23
I0
S'great'
p164
tp165
as(S'n'
p166
S'pocket'
p167
tp168
(lp169
(I86
I2
F0.625
S'concrete'
p170
tp171
a(I126
I6
I0
S'big'
p172
tp173
a(I174
I3
F-0.25
S'thin'
p174
tp175
as(S'droid'
p176
S'razr'
p177
S'maxx'
p178
tp179
(lp180
(I13
I0
F0.375
S'new'
p181
tp182
a(I14
I8
F1.0
S'good'
p183
tp184
a(I75
I4
F0.125
S'last'
p185
tp186
a(I101
I9
F-0.25
S'thin'
p187
tp188
a(I110
I0
F0.25
S'original'
p189
tp190
a(I111
I34
F-0.5
S'regular'
p191
tp192
a(I111
I49
I0
S'android'
p193
tp194
a(I111
I51
F0.875
S'important'
p195
tp196
a(I116
I34
F0.75
S'due'
p197
tp198
a(I149
I1
F0.375
S'extra'
p199
tp200
a(I159
I4
F0.375
S'new'
p201
tp202
a(I190
I0
F0.375
S'new'
p203
tp204
a(I190
I0
F0.125
S'last'
p205
tp206
a(I216
I0
I0
S'many'
p207
tp208
as(S'years'
p209
tp210
(lp211
(I26
I3
F-0.25
S'ready'
p212
tp213
a(I26
I3
I0
S'normal'
p214
tp215
a(I27
I0
F-0.625
S'free'
p216
tp217
a(I27
I3
F-0.5
S'sure'
p218
tp219
a(I60
I37
F-0.375
S'crazy'
p220
tp221
a(I60
I37
I0
S'few'
p222
tp223
a(I71
I22
F0.125
S'last'
p224
tp225
a(I71
I25
F-0.25
S'past'
p226
tp227
a(I82
I16
I0
S'old'
p228
tp229
a(I89
I47
I0
S'next'
p230
tp231
a(I89
I47
I0
S'least'
p232
tp233
a(I109
I0
F-0.25
S'past'
p234
tp235
a(I109
I0
I0
S'most'
p236
tp237
a(I111
I2
F-0.25
S'past'
p238
tp239
a(I111
I2
I0
S'incredible'
p240
tp241
a(I118
I0
I0
S'many'
p242
tp243
a(I133
I0
I0
S'old'
p244
tp245
a(I140
I1
I0
S'android'
p246
tp247
a(I183
I8
I0
S'few'
p248
tp249
a(I192
I0
I0
S'old'
p250
tp251
a(I202
I2
I0
S'few'
p252
tp253
as(S'quality'
p254
tp255
(lp256
(I29
I3
F1.0
g146
tp257
a(I61
I4
F1.0
g148
tp258
a(I72
I11
I0
g150
tp259
a(I72
I11
F0.5
g152
tp260
a(I76
I6
I0
g154
tp261
a(I82
I11
F-0.25
S'low'
p262
tp263
a(I85
I4
F0.375
S'loud'
p264
tp265
a(I97
I0
F0.875
g158
tp266
a(I109
I8
I0
g160
tp267
a(I133
I3
I0
S'high'
p268
tp269
a(I149
I8
I0
S'great'
p270
tp271
a(I155
I8
I0
S'high'
p272
tp273
a(I175
I10
F-0.5
S'poor'
p274
tp275
a(I201
I22
I0
g162
tp276
a(I201
I23
I0
g164
tp277
as(S'samsung'
p278
S'galaxy'
p279
S'nexus'
p280
tp281
(lp282
(I42
I3
I0
S'galaxy'
p283
tp284
a(I193
I3
F0.75
S'due'
p285
tp286
as(S'end'
p287
S'of'
p288
S'day'
p289
tp290
(lp291
(I64
I3
F0.375
S'following'
p292
tp293
a(I111
I8
I0
S'same'
p294
tp295
as(S'verizon'
p296
tp297
(lp298
(I9
I8
I0
S'least'
p299
tp300
a(I42
I3
F-0.25
S'google'
p301
tp302
a(I46
I3
I0
S'cooperative'
p303
tp304
a(I49
I0
F0.5
S'true'
p305
tp306
a(I71
I27
I0
S'total'
p307
tp308
a(I89
I93
F-0.875
S'hard'
p309
tp310
a(I92
I14
I0
S'local'
p311
tp312
a(I98
I12
F0.875
S'nice'
p313
tp314
a(I98
I13
F0.625
S'superior'
p315
tp316
a(I119
I8
F1.0
S'best'
p317
tp318
a(I164
I5
F-0.75
S'sick'
p319
tp320
a(I192
I12
I0
S'local'
p321
tp322
a(I192
I22
I0
S'local'
p323
tp324
a(I195
I1
F1.0
S'good'
p325
tp326
a(I210
I30
F-0.5
S'long'
p327
tp328
a(I210
I30
I0
S'big'
p329
tp330
a(I210
I30
F-0.375
S'red'
p331
tp332
a(I211
I18
I0
S'incredible'
p333
tp334
a(I218
I12
I0
S'normal'
p335
tp336
as(S'32'
p337
S'gb'
p338
tp339
(lp340
(I49
I6
I0
S'internal'
p341
tp342
a(I185
I12
I0
S'standard'
p343
tp344
as(S'less'
p345
tp346
(lp347
(I110
I6
F0.625
S'easier'
p348
tp349
as(S'case'
p350
tp351
(lp352
(I17
I15
I0
S'sturdy'
p353
tp354
a(I31
I20
F0.125
S'first'
p355
tp356
a(I31
I21
I0
S'active'
p357
tp358
a(I41
I17
I0
S'more'
p359
tp360
a(I77
I11
F0.125
S'protective'
p361
tp362
a(I86
I1
I0
S'special'
p363
tp364
a(I105
I1
I0
S'different'
p365
tp366
a(I133
I9
I0
S'more'
p367
tp368
a(I133
I9
F0.5
S'careful'
p369
tp370
a(I133
I9
F1.0
S'good'
p371
tp372
a(I171
I12
F1.0
S'better'
p373
tp374
a(I173
I8
F0.125
S'protective'
p375
tp376
as(S'learning'
p377
S'curve'
p378
tp379
(lp380
(I32
I3
F-0.375
S'small'
p381
tp382
a(I64
I3
F0.75
S'due'
p383
tp384
as(S'razr'
p385
S'maxx'
p386
tp387
(lp388
(I1
I0
F0.875
S'happy'
p389
tp390
a(I13
I0
F0.375
g181
tp391
a(I14
I8
F1.0
g183
tp392
a(I33
I1
I0
S'faster'
p393
tp394
a(I39
I4
I0
S'standard'
p395
tp396
a(I52
I11
I0
S'standard'
p397
tp398
a(I52
I16
I0
S'standard'
p399
tp400
a(I52
I17
I0
S'standard'
p401
tp402
a(I52
I17
F0.625
S'decent'
p403
tp404
a(I52
I17
F-0.375
S'near'
p405
tp406
a(I52
I18
I0
S'many'
p407
tp408
a(I74
I11
I0
S'more'
p409
tp410
a(I74
I12
I0
S'cool'
p411
tp412
a(I89
I80
I0
S'common'
p413
tp414
a(I101
I9
F-0.25
g187
tp415
a(I111
I34
F-0.5
g191
tp416
a(I111
I49
I0
g193
tp417
a(I111
I51
F0.875
g195
tp418
a(I116
I34
F0.75
g197
tp419
a(I120
I10
I0
S'many'
p420
tp421
a(I130
I3
F0.5
S'second'
p422
tp423
a(I147
I9
F0.625
S'perfect'
p424
tp425
a(I149
I1
F0.375
g199
tp426
a(I159
I4
F0.375
g201
tp427
a(I180
I8
I0
S'great'
p428
tp429
a(I190
I0
F0.125
g205
tp430
a(I192
I21
F0.875
S'happy'
p431
tp432
a(I192
I35
F0.75
S'worth'
p433
tp434
a(I202
I16
I0
S'more'
p435
tp436
a(I202
I16
F-0.75
S'comfortable'
p437
tp438
a(I202
I16
F-0.5
S'regular'
p439
tp440
a(I210
I27
F0.75
S'beautiful'
p441
tp442
a(I210
I27
F0.375
S'new'
p443
tp444
a(I210
I27
I0
S'updated'
p445
tp446
a(I211
I0
F0.375
S'new'
p447
tp448
a(I216
I0
I0
g207
tp449
a(I218
I10
F0.125
S'first'
p450
tp451
a(I218
I13
F0.375
S'new'
p452
tp453
as(S'and'
p454
S'battery'
p455
S'life'
p456
tp457
(lp458
(I10
I9
F-0.75
g70
tp459
a(I15
I4
I0
g72
tp460
a(I19
I3
F-0.5
g74
tp461
a(I26
I8
F0.625
g76
tp462
a(I26
I8
F1.0
g78
tp463
a(I32
I1
F1.0
S'good'
p464
tp465
a(I33
I5
I0
g80
tp466
a(I33
I5
F-0.875
g82
tp467
a(I33
I5
F1.0
g84
tp468
a(I36
I9
F0.125
g86
tp469
a(I39
I21
F0.125
g88
tp470
a(I41
I5
F0.875
g92
tp471
a(I49
I7
F0.25
g94
tp472
a(I97
I0
F-0.625
g110
tp473
a(I97
I0
F0.125
g112
tp474
a(I97
I0
F1.0
g114
tp475
a(I104
I8
F-0.5
S'sure'
p476
tp477
a(I109
I2
F0.5
g118
tp478
a(I110
I2
F0.25
g120
tp479
a(I110
I2
I0
g122
tp480
a(I125
I2
F1.0
S'good'
p481
tp482
a(I125
I2
F1.0
S'better'
p483
tp484
a(I132
I0
F0.75
g124
tp485
a(I139
I8
F1.0
S'good'
p486
tp487
a(I149
I1
F-0.5
g126
tp488
a(I151
I9
F0.875
S'attractive'
p489
tp490
a(I164
I11
F1.0
g128
tp491
a(I165
I1
I0
g130
tp492
a(I168
I11
F0.25
S'stellar'
p493
tp494
a(I200
I1
I0
g132
tp495
a(I201
I1
F1.0
g134
tp496
a(I201
I16
F-0.75
S'impossible'
p497
tp498
a(I207
I0
F-0.25
S'battery'
p499
tp500
a(I211
I34
F-0.25
g138
tp501
as(S'charge'
p502
tp503
(lp504
(I38
I2
F-0.75
S'single'
p505
tp506
a(I42
I8
F-0.75
S'single'
p507
tp508
a(I52
I9
F-0.75
S'single'
p509
tp510
a(I52
I18
I0
S'full'
p511
tp512
a(I63
I4
I0
S'full'
p513
tp514
a(I89
I38
I0
S'full'
p515
tp516
a(I104
I4
F-0.75
S'single'
p517
tp518
a(I163
I12
F-0.5
S'longer'
p519
tp520
a(I183
I6
I0
S'full'
p521
tp522
a(I201
I13
I0
S'full'
p523
tp524
a(I217
I25
F-0.5
S'sure'
p525
tp526
as(S'ce'
p527
S'cream'
p528
S'sandwich'
p529
tp530
(lp531
(I52
I21
F0.375
S'available'
p532
tp533
a(I91
I6
I0
S'android'
p534
tp535
a(I189
I0
F0.625
S'perfect'
p536
tp537
a(I195
I14
I0
S'android'
p538
tp539
as(S'with'
p540
S'battery'
p541
S'life'
p542
tp543
(lp544
(I19
I3
F-0.5
g74
tp545
a(I23
I5
F0.375
S'reported'
p546
tp547
a(I23
I5
F-0.625
S'bad'
p548
tp549
a(I23
I5
F0.375
S'extended'
p550
tp551
a(I49
I7
F0.25
g94
tp552
a(I67
I8
I0
S'great'
p553
tp554
a(I85
I6
I0
S'great'
p555
tp556
a(I92
I42
I0
g106
tp557
a(I97
I0
F-0.625
g110
tp558
a(I97
I0
F0.125
g112
tp559
a(I97
I0
F1.0
g114
tp560
a(I104
I8
F-0.5
g476
tp561
a(I110
I2
F0.25
g120
tp562
a(I110
I2
I0
g122
tp563
a(I132
I0
F0.75
g124
tp564
a(I181
I1
F1.0
S'good'
p565
tp566
a(I200
I1
I0
g132
tp567
a(I202
I4
F1.0
g136
tp568
a(I213
I0
I0
g140
tp569
as(S'easy'
p570
S'to'
p571
S'use'
p572
tp573
(lp574
(I200
I1
I0
S'normal'
p575
tp576
a(I200
I1
F-0.5
S'heavier'
p577
tp578
as(S'battery'
p579
S'life'
p580
S'great'
p581
tp582
(lp583
(I19
I3
F-0.5
g74
tp584
a(I67
I8
I0
g553
tp585
a(I68
I6
I0
S'great'
p586
tp587
a(I85
I6
I0
g555
tp588
a(I97
I0
F-0.625
g110
tp589
a(I97
I0
F0.125
g112
tp590
a(I97
I0
F1.0
g114
tp591
a(I99
I4
I0
S'great'
p592
tp593
a(I104
I7
I0
g116
tp594
a(I110
I2
F0.25
g120
tp595
a(I110
I2
I0
g122
tp596
a(I120
I0
F0.125
S'impressive'
p597
tp598
a(I132
I0
F0.75
g124
tp599
a(I165
I1
I0
g130
tp600
a(I184
I2
I0
S'great'
p601
tp602
a(I200
I1
I0
g132
tp603
a(I201
I1
F1.0
g134
tp604
as(S'card'
p605
tp606
(lp607
(I14
I22
I0
S'sd'
p608
tp609
a(I30
I7
I0
S'old'
p610
tp611
a(I89
I65
F-0.125
S'mine'
p612
tp613
a(I196
I3
F0.625
S'removable'
p614
tp615
a(I203
I6
F0.375
S'available'
p616
tp617
a(I211
I10
F-0.75
S'wild'
p618
tp619
a(I211
I25
I0
S'incredible'
p620
tp621
as(S'love'
p622
tp623
(lp624
(I6
I0
F1.0
S'love'
p625
tp626
a(I6
I0
F1.0
S'good'
p627
tp628
a(I60
I14
I0
S'more'
p629
tp630
as(S'great'
p631
S'battery'
p632
S'life'
p633
tp634
(lp635
(I19
I3
F-0.5
g74
tp636
a(I67
I8
I0
g553
tp637
a(I68
I6
I0
g586
tp638
a(I85
I6
I0
g555
tp639
a(I97
I0
F-0.625
g110
tp640
a(I97
I0
F0.125
g112
tp641
a(I97
I0
F1.0
g114
tp642
a(I99
I4
I0
g592
tp643
a(I104
I7
I0
g116
tp644
a(I110
I2
F0.25
g120
tp645
a(I110
I2
I0
g122
tp646
a(I120
I0
F0.125
g597
tp647
a(I132
I0
F0.75
g124
tp648
a(I165
I1
I0
g130
tp649
a(I184
I2
I0
g601
tp650
a(I200
I1
I0
g132
tp651
a(I201
I1
F1.0
g134
tp652
as(S'wifi'
p653
tp654
(lp655
(I0
I8
F-0.125
S'public'
p656
tp657
a(I27
I6
F0.375
S'available'
p658
tp659
a(I50
I4
I0
S'great'
p660
tp661
a(I89
I20
F-0.5
S'sure'
p662
tp663
a(I107
I10
I0
S'sensitive'
p664
tp665
a(I203
I8
F-0.625
S'free'
p666
tp667
as(S'fast'
p668
tp669
(lp670
(I27
I5
F-0.125
S'super'
p671
tp672
a(I76
I0
F-0.125
S'super'
p673
tp674
a(I79
I21
F-0.125
S'super'
p675
tp676
a(I179
I5
F0.125
S'solid'
p677
tp678
as(S'times'
p679
tp680
(lp681
(I10
I9
I0
S'few'
p682
tp683
a(I10
I9
F0.125
S'able'
p684
tp685
a(I28
I8
F-0.75
S'worse'
p686
tp687
a(I28
I8
I0
S'many'
p688
tp689
a(I60
I25
F-0.875
S'hard'
p690
tp691
a(I86
I2
F-0.375
S'tile'
p692
tp693
a(I86
I2
I0
S'many'
p694
tp695
a(I89
I27
F-0.25
S'low'
p696
tp697
a(I89
I27
I0
S'most'
p698
tp699
a(I89
I33
I0
S'few'
p700
tp701
a(I89
I40
I0
S'many'
p702
tp703
a(I94
I1
I0
S'many'
p704
tp705
a(I116
I26
I0
S'many'
p706
tp707
a(I133
I2
F0.75
S'wonder'
p708
tp709
a(I170
I7
F-0.75
S'unresponsive'
p710
tp711
a(I211
I15
I0
S'many'
p712
tp713
as(S'problem'
p714
tp715
(lp716
(I9
I6
I0
S'same'
p717
tp718
a(I36
I2
F-0.75
S'worse'
p719
tp720
a(I56
I0
F0.125
S'first'
p721
tp722
a(I82
I4
I0
S'big'
p723
tp724
a(I89
I34
I0
S'big'
p725
tp726
a(I95
I7
I0
S'common'
p727
tp728
a(I169
I4
F-0.75
S'little'
p729
tp730
a(I169
I4
F-0.375
S'simple'
p731
tp732
a(I190
I5
F-0.375
S'small'
p733
tp734
as(S'a'
p735
S'droid'
p736
S'x'
p737
tp738
(lp739
(I71
I3
I0
S'old'
p740
tp741
a(I75
I3
I0
S'more'
p742
tp743
a(I75
I3
F0.5
S'functional'
p744
tp745
a(I75
I4
F0.125
g185
tp746
a(I93
I1
F-0.125
S'mine'
p747
tp748
a(I93
I1
F-0.75
S'had'
p749
tp750
a(I110
I0
F0.25
g189
tp751
a(I147
I5
F0.875
S'happy'
p752
tp753
a(I178
I10
F0.5
S'second'
p754
tp755
a(I190
I0
F0.375
g203
tp756
a(I214
I1
I0
S'old'
p757
tp758
as(g735
S'3rd'
p759
S'party'
p760
tp761
(lp762
(I30
I20
F-0.625
S'other'
p763
tp764
a(I137
I12
I0
S'more'
p765
tp766
as(S'service'
p767
tp768
(lp769
(I10
I4
F-0.875
S'awful'
p770
tp771
a(I10
I8
F1.0
S'better'
p772
tp773
a(I19
I1
I0
S'widest'
p774
tp775
a(I19
I1
F0.375
S'reliable'
p776
tp777
a(I19
I3
I0
S'great'
p778
tp779
a(I28
I8
F0.25
S'stellar'
p780
tp781
a(I28
I8
F0.375
S'reliable'
p782
tp783
a(I71
I25
F-0.875
S'trouble'
p784
tp785
a(I149
I0
F0.75
S'due'
p786
tp787
a(I178
I4
F0.625
S'major'
p788
tp789
a(I195
I1
F0.375
S'reliable'
p790
tp791
a(I211
I41
F0.875
S'happy'
p792
tp793
as(S'cream'
p794
S'sandwich'
p795
tp796
(lp797
(I52
I21
F0.375
g532
tp798
a(I91
I6
I0
g534
tp799
a(I189
I0
F0.625
g536
tp800
a(I195
I14
I0
g538
tp801
as(S'angry'
p802
S'birds'
p803
tp804
(lp805
(I67
I3
I0
S'angry'
p806
tp807
a(I82
I6
F0.125
S'entertaining'
p808
tp809
a(I208
I2
I0
S'angry'
p810
tp811
as(S'need'
p812
tp813
(lp814
(I94
I16
F-0.75
S'little'
p815
tp816
as(S'gorilla'
p817
S'glass'
p818
tp819
(lp820
(I77
I9
I0
S'great'
p821
tp822
a(I94
I4
I0
S'many'
p823
tp824
a(I129
I16
F-0.75
S'tough'
p825
tp826
a(I132
I1
F1.0
S'good'
p827
tp828
a(I132
I1
F-0.5
S'long'
p829
tp830
a(I211
I7
F0.25
S'sharp'
p831
tp832
as(S'with'
p833
S'razr'
p834
S'maxx'
p835
tp836
(lp837
(I33
I1
I0
g393
tp838
a(I52
I17
I0
g401
tp839
a(I52
I17
F0.625
g403
tp840
a(I52
I17
F-0.375
g405
tp841
a(I74
I12
I0
g411
tp842
a(I89
I80
I0
g413
tp843
a(I130
I3
F0.5
g422
tp844
a(I192
I21
F0.875
g431
tp845
a(I210
I27
F0.75
g441
tp846
a(I210
I27
F0.375
g443
tp847
a(I210
I27
I0
g445
tp848
as(S'on'
p849
S'battery'
p850
S'life'
p851
tp852
(lp853
(I7
I0
F0.125
S'first'
p854
tp855
a(I10
I9
F-0.75
g70
tp856
a(I15
I4
I0
g72
tp857
a(I19
I3
F-0.5
g74
tp858
a(I23
I5
F0.375
g546
tp859
a(I23
I5
F-0.625
g548
tp860
a(I23
I5
F0.375
g550
tp861
a(I33
I5
I0
g80
tp862
a(I33
I5
F-0.875
g82
tp863
a(I33
I5
F1.0
g84
tp864
a(I36
I8
F0.5
S'strong'
p865
tp866
a(I36
I9
F0.125
g86
tp867
a(I39
I21
F0.125
g88
tp868
a(I41
I4
F-0.5
g90
tp869
a(I41
I5
F0.875
g92
tp870
a(I49
I7
F0.25
g94
tp871
a(I52
I10
F0.375
g96
tp872
a(I52
I10
I0
g98
tp873
a(I52
I19
I0
g100
tp874
a(I52
I19
F0.625
g102
tp875
a(I65
I1
I0
g104
tp876
a(I89
I88
F-0.75
S'short'
p877
tp878
a(I92
I42
I0
g106
tp879
a(I93
I11
F1.0
g108
tp880
a(I97
I0
F-0.625
g110
tp881
a(I97
I0
F0.125
g112
tp882
a(I97
I0
F1.0
g114
tp883
a(I99
I4
I0
g592
tp884
a(I104
I7
I0
g116
tp885
a(I104
I8
F-0.5
g476
tp886
a(I109
I2
F0.5
g118
tp887
a(I110
I2
F0.25
g120
tp888
a(I110
I2
I0
g122
tp889
a(I111
I4
F0.125
S'first'
p890
tp891
a(I120
I0
F0.125
g597
tp892
a(I125
I2
F1.0
g481
tp893
a(I125
I2
F1.0
g483
tp894
a(I132
I0
F0.75
g124
tp895
a(I139
I6
F1.0
S'good'
p896
tp897
a(I139
I8
F1.0
g486
tp898
a(I142
I1
F-0.75
S'short'
p899
tp900
a(I149
I1
F-0.5
g126
tp901
a(I151
I9
F0.875
g489
tp902
a(I158
I0
F1.0
S'good'
p903
tp904
a(I161
I0
F1.0
S'good'
p905
tp906
a(I164
I11
F1.0
g128
tp907
a(I196
I6
F1.0
S'better'
p908
tp909
a(I200
I1
I0
g132
tp910
a(I201
I1
F1.0
g134
tp911
a(I201
I16
F-0.75
g497
tp912
a(I202
I4
F1.0
g136
tp913
a(I207
I0
F-0.25
g499
tp914
a(I211
I34
F-0.25
g138
tp915
a(I213
I0
I0
g140
tp916
as(S'droid'
p917
g737
tp918
(lp919
(I71
I3
I0
g740
tp920
a(I75
I3
I0
g742
tp921
a(I75
I3
F0.5
g744
tp922
a(I75
I4
F0.125
g185
tp923
a(I93
I1
F-0.125
g747
tp924
a(I93
I1
F-0.75
g749
tp925
a(I110
I0
F0.25
g189
tp926
a(I147
I5
F0.875
g752
tp927
a(I178
I10
F0.5
g754
tp928
a(I190
I0
F0.375
g203
tp929
a(I214
I1
I0
g757
tp930
as(S'azing'
p931
S'battery'
p932
S'life'
p933
tp934
(lp935
(I7
I0
F0.125
g854
tp936
a(I19
I3
F-0.5
g74
tp937
a(I200
I1
I0
g132
tp938
as(S'droid'
p939
tp940
(lp941
(I10
I20
F0.25
S'original'
p942
tp943
a(I35
I8
F0.25
S'original'
p944
tp945
a(I55
I5
F-0.75
S'unresponsive'
p946
tp947
a(I71
I3
I0
g740
tp948
a(I75
I4
F0.125
g185
tp949
a(I110
I0
F0.25
g189
tp950
a(I111
I12
I0
S'old'
p951
tp952
a(I111
I12
I0
S'incredible'
p953
tp954
a(I163
I1
F0.125
S'first'
p955
tp956
a(I178
I10
F0.5
g754
tp957
a(I185
I21
I0
S'great'
p958
tp959
a(I190
I0
F0.375
g203
tp960
a(I197
I0
F0.25
S'original'
p961
tp962
a(I201
I22
F1.0
S'better'
p963
tp964
a(I201
I22
F0.375
S'new'
p965
tp966
a(I203
I0
F0.875
S'happy'
p967
tp968
a(I205
I1
F0.125
S'first'
p969
tp970
a(I205
I4
F0.375
S'fine'
p971
tp972
a(I205
I4
I0
S'old'
p973
tp974
a(I205
I18
I0
S'old'
p975
tp976
a(I205
I18
F0.25
S'favorite'
p977
tp978
a(I214
I1
I0
g757
tp979
as(S'things'
p980
tp981
(lp982
(I10
I1
I0
S'more'
p983
tp984
a(I47
I0
I0
S'incredible'
p985
tp986
a(I47
I0
I0
S'many'
p987
tp988
a(I47
I0
I0
S'many'
p989
tp990
a(I47
I0
I0
S'great'
p991
tp992
a(I47
I7
F0.875
S'nice'
p993
tp994
a(I53
I2
F0.375
S'new'
p995
tp996
a(I61
I13
F1.0
S'better'
p997
tp998
a(I64
I4
F0.5
S'expensive'
p999
tp1000
a(I64
I4
I0
S'more'
p1001
tp1002
a(I67
I7
I0
S'only'
p1003
tp1004
a(I87
I1
I0
S'many'
p1005
tp1006
a(I103
I0
I0
S'such'
p1007
tp1008
a(I103
I0
F-0.75
S'little'
p1009
tp1010
a(I112
I7
F-0.375
S'crazy'
p1011
tp1012
a(I116
I42
I0
S'many'
p1013
tp1014
a(I116
I42
F-0.625
S'other'
p1015
tp1016
a(I149
I4
F-0.375
S'simple'
p1017
tp1018
a(I151
I14
I0
S'few'
p1019
tp1020
a(I162
I0
I0
S'fundamental'
p1021
tp1022
a(I164
I11
F1.0
S'good'
p1023
tp1024
a(I178
I11
I0
S'many'
p1025
tp1026
a(I186
I2
F-0.625
S'bad'
p1027
tp1028
a(I210
I23
F-0.5
S'relative'
p1029
tp1030
a(I211
I35
F-0.625
S'other'
p1031
tp1032
a(I216
I21
F0.125
S'practical'
p1033
tp1034
as(S'palm'
p1035
S'pre'
p1036
tp1037
(lp1038
(I154
I2
F0.5
S'absolute'
p1039
tp1040
as(S'power'
p1041
tp1042
(lp1043
(I40
I5
I0
S'more'
p1044
tp1045
a(I126
I10
I0
S'useful'
p1046
tp1047
a(I140
I13
I0
S'interim'
p1048
tp1049
a(I144
I1
I0
S'most'
p1050
tp1051
a(I146
I8
F0.75
S'due'
p1052
tp1053
a(I148
I5
F-0.5
S'less'
p1054
tp1055
a(I148
I5
F1.0
S'better'
p1056
tp1057
a(I150
I9
F-0.75
S'secondary'
p1058
tp1059
a(I202
I3
F0.125
S'memory'
p1060
tp1061
a(I218
I16
F-0.25
S'battery'
p1062
tp1063
a(I218
I16
F0.125
S'last'
p1064
tp1065
as(S'glass'
p1066
tp1067
(lp1068
(I0
I40
F0.5
S'firm'
p1069
tp1070
a(I29
I2
F0.875
S'nice'
p1071
tp1072
a(I37
I3
I0
S'many'
p1073
tp1074
a(I59
I9
F-0.625
S'shot'
p1075
tp1076
a(I77
I9
I0
g821
tp1077
a(I93
I9
I0
S'more'
p1078
tp1079
a(I111
I19
I0
S'same'
p1080
tp1081
a(I129
I16
F-0.75
g825
tp1082
a(I132
I1
F-0.5
g829
tp1083
a(I175
I5
I0
S'dial'
p1084
tp1085
as(S'razr'
p1086
tp1087
(lp1088
(I1
I4
I0
S'standard'
p1089
tp1090
a(I1
I8
F0.25
S'original'
p1091
tp1092
a(I10
I21
I0
S'more'
p1093
tp1094
a(I10
I21
F-0.75
S'comfortable'
p1095
tp1096
a(I13
I0
F0.375
g181
tp1097
a(I13
I1
F0.75
S'due'
p1098
tp1099
a(I14
I8
F1.0
g183
tp1100
a(I15
I8
I0
S'later'
p1101
tp1102
a(I31
I4
I0
S'standard'
p1103
tp1104
a(I39
I4
I0
g395
tp1105
a(I52
I16
I0
g399
tp1106
a(I52
I17
I0
g401
tp1107
a(I52
I17
F0.625
g403
tp1108
a(I52
I17
F-0.375
g405
tp1109
a(I52
I18
I0
g407
tp1110
a(I52
I27
I0
S'standard'
p1111
tp1112
a(I74
I11
I0
g409
tp1113
a(I74
I12
I0
g411
tp1114
a(I77
I7
F-0.25
S'google'
p1115
tp1116
a(I89
I80
I0
g413
tp1117
a(I92
I23
F-0.5
S'less'
p1118
tp1119
a(I93
I0
F0.375
S'new'
p1120
tp1121
a(I93
I15
I0
S'fast'
p1122
tp1123
a(I101
I9
F-0.25
g187
tp1124
a(I111
I34
F-0.5
g191
tp1125
a(I111
I51
F0.875
g195
tp1126
a(I120
I10
I0
g420
tp1127
a(I123
I7
F0.625
S'superior'
p1128
tp1129
a(I126
I3
F-0.5
S'regular'
p1130
tp1131
a(I130
I3
F0.5
g422
tp1132
a(I149
I1
F0.375
g199
tp1133
a(I149
I11
I0
S'standard'
p1134
tp1135
a(I156
I5
F0.375
S'new'
p1136
tp1137
a(I159
I4
F0.375
g201
tp1138
a(I192
I5
I0
S'old'
p1139
tp1140
a(I192
I21
F0.875
g431
tp1141
a(I195
I16
F0.5
S'hopeful'
p1142
tp1143
a(I201
I10
F0.25
S'original'
p1144
tp1145
a(I202
I16
F-0.5
g439
tp1146
a(I205
I4
I0
S'faster'
p1147
tp1148
a(I210
I27
F0.75
g441
tp1149
a(I210
I27
F0.375
g443
tp1150
a(I210
I27
I0
g445
tp1151
a(I211
I0
F0.375
g447
tp1152
a(I216
I0
I0
g207
tp1153
a(I218
I10
F0.125
g450
tp1154
a(I218
I13
F0.375
g452
tp1155
as(g735
S'long'
p1156
S'time'
p1157
tp1158
(lp1159
(I7
I1
I0
S'most'
p1160
tp1161
a(I67
I3
F-0.5
S'long'
p1162
tp1163
a(I76
I1
F-0.5
S'long'
p1164
tp1165
a(I85
I7
F-0.5
S'long'
p1166
tp1167
a(I163
I11
F-0.5
S'long'
p1168
tp1169
a(I178
I16
F0.5
S'willing'
p1170
tp1171
a(I195
I17
F-0.5
S'long'
p1172
tp1173
as(S'android'
p1174
tp1175
(lp1176
(I10
I1
F0.375
S'new'
p1177
tp1178
a(I60
I2
F0.125
S'first'
p1179
tp1180
a(I93
I25
F1.0
S'best'
p1181
tp1182
a(I103
I4
F0.125
S'typical'
p1183
tp1184
a(I111
I42
I0
S'standard'
p1185
tp1186
a(I149
I8
I0
S'generic'
p1187
tp1188
a(I164
I10
F0.375
S'new'
p1189
tp1190
a(I182
I2
F0.125
S'first'
p1191
tp1192
as(S'two'
p1193
S'days'
p1194
tp1195
(lp1196
(I1
I7
I0
S'later'
p1197
tp1198
a(I7
I2
I0
S'full'
p1199
tp1200
a(I7
I5
F0.125
S'first'
p1201
tp1202
a(I30
I11
I0
S'later'
p1203
tp1204
a(I98
I0
F-0.25
S'ready'
p1205
tp1206
a(I128
I3
I0
S'later'
p1207
tp1208
a(I174
I1
F0.125
S'solid'
p1209
tp1210
a(I183
I5
F-0.5
S'less'
p1211
tp1212
a(I199
I2
F-0.25
S'past'
p1213
tp1214
a(I216
I6
I0
S'switched'
p1215
tp1216
as(S'nexus'
p1217
tp1218
(lp1219
(I42
I3
I0
g283
tp1220
a(I42
I10
I0
S'galaxy'
p1221
tp1222
a(I42
I10
F0.75
S'due'
p1223
tp1224
a(I92
I16
F0.625
S'superior'
p1225
tp1226
a(I157
I5
F0.625
S'fair'
p1227
tp1228
a(I195
I5
F0.125
S'amazon'
p1229
tp1230
a(I195
I5
F0.5
S'second'
p1231
tp1232
a(I210
I3
I0
S'soft'
p1233
tp1234
a(I210
I23
F1.0
S'better'
p1235
tp1236
as(S'upgrade'
p1237
tp1238
(lp1239
(I3
I8
F0.625
S'major'
p1240
tp1241
a(I15
I1
F0.5
S'eligible'
p1242
tp1243
a(I30
I8
F0.75
S'due'
p1244
tp1245
a(I52
I5
F0.75
S'due'
p1246
tp1247
a(I70
I0
F0.625
S'major'
p1248
tp1249
a(I80
I1
I0
S'android'
p1250
tp1251
a(I200
I1
F0.25
S'recent'
p1252
tp1253
as(S'thing'
p1254
tp1255
(lp1256
(I3
I9
F-0.625
S'push'
p1257
tp1258
a(I3
I11
F1.0
S'good'
p1259
tp1260
a(I3
I11
F-0.625
S'natural'
p1261
tp1262
a(I28
I2
F0.5
S'obvious'
p1263
tp1264
a(I36
I8
F1.0
S'good'
p1265
tp1266
a(I47
I18
I0
S'haptic'
p1267
tp1268
a(I47
I18
I0
S'same'
p1269
tp1270
a(I56
I7
I0
S'same'
p1271
tp1272
a(I58
I2
F0.5
S'whole'
p1273
tp1274
a(I63
I4
I0
S'solar'
p1275
tp1276
a(I71
I21
F1.0
S'best'
p1277
tp1278
a(I74
I7
I0
S'same'
p1279
tp1280
a(I76
I6
I0
S'only'
p1281
tp1282
a(I89
I2
I0
S'same'
p1283
tp1284
a(I89
I2
F-0.625
S'sorry'
p1285
tp1286
a(I89
I66
F0.375
S'new'
p1287
tp1288
a(I97
I0
F-0.125
S'delete'
p1289
tp1290
a(I97
I0
F1.0
S'good'
p1291
tp1292
a(I97
I0
I0
S'same'
p1293
tp1294
a(I110
I2
I0
S'same'
p1295
tp1296
a(I117
I0
F1.0
S'best'
p1297
tp1298
a(I123
I8
I0
S'only'
p1299
tp1300
a(I129
I13
I0
S'same'
p1301
tp1302
a(I132
I2
I0
S'big'
p1303
tp1304
a(I136
I0
F0.375
S'much'
p1305
tp1306
a(I148
I11
I0
S'third'
p1307
tp1308
a(I154
I5
I0
S'same'
p1309
tp1310
a(I171
I16
F-0.75
S'impossible'
p1311
tp1312
a(I197
I2
F1.0
S'best'
p1313
tp1314
a(I201
I25
I0
S'entire'
p1315
tp1316
a(I211
I23
I0
S'same'
p1317
tp1318
as(S'data'
p1319
tp1320
(lp1321
(I0
I22
I0
S'internal'
p1322
tp1323
a(I10
I16
F-0.5
S'unlimited'
p1324
tp1325
a(I10
I16
I0
S'quick'
p1326
tp1327
a(I26
I21
I0
S'cellular'
p1328
tp1329
a(I73
I19
I0
S'next'
p1330
tp1331
a(I89
I92
I0
S'standard'
p1332
tp1333
a(I98
I6
F-0.5
S'unlimited'
p1334
tp1335
a(I114
I6
F-0.625
S'free'
p1336
tp1337
a(I114
I6
F0.375
S'available'
p1338
tp1339
a(I132
I2
F0.75
S'give'
p1340
tp1341
a(I132
I2
F0.5
S'technical'
p1342
tp1343
a(I165
I4
I0
S'signal'
p1344
tp1345
a(I171
I16
I0
S'fastest'
p1346
tp1347
a(I176
I7
F-0.5
S'poor'
p1348
tp1349
a(I176
I10
F-0.875
S'trouble'
p1350
tp1351
a(I192
I30
I0
S'monthly'
p1352
tp1353
a(I211
I41
F-0.625
S'free'
p1354
tp1355
as(S'alarm'
p1356
S'clock'
p1357
tp1358
(lp1359
(I192
I30
I0
S'useful'
p1360
tp1361
as(S'hours'
p1362
tp1363
(lp1364
(I21
I3
F-0.25
S'couple'
p1365
tp1366
a(I28
I4
F1.0
S'better'
p1367
tp1368
a(I30
I6
F0.625
S'easy'
p1369
tp1370
a(I31
I8
I0
S'many'
p1371
tp1372
a(I42
I1
F-0.125
S'overall'
p1373
tp1374
a(I42
I8
I0
S'least'
p1375
tp1376
a(I42
I10
I0
S'least'
p1377
tp1378
a(I42
I10
F-0.625
S'moderate'
p1379
tp1380
a(I42
I10
F-0.5
S'heavy'
p1381
tp1382
a(I52
I3
I0
S'more'
p1383
tp1384
a(I52
I4
I0
S'few'
p1385
tp1386
a(I52
I18
I0
S'few'
p1387
tp1388
a(I60
I17
I0
S'few'
p1389
tp1390
a(I65
I1
I0
S'empty'
p1391
tp1392
a(I67
I8
F0.875
S'music'
p1393
tp1394
a(I71
I4
I0
S'more'
p1395
tp1396
a(I85
I7
F0.5
S'reasonable'
p1397
tp1398
a(I114
I7
F1.0
S'best'
p1399
tp1400
a(I129
I11
I0
S'later'
p1401
tp1402
a(I156
I1
F-0.75
S'dead'
p1403
tp1404
a(I156
I1
I0
S'few'
p1405
tp1406
a(I166
I4
F-0.5
S'less'
p1407
tp1408
a(I180
I6
F0.125
S'last'
p1409
tp1410
a(I184
I5
F0.625
S'easy'
p1411
tp1412
a(I195
I2
F-0.5
S'less'
p1413
tp1414
a(I201
I14
F-0.5
S'less'
p1415
tp1416
as(S'work'
p1417
tp1418
(lp1419
(I0
I2
F-0.625
S'other'
p1420
tp1421
a(I0
I23
F-0.875
S'hard'
p1422
tp1423
a(I0
I23
F0.5
S'drive'
p1424
tp1425
a(I41
I28
F-0.5
S'sure'
p1426
tp1427
a(I89
I18
F0.5
S'drive'
p1428
tp1429
a(I89
I40
F-0.25
S'late'
p1430
tp1431
a(I123
I2
I0
S'standard'
p1432
tp1433
as(S'seems'
p1434
tp1435
(lp1436
(I180
I11
F-0.875
S'negative'
p1437
tp1438
as(S'never'
p1439
tp1440
(lp1441
(I47
I11
I0
S'incredible'
p1442
tp1443
as(S'battery'
p1444
S'life'
p1445
tp1446
(lp1447
(I7
I0
F0.125
g854
tp1448
a(I10
I9
F-0.75
g70
tp1449
a(I15
I4
I0
g72
tp1450
a(I19
I3
F-0.5
g74
tp1451
a(I23
I5
F0.375
g546
tp1452
a(I23
I5
F-0.625
g548
tp1453
a(I23
I5
F0.375
g550
tp1454
a(I26
I8
F0.625
g76
tp1455
a(I26
I8
F1.0
g78
tp1456
a(I32
I1
F1.0
g464
tp1457
a(I33
I5
I0
g80
tp1458
a(I33
I5
F-0.875
g82
tp1459
a(I33
I5
F1.0
g84
tp1460
a(I36
I8
F0.5
g865
tp1461
a(I36
I9
F0.125
g86
tp1462
a(I39
I21
F0.125
g88
tp1463
a(I41
I4
F-0.5
g90
tp1464
a(I41
I5
F0.875
g92
tp1465
a(I44
I1
I0
S'fast'
p1466
tp1467
a(I49
I7
F0.25
g94
tp1468
a(I52
I10
F0.375
g96
tp1469
a(I52
I10
I0
g98
tp1470
a(I52
I19
I0
g100
tp1471
a(I52
I19
F0.625
g102
tp1472
a(I61
I0
I0
S'phenomenal'
p1473
tp1474
a(I65
I1
I0
g104
tp1475
a(I67
I1
F0.125
S'first'
p1476
tp1477
a(I67
I8
I0
g553
tp1478
a(I68
I6
I0
g586
tp1479
a(I85
I6
I0
g555
tp1480
a(I89
I88
F-0.75
g877
tp1481
a(I92
I42
I0
g106
tp1482
a(I93
I11
F1.0
g108
tp1483
a(I97
I0
F-0.625
g110
tp1484
a(I97
I0
F0.125
g112
tp1485
a(I97
I0
F1.0
g114
tp1486
a(I99
I4
I0
g592
tp1487
a(I104
I7
I0
g116
tp1488
a(I104
I8
F-0.5
g476
tp1489
a(I109
I2
F0.5
g118
tp1490
a(I110
I2
F0.25
g120
tp1491
a(I110
I2
I0
g122
tp1492
a(I111
I4
F0.125
g890
tp1493
a(I120
I0
F0.125
g597
tp1494
a(I125
I2
F1.0
g481
tp1495
a(I125
I2
F1.0
g483
tp1496
a(I132
I0
F0.75
g124
tp1497
a(I139
I6
F1.0
g896
tp1498
a(I139
I8
F1.0
g486
tp1499
a(I142
I1
F-0.75
g899
tp1500
a(I149
I1
F-0.5
g126
tp1501
a(I151
I9
F0.875
g489
tp1502
a(I158
I0
F1.0
g903
tp1503
a(I161
I0
F1.0
g905
tp1504
a(I164
I11
F1.0
g128
tp1505
a(I165
I1
I0
g130
tp1506
a(I168
I11
F0.25
g493
tp1507
a(I181
I1
F1.0
g565
tp1508
a(I184
I2
I0
g601
tp1509
a(I196
I6
F1.0
g908
tp1510
a(I200
I1
I0
g132
tp1511
a(I201
I1
F1.0
g134
tp1512
a(I201
I16
F-0.75
g497
tp1513
a(I202
I4
F1.0
g136
tp1514
a(I207
I0
F-0.25
g499
tp1515
a(I211
I34
F-0.25
g138
tp1516
a(I213
I0
I0
g140
tp1517
a(I215
I10
F1.0
S'good'
p1518
tp1519
a(I218
I2
I0
S'incredible'
p1520
tp1521
as(S'maxx'
p1522
tp1523
(lp1524
(I1
I0
F0.875
g389
tp1525
a(I23
I15
F1.0
S'good'
p1526
tp1527
a(I23
I15
F0.875
S'nice'
p1528
tp1529
a(I33
I1
I0
g393
tp1530
a(I52
I11
I0
g397
tp1531
a(I52
I19
F0.75
S'beautiful'
p1532
tp1533
a(I60
I49
F-0.5
S'sure'
p1534
tp1535
a(I85
I4
F-0.375
S'small'
p1536
tp1537
a(I85
I4
F0.375
S'loud'
p1538
tp1539
a(I89
I30
F0.75
S'worth'
p1540
tp1541
a(I92
I31
F0.625
S'aware'
p1542
tp1543
a(I92
I40
F0.375
S'much'
p1544
tp1545
a(I94
I1
F0.5
S'compare'
p1546
tp1547
a(I96
I0
F-0.25
S'potential'
p1548
tp1549
a(I111
I49
I0
g193
tp1550
a(I116
I34
F0.75
g197
tp1551
a(I140
I8
I0
S'normal'
p1552
tp1553
a(I143
I7
F-0.375
S'smooth'
p1554
tp1555
a(I147
I8
F0.875
S'happy'
p1556
tp1557
a(I147
I8
F0.5
S'second'
p1558
tp1559
a(I147
I9
F0.625
g424
tp1560
a(I160
I0
F0.375
S'new'
p1561
tp1562
a(I171
I14
I0
S'more'
p1563
tp1564
a(I171
I14
F0.125
S'solid'
p1565
tp1566
a(I180
I8
I0
g428
tp1567
a(I183
I10
F0.375
S'new'
p1568
tp1569
a(I190
I0
F0.125
g205
tp1570
a(I192
I35
F0.75
g433
tp1571
a(I202
I16
I0
g435
tp1572
a(I202
I16
F-0.75
g437
tp1573
a(I210
I17
I0
S'more'
p1574
tp1575
a(I210
I21
F0.625
S'kind'
p1576
tp1577
as(S'to'
p1578
S'verizon'
p1579
S'store'
p1580
tp1581
(lp1582
(I92
I14
I0
g311
tp1583
a(I192
I12
I0
g321
tp1584
a(I192
I22
I0
g323
tp1585
a(I192
I22
I0
S'useful'
p1586
tp1587
as(S'love'
p1588
S'battery'
p1589
S'life'
p1590
tp1591
(lp1592
(I44
I1
I0
g1466
tp1593
a(I110
I2
F0.25
g120
tp1594
a(I110
I2
I0
g122
tp1595
as(S'problems'
p1596
tp1597
(lp1598
(I32
I2
I0
S'few'
p1599
tp1600
a(I62
I3
F-0.625
S'other'
p1601
tp1602
a(I73
I17
I0
S'same'
p1603
tp1604
a(I77
I14
I0
S'immune'
p1605
tp1606
a(I82
I17
I0
S'same'
p1607
tp1608
a(I158
I3
F0.25
S'original'
p1609
tp1610
a(I164
I1
F0.625
S'major'
p1611
tp1612
a(I164
I9
F0.625
S'major'
p1613
tp1614
as(S'motorola'
p1615
S'droid'
p1616
S'razr'
p1617
tp1618
(lp1619
(I13
I0
F0.375
g181
tp1620
a(I14
I8
F1.0
g183
tp1621
a(I64
I6
I0
g33
tp1622
a(I71
I0
F0.375
g35
tp1623
a(I101
I9
F-0.25
g187
tp1624
a(I149
I1
F1.0
g49
tp1625
a(I149
I1
F0.375
g199
tp1626
as(S'back'
p1627
tp1628
(lp1629
(I40
I1
I0
S'hot'
p1630
tp1631
a(I89
I41
F0.25
S'wind'
p1632
tp1633
a(I111
I11
F0.75
S'due'
p1634
tp1635
a(I111
I11
F0.375
S'extended'
p1636
tp1637
as(S'to'
p1638
S'razr'
p1639
S'maxx'
p1640
tp1641
(lp1642
(I1
I0
F0.875
g389
tp1643
a(I13
I0
F0.375
g181
tp1644
a(I14
I8
F1.0
g183
tp1645
a(I33
I1
I0
g393
tp1646
a(I52
I18
I0
g407
tp1647
a(I74
I12
I0
g411
tp1648
a(I101
I9
F-0.25
g187
tp1649
a(I111
I34
F-0.5
g191
tp1650
a(I111
I49
I0
g193
tp1651
a(I111
I51
F0.875
g195
tp1652
a(I116
I34
F0.75
g197
tp1653
a(I120
I10
I0
g420
tp1654
a(I130
I3
F0.5
g422
tp1655
a(I149
I1
F0.375
g199
tp1656
a(I159
I4
F0.375
g201
tp1657
a(I192
I21
F0.875
g431
tp1658
a(I202
I16
I0
g435
tp1659
a(I202
I16
F-0.75
g437
tp1660
a(I202
I16
F-0.5
g439
tp1661
a(I210
I27
F0.75
g441
tp1662
a(I210
I27
F0.375
g443
tp1663
a(I210
I27
I0
g445
tp1664
a(I216
I0
I0
g207
tp1665
as(g735
S'razr'
p1666
S'maxx'
p1667
tp1668
(lp1669
(I1
I0
F0.875
g389
tp1670
a(I13
I0
F0.375
g181
tp1671
a(I14
I8
F1.0
g183
tp1672
a(I33
I1
I0
g393
tp1673
a(I39
I4
I0
g395
tp1674
a(I52
I11
I0
g397
tp1675
a(I52
I16
I0
g399
tp1676
a(I52
I17
I0
g401
tp1677
a(I52
I17
F0.625
g403
tp1678
a(I52
I17
F-0.375
g405
tp1679
a(I52
I18
I0
g407
tp1680
a(I74
I11
I0
g409
tp1681
a(I74
I12
I0
g411
tp1682
a(I89
I80
I0
g413
tp1683
a(I101
I9
F-0.25
g187
tp1684
a(I111
I34
F-0.5
g191
tp1685
a(I111
I49
I0
g193
tp1686
a(I111
I51
F0.875
g195
tp1687
a(I116
I34
F0.75
g197
tp1688
a(I120
I10
I0
g420
tp1689
a(I130
I3
F0.5
g422
tp1690
a(I147
I9
F0.625
g424
tp1691
a(I149
I1
F0.375
g199
tp1692
a(I159
I4
F0.375
g201
tp1693
a(I180
I8
I0
g428
tp1694
a(I190
I0
F0.125
g205
tp1695
a(I192
I21
F0.875
g431
tp1696
a(I192
I35
F0.75
g433
tp1697
a(I202
I16
I0
g435
tp1698
a(I202
I16
F-0.75
g437
tp1699
a(I202
I16
F-0.5
g439
tp1700
a(I210
I27
F0.75
g441
tp1701
a(I210
I27
F0.375
g443
tp1702
a(I210
I27
I0
g445
tp1703
a(I211
I0
F0.375
g447
tp1704
a(I216
I0
I0
g207
tp1705
a(I218
I10
F0.125
g450
tp1706
a(I218
I13
F0.375
g452
tp1707
as(S'life'
p1708
tp1709
(lp1710
(I0
I3
F0.625
S'extraordinary'
p1711
tp1712
a(I0
I3
I0
S'unplugged'
p1713
tp1714
a(I10
I9
F-0.75
g70
tp1715
a(I15
I4
I0
g72
tp1716
a(I26
I8
F1.0
g78
tp1717
a(I26
I16
I0
S'adequate'
p1718
tp1719
a(I26
I16
I0
S'normal'
p1720
tp1721
a(I26
I35
I0
S'real'
p1722
tp1723
a(I36
I8
F0.5
g865
tp1724
a(I36
I9
F0.125
g86
tp1725
a(I41
I4
F-0.5
g90
tp1726
a(I41
I5
F0.875
g92
tp1727
a(I44
I1
I0
g1466
tp1728
a(I52
I10
I0
g98
tp1729
a(I65
I1
I0
g104
tp1730
a(I68
I6
I0
g586
tp1731
a(I85
I6
I0
g555
tp1732
a(I89
I88
F-0.75
g877
tp1733
a(I93
I11
F1.0
g108
tp1734
a(I97
I0
F0.125
g112
tp1735
a(I97
I0
F1.0
g114
tp1736
a(I99
I4
I0
g592
tp1737
a(I109
I2
F0.5
g118
tp1738
a(I125
I2
F1.0
g481
tp1739
a(I125
I2
F1.0
g483
tp1740
a(I139
I6
F1.0
g896
tp1741
a(I139
I24
I0
S'android'
p1742
tp1743
a(I151
I9
F0.875
g489
tp1744
a(I158
I0
F1.0
g903
tp1745
a(I161
I0
F1.0
g905
tp1746
a(I168
I11
F0.25
g493
tp1747
a(I171
I7
F0.625
S'easier'
p1748
tp1749
a(I178
I16
F0.625
S'easier'
p1750
tp1751
a(I178
I16
F-0.5
S'less'
p1752
tp1753
a(I178
I16
F0.5
S'expensive'
p1754
tp1755
a(I181
I1
F1.0
g565
tp1756
a(I184
I2
I0
g601
tp1757
a(I200
I1
I0
g132
tp1758
a(I207
I0
F-0.25
g499
tp1759
a(I215
I10
F1.0
g1518
tp1760
a(I218
I2
I0
g1520
tp1761
as(S'droid'
p1762
S'razr'
p1763
tp1764
(lp1765
(I13
I0
F0.375
g181
tp1766
a(I14
I8
F1.0
g183
tp1767
a(I35
I8
F0.25
g944
tp1768
a(I75
I4
F0.125
g185
tp1769
a(I77
I7
F-0.25
g1115
tp1770
a(I101
I9
F-0.25
g187
tp1771
a(I110
I0
F0.25
g189
tp1772
a(I111
I34
F-0.5
g191
tp1773
a(I111
I51
F0.875
g195
tp1774
a(I149
I1
F0.375
g199
tp1775
a(I159
I4
F0.375
g201
tp1776
a(I190
I0
F0.375
g203
tp1777
a(I205
I4
F0.375
g971
tp1778
a(I205
I4
I0
g973
tp1779
a(I205
I4
I0
g1147
tp1780
a(I216
I0
I0
g207
tp1781
as(S'good'
p1782
S'battery'
p1783
S'life'
p1784
tp1785
(lp1786
(I19
I3
F-0.5
g74
tp1787
a(I26
I8
F0.625
g76
tp1788
a(I26
I8
F1.0
g78
tp1789
a(I32
I1
F1.0
g464
tp1790
a(I36
I8
F0.5
g865
tp1791
a(I36
I9
F0.125
g86
tp1792
a(I39
I21
F0.125
g88
tp1793
a(I65
I1
I0
g104
tp1794
a(I68
I6
I0
g586
tp1795
a(I93
I11
F1.0
g108
tp1796
a(I97
I0
F-0.625
g110
tp1797
a(I97
I0
F0.125
g112
tp1798
a(I97
I0
F1.0
g114
tp1799
a(I125
I2
F1.0
g481
tp1800
a(I125
I2
F1.0
g483
tp1801
a(I139
I6
F1.0
g896
tp1802
a(I139
I8
F1.0
g486
tp1803
a(I149
I1
F-0.5
g126
tp1804
a(I158
I0
F1.0
g903
tp1805
a(I161
I0
F1.0
g905
tp1806
a(I164
I11
F1.0
g128
tp1807
a(I181
I1
F1.0
g565
tp1808
a(I201
I1
F1.0
g134
tp1809
a(I202
I4
F1.0
g136
tp1810
a(I215
I10
F1.0
g1518
tp1811
as(S'music'
p1812
tp1813
(lp1814
(I49
I7
F-0.25
S'google'
p1815
tp1816
a(I92
I42
F-0.375
S'daily'
p1817
tp1818
as(g735
S'full'
p1819
S'day'
p1820
tp1821
(lp1822
(I20
I2
I0
S'full'
p1823
tp1824
a(I38
I2
I0
S'full'
p1825
tp1826
a(I55
I19
I0
S'full'
p1827
tp1828
a(I163
I5
I0
S'full'
p1829
tp1830
a(I179
I8
I0
S'full'
p1831
tp1832
a(I185
I9
I0
S'full'
p1833
tp1834
a(I186
I14
F-0.75
S'impossible'
p1835
tp1836
a(I186
I14
I0
S'full'
p1837
tp1838
a(I216
I2
F0.125
S'able'
p1839
tp1840
a(I216
I2
I0
S'more'
p1841
tp1842
a(I216
I2
I0
S'full'
p1843
tp1844
as(S'feel'
p1845
tp1846
(lp1847
(I23
I4
F0.25
S'familiar'
p1848
tp1849
a(I23
I15
F0.125
S'solid'
p1850
tp1851
a(I26
I3
F0.875
S'nice'
p1852
tp1853
a(I64
I4
I0
S'great'
p1854
tp1855
a(I95
I1
F0.875
S'nice'
p1856
tp1857
a(I171
I12
F0.25
S'responsive'
p1858
tp1859
a(I171
I14
I0
S'more'
p1860
tp1861
a(I211
I14
F-0.5
S'flimsy'
p1862
tp1863
as(S'smart'
p1864
tp1865
(lp1866
(I20
I0
F1.0
S'best'
p1867
tp1868
a(I28
I0
I0
S'many'
p1869
tp1870
a(I41
I25
F-0.5
S'complaint'
p1871
tp1872
a(I42
I7
F1.0
S'best'
p1873
tp1874
a(I53
I8
F0.375
S'new'
p1875
tp1876
a(I72
I0
F0.875
S'happy'
p1877
tp1878
a(I82
I0
F-0.625
S'other'
p1879
tp1880
a(I82
I0
F-0.625
S'other'
p1881
tp1882
a(I89
I0
F0.125
S'first'
p1883
tp1884
a(I116
I32
F-0.75
S'stupid'
p1885
tp1886
a(I154
I1
F1.0
S'best'
p1887
tp1888
a(I155
I4
I0
S'many'
p1889
tp1890
a(I157
I3
I0
S'android'
p1891
tp1892
a(I192
I1
F0.125
S'first'
p1893
tp1894
a(I192
I2
F0.125
S'first'
p1895
tp1896
a(I213
I2
I0
S'different'
p1897
tp1898
a(I218
I5
F-0.5
S'relative'
p1899
tp1900
a(I218
I5
F-0.625
S'other'
p1901
tp1902
as(S'samsung'
p1903
S'galaxy'
p1904
tp1905
(lp1906
(I147
I8
I0
S'galaxy'
p1907
tp1908
a(I193
I3
F0.75
g285
tp1909
as(S'calls'
p1910
tp1911
(lp1912
(I7
I3
I0
S'few'
p1913
tp1914
a(I42
I3
I0
S'signal'
p1915
tp1916
a(I42
I3
F-0.875
S'hard'
p1917
tp1918
a(I45
I10
F0.125
S'able'
p1919
tp1920
a(I89
I82
I0
S'most'
p1921
tp1922
a(I93
I23
F0.625
S'easy'
p1923
tp1924
a(I98
I7
I0
S'many'
p1925
tp1926
a(I148
I10
F0.75
S'worth'
p1927
tp1928
a(I148
I10
F-0.625
S'bad'
p1929
tp1930
a(I150
I8
F-0.25
S'dropped'
p1931
tp1932
a(I215
I8
I0
S'great'
p1933
tp1934
as(S'update'
p1935
tp1936
(lp1937
(I3
I11
F-0.125
S'bean'
p1938
tp1939
a(I52
I22
F0.375
S'complete'
p1940
tp1941
a(I117
I2
I0
S'latest'
p1942
tp1943
a(I210
I31
I0
S'e-mail'
p1944
tp1945
as(S'dual'
p1946
S'core'
p1947
S'processor'
p1948
tp1949
(lp1950
(I26
I6
F-0.625
S'unstoppable'
p1951
tp1952
as(S'pretty'
p1953
tp1954
(lp1955
(I78
I5
I0
S'very'
p1956
tp1957
as(S'smart'
p1958
S'actions'
p1959
tp1960
(lp1961
(I35
I6
F0.625
S'easy'
p1962
tp1963
a(I41
I25
F-0.5
g1871
tp1964
a(I110
I2
I0
S'great'
p1965
tp1966
as(S'time'
p1967
tp1968
(lp1969
(I3
I0
F0.375
S'mean'
p1970
tp1971
a(I7
I1
I0
g1160
tp1972
a(I8
I3
F0.125
S'first'
p1973
tp1974
a(I28
I7
I0
S'same'
p1975
tp1976
a(I45
I5
F0.125
S'key'
p1977
tp1978
a(I46
I3
F0.5
S'second'
p1979
tp1980
a(I52
I35
I0
S'most'
p1981
tp1982
a(I52
I35
F0.875
S'important'
p1983
tp1984
a(I52
I35
F0.125
S'first'
p1985
tp1986
a(I53
I2
I0
S'more'
p1987
tp1988
a(I59
I2
I0
S'table'
p1989
tp1990
a(I65
I9
F0.125
S'last'
p1991
tp1992
a(I67
I3
F-0.5
g1162
tp1993
a(I71
I21
I0
S'faster'
p1994
tp1995
a(I76
I1
F-0.5
g1164
tp1996
a(I81
I0
F0.125
S'first'
p1997
tp1998
a(I85
I7
F-0.5
g1166
tp1999
a(I89
I78
I0
S'same'
p2000
tp2001
a(I89
I94
I0
S'current'
p2002
tp2003
a(I102
I3
F-0.5
S'less'
p2004
tp2005
a(I114
I6
I0
S'more'
p2006
tp2007
a(I116
I17
F-0.75
S'single'
p2008
tp2009
a(I120
I3
F-0.75
S'short'
p2010
tp2011
a(I121
I2
F0.5
S'second'
p2012
tp2013
a(I133
I1
I0
S'great'
p2014
tp2015
a(I134
I7
I0
S'bionic'
p2016
tp2017
a(I146
I6
F0.5
S'whole'
p2018
tp2019
a(I156
I5
F-0.75
S'short'
p2020
tp2021
a(I163
I11
F-0.5
g1168
tp2022
a(I172
I0
F0.5
S'second'
p2023
tp2024
a(I172
I3
I0
S'deductible'
p2025
tp2026
a(I176
I0
F-0.875
S'hard'
p2027
tp2028
a(I178
I16
F0.5
g1170
tp2029
a(I185
I13
I0
S'same'
p2030
tp2031
a(I195
I17
F-0.5
g1172
tp2032
a(I201
I23
I0
S'entire'
p2033
tp2034
a(I210
I0
F0.75
S'worth'
p2035
tp2036
as(S'of'
p2037
S'battery'
p2038
S'life'
p2039
tp2040
(lp2041
(I19
I3
F-0.5
g74
tp2042
a(I33
I5
I0
g80
tp2043
a(I33
I5
F-0.875
g82
tp2044
a(I33
I5
F1.0
g84
tp2045
a(I36
I9
F0.125
g86
tp2046
a(I49
I7
F0.25
g94
tp2047
a(I52
I10
F0.375
g96
tp2048
a(I52
I10
I0
g98
tp2049
a(I52
I19
I0
g100
tp2050
a(I52
I19
F0.625
g102
tp2051
a(I67
I8
I0
g553
tp2052
a(I89
I88
F-0.75
g877
tp2053
a(I92
I42
I0
g106
tp2054
a(I97
I0
F-0.625
g110
tp2055
a(I97
I0
F0.125
g112
tp2056
a(I97
I0
F1.0
g114
tp2057
a(I104
I8
F-0.5
g476
tp2058
a(I110
I2
F0.25
g120
tp2059
a(I110
I2
I0
g122
tp2060
a(I111
I4
F0.125
g890
tp2061
a(I120
I0
F0.125
g597
tp2062
a(I132
I0
F0.75
g124
tp2063
a(I149
I1
F-0.5
g126
tp2064
a(I168
I11
F0.25
g493
tp2065
a(I201
I1
F1.0
g134
tp2066
a(I207
I0
F-0.25
g499
tp2067
a(I213
I0
I0
g140
tp2068
as(S'on'
p2069
S'razr'
p2070
S'maxx'
p2071
tp2072
(lp2073
(I13
I0
F0.375
g181
tp2074
a(I14
I8
F1.0
g183
tp2075
a(I33
I1
I0
g393
tp2076
a(I39
I4
I0
g395
tp2077
a(I52
I11
I0
g397
tp2078
a(I52
I17
I0
g401
tp2079
a(I52
I17
F0.625
g403
tp2080
a(I52
I17
F-0.375
g405
tp2081
a(I52
I18
I0
g407
tp2082
a(I74
I11
I0
g409
tp2083
a(I74
I12
I0
g411
tp2084
a(I89
I80
I0
g413
tp2085
a(I111
I34
F-0.5
g191
tp2086
a(I111
I49
I0
g193
tp2087
a(I111
I51
F0.875
g195
tp2088
a(I116
I34
F0.75
g197
tp2089
a(I130
I3
F0.5
g422
tp2090
a(I147
I9
F0.625
g424
tp2091
a(I149
I1
F0.375
g199
tp2092
a(I159
I4
F0.375
g201
tp2093
a(I192
I35
F0.75
g433
tp2094
a(I210
I27
F0.75
g441
tp2095
a(I210
I27
F0.375
g443
tp2096
a(I210
I27
I0
g445
tp2097
a(I211
I0
F0.375
g447
tp2098
a(I218
I10
F0.125
g450
tp2099
as(S'months'
p2100
tp2101
(lp2102
(I18
I0
F-0.25
S'past'
p2103
tp2104
a(I22
I11
I0
S'few'
p2105
tp2106
a(I42
I2
I0
S'next'
p2107
tp2108
a(I51
I1
I0
S'few'
p2109
tp2110
a(I51
I1
I0
S'old'
p2111
tp2112
a(I52
I18
I0
S'few'
p2113
tp2114
a(I57
I3
I0
S'few'
p2115
tp2116
a(I71
I31
I0
S'least'
p2117
tp2118
a(I77
I17
I0
S'later'
p2119
tp2120
a(I90
I7
I0
S'old'
p2121
tp2122
a(I98
I4
F-0.25
S'past'
p2123
tp2124
a(I133
I2
F-0.125
S'mine'
p2125
tp2126
a(I142
I1
I0
S'later'
p2127
tp2128
a(I153
I0
I0
S'few'
p2129
tp2130
as(S'4g'
p2131
S'lte'
p2132
tp2133
(lp2134
(I52
I1
F0.125
S'first'
p2135
tp2136
a(I185
I0
I0
S'fastest'
p2137
tp2138
a(I185
I3
I0
S'fastest'
p2139
tp2140
a(I186
I9
F-0.5
S'actual'
p2141
tp2142
as(S'razr'
p2143
S'maxx'
p2144
S'hd'
p2145
tp2146
(lp2147
(I58
I0
F0.5
S'clear'
p2148
tp2149
a(I210
I27
F0.75
g441
tp2150
a(I210
I27
F0.375
g443
tp2151
a(I210
I27
I0
g445
tp2152
as(S'flash'
p2153
S'player'
p2154
tp2155
(lp2156
(I116
I13
F0.375
S'flash'
p2157
tp2158
a(I116
I19
F0.375
S'flash'
p2159
tp2160
as(S'motorola'
p2161
S'droid'
p2162
tp2163
(lp2164
(I7
I10
F0.25
g15
tp2165
a(I20
I3
F0.25
g17
tp2166
a(I64
I6
I0
g33
tp2167
a(I71
I0
F0.375
g35
tp2168
a(I141
I0
F0.25
g47
tp2169
a(I149
I1
F1.0
g49
tp2170
a(I163
I1
F0.125
g955
tp2171
as(S'2'
p2172
S'days'
p2173
tp2174
(lp2175
(I39
I18
F-0.625
S'moderate'
p2176
tp2177
as(S'galaxy'
p2178
S'nexus'
p2179
tp2180
(lp2181
(I10
I14
F-0.75
S'bright'
p2182
tp2183
a(I14
I6
F-0.25
S'google'
p2184
tp2185
a(I42
I3
I0
g283
tp2186
a(I42
I10
I0
g1221
tp2187
a(I42
I10
F0.75
g1223
tp2188
a(I92
I45
F-0.75
S'bright'
p2189
tp2190
as(S'screen'
p2191
tp2192
(lp2193
(I0
I10
F0.875
S'music'
p2194
tp2195
a(I0
I10
F0.5
S'touch'
p2196
tp2197
a(I0
I10
I0
S'big'
p2198
tp2199
a(I0
I15
F-0.75
S'bright'
p2200
tp2201
a(I1
I2
F0.5
S'clear'
p2202
tp2203
a(I10
I13
F0.25
S'bigger'
p2204
tp2205
a(I10
I17
F0.75
S'due'
p2206
tp2207
a(I14
I9
F1.0
S'good'
p2208
tp2209
a(I16
I1
I0
S'large'
p2210
tp2211
a(I16
I1
F-0.75
S'bright'
p2212
tp2213
a(I17
I5
F1.0
S'good'
p2214
tp2215
a(I17
I5
I0
S'quick'
p2216
tp2217
a(I17
I5
F0.625
S'easy'
p2218
tp2219
a(I17
I18
F0.375
S'new'
p2220
tp2221
a(I17
I18
F-0.5
S'less'
p2222
tp2223
a(I19
I7
F0.25
S'larger'
p2224
tp2225
a(I23
I16
F0.875
S'nice'
p2226
tp2227
a(I26
I5
F0.75
S'beautiful'
p2228
tp2229
a(I26
I45
I0
S'own'
p2230
tp2231
a(I30
I22
F-0.75
S'dark'
p2232
tp2233
a(I33
I1
I0
S'great'
p2234
tp2235
a(I33
I1
F0.5
S'clear'
p2236
tp2237
a(I38
I3
I0
S'many'
p2238
tp2239
a(I42
I2
F0.25
S'bigger'
p2240
tp2241
a(I44
I1
I0
S'big'
p2242
tp2243
a(I47
I2
F0.875
S'nice'
p2244
tp2245
a(I48
I1
I0
S'large'
p2246
tp2247
a(I48
I1
I0
S'great'
p2248
tp2249
a(I52
I29
F0.556
S'delicate'
p2250
tp2251
a(I60
I25
F-0.375
S'smooth'
p2252
tp2253
a(I60
I36
I0
S'big'
p2254
tp2255
a(I62
I1
I0
S'hot'
p2256
tp2257
a(I63
I1
I0
S'large'
p2258
tp2259
a(I67
I9
F0.25
S'responsive'
p2260
tp2261
a(I72
I9
F0.25
S'sharp'
p2262
tp2263
a(I72
I17
I0
S'large'
p2264
tp2265
a(I76
I2
I0
S'large'
p2266
tp2267
a(I76
I2
I0
S'big'
p2268
tp2269
a(I76
I2
F-0.25
S'thin'
p2270
tp2271
a(I76
I3
I0
S'large'
p2272
tp2273
a(I76
I3
F0.625
S'easier'
p2274
tp2275
a(I82
I3
I0
S'large'
p2276
tp2277
a(I82
I6
I0
S'large'
p2278
tp2279
a(I82
I6
F0.75
S'ideal'
p2280
tp2281
a(I82
I10
I0
S'wide'
p2282
tp2283
a(I82
I13
F0.5
S'whole'
p2284
tp2285
a(I82
I19
F1.0
S'good'
p2286
tp2287
a(I89
I6
F0.25
S'bigger'
p2288
tp2289
a(I89
I6
F-0.75
S'difficult'
p2290
tp2291
a(I91
I11
I0
S'close'
p2292
tp2293
a(I91
I14
F0.125
S'visible'
p2294
tp2295
a(I91
I15
F-0.125
S'overall'
p2296
tp2297
a(I91
I15
F1.0
S'best'
p2298
tp2299
a(I92
I5
F-0.75
S'bright'
p2300
tp2301
a(I92
I24
F-0.5
S'less'
p2302
tp2303
a(I92
I24
F0.75
S'beautiful'
p2304
tp2305
a(I92
I26
F-0.75
S'short'
p2306
tp2307
a(I93
I8
F0.25
S'bigger'
p2308
tp2309
a(I103
I4
I0
S'great'
p2310
tp2311
a(I110
I2
F-0.75
S'bright'
p2312
tp2313
a(I110
I5
I0
S'wide'
p2314
tp2315
a(I111
I0
F0.75
S'beautiful'
p2316
tp2317
a(I111
I3
I0
S'least'
p2318
tp2319
a(I111
I3
I0
S'same'
p2320
tp2321
a(I116
I23
F0.25
S'larger'
p2322
tp2323
a(I116
I24
F-0.375
S'small'
p2324
tp2325
a(I116
I24
F-0.75
S'difficult'
p2326
tp2327
a(I119
I3
I0
S'great'
p2328
tp2329
a(I119
I6
F-0.5
S'complaint'
p2330
tp2331
a(I126
I9
I0
S'big'
p2332
tp2333
a(I131
I0
F0.75
S'beautiful'
p2334
tp2335
a(I132
I2
F1.0
S'good'
p2336
tp2337
a(I133
I5
F-0.875
S'hard'
p2338
tp2339
a(I133
I5
F-0.5
S'fall'
p2340
tp2341
a(I139
I22
F1.0
S'good'
p2342
tp2343
a(I147
I7
F1.0
S'better'
p2344
tp2345
a(I147
I8
F0.75
S'beautiful'
p2346
tp2347
a(I151
I12
F0.75
S'beautiful'
p2348
tp2349
a(I170
I3
F0.75
S'beautiful'
p2350
tp2351
a(I170
I6
F-0.375
S'black'
p2352
tp2353
a(I170
I7
F0.5
S'touch'
p2354
tp2355
a(I182
I4
F-0.375
S'black'
p2356
tp2357
a(I183
I2
I0
S'most'
p2358
tp2359
a(I186
I7
I0
S'big'
p2360
tp2361
a(I195
I0
I0
S'big'
p2362
tp2363
a(I201
I29
I0
S'more'
p2364
tp2365
a(I201
I33
F0.25
S'larger'
p2366
tp2367
a(I216
I20
I0
S'large'
p2368
tp2369
a(I216
I23
F-0.375
S'smaller'
p2370
tp2371
as(S'gorilla'
p2372
S'glass'
p2373
S'screen'
p2374
tp2375
(lp2376
(I26
I5
F0.75
g2228
tp2377
a(I211
I7
F0.25
g831
tp2378
as(S'samsung'
p2379
tp2380
(lp2381
(I23
I8
F0.125
S'impressive'
p2382
tp2383
a(I147
I8
I0
g1907
tp2384
a(I193
I3
F0.75
g285
tp2385
as(S'camera'
p2386
tp2387
(lp2388
(I23
I6
I0
S'fast'
p2389
tp2390
a(I23
I6
I0
S'fast'
p2391
tp2392
a(I26
I15
I0
S'useful'
p2393
tp2394
a(I26
I15
F0.125
S'dedicated'
p2395
tp2396
a(I34
I2
I0
S'only'
p2397
tp2398
a(I34
I2
F-0.875
S'negative'
p2399
tp2400
a(I34
I2
F-0.25
S'low'
p2401
tp2402
a(I39
I11
I0
S'rear'
p2403
tp2404
a(I48
I4
F0.875
S'nice'
p2405
tp2406
a(I52
I24
F0.875
S'nice'
p2407
tp2408
a(I67
I8
F0.125
S'digital'
p2409
tp2410
a(I76
I4
F1.0
S'good'
p2411
tp2412
a(I76
I4
I0
S'real'
p2413
tp2414
a(I76
I4
F1.0
S'good'
p2415
tp2416
a(I79
I17
I0
S'great'
p2417
tp2418
a(I88
I2
I0
S'fast'
p2419
tp2420
a(I88
I2
F0.25
S'sharp'
p2421
tp2422
a(I94
I0
F-0.125
S'mine'
p2423
tp2424
a(I94
I0
F1.0
S'good'
p2425
tp2426
a(I108
I7
F0.5
S'clear'
p2427
tp2428
a(I111
I1
F0.625
S'decent'
p2429
tp2430
a(I111
I26
I0
S'great'
p2431
tp2432
a(I119
I4
F1.0
S'good'
p2433
tp2434
a(I147
I6
F1.0
S'best'
p2435
tp2436
a(I147
I6
F-0.875
S'worst'
p2437
tp2438
a(I147
I8
I0
S'incredible'
p2439
tp2440
a(I149
I10
F1.0
S'good'
p2441
tp2442
a(I168
I9
I0
S'great'
p2443
tp2444
a(I186
I8
I0
S'crystal'
p2445
tp2446
a(I205
I18
F-0.875
S'negative'
p2447
tp2448
a(I205
I18
F1.0
S'best'
p2449
tp2450
a(I213
I4
I0
S'great'
p2451
tp2452
as(S'super'
p2453
S'oled'
p2454
S'screen'
p2455
tp2456
(lp2457
(I111
I0
F0.75
g2316
tp2458
a(I171
I5
F0.875
S'nice'
p2459
tp2460
as(S'galaxy'
p2461
tp2462
(lp2463
(I10
I14
F-0.75
g2182
tp2464
a(I12
I2
I0
S'old'
p2465
tp2466
a(I14
I6
F-0.25
g2184
tp2467
a(I92
I45
F-0.75
g2189
tp2468
a(I104
I1
F0.75
S'due'
p2469
tp2470
a(I123
I3
F-0.625
S'other'
p2471
tp2472
as(S'4'
p2473
S'5'
p2474
S'hours'
p2475
tp2476
(lp2477
(I42
I1
F-0.125
g1373
tp2478
a(I71
I4
I0
g1395
tp2479
as(S'motorola'
p2480
S'razr'
p2481
S'maxx'
p2482
tp2483
(lp2484
(I13
I0
F0.375
g181
tp2485
a(I14
I8
F1.0
g183
tp2486
a(I64
I6
I0
g33
tp2487
a(I71
I0
F0.375
g35
tp2488
a(I101
I9
F-0.25
g187
tp2489
a(I149
I1
F1.0
g49
tp2490
a(I149
I1
F0.375
g199
tp2491
as(S'social'
p2492
S'networking'
p2493
tp2494
(lp2495
(I0
I10
I0
S'social'
p2496
tp2497
a(I89
I25
I0
S'few'
p2498
tp2499
a(I89
I25
I0
S'social'
p2500
tp2501
a(I185
I18
I0
S'social'
p2502
tp2503
as(S'battery'
p2504
tp2505
(lp2506
(I0
I39
F-0.625
S'other'
p2507
tp2508
a(I1
I6
F-0.5
S'long'
p2509
tp2510
a(I7
I0
F0.125
g854
tp2511
a(I7
I5
F0.625
S'decent'
p2512
tp2513
a(I7
I5
I0
S'great'
p2514
tp2515
a(I10
I25
F-0.5
S'longer'
p2516
tp2517
a(I14
I6
F-0.75
S'short'
p2518
tp2519
a(I17
I1
F0.375
S'extended'
p2520
tp2521
a(I19
I3
F-0.5
g74
tp2522
a(I21
I2
F-0.5
S'poor'
p2523
tp2524
a(I22
I0
F-0.5
S'less'
p2525
tp2526
a(I23
I5
F0.375
g546
tp2527
a(I23
I5
F-0.625
g548
tp2528
a(I23
I5
F0.375
g550
tp2529
a(I26
I8
F0.625
g76
tp2530
a(I26
I9
F0.5
S'stronger'
p2531
tp2532
a(I27
I3
F0.25
S'original'
p2533
tp2534
a(I30
I6
F0.125
S'last'
p2535
tp2536
a(I31
I2
F0.375
S'extended'
p2537
tp2538
a(I31
I22
I0
S'more'
p2539
tp2540
a(I32
I1
F1.0
g464
tp2541
a(I33
I5
I0
g80
tp2542
a(I33
I5
F-0.875
g82
tp2543
a(I33
I5
F1.0
g84
tp2544
a(I39
I3
F-0.875
S'hard'
p2545
tp2546
a(I39
I21
F0.125
g88
tp2547
a(I41
I6
F0.375
S'extra'
p2548
tp2549
a(I41
I6
I0
S'large'
p2550
tp2551
a(I42
I8
F0.25
S'biggest'
p2552
tp2553
a(I42
I10
F0.125
S'last'
p2554
tp2555
a(I47
I2
F-0.25
S'revolutionary'
p2556
tp2557
a(I49
I4
F0.5
S'true'
p2558
tp2559
a(I49
I4
F0.625
S'removable'
p2560
tp2561
a(I49
I7
F0.25
g94
tp2562
a(I52
I10
F0.375
g96
tp2563
a(I52
I18
F-0.25
S'low'
p2564
tp2565
a(I52
I19
I0
g100
tp2566
a(I52
I19
F0.625
g102
tp2567
a(I52
I22
I0
S'full'
p2568
tp2569
a(I52
I33
F-0.5
S'less'
p2570
tp2571
a(I61
I0
I0
g1473
tp2572
a(I62
I5
I0
S'such'
p2573
tp2574
a(I62
I5
I0
S'large'
p2575
tp2576
a(I67
I1
F0.125
g1476
tp2577
a(I67
I8
I0
g553
tp2578
a(I74
I5
F1.0
S'good'
p2579
tp2580
a(I76
I1
F0.375
S'much'
p2581
tp2582
a(I77
I24
F-0.75
S'bright'
p2583
tp2584
a(I82
I2
I0
S'large'
p2585
tp2586
a(I82
I18
I0
S'large'
p2587
tp2588
a(I89
I4
F0.25
S'bigger'
p2589
tp2590
a(I89
I17
F-0.25
S'battery'
p2591
tp2592
a(I89
I26
F-0.75
S'dead'
p2593
tp2594
a(I89
I29
F-0.875
S'worst'
p2595
tp2596
a(I89
I52
F-0.875
S'stuck'
p2597
tp2598
a(I89
I76
I0
S'full'
p2599
tp2600
a(I92
I35
F-0.5
S'inadequate'
p2601
tp2602
a(I92
I42
I0
g106
tp2603
a(I97
I0
F-0.625
g110
tp2604
a(I103
I1
I0
S'large'
p2605
tp2606
a(I103
I4
F0.5
S'greater'
p2607
tp2608
a(I104
I7
I0
g116
tp2609
a(I104
I8
F-0.5
g476
tp2610
a(I110
I2
F0.25
g120
tp2611
a(I110
I2
I0
g122
tp2612
a(I111
I4
F0.125
g890
tp2613
a(I116
I34
F-0.375
S'top'
p2614
tp2615
a(I116
I35
I0
S'incredible'
p2616
tp2617
a(I120
I0
F0.125
g597
tp2618
a(I123
I2
F-0.5
S'weak'
p2619
tp2620
a(I123
I2
F0.875
S'lucky'
p2621
tp2622
a(I129
I2
I0
S'phenomenal'
p2623
tp2624
a(I132
I0
F0.75
g124
tp2625
a(I137
I10
F-0.5
S'insane'
p2626
tp2627
a(I139
I8
F1.0
g486
tp2628
a(I142
I1
F-0.75
g899
tp2629
a(I147
I3
F0.25
S'powerful'
p2630
tp2631
a(I147
I3
F0.875
S'important'
p2632
tp2633
a(I147
I3
F-0.5
S'weak'
p2634
tp2635
a(I147
I7
F0.25
S'stellar'
p2636
tp2637
a(I147
I7
F0.5
S'accurate'
p2638
tp2639
a(I149
I1
F-0.5
g126
tp2640
a(I156
I5
F1.0
S'better'
p2641
tp2642
a(I164
I11
F1.0
g128
tp2643
a(I165
I1
I0
g130
tp2644
a(I171
I2
F1.0
S'good'
p2645
tp2646
a(I171
I2
I0
S'big'
p2647
tp2648
a(I173
I10
F0.625
S'removable'
p2649
tp2650
a(I174
I5
I0
S'such'
p2651
tp2652
a(I179
I3
F-0.5
S'long'
p2653
tp2654
a(I185
I2
F0.875
S'important'
p2655
tp2656
a(I185
I2
F0.375
S'extended'
p2657
tp2658
a(I185
I9
F0.375
S'new'
p2659
tp2660
a(I185
I9
I0
S'more'
p2661
tp2662
a(I186
I13
I0
S'empty'
p2663
tp2664
a(I186
I13
I0
S'full'
p2665
tp2666
a(I192
I13
F0.25
S'powerful'
p2667
tp2668
a(I194
I3
F0.25
S'larger'
p2669
tp2670
a(I195
I17
F0.375
S'reliable'
p2671
tp2672
a(I196
I6
F1.0
g908
tp2673
a(I201
I1
F1.0
g134
tp2674
a(I201
I16
F-0.75
g497
tp2675
a(I202
I4
F1.0
g136
tp2676
a(I202
I16
F0.375
S'extra'
p2677
tp2678
a(I203
I13
F-0.75
S'dead'
p2679
tp2680
a(I205
I17
F0.875
S'nice'
p2681
tp2682
a(I205
I17
F-0.75
S'little'
p2683
tp2684
a(I210
I2
I0
S'optional'
p2685
tp2686
a(I211
I34
F-0.25
g138
tp2687
a(I212
I1
F0.25
S'biggest'
p2688
tp2689
a(I213
I0
I0
g140
tp2690
as(S'think'
p2691
tp2692
(lp2693
(I181
I4
F-0.125
S'cant'
p2694
tp2695
as(S'better'
p2696
tp2697
(lp2698
(I65
I2
F0.375
S'much'
p2699
tp2700
a(I85
I4
F0.375
S'much'
p2701
tp2702
a(I109
I13
I0
S'more'
p2703
tp2704
a(I109
I13
F0.375
S'reliable'
p2705
tp2706
a(I109
I13
F0.625
S'easier'
p2707
tp2708
a(I109
I13
F-0.125
S'overall'
p2709
tp2710
as(S'an'
p2711
S'entire'
p2712
S'day'
p2713
tp2714
(lp2715
(I1
I8
F0.125
S'last'
p2716
tp2717
a(I1
I8
I0
S'entire'
p2718
tp2719
a(I52
I6
I0
S'entire'
p2720
tp2721
a(I52
I10
I0
S'entire'
p2722
tp2723
a(I108
I3
I0
S'entire'
p2724
tp2725
as(S'on'
p2726
S'one'
p2727
S'charge'
p2728
tp2729
(lp2730
(I42
I8
F-0.75
g507
tp2731
a(I52
I18
I0
g511
tp2732
a(I89
I38
I0
g515
tp2733
a(I104
I4
F-0.75
g517
tp2734
a(I183
I6
I0
g521
tp2735
a(I217
I25
F-0.5
g525
tp2736
as(S'device'
p2737
tp2738
(lp2739
(I48
I0
I0
S'android'
p2740
tp2741
a(I60
I37
F-0.375
S'smaller'
p2742
tp2743
a(I149
I4
I0
S'own'
p2744
tp2745
a(I185
I21
F-0.125
S'overall'
p2746
tp2747
a(I217
I15
F0.25
S'used'
p2748
tp2749
as(S'heavy'
p2750
S'use'
p2751
tp2752
(lp2753
(I10
I26
F-0.5
S'heavy'
p2754
tp2755
a(I22
I3
F-0.5
S'heavy'
p2756
tp2757
a(I26
I14
F-0.5
S'heavy'
p2758
tp2759
a(I28
I2
F-0.5
S'heavy'
p2760
tp2761
a(I38
I2
F-0.5
S'heavy'
p2762
tp2763
a(I42
I1
F-0.5
S'heavy'
p2764
tp2765
a(I42
I8
F-0.5
S'heavy'
p2766
tp2767
a(I61
I8
F-0.625
S'moderate'
p2768
tp2769
a(I61
I8
F-0.5
S'heavy'
p2770
tp2771
a(I138
I3
F-0.5
S'heavy'
p2772
tp2773
a(I155
I6
F-0.5
S'heavy'
p2774
tp2775
a(I163
I6
F-0.5
S'heavy'
p2776
tp2777
a(I171
I16
F0.125
S'impressive'
p2778
tp2779
a(I186
I18
F-0.5
S'heavy'
p2780
tp2781
a(I216
I2
F-0.5
S'heavy'
p2782
tp2783
as(S'home'
p2784
tp2785
(lp2786
(I0
I8
I0
S'own'
p2787
tp2788
a(I45
I15
I0
S'faster'
p2789
tp2790
a(I114
I6
F-0.625
S'free'
p2791
tp2792
a(I139
I9
F0.75
S'constant'
p2793
tp2794
a(I139
I24
I0
S'android'
p2795
tp2796
a(I211
I41
F1.0
S'best'
p2797
tp2798
as(S'call'
p2799
tp2800
(lp2801
(I10
I6
F-0.25
S'disappointing'
p2802
tp2803
a(I97
I0
F1.0
g156
tp2804
a(I184
I10
I0
S'signal'
p2805
tp2806
a(I184
I10
I0
S'great'
p2807
tp2808
as(S'due'
p2809
S'to'
p2810
S'battery'
p2811
tp2812
(lp2813
(I1
I6
F-0.5
g2509
tp2814
a(I42
I10
F0.125
g2554
tp2815
a(I116
I34
F-0.375
g2614
tp2816
a(I132
I0
F0.75
g124
tp2817
as(S'3rd'
p2818
S'party'
p2819
tp2820
(lp2821
(I30
I20
F-0.625
g763
tp2822
a(I137
I12
I0
g765
tp2823
as(S'form'
p2824
S'factor'
p2825
tp2826
(lp2827
(I19
I6
F-0.25
S'thin'
p2828
tp2829
a(I210
I7
I0
S'same'
p2830
tp2831
as(S'apps'
p2832
tp2833
(lp2834
(I0
I9
I0
S'most'
p2835
tp2836
a(I0
I30
F-0.625
S'free'
p2837
tp2838
a(I0
I30
F0.375
S'available'
p2839
tp2840
a(I3
I6
I0
S'old'
p2841
tp2842
a(I7
I26
I0
S'download'
p2843
tp2844
a(I7
I26
I0
S'install'
p2845
tp2846
a(I26
I44
F-0.625
S'other'
p2847
tp2848
a(I26
I44
F0.375
S'available'
p2849
tp2850
a(I30
I7
I0
S'updated'
p2851
tp2852
a(I31
I6
F0.75
S'fit'
p2853
tp2854
a(I31
I14
I0
S'many'
p2855
tp2856
a(I52
I22
F-0.5
S'sure'
p2857
tp2858
a(I73
I6
F-0.75
S'unresponsive'
p2859
tp2860
a(I76
I3
I0
S'great'
p2861
tp2862
a(I76
I3
F0.875
S'nice'
p2863
tp2864
a(I85
I5
F-0.625
S'other'
p2865
tp2866
a(I97
I0
I0
S'more'
p2867
tp2868
a(I98
I3
F-0.75
S'single'
p2869
tp2870
a(I98
I3
F-0.5
S'suspect'
p2871
tp2872
a(I110
I3
I0
S'appear'
p2873
tp2874
a(I111
I7
I0
S'old'
p2875
tp2876
a(I127
I7
I0
S'forth'
p2877
tp2878
a(I133
I12
I0
S'android'
p2879
tp2880
a(I139
I24
F-0.625
S'free'
p2881
tp2882
a(I165
I4
F0.625
S'add'
p2883
tp2884
a(I165
I4
I0
S'minimal'
p2885
tp2886
a(I181
I4
I0
S'great'
p2887
tp2888
a(I191
I8
F-0.375
S'alter'
p2889
tp2890
a(I192
I31
F0.625
S'easy'
p2891
tp2892
a(I194
I6
F0.375
S'available'
p2893
tp2894
a(I200
I1
I0
S'great'
p2895
tp2896
a(I211
I19
F0.75
S'give'
p2897
tp2898
a(I211
I23
F-0.625
S'free'
p2899
tp2900
a(I216
I18
I0
S'many'
p2901
tp2902
as(S'days'
p2903
tp2904
(lp2905
(I1
I7
I0
g1197
tp2906
a(I3
I8
I0
S'few'
p2907
tp2908
a(I7
I2
I0
g1199
tp2909
a(I7
I5
F0.125
g1201
tp2910
a(I7
I8
F0.75
S'give'
p2911
tp2912
a(I7
I8
I0
S'few'
p2913
tp2914
a(I9
I3
I0
S'few'
p2915
tp2916
a(I13
I2
I0
S'later'
p2917
tp2918
a(I13
I6
I0
S'few'
p2919
tp2920
a(I13
I6
I0
S'later'
p2921
tp2922
a(I24
I3
I0
S'ect'
p2923
tp2924
a(I30
I11
I0
g1203
tp2925
a(I31
I5
F0.125
S'first'
p2926
tp2927
a(I31
I5
I0
S'few'
p2928
tp2929
a(I39
I18
F-0.625
g2176
tp2930
a(I41
I1
F0.125
S'first'
p2931
tp2932
a(I48
I1
I0
S'few'
p2933
tp2934
a(I61
I10
F-0.625
S'light'
p2935
tp2936
a(I71
I8
I0
S'old'
p2937
tp2938
a(I77
I6
F0.125
S'first'
p2939
tp2940
a(I77
I6
I0
S'few'
p2941
tp2942
a(I79
I1
I0
S'few'
p2943
tp2944
a(I84
I6
I0
S'few'
p2945
tp2946
a(I84
I6
I0
S'same'
p2947
tp2948
a(I84
I6
I0
S'old'
p2949
tp2950
a(I98
I0
F-0.25
g1205
tp2951
a(I118
I4
I0
S'least'
p2952
tp2953
a(I120
I8
F-0.25
S'past'
p2954
tp2955
a(I123
I0
F0.5
S'obvious'
p2956
tp2957
a(I128
I3
I0
g1207
tp2958
a(I134
I4
I0
S'few'
p2959
tp2960
a(I140
I5
I0
S'most'
p2961
tp2962
a(I174
I1
F0.125
g1209
tp2963
a(I183
I5
F-0.5
g1211
tp2964
a(I199
I2
F-0.25
g1213
tp2965
a(I202
I36
I0
S'few'
p2966
tp2967
a(I207
I2
F0.125
S'first'
p2968
tp2969
a(I216
I6
I0
g1215
tp2970
a(I218
I8
I0
S'few'
p2971
tp2972
as.