(dp0
(S'screen'
p1
S'size'
p2
tp3
(lp4
(I118
I2
F1.0
S'good'
p5
tp6
a(I162
I0
F-0.375
S'small'
p7
tp8
a(I171
I0
I0
S'big'
p9
tp10
a(I171
I0
I0
S'great'
p11
tp12
as(S'seller'
p13
tp14
(lp15
(I24
I6
I0
S'least'
p16
tp17
a(I31
I0
F0.5
S'satisfied'
p18
tp19
a(I56
I0
F0.375
S'honest'
p20
tp21
a(I107
I1
I0
S'more'
p22
tp23
as(S'battery'
p24
S'life'
p25
tp26
(lp27
(I34
I15
F0.125
S'last'
p28
tp29
a(I41
I5
F0.875
S'happy'
p30
tp31
a(I41
I18
F1.0
S'better'
p32
tp33
a(I98
I1
F1.0
S'good'
p34
tp35
a(I113
I2
F-0.5
S'longer'
p36
tp37
a(I128
I2
F-0.75
S'unreliable'
p38
tp39
as(S'android'
p40
tp41
(lp42
(I41
I20
F1.0
S'best'
p43
tp44
a(I58
I3
F0.125
S'first'
p45
tp46
a(I58
I3
I0
S'more'
p47
tp48
as(S'problem'
p49
tp50
(lp51
(I70
I0
I0
S'only'
p52
tp53
a(I120
I4
I0
S'common'
p54
tp55
a(I197
I3
I0
S'big'
p56
tp57
as(S'talk'
p58
tp59
(lp60
(I11
I0
F0.625
S'straight'
p61
tp62
a(I20
I1
F0.625
S'straight'
p63
tp64
a(I73
I1
F0.625
S'straight'
p65
tp66
a(I73
I1
F0.125
S'first'
p67
tp68
a(I98
I0
F0.625
S'straight'
p69
tp70
a(I98
I1
F0.625
S'straight'
p71
tp72
a(I126
I3
F0.625
S'straight'
p73
tp74
a(I129
I1
F0.125
S'able'
p75
tp76
a(I130
I0
F0.625
S'straight'
p77
tp78
a(I130
I3
I0
S'least'
p79
tp80
a(I130
I3
F0.625
S'straight'
p81
tp82
a(I130
I3
F0.625
S'straight'
p83
tp84
a(I134
I2
F0.625
S'straight'
p85
tp86
as(S'money'
p87
tp88
(lp89
(I21
I11
F0.75
S'worth'
p90
tp91
a(I75
I1
F0.75
S'worth'
p92
tp93
as(S'card'
p94
tp95
(lp96
(I130
I1
F0.25
S'helpful'
p97
tp98
as(S'nice'
p99
tp100
(lp101
(I104
I0
I0
S'very'
p102
tp103
as(S'screen'
p104
tp105
(lp106
(I4
I2
F-0.5
S'sure'
p107
tp108
a(I4
I2
F0.25
S'larger'
p109
tp110
a(I20
I0
I0
S'big'
p111
tp112
a(I21
I6
F1.0
S'best'
p113
tp114
a(I34
I15
I0
S'great'
p115
tp116
a(I34
I15
F0.625
S'easy'
p117
tp118
a(I38
I0
I0
S'big'
p119
tp120
a(I41
I1
F0.125
S'able'
p121
tp122
a(I41
I1
F-0.375
S'smaller'
p123
tp124
a(I41
I3
I0
S'big'
p125
tp126
a(I51
I7
F0.75
S'due'
p127
tp128
a(I67
I0
I0
S'incredible'
p129
tp130
a(I75
I0
F0.5
S'touch'
p131
tp132
a(I78
I0
F-0.375
S'smaller'
p133
tp134
a(I86
I2
F-0.375
S'small'
p135
tp136
a(I99
I2
I0
S'big'
p137
tp138
a(I99
I2
I0
S'great'
p139
tp140
a(I113
I1
F0.75
S'ideal'
p141
tp142
a(I113
I1
F-0.375
S'small'
p143
tp144
a(I123
I0
I0
S'large'
p145
tp146
a(I123
I2
F-0.375
S'smaller'
p147
tp148
a(I125
I6
F0.75
S'beautiful'
p149
tp150
a(I125
I6
I0
S'large'
p151
tp152
a(I126
I0
I0
S'great'
p153
tp154
a(I126
I1
F0.25
S'larger'
p155
tp156
a(I130
I6
I0
S'big'
p157
tp158
a(I145
I1
I0
S'wide'
p159
tp160
a(I145
I3
I0
S'big'
p161
tp162
a(I162
I0
F-0.375
g7
tp163
a(I171
I0
I0
g9
tp164
a(I171
I6
F-0.875
S'hard'
p165
tp166
a(I179
I0
F-0.75
S'hate'
p167
tp168
a(I182
I1
I0
S'big'
p169
tp170
a(I182
I1
F0.625
S'easy'
p171
tp172
a(I185
I0
I0
S'big'
p173
tp174
a(I187
I1
F0.75
S'worth'
p175
tp176
a(I187
I1
I0
S'big'
p177
tp178
a(I188
I3
I0
S'big'
p179
tp180
a(I207
I0
I0
S'big'
p181
tp182
as(S'reviews'
p183
tp184
(lp185
(I50
I0
F0.625
S'kind'
p186
tp187
a(I50
I0
F-0.5
S'worried'
p188
tp189
a(I51
I1
I0
S'most'
p190
tp191
a(I83
I0
F0.375
S'much'
p192
tp193
a(I83
I0
I0
S'nervous'
p194
tp195
a(I83
I0
F1.0
S'good'
p196
tp197
a(I83
I0
F-0.625
S'bad'
p198
tp199
a(I120
I0
I0
S'most'
p200
tp201
as(S'everything'
p202
tp203
(lp204
(I68
I0
I0
S'more'
p205
tp206
a(I127
I0
I0
S'great'
p207
tp208
a(I166
I0
I0
S'big'
p209
tp210
a(I166
I0
I0
S'most'
p211
tp212
a(I186
I2
I0
S'same'
p213
tp214
a(I205
I0
F0.625
S'perfect'
p215
tp216
as(S'problems'
p217
tp218
(lp219
(I58
I12
I0
S'same'
p220
tp221
a(I186
I1
I0
S'many'
p222
tp223
a(I186
I11
F-0.25
S'ready'
p224
tp225
as(S'samsung'
p226
tp227
(lp228
(I41
I19
F0.375
S'new'
p229
tp230
a(I171
I13
F0.5
S'captivate'
p231
tp232
as(S'love'
p233
S'size'
p234
tp235
(lp236
(I147
I2
F0.625
S'easy'
p237
tp238
a(I203
I3
F0.625
S'easy'
p239
tp240
as(S'version'
p241
tp242
(lp243
(I7
I1
I0
S'android'
p244
tp245
a(I18
I2
I0
S'slower'
p246
tp247
a(I18
I2
I0
S'old'
p248
tp249
a(I72
I2
I0
S'android'
p250
tp251
a(I72
I2
F-0.125
S'bean'
p252
tp253
a(I80
I0
I0
S'old'
p254
tp255
a(I163
I3
F-0.5
S'international'
p256
tp257
a(I196
I1
F0.5
S'second'
p258
tp259
as(S'stylus'
p260
tp261
(lp262
(I38
I1
F-0.75
S'unable'
p263
tp264
as(S'straight'
p265
S'talk'
p266
tp267
(lp268
(I11
I0
F0.625
g61
tp269
a(I20
I1
F0.625
g63
tp270
a(I73
I1
F0.625
g65
tp271
a(I73
I1
F0.125
g67
tp272
a(I98
I0
F0.625
g69
tp273
a(I98
I1
F0.625
g71
tp274
a(I126
I3
F0.625
g73
tp275
a(I129
I1
F0.125
g75
tp276
a(I130
I0
F0.625
g77
tp277
a(I130
I3
I0
g79
tp278
a(I130
I3
F0.625
g81
tp279
a(I130
I3
F0.625
g83
tp280
a(I134
I2
F0.625
g85
tp281
as(S'apps'
p282
tp283
(lp284
(I92
I1
F-0.625
S'other'
p285
tp286
a(I92
I1
I0
S'most'
p287
tp288
a(I127
I0
I0
S'few'
p289
tp290
a(I163
I3
F0.25
S'favorite'
p291
tp292
a(I163
I4
I0
S'many'
p293
tp294
a(I171
I3
I0
S'different'
p295
tp296
a(I194
I0
I0
S'great'
p297
tp298
as(S'a'
p299
S'big'
p300
S'screen'
p301
tp302
(lp303
(I20
I0
I0
g111
tp304
a(I38
I0
I0
g119
tp305
a(I41
I3
I0
g125
tp306
a(I99
I2
I0
g137
tp307
a(I99
I2
I0
g139
tp308
a(I130
I6
I0
g157
tp309
a(I145
I3
I0
g161
tp310
a(I171
I0
I0
g9
tp311
a(I182
I1
I0
g169
tp312
a(I182
I1
F0.625
g171
tp313
a(I185
I0
I0
g173
tp314
a(I187
I1
F0.75
g175
tp315
a(I187
I1
I0
g177
tp316
a(I188
I3
I0
g179
tp317
a(I207
I0
I0
g181
tp318
as(S'product'
p319
tp320
(lp321
(I33
I0
F0.875
S'happy'
p322
tp323
a(I37
I1
F0.875
S'happy'
p324
tp325
a(I120
I0
I0
S'same'
p326
tp327
a(I192
I0
I0
S'great'
p328
tp329
as(S's'
p330
S'pen'
p331
tp332
(lp333
(I81
I3
I0
S'own'
p334
tp335
a(I81
I3
F-0.75
S'little'
p336
tp337
as(S'galaxy'
p338
tp339
(lp340
(I3
I2
F0.25
S'larger'
p341
tp342
a(I30
I0
F0.375
S'new'
p343
tp344
as(S'return'
p345
tp346
(lp347
(I111
I4
I0
S'own'
p348
tp349
as(S'features'
p350
tp351
(lp352
(I84
I2
F1.0
S'good'
p353
tp354
a(I136
I2
I0
S'great'
p355
tp356
a(I136
I8
I0
S'great'
p357
tp358
a(I200
I3
I0
S'many'
p359
tp360
as(S'next'
p361
S'day'
p362
tp363
(lp364
(I19
I0
I0
S'next'
p365
tp366
a(I19
I0
F0.875
S'happy'
p367
tp368
a(I86
I3
I0
S'next'
p369
tp370
a(I86
I10
I0
S'next'
p371
tp372
a(I86
I10
I0
S'next'
p373
tp374
as(S'on'
p375
S'straight'
p376
S'talk'
p377
tp378
(lp379
(I11
I0
F0.625
g61
tp380
a(I73
I1
F0.625
g65
tp381
a(I73
I1
F0.125
g67
tp382
a(I98
I0
F0.625
g69
tp383
a(I98
I1
F0.625
g71
tp384
a(I126
I3
F0.625
g73
tp385
a(I129
I1
F0.125
g75
tp386
a(I130
I3
I0
g79
tp387
a(I130
I3
F0.625
g81
tp388
a(I130
I3
F0.625
g83
tp389
a(I134
I2
F0.625
g85
tp390
as(S'galaxy'
p391
S'note'
p392
tp393
(lp394
(I30
I0
F0.375
g343
tp395
a(I168
I0
I0
S'pic'
p396
tp397
as(S'long'
p398
S'time'
p399
tp400
(lp401
(I10
I0
F-0.5
S'long'
p402
tp403
a(I54
I3
F-0.5
S'long'
p404
tp405
a(I58
I9
F-0.75
S'short'
p406
tp407
a(I77
I0
F-0.5
S'long'
p408
tp409
a(I124
I4
F-0.5
S'long'
p410
tp411
a(I187
I1
F-0.5
S'long'
p412
tp413
as(S'shipping'
p414
tp415
(lp416
(I86
I10
F-0.625
S'other'
p417
tp418
a(I189
I0
I0
S'fast'
p419
tp420
as(g299
S'long'
p421
S'time'
p422
tp423
(lp424
(I10
I0
F-0.5
g402
tp425
a(I54
I3
F-0.5
g404
tp426
a(I58
I9
F-0.75
g406
tp427
a(I77
I0
F-0.5
g408
tp428
a(I124
I4
F-0.5
g410
tp429
a(I187
I1
F-0.5
g412
tp430
as(S'weeks'
p431
tp432
(lp433
(I0
I1
F0.125
S'first'
p434
tp435
a(I58
I12
F-0.5
S'less'
p436
tp437
a(I61
I8
I0
S'few'
p438
tp439
a(I177
I5
I0
S'later'
p440
tp441
a(I201
I1
F0.125
S'first'
p442
tp443
a(I203
I4
I0
S'few'
p444
tp445
as(S'plan'
p446
tp447
(lp448
(I72
I1
F0.5
S'compatible'
p449
tp450
a(I186
I2
I0
S'old'
p451
tp452
a(I186
I7
I0
S'old'
p453
tp454
as(S'case'
p455
tp456
(lp457
(I81
I6
F0.125
S'first'
p458
tp459
a(I127
I0
F-0.25
S'thin'
p460
tp461
as(S'regular'
p462
S'sized'
p463
S'sim'
p464
tp465
(lp466
(I126
I3
F-0.5
S'regular'
p467
tp468
a(I130
I0
F-0.5
S'regular'
p469
tp470
a(I130
I0
I0
S'sized'
p471
tp472
a(I130
I2
I0
S'sized'
p473
tp474
a(I130
I3
F-0.5
S'regular'
p475
tp476
a(I130
I3
I0
S'sized'
p477
tp478
as(S'ever'
p479
tp480
(lp481
(I50
I0
F-0.75
S'ill'
p482
tp483
as(S'battery'
p484
tp485
(lp486
(I30
I1
F0.375
S'extended'
p487
tp488
a(I41
I13
F0.125
S'first'
p489
tp490
a(I41
I13
I0
S'few'
p491
tp492
a(I41
I18
F1.0
g32
tp493
a(I48
I4
F0.125
S'last'
p494
tp495
a(I58
I5
I0
S'wish'
p496
tp497
a(I58
I10
F0.375
S'new'
p498
tp499
a(I98
I1
F1.0
g34
tp500
a(I102
I2
F0.625
S'removable'
p501
tp502
a(I106
I2
F-0.75
S'dead'
p503
tp504
a(I106
I3
F0.375
S'new'
p505
tp506
a(I123
I0
F0.5
S'flat'
p507
tp508
a(I130
I10
F0.5
S'true'
p509
tp510
a(I131
I1
F-0.75
S'dead'
p511
tp512
a(I171
I2
F0.625
S'replaceable'
p513
tp514
as(S'came'
p515
tp516
(lp517
(I43
I2
I0
S'great'
p518
tp519
as(S'big'
p520
S'screen'
p521
tp522
(lp523
(I20
I0
I0
g111
tp524
a(I38
I0
I0
g119
tp525
a(I41
I3
I0
g125
tp526
a(I99
I2
I0
g137
tp527
a(I99
I2
I0
g139
tp528
a(I130
I6
I0
g157
tp529
a(I145
I1
I0
g159
tp530
a(I145
I3
I0
g161
tp531
a(I171
I0
I0
g9
tp532
a(I182
I1
I0
g169
tp533
a(I182
I1
F0.625
g171
tp534
a(I185
I0
I0
g173
tp535
a(I187
I1
F0.75
g175
tp536
a(I187
I1
I0
g177
tp537
a(I188
I3
I0
g179
tp538
a(I207
I0
I0
g181
tp539
as(S'samsung'
p540
S'galaxy'
p541
tp542
(lp543
(I41
I19
F0.375
g229
tp544
as(S'note'
p545
tp546
(lp547
(I3
I0
F0.625
S'perfect'
p548
tp549
a(I21
I5
F1.0
S'good'
p550
tp551
a(I61
I8
I0
S'faster'
p552
tp553
a(I112
I2
F0.375
S'new'
p554
tp555
a(I120
I0
F0.625
S'positive'
p556
tp557
a(I144
I3
F0.25
S'suppose'
p558
tp559
a(I149
I3
I0
S'different'
p560
tp561
a(I161
I4
F-0.5
S'actual'
p562
tp563
a(I168
I0
I0
g396
tp564
a(I180
I3
I0
S'handy'
p565
tp566
as(S'thing'
p567
tp568
(lp569
(I2
I0
I0
S'big'
p570
tp571
a(I36
I3
I0
S'only'
p572
tp573
a(I69
I0
I0
S'only'
p574
tp575
a(I92
I0
I0
S'only'
p576
tp577
a(I103
I10
I0
S'more'
p578
tp579
a(I136
I6
I0
S'only'
p580
tp581
a(I136
I6
F-0.625
S'bad'
p582
tp583
a(I144
I3
I0
S'same'
p584
tp585
as(S'sim'
p586
S'card'
p587
tp588
(lp589
(I0
I4
F-0.75
S'likely'
p590
tp591
a(I20
I3
I0
S'standard'
p592
tp593
a(I61
I3
F-0.625
S'other'
p594
tp595
a(I62
I2
I0
S'old'
p596
tp597
a(I126
I3
F-0.5
g467
tp598
a(I129
I1
F-0.625
S'other'
p599
tp600
a(I130
I0
F-0.5
g469
tp601
a(I130
I0
I0
g471
tp602
a(I158
I1
I0
S'indian'
p603
tp604
a(I186
I2
F0.375
S'new'
p605
tp606
as(S'charge'
p607
tp608
(lp609
(I33
I0
F1.0
S'good'
p610
tp611
a(I34
I6
I0
S'different'
p612
tp613
a(I41
I6
F-0.75
S'single'
p614
tp615
a(I72
I5
F1.0
S'good'
p616
tp617
a(I127
I0
I0
S'full'
p618
tp619
as(S'update'
p620
tp621
(lp622
(I147
I5
F0.125
S'first'
p623
tp624
as(S'device'
p625
tp626
(lp627
(I3
I5
I0
S'third'
p628
tp629
a(I3
I5
I0
S'android'
p630
tp631
a(I99
I2
F0.125
S'first'
p632
tp633
a(I103
I11
F-0.125
S'overall'
p634
tp635
a(I103
I11
F1.0
S'good'
p636
tp637
a(I171
I14
F0.375
S'reliable'
p638
tp639
as(S'usb'
p640
S'port'
p641
tp642
(lp643
(I177
I1
F0.125
S'first'
p644
tp645
a(I177
I1
F0.625
S'perfect'
p646
tp647
as(S'price'
p648
tp649
(lp650
(I42
I2
F-0.5
S'less'
p651
tp652
a(I42
I2
F1.0
S'good'
p653
tp654
a(I54
I2
I0
S'great'
p655
tp656
a(I83
I4
F1.0
S'good'
p657
tp658
a(I129
I2
I0
S'great'
p659
tp660
a(I129
I2
I0
S'full'
p661
tp662
a(I151
I3
F0.375
S'much'
p663
tp664
a(I162
I0
I0
S'great'
p665
tp666
a(I162
I0
F0.625
S'easy'
p667
tp668
a(I189
I0
I0
S'great'
p669
tp670
as(S'time'
p671
tp672
(lp673
(I10
I0
F-0.5
g402
tp674
a(I34
I1
F0.125
S'first'
p675
tp676
a(I54
I3
F-0.5
g404
tp677
a(I58
I9
F-0.75
g406
tp678
a(I70
I0
F-0.625
S'bad'
p679
tp680
a(I74
I1
F0.375
S'much'
p681
tp682
a(I77
I0
F-0.5
g408
tp683
a(I81
I10
F0.625
S'perfect'
p684
tp685
a(I124
I4
F-0.5
g410
tp686
a(I129
I3
F0.875
S'happy'
p687
tp688
a(I187
I1
F-0.5
g412
tp689
as(S'camera'
p690
tp691
(lp692
(I41
I9
I0
S'great'
p693
tp694
a(I66
I0
F1.0
S'good'
p695
tp696
a(I67
I1
F1.0
S'best'
p697
tp698
a(I120
I8
F-0.75
S'difficult'
p699
tp700
a(I143
I0
F0.625
S'easy'
p701
tp702
a(I143
I0
F0.875
S'nice'
p703
tp704
a(I171
I6
F-0.125
S'slow'
p705
tp706
a(I181
I0
F-0.75
S'secondary'
p707
tp708
a(I182
I3
F-0.5
S'regular'
p709
tp710
a(I206
I1
F-0.5
S'actual'
p711
tp712
as(S'car'
p713
S'charger'
p714
tp715
(lp716
(I14
I0
F0.375
S'dependable'
p717
tp718
as(S'charger'
p719
tp720
(lp721
(I14
I0
F0.375
g717
tp722
a(I58
I11
F0.375
S'new'
p723
tp724
a(I210
I2
F0.375
S'new'
p725
tp726
as(S'size'
p727
tp728
(lp729
(I3
I2
I0
S'phenomenal'
p730
tp731
a(I3
I3
F0.25
S'helpful'
p732
tp733
a(I41
I16
I0
S'normal'
p734
tp735
a(I118
I2
F1.0
g5
tp736
a(I120
I8
I0
S'large'
p737
tp738
a(I125
I1
F0.75
S'due'
p739
tp740
a(I125
I1
I0
S'large'
p741
tp742
a(I140
I0
I0
S'great'
p743
tp744
a(I147
I2
F0.625
g237
tp745
a(I159
I1
I0
S'large'
p746
tp747
a(I171
I0
I0
g11
tp748
a(I186
I0
F1.0
S'good'
p749
tp750
a(I198
I1
F-0.375
S'small'
p751
tp752
a(I198
I1
F-0.75
S'difficult'
p753
tp754
a(I203
I3
F0.625
g239
tp755
as(S'make'
p756
tp757
(lp758
(I212
I0
F-0.125
S'slow'
p759
tp760
as(S'going'
p761
tp762
(lp763
(I34
I2
F-0.5
S'actual'
p764
tp765
as(S'hours'
p766
tp767
(lp768
(I123
I0
I0
S'few'
p769
tp770
a(I171
I1
F-0.5
S'heavy'
p771
tp772
a(I171
I1
F-0.625
S'light'
p773
tp774
a(I171
I7
I0
S'more'
p775
tp776
as(S'work'
p777
tp778
(lp779
(I122
I0
I0
S'y'
p780
tp781
as(S'life'
p782
tp783
(lp784
(I34
I15
F0.125
g28
tp785
a(I41
I5
F0.875
g30
tp786
a(I113
I2
F-0.5
g36
tp787
a(I128
I2
F-0.75
g38
tp788
as(S'days'
p789
tp790
(lp791
(I105
I0
F1.0
S'good'
p792
tp793
a(I105
I0
I0
S'economical'
p794
tp795
a(I201
I3
I0
S'more'
p796
tp797
a(I211
I0
F-0.5
S'less'
p798
tp799
as(S'4g'
p800
S'lte'
p801
tp802
(lp803
(I3
I3
I0
S'fast'
p804
tp805
as(S'fast'
p806
tp807
(lp808
(I41
I4
F-0.125
S'super'
p809
tp810
as(S'little'
p811
S'bit'
p812
tp813
(lp814
(I100
I2
F1.0
S'good'
p815
tp816
a(I100
I2
F-0.375
S'impatient'
p817
tp818
as.