(dp0
(S'sprint'
p1
tp2
(lp3
(I0
I3
I0
S'local'
p4
I0
tp5
as(S'htc'
p6
S'evo'
p7
tp8
(lp9
(I0
I36
F0.125
S'typical'
p10
I0
tp11
a(I0
I46
F0.625
S'perfect'
p12
I0
tp13
as(S'battery'
p14
S'life'
p15
tp16
(lp17
(I0
I51
F-0.875
S'worst'
p18
I1
tp19
a(I11
I6
F0.125
S'last'
p20
I1
tp21
a(I13
I23
F1.0
S'better'
p22
I1
tp23
a(I16
I23
I0
S'great'
p24
I1
tp25
a(I16
I23
I0
S'big'
p26
I1
tp27
a(I19
I17
I0
S'great'
p28
I1
tp29
a(I19
I17
F-0.5
S'try'
p30
I1
tp31
a(I0
I19
F-0.75
S'wrong'
p32
I19
tp33
a(I11
I6
F0.125
g20
I19
tp34
a(I13
I23
F1.0
g22
I19
tp35
a(I16
I23
I0
g24
I19
tp36
a(I16
I23
I0
g26
I19
tp37
a(I19
I17
I0
g28
I19
tp38
a(I19
I17
F-0.5
g30
I19
tp39
a(I0
I51
F-0.875
g18
I15
tp40
a(I0
I52
I0
S'great'
p41
I15
tp42
a(I4
I9
F1.0
S'better'
p43
I15
tp44
a(I6
I19
F0.375
S'new'
p45
I15
tp46
a(I13
I43
F0.125
S'last'
p47
I15
tp48
a(I15
I3
F-0.625
S'spare'
p49
I15
tp50
as(S'brand'
p51
S'new'
p52
tp53
(lp54
(I1
I4
F0.375
S'new'
p55
I9
tp56
a(I1
I4
F0.875
S'happy'
p57
I9
tp58
a(I4
I6
F0.375
S'new'
p59
I9
tp60
a(I12
I8
F0.375
S'new'
p61
I9
tp62
a(I13
I39
F0.375
S'new'
p63
I9
tp64
a(I13
I46
F0.375
S'new'
p65
I9
tp66
a(I16
I66
F0.375
S'new'
p67
I9
tp68
a(I19
I4
F0.375
S'new'
p69
I9
tp70
as(S'camera'
p71
tp72
(lp73
(I2
I12
I0
S'3d'
p74
I1
tp75
a(I2
I13
F-0.5
S'regular'
p76
I1
tp77
a(I8
I0
I0
S'3d'
p78
I1
tp79
a(I13
I11
F0.125
S'capable'
p80
I1
tp81
a(I15
I1
I0
S'3d'
p82
I1
tp83
a(I15
I3
F1.0
S'good'
p84
I1
tp85
a(I16
I66
F-0.25
S'low'
p86
I1
tp87
a(I16
I66
F-0.625
S'light'
p88
I1
tp89
a(I16
I66
F0.625
S'kind'
p90
I1
tp91
a(I16
I77
I0
S'3d'
p92
I1
tp93
as.