(dp0
(S'problem'
p1
tp2
(lp3
(I65
I0
I0
S'only'
p4
tp5
a(I98
I12
I0
S'only'
p6
tp7
a(I98
I12
I0
S'big'
p8
tp9
a(I105
I0
F0.625
S'major'
p10
tp11
a(I108
I1
I0
S'only'
p12
tp13
a(I121
I7
F0.5
S'careful'
p14
tp15
a(I159
I2
I0
S'android'
p16
tp17
as(S'battery'
p18
S'life'
p19
tp20
(lp21
(I36
I1
F-0.5
S'long'
p22
tp23
a(I42
I4
F0.125
S'last'
p24
tp25
a(I117
I0
F-0.625
S'bad'
p26
tp27
a(I118
I0
F-0.625
S'bad'
p28
tp29
a(I118
I0
F-0.125
S'mine'
p30
tp31
a(I136
I3
F-0.875
S'negative'
p32
tp33
a(I136
I3
F-0.25
S'battery'
p34
tp35
a(I149
I0
F-0.25
S'low'
p36
tp37
as(S'purchase'
p38
tp39
(lp40
(I103
I1
F0.25
S'sharp'
p41
tp42
a(I106
I2
F1.0
S'good'
p43
tp44
as(S'keyboard'
p45
tp46
(lp47
(I22
I3
F-0.375
S'black'
p48
tp49
a(I22
I12
F0.625
S'easier'
p50
tp51
a(I39
I0
I0
S'full'
p52
tp53
a(I98
I1
F0.625
S'easy'
p54
tp55
a(I119
I1
F0.75
S'due'
p56
tp57
as(S'sim'
p58
S'card'
p59
tp60
(lp61
(I34
I0
F0.75
S'due'
p62
tp63
a(I119
I3
I0
S'old'
p64
tp65
a(I121
I5
I0
S'dial'
p66
tp67
as(S'two'
p68
S'weeks'
p69
tp70
(lp71
(I57
I12
F0.125
S'first'
p72
tp73
a(I139
I1
I0
S'later'
p74
tp75
a(I149
I1
F0.125
S'first'
p76
tp77
as(S'money'
p78
tp79
(lp80
(I59
I2
F-0.5
S'afraid'
p81
tp82
as(S'micro'
p83
S'sd'
p84
tp85
(lp86
(I160
I6
F-0.625
S'bad'
p87
tp88
as(S'lock'
p89
S'screen'
p90
tp91
(lp92
(I121
I3
F0.625
S'necessary'
p93
tp94
a(I149
I1
F0.5
S'touch'
p95
tp96
as(S'screen'
p97
tp98
(lp99
(I33
I1
F0.25
S'bigger'
p100
tp101
a(I80
I2
F0.625
S'easy'
p102
tp103
a(I89
I1
F0.5
S'clear'
p104
tp105
a(I114
I2
F0.5
S'touch'
p106
tp107
a(I116
I6
F0.5
S'touch'
p108
tp109
a(I121
I3
F0.625
g93
tp110
a(I137
I1
F-0.75
S'bright'
p111
tp112
a(I139
I0
I0
S'funny'
p113
tp114
a(I149
I1
F0.5
g95
tp115
a(I163
I1
F0.5
S'touch'
p116
tp117
as(S'everything'
p118
tp119
(lp120
(I96
I1
F0.625
S'perfect'
p121
tp122
as(S'few'
p123
S'days'
p124
tp125
(lp126
(I34
I0
I0
S'few'
p127
tp128
a(I130
I1
I0
S'few'
p129
tp130
a(I130
I1
I0
S'own'
p131
tp132
a(I154
I1
I0
S'few'
p133
tp134
as(S'getting'
p135
tp136
(lp137
(I153
I0
F0.125
S'first'
p138
tp139
as(S'back'
p140
tp141
(lp142
(I146
I2
F-0.125
S'mine'
p143
tp144
as(S'touch'
p145
tp146
(lp147
(I104
I3
F-0.75
S'unresponsive'
p148
tp149
a(I136
I2
F0.25
S'sharp'
p150
tp151
a(I136
I2
F1.0
S'good'
p152
tp153
a(I149
I1
F0.25
S'responsive'
p154
tp155
a(I149
I1
F-0.625
S'natural'
p156
tp157
as(S'life'
p158
tp159
(lp160
(I42
I4
F0.125
g24
tp161
a(I118
I0
F-0.625
g28
tp162
a(I118
I0
F-0.125
g30
tp163
a(I136
I3
F-0.875
g32
tp164
a(I136
I3
F-0.25
g34
tp165
as(S'plus'
p166
tp167
(lp168
(I15
I1
I0
S'big'
p169
tp170
a(I98
I8
I0
S'automatic'
p171
tp172
as(S'need'
p173
tp174
(lp175
(I122
I1
F-0.5
S'open'
p176
tp177
as(S'quality'
p178
tp179
(lp180
(I29
I10
F0.5
S'clear'
p181
tp182
a(I76
I0
F-0.625
S'bad'
p183
tp184
a(I76
I0
F1.0
S'good'
p185
tp186
a(I76
I0
I0
S'pic'
p187
tp188
a(I76
I0
F-0.625
S'bad'
p189
tp190
a(I84
I1
F1.0
S'good'
p191
tp192
a(I126
I1
F-0.5
S'poor'
p193
tp194
as(S'memory'
p195
tp196
(lp197
(I21
I3
I0
S'internal'
p198
tp199
a(I29
I8
I0
S'internal'
p200
tp201
a(I41
I1
I0
S'great'
p202
tp203
a(I43
I8
F-0.25
S'low'
p204
tp205
a(I43
I8
I0
S'internal'
p206
tp207
a(I64
I0
F0.125
S'enough'
p208
tp209
a(I72
I1
F-0.5
S'poor'
p210
tp211
a(I79
I0
I0
S'internal'
p212
tp213
a(I82
I1
I0
S'internal'
p214
tp215
a(I82
I1
F-0.375
S'small'
p216
tp217
a(I82
I1
I0
S'android'
p218
tp219
a(I128
I1
F0.375
S'much'
p220
tp221
a(I162
I0
I0
S'internal'
p222
tp223
a(I162
I0
F0.125
S'enough'
p224
tp225
as(S'product'
p226
tp227
(lp228
(I16
I1
F0.375
S'new'
p229
tp230
a(I34
I2
F0.25
S'used'
p231
tp232
a(I34
I2
F0.25
S'suppose'
p233
tp234
a(I34
I2
F0.375
S'new'
p235
tp236
a(I40
I1
F0.375
S'new'
p237
tp238
a(I40
I1
F0.375
S'complete'
p239
tp240
a(I111
I4
I0
S'great'
p241
tp242
a(I113
I0
I0
S'great'
p243
tp244
a(I121
I0
F0.5
S'clear'
p245
tp246
a(I145
I0
F1.0
S'good'
p247
tp248
a(I145
I0
F1.0
S'good'
p249
tp250
as(S'mobile'
p251
tp252
(lp253
(I63
I5
F-0.375
S'simple'
p254
tp255
as(S'emergency'
p256
tp257
(lp258
(I40
I3
I0
S'great'
p259
tp260
a(I121
I0
I0
S'dial'
p261
tp262
as(S'price'
p263
tp264
(lp265
(I10
I4
I0
S'great'
p266
tp267
a(I13
I7
I0
S'great'
p268
tp269
a(I45
I1
F0.125
S'last'
p270
tp271
a(I45
I1
I0
S'least'
p272
tp273
a(I72
I0
F-0.625
S'bad'
p274
tp275
a(I99
I1
I0
S'great'
p276
tp277
a(I108
I0
F1.0
S'good'
p278
tp279
a(I108
I0
I0
S'full'
p280
tp281
a(I110
I3
F-0.25
S'low'
p282
tp283
a(I133
I0
F1.0
S'good'
p284
tp285
a(I157
I1
I0
S'same'
p286
tp287
as(S'sd'
p288
S'card'
p289
tp290
(lp291
(I34
I0
F0.75
g62
tp292
a(I79
I0
F-0.125
S'mine'
p293
tp294
a(I116
I3
I0
S'install'
p295
tp296
as(S'android'
p297
tp298
(lp299
(I18
I0
F1.0
S'good'
p300
tp301
a(I29
I4
F-0.5
S'less'
p302
tp303
a(I29
I4
F0.125
S'typical'
p304
tp305
a(I43
I3
F0.125
S'first'
p306
tp307
as(S'works'
p308
tp309
(lp310
(I33
I0
I0
S'great'
p311
tp312
a(I66
I0
F1.0
S'good'
p313
tp314
a(I84
I0
F0.625
S'easy'
p315
tp316
a(I84
I0
I0
S'great'
p317
tp318
a(I90
I0
I0
S'great'
p319
tp320
a(I140
I1
F-0.25
S'plugged'
p321
tp322
as(S'picture'
p323
S'messages'
p324
tp325
(lp326
(I142
I0
F0.875
S'nice'
p327
tp328
a(I142
I0
F0.625
S'easy'
p329
tp330
a(I142
I0
F-0.75
S'unable'
p331
tp332
as(S'battery'
p333
tp334
(lp335
(I1
I2
F0.125
S'last'
p336
tp337
a(I11
I0
F-0.375
S'manual'
p338
tp339
a(I36
I1
F-0.5
g22
tp340
a(I62
I0
F0.125
S'last'
p341
tp342
a(I62
I0
F-0.5
S'long'
p343
tp344
a(I68
I2
F0.125
S'last'
p345
tp346
a(I72
I1
F0.125
S'last'
p347
tp348
a(I72
I1
F-0.5
S'long'
p349
tp350
a(I77
I0
F0.125
S'last'
p351
tp352
a(I85
I1
F-0.25
S'low'
p353
tp354
a(I104
I8
I0
S'cable'
p355
tp356
a(I115
I0
F-0.5
S'less'
p357
tp358
a(I117
I0
F-0.625
g26
tp359
a(I139
I1
F-0.625
S'bad'
p360
tp361
a(I149
I0
F-0.25
g36
tp362
a(I149
I1
F0.125
S'last'
p363
tp364
a(I155
I1
I0
S'sensitive'
p365
tp366
as(S'emergency'
p367
S'numbers'
p368
tp369
(lp370
(I121
I0
I0
g261
tp371
as(S'cell'
p372
tp373
(lp374
(I91
I1
F0.5
S'second'
p375
tp376
a(I156
I0
F-0.25
S'inexpensive'
p377
tp378
as(S'calls'
p379
tp380
(lp381
(I60
I0
F-0.5
S'unintended'
p382
tp383
a(I84
I1
F0.625
S'easy'
p384
tp385
a(I102
I0
F-0.75
S'unable'
p386
tp387
a(I149
I0
F-0.125
S'accidental'
p388
tp389
as(S'thing'
p390
tp391
(lp392
(I1
I2
I0
S'only'
p393
tp394
a(I9
I4
I0
S'only'
p395
tp396
a(I91
I4
I0
S'only'
p397
tp398
a(I91
I4
F-0.875
S'negative'
p399
tp400
a(I97
I2
I0
S'only'
p401
tp402
a(I149
I1
F1.0
S'best'
p403
tp404
a(I153
I0
F-0.625
S'other'
p405
tp406
a(I162
I0
I0
S'only'
p407
tp408
a(I162
I0
F1.0
S'good'
p409
tp410
as(S'cheap'
p411
tp412
(lp413
(I9
I3
F1.0
S'good'
p414
tp415
a(I9
I3
F1.0
S'good'
p416
tp417
a(I9
I3
F0.375
S'new'
p418
tp419
a(I153
I0
F0.375
S'dependable'
p420
tp421
as(S'space'
p422
tp423
(lp424
(I68
I6
F0.125
S'enough'
p425
tp426
a(I140
I0
F-0.75
S'little'
p427
tp428
as(S'charge'
p429
tp430
(lp431
(I21
I3
F0.125
S'last'
p432
tp433
a(I43
I6
I0
S'full'
p434
tp435
a(I57
I6
F-0.75
S'wrong'
p436
tp437
as(S'sharp'
p438
S'fx'
p439
tp440
(lp441
(I4
I2
F0.25
S'sharp'
p442
tp443
a(I121
I0
F0.25
S'sharp'
p444
tp445
a(I141
I0
F0.25
S'sharp'
p446
tp447
as(S'data'
p448
tp449
(lp450
(I15
I3
F-0.5
S'sure'
p451
tp452
a(I15
I3
F0.375
S'enable'
p453
tp454
a(I19
I0
F-0.625
S'want'
p455
tp456
a(I19
I1
I0
S'monthly'
p457
tp458
as(S'time'
p459
tp460
(lp461
(I21
I0
F1.0
S'good'
p462
tp463
a(I46
I0
I0
S'old'
p464
tp465
a(I46
I0
F-0.375
S'black'
p466
tp467
a(I46
I0
F0.375
S'new'
p468
tp469
a(I46
I0
I0
S'next'
p470
tp471
a(I68
I2
F-0.5
S'long'
p472
tp473
a(I71
I1
I0
S'third'
p474
tp475
a(I89
I3
F0.125
S'first'
p476
tp477
a(I104
I7
I0
S'text'
p478
tp479
a(I116
I8
F-0.5
S'sure'
p480
tp481
a(I144
I2
F0.5
S'whole'
p482
tp483
a(I156
I2
F0.375
S'early'
p484
tp485
a(I158
I4
F0.625
S'acceptable'
p486
tp487
as(S'wi'
p488
S'fi'
p489
tp490
(lp491
(I15
I3
F0.875
S'happy'
p492
tp493
a(I42
I3
F0.375
S'available'
p494
tp495
as(S'fine'
p496
tp497
(lp498
(I9
I6
F0.625
S'perfect'
p499
tp500
a(I63
I4
F0.125
S'gust'
p501
tp502
as(S'card'
p503
tp504
(lp505
(I34
I0
F0.75
g62
tp506
a(I68
I0
I0
S'local'
p507
tp508
a(I79
I0
F-0.125
g293
tp509
a(I121
I5
I0
g66
tp510
as(S'fast'
p511
tp512
(lp513
(I111
I2
F0.375
S'friendly'
p514
tp515
as(S'looking'
p516
tp517
(lp518
(I151
I0
F0.75
S'beautiful'
p519
tp520
as(S'apps'
p521
tp522
(lp523
(I29
I9
I0
S'most'
p524
tp525
a(I64
I0
F0.125
S'essential'
p526
tp527
a(I74
I1
F1.0
S'good'
p528
tp529
a(I79
I0
I0
S'few'
p530
tp531
a(I79
I1
I0
S'many'
p532
tp533
a(I91
I5
I0
S'most'
p534
tp535
a(I106
I2
F-0.5
S'longer'
p536
tp537
as(S'nternal'
p538
S'memory'
p539
tp540
(lp541
(I21
I3
I0
g198
tp542
a(I29
I8
I0
g200
tp543
a(I43
I8
F-0.25
g204
tp544
a(I43
I8
I0
g206
tp545
a(I79
I0
I0
g212
tp546
a(I82
I1
I0
g214
tp547
a(I82
I1
F-0.375
g216
tp548
a(I82
I1
I0
g218
tp549
a(I162
I0
I0
g222
tp550
a(I162
I0
F0.125
g224
tp551
as(S'touch'
p552
S'screen'
p553
tp554
(lp555
(I80
I2
F0.625
g102
tp556
a(I104
I3
F-0.75
g148
tp557
a(I114
I2
F0.5
g106
tp558
a(I116
I6
F0.5
g108
tp559
a(I136
I2
F0.25
g150
tp560
a(I136
I2
F1.0
g152
tp561
a(I149
I1
F0.5
g95
tp562
a(I149
I1
F0.25
g154
tp563
a(I149
I1
F-0.625
g156
tp564
a(I163
I1
F0.5
g116
tp565
as(S'sound'
p566
S'quality'
p567
tp568
(lp569
(I126
I1
F-0.5
g193
tp570
as.