(dp0
(S'battery'
p1
S'life'
p2
tp3
(lp4
(I2
I60
F0.625
S'replaceable'
p5
I1
tp6
a(I3
I2
F-0.5
S'poor'
p7
I1
tp8
a(I3
I2
F0.625
S'accessible'
p9
I1
tp10
a(I9
I8
F1.0
S'best'
p11
I1
tp12
a(I14
I7
F1.0
S'better'
p13
I1
tp14
a(I15
I3
F-0.75
S'short'
p15
I1
tp16
a(I33
I9
F-0.25
S'low'
p17
I1
tp18
a(I33
I21
F1.0
S'good'
p19
I1
tp20
a(I36
I11
F-0.625
S'bad'
p21
I1
tp22
a(I52
I9
F-0.5
S'poor'
p23
I1
tp24
a(I2
I96
F-0.75
S'little'
p25
I19
tp26
a(I3
I2
F-0.5
g7
I19
tp27
a(I9
I8
F1.0
g11
I19
tp28
a(I14
I7
F1.0
g13
I19
tp29
a(I28
I1
I0
S'great'
p30
I19
tp31
a(I28
I1
I0
S'large'
p32
I19
tp33
a(I36
I11
F-0.625
g21
I19
tp34
a(I50
I31
F-0.5
S'longer'
p35
I19
tp36
a(I50
I31
I0
S'useful'
p37
I19
tp38
a(I52
I9
F-0.5
g23
I19
tp39
a(I2
I47
F1.0
S'better'
p40
I15
tp41
a(I2
I60
F0.625
g5
I15
tp42
a(I2
I127
F0.625
S'removable'
p43
I15
tp44
a(I3
I2
F0.625
g9
I15
tp45
a(I6
I0
I0
S'empty'
p46
I15
tp47
a(I11
I0
F-0.25
S'low'
p48
I15
tp49
a(I15
I3
F-0.75
g15
I15
tp50
a(I17
I6
F-0.5
S'poor'
p51
I15
tp52
a(I28
I0
F0.625
S'replaceable'
p53
I15
tp54
a(I33
I9
F-0.25
g17
I15
tp55
a(I33
I21
F1.0
g19
I15
tp56
a(I45
I10
F0.375
S'much'
p57
I15
tp58
as(S'cellphone'
p59
tp60
(lp61
(I44
I4
F0.25
S'unlocked'
p62
I0
tp63
a(I55
I2
F0.5
S'expensive'
p64
I0
tp65
as(S'sense'
p66
tp67
(lp68
(I25
I1
F-0.75
S'hate'
p69
I8
tp70
as(S'service'
p71
tp72
(lp73
(I2
I26
F0.625
S'extraordinary'
p74
I16
tp75
a(I18
I3
F1.0
S'good'
p76
I16
tp77
a(I30
I3
I0
S'incredible'
p78
I16
tp79
a(I30
I7
F0.125
S'equal'
p80
I16
tp81
as(S'camera'
p82
tp83
(lp84
(I2
I72
F1.0
S'good'
p85
I1
tp86
a(I14
I21
F0.25
S'main'
p87
I1
tp88
a(I14
I21
I0
S'same'
p89
I1
tp90
a(I15
I17
I0
S'real'
p91
I1
tp92
a(I23
I4
F1.0
S'good'
p93
I1
tp94
a(I25
I0
I0
S'great'
p95
I1
tp96
a(I32
I12
F0.5
S'clear'
p97
I1
tp98
a(I33
I21
F0.875
S'nice'
p99
I1
tp100
a(I45
I11
F1.0
S'good'
p101
I1
tp102
a(I45
I11
I0
S'mobile'
p103
I1
tp104
a(I48
I1
I0
S'great'
p105
I1
tp106
a(I48
I6
F1.0
S'best'
p107
I1
tp108
a(I48
I49
F1.0
S'best'
p109
I1
tp110
as(S'iphone'
p111
tp112
(lp113
(I8
I6
I0
S'old'
p114
I1
tp115
a(I33
I0
I0
S'faster'
p116
I1
tp117
as(S'blue'
p118
S'tooth'
p119
tp120
(lp121
(I35
I24
I0
S'blue'
p122
I0
tp123
a(I35
I27
I0
S'blue'
p124
I0
tp125
a(I35
I28
I0
S'blue'
p126
I0
tp127
a(I35
I29
F-0.125
S'behold'
p128
I0
tp129
a(I35
I29
I0
S'blue'
p130
I0
tp131
as(S'htc'
p132
S'one'
p133
S'x'
p134
tp135
(lp136
(I23
I0
F0.375
S'new'
p137
I0
tp138
a(I27
I3
F0.875
S'happy'
p139
I0
tp140
a(I32
I27
F1.0
S'good'
p141
I0
tp142
a(I41
I8
I0
S'old'
p143
I0
tp144
a(I42
I10
F0.25
S'original'
p145
I0
tp146
a(I50
I3
I0
S'real'
p147
I0
tp148
a(I50
I3
F-0.5
S'international'
p149
I0
tp150
as(S'seller'
p151
tp152
(lp153
(I0
I8
F-0.75
S'likely'
p154
I19
tp155
a(I33
I4
I0
S'email'
p156
I19
tp157
a(I33
I12
F0.5
S'clear'
p158
I19
tp159
a(I42
I18
F1.0
S'better'
p160
I19
tp161
as(S'android'
p162
tp163
(lp164
(I36
I0
F1.0
S'best'
p165
I0
tp166
a(I45
I18
F0.375
S'new'
p167
I0
tp168
as(S'beats'
p169
S'audio'
p170
tp171
(lp172
(I8
I11
I0
S'arrive'
p173
I0
tp174
a(I32
I37
F0.5
S'told'
p175
I0
tp176
a(I32
I37
I0
S'great'
p177
I0
tp178
a(I52
I10
F-0.75
S'little'
p179
I0
tp180
a(I52
I10
I0
S'more'
p181
I0
tp182
a(I32
I37
F0.5
g175
I2
tp183
a(I8
I11
I0
g173
I2
tp184
a(I23
I4
F0.5
S'clear'
p185
I2
tp186
a(I32
I37
I0
g177
I2
tp187
a(I52
I10
F-0.75
g179
I2
tp188
a(I52
I10
I0
g181
I2
tp189
as(S'processor'
p190
tp191
(lp192
(I5
I7
I0
S'great'
p193
I1
tp194
a(I46
I11
F0.25
S'powerful'
p195
I1
tp196
a(I54
I5
F-0.375
S'smooth'
p197
I1
tp198
as(S'upgrade'
p199
tp200
(lp201
(I7
I16
F0.375
S'early'
p202
I3
tp203
a(I15
I20
I0
S'great'
p204
I3
tp205
a(I45
I20
F0.125
S'able'
p206
I3
tp207
as(S'sim'
p208
S'card'
p209
tp210
(lp211
(I3
I1
F-0.375
S'small'
p212
I0
tp213
a(I9
I2
I0
S'prepaid'
p214
I0
tp215
a(I14
I4
F-0.5
S'sudden'
p216
I0
tp217
as(S'music'
p218
tp219
(lp220
(I2
I14
I0
S'great'
p221
I0
tp222
a(I45
I5
F0.875
S'nice'
p223
I0
tp224
as(S'happy'
p225
S'with'
p226
S'product'
p227
tp228
(lp229
(I2
I9
F0.875
S'happy'
p230
I1
tp231
a(I9
I11
F0.875
S'happy'
p232
I1
tp233
a(I32
I11
F0.875
S'happy'
p234
I1
tp235
as(S'international'
p236
S'version'
p237
tp238
(lp239
(I2
I132
F-0.5
S'international'
p240
I0
tp241
a(I7
I1
F-0.5
S'international'
p242
I0
tp243
a(I9
I2
F-0.5
S'international'
p244
I0
tp245
a(I21
I16
F-0.5
S'international'
p246
I0
tp247
a(I22
I11
I0
S'same'
p248
I0
tp249
a(I22
I12
F-0.5
S'international'
p250
I0
tp251
a(I22
I15
F-0.5
S'international'
p252
I0
tp253
a(I24
I1
F-0.5
S'international'
p254
I0
tp255
a(I26
I1
F-0.5
S'international'
p256
I0
tp257
a(I27
I0
F-0.5
S'international'
p258
I0
tp259
a(I36
I3
F-0.5
S'international'
p260
I0
tp261
a(I36
I4
F-0.5
S'international'
p262
I0
tp263
a(I36
I5
F-0.5
S'international'
p264
I0
tp265
a(I40
I4
F-0.5
S'international'
p266
I0
tp267
a(I40
I6
F-0.5
S'international'
p268
I0
tp269
a(I40
I12
F-0.5
S'international'
p270
I0
tp271
a(I41
I3
F-0.5
S'international'
p272
I0
tp273
a(I47
I2
F-0.5
S'international'
p274
I0
tp275
a(I50
I0
F-0.5
S'international'
p276
I0
tp277
a(I50
I25
F-0.5
S'international'
p278
I0
tp279
a(I50
I25
I0
S'same'
p280
I0
tp281
as(S'micro'
p282
S'sim'
p283
tp284
(lp285
(I9
I2
I0
g214
I0
tp286
a(I20
I4
I0
S'specific'
p287
I0
tp288
a(I22
I14
F0.375
S'new'
p289
I0
tp290
as(S'wireless'
p291
tp292
(lp293
(I21
I21
F0.625
S'responsible'
p294
I0
tp295
as(S'wifi'
p296
tp297
(lp298
(I15
I10
F0.375
S'enable'
p299
I0
tp300
a(I37
I1
F-0.5
S'weak'
p301
I0
tp302
a(I37
I1
I0
S'signal'
p303
I0
tp304
as(S'storage'
p305
tp306
(lp307
(I3
I3
I0
S'more'
p308
I1
tp309
a(I3
I3
F-0.875
S'stuck'
p310
I1
tp311
a(I15
I15
I0
S'sd'
p312
I1
tp313
a(I45
I5
I0
S'more'
p314
I1
tp315
a(I45
I24
F1.0
S'good'
p316
I1
tp317
as(S'performance'
p318
tp319
(lp320
(I15
I11
F1.0
S'better'
p321
I2
tp322
a(I15
I16
I0
S'great'
p323
I2
tp324
a(I35
I43
I0
S'great'
p325
I2
tp326
a(I50
I20
F1.0
S'best'
p327
I2
tp328
as(S'quad'
p329
S'core'
p330
tp331
(lp332
(I37
I11
I0
S'quad'
p333
I0
tp334
a(I37
I11
I0
g333
I3
tp335
as.