(dp0
(S'calling'
p1
tp2
(lp3
(I16
I93
I0
S'great'
p4
I0
tp5
as(S'battery'
p6
S'life'
p7
tp8
(lp9
(I12
I1
F1.0
S'good'
p10
I1
tp11
a(I15
I19
I0
S'great'
p12
I1
tp13
a(I15
I19
F0.625
S'easy'
p14
I1
tp15
a(I16
I79
F1.0
S'good'
p16
I1
tp17
a(I25
I72
F0.75
S'due'
p18
I1
tp19
a(I25
I72
F-0.25
S'low'
p20
I1
tp21
a(I25
I72
F-0.75
S'unable'
p22
I1
tp23
a(I28
I8
F1.0
S'good'
p24
I1
tp25
a(I15
I19
F0.625
g14
I19
tp26
a(I16
I79
F1.0
g16
I19
tp27
a(I1
I4
F1.0
S'good'
p28
I15
tp29
a(I12
I1
F1.0
g10
I15
tp30
a(I15
I19
I0
g12
I15
tp31
a(I16
I39
F-0.5
S'sure'
p32
I15
tp33
a(I25
I72
F0.75
g18
I15
tp34
a(I25
I72
F-0.25
g20
I15
tp35
a(I25
I72
F-0.75
g22
I15
tp36
a(I28
I2
F-0.5
S'long'
p37
I15
tp38
a(I28
I8
F1.0
g24
I15
tp39
a(I28
I70
F0.125
S'last'
p40
I15
tp41
a(I28
I77
F-0.75
S'dead'
p42
I15
tp43
a(I28
I77
F-0.75
S'dead'
p44
I15
tp45
as(S'external'
p46
S'display'
p47
tp48
(lp49
(I14
I45
F0.125
S'first'
p50
I0
tp51
a(I25
I18
I0
S'external'
p52
I0
tp53
a(I25
I55
I0
S'external'
p54
I0
tp55
a(I25
I57
I0
S'external'
p56
I0
tp57
as(S'text'
p58
tp59
(lp60
(I29
I53
I0
S'more'
p61
I18
tp62
a(I29
I53
F-0.5
S'wished'
p63
I18
tp64
as(S'call'
p65
S'quality'
p66
tp67
(lp68
(I8
I25
F1.0
S'good'
p69
I0
tp70
a(I14
I50
I0
S'great'
p71
I0
tp72
a(I15
I18
F1.0
S'good'
p73
I0
tp74
as(S'service'
p75
tp76
(lp77
(I15
I18
F0.375
S'reliable'
p78
I16
tp79
a(I19
I3
I0
S'big'
p80
I16
tp81
a(I21
I7
F0.5
S'recommended'
p82
I16
tp83
a(I26
I13
F0.375
S'available'
p84
I16
tp85
as(S'camera'
p86
tp87
(lp88
(I16
I89
F0.625
S'kind'
p89
I1
tp90
a(I25
I12
I0
S'basic'
p91
I1
tp92
as(S'reception'
p93
tp94
(lp95
(I2
I11
F1.0
S'good'
p96
I0
tp97
a(I2
I11
F-0.375
S'small'
p98
I0
tp99
a(I3
I32
I0
S'great'
p100
I0
tp101
a(I5
I9
F1.0
S'good'
p102
I0
tp103
a(I14
I2
F1.0
S'good'
p104
I0
tp105
a(I14
I10
F-0.5
S'poor'
p106
I0
tp107
a(I24
I16
I0
S'cellular'
p108
I0
tp109
a(I24
I16
I0
S'great'
p110
I0
tp111
a(I24
I17
F0.125
S'able'
p112
I0
tp113
a(I24
I17
I0
S'most'
p114
I0
tp115
a(I25
I71
F1.0
S'good'
p116
I0
tp117
a(I28
I5
F1.0
S'good'
p118
I0
tp119
a(I28
I35
I0
S'great'
p120
I0
tp121
a(I31
I73
I0
S'great'
p122
I0
tp123
as(S'internet'
p124
tp125
(lp126
(I24
I13
I0
S'dial'
p127
I6
tp128
as(S'prepaid'
p129
tp130
(lp131
(I30
I1
F-0.625
S'other'
p132
I0
tp133
as(S'light'
p134
S'weight'
p135
tp136
(lp137
(I3
I39
F-0.625
S'light'
p138
I5
tp139
a(I11
I8
I0
S'dial'
p140
I5
tp141
a(I11
I8
F-0.125
S'super'
p142
I5
tp143
a(I11
I8
F-0.625
S'light'
p144
I5
tp145
as(S'contract'
p146
tp147
(lp148
(I14
I37
I0
S'great'
p149
I0
tp150
a(I25
I25
F0.375
S'new'
p151
I0
tp152
a(I29
I15
F-0.75
S'little'
p153
I0
tp154
as(S'a157'
p155
tp156
(lp157
(I25
I73
F0.375
S'newer'
p158
I0
tp159
a(I31
I53
F0.125
S'popular'
p160
I0
tp161
as(S'voice'
p162
tp163
(lp164
(I1
I4
F0.625
S'easy'
p165
I4
tp166
a(I1
I4
F1.0
S'good'
p167
I4
tp168
a(I4
I33
F-0.75
S'little'
p169
I4
tp170
a(I15
I27
I0
S'great'
p171
I4
tp172
a(I28
I73
F0.5
S'primary'
p173
I4
tp174
as(S'talk'
p175
tp176
(lp177
(I4
I3
I0
S'basic'
p178
I13
tp179
a(I16
I43
I0
S'basic'
p180
I13
tp181
a(I16
I59
F-0.5
S'unlimited'
p182
I13
tp183
as(S'replacement'
p184
tp185
(lp186
(I14
I52
I0
S'great'
p187
I13
tp188
a(I22
I4
I0
S'mobile'
p189
I13
tp190
as(S'calls'
p191
tp192
(lp193
(I11
I5
F-0.625
S'bad'
p194
I0
tp195
a(I28
I12
F0.75
S'receive'
p196
I0
tp197
a(I29
I27
F1.0
S'good'
p198
I0
tp199
as(S'bells'
p200
S'and'
p201
S'whistles'
p202
tp203
(lp204
(I2
I9
I0
S'unnecessary'
p205
I0
tp206
a(I15
I26
F0.875
S'happy'
p207
I0
tp208
as(S'new'
p209
S'sim'
p210
S'card'
p211
tp212
(lp213
(I4
I11
F0.375
S'new'
p214
I0
tp215
a(I8
I8
I0
S'old'
p216
I0
tp217
a(I16
I6
F0.375
S'new'
p218
I0
tp219
a(I16
I6
F0.375
S'new'
p220
I0
tp221
a(I16
I6
I0
S'only'
p222
I0
tp223
a(I19
I7
F0.375
S'new'
p224
I0
tp225
a(I31
I1
F0.375
S'new'
p226
I0
tp227
a(I4
I11
F0.375
g214
I0
tp228
a(I8
I8
I0
g216
I0
tp229
a(I16
I5
I0
S'old'
p230
I0
tp231
a(I16
I6
F0.375
g218
I0
tp232
a(I16
I6
F0.375
g220
I0
tp233
a(I16
I6
I0
g222
I0
tp234
a(I16
I85
F0.125
S'last'
p235
I0
tp236
a(I16
I85
F0.375
S'extra'
p237
I0
tp238
a(I19
I7
F0.375
g224
I0
tp239
a(I20
I4
I0
S'needed'
p240
I0
tp241
a(I24
I5
F0.25
S'original'
p242
I0
tp243
a(I25
I11
F0.25
S'larger'
p244
I0
tp245
a(I31
I1
F0.375
g226
I0
tp246
a(I31
I60
I0
S'old'
p247
I0
tp248
a(I31
I60
F1.0
S'good'
p249
I0
tp250
a(I4
I11
F0.375
g214
I0
tp251
a(I8
I8
I0
g216
I0
tp252
a(I16
I6
F0.375
g218
I0
tp253
a(I16
I6
F0.375
g220
I0
tp254
a(I16
I6
I0
g222
I0
tp255
a(I19
I7
F0.375
g224
I0
tp256
a(I31
I1
F0.375
g226
I0
tp257
as(S'per'
p258
S'minute'
p259
tp260
(lp261
(I25
I7
I0
S'basic'
p262
I0
tp263
as(S'smartphone'
p264
tp265
(lp266
(I16
I75
F0.5
S'stylish'
p267
I0
tp268
as(S'a'
p269
S'sim'
p270
S'card'
p271
tp272
(lp273
(I4
I11
F0.375
g214
I0
tp274
a(I8
I8
I0
g216
I0
tp275
a(I16
I5
I0
g230
I0
tp276
a(I16
I6
F0.375
g218
I0
tp277
a(I16
I6
F0.375
g220
I0
tp278
a(I16
I6
I0
g222
I0
tp279
a(I16
I85
F0.125
g235
I0
tp280
a(I16
I85
F0.375
g237
I0
tp281
a(I19
I7
F0.375
g224
I0
tp282
a(I20
I4
I0
g240
I0
tp283
a(I24
I5
F0.25
g242
I0
tp284
a(I25
I11
F0.25
g244
I0
tp285
a(I31
I1
F0.375
g226
I0
tp286
a(I31
I60
I0
g247
I0
tp287
a(I31
I60
F1.0
g249
I0
tp288
as(S'flip'
p289
tp290
(lp291
(I8
I0
F-0.375
S'simple'
p292
I4
tp293
a(I16
I104
I0
S'standard'
p294
I4
tp295
a(I22
I6
F-0.625
S'other'
p296
I4
tp297
a(I25
I2
I0
S'old'
p298
I4
tp299
a(I29
I21
F0.125
S'last'
p300
I4
tp301
a(I31
I63
F-0.375
S'small'
p302
I4
tp303
a(I31
I63
I0
S'slim'
p304
I4
tp305
as.