(dp0
(S'problem'
p1
tp2
(lp3
(I16
I0
F-0.375
S'serious'
p4
tp5
a(I99
I32
F-0.75
S'worse'
p6
tp7
as(S'love'
p8
tp9
(lp10
(I117
I0
F0.5
S'absolute'
p11
tp12
as(S'battery'
p13
S'life'
p14
tp15
(lp16
(I12
I1
F0.625
S'replaceable'
p17
tp18
a(I18
I0
F-0.5
S'poor'
p19
tp20
a(I18
I0
F0.625
S'accessible'
p21
tp22
a(I32
I8
F1.0
S'best'
p23
tp24
a(I42
I4
F1.0
S'better'
p25
tp26
a(I49
I1
F-0.75
S'short'
p27
tp28
a(I88
I0
I0
S'great'
p29
tp30
a(I88
I0
I0
S'large'
p31
tp32
a(I104
I2
F-0.25
S'low'
p33
tp34
a(I107
I0
F1.0
S'good'
p35
tp36
a(I117
I1
F-0.625
S'bad'
p37
tp38
a(I182
I8
F-0.5
S'poor'
p39
tp40
as(S'cellphone'
p41
tp42
(lp43
(I136
I0
F0.375
S'new'
p44
tp45
a(I150
I1
F0.25
S'unlocked'
p46
tp47
a(I153
I0
I0
S'great'
p48
tp49
a(I186
I0
F0.5
S'expensive'
p50
tp51
as(S'makes'
p52
tp53
(lp54
(I111
I23
I0
S'different'
p55
tp56
a(I116
I6
F0.875
S'happy'
p57
tp58
as(S'mango'
p59
S'wireless'
p60
tp61
(lp62
(I71
I0
F0.625
S'responsible'
p63
tp64
as(S'32'
p65
S'gb'
p66
tp67
(lp68
(I12
I12
F0.375
S'available'
p69
tp70
a(I49
I7
F-0.625
S'free'
p71
tp72
a(I49
I9
I0
S'more'
p73
tp74
a(I49
I9
F0.875
S'happy'
p75
tp76
a(I49
I9
I0
S'internal'
p77
tp78
a(I147
I0
F0.25
S'related'
p79
tp80
as(S'version'
p81
S'of'
p82
S'htc'
p83
tp84
(lp85
(I86
I0
F-0.5
S'international'
p86
tp87
a(I133
I0
F-0.5
S'international'
p88
tp89
a(I172
I0
F-0.5
S'international'
p90
tp91
as(S'came'
p92
tp93
(lp94
(I11
I1
F-0.625
S'other'
p95
tp96
a(I11
I1
F-0.5
S'open'
p97
tp98
a(I99
I43
F-0.625
S'push'
p99
tp100
as(S'money'
p101
tp102
(lp103
(I178
I1
F1.0
S'best'
p104
tp105
as(S'galaxy'
p106
S's3'
p107
tp108
(lp109
(I24
I1
F-0.25
S'cheaper'
p110
tp111
as(S'nice'
p112
tp113
(lp114
(I10
I0
I0
S'real'
p115
tp116
a(I96
I1
I0
S'large'
p117
tp118
as(S'screen'
p119
tp120
(lp121
(I1
I0
I0
S'great'
p122
tp123
a(I10
I0
I0
S'real'
p124
tp125
a(I18
I0
F0.625
S'easy'
p126
tp127
a(I29
I2
F0.125
S'spectacular'
p128
tp129
a(I80
I1
I0
S'wide'
p130
tp131
a(I93
I0
I0
S'great'
p132
tp133
a(I97
I1
F0.5
S'touch'
p134
tp135
a(I99
I9
I0
S'most'
p136
tp137
a(I106
I3
F-0.75
S'bright'
p138
tp139
a(I106
I3
F-0.75
S'bright'
p140
tp141
a(I106
I4
F0.125
S'able'
p142
tp143
a(I106
I4
I0
S'most'
p144
tp145
a(I121
I0
F1.0
S'best'
p146
tp147
a(I133
I1
I0
S'full'
p148
tp149
a(I135
I0
F0.375
S'much'
p150
tp151
a(I135
I0
F-0.25
S'higher'
p152
tp153
a(I142
I0
F0.5
S'clear'
p154
tp155
a(I142
I0
F1.0
S'best'
p156
tp157
a(I152
I1
I0
S'large'
p158
tp159
a(I166
I2
I0
S'great'
p160
tp161
a(I166
I14
F0.75
S'beautiful'
p162
tp163
a(I166
I29
I0
S'big'
p164
tp165
a(I172
I1
I0
S'full'
p166
tp167
a(I180
I0
F0.75
S'beautiful'
p168
tp169
a(I182
I0
F0.25
S'biggest'
p170
tp171
a(I182
I6
F0.625
S'easier'
p172
tp173
a(I184
I4
F-0.75
S'bright'
p174
tp175
as(S'service'
p176
tp177
(lp178
(I5
I14
F0.625
S'extraordinary'
p179
tp180
a(I61
I0
F1.0
S'good'
p181
tp182
a(I91
I3
I0
S'incredible'
p183
tp184
a(I91
I7
F0.125
S'equal'
p185
tp186
as(S'everything'
p187
tp188
(lp189
(I15
I2
F0.25
S'refurbished'
p190
tp191
a(I20
I1
I0
S'great'
p192
tp193
a(I20
I1
I0
S'big'
p194
tp195
a(I165
I3
F1.0
S'good'
p196
tp197
as(S'problems'
p198
tp199
(lp200
(I23
I0
F-0.75
S'minor'
p201
tp202
a(I111
I10
I0
S'many'
p203
tp204
a(I111
I10
F0.75
S'due'
p205
tp206
a(I182
I3
I0
S'few'
p207
tp208
as(S'works'
p209
tp210
(lp211
(I103
I2
F1.0
S'good'
p212
tp213
as(S'back'
p214
tp215
(lp216
(I178
I2
F-0.125
S'mine'
p217
tp218
as(S'nternational'
p219
S'version'
p220
tp221
(lp222
(I17
I0
F-0.5
S'international'
p223
tp224
a(I26
I1
F-0.5
S'international'
p225
tp226
a(I26
I7
F0.25
S'unlocked'
p227
tp228
a(I26
I7
F-0.5
S'international'
p229
tp230
a(I32
I2
F-0.5
S'international'
p231
tp232
a(I69
I5
F-0.5
S'international'
p233
tp234
a(I74
I0
F-0.5
S'international'
p235
tp236
a(I75
I1
I0
S'same'
p237
tp238
a(I75
I2
F-0.5
S'international'
p239
tp240
a(I75
I5
F-0.5
S'international'
p241
tp242
a(I76
I3
F-0.5
S'international'
p243
tp244
a(I83
I1
F-0.5
S'international'
p245
tp246
a(I85
I0
F-0.5
S'international'
p247
tp248
a(I86
I0
F-0.5
g86
tp249
a(I116
I3
F-0.5
S'international'
p250
tp251
a(I116
I4
F-0.5
S'international'
p252
tp253
a(I116
I4
F-0.5
S'international'
p254
tp255
a(I126
I3
F-0.5
S'international'
p256
tp257
a(I127
I1
F-0.5
S'international'
p258
tp259
a(I133
I0
F-0.5
g88
tp260
a(I159
I2
F-0.5
S'international'
p261
tp262
a(I172
I0
F-0.5
g90
tp263
a(I176
I0
F-0.5
S'international'
p264
tp265
as(S'camera'
p266
tp267
(lp268
(I12
I8
F1.0
S'good'
p269
tp270
a(I46
I0
F0.25
S'main'
p271
tp272
a(I46
I0
I0
S'same'
p273
tp274
a(I49
I10
I0
S'real'
p275
tp276
a(I80
I1
F1.0
S'good'
p277
tp278
a(I97
I1
F0.5
S'clear'
p279
tp280
a(I107
I0
F0.875
S'nice'
p281
tp282
a(I153
I3
F1.0
S'good'
p283
tp284
a(I153
I3
I0
S'mobile'
p285
tp286
a(I165
I1
I0
S'great'
p287
tp288
a(I166
I2
F1.0
S'best'
p289
tp290
a(I168
I2
F1.0
S'best'
p291
tp292
as(S'version'
p293
tp294
(lp295
(I15
I1
F0.25
S'refurbished'
p296
tp297
a(I15
I4
F0.25
S'unlocked'
p298
tp299
a(I17
I0
F-0.5
g223
tp300
a(I24
I2
F-0.125
S'bean'
p301
tp302
a(I24
I2
F-0.25
S'late'
p303
tp304
a(I26
I1
F-0.5
g225
tp305
a(I26
I7
F0.25
g227
tp306
a(I26
I7
F-0.5
g229
tp307
a(I32
I2
F-0.5
g231
tp308
a(I69
I5
F-0.5
g233
tp309
a(I74
I0
F-0.5
g235
tp310
a(I75
I1
I0
g237
tp311
a(I75
I2
F-0.5
g239
tp312
a(I75
I5
F-0.5
g241
tp313
a(I76
I3
F-0.5
g243
tp314
a(I83
I1
F-0.5
g245
tp315
a(I85
I0
F-0.5
g247
tp316
a(I86
I0
F-0.5
g86
tp317
a(I116
I3
F-0.5
g250
tp318
a(I116
I4
F-0.5
g252
tp319
a(I116
I4
F-0.5
g254
tp320
a(I118
I7
I0
S'android'
p321
tp322
a(I126
I3
F-0.5
g256
tp323
a(I127
I1
F-0.5
g258
tp324
a(I133
I0
F-0.5
g88
tp325
a(I154
I0
I0
S'special'
p326
tp327
a(I159
I2
F-0.5
g261
tp328
a(I166
I22
F0.625
S'easy'
p329
tp330
a(I172
I0
F-0.5
g90
tp331
a(I176
I0
F-0.5
g264
tp332
as(S'android'
p333
tp334
(lp335
(I116
I0
F1.0
S'best'
p336
tp337
a(I154
I1
F0.375
S'new'
p338
tp339
as(S'unlocked'
p340
S'nternational'
p341
S'version'
p342
tp343
(lp344
(I17
I0
F-0.5
g223
tp345
a(I26
I1
F-0.5
g225
tp346
a(I26
I7
F0.25
g227
tp347
a(I26
I7
F-0.5
g229
tp348
a(I32
I2
F-0.5
g231
tp349
a(I76
I3
F-0.5
g243
tp350
a(I85
I0
F-0.5
g247
tp351
a(I86
I0
F-0.5
g86
tp352
a(I126
I3
F-0.5
g256
tp353
a(I133
I0
F-0.5
g88
tp354
a(I172
I0
F-0.5
g90
tp355
as(S'touch'
p356
tp357
(lp358
(I29
I3
F1.0
S'good'
p359
tp360
a(I99
I35
F0.25
S'responsive'
p361
tp362
as(S'n'
p363
S'case'
p364
tp365
(lp366
(I111
I26
F1.0
S'good'
p367
tp368
a(I111
I26
F0.125
S'protective'
p369
tp370
as(S'blue'
p371
S'tooth'
p372
tp373
(lp374
(I111
I17
I0
S'blue'
p375
tp376
a(I111
I20
I0
S'blue'
p377
tp378
a(I111
I21
I0
S'blue'
p379
tp380
a(I111
I22
F-0.125
S'behold'
p381
tp382
a(I111
I22
I0
S'blue'
p383
tp384
as(S'quality'
p385
tp386
(lp387
(I3
I4
F1.0
S'good'
p388
tp389
a(I5
I3
I0
S'high'
p390
tp391
a(I6
I5
I0
S'great'
p392
tp393
a(I9
I2
F-0.25
S'higher'
p394
tp395
a(I18
I2
I0
S'many'
p396
tp397
a(I49
I3
I0
S'high'
p398
tp399
a(I81
I1
F1.0
S'good'
p400
tp401
a(I97
I1
F0.5
S'accurate'
p402
tp403
a(I97
I1
I0
S'visual'
p404
tp405
a(I97
I1
F0.625
S'easier'
p406
tp407
a(I110
I0
F-0.375
S'double'
p408
tp409
a(I152
I2
F1.0
S'good'
p410
tp411
a(I163
I0
I0
S'great'
p412
tp413
a(I163
I0
F1.0
S'good'
p414
tp415
a(I163
I0
F1.0
S'good'
p416
tp417
a(I166
I30
F0.25
S'consistent'
p418
tp419
as(S'product'
p420
tp421
(lp422
(I5
I1
F0.875
S'happy'
p423
tp424
a(I33
I1
F0.875
S'happy'
p425
tp426
a(I38
I0
F-0.625
S'other'
p427
tp428
a(I62
I0
I0
S'more'
p429
tp430
a(I91
I2
F0.375
S'new'
p431
tp432
a(I97
I0
F0.875
S'happy'
p433
tp434
a(I122
I0
F1.0
S'good'
p435
tp436
a(I127
I0
F1.0
S'good'
p437
tp438
a(I170
I2
F-0.25
S'low'
p439
tp440
as(S'mobile'
p441
tp442
(lp443
(I14
I0
F1.0
S'good'
p444
tp445
as(S'galaxy'
p446
tp447
(lp448
(I24
I1
F-0.25
g110
tp449
as(S'sense'
p450
tp451
(lp452
(I84
I0
F-0.75
S'hate'
p453
tp454
a(I157
I2
F0.875
S'nice'
p455
tp456
as(S'htc'
p457
S'sense'
p458
tp459
(lp460
(I157
I2
F0.875
g455
tp461
as(S'storage'
p462
tp463
(lp464
(I18
I0
I0
S'more'
p465
tp466
a(I152
I4
I0
S'more'
p467
tp468
a(I155
I0
F1.0
S'good'
p469
tp470
as(S'x'
p471
S'with'
p472
S'beats'
p473
tp474
(lp475
(I99
I16
F0.5
S'told'
p476
tp477
a(I99
I16
I0
S'great'
p478
tp479
a(I185
I0
F0.375
S'new'
p480
tp481
as(S'htc'
p482
S'one'
p483
g471
tp484
(lp485
(I12
I11
I0
S'useful'
p486
tp487
a(I79
I0
F0.375
S'new'
p488
tp489
a(I87
I0
F0.875
S'happy'
p490
tp491
a(I99
I7
F1.0
S'good'
p492
tp493
a(I133
I0
F0.25
S'unlocked'
p494
tp495
a(I135
I0
I0
S'old'
p496
tp497
a(I141
I0
F0.25
S'original'
p498
tp499
a(I152
I3
F0.25
S'original'
p500
tp501
a(I172
I0
F0.25
S'unlocked'
p502
tp503
a(I172
I2
I0
S'real'
p504
tp505
a(I172
I2
F-0.5
S'international'
p506
tp507
as(S'people'
p508
tp509
(lp510
(I26
I6
I0
S'many'
p511
tp512
a(I69
I0
I0
S'most'
p513
tp514
a(I111
I27
I0
S'many'
p515
tp516
a(I111
I27
F0.5
S'treat'
p517
tp518
as(S'wifi'
p519
tp520
(lp521
(I49
I6
F0.375
S'enable'
p522
tp523
a(I118
I1
F-0.5
S'weak'
p524
tp525
a(I118
I1
I0
S'signal'
p526
tp527
as(S'experience'
p528
tp529
(lp530
(I14
I1
I0
S'android'
p531
tp532
a(I29
I4
I0
S'great'
p533
tp534
a(I29
I4
I0
S'net'
p535
tp536
a(I32
I5
I0
S'great'
p537
tp538
a(I49
I7
F-0.5
S'less'
p539
tp540
a(I154
I5
F-0.625
S'bad'
p541
tp542
a(I166
I17
F0.5
S'whole'
p543
tp544
as(S'design'
p545
tp546
(lp547
(I18
I1
I0
S'such'
p548
tp549
a(I69
I0
F0.75
S'beautiful'
p550
tp551
as(S'seller'
p552
tp553
(lp554
(I0
I7
F-0.75
S'likely'
p555
tp556
a(I103
I3
I0
S'email'
p557
tp558
a(I106
I0
F0.5
S'clear'
p559
tp560
a(I126
I6
F-0.75
S'care'
p561
tp562
a(I143
I0
F1.0
S'better'
p563
tp564
as(S'micro'
p565
S'sim'
p566
tp567
(lp568
(I32
I2
I0
S'prepaid'
p569
tp570
a(I63
I2
I0
S'specific'
p571
tp572
a(I75
I4
F0.375
S'new'
p573
tp574
as(S'case'
p575
tp576
(lp577
(I111
I26
F1.0
g367
tp578
a(I111
I26
F0.125
g369
tp579
as(S'audio'
p580
tp581
(lp582
(I31
I0
I0
S'arrive'
p583
tp584
a(I80
I1
F0.5
S'clear'
p585
tp586
as(S'beats'
p587
S'audio'
p588
tp589
(lp590
(I31
I0
I0
g583
tp591
a(I99
I16
F0.5
g476
tp592
a(I99
I16
I0
g478
tp593
a(I185
I0
F0.375
g480
tp594
as(S'processor'
p595
tp596
(lp597
(I23
I2
I0
S'great'
p598
tp599
a(I157
I1
F0.25
S'powerful'
p600
tp601
a(I184
I5
F-0.375
S'smooth'
p602
tp603
as(S'battery'
p604
tp605
(lp606
(I12
I1
F0.625
g17
tp607
a(I15
I9
F0.625
S'removable'
p608
tp609
a(I18
I0
F0.625
g21
tp610
a(I25
I0
I0
S'empty'
p611
tp612
a(I37
I0
F-0.25
S'low'
p613
tp614
a(I49
I1
F-0.75
g27
tp615
a(I49
I7
F0.625
S'easy'
p616
tp617
a(I57
I0
F-0.5
S'poor'
p618
tp619
a(I104
I2
F-0.25
g33
tp620
a(I107
I0
F1.0
g35
tp621
a(I153
I2
F0.375
S'much'
p622
tp623
as(S'upgrade'
p624
tp625
(lp626
(I27
I5
F0.375
S'early'
p627
tp628
a(I49
I11
I0
S'great'
p629
tp630
a(I99
I32
F0.375
S'new'
p631
tp632
a(I154
I3
F0.125
S'able'
p633
tp634
as(S'display'
p635
tp636
(lp637
(I99
I7
F-0.75
S'difficult'
p638
tp639
a(I107
I0
F0.75
S'beautiful'
p640
tp641
as(S'software'
p642
tp643
(lp644
(I91
I0
F-0.625
S'bad'
p645
tp646
a(I96
I6
I0
S'proprietary'
p647
tp648
as(S'wireless'
p649
tp650
(lp651
(I71
I0
F0.625
g63
tp652
as(S'beats'
p653
tp654
(lp655
(I99
I16
F0.5
g476
tp656
a(I99
I16
I0
g478
tp657
a(I185
I0
F0.375
g480
tp658
as(S'thing'
p659
tp660
(lp661
(I9
I1
F0.75
S'beautiful'
p662
tp663
a(I56
I0
I0
S'same'
p664
tp665
a(I81
I1
F-0.125
S'overall'
p666
tp667
a(I81
I1
I0
S'only'
p668
tp669
a(I81
I1
F-0.625
S'bad'
p670
tp671
a(I88
I0
I0
S'only'
p672
tp673
a(I111
I22
I0
S'same'
p674
tp675
a(I121
I2
I0
S'only'
p676
tp677
a(I166
I18
F-0.625
S'other'
p678
tp679
as(S'sim'
p680
S'card'
p681
tp682
(lp683
(I18
I0
F-0.375
S'small'
p684
tp685
a(I32
I2
I0
g569
tp686
a(I42
I1
F-0.5
S'sudden'
p687
tp688
as(S'device'
p689
tp690
(lp691
(I2
I0
F0.25
S'used'
p692
tp693
a(I5
I0
I0
S'incredible'
p694
tp695
a(I5
I15
F0.25
S'unlocked'
p696
tp697
a(I9
I1
F-0.25
S'cheaper'
p698
tp699
a(I15
I9
F0.875
S'nice'
p700
tp701
a(I15
I9
F0.5
S'comparable'
p702
tp703
a(I32
I3
F-0.625
S'light'
p704
tp705
a(I99
I22
F0.125
S'first'
p706
tp707
a(I140
I2
I0
S'fastest'
p708
tp709
as(S'music'
p710
tp711
(lp712
(I5
I5
I0
S'great'
p713
tp714
a(I6
I3
F-0.25
S'google'
p715
tp716
a(I152
I4
F0.875
S'nice'
p717
tp718
as(S'bought'
p719
tp720
(lp721
(I79
I0
F0.875
S'happy'
p722
tp723
as(S'core'
p724
tp725
(lp726
(I118
I11
I0
S'quad'
p727
tp728
as(S'price'
p729
tp730
(lp731
(I27
I5
I0
S'full'
p732
tp733
a(I93
I0
F1.0
S'good'
p734
tp735
a(I114
I1
F0.5
S'reasonable'
p736
tp737
a(I166
I30
F0.875
S'attractive'
p738
tp739
as(S'time'
p740
tp741
(lp742
(I12
I19
F-0.5
S'longest'
p743
tp744
a(I76
I7
I0
S'next'
p745
tp746
a(I111
I20
I0
S'next'
p747
tp748
a(I168
I2
I0
S'same'
p749
tp750
a(I181
I1
I0
S'next'
p751
tp752
as(S'htc'
p753
S'one'
p754
tp755
(lp756
(I12
I11
I0
g486
tp757
a(I79
I0
F0.375
g488
tp758
a(I87
I0
F0.875
g490
tp759
a(I97
I2
F1.0
S'good'
p760
tp761
a(I97
I2
I0
S'general'
p762
tp763
a(I99
I7
F1.0
g492
tp764
a(I135
I0
I0
g496
tp765
a(I141
I0
F0.25
g498
tp766
a(I166
I4
F0.125
S'first'
p767
tp768
a(I172
I2
I0
g504
tp769
a(I172
I2
F-0.5
g506
tp770
as(S'one'
p771
g471
tp772
(lp773
(I133
I0
F0.25
g494
tp774
a(I152
I3
F0.25
g500
tp775
a(I172
I0
F0.25
g502
tp776
as(S'with'
p777
S'beats'
p778
S'audio'
p779
tp780
(lp781
(I31
I0
I0
g583
tp782
a(I99
I16
F0.5
g476
tp783
a(I99
I16
I0
g478
tp784
a(I185
I0
F0.375
g480
tp785
as(S'card'
p786
tp787
(lp788
(I18
I0
F-0.375
g684
tp789
a(I42
I1
F-0.5
g687
tp790
as(S'unibody'
p791
S'design'
p792
tp793
(lp794
(I49
I2
F0.125
S'first'
p795
tp796
a(I69
I0
F0.75
g550
tp797
as(S'fast'
p798
tp799
(lp800
(I97
I1
F0.625
S'easy'
p801
tp802
a(I155
I0
F1.0
S'good'
p803
tp804
a(I173
I2
F-0.125
S'super'
p805
tp806
as(S'happy'
p807
S'with'
p808
S'product'
p809
tp810
(lp811
(I5
I1
F0.875
g423
tp812
a(I33
I1
F0.875
g425
tp813
a(I97
I0
F0.875
g433
tp814
as(S'hours'
p815
tp816
(lp817
(I49
I5
F-0.75
S'little'
p818
tp819
a(I50
I2
I0
S'few'
p820
tp821
a(I50
I2
I0
S'later'
p822
tp823
a(I57
I1
I0
S'few'
p824
tp825
a(I57
I1
F0.875
S'lucky'
p826
tp827
a(I84
I0
I0
S'few'
p828
tp829
as(S'months'
p830
tp831
(lp832
(I9
I1
I0
S'few'
p833
tp834
a(I99
I1
I0
S'bionic'
p835
tp836
a(I111
I1
I0
S'later'
p837
tp838
a(I118
I0
I0
S'few'
p839
tp840
as(S'life'
p841
tp842
(lp843
(I12
I24
F-0.75
S'little'
p844
tp845
a(I18
I0
F-0.5
g19
tp846
a(I32
I8
F1.0
g23
tp847
a(I42
I4
F1.0
g25
tp848
a(I88
I0
I0
g29
tp849
a(I88
I0
I0
g31
tp850
a(I117
I1
F-0.625
g37
tp851
a(I178
I1
F-0.5
S'longer'
p852
tp853
a(I178
I1
I0
S'useful'
p854
tp855
a(I182
I8
F-0.5
g39
tp856
as(S'send'
p857
tp858
(lp859
(I38
I0
I0
S'wireless'
p860
tp861
as(S'performance'
p862
tp863
(lp864
(I49
I9
I0
S'great'
p865
tp866
a(I54
I0
F0.875
S'happy'
p867
tp868
a(I114
I1
I0
S'great'
p869
tp870
a(I175
I2
F1.0
S'best'
p871
tp872
as(S'quad'
p873
S'core'
p874
tp875
(lp876
(I118
I11
I0
g727
tp877
as.