(dp0
(S'seller'
p1
tp2
(lp3
(I18
I52
F0.125
S'outside'
p4
I19
tp5
as(S'android'
p6
tp7
(lp8
(I20
I8
F0.375
S'new'
p9
I0
tp10
a(I27
I151
F0.375
S'new'
p11
I0
tp12
as(S'battery'
p13
S'life'
p14
tp15
(lp16
(I2
I0
F0.25
S'suppose'
p17
I1
tp18
a(I11
I61
F0.375
S'extended'
p19
I1
tp20
a(I29
I7
F-0.25
S'lower'
p21
I1
tp22
a(I2
I0
F0.25
g17
I19
tp23
a(I29
I7
F-0.25
g21
I19
tp24
as(S'white'
p25
tp26
(lp27
(I24
I9
F-0.25
S'white'
p28
I9
tp29
as(S'galaxy'
p30
S's2'
p31
tp32
(lp33
(I27
I188
F0.875
S'happy'
p34
I0
tp35
a(I11
I41
I0
S'general'
p36
I0
tp37
a(I24
I8
F-0.625
S'glad'
p38
I0
tp39
a(I24
I8
F0.125
S'first'
p40
I0
tp41
as(S'apps'
p42
tp43
(lp44
(I11
I51
F-0.5
S'open'
p45
I0
tp46
a(I11
I63
F0.75
S'due'
p47
I0
tp48
a(I13
I34
I0
S'most'
p49
I0
tp50
a(I13
I40
F0.125
S'native'
p51
I0
tp52
a(I18
I3
I0
S'many'
p53
I0
tp54
a(I20
I7
F0.375
S'much'
p55
I0
tp56
a(I20
I7
F0.375
S'new'
p57
I0
tp58
as(S'samsung'
p59
tp60
(lp61
(I6
I1
I0
S'technician'
p62
I7
tp63
a(I11
I2
I0
S'generic'
p64
I7
tp65
a(I11
I5
I0
S'old'
p66
I7
tp67
a(I11
I65
F0.875
S'happy'
p68
I7
tp69
a(I27
I146
F1.0
S'best'
p70
I7
tp71
as(S'amazon'
p72
tp73
(lp74
(I7
I6
F-0.5
S'less'
p75
I13
tp76
a(I9
I22
F-0.375
S'daily'
p77
I13
tp78
a(I30
I1
I0
S'faithful'
p79
I13
tp80
as(S'new'
p81
S'battery'
p82
tp83
(lp84
(I9
I11
F0.375
S'new'
p85
I1
tp86
a(I9
I14
F0.375
S'new'
p87
I1
tp88
a(I13
I24
F0.375
S'new'
p89
I1
tp90
a(I13
I24
I0
S'old'
p91
I1
tp92
a(I15
I3
F0.375
S'new'
p93
I1
tp94
a(I9
I11
F0.375
g85
I15
tp95
a(I9
I14
F0.375
g87
I15
tp96
a(I11
I52
I0
S'most'
p97
I15
tp98
a(I11
I61
F0.375
g19
I15
tp99
a(I13
I24
F0.375
g89
I15
tp100
a(I13
I24
I0
g91
I15
tp101
a(I14
I3
F0.625
S'removable'
p102
I15
tp103
a(I15
I3
F0.375
g93
I15
tp104
a(I18
I27
F-0.5
S'flimsy'
p105
I15
tp106
a(I18
I27
F0.25
S'original'
p107
I15
tp108
a(I20
I14
F-0.25
S'low'
p109
I15
tp110
a(I27
I78
I0
S'more'
p111
I15
tp112
as(S'camera'
p113
tp114
(lp115
(I2
I4
I0
S'great'
p116
I1
tp117
a(I4
I85
F0.125
S'solid'
p118
I1
tp119
a(I4
I92
F0.25
S'powerful'
p120
I1
tp121
a(I5
I2
I0
S'great'
p122
I1
tp123
a(I5
I2
F0.5
S'clear'
p124
I1
tp125
a(I8
I1
F1.0
S'good'
p126
I1
tp127
a(I11
I20
F1.0
S'best'
p128
I1
tp129
a(I27
I67
F-0.5
S'less'
p130
I1
tp131
as(S'came'
p132
S'on'
p133
S'time'
p134
tp135
(lp136
(I6
I0
F0.125
S'first'
p137
I5
tp138
as.