(dp0
(S'problem'
p1
tp2
(lp3
(I1
I3
I0
S'big'
p4
tp5
a(I14
I0
I0
S'same'
p6
tp7
a(I84
I3
F0.25
S'bigger'
p8
tp9
a(I120
I2
I0
S'same'
p10
tp11
as(S'something'
p12
tp13
(lp14
(I10
I0
F-0.75
S'wrong'
p15
tp16
a(I10
I0
F1.0
S'good'
p17
tp18
a(I18
I10
I0
S'big'
p19
tp20
a(I89
I1
I0
S'more'
p21
tp22
a(I89
I1
F0.375
S'reliable'
p23
tp24
as(S'battery'
p25
S'life'
p26
tp27
(lp28
(I30
I4
F1.0
S'good'
p29
tp30
a(I62
I7
F1.0
S'better'
p31
tp32
a(I76
I1
I0
S'great'
p33
tp34
a(I121
I0
F-0.5
S'poor'
p35
tp36
a(I123
I3
F1.0
S'best'
p37
tp38
a(I123
I3
I0
S'android'
p39
tp40
a(I123
I3
F1.0
S'good'
p41
tp42
a(I134
I1
F1.0
S'good'
p43
tp44
as(S'purchase'
p45
tp46
(lp47
(I46
I2
I0
S'great'
p48
tp49
a(I51
I3
F0.125
S'solid'
p50
tp51
a(I63
I3
F0.875
S'happy'
p52
tp53
as(S'root'
p54
tp55
(lp56
(I21
I3
F0.625
S'easy'
p57
tp58
a(I100
I29
F-0.5
S'less'
p59
tp60
as(S'year'
p61
tp62
(lp63
(I50
I2
I0
S'old'
p64
tp65
a(I74
I0
I0
S'old'
p66
tp67
a(I74
I0
F0.625
S'easy'
p68
tp69
a(I79
I0
I0
S'old'
p70
tp71
a(I113
I0
I0
S'earlier'
p72
tp73
a(I120
I2
F0.125
S'last'
p74
tp75
a(I148
I0
I0
S'old'
p76
tp77
as(S'latest'
p78
S'version'
p79
tp80
(lp81
(I64
I1
I0
S'latest'
p82
tp83
a(I64
I1
F-0.25
S'higher'
p84
tp85
a(I110
I1
I0
S'latest'
p86
tp87
a(I110
I1
I0
S'android'
p88
tp89
a(I142
I1
I0
S'latest'
p90
tp91
a(I142
I1
I0
S'android'
p92
tp93
as(S'galaxy'
p94
S's2'
p95
tp96
(lp97
(I18
I9
F-0.375
S'smaller'
p98
tp99
as(S'user'
p100
tp101
(lp102
(I78
I1
F0.5
S'smarter'
p103
tp104
as(S'text'
p105
tp106
(lp107
(I102
I14
F0.25
S'original'
p108
tp109
a(I102
I14
F0.25
S'original'
p110
tp111
as(S'screen'
p112
tp113
(lp114
(I19
I2
F-0.375
S'small'
p115
tp116
a(I28
I3
F-0.375
S'small'
p117
tp118
a(I33
I2
I0
S'big'
p119
tp120
a(I33
I2
F-0.75
S'comfortable'
p121
tp122
a(I38
I1
F-0.75
S'hate'
p123
tp124
a(I61
I12
F0.125
S'able'
p125
tp126
a(I70
I7
F1.0
S'good'
p127
tp128
a(I70
I7
I0
S'adequate'
p129
tp130
a(I79
I0
I0
S'fast'
p131
tp132
a(I79
I0
I0
S'great'
p133
tp134
a(I100
I4
F0.5
S'clear'
p135
tp136
a(I102
I1
I0
S'big'
p137
tp138
a(I102
I7
F-0.375
S'black'
p139
tp140
a(I104
I1
I0
S'fast'
p141
tp142
a(I104
I1
F0.625
S'easy'
p143
tp144
a(I123
I2
F0.25
S'responsive'
p145
tp146
a(I123
I2
F-0.125
S'overall'
p147
tp148
a(I123
I2
F0.625
S'easy'
p149
tp150
a(I138
I2
F0.125
S'protective'
p151
tp152
as(S'faster'
p153
tp154
(lp155
(I3
I7
I0
S'more'
p156
tp157
a(I44
I2
F0.375
S'much'
p158
tp159
a(I132
I17
F0.375
S'much'
p160
tp161
as(S'exhibit'
p162
S'ii'
p163
tp164
(lp165
(I19
I4
F-0.25
S'white'
p166
tp167
a(I19
I8
I0
S'same'
p168
tp169
a(I51
I1
I0
S'faster'
p170
tp171
a(I51
I1
I0
S'old'
p172
tp173
a(I55
I2
F0.25
S'larger'
p174
tp175
as(S'problems'
p176
tp177
(lp178
(I28
I3
I0
S'only'
p179
tp180
a(I86
I3
I0
S'common'
p181
tp182
a(I135
I2
I0
S'great'
p183
tp184
as(S'samsung'
p185
tp186
(lp187
(I18
I4
I0
S'same'
p188
tp189
a(I57
I1
F0.375
S'newest'
p190
tp191
a(I132
I11
F-0.75
S'unable'
p192
tp193
a(I138
I2
I0
S'generic'
p194
tp195
a(I140
I7
I0
S'old'
p196
tp197
as(S'cream'
p198
S'sandwich'
p199
tp200
(lp201
(I55
I3
F-0.5
S'sure'
p202
tp203
as(S'custom'
p204
S'roms'
p205
tp206
(lp207
(I59
I7
F-0.625
S'other'
p208
tp209
as(S'camera'
p210
tp211
(lp212
(I1
I11
F1.0
S'good'
p213
tp214
a(I102
I3
F0.875
S'nice'
p215
tp216
a(I137
I6
F0.125
S'capable'
p217
tp218
as(S'version'
p219
tp220
(lp221
(I53
I1
I0
S'android'
p222
tp223
a(I59
I5
I0
S'android'
p224
tp225
a(I64
I1
I0
g82
tp226
a(I64
I1
F-0.25
g84
tp227
a(I106
I3
F0.375
S'newer'
p228
tp229
a(I106
I3
I0
S'android'
p230
tp231
a(I110
I1
I0
g86
tp232
a(I110
I1
I0
g88
tp233
a(I110
I8
F-0.25
S'modern'
p234
tp235
a(I110
I8
I0
S'android'
p236
tp237
a(I142
I1
I0
g90
tp238
a(I142
I1
I0
g92
tp239
a(I142
I4
F0.375
S'much'
p240
tp241
a(I142
I4
F-0.375
S'smaller'
p242
tp243
as(S'month'
p244
tp245
(lp246
(I13
I6
I0
S'least'
p247
tp248
a(I70
I4
I0
S'particular'
p249
tp250
a(I70
I19
F-0.25
S'disappointing'
p251
tp252
a(I106
I1
F-0.25
S'past'
p253
tp254
as(S'blaze'
p255
tp256
(lp257
(I19
I4
F-0.25
S'white'
p258
tp259
a(I21
I5
I0
S'stable'
p260
tp261
a(I61
I5
F-0.625
S'free'
p262
tp263
a(I61
I6
F-0.625
S'free'
p264
tp265
a(I66
I0
F0.625
S'easy'
p266
tp267
a(I102
I2
F-0.375
S'smaller'
p268
tp269
a(I102
I2
F0.125
S'able'
p270
tp271
a(I102
I15
F0.625
S'perfect'
p272
tp273
a(I137
I0
F0.625
S'superior'
p274
tp275
a(I140
I3
I0
S'faster'
p276
tp277
as(S'device'
p278
tp279
(lp280
(I100
I14
F0.375
S'much'
p281
tp282
a(I100
I26
I0
S'android'
p283
tp284
as(S'a'
p285
S'dual'
p286
S'core'
p287
tp288
(lp289
(I55
I1
I0
S'same'
p290
tp291
as(S'fine'
p292
tp293
(lp294
(I36
I0
F0.5
S'told'
p295
tp296
as(S'memory'
p297
tp298
(lp299
(I27
I0
I0
S'internal'
p300
tp301
a(I38
I1
I0
S'internal'
p302
tp303
a(I55
I10
F0.625
S'removable'
p304
tp305
a(I100
I16
I0
S'internal'
p306
tp307
a(I100
I16
I0
S'internal'
p308
tp309
a(I100
I16
F-0.375
S'small'
p310
tp311
a(I117
I2
F-0.75
S'little'
p312
tp313
a(I140
I3
I0
S'more'
p314
tp315
as(S'life'
p316
tp317
(lp318
(I30
I4
F1.0
g29
tp319
a(I62
I7
F1.0
g31
tp320
a(I123
I3
I0
g39
tp321
a(I134
I1
F1.0
g43
tp322
as(S'smaller'
p323
tp324
(lp325
(I55
I5
I0
S'same'
p326
tp327
as(S'galaxy'
p328
tp329
(lp330
(I18
I9
F-0.375
g98
tp331
a(I35
I2
F0.25
S'larger'
p332
tp333
a(I40
I0
F0.25
S'main'
p334
tp335
a(I41
I2
F0.875
S'happy'
p336
tp337
a(I44
I0
F0.875
S'happy'
p338
tp339
a(I62
I4
I0
S'wide'
p340
tp341
a(I82
I0
F0.375
S'new'
p342
tp343
a(I86
I0
F0.125
S'last'
p344
tp345
as(S'features'
p346
tp347
(lp348
(I10
I2
F1.0
S'good'
p349
tp350
a(I26
I0
I0
S'many'
p351
tp352
a(I26
I0
F0.375
S'new'
p353
tp354
a(I30
I1
F1.0
S'best'
p355
tp356
a(I58
I0
F1.0
S'good'
p357
tp358
a(I108
I0
F0.125
S'last'
p359
tp360
a(I110
I1
F0.125
S'key'
p361
tp362
a(I113
I2
I0
S'same'
p363
tp364
a(I136
I1
I0
S'many'
p365
tp366
a(I136
I1
F0.875
S'nice'
p367
tp368
as(S'storage'
p369
tp370
(lp371
(I62
I6
I0
S'internal'
p372
tp373
a(I63
I1
F0.625
S'removable'
p374
tp375
a(I104
I0
I0
S'more'
p376
tp377
a(I121
I3
F1.0
S'better'
p378
tp379
a(I121
I3
F-0.75
S'single'
p380
tp381
a(I121
I4
I0
S'optional'
p382
tp383
as(S'sd'
p384
S'card'
p385
tp386
(lp387
(I19
I9
F-0.625
S'useless'
p388
tp389
as(S'contract'
p390
tp391
(lp392
(I70
I8
F1.0
S'best'
p393
tp394
a(I72
I8
F-0.625
S'free'
p395
tp396
a(I146
I2
F0.5
S'comparable'
p397
tp398
as(S'years'
p399
tp400
(lp401
(I15
I0
F-0.75
S'short'
p402
tp403
a(I20
I8
I0
S'few'
p404
tp405
a(I61
I1
I0
S'few'
p406
tp407
as(S'plan'
p408
tp409
(lp410
(I61
I2
F0.75
S'worth'
p411
tp412
a(I61
I3
F-0.25
S'cheaper'
p413
tp414
a(I61
I5
F1.0
S'better'
p415
tp416
as(S'battery'
p417
tp418
(lp419
(I39
I1
F1.0
S'good'
p420
tp421
a(I44
I2
F0.5
S'rid'
p422
tp423
a(I63
I1
F0.625
S'replaceable'
p424
tp425
a(I75
I0
F0.625
S'aware'
p426
tp427
a(I75
I0
F-0.625
S'bad'
p428
tp429
a(I75
I1
F-0.5
S'weak'
p430
tp431
a(I76
I1
I0
g33
tp432
a(I76
I3
F0.625
S'removable'
p433
tp434
a(I95
I0
F0.5
S'second'
p435
tp436
a(I121
I0
F-0.5
g35
tp437
a(I121
I1
F-0.375
S'small'
p438
tp439
a(I121
I3
F0.625
S'easy'
p440
tp441
a(I122
I4
I0
S'external'
p442
tp443
a(I123
I3
F1.0
g37
tp444
a(I123
I3
F1.0
g41
tp445
a(I138
I2
I0
S'generic'
p446
tp447
a(I141
I2
F0.5
S'satisfactory'
p448
tp449
as(S'ice'
p450
S'cream'
p451
tp452
(lp453
(I142
I1
I0
S'android'
p454
tp455
as(S'galaxy'
p456
S's'
p457
S'blaze'
p458
tp459
(lp460
(I41
I2
F0.875
g336
tp461
a(I44
I0
F0.875
g338
tp462
a(I66
I0
F0.625
g266
tp463
a(I102
I2
F-0.375
g268
tp464
a(I102
I2
F0.125
g270
tp465
a(I137
I0
F0.625
g274
tp466
as(S'android'
p467
tp468
(lp469
(I64
I0
I0
S'current'
p470
tp471
a(I67
I0
F0.5
S'loyal'
p472
tp473
a(I89
I0
I0
S'older'
p474
tp475
a(I110
I3
F0.375
S'new'
p476
tp477
as(S'seems'
p478
tp479
(lp480
(I19
I6
F-0.5
S'less'
p481
tp482
a(I141
I1
F0.25
S'responsive'
p483
tp484
as(S'smart'
p485
tp486
(lp487
(I0
I0
I0
S'great'
p488
tp489
a(I2
I1
I0
S'basic'
p490
tp491
a(I70
I14
F-0.375
S'small'
p492
tp493
a(I70
I14
F-0.625
S'light'
p494
tp495
a(I78
I0
F-0.625
S'other'
p496
tp497
a(I102
I16
F1.0
S'best'
p498
tp499
a(I102
I16
F-0.625
S'other'
p500
tp501
a(I150
I0
F0.125
S'first'
p502
tp503
as(S'software'
p504
tp505
(lp506
(I58
I1
I0
S'own'
p507
tp508
a(I58
I2
I0
S'great'
p509
tp510
a(I58
I2
I0
S'android'
p511
tp512
a(I117
I2
F0.375
S'new'
p513
tp514
a(I140
I5
I0
S'android'
p515
tp516
as(S'speed'
p517
tp518
(lp519
(I97
I0
F-0.625
S'bad'
p520
tp521
a(I100
I0
F-0.25
S'cheaper'
p522
tp523
a(I100
I0
I0
S'faster'
p524
tp525
as(S'samsung'
p526
S'galaxy'
p527
tp528
(lp529
(I18
I4
I0
g188
tp530
a(I44
I0
F0.875
g338
tp531
a(I57
I1
F0.375
g190
tp532
a(I132
I11
F-0.75
g192
tp533
as(S'cell'
p534
tp535
(lp536
(I15
I1
F1.0
S'best'
p537
tp538
a(I77
I0
I0
S'current'
p539
tp540
a(I114
I0
I0
S'great'
p541
tp542
as(S'first'
p543
S'time'
p544
tp545
(lp546
(I11
I4
F0.125
S'first'
p547
tp548
a(I11
I4
F0.5
S'slick'
p549
tp550
a(I70
I10
F0.125
S'first'
p551
tp552
a(I88
I2
F0.125
S'first'
p553
tp554
a(I142
I0
F0.125
S'first'
p555
tp556
as(S'thing'
p557
tp558
(lp559
(I0
I1
I0
S'only'
p560
tp561
a(I3
I7
F1.0
S'good'
p562
tp563
a(I21
I5
F1.0
S'good'
p564
tp565
a(I39
I1
I0
S'only'
p566
tp567
a(I54
I1
I0
S'only'
p568
tp569
a(I64
I1
F0.125
S'first'
p570
tp571
a(I64
I3
F0.25
S'biggest'
p572
tp573
a(I72
I8
I0
S'only'
p574
tp575
a(I104
I0
I0
S'only'
p576
tp577
a(I120
I1
I0
S'same'
p578
tp579
a(I126
I3
I0
S'great'
p580
tp581
a(I144
I2
F1.0
S'good'
p582
tp583
a(I146
I6
F0.25
S'main'
p584
tp585
as(S'right'
p586
tp587
(lp588
(I121
I0
F1.0
S'good'
p589
tp590
a(I121
I0
I0
S'android'
p591
tp592
a(I139
I2
I0
S'fast'
p593
tp594
a(I143
I1
F0.625
S'easy'
p595
tp596
as(S'ce'
p597
S'cream'
p598
S'sandwich'
p599
tp600
(lp601
(I55
I3
F-0.5
g202
tp602
as(S'dual'
p603
S'core'
p604
tp605
(lp606
(I55
I1
I0
g290
tp607
as(S'call'
p608
tp609
(lp610
(I1
I7
I0
S'old'
p611
tp612
a(I78
I2
I0
S'current'
p613
tp614
a(I78
I2
F-0.25
S'hang'
p615
tp616
as(S'external'
p617
S'microsd'
p618
tp619
(lp620
(I23
I0
I0
S'external'
p621
tp622
a(I23
I1
I0
S'external'
p623
tp624
a(I121
I4
I0
S'external'
p625
tp626
as(S'better'
p627
tp628
(lp629
(I140
I7
F0.375
S'much'
p630
tp631
as(S'shutter'
p632
S'lag'
p633
tp634
(lp635
(I77
I3
F0.375
S'significant'
p636
tp637
as(S'price'
p638
tp639
(lp640
(I29
I3
F1.0
S'good'
p641
tp642
a(I31
I2
F1.0
S'good'
p643
tp644
a(I35
I2
I0
S'third'
p645
tp646
a(I35
I2
F-0.5
S'less'
p647
tp648
a(I38
I2
F-0.25
S'low'
p649
tp650
a(I60
I0
F1.0
S'good'
p651
tp652
a(I73
I5
I0
S'great'
p653
tp654
a(I73
I6
I0
S'more'
p655
tp656
a(I92
I0
I0
S'great'
p657
tp658
a(I113
I1
I0
S'most'
p659
tp660
a(I130
I3
I0
S'great'
p661
tp662
a(I131
I0
I0
S'great'
p663
tp664
a(I131
I1
F-0.625
S'glad'
p665
tp666
a(I148
I1
F-0.25
S'low'
p667
tp668
as(S'time'
p669
tp670
(lp671
(I11
I4
F0.125
g547
tp672
a(I11
I4
F0.5
g549
tp673
a(I31
I0
F-0.5
S'long'
p674
tp675
a(I34
I2
I0
S'same'
p676
tp677
a(I40
I1
F-0.5
S'long'
p678
tp679
a(I59
I8
F-0.625
S'free'
p680
tp681
a(I64
I4
F-0.75
S'unresponsive'
p682
tp683
a(I70
I10
F0.125
g551
tp684
a(I77
I4
F-0.875
S'hard'
p685
tp686
a(I88
I2
F0.125
g553
tp687
a(I89
I1
I0
S'old'
p688
tp689
a(I89
I1
F-0.875
S'trouble'
p690
tp691
a(I142
I0
F0.125
g555
tp692
a(I150
I3
I0
S'same'
p693
tp694
as(S'data'
p695
tp696
(lp697
(I61
I2
F0.5
S'expensive'
p698
tp699
a(I70
I5
F1.0
S'good'
p700
tp701
a(I132
I17
F0.875
S'music'
p702
tp703
as(S'smartphone'
p704
tp705
(lp706
(I28
I0
F0.125
S'first'
p707
tp708
a(I44
I0
I0
S'android'
p709
tp710
a(I49
I2
I0
S'economical'
p711
tp712
a(I49
I2
F-0.375
S'simple'
p713
tp714
a(I62
I7
F-0.625
S'average'
p715
tp716
a(I86
I0
F0.125
S'first'
p717
tp718
a(I140
I6
F0.125
S'first'
p719
tp720
as(S'card'
p721
tp722
(lp723
(I19
I9
F-0.625
g388
tp724
a(I62
I8
F-0.125
S'overall'
p725
tp726
as(S'size'
p727
tp728
(lp729
(I10
I3
F-0.75
S'wrong'
p730
tp731
a(I34
I4
F0.625
S'perfect'
p732
tp733
a(I77
I10
I0
S'closest'
p734
tp735
a(I80
I2
I0
S'same'
p736
tp737
a(I82
I1
F-0.375
S'smaller'
p738
tp739
a(I110
I1
F-0.25
S'thin'
p740
tp741
as(S'samsung'
p742
S'galaxy'
p743
g457
tp744
(lp745
(I18
I4
I0
g188
tp746
a(I44
I0
F0.875
g338
tp747
a(I57
I1
F0.375
g190
tp748
a(I132
I11
F-0.75
g192
tp749
as(S'months'
p750
tp751
(lp752
(I8
I0
I0
S'few'
p753
tp754
a(I25
I3
I0
S'later'
p755
tp756
a(I25
I4
I0
S'more'
p757
tp758
a(I25
I4
I0
S'later'
p759
tp760
a(I25
I5
I0
S'old'
p761
tp762
a(I25
I5
F-0.75
S'dead'
p763
tp764
a(I61
I16
F-0.25
S'past'
p765
tp766
a(I106
I0
I0
S'later'
p767
tp768
a(I106
I0
F-0.75
S'dead'
p769
tp770
a(I146
I12
F0.375
S'gravy'
p771
tp772
as(S'apps'
p773
tp774
(lp775
(I1
I1
I0
S'many'
p776
tp777
a(I34
I2
I0
S'multiple'
p778
tp779
a(I35
I2
I0
S'same'
p780
tp781
a(I35
I2
F0.375
S'similar'
p782
tp783
a(I37
I1
F-0.5
S'certain'
p784
tp785
a(I41
I1
F0.375
S'available'
p786
tp787
a(I41
I2
F0.375
S'available'
p788
tp789
a(I62
I2
I0
S'few'
p790
tp791
a(I64
I1
I0
S'same'
p792
tp793
a(I64
I4
F-0.5
S'certain'
p794
tp795
a(I100
I17
I0
S'internal'
p796
tp797
a(I100
I19
I0
S'unnecessary'
p798
tp799
a(I100
I20
I0
S'most'
p800
tp801
a(I100
I28
I0
S'unnecessary'
p802
tp803
a(I142
I1
F0.125
S'able'
p804
tp805
a(I142
I1
I0
S'most'
p806
tp807
a(I142
I1
I0
S'android'
p808
tp809
as(S'nternal'
p810
S'memory'
p811
tp812
(lp813
(I27
I0
I0
g300
tp814
a(I38
I1
I0
g302
tp815
a(I100
I16
I0
g306
tp816
a(I100
I16
I0
g308
tp817
a(I100
I16
F-0.375
g310
tp818
as(S'fast'
p819
tp820
(lp821
(I105
I1
F-0.125
S'super'
p822
tp823
as(S'anything'
p824
tp825
(lp826
(I72
I7
F1.0
S'best'
p827
tp828
a(I80
I2
F0.25
S'larger'
p829
tp830
as.