(dp0
(S'battery'
p1
S'life'
p2
tp3
(lp4
(I5
I28
F0.375
S'much'
p5
I1
tp6
a(I9
I24
F1.0
S'good'
p7
I1
tp8
a(I9
I24
F-0.5
S'long'
p9
I1
tp10
a(I10
I16
I0
S'great'
p11
I1
tp12
a(I5
I28
F0.375
g5
I19
tp13
a(I9
I24
F1.0
g7
I19
tp14
a(I9
I24
F-0.5
g9
I19
tp15
a(I10
I16
I0
g11
I19
tp16
a(I2
I1
I0
S'more'
p17
I15
tp18
a(I6
I41
F1.0
S'good'
p19
I15
tp20
a(I6
I41
I0
S'quick'
p21
I15
tp22
a(I8
I22
F-0.5
S'less'
p23
I15
tp24
a(I9
I54
F0.125
S'last'
p25
I15
tp26
a(I9
I54
F-0.5
S'long'
p27
I15
tp28
as(S'android'
p29
tp30
(lp31
(I9
I26
F1.0
S'good'
p32
I0
tp33
a(I10
I6
F0.125
S'first'
p34
I0
tp35
a(I10
I21
I0
S'great'
p36
I0
tp37
as(S'zte'
p38
S'warp'
p39
S'sequent'
p40
tp41
(lp42
(I9
I1
F-0.5
S'call'
p43
I0
tp44
a(I4
I0
F0.25
S'original'
p45
I0
tp46
a(I4
I0
F0.375
S'new'
p47
I0
tp48
a(I4
I0
I0
S'very'
p49
I0
tp50
a(I4
I0
F1.0
S'best'
p51
I0
tp52
a(I4
I5
I0
S'old'
p53
I0
tp54
a(I4
I8
I0
S'old'
p55
I0
tp56
a(I8
I3
F1.0
S'better'
p57
I0
tp58
a(I8
I3
I0
S'same'
p59
I0
tp60
a(I9
I1
F-0.5
g43
I0
tp61
a(I6
I18
F0.25
S'responsive'
p62
I0
tp63
a(I4
I0
F0.375
g47
I1
tp64
a(I4
I0
I0
g49
I1
tp65
a(I4
I0
F1.0
g51
I1
tp66
a(I10
I24
F0.25
S'original'
p67
I1
tp68
a(I6
I18
F0.25
g62
I1
tp69
as(S'apps'
p70
tp71
(lp72
(I0
I27
I0
S'buggy'
p73
I0
tp74
a(I5
I23
I0
S'great'
p75
I0
tp76
as(S'boost'
p77
S'mobile'
p78
tp79
(lp80
(I10
I25
F0.375
S'new'
p81
I0
tp82
a(I10
I25
F0.375
g81
I0
tp83
as.