(dp0
(S'entro'
p1
tp2
(lp3
(I11
I9
F0.625
S'perfect'
p4
I0
tp5
a(I20
I23
F0.5
S'expensive'
p6
I0
tp7
a(I20
I23
I0
S'close'
p8
I0
tp9
as(S'mobile'
p10
tp11
(lp12
(I3
I3
F-0.625
S'other'
p13
I0
tp14
a(I6
I5
F0.625
S'easy'
p15
I0
tp16
a(I9
I6
I0
S'least'
p17
I0
tp18
a(I24
I2
F1.0
S'good'
p19
I0
tp20
as(S'calls'
p21
tp22
(lp23
(I10
I15
I0
S'hear'
p24
I0
tp25
as(S'a'
p26
S'month'
p27
S'plan'
p28
tp29
(lp30
(I9
I5
I0
S'least'
p31
I0
tp32
a(I9
I5
F0.5
S'expensive'
p33
I0
tp34
a(I9
I6
F0.5
S'expensive'
p35
I0
tp36
a(I9
I5
I0
g31
I0
tp37
a(I9
I5
F0.5
g33
I0
tp38
a(I9
I6
F0.5
g35
I0
tp39
as(S'texting'
p40
tp41
(lp42
(I5
I9
F1.0
S'good'
p43
I0
tp44
a(I6
I35
F-0.875
S'trouble'
p45
I0
tp46
a(I6
I35
F-0.625
S'other'
p47
I0
tp48
a(I10
I6
F1.0
S'good'
p49
I0
tp50
as(S'text'
p51
tp52
(lp53
(I5
I5
F-0.375
S'simple'
p54
I18
tp55
as(S'alarm'
p56
tp57
(lp58
(I8
I41
F0.625
S'acceptable'
p59
I0
tp60
as(S'service'
p61
tp62
(lp63
(I7
I5
I0
S'basic'
p64
I16
tp65
a(I7
I5
F0.375
S'much'
p66
I16
tp67
a(I7
I5
F-0.25
S'cheaper'
p68
I16
tp69
a(I10
I11
F1.0
S'good'
p70
I16
tp71
a(I12
I10
I0
S'great'
p72
I16
tp73
as(S'basic'
p74
S'cellphone'
p75
tp76
(lp77
(I2
I15
I0
S'great'
p78
I0
tp79
a(I2
I15
I0
S'basic'
p80
I0
tp81
a(I2
I15
I0
S'big'
p82
I0
tp83
a(I2
I36
I0
S'basic'
p84
I0
tp85
a(I2
I37
I0
S'basic'
p86
I0
tp87
a(I6
I44
F1.0
S'better'
p88
I0
tp89
a(I6
I44
I0
S'basic'
p90
I0
tp91
a(I11
I34
I0
S'basic'
p92
I0
tp93
as(S'good'
p94
S'battery'
p95
S'life'
p96
tp97
(lp98
(I4
I5
F1.0
S'good'
p99
I0
tp100
a(I5
I12
F1.0
S'good'
p101
I0
tp102
a(I6
I47
F1.0
S'good'
p103
I0
tp104
a(I11
I30
I0
S'great'
p105
I0
tp106
a(I11
I30
F1.0
S'good'
p107
I0
tp108
a(I11
I34
F1.0
S'good'
p109
I0
tp110
a(I11
I34
F0.625
S'easy'
p111
I0
tp112
a(I12
I12
F1.0
S'good'
p113
I0
tp114
a(I12
I23
F1.0
S'good'
p115
I0
tp116
a(I20
I9
F1.0
S'good'
p117
I0
tp118
a(I20
I9
F-0.75
S'tough'
p119
I0
tp120
a(I4
I5
F1.0
g99
I0
tp121
a(I5
I12
F1.0
g101
I0
tp122
a(I6
I47
F1.0
g103
I0
tp123
a(I11
I34
F1.0
g109
I0
tp124
a(I12
I23
F1.0
g115
I0
tp125
a(I20
I9
F1.0
g117
I0
tp126
a(I4
I5
F1.0
g99
I1
tp127
a(I5
I12
F1.0
g101
I1
tp128
a(I6
I47
F1.0
g103
I1
tp129
a(I11
I30
I0
g105
I1
tp130
a(I11
I30
F1.0
g107
I1
tp131
a(I11
I34
F1.0
g109
I1
tp132
a(I11
I34
F0.625
g111
I1
tp133
a(I12
I12
F1.0
g113
I1
tp134
a(I12
I23
F1.0
g115
I1
tp135
a(I20
I9
F1.0
g117
I1
tp136
a(I20
I9
F-0.75
g119
I1
tp137
a(I11
I30
I0
g105
I19
tp138
a(I11
I30
F1.0
g107
I19
tp139
a(I11
I34
F0.625
g111
I19
tp140
a(I12
I12
F1.0
g113
I19
tp141
a(I20
I9
F-0.75
g119
I19
tp142
a(I3
I9
I0
S'great'
p143
I15
tp144
a(I4
I5
F1.0
g99
I15
tp145
a(I5
I12
F1.0
g101
I15
tp146
a(I6
I47
F1.0
g103
I15
tp147
a(I11
I34
F1.0
g109
I15
tp148
a(I12
I23
F1.0
g115
I15
tp149
a(I16
I0
F0.125
S'last'
p150
I15
tp151
a(I16
I0
F-0.5
S'long'
p152
I15
tp153
a(I20
I5
F0.375
S'new'
p154
I15
tp155
a(I20
I9
F1.0
g117
I15
tp156
as(S'camera'
p157
tp158
(lp159
(I9
I30
F-0.625
S'bad'
p160
I1
tp161
as(S'sound'
p162
S'quality'
p163
tp164
(lp165
(I5
I7
F1.0
S'good'
p166
I0
tp167
a(I5
I12
F1.0
S'good'
p168
I0
tp169
as.