(dp0
(S'metro'
p1
S'pcs'
p2
tp3
(lp4
(I6
I4
I0
S'local'
p5
I0
tp6
a(I8
I16
I0
S'corporate'
p7
I0
tp8
a(I6
I4
I0
g5
I1
tp9
a(I8
I17
F0.5
S'told'
p10
I1
tp11
as(S'battery'
p12
S'life'
p13
tp14
(lp15
(I7
I65
F-0.625
S'bad'
p16
I1
tp17
a(I7
I78
F1.0
S'good'
p18
I1
tp19
a(I8
I28
I0
S'most'
p20
I1
tp21
a(I8
I61
F-0.5
S'poor'
p22
I1
tp23
a(I7
I78
F1.0
g18
I19
tp24
a(I8
I28
I0
g20
I19
tp25
a(I8
I61
F-0.5
g22
I19
tp26
a(I10
I11
F0.125
S'able'
p27
I19
tp28
a(I1
I25
F0.375
S'reliable'
p29
I15
tp30
a(I6
I90
F1.0
S'better'
p31
I15
tp32
a(I7
I65
F-0.625
g16
I15
tp33
a(I7
I71
I0
S'more'
p34
I15
tp35
a(I9
I25
F-0.625
S'idle'
p36
I15
tp37
as(S'sim'
p38
S'card'
p39
tp40
(lp41
(I8
I15
F-0.625
S'bad'
p42
I0
tp43
as(S'cant'
p44
S'download'
p45
tp46
(lp47
(I11
I1
F-0.125
S'cant'
p48
I0
tp49
a(I11
I1
F-0.5
S'certain'
p50
I0
tp51
a(I11
I3
F-0.125
S'cant'
p52
I0
tp53
a(I11
I3
F-0.5
S'certain'
p54
I0
tp55
a(I11
I1
F-0.125
g48
I1
tp56
a(I11
I1
F-0.5
g50
I1
tp57
a(I11
I3
F-0.125
g52
I1
tp58
a(I11
I3
F-0.5
g54
I1
tp59
as(S'coolpad'
p60
tp61
(lp62
(I6
I2
F0.625
S'perfect'
p63
I0
tp64
as(S'tiny'
p65
S'bit'
p66
tp67
(lp68
(I6
I14
F-0.25
S'lower'
p69
I0
tp70
as(S'cool'
p71
S'pad'
p72
tp73
(lp74
(I10
I14
I0
S'many'
p75
I0
tp76
as(S'internal'
p77
S'memory'
p78
tp79
(lp80
(I6
I52
I0
S'internal'
p81
I0
tp82
a(I6
I97
I0
S'internal'
p83
I0
tp84
a(I6
I98
I0
S'anymore'
p85
I0
tp86
a(I6
I98
I0
S'internal'
p87
I0
tp88
a(I0
I0
F-0.25
S'low'
p89
I5
tp90
a(I6
I41
F-0.25
S'low'
p91
I5
tp92
a(I6
I52
I0
g81
I5
tp93
a(I6
I97
I0
g83
I5
tp94
a(I6
I98
I0
g85
I5
tp95
a(I6
I98
I0
g87
I5
tp96
as(S'sd'
p97
S'card'
p98
tp99
(lp100
(I6
I122
F-0.625
S'bad'
p101
I0
tp102
a(I6
I126
F0.25
S'larger'
p103
I0
tp104
a(I7
I73
I-100
S'**unable'
p105
I0
tp106
as(S'camera'
p107
tp108
(lp109
(I4
I4
F1.0
S'good'
p110
I1
tp111
a(I8
I42
I0
S'adequate'
p112
I1
tp113
a(I8
I60
F1.0
S'better'
p114
I1
tp115
as(S'certain'
p116
S'apps'
p117
tp118
(lp119
(I9
I13
F-0.5
S'certain'
p120
I0
tp121
a(I1
I13
I0
S'many'
p122
I0
tp123
a(I1
I16
I0
S'many'
p124
I0
tp125
a(I6
I98
I0
S'many'
p126
I0
tp127
a(I6
I98
I0
S'few'
p128
I0
tp129
a(I7
I45
F0.875
S'music'
p130
I0
tp131
a(I8
I24
I0
S'download'
p132
I0
tp133
a(I9
I13
F-0.5
g120
I0
tp134
as.