(dp0
(S'same'
p1
S'thing'
p2
tp3
(lp4
(I1
I67
I0
S'same'
p5
I3
tp6
a(I4
I42
I0
S'same'
p7
I3
tp8
a(I4
I63
I0
S'same'
p9
I3
tp10
a(I4
I75
I0
S'same'
p11
I3
tp12
as(S'battery'
p13
S'life'
p14
tp15
(lp16
(I0
I13
F-0.75
S'short'
p17
I1
tp18
a(I0
I67
F-0.5
S'poor'
p19
I1
tp20
a(I2
I45
I0
S'great'
p21
I1
tp22
a(I3
I122
F-0.5
S'poor'
p23
I1
tp24
a(I4
I118
F-0.75
S'short'
p25
I1
tp26
a(I4
I131
F-0.875
S'trouble'
p27
I1
tp28
a(I1
I2
F-0.25
S'low'
p29
I15
tp30
a(I2
I4
F-0.375
S'crazy'
p31
I15
tp32
a(I3
I9
I0
S'only'
p33
I15
tp34
a(I3
I9
F-0.875
S'negative'
p35
I15
tp36
a(I3
I122
F-0.5
g23
I15
tp37
a(I4
I21
I0
S'full'
p38
I15
tp39
a(I4
I75
I0
S'signal'
p40
I15
tp41
a(I4
I131
F-0.875
g27
I15
tp42
a(I5
I2
F0.125
S'last'
p43
I15
tp44
a(I5
I2
I0
S'least'
p45
I15
tp46
as(S'keyboard'
p47
tp48
(lp49
(I0
I12
F-0.5
S'actual'
p50
I2
tp51
a(I3
I18
F-0.75
S'difficult'
p52
I2
tp53
a(I4
I60
F1.0
S'good'
p54
I2
tp55
a(I5
I27
I0
S'least'
p56
I2
tp57
as(S'smartphone'
p58
tp59
(lp60
(I1
I45
I0
S'close'
p61
I0
tp62
a(I3
I38
F-0.5
S'regular'
p63
I0
tp64
a(I3
I107
F-0.625
S'want'
p65
I0
tp66
a(I4
I134
I0
S'old'
p67
I0
tp68
as(S'service'
p69
tp70
(lp71
(I2
I49
I0
S'same'
p72
I16
tp73
a(I3
I40
F-0.5
S'less'
p74
I16
tp75
a(I3
I40
F-0.25
S'lower'
p76
I16
tp77
as(S'a'
p78
S'text'
p79
S'message'
p80
tp81
(lp82
(I1
I64
I0
S'awhile'
p83
I0
tp84
a(I4
I46
F-0.75
S'difficult'
p85
I0
tp86
a(I3
I44
F-0.375
S'simple'
p87
I18
tp88
a(I3
I125
F-0.125
S'minimum'
p89
I18
tp90
a(I1
I64
I0
g83
I1
tp91
a(I4
I46
F-0.75
g85
I1
tp92
as(S'slide'
p93
tp94
(lp95
(I3
I7
F0.625
S'easy'
p96
I6
tp97
as(S'camera'
p98
tp99
(lp100
(I2
I3
F0.125
S'first'
p101
I1
tp102
a(I2
I53
F-0.625
S'bad'
p103
I1
tp104
a(I4
I79
F1.0
S'good'
p105
I1
tp106
as(S'few'
p107
S'minutes'
p108
tp109
(lp110
(I0
I14
I0
S'few'
p111
I3
tp112
a(I2
I47
I0
S'next'
p113
I3
tp114
a(I2
I47
I0
S'few'
p115
I3
tp116
a(I4
I40
I0
S'few'
p117
I3
tp118
a(I4
I119
I0
S'few'
p119
I3
tp120
as(S'touchscreen'
p121
tp122
(lp123
(I4
I60
F0.25
S'responsive'
p124
I0
tp125
as(S'next'
p126
S'day'
p127
tp128
(lp129
(I4
I69
I0
S'next'
p130
I4
tp131
a(I4
I71
I0
S'next'
p132
I4
tp133
a(I4
I71
I0
S'fourth'
p134
I4
tp135
as(S'slider'
p136
tp137
(lp138
(I3
I77
I0
S'own'
p139
I0
tp140
a(I3
I78
F0.5
S'touch'
p141
I0
tp142
a(I3
I79
I0
S'own'
p143
I0
tp144
as(S'messages'
p145
tp146
(lp147
(I4
I123
F0.125
S'able'
p148
I1
tp149
a(I4
I144
I0
S'least'
p150
I1
tp151
a(I4
I144
F-0.375
S'simple'
p152
I1
tp153
as(S'pc'
p154
S'suite'
p155
tp156
(lp157
(I4
I128
F0.375
S'available'
p158
I0
tp159
as(S'pin'
p160
S'number'
p161
tp162
(lp163
(I2
I37
F-0.125
S'overall'
p164
I0
tp165
a(I4
I101
F-0.75
S'wrong'
p166
I0
tp167
as(S'pantech'
p168
tp169
(lp170
(I1
I67
I0
S'different'
p171
I0
tp172
a(I3
I19
F0.5
S'possible'
p173
I0
tp174
a(I4
I128
F-0.625
S'free'
p175
I0
tp176
a(I5
I32
I0
S'great'
p177
I0
tp178
as(S'non'
p179
S'smart'
p180
tp181
(lp182
(I1
I16
F1.0
S'good'
p183
I0
tp184
a(I1
I22
F0.625
S'aware'
p185
I10
tp186
a(I3
I67
F-0.25
S'modern'
p187
I10
tp188
a(I3
I133
F0.375
S'reliable'
p189
I10
tp190
as(S'calls'
p191
tp192
(lp193
(I3
I29
I0
S'many'
p194
I0
tp195
a(I5
I12
F0.125
S'enough'
p196
I0
tp197
a(I5
I12
I0
S'signal'
p198
I0
tp199
as(S'home'
p200
S'page'
p201
tp202
(lp203
(I3
I92
I0
S'third'
p204
I0
tp205
as(S'reject'
p206
S'key'
p207
tp208
(lp209
(I4
I126
F0.5
S'touch'
p210
I0
tp211
as(S'pocket'
p212
tp213
(lp214
(I4
I131
I0
S'big'
p215
I17
tp216
a(I4
I131
I0
S'large'
p217
I17
tp218
a(I5
I35
I0
S'slid'
p219
I17
tp220
as(g78
S'data'
p221
S'plan'
p222
tp223
(lp224
(I2
I71
I0
S'wish'
p225
I0
tp226
a(I3
I125
I0
S'pic'
p227
I0
tp228
a(I3
I130
F0.625
S'necessary'
p229
I0
tp230
a(I2
I71
I0
g225
I0
tp231
a(I3
I125
I0
g227
I0
tp232
a(I3
I130
F0.625
g229
I0
tp233
as(S'renue'
p234
tp235
(lp236
(I3
I64
I-100
S'lifeless'
p237
I0
tp238
as(S'want'
p239
g78
S'data'
p240
tp241
(lp242
(I3
I130
F0.625
g229
I0
tp243
a(I3
I129
F-0.625
S'free'
p244
I13
tp245
a(I3
I130
F0.625
g229
I13
tp246
as(S'texts'
p247
tp248
(lp249
(I0
I32
I0
S'more'
p250
I0
tp251
a(I3
I115
F0.125
S'able'
p252
I0
tp253
as(S'end/reject'
p254
S'key'
p255
tp256
(lp257
(I1
I26
F0.125
S'key'
p258
I0
tp259
as(S'touch'
p260
S'screen'
p261
tp262
(lp263
(I0
I18
F0.5
S'touch'
p264
I2
tp265
a(I1
I62
I0
S'sensitive'
p266
I2
tp267
a(I2
I4
F0.25
S'responsive'
p268
I2
tp269
a(I2
I4
F0.5
S'touch'
p270
I2
tp271
a(I3
I39
F0.5
S'touch'
p272
I2
tp273
a(I3
I114
F0.375
S'reliable'
p274
I2
tp275
a(I3
I114
F0.125
S'first'
p276
I2
tp277
a(I3
I144
I0
S'wish'
p278
I2
tp279
a(I4
I131
I0
S'large'
p280
I2
tp281
a(I4
I131
F-0.75
S'bright'
p282
I2
tp283
as(S'sound'
p284
S'quality'
p285
tp286
(lp287
(I0
I45
F1.0
S'good'
p288
I0
tp289
a(I0
I47
F1.0
S'good'
p290
I0
tp291
a(I3
I142
F1.0
S'good'
p292
I0
tp293
a(I4
I34
F-0.5
S'poor'
p294
I0
tp295
as.