(dp0
(S'nice'
p1
tp2
(lp3
(I1
I5
I0
S'real'
p4
tp5
a(I10
I4
F-0.125
S'overall'
p6
tp7
a(I10
I4
F0.25
S'responsive'
p8
tp9
as(S'quad'
p10
S'core'
p11
tp12
(lp13
(I98
I1
F-0.75
S'single'
p14
tp15
as(S'with'
p16
S'straight'
p17
S'talk'
p18
tp19
(lp20
(I3
I5
F0.625
S'straight'
p21
tp22
a(I3
I13
F0.625
S'straight'
p23
tp24
a(I3
I15
F0.625
S'straight'
p25
tp26
a(I14
I6
F0.625
S'straight'
p27
tp28
a(I23
I0
F0.625
S'straight'
p29
tp30
a(I38
I5
F0.625
S'straight'
p31
tp32
a(I56
I1
F0.625
S'straight'
p33
tp34
a(I60
I7
F0.625
S'straight'
p35
tp36
a(I69
I1
F0.625
S'straight'
p37
tp38
a(I113
I1
F0.625
S'straight'
p39
tp40
a(I118
I21
F0.625
S'straight'
p41
tp42
a(I129
I5
F0.625
S'straight'
p43
tp44
a(I129
I5
F0.625
S'straight'
p45
tp46
a(I152
I0
F0.625
S'straight'
p47
tp48
as(S'quality'
p49
tp50
(lp51
(I25
I0
F1.0
S'good'
p52
tp53
a(I37
I1
F-0.5
S'poor'
p54
tp55
a(I37
I1
I0
S'pic'
p56
tp57
a(I38
I11
F-0.125
S'overall'
p58
tp59
a(I53
I0
F0.875
S'nice'
p60
tp61
a(I60
I10
F1.0
S'good'
p62
tp63
a(I82
I4
F1.0
S'good'
p64
tp65
a(I83
I0
F-0.625
S'bad'
p66
tp67
a(I118
I13
F1.0
S'good'
p68
tp69
a(I129
I9
F1.0
S'good'
p70
tp71
a(I148
I1
F-0.25
S'low'
p72
tp73
as(S'stopped'
p74
S'working'
p75
tp76
(lp77
(I66
I0
F-0.375
S'stopped'
p78
tp79
as(S'sd'
p80
S'card'
p81
tp82
(lp83
(I82
I2
F-0.25
S'higher'
p84
tp85
a(I82
I2
F-0.25
S'low'
p86
tp87
as(S'weeks'
p88
tp89
(lp90
(I33
I1
I0
S'few'
p91
tp92
a(I38
I11
I0
S'entire'
p93
tp94
a(I44
I0
F1.0
S'good'
p95
tp96
a(I82
I6
F0.125
S'able'
p97
tp98
a(I85
I0
F1.0
S'good'
p99
tp100
a(I85
I4
I0
S'few'
p101
tp102
a(I85
I38
I0
S'few'
p103
tp104
a(I85
I38
I0
S'info'
p105
tp106
a(I85
I40
I0
S'few'
p107
tp108
as(S'3'
p109
S'days'
p110
tp111
(lp112
(I5
I0
F0.125
S'first'
p113
tp114
as(S'case'
p115
tp116
(lp117
(I2
I3
F0.125
S'able'
p118
tp119
a(I15
I3
F-0.75
S'difficult'
p120
tp121
a(I25
I1
F-0.75
S'difficult'
p122
tp123
a(I25
I1
F0.875
S'nice'
p124
tp125
a(I32
I6
F-0.875
S'hard'
p126
tp127
a(I34
I6
F-0.875
S'hard'
p128
tp129
a(I46
I8
I0
S'only'
p130
tp131
a(I85
I98
F-0.875
S'hard'
p132
tp133
a(I117
I2
I0
S'hybrid'
p134
tp135
a(I142
I1
F0.125
S'protective'
p136
tp137
a(I153
I11
I0
S'large'
p138
tp139
a(I153
I11
F0.125
S'protective'
p140
tp141
as(S'store'
p142
tp143
(lp144
(I38
I14
I0
S'big'
p145
tp146
a(I85
I102
F-0.625
S'other'
p147
tp148
a(I85
I109
F-0.375
S'nearest'
p149
tp150
a(I129
I8
F0.5
S'odd'
p151
tp152
as(S'5'
p153
S'nch'
p154
S'screen'
p155
tp156
(lp157
(I12
I3
F0.125
S'protective'
p158
tp159
as(S'note'
p160
tp161
(lp162
(I128
I2
F-0.375
S'smaller'
p163
tp164
as(S'sim'
p165
S'card'
p166
tp167
(lp168
(I8
I2
F1.0
S'better'
p169
tp170
a(I54
I1
F-0.625
S'other'
p171
tp172
a(I60
I17
I0
S'older'
p173
tp174
a(I103
I17
F-0.125
S'slow'
p175
tp176
as(S'call'
p177
S'log'
p178
tp179
(lp180
(I85
I78
F0.5
S'rid'
p181
tp182
as(S'charge'
p183
tp184
(lp185
(I144
I2
F-0.5
S'long'
p186
tp187
as(S'however'
p188
tp189
(lp190
(I60
I5
F1.0
S'good'
p191
tp192
as(S'a'
p193
S'straight'
p194
S'talk'
p195
tp196
(lp197
(I3
I5
F0.625
g21
tp198
a(I3
I11
F0.625
S'straight'
p199
tp200
a(I3
I13
F0.625
g23
tp201
a(I3
I15
F0.625
g25
tp202
a(I3
I16
F0.625
S'straight'
p203
tp204
a(I14
I6
F0.625
g27
tp205
a(I23
I0
F0.625
g29
tp206
a(I23
I2
F0.625
S'straight'
p207
tp208
a(I23
I2
F1.0
S'good'
p209
tp210
a(I34
I1
F0.625
S'straight'
p211
tp212
a(I38
I5
F0.625
g31
tp213
a(I56
I1
F0.625
g33
tp214
a(I56
I4
F0.625
S'straight'
p215
tp216
a(I60
I7
F0.625
g35
tp217
a(I60
I8
F0.625
S'straight'
p218
tp219
a(I60
I17
F0.625
S'straight'
p220
tp221
a(I69
I1
F0.625
g37
tp222
a(I69
I4
F0.625
S'straight'
p223
tp224
a(I82
I3
F0.625
S'straight'
p225
tp226
a(I82
I10
F0.625
S'straight'
p227
tp228
a(I88
I2
F0.625
S'straight'
p229
tp230
a(I100
I2
F0.625
S'straight'
p231
tp232
a(I100
I3
F0.625
S'straight'
p233
tp234
a(I107
I1
F0.625
S'straight'
p235
tp236
a(I111
I0
F0.625
S'straight'
p237
tp238
a(I113
I1
F0.625
g39
tp239
a(I118
I1
F0.625
S'straight'
p240
tp241
a(I118
I1
F0.625
S'straight'
p242
tp243
a(I118
I21
F0.625
g41
tp244
a(I129
I5
F0.625
g43
tp245
a(I129
I5
F0.625
g45
tp246
a(I134
I2
F0.625
S'straight'
p247
tp248
a(I152
I0
F0.625
g47
tp249
as(S'calls'
p250
tp251
(lp252
(I53
I2
F-0.875
S'trouble'
p253
tp254
a(I74
I0
F-0.25
S'dropped'
p255
tp256
a(I85
I64
I0
S'great'
p257
tp258
as(S'web'
p259
S'site'
p260
tp261
(lp262
(I60
I17
I0
S'different'
p263
tp264
as(S'international'
p265
S'version'
p266
tp267
(lp268
(I60
I1
F-0.5
S'international'
p269
tp270
a(I60
I2
F-0.5
S'international'
p271
tp272
a(I117
I2
F-0.5
S'international'
p273
tp274
as(S'card'
p275
tp276
(lp277
(I8
I2
F1.0
g169
tp278
a(I54
I1
F-0.625
g171
tp279
a(I82
I2
F-0.25
g86
tp280
a(I103
I17
F-0.125
g175
tp281
as(S'customer'
p282
S'service'
p283
tp284
(lp285
(I45
I7
I0
S'great'
p286
tp287
a(I100
I2
F0.75
S'contrary'
p288
tp289
as(S'wifi'
p290
tp291
(lp292
(I4
I5
F1.0
S'best'
p293
tp294
a(I24
I1
F-0.625
S'other'
p295
tp296
a(I44
I3
I0
S'great'
p297
tp298
a(I55
I7
F1.0
S'good'
p299
tp300
a(I71
I2
F1.0
S'best'
p301
tp302
a(I71
I3
I0
S'more'
p303
tp304
a(I71
I3
F0.375
S'reliable'
p305
tp306
a(I128
I6
F1.0
S'good'
p307
tp308
as(S'fast'
p309
tp310
(lp311
(I11
I0
F-0.625
S'other'
p312
tp313
a(I57
I2
F0.375
S'reliable'
p314
tp315
as(S'problem'
p316
tp317
(lp318
(I2
I6
I0
S'only'
p319
tp320
a(I9
I0
F0.5
S'told'
p321
tp322
a(I47
I2
F1.0
S'good'
p323
tp324
a(I85
I70
F0.125
S'first'
p325
tp326
a(I124
I0
I0
S'more'
p327
tp328
as(S'name'
p329
S'brand'
p330
tp331
(lp332
(I100
I11
F0.5
S'willing'
p333
tp334
a(I147
I1
I0
S'own'
p335
tp336
as(S'money'
p337
tp338
(lp339
(I15
I3
F0.125
S'amazon'
p340
tp341
a(I54
I2
I0
S'more'
p342
tp343
a(I85
I3
F-0.5
S'less'
p344
tp345
a(I130
I9
F0.75
S'worth'
p346
tp347
as(S'price'
p348
tp349
(lp350
(I18
I0
F1.0
S'good'
p351
tp352
a(I18
I0
I0
S'compete'
p353
tp354
a(I36
I5
F0.5
S'reasonable'
p355
tp356
a(I46
I1
F0.75
S'worth'
p357
tp358
a(I59
I2
F0.75
S'worth'
p359
tp360
a(I80
I0
F-0.25
S'low'
p361
tp362
a(I85
I109
I0
S'great'
p363
tp364
a(I117
I3
I0
S'more'
p365
tp366
a(I142
I7
F0.5
S'live'
p367
tp368
as(S'name'
p369
tp370
(lp371
(I100
I11
F0.5
g333
tp372
a(I147
I1
I0
g335
tp373
as(S'service'
p374
tp375
(lp376
(I3
I6
I0
S'same'
p377
tp378
a(I26
I2
I0
S'net'
p379
tp380
a(I45
I7
I0
g286
tp381
a(I96
I0
I0
S'great'
p382
tp383
a(I104
I1
I0
S'full'
p384
tp385
a(I105
I4
I0
S'same'
p386
tp387
as(g193
S'little'
p388
S'bit'
p389
tp390
(lp391
(I85
I101
I0
S'big'
p392
tp393
as(S'memory'
p394
tp395
(lp396
(I10
I2
I0
S'internal'
p397
tp398
a(I60
I4
I0
S'great'
p399
tp400
as(S'things'
p401
tp402
(lp403
(I14
I3
F-0.625
S'other'
p404
tp405
a(I58
I0
I0
S'more'
p406
tp407
a(I58
I0
F0.625
S'easy'
p408
tp409
a(I62
I8
F-0.25
S'higher'
p410
tp411
a(I85
I13
I0
S'basic'
p412
tp413
a(I85
I34
I0
S'many'
p414
tp415
a(I85
I48
F0.875
S'important'
p416
tp417
a(I85
I89
F-0.625
S'other'
p418
tp419
a(I85
I89
I0
S'cool'
p420
tp421
a(I85
I91
F-0.75
S'wrong'
p422
tp423
a(I100
I1
I0
S'few'
p424
tp425
a(I153
I8
I0
S'most'
p426
tp427
as(S'return'
p428
tp429
(lp430
(I90
I1
F0.625
S'fair'
p431
tp432
a(I90
I1
F0.25
S'helpful'
p433
tp434
a(I96
I0
F0.625
S'easy'
p435
tp436
as(S'features'
p437
tp438
(lp439
(I24
I0
I0
S'many'
p440
tp441
a(I24
I0
I0
S'great'
p442
tp443
a(I39
I1
I0
S'same'
p444
tp445
a(I46
I3
F1.0
S'best'
p446
tp447
a(I59
I3
F-0.625
S'other'
p448
tp449
a(I62
I21
F0.25
S'favorite'
p450
tp451
a(I85
I11
I0
S'special'
p452
tp453
a(I144
I2
I0
S'few'
p454
tp455
a(I144
I2
F0.125
S'key'
p456
tp457
a(I147
I2
F-0.625
S'other'
p458
tp459
a(I147
I2
F0.125
S'spectacular'
p460
tp461
as(S'on'
p462
S'straight'
p463
S'talk'
p464
tp465
(lp466
(I3
I5
F0.625
g21
tp467
a(I3
I13
F0.625
g23
tp468
a(I3
I15
F0.625
g25
tp469
a(I3
I16
F0.625
g203
tp470
a(I23
I0
F0.625
g29
tp471
a(I23
I2
F0.625
g207
tp472
a(I23
I2
F1.0
g209
tp473
a(I34
I1
F0.625
g211
tp474
a(I38
I5
F0.625
g31
tp475
a(I56
I1
F0.625
g33
tp476
a(I56
I4
F0.625
g215
tp477
a(I60
I7
F0.625
g35
tp478
a(I60
I8
F0.625
g218
tp479
a(I60
I17
F0.625
g220
tp480
a(I69
I1
F0.625
g37
tp481
a(I69
I4
F0.625
g223
tp482
a(I82
I3
F0.625
g225
tp483
a(I88
I2
F0.625
g229
tp484
a(I100
I2
F0.625
g231
tp485
a(I100
I3
F0.625
g233
tp486
a(I107
I1
F0.625
g235
tp487
a(I111
I0
F0.625
g237
tp488
a(I113
I1
F0.625
g39
tp489
a(I118
I1
F0.625
g240
tp490
a(I118
I1
F0.625
g242
tp491
a(I118
I21
F0.625
g41
tp492
a(I129
I5
F0.625
g43
tp493
a(I129
I5
F0.625
g45
tp494
a(I152
I0
F0.625
g47
tp495
as(S'batteries'
p496
tp497
(lp498
(I53
I1
I0
S'included'
p499
tp500
a(I118
I11
I0
S'more'
p501
tp502
as(S'android'
p503
tp504
(lp505
(I8
I4
F0.125
S'first'
p506
tp507
a(I94
I4
I0
S'capacitive'
p508
tp509
as(S'network'
p510
tp511
(lp512
(I82
I12
I0
S'mobile'
p513
tp514
a(I128
I5
I0
S'mobile'
p515
tp516
a(I133
I0
F0.125
S'able'
p517
tp518
a(I134
I6
F-0.625
S'fresh'
p519
tp520
as(S'simple'
p521
S'mobile'
p522
tp523
(lp524
(I103
I17
F-0.375
S'simple'
p525
tp526
as(S'thing'
p527
tp528
(lp529
(I4
I6
I0
S'only'
p530
tp531
a(I27
I5
I0
S'only'
p532
tp533
a(I27
I10
F-0.625
S'other'
p534
tp535
a(I27
I10
F-0.625
S'bad'
p536
tp537
a(I38
I4
I0
S'only'
p538
tp539
a(I44
I2
I0
S'same'
p540
tp541
a(I44
I9
I0
S'same'
p542
tp543
a(I45
I2
I0
S'same'
p544
tp545
a(I61
I1
I0
S'closest'
p546
tp547
a(I124
I0
I0
S'only'
p548
tp549
a(I124
I0
F-0.625
S'bad'
p550
tp551
as(S'data'
p552
tp553
(lp554
(I87
I5
F-0.5
S'regular'
p555
tp556
as(S'make'
p557
tp558
(lp559
(I81
I11
I0
S'same'
p560
tp561
as(S'anyone'
p562
tp563
(lp564
(I45
I6
F0.625
S'aware'
p565
tp566
as(S'work'
p567
tp568
(lp569
(I10
I2
I0
S'great'
p570
tp571
a(I55
I1
F1.0
S'good'
p572
tp573
a(I113
I1
F0.625
S'easy'
p574
tp575
as(S'battery'
p576
S'life'
p577
tp578
(lp579
(I26
I2
F-0.75
S'unable'
p580
tp581
a(I57
I1
F0.125
S'last'
p582
tp583
a(I75
I0
I0
S'such'
p584
tp585
a(I82
I12
I0
S'great'
p586
tp587
a(I82
I12
F1.0
S'good'
p588
tp589
a(I85
I22
F-0.5
S'long'
p590
tp591
a(I85
I51
F-0.5
S'less'
p592
tp593
a(I85
I54
F0.125
S'last'
p594
tp595
a(I113
I6
F-0.75
S'likely'
p596
tp597
a(I113
I6
F1.0
S'better'
p598
tp599
as(S'talk'
p600
tp601
(lp602
(I3
I5
F0.625
g21
tp603
a(I3
I11
F0.625
g199
tp604
a(I3
I13
F0.625
g23
tp605
a(I3
I15
F0.625
g25
tp606
a(I3
I16
F0.625
g203
tp607
a(I14
I6
F0.625
g27
tp608
a(I23
I0
F0.625
g29
tp609
a(I23
I2
F0.625
g207
tp610
a(I23
I2
F1.0
g209
tp611
a(I34
I1
F0.625
g211
tp612
a(I38
I5
F0.625
g31
tp613
a(I56
I1
F0.625
g33
tp614
a(I56
I4
F0.625
g215
tp615
a(I60
I7
F0.625
g35
tp616
a(I60
I8
F0.625
g218
tp617
a(I60
I17
F0.625
g220
tp618
a(I69
I1
F0.625
g37
tp619
a(I69
I4
F0.625
g223
tp620
a(I82
I3
F0.625
g225
tp621
a(I82
I10
F0.625
g227
tp622
a(I88
I2
F0.625
g229
tp623
a(I100
I2
F0.625
g231
tp624
a(I100
I3
F0.625
g233
tp625
a(I107
I1
F0.625
g235
tp626
a(I111
I0
F0.625
g237
tp627
a(I113
I1
F0.625
g39
tp628
a(I118
I1
F0.625
g240
tp629
a(I118
I1
F0.625
g242
tp630
a(I118
I21
F0.625
g41
tp631
a(I129
I5
F0.625
g43
tp632
a(I129
I5
F0.625
g45
tp633
a(I134
I2
F0.625
g247
tp634
a(I152
I0
F0.625
g47
tp635
as(S'writing'
p636
S'review'
p637
tp638
(lp639
(I52
I5
F1.0
S'best'
p640
tp641
as(S'problems'
p642
tp643
(lp644
(I86
I0
I0
S'graphic'
p645
tp646
a(I94
I3
I0
S'more'
p647
tp648
as(S'settings'
p649
tp650
(lp651
(I20
I4
I0
S'android'
p652
tp653
a(I20
I4
F-0.25
S'higher'
p654
tp655
a(I103
I9
I0
S'more'
p656
tp657
a(I113
I4
F-0.25
S'low'
p658
tp659
a(I134
I5
F0.375
S'enable'
p660
tp661
as(S'back'
p662
tp663
(lp664
(I80
I3
F-0.5
S'flimsy'
p665
tp666
a(I80
I3
F-0.5
S'afraid'
p667
tp668
as(S'n'
p669
g109
S'days'
p670
tp671
(lp672
(I5
I0
F0.125
g113
tp673
as(S'straight'
p674
S'talk'
p675
tp676
(lp677
(I3
I5
F0.625
g21
tp678
a(I3
I11
F0.625
g199
tp679
a(I3
I13
F0.625
g23
tp680
a(I3
I15
F0.625
g25
tp681
a(I3
I16
F0.625
g203
tp682
a(I14
I6
F0.625
g27
tp683
a(I23
I0
F0.625
g29
tp684
a(I23
I2
F0.625
g207
tp685
a(I23
I2
F1.0
g209
tp686
a(I34
I1
F0.625
g211
tp687
a(I38
I5
F0.625
g31
tp688
a(I56
I1
F0.625
g33
tp689
a(I56
I4
F0.625
g215
tp690
a(I60
I7
F0.625
g35
tp691
a(I60
I8
F0.625
g218
tp692
a(I60
I17
F0.625
g220
tp693
a(I69
I1
F0.625
g37
tp694
a(I69
I4
F0.625
g223
tp695
a(I82
I3
F0.625
g225
tp696
a(I82
I10
F0.625
g227
tp697
a(I88
I2
F0.625
g229
tp698
a(I100
I2
F0.625
g231
tp699
a(I100
I3
F0.625
g233
tp700
a(I107
I1
F0.625
g235
tp701
a(I111
I0
F0.625
g237
tp702
a(I113
I1
F0.625
g39
tp703
a(I118
I1
F0.625
g240
tp704
a(I118
I1
F0.625
g242
tp705
a(I118
I21
F0.625
g41
tp706
a(I129
I5
F0.625
g43
tp707
a(I129
I5
F0.625
g45
tp708
a(I134
I2
F0.625
g247
tp709
a(I152
I0
F0.625
g47
tp710
as(S'find'
p711
g193
S'case'
p712
tp713
(lp714
(I2
I3
F0.125
g118
tp715
a(I15
I3
F-0.75
g120
tp716
a(I25
I1
F-0.75
g122
tp717
a(I25
I1
F0.875
g124
tp718
a(I32
I6
F-0.875
g126
tp719
a(I46
I8
I0
g130
tp720
a(I153
I11
I0
g138
tp721
a(I153
I11
F0.125
g140
tp722
as(S'life'
p723
tp724
(lp725
(I26
I2
F-0.75
g580
tp726
a(I57
I1
F0.125
g582
tp727
a(I75
I0
I0
g584
tp728
a(I82
I12
F1.0
g588
tp729
a(I85
I22
F-0.5
g590
tp730
a(I85
I54
F0.125
g594
tp731
a(I95
I0
F0.125
S'last'
p732
tp733
a(I113
I6
F-0.75
g596
tp734
a(I113
I6
F1.0
g598
tp735
as(S'galaxy'
p736
S'note'
p737
tp738
(lp739
(I85
I101
F-0.75
S'wrong'
p740
tp741
a(I85
I101
F0.375
S'extra'
p742
tp743
a(I93
I1
I0
S'great'
p744
tp745
a(I93
I1
F-0.375
S'vary'
p746
tp747
a(I93
I1
F0.5
S'compatible'
p748
tp749
a(I128
I2
F-0.375
g163
tp750
as(S'seller'
p751
tp752
(lp753
(I1
I2
F-0.125
S'mine'
p754
tp755
a(I12
I2
I0
S'great'
p756
tp757
a(I34
I5
I0
S'great'
p758
tp759
a(I61
I5
F0.5
S'told'
p760
tp761
as(S'battery'
p762
tp763
(lp764
(I38
I15
F0.375
S'extra'
p765
tp766
a(I38
I15
I0
S'great'
p767
tp768
a(I38
I16
F-0.375
S'smaller'
p769
tp770
a(I38
I16
I0
S'large'
p771
tp772
a(I40
I4
F1.0
S'good'
p773
tp774
a(I60
I6
F0.125
S'last'
p775
tp776
a(I82
I12
I0
g586
tp777
a(I85
I51
F-0.5
g592
tp778
a(I92
I0
F-0.75
S'dead'
p779
tp780
a(I101
I8
F0.375
S'extra'
p781
tp782
as(S'cell'
p783
tp784
(lp785
(I2
I2
F-0.875
S'trouble'
p786
tp787
a(I2
I2
F-0.25
S'past'
p788
tp789
a(I22
I1
F0.75
S'receive'
p790
tp791
a(I55
I5
F-0.625
S'other'
p792
tp793
a(I85
I0
F1.0
S'better'
p794
tp795
a(I85
I12
F0.375
S'new'
p796
tp797
a(I85
I12
I0
S'update'
p798
tp799
a(I85
I47
F0.375
S'new'
p800
tp801
a(I129
I7
I0
S'common'
p802
tp803
as(S'text'
p804
tp805
(lp806
(I101
I1
I0
S'great'
p807
tp808
a(I118
I4
F0.625
S'easier'
p809
tp810
as(S'update'
p811
tp812
(lp813
(I60
I10
F1.0
S'good'
p814
tp815
as(S'time'
p816
tp817
(lp818
(I18
I0
F-0.75
S'little'
p819
tp820
a(I27
I6
F0.125
S'last'
p821
tp822
a(I27
I6
F-0.5
S'long'
p823
tp824
a(I55
I7
I0
S'high'
p825
tp826
a(I60
I14
F0.125
S'last'
p827
tp828
a(I60
I17
I0
S'same'
p829
tp830
a(I62
I15
F0.125
S'first'
p831
tp832
a(I76
I0
F-0.5
S'long'
p833
tp834
a(I91
I2
I0
S'next'
p835
tp836
a(I93
I0
F-0.875
S'hard'
p837
tp838
a(I100
I10
F0.5
S'willing'
p839
tp840
a(I136
I0
F0.375
S'mean'
p841
tp842
a(I136
I0
I0
S'few'
p843
tp844
as(S'apn'
p845
S'settings'
p846
tp847
(lp848
(I20
I4
I0
g652
tp849
a(I20
I4
F-0.25
g654
tp850
a(I20
I4
F0.125
S'able'
p851
tp852
a(I71
I1
F0.125
S'first'
p853
tp854
a(I71
I1
F0.125
S'able'
p855
tp856
a(I82
I10
F0.25
S'original'
p857
tp858
as(S'months'
p859
tp860
(lp861
(I15
I0
I0
S'few'
p862
tp863
a(I22
I0
F0.75
S'due'
p864
tp865
a(I86
I0
I0
S'vertical'
p866
tp867
a(I91
I3
I0
S'few'
p868
tp869
a(I91
I3
F-0.75
S'short'
p870
tp871
a(I130
I1
F0.125
S'first'
p872
tp873
a(I130
I1
I0
S'few'
p874
tp875
as(S'talk'
p876
S'sim'
p877
tp878
(lp879
(I3
I16
F0.625
g203
tp880
a(I23
I0
F0.625
g29
tp881
a(I56
I1
F0.625
g33
tp882
a(I60
I7
F0.625
g35
tp883
a(I60
I17
F0.625
g220
tp884
a(I60
I17
I0
g173
tp885
a(I69
I1
F0.625
g37
tp886
a(I82
I3
F0.625
g225
tp887
a(I100
I3
F0.625
g233
tp888
a(I107
I1
F0.625
g235
tp889
a(I113
I1
F0.625
g39
tp890
a(I118
I1
F0.625
g240
tp891
a(I118
I1
F0.625
g242
tp892
a(I129
I5
F0.625
g43
tp893
a(I129
I5
F0.625
g45
tp894
a(I134
I2
F0.625
g247
tp895
as(S'working'
p896
tp897
(lp898
(I66
I0
F-0.375
g78
tp899
as(S'samsung'
p900
S'galaxy'
p901
S'note'
p902
tp903
(lp904
(I128
I2
F-0.375
g163
tp905
as(S'google'
p906
S'play'
p907
tp908
(lp909
(I38
I8
F-0.25
S'google'
p910
tp911
a(I129
I7
F-0.25
S'google'
p912
tp913
a(I134
I3
F-0.25
S'google'
p914
tp915
as(g193
S'galaxy'
p916
S'note'
p917
tp918
(lp919
(I85
I101
F-0.75
g740
tp920
a(I85
I101
F0.375
g742
tp921
a(I93
I1
I0
g744
tp922
a(I93
I1
F-0.375
g746
tp923
a(I93
I1
F0.5
g748
tp924
a(I128
I2
F-0.375
g163
tp925
as(S'screen'
p926
tp927
(lp928
(I1
I5
F0.625
S'perfect'
p929
tp930
a(I2
I1
I0
S'large'
p931
tp932
a(I12
I3
F0.125
g158
tp933
a(I30
I1
I0
S'great'
p934
tp935
a(I40
I3
F0.5
S'clear'
p936
tp937
a(I40
I3
F-0.75
S'bright'
p938
tp939
a(I40
I7
F1.0
S'good'
p940
tp941
a(I40
I7
F0.25
S'responsive'
p942
tp943
a(I43
I0
I0
S'big'
p944
tp945
a(I55
I0
F1.0
S'good'
p946
tp947
a(I56
I5
F-0.75
S'bright'
p948
tp949
a(I60
I6
I0
S'large'
p950
tp951
a(I60
I6
F0.625
S'perfect'
p952
tp953
a(I62
I5
F-0.75
S'bright'
p954
tp955
a(I62
I5
F0.25
S'responsive'
p956
tp957
a(I69
I5
F-0.75
S'bright'
p958
tp959
a(I82
I18
F-0.25
S'white'
p960
tp961
a(I85
I57
I0
S'active'
p962
tp963
a(I85
I57
F1.0
S'good'
p964
tp965
a(I85
I57
F-0.25
S'turned'
p966
tp967
a(I85
I57
F-0.25
S'lowest'
p968
tp969
a(I85
I83
F0.625
S'easy'
p970
tp971
a(I85
I85
F0.25
S'main'
p972
tp973
a(I85
I89
I0
S'next'
p974
tp975
a(I92
I0
F0.125
S'able'
p976
tp977
a(I92
I0
F0.25
S'tired'
p978
tp979
a(I107
I4
I0
S'large'
p980
tp981
a(I113
I2
F0.75
S'beautiful'
p982
tp983
a(I117
I4
F0.5
S'clear'
p984
tp985
a(I124
I0
F-0.375
S'black'
p986
tp987
a(I129
I10
F-0.75
S'bright'
p988
tp989
a(I129
I10
F0.25
S'responsive'
p990
tp991
a(I129
I10
F0.5
S'touch'
p992
tp993
a(I129
I13
F0.5
S'susceptible'
p994
tp995
a(I140
I2
F0.875
S'nice'
p996
tp997
a(I140
I2
I0
S'big'
p998
tp999
a(I142
I4
F-0.375
S'smaller'
p1000
tp1001
a(I147
I3
F0.25
S'larger'
p1002
tp1003
a(I153
I4
I0
S'large'
p1004
tp1005
as(S'two'
p1006
S'batteries'
p1007
tp1008
(lp1009
(I53
I1
I0
g499
tp1010
as(S'everything'
p1011
tp1012
(lp1013
(I150
I0
I0
S'big'
p1014
tp1015
as(S'2'
p1016
S'days'
p1017
tp1018
(lp1019
(I5
I0
F0.125
g113
tp1020
a(I85
I9
F0.875
S'happy'
p1021
tp1022
as(S'camera'
p1023
tp1024
(lp1025
(I8
I6
F1.0
S'good'
p1026
tp1027
a(I26
I3
F-0.25
S'low'
p1028
tp1029
a(I26
I3
F0.375
S'flash'
p1030
tp1031
a(I32
I11
F1.0
S'good'
p1032
tp1033
a(I47
I0
F-0.5
S'poor'
p1034
tp1035
a(I55
I11
F-0.625
S'other'
p1036
tp1037
a(I63
I3
F-0.5
S'poor'
p1038
tp1039
a(I85
I37
F0.375
S'extra'
p1040
tp1041
a(I85
I37
I0
S'many'
p1042
tp1043
a(I85
I63
F0.625
S'alright'
p1044
tp1045
a(I130
I3
F1.0
S'good'
p1046
tp1047
as(S'using'
p1048
tp1049
(lp1050
(I15
I4
F-0.875
S'stuck'
p1051
tp1052
a(I85
I36
I0
S'fast'
p1053
tp1054
as(S'mobile'
p1055
tp1056
(lp1057
(I24
I0
F0.5
S'told'
p1058
tp1059
a(I103
I17
F-0.375
g525
tp1060
as(S'galaxy'
p1061
tp1062
(lp1063
(I85
I101
F-0.75
g740
tp1064
a(I85
I101
F0.375
g742
tp1065
a(I93
I1
I0
g744
tp1066
a(I93
I1
F-0.375
g746
tp1067
a(I93
I1
F0.5
g748
tp1068
as(S'help'
p1069
tp1070
(lp1071
(I81
I10
I0
S'great'
p1072
tp1073
as(S'talk'
p1074
S'sim'
p1075
S'card'
p1076
tp1077
(lp1078
(I23
I0
F0.625
g29
tp1079
a(I60
I7
F0.625
g35
tp1080
a(I60
I17
F0.625
g220
tp1081
a(I60
I17
I0
g173
tp1082
a(I107
I1
F0.625
g235
tp1083
a(I118
I1
F0.625
g240
tp1084
a(I118
I1
F0.625
g242
tp1085
a(I134
I2
F0.625
g247
tp1086
as(S'works'
p1087
tp1088
(lp1089
(I10
I2
I0
S'great'
p1090
tp1091
a(I32
I15
F1.0
S'good'
p1092
tp1093
a(I40
I2
I0
S'advertized'
p1094
tp1095
a(I48
I0
F1.0
S'good'
p1096
tp1097
a(I55
I0
I0
S'great'
p1098
tp1099
a(I60
I7
F1.0
S'good'
p1100
tp1101
a(I60
I7
F1.0
S'good'
p1102
tp1103
a(I105
I1
I0
S'great'
p1104
tp1105
a(I117
I3
I0
S'great'
p1106
tp1107
a(I145
I0
I0
S'great'
p1108
tp1109
as(S'large'
p1110
S'screen'
p1111
tp1112
(lp1113
(I2
I1
I0
g931
tp1114
a(I60
I6
I0
g950
tp1115
a(I60
I6
F0.625
g952
tp1116
a(I107
I4
I0
g980
tp1117
a(I147
I3
F0.25
g1002
tp1118
a(I153
I4
I0
g1004
tp1119
as(S'straight'
p1120
S'talk'
p1121
S'sim'
p1122
tp1123
(lp1124
(I3
I16
F0.625
g203
tp1125
a(I23
I0
F0.625
g29
tp1126
a(I56
I1
F0.625
g33
tp1127
a(I60
I7
F0.625
g35
tp1128
a(I60
I17
F0.625
g220
tp1129
a(I60
I17
I0
g173
tp1130
a(I69
I1
F0.625
g37
tp1131
a(I82
I3
F0.625
g225
tp1132
a(I100
I3
F0.625
g233
tp1133
a(I107
I1
F0.625
g235
tp1134
a(I113
I1
F0.625
g39
tp1135
a(I118
I1
F0.625
g240
tp1136
a(I118
I1
F0.625
g242
tp1137
a(I129
I5
F0.625
g43
tp1138
a(I129
I5
F0.625
g45
tp1139
a(I134
I2
F0.625
g247
tp1140
as(S'better'
p1141
tp1142
(lp1143
(I105
I7
F0.375
S'much'
p1144
tp1145
as(S'call'
p1146
tp1147
(lp1148
(I30
I5
F0.875
S'nice'
p1149
tp1150
a(I118
I4
F0.75
S'receive'
p1151
tp1152
a(I124
I0
F-0.125
S'overall'
p1153
tp1154
as(S'review'
p1155
tp1156
(lp1157
(I24
I1
F0.5
S'second'
p1158
tp1159
a(I38
I17
F0.25
S'helpful'
p1160
tp1161
a(I52
I5
F1.0
g640
tp1162
a(I60
I11
F0.375
S'new'
p1163
tp1164
a(I60
I11
F0.375
S'new'
p1165
tp1166
a(I85
I103
I0
S'insight'
p1167
tp1168
a(I85
I103
F0.125
S'first'
p1169
tp1170
a(I118
I1
F-0.25
S'ready'
p1171
tp1172
a(I118
I1
F0.625
S'fair'
p1173
tp1174
as(S'apps'
p1175
tp1176
(lp1177
(I37
I1
I0
S'download'
p1178
tp1179
a(I55
I11
F0.375
S'available'
p1180
tp1181
a(I62
I5
F1.0
S'good'
p1182
tp1183
a(I85
I21
F-0.5
S'certain'
p1184
tp1185
a(I85
I83
F-0.5
S'certain'
p1186
tp1187
a(I100
I7
I0
S'great'
p1188
tp1189
as(S'days'
p1190
tp1191
(lp1192
(I5
I0
F0.125
g113
tp1193
a(I5
I1
I0
S'later'
p1194
tp1195
a(I45
I1
I0
S'few'
p1196
tp1197
a(I85
I9
F0.875
g1021
tp1198
as(S'china'
p1199
tp1200
(lp1201
(I132
I0
F0.375
S'proud'
p1202
tp1203
as.