(dp0
(S'data'
p1
tp2
(lp3
(I3
I11
F0.625
S'easy'
p4
I13
tp5
a(I8
I18
I0
S'quick'
p6
I13
tp7
a(I11
I19
F1.0
S'good'
p8
I13
tp9
a(I15
I15
F0.125
S'capable'
p10
I13
tp11
a(I26
I17
I0
S'great'
p12
I13
tp13
a(I26
I17
I0
S'stable'
p14
I13
tp15
as(S'simcard'
p16
S'slot'
p17
tp18
(lp19
(I7
I16
I0
S'standard'
p20
I0
tp21
as(S'samsung'
p22
S'galaxy'
p23
S'tab'
p24
tp25
(lp26
(I7
I0
I0
S'galaxy'
p27
I0
tp28
a(I14
I4
F1.0
S'best'
p29
I0
tp30
a(I15
I44
I0
S'more'
p31
I0
tp32
a(I7
I0
I0
g27
I0
tp33
a(I14
I4
F1.0
g29
I0
tp34
a(I15
I44
I0
g31
I0
tp35
a(I6
I0
F-0.625
S'other'
p36
I7
tp37
a(I7
I19
F0.125
S'first'
p38
I7
tp39
a(I11
I27
F0.5
S'second'
p40
I7
tp41
a(I20
I6
I-100
S'previousy'
p42
I7
tp43
a(I20
I6
F1.0
S'good'
p44
I7
tp45
a(I20
I10
I0
S'seller'
p46
I7
tp47
a(I26
I2
F1.0
S'best'
p48
I7
tp49
a(I28
I6
I-100
S'recomended'
p50
I7
tp51
as(S'pocket'
p52
tp53
(lp54
(I7
I9
I0
S'normal'
p55
I17
tp56
a(I27
I41
F0.75
S'fit'
p57
I17
tp58
as(S'flash'
p59
tp60
(lp61
(I5
I3
I0
S'non-issue'
p62
I2
tp63
a(I7
I6
F0.125
S'tablet'
p64
I2
tp65
a(I26
I25
F1.0
S'good'
p66
I2
tp67
as(S'tablet'
p68
tp69
(lp70
(I0
I0
F0.125
S'last'
p71
I14
tp72
a(I0
I0
F1.0
S'good'
p73
I14
tp74
a(I0
I0
F1.0
S'good'
p75
I14
tp76
a(I0
I0
F0.375
S'new'
p77
I14
tp78
a(I3
I7
F0.625
S'easy'
p79
I14
tp80
a(I3
I11
I-100
S'*doest'
p81
I14
tp82
a(I8
I20
F0.875
S'happy'
p83
I14
tp84
a(I11
I2
I0
S'useful'
p85
I14
tp86
a(I11
I18
F0.625
S'perfect'
p87
I14
tp88
a(I11
I27
F0.125
S'first'
p89
I14
tp90
a(I14
I0
I0
S'particular'
p91
I14
tp92
a(I14
I30
F0.125
S'first'
p93
I14
tp94
a(I16
I3
I0
S'great'
p95
I14
tp96
a(I20
I0
F1.0
S'best'
p97
I14
tp98
a(I21
I1
F0.125
S'usual'
p99
I14
tp100
as(S'sim'
p101
S'card'
p102
tp103
(lp104
(I7
I17
I0
S'inside'
p105
I0
tp106
a(I16
I2
I0
S'standard'
p107
I0
tp108
a(I28
I5
I0
S'great'
p109
I0
tp110
as(S'wifi'
p111
tp112
(lp113
(I3
I23
I0
S'great'
p114
I0
tp115
a(I27
I35
I0
S'dependant'
p116
I0
tp117
as(S'el'
p118
S'tama'
p119
tp120
(lp121
(I15
I64
I0
S'y'
p122
I0
tp123
as(S'nice'
p124
S'nice'
p125
S'nice'
p126
tp127
(lp128
(I17
I0
F0.875
S'nice'
p129
I0
tp130
a(I17
I0
F0.875
S'nice'
p131
I0
tp132
a(I17
I0
F0.875
g129
I0
tp133
a(I17
I0
F0.875
g131
I0
tp134
as(S'excellent'
p135
S'product'
p136
tp137
(lp138
(I22
I0
F1.0
S'good'
p139
I8
tp140
as.