(dp0
(S'seller'
p1
tp2
(lp3
(I5
I5
I0
S'same'
p4
I19
tp5
a(I8
I10
I0
S'great'
p6
I19
tp7
a(I13
I3
I0
S'more'
p8
I19
tp9
a(I23
I2
F0.5
S'told'
p10
I19
tp11
as(S'iphone'
p12
tp13
(lp14
(I1
I4
F0.375
S'new'
p15
I1
tp16
a(I8
I2
I0
S'own'
p17
I1
tp18
a(I8
I2
F-0.5
S'power'
p19
I1
tp20
a(I8
I9
F1.0
S'good'
p21
I1
tp22
a(I8
I9
F0.375
S'new'
p23
I1
tp24
a(I16
I1
I0
S'earliest'
p25
I1
tp26
a(I25
I0
F-0.5
S'sure'
p27
I1
tp28
as(S'straight'
p29
S'talk'
p30
tp31
(lp32
(I8
I17
F-0.5
S'relative'
p33
I0
tp34
a(I11
I7
F0.625
S'straight'
p35
I0
tp36
as(S'battery'
p37
S'life'
p38
tp39
(lp40
(I11
I1
I0
S'great'
p41
I1
tp42
a(I13
I4
F-0.625
S'bad'
p43
I15
tp44
a(I15
I14
I0
S'charged'
p45
I15
tp46
a(I15
I14
F0.125
S'last'
p47
I15
tp48
as(S'data'
p49
tp50
(lp51
(I22
I11
I0
S'cable'
p52
I13
tp53
as(S'white'
p54
S'screen'
p55
tp56
(lp57
(I0
I5
F-0.25
S'white'
p58
I0
tp59
a(I0
I21
F-0.25
S'white'
p60
I0
tp61
as(S't'
p62
S'store'
p63
tp64
(lp65
(I25
I6
I0
S'fast'
p66
I11
tp67
a(I25
I6
F-0.375
S'simple'
p68
I11
tp69
as(S'service'
p70
tp71
(lp72
(I28
I27
I0
S'great'
p73
I16
tp74
as(S'sim'
p75
S'card'
p76
tp77
(lp78
(I5
I17
F0.125
S'able'
p79
I0
tp80
a(I16
I4
F0.125
S'able'
p81
I0
tp82
as(S'factory'
p83
tp84
(lp85
(I19
I1
I0
S'great'
p86
I2
tp87
a(I25
I5
F-0.5
S'sure'
p88
I2
tp89
as(S'apple'
p90
S'id'
p91
tp92
(lp93
(I4
I1
I0
S'anymore'
p94
I0
tp95
a(I4
I1
I0
g94
I4
tp96
as.