(dp0
(S'home'
p1
S'button'
p2
tp3
(lp4
(I12
I7
F0.625
S'straight'
p5
I0
tp6
a(I19
I49
F-0.75
S'single'
p7
I0
tp8
as(S'battery'
p9
S'life'
p10
tp11
(lp12
(I12
I36
F1.0
S'better'
p13
I1
tp14
a(I19
I16
F1.0
S'good'
p15
I1
tp16
a(I37
I6
F-0.625
S'bad'
p17
I1
tp18
a(I41
I21
F1.0
S'good'
p19
I1
tp20
a(I12
I36
F1.0
g13
I15
tp21
a(I12
I37
F0.375
S'new'
p22
I15
tp23
a(I18
I9
F-0.625
S'bad'
p24
I15
tp25
a(I22
I7
F-0.5
S'weak'
p26
I15
tp27
a(I22
I22
F0.375
S'new'
p28
I15
tp29
a(I37
I15
F0.375
S'extended'
p30
I15
tp31
a(I39
I6
F0.125
S'last'
p32
I15
tp33
a(I44
I0
I0
S'generic'
p34
I15
tp35
a(I44
I18
F0.125
S'last'
p36
I15
tp37
a(I44
I19
F0.125
S'last'
p38
I15
tp39
a(I45
I1
I0
S'generic'
p40
I15
tp41
as(S'sim'
p42
S'card'
p43
tp44
(lp45
(I12
I27
F-0.5
S'regular'
p46
I0
tp47
a(I13
I1
F0.125
S'able'
p48
I0
tp49
a(I13
I3
F0.375
S'new'
p50
I0
tp51
a(I18
I6
F0.125
S'able'
p52
I0
tp53
a(I19
I44
I0
S'local'
p54
I0
tp55
a(I26
I10
I0
S'great'
p56
I0
tp57
a(I26
I10
F-0.25
S'ready'
p58
I0
tp59
a(I28
I13
I0
S'blue'
p60
I0
tp61
a(I37
I20
F-0.375
S'simple'
p62
I0
tp63
a(I40
I1
F0.375
S'new'
p64
I0
tp65
a(I45
I13
F1.0
S'good'
p66
I0
tp67
as(S'service'
p68
S'provider'
p69
tp70
(lp71
(I22
I12
F-0.75
S'damaged'
p72
I0
tp73
a(I22
I12
I0
S'website'
p74
I0
tp75
a(I39
I20
I0
S'more'
p76
I16
tp77
as(S'accessories'
p78
tp79
(lp80
(I18
I15
F-0.5
S'long'
p81
I5
tp82
a(I22
I31
I0
S'few'
p83
I5
tp84
a(I37
I5
I0
S'questionable'
p85
I5
tp86
as(S'water'
p87
S'damage'
p88
tp89
(lp90
(I39
I8
F-0.25
S'white'
p91
I0
tp92
a(I39
I9
F0.75
S'due'
p93
I0
tp94
as(S'iphone'
p95
tp96
(lp97
(I19
I111
F0.625
S'convenient'
p98
I1
tp99
as(S'straight'
p100
S'talk'
p101
tp102
(lp103
(I22
I37
F0.625
S'straight'
p104
I0
tp105
a(I33
I10
I0
S'great'
p106
I0
tp107
a(I38
I1
F0.125
S'able'
p108
I0
tp109
a(I22
I37
F0.625
g104
I13
tp110
as(S'packaging'
p111
tp112
(lp113
(I12
I5
I0
S'retail'
p114
I9
tp115
a(I12
I56
I0
S'plastic'
p116
I9
tp117
a(I22
I16
I0
S'carrier'
p118
I9
tp119
a(I22
I35
F0.25
S'original'
p120
I9
tp121
a(I37
I5
F0.25
S'original'
p122
I9
tp123
a(I41
I0
I0
S'full'
p124
I9
tp125
as(S'seller'
p126
tp127
(lp128
(I41
I20
I0
S'great'
p129
I19
tp130
as(S'samsung'
p131
S'galaxy'
p132
tp133
(lp134
(I12
I40
F0.25
S'original'
p135
I0
tp136
a(I37
I4
F0.375
S'new'
p137
I0
tp138
a(I6
I6
F0.375
S'new'
p139
I7
tp140
a(I12
I40
F0.25
g135
I7
tp141
a(I19
I102
I0
S'representative'
p142
I7
tp143
a(I19
I106
F0.125
S'first'
p144
I7
tp145
a(I19
I106
F0.125
S'last'
p146
I7
tp147
a(I22
I19
F-0.636
S'genuine'
p148
I7
tp149
a(I28
I28
F0.25
S'original'
p150
I7
tp151
a(I28
I28
F0.375
S'new'
p152
I7
tp153
a(I33
I3
I0
S'such'
p154
I7
tp155
a(I33
I12
F0.25
S'original'
p156
I7
tp157
a(I37
I4
F0.375
g137
I7
tp158
a(I12
I6
F0.375
S'new'
p159
I0
tp160
a(I12
I9
I0
S'next'
p161
I0
tp162
a(I12
I36
F0.5
S'odd'
p163
I0
tp164
a(I12
I36
F0.375
S'new'
p165
I0
tp166
a(I12
I36
I0
S'old'
p167
I0
tp168
a(I24
I8
F0.375
S'new'
p169
I0
tp170
as(S'great'
p171
S'product'
p172
tp173
(lp174
(I22
I45
I0
S'great'
p175
I15
tp176
a(I24
I2
I0
S'great'
p177
I15
tp178
a(I24
I9
I0
S'great'
p179
I15
tp180
a(I41
I22
I0
S'great'
p181
I15
tp182
as(S'warranty'
p183
tp184
(lp185
(I44
I17
I0
S'apple'
p186
I2
tp187
a(I44
I17
F-0.5
S'less'
p188
I2
tp189
as(S'galaxy'
p190
S's3'
p191
tp192
(lp193
(I12
I6
F0.375
g159
I0
tp194
a(I12
I9
I0
g161
I0
tp195
a(I12
I36
F0.5
g163
I0
tp196
a(I12
I36
F0.375
g165
I0
tp197
a(I12
I36
I0
g167
I0
tp198
a(I19
I122
F-0.25
S'white'
p199
I0
tp200
a(I19
I122
I0
S'blue'
p201
I0
tp202
as(S'customer'
p203
S'service'
p204
tp205
(lp206
(I33
I7
F0.375
S'appreciate'
p207
I3
tp208
a(I33
I7
F1.0
S'good'
p209
I3
tp210
a(I33
I7
F0.375
g207
I11
tp211
a(I33
I7
F1.0
g209
I11
tp212
a(I45
I8
F0.875
S'happy'
p213
I11
tp214
as(S'headphones'
p215
tp216
(lp217
(I14
I7
F-0.375
S'manual'
p218
I0
tp219
a(I44
I5
F0.25
S'suppose'
p220
I0
tp221
as(S's'
p222
S'iii'
p223
tp224
(lp225
(I20
I2
F0.125
S'last'
p226
I0
tp227
as(S'apps'
p228
tp229
(lp230
(I3
I2
I0
S'great'
p231
I0
tp232
a(I12
I16
I0
S'unbelievable'
p233
I0
tp234
a(I12
I73
I0
S'specific'
p235
I0
tp236
a(I19
I53
I0
S'many'
p237
I0
tp238
a(I19
I109
F0.5
S'personal'
p239
I0
tp240
a(I38
I2
F0.375
S'similar'
p241
I0
tp242
as(S'amazon'
p243
tp244
(lp245
(I14
I1
I0
S'general'
p246
I13
tp247
a(I31
I0
I0
S'great'
p248
I13
tp249
a(I39
I15
I0
S'more'
p250
I13
tp251
a(I41
I36
F1.0
S'good'
p252
I13
tp253
as.