(dp0
(S'screen'
p1
S'size'
p2
tp3
(lp4
(I0
I207
F0.625
S'perfect'
p5
I3
tp6
a(I4
I2
F0.25
S'responsive'
p7
I3
tp8
a(I4
I2
F0.875
S'nice'
p9
I3
tp10
a(I4
I12
F0.25
S'effective'
p11
I3
tp12
a(I26
I33
F0.875
S'nice'
p13
I3
tp14
as(S'keyboard'
p15
tp16
(lp17
(I4
I11
I0
S'faster'
p18
I2
tp19
a(I4
I11
I0
S'physical'
p20
I2
tp21
a(I9
I11
F-0.875
S'hard'
p22
I2
tp23
a(I18
I10
F0.625
S'easy'
p24
I2
tp25
a(I19
I22
F0.125
S'native'
p26
I2
tp27
a(I19
I25
F1.0
S'better'
p28
I2
tp29
a(I29
I13
I0
S'great'
p30
I2
tp31
a(I34
I58
F-0.375
S'daily'
p32
I2
tp33
a(I34
I58
F-0.75
S'difficult'
p34
I2
tp35
a(I40
I92
F0.25
S'responsive'
p36
I2
tp37
a(I40
I92
F0.625
S'easy'
p38
I2
tp39
as(S'text'
p40
tp41
(lp42
(I15
I8
F0.75
S'receive'
p43
I18
tp44
a(I35
I43
F-0.5
S'unlimited'
p45
I18
tp46
a(I40
I66
F-0.875
S'hard'
p47
I18
tp48
as(S'first'
p49
S'smart'
p50
tp51
(lp52
(I5
I0
F0.125
S'first'
p53
I0
tp54
a(I13
I30
F0.125
S'first'
p55
I0
tp56
a(I14
I26
F0.125
S'first'
p57
I0
tp58
a(I18
I0
F0.125
S'first'
p59
I0
tp60
a(I18
I19
F0.125
S'first'
p61
I0
tp62
a(I22
I29
F0.625
S'fair'
p63
I0
tp64
a(I22
I29
F0.125
S'first'
p65
I0
tp66
a(I26
I31
F0.125
S'first'
p67
I0
tp68
a(I40
I43
F0.125
S'first'
p69
I0
tp70
a(I40
I82
F0.125
S'first'
p71
I0
tp72
a(I43
I0
F0.125
S'first'
p73
I0
tp74
a(I0
I149
F1.0
S'good'
p75
I10
tp76
a(I5
I0
F0.125
g53
I10
tp77
a(I5
I3
I0
S'basic'
p78
I10
tp79
a(I9
I6
I0
S'needed'
p80
I10
tp81
a(I9
I28
I0
S'most'
p82
I10
tp83
a(I13
I30
F0.125
g55
I10
tp84
a(I14
I26
F0.125
g57
I10
tp85
a(I18
I0
F0.125
g59
I10
tp86
a(I18
I19
F0.125
g61
I10
tp87
a(I22
I29
F0.625
g63
I10
tp88
a(I22
I29
F0.125
g65
I10
tp89
a(I26
I31
F0.125
g67
I10
tp90
a(I28
I28
F-0.625
S'other'
p91
I10
tp92
a(I40
I43
F0.125
g69
I10
tp93
a(I40
I82
F0.125
g71
I10
tp94
a(I43
I0
F0.125
g73
I10
tp95
as(S'games'
p96
tp97
(lp98
(I3
I48
I0
S'sensitive'
p99
I19
tp100
a(I19
I86
F0.625
S'kind'
p101
I19
tp102
a(I19
I86
F-0.75
S'difficult'
p103
I19
tp104
a(I19
I86
F-0.375
S'small'
p105
I19
tp106
a(I19
I86
I0
S'many'
p107
I19
tp108
a(I19
I86
F-0.625
S'other'
p109
I19
tp110
a(I28
I4
I-100
S'arcade-style'
p111
I19
tp112
a(I29
I83
F-0.75
S'unresponsive'
p113
I19
tp114
a(I29
I95
F0.875
S'nice'
p115
I19
tp116
a(I29
I95
F0.125
S'able'
p117
I19
tp118
a(I29
I95
F-0.5
S'certain'
p119
I19
tp120
a(I35
I71
I0
S'most'
p121
I19
tp122
a(I41
I104
I0
S'great'
p123
I19
tp124
a(I41
I121
I0
S'most'
p125
I19
tp126
as(S'iphone'
p127
tp128
(lp129
(I0
I0
F0.75
S'due'
p130
I1
tp131
a(I3
I35
F-0.5
S'less'
p132
I1
tp133
a(I3
I35
F0.125
S'capable'
p134
I1
tp135
a(I14
I41
F0.5
S'expensive'
p136
I1
tp137
a(I22
I29
F0.375
S'new'
p138
I1
tp139
a(I24
I6
I0
S'crisp'
p140
I1
tp141
a(I24
I6
F0.25
S'sharp'
p142
I1
tp143
a(I28
I53
F0.875
S'nice'
p144
I1
tp145
a(I33
I14
F0.375
S'newer'
p146
I1
tp147
as(S'lg'
p148
S'optimus'
p149
S'v'
p150
tp151
(lp152
(I7
I23
F0.25
S'elite'
p153
I0
tp154
a(I14
I41
F-0.125
S'mine'
p155
I0
tp156
a(I26
I17
F-0.375
S'black'
p157
I0
tp158
a(I37
I11
F0.875
S'happy'
p159
I0
tp160
a(I7
I23
F0.25
g153
I0
tp161
a(I14
I41
F-0.125
g155
I0
tp162
a(I26
I17
F-0.375
g157
I0
tp163
a(I26
I22
F0.5
S'second'
p164
I0
tp165
a(I29
I40
I0
S'closing'
p166
I0
tp167
a(I37
I11
F0.875
g159
I0
tp168
as(S'optimus'
p169
S'elite'
p170
tp171
(lp172
(I6
I77
I0
S'such'
p173
I0
tp174
a(I19
I25
I0
S'standard'
p175
I0
tp176
a(I35
I0
I0
S'decided'
p177
I0
tp178
a(I39
I12
F0.875
S'nice'
p179
I0
tp180
a(I40
I71
F0.875
S'nice'
p181
I0
tp182
a(I40
I88
I0
S'same'
p183
I0
tp184
a(I40
I92
I0
S'great'
p185
I0
tp186
a(I41
I64
F1.0
S'better'
p187
I0
tp188
a(I42
I2
I0
S'stable'
p189
I0
tp190
a(I42
I3
F0.375
S'new'
p191
I0
tp192
a(I43
I9
F0.375
S'allow'
p193
I0
tp194
a(I6
I77
I0
g173
I0
tp195
a(I19
I25
I0
g175
I0
tp196
a(I39
I12
F0.875
g179
I0
tp197
a(I40
I71
F0.875
g181
I0
tp198
a(I40
I92
I0
g185
I0
tp199
a(I42
I2
I0
g189
I0
tp200
a(I43
I52
I0
S'more'
p201
I0
tp202
as(S'front'
p203
S'facing'
p204
S'camera'
p205
tp206
(lp207
(I29
I39
F0.25
S'sweet'
p208
I0
tp209
a(I41
I26
F-0.125
S'front'
p210
I0
tp211
a(I41
I26
F0.125
S'able'
p212
I0
tp213
a(I41
I124
F-0.5
S'miss'
p214
I0
tp215
a(I6
I83
F0.5
S'compatible'
p216
I1
tp217
a(I14
I22
F0.875
S'nice'
p218
I1
tp219
a(I18
I10
F-0.625
S'bad'
p220
I1
tp221
a(I28
I7
F-0.625
S'clean'
p222
I1
tp223
a(I28
I71
F1.0
S'good'
p224
I1
tp225
a(I29
I39
F0.25
g208
I1
tp226
a(I29
I91
F0.875
S'happy'
p227
I1
tp228
a(I29
I91
F1.0
S'love'
p229
I1
tp230
a(I33
I18
F-0.75
S'stupid'
p231
I1
tp232
a(I33
I47
F1.0
S'good'
p233
I1
tp234
a(I37
I24
I0
S'great'
p235
I1
tp236
a(I40
I98
F-0.125
S'overall'
p237
I1
tp238
a(I41
I26
F0.125
g212
I1
tp239
a(I41
I124
F-0.5
g214
I1
tp240
as(S'internet'
p241
tp242
(lp243
(I0
I32
F-0.625
S'free'
p244
I6
tp245
a(I0
I79
F1.0
S'good'
p246
I6
tp247
a(I19
I84
F-0.5
S'sure'
p248
I6
tp249
a(I21
I1
F0.625
S'decent'
p250
I6
tp251
a(I34
I71
F-0.25
S'loose'
p252
I6
tp253
a(I37
I14
I0
S'e-mail'
p254
I6
tp255
a(I37
I14
I0
S'more'
p256
I6
tp257
a(I37
I17
F0.625
S'easy'
p258
I6
tp259
a(I40
I46
I0
S'slower'
p260
I6
tp261
as(S'decent'
p262
tp263
(lp264
(I3
I55
F-0.125
S'overall'
p265
I10
tp266
a(I4
I36
F0.375
S'reliable'
p267
I10
tp268
a(I16
I11
F-0.125
S'super'
p269
I10
tp270
a(I16
I11
I0
S'great'
p271
I10
tp272
as(S'twice'
p273
S'a'
p274
S'day'
p275
tp276
(lp277
(I10
I3
I0
S'least'
p278
I0
tp279
as(S'android'
p280
tp281
(lp282
(I0
I122
F0.125
S'first'
p283
I0
tp284
a(I1
I3
F1.0
S'best'
p285
I0
tp286
a(I3
I9
F0.25
S'used'
p287
I0
tp288
a(I6
I44
F0.125
S'first'
p289
I0
tp290
a(I6
I59
F-0.875
S'worst'
p291
I0
tp292
a(I12
I0
F1.0
S'best'
p293
I0
tp294
a(I12
I3
F0.625
S'decent'
p295
I0
tp296
a(I13
I7
F1.0
S'better'
p297
I0
tp298
a(I13
I8
I0
S'basic'
p299
I0
tp300
a(I13
I8
I0
S'same'
p301
I0
tp302
a(I13
I8
I0
S'most'
p303
I0
tp304
a(I14
I15
F0.25
S'read'
p305
I0
tp306
a(I14
I15
I0
S'many'
p307
I0
tp308
a(I34
I7
I0
S'big'
p309
I0
tp310
a(I35
I99
F0.375
S'new'
p311
I0
tp312
a(I36
I11
F1.0
S'best'
p313
I0
tp314
as(S'upgrade'
p315
tp316
(lp317
(I6
I68
F0.75
S'definite'
p318
I3
tp319
a(I9
I64
I0
S'great'
p320
I3
tp321
a(I28
I85
F0.875
S'nice'
p322
I3
tp323
a(I40
I25
F0.375
S'early'
p324
I3
tp325
as(S'and'
p326
S'battery'
p327
S'life'
p328
tp329
(lp330
(I11
I1
F-0.5
S'long'
p331
I1
tp332
a(I22
I20
I0
S'great'
p333
I1
tp334
a(I26
I84
F-0.625
S'average'
p335
I1
tp336
a(I26
I92
I0
S'great'
p337
I1
tp338
a(I29
I26
I0
S'fast'
p339
I1
tp340
a(I41
I130
I0
S'great'
p341
I1
tp342
a(I2
I18
F1.0
S'good'
p343
I1
tp344
a(I5
I37
F-0.125
S'overall'
p345
I1
tp346
a(I9
I48
F-0.75
S'short'
p347
I1
tp348
a(I11
I1
F-0.5
g331
I1
tp349
a(I14
I18
F-0.5
S'poor'
p350
I1
tp351
a(I14
I27
F-0.75
S'short'
p352
I1
tp353
a(I22
I20
I0
g333
I1
tp354
a(I26
I84
F-0.625
g335
I1
tp355
a(I26
I92
I0
g337
I1
tp356
a(I29
I26
I0
g339
I1
tp357
a(I29
I63
F1.0
S'good'
p358
I1
tp359
a(I29
I88
F-0.375
S'double'
p360
I1
tp361
a(I39
I35
I0
S'overnight'
p362
I1
tp363
a(I41
I130
I0
g341
I1
tp364
a(I44
I50
F-0.625
S'average'
p365
I1
tp366
a(I44
I57
F-0.5
S'poor'
p367
I1
tp368
a(I2
I18
F1.0
g343
I19
tp369
a(I5
I37
F-0.125
g345
I19
tp370
a(I9
I48
F-0.75
g347
I19
tp371
a(I11
I1
F-0.5
g331
I19
tp372
a(I22
I20
I0
g333
I19
tp373
a(I26
I84
F-0.625
g335
I19
tp374
a(I29
I26
I0
g339
I19
tp375
a(I39
I16
F-0.75
S'short'
p376
I19
tp377
a(I39
I35
I0
g362
I19
tp378
a(I44
I50
F-0.625
g365
I19
tp379
a(I0
I70
F0.625
S'necessary'
p380
I15
tp381
a(I3
I78
F0.125
S'last'
p382
I15
tp383
a(I4
I27
F-0.75
S'difficult'
p384
I15
tp385
a(I6
I42
F0.25
S'portable'
p386
I15
tp387
a(I6
I58
F0.625
S'easy'
p388
I15
tp389
a(I8
I6
F0.125
S'first'
p390
I15
tp391
a(I9
I3
F-0.375
S'pull'
p392
I15
tp393
a(I9
I41
F0.625
S'easy'
p394
I15
tp395
a(I9
I72
F1.0
S'good'
p396
I15
tp397
a(I9
I72
F-0.25
S'low'
p398
I15
tp399
a(I14
I18
F-0.5
g350
I15
tp400
a(I14
I27
F-0.75
g352
I15
tp401
a(I14
I39
F0.125
S'last'
p402
I15
tp403
a(I15
I18
F-0.625
S'bad'
p404
I15
tp405
a(I19
I2
F0.125
S'last'
p406
I15
tp407
a(I20
I31
F-0.75
S'worse'
p408
I15
tp409
a(I25
I1
F-0.625
S'bad'
p410
I15
tp411
a(I26
I11
F-0.625
S'other'
p412
I15
tp413
a(I26
I11
I0
S'great'
p414
I15
tp415
a(I26
I92
I0
g337
I15
tp416
a(I28
I26
F0.375
S'extended'
p417
I15
tp418
a(I28
I38
F0.125
S'last'
p419
I15
tp420
a(I29
I63
F1.0
g358
I15
tp421
a(I29
I88
F-0.375
g360
I15
tp422
a(I29
I89
F0.375
S'extra'
p423
I15
tp424
a(I34
I30
F0.125
S'last'
p425
I15
tp426
a(I35
I30
F-0.625
S'bad'
p427
I15
tp428
a(I35
I30
F0.375
S'new'
p429
I15
tp430
a(I35
I67
F1.0
S'good'
p431
I15
tp432
a(I35
I84
F-0.625
S'free'
p433
I15
tp434
a(I35
I93
F-0.75
S'little'
p435
I15
tp436
a(I38
I13
I0
S'full'
p437
I15
tp438
a(I40
I56
I0
S'great'
p439
I15
tp440
a(I40
I70
F-0.625
S'average'
p441
I15
tp442
a(I41
I86
I0
S'internal'
p443
I15
tp444
a(I41
I105
F1.0
S'good'
p445
I15
tp446
a(I41
I130
I0
g341
I15
tp447
a(I43
I85
I0
S'physical'
p448
I15
tp449
a(I44
I20
F0.125
S'last'
p450
I15
tp451
a(I44
I57
F-0.5
g367
I15
tp452
a(I44
I58
F-0.75
S'little'
p453
I15
tp454
as(S'calls'
p455
tp456
(lp457
(I0
I95
F-0.5
S'sure'
p458
I0
tp459
a(I6
I61
F-0.75
S'unable'
p460
I0
tp461
a(I18
I11
I0
S'old'
p462
I0
tp463
a(I18
I11
I0
S'fast'
p464
I0
tp465
a(I19
I73
I0
S'many'
p466
I0
tp467
a(I37
I13
F-0.25
S'dropped'
p468
I0
tp469
a(I41
I75
F0.75
S'receive'
p470
I0
tp471
a(I41
I75
F-0.75
S'wrong'
p472
I0
tp473
as(S'amazon'
p474
tp475
(lp476
(I14
I32
F0.625
S'easy'
p477
I13
tp478
a(I28
I44
F-0.25
S'cheaper'
p479
I13
tp480
a(I43
I9
F0.875
S'happy'
p481
I13
tp482
as(S'on'
p483
S'optimus'
p484
g150
tp485
(lp486
(I41
I28
F-0.625
S'steal'
p487
I0
tp488
a(I41
I35
I0
S'old'
p489
I0
tp490
a(I41
I64
F1.0
g187
I0
tp491
a(I41
I85
F0.625
S'acceptable'
p492
I0
tp493
a(I42
I3
F0.375
g191
I0
tp494
a(I0
I213
I0
S'faster'
p495
I0
tp496
a(I38
I5
F0.25
S'used'
p497
I0
tp498
a(I40
I47
F-0.125
S'mine'
p499
I0
tp500
a(I41
I28
F-0.625
g487
I0
tp501
a(I41
I35
I0
g489
I0
tp502
a(I41
I64
F1.0
g187
I0
tp503
a(I41
I85
F0.625
g492
I0
tp504
a(I42
I0
F0.875
S'happy'
p505
I0
tp506
a(I42
I3
F0.375
g191
I0
tp507
a(I0
I213
I0
g495
I0
tp508
a(I35
I0
I0
g177
I0
tp509
a(I38
I5
F0.25
g497
I0
tp510
a(I40
I88
I0
g183
I0
tp511
a(I41
I28
F-0.625
g487
I0
tp512
a(I41
I35
I0
g489
I0
tp513
a(I41
I64
F1.0
g187
I0
tp514
a(I42
I0
F0.875
g505
I0
tp515
a(I42
I3
F0.375
g191
I0
tp516
a(I43
I9
F0.375
g193
I0
tp517
as(S'flash'
p518
S'for'
p519
S'camera'
p520
tp521
(lp522
(I14
I22
F0.875
g218
I0
tp523
a(I19
I79
F1.0
S'good'
p524
I2
tp525
a(I43
I40
F-0.75
S'bright'
p526
I2
tp527
as(S'lot'
p528
S'of'
p529
S'apps'
p530
tp531
(lp532
(I10
I3
I0
S'cool'
p533
I0
tp534
a(I14
I22
F-0.625
S'free'
p535
I0
tp536
a(I0
I59
I0
S'many'
p537
I0
tp538
a(I0
I145
F1.0
S'best'
p539
I0
tp540
a(I0
I146
F0.375
S'available'
p541
I0
tp542
a(I0
I146
F-0.625
S'free'
p543
I0
tp544
a(I0
I208
I0
S'great'
p545
I0
tp546
a(I3
I65
I0
S'most'
p547
I0
tp548
a(I4
I9
I0
S'many'
p549
I0
tp550
a(I4
I9
I0
S'different'
p551
I0
tp552
a(I4
I17
F0.375
S'much'
p553
I0
tp554
a(I4
I17
F0.625
S'easier'
p555
I0
tp556
a(I6
I32
F-0.625
S'other'
p557
I0
tp558
a(I10
I3
I0
g533
I0
tp559
a(I14
I22
F-0.625
g535
I0
tp560
a(I19
I70
F-0.125
S'slow'
p561
I0
tp562
a(I20
I1
I0
S'different'
p563
I0
tp564
a(I22
I5
I0
S'great'
p565
I0
tp566
a(I22
I44
I0
S'many'
p567
I0
tp568
a(I28
I10
F-0.5
S'longer'
p569
I0
tp570
a(I29
I27
F-0.5
S'sure'
p571
I0
tp572
a(I29
I27
I0
S'many'
p573
I0
tp574
a(I29
I51
F0.25
S'favorite'
p575
I0
tp576
a(I29
I62
I0
S'more'
p577
I0
tp578
a(I29
I62
I0
S'most'
p579
I0
tp580
a(I29
I65
I0
S'few'
p581
I0
tp582
a(I29
I65
F-0.625
S'other'
p583
I0
tp584
a(I34
I41
I0
S'closing'
p585
I0
tp586
a(I41
I23
I0
S'useful'
p587
I0
tp588
a(I41
I36
I0
S'few'
p589
I0
tp590
a(I41
I72
I0
S'many'
p591
I0
tp592
a(I43
I63
I0
S'same'
p593
I0
tp594
as(S'data'
p595
tp596
(lp597
(I3
I54
I0
S'great'
p598
I13
tp599
a(I14
I14
F-0.75
S'unreliable'
p600
I13
tp601
a(I14
I16
F-0.5
S'lose'
p602
I13
tp603
a(I14
I22
F-0.75
S'unreliable'
p604
I13
tp605
a(I25
I11
F1.0
S'good'
p606
I13
tp607
a(I26
I101
I0
S'logged'
p608
I13
tp609
a(I26
I109
F-0.125
S'slow'
p610
I13
tp611
a(I35
I95
I0
S'signal'
p612
I13
tp613
a(I43
I71
F-0.625
S'permanent'
p614
I13
tp615
as(S'much'
p616
S'better'
p617
tp618
(lp619
(I13
I25
F0.375
S'much'
p620
I9
tp621
a(I13
I25
F-0.125
S'mine'
p622
I9
tp623
a(I16
I55
F0.375
S'much'
p624
I9
tp625
a(I41
I35
F0.375
S'much'
p626
I9
tp627
a(I41
I82
F0.375
S'much'
p628
I9
tp629
a(I44
I14
F0.375
S'much'
p630
I9
tp631
as(S'micro'
p632
S'sd'
p633
S'card'
p634
tp635
(lp636
(I20
I22
I0
S'real'
p637
I0
tp638
a(I20
I22
I0
g637
I0
tp639
a(I35
I70
F0.875
S'music'
p640
I0
tp641
a(I35
I70
I0
S'such'
p642
I0
tp643
a(I41
I30
F-0.375
S'manual'
p644
I0
tp645
a(I41
I31
I0
S'least'
p646
I0
tp647
as(S'htc'
p648
S'one'
p649
g150
tp650
(lp651
(I41
I82
F1.0
S'good'
p652
I0
tp653
a(I41
I85
F0.625
g492
I0
tp654
a(I41
I85
F0.625
g492
I0
tp655
as(S'for'
p656
S'virgin'
p657
S'mobile'
p658
tp659
(lp660
(I6
I75
F-0.625
S'other'
p661
I0
tp662
a(I14
I10
F-0.625
S'other'
p663
I0
tp664
a(I14
I10
F0.625
S'aware'
p665
I0
tp666
a(I24
I22
F-0.5
S'sure'
p667
I0
tp668
a(I41
I90
I0
S'current'
p669
I0
tp670
a(I44
I55
I0
S'great'
p671
I0
tp672
a(I0
I97
F0.125
S'last'
p673
I0
tp674
a(I0
I97
F-0.5
S'sure'
p675
I0
tp676
a(I6
I75
F-0.625
g661
I0
tp677
a(I14
I10
F-0.625
g663
I0
tp678
a(I14
I10
F0.625
g665
I0
tp679
a(I18
I14
F-0.625
S'free'
p680
I0
tp681
a(I24
I22
F-0.5
g667
I0
tp682
a(I37
I31
I0
S'great'
p683
I0
tp684
a(I41
I43
I0
S'different'
p685
I0
tp686
a(I41
I90
I0
g669
I0
tp687
a(I44
I55
I0
g671
I0
tp688
a(I0
I97
F0.125
g673
I0
tp689
a(I0
I143
F-0.125
S'slow'
p690
I0
tp691
a(I0
I244
F0.625
S'perfect'
p692
I0
tp693
a(I6
I75
F-0.625
g661
I0
tp694
a(I8
I17
I0
S'more'
p695
I0
tp696
a(I14
I10
F-0.625
g663
I0
tp697
a(I17
I2
F-0.625
S'other'
p698
I0
tp699
a(I19
I66
I0
S'website'
p700
I0
tp701
a(I24
I12
F0.375
S'much'
p702
I0
tp703
a(I24
I22
F-0.5
g667
I0
tp704
a(I40
I83
F0.375
S'available'
p705
I0
tp706
a(I41
I43
I0
g685
I0
tp707
a(I41
I90
I0
g669
I0
tp708
a(I44
I55
I0
g671
I0
tp709
a(I0
I23
F0.25
S'used'
p710
I0
tp711
a(I0
I97
F-0.5
g675
I0
tp712
a(I14
I10
F0.625
g665
I0
tp713
a(I18
I14
F-0.625
g680
I0
tp714
a(I37
I31
I0
g683
I0
tp715
as(S'customer'
p716
S'service'
p717
tp718
(lp719
(I2
I9
I0
S'offshore'
p720
I3
tp721
a(I5
I27
F0.375
S'reliable'
p722
I3
tp723
a(I5
I27
F1.0
S'good'
p724
I3
tp725
a(I13
I2
F-0.125
S'slow'
p726
I3
tp727
a(I41
I47
F-0.875
S'awful'
p728
I3
tp729
a(I2
I9
I0
g720
I16
tp730
a(I5
I27
F0.375
g722
I16
tp731
a(I5
I36
F1.0
S'better'
p732
I16
tp733
a(I13
I0
F-0.5
S'unsatisfactory'
p734
I16
tp735
a(I13
I2
F-0.125
g726
I16
tp736
a(I19
I38
I0
S'phenomenal'
p737
I16
tp738
a(I26
I37
F-0.625
S'bad'
p739
I16
tp740
a(I34
I39
I0
S'mobile'
p741
I16
tp742
a(I41
I47
F-0.875
g728
I16
tp743
a(I44
I55
F1.0
S'good'
p744
I16
tp745
as(S'wifi'
p746
tp747
(lp748
(I9
I38
I0
S'more'
p749
I0
tp750
a(I9
I46
I0
S'fast'
p751
I0
tp752
a(I19
I64
F-0.625
S'free'
p753
I0
tp754
a(I26
I60
F0.375
S'new'
p755
I0
tp756
a(I26
I60
I0
S'signal'
p757
I0
tp758
a(I26
I70
F0.875
S'lucky'
p759
I0
tp760
a(I31
I0
F0.625
S'decent'
p761
I0
tp762
a(I35
I94
F-0.25
S'past'
p763
I0
tp764
a(I38
I15
I0
S'quick'
p765
I0
tp766
a(I39
I16
F0.125
S'capable'
p767
I0
tp768
a(I43
I36
F0.5
S'recommended'
p769
I0
tp770
as(S'internal'
p771
S'memory'
p772
tp773
(lp774
(I0
I57
I0
S'internal'
p775
I0
tp776
a(I0
I58
I0
S'internal'
p777
I0
tp778
a(I3
I49
I0
S'internal'
p779
I0
tp780
a(I22
I43
I0
S'more'
p781
I0
tp782
a(I22
I43
I0
S'internal'
p783
I0
tp784
a(I22
I55
I0
S'internal'
p785
I0
tp786
a(I22
I55
F1.0
S'good'
p787
I0
tp788
a(I41
I31
I0
S'weird'
p789
I0
tp790
a(I41
I31
I0
S'internal'
p791
I0
tp792
a(I44
I9
I0
S'internal'
p793
I0
tp794
a(I44
I71
F0.125
S'enough'
p795
I0
tp796
a(I44
I71
I0
S'internal'
p797
I0
tp798
a(I0
I57
I0
g775
I5
tp799
a(I0
I58
I0
g777
I5
tp800
a(I3
I49
I0
g779
I5
tp801
a(I9
I65
I0
S'more'
p802
I5
tp803
a(I20
I20
F-0.625
S'clean'
p804
I5
tp805
a(I22
I43
I0
g781
I5
tp806
a(I22
I43
I0
g783
I5
tp807
a(I22
I55
I0
g785
I5
tp808
a(I22
I55
F1.0
g787
I5
tp809
a(I28
I79
I0
S'more'
p810
I5
tp811
a(I28
I82
F0.25
S'main'
p812
I5
tp813
a(I30
I7
F-0.75
S'comfortable'
p814
I5
tp815
a(I39
I26
I0
S'more'
p816
I5
tp817
a(I39
I26
F0.125
S'enough'
p818
I5
tp819
a(I41
I31
I0
g789
I5
tp820
a(I41
I31
I0
g791
I5
tp821
a(I44
I9
I0
g793
I5
tp822
a(I44
I71
F0.125
g795
I5
tp823
a(I44
I71
I0
g797
I5
tp824
as(g274
S'front'
p825
S'facing'
p826
tp827
(lp828
(I41
I26
F-0.125
g210
I0
tp829
as(S'touch'
p830
S'screen'
p831
tp832
(lp833
(I0
I249
F0.125
S'first'
p834
I2
tp835
a(I3
I48
F-0.5
S'poor'
p836
I2
tp837
a(I14
I21
F0.25
S'responsive'
p838
I2
tp839
a(I22
I6
F0.875
S'nice'
p840
I2
tp841
a(I22
I6
F0.25
S'responsive'
p842
I2
tp843
a(I26
I46
F0.5
S'touch'
p844
I2
tp845
a(I26
I53
F0.5
S'touch'
p846
I2
tp847
a(I35
I3
F0.5
S'touch'
p848
I2
tp849
a(I39
I8
F0.625
S'easy'
p850
I2
tp851
as.