(dp0
(S'screen'
p1
S'size'
p2
tp3
(lp4
(I23
I36
F0.875
S'nice'
p5
I3
tp6
a(I25
I105
F0.25
S'larger'
p7
I3
tp8
a(I39
I53
F0.25
S'bigger'
p9
I3
tp10
a(I45
I5
F0.75
S'due'
p11
I3
tp12
a(I64
I11
F0.625
S'perfect'
p13
I3
tp14
a(I73
I18
F-0.625
S'light'
p15
I3
tp16
a(I77
I10
I0
S'great'
p17
I3
tp18
a(I77
I10
F0.625
S'perfect'
p19
I3
tp20
a(I82
I54
F-0.375
S'smaller'
p21
I3
tp22
a(I89
I11
F-0.5
S'sure'
p23
I3
tp24
a(I89
I11
F0.25
S'larger'
p25
I3
tp26
as(S'mobile'
p27
tp28
(lp29
(I65
I9
F1.0
S'best'
p30
I0
tp31
as(S'battery'
p32
S'life'
p33
tp34
(lp35
(I5
I95
I0
S'more'
p36
I1
tp37
a(I5
I96
I0
S'great'
p38
I1
tp39
a(I8
I0
F1.0
S'good'
p40
I1
tp41
a(I10
I3
I0
S'great'
p42
I1
tp43
a(I14
I13
F0.375
S'much'
p44
I1
tp45
a(I15
I12
F0.125
S'last'
p46
I1
tp47
a(I15
I12
I0
S'least'
p48
I1
tp49
a(I25
I22
F0.375
S'new'
p50
I1
tp51
a(I27
I22
F0.125
S'last'
p52
I1
tp53
a(I39
I16
F0.5
S'so-so'
p54
I1
tp55
a(I41
I34
F-0.5
S'poor'
p56
I1
tp57
a(I41
I40
I0
S'great'
p58
I1
tp59
a(I47
I2
F-0.5
S'long'
p60
I1
tp61
a(I50
I0
F1.0
S'good'
p62
I1
tp63
a(I57
I66
I0
S'incredible'
p64
I1
tp65
a(I66
I36
F1.0
S'good'
p66
I1
tp67
a(I67
I32
F0.25
S'sharp'
p68
I1
tp69
a(I67
I32
F0.625
S'removable'
p70
I1
tp71
a(I70
I24
F1.0
S'good'
p72
I1
tp73
a(I89
I54
F-0.5
S'poor'
p74
I1
tp75
a(I89
I55
F-0.5
S'poor'
p76
I1
tp77
a(I91
I13
I0
S'more'
p78
I1
tp79
a(I5
I96
I0
g38
I19
tp80
a(I8
I0
F1.0
g40
I19
tp81
a(I10
I3
I0
g42
I19
tp82
a(I14
I13
F0.375
g44
I19
tp83
a(I27
I22
F0.125
g52
I19
tp84
a(I66
I36
F1.0
g66
I19
tp85
a(I67
I32
F0.25
g68
I19
tp86
a(I70
I24
F1.0
g72
I19
tp87
a(I89
I54
F-0.5
g74
I19
tp88
a(I5
I65
F-0.5
S'long'
p89
I15
tp90
a(I5
I67
F-0.25
S'low'
p91
I15
tp92
a(I5
I68
F-0.25
S'low'
p93
I15
tp94
a(I5
I95
I0
g36
I15
tp95
a(I6
I32
F0.625
S'replaceable'
p96
I15
tp97
a(I7
I62
F0.25
S'bigger'
p98
I15
tp99
a(I9
I2
F0.125
S'last'
p100
I15
tp101
a(I13
I9
I0
S'fast'
p102
I15
tp103
a(I15
I12
F0.125
g46
I15
tp104
a(I15
I12
I0
g48
I15
tp105
a(I23
I107
F0.375
S'new'
p106
I15
tp107
a(I25
I22
F0.375
g50
I15
tp108
a(I25
I28
F0.375
S'extended'
p109
I15
tp110
a(I25
I29
F0.375
S'extended'
p111
I15
tp112
a(I25
I57
F-0.875
S'insufficient'
p113
I15
tp114
a(I25
I62
I0
S'own'
p115
I15
tp116
a(I27
I27
F-0.625
S'bad'
p117
I15
tp118
a(I30
I34
F0.375
S'extended'
p119
I15
tp120
a(I36
I29
F0.625
S'easy'
p121
I15
tp122
a(I39
I16
F0.5
g54
I15
tp123
a(I41
I34
F-0.5
g56
I15
tp124
a(I41
I36
F-0.75
S'short'
p125
I15
tp126
a(I41
I40
I0
g58
I15
tp127
a(I43
I29
F0.125
S'charger'
p128
I15
tp129
a(I45
I33
F0.625
S'easy'
p130
I15
tp131
a(I45
I33
F-0.625
S'clean'
p132
I15
tp133
a(I45
I33
F0.625
S'removable'
p134
I15
tp135
a(I47
I2
F-0.5
g60
I15
tp136
a(I50
I0
F1.0
g62
I15
tp137
a(I57
I63
F0.625
S'removable'
p138
I15
tp139
a(I57
I64
F0.375
S'new'
p140
I15
tp141
a(I57
I66
I0
g64
I15
tp142
a(I57
I67
I0
S'big'
p143
I15
tp144
a(I57
I68
F0.125
S'last'
p145
I15
tp146
a(I57
I165
I0
S'hot'
p147
I15
tp148
a(I57
I166
F0.375
S'new'
p149
I15
tp150
a(I57
I167
F0.375
S'new'
p151
I15
tp152
a(I64
I2
I0
S'cool'
p153
I15
tp154
a(I67
I32
F0.625
g70
I15
tp155
a(I73
I12
F0.125
S'last'
p156
I15
tp157
a(I73
I50
F-0.625
S'bad'
p158
I15
tp159
a(I75
I22
F-0.75
S'wrong'
p160
I15
tp161
a(I82
I38
F0.625
S'removable'
p162
I15
tp163
a(I89
I4
F0.375
S'extended'
p164
I15
tp165
a(I89
I21
F0.125
S'enough'
p166
I15
tp167
a(I89
I55
F-0.5
g76
I15
tp168
a(I91
I13
I0
g78
I15
tp169
a(I91
I14
F0.625
S'replaceable'
p170
I15
tp171
a(I101
I22
F-0.625
S'light'
p172
I15
tp173
as(S'to'
p174
S'galaxy'
p175
S's3'
p176
tp177
(lp178
(I5
I93
F-0.25
S'white'
p179
I0
tp180
a(I5
I93
I0
S'great'
p181
I0
tp182
a(I6
I36
F0.375
S'new'
p183
I0
tp184
a(I6
I36
F0.25
S'unlocked'
p185
I0
tp186
a(I6
I36
I0
S'few'
p187
I0
tp188
a(I23
I63
F-0.625
S'other'
p189
I0
tp190
a(I23
I76
F-0.125
S'complex'
p191
I0
tp192
a(I25
I68
F-0.625
S'other'
p193
I0
tp194
a(I57
I97
F1.0
S'better'
p195
I0
tp196
a(I89
I62
F-0.375
S'black'
p197
I0
tp198
a(I89
I62
F-0.25
S'white'
p199
I0
tp200
a(I89
I62
F0.875
S'nice'
p201
I0
tp202
a(I101
I12
F0.5
S'expensive'
p203
I0
tp204
a(I5
I93
F-0.25
g179
I0
tp205
a(I5
I93
I0
g181
I0
tp206
a(I6
I36
F0.375
g183
I0
tp207
a(I6
I36
F0.25
g185
I0
tp208
a(I6
I36
I0
g187
I0
tp209
a(I23
I35
F1.0
S'good'
p210
I0
tp211
a(I23
I63
F-0.625
g189
I0
tp212
a(I23
I76
F-0.125
g191
I0
tp213
a(I25
I68
F-0.625
g193
I0
tp214
a(I25
I97
F0.375
S'new'
p215
I0
tp216
a(I47
I6
F0.125
S'last'
p217
I0
tp218
a(I55
I1
I0
S'pebble'
p219
I0
tp220
a(I55
I1
I0
S'blue'
p221
I0
tp222
a(I57
I38
I0
S'big'
p223
I0
tp224
a(I57
I78
I0
S'blue'
p225
I0
tp226
a(I57
I97
F1.0
g195
I0
tp227
a(I73
I12
I0
S'faster'
p228
I0
tp229
a(I75
I23
F1.0
S'good'
p230
I0
tp231
a(I89
I62
F-0.375
g197
I0
tp232
a(I89
I62
F-0.25
g199
I0
tp233
a(I89
I62
F0.875
g201
I0
tp234
a(I98
I11
F-0.125
S'overall'
p235
I0
tp236
a(I101
I12
F0.5
g203
I0
tp237
a(I3
I8
F-0.5
S'sure'
p238
I0
tp239
a(I3
I8
I0
S'next'
p240
I0
tp241
a(I7
I12
F0.125
S'last'
p242
I0
tp243
a(I25
I68
F-0.625
g193
I0
tp244
a(I39
I10
I0
S'curious'
p245
I0
tp246
a(I39
I10
F0.375
S'new'
p247
I0
tp248
a(I41
I28
I0
S'old'
p249
I0
tp250
a(I55
I2
I0
S'own'
p251
I0
tp252
a(I73
I12
I0
g228
I0
tp253
a(I82
I108
F-0.5
S'less'
p254
I0
tp255
a(I89
I62
F-0.375
g197
I0
tp256
a(I91
I36
F0.125
S'first'
p257
I0
tp258
a(I96
I15
F0.625
S'aware'
p259
I0
tp260
a(I98
I11
F-0.125
g235
I0
tp261
a(I101
I12
F0.5
g203
I0
tp262
as(S'operating'
p263
S'system'
p264
tp265
(lp266
(I5
I51
F0.375
S'new'
p267
I2
tp268
a(I25
I104
I0
S'mobile'
p269
I2
tp270
a(I25
I114
I0
S'android'
p271
I2
tp272
a(I77
I2
F-0.375
S'smooth'
p273
I2
tp274
a(I77
I2
F0.875
S'nice'
p275
I2
tp276
a(I89
I13
I0
S'update'
p277
I2
tp278
a(I89
I13
F-0.125
S'bean'
p279
I2
tp280
as(S'iphone'
p281
tp282
(lp283
(I5
I93
I0
S'own'
p284
I1
tp285
a(I7
I22
F0.125
S'dearest'
p286
I1
tp287
a(I7
I70
I0
S'own'
p288
I1
tp289
a(I11
I47
F0.375
S'interesting'
p290
I1
tp291
a(I25
I115
F0.625
S'sophisticated'
p292
I1
tp293
a(I32
I5
F1.0
S'better'
p294
I1
tp295
a(I35
I0
I0
S'such'
p296
I1
tp297
a(I36
I28
F-0.125
S'bean'
p298
I1
tp299
a(I36
I28
F-0.625
S'sorry'
p300
I1
tp301
a(I42
I8
F0.875
S'nice'
p302
I1
tp303
a(I44
I1
F-0.375
S'smooth'
p304
I1
tp305
a(I44
I1
F0.75
S'give'
p306
I1
tp307
a(I45
I66
I0
S'latest'
p308
I1
tp309
a(I57
I78
F-0.25
S'white'
p310
I1
tp311
a(I64
I8
F-0.375
S'top'
p312
I1
tp313
a(I75
I20
F-0.625
S'glad'
p314
I1
tp315
a(I79
I17
F-0.5
S'relative'
p316
I1
tp317
a(I84
I2
F1.0
S'better'
p318
I1
tp319
a(I89
I62
F-0.25
S'white'
p320
I1
tp321
a(I100
I4
I0
S'fast'
p322
I1
tp323
as(S'pebble'
p324
S'blue'
p325
tp326
(lp327
(I57
I39
I0
S'pebble'
p328
I0
tp329
as(S'headphone'
p330
S'jack'
p331
tp332
(lp333
(I41
I2
F-0.75
S'dirty'
p334
I0
tp335
a(I41
I3
F-0.625
S'bad'
p336
I0
tp337
as(S'button'
p338
tp339
(lp340
(I5
I21
F-0.375
S'top'
p341
I19
tp342
as(S'apple'
p343
tp344
(lp345
(I25
I63
F-0.75
S'hate'
p346
I4
tp347
a(I25
I103
I0
S'mobile'
p348
I4
tp349
a(I25
I104
I0
S'most'
p350
I4
tp351
a(I64
I16
F0.5
S'thankful'
p352
I4
tp353
a(I84
I2
F1.0
S'better'
p354
I4
tp355
as(S'dual'
p356
S'core'
p357
tp358
(lp359
(I57
I135
F-0.5
S'international'
p360
I0
tp361
as(S'ice'
p362
S'cream'
p363
S'sandwich'
p364
tp365
(lp366
(I57
I80
I0
S'android'
p367
I0
tp368
a(I79
I4
I0
S'latest'
p369
I0
tp370
a(I91
I2
F0.375
S'new'
p371
I0
tp372
a(I57
I80
I0
g367
I2
tp373
a(I79
I4
I0
g369
I2
tp374
a(I91
I2
F0.375
g371
I2
tp375
as(S'seller'
p376
tp377
(lp378
(I35
I17
I0
S'site'
p379
I19
tp380
a(I35
I17
F1.0
S'good'
p381
I19
tp382
a(I41
I10
F0.625
S'responsible'
p383
I19
tp384
a(I57
I172
I0
S'great'
p385
I19
tp386
as(S'android'
p387
tp388
(lp389
(I25
I119
F-0.625
S'other'
p390
I0
tp391
a(I25
I130
F-0.875
S'trouble'
p392
I0
tp393
a(I25
I130
I0
S'even'
p394
I0
tp395
a(I30
I12
I0
S'cool'
p396
I0
tp397
a(I52
I13
I0
S'big'
p398
I0
tp399
a(I57
I129
F0.125
S'first'
p400
I0
tp401
a(I65
I22
F0.125
S'first'
p402
I0
tp403
a(I71
I41
F0.375
S'available'
p404
I0
tp405
a(I73
I58
I0
S'many'
p406
I0
tp407
a(I73
I58
I0
S'more'
p408
I0
tp409
a(I73
I76
I0
S'many'
p410
I0
tp411
a(I82
I9
F-0.625
S'other'
p412
I0
tp413
a(I82
I104
F-0.625
S'other'
p414
I0
tp415
a(I89
I1
F0.125
S'first'
p416
I0
tp417
a(I91
I6
F0.375
S'new'
p418
I0
tp419
as(S'voice'
p420
tp421
(lp422
(I6
I34
F-0.5
S'longer'
p423
I4
tp424
a(I45
I46
I0
S'funny'
p425
I4
tp426
a(I45
I46
F-0.625
S'other'
p427
I4
tp428
as(S'samsung'
p429
S'galaxy'
p430
S's3'
p431
tp432
(lp433
(I6
I36
F0.375
g183
I0
tp434
a(I6
I36
F0.25
g185
I0
tp435
a(I6
I36
I0
g187
I0
tp436
a(I23
I35
F1.0
g210
I0
tp437
a(I25
I77
F0.25
S'bigger'
p438
I0
tp439
a(I47
I6
F0.125
g217
I0
tp440
a(I55
I1
I0
g219
I0
tp441
a(I55
I1
I0
g221
I0
tp442
a(I57
I78
F-0.375
S'black'
p443
I0
tp444
a(I57
I78
I0
g225
I0
tp445
a(I75
I23
F1.0
g230
I0
tp446
a(I6
I36
F0.375
g183
I0
tp447
a(I6
I36
F0.25
g185
I0
tp448
a(I6
I36
I0
g187
I0
tp449
a(I23
I35
F1.0
g210
I0
tp450
a(I25
I77
F0.25
g438
I0
tp451
a(I45
I10
F0.625
S'aware'
p452
I0
tp453
a(I47
I6
F0.125
g217
I0
tp454
a(I55
I1
I0
g219
I0
tp455
a(I55
I1
I0
g221
I0
tp456
a(I57
I78
F-0.375
g443
I0
tp457
a(I57
I78
I0
g225
I0
tp458
a(I75
I23
F1.0
g230
I0
tp459
a(I88
I0
F0.25
S'original'
p460
I0
tp461
a(I25
I77
F0.25
g438
I0
tp462
a(I39
I49
I0
S'latest'
p463
I0
tp464
a(I57
I78
F-0.375
g443
I0
tp465
a(I75
I24
F0.5
S'second'
p466
I0
tp467
a(I82
I67
F0.5
S'told'
p468
I0
tp469
a(I5
I19
F-0.625
S'other'
p470
I7
tp471
a(I7
I41
I-100
S'gt-19300'
p472
I7
tp473
a(I22
I1
I0
S'real'
p474
I7
tp475
a(I23
I43
F0.375
S'new'
p476
I7
tp477
a(I25
I0
F0.25
S'original'
p478
I7
tp479
a(I25
I77
F0.25
g438
I7
tp480
a(I37
I9
F-0.625
S'sorry'
p481
I7
tp482
a(I39
I49
I0
g463
I7
tp483
a(I46
I3
F-0.5
S'long'
p484
I7
tp485
a(I46
I3
F0.5
S'live'
p486
I7
tp487
a(I47
I0
F1.0
S'best'
p488
I7
tp489
a(I50
I33
F0.5
S'compatible'
p490
I7
tp491
a(I53
I21
I0
S'faithful'
p492
I7
tp493
a(I57
I54
I0
S'plastic'
p494
I7
tp495
a(I57
I67
F0.125
S'able'
p496
I7
tp497
a(I57
I78
F-0.375
g443
I7
tp498
a(I75
I24
F0.5
g466
I7
tp499
a(I81
I9
I0
S'weird'
p500
I7
tp501
a(I82
I67
F0.5
g468
I7
tp502
a(I88
I0
F0.25
g460
I7
tp503
a(I91
I3
F0.375
S'new'
p504
I7
tp505
a(I98
I4
F0.5
S'careful'
p506
I7
tp507
as(S'learning'
p508
S'curve'
p509
tp510
(lp511
(I67
I16
F0.375
S'steep'
p512
I2
tp513
as(S'smart'
p514
tp515
(lp516
(I4
I1
F0.125
S'first'
p517
I10
tp518
a(I12
I3
F0.125
S'first'
p519
I10
tp520
a(I14
I83
F1.0
S'good'
p521
I10
tp522
a(I16
I14
F-0.625
S'other'
p523
I10
tp524
a(I31
I7
F0.125
S'first'
p525
I10
tp526
a(I36
I13
F1.0
S'best'
p527
I10
tp528
a(I57
I17
F1.0
S'best'
p529
I10
tp530
a(I57
I20
F1.0
S'best'
p531
I10
tp532
as(S'calls'
p533
tp534
(lp535
(I14
I13
I0
S'few'
p536
I0
tp537
a(I46
I5
I0
S'many'
p538
I0
tp539
a(I62
I5
I0
S'many'
p540
I0
tp541
as(S'sim'
p542
S'card'
p543
tp544
(lp545
(I25
I1
F0.125
S'first'
p546
I0
tp547
a(I30
I14
I0
S'big'
p548
I0
tp549
a(I31
I22
F0.375
S'new'
p550
I0
tp551
a(I45
I73
F0.375
S'new'
p552
I0
tp553
a(I57
I104
F-0.5
S'regular'
p554
I0
tp555
a(I83
I10
F0.5
S'compatible'
p556
I0
tp557
a(I83
I10
I0
S'old'
p558
I0
tp559
a(I88
I34
I0
S'old'
p560
I0
tp561
a(I89
I49
I0
S'different'
p562
I0
tp563
as(S'samsung'
p564
S'electronics'
p565
tp566
(lp567
(I53
I21
I0
g492
I0
tp568
a(I57
I78
F-0.375
g443
I0
tp569
as(S'a'
p570
S'samsung'
p571
S'galaxy'
p572
tp573
(lp574
(I25
I77
F0.25
g438
I0
tp575
a(I39
I49
I0
g463
I0
tp576
a(I57
I78
F-0.375
g443
I0
tp577
a(I75
I24
F0.5
g466
I0
tp578
a(I82
I67
F0.5
g468
I0
tp579
as(S'much'
p580
S'better'
p581
tp582
(lp583
(I25
I31
F0.375
S'much'
p584
I9
tp585
a(I41
I31
F0.375
S'much'
p586
I9
tp587
a(I42
I12
F0.375
S'much'
p588
I9
tp589
as(S'international'
p590
S'version'
p591
tp592
(lp593
(I1
I16
F-0.5
S'international'
p594
I0
tp595
a(I5
I10
F-0.5
S'international'
p596
I0
tp597
a(I10
I8
F-0.5
S'international'
p598
I0
tp599
a(I15
I21
I0
S'same'
p600
I0
tp601
a(I15
I21
F-0.5
S'international'
p602
I0
tp603
a(I21
I1
F-0.5
S'international'
p604
I0
tp605
a(I26
I0
F-0.5
S'international'
p606
I0
tp607
a(I27
I8
F-0.5
S'international'
p608
I0
tp609
a(I56
I7
F-0.5
S'international'
p610
I0
tp611
a(I59
I13
I0
S'european'
p612
I0
tp613
a(I59
I14
F-0.5
S'international'
p614
I0
tp615
a(I66
I38
F-0.5
S'international'
p616
I0
tp617
a(I71
I65
F-0.5
S'international'
p618
I0
tp619
a(I73
I35
F-0.5
S'international'
p620
I0
tp621
a(I75
I12
F-0.5
S'international'
p622
I0
tp623
a(I75
I27
F-0.5
S'international'
p624
I0
tp625
as(S'customer'
p626
S'service'
p627
tp628
(lp629
(I7
I38
F0.5
S'clear'
p630
I3
tp631
a(I7
I39
F0.625
S'aware'
p632
I3
tp633
a(I25
I15
F0.5
S'willing'
p634
I3
tp635
a(I43
I8
I0
S'great'
p636
I3
tp637
a(I1
I18
F1.0
S'good'
p638
I16
tp639
a(I1
I18
I0
S'prompt'
p640
I16
tp641
a(I7
I38
F0.5
g630
I16
tp642
a(I7
I39
F0.625
g632
I16
tp643
a(I23
I29
I0
S'great'
p644
I16
tp645
a(I25
I15
F0.5
g634
I16
tp646
a(I41
I55
F0.5
S'compatible'
p647
I16
tp648
a(I88
I6
F0.625
S'perfect'
p649
I16
tp650
a(I97
I2
F1.0
S'good'
p651
I16
tp652
as(S'noticeable'
p653
S'effect'
p654
tp655
(lp656
(I26
I6
F0.625
S'noticeable'
p657
I0
tp658
a(I26
I7
F0.625
S'noticeable'
p659
I0
tp660
a(I26
I9
F0.625
S'noticeable'
p661
I0
tp662
as(S'mega'
p663
S'pixel'
p664
S'camera'
p665
tp666
(lp667
(I57
I34
I0
S'standard'
p668
I0
tp669
a(I0
I22
F0.125
S'spectacular'
p670
I1
tp671
a(I14
I92
F-0.375
S'top'
p672
I1
tp673
a(I25
I54
F0.875
S'worthy'
p674
I1
tp675
a(I26
I19
F1.0
S'good'
p676
I1
tp677
a(I40
I2
F1.0
S'good'
p678
I1
tp679
a(I41
I10
I0
S'great'
p680
I1
tp681
a(I41
I27
I0
S'fast'
p682
I1
tp683
a(I41
I27
F0.5
S'welcome'
p684
I1
tp685
a(I46
I4
I0
S'great'
p686
I1
tp687
a(I46
I4
F0.625
S'easy'
p688
I1
tp689
a(I50
I21
F1.0
S'good'
p690
I1
tp691
a(I57
I1
I0
S'great'
p692
I1
tp693
a(I57
I34
I0
g668
I1
tp694
a(I73
I59
F-0.125
S'slow'
p695
I1
tp696
a(I81
I9
F0.5
S'possible'
p697
I1
tp698
a(I100
I3
I0
S'great'
p699
I1
tp700
a(I101
I58
I0
S'rear'
p701
I1
tp702
as(S'apps'
p703
tp704
(lp705
(I14
I7
F0.125
S'able'
p706
I0
tp707
a(I15
I28
I0
S'same'
p708
I0
tp709
a(I15
I28
F-0.625
S'free'
p710
I0
tp711
a(I25
I133
I0
S'most'
p712
I0
tp713
a(I30
I24
I0
S'more'
p714
I0
tp715
a(I31
I13
F1.0
S'better'
p716
I0
tp717
a(I31
I29
F-0.25
S'parallel'
p718
I0
tp719
a(I31
I30
F-0.75
S'difficult'
p720
I0
tp721
a(I31
I30
F-0.5
S'long'
p722
I0
tp723
a(I31
I30
F0.375
S'mean'
p724
I0
tp725
a(I36
I29
F-0.625
S'free'
p726
I0
tp727
a(I43
I24
I0
S'few'
p728
I0
tp729
a(I57
I164
F-0.5
S'sure'
p730
I0
tp731
a(I62
I11
F-0.625
S'other'
p732
I0
tp733
a(I65
I35
F0.875
S'music'
p734
I0
tp735
a(I66
I33
I0
S'quick'
p736
I0
tp737
a(I66
I35
F0.375
S'available'
p738
I0
tp739
a(I66
I35
I0
S'great'
p740
I0
tp741
a(I66
I35
I0
S'useful'
p742
I0
tp743
a(I71
I41
F-0.5
S'less'
p744
I0
tp745
a(I71
I41
I0
S'many'
p746
I0
tp747
a(I73
I58
F0.125
S'solid'
p748
I0
tp749
a(I81
I2
F-0.625
S'other'
p750
I0
tp751
a(I82
I41
F0.125
S'last'
p752
I0
tp753
a(I82
I41
I0
S'few'
p754
I0
tp755
a(I83
I6
I0
S'many'
p756
I0
tp757
a(I89
I40
I0
S'few'
p758
I0
tp759
a(I96
I2
I0
S'fewer'
p760
I0
tp761
as(S'amazon'
p762
tp763
(lp764
(I41
I33
F0.875
S'happy'
p765
I13
tp766
a(I53
I42
F0.625
S'responsible'
p767
I13
tp768
a(I71
I2
F0.5
S'trustworthy'
p769
I13
tp770
a(I71
I2
F0.625
S'convenient'
p771
I13
tp772
a(I71
I6
F-0.5
S'long'
p773
I13
tp774
a(I71
I6
F0.5
S'live'
p775
I13
tp776
a(I82
I78
F0.5
S'bought'
p777
I13
tp778
as(S'quad'
p779
S'core'
p780
tp781
(lp782
(I57
I135
F-0.5
g360
I0
tp783
a(I81
I11
F0.875
S'nice'
p784
I0
tp785
as.