(dp0
(S'straight'
p1
S'talk'
p2
tp3
(lp4
(I12
I6
F0.625
S'straight'
p5
I0
tp6
as(S'battery'
p7
S'life'
p8
tp9
(lp10
(I22
I8
F-0.25
S'loose'
p11
I1
tp12
a(I22
I8
I0
S'normal'
p13
I1
tp14
a(I30
I4
I0
S'user'
p15
I1
tp16
a(I34
I27
I-100
S'good**it'
p17
I1
tp18
a(I21
I8
F-0.75
S'dead'
p19
I15
tp20
a(I22
I8
F-0.25
g11
I15
tp21
a(I27
I2
F0.125
S'last'
p22
I15
tp23
a(I30
I4
I0
g15
I15
tp24
as(S'venezuela'
p25
tp26
(lp27
(I45
I65
I0
S'great'
p28
I0
tp29
as(S'smartphone'
p30
tp31
(lp32
(I19
I2
F0.5
S'advanced'
p33
I0
tp34
a(I31
I0
F0.5
S'second'
p35
I0
tp36
a(I34
I2
F0.125
S'first'
p37
I0
tp38
a(I45
I13
I0
S'useful'
p39
I0
tp40
as(S'language'
p41
tp42
(lp43
(I13
I0
I0
S'spanish'
p44
I3
tp45
a(I13
I0
F0.375
S'new'
p46
I3
tp47
a(I19
I28
F-0.125
S'foreign'
p48
I3
tp49
a(I19
I31
I0
S'current'
p50
I3
tp51
as(S'apps'
p52
tp53
(lp54
(I1
I1
I0
S'full'
p55
I0
tp56
a(I1
I8
F1.0
S'good'
p57
I0
tp58
a(I1
I8
F0.125
S'first'
p59
I0
tp60
a(I1
I8
I0
S'more'
p61
I0
tp62
a(I7
I8
F-0.625
S'other'
p63
I0
tp64
a(I7
I8
I0
S'more'
p65
I0
tp66
a(I38
I8
F0.875
S'nice'
p67
I0
tp68
a(I45
I2
I0
S'more'
p69
I0
tp70
as(S'samsung'
p71
tp72
(lp73
(I7
I9
F-0.125
S'overall'
p74
I7
tp75
a(I20
I0
I0
S'such'
p76
I7
tp77
a(I26
I6
F0.375
S'new'
p78
I7
tp79
as(S'camera'
p80
tp81
(lp82
(I5
I0
I0
S'great'
p83
I1
tp84
a(I10
I19
F-0.5
S'regular'
p85
I1
tp86
a(I34
I4
F0.25
S'responsive'
p87
I1
tp88
a(I39
I16
F-0.75
S'sufficient'
p89
I1
tp90
a(I39
I19
I0
S'great'
p91
I1
tp92
a(I40
I5
F0.625
S'kind'
p93
I1
tp94
a(I43
I28
F1.0
S'good'
p95
I1
tp96
a(I45
I50
F1.0
S'good'
p97
I1
tp98
as(S'galaxy'
p99
S'ace'
p100
tp101
(lp102
(I30
I7
F0.25
S'original'
p103
I0
tp104
a(I45
I56
F0.125
S'first'
p105
I0
tp106
a(I19
I20
I0
S'faster'
p107
I0
tp108
a(I30
I7
F0.25
g103
I0
tp109
a(I42
I6
F-0.375
S'smaller'
p110
I0
tp111
a(I45
I56
F0.125
g105
I0
tp112
as.