(dp0
(S'problem'
p1
tp2
(lp3
(I65
I5
I0
S'same'
p4
tp5
a(I66
I2
I0
S'same'
p6
tp7
a(I114
I2
I0
S'common'
p8
tp9
a(I139
I1
F0.625
S'major'
p10
tp11
a(I153
I2
I0
S'big'
p12
tp13
a(I156
I3
I0
S'only'
p14
tp15
as(S'back'
p16
S'cover'
p17
tp18
(lp19
(I137
I12
F-0.625
S'push'
p20
tp21
a(I137
I12
I0
S'slide'
p22
tp23
as(S'coverage'
p24
tp25
(lp26
(I15
I6
F1.0
S'better'
p27
tp28
a(I37
I4
I0
S'more'
p29
tp30
a(I43
I18
F0.375
S'much'
p31
tp32
a(I46
I1
F1.0
S'better'
p33
tp34
a(I61
I3
I0
S'rural'
p35
tp36
a(I65
I3
F1.0
S'better'
p37
tp38
a(I65
I4
F1.0
S'good'
p39
tp40
a(I65
I4
F0.375
S'available'
p41
tp42
a(I117
I0
I0
S'wide'
p43
tp44
a(I150
I2
F1.0
S'better'
p45
tp46
as(S'minutes'
p47
tp48
(lp49
(I6
I5
F-0.375
S'double'
p50
tp51
a(I24
I1
F-0.375
S'double'
p52
tp53
a(I33
I2
F-0.375
S'double'
p54
tp55
a(I36
I1
F0.125
S'able'
p56
tp57
a(I37
I11
F1.0
S'better'
p58
tp59
a(I55
I5
F-0.375
S'double'
p60
tp61
a(I83
I16
I0
S'few'
p62
tp63
a(I101
I3
F0.625
S'easy'
p64
tp65
a(I101
I3
I0
S'more'
p66
tp67
a(I113
I1
F-0.375
S'double'
p68
tp69
a(I113
I13
F-0.375
S'double'
p70
tp71
a(I117
I3
F-0.375
S'double'
p72
tp73
a(I119
I0
I0
S'few'
p74
tp75
a(I123
I6
F-0.375
S'double'
p76
tp77
a(I128
I0
F-0.375
S'double'
p78
tp79
a(I137
I3
F-0.375
S'double'
p80
tp81
a(I153
I0
F-0.375
S'double'
p82
tp83
a(I155
I0
F-0.375
S'double'
p84
tp85
as(S'year'
p86
tp87
(lp88
(I38
I3
I0
S'old'
p89
tp90
a(I61
I2
F-0.375
S'small'
p91
tp92
a(I61
I2
F-0.25
S'inexpensive'
p93
tp94
a(I86
I4
I0
S'old'
p95
tp96
a(I113
I13
I0
S'next'
p97
tp98
a(I128
I2
F1.0
S'good'
p99
tp100
as(S'needs'
p101
tp102
(lp103
(I3
I0
F1.0
S'best'
p104
tp105
a(I72
I7
F0.625
S'perfect'
p106
tp107
a(I104
I1
I0
S'basic'
p108
tp109
as(S'n'
p110
S'area'
p111
tp112
(lp113
(I80
I5
I0
S'same'
p114
tp115
a(I115
I3
I0
S'rural'
p116
tp117
a(I123
I6
F1.0
S'better'
p118
tp119
a(I123
I6
F-0.625
S'average'
p120
tp121
a(I125
I2
F0.625
S'superior'
p122
tp123
a(I138
I2
I0
S'specific'
p124
tp125
as(S'text'
p126
tp127
(lp128
(I139
I5
F0.125
S'first'
p129
tp130
as(S'screen'
p131
tp132
(lp133
(I10
I1
I0
S'external'
p134
tp135
a(I13
I1
I0
S'big'
p136
tp137
a(I14
I0
F0.5
S'touch'
p138
tp139
a(I29
I1
F0.5
S'touch'
p140
tp141
a(I39
I0
I0
S'big'
p142
tp143
a(I39
I22
F0.25
S'bigger'
p144
tp145
a(I50
I3
I0
S'large'
p146
tp147
a(I61
I0
F1.0
S'good'
p148
tp149
a(I61
I3
F0.875
S'important'
p150
tp151
a(I73
I4
I0
S'large'
p152
tp153
a(I73
I6
F0.25
S'larger'
p154
tp155
a(I93
I0
I0
S'large'
p156
tp157
a(I103
I1
F-0.375
S'small'
p158
tp159
a(I108
I2
F-0.25
S'higher'
p160
tp161
a(I113
I4
F-0.25
S'white'
p162
tp163
a(I121
I1
I0
S'big'
p164
tp165
a(I141
I8
F0.25
S'main'
p166
tp167
a(I141
I9
I0
S'external'
p168
tp169
a(I144
I1
F0.125
S'first'
p170
tp171
a(I144
I1
F0.5
S'touch'
p172
tp173
as(S'customer'
p174
tp175
(lp176
(I39
I11
F0.625
S'easier'
p177
tp178
a(I39
I11
I0
S'next'
p179
tp180
a(I117
I1
F-0.25
S'past'
p181
tp182
as(S'place'
p183
tp184
(lp185
(I83
I18
F0.125
S'first'
p186
tp187
a(I137
I13
F0.625
S'right'
p188
tp189
a(I137
I13
F-0.375
S'top'
p190
tp191
as(S'service'
p192
tp193
(lp194
(I2
I0
I0
S'most'
p195
tp196
a(I43
I1
F1.0
S'good'
p197
tp198
a(I76
I1
I0
S'overseas'
p199
tp200
a(I76
I6
F-0.5
S'try'
p201
tp202
a(I105
I3
F1.0
S'good'
p203
tp204
a(I123
I6
F-0.625
S'bad'
p205
tp206
a(I142
I0
F1.0
S'good'
p207
tp208
as(S'cdma'
p209
tp210
(lp211
(I24
I0
F0.5
S'reasonable'
p212
tp213
a(I24
I0
I0
S'basic'
p214
tp215
as(S'access'
p216
tp217
(lp218
(I43
I7
F0.5
S'told'
p219
tp220
a(I74
I1
I0
S'internet'
p221
tp222
a(I141
I7
I0
S'great'
p223
tp224
as(S'minutes'
p225
S'for'
p226
S'life'
p227
tp228
(lp229
(I24
I1
F-0.375
g52
tp230
a(I55
I5
F-0.375
g60
tp231
a(I55
I5
F-0.625
S'other'
p232
tp233
a(I113
I1
F-0.375
g68
tp234
a(I113
I13
F-0.375
g70
tp235
a(I123
I6
F-0.375
g76
tp236
as(S'camera'
p237
tp238
(lp239
(I16
I0
F-0.75
S'wrong'
p240
tp241
a(I57
I0
F-0.875
S'awful'
p242
tp243
a(I57
I1
I0
S'great'
p244
tp245
a(I57
I1
F1.0
S'better'
p246
tp247
a(I73
I8
F0.625
S'decent'
p248
tp249
a(I73
I9
F1.0
S'good'
p250
tp251
a(I75
I3
I0
S'real'
p252
tp253
a(I107
I9
F-0.625
S'bad'
p254
tp255
a(I112
I1
I0
S'great'
p256
tp257
a(I112
I1
F0.625
S'easy'
p258
tp259
as(S'back'
p260
tp261
(lp262
(I51
I0
F1.0
S'good'
p263
tp264
a(I114
I2
F-0.75
S'wrong'
p265
tp266
a(I114
I3
I0
S'same'
p267
tp268
a(I134
I1
F0.125
S'able'
p269
tp270
as(S'using'
p271
tp272
(lp273
(I36
I2
F-0.75
S'wrong'
p274
tp275
as(S'battery'
p276
S'life'
p277
tp278
(lp279
(I12
I0
I0
S'great'
p280
tp281
a(I55
I4
F-0.5
S'long'
p282
tp283
a(I82
I1
F-0.5
S'long'
p284
tp285
a(I119
I0
F1.0
S'good'
p286
tp287
as(S'years'
p288
tp289
(lp290
(I15
I13
F-0.25
S'past'
p291
tp292
a(I61
I2
I0
S'many'
p293
tp294
a(I73
I8
I0
S'many'
p295
tp296
a(I123
I0
I0
S'young'
p297
tp298
a(I123
I7
I0
S'few'
p299
tp300
a(I127
I0
I0
S'least'
p301
tp302
a(I156
I6
F1.0
S'best'
p303
tp304
as(S'excellent'
p305
tp306
(lp307
(I141
I13
F0.375
S'much'
p308
tp309
as(S'reception'
p310
tp311
(lp312
(I2
I0
F1.0
S'good'
p313
tp314
a(I20
I1
I0
S'great'
p315
tp316
a(I33
I5
I0
S'signal'
p317
tp318
a(I40
I4
I0
S'great'
p319
tp320
a(I40
I4
F-0.375
S'simple'
p321
tp322
a(I48
I0
F1.0
S'good'
p323
tp324
a(I59
I0
F1.0
S'better'
p325
tp326
a(I64
I3
I0
S'great'
p327
tp328
a(I72
I3
F0.625
S'easy'
p329
tp330
a(I84
I1
F1.0
S'good'
p331
tp332
a(I135
I1
F0.5
S'reasonable'
p333
tp334
a(I135
I1
F0.625
S'easy'
p335
tp336
a(I144
I1
F0.625
S'easy'
p337
tp338
a(I144
I1
F1.0
S'better'
p339
tp340
a(I144
I1
I0
S'more'
p341
tp342
a(I144
I1
F0.5
S'expensive'
p343
tp344
a(I148
I0
F1.0
S'good'
p345
tp346
as(S'quality'
p347
tp348
(lp349
(I39
I26
F0.375
S'much'
p350
tp351
a(I86
I2
F-0.5
S'poor'
p352
tp353
a(I111
I0
F1.0
S'good'
p354
tp355
a(I132
I0
F1.0
S'better'
p356
tp357
as(S'life'
p358
tp359
(lp360
(I55
I5
F-0.625
g232
tp361
a(I82
I1
F-0.5
g284
tp362
a(I119
I0
F1.0
g286
tp363
as(S'with'
p364
S'double'
p365
S'minutes'
p366
tp367
(lp368
(I33
I2
F-0.375
g54
tp369
a(I55
I5
F-0.375
g60
tp370
a(I113
I1
F-0.375
g68
tp371
a(I117
I3
F-0.375
g72
tp372
a(I123
I6
F-0.375
g76
tp373
a(I137
I3
F-0.375
g80
tp374
as(S'double'
p375
S'minutes'
p376
tp377
(lp378
(I6
I5
F-0.375
g50
tp379
a(I24
I1
F-0.375
g52
tp380
a(I33
I2
F-0.375
g54
tp381
a(I55
I5
F-0.375
g60
tp382
a(I113
I1
F-0.375
g68
tp383
a(I113
I13
F-0.375
g70
tp384
a(I117
I3
F-0.375
g72
tp385
a(I123
I6
F-0.375
g76
tp386
a(I128
I0
F-0.375
g78
tp387
a(I137
I3
F-0.375
g80
tp388
a(I153
I0
F-0.375
g82
tp389
a(I155
I0
F-0.375
g84
tp390
as(S'tracfone'
p391
tp392
(lp393
(I2
I0
F-0.25
S'cheaper'
p394
tp395
a(I10
I0
F-0.625
S'other'
p396
tp397
a(I33
I3
I0
S'most'
p398
tp399
a(I44
I0
F-0.5
S'less'
p400
tp401
a(I46
I1
F-0.5
S'regular'
p402
tp403
a(I55
I2
I0
S'internet'
p404
tp405
a(I116
I0
F1.0
S'best'
p406
tp407
a(I117
I3
I0
S'great'
p408
tp409
a(I117
I3
F-0.75
S'little'
p410
tp411
a(I123
I0
F0.5
S'second'
p412
tp413
a(I123
I9
I0
S'website'
p414
tp415
as(S'signal'
p416
tp417
(lp418
(I81
I7
F0.375
S'busy'
p419
tp420
a(I81
I8
F0.375
S'busy'
p421
tp422
a(I82
I0
I0
S'great'
p423
tp424
a(I125
I4
F0.5
S'stronger'
p425
tp426
a(I136
I0
F-0.75
S'little'
p427
tp428
as(S'features'
p429
tp430
(lp431
(I34
I2
I0
S'great'
p432
tp433
a(I50
I9
F-0.75
S'sick'
p434
tp435
a(I69
I0
I0
S'great'
p436
tp437
a(I87
I0
F1.0
S'good'
p438
tp439
a(I105
I2
I0
S'great'
p440
tp441
a(I105
I2
I0
S'such'
p442
tp443
a(I148
I1
I0
S'many'
p444
tp445
a(I151
I0
I0
S'more'
p446
tp447
a(I154
I2
F1.0
S'good'
p448
tp449
as(S'verizon'
p450
tp451
(lp452
(I117
I4
I0
S'old'
p453
tp454
as(S'number'
p455
tp456
(lp457
(I75
I4
F0.375
S'new'
p458
tp459
a(I75
I5
F0.25
S'original'
p460
tp461
a(I137
I6
F0.25
S'viewer'
p462
tp463
a(I137
I6
I0
S'finger'
p464
tp465
a(I137
I8
F0.125
S'proficient'
p466
tp467
a(I145
I3
I0
S'enter'
p468
tp469
a(I145
I3
I0
S'different'
p470
tp471
a(I153
I3
F0.125
S'first'
p472
tp473
a(I153
I3
F0.25
S'original'
p474
tp475
a(I153
I3
F0.375
S'new'
p476
tp477
as(S'cover'
p478
tp479
(lp480
(I24
I18
F-0.625
S'push'
p481
tp482
a(I24
I19
F0.625
S'easy'
p483
tp484
a(I31
I2
F0.625
S'easier'
p485
tp486
a(I83
I3
F-0.75
S'off'
p487
tp488
a(I137
I12
F-0.625
g20
tp489
a(I137
I12
I0
g22
tp490
as(S'price'
p491
tp492
(lp493
(I24
I0
I0
S'great'
p494
tp495
a(I24
I21
I0
S'same'
p496
tp497
a(I24
I21
F0.125
S'able'
p498
tp499
a(I52
I0
F1.0
S'good'
p500
tp501
a(I58
I0
F1.0
S'good'
p502
tp503
a(I58
I0
F0.625
S'easy'
p504
tp505
a(I67
I2
I0
S'great'
p506
tp507
a(I90
I1
F1.0
S'good'
p508
tp509
a(I104
I0
F0.5
S'reasonable'
p510
tp511
a(I132
I0
F-0.25
S'low'
p512
tp513
a(I140
I1
I0
S'great'
p514
tp515
a(I143
I1
I0
S'great'
p516
tp517
as(S'call'
p518
tp519
(lp520
(I33
I3
I0
S'external'
p521
tp522
a(I55
I1
F1.0
S'good'
p523
tp524
as(S'much'
p525
S'better'
p526
tp527
(lp528
(I110
I2
F0.375
S'much'
p529
tp530
as(S'reviews'
p531
tp532
(lp533
(I83
I1
F0.625
S'positive'
p534
tp535
a(I137
I11
F-0.625
S'other'
p536
tp537
as(S'a'
p538
S'long'
p539
S'time'
p540
tp541
(lp542
(I23
I0
F-0.5
S'long'
p543
tp544
a(I96
I0
F-0.5
S'long'
p545
tp546
a(I105
I2
F-0.5
S'long'
p547
tp548
a(I147
I2
F-0.5
S'long'
p549
tp550
as(S'bluetooth'
p551
tp552
(lp553
(I86
I4
F-0.75
S'sad'
p554
tp555
as(S'sound'
p556
tp557
(lp558
(I15
I9
F1.0
S'good'
p559
tp560
a(I39
I26
F0.25
S'bigger'
p561
tp562
a(I57
I3
F-0.5
S'press'
p563
tp564
a(I84
I0
F1.0
S'good'
p565
tp566
as(S'works'
p567
tp568
(lp569
(I5
I3
I0
S'great'
p570
tp571
a(I7
I0
I0
S'great'
p572
tp573
a(I54
I0
I0
S'great'
p574
tp575
a(I58
I0
I0
S'great'
p576
tp577
a(I131
I2
F1.0
S'best'
p578
tp579
as(S'battery'
p580
S'cover'
p581
tp582
(lp583
(I31
I2
F0.625
g485
tp584
as(g110
S'place'
p585
tp586
(lp587
(I83
I18
F0.125
g186
tp588
a(I137
I13
F0.625
g188
tp589
a(I137
I13
F-0.375
g190
tp590
as(S'display'
p591
tp592
(lp593
(I24
I8
F-0.625
S'fingerprint'
p594
tp595
a(I39
I20
F0.25
S'main'
p596
tp597
as(S'battery'
p598
tp599
(lp600
(I12
I0
I0
g280
tp601
a(I55
I4
F-0.5
g282
tp602
a(I127
I0
I0
S'close'
p603
tp604
as(S'area'
p605
tp606
(lp607
(I80
I5
I0
g114
tp608
a(I115
I3
I0
g116
tp609
a(I123
I6
F1.0
g118
tp610
a(I123
I6
F-0.625
g120
tp611
a(I125
I2
F0.625
g122
tp612
a(I138
I2
I0
g124
tp613
as(S'ringtones'
p614
tp615
(lp616
(I33
I20
F-0.75
S'impossible'
p617
tp618
as(S'cell'
p619
tp620
(lp621
(I2
I0
F-0.5
S'poor'
p622
tp623
a(I30
I3
I0
S'great'
p624
tp625
a(I41
I0
I0
S'basic'
p626
tp627
a(I42
I0
I0
S'big'
p628
tp629
a(I42
I1
I0
S'large'
p630
tp631
a(I42
I1
I0
S'monthly'
p632
tp633
a(I50
I6
F0.125
S'first'
p634
tp635
a(I61
I3
F-0.5
S'complaint'
p636
tp637
a(I128
I1
F0.375
S'reliable'
p638
tp639
a(I157
I1
F0.125
S'first'
p640
tp641
as(S'calls'
p642
tp643
(lp644
(I39
I0
F0.25
S'recent'
p645
tp646
a(I79
I2
F-0.125
S'mine'
p647
tp648
as(S'bottom'
p649
tp650
(lp651
(I15
I16
F0.625
S'easy'
p652
tp653
a(I15
I16
F-0.375
S'top'
p654
tp655
a(I83
I10
F-0.375
S'top'
p656
tp657
a(I108
I1
F0.375
S'distinct'
p658
tp659
a(I108
I1
F-0.375
S'top'
p660
tp661
as(S'well'
p662
tp663
(lp664
(I118
I1
I0
S'real'
p665
tp666
as(S'speaker'
p667
tp668
(lp669
(I15
I10
F1.0
S'good'
p670
tp671
a(I132
I0
I0
S'great'
p672
tp673
as(S'better'
p674
tp675
(lp676
(I110
I2
F0.375
g529
tp677
as(S'tabs'
p678
tp679
(lp680
(I24
I13
F-0.375
S'top'
p681
tp682
a(I83
I15
F0.5
S'aggressive'
p683
tp684
a(I137
I12
F-0.375
S'top'
p685
tp686
as(S'better'
p687
S'coverage'
p688
tp689
(lp690
(I15
I6
F1.0
g27
tp691
a(I43
I18
F0.375
g31
tp692
a(I46
I1
F1.0
g33
tp693
a(I65
I3
F1.0
g37
tp694
a(I150
I2
F1.0
g45
tp695
as(S'time'
p696
tp697
(lp698
(I2
I0
F-0.875
S'hard'
p699
tp700
a(I23
I0
F-0.5
g543
tp701
a(I81
I10
I0
S'same'
p702
tp703
a(I92
I5
F0.125
S'first'
p704
tp705
a(I96
I0
F-0.5
g545
tp706
a(I100
I1
F-0.75
S'little'
p707
tp708
a(I105
I2
F-0.5
g547
tp709
a(I137
I3
F0.125
S'first'
p710
tp711
a(I147
I2
F-0.5
g549
tp712
as(S'looking'
p713
tp714
(lp715
(I58
I0
F1.0
S'good'
p716
tp717
a(I58
I0
F-0.375
S'simple'
p718
tp719
as(S'minute'
p720
tp721
(lp722
(I2
I0
F-0.375
S'double'
p723
tp724
a(I75
I7
F-0.375
S'double'
p725
tp726
a(I81
I7
F0.5
S'whole'
p727
tp728
as(S'customer'
p729
S'service'
p730
tp731
(lp732
(I76
I1
I0
g199
tp733
a(I123
I6
F-0.625
g205
tp734
as(S'pictures'
p735
tp736
(lp737
(I37
I11
F1.0
S'good'
p738
tp739
as(S'volume'
p740
tp741
(lp742
(I24
I11
F-0.25
S'low'
p743
tp744
a(I35
I2
F0.625
S'easy'
p745
tp746
a(I35
I2
F1.0
S'good'
p747
tp748
a(I35
I2
F1.0
S'good'
p749
tp750
a(I73
I2
I0
S'large'
p751
tp752
a(I118
I1
I0
S'adequate'
p753
tp754
a(I151
I0
F-0.25
S'low'
p755
tp756
as(S'months'
p757
tp758
(lp759
(I37
I10
F-0.5
S'ignore'
p760
tp761
a(I52
I0
F1.0
S'good'
p762
tp763
a(I78
I1
F1.0
S'good'
p764
tp765
a(I86
I2
F-0.5
S'long'
p766
tp767
as(S'flip'
p768
tp769
(lp770
(I29
I1
I0
S'basic'
p771
tp772
a(I29
I1
F0.625
S'easy'
p773
tp774
a(I39
I0
I0
S'large'
p775
tp776
a(I89
I0
F1.0
S'good'
p777
tp778
a(I89
I0
I0
S'basic'
p779
tp780
a(I98
I0
F1.0
S'good'
p781
tp782
a(I98
I0
I0
S'basic'
p783
tp784
a(I105
I0
F-0.375
S'simple'
p785
tp786
a(I122
I1
F-0.5
S'open'
p787
tp788
a(I150
I0
F-0.375
S'simple'
p789
tp790
as(S'cover'
p791
S'towards'
p792
S'bottom'
p793
tp794
(lp795
(I24
I18
F-0.625
g481
tp796
a(I137
I12
F-0.625
g20
tp797
a(I137
I12
I0
g22
tp798
as(S'sound'
p799
S'quality'
p800
tp801
(lp802
(I15
I9
F1.0
g559
tp803
a(I39
I26
F0.25
g561
tp804
a(I39
I26
F0.375
g350
tp805
as.