(dp0
(S'happy'
p1
S'with'
p2
S'purchase'
p3
tp4
(lp5
(I19
I3
F0.875
S'happy'
p6
I0
tp7
a(I24
I2
F0.875
S'happy'
p8
I0
tp9
a(I43
I57
F0.875
S'happy'
p10
I0
tp11
a(I78
I5
F0.875
S'happy'
p12
I0
tp13
as(S'battery'
p14
S'life'
p15
tp16
(lp17
(I3
I49
F1.0
S'good'
p18
I1
tp19
a(I9
I1
I0
S'fast'
p20
I1
tp21
a(I9
I1
I0
S'great'
p22
I1
tp23
a(I42
I1
F0.625
S'decent'
p24
I1
tp25
a(I43
I9
I0
S'most'
p26
I1
tp27
a(I65
I10
F1.0
S'good'
p28
I1
tp29
a(I92
I2
F-0.5
S'poor'
p30
I1
tp31
a(I95
I22
F-0.25
S'low'
p32
I1
tp33
a(I135
I8
F-0.75
S'short'
p34
I1
tp35
a(I135
I31
F-0.5
S'poor'
p36
I1
tp37
a(I147
I42
F1.0
S'good'
p38
I1
tp39
a(I149
I11
F-0.25
S'low'
p40
I1
tp41
a(I2
I10
F0.5
S'whole'
p42
I19
tp43
a(I3
I49
F1.0
g18
I19
tp44
a(I42
I1
F0.625
g24
I19
tp45
a(I64
I52
I0
S'real'
p46
I19
tp47
a(I92
I2
F-0.5
g30
I19
tp48
a(I135
I8
F-0.75
g34
I19
tp49
a(I135
I31
F-0.5
g36
I19
tp50
a(I147
I42
F1.0
g38
I19
tp51
a(I2
I16
F-0.625
S'bad'
p52
I15
tp53
a(I3
I64
F-0.625
S'unpredictable'
p54
I15
tp55
a(I9
I1
I0
g20
I15
tp56
a(I9
I1
I0
g22
I15
tp57
a(I17
I4
I0
S'store'
p58
I15
tp59
a(I17
I4
F0.375
S'extra'
p60
I15
tp61
a(I17
I4
F0.375
S'extra'
p62
I15
tp63
a(I28
I9
F0.125
S'last'
p64
I15
tp65
a(I29
I0
F0.125
S'last'
p66
I15
tp67
a(I43
I9
I0
g26
I15
tp68
a(I44
I3
F-0.5
S'sure'
p69
I15
tp70
a(I44
I3
F1.0
S'good'
p71
I15
tp72
a(I64
I53
F0.375
S'extra'
p73
I15
tp74
a(I65
I10
F1.0
g28
I15
tp75
a(I74
I0
F0.125
S'last'
p76
I15
tp77
a(I81
I0
I0
S'fast'
p78
I15
tp79
a(I83
I2
I0
S'angry'
p80
I15
tp81
a(I85
I1
F-0.625
S'bad'
p82
I15
tp83
a(I85
I1
F-0.25
S'battery'
p84
I15
tp85
a(I85
I3
I0
S'fast'
p86
I15
tp87
a(I85
I3
F0.625
S'finish'
p88
I15
tp89
a(I85
I5
F1.0
S'good'
p90
I15
tp91
a(I86
I14
F0.375
S'new'
p92
I15
tp93
a(I86
I14
I0
S'old'
p94
I15
tp95
a(I87
I24
F-0.375
S'top'
p96
I15
tp97
a(I94
I10
F0.625
S'replaceable'
p98
I15
tp99
a(I95
I22
F-0.25
g32
I15
tp100
a(I95
I33
F1.0
S'better'
p101
I15
tp102
a(I119
I8
I0
S'fast'
p103
I15
tp104
a(I119
I8
F-0.625
S'other'
p105
I15
tp106
a(I125
I37
F0.125
S'last'
p107
I15
tp108
a(I127
I5
F-0.75
S'little'
p109
I15
tp110
a(I127
I16
F1.0
S'good'
p111
I15
tp112
a(I127
I16
I0
S'real'
p113
I15
tp114
a(I149
I11
F-0.25
g40
I15
tp115
a(I152
I6
I0
S'fast'
p116
I15
tp117
a(I155
I2
I0
S'only'
p118
I15
tp119
a(I155
I2
F-0.625
S'bad'
p120
I15
tp121
a(I155
I2
F-0.5
S'long'
p122
I15
tp123
a(I155
I2
F0.375
S'much'
p124
I15
tp125
as(S'quad'
p126
S'core'
p127
S'processor'
p128
tp129
(lp130
(I3
I7
F-0.5
S'international'
p131
I0
tp132
a(I20
I15
I0
S'least'
p133
I0
tp134
a(I3
I7
F-0.5
g131
I0
tp135
a(I3
I15
I0
S'quad'
p136
I0
tp137
a(I135
I26
I0
S'quad'
p138
I0
tp139
as(S'a'
p140
S'screen'
p141
S'protector'
p142
tp143
(lp144
(I80
I5
F-0.125
S'mine'
p145
I1
tp146
as(S'let'
p147
S'me'
p148
S'tell'
p149
tp150
(lp151
(I134
I19
F-0.25
S'let'
p152
I0
tp153
as(S'an'
p154
S'international'
p155
S'version'
p156
tp157
(lp158
(I3
I0
F-0.5
S'international'
p159
I0
tp160
a(I3
I15
F-0.5
S'international'
p161
I0
tp162
a(I3
I24
F1.0
S'better'
p163
I0
tp164
a(I3
I24
F-0.5
S'international'
p165
I0
tp166
a(I20
I0
F-0.5
S'international'
p167
I0
tp168
a(I20
I4
F-0.5
S'international'
p169
I0
tp170
a(I46
I4
F-0.5
S'international'
p171
I0
tp172
a(I52
I5
F-0.5
S'international'
p173
I0
tp174
a(I52
I5
I0
S'european'
p175
I0
tp176
a(I64
I18
F-0.5
S'international'
p177
I0
tp178
a(I64
I76
F-0.5
S'international'
p179
I0
tp180
a(I71
I9
F-0.5
S'international'
p181
I0
tp182
a(I86
I0
F-0.5
S'international'
p183
I0
tp184
a(I87
I5
F-0.5
S'international'
p185
I0
tp186
a(I92
I20
F-0.5
S'international'
p187
I0
tp188
a(I95
I41
F-0.5
S'international'
p189
I0
tp190
a(I111
I1
F-0.5
S'international'
p191
I0
tp192
a(I111
I2
F-0.5
S'international'
p193
I0
tp194
a(I123
I3
F-0.5
S'international'
p195
I0
tp196
a(I125
I27
F-0.5
S'international'
p197
I0
tp198
a(I131
I1
F-0.5
S'international'
p199
I0
tp200
a(I135
I21
F0.25
S'unlocked'
p201
I0
tp202
a(I135
I21
F-0.5
S'international'
p203
I0
tp204
a(I154
I48
F-0.5
S'international'
p205
I0
tp206
a(I163
I0
F-0.5
S'international'
p207
I0
tp208
as(S'camera'
p209
tp210
(lp211
(I28
I5
F-0.625
S'other'
p212
I1
tp213
a(I39
I13
I0
S'great'
p214
I1
tp215
a(I40
I32
I0
S'great'
p216
I1
tp217
a(I79
I0
I0
S'great'
p218
I1
tp219
a(I80
I38
I0
S'great'
p220
I1
tp221
a(I84
I14
I0
S'great'
p222
I1
tp223
as(S'iphone'
p224
tp225
(lp226
(I4
I0
F1.0
S'best'
p227
I1
tp228
a(I8
I0
I0
S'own'
p229
I1
tp230
a(I8
I0
F0.5
S'whole'
p231
I1
tp232
a(I10
I16
I0
S'least'
p233
I1
tp234
a(I20
I17
I0
S'same'
p235
I1
tp236
a(I64
I20
F0.375
S'new'
p237
I1
tp238
a(I71
I0
F1.0
S'better'
p239
I1
tp240
a(I86
I28
F0.25
S'bigger'
p241
I1
tp242
a(I86
I33
F0.5
S'rid'
p243
I1
tp244
a(I110
I7
F1.0
S'good'
p245
I1
tp246
a(I135
I21
I0
S'wish'
p247
I1
tp248
a(I135
I21
F0.375
S'new'
p249
I1
tp250
a(I154
I40
F-0.75
S'likely'
p251
I1
tp252
a(I154
I67
I0
S'least'
p253
I1
tp254
a(I154
I67
F0.375
S'new'
p255
I1
tp256
as(S'straight'
p257
S'talk'
p258
tp259
(lp260
(I73
I0
F0.625
S'straight'
p261
I0
tp262
a(I73
I2
F0.625
S'straight'
p263
I0
tp264
as(S'mobile'
p265
tp266
(lp267
(I23
I4
F0.375
S'enable'
p268
I0
tp269
a(I97
I5
F-0.25
S'unhelpful'
p270
I0
tp271
a(I97
I7
F0.125
S'first'
p272
I0
tp273
a(I117
I2
F-0.375
S'simple'
p274
I0
tp275
as(S'unlocked'
p276
S'international'
p277
S'version'
p278
tp279
(lp280
(I20
I4
F-0.5
g169
I0
tp281
a(I86
I42
F-0.5
S'international'
p282
I0
tp283
a(I87
I5
F-0.5
g185
I0
tp284
a(I92
I20
F-0.5
g187
I0
tp285
a(I131
I1
F-0.5
g199
I0
tp286
a(I133
I6
F-0.5
S'international'
p287
I0
tp288
a(I135
I21
F0.25
g201
I0
tp289
a(I135
I21
F-0.5
g203
I0
tp290
a(I135
I23
F-0.5
S'international'
p291
I0
tp292
a(I154
I48
F-0.5
g205
I0
tp293
a(I155
I7
F-0.5
S'international'
p294
I0
tp295
a(I3
I0
F-0.5
g159
I0
tp296
a(I3
I15
F-0.5
g161
I0
tp297
a(I3
I21
F-0.25
S'cheaper'
p298
I0
tp299
a(I3
I21
F-0.5
S'international'
p300
I0
tp301
a(I3
I24
F1.0
g163
I0
tp302
a(I3
I24
F-0.5
g165
I0
tp303
a(I20
I0
F-0.5
g167
I0
tp304
a(I20
I4
F-0.5
g169
I0
tp305
a(I37
I6
F-0.5
S'international'
p306
I0
tp307
a(I41
I9
F-0.5
S'international'
p308
I0
tp309
a(I46
I3
F-0.5
S'international'
p310
I0
tp311
a(I46
I4
F-0.5
g171
I0
tp312
a(I47
I16
F-0.5
S'international'
p313
I0
tp314
a(I52
I5
F-0.5
g173
I0
tp315
a(I52
I5
I0
g175
I0
tp316
a(I64
I8
F-0.5
S'international'
p317
I0
tp318
a(I64
I18
F-0.5
g177
I0
tp319
a(I64
I76
F-0.5
g179
I0
tp320
a(I68
I12
F-0.5
S'international'
p321
I0
tp322
a(I71
I9
F-0.5
g181
I0
tp323
a(I78
I2
F0.625
S'polish'
p324
I0
tp325
a(I78
I10
F-0.5
S'international'
p326
I0
tp327
a(I80
I1
F-0.5
S'international'
p328
I0
tp329
a(I86
I0
F-0.5
g183
I0
tp330
a(I86
I42
F-0.5
g282
I0
tp331
a(I87
I5
F-0.5
g185
I0
tp332
a(I92
I20
F-0.5
g187
I0
tp333
a(I95
I41
F-0.5
g189
I0
tp334
a(I111
I1
F-0.5
g191
I0
tp335
a(I111
I2
F-0.5
g193
I0
tp336
a(I117
I3
F-0.5
S'international'
p337
I0
tp338
a(I119
I3
F-0.5
S'international'
p339
I0
tp340
a(I123
I3
F-0.5
g195
I0
tp341
a(I125
I4
F-0.5
S'international'
p342
I0
tp343
a(I125
I22
F-0.5
S'international'
p344
I0
tp345
a(I125
I27
F-0.5
g197
I0
tp346
a(I131
I1
F-0.5
g199
I0
tp347
a(I131
I3
F-0.5
S'international'
p348
I0
tp349
a(I133
I6
F-0.5
g287
I0
tp350
a(I135
I21
F0.25
g201
I0
tp351
a(I135
I21
F-0.5
g203
I0
tp352
a(I135
I23
F-0.5
g291
I0
tp353
a(I154
I48
F-0.5
g205
I0
tp354
a(I155
I7
F-0.5
g294
I0
tp355
a(I163
I0
F-0.5
g207
I0
tp356
as(S'times'
p357
g140
S'day'
p358
tp359
(lp360
(I64
I25
I0
S'least'
p361
I0
tp362
a(I72
I12
I0
S'different'
p363
I0
tp364
as(g140
S'samsung'
p365
S'galaxy'
p366
tp367
(lp368
(I2
I15
F-0.625
S'other'
p369
I0
tp370
a(I10
I17
F0.375
S'new'
p371
I0
tp372
a(I65
I3
I0
S'fast'
p373
I0
tp374
a(I65
I3
F1.0
S'better'
p375
I0
tp376
a(I65
I9
F0.375
S'new'
p377
I0
tp378
a(I71
I4
I0
S'more'
p379
I0
tp380
a(I104
I14
F0.375
S'new'
p381
I0
tp382
a(I134
I0
F1.0
S'best'
p383
I0
tp384
a(I2
I15
F-0.625
g369
I0
tp385
a(I10
I17
F0.375
g371
I0
tp386
a(I65
I3
I0
g373
I0
tp387
a(I65
I3
F1.0
g375
I0
tp388
a(I65
I9
F0.375
g377
I0
tp389
a(I71
I4
I0
g379
I0
tp390
a(I104
I14
F0.375
g381
I0
tp391
a(I134
I0
F1.0
g383
I0
tp392
a(I2
I15
F-0.625
g369
I7
tp393
a(I20
I9
I0
S'signal'
p394
I7
tp395
a(I43
I32
F0.125
S'last'
p396
I7
tp397
a(I52
I4
F0.375
S'new'
p398
I7
tp399
a(I52
I4
F0.375
S'new'
p400
I7
tp401
a(I62
I20
F0.25
S'original'
p402
I7
tp403
a(I64
I40
F-0.75
S'likely'
p404
I7
tp405
a(I64
I40
I0
S'anymore'
p406
I7
tp407
a(I64
I44
I0
S'such'
p408
I7
tp409
a(I65
I3
I0
g373
I7
tp410
a(I65
I3
F1.0
g375
I7
tp411
a(I65
I9
F0.375
g377
I7
tp412
a(I65
I19
I0
S'exclusive'
p413
I7
tp414
a(I71
I4
I0
g379
I7
tp415
a(I80
I27
F0.5
S'possible'
p416
I7
tp417
a(I85
I5
F1.0
S'good'
p418
I7
tp419
a(I86
I49
F0.25
S'original'
p420
I7
tp421
a(I104
I14
F0.375
g381
I7
tp422
a(I108
I1
F0.375
S'reliable'
p423
I7
tp424
a(I112
I7
F0.125
S'valid'
p425
I7
tp426
a(I113
I0
F0.125
S'first'
p427
I7
tp428
a(I125
I13
F0.125
S'last'
p429
I7
tp430
a(I125
I13
F-0.75
S'dead'
p431
I7
tp432
a(I134
I0
F1.0
g383
I7
tp433
a(I135
I41
F-0.5
S'international'
p434
I7
tp435
a(I135
I41
F-0.25
S'cheaper'
p436
I7
tp437
a(I135
I41
F-0.875
S'inferior'
p438
I7
tp439
a(I135
I41
I0
S'overseas'
p440
I7
tp441
a(I137
I2
F0.125
S'first'
p442
I7
tp443
a(I139
I23
F1.0
S'good'
p444
I7
tp445
a(I147
I45
F0.875
S'nice'
p446
I7
tp447
a(I154
I31
F-0.625
S'other'
p448
I7
tp449
a(I8
I0
F-0.375
S'simple'
p450
I0
tp451
a(I10
I17
F0.375
g371
I0
tp452
a(I28
I0
F1.0
S'best'
p453
I0
tp454
a(I86
I29
F0.375
S'new'
p455
I0
tp456
a(I149
I18
F-0.25
S'cheaper'
p457
I0
tp458
a(I149
I18
F0.25
S'unlocked'
p459
I0
tp460
as(S'factory'
p461
tp462
(lp463
(I3
I36
F1.0
S'best'
p464
I2
tp465
a(I64
I23
I0
S'weird'
p466
I2
tp467
a(I80
I0
F0.375
S'new'
p468
I2
tp469
a(I154
I78
F-0.5
S'international'
p470
I2
tp471
as(S'seller'
p472
tp473
(lp474
(I71
I7
F0.5
S'recommend'
p475
I19
tp476
a(I124
I11
I0
S'ceramic'
p477
I19
tp478
a(I129
I3
F0.25
S'original'
p479
I19
tp480
a(I148
I5
F0.5
S'trustworthy'
p481
I19
tp482
a(I159
I1
F-0.625
S'other'
p483
I19
tp484
as(S'android'
p485
tp486
(lp487
(I104
I12
F-0.625
S'other'
p488
I0
tp489
a(I119
I1
F1.0
S'best'
p490
I0
tp491
a(I149
I59
I0
S'third'
p492
I0
tp493
as(S'smart'
p494
tp495
(lp496
(I63
I6
I0
S'useful'
p497
I10
tp498
a(I74
I9
I0
S'such'
p499
I10
tp500
a(I74
I23
F1.0
S'best'
p501
I10
tp502
a(I78
I10
F1.0
S'best'
p503
I10
tp504
a(I87
I25
F0.125
S'first'
p505
I10
tp506
a(I94
I7
I0
S'such'
p507
I10
tp508
a(I95
I22
I0
S'most'
p509
I10
tp510
a(I121
I0
I0
S'old'
p511
I10
tp512
a(I129
I15
F1.0
S'best'
p513
I10
tp514
a(I141
I0
F1.0
S'best'
p515
I10
tp516
a(I154
I69
F0.125
S'first'
p517
I10
tp518
a(I159
I14
F0.125
S'last'
p519
I10
tp520
a(I159
I14
F-0.5
S'long'
p521
I10
tp522
a(I159
I14
F-0.625
S'other'
p523
I10
tp524
as(S'sudden'
p525
S'death'
p526
tp527
(lp528
(I74
I11
F-0.5
S'sudden'
p529
I0
tp530
a(I108
I0
F-0.5
S'sudden'
p531
I0
tp532
a(I149
I42
F-0.5
S'sudden'
p533
I0
tp534
a(I164
I2
F-0.5
S'sudden'
p535
I0
tp536
as(S'language'
p537
tp538
(lp539
(I1
I5
I0
S'asian'
p540
I3
tp541
a(I2
I17
F-0.375
S'manual'
p542
I3
tp543
a(I2
I17
F-0.625
S'other'
p544
I3
tp545
a(I64
I56
F0.5
S'second'
p546
I3
tp547
a(I114
I10
F-0.625
S'other'
p548
I3
tp549
a(I135
I17
F-0.625
S'other'
p550
I3
tp551
a(I135
I17
I0
S'english'
p552
I3
tp553
a(I135
I17
F-0.625
S'other'
p554
I3
tp555
a(I141
I6
I0
S'english'
p556
I3
tp557
as(S'sim'
p558
S'card'
p559
tp560
(lp561
(I8
I0
I0
S'ky'
p562
I0
tp563
a(I62
I14
I0
S'different'
p564
I0
tp565
a(I71
I10
F-0.375
S'small'
p566
I0
tp567
a(I89
I2
I0
S'own'
p568
I0
tp569
a(I93
I0
I0
S'old'
p570
I0
tp571
a(I93
I2
I0
S'old'
p572
I0
tp573
a(I93
I6
F0.375
S'new'
p574
I0
tp575
a(I124
I12
F0.25
S'bigger'
p576
I0
tp577
a(I132
I1
F-0.5
S'regular'
p578
I0
tp579
a(I132
I1
I0
S'sized'
p580
I0
tp581
a(I132
I1
F-0.375
S'modified'
p582
I0
tp583
a(I132
I1
I0
S'great'
p584
I0
tp585
as(S'love'
p586
S'big'
p587
S'screen'
p588
tp589
(lp590
(I8
I0
I0
S'big'
p591
I0
tp592
a(I52
I1
I0
S'big'
p593
I0
tp594
a(I64
I4
I0
S'big'
p595
I0
tp596
a(I79
I2
I0
S'big'
p597
I0
tp598
a(I135
I38
I0
S'big'
p599
I0
tp600
as(S'warranty'
p601
tp602
(lp603
(I55
I1
F1.0
S'good'
p604
I2
tp605
a(I80
I25
F0.25
S'original'
p606
I2
tp607
a(I80
I25
F-0.375
S'void'
p608
I2
tp609
a(I125
I13
F-0.5
S'sure'
p610
I2
tp611
a(I134
I6
F0.375
S'extended'
p612
I2
tp613
as(S'galaxy'
p614
S's3'
p615
tp616
(lp617
(I8
I0
F-0.375
g450
I0
tp618
a(I65
I9
F1.0
S'best'
p619
I0
tp620
a(I71
I6
F0.375
S'new'
p621
I0
tp622
a(I135
I18
F-0.5
S'sure'
p623
I0
tp624
as(S'negative'
p625
S'reviews'
p626
tp627
(lp628
(I38
I9
F0.5
S'possible'
p629
I3
tp630
a(I38
I9
F-0.875
S'negative'
p631
I3
tp632
a(I38
I9
I0
S'most'
p633
I3
tp634
a(I49
I4
F-0.875
S'negative'
p635
I3
tp636
a(I135
I21
F-0.875
S'negative'
p637
I3
tp638
a(I135
I25
F-0.875
S'negative'
p639
I3
tp640
as(S'customer'
p641
S'service'
p642
tp643
(lp644
(I135
I19
F-0.625
S'bad'
p645
I3
tp646
a(I139
I1
I0
S'great'
p647
I3
tp648
a(I141
I5
F1.0
S'good'
p649
I3
tp650
a(I27
I24
F0.5
S'technical'
p651
I16
tp652
a(I95
I27
F1.0
S'best'
p653
I16
tp654
a(I135
I19
F-0.625
g645
I16
tp655
a(I141
I5
F1.0
g649
I16
tp656
a(I149
I24
I0
S'generic'
p657
I16
tp658
a(I154
I51
F0.875
S'happy'
p659
I16
tp660
as(S'apps'
p661
tp662
(lp663
(I9
I8
F-0.625
S'other'
p664
I0
tp665
a(I14
I2
F1.0
S'good'
p666
I0
tp667
a(I22
I8
F-0.625
S'free'
p668
I0
tp669
a(I34
I2
I0
S'many'
p670
I0
tp671
a(I39
I12
I0
S'great'
p672
I0
tp673
a(I47
I34
I0
S'android'
p674
I0
tp675
a(I65
I19
F1.0
S'best'
p676
I0
tp677
a(I86
I22
F1.0
S'good'
p678
I0
tp679
a(I96
I9
F-0.625
S'free'
p680
I0
tp681
a(I152
I0
F1.0
S'good'
p682
I0
tp683
a(I152
I0
I0
S'user'
p684
I0
tp685
as(S'amazon'
p686
tp687
(lp688
(I3
I10
I0
S'great'
p689
I13
tp690
a(I53
I6
I0
S'tech'
p691
I13
tp692
a(I53
I6
F-0.25
S'giant'
p693
I13
tp694
a(I64
I68
F-0.125
S'mine'
p695
I13
tp696
a(I105
I0
F0.375
S'reliable'
p697
I13
tp698
a(I134
I9
F0.5
S'told'
p699
I13
tp700
as(S'i9300'
p701
tp702
(lp703
(I34
I8
F-0.5
S'international'
p704
I0
tp705
a(I80
I5
F0.375
S'new'
p706
I0
tp707
a(I139
I19
I0
S'french'
p708
I0
tp709
as.