(dp0
(S'other'
p1
S'phones'
p2
tp3
(lp4
(I1
I25
F-0.625
S'clean'
p5
I0
tp6
a(I1
I25
F-0.625
S'other'
p7
I0
tp8
a(I2
I42
F-0.625
S'other'
p9
I0
tp10
a(I2
I65
F-0.625
S'other'
p11
I0
tp12
as(S'keyboard'
p13
tp14
(lp15
(I2
I37
I0
S'great'
p16
I2
tp17
a(I2
I48
F-0.75
S'comfortable'
p18
I2
tp19
a(I2
I52
F-0.375
S'small'
p20
I2
tp21
a(I8
I14
F0.875
S'nice'
p22
I2
tp23
a(I11
I15
I0
S'full'
p24
I2
tp25
a(I11
I20
I0
S'more'
p26
I2
tp27
a(I12
I9
I0
S'physical'
p28
I2
tp29
as(S'sim'
p30
S'card'
p31
tp32
(lp33
(I1
I9
I0
S'great'
p34
I0
tp35
as(S'battery'
p36
tp37
(lp38
(I2
I38
F0.25
S'main'
p39
I15
tp40
a(I2
I65
F0.875
S'music'
p41
I15
tp42
as(S'straight'
p43
S'talk'
p44
tp45
(lp46
(I2
I28
F0.625
S'straight'
p47
I0
tp48
as(S'apps'
p49
tp50
(lp51
(I1
I18
F-0.5
S'open'
p52
I0
tp53
a(I6
I6
I0
S'different'
p54
I0
tp55
a(I7
I4
F0.875
S'music'
p56
I0
tp57
a(I10
I5
I0
S'many'
p58
I0
tp59
a(I11
I25
F-0.5
S'open'
p60
I0
tp61
as(S'camera'
p62
tp63
(lp64
(I2
I50
I0
S'great'
p65
I1
tp66
a(I2
I50
I0
S'e-mail'
p67
I1
tp68
a(I9
I2
I0
S'great'
p69
I1
tp70
a(I10
I8
I0
S'great'
p71
I1
tp72
as.