(dp0
(S'times'
p1
tp2
(lp3
(I0
I4
I0
S'many'
p4
tp5
a(I141
I4
I0
S'slower'
p6
tp7
a(I141
I4
F-0.5
S'less'
p8
tp9
as(S'problem'
p10
tp11
(lp12
(I61
I0
F0.625
S'easy'
p13
tp14
a(I61
I0
I0
S'resolved'
p15
tp16
a(I112
I0
I0
S'big'
p17
tp18
a(I127
I4
I0
S'same'
p19
tp20
a(I177
I8
I0
S'only'
p21
tp22
a(I177
I8
I0
S'same'
p23
tp24
as(S'mobile'
p25
tp26
(lp27
(I165
I1
I0
S'passable'
p28
tp29
a(I165
I1
F0.375
S'new'
p30
tp31
as(S'battery'
p32
S'life'
p33
tp34
(lp35
(I26
I0
F1.0
S'good'
p36
tp37
a(I60
I1
F0.625
S'easy'
p38
tp39
a(I77
I1
F-0.625
S'average'
p40
tp41
a(I159
I0
I0
S'table'
p42
tp43
a(I159
I0
I0
S'full'
p44
tp45
a(I185
I14
F-0.5
S'unimpressive'
p46
tp47
as(S'problems'
p48
tp49
(lp50
(I3
I0
I0
S'few'
p51
tp52
a(I91
I4
I0
S'either'
p53
tp54
as(S'money'
p55
tp56
(lp57
(I45
I1
I0
S'waste'
p58
tp59
a(I104
I17
F0.75
S'worth'
p60
tp61
a(I104
I17
I0
S'wish'
p62
tp63
a(I165
I0
F0.75
S'worth'
p64
tp65
a(I191
I1
I0
S'more'
p66
tp67
as(S'seems'
p68
tp69
(lp70
(I141
I1
I0
S'more'
p71
tp72
a(I141
I1
I0
S'android'
p73
tp74
as(S'please'
p75
tp76
(lp77
(I73
I0
F1.0
S'good'
p78
tp79
a(I73
I0
F0.625
S'aware'
p80
tp81
a(I121
I4
I0
S'soonest'
p82
tp83
as(S'screen'
p84
tp85
(lp86
(I0
I7
I0
S'entire'
p87
tp88
a(I0
I7
F-0.5
S'actual'
p89
tp90
a(I20
I8
F-0.375
S'disable'
p91
tp92
a(I76
I1
F-0.75
S'blew'
p93
tp94
a(I85
I3
F-0.375
S'black'
p95
tp96
a(I85
I3
I0
S'even'
p97
tp98
a(I163
I1
F-0.75
S'blew'
p99
tp100
a(I182
I0
F-0.25
S'loose'
p101
tp102
a(I182
I0
F-0.75
S'dead'
p103
tp104
a(I185
I24
I0
S'large'
p105
tp106
a(I185
I24
F0.75
S'beautiful'
p107
tp108
a(I185
I25
F0.5
S'accurate'
p109
tp110
a(I201
I2
F0.25
S'larger'
p111
tp112
as(S'everything'
p113
tp114
(lp115
(I197
I0
F0.375
S'new'
p116
tp117
as(S'windows'
p118
S'os'
p119
tp120
(lp121
(I45
I0
I0
S'mobile'
p122
tp123
a(I116
I1
F0.375
S'new'
p124
tp125
a(I141
I6
I0
S'old'
p126
tp127
a(I141
I9
I0
S'common'
p128
tp129
a(I185
I22
F1.0
S'better'
p130
tp131
a(I194
I0
F0.125
S'first'
p132
tp133
as(S'camera'
p134
tp135
(lp136
(I26
I0
F1.0
S'good'
p137
tp138
a(I57
I2
I0
S'normal'
p139
tp140
a(I78
I2
F0.375
S'much'
p141
tp142
a(I85
I0
F1.0
S'good'
p143
tp144
a(I123
I0
F1.0
S'good'
p145
tp146
a(I142
I0
F-0.875
S'unhappy'
p147
tp148
a(I177
I14
F0.375
S'honest'
p149
tp150
a(I181
I3
F0.625
S'decent'
p151
tp152
as(S'operating'
p153
S'system'
p154
tp155
(lp156
(I60
I3
F-0.75
S'bright'
p157
tp158
a(I178
I2
I0
S'android'
p159
tp160
as(S'apps'
p161
tp162
(lp163
(I3
I0
I0
S'many'
p164
tp165
a(I3
I0
F0.625
S'hold'
p166
tp167
a(I12
I0
F-0.25
S'google'
p168
tp169
a(I25
I0
I0
S'few'
p170
tp171
a(I25
I0
I0
S'useful'
p172
tp173
a(I66
I5
F-0.5
S'poor'
p174
tp175
a(I68
I5
I0
S'incredible'
p176
tp177
a(I81
I0
F-0.375
S'smooth'
p178
tp179
a(I83
I6
F-0.5
S'less'
p180
tp181
a(I85
I0
F1.0
S'good'
p182
tp183
a(I92
I1
I0
S'fewer'
p184
tp185
a(I104
I7
F1.0
S'good'
p186
tp187
a(I141
I4
F-0.375
S'simple'
p188
tp189
a(I162
I2
I0
S'limited'
p190
tp191
a(I172
I2
I0
S'more'
p192
tp193
a(I177
I3
F0.5
S'true'
p194
tp195
a(I177
I3
I0
S'many'
p196
tp197
a(I177
I6
I0
S'useful'
p198
tp199
a(I185
I25
F0.375
S'available'
p200
tp201
a(I185
I25
F-0.625
S'free'
p202
tp203
a(I185
I25
I0
S'great'
p204
tp205
as(S'quality'
p206
tp207
(lp208
(I13
I1
I0
S'high'
p209
tp210
a(I55
I0
F-0.5
S'poor'
p211
tp212
a(I130
I0
F1.0
S'good'
p213
tp214
a(I147
I4
F0.5
S'clear'
p215
tp216
a(I162
I2
F1.0
S'better'
p217
tp218
a(I176
I0
F1.0
S'good'
p219
tp220
a(I187
I1
I0
S'great'
p221
tp222
as(S'product'
p223
tp224
(lp225
(I6
I3
I0
S'least'
p226
tp227
a(I18
I0
F-0.625
S'bad'
p228
tp229
a(I18
I0
F-0.625
S'bad'
p230
tp231
a(I19
I0
F0.75
S'beautiful'
p232
tp233
a(I27
I0
F0.375
S'strange'
p234
tp235
a(I29
I0
F0.5
S'shown'
p236
tp237
a(I34
I0
I0
S'great'
p238
tp239
a(I71
I1
F1.0
S'good'
p240
tp241
a(I80
I0
F-0.25
S'late'
p242
tp243
a(I80
I3
I0
S'old'
p244
tp245
a(I117
I1
F0.375
S'new'
p246
tp247
a(I206
I0
I0
S'great'
p248
tp249
as(S'lumia'
p250
tp251
(lp252
(I20
I4
F-0.75
S'sad'
p253
tp254
a(I20
I11
F0.25
S'used'
p255
tp256
a(I25
I0
F1.0
S'best'
p257
tp258
a(I68
I4
I0
S'least'
p259
tp260
a(I169
I0
F0.25
S'unlocked'
p261
tp262
a(I171
I6
I0
S'own'
p263
tp264
a(I212
I0
F-0.375
S'simple'
p265
tp266
as(S'windows'
p267
tp268
(lp269
(I60
I4
I0
S'old'
p270
tp271
a(I69
I3
I0
S'fourth'
p272
tp273
a(I83
I0
F-0.125
S'super'
p274
tp275
a(I116
I1
F0.375
g124
tp276
a(I154
I2
F0.375
S'new'
p277
tp278
a(I176
I1
F0.625
S'easy'
p279
tp280
a(I194
I0
F0.125
g132
tp281
as(S'pictures'
p282
tp283
(lp284
(I185
I3
I0
S'great'
p285
tp286
a(I186
I6
I0
S'great'
p287
tp288
as(S'features'
p289
tp290
(lp291
(I100
I1
F-0.625
S'other'
p292
tp293
a(I100
I1
I0
S'great'
p294
tp295
a(I104
I0
F0.875
S'nice'
p296
tp297
a(I127
I2
F-0.625
S'other'
p298
tp299
a(I189
I0
I0
S'such'
p300
tp301
a(I195
I1
I0
S'great'
p302
tp303
a(I195
I1
F0.625
S'easy'
p304
tp305
a(I196
I2
F0.375
S'new'
p306
tp307
as(S'people'
p308
tp309
(lp310
(I20
I11
F-0.25
S'disappointed'
p311
tp312
a(I33
I1
I0
S'many'
p313
tp314
a(I43
I0
I0
S'many'
p315
tp316
a(I43
I1
F-0.625
S'other'
p317
tp318
a(I61
I0
F0.625
S'responsible'
p319
tp320
a(I109
I3
F0.5
S'careful'
p321
tp322
a(I178
I3
F0.875
S'important'
p323
tp324
as(S'unlock'
p325
tp326
(lp327
(I158
I0
F0.5
S'true'
p328
tp329
a(I188
I1
F0.125
S'key'
p330
tp331
as(S'factory'
p332
tp333
(lp334
(I59
I0
F0.75
S'receive'
p335
tp336
a(I93
I0
F1.0
S'good'
p337
tp338
a(I190
I0
F0.375
S'meant'
p339
tp340
as(S'experience'
p341
tp342
(lp343
(I10
I1
F-0.625
S'bad'
p344
tp345
a(I91
I11
I0
S'great'
p346
tp347
as(S'seller'
p348
tp349
(lp350
(I108
I1
F1.0
S'good'
p351
tp352
a(I179
I3
I0
S'great'
p353
tp354
a(I188
I1
F-0.625
S'free'
p355
tp356
as(S'user'
p357
tp358
(lp359
(I72
I0
F-0.375
S'manual'
p360
tp361
as(S'works'
p362
tp363
(lp364
(I67
I0
I0
S'internet'
p365
tp366
a(I147
I2
F-0.625
S'clean'
p367
tp368
as(S'battery'
p369
tp370
(lp371
(I20
I8
F-0.75
S'dead'
p372
tp373
a(I47
I1
F0.125
S'last'
p374
tp375
a(I77
I1
F-0.625
g40
tp376
a(I159
I0
I0
g42
tp377
a(I167
I1
I0
S'charged'
p378
tp379
a(I177
I11
F0.125
S'last'
p380
tp381
a(I185
I15
F-0.5
S'less'
p382
tp383
a(I185
I16
F-0.5
S'longer'
p384
tp385
a(I185
I18
I0
S'faster'
p386
tp387
as(S'store'
p388
tp389
(lp390
(I44
I2
I0
S'large'
p391
tp392
a(I177
I15
F-0.625
S'free'
p393
tp394
as(S'software'
p395
tp396
(lp397
(I92
I1
I0
S'great'
p398
tp399
a(I92
I1
F-0.75
S'short'
p400
tp401
as(S'anyone'
p402
tp403
(lp404
(I20
I11
F-0.75
S'stupid'
p405
tp406
a(I85
I11
F-0.375
S'happen'
p407
tp408
as(S'nokia'
p409
tp410
(lp411
(I33
I1
F-0.25
S'google'
p412
tp413
a(I101
I0
F-0.5
S'long'
p414
tp415
a(I109
I2
F0.25
S'original'
p416
tp417
a(I141
I5
I0
S'big'
p418
tp419
a(I167
I0
F0.125
S'key'
p420
tp421
a(I170
I1
I0
S'many'
p422
tp423
a(I184
I0
I0
S'serial'
p424
tp425
as(S'first'
p426
S'time'
p427
tp428
(lp429
(I50
I0
F0.125
S'first'
p430
tp431
a(I76
I2
F0.125
S'first'
p432
tp433
a(I132
I2
F0.125
S'first'
p434
tp435
a(I148
I5
F0.125
S'first'
p436
tp437
a(I163
I2
F0.125
S'first'
p438
tp439
as(S'thing'
p440
tp441
(lp442
(I5
I4
F1.0
S'good'
p443
tp444
a(I26
I0
I0
S'only'
p445
tp446
a(I44
I2
I0
S'only'
p447
tp448
a(I91
I9
I0
S'only'
p449
tp450
a(I132
I5
I0
S'same'
p451
tp452
a(I132
I6
F0.375
S'loudest'
p453
tp454
a(I153
I0
F0.125
S'impressive'
p455
tp456
a(I177
I19
F1.0
S'best'
p457
tp458
a(I177
I20
F-0.5
S'try'
p459
tp460
a(I190
I2
F-0.625
S'other'
p461
tp462
a(I200
I0
I0
S'such'
p463
tp464
as(S'sim'
p465
S'card'
p466
tp467
(lp468
(I148
I5
F0.375
S'new'
p469
tp470
as(S'charge'
p471
tp472
(lp473
(I84
I1
F0.125
S'last'
p474
tp475
a(I192
I7
I0
S'rapid'
p476
tp477
as(S'device'
p478
tp479
(lp480
(I84
I2
I0
S'big'
p481
tp482
a(I84
I2
F-0.5
S'heavy'
p483
tp484
a(I102
I0
F0.125
S'first'
p485
tp486
a(I102
I1
F0.5
S'second'
p487
tp488
a(I102
I1
F0.875
S'important'
p489
tp490
as(S'like'
p491
S'windows'
p492
tp493
(lp494
(I116
I1
F0.375
g124
tp495
as(S'looking'
p496
tp497
(lp498
(I202
I0
F0.875
S'nice'
p499
tp500
as(S'brand'
p501
tp502
(lp503
(I46
I2
F0.375
S'new'
p504
tp505
a(I69
I4
F0.375
S'new'
p506
tp507
a(I154
I0
F0.375
S'new'
p508
tp509
a(I182
I3
F0.375
S'new'
p510
tp511
a(I192
I11
F0.375
S'new'
p512
tp513
as(S'time'
p514
tp515
(lp516
(I30
I0
F0.5
S'shown'
p517
tp518
a(I47
I1
F-0.5
S'long'
p519
tp520
a(I50
I0
F0.125
g430
tp521
a(I76
I2
F0.125
g432
tp522
a(I123
I5
F0.375
S'much'
p523
tp524
a(I129
I4
I0
S'arrive'
p525
tp526
a(I132
I2
F0.125
g434
tp527
a(I141
I5
F-0.5
S'long'
p528
tp529
a(I148
I5
F0.125
g436
tp530
a(I163
I2
F0.125
g438
tp531
a(I164
I0
F1.0
S'best'
p532
tp533
a(I173
I1
F0.5
S'second'
p534
tp535
a(I196
I3
F0.125
S'enough'
p536
tp537
a(I204
I0
F0.5
S'second'
p538
tp539
as(S'price'
p540
tp541
(lp542
(I47
I0
F0.875
S'nice'
p543
tp544
a(I53
I0
F1.0
S'good'
p545
tp546
a(I69
I4
F-0.5
S'less'
p547
tp548
a(I181
I1
I0
S'great'
p549
tp550
a(I191
I0
F0.625
S'perfect'
p551
tp552
a(I212
I2
F1.0
S'good'
p553
tp554
as(S'charger'
p555
tp556
(lp557
(I185
I19
F0.375
S'available'
p558
tp559
as(S'nokia'
p560
S'lumia'
p561
tp562
(lp563
(I33
I1
F-0.25
g412
tp564
a(I109
I2
F0.25
g416
tp565
a(I169
I0
F0.25
g261
tp566
a(I212
I0
F-0.375
g265
tp567
as(S'review'
p568
tp569
(lp570
(I28
I1
I0
S'more'
p571
tp572
a(I123
I5
F-0.875
S'negative'
p573
tp574
a(I190
I3
F-0.875
S'negative'
p575
tp576
as(S'cell'
p577
tp578
(lp579
(I97
I1
I0
S'rubbish'
p580
tp581
a(I177
I12
I0
S'most'
p582
tp583
a(I180
I0
F0.875
S'nice'
p584
tp585
a(I184
I0
I0
S'technician'
p586
tp587
as(S'life'
p588
tp589
(lp590
(I26
I0
F1.0
g36
tp591
a(I60
I1
F0.625
g38
tp592
a(I159
I0
I0
g44
tp593
a(I185
I14
F-0.5
g46
tp594
as(S'reason'
p595
tp596
(lp597
(I132
I0
I0
S'only'
p598
tp599
a(I142
I0
F0.5
S'whole'
p600
tp601
a(I172
I1
F-0.25
S'hang'
p602
tp603
a(I185
I20
F-0.125
S'blackberry'
p604
tp605
as(S'every'
p606
tp607
(lp608
(I192
I11
F0.75
S'worth'
p609
tp610
as.