(dp0
(S'life'
p1
tp2
(lp3
(I87
I6
I0
S'more'
p4
tp5
a(I90
I2
F1.0
S'good'
p6
tp7
a(I90
I2
I0
S'wish'
p8
tp9
a(I115
I1
F0.625
S'perfect'
p10
tp11
a(I148
I2
F1.0
S'good'
p12
tp13
a(I150
I2
F0.375
S'extended'
p14
tp15
a(I150
I6
I0
S'great'
p16
tp17
a(I152
I0
I0
S'great'
p18
tp19
a(I162
I3
F0.125
S'last'
p20
tp21
a(I191
I14
F1.0
S'good'
p22
tp23
as(S'problem'
p24
tp25
(lp26
(I31
I14
I0
S'common'
p27
tp28
a(I31
I15
I0
S'specific'
p29
tp30
a(I48
I0
I0
S'only'
p31
tp32
a(I96
I1
I0
S'only'
p33
tp34
a(I116
I2
I0
S'only'
p35
tp36
as(S'metro'
p37
S'pcs'
p38
tp39
(lp40
(I11
I1
F0.75
S'worth'
p41
tp42
a(I14
I2
I0
S'same'
p43
tp44
a(I50
I1
F0.125
S'first'
p45
tp46
a(I126
I4
I0
S'great'
p47
tp48
a(I179
I0
F1.0
S'good'
p49
tp50
a(I183
I12
F-0.75
S'wrong'
p51
tp52
a(I185
I1
F0.375
S'new'
p53
tp54
as(S'battery'
p55
S'life'
p56
tp57
(lp58
(I24
I3
F0.625
S'easy'
p59
tp60
a(I24
I3
F-0.5
S'longer'
p61
tp62
a(I33
I4
I0
S'great'
p63
tp64
a(I45
I4
F-0.5
S'less'
p65
tp66
a(I54
I1
I0
S'great'
p67
tp68
a(I87
I6
I0
g4
tp69
a(I90
I2
F1.0
g6
tp70
a(I90
I2
I0
g8
tp71
a(I104
I6
F-0.75
S'short'
p72
tp73
a(I115
I1
F0.625
g10
tp74
a(I142
I4
F1.0
S'better'
p75
tp76
a(I148
I2
F1.0
g12
tp77
a(I150
I1
F1.0
S'best'
p78
tp79
a(I150
I2
F0.375
g14
tp80
a(I150
I6
I0
g16
tp81
a(I152
I0
I0
S'fast'
p82
tp83
a(I152
I0
I0
g18
tp84
a(I162
I3
F0.125
g20
tp85
a(I191
I14
F0.625
S'necessary'
p86
tp87
a(I191
I14
F1.0
g22
tp88
as(S'purchase'
p89
tp90
(lp91
(I102
I1
F0.875
S'happy'
p92
tp93
a(I146
I6
I0
S'great'
p94
tp95
a(I161
I1
F0.875
S'happy'
p96
tp97
a(I177
I3
I0
S'great'
p98
tp99
a(I184
I1
F0.875
S'happy'
p100
tp101
a(I197
I4
F0.5
S'second'
p102
tp103
as(S'year'
p104
tp105
(lp106
(I77
I0
I0
S'great'
p107
tp108
a(I137
I3
F-0.125
S'cant'
p109
tp110
a(I137
I3
F0.5
S'live'
p111
tp112
a(I140
I11
F0.125
S'last'
p113
tp114
a(I151
I13
I0
S'later'
p115
tp116
as(S'smartphone'
p117
tp118
(lp119
(I39
I4
I0
S'basic'
p120
tp121
a(I80
I1
F0.625
S'easy'
p122
tp123
a(I80
I2
F-0.625
S'sorry'
p124
tp125
a(I103
I8
F-0.375
S'simple'
p126
tp127
a(I168
I0
F0.375
S'new'
p128
tp129
a(I168
I0
F0.5
S'whole'
p130
tp131
a(I173
I6
F0.125
S'first'
p132
tp133
a(I174
I4
F0.125
S'first'
p134
tp135
a(I174
I18
I0
S'great'
p136
tp137
as(S'a'
p138
S'great'
p139
S'deal'
p140
tp141
(lp142
(I29
I8
I0
S'great'
p143
tp144
a(I31
I11
I0
S'great'
p145
tp146
a(I62
I7
I0
S'great'
p147
tp148
a(I104
I6
I0
S'big'
p149
tp150
a(I104
I6
F0.125
S'able'
p151
tp152
a(I119
I7
F-0.125
S'overall'
p153
tp154
a(I119
I7
I0
S'great'
p155
tp156
a(I176
I0
F1.0
S'better'
p157
tp158
a(I183
I2
I0
S'great'
p159
tp160
as(S'something'
p161
tp162
(lp163
(I70
I73
F-0.5
S'open'
p164
tp165
a(I173
I7
F1.0
S'good'
p166
tp167
a(I173
I7
F0.375
S'similar'
p168
tp169
as(S'money'
p170
tp171
(lp172
(I45
I8
F0.375
S'extra'
p173
tp174
a(I118
I0
F-0.125
S'mine'
p175
tp176
as(S'happy'
p177
tp178
(lp179
(I4
I0
F-0.125
S'super'
p180
tp181
as(S'screen'
p182
tp183
(lp184
(I23
I0
F-0.375
S'small'
p185
tp186
a(I24
I2
I0
S'cool'
p187
tp188
a(I45
I3
F0.25
S'bigger'
p189
tp190
a(I45
I3
F0.25
S'larger'
p191
tp192
a(I56
I2
F-0.375
S'black'
p193
tp194
a(I56
I3
F-0.375
S'black'
p195
tp196
a(I62
I2
I0
S'very'
p197
tp198
a(I62
I2
F-0.375
S'small'
p199
tp200
a(I62
I4
F-0.375
S'small'
p201
tp202
a(I70
I12
F0.25
S'responsive'
p203
tp204
a(I70
I15
F-0.375
S'smaller'
p205
tp206
a(I70
I15
F1.0
S'better'
p207
tp208
a(I70
I17
F0.25
S'larger'
p209
tp210
a(I99
I12
F0.25
S'bigger'
p211
tp212
a(I99
I13
F0.875
S'nice'
p213
tp214
a(I104
I6
F-0.375
S'small'
p215
tp216
a(I108
I2
I0
S'wish'
p217
tp218
a(I108
I2
F0.25
S'bigger'
p219
tp220
a(I110
I0
F-0.375
S'small'
p221
tp222
a(I110
I0
F-0.625
S'other'
p223
tp224
a(I129
I7
F-0.625
S'want'
p225
tp226
a(I138
I2
I0
S'fast'
p227
tp228
a(I138
I2
F-0.375
S'small'
p229
tp230
a(I142
I7
F-0.375
S'small'
p231
tp232
a(I142
I12
F0.25
S'biggest'
p233
tp234
a(I157
I2
I0
S'large'
p235
tp236
a(I163
I6
I0
S'big'
p237
tp238
a(I167
I6
F-0.625
S'clean'
p239
tp240
a(I168
I4
I0
S'big'
p241
tp242
a(I174
I20
F0.25
S'sharp'
p243
tp244
a(I174
I20
I0
S'big'
p245
tp246
a(I177
I2
F0.25
S'bigger'
p247
tp248
a(I179
I11
F-0.625
S'bad'
p249
tp250
a(I188
I11
F1.0
S'better'
p251
tp252
a(I188
I22
F-0.25
S'pop-up'
p253
tp254
as(S'case'
p255
tp256
(lp257
(I70
I53
F-0.75
S'worse'
p258
tp259
a(I174
I11
I0
S'sensitive'
p260
tp261
as(S'service'
p262
tp263
(lp264
(I33
I11
I0
S'great'
p265
tp266
a(I45
I9
I0
S'great'
p267
tp268
a(I74
I13
I0
S'great'
p269
tp270
a(I192
I3
F0.625
S'decent'
p271
tp272
a(I194
I0
I0
S'fast'
p273
tp274
as(S'everything'
p275
tp276
(lp277
(I9
I1
F0.5
S'possible'
p278
tp279
a(I75
I0
F1.0
S'good'
p280
tp281
a(I92
I1
F0.625
S'positive'
p282
tp283
a(I103
I2
F-0.5
S'sure'
p284
tp285
a(I174
I6
I0
S'such'
p286
tp287
a(I184
I0
I0
S'website'
p288
tp289
as(S'problems'
p290
tp291
(lp292
(I56
I5
I0
S"o'clock"
p293
tp294
a(I56
I5
I0
S'such'
p295
tp296
a(I70
I79
F0.375
S'similar'
p297
tp298
a(I104
I6
I0
S'initial'
p299
tp300
a(I150
I16
I0
S'only'
p301
tp302
a(I150
I16
I0
S'real'
p303
tp304
a(I151
I12
I0
S'many'
p305
tp306
as(S'samsung'
p307
tp308
(lp309
(I65
I0
F1.0
S'better'
p310
tp311
a(I185
I3
F-0.75
S'short'
p312
tp313
as(S'cream'
p314
S'sandwich'
p315
tp316
(lp317
(I29
I5
I0
S'android'
p318
tp319
as(S'mine'
p320
tp321
(lp322
(I6
I5
F0.375
S'new'
p323
tp324
a(I191
I13
F1.0
S'good'
p325
tp326
as(S'need'
p327
tp328
(lp329
(I70
I6
F-0.5
S'less'
p330
tp331
as(S'camera'
p332
tp333
(lp334
(I46
I0
F1.0
S'good'
p335
tp336
a(I70
I34
I0
S'quick'
p337
tp338
a(I70
I34
F0.25
S'responsive'
p339
tp340
a(I70
I61
F-0.75
S'sufficient'
p341
tp342
a(I87
I4
F0.625
S'acceptable'
p343
tp344
a(I87
I6
I0
S'great'
p345
tp346
a(I145
I3
F1.0
S'good'
p347
tp348
a(I148
I6
F1.0
S'good'
p349
tp350
a(I154
I4
F0.875
S'nice'
p351
tp352
a(I156
I4
F1.0
S'best'
p353
tp354
a(I169
I0
F-0.25
S'yellow'
p355
tp356
a(I179
I26
I0
S'full'
p357
tp358
as(S'gorilla'
p359
S'glass'
p360
tp361
(lp362
(I24
I8
F0.5
S'stronger'
p363
tp364
a(I24
I8
F-0.5
S'regular'
p365
tp366
a(I79
I1
F-0.875
S'hard'
p367
tp368
a(I188
I9
F-0.75
S'tough'
p369
tp370
as(S'device'
p371
tp372
(lp373
(I70
I3
I0
S'carrier'
p374
tp375
a(I70
I6
I0
S'most'
p376
tp377
a(I70
I6
F0.875
S'important'
p378
tp379
a(I70
I43
F0.25
S'portable'
p380
tp381
a(I70
I80
F-0.625
S'bad'
p382
tp383
a(I70
I84
F-0.125
S'overall'
p384
tp385
as(S'highly'
p386
S'recommend'
p387
tp388
(lp389
(I191
I18
F0.375
S'reliable'
p390
tp391
as(S'month'
p392
tp393
(lp394
(I9
I2
F0.5
S'whole'
p395
tp396
a(I33
I11
F-0.25
S'past'
p397
tp398
a(I74
I15
F1.0
S'good'
p399
tp400
a(I99
I5
I0
S'later'
p401
tp402
a(I99
I5
I0
S'more'
p403
tp404
a(I140
I5
F0.125
S'last'
p405
tp406
a(I192
I7
F0.5
S'second'
p407
tp408
a(I192
I8
I0
S'more'
p409
tp410
a(I197
I2
F-0.75
S'little'
p411
tp412
as(S'with'
p413
S'metro'
p414
S'pcs'
p415
tp416
(lp417
(I179
I0
F1.0
g49
tp418
a(I183
I12
F-0.75
g51
tp419
as(S'front'
p420
tp421
(lp422
(I29
I2
F-0.75
S'difficult'
p423
tp424
a(I178
I9
I0
S'fast'
p425
tp426
a(I178
I9
F-0.625
S'clean'
p427
tp428
a(I188
I7
F0.375
S'new'
p429
tp430
as(S'1'
p431
S'5'
p432
S'ghz'
p433
tp434
(lp435
(I87
I6
I0
S'android'
p436
tp437
as(S'front'
p438
S'facing'
p439
S'camera'
p440
tp441
(lp442
(I87
I6
I0
g345
tp443
a(I154
I4
I0
S'rear'
p444
tp445
a(I154
I4
F0.875
g351
tp446
a(I188
I7
F0.375
g429
tp447
as(S'quality'
p448
tp449
(lp450
(I34
I3
F1.0
S'good'
p451
tp452
a(I62
I1
F1.0
S'better'
p453
tp454
a(I79
I1
F-0.625
S'average'
p455
tp456
a(I126
I3
F1.0
S'good'
p457
tp458
a(I129
I2
I0
S'high'
p459
tp460
a(I129
I2
F0.5
S'live'
p461
tp462
a(I138
I3
F-0.625
S'bad'
p463
tp464
a(I154
I4
F1.0
S'good'
p465
tp466
a(I156
I8
I0
S'okey'
p467
tp468
a(I157
I11
I0
S'great'
p469
tp470
a(I172
I3
I0
S'great'
p471
tp472
a(I174
I12
I0
S'fast'
p473
tp474
a(I176
I0
I0
S'great'
p475
tp476
a(I179
I29
F-0.625
S'bad'
p477
tp478
as(S'memory'
p479
tp480
(lp481
(I32
I1
I0
S'internal'
p482
tp483
a(I35
I5
I0
S'internal'
p484
tp485
a(I49
I3
I0
S'internal'
p486
tp487
a(I54
I1
I0
S'internal'
p488
tp489
a(I87
I5
F0.375
S'available'
p490
tp491
a(I127
I1
I0
S'more'
p492
tp493
a(I127
I1
F0.625
S'easy'
p494
tp495
a(I154
I3
I0
S'internal'
p496
tp497
a(I156
I3
I0
S'internal'
p498
tp499
a(I156
I3
I0
S'external'
p500
tp501
a(I177
I4
I0
S'internal'
p502
tp503
a(I188
I1
I0
S'internal'
p504
tp505
a(I188
I32
I0
S'internal'
p506
tp507
a(I191
I12
F-0.625
S'fresh'
p508
tp509
as(S'system'
p510
tp511
(lp512
(I70
I40
I0
S'russian'
p513
tp514
a(I74
I4
I0
S'most'
p515
tp516
a(I86
I4
I0
S'close'
p517
tp518
a(I119
I1
I0
S'android'
p519
tp520
as(S'lg'
p521
S'motion'
p522
tp523
(lp524
(I35
I2
F0.125
S'first'
p525
tp526
a(I45
I2
F0.125
S'further'
p527
tp528
a(I74
I9
F0.375
S'new'
p529
tp530
a(I85
I1
F-0.25
S'cheaper'
p531
tp532
a(I188
I40
F0.125
S'further'
p533
tp534
as(S'every'
p535
S'penny'
p536
tp537
(lp538
(I189
I0
F0.75
S'worth'
p539
tp540
as(S'features'
p541
tp542
(lp543
(I37
I16
I0
S'more'
p544
tp545
a(I59
I1
I0
S'great'
p546
tp547
a(I129
I2
F0.375
S'available'
p548
tp549
a(I129
I2
I0
S'many'
p550
tp551
a(I130
I1
I0
S'more'
p552
tp553
a(I167
I3
I0
S'full'
p554
tp555
a(I174
I12
I0
S'many'
p556
tp557
a(I174
I12
I0
S'great'
p558
tp559
a(I188
I4
I0
S'basic'
p560
tp561
a(I188
I5
I0
S'many'
p562
tp563
as(S'operating'
p564
S'system'
p565
tp566
(lp567
(I74
I4
I0
S'android'
p568
tp569
a(I74
I4
I0
g515
tp570
a(I86
I4
I0
g517
tp571
a(I191
I18
F0.25
S'recent'
p572
tp573
as(g138
S'great'
p574
S'price'
p575
tp576
(lp577
(I29
I2
I0
S'great'
p578
tp579
a(I87
I6
F-0.25
S'higher'
p580
tp581
a(I101
I0
I0
S'great'
p582
tp583
a(I146
I0
I0
S'great'
p584
tp585
a(I167
I0
I0
S'great'
p586
tp587
a(I174
I19
I0
S'great'
p588
tp589
a(I183
I3
I0
S'great'
p590
tp591
a(I193
I0
I0
S'great'
p592
tp593
a(I196
I0
F1.0
S'better'
p594
tp595
as(S'internal'
p596
S'storage'
p597
tp598
(lp599
(I45
I0
I0
S'internal'
p600
tp601
a(I51
I8
I0
S'internal'
p602
tp603
a(I51
I8
F1.0
S'good'
p604
tp605
as(S'of'
p606
S'nternal'
p607
S'memory'
p608
tp609
(lp610
(I32
I1
I0
g482
tp611
a(I35
I5
I0
g484
tp612
a(I49
I3
I0
g486
tp613
a(I54
I1
I0
g488
tp614
a(I154
I3
I0
g496
tp615
a(I188
I1
I0
g504
tp616
a(I188
I32
I0
g506
tp617
as(S'great'
p618
S'for'
p619
S'price'
p620
tp621
(lp622
(I29
I2
I0
g578
tp623
a(I87
I6
F-0.25
g580
tp624
a(I101
I0
I0
g582
tp625
a(I167
I0
I0
g586
tp626
a(I196
I0
F1.0
g594
tp627
as(g431
S'2'
p628
S'ghz'
p629
tp630
(lp631
(I87
I6
I0
g436
tp632
a(I188
I13
I0
S'quick'
p633
tp634
as(S'video'
p635
tp636
(lp637
(I51
I12
I0
S'android'
p638
tp639
a(I157
I8
F-0.625
S'other'
p640
tp641
a(I179
I29
F0.875
S'music'
p642
tp643
as(S'processor'
p644
tp645
(lp646
(I46
I0
I0
S'fast'
p647
tp648
a(I88
I3
F-0.75
S'toughest'
p649
tp650
a(I126
I1
F1.0
S'good'
p651
tp652
as(S'android'
p653
tp654
(lp655
(I3
I0
I0
S'old'
p656
tp657
a(I51
I17
F0.125
S'first'
p658
tp659
a(I51
I19
F0.125
S'first'
p660
tp661
a(I59
I4
I0
S'great'
p662
tp663
a(I62
I7
F1.0
S'best'
p664
tp665
a(I117
I0
F0.125
S'first'
p666
tp667
a(I119
I0
F0.375
S'new'
p668
tp669
a(I148
I3
F0.125
S'first'
p670
tp671
a(I174
I3
F0.125
S'first'
p672
tp673
as(S'plan'
p674
tp675
(lp676
(I86
I2
I0
S'most'
p677
tp678
a(I173
I3
F-0.25
S'cheapest'
p679
tp680
a(I173
I9
F-0.25
S'cheapest'
p681
tp682
a(I183
I13
I0
S'great'
p683
tp684
a(I183
I13
F0.375
S'new'
p685
tp686
a(I183
I13
F-0.5
S'unlimited'
p687
tp688
as(S'sound'
p689
tp690
(lp691
(I31
I11
F0.5
S'clear'
p692
tp693
a(I86
I17
F0.625
S'pleasant'
p694
tp695
a(I126
I2
F1.0
S'good'
p696
tp697
a(I157
I11
I0
S'more'
p698
tp699
as(S'ice'
p700
S'cream'
p701
tp702
(lp703
(I29
I5
F0.875
S'happy'
p704
tp705
as(g432
S'stars'
p706
tp707
(lp708
(I74
I13
F-0.75
S'wrong'
p709
tp710
as(S'back'
p711
tp712
(lp713
(I33
I7
I0
S'great'
p714
tp715
as(S'battery'
p716
tp717
(lp718
(I0
I2
F0.125
S'last'
p719
tp720
a(I24
I3
F0.625
g59
tp721
a(I24
I3
F-0.5
g61
tp722
a(I33
I4
I0
g63
tp723
a(I33
I5
I0
S'great'
p724
tp725
a(I35
I5
I0
S'competitive'
p726
tp727
a(I45
I4
F-0.5
g65
tp728
a(I45
I5
F0.125
S'enough'
p729
tp730
a(I54
I1
I0
g67
tp731
a(I62
I3
F1.0
S'good'
p732
tp733
a(I62
I4
F0.125
S'last'
p734
tp735
a(I62
I5
F0.125
S'last'
p736
tp737
a(I70
I65
F0.25
S'biggest'
p738
tp739
a(I78
I2
F0.625
S'kind'
p740
tp741
a(I104
I6
F-0.75
g72
tp742
a(I142
I4
F1.0
g75
tp743
a(I142
I7
F0.625
S'decent'
p744
tp745
a(I150
I1
F1.0
g78
tp746
a(I152
I0
I0
g82
tp747
a(I157
I5
F-0.375
S'simple'
p748
tp749
a(I159
I2
F0.375
S'extended'
p750
tp751
a(I159
I7
I0
S'standard'
p752
tp753
a(I159
I8
F0.375
S'extended'
p754
tp755
a(I159
I8
F0.375
S'much'
p756
tp757
a(I159
I8
F1.0
S'better'
p758
tp759
a(I191
I14
F0.625
g86
tp760
a(I191
I17
F-0.375
S'small'
p761
tp762
a(I191
I17
I0
S'external'
p763
tp764
as(S'store'
p765
tp766
(lp767
(I64
I4
F0.375
S'new'
p768
tp769
a(I104
I2
I0
S'corporate'
p770
tp771
a(I104
I4
F-0.375
S'nearest'
p772
tp773
a(I173
I3
F0.375
S'available'
p774
tp775
as(S'network'
p776
tp777
(lp778
(I130
I4
F1.0
S'good'
p779
tp780
a(I150
I10
I0
S'more'
p781
tp782
as(S'better'
p783
tp784
(lp785
(I31
I19
F0.375
S'stranger'
p786
tp787
a(I31
I19
F0.375
S'much'
p788
tp789
as(S'metro'
p790
tp791
(lp792
(I0
I2
I0
S'faster'
p793
tp794
a(I14
I2
I0
g43
tp795
a(I37
I11
I0
S'only'
p796
tp797
a(I50
I1
F0.125
g45
tp798
a(I64
I4
I0
S'local'
p799
tp800
a(I73
I0
I0
S'old'
p801
tp802
a(I87
I6
I0
S'many'
p803
tp804
a(I87
I6
F1.0
S'best'
p805
tp806
a(I94
I0
I0
S'corporate'
p807
tp808
a(I179
I0
F1.0
g49
tp809
a(I181
I1
I0
S'great'
p810
tp811
a(I183
I12
F-0.75
g51
tp812
a(I185
I1
F0.375
g53
tp813
a(I185
I3
F1.0
S'best'
p814
tp815
a(I197
I4
I0
S'local'
p816
tp817
as(S'thing'
p818
tp819
(lp820
(I6
I2
I0
S'only'
p821
tp822
a(I6
I6
F-0.625
S'other'
p823
tp824
a(I11
I3
I0
S'big'
p825
tp826
a(I29
I6
F-0.625
S'glad'
p827
tp828
a(I29
I6
I0
S'more'
p829
tp830
a(I32
I15
F1.0
S'good'
p831
tp832
a(I45
I3
F-0.75
S'single'
p833
tp834
a(I88
I5
F0.375
S'much'
p835
tp836
a(I88
I5
F-0.875
S'hard'
p837
tp838
a(I88
I5
F-0.625
S'other'
p839
tp840
a(I125
I1
I0
S'only'
p841
tp842
a(I136
I1
I0
S'same'
p843
tp844
a(I143
I0
F0.125
S'first'
p845
tp846
a(I157
I1
F0.25
S'main'
p847
tp848
a(I157
I2
I0
S'great'
p849
tp850
a(I173
I1
I0
S'sprint'
p851
tp852
a(I173
I1
I0
S'same'
p853
tp854
a(I175
I0
I0
S'same'
p855
tp856
a(I179
I1
I0
S'great'
p857
tp858
a(I191
I10
I0
S'funny'
p859
tp860
as(S'sim'
p861
S'card'
p862
tp863
(lp864
(I1
I0
I0
S'net'
p865
tp866
a(I1
I0
F0.5
S'compatible'
p867
tp868
a(I68
I1
F0.5
S'told'
p869
tp870
a(I68
I1
F-0.75
S'invalid'
p871
tp872
a(I68
I3
F0.375
S'new'
p873
tp874
a(I68
I4
F0.375
S'new'
p875
tp876
a(I135
I0
F0.375
S'new'
p877
tp878
as(S'charge'
p879
tp880
(lp881
(I70
I63
F-0.125
S'slow'
p882
tp883
a(I104
I0
F-0.625
S'free'
p884
tp885
a(I179
I25
I0
S'full'
p886
tp887
as(S'ce'
p888
S'cream'
p889
S'sandwich'
p890
tp891
(lp892
(I29
I5
I0
g318
tp893
as(S'works'
p894
tp895
(lp896
(I124
I0
F-0.75
S'little'
p897
tp898
a(I124
I0
F-0.375
S'small'
p899
tp900
a(I124
I0
F0.5
S'come'
p901
tp902
a(I150
I7
I0
S'same'
p903
tp904
as(S'quick'
p905
S'memo'
p906
tp907
(lp908
(I59
I1
I0
S'quick'
p909
tp910
a(I59
I1
I0
S'more'
p911
tp912
a(I188
I37
I0
S'quick'
p913
tp914
as(S'call'
p915
tp916
(lp917
(I33
I6
F1.0
S'good'
p918
tp919
as(S'motion'
p920
tp921
(lp922
(I85
I1
F-0.25
g531
tp923
a(I88
I7
I0
S'many'
p924
tp925
a(I88
I9
I0
S'active'
p926
tp927
as(S'recommend'
p928
tp929
(lp930
(I191
I18
F0.375
g390
tp931
as(S'price'
p932
tp933
(lp934
(I24
I11
F-0.5
S'regular'
p935
tp936
a(I24
I12
F-0.5
S'regular'
p937
tp938
a(I29
I2
I0
g578
tp939
a(I35
I6
F0.125
S'last'
p940
tp941
a(I35
I6
I0
S'least'
p942
tp943
a(I39
I4
F0.5
S'reasonable'
p944
tp945
a(I39
I4
F0.5
S'functional'
p946
tp947
a(I49
I5
F-0.25
S'cheapest'
p948
tp949
a(I49
I5
F-0.125
S'mine'
p950
tp951
a(I78
I0
F-0.25
S'low'
p952
tp953
a(I78
I0
F-0.125
S'mine'
p954
tp955
a(I87
I6
F-0.25
g580
tp956
a(I101
I0
I0
g582
tp957
a(I109
I1
F-0.625
S'other'
p958
tp959
a(I130
I2
F1.0
S'better'
p960
tp961
a(I136
I6
I0
S'full'
p962
tp963
a(I138
I5
F-0.75
S'wrong'
p964
tp965
a(I146
I0
I0
g584
tp966
a(I147
I0
F1.0
S'better'
p967
tp968
a(I167
I0
I0
g586
tp969
a(I174
I2
I0
S'unbelievable'
p970
tp971
a(I174
I19
I0
g588
tp972
a(I177
I1
F1.0
S'good'
p973
tp974
a(I183
I3
I0
g590
tp975
a(I193
I0
I0
g592
tp976
a(I196
I0
F1.0
g594
tp977
as(S'time'
p978
tp979
(lp980
(I32
I13
F0.5
S'second'
p981
tp982
a(I35
I8
F1.0
S'good'
p983
tp984
a(I50
I3
F-0.625
S'other'
p985
tp986
a(I50
I3
F0.125
S'key'
p987
tp988
a(I70
I57
I0
S'same'
p989
tp990
a(I76
I0
F0.125
S'first'
p991
tp992
a(I79
I6
I0
S'android'
p993
tp994
a(I86
I18
F-0.125
S'traffic'
p995
tp996
a(I103
I2
I0
S'more'
p997
tp998
a(I108
I3
F0.125
S'first'
p999
tp1000
a(I120
I0
I0
S'same'
p1001
tp1002
a(I129
I2
I0
S'same'
p1003
tp1004
a(I136
I22
F0.125
S'last'
p1005
tp1006
a(I140
I11
F-0.875
S'hard'
p1007
tp1008
a(I151
I15
F0.125
S'first'
p1009
tp1010
a(I167
I3
F-0.5
S'long'
p1011
tp1012
a(I173
I5
F-0.875
S'hard'
p1013
tp1014
a(I179
I12
F0.125
S'first'
p1015
tp1016
a(I179
I12
F0.125
S'able'
p1017
tp1018
a(I179
I19
F0.125
S'first'
p1019
tp1020
a(I185
I8
F0.5
S'buy'
p1021
tp1022
a(I188
I15
I0
S'website'
p1023
tp1024
a(I188
I38
I0
S'same'
p1025
tp1026
as(S'data'
p1027
tp1028
(lp1029
(I157
I8
I0
S'high'
p1030
tp1031
a(I183
I10
F0.375
S'available'
p1032
tp1033
a(I183
I10
I0
S'fast'
p1034
tp1035
as(S'metropcs'
p1036
tp1037
(lp1038
(I35
I2
F0.125
S'first'
p1039
tp1040
a(I35
I8
F-0.25
S'past'
p1041
tp1042
a(I54
I2
F-0.25
S'low'
p1043
tp1044
a(I68
I1
F-0.125
S'mine'
p1045
tp1046
a(I68
I2
F0.5
S'eligible'
p1047
tp1048
a(I74
I2
I0
S'local'
p1049
tp1050
a(I79
I9
F0.375
S'scare'
p1051
tp1052
a(I95
I0
I0
S'old'
p1053
tp1054
a(I118
I0
F0.5
S'bought'
p1055
tp1056
a(I135
I1
I0
S'website'
p1057
tp1058
a(I142
I12
F1.0
S'best'
p1059
tp1060
a(I150
I14
F1.0
S'best'
p1061
tp1062
a(I178
I0
I0
S'awhile'
p1063
tp1064
as(S'card'
p1065
tp1066
(lp1067
(I1
I0
I0
g865
tp1068
a(I1
I0
F0.5
g867
tp1069
a(I68
I1
F-0.75
g871
tp1070
a(I135
I0
F0.375
g877
tp1071
as(S'love'
p1072
tp1073
(lp1074
(I189
I0
F0.625
S'perfect'
p1075
tp1076
as(S'00'
p1077
g138
S'month'
p1078
tp1079
(lp1080
(I99
I5
I0
g401
tp1081
a(I99
I5
I0
g403
tp1082
as(S'review'
p1083
tp1084
(lp1085
(I51
I0
F0.125
S'first'
p1086
tp1087
a(I70
I51
I0
S'full'
p1088
tp1089
a(I70
I51
I0
S'navigate'
p1090
tp1091
a(I70
I80
F-0.25
S'google'
p1092
tp1093
a(I70
I91
I0
S'own'
p1094
tp1095
a(I129
I6
F0.375
S'busy'
p1096
tp1097
a(I129
I6
F0.25
S'professional'
p1098
tp1099
as(S'hours'
p1100
tp1101
(lp1102
(I0
I2
I0
S'more'
p1103
tp1104
a(I24
I6
I0
S'full'
p1105
tp1106
a(I24
I6
I0
S'few'
p1107
tp1108
a(I32
I7
F-0.75
S'dead'
p1109
tp1110
a(I70
I78
I0
S'few'
p1111
tp1112
a(I174
I18
I0
S'few'
p1113
tp1114
as(S'work'
p1115
tp1116
(lp1117
(I32
I18
F1.0
S'better'
p1118
tp1119
as(S'super'
p1120
S'fast'
p1121
tp1122
(lp1123
(I58
I1
F-0.125
S'super'
p1124
tp1125
a(I58
I1
F-0.375
S'small'
p1126
tp1127
a(I110
I0
F-0.125
S'super'
p1128
tp1129
a(I110
I0
I0
S'only'
p1130
tp1131
a(I162
I3
F-0.125
S'super'
p1132
tp1133
as(S'apps'
p1134
tp1135
(lp1136
(I7
I1
I0
S'more'
p1137
tp1138
a(I27
I1
I0
S'many'
p1139
tp1140
a(I61
I3
I0
S'many'
p1141
tp1142
a(I62
I5
I0
S'different'
p1143
tp1144
a(I70
I17
I0
S'spatial'
p1145
tp1146
a(I70
I49
I0
S'most'
p1147
tp1148
a(I101
I1
F0.875
S'music'
p1149
tp1150
a(I143
I0
F0.625
S'easy'
p1151
tp1152
a(I174
I15
F-0.625
S'other'
p1153
tp1154
as(S'nternal'
p1155
S'memory'
p1156
tp1157
(lp1158
(I32
I1
I0
g482
tp1159
a(I35
I5
I0
g484
tp1160
a(I49
I3
I0
g486
tp1161
a(I54
I1
I0
g488
tp1162
a(I154
I3
I0
g496
tp1163
a(I156
I3
I0
g498
tp1164
a(I156
I3
I0
g500
tp1165
a(I177
I4
I0
g502
tp1166
a(I188
I1
I0
g504
tp1167
a(I188
I32
I0
g506
tp1168
as(S'sound'
p1169
S'quality'
p1170
tp1171
(lp1172
(I79
I1
F-0.625
g455
tp1173
a(I157
I11
I0
g469
tp1174
a(I157
I11
I0
g698
tp1175
a(I172
I3
I0
g471
tp1176
a(I174
I12
I0
g473
tp1177
a(I179
I29
F-0.625
g477
tp1178
as(S'4g'
p1179
S'lte'
p1180
tp1181
(lp1182
(I196
I0
F0.375
S'new'
p1183
tp1184
as(S'fast'
p1185
tp1186
(lp1187
(I58
I1
F-0.125
g1124
tp1188
a(I110
I0
F-0.125
g1128
tp1189
a(I110
I0
I0
g1130
tp1190
a(I162
I3
F-0.125
g1132
tp1191
as(S'calls'
p1192
tp1193
(lp1194
(I33
I11
F-0.375
S'static'
p1195
tp1196
a(I86
I11
F0.5
S'clear'
p1197
tp1198
a(I118
I0
F0.125
S'able'
p1199
tp1200
a(I188
I29
F-0.5
S'unwanted'
p1201
tp1202
as.