(dp0
(S'battery'
p1
S'life'
p2
tp3
(lp4
(I13
I8
F-0.5
S'longest'
p5
I1
tp6
a(I20
I0
F-0.75
S'short'
p7
I1
tp8
a(I13
I8
F-0.5
g5
I15
tp9
a(I21
I0
F-0.375
S'robust'
p10
I15
tp11
a(I21
I0
F-0.625
S'bad'
p12
I15
tp13
a(I27
I1
F0.125
S'last'
p14
I15
tp15
as(S'sony'
p16
S'xperia'
p17
tp18
(lp19
(I13
I2
I0
S'latest'
p20
I0
tp21
a(I13
I2
F0.875
S'attractive'
p22
I0
tp23
a(I20
I0
F1.0
S'best'
p24
I0
tp25
a(I13
I2
F0.875
g22
I5
tp26
a(I20
I0
F1.0
g24
I5
tp27
a(I21
I3
F0.125
S'fan'
p28
I5
tp29
as(S'only'
p30
S'thing'
p31
tp32
(lp33
(I3
I2
I0
S'only'
p34
I13
tp35
a(I14
I2
I0
S'only'
p36
I13
tp37
a(I15
I1
I0
S'only'
p38
I13
tp39
a(I24
I4
I0
S'only'
p40
I13
tp41
as(S'camera'
p42
tp43
(lp44
(I2
I4
I0
S'great'
p45
I1
tp46
a(I5
I12
F1.0
S'good'
p47
I1
tp48
a(I6
I2
F1.0
S'best'
p49
I1
tp50
a(I20
I0
F1.0
S'good'
p51
I1
tp52
a(I20
I0
F1.0
S'best'
p53
I1
tp54
a(I20
I0
I0
S'great'
p55
I1
tp56
a(I21
I0
I0
S'great'
p57
I1
tp58
a(I21
I2
F1.0
S'best'
p59
I1
tp60
as.