(dp0
(S'apple'
p1
S'store'
p2
tp3
(lp4
(I2
I66
I0
S'apple'
p5
I0
tp6
a(I9
I4
F0.125
S'able'
p7
I4
tp8
a(I12
I0
I0
S'great'
p9
I4
tp10
a(I24
I4
F0.125
S'first'
p11
I4
tp12
as(S'happy'
p13
S'with'
p14
S'purchase'
p15
tp16
(lp17
(I25
I3
F0.875
S'happy'
p18
I0
tp19
a(I32
I14
F0.875
S'happy'
p20
I0
tp21
as(S'thanks'
p22
tp23
(lp24
(I31
I3
F-0.75
S'ill'
p25
I12
tp26
as(S'power'
p27
S'adapter'
p28
tp29
(lp30
(I38
I1
I0
S'cable'
p31
I2
tp32
a(I38
I8
I0
S'cable'
p33
I2
tp34
as(S'service'
p35
tp36
(lp37
(I19
I0
F0.625
S'easy'
p38
I16
tp39
a(I36
I18
I0
S'cellular'
p40
I16
tp41
a(I45
I2
I0
S'great'
p42
I16
tp43
as(S'mobile'
p44
tp45
(lp46
(I30
I1
F0.375
S'new'
p47
I0
tp48
a(I30
I1
F0.375
S'new'
p49
I0
tp50
as(S'a'
p51
S'great'
p52
S'price'
p53
tp54
(lp55
(I2
I32
F-0.25
S'low'
p56
I9
tp57
a(I2
I72
I0
S'great'
p58
I9
tp59
a(I3
I14
I0
S'great'
p60
I9
tp61
a(I6
I2
F-0.625
S'other'
p62
I9
tp63
a(I6
I2
F0.375
S'new'
p64
I9
tp65
a(I13
I1
I0
S'great'
p66
I9
tp67
a(I25
I10
I0
S'great'
p68
I9
tp69
a(I31
I16
I0
S'great'
p70
I9
tp71
a(I34
I21
F-0.625
S'other'
p72
I9
tp73
a(I34
I21
F0.375
S'new'
p74
I9
tp75
a(I35
I0
I0
S'great'
p76
I9
tp77
a(I37
I12
I0
S'great'
p78
I9
tp79
a(I42
I0
I0
S'great'
p80
I9
tp81
a(I2
I32
F-0.25
g56
I19
tp82
a(I2
I72
I0
g58
I19
tp83
a(I3
I14
I0
g60
I19
tp84
a(I6
I2
F-0.625
g62
I19
tp85
a(I6
I2
F0.375
g64
I19
tp86
a(I13
I1
I0
g66
I19
tp87
a(I25
I10
I0
g68
I19
tp88
a(I31
I16
I0
g70
I19
tp89
a(I34
I21
F-0.625
g72
I19
tp90
a(I34
I21
F0.375
g74
I19
tp91
a(I35
I0
I0
g76
I19
tp92
a(I37
I12
I0
g78
I19
tp93
a(I42
I0
I0
g80
I19
tp94
as(S'iphones'
p95
tp96
(lp97
(I3
I7
F0.5
S'possible'
p98
I0
tp99
a(I31
I5
I0
S'more'
p100
I0
tp101
a(I37
I7
F-0.625
S'bad'
p102
I0
tp103
a(I41
I14
F0.375
S'new'
p104
I0
tp105
as(S'seller'
p106
tp107
(lp108
(I2
I31
F1.0
S'good'
p109
I19
tp110
a(I11
I0
I0
S'different'
p111
I19
tp112
a(I11
I6
I0
S'different'
p113
I19
tp114
a(I37
I20
F-0.625
S'glad'
p115
I19
tp116
as(S'battery'
p117
tp118
(lp119
(I2
I68
F1.0
S'good'
p120
I15
tp121
a(I7
I7
F1.0
S'good'
p122
I15
tp123
a(I8
I23
I0
S'next'
p124
I15
tp125
a(I12
I0
F-0.875
S'trouble'
p126
I15
tp127
a(I40
I20
I0
S'great'
p128
I15
tp129
a(I47
I9
F1.0
S'good'
p130
I15
tp131
as(S'good'
p132
S'condition'
p133
tp134
(lp135
(I0
I6
F1.0
S'good'
p136
I6
tp137
a(I2
I49
F1.0
S'good'
p138
I6
tp139
a(I12
I1
F1.0
S'good'
p140
I6
tp141
a(I15
I0
F1.0
S'good'
p142
I6
tp143
a(I24
I6
F-0.125
S'overall'
p144
I6
tp145
a(I24
I6
F1.0
S'good'
p146
I6
tp147
a(I34
I10
F1.0
S'good'
p148
I6
tp149
a(I40
I4
F-0.625
S'clean'
p150
I6
tp151
a(I40
I4
F1.0
S'good'
p152
I6
tp153
a(I40
I29
F1.0
S'good'
p154
I6
tp155
as(S'iphone'
p156
S'3gs'
p157
tp158
(lp159
(I15
I19
F-0.375
S'locked'
p160
I0
tp161
a(I23
I7
F0.625
S'aware'
p162
I0
tp163
a(I26
I6
F0.25
S'used'
p164
I0
tp165
a(I30
I20
I0
S'fast'
p166
I0
tp167
a(I30
I20
I0
S'current'
p168
I0
tp169
a(I37
I22
F0.375
S'new'
p170
I0
tp171
a(I40
I13
F0.375
S'new'
p172
I0
tp173
a(I0
I15
I0
S'own'
p174
I1
tp175
a(I1
I17
F0.375
S'new'
p176
I1
tp177
a(I2
I75
F-0.625
S'bad'
p178
I1
tp179
a(I3
I0
F0.375
S'new'
p180
I1
tp181
a(I7
I5
F0.625
S'beat'
p182
I1
tp183
a(I9
I5
F0.875
S'happy'
p184
I1
tp185
a(I15
I19
F-0.375
g160
I1
tp186
a(I18
I9
F0.375
S'new'
p187
I1
tp188
a(I18
I14
I0
S'older'
p189
I1
tp190
a(I23
I7
F0.625
g162
I1
tp191
a(I24
I0
F0.375
S'new'
p192
I1
tp193
a(I26
I3
I0
S'old'
p194
I1
tp195
a(I26
I6
F0.25
g164
I1
tp196
a(I26
I20
F0.75
S'due'
p197
I1
tp198
a(I29
I6
F0.375
S'new'
p199
I1
tp200
a(I30
I11
I0
S'current'
p201
I1
tp202
a(I30
I20
I0
g166
I1
tp203
a(I30
I20
I0
g168
I1
tp204
a(I31
I0
I0
S'same'
p205
I1
tp206
a(I31
I9
I0
S'faster'
p207
I1
tp208
a(I31
I14
F-0.5
S'afraid'
p209
I1
tp210
a(I32
I3
F0.5
S'personal'
p211
I1
tp212
a(I37
I3
F0.375
S'new'
p213
I1
tp214
a(I40
I9
F0.375
S'much'
p215
I1
tp216
a(I40
I13
F0.375
g172
I1
tp217
a(I43
I1
F0.375
S'new'
p218
I1
tp219
a(I43
I4
F0.375
S'new'
p220
I1
tp221
a(I45
I8
F0.125
S'first'
p222
I1
tp223
a(I46
I7
F0.875
S'music'
p224
I1
tp225
as(S'sim'
p226
S'card'
p227
tp228
(lp229
(I2
I93
F0.625
S'perfect'
p230
I0
tp231
a(I34
I38
F0.125
S'valid'
p232
I0
tp233
as(S'serial'
p234
S'number'
p235
tp236
(lp237
(I29
I0
I0
S'serial'
p238
I0
tp239
a(I29
I1
I0
S'serial'
p240
I0
tp241
a(I29
I3
F-0.625
S'sorry'
p242
I0
tp243
a(I29
I3
I0
S'serial'
p244
I0
tp245
a(I29
I4
I0
S'serial'
p246
I0
tp247
a(I29
I5
I0
S'warranty'
p248
I0
tp249
a(I29
I5
I0
S'serial'
p250
I0
tp251
as(S'carrier'
p252
tp253
(lp254
(I2
I6
I0
S'specific'
p255
I1
tp256
a(I2
I98
F0.375
S'new'
p257
I1
tp258
as(S'factory'
p259
tp260
(lp261
(I8
I12
F0.625
S'perfect'
p262
I2
tp263
a(I23
I1
F0.375
S'new'
p264
I2
tp265
a(I25
I14
F0.125
S'able'
p266
I2
tp267
a(I34
I13
F0.375
S'new'
p268
I2
tp269
a(I46
I5
I0
S'plastic'
p270
I2
tp271
as(S'in'
p272
S'original'
p273
S'box'
p274
tp275
(lp276
(I8
I2
F0.25
S'original'
p277
I0
tp278
a(I8
I2
F0.375
S'complete'
p279
I0
tp280
a(I8
I3
F0.25
S'original'
p281
I0
tp282
a(I9
I3
F0.25
S'original'
p283
I0
tp284
a(I13
I10
F0.25
S'original'
p285
I0
tp286
a(I18
I0
F0.25
S'original'
p287
I0
tp288
a(I30
I9
F0.25
S'original'
p289
I0
tp290
a(I8
I2
F0.25
g277
I2
tp291
a(I8
I2
F0.375
g279
I2
tp292
a(I8
I3
F0.25
g281
I2
tp293
a(I9
I3
F0.25
g283
I2
tp294
a(I13
I10
F0.25
g285
I2
tp295
a(I18
I0
F0.25
g287
I2
tp296
a(I30
I9
F0.25
g289
I2
tp297
as(S'newer'
p298
S'version'
p299
tp300
(lp301
(I25
I11
F0.375
S'newer'
p302
I1
tp303
a(I38
I6
F0.375
S'newer'
p304
I1
tp305
a(I40
I8
F0.375
S'newer'
p306
I1
tp307
as(S'apps'
p308
tp309
(lp310
(I17
I11
F0.625
S'easy'
p311
I0
tp312
a(I17
I11
F-0.25
S'potential'
p313
I0
tp314
a(I43
I4
I0
S'different'
p315
I0
tp316
as(S'amazon'
p317
tp318
(lp319
(I3
I9
F0.375
S'new'
p320
I13
tp321
as.