(dp0
(S'screen'
p1
S'size'
p2
tp3
(lp4
(I14
I37
F-0.75
S'bright'
p5
I3
tp6
a(I17
I6
F-0.75
S'bright'
p7
I3
tp8
as(S'samsung'
p9
S'galaxy'
p10
S'note'
p11
tp12
(lp13
(I29
I2
F-0.375
S'smaller'
p14
I0
tp15
a(I21
I203
F-0.75
S'wrong'
p16
I0
tp17
a(I21
I203
F0.375
S'extra'
p18
I0
tp19
a(I21
I245
I0
S'great'
p20
I0
tp21
a(I21
I245
F-0.375
S'vary'
p22
I0
tp23
a(I21
I245
F0.5
S'compatible'
p24
I0
tp25
a(I29
I2
F-0.375
g14
I0
tp26
a(I21
I203
F-0.75
g16
I0
tp27
a(I21
I203
F0.375
g18
I0
tp28
a(I21
I245
I0
g20
I0
tp29
a(I21
I245
F-0.375
g22
I0
tp30
a(I21
I245
F0.5
g24
I0
tp31
as(S'google'
p32
S'play'
p33
tp34
(lp35
(I9
I66
F-0.25
S'google'
p36
I0
tp37
a(I29
I77
F-0.25
S'google'
p38
I0
tp39
as(S'name'
p40
S'brand'
p41
tp42
(lp43
(I22
I35
F0.5
S'willing'
p44
I0
tp45
a(I35
I4
I0
S'own'
p46
I0
tp47
as(S'battery'
p48
S'life'
p49
tp50
(lp51
(I14
I42
F0.125
S'last'
p52
I1
tp53
a(I20
I0
I0
S'such'
p54
I1
tp55
a(I21
I56
I0
S'great'
p56
I1
tp57
a(I21
I56
F1.0
S'good'
p58
I1
tp59
a(I21
I98
F-0.5
S'long'
p60
I1
tp61
a(I21
I137
F-0.5
S'less'
p62
I1
tp63
a(I21
I140
F0.125
S'last'
p64
I1
tp65
a(I24
I48
F-0.75
S'likely'
p66
I1
tp67
a(I14
I42
F0.125
g52
I19
tp68
a(I20
I0
I0
g54
I19
tp69
a(I21
I56
F1.0
g58
I19
tp70
a(I21
I98
F-0.5
g60
I19
tp71
a(I21
I140
F0.125
g64
I19
tp72
a(I22
I0
F0.125
S'last'
p73
I19
tp74
a(I24
I48
F-0.75
g66
I19
tp75
a(I9
I73
F0.375
S'extra'
p76
I15
tp77
a(I9
I73
I0
S'great'
p78
I15
tp79
a(I9
I75
F-0.375
S'smaller'
p80
I15
tp81
a(I9
I75
I0
S'large'
p82
I15
tp83
a(I9
I87
F1.0
S'good'
p84
I15
tp85
a(I14
I58
F0.125
S'last'
p86
I15
tp87
a(I21
I56
I0
g56
I15
tp88
a(I21
I137
F-0.5
g62
I15
tp89
a(I21
I243
F-0.75
S'dead'
p90
I15
tp91
a(I22
I46
F0.375
S'extra'
p92
I15
tp93
as(S'service'
p94
tp95
(lp96
(I1
I34
I0
S'same'
p97
I16
tp98
a(I11
I7
I0
S'great'
p99
I16
tp100
a(I22
I2
I0
S'great'
p101
I16
tp102
a(I23
I1
I0
S'full'
p103
I16
tp104
a(I24
I5
I0
S'same'
p105
I16
tp106
as(S'2'
p107
S'days'
p108
tp109
(lp110
(I1
I53
F0.125
S'first'
p111
I3
tp112
a(I21
I81
F0.875
S'happy'
p113
I3
tp114
as(S'camera'
p115
tp116
(lp117
(I1
I69
F1.0
S'good'
p118
I1
tp119
a(I9
I17
F1.0
S'good'
p120
I1
tp121
a(I14
I26
F-0.625
S'other'
p122
I1
tp123
a(I14
I124
F-0.5
S'poor'
p124
I1
tp125
a(I21
I117
F0.375
S'extra'
p126
I1
tp127
a(I21
I117
I0
S'many'
p128
I1
tp129
a(I21
I151
F0.625
S'alright'
p130
I1
tp131
a(I29
I41
F1.0
S'good'
p132
I1
tp133
as(S'a'
p134
S'galaxy'
p135
S'note'
p136
tp137
(lp138
(I21
I203
F-0.75
g16
I0
tp139
a(I21
I203
F0.375
g18
I0
tp140
a(I21
I245
I0
g20
I0
tp141
a(I21
I245
F-0.375
g22
I0
tp142
a(I21
I245
F0.5
g24
I0
tp143
a(I29
I2
F-0.375
g14
I0
tp144
as(S'find'
p145
g134
S'case'
p146
tp147
(lp148
(I1
I23
F0.125
S'able'
p149
I0
tp150
a(I3
I22
F-0.75
S'difficult'
p151
I0
tp152
a(I7
I1
F-0.75
S'difficult'
p153
I0
tp154
a(I7
I1
F0.875
S'nice'
p155
I0
tp156
a(I9
I9
F-0.875
S'hard'
p157
I0
tp158
a(I11
I18
I0
S'only'
p159
I0
tp160
a(I35
I42
I0
S'large'
p161
I0
tp162
a(I35
I42
F0.125
S'protective'
p163
I0
tp164
as(S'memory'
p165
tp166
(lp167
(I2
I2
I0
S'internal'
p168
I5
tp169
a(I14
I56
I0
S'great'
p170
I5
tp171
as(S'on'
p172
S'straight'
p173
S'talk'
p174
tp175
(lp176
(I1
I41
F0.625
S'straight'
p177
I0
tp178
a(I1
I44
F0.625
S'straight'
p179
I0
tp180
a(I5
I8
F0.625
S'straight'
p181
I0
tp182
a(I5
I8
F1.0
S'good'
p183
I0
tp184
a(I9
I40
F0.625
S'straight'
p185
I0
tp186
a(I9
I63
F0.625
S'straight'
p187
I0
tp188
a(I14
I33
F0.625
S'straight'
p189
I0
tp190
a(I14
I36
F0.625
S'straight'
p191
I0
tp192
a(I14
I59
F0.625
S'straight'
p193
I0
tp194
a(I14
I60
F0.625
S'straight'
p195
I0
tp196
a(I14
I74
F0.625
S'straight'
p197
I0
tp198
a(I17
I2
F0.625
S'straight'
p199
I0
tp200
a(I17
I5
F0.625
S'straight'
p201
I0
tp202
a(I21
I43
F0.125
S'able'
p203
I0
tp204
a(I21
I228
F0.625
S'straight'
p205
I0
tp206
a(I24
I20
F0.625
S'straight'
p207
I0
tp208
a(I24
I34
F0.625
S'straight'
p209
I0
tp210
a(I25
I26
F0.625
S'straight'
p211
I0
tp212
a(I29
I15
F0.625
S'straight'
p213
I0
tp214
a(I35
I29
F0.625
S'straight'
p215
I0
tp216
as(S'talk'
p217
S'sim'
p218
S'card'
p219
tp220
(lp221
(I14
I59
F0.625
g193
I0
tp222
a(I14
I74
F0.625
g197
I0
tp223
a(I14
I74
I0
S'older'
p224
I0
tp225
a(I24
I20
F0.625
g207
I0
tp226
a(I25
I26
F0.625
g211
I0
tp227
a(I1
I44
F0.625
g179
I0
tp228
a(I14
I33
F0.625
g189
I0
tp229
a(I14
I59
F0.625
g193
I0
tp230
a(I14
I74
F0.625
g197
I0
tp231
a(I14
I74
I0
g224
I0
tp232
a(I17
I2
F0.625
g199
I0
tp233
a(I24
I20
F0.625
g207
I0
tp234
a(I25
I26
F0.625
g211
I0
tp235
a(I29
I15
F0.625
g213
I0
tp236
a(I1
I65
F1.0
S'better'
p237
I0
tp238
a(I14
I10
F-0.625
S'other'
p239
I0
tp240
a(I14
I74
I0
g224
I0
tp241
a(I22
I73
F-0.125
S'slow'
p242
I0
tp243
a(I1
I39
F0.625
S'straight'
p244
I13
tp245
a(I1
I41
F0.625
g177
I13
tp246
a(I1
I44
F0.625
g179
I13
tp247
a(I3
I14
F0.625
S'straight'
p248
I13
tp249
a(I5
I8
F0.625
g181
I13
tp250
a(I5
I8
F1.0
g183
I13
tp251
a(I9
I40
F0.625
g185
I13
tp252
a(I9
I63
F0.625
g187
I13
tp253
a(I14
I33
F0.625
g189
I13
tp254
a(I14
I36
F0.625
g191
I13
tp255
a(I14
I59
F0.625
g193
I13
tp256
a(I14
I60
F0.625
g195
I13
tp257
a(I14
I74
F0.625
g197
I13
tp258
a(I17
I2
F0.625
g199
I13
tp259
a(I17
I5
F0.625
g201
I13
tp260
a(I21
I228
F0.625
g205
I13
tp261
a(I24
I20
F0.625
g207
I13
tp262
a(I24
I34
F0.625
g209
I13
tp263
a(I25
I26
F0.625
g211
I13
tp264
a(I29
I15
F0.625
g213
I13
tp265
a(I35
I29
F0.625
g215
I13
tp266
as(S'batteries'
p267
tp268
(lp269
(I14
I1
I0
S'included'
p270
I3
tp271
a(I25
I40
I0
S'more'
p272
I3
tp273
as(S'sd'
p274
S'card'
p275
tp276
(lp277
(I21
I42
F-0.25
S'higher'
p278
I0
tp279
as(S'seller'
p280
tp281
(lp282
(I1
I2
F-0.125
S'mine'
p283
I19
tp284
a(I3
I3
I0
S'great'
p285
I19
tp286
a(I9
I44
I0
S'great'
p287
I19
tp288
a(I14
I90
F0.5
S'told'
p289
I19
tp290
as(S'weeks'
p291
tp292
(lp293
(I9
I35
I0
S'few'
p294
I18
tp295
a(I9
I69
I0
S'entire'
p296
I18
tp297
a(I10
I6
F1.0
S'good'
p298
I18
tp299
a(I21
I48
F0.125
S'able'
p300
I18
tp301
a(I21
I71
F1.0
S'good'
p302
I18
tp303
a(I21
I75
I0
S'few'
p304
I18
tp305
a(I21
I119
I0
S'few'
p306
I18
tp307
a(I21
I119
I0
S'info'
p308
I18
tp309
a(I21
I121
I0
S'few'
p310
I18
tp311
as(S'large'
p312
S'screen'
p313
tp314
(lp315
(I1
I21
I0
S'large'
p316
I3
tp317
a(I14
I58
I0
S'large'
p318
I3
tp319
a(I14
I58
F0.625
S'perfect'
p320
I3
tp321
a(I24
I25
I0
S'large'
p322
I3
tp323
a(I29
I4
I0
S'large'
p324
I3
tp325
a(I35
I6
F0.25
S'larger'
p326
I3
tp327
a(I35
I35
I0
S'large'
p328
I3
tp329
as(S'apps'
p330
tp331
(lp332
(I9
I55
I0
S'download'
p333
I0
tp334
a(I14
I26
F0.375
S'available'
p335
I0
tp336
a(I14
I102
F1.0
S'good'
p337
I0
tp338
a(I21
I97
F-0.5
S'certain'
p339
I0
tp340
a(I21
I176
F-0.5
S'certain'
p341
I0
tp342
a(I22
I29
I0
S'great'
p343
I0
tp344
as(S'straight'
p345
S'talk'
p346
S'sim'
p347
tp348
(lp349
(I1
I44
F0.625
g179
I0
tp350
a(I14
I33
F0.625
g189
I0
tp351
a(I14
I59
F0.625
g193
I0
tp352
a(I14
I74
F0.625
g197
I0
tp353
a(I14
I74
I0
g224
I0
tp354
a(I17
I2
F0.625
g199
I0
tp355
a(I21
I43
F0.125
g203
I0
tp356
a(I24
I20
F0.625
g207
I0
tp357
a(I25
I26
F0.625
g211
I0
tp358
a(I29
I15
F0.625
g213
I0
tp359
a(I1
I39
F0.625
g244
I0
tp360
a(I1
I41
F0.625
g177
I0
tp361
a(I1
I44
F0.625
g179
I0
tp362
a(I3
I14
F0.625
g248
I0
tp363
a(I5
I8
F0.625
g181
I0
tp364
a(I5
I8
F1.0
g183
I0
tp365
a(I9
I40
F0.625
g185
I0
tp366
a(I9
I63
F0.625
g187
I0
tp367
a(I14
I33
F0.625
g189
I0
tp368
a(I14
I36
F0.625
g191
I0
tp369
a(I14
I59
F0.625
g193
I0
tp370
a(I14
I60
F0.625
g195
I0
tp371
a(I14
I74
F0.625
g197
I0
tp372
a(I17
I2
F0.625
g199
I0
tp373
a(I17
I5
F0.625
g201
I0
tp374
a(I21
I43
F0.125
g203
I0
tp375
a(I21
I228
F0.625
g205
I0
tp376
a(I24
I20
F0.625
g207
I0
tp377
a(I24
I34
F0.625
g209
I0
tp378
a(I25
I26
F0.625
g211
I0
tp379
a(I29
I15
F0.625
g213
I0
tp380
a(I35
I29
F0.625
g215
I0
tp381
a(I21
I43
F0.125
g203
I17
tp382
as(S'network'
p383
tp384
(lp385
(I29
I6
I0
S'mobile'
p386
I0
tp387
a(I29
I60
F0.125
S'able'
p388
I0
tp389
a(I29
I80
F-0.625
S'fresh'
p390
I0
tp391
as(S'simple'
p392
S'mobile'
p393
tp394
(lp395
(I4
I8
I0
S'mobile'
p396
I0
tp397
a(I4
I10
I0
S'mobile'
p398
I0
tp399
a(I22
I73
F-0.375
S'simple'
p400
I0
tp401
a(I6
I1
F0.5
S'told'
p402
I0
tp403
a(I22
I73
F-0.375
g400
I0
tp404
as(S'screen'
p405
S'protector'
p406
tp407
(lp408
(I1
I5
F0.625
S'perfect'
p409
I4
tp410
a(I2
I1
F0.875
S'nice'
p411
I4
tp412
as(S'calls'
p413
tp414
(lp415
(I14
I2
F-0.875
S'trouble'
p416
I0
tp417
a(I19
I0
F-0.25
S'dropped'
p418
I0
tp419
a(I21
I153
I0
S'great'
p420
I0
tp421
as(S'call'
p422
S'log'
p423
tp424
(lp425
(I21
I169
F0.5
S'rid'
p426
I0
tp427
as(g134
S'straight'
p428
S'talk'
p429
tp430
(lp431
(I1
I39
F0.625
g244
I0
tp432
a(I1
I41
F0.625
g177
I0
tp433
a(I1
I44
F0.625
g179
I0
tp434
a(I3
I14
F0.625
g248
I0
tp435
a(I5
I8
F0.625
g181
I0
tp436
a(I5
I8
F1.0
g183
I0
tp437
a(I9
I40
F0.625
g185
I0
tp438
a(I9
I63
F0.625
g187
I0
tp439
a(I14
I33
F0.625
g189
I0
tp440
a(I14
I36
F0.625
g191
I0
tp441
a(I14
I59
F0.625
g193
I0
tp442
a(I14
I60
F0.625
g195
I0
tp443
a(I14
I74
F0.625
g197
I0
tp444
a(I17
I2
F0.625
g199
I0
tp445
a(I17
I5
F0.625
g201
I0
tp446
a(I21
I43
F0.125
g203
I0
tp447
a(I21
I228
F0.625
g205
I0
tp448
a(I24
I20
F0.625
g207
I0
tp449
a(I24
I34
F0.625
g209
I0
tp450
a(I25
I26
F0.625
g211
I0
tp451
a(I29
I15
F0.625
g213
I0
tp452
a(I35
I29
F0.625
g215
I0
tp453
as(S'quad'
p454
S'core'
p455
tp456
(lp457
(I22
I12
F-0.75
S'single'
p458
I0
tp459
as(S'in'
p460
S'3'
p461
S'days'
p462
tp463
(lp464
(I1
I53
F0.125
g111
I0
tp465
a(I1
I53
F0.125
g111
I2
tp466
as(S'web'
p467
S'site'
p468
tp469
(lp470
(I14
I74
I0
S'different'
p471
I1
tp472
as(S'international'
p473
S'version'
p474
tp475
(lp476
(I14
I53
F-0.5
S'international'
p477
I0
tp478
a(I14
I54
F-0.5
S'international'
p479
I0
tp480
a(I25
I21
F-0.5
S'international'
p481
I0
tp482
as(S'internet'
p483
tp484
(lp485
(I9
I93
I0
S'most'
p486
I6
tp487
a(I14
I49
F-0.125
S'slow'
p488
I6
tp489
a(I21
I91
F-0.625
S'free'
p490
I6
tp491
a(I21
I188
F0.25
S'used'
p492
I6
tp493
a(I33
I1
F-0.125
S'slow'
p494
I6
tp495
a(I33
I1
F-0.75
S'wrong'
p496
I6
tp497
as(S'apn'
p498
S'settings'
p499
tp500
(lp501
(I21
I50
I0
S'more'
p502
I0
tp503
a(I21
I53
F0.25
S'original'
p504
I0
tp505
a(I21
I50
I0
g502
I1
tp506
a(I22
I64
I0
S'more'
p507
I1
tp508
a(I24
I46
F-0.25
S'low'
p509
I1
tp510
a(I29
I79
F0.375
S'enable'
p511
I1
tp512
as(S'wifi'
p513
tp514
(lp515
(I1
I50
F1.0
S'best'
p516
I0
tp517
a(I6
I2
F-0.625
S'other'
p518
I0
tp519
a(I10
I10
I0
S'great'
p520
I0
tp521
a(I17
I16
F1.0
S'best'
p522
I0
tp523
a(I17
I17
I0
S'more'
p524
I0
tp525
a(I17
I17
F0.375
S'reliable'
p526
I0
tp527
a(I29
I7
F1.0
S'good'
p528
I0
tp529
a(I36
I0
I0
S'signal'
p530
I0
tp531
a(I36
I0
F-0.5
S'weak'
p532
I0
tp533
as(S'china'
p534
tp535
(lp536
(I29
I57
F0.375
S'proud'
p537
I1
tp538
as(S'text'
p539
S'messaging'
p540
tp541
(lp542
(I25
I33
F0.625
S'easier'
p543
I0
tp544
a(I22
I37
I0
S'great'
p545
I18
tp546
a(I25
I33
F0.625
g543
I18
tp547
as(S'data'
p548
tp549
(lp550
(I21
I223
F-0.5
S'regular'
p551
I13
tp552
a(I21
I224
F-0.625
S'other'
p553
I13
tp554
as.