(dp0
(S'problem'
p1
tp2
(lp3
(I2
I6
I0
S'same'
p4
tp5
a(I17
I5
F-0.5
S'sure'
p6
tp7
a(I31
I13
F0.625
S'aware'
p8
tp9
a(I59
I6
I0
S'common'
p10
tp11
a(I83
I7
I0
S'same'
p12
tp13
a(I107
I0
F0.875
S'nice'
p14
tp15
a(I111
I8
F-0.625
S'free'
p16
tp17
a(I124
I9
F-0.375
S'small'
p18
tp19
as(S'something'
p20
tp21
(lp22
(I20
I15
I0
S'large'
p23
tp24
a(I20
I31
I0
S'curious'
p25
tp26
a(I20
I31
F0.375
S'much'
p27
tp28
a(I60
I1
F0.375
S'new'
p29
tp30
a(I74
I1
F0.5
S'incurable'
p31
tp32
a(I74
I2
F0.5
S'incurable'
p33
tp34
a(I100
I7
F-0.625
S'free'
p35
tp36
a(I110
I25
F-0.75
S'wrong'
p37
tp38
as(S'battery'
p39
S'life'
p40
tp41
(lp42
(I14
I6
F0.5
S'comparable'
p43
tp44
a(I19
I2
F-0.25
S'low'
p45
tp46
a(I20
I36
F0.625
S'acceptable'
p47
tp48
a(I20
I39
F-0.25
S'battery'
p49
tp50
a(I43
I12
F0.125
S'last'
p51
tp52
a(I48
I2
I0
S'close'
p53
tp54
a(I71
I0
F-0.75
S'short'
p55
tp56
a(I71
I0
I0
S'third'
p57
tp58
a(I74
I21
F0.875
S'happy'
p59
tp60
a(I89
I4
F1.0
S'better'
p61
tp62
a(I97
I1
F1.0
S'good'
p63
tp64
a(I101
I38
F0.125
S'solid'
p65
tp66
a(I101
I38
F0.625
S'removable'
p67
tp68
a(I116
I0
F-0.25
S'thin'
p69
tp70
a(I154
I4
F1.0
S'good'
p71
tp72
a(I154
I4
F0.375
S'extended'
p73
tp74
as(S'came'
p75
tp76
(lp77
(I79
I10
F-0.125
S'mine'
p78
tp79
as(S'text'
p80
tp81
(lp82
(I143
I3
F0.25
S'larger'
p83
tp84
a(I143
I4
F-0.25
S'google'
p85
tp86
a(I143
I4
F0.625
S'easy'
p87
tp88
as(S'galaxy'
p89
tp90
(lp91
(I24
I0
F0.25
S'original'
p92
tp93
a(I24
I9
F0.25
S'original'
p94
tp95
a(I59
I0
F-0.25
S'epic'
p96
tp97
a(I59
I0
F0.5
S'touch'
p98
tp99
a(I59
I1
F0.25
S'original'
p100
tp101
a(I59
I4
F0.375
S'new'
p102
tp103
a(I101
I5
F0.375
S'new'
p104
tp105
as(S'nice'
p106
tp107
(lp108
(I122
I0
I0
S'big'
p109
tp110
as(S'screen'
p111
tp112
(lp113
(I2
I3
F0.125
S'first'
p114
tp115
a(I14
I5
I0
S'big'
p116
tp117
a(I23
I7
F0.25
S'bigger'
p118
tp119
a(I24
I3
F1.0
S'good'
p120
tp121
a(I31
I2
F0.25
S'bigger'
p122
tp123
a(I37
I7
F-0.375
S'smaller'
p124
tp125
a(I39
I1
I0
S'great'
p126
tp127
a(I49
I4
I0
S'big'
p128
tp129
a(I49
I4
F-0.25
S'thin'
p130
tp131
a(I50
I0
F0.75
S'beautiful'
p132
tp133
a(I58
I9
F-0.375
S'small'
p134
tp135
a(I79
I0
F0.25
S'biggest'
p136
tp137
a(I79
I0
F0.375
S'available'
p138
tp139
a(I81
I15
F-0.375
S'black'
p140
tp141
a(I82
I2
I0
S'more'
p142
tp143
a(I82
I2
I0
S'large'
p144
tp145
a(I82
I2
F0.5
S'touch'
p146
tp147
a(I86
I11
F-0.5
S'cracked'
p148
tp149
a(I97
I3
F0.875
S'nice'
p150
tp151
a(I101
I16
F0.25
S'dim'
p152
tp153
a(I101
I44
F-0.375
S'black'
p154
tp155
a(I101
I52
I0
S'more'
p156
tp157
a(I103
I3
F0.25
S'sharp'
p158
tp159
a(I103
I5
I0
S'most'
p160
tp161
a(I126
I4
I0
S'big'
p162
tp163
a(I146
I2
F0.5
S'touch'
p164
tp165
a(I146
I6
F0.5
S'touch'
p166
tp167
a(I146
I10
F-0.5
S'poor'
p168
tp169
a(I146
I12
F0.5
S'touch'
p170
tp171
a(I156
I8
I0
S'wide'
p172
tp173
a(I162
I5
I0
S'big'
p174
tp175
a(I162
I17
I0
S'large'
p176
tp177
a(I164
I18
I0
S'big'
p178
tp179
a(I164
I32
F0.75
S'beautiful'
p180
tp181
a(I164
I33
I0
S'full'
p182
tp183
a(I173
I9
F0.625
S'easy'
p184
tp185
as(S'sound'
p186
tp187
(lp188
(I42
I6
I0
S'great'
p189
tp190
a(I46
I0
F0.875
S'music'
p191
tp192
a(I46
I7
F0.875
S'music'
p193
tp194
a(I86
I15
F-0.5
S'sure'
p195
tp196
a(I101
I50
I0
S'integral'
p197
tp198
a(I101
I60
F0.25
S'effective'
p199
tp200
a(I142
I2
F1.0
S'good'
p201
tp202
as(S'service'
p203
tp204
(lp205
(I4
I2
I0
S'such'
p206
tp207
a(I4
I2
F-0.625
S'bad'
p208
tp209
a(I79
I11
F-0.625
S'free'
p210
tp211
a(I93
I1
I0
S'sprint'
p212
tp213
a(I93
I1
F1.0
S'good'
p214
tp215
a(I100
I1
F-0.5
S'international'
p216
tp217
a(I104
I1
I0
S'technician'
p218
tp219
a(I104
I6
F-0.625
S'sporadic'
p220
tp221
a(I162
I15
I0
S'quick'
p222
tp223
as(S'everything'
p224
tp225
(lp226
(I33
I1
F0.625
S'superior'
p227
tp228
a(I42
I10
I0
S'most'
p229
tp230
a(I81
I3
I0
S'quick'
p231
tp232
a(I96
I1
F0.625
S'kind'
p233
tp234
a(I162
I5
I0
S'large'
p235
tp236
a(I164
I10
I0
S'galaxy'
p237
tp238
a(I167
I5
I0
S'more'
p239
tp240
as(S'samsung'
p241
tp242
(lp243
(I9
I0
F0.375
S'new'
p244
tp245
a(I28
I0
F0.375
S'new'
p246
tp247
a(I31
I19
F-0.5
S'sure'
p248
tp249
a(I45
I1
F0.5
S'second'
p250
tp251
a(I59
I0
I0
S'many'
p252
tp253
a(I59
I0
F-0.625
S'other'
p254
tp255
a(I87
I3
F0.75
S'worth'
p256
tp257
a(I101
I7
F-0.375
S'smaller'
p258
tp259
a(I101
I7
F-0.625
S'lighter'
p260
tp261
a(I101
I39
I0
S'exclusive'
p262
tp263
a(I103
I7
I0
S'cool'
p264
tp265
a(I103
I7
I0
S'useful'
p266
tp267
a(I103
I17
F0.875
S'nice'
p268
tp269
a(I103
I17
I0
S'different'
p270
tp271
a(I119
I0
F0.25
S'original'
p272
tp273
a(I144
I0
F0.375
S'new'
p274
tp275
as(S'voice'
p276
tp277
(lp278
(I81
I8
F0.25
S'powerful'
p279
tp280
a(I164
I9
F-0.5
S'poor'
p281
tp282
a(I164
I13
F-0.25
S'google'
p283
tp284
a(I164
I13
I0
S'own'
p285
tp286
a(I164
I14
I0
S'own'
p287
tp288
as(S'back'
p289
tp290
(lp291
(I14
I0
F-0.625
S'light'
p292
tp293
a(I14
I0
F0.625
S'easy'
p294
tp295
a(I14
I0
F0.5
S'touch'
p296
tp297
a(I67
I3
F-0.5
S'open'
p298
tp299
a(I101
I55
I0
S'plastic'
p300
tp301
a(I107
I0
I0
S'plastic'
p302
tp303
as(S'camera'
p304
tp305
(lp306
(I2
I2
I0
S'great'
p307
tp308
a(I6
I0
F0.25
S'main'
p309
tp310
a(I14
I5
F1.0
S'better'
p311
tp312
a(I45
I11
F0.875
S'nice'
p313
tp314
a(I79
I2
F1.0
S'good'
p315
tp316
a(I101
I42
I0
S'such'
p317
tp318
a(I101
I50
I0
S'faster'
p319
tp320
a(I101
I68
F0.25
S'main'
p321
tp322
a(I101
I72
F0.125
S'last'
p323
tp324
a(I101
I75
I0
S'physical'
p325
tp326
a(I122
I0
I0
S'great'
p327
tp328
a(I126
I11
F-0.625
S'bad'
p329
tp330
as(S'home'
p331
S'screen'
p332
tp333
(lp334
(I97
I3
F0.875
g150
tp335
a(I101
I15
I0
S'physical'
p336
tp337
a(I167
I3
F-0.875
S'hard'
p338
tp339
as(S'sprint'
p340
tp341
(lp342
(I22
I6
I0
S'wish'
p343
tp344
a(I28
I14
F0.5
S'loyal'
p345
tp346
a(I45
I14
F0.125
S'fellow'
p347
tp348
a(I63
I4
I0
S'later'
p349
tp350
a(I71
I3
F-0.5
S'poor'
p351
tp352
a(I71
I9
F-0.625
S'other'
p353
tp354
a(I72
I1
I0
S'old'
p355
tp356
a(I73
I4
I0
S'traditional'
p357
tp358
a(I86
I9
I0
S'deductible'
p359
tp360
a(I101
I31
F0.375
S'new'
p361
tp362
a(I161
I0
F0.75
S'due'
p363
tp364
a(I161
I8
F-0.5
S'call'
p365
tp366
a(I166
I0
F0.375
S'new'
p367
tp368
a(I172
I6
I0
S'more'
p369
tp370
as(S'htc'
p371
S'evo'
p372
tp373
(lp374
(I43
I1
F-0.625
S'lighter'
p375
tp376
a(I135
I0
F-0.125
S'overall'
p377
tp378
a(I158
I3
I0
S'old'
p379
tp380
a(I164
I0
F0.25
S'original'
p381
tp382
as(S'quality'
p383
tp384
(lp385
(I8
I4
I0
S'high'
p386
tp387
a(I43
I3
I0
S'great'
p388
tp389
a(I81
I13
F0.625
S'decent'
p390
tp391
a(I81
I14
F-0.25
S'higher'
p392
tp393
a(I89
I2
F-0.625
S'average'
p394
tp395
a(I101
I21
F1.0
S'good'
p396
tp397
a(I110
I21
I0
S'great'
p398
tp399
a(I117
I1
F-0.125
S'overall'
p400
tp401
a(I149
I1
I0
S'great'
p402
tp403
a(I155
I5
F1.0
S'good'
p404
tp405
as(S'life'
p406
tp407
(lp408
(I14
I6
F0.5
g43
tp409
a(I20
I36
F0.625
g47
tp410
a(I20
I39
F-0.25
g49
tp411
a(I43
I12
F0.125
g51
tp412
a(I46
I2
F-0.75
S'worse'
p413
tp414
a(I48
I2
I0
g53
tp415
a(I97
I1
F1.0
g63
tp416
a(I154
I4
F1.0
g71
tp417
as(S'galaxy'
p418
S's3'
p419
tp420
(lp421
(I59
I4
F0.375
g102
tp422
a(I112
I3
I0
S'great'
p423
tp424
a(I166
I0
I0
S'galaxy'
p425
tp426
as(S'google'
p427
tp428
(lp429
(I50
I9
F0.125
S'popular'
p430
tp431
a(I155
I6
I0
S'own'
p432
tp433
as(S'features'
p434
tp435
(lp436
(I17
I2
I0
S'many'
p437
tp438
a(I17
I2
I0
S'great'
p439
tp440
a(I18
I2
F-0.625
S'other'
p441
tp442
a(I20
I37
F0.625
S'convenient'
p443
tp444
a(I20
I42
I0
S'many'
p445
tp446
a(I29
I1
F1.0
S'good'
p447
tp448
a(I29
I1
I0
S'great'
p449
tp450
a(I29
I1
F1.0
S'good'
p451
tp452
a(I44
I9
I0
S'many'
p453
tp454
a(I100
I9
I0
S'cool'
p455
tp456
a(I101
I42
F0.375
S'new'
p457
tp458
a(I101
I50
I0
S'few'
p459
tp460
a(I101
I50
F0.375
S'new'
p461
tp462
a(I103
I17
F0.875
S'nice'
p463
tp464
a(I104
I7
I0
S'great'
p465
tp466
a(I119
I1
F0.375
S'new'
p467
tp468
a(I143
I2
F0.625
S'easier'
p469
tp470
a(I156
I10
I0
S'most'
p471
tp472
a(I162
I24
F-0.625
S'other'
p473
tp474
a(I166
I6
I0
S'many'
p475
tp476
a(I172
I8
I0
S'great'
p477
tp478
as(S'things'
p479
tp480
(lp481
(I20
I38
I0
S'such'
p482
tp483
a(I38
I0
I0
S'many'
p484
tp485
a(I38
I0
I0
S'great'
p486
tp487
a(I43
I14
F0.25
S'main'
p488
tp489
a(I46
I2
I0
S'many'
p490
tp491
a(I50
I9
F0.375
S'similar'
p492
tp493
a(I50
I9
I0
S'more'
p494
tp495
a(I53
I0
I0
S'many'
p496
tp497
a(I101
I25
I0
S'many'
p498
tp499
a(I157
I2
I0
S'many'
p500
tp501
a(I157
I2
I0
S'different'
p502
tp503
a(I164
I0
I0
S'few'
p504
tp505
a(I164
I30
F1.0
S'good'
p506
tp507
a(I166
I8
F-0.75
S'worse'
p508
tp509
as(S'signal'
p510
tp511
(lp512
(I121
I0
I0
S'most'
p513
tp514
a(I121
I0
F-0.75
S'likely'
p515
tp516
as(S'samsung'
p517
S'galaxy'
p518
S's'
p519
tp520
(lp521
(I9
I0
F0.375
g244
tp522
a(I28
I0
F0.375
g246
tp523
a(I59
I0
I0
g252
tp524
a(I59
I0
F-0.625
g254
tp525
a(I59
I0
F-0.25
g96
tp526
a(I59
I0
F0.5
g98
tp527
a(I101
I7
F-0.375
g258
tp528
a(I101
I7
F-0.625
g260
tp529
a(I101
I39
I0
g262
tp530
a(I119
I0
F0.25
g272
tp531
a(I144
I0
F0.375
g274
tp532
a(I154
I0
F1.0
S'better'
p533
tp534
as(S'htc'
p535
S'one'
p536
S'x'
p537
tp538
(lp539
(I101
I18
F-0.75
S'bright'
p540
tp541
as(S'people'
p542
tp543
(lp544
(I20
I1
I0
S'most'
p545
tp546
a(I31
I21
F0.25
S'read'
p547
tp548
a(I31
I21
F-0.625
S'other'
p549
tp550
a(I46
I8
F0.5
S'thankful'
p551
tp552
a(I55
I3
I0
S'many'
p553
tp554
a(I55
I3
F0.25
S'familiar'
p555
tp556
a(I59
I2
I0
S'most'
p557
tp558
a(I59
I2
I0
S'normal'
p559
tp560
a(I62
I9
I0
S'many'
p561
tp562
a(I66
I24
I0
S'many'
p563
tp564
a(I66
I42
I0
S'most'
p565
tp566
a(I78
I2
I0
S'most'
p567
tp568
a(I78
I2
F-0.625
S'other'
p569
tp570
a(I78
I2
F0.5
S'true'
p571
tp572
a(I78
I2
F1.0
S'good'
p573
tp574
a(I78
I2
F-0.625
S'bad'
p575
tp576
a(I110
I17
I0
S'sprint'
p577
tp578
a(I110
I17
F0.875
S'nice'
p579
tp580
as(S'voice'
p581
S'to'
p582
S'text'
p583
tp584
(lp585
(I143
I4
F-0.25
g85
tp586
a(I143
I4
F0.625
g87
tp587
as(S'call'
p588
tp589
(lp590
(I72
I2
F-0.625
S'bad'
p591
tp592
as(S'video'
p593
tp594
(lp595
(I43
I4
I0
S'later'
p596
tp597
a(I74
I18
F0.125
S'first'
p598
tp599
a(I103
I6
F1.0
S'good'
p600
tp601
as(S'android'
p602
tp603
(lp604
(I17
I2
F0.375
S'new'
p605
tp606
a(I45
I0
F0.125
S'first'
p607
tp608
a(I45
I15
F-0.75
S'little'
p609
tp610
a(I62
I1
F1.0
S'better'
p611
tp612
a(I81
I0
F0.125
S'first'
p613
tp614
as(S'plan'
p615
tp616
(lp617
(I63
I10
I0
S'such'
p618
tp619
a(I173
I7
I0
S'along'
p620
tp621
as(S'case'
p622
tp623
(lp624
(I41
I3
F1.0
S'good'
p625
tp626
a(I41
I3
F0.5
S'expensive'
p627
tp628
a(I43
I10
I0
S'more'
p629
tp630
a(I59
I5
I0
S'entire'
p631
tp632
a(I62
I9
F0.375
S'extra'
p633
tp634
a(I132
I4
F0.875
S'happy'
p635
tp636
a(I162
I3
F0.625
S'easy'
p637
tp638
as(S'works'
p639
tp640
(lp641
(I8
I3
F-0.375
S'chat'
p642
tp643
a(I8
I3
I0
S'great'
p644
tp645
a(I33
I6
F0.625
S'easy'
p646
tp647
a(I77
I0
F1.0
S'good'
p648
tp649
a(I124
I4
I0
S'different'
p650
tp651
as(S'samsung'
p652
S'galaxy'
p653
S's3'
p654
tp655
(lp656
(I9
I0
F0.375
g244
tp657
a(I101
I7
F-0.375
g258
tp658
a(I101
I7
F-0.625
g260
tp659
as(S'a'
p660
S'full'
p661
S'day'
p662
tp663
(lp664
(I56
I4
I0
S'full'
p665
tp666
a(I62
I4
I0
S'full'
p667
tp668
a(I62
I4
I0
S'more'
p669
tp670
a(I103
I8
I0
S'full'
p671
tp672
a(I124
I11
I0
S'full'
p673
tp674
as(S'battery'
p675
tp676
(lp677
(I19
I2
F-0.25
g45
tp678
a(I20
I40
F0.625
S'replaceable'
p679
tp680
a(I56
I4
F0.125
S'able'
p681
tp682
a(I71
I0
F-0.75
g55
tp683
a(I71
I0
I0
g57
tp684
a(I74
I5
I0
S'faster'
p685
tp686
a(I74
I7
F-0.125
S'slow'
p687
tp688
a(I74
I21
F0.875
g59
tp689
a(I89
I4
F1.0
g61
tp690
a(I101
I18
F0.625
S'removable'
p691
tp692
a(I101
I37
F1.0
S'good'
p693
tp694
a(I101
I37
I0
S'ran'
p695
tp696
a(I101
I38
F0.125
g65
tp697
a(I101
I38
F0.625
g67
tp698
a(I101
I74
F0.625
S'removable'
p699
tp700
a(I116
I0
F-0.25
g69
tp701
a(I126
I7
F0.625
S'removable'
p702
tp703
a(I154
I4
F0.375
g73
tp704
a(I160
I6
F0.375
S'extended'
p705
tp706
a(I167
I2
F0.625
S'removable'
p707
tp708
as(S'upgrade'
p709
tp710
(lp711
(I56
I4
I0
S'next'
p712
tp713
a(I100
I16
F0.5
S'eligible'
p714
tp715
a(I156
I14
I0
S'current'
p716
tp717
a(I166
I1
I0
S'great'
p718
tp719
as(S'samsung'
p720
S'galaxy'
p721
tp722
(lp723
(I9
I0
F0.375
g244
tp724
a(I28
I0
F0.375
g246
tp725
a(I59
I0
I0
g252
tp726
a(I59
I0
F-0.625
g254
tp727
a(I59
I0
F-0.25
g96
tp728
a(I59
I0
F0.5
g98
tp729
a(I101
I7
F-0.375
g258
tp730
a(I101
I7
F-0.625
g260
tp731
a(I101
I39
I0
g262
tp732
a(I119
I0
F0.25
g272
tp733
a(I144
I0
F0.375
g274
tp734
as(S'an'
p735
S'htc'
p736
S'evo'
p737
tp738
(lp739
(I43
I1
F-0.625
g375
tp740
a(I164
I0
F0.25
g381
tp741
as(S'calls'
p742
tp743
(lp744
(I9
I9
I0
S'many'
p745
tp746
a(I28
I7
I0
S'great'
p747
tp748
a(I72
I2
F-0.25
S'dropped'
p749
tp750
a(I73
I4
F-0.25
S'dropped'
p751
tp752
a(I101
I30
F0.25
S'sharp'
p753
tp754
a(I101
I30
I0
S'more'
p755
tp756
a(I110
I12
I0
S'mobile'
p757
tp758
a(I162
I7
F0.625
S'easy'
p759
tp760
as(S'thing'
p761
tp762
(lp763
(I20
I4
I0
S'same'
p764
tp765
a(I20
I4
F1.0
S'good'
p766
tp767
a(I20
I43
I0
S'wish'
p768
tp769
a(I23
I0
F0.125
S'first'
p770
tp771
a(I23
I0
F0.125
S'first'
p772
tp773
a(I31
I4
F0.625
S'aware'
p774
tp775
a(I86
I13
I0
S'same'
p776
tp777
a(I100
I11
I0
S'more'
p778
tp779
a(I109
I2
I0
S'sprint'
p780
tp781
a(I109
I2
I0
S'only'
p782
tp783
a(I126
I14
F-0.625
S'bad'
p784
tp785
a(I162
I2
F0.125
S'first'
p786
tp787
a(I164
I8
F-0.625
S'bad'
p788
tp789
as(S'device'
p790
tp791
(lp792
(I28
I5
F0.375
S'new'
p793
tp794
a(I45
I16
F-0.625
S'light'
p795
tp796
a(I66
I14
F0.125
S'able'
p797
tp798
a(I71
I6
F0.875
S'music'
p799
tp800
a(I110
I30
F0.125
S'last'
p801
tp802
a(I132
I8
I0
S'great'
p803
tp804
a(I150
I0
I0
S'older'
p805
tp806
as(S'home'
p807
tp808
(lp809
(I31
I22
F-0.5
S'actual'
p810
tp811
a(I31
I22
I0
S'physical'
p812
tp813
a(I101
I15
I0
g336
tp814
a(I167
I3
F-0.875
g338
tp815
as(S'music'
p816
tp817
(lp818
(I20
I10
F1.0
S'better'
p819
tp820
a(I101
I57
F0.125
S'usual'
p821
tp822
a(I101
I59
F0.125
S'typical'
p823
tp824
as(S'hand'
p825
tp826
(lp827
(I19
I0
F0.125
S'first'
p828
tp829
a(I79
I15
I0
S'table'
p830
tp831
a(I101
I65
F-0.625
S'steady'
p832
tp833
a(I107
I0
I0
S'big'
p834
tp835
a(I107
I0
F-0.375
S'small'
p836
tp837
a(I126
I1
F1.0
S'good'
p838
tp839
a(I162
I4
F-0.625
S'other'
p840
tp841
a(I162
I4
F0.625
S'convenient'
p842
tp843
a(I166
I10
F-0.75
S'comfortable'
p844
tp845
a(I166
I10
I0
S'large'
p846
tp847
as(S'price'
p848
tp849
(lp850
(I2
I1
F-0.75
S'wrong'
p851
tp852
a(I52
I2
I0
S'great'
p853
tp854
a(I61
I0
F1.0
S'good'
p855
tp856
a(I82
I0
I0
S'great'
p857
tp858
a(I94
I1
I0
S'incredible'
p859
tp860
a(I120
I2
I0
S'great'
p861
tp862
a(I131
I3
I0
S'same'
p863
tp864
a(I131
I3
F-0.25
S'higher'
p865
tp866
a(I133
I0
F1.0
S'better'
p867
tp868
a(I152
I3
F0.375
S'new'
p869
tp870
a(I156
I14
F1.0
S'best'
p871
tp872
as(S'time'
p873
tp874
(lp875
(I23
I24
F1.0
S'good'
p876
tp877
a(I66
I37
F-0.5
S'long'
p878
tp879
a(I74
I12
F-0.625
S'glad'
p880
tp881
a(I79
I1
I0
S'most'
p882
tp883
a(I79
I3
I0
S'same'
p884
tp885
a(I79
I11
F-0.5
S'sure'
p886
tp887
a(I112
I6
I0
S'same'
p888
tp889
a(I134
I2
F-0.5
S'long'
p890
tp891
as(S'evo'
p892
S'4g'
p893
S'lte'
p894
tp895
(lp896
(I173
I0
F0.25
S'original'
p897
tp898
a(I173
I0
F0.375
S'much'
p899
tp900
a(I173
I0
F0.25
S'original'
p901
tp902
as(S'data'
p903
tp904
(lp905
(I31
I4
I0
S'cable'
p906
tp907
a(I31
I12
I0
S'cable'
p908
tp909
a(I31
I18
I0
S'cable'
p910
tp911
a(I66
I14
F-0.5
S'actual'
p912
tp913
a(I66
I25
F0.5
S'thrifty'
p914
tp915
a(I100
I15
I0
S'faster'
p916
tp917
a(I110
I12
F-0.625
S'free'
p918
tp919
a(I129
I4
F-0.875
S'awful'
p920
tp921
a(I169
I3
I0
S'cable'
p922
tp923
as(S'network'
p924
tp925
(lp926
(I29
I2
F0.625
S'perfect'
p927
tp928
a(I63
I4
F0.375
S'new'
p929
tp930
a(I66
I36
I0
S'mobile'
p931
tp932
a(I101
I32
I0
S'slowest'
p933
tp934
a(I106
I2
F0.375
S'reliable'
p935
tp936
as(S'call'
p937
S'quality'
p938
tp939
(lp940
(I89
I2
F-0.625
g394
tp941
a(I101
I21
F1.0
g396
tp942
a(I155
I5
F1.0
g404
tp943
as(S'touch'
p944
S'screen'
p945
tp946
(lp947
(I82
I2
I0
g142
tp948
a(I82
I2
I0
g144
tp949
a(I82
I2
F0.5
g146
tp950
a(I146
I2
F0.5
g164
tp951
a(I146
I6
F0.5
g166
tp952
a(I146
I12
F0.5
g170
tp953
as(S'better'
p954
tp955
(lp956
(I73
I2
F0.375
S'much'
p957
tp958
as(S'work'
p959
tp960
(lp961
(I72
I2
F0.5
S'live'
p962
tp963
as(S'apps'
p964
tp965
(lp966
(I10
I1
F1.0
S'good'
p967
tp968
a(I20
I26
I0
S'e-mail'
p969
tp970
a(I20
I32
I0
S'many'
p971
tp972
a(I20
I32
F0.375
S'available'
p973
tp974
a(I23
I10
F-0.25
S'low'
p975
tp976
a(I39
I1
F0.125
S'enough'
p977
tp978
a(I41
I0
F0.25
S'helpful'
p979
tp980
a(I42
I9
I0
S'many'
p981
tp982
a(I42
I9
I0
S'android'
p983
tp984
a(I53
I0
I0
S'more'
p985
tp986
a(I58
I5
I0
S'different'
p987
tp988
a(I79
I4
F-0.625
S'free'
p989
tp990
a(I79
I4
I0
S'incredible'
p991
tp992
a(I79
I9
F1.0
S'good'
p993
tp994
a(I81
I14
F-0.5
S'sure'
p995
tp996
a(I83
I1
F-0.375
S'smooth'
p997
tp998
a(I83
I1
I0
S'most'
p999
tp1000
a(I101
I61
F-0.625
S'other'
p1001
tp1002
a(I101
I61
F-0.625
S'useless'
p1003
tp1004
a(I155
I6
I0
S'same'
p1005
tp1006
a(I162
I14
F0.625
S'easy'
p1007
tp1008
a(I162
I14
I0
S'quick'
p1009
tp1010
a(I173
I10
I0
S'such'
p1011
tp1012
as(S'days'
p1013
tp1014
(lp1015
(I2
I6
I0
S'full'
p1016
tp1017
a(I31
I5
I0
S'few'
p1018
tp1019
a(I31
I19
F0.5
S'drive'
p1020
tp1021
a(I31
I19
I0
S'few'
p1022
tp1023
a(I34
I0
F-0.75
S'short'
p1024
tp1025
a(I76
I3
I0
S'few'
p1026
tp1027
a(I104
I2
F1.0
S'best'
p1028
tp1029
a(I111
I1
I0
S'later'
p1030
tp1031
a(I111
I2
I0
S'later'
p1032
tp1033
a(I111
I4
I0
S'later'
p1034
tp1035
a(I156
I0
I0
S'few'
p1036
tp1037
a(I164
I0
I0
S'few'
p1038
tp1039
a(I164
I36
I0
S'full'
p1040
tp1041
as(S'4g'
p1042
S'lte'
p1043
tp1044
(lp1045
(I71
I3
I0
S'november'
p1046
tp1047
as(S'fast'
p1048
tp1049
(lp1050
(I50
I2
F-0.625
S'bad'
p1051
tp1052
as(S'sound'
p1053
S'quality'
p1054
tp1055
(lp1056
(I8
I4
I0
g386
tp1057
a(I46
I0
F0.875
g191
tp1058
a(I46
I7
F0.875
g193
tp1059
a(I149
I1
I0
g402
tp1060
as.