(dp0
(S'appeal'
p1
tp2
(lp3
(I17
I24
F0.125
S'first'
p4
I7
tp5
as(S'battery'
p6
S'life'
p7
tp8
(lp9
(I8
I0
F-0.5
S'poor'
p10
I1
tp11
a(I11
I6
F-0.625
S'bad'
p12
I1
tp13
a(I11
I97
F0.625
S'kind'
p14
I1
tp15
a(I14
I0
F1.0
S'better'
p16
I1
tp17
a(I14
I0
F-0.625
S'other'
p18
I1
tp19
a(I7
I8
I0
S'yeah'
p20
I19
tp21
a(I11
I97
F0.625
g14
I19
tp22
a(I14
I0
F1.0
g16
I19
tp23
a(I14
I0
F-0.625
g18
I19
tp24
as(S'texting'
p25
tp26
(lp27
(I11
I81
I0
S'basic'
p28
I0
tp29
as(S'talk'
p30
tp31
(lp32
(I4
I28
F0.5
S'possible'
p33
I13
tp34
as(S'text'
p35
tp36
(lp37
(I11
I41
I0
S'few'
p38
I18
tp39
a(I17
I69
F0.625
S'noticeable'
p40
I18
tp41
as(S'call'
p42
S'quality'
p43
tp44
(lp45
(I11
I34
F-0.625
S'bad'
p46
I0
tp47
as(S'samsung'
p48
tp49
(lp50
(I4
I14
F0.5
S'technical'
p51
I7
tp52
a(I10
I1
F1.0
S'good'
p53
I7
tp54
a(I11
I26
F0.125
S'first'
p55
I7
tp56
a(I11
I47
F-0.5
S'sure'
p57
I7
tp58
a(I11
I47
F0.375
S'much'
p59
I7
tp60
a(I11
I59
F-0.625
S'other'
p61
I7
tp62
a(I17
I28
I0
S'basic'
p63
I7
tp64
a(I20
I29
F0.5
S'told'
p65
I7
tp66
as(S'camera'
p67
tp68
(lp69
(I11
I101
F1.0
S'good'
p70
I1
tp71
a(I19
I54
I0
S'basic'
p72
I1
tp73
a(I20
I16
F1.0
S'better'
p74
I1
tp75
as(S'qwerty'
p76
S'keyboard'
p77
tp78
(lp79
(I11
I70
F1.0
S'good'
p80
I0
tp81
a(I11
I70
F0.875
S'nice'
p82
I0
tp83
a(I4
I0
F0.625
S'find'
p84
I2
tp85
a(I5
I3
F0.5
S'flat'
p86
I2
tp87
a(I11
I3
F0.125
S'solid'
p88
I2
tp89
a(I11
I5
F0.375
S'much'
p90
I2
tp91
a(I11
I94
F-0.5
S'actual'
p92
I2
tp93
a(I13
I14
F-0.875
S'awful'
p94
I2
tp95
as(S'hold'
p96
S'a'
p97
S'charge'
p98
tp99
(lp100
(I20
I27
F0.125
S'first'
p101
I0
tp102
as(S'android'
p103
tp104
(lp105
(I7
I13
I0
S'great'
p106
I0
tp107
a(I7
I17
I0
S'great'
p108
I0
tp109
a(I17
I21
F0.375
S'new'
p110
I0
tp111
a(I20
I57
I0
S'older'
p112
I0
tp113
as(S'smart'
p114
tp115
(lp116
(I2
I2
F0.125
S'first'
p117
I10
tp118
a(I9
I3
F-0.25
S'ready'
p119
I10
tp120
a(I13
I37
F1.0
S'better'
p121
I10
tp122
a(I13
I58
F0.125
S'first'
p123
I10
tp124
a(I13
I59
F1.0
S'good'
p125
I10
tp126
a(I19
I9
F0.125
S'first'
p127
I10
tp128
as(S'battery'
p129
S'issues'
p130
tp131
(lp132
(I11
I75
I0
S'prolong'
p133
I0
tp134
a(I16
I9
I0
S'same'
p135
I0
tp136
a(I17
I76
F1.0
S'good'
p137
I0
tp138
a(I20
I71
F-0.75
S'impossible'
p139
I0
tp140
as(S'calls'
p141
tp142
(lp143
(I3
I12
F0.5
S'clear'
p144
I0
tp145
a(I10
I8
F0.875
S'important'
p146
I0
tp147
as(S'sim'
p148
S'card'
p149
tp150
(lp151
(I11
I89
I0
S'current'
p152
I0
tp153
as(S'data'
p154
tp155
(lp156
(I3
I6
F0.75
S'constant'
p157
I13
tp158
a(I11
I41
I0
S'least'
p159
I13
tp160
a(I19
I12
F0.125
S'plenty'
p161
I13
tp162
as(g97
S'new'
p163
S'battery'
p164
tp165
(lp166
(I2
I11
F0.375
S'new'
p167
I1
tp168
a(I2
I24
F0.375
S'new'
p169
I1
tp170
a(I2
I26
F0.375
S'new'
p171
I1
tp172
a(I4
I4
F0.375
S'new'
p173
I1
tp174
a(I11
I66
F0.375
S'new'
p175
I1
tp176
a(I11
I67
F0.375
S'new'
p177
I1
tp178
a(I20
I33
F0.375
S'new'
p179
I1
tp180
a(I2
I11
F0.375
g167
I1
tp181
a(I2
I24
F0.375
g169
I1
tp182
a(I2
I26
F0.375
g171
I1
tp183
a(I4
I4
F0.375
g173
I1
tp184
a(I11
I66
F0.375
g175
I1
tp185
a(I11
I67
F0.375
g177
I1
tp186
a(I20
I33
F0.375
g179
I1
tp187
a(I2
I5
F0.5
S'second'
p188
I15
tp189
a(I2
I5
F1.0
S'good'
p190
I15
tp191
a(I2
I8
F-0.5
S'sure'
p192
I15
tp193
a(I2
I8
F0.25
S'tired'
p194
I15
tp195
a(I2
I8
F0.375
S'extra'
p196
I15
tp197
a(I2
I11
F0.375
g167
I15
tp198
a(I2
I21
F0.125
S'last'
p199
I15
tp200
a(I2
I24
F0.375
g169
I15
tp201
a(I2
I26
F0.375
g171
I15
tp202
a(I2
I38
F-0.25
S'low'
p203
I15
tp204
a(I2
I38
F-0.75
S'dead'
p205
I15
tp206
a(I3
I28
F0.25
S'responsive'
p207
I15
tp208
a(I3
I28
F0.5
S'touch'
p209
I15
tp210
a(I3
I28
F-0.25
S'low'
p211
I15
tp212
a(I4
I4
F0.375
g173
I15
tp213
a(I4
I16
F-0.75
S'dead'
p214
I15
tp215
a(I4
I19
I0
S'faster'
p216
I15
tp217
a(I6
I3
F-0.5
S'long'
p218
I15
tp219
a(I8
I0
F-0.5
g10
I15
tp220
a(I11
I6
F-0.625
g12
I15
tp221
a(I11
I66
F0.375
g175
I15
tp222
a(I11
I67
F0.375
g177
I15
tp223
a(I11
I75
I0
g133
I15
tp224
a(I16
I11
F-0.75
S'dead'
p225
I15
tp226
a(I16
I11
F-0.25
S'low'
p227
I15
tp228
a(I17
I15
F-0.5
S'less'
p229
I15
tp230
a(I17
I34
I0
S'least'
p231
I15
tp232
a(I17
I37
F-0.75
S'dead'
p233
I15
tp234
a(I17
I40
I0
S'faster'
p235
I15
tp236
a(I20
I33
F0.375
g179
I15
tp237
as(S'smartphone'
p238
tp239
(lp240
(I5
I0
F0.125
S'first'
p241
I0
tp242
a(I11
I3
F0.125
S'last'
p243
I0
tp244
a(I11
I74
I0
S'more'
p245
I0
tp246
a(I16
I6
F0.125
S'first'
p247
I0
tp248
a(I17
I9
I0
S'basic'
p249
I0
tp250
a(I17
I70
I0
S'basic'
p251
I0
tp252
a(I19
I34
F1.0
S'good'
p253
I0
tp254
a(I19
I34
I0
S'basic'
p255
I0
tp256
a(I19
I34
F-0.5
S'less'
p257
I0
tp258
a(I19
I86
F0.125
S'first'
p259
I0
tp260
a(I20
I38
I0
S'standard'
p261
I0
tp262
a(I20
I45
I0
S'standard'
p263
I0
tp264
as(S'car'
p265
S'charger'
p266
tp267
(lp268
(I7
I8
F1.0
S'good'
p269
I0
tp270
as(S'customer'
p271
S'service'
p272
tp273
(lp274
(I8
I2
I0
S'more'
p275
I3
tp276
as(S'apps'
p277
tp278
(lp279
(I7
I2
I0
S'faster'
p280
I0
tp281
a(I11
I71
F0.125
S'popular'
p282
I0
tp283
a(I19
I44
I0
S'multiple'
p284
I0
tp285
a(I19
I84
F0.375
S'available'
p286
I0
tp287
as(S'querty'
p288
S'keyboard'
p289
tp290
(lp291
(I13
I14
F-0.875
g94
I0
tp292
as(S'touch'
p293
S'screen'
p294
tp295
(lp296
(I16
I10
F-0.125
S'slow'
p297
I2
tp298
a(I19
I22
I0
S'great'
p299
I2
tp300
a(I19
I22
F0.5
S'touch'
p301
I2
tp302
a(I19
I48
F0.5
S'touch'
p303
I2
tp304
a(I20
I1
F0.5
S'touch'
p305
I2
tp306
a(I20
I2
F0.5
S'touch'
p307
I2
tp308
as.