(dp0
(S'droid'
p1
tp2
(lp3
(I11
I8
I0
S'more'
p4
tp5
a(I29
I1
I0
S'old'
p6
tp7
a(I83
I1
I0
S'old'
p8
tp9
a(I146
I0
F0.25
S'original'
p10
tp11
as(S'nice'
p12
tp13
(lp14
(I0
I16
I0
S'large'
p15
tp16
as(S'tech'
p17
S'support'
p18
tp19
(lp20
(I50
I10
I0
S'tech'
p21
tp22
as(S'reviews'
p23
tp24
(lp25
(I5
I0
F-0.875
S'negative'
p26
tp27
a(I11
I5
I0
S'great'
p28
tp29
a(I25
I0
F-0.625
S'other'
p30
tp31
a(I55
I2
I0
S'harsh'
p32
tp33
a(I55
I5
F-0.625
S'bad'
p34
tp35
a(I58
I0
F0.625
S'positive'
p36
tp37
a(I114
I0
F-0.875
S'negative'
p38
tp39
a(I135
I0
I0
S'customer'
p40
tp41
a(I137
I1
F-0.5
S'poor'
p42
tp43
a(I151
I11
F-0.625
S'other'
p44
tp45
a(I152
I19
F-0.625
S'bad'
p46
tp47
a(I152
I31
F-0.5
S'poor'
p48
tp49
a(I156
I2
I0
S'many'
p50
tp51
as(S'quad'
p52
S'core'
p53
tp54
(lp55
(I1
I0
I0
S'different'
p56
tp57
as(S'2'
p58
S'year'
p59
tp60
(lp61
(I70
I3
I0
S'old'
p62
tp63
a(I70
I38
F1.0
S'good'
p64
tp65
a(I70
I38
I0
S'old'
p66
tp67
as(S'version'
p68
tp69
(lp70
(I6
I3
I0
S'current'
p71
tp72
a(I45
I2
I0
S'earlier'
p73
tp74
a(I45
I3
I0
S'questionable'
p75
tp76
a(I55
I4
I0
S'overseas'
p77
tp78
a(I55
I4
F-0.75
S'short'
p79
tp80
a(I55
I9
F0.75
S'due'
p81
tp82
a(I63
I4
F0.375
S'newest'
p83
tp84
a(I68
I2
F-0.5
S'international'
p85
tp86
a(I139
I38
I0
S'latest'
p87
tp88
as(S'operating'
p89
S'system'
p90
tp91
(lp92
(I61
I6
I0
S'android'
p93
tp94
a(I76
I1
I0
S'great'
p95
tp96
a(I129
I13
F-0.125
S'slow'
p97
tp98
as(S'quality'
p99
tp100
(lp101
(I0
I8
I0
S'great'
p102
tp103
a(I11
I9
I0
S'adequate'
p104
tp105
a(I11
I11
F0.625
S'decent'
p106
tp107
a(I11
I11
F0.5
S'clear'
p108
tp109
a(I38
I4
F0.125
S'equal'
p110
tp111
a(I43
I36
I0
S'high'
p112
tp113
a(I85
I5
F-0.375
S'top'
p114
tp115
a(I104
I4
F1.0
S'better'
p116
tp117
a(I120
I8
F0.875
S'nice'
p118
tp119
a(I120
I16
F1.0
S'good'
p120
tp121
a(I135
I2
I0
S'mechanical'
p122
tp123
a(I156
I5
F1.0
S'better'
p124
tp125
a(I159
I1
F-0.75
S'bright'
p126
tp127
as(S'pebble'
p128
S'blue'
p129
tp130
(lp131
(I117
I0
I0
S'pebble'
p132
tp133
a(I139
I0
I0
S'pebble'
p134
tp135
a(I139
I83
I0
S'pebble'
p136
tp137
a(I150
I1
I0
S'pebble'
p138
tp139
as(S'features'
p140
tp141
(lp142
(I2
I2
I0
S'fast'
p143
tp144
a(I2
I2
I0
S'many'
p145
tp146
a(I7
I8
I0
S'more'
p147
tp148
a(I13
I3
F-0.5
S'sure'
p149
tp150
a(I13
I3
F0.875
S'nice'
p151
tp152
a(I20
I2
I0
S'cool'
p153
tp154
a(I49
I1
I0
S'most'
p155
tp156
a(I51
I1
I0
S'many'
p157
tp158
a(I54
I1
I0
S'many'
p159
tp160
a(I54
I1
F0.875
S'nice'
p161
tp162
a(I54
I11
F0.875
S'nice'
p163
tp164
a(I54
I11
F0.375
S'new'
p165
tp166
a(I72
I1
I0
S'many'
p167
tp168
a(I72
I1
F-0.25
S'thin'
p169
tp170
a(I79
I6
F-0.625
S'other'
p171
tp172
a(I80
I0
I0
S'many'
p173
tp174
a(I81
I7
F0.625
S'easy'
p175
tp176
a(I81
I7
I0
S'more'
p177
tp178
a(I81
I16
I0
S'great'
p179
tp180
a(I98
I3
I0
S'many'
p181
tp182
a(I125
I1
I0
S'full'
p183
tp184
a(I125
I1
I0
S'great'
p185
tp186
a(I137
I9
I0
S'more'
p187
tp188
as(S'samsung'
p189
S'galaxy'
p190
S's'
p191
tp192
(lp193
(I83
I2
I0
S'next'
p194
tp195
a(I131
I0
I0
S'fifth'
p196
tp197
as(S'verizon'
p198
tp199
(lp200
(I7
I0
F1.0
S'best'
p201
tp202
a(I7
I4
F-0.75
S'single'
p203
tp204
a(I28
I4
F-0.75
S'sad'
p205
tp206
a(I28
I6
F-0.875
S'evil'
p207
tp208
a(I44
I4
F0.125
S'rite'
p209
tp210
a(I55
I7
I0
S'only'
p211
tp212
a(I68
I0
I0
S'blue'
p213
tp214
a(I92
I2
I0
S'pebble'
p215
tp216
a(I92
I2
I0
S'blue'
p217
tp218
a(I94
I4
F-0.375
S'top'
p219
tp220
a(I121
I3
F-0.375
S'unacceptable'
p221
tp222
a(I136
I2
F0.5
S'rid'
p223
tp224
a(I139
I60
F-0.75
S'short'
p225
tp226
a(I140
I0
F-0.625
S'bad'
p227
tp228
a(I143
I3
F0.25
S'related'
p229
tp230
a(I148
I1
I0
S'local'
p231
tp232
a(I150
I8
I0
S'local'
p233
tp234
a(I154
I3
F-0.625
S'other'
p235
tp236
a(I154
I6
F-0.75
S'unable'
p237
tp238
a(I158
I1
F0.5
S'true'
p239
tp240
a(I160
I1
F0.5
S'greater'
p241
tp242
a(I161
I0
F-0.5
S'certain'
p243
tp244
a(I161
I0
F0.625
S'necessary'
p245
tp246
a(I161
I0
I0
S'local'
p247
tp248
a(I163
I4
F-0.25
S'inexpensive'
p249
tp250
as(S'sd'
p251
S'card'
p252
tp253
(lp254
(I41
I29
I0
S'sd'
p255
tp256
as(S'case'
p257
tp258
(lp259
(I20
I1
F0.625
S'easier'
p260
tp261
a(I68
I36
F1.0
S'good'
p262
tp263
a(I81
I4
F-0.125
S'mine'
p264
tp265
a(I112
I2
F1.0
S'good'
p266
tp267
a(I129
I3
I0
S'large'
p268
tp269
a(I129
I3
F0.875
S'happier'
p270
tp271
a(I139
I53
F0.375
S'new'
p272
tp273
as(S'ice'
p274
S'cream'
p275
tp276
(lp277
(I63
I4
F0.625
S'aware'
p278
tp279
a(I121
I2
I0
S'android'
p280
tp281
as(S'want'
p282
tp283
(lp284
(I130
I0
I0
S'more'
p285
tp286
as(S'software'
p287
tp288
(lp289
(I58
I3
F0.125
S'first'
p290
tp291
a(I139
I40
I0
S'few'
p292
tp293
a(I152
I5
I0
S'update'
p294
tp295
a(I152
I5
F-0.75
S'worse'
p296
tp297
a(I152
I9
F-0.25
S'potential'
p298
tp299
a(I152
I13
I0
S'different'
p300
tp301
a(I160
I1
F0.375
S'new'
p302
tp303
as(S'sim'
p304
S'card'
p305
tp306
(lp307
(I13
I2
F0.875
S'nice'
p308
tp309
a(I21
I4
I0
S'different'
p310
tp311
a(I99
I4
F0.375
S'new'
p312
tp313
a(I119
I10
F-0.625
S'bad'
p314
tp315
as(S'charge'
p316
tp317
(lp318
(I0
I1
F-0.5
S'long'
p319
tp320
a(I54
I9
F-0.75
S'single'
p321
tp322
a(I54
I9
I0
S'email'
p323
tp324
a(I68
I15
F-0.75
S'single'
p325
tp326
a(I120
I24
I0
S'full'
p327
tp328
a(I128
I30
F-0.75
S'single'
p329
tp330
as(S'card'
p331
tp332
(lp333
(I41
I29
I0
g255
tp334
as(S'love'
p335
tp336
(lp337
(I21
I0
F1.0
S'love'
p338
tp339
a(I119
I0
F0.125
S'first'
p340
tp341
as(S'call'
p342
S'quality'
p343
tp344
(lp345
(I11
I9
I0
g104
tp346
a(I11
I11
F0.625
g106
tp347
a(I11
I11
F0.5
g108
tp348
a(I19
I2
F1.0
S'good'
p349
tp350
a(I38
I4
F0.125
g110
tp351
a(I120
I8
F0.875
g118
tp352
as(S'wifi'
p353
tp354
(lp355
(I11
I12
F0.375
S'interior'
p356
tp357
a(I55
I8
F-0.5
S'open'
p358
tp359
a(I128
I2
I0
S'automatic'
p360
tp361
a(I148
I3
I0
S'least'
p362
tp363
a(I148
I3
I0
S'useful'
p364
tp365
a(I148
I3
F0.375
S'available'
p366
tp367
a(I152
I6
I0
S'online'
p368
tp369
as(S'fast'
p370
tp371
(lp372
(I55
I1
I0
S'incredible'
p373
tp374
as(S'problem'
p375
tp376
(lp377
(I0
I5
I0
S'big'
p378
tp379
a(I21
I6
I0
S'common'
p380
tp381
a(I62
I4
I0
S'basic'
p382
tp383
a(I77
I2
F0.625
S'aware'
p384
tp385
a(I94
I8
I0
S'same'
p386
tp387
a(I108
I1
I0
S'real'
p388
tp389
a(I119
I9
I0
S'same'
p390
tp391
a(I163
I6
I0
S'same'
p392
tp393
a(I163
I10
I0
S'same'
p394
tp395
as(S'text'
p396
tp397
(lp398
(I11
I31
I0
S'repeated'
p399
tp400
a(I21
I3
I0
S'dial'
p401
tp402
a(I119
I6
I0
S'current'
p403
tp404
a(I141
I2
I0
S'next'
p405
tp406
a(I141
I2
F-0.625
S'other'
p407
tp408
a(I141
I2
I0
S'couch'
p409
tp410
a(I141
I2
I0
S'normal'
p411
tp412
as(S'price'
p413
tp414
(lp415
(I11
I7
I0
S'great'
p416
tp417
a(I39
I0
F1.0
S'best'
p418
tp419
a(I39
I0
F0.375
S'available'
p420
tp421
a(I48
I7
I0
S'same'
p422
tp423
a(I61
I6
F1.0
S'better'
p424
tp425
a(I66
I14
I0
S'great'
p426
tp427
a(I68
I1
F0.75
S'worth'
p428
tp429
a(I68
I27
I0
S'full'
p430
tp431
a(I104
I14
F0.25
S'recent'
p432
tp433
a(I105
I10
F0.5
S'marked'
p434
tp435
as(S'service'
p436
tp437
(lp438
(I33
I12
F0.25
S'helpful'
p439
tp440
a(I33
I12
F0.375
S'friendly'
p441
tp442
a(I70
I27
I0
S'website'
p443
tp444
a(I99
I4
I0
S'many'
p445
tp446
a(I117
I13
I0
S'great'
p447
tp448
a(I140
I2
F-0.25
S'dropped'
p449
tp450
as(S'getting'
p451
tp452
(lp453
(I43
I15
F-0.75
S'little'
p454
tp455
as(S'droid'
p456
S'x'
p457
tp458
(lp459
(I29
I1
I0
g6
tp460
a(I115
I7
I0
S'least'
p461
tp462
as(S'1'
p463
S'5'
p464
S'ghz'
p465
tp466
(lp467
(I38
I10
I0
S'same'
p468
tp469
as(S'google'
p470
tp471
(lp472
(I18
I5
F-0.125
S'slow'
p473
tp474
a(I46
I0
F0.375
S'new'
p475
tp476
a(I129
I10
F0.375
S'available'
p477
tp478
as(S'things'
p479
tp480
(lp481
(I7
I4
I0
S'few'
p482
tp483
a(I9
I3
I0
S'such'
p484
tp485
a(I25
I1
I0
S'most'
p486
tp487
a(I62
I2
F-0.75
S'worse'
p488
tp489
a(I70
I2
F-0.5
S'certain'
p490
tp491
a(I82
I2
I0
S'same'
p492
tp493
a(I92
I1
I0
S'few'
p494
tp495
a(I92
I1
F-0.75
S'little'
p496
tp497
as(S'apple'
p498
tp499
(lp500
(I127
I5
F-0.5
S'miss'
p501
tp502
as(S'power'
p503
tp504
(lp505
(I56
I16
F-0.25
S'low'
p506
tp507
a(I100
I21
I0
S'more'
p508
tp509
a(I104
I13
I0
S'most'
p510
tp511
a(I133
I0
I0
S'more'
p512
tp513
a(I156
I7
F-0.5
S'sure'
p514
tp515
as(S'internal'
p516
S'storage'
p517
tp518
(lp519
(I0
I16
I0
S'internal'
p520
tp521
a(I38
I16
I0
S'internal'
p522
tp523
a(I38
I19
F-0.5
S'less'
p524
tp525
a(I38
I19
I0
S'internal'
p526
tp527
a(I139
I42
I0
S'limited'
p528
tp529
a(I139
I42
I0
S'internal'
p530
tp531
a(I139
I43
I0
S'internal'
p532
tp533
a(I139
I44
I0
S'internal'
p534
tp535
as(S'google'
p536
S'wallet'
p537
tp538
(lp539
(I43
I36
I0
S'such'
p540
tp541
a(I89
I3
F-0.25
S'google'
p542
tp543
a(I89
I4
F-0.25
S'google'
p544
tp545
a(I105
I4
F-0.25
S'google'
p546
tp547
a(I121
I0
F-0.25
S'google'
p548
tp549
a(I136
I2
F-0.25
S'google'
p550
tp551
a(I152
I0
F-0.25
S'google'
p552
tp553
a(I152
I25
F-0.25
S'google'
p554
tp555
as(S'video'
p556
tp557
(lp558
(I13
I1
I0
S'instructional'
p559
tp560
a(I43
I26
I0
S'looped'
p561
tp562
a(I56
I31
I0
S'great'
p563
tp564
a(I139
I69
F-0.375
S'smooth'
p565
tp566
as(S'android'
p567
tp568
(lp569
(I6
I0
F1.0
S'best'
p570
tp571
a(I6
I5
F1.0
S'best'
p572
tp573
a(I27
I0
F0.5
S'whole'
p574
tp575
a(I66
I2
I0
S'next'
p576
tp577
a(I113
I2
F-0.5
S'complaint'
p578
tp579
a(I113
I2
F-0.25
S'google'
p580
tp581
a(I129
I9
I0
S'next'
p582
tp583
as(S'voice'
p584
tp585
(lp586
(I18
I4
F-0.25
S'google'
p587
tp588
a(I21
I1
F0.375
S'reliable'
p589
tp590
a(I131
I2
F0.5
S'clear'
p591
tp592
a(I163
I5
I0
S'hear'
p593
tp594
as(S'galaxy'
p595
g191
S'ii'
p596
tp597
(lp598
(I11
I36
F0.375
S'available'
p599
tp600
a(I69
I0
I0
S'incredible'
p601
tp602
as(S'1.5'
p603
S'ghz'
p604
tp605
(lp606
(I38
I10
I0
g468
tp607
as(S'to'
p608
S'home'
p609
S'screen'
p610
tp611
(lp612
(I152
I23
F-0.375
S'blind'
p613
tp614
a(I152
I23
F-0.75
S'bright'
p615
tp616
a(I152
I23
F-0.25
S'white'
p617
tp618
as(S'thing'
p619
tp620
(lp621
(I3
I1
F0.25
S'biggest'
p622
tp623
a(I11
I22
F-0.625
S'other'
p624
tp625
a(I75
I3
F-0.75
S'little'
p626
tp627
a(I75
I10
F0.625
S'perfect'
p628
tp629
a(I112
I3
I0
S'only'
p630
tp631
a(I117
I13
I0
S'same'
p632
tp633
a(I139
I23
F0.5
S'fascinate'
p634
tp635
a(I139
I23
F-0.25
S'past'
p636
tp637
as(S'data'
p638
tp639
(lp640
(I40
I0
I0
S'faster'
p641
tp642
a(I54
I19
I0
S'slower'
p643
tp644
a(I54
I20
I0
S'signal'
p645
tp646
a(I139
I88
F-0.25
S'low'
p647
tp648
a(I143
I6
I0
S'great'
p649
tp650
a(I147
I5
F-0.5
S'unlimited'
p651
tp652
as(S'sure'
p653
tp654
(lp655
(I20
I1
F-0.25
S'thin'
p656
tp657
as(S'size'
p658
tp659
(lp660
(I11
I1
I0
S'large'
p661
tp662
a(I11
I37
F-0.375
S'smaller'
p663
tp664
a(I43
I16
I0
S'large'
p665
tp666
a(I98
I9
F-0.625
S'light'
p667
tp668
a(I98
I9
F0.625
S'easy'
p669
tp670
a(I107
I0
F0.875
S'nice'
p671
tp672
a(I107
I0
I0
S'big'
p673
tp674
a(I139
I44
F-0.5
S'sure'
p675
tp676
as(S'hours'
p677
tp678
(lp679
(I33
I1
I0
S'total'
p680
tp681
a(I38
I1
I0
S'more'
p682
tp683
a(I43
I28
F1.0
S'good'
p684
tp685
a(I118
I1
F-0.625
S'moderate'
p686
tp687
a(I120
I21
I0
S'total'
p688
tp689
a(I120
I24
I0
S'full'
p690
tp691
a(I128
I34
I0
S'many'
p692
tp693
a(I128
I34
I0
S'same'
p694
tp695
a(I139
I58
I0
S'few'
p696
tp697
as(S'battery'
p698
S'life'
p699
tp700
(lp701
(I2
I6
F0.125
S'last'
p702
tp703
a(I6
I5
F1.0
S'best'
p704
tp705
a(I9
I5
I0
S'great'
p706
tp707
a(I31
I4
F-0.625
S'bad'
p708
tp709
a(I35
I1
F-0.25
S'low'
p710
tp711
a(I50
I1
F1.0
S'good'
p712
tp713
a(I54
I8
F0.5
S'respectable'
p714
tp715
a(I56
I12
F1.0
S'good'
p716
tp717
a(I56
I12
F0.625
S'replaceable'
p718
tp719
a(I59
I4
F-0.5
S'complaint'
p720
tp721
a(I60
I0
I0
S'great'
p722
tp723
a(I60
I2
F0.375
S'extended'
p724
tp725
a(I60
I2
F-0.5
S'long'
p726
tp727
a(I63
I18
F1.0
S'good'
p728
tp729
a(I66
I4
F1.0
S'better'
p730
tp731
a(I71
I7
F0.25
S'hyped'
p732
tp733
a(I98
I6
I0
S'great'
p734
tp735
a(I100
I28
F1.0
S'good'
p736
tp737
a(I101
I0
I0
S'great'
p738
tp739
a(I101
I0
I0
S'incredible'
p740
tp741
a(I118
I0
I0
S'great'
p742
tp743
a(I131
I4
I0
S'great'
p744
tp745
a(I162
I5
F-0.5
S'poor'
p746
tp747
as(S'maxx'
p748
tp749
(lp750
(I139
I83
F0.125
S'solid'
p751
tp752
as(S'back'
p753
tp754
(lp755
(I41
I10
F0.625
S'removable'
p756
tp757
as(S'life'
p758
tp759
(lp760
(I2
I6
F0.125
g702
tp761
a(I6
I5
F1.0
g704
tp762
a(I9
I5
I0
g706
tp763
a(I31
I4
F-0.625
g708
tp764
a(I35
I1
F-0.25
g710
tp765
a(I50
I1
F1.0
g712
tp766
a(I60
I0
I0
g722
tp767
a(I60
I2
F-0.5
g726
tp768
a(I63
I18
F1.0
g728
tp769
a(I71
I7
F0.25
g732
tp770
a(I98
I6
I0
g734
tp771
a(I101
I0
I0
g740
tp772
as(S'micro'
p773
S'usb'
p774
tp775
(lp776
(I46
I5
I0
S'cable'
p777
tp778
a(I46
I5
I0
S'standard'
p779
tp780
a(I162
I10
I0
S'cable'
p781
tp782
as(S'user'
p783
tp784
(lp785
(I0
I0
F0.625
S'replaceable'
p786
tp787
a(I0
I15
F0.625
S'replaceable'
p788
tp789
a(I0
I16
F0.625
S'replaceable'
p790
tp791
a(I10
I0
F0.625
S'easy'
p792
tp793
a(I12
I2
F-0.5
S'heavy'
p794
tp795
a(I36
I0
F0.875
S'happier'
p796
tp797
a(I81
I13
F0.625
S'replaceable'
p798
tp799
a(I139
I86
F0.625
S'removable'
p800
tp801
as(S'samsung'
p802
S'galaxy'
p803
S's3'
p804
tp805
(lp806
(I43
I36
F-0.25
S'google'
p807
tp808
as(S'display'
p809
tp810
(lp811
(I0
I10
F0.375
S'new'
p812
tp813
a(I40
I5
I0
S'large'
p814
tp815
a(I40
I5
F-0.75
S'bright'
p816
tp817
a(I54
I3
I0
S'great'
p818
tp819
a(I68
I21
I0
S'yeah'
p820
tp821
a(I68
I21
I0
S'big'
p822
tp823
a(I103
I3
I0
S'great'
p824
tp825
a(I104
I4
F-0.75
S'bright'
p826
tp827
a(I130
I1
F0.625
S'easy'
p828
tp829
a(I130
I1
F0.75
S'beautiful'
p830
tp831
a(I156
I6
F1.0
S'better'
p832
tp833
as(S'battery'
p834
tp835
(lp836
(I0
I1
F0.125
S'able'
p837
tp838
a(I0
I1
F0.375
S'new'
p839
tp840
a(I0
I3
F0.375
S'new'
p841
tp842
a(I11
I19
F0.625
S'removable'
p843
tp844
a(I14
I4
F0.375
S'new'
p845
tp846
a(I38
I3
F0.625
S'superior'
p847
tp848
a(I41
I10
F0.375
S'extra'
p849
tp850
a(I49
I6
F0.375
S'new'
p851
tp852
a(I54
I8
F0.5
g714
tp853
a(I56
I12
F1.0
g716
tp854
a(I56
I12
F0.625
g718
tp855
a(I56
I33
I0
S'external'
p856
tp857
a(I56
I34
F-0.5
S'sure'
p858
tp859
a(I59
I4
F-0.5
g720
tp860
a(I60
I1
F0.375
S'extended'
p861
tp862
a(I60
I2
F0.375
g724
tp863
a(I66
I4
F1.0
g730
tp864
a(I71
I8
I0
S'great'
p865
tp866
a(I92
I4
F1.0
S'better'
p867
tp868
a(I92
I6
F0.75
S'give'
p869
tp870
a(I100
I28
F1.0
g736
tp871
a(I101
I0
I0
g738
tp872
a(I118
I0
I0
g742
tp873
a(I128
I8
F-0.625
S'seamless'
p874
tp875
a(I131
I4
I0
g744
tp876
a(I139
I58
F1.0
S'good'
p877
tp878
a(I139
I63
I0
S'internal'
p879
tp880
a(I139
I63
I0
S'perspective'
p881
tp882
a(I162
I5
F-0.5
g746
tp883
as(S'samsung'
p884
S'galaxy'
p885
tp886
(lp887
(I83
I2
I0
g194
tp888
a(I131
I0
I0
g196
tp889
as(S'calls'
p890
tp891
(lp892
(I34
I9
F0.5
S'clear'
p893
tp894
a(I54
I9
I0
S'few'
p895
tp896
a(I99
I5
F-0.25
S'dropped'
p897
tp898
a(I100
I2
F0.25
S'recent'
p899
tp900
a(I115
I4
I0
S'more'
p901
tp902
as(S'watching'
p903
S'movies'
p904
tp905
(lp906
(I12
I4
F0.875
S'music'
p907
tp908
as(S'razr'
p909
S'm'
p910
tp911
(lp912
(I38
I3
F0.375
S'new'
p913
tp914
as(S'f'
p915
S'want'
p916
tp917
(lp918
(I130
I0
I0
g285
tp919
as(S'time'
p920
tp921
(lp922
(I10
I0
F0.125
S'first'
p923
tp924
a(I24
I0
F-0.75
S'short'
p925
tp926
a(I31
I3
F0.5
S'willing'
p927
tp928
a(I43
I23
I0
S'only'
p929
tp930
a(I43
I27
I0
S'only'
p931
tp932
a(I55
I8
F-0.75
S'single'
p933
tp934
a(I62
I0
I0
S'very'
p935
tp936
a(I62
I0
F0.125
S'first'
p937
tp938
a(I68
I30
F-0.5
S'long'
p939
tp940
a(I98
I24
F0.125
S'first'
p941
tp942
a(I117
I10
I0
S'most'
p943
tp944
a(I118
I2
F-0.5
S'long'
p945
tp946
a(I120
I16
I0
S'most'
p947
tp948
a(I129
I1
I0
S'most'
p949
tp950
a(I139
I12
F-0.625
S'average'
p951
tp952
a(I139
I12
F-0.75
S'tough'
p953
tp954
a(I159
I4
I0
S'same'
p955
tp956
a(I163
I4
I0
S'same'
p957
tp958
as(S'of'
p959
S'battery'
p960
S'life'
p961
tp962
(lp963
(I6
I5
F1.0
g704
tp964
a(I56
I12
F1.0
g716
tp965
a(I56
I12
F0.625
g718
tp966
a(I59
I4
F-0.5
g720
tp967
a(I66
I4
F1.0
g730
tp968
a(I71
I7
F0.25
g732
tp969
as(S'verizon'
p970
S'store'
p971
tp972
(lp973
(I0
I17
I0
S'most'
p974
tp975
a(I48
I6
F-0.625
S'free'
p976
tp977
a(I148
I1
I0
g231
tp978
a(I150
I8
I0
g233
tp979
a(I161
I0
F-0.5
g243
tp980
a(I161
I0
F0.625
g245
tp981
a(I161
I0
I0
g247
tp982
as(S'razr'
p983
tp984
(lp985
(I38
I3
F0.375
g913
tp986
as(S'motorola'
p987
S'droid'
p988
tp989
(lp990
(I38
I13
F0.375
S'new'
p991
tp992
a(I43
I16
F0.25
S'original'
p993
tp994
a(I135
I2
I0
S'old'
p995
tp996
as(S'screen'
p997
tp998
(lp999
(I0
I4
F0.25
S'larger'
p1000
tp1001
a(I0
I7
F0.25
S'larger'
p1002
tp1003
a(I0
I7
F-0.75
S'bright'
p1004
tp1005
a(I0
I7
F0.5
S'clear'
p1006
tp1007
a(I1
I0
I0
S'big'
p1008
tp1009
a(I7
I3
I0
S'fast'
p1010
tp1011
a(I10
I0
F0.125
S'enough'
p1012
tp1013
a(I11
I12
F0.25
S'sharp'
p1014
tp1015
a(I11
I13
F-0.75
S'bright'
p1016
tp1017
a(I23
I0
F1.0
S'better'
p1018
tp1019
a(I29
I2
I0
S'large'
p1020
tp1021
a(I38
I13
I0
S'big'
p1022
tp1023
a(I38
I14
I0
S'big'
p1024
tp1025
a(I41
I4
I0
S'big'
p1026
tp1027
a(I41
I4
F-0.375
S'smaller'
p1028
tp1029
a(I43
I15
I0
S'large'
p1030
tp1031
a(I43
I17
F-0.375
S'small'
p1032
tp1033
a(I54
I6
I0
S'large'
p1034
tp1035
a(I56
I6
F0.25
S'larger'
p1036
tp1037
a(I59
I2
F0.25
S'bigger'
p1038
tp1039
a(I66
I4
F0.25
S'larger'
p1040
tp1041
a(I66
I9
F0.875
S'nice'
p1042
tp1043
a(I81
I3
I0
S'great'
p1044
tp1045
a(I81
I12
I0
S'large'
p1046
tp1047
a(I81
I15
I0
S'big'
p1048
tp1049
a(I81
I15
F0.375
S'extra'
p1050
tp1051
a(I81
I15
I0
S'real'
p1052
tp1053
a(I97
I0
F0.25
S'larger'
p1054
tp1055
a(I97
I0
F0.625
S'easier'
p1056
tp1057
a(I100
I12
I0
S'phenomenal'
p1058
tp1059
a(I111
I2
F0.625
S'perfect'
p1060
tp1061
a(I117
I8
F0.125
S'enough'
p1062
tp1063
a(I127
I3
I0
S'large'
p1064
tp1065
a(I129
I4
I0
S'great'
p1066
tp1067
a(I138
I1
I0
S'great'
p1068
tp1069
a(I138
I1
F0.625
S'easy'
p1070
tp1071
a(I139
I31
F-0.75
S'bright'
p1072
tp1073
a(I139
I37
F-0.25
S'low'
p1074
tp1075
a(I139
I37
F-0.75
S'dark'
p1076
tp1077
a(I152
I23
F-0.375
g613
tp1078
a(I152
I23
F-0.75
g615
tp1079
a(I152
I23
F-0.25
g617
tp1080
a(I154
I9
F0.75
S'beautiful'
p1081
tp1082
a(I160
I0
F0.25
S'bigger'
p1083
tp1084
a(I160
I0
I0
S'most'
p1085
tp1086
a(I162
I2
F0.75
S'beautiful'
p1087
tp1088
as(S'samsung'
p1089
tp1090
(lp1091
(I11
I5
F-0.5
S'less'
p1092
tp1093
a(I11
I5
F0.25
S'responsive'
p1094
tp1095
a(I11
I29
F0.5
S'accurate'
p1096
tp1097
a(I105
I9
F-0.5
S'sure'
p1098
tp1099
a(I111
I1
I0
S'forth'
p1100
tp1101
a(I117
I6
F0.125
S'first'
p1102
tp1103
a(I131
I0
I0
g196
tp1104
a(I152
I4
I0
S'old'
p1105
tp1106
as(S'camera'
p1107
tp1108
(lp1109
(I0
I15
F1.0
S'good'
p1110
tp1111
a(I6
I5
F1.0
S'best'
p1112
tp1113
a(I18
I7
F0.625
S'easiest'
p1114
tp1115
a(I34
I9
F0.25
S'sweet'
p1116
tp1117
a(I43
I31
F-0.125
S'slow'
p1118
tp1119
a(I43
I32
F0.25
S'stellar'
p1120
tp1121
a(I46
I5
I0
S'great'
p1122
tp1123
a(I63
I13
I0
S'great'
p1124
tp1125
a(I66
I7
F1.0
S'better'
p1126
tp1127
a(I66
I7
F0.5
S'primary'
p1128
tp1129
a(I68
I8
F1.0
S'good'
p1130
tp1131
a(I71
I5
I0
S'great'
p1132
tp1133
a(I98
I11
I0
S'great'
p1134
tp1135
a(I101
I1
F0.625
S'easy'
p1136
tp1137
a(I112
I1
I0
S'great'
p1138
tp1139
a(I118
I2
F0.625
S'perfect'
p1140
tp1141
a(I128
I26
F0.875
S'nice'
p1142
tp1143
a(I138
I2
I0
S'great'
p1144
tp1145
a(I151
I10
I0
S'great'
p1146
tp1147
a(I159
I2
I0
S'great'
p1148
tp1149
as(S'using'
p1150
tp1151
(lp1152
(I139
I10
I0
S'file'
p1153
tp1154
as(S'galaxy'
p1155
tp1156
(lp1157
(I38
I21
F-0.25
S'cheaper'
p1158
tp1159
a(I66
I0
I0
S'latest'
p1160
tp1161
a(I67
I1
F0.125
S'able'
p1162
tp1163
a(I83
I2
I0
g194
tp1164
a(I152
I20
I0
S'entire'
p1165
tp1166
a(I152
I30
F-0.625
S'other'
p1167
tp1168
as(S'pictures'
p1169
tp1170
(lp1171
(I1
I0
I0
S'most'
p1172
tp1173
a(I11
I17
F1.0
S'better'
p1174
tp1175
a(I56
I30
F1.0
S'good'
p1176
tp1177
a(I63
I16
I0
S'great'
p1178
tp1179
a(I68
I33
F0.875
S'nice'
p1180
tp1181
a(I81
I8
I0
S'great'
p1182
tp1183
a(I119
I2
I0
S'faster'
p1184
tp1185
as(S'people'
p1186
tp1187
(lp1188
(I21
I3
I0
S'blue'
p1189
tp1190
a(I55
I5
F0.75
S'give'
p1191
tp1192
a(I63
I7
F-0.625
S'bad'
p1193
tp1194
a(I63
I7
F-0.5
S'flimsy'
p1195
tp1196
a(I68
I34
I0
S'many'
p1197
tp1198
a(I81
I7
I0
S'most'
p1199
tp1200
a(I81
I7
F-0.75
S'likely'
p1201
tp1202
a(I93
I6
F0.25
S'helpful'
p1203
tp1204
a(I99
I12
I0
S'many'
p1205
tp1206
a(I100
I25
F-0.625
S'other'
p1207
tp1208
a(I117
I6
I0
S'android'
p1209
tp1210
a(I117
I6
F-0.625
S'want'
p1211
tp1212
a(I147
I2
F-0.75
S'stupid'
p1213
tp1214
a(I152
I17
I0
S'illegal'
p1215
tp1216
a(I163
I10
I0
S'many'
p1217
tp1218
as(S'feature'
p1219
tp1220
(lp1221
(I34
I7
F0.875
S'nice'
p1222
tp1223
a(I41
I23
F1.0
S'good'
p1224
tp1225
a(I43
I36
I0
S'great'
p1226
tp1227
a(I56
I17
I0
S'great'
p1228
tp1229
a(I68
I22
I0
S'great'
p1230
tp1231
a(I89
I3
I0
S'cool'
p1232
tp1233
a(I89
I3
F0.625
S'convenient'
p1234
tp1235
a(I133
I1
F0.25
S'bigger'
p1236
tp1237
a(I133
I1
I0
S'more'
p1238
tp1239
a(I139
I28
I0
S'great'
p1240
tp1241
a(I139
I42
F-0.25
S'low'
p1242
tp1243
a(I142
I0
F0.25
S'main'
p1244
tp1245
a(I152
I1
F0.625
S'major'
p1246
tp1247
as(S'works'
p1248
tp1249
(lp1250
(I67
I0
I0
S'great'
p1251
tp1252
a(I108
I1
F1.0
S'good'
p1253
tp1254
as(S'think'
p1255
tp1256
(lp1257
(I117
I5
F-0.75
S'stupid'
p1258
tp1259
as(S'better'
p1260
tp1261
(lp1262
(I11
I32
F0.375
S'much'
p1263
tp1264
a(I43
I28
F0.375
S'much'
p1265
tp1266
as(S'device'
p1267
tp1268
(lp1269
(I7
I4
F0.25
S'bigger'
p1270
tp1271
a(I36
I3
F0.375
S'new'
p1272
tp1273
a(I55
I7
I0
S'inside'
p1274
tp1275
a(I55
I7
I0
S'android'
p1276
tp1277
a(I55
I10
F0.125
S'last'
p1278
tp1279
a(I61
I4
I0
S'great'
p1280
tp1281
a(I61
I6
F0.375
S'newer'
p1282
tp1283
a(I89
I1
F-0.25
S'potential'
p1284
tp1285
a(I104
I5
I0
S'android'
p1286
tp1287
a(I110
I5
F-0.625
S'other'
p1288
tp1289
as(S'a'
p1290
g58
S'year'
p1291
tp1292
(lp1293
(I70
I3
I0
g62
tp1294
a(I70
I38
F1.0
g64
tp1295
a(I70
I38
I0
g66
tp1296
as(S'home'
p1297
tp1298
(lp1299
(I41
I2
F-0.5
S'actual'
p1300
tp1301
a(I43
I25
I0
S'fast'
p1302
tp1303
a(I54
I30
I0
S'soft'
p1304
tp1305
a(I137
I7
F0.25
S'main'
p1306
tp1307
as(S'call'
p1308
tp1309
(lp1310
(I19
I2
F1.0
g349
tp1311
as(S'much'
p1312
S'better'
p1313
tp1314
(lp1315
(I11
I32
F0.375
g1263
tp1316
a(I43
I28
F0.375
g1265
tp1317
as(S'galaxy'
p1318
S's3'
p1319
tp1320
(lp1321
(I38
I21
F-0.25
g1158
tp1322
a(I43
I36
F-0.25
g807
tp1323
a(I67
I1
F0.125
g1162
tp1324
a(I152
I20
I0
g1165
tp1325
a(I152
I30
F-0.625
g1167
tp1326
as(S'review'
p1327
tp1328
(lp1329
(I24
I3
F-0.625
S'bad'
p1330
tp1331
a(I33
I12
F0.375
S'follow'
p1332
tp1333
a(I41
I28
I0
S'latest'
p1334
tp1335
a(I41
I28
I0
S'more'
p1336
tp1337
a(I162
I1
F-0.75
S'short'
p1338
tp1339
as(S'3rd'
p1340
S'party'
p1341
tp1342
(lp1343
(I61
I2
I0
S'few'
p1344
tp1345
as(S'form'
p1346
S'factor'
p1347
tp1348
(lp1349
(I6
I5
F0.875
S'nice'
p1350
tp1351
a(I6
I5
I0
S'sleek'
p1352
tp1353
as(S'apps'
p1354
tp1355
(lp1356
(I0
I17
F0.375
S'available'
p1357
tp1358
a(I1
I0
F-0.125
S'slow'
p1359
tp1360
a(I1
I0
F-0.75
S'unnatural'
p1361
tp1362
a(I3
I1
I0
S'android'
p1363
tp1364
a(I4
I1
F0.625
S'easy'
p1365
tp1366
a(I5
I4
F-0.625
S'free'
p1367
tp1368
a(I16
I2
F-0.625
S'other'
p1369
tp1370
a(I41
I14
F-0.625
S'other'
p1371
tp1372
a(I66
I4
F0.375
S'new'
p1373
tp1374
a(I66
I12
I0
S'many'
p1375
tp1376
a(I68
I7
F1.0
S'good'
p1377
tp1378
a(I98
I22
I0
S'close'
p1379
tp1380
a(I129
I10
F0.375
S'available'
p1381
tp1382
a(I129
I14
I0
S'great'
p1383
tp1384
a(I131
I2
F0.375
S'available'
p1385
tp1386
a(I137
I5
F-0.5
S'open'
p1387
tp1388
a(I151
I13
F0.25
S'favorite'
p1389
tp1390
as(S'days'
p1391
tp1392
(lp1393
(I0
I3
I0
S'few'
p1394
tp1395
a(I23
I1
I0
S'few'
p1396
tp1397
a(I70
I26
F-0.25
S'past'
p1398
tp1399
a(I77
I0
I0
S'few'
p1400
tp1401
a(I81
I13
F0.5
S'whole'
p1402
tp1403
a(I94
I7
F0.375
S'new'
p1404
tp1405
a(I94
I7
F0.375
S'worked'
p1406
tp1407
a(I117
I11
I0
S'few'
p1408
tp1409
a(I119
I5
I0
S'few'
p1410
tp1411
a(I119
I8
I0
S'few'
p1412
tp1413
a(I119
I8
I0
S'later'
p1414
tp1415
a(I139
I4
F0.125
S'solid'
p1416
tp1417
a(I139
I60
I0
S'full'
p1418
tp1419
as.