(dp0
(S'battery'
p1
S'life'
p2
tp3
(lp4
(I2
I22
I0
S'great'
p5
I1
tp6
a(I7
I18
F-0.5
S'poor'
p7
I1
tp8
a(I7
I11
I0
S'great'
p9
I15
tp10
a(I7
I12
F0.375
S'new'
p11
I15
tp12
a(I7
I37
I0
S'big'
p13
I15
tp14
a(I7
I37
F-0.625
S'average'
p15
I15
tp16
a(I11
I70
F0.875
S'nice'
p17
I15
tp18
as(S'build'
p19
S'quality'
p20
tp21
(lp22
(I2
I15
I0
S'great'
p23
I2
tp24
a(I7
I38
F0.125
S'solid'
p25
I2
tp26
as(S'wifi'
p27
tp28
(lp29
(I10
I26
F-0.5
S'weak'
p30
I0
tp31
a(I10
I26
I0
S'signal'
p32
I0
tp33
a(I10
I36
F-0.125
S'slow'
p34
I0
tp35
a(I12
I3
F-0.625
S'free'
p36
I0
tp37
as(S'apps'
p38
tp39
(lp40
(I7
I40
F-0.125
S'slow'
p41
I0
tp42
a(I7
I40
I0
S'many'
p43
I0
tp44
a(I9
I21
F-0.5
S'certain'
p45
I0
tp46
a(I9
I37
I0
S'android'
p47
I0
tp48
a(I9
I38
I0
S'large'
p49
I0
tp50
a(I10
I19
I0
S'such'
p51
I0
tp52
a(I11
I9
I0
S'unnecessary'
p53
I0
tp54
as(S'camera'
p55
tp56
(lp57
(I10
I13
F1.0
S'good'
p58
I1
tp59
a(I10
I54
F0.625
S'decent'
p60
I1
tp61
a(I11
I11
F-0.875
S'awful'
p62
I1
tp63
a(I11
I42
F-0.125
S'slow'
p64
I1
tp65
a(I11
I47
I0
S'great'
p66
I1
tp67
a(I11
I53
I0
S'most'
p68
I1
tp69
a(I11
I53
I0
S'fast'
p70
I1
tp71
a(I11
I71
F-0.5
S'complaint'
p72
I1
tp73
as.