(dp0
(S'slow'
p1
S'slow'
p2
S'slow'
p3
tp4
(lp5
(I49
I65
F-0.125
S'slow'
p6
I0
tp7
a(I49
I65
F-0.125
S'slow'
p8
I0
tp9
a(I49
I65
F-0.125
S'slow'
p10
I0
tp11
a(I49
I65
F-0.125
g6
I17
tp12
a(I49
I65
F-0.125
g8
I17
tp13
a(I49
I65
F-0.125
g10
I17
tp14
as(S'a'
p15
S'long'
p16
S'time'
p17
tp18
(lp19
(I3
I45
F-0.5
S'longest'
p20
I12
tp21
a(I18
I64
F-0.5
S'long'
p22
I12
tp23
a(I20
I174
I0
S'user'
p24
I12
tp25
a(I20
I174
F-0.5
S'long'
p26
I12
tp27
a(I22
I9
F-0.5
S'long'
p28
I12
tp29
a(I22
I47
F-0.5
S'long'
p30
I12
tp31
a(I22
I48
F-0.5
S'long'
p32
I12
tp33
a(I26
I1
F-0.5
S'long'
p34
I12
tp35
a(I67
I59
F-0.5
S'long'
p36
I12
tp37
a(I73
I68
F-0.5
S'complaint'
p38
I12
tp39
a(I73
I68
F-0.5
S'long'
p40
I12
tp41
as(g15
S'reasonable'
p42
S'price'
p43
tp44
(lp45
(I5
I33
F0.5
S'reasonable'
p46
I1
tp47
a(I23
I36
F0.5
S'reasonable'
p48
I1
tp49
a(I32
I18
F0.5
S'reasonable'
p50
I1
tp51
a(I57
I36
F0.5
S'reasonable'
p52
I1
tp53
a(I73
I33
F0.5
S'reasonable'
p54
I1
tp55
as(S'35'
p56
g15
S'month'
p57
tp58
(lp59
(I67
I253
I0
S'more'
p60
I0
tp61
as(S'an'
p62
S'lg'
p63
S'optimus'
p64
tp65
(lp66
(I3
I1
I0
S'old'
p67
I0
tp68
a(I4
I0
I0
S'old'
p69
I0
tp70
a(I68
I14
I0
S'great'
p71
I0
tp72
a(I3
I1
I0
g67
I0
tp73
a(I4
I0
I0
g69
I0
tp74
a(I68
I14
I0
g71
I0
tp75
a(I18
I170
I0
S'old'
p76
I0
tp77
a(I48
I56
I0
S'old'
p78
I0
tp79
a(I56
I8
I0
S'next'
p80
I0
tp81
a(I68
I14
I0
g71
I0
tp82
a(I68
I19
F0.875
S'music'
p83
I0
tp84
as(S'overall'
p85
tp86
(lp87
(I32
I12
I0
S'great'
p88
I12
tp89
a(I75
I11
F1.0
S'good'
p90
I12
tp91
as(S'entry'
p92
S'level'
p93
tp94
(lp95
(I32
I53
F0.5
S'sensible'
p96
I0
tp97
a(I55
I78
I0
S'most'
p98
I0
tp99
a(I55
I78
I0
S'entry'
p100
I0
tp101
a(I62
I66
F0.875
S'nice'
p102
I0
tp103
a(I67
I134
F-0.25
S'inexpensive'
p104
I0
tp105
a(I67
I177
F0.875
S'nice'
p106
I0
tp107
as(S'viewing'
p108
S'angles'
p109
tp110
(lp111
(I49
I45
F1.0
S'good'
p112
I5
tp113
as(S'angry'
p114
S'birds'
p115
tp116
(lp117
(I44
I132
I0
S'anymore'
p118
I0
tp119
a(I44
I132
I0
S'angry'
p120
I0
tp121
as(S'gorilla'
p122
S'glass'
p123
tp124
(lp125
(I20
I161
F0.25
S'read'
p126
I0
tp127
as(S'hot'
p128
S'spot'
p129
tp130
(lp131
(I37
I2
I0
S'hot'
p132
I0
tp133
a(I37
I6
I0
S'hot'
p134
I0
tp135
as(S'operating'
p136
S'system'
p137
tp138
(lp139
(I24
I24
F-0.375
S'smooth'
p140
I2
tp141
a(I68
I18
I0
S'great'
p142
I2
tp143
as(S'iphone'
p144
tp145
(lp146
(I9
I10
I0
S'android'
p147
I1
tp148
a(I18
I136
F1.0
S'better'
p149
I1
tp150
a(I18
I136
F-0.5
S'sure'
p151
I1
tp152
a(I18
I136
F-0.625
S'other'
p153
I1
tp154
a(I30
I69
F0.5
S'comparable'
p155
I1
tp156
a(I30
I70
F0.25
S'larger'
p157
I1
tp158
a(I60
I109
F0.75
S'beautiful'
p159
I1
tp160
a(I65
I8
F-0.75
S'short'
p161
I1
tp162
a(I67
I37
I0
S'latest'
p163
I1
tp164
a(I68
I30
F0.375
S'available'
p165
I1
tp166
a(I69
I28
I0
S'fast'
p167
I1
tp168
as(S'job'
p169
S'done'
p170
tp171
(lp172
(I67
I74
I0
S'fastest'
p173
I2
tp174
a(I67
I74
F1.0
S'better'
p175
I2
tp176
as(S'front'
p177
S'facing'
p178
S'camera'
p179
tp180
(lp181
(I17
I14
F1.0
S'better'
p182
I0
tp183
a(I0
I33
I0
S'same'
p184
I1
tp185
a(I0
I34
I0
S'flush'
p186
I1
tp187
a(I3
I18
F0.75
S'beautiful'
p188
I1
tp189
a(I6
I2
F1.0
S'good'
p190
I1
tp191
a(I11
I71
I0
S'big'
p192
I1
tp193
a(I17
I14
F1.0
g182
I1
tp194
a(I21
I80
I0
S'great'
p195
I1
tp196
a(I24
I37
F-0.625
S'bad'
p197
I1
tp198
a(I34
I26
F1.0
S'better'
p199
I1
tp200
a(I34
I52
F0.875
S'nice'
p201
I1
tp202
a(I37
I32
I0
S'android'
p203
I1
tp204
a(I39
I9
I0
S'great'
p205
I1
tp206
a(I48
I11
I0
S'latest'
p207
I1
tp208
a(I48
I21
F-0.125
S'overall'
p209
I1
tp210
a(I48
I70
F-0.125
S'frontal'
p211
I1
tp212
a(I50
I4
I0
S'great'
p213
I1
tp214
a(I55
I29
I0
S'rear'
p215
I1
tp216
a(I60
I146
I0
S'rear'
p217
I1
tp218
a(I60
I167
I0
S'great'
p219
I1
tp220
a(I62
I3
I0
S'great'
p221
I1
tp222
a(I62
I4
I0
S'great'
p223
I1
tp224
a(I62
I4
F0.875
S'music'
p225
I1
tp226
a(I62
I62
F0.625
S'decent'
p227
I1
tp228
a(I67
I237
F1.0
S'good'
p229
I1
tp230
a(I69
I12
I0
S'3d'
p231
I1
tp232
a(I71
I0
F1.0
S'good'
p233
I1
tp234
a(I76
I5
I0
S'great'
p235
I1
tp236
a(I77
I10
F0.875
S'happy'
p237
I1
tp238
as(S'apps'
p239
tp240
(lp241
(I3
I89
I0
S'large'
p242
I0
tp243
a(I4
I2
F0.625
S'easier'
p244
I0
tp245
a(I4
I51
F-0.625
S'other'
p246
I0
tp247
a(I5
I5
I0
S'same'
p248
I0
tp249
a(I5
I28
F-0.25
S'intensive'
p250
I0
tp251
a(I8
I4
F0.125
S'able'
p252
I0
tp253
a(I8
I18
F0.875
S'important'
p254
I0
tp255
a(I11
I80
I0
S'most'
p256
I0
tp257
a(I14
I15
F-0.125
S'slow'
p258
I0
tp259
a(I15
I11
I0
S'great'
p260
I0
tp261
a(I15
I11
F0.5
S'stylish'
p262
I0
tp263
a(I18
I62
I0
S'few'
p264
I0
tp265
a(I18
I73
I0
S'most'
p266
I0
tp267
a(I18
I82
I0
S'multiple'
p268
I0
tp269
a(I18
I92
I0
S'many'
p270
I0
tp271
a(I18
I118
I0
S'many'
p272
I0
tp273
a(I18
I118
F-0.5
S'sure'
p274
I0
tp275
a(I19
I12
F-0.625
S'free'
p276
I0
tp277
a(I20
I58
I0
S'third'
p278
I0
tp279
a(I20
I113
F0.375
S'available'
p280
I0
tp281
a(I20
I119
F0.375
S'available'
p282
I0
tp283
a(I20
I150
I0
S'many'
p284
I0
tp285
a(I20
I170
I-100
S'more-demanding'
p286
I0
tp287
a(I21
I20
I0
S'few'
p288
I0
tp289
a(I21
I50
F0.25
S'recent'
p290
I0
tp291
a(I22
I53
I0
S'very'
p292
I0
tp293
a(I22
I53
F-0.125
S'minimum'
p294
I0
tp295
a(I24
I31
F-0.625
S'other'
p296
I0
tp297
a(I24
I96
F1.0
S'good'
p298
I0
tp299
a(I24
I109
I0
S'few'
p300
I0
tp301
a(I24
I111
I0
S'more'
p302
I0
tp303
a(I27
I3
F0.625
S'easy'
p304
I0
tp305
a(I30
I52
I0
S'android'
p306
I0
tp307
a(I31
I21
I0
S'most'
p308
I0
tp309
a(I32
I10
I0
S'many'
p310
I0
tp311
a(I32
I10
F0.5
S'desirable'
p312
I0
tp313
a(I34
I30
I0
S'such'
p314
I0
tp315
a(I35
I20
F-0.625
S'free'
p316
I0
tp317
a(I40
I8
I0
S'great'
p318
I0
tp319
a(I41
I1
I0
S'many'
p320
I0
tp321
a(I48
I26
F-0.25
S'intensive'
p322
I0
tp323
a(I48
I57
I0
S'many'
p324
I0
tp325
a(I49
I40
F-0.125
S'slow'
p326
I0
tp327
a(I50
I6
I0
S'many'
p328
I0
tp329
a(I54
I18
I0
S'most'
p330
I0
tp331
a(I55
I77
I0
S'different'
p332
I0
tp333
a(I56
I18
F-0.5
S'certain'
p334
I0
tp335
a(I57
I10
I0
S'many'
p336
I0
tp337
a(I57
I10
I0
S'such'
p338
I0
tp339
a(I57
I10
I0
S'many'
p340
I0
tp341
a(I60
I102
I0
S'fast'
p342
I0
tp343
a(I60
I203
I0
S'many'
p344
I0
tp345
a(I60
I203
F-0.625
S'free'
p346
I0
tp347
a(I62
I59
I0
S'few'
p348
I0
tp349
a(I64
I9
I0
S'own'
p350
I0
tp351
a(I67
I41
I0
S'many'
p352
I0
tp353
a(I67
I41
F0.375
S'available'
p354
I0
tp355
a(I67
I146
F0.375
S'available'
p356
I0
tp357
a(I67
I160
F-0.25
S'intensive'
p358
I0
tp359
a(I69
I20
F0.125
S'essential'
p360
I0
tp361
a(I75
I80
I0
S'many'
p362
I0
tp363
a(I75
I91
I0
S'most'
p364
I0
tp365
as(S'task'
p366
S'killer'
p367
tp368
(lp369
(I60
I144
I0
S'own'
p370
I0
tp371
a(I67
I173
F-0.625
S'other'
p372
I0
tp373
as(S'bells'
p374
S'and'
p375
S'whistles'
p376
tp377
(lp378
(I67
I150
I0
S'more'
p379
I0
tp380
as(S'virgin'
p381
S'mobile'
p382
S'website'
p383
tp384
(lp385
(I35
I15
F-0.5
S'sure'
p386
I0
tp387
a(I60
I165
I0
S'own'
p388
I0
tp389
as(S'htc'
p390
S'sense'
p391
tp392
(lp393
(I5
I27
F0.75
S'beautiful'
p394
I0
tp395
a(I23
I22
F0.75
S'gave'
p396
I0
tp397
a(I23
I22
F-0.625
S'other'
p398
I0
tp399
a(I30
I63
F-0.75
S'hate'
p400
I0
tp401
a(I34
I10
F-0.625
S'light'
p402
I0
tp403
as(S'to'
p404
S'virgin'
p405
S'mobile'
p406
tp407
(lp408
(I11
I21
F0.375
S'available'
p409
I0
tp410
a(I14
I19
I0
S'wish'
p411
I0
tp412
a(I22
I61
F-0.75
S'junior'
p413
I0
tp414
a(I22
I61
I0
S'high'
p415
I0
tp416
a(I36
I9
F-0.25
S'cheaper'
p417
I0
tp418
a(I42
I12
F-0.5
S'call'
p419
I0
tp420
a(I42
I12
I0
S'mobile'
p421
I0
tp422
a(I46
I0
F0.125
S'first'
p423
I0
tp424
a(I60
I165
I0
g388
I0
tp425
a(I60
I258
F-0.625
S'other'
p426
I0
tp427
a(I60
I269
F-0.625
S'other'
p428
I0
tp429
a(I74
I21
I0
S'monthly'
p430
I0
tp431
as(S'single'
p432
S'core'
p433
S'processor'
p434
tp435
(lp436
(I8
I28
F-0.75
S'single'
p437
I0
tp438
a(I8
I28
I0
S'adequate'
p439
I0
tp440
a(I14
I11
F-0.75
S'single'
p441
I0
tp442
a(I24
I182
F-0.75
S'single'
p443
I0
tp444
a(I34
I20
F-0.75
S'single'
p445
I0
tp446
a(I62
I8
F-0.75
S'single'
p447
I0
tp448
as(S'good'
p449
S'battery'
p450
S'life'
p451
tp452
(lp453
(I6
I13
F1.0
S'good'
p454
I0
tp455
a(I18
I185
F1.0
S'good'
p456
I0
tp457
a(I21
I41
F1.0
S'good'
p458
I0
tp459
a(I24
I42
F1.0
S'good'
p460
I0
tp461
a(I32
I37
F1.0
S'good'
p462
I0
tp463
a(I49
I23
F1.0
S'good'
p464
I0
tp465
a(I49
I106
F1.0
S'good'
p466
I0
tp467
a(I50
I5
F1.0
S'good'
p468
I0
tp469
a(I60
I1
F1.0
S'good'
p470
I0
tp471
a(I67
I156
F1.0
S'good'
p472
I0
tp473
a(I67
I212
F1.0
S'good'
p474
I0
tp475
a(I67
I253
F1.0
S'good'
p476
I0
tp477
a(I75
I5
F1.0
S'good'
p478
I0
tp479
a(I75
I101
F1.0
S'good'
p480
I0
tp481
a(I3
I82
F-0.375
S'crazy'
p482
I1
tp483
a(I5
I32
F-0.625
S'average'
p484
I1
tp485
a(I6
I13
F1.0
g454
I1
tp486
a(I18
I19
F0.875
S'nice'
p487
I1
tp488
a(I18
I47
F-0.625
S'average'
p489
I1
tp490
a(I18
I185
F1.0
g456
I1
tp491
a(I20
I109
I0
S'very'
p492
I1
tp493
a(I20
I109
F0.875
S'important'
p494
I1
tp495
a(I20
I109
F0.5
S'accurate'
p496
I1
tp497
a(I21
I41
F1.0
g458
I1
tp498
a(I22
I22
I0
S'general'
p499
I1
tp500
a(I22
I51
I0
S'great'
p501
I1
tp502
a(I23
I5
F-0.5
S'longer'
p503
I1
tp504
a(I24
I42
F1.0
g460
I1
tp505
a(I24
I178
F-0.75
S'short'
p506
I1
tp507
a(I31
I0
F1.0
S'best'
p508
I1
tp509
a(I32
I37
F1.0
g462
I1
tp510
a(I34
I40
F-0.875
S'hard'
p511
I1
tp512
a(I35
I82
F-0.625
S'average'
p513
I1
tp514
a(I39
I17
F0.125
S'tolerable'
p515
I1
tp516
a(I44
I94
F1.0
S'better'
p517
I1
tp518
a(I49
I23
F1.0
g464
I1
tp519
a(I49
I29
F-0.75
S'short'
p520
I1
tp521
a(I49
I106
F1.0
g466
I1
tp522
a(I50
I5
F1.0
g468
I1
tp523
a(I54
I6
I0
S'fast'
p524
I1
tp525
a(I54
I6
F0.625
S'easy'
p526
I1
tp527
a(I54
I6
F-0.625
S'bad'
p528
I1
tp529
a(I57
I34
F-0.5
S'complaint'
p530
I1
tp531
a(I60
I1
F1.0
g470
I1
tp532
a(I60
I147
I0
S'same'
p533
I1
tp534
a(I62
I60
I0
S'great'
p535
I1
tp536
a(I67
I72
F-0.75
S'short'
p537
I1
tp538
a(I67
I156
F1.0
g472
I1
tp539
a(I67
I212
F1.0
g474
I1
tp540
a(I67
I235
F-0.625
S'average'
p541
I1
tp542
a(I67
I253
F1.0
g476
I1
tp543
a(I73
I15
F0.875
S'happy'
p544
I1
tp545
a(I75
I5
F1.0
g478
I1
tp546
a(I75
I101
F1.0
g480
I1
tp547
a(I78
I13
F0.875
S'happy'
p548
I1
tp549
a(I5
I32
F-0.625
g484
I19
tp550
a(I18
I19
F0.875
g487
I19
tp551
a(I20
I109
I0
g492
I19
tp552
a(I21
I41
F1.0
g458
I19
tp553
a(I22
I51
I0
g501
I19
tp554
a(I24
I42
F1.0
g460
I19
tp555
a(I24
I178
F-0.75
g506
I19
tp556
a(I30
I62
F0.375
S'extra'
p557
I19
tp558
a(I32
I37
F1.0
g462
I19
tp559
a(I34
I40
F-0.875
g511
I19
tp560
a(I35
I82
F-0.625
g513
I19
tp561
a(I49
I23
F1.0
g464
I19
tp562
a(I49
I106
F1.0
g466
I19
tp563
a(I54
I6
F-0.625
g528
I19
tp564
a(I60
I147
I0
g533
I19
tp565
a(I62
I60
I0
g535
I19
tp566
a(I64
I10
F-0.75
S'short'
p567
I19
tp568
a(I67
I72
F-0.75
g537
I19
tp569
a(I67
I156
F1.0
g472
I19
tp570
a(I67
I212
F1.0
g474
I19
tp571
a(I67
I235
F-0.625
g541
I19
tp572
a(I75
I5
F1.0
g478
I19
tp573
a(I75
I101
F1.0
g480
I19
tp574
a(I0
I19
F-0.75
S'dead'
p575
I15
tp576
a(I3
I82
F-0.375
g482
I15
tp577
a(I3
I116
I0
S'deplete'
p578
I15
tp579
a(I6
I13
F1.0
g454
I15
tp580
a(I9
I7
F0.375
S'extended'
p581
I15
tp582
a(I18
I47
F-0.625
g489
I15
tp583
a(I18
I54
F1.0
S'good'
p584
I15
tp585
a(I18
I124
F-0.25
S'low'
p586
I15
tp587
a(I18
I124
F-0.25
S'low'
p588
I15
tp589
a(I18
I185
F1.0
g456
I15
tp590
a(I20
I64
F-0.5
S'sure'
p591
I15
tp592
a(I20
I109
F0.875
g494
I15
tp593
a(I20
I109
F0.5
g496
I15
tp594
a(I21
I31
F-0.5
S'long'
p595
I15
tp596
a(I22
I22
I0
g499
I15
tp597
a(I23
I5
F-0.5
g503
I15
tp598
a(I23
I15
F-0.625
S'permanent'
p599
I15
tp600
a(I24
I81
F1.0
S'good'
p601
I15
tp602
a(I25
I54
I0
S'internal'
p603
I15
tp604
a(I30
I61
F-0.5
S'certain'
p605
I15
tp606
a(I31
I0
F1.0
g508
I15
tp607
a(I31
I9
F-0.875
S'awful'
p608
I15
tp609
a(I31
I91
I0
S'nervous'
p610
I15
tp611
a(I32
I55
F0.75
S'due'
p612
I15
tp613
a(I32
I59
F-0.125
S'future'
p614
I15
tp615
a(I32
I61
F0.5
S'possible'
p616
I15
tp617
a(I33
I10
F0.375
S'much'
p618
I15
tp619
a(I35
I3
F0.375
S'new'
p620
I15
tp621
a(I35
I51
F-0.25
S'low'
p622
I15
tp623
a(I37
I29
F-0.625
S'other'
p624
I15
tp625
a(I39
I17
F0.125
g515
I15
tp626
a(I44
I31
F0.375
S'new'
p627
I15
tp628
a(I44
I94
F1.0
g517
I15
tp629
a(I49
I29
F-0.75
g520
I15
tp630
a(I50
I5
F1.0
g468
I15
tp631
a(I54
I6
I0
g524
I15
tp632
a(I54
I6
F0.625
g526
I15
tp633
a(I57
I34
F-0.5
g530
I15
tp634
a(I60
I1
F1.0
g470
I15
tp635
a(I60
I149
F-0.25
S'low'
p636
I15
tp637
a(I61
I8
F1.0
S'good'
p638
I15
tp639
a(I67
I115
I0
S'internal'
p640
I15
tp641
a(I67
I253
F1.0
g476
I15
tp642
a(I68
I25
F0.625
S'removable'
p643
I15
tp644
a(I72
I5
I0
S'full'
p645
I15
tp646
a(I73
I15
F0.875
g544
I15
tp647
a(I75
I89
I0
S'more'
p648
I15
tp649
a(I75
I90
I0
S'more'
p650
I15
tp651
a(I76
I9
F1.0
S'good'
p652
I15
tp653
a(I78
I13
F0.875
g548
I15
tp654
as(S'sd'
p655
S'card'
p656
tp657
(lp658
(I5
I35
F-0.375
S'small'
p659
I0
tp660
a(I14
I16
I0
S'many'
p661
I0
tp662
a(I14
I16
I0
S'pic'
p663
I0
tp664
a(I20
I58
F0.375
S'new'
p665
I0
tp666
a(I34
I21
F0.75
S'due'
p667
I0
tp668
a(I34
I21
I0
S'least'
p669
I0
tp670
a(I64
I14
I0
S'most'
p671
I0
tp672
as(S'ice'
p673
S'cream'
p674
S'sandwich'
p675
tp676
(lp677
(I4
I2
I0
S'android'
p678
I0
tp679
a(I4
I2
I0
S'few'
p680
I0
tp681
a(I48
I5
I-100
S'3/ice'
p682
I0
tp683
a(I48
I45
F0.375
S'new'
p684
I0
tp685
a(I67
I222
F0.625
S'easy'
p686
I0
tp687
a(I4
I2
I0
g678
I2
tp688
a(I4
I2
I0
g680
I0
tp689
a(I48
I45
F0.375
g684
I0
tp690
a(I67
I222
F0.625
g686
I0
tp691
as(S'contract'
p692
tp693
(lp694
(I0
I1
F0.5
S'expensive'
p695
I0
tp696
a(I4
I27
I0
S'current'
p697
I0
tp698
a(I18
I71
F0.125
S'first'
p699
I0
tp700
a(I20
I152
F0.125
S'last'
p701
I0
tp702
a(I20
I152
I0
S'few'
p703
I0
tp704
a(I31
I86
F-0.625
S'other'
p705
I0
tp706
a(I44
I2
F-0.625
S'free'
p707
I0
tp708
a(I48
I47
I0
S'only'
p709
I0
tp710
a(I54
I16
I0
S'monthly'
p711
I0
tp712
a(I68
I58
F0.125
S'able'
p713
I0
tp714
as(S'top'
p715
S'of'
p716
S'line'
p717
tp718
(lp719
(I11
I27
F-0.375
S'top'
p720
I0
tp721
a(I24
I55
F-0.375
S'top'
p722
I0
tp723
a(I52
I2
F0.625
S'interested'
p724
I0
tp725
a(I52
I2
F0.5
S'expensive'
p726
I0
tp727
a(I52
I2
F-0.375
S'top'
p728
I0
tp729
a(I64
I17
F-0.375
S'top'
p730
I0
tp731
a(I69
I22
F-0.375
S'top'
p732
I0
tp733
as(S'android'
p734
tp735
(lp736
(I0
I10
F-0.625
S'other'
p737
I0
tp738
a(I6
I10
F0.125
S'first'
p739
I0
tp740
a(I20
I67
I0
S'standard'
p741
I0
tp742
a(I20
I71
F-0.625
S'other'
p743
I0
tp744
a(I20
I156
I0
S'most'
p745
I0
tp746
a(I20
I156
F-0.625
S'other'
p747
I0
tp748
a(I23
I2
F0.125
S'first'
p749
I0
tp750
a(I30
I63
F-0.375
S'modified'
p751
I0
tp752
a(I30
I79
F0.25
S'recent'
p753
I0
tp754
a(I30
I84
F-0.25
S'higher'
p755
I0
tp756
a(I31
I90
F0.125
S'first'
p757
I0
tp758
a(I35
I20
I0
S'full'
p759
I0
tp760
a(I38
I7
I0
S'least'
p761
I0
tp762
a(I38
I7
F0.5
S'expensive'
p763
I0
tp764
a(I39
I17
I0
S'latest'
p765
I0
tp766
a(I49
I116
I0
S'basic'
p767
I0
tp768
a(I60
I100
F-0.625
S'other'
p769
I0
tp770
a(I60
I104
F0.125
S'first'
p771
I0
tp772
a(I60
I258
I0
S'older'
p773
I0
tp774
a(I62
I48
F1.0
S'best'
p775
I0
tp776
a(I67
I156
F0.375
S'similar'
p777
I0
tp778
a(I67
I221
F0.25
S'familiar'
p779
I0
tp780
a(I67
I232
F0.875
S'happy'
p781
I0
tp782
a(I68
I32
F1.0
S'good'
p783
I0
tp784
a(I75
I27
F-0.25
S'modern'
p785
I0
tp786
as(S'beats'
p787
S'audio'
p788
tp789
(lp790
(I3
I77
F0.625
S'noticeable'
p791
I0
tp792
a(I18
I23
F0.875
S'nice'
p793
I0
tp794
a(I20
I103
I0
S'fast'
p795
I0
tp796
a(I72
I4
F0.875
S'music'
p797
I0
tp798
a(I74
I8
F1.0
S'best'
p799
I0
tp800
a(I20
I103
I0
g795
I2
tp801
a(I72
I4
F0.875
g797
I2
tp802
a(I74
I8
F1.0
g799
I2
tp803
a(I3
I77
F0.625
g791
I2
tp804
a(I18
I23
F0.875
g793
I2
tp805
a(I30
I18
F1.0
S'good'
p806
I2
tp807
a(I44
I69
I0
S'great'
p808
I2
tp809
as(S'smart'
p810
tp811
(lp812
(I8
I7
F0.125
S'first'
p813
I10
tp814
a(I11
I17
F-0.625
S'other'
p815
I10
tp816
a(I25
I0
F1.0
S'better'
p817
I10
tp818
a(I28
I7
F0.125
S'first'
p819
I10
tp820
a(I36
I13
F0.5
S'reasonable'
p821
I10
tp822
a(I46
I7
F0.125
S'first'
p823
I10
tp824
a(I49
I0
F0.125
S'first'
p825
I10
tp826
a(I55
I72
I0
S'current'
p827
I10
tp828
a(I57
I33
I0
S'fast'
p829
I10
tp830
a(I57
I33
F0.375
S'reliable'
p831
I10
tp832
a(I57
I33
I0
S'most'
p833
I10
tp834
a(I60
I99
F0.125
S'first'
p835
I10
tp836
a(I63
I4
F0.125
S'first'
p837
I10
tp838
a(I67
I83
F0.125
S'first'
p839
I10
tp840
a(I67
I150
F0.5
S'expensive'
p841
I10
tp842
a(I75
I0
I0
S'great'
p843
I10
tp844
a(I76
I0
F0.875
S'nice'
p845
I10
tp846
a(I77
I0
F0.125
S'first'
p847
I10
tp848
a(I78
I9
F1.0
S'better'
p849
I10
tp850
as(S'black'
p851
S'friday'
p852
tp853
(lp854
(I22
I13
F0.125
S'last'
p855
I0
tp856
a(I46
I0
F0.125
S'able'
p857
I0
tp858
a(I46
I0
I0
S'special'
p859
I0
tp860
a(I49
I59
F-0.375
S'black'
p861
I0
tp862
as(S'optimus'
p863
S'v'
p864
tp865
(lp866
(I18
I170
I0
g76
I0
tp867
a(I24
I75
F0.75
S'worth'
p868
I0
tp869
a(I24
I75
F0.375
S'extra'
p870
I0
tp871
a(I48
I56
I0
g78
I0
tp872
a(I56
I8
I0
g80
I0
tp873
a(I68
I14
I0
g71
I0
tp874
a(I75
I6
F0.125
S'able'
p875
I0
tp876
as(g15
S'virgin'
p877
S'mobile'
p878
tp879
(lp880
(I3
I18
I0
S'basic'
p881
I0
tp882
a(I11
I21
F0.375
g409
I0
tp883
a(I11
I87
F0.625
S'acceptable'
p884
I0
tp885
a(I14
I19
I0
g411
I0
tp886
a(I19
I2
F-0.25
S'cheaper'
p887
I0
tp888
a(I22
I61
F-0.75
g413
I0
tp889
a(I22
I61
I0
g415
I0
tp890
a(I23
I43
I0
S'mobile'
p891
I0
tp892
a(I36
I9
F-0.25
g417
I0
tp893
a(I42
I2
I0
S'mobile'
p894
I0
tp895
a(I42
I12
F-0.5
g419
I0
tp896
a(I42
I12
I0
g421
I0
tp897
a(I46
I0
F0.125
g423
I0
tp898
a(I58
I1
F0.375
S'much'
p899
I0
tp900
a(I60
I97
I0
S'different'
p901
I0
tp902
a(I60
I165
I0
g388
I0
tp903
a(I60
I258
F-0.625
g426
I0
tp904
a(I60
I269
F-0.625
g428
I0
tp905
a(I67
I212
F-0.625
S'other'
p906
I0
tp907
a(I67
I215
F0.375
S'new'
p908
I0
tp909
a(I74
I21
I0
g430
I0
tp910
a(I75
I86
I0
S'same'
p911
I0
tp912
as(S'calls'
p913
tp914
(lp915
(I3
I98
F0.5
S'clear'
p916
I0
tp917
a(I8
I3
I0
S'few'
p918
I0
tp919
a(I8
I3
F-0.25
S'dropped'
p920
I0
tp921
a(I22
I27
F-0.125
S'public'
p922
I0
tp923
a(I23
I32
I0
S'few'
p924
I0
tp925
a(I32
I9
F0.5
S'clear'
p926
I0
tp927
a(I32
I9
F0.5
S'accurate'
p928
I0
tp929
a(I32
I29
I0
S'few'
p930
I0
tp931
a(I35
I70
F0.5
S'uncommon'
p932
I0
tp933
a(I39
I22
F0.5
S'clear'
p934
I0
tp935
a(I39
I27
F-0.25
S'dropped'
p936
I0
tp937
a(I60
I251
F0.5
S'clear'
p938
I0
tp939
a(I67
I155
F-0.25
S'dropped'
p940
I0
tp941
a(I74
I13
F1.0
S'better'
p942
I0
tp943
a(I75
I96
F0.5
S'clear'
p944
I0
tp945
a(I75
I107
I0
S'few'
p946
I0
tp947
as(S'virgin'
p948
S'mobile'
p949
S"'s"
p950
S'service'
p951
tp952
(lp953
(I11
I87
F0.625
g884
I0
tp954
a(I49
I49
F1.0
S'better'
p955
I0
tp956
a(I67
I12
F1.0
S'good'
p957
I0
tp958
a(I67
I211
F1.0
S'good'
p959
I0
tp960
a(I67
I211
I0
S'great'
p961
I0
tp962
a(I11
I87
F0.625
g884
I0
tp963
a(I23
I43
I0
g891
I0
tp964
a(I32
I49
F-0.375
S'unacceptable'
p965
I0
tp966
a(I49
I49
F1.0
g955
I0
tp967
a(I54
I46
I0
S'great'
p968
I0
tp969
a(I67
I12
F1.0
g957
I0
tp970
a(I67
I27
I0
S'least'
p971
I0
tp972
a(I67
I211
F1.0
g959
I0
tp973
a(I67
I211
I0
g961
I0
tp974
a(I3
I18
I0
g881
I0
tp975
a(I11
I21
F0.375
g409
I0
tp976
a(I11
I87
F0.625
g884
I0
tp977
a(I14
I19
I0
g411
I0
tp978
a(I19
I2
F-0.25
g887
I0
tp979
a(I22
I61
F-0.75
g413
I0
tp980
a(I22
I61
I0
g415
I0
tp981
a(I23
I43
I0
g891
I0
tp982
a(I36
I9
F-0.25
g417
I0
tp983
a(I42
I2
I0
g894
I0
tp984
a(I42
I12
F-0.5
g419
I0
tp985
a(I42
I12
I0
g421
I0
tp986
a(I46
I0
F0.125
g423
I0
tp987
a(I58
I1
F0.375
g899
I0
tp988
a(I60
I97
I0
g901
I0
tp989
a(I60
I165
I0
g388
I0
tp990
a(I60
I258
F-0.625
g426
I0
tp991
a(I60
I269
F-0.625
g428
I0
tp992
a(I67
I212
F-0.625
g906
I0
tp993
a(I67
I215
F0.375
g908
I0
tp994
a(I74
I21
I0
g430
I0
tp995
a(I75
I86
I0
g911
I0
tp996
a(I3
I18
I0
g881
I0
tp997
a(I11
I21
F0.375
g409
I0
tp998
a(I11
I87
F0.625
g884
I0
tp999
a(I14
I19
I0
g411
I0
tp1000
a(I18
I7
I0
S'website'
p1001
I0
tp1002
a(I18
I7
F-0.625
S'other'
p1003
I0
tp1004
a(I18
I8
F-0.75
S'likely'
p1005
I0
tp1006
a(I19
I2
F-0.25
g887
I0
tp1007
a(I23
I43
I0
g891
I0
tp1008
a(I25
I11
F0.375
S'new'
p1009
I0
tp1010
a(I36
I9
F-0.25
g417
I0
tp1011
a(I39
I35
F-0.75
S'unable'
p1012
I0
tp1013
a(I39
I35
F0.125
S'first'
p1014
I0
tp1015
a(I39
I35
F-0.25
S'direct'
p1016
I0
tp1017
a(I42
I2
I0
g894
I0
tp1018
a(I42
I12
F-0.5
g419
I0
tp1019
a(I42
I12
I0
g421
I0
tp1020
a(I44
I136
F1.0
S'good'
p1021
I0
tp1022
a(I46
I0
F0.125
g423
I0
tp1023
a(I60
I97
I0
g901
I0
tp1024
a(I60
I165
I0
g388
I0
tp1025
a(I60
I258
F-0.625
g426
I0
tp1026
a(I60
I269
F-0.625
g428
I0
tp1027
a(I67
I212
F-0.625
g906
I0
tp1028
a(I67
I215
F0.375
g908
I0
tp1029
a(I74
I21
I0
g430
I0
tp1030
a(I0
I54
I0
S'old'
p1031
I16
tp1032
a(I0
I54
I0
S'great'
p1033
I16
tp1034
a(I0
I54
F1.0
S'good'
p1035
I16
tp1036
a(I4
I30
I0
S'great'
p1037
I16
tp1038
a(I11
I74
F-0.625
S'other'
p1039
I16
tp1040
a(I14
I8
F-0.5
S'less'
p1041
I16
tp1042
a(I20
I101
I0
S'such'
p1043
I16
tp1044
a(I20
I101
F-0.625
S'bad'
p1045
I16
tp1046
a(I22
I34
I0
S'more'
p1047
I16
tp1048
a(I22
I69
F1.0
S'good'
p1049
I16
tp1050
a(I23
I46
F-0.25
S'disappointing'
p1051
I16
tp1052
a(I23
I52
I0
S'great'
p1053
I16
tp1054
a(I26
I1
F0.875
S'happy'
p1055
I16
tp1056
a(I32
I9
F0.75
S'worth'
p1057
I16
tp1058
a(I32
I49
F-0.375
g965
I16
tp1059
a(I37
I10
F1.0
S'best'
p1060
I16
tp1061
a(I44
I26
F0.5
S'polite'
p1062
I16
tp1063
a(I44
I26
F0.25
S'helpful'
p1064
I16
tp1065
a(I49
I12
F1.0
S'better'
p1066
I16
tp1067
a(I49
I49
F1.0
g955
I16
tp1068
a(I54
I46
I0
g968
I16
tp1069
a(I54
I53
F1.0
S'better'
p1070
I16
tp1071
a(I67
I12
F1.0
g957
I16
tp1072
a(I67
I27
I0
g971
I16
tp1073
a(I67
I140
F-0.625
S'other'
p1074
I16
tp1075
a(I67
I211
F1.0
g959
I16
tp1076
a(I67
I211
I0
g961
I16
tp1077
a(I67
I253
I0
S'more'
p1078
I16
tp1079
a(I4
I22
F-0.5
S'heavy'
p1080
I0
tp1081
a(I20
I37
F0.125
S'first'
p1082
I0
tp1083
a(I20
I37
F0.5
S'true'
p1084
I0
tp1085
a(I22
I54
F0.875
S'nice'
p1086
I0
tp1087
a(I22
I61
F-0.75
g413
I0
tp1088
a(I22
I61
I0
g415
I0
tp1089
a(I44
I22
F0.5
S'second'
p1090
I0
tp1091
a(I58
I1
F0.375
g899
I0
tp1092
a(I75
I86
I0
g911
I0
tp1093
as(S'amazon'
p1094
tp1095
(lp1096
(I17
I6
I0
S'more'
p1097
I13
tp1098
a(I20
I175
I0
S'few'
p1099
I13
tp1100
a(I20
I175
F-0.625
S'other'
p1101
I13
tp1102
a(I31
I59
F0.5
S'careful'
p1103
I13
tp1104
a(I31
I62
F-0.875
S'regret'
p1105
I13
tp1106
a(I31
I62
F-0.375
S'impatient'
p1107
I13
tp1108
a(I31
I62
I0
S'website'
p1109
I13
tp1110
a(I42
I5
F0.375
S'prime'
p1111
I13
tp1112
a(I56
I26
F0.5
S'true'
p1113
I13
tp1114
a(I67
I97
F1.0
S'good'
p1115
I13
tp1116
as(S'text'
p1117
S'and'
p1118
S'data'
p1119
tp1120
(lp1121
(I77
I20
F0.5
S'clear'
p1122
I0
tp1123
a(I0
I15
I0
S'faster'
p1124
I18
tp1125
a(I11
I12
F0.5
S'second'
p1126
I18
tp1127
a(I11
I14
F0.875
S'lucky'
p1128
I18
tp1129
a(I11
I14
I0
S'third'
p1130
I18
tp1131
a(I18
I6
F0.375
S'new'
p1132
I18
tp1133
a(I20
I2
I0
S'old'
p1134
I18
tp1135
a(I20
I77
I0
S'predicative'
p1136
I18
tp1137
a(I21
I33
F0.625
S'easy'
p1138
I18
tp1139
a(I22
I18
I0
S'enter'
p1140
I18
tp1141
a(I39
I7
F0.375
S'new'
p1142
I18
tp1143
a(I39
I8
F0.375
S'new'
p1144
I18
tp1145
a(I48
I33
F0.5
S'clear'
p1146
I18
tp1147
a(I48
I33
F0.25
S'sharp'
p1148
I18
tp1149
a(I57
I13
F-0.375
S'double'
p1150
I18
tp1151
a(I5
I3
I0
S'same'
p1152
I13
tp1153
a(I6
I8
F-0.125
S'slow'
p1154
I13
tp1155
a(I18
I46
I0
S'slower'
p1156
I13
tp1157
a(I31
I55
F0.5
S'personal'
p1158
I13
tp1159
a(I62
I25
F-0.125
S'slow'
p1160
I13
tp1161
a(I77
I20
F0.5
g1122
I13
tp1162
as(S'in'
p1163
S'price'
p1164
S'range'
p1165
tp1166
(lp1167
(I31
I60
I0
S'same'
p1168
I0
tp1169
a(I55
I1
I0
S'same'
p1170
I0
tp1171
a(I55
I75
F0.875
S'happy'
p1172
I0
tp1173
as(S'form'
p1174
S'factor'
p1175
tp1176
(lp1177
(I55
I73
F0.875
S'happy'
p1178
I1
tp1179
as(S'music'
p1180
tp1181
(lp1182
(I3
I78
I0
S'own'
p1183
I0
tp1184
as(S'rating'
p1185
S'scale'
p1186
tp1187
(lp1188
(I18
I163
F0.5
S'second'
p1189
I0
tp1190
as(S'much'
p1191
S'better'
p1192
tp1193
(lp1194
(I22
I22
F0.375
S'much'
p1195
I9
tp1196
a(I56
I2
F0.375
S'much'
p1197
I9
tp1198
a(I67
I172
F0.375
S'much'
p1199
I9
tp1200
a(I75
I64
F0.375
S'much'
p1201
I9
tp1202
as(S'smartphone'
p1203
tp1204
(lp1205
(I0
I50
F0.75
S'due'
p1206
I0
tp1207
a(I4
I24
F-0.625
S'other'
p1208
I0
tp1209
a(I6
I12
I0
S'great'
p1210
I0
tp1211
a(I8
I33
F0.125
S'first'
p1212
I0
tp1213
a(I11
I60
F0.125
S'first'
p1214
I0
tp1215
a(I11
I60
F0.125
S'first'
p1216
I0
tp1217
a(I18
I110
F0.125
S'first'
p1218
I0
tp1219
a(I18
I186
I0
S'great'
p1220
I0
tp1221
a(I22
I63
F0.375
S'new'
p1222
I0
tp1223
a(I35
I75
I0
S'old'
p1224
I0
tp1225
a(I36
I24
I0
S'fourth'
p1226
I0
tp1227
a(I49
I1
F0.625
S'easy'
p1228
I0
tp1229
a(I60
I75
I0
S'cool'
p1230
I0
tp1231
a(I60
I137
F0.125
S'first'
p1232
I0
tp1233
a(I60
I150
I0
S'basic'
p1234
I0
tp1235
a(I68
I22
F-0.625
S'average'
p1236
I0
tp1237
a(I75
I68
I0
S'great'
p1238
I0
tp1239
a(I75
I69
F1.0
S'best'
p1240
I0
tp1241
a(I78
I6
F0.375
S'new'
p1242
I0
tp1243
as(S'network'
p1244
tp1245
(lp1246
(I3
I122
I0
S'same'
p1247
I0
tp1248
a(I6
I8
I0
S'mobile'
p1249
I0
tp1250
a(I18
I37
I0
S'same'
p1251
I0
tp1252
a(I18
I105
F0.125
S'first'
p1253
I0
tp1254
a(I18
I105
I0
S'mobile'
p1255
I0
tp1256
a(I34
I43
I0
S'mobile'
p1257
I0
tp1258
a(I62
I14
F0.125
S'able'
p1259
I0
tp1260
a(I68
I60
F1.0
S'best'
p1261
I0
tp1262
a(I75
I102
I0
S'real'
p1263
I0
tp1264
a(I75
I102
F0.5
S'strong'
p1265
I0
tp1266
as(S'evo'
p1267
g864
tp1268
(lp1269
(I0
I30
I0
S'more'
p1270
I0
tp1271
a(I0
I49
I0
S'wish'
p1272
I0
tp1273
a(I18
I86
I0
S'old'
p1274
I0
tp1275
a(I24
I129
I0
S'awhile'
p1276
I0
tp1277
a(I37
I26
I0
S'more'
p1278
I0
tp1279
a(I60
I122
F0.375
S'extra'
p1280
I0
tp1281
a(I78
I16
I0
S'fast'
p1282
I0
tp1283
as(S'customer'
p1284
S'service'
p1285
tp1286
(lp1287
(I20
I24
I0
S'least'
p1288
I3
tp1289
a(I20
I24
I0
S'different'
p1290
I3
tp1291
a(I32
I49
F-0.375
g965
I3
tp1292
a(I44
I26
F-0.125
S'foreign'
p1293
I3
tp1294
a(I44
I26
F0.5
g1062
I3
tp1295
a(I44
I26
F0.25
g1064
I3
tp1296
a(I48
I84
I0
S'great'
p1297
I3
tp1298
as(S'wifi'
p1299
tp1300
(lp1301
(I4
I18
F1.0
S'good'
p1302
I0
tp1303
a(I18
I39
F0.625
S'major'
p1304
I0
tp1305
a(I18
I39
F-0.5
S'weak'
p1306
I0
tp1307
a(I21
I7
F-0.25
S'plugged'
p1308
I0
tp1309
a(I23
I15
I0
S'unresolved'
p1310
I0
tp1311
a(I60
I46
F-0.125
S'public'
p1312
I0
tp1313
a(I69
I34
F0.5
S'second'
p1314
I0
tp1315
as(g15
S'great'
p1316
S'price'
p1317
tp1318
(lp1319
(I3
I54
I0
S'great'
p1320
I9
tp1321
a(I5
I33
F0.5
g46
I9
tp1322
a(I8
I36
I0
S'great'
p1323
I9
tp1324
a(I17
I6
I0
S'full'
p1325
I9
tp1326
a(I22
I30
I0
S'great'
p1327
I9
tp1328
a(I22
I46
I0
S'great'
p1329
I9
tp1330
a(I22
I60
I0
S'great'
p1331
I9
tp1332
a(I22
I60
F-0.25
S'low'
p1333
I9
tp1334
a(I31
I60
I0
g1168
I9
tp1335
a(I32
I43
I0
S'great'
p1336
I9
tp1337
a(I48
I47
F-0.5
S'heavy'
p1338
I9
tp1339
a(I54
I19
I0
S'great'
p1340
I9
tp1341
a(I61
I2
F0.5
S'expensive'
p1342
I9
tp1343
a(I64
I25
I0
S'great'
p1344
I9
tp1345
a(I67
I107
I0
S'great'
p1346
I9
tp1347
a(I75
I0
I0
S'great'
p1348
I9
tp1349
a(I75
I0
F-0.375
S'smaller'
p1350
I9
tp1351
a(I77
I21
I0
S'great'
p1352
I9
tp1353
as(S'on'
p1354
S'virgin'
p1355
S'mobile'
p1356
tp1357
(lp1358
(I3
I18
I0
g881
I0
tp1359
a(I11
I21
F0.375
g409
I0
tp1360
a(I11
I87
F0.625
g884
I0
tp1361
a(I14
I19
I0
g411
I0
tp1362
a(I19
I2
F-0.25
g887
I0
tp1363
a(I22
I61
F-0.75
g413
I0
tp1364
a(I22
I61
I0
g415
I0
tp1365
a(I23
I43
I0
g891
I0
tp1366
a(I36
I9
F-0.25
g417
I0
tp1367
a(I42
I2
I0
g894
I0
tp1368
a(I42
I12
F-0.5
g419
I0
tp1369
a(I42
I12
I0
g421
I0
tp1370
a(I46
I0
F0.125
g423
I0
tp1371
a(I58
I1
F0.375
g899
I0
tp1372
a(I60
I97
I0
g901
I0
tp1373
a(I60
I165
I0
g388
I0
tp1374
a(I60
I258
F-0.625
g426
I0
tp1375
a(I60
I269
F-0.625
g428
I0
tp1376
a(I67
I212
F-0.625
g906
I0
tp1377
a(I67
I215
F0.375
g908
I0
tp1378
a(I74
I21
I0
g430
I0
tp1379
a(I75
I86
I0
g911
I0
tp1380
as(S'htc'
p1381
S'one'
p1382
g864
tp1383
(lp1384
(I0
I29
F-0.375
S'smaller'
p1385
I0
tp1386
a(I3
I61
F-0.5
S'sure'
p1387
I0
tp1388
a(I3
I61
F0.375
S'extra'
p1389
I0
tp1390
a(I3
I61
I0
S'quick'
p1391
I0
tp1392
a(I3
I70
F-0.125
S'super'
p1393
I0
tp1394
a(I6
I7
F-0.75
S'sad'
p1395
I0
tp1396
a(I20
I157
I0
S'current'
p1397
I0
tp1398
a(I22
I36
F0.375
S'new'
p1399
I0
tp1400
a(I22
I36
I0
S'such'
p1401
I0
tp1402
a(I23
I22
F0.75
g396
I0
tp1403
a(I23
I22
F-0.625
g398
I0
tp1404
a(I30
I19
F0.625
S'superior'
p1405
I0
tp1406
a(I31
I60
F0.375
S'new'
p1407
I0
tp1408
a(I35
I22
I0
S'slim'
p1409
I0
tp1410
a(I37
I26
I0
g1278
I0
tp1411
a(I42
I0
F0.375
S'new'
p1412
I0
tp1413
a(I48
I46
F0.875
S'nice'
p1414
I0
tp1415
a(I54
I0
I0
S'user'
p1416
I0
tp1417
a(I55
I10
F0.375
S'available'
p1418
I0
tp1419
a(I55
I42
F0.375
S'available'
p1420
I0
tp1421
a(I68
I48
F1.0
S'good'
p1422
I0
tp1423
a(I69
I3
I0
S'slower'
p1424
I0
tp1425
a(I75
I6
F0.125
g875
I0
tp1426
a(I0
I49
I0
g1272
I0
tp1427
a(I3
I34
F0.125
S'able'
p1428
I0
tp1429
a(I3
I61
I0
g1391
I0
tp1430
a(I20
I66
F0.25
S'powerful'
p1431
I0
tp1432
a(I20
I159
F1.0
S'good'
p1433
I0
tp1434
a(I22
I36
I0
g1401
I0
tp1435
a(I24
I75
F0.75
g868
I0
tp1436
a(I24
I75
F0.375
g870
I0
tp1437
a(I24
I129
I0
g1276
I0
tp1438
a(I35
I22
I0
g1409
I0
tp1439
a(I37
I26
I0
g1278
I0
tp1440
a(I48
I46
F0.875
g1414
I0
tp1441
a(I54
I0
I0
g1416
I0
tp1442
a(I55
I10
F0.375
g1418
I0
tp1443
a(I55
I42
F0.375
g1420
I0
tp1444
a(I75
I6
F0.125
g875
I0
tp1445
as.