(dp0
(S'android'
p1
tp2
(lp3
(I5
I5
F1.0
S'best'
p4
I0
tp5
a(I14
I52
I0
S'later'
p6
I0
tp7
as(S'sims'
p8
tp9
(lp10
(I9
I4
I0
S'great'
p11
I0
tp12
as(S'battery'
p13
S'life'
p14
tp15
(lp16
(I14
I53
I0
S'great'
p17
I1
tp18
a(I4
I51
F0.375
S'new'
p19
I15
tp20
a(I5
I9
F-0.25
S'low'
p21
I15
tp22
as(S'calls'
p23
tp24
(lp25
(I2
I2
F0.125
S'able'
p26
I0
tp27
a(I5
I23
F-0.625
S'other'
p28
I0
tp29
a(I14
I28
F-0.625
S'other'
p30
I0
tp31
a(I14
I33
F-0.625
S'free'
p32
I0
tp33
a(I15
I3
F0.125
S'able'
p34
I0
tp35
as(S'sim'
p36
S'card'
p37
tp38
(lp39
(I4
I65
F0.25
S'main'
p40
I0
tp41
a(I12
I1
I0
S'different'
p42
I0
tp43
as(S'samsung'
p44
S'phones'
p45
tp46
(lp47
(I4
I48
F-0.625
S'other'
p48
I0
tp49
a(I4
I54
F-0.625
S'other'
p50
I0
tp51
as(S'sim'
p52
S'cards'
p53
tp54
(lp55
(I12
I1
I0
g42
I0
tp56
as(S'dual'
p57
S'sim'
p58
tp59
(lp60
(I8
I17
I0
S'active'
p61
I0
tp62
a(I14
I28
I0
S'active'
p63
I0
tp64
a(I14
I62
F1.0
S'best'
p65
I0
tp66
as.