(dp0
(S'screen'
p1
S'size'
p2
tp3
(lp4
(I1
I0
F-0.625
S'light'
p5
tp6
a(I210
I9
F0.5
S'touch'
p7
tp8
a(I210
I9
F0.375
S'available'
p9
tp10
a(I210
I16
F0.25
S'sharper'
p11
tp12
a(I222
I0
I0
S'great'
p13
tp14
a(I269
I2
F0.625
S'perfect'
p15
tp16
as(S'problem'
p17
tp18
(lp19
(I9
I64
I0
S'same'
p20
tp21
a(I44
I6
I0
S'only'
p22
tp23
a(I161
I2
I0
S'same'
p24
tp25
a(I207
I12
I0
S'real'
p26
tp27
a(I214
I1
F0.375
S'reliable'
p28
tp29
a(I239
I13
F0.5
S'primary'
p30
tp31
as(S'virgin'
p32
S'mobile'
p33
tp34
(lp35
(I12
I3
I0
S'more'
p36
tp37
a(I93
I3
I0
S'mobile'
p38
tp39
as(S'mobile'
p40
tp41
(lp42
(I12
I3
I0
g36
tp43
a(I76
I1
F0.25
S'boost'
p44
tp45
a(I219
I4
F-0.5
S'less'
p46
tp47
as(S'battery'
p48
S'life'
p49
tp50
(lp51
(I20
I0
F-0.5
S'open'
p52
tp53
a(I20
I0
F-0.125
S'overall'
p54
tp55
a(I27
I10
F0.625
S'fair'
p56
tp57
a(I47
I7
F-0.75
S'worse'
p58
tp59
a(I71
I10
F1.0
S'good'
p60
tp61
a(I92
I0
F0.375
S'new'
p62
tp63
a(I92
I0
F0.25
S'larger'
p64
tp65
a(I109
I3
F1.0
S'better'
p66
tp67
a(I109
I4
F-0.5
S'sure'
p68
tp69
a(I109
I4
F-0.75
S'worse'
p70
tp71
a(I136
I0
F1.0
S'good'
p72
tp73
a(I139
I3
F-0.75
S'short'
p74
tp75
a(I210
I6
I0
S'great'
p76
tp77
a(I220
I2
F-0.75
S'short'
p78
tp79
a(I222
I0
I0
S'great'
p80
tp81
a(I225
I2
F1.0
S'good'
p82
tp83
a(I241
I0
F0.625
S'easy'
p84
tp85
a(I267
I8
F1.0
S'better'
p86
tp87
as(S'on'
p88
S'htc'
p89
S'evo'
p90
tp91
(lp92
(I187
I0
F1.0
S'best'
p93
tp94
a(I210
I16
I0
S'more'
p95
tp96
as(S'year'
p97
tp98
(lp99
(I44
I6
I0
S'more'
p100
tp101
a(I77
I7
I0
S'old'
p102
tp103
a(I82
I0
I0
S'old'
p104
tp105
a(I152
I1
I0
S'old'
p106
tp107
a(I170
I11
F0.875
S'happy'
p108
tp109
a(I239
I5
F0.375
S'extra'
p110
tp111
as(S'galaxy'
p112
S's2'
p113
tp114
(lp115
(I210
I5
I0
S'android'
p116
tp117
as(S'came'
p118
tp119
(lp120
(I162
I0
F-0.125
S'mine'
p121
tp122
a(I239
I6
I0
S'total'
p123
tp124
as(S'money'
p125
tp126
(lp127
(I27
I5
F0.75
S'worth'
p128
tp129
a(I63
I0
F0.75
S'worth'
p130
tp131
a(I134
I3
F0.75
S'worth'
p132
tp133
a(I149
I13
I0
S'more'
p134
tp135
a(I163
I0
F0.375
S'extra'
p136
tp137
as(S'boost'
p138
S'mobile'
p139
tp140
(lp141
(I12
I3
I0
g36
tp142
a(I45
I0
F1.0
S'best'
p143
tp144
a(I55
I2
I0
S'more'
p145
tp146
a(I55
I2
I0
S'different'
p147
tp148
a(I76
I1
F0.25
g44
tp149
a(I109
I29
F-0.5
S'call'
p150
tp151
a(I125
I1
F-0.625
S'sorry'
p152
tp153
a(I219
I4
F-0.5
g46
tp154
a(I235
I10
F-0.125
S'overall'
p155
tp156
a(I235
I10
I0
S'mobile'
p157
tp158
a(I247
I1
F0.5
S'second'
p159
tp160
a(I255
I4
I0
S'older'
p161
tp162
as(S'nice'
p163
tp164
(lp165
(I104
I2
I0
S'very'
p166
tp167
a(I155
I0
I0
S'big'
p168
tp169
a(I253
I0
F1.0
S'good'
p170
tp171
as(S'tech'
p172
S'support'
p173
tp174
(lp175
(I9
I32
I0
S'tech'
p176
tp177
a(I226
I4
I0
S'local'
p178
tp179
as(S'like'
p180
tp181
(lp182
(I79
I1
F0.375
S'new'
p183
tp184
a(I121
I4
I0
S'faster'
p185
tp186
as(S'call'
p187
S'quality'
p188
tp189
(lp190
(I28
I2
I0
S'great'
p191
tp192
a(I81
I4
I0
S'great'
p193
tp194
a(I210
I39
I0
S'great'
p195
tp196
a(I228
I2
I0
S'great'
p197
tp198
as(S'service'
p199
tp200
(lp201
(I9
I2
F1.0
S'good'
p202
tp203
a(I9
I16
F-0.75
S'off'
p204
tp205
a(I9
I28
F1.0
S'best'
p206
tp207
a(I9
I40
F1.0
S'best'
p208
tp209
a(I12
I17
I0
S'great'
p210
tp211
a(I25
I0
F-0.625
S'bad'
p212
tp213
a(I25
I4
F1.0
S'good'
p214
tp215
a(I27
I6
I0
S'great'
p216
tp217
a(I36
I0
F1.0
S'best'
p218
tp219
a(I71
I22
I0
S'funny'
p220
tp221
a(I93
I3
F0.875
S'happy'
p222
tp223
a(I97
I0
I0
S'great'
p224
tp225
a(I130
I0
F1.0
S'best'
p226
tp227
a(I164
I13
I0
S'only'
p228
tp229
a(I170
I24
F1.0
S'better'
p230
tp231
a(I172
I0
I0
S'great'
p232
tp233
a(I178
I1
I0
S'great'
p234
tp235
a(I210
I3
F0.375
S'similar'
p236
tp237
a(I254
I6
F1.0
S'good'
p238
tp239
a(I266
I29
F0.5
S'satisfied'
p240
tp241
as(S'everything'
p242
tp243
(lp244
(I22
I8
F-0.5
S'unlimited'
p245
tp246
as(S'problems'
p247
tp248
(lp249
(I19
I11
I0
S'many'
p250
tp251
a(I19
I11
F-0.625
S'other'
p252
tp253
a(I63
I1
I0
S'many'
p254
tp255
a(I148
I0
F0.25
S'boost'
p256
tp257
a(I182
I0
F0.125
S'first'
p258
tp259
a(I182
I0
I0
S'great'
p260
tp261
a(I207
I6
I0
S'same'
p262
tp263
as(S'samsung'
p264
tp265
(lp266
(I73
I3
I0
S'old'
p267
tp268
a(I115
I4
I0
S'mobile'
p269
tp270
a(I250
I0
F0.5
S'advanced'
p271
tp272
a(I267
I12
I0
S'current'
p273
tp274
as(S'love'
p275
tp276
(lp277
(I16
I0
F1.0
S'love'
p278
tp279
as(S'camera'
p280
tp281
(lp282
(I77
I3
F0.125
S'digital'
p283
tp284
a(I82
I1
F0.875
S'nice'
p285
tp286
a(I82
I1
I0
S'traditional'
p287
tp288
a(I82
I1
F0.5
S'clear'
p289
tp290
a(I86
I0
I0
S'full'
p291
tp292
a(I122
I1
F0.125
S'impressive'
p293
tp294
a(I122
I1
F-0.75
S'secondary'
p295
tp296
a(I187
I1
I0
S'great'
p297
tp298
a(I202
I1
F1.0
S'good'
p299
tp300
a(I210
I6
F0.125
S'capable'
p301
tp302
a(I216
I2
F-0.375
S'double'
p303
tp304
a(I222
I0
F-0.875
S'hard'
p305
tp306
as(S'a'
p307
S'boost'
p308
S'store'
p309
tp310
(lp311
(I80
I1
I0
S'physical'
p312
tp313
as(S'and'
p314
S'boost'
p315
S'mobile'
p316
tp317
(lp318
(I55
I2
I0
g145
tp319
a(I55
I2
I0
g147
tp320
a(I109
I29
F-0.5
g150
tp321
a(I219
I4
F-0.5
g46
tp322
as(S'month'
p323
tp324
(lp325
(I109
I29
I0
S'more'
p326
tp327
a(I210
I38
F-0.375
S'simple'
p328
tp329
a(I256
I2
F0.125
S'first'
p330
tp331
a(I261
I0
I0
S'third'
p332
tp333
a(I261
I0
F-0.75
S'unresponsive'
p334
tp335
as(S'sprint'
p336
tp337
(lp338
(I9
I41
F1.0
S'best'
p339
tp340
a(I210
I35
I0
S'great'
p341
tp342
as(S'htc'
p343
S'evo'
p344
tp345
(lp346
(I187
I0
F1.0
g93
tp347
a(I210
I16
I0
g95
tp348
as(S's'
p349
S'ii'
p350
tp351
(lp352
(I232
I0
F0.75
S'due'
p353
tp354
a(I244
I0
F0.125
S'practical'
p355
tp356
as(S'quality'
p357
tp358
(lp359
(I28
I2
I0
g191
tp360
a(I72
I2
F1.0
S'good'
p361
tp362
a(I81
I4
I0
g193
tp363
a(I82
I1
F1.0
S'good'
p364
tp365
a(I98
I2
F-0.125
S'overall'
p366
tp367
a(I100
I0
F1.0
S'good'
p368
tp369
a(I210
I39
I0
g195
tp370
a(I228
I2
I0
g197
tp371
a(I232
I4
F0.875
S'nice'
p372
tp373
a(I250
I5
F-0.25
S'low'
p374
tp375
as(S'memory'
p376
tp377
(lp378
(I42
I1
I0
S'more'
p379
tp380
a(I42
I1
I0
S'internal'
p381
tp382
a(I102
I1
I0
S'internal'
p383
tp384
a(I122
I1
I0
S'internal'
p385
tp386
a(I164
I1
I0
S'internal'
p387
tp388
a(I191
I0
I0
S'internal'
p389
tp390
a(I228
I2
F0.375
S'flash'
p391
tp392
as(S'life'
p393
tp394
(lp395
(I20
I0
F-0.125
g54
tp396
a(I27
I10
F0.625
g56
tp397
a(I47
I7
F-0.75
g58
tp398
a(I71
I10
F1.0
g60
tp399
a(I109
I3
F1.0
g66
tp400
a(I109
I4
F-0.75
g70
tp401
a(I124
I3
F0.625
S'easier'
p402
tp403
a(I124
I3
F0.625
S'easy'
p404
tp405
a(I136
I0
F1.0
g72
tp406
a(I222
I0
I0
g80
tp407
a(I267
I8
F1.0
g86
tp408
as(S'charging'
p409
S'port'
p410
tp411
(lp412
(I114
I1
F-0.25
S'loose'
p413
tp414
as(S'from'
p415
S'boost'
p416
S'mobile'
p417
tp418
(lp419
(I12
I3
I0
g36
tp420
a(I76
I1
F0.25
g44
tp421
as(S'right'
p422
tp423
(lp424
(I34
I4
F-0.375
S'top'
p425
tp426
a(I235
I4
F0.875
S'music'
p427
tp428
as(S'galaxy'
p429
tp430
(lp431
(I72
I0
F1.0
S'better'
p432
tp433
a(I142
I0
I0
S'third'
p434
tp435
a(I164
I14
F0.25
S'recent'
p436
tp437
a(I170
I0
F0.375
S'newer'
p438
tp439
a(I207
I18
I0
S'such'
p440
tp441
a(I207
I18
I0
S'great'
p442
tp443
a(I266
I1
I0
S'january'
p444
tp445
as(S'pictures'
p446
tp447
(lp448
(I28
I3
F0.875
S'nice'
p449
tp450
a(I41
I2
F0.625
S'easy'
p451
tp452
a(I41
I2
I0
S'great'
p453
tp454
a(I42
I1
I0
S'signal'
p455
tp456
a(I47
I6
F1.0
S'better'
p457
tp458
a(I166
I4
I0
S'great'
p459
tp460
a(I180
I0
I0
S'great'
p461
tp462
a(I216
I2
I0
S'great'
p463
tp464
a(I248
I1
I0
S'great'
p465
tp466
as(S'lg'
p467
S'marquee'
p468
tp469
(lp470
(I19
I2
I0
S'more'
p471
tp472
as(S'signal'
p473
tp474
(lp475
(I36
I3
F1.0
S'good'
p476
tp477
as(S'features'
p478
tp479
(lp480
(I69
I0
I0
S'great'
p481
tp482
a(I88
I4
I0
S'many'
p483
tp484
a(I88
I4
I0
S'great'
p485
tp486
a(I115
I0
I0
S'great'
p487
tp488
a(I138
I0
F-0.875
S'hard'
p489
tp490
a(I149
I3
I0
S'many'
p491
tp492
a(I166
I3
F0.625
S'easy'
p493
tp494
a(I166
I3
I0
S'such'
p495
tp496
a(I267
I5
F0.375
S'alive'
p497
tp498
as(S'samsung'
p499
S'galaxy'
p500
g349
tp501
(lp502
(I207
I18
I0
g440
tp503
a(I207
I18
I0
g442
tp504
a(I232
I0
F0.75
g353
tp505
a(I244
I0
F0.125
g355
tp506
a(I250
I0
F0.5
g271
tp507
a(I267
I12
I0
g273
tp508
as(S'price'
p509
tp510
(lp511
(I11
I0
F1.0
S'good'
p512
tp513
a(I25
I4
I0
S'great'
p514
tp515
a(I26
I3
F0.75
S'worth'
p516
tp517
a(I26
I4
F1.0
S'good'
p518
tp519
a(I38
I0
F0.75
S'worth'
p520
tp521
a(I39
I1
F-0.25
S'cheaper'
p522
tp523
a(I65
I1
I0
S'great'
p524
tp525
a(I76
I1
I0
S'full'
p526
tp527
a(I80
I0
I0
S'great'
p528
tp529
a(I90
I3
F0.5
S'reasonable'
p530
tp531
a(I98
I3
I0
S'monthly'
p532
tp533
a(I215
I0
F0.75
S'worth'
p534
tp535
a(I215
I1
F0.5
S'willing'
p536
tp537
a(I224
I5
I0
S'same'
p538
tp539
a(I248
I1
F1.0
S'better'
p540
tp541
a(I268
I6
F0.75
S'worth'
p542
tp543
as(S'wifi'
p544
tp545
(lp546
(I33
I2
F-0.125
S'public'
p547
tp548
a(I109
I19
F-0.375
S'serious'
p549
tp550
as(S'every'
p551
S'month'
p552
tp553
(lp554
(I256
I2
F0.125
g330
tp555
as(S'light'
p556
S'weight'
p557
tp558
(lp559
(I3
I1
F-0.625
S'light'
p560
tp561
a(I82
I1
F-0.625
S'lighter'
p562
tp563
a(I91
I3
F-0.625
S'light'
p564
tp565
a(I107
I1
F-0.625
S'light'
p566
tp567
a(I110
I1
F-0.625
S'light'
p568
tp569
a(I253
I0
F0.5
S'clear'
p570
tp571
as(S'contract'
p572
tp573
(lp574
(I54
I1
F1.0
S'better'
p575
tp576
a(I54
I1
F0.125
S'last'
p577
tp578
a(I54
I1
F-0.625
S'free'
p579
tp580
a(I55
I3
F-0.5
S'less'
p581
tp582
a(I210
I1
F-0.625
S'free'
p583
tp584
as(S'android'
p585
tp586
(lp587
(I139
I2
F0.375
S'new'
p588
tp589
as(S'customer'
p590
tp591
(lp592
(I2
I0
F0.25
S'boost'
p593
tp594
a(I50
I0
I0
S'mobile'
p595
tp596
a(I71
I4
F0.5
S'live'
p597
tp598
as(S'works'
p599
tp600
(lp601
(I79
I10
I0
S'great'
p602
tp603
a(I111
I0
I0
S'great'
p604
tp605
a(I112
I2
F0.375
S'new'
p606
tp607
a(I271
I0
F1.0
S'good'
p608
tp609
as(S'boost'
p610
tp611
(lp612
(I10
I2
F-0.625
S'other'
p613
tp614
a(I34
I9
I0
S'faithful'
p615
tp616
a(I45
I0
F1.0
g143
tp617
a(I55
I2
I0
g145
tp618
a(I55
I2
I0
g147
tp619
a(I57
I3
F-0.25
S'disappointing'
p620
tp621
a(I71
I16
F-0.75
S'unable'
p622
tp623
a(I80
I0
I0
S'great'
p624
tp625
a(I80
I1
I0
g312
tp626
a(I109
I29
F-0.5
g150
tp627
a(I125
I1
F-0.625
g152
tp628
a(I129
I5
F-0.5
S'heavy'
p629
tp630
a(I150
I0
F-0.5
S'less'
p631
tp632
a(I164
I0
F0.5
S'loyal'
p633
tp634
a(I218
I13
F-0.25
S'fish'
p635
tp636
a(I221
I0
F1.0
S'best'
p637
tp638
a(I235
I10
F-0.125
g155
tp639
a(I235
I10
I0
g157
tp640
a(I247
I1
F0.5
g159
tp641
a(I255
I4
I0
g161
tp642
as(S'review'
p643
tp644
(lp645
(I71
I2
F0.25
S'original'
p646
tp647
a(I71
I2
I0
S'update'
p648
tp649
a(I71
I3
F0.25
S'original'
p650
tp651
as(S'battery'
p652
tp653
(lp654
(I9
I12
I0
S'such'
p655
tp656
a(I11
I0
F-0.625
S'bad'
p657
tp658
a(I13
I1
F-0.75
S'minor'
p659
tp660
a(I20
I0
F-0.5
g52
tp661
a(I21
I8
F0.5
S'reasonable'
p662
tp663
a(I21
I8
F0.375
S'conscious'
p664
tp665
a(I21
I8
F0.375
S'much'
p666
tp667
a(I21
I8
F0.625
S'manageable'
p668
tp669
a(I25
I3
F0.125
S'last'
p670
tp671
a(I27
I12
I0
S'cool'
p672
tp673
a(I51
I6
F-0.5
S'long'
p674
tp675
a(I79
I3
F0.375
S'new'
p676
tp677
a(I79
I4
F0.375
S'new'
p678
tp679
a(I88
I4
F-0.5
S'open'
p680
tp681
a(I92
I0
F0.375
g62
tp682
a(I92
I0
F0.25
g64
tp683
a(I109
I4
F-0.5
g68
tp684
a(I109
I28
F0.375
S'extended'
p685
tp686
a(I109
I28
F0.375
S'new'
p687
tp688
a(I109
I32
F0.375
S'new'
p689
tp690
a(I129
I5
F-0.5
S'sure'
p691
tp692
a(I139
I3
F-0.75
g74
tp693
a(I170
I9
F0.625
S'removable'
p694
tp695
a(I206
I1
I0
S'most'
p696
tp697
a(I207
I8
F0.375
S'much'
p698
tp699
a(I207
I8
F0.25
S'original'
p700
tp701
a(I209
I0
F0.75
S'give'
p702
tp703
a(I210
I6
I0
g76
tp704
a(I220
I2
F-0.75
g78
tp705
a(I220
I3
I0
S'external'
p706
tp707
a(I225
I2
F1.0
g82
tp708
a(I233
I1
F0.125
S'last'
p709
tp710
a(I241
I0
F0.625
g84
tp711
a(I255
I1
I0
S'external'
p712
tp713
a(I266
I23
F0.375
S'extended'
p714
tp715
as(S'touch'
p716
S'screen'
p717
tp718
(lp719
(I118
I1
F0.5
S'touch'
p720
tp721
a(I132
I1
F0.5
S'touch'
p722
tp723
a(I207
I26
F0.5
S'touch'
p724
tp725
a(I210
I9
F0.5
g7
tp726
a(I210
I18
F0.25
S'responsive'
p727
tp728
a(I210
I18
F0.5
S'accurate'
p729
tp730
a(I210
I19
F1.0
S'best'
p731
tp732
as(S'samsung'
p733
S'galaxy'
p734
S's2'
p735
tp736
(lp737
(I210
I5
I0
g116
tp738
as(S'evo'
p739
S'v'
p740
tp741
(lp742
(I187
I0
F1.0
g93
tp743
a(I210
I39
F-0.625
S'bad'
p744
tp745
as(S'network'
p746
tp747
(lp748
(I19
I3
F0.75
S'constant'
p749
tp750
a(I19
I3
F-0.5
S'unavailable'
p751
tp752
a(I71
I26
I0
S'same'
p753
tp754
a(I78
I3
F0.375
S'reliable'
p755
tp756
a(I250
I8
F-0.5
S'weak'
p757
tp758
a(I250
I8
F0.5
S'strong'
p759
tp760
a(I254
I8
I0
S'different'
p761
tp762
as(S'better'
p763
tp764
(lp765
(I19
I1
F0.375
S'much'
p766
tp767
a(I161
I4
I0
S'signal'
p768
tp769
a(I197
I1
I0
S'quick'
p770
tp771
a(I197
I1
F0.375
S'much'
p772
tp773
a(I203
I1
F0.375
S'much'
p774
tp775
a(I210
I38
F0.375
S'much'
p776
tp777
a(I210
I39
F0.375
S'much'
p778
tp779
as(S'calls'
p780
tp781
(lp782
(I19
I1
F-0.625
S'bad'
p783
tp784
a(I59
I2
F0.5
S'clear'
p785
tp786
a(I71
I7
F0.125
S'able'
p787
tp788
a(I81
I3
F-0.25
S'dropped'
p789
tp790
a(I109
I14
F0.5
S'clearer'
p791
tp792
a(I207
I28
F0.125
S'able'
p793
tp794
a(I254
I1
F0.75
S'receive'
p795
tp796
as(S'thing'
p797
tp798
(lp799
(I5
I4
F1.0
S'good'
p800
tp801
a(I9
I22
F0.25
S'boost'
p802
tp803
a(I13
I1
I0
S'only'
p804
tp805
a(I57
I5
F-0.5
S'regular'
p806
tp807
a(I125
I1
I0
S'only'
p808
tp809
a(I139
I3
I0
S'only'
p810
tp811
a(I139
I3
F-0.875
S'negative'
p812
tp813
a(I161
I3
I0
S'same'
p814
tp815
a(I242
I1
I0
S'only'
p816
tp817
a(I253
I0
I0
S'only'
p818
tp819
as(S'charge'
p820
tp821
(lp822
(I9
I12
F-0.25
S'low'
p823
tp824
a(I207
I14
I0
S'full'
p825
tp826
a(I260
I5
F0.375
S'new'
p827
tp828
as(S'update'
p829
tp830
(lp831
(I71
I0
F0.125
S'last'
p832
tp833
a(I71
I13
I0
S'latest'
p834
tp835
a(I71
I14
F0.375
S'new'
p836
tp837
a(I79
I6
F0.375
S'new'
p838
tp839
as(S'auto'
p840
S'reboost'
p841
tp842
(lp843
(I239
I3
I0
S'representative'
p844
tp845
as(S'work'
p846
tp847
(lp848
(I73
I3
F-0.375
S'manual'
p849
tp850
a(I94
I1
F-0.125
S'cant'
p851
tp852
as(S'call'
p853
tp854
(lp855
(I71
I5
I0
S'many'
p856
tp857
a(I207
I28
F-0.75
S'unable'
p858
tp859
as(S'htc'
p860
S'evo'
p861
g740
tp862
(lp863
(I187
I0
F1.0
g93
tp864
a(I210
I16
I0
g95
tp865
a(I210
I39
F-0.625
g744
tp866
as(S'point'
p867
S'and'
p868
S'shoot'
p869
tp870
(lp871
(I109
I9
F-0.75
S'bright'
p872
tp873
as(S'screen'
p874
tp875
(lp876
(I0
I1
I0
S'large'
p877
tp878
a(I3
I1
I0
S'big'
p879
tp880
a(I14
I3
I0
S'big'
p881
tp882
a(I21
I3
I0
S'fast'
p883
tp884
a(I21
I3
F0.375
S'available'
p885
tp886
a(I21
I3
F-0.125
S'overall'
p887
tp888
a(I21
I3
F0.25
S'larger'
p889
tp890
a(I39
I0
I0
S'large'
p891
tp892
a(I39
I0
F0.75
S'beautiful'
p893
tp894
a(I59
I2
F0.25
S'largest'
p895
tp896
a(I59
I2
F1.0
S'good'
p897
tp898
a(I67
I2
I0
S'fast'
p899
tp900
a(I67
I2
I0
S'great'
p901
tp902
a(I71
I10
I0
S'great'
p903
tp904
a(I77
I8
F0.875
S'nice'
p905
tp906
a(I95
I0
I0
S'big'
p907
tp908
a(I98
I1
F0.75
S'beautiful'
p909
tp910
a(I107
I1
I0
S'big'
p911
tp912
a(I109
I5
F-0.75
S'bright'
p913
tp914
a(I115
I0
F0.25
S'bigger'
p915
tp916
a(I115
I0
F0.625
S'easier'
p917
tp918
a(I118
I1
F0.5
g720
tp919
a(I121
I5
F-0.75
S'bright'
p920
tp921
a(I121
I5
F0.875
S'nice'
p922
tp923
a(I127
I8
F0.5
S'clear'
p924
tp925
a(I129
I3
I0
S'big'
p926
tp927
a(I132
I1
F0.5
g722
tp928
a(I157
I1
I0
S'big'
p929
tp930
a(I170
I13
F0.75
S'beautiful'
p931
tp932
a(I170
I13
I0
S'big'
p933
tp934
a(I174
I0
F0.875
S'nice'
p935
tp936
a(I182
I1
F-0.75
S'bright'
p937
tp938
a(I193
I0
I0
S'great'
p939
tp940
a(I204
I1
I0
S'large'
p941
tp942
a(I204
I1
F0.625
S'easy'
p943
tp944
a(I207
I26
F0.5
g724
tp945
a(I210
I9
F0.5
g7
tp946
a(I210
I18
F0.25
g727
tp947
a(I210
I18
F0.5
g729
tp948
a(I222
I0
I0
g13
tp949
a(I227
I1
I0
S'generic'
p950
tp951
a(I232
I1
I0
S'large'
p952
tp953
a(I235
I2
F0.75
S'beautiful'
p954
tp955
a(I250
I2
I0
S'large'
p956
tp957
a(I269
I2
F0.625
g15
tp958
as(S'time'
p959
tp960
(lp961
(I9
I7
F0.125
S'first'
p962
tp963
a(I12
I16
F-0.75
S'off'
p964
tp965
a(I14
I1
F-0.5
S'long'
p966
tp967
a(I19
I3
F-0.875
S'hard'
p968
tp969
a(I22
I11
F-0.5
S'long'
p970
tp971
a(I27
I11
I0
S'hot'
p972
tp973
a(I44
I2
I0
S'same'
p974
tp975
a(I75
I0
F0.125
S'able'
p976
tp977
a(I79
I9
F1.0
S'good'
p978
tp979
a(I91
I2
I0
S'more'
p980
tp981
a(I103
I3
I0
S'own'
p982
tp983
a(I109
I16
I0
S'signal'
p984
tp985
a(I134
I1
F-0.875
S'hard'
p986
tp987
a(I135
I4
F-0.125
S'slow'
p988
tp989
a(I161
I2
F0.125
S'first'
p990
tp991
a(I161
I3
F0.5
S'second'
p992
tp993
a(I168
I0
F-0.5
S'long'
p994
tp995
a(I171
I1
F1.0
S'best'
p996
tp997
a(I206
I3
I0
S'same'
p998
tp999
a(I215
I1
F1.0
S'good'
p1000
tp1001
a(I218
I12
F0.25
S'boost'
p1002
tp1003
a(I224
I0
F0.5
S'second'
p1004
tp1005
a(I224
I9
I0
S'more'
p1006
tp1007
a(I245
I5
F0.125
S'first'
p1008
tp1009
a(I253
I0
F-0.875
S'hard'
p1010
tp1011
a(I268
I5
F-0.5
S'long'
p1012
tp1013
as(S'4g'
p1014
S'lte'
p1015
tp1016
(lp1017
(I164
I14
F0.125
S'capable'
p1018
tp1019
a(I164
I14
I0
S'such'
p1020
tp1021
a(I237
I0
F0.375
S'new'
p1022
tp1023
as(S'samsung'
p1024
S'galaxy'
p1025
tp1026
(lp1027
(I207
I18
I0
g440
tp1028
a(I207
I18
I0
g442
tp1029
a(I250
I0
F0.5
g271
tp1030
a(I267
I12
I0
g273
tp1031
as(S'light'
p1032
tp1033
(lp1034
(I9
I11
I0
S'blue'
p1035
tp1036
a(I34
I4
I0
S'blue'
p1037
tp1038
a(I253
I0
F0.5
g570
tp1039
as(S'love'
p1040
S'love'
p1041
S'love'
p1042
tp1043
(lp1044
(I16
I0
F1.0
g278
tp1045
as(S'size'
p1046
tp1047
(lp1048
(I1
I0
F-0.625
g5
tp1049
a(I91
I3
I0
S'same'
p1050
tp1051
a(I210
I8
F0.375
S'similar'
p1052
tp1053
a(I210
I9
F0.375
g9
tp1054
a(I210
I16
F0.25
g11
tp1055
a(I266
I5
F0.625
S'perfect'
p1056
tp1057
a(I266
I5
I0
S'large'
p1058
tp1059
as(S'customer'
p1060
S'service'
p1061
tp1062
(lp1063
(I2
I0
F0.25
g593
tp1064
a(I50
I0
I0
g595
tp1065
a(I71
I4
F0.5
g597
tp1066
a(I71
I22
I0
g220
tp1067
a(I130
I0
F1.0
g226
tp1068
a(I170
I24
F1.0
g230
tp1069
as(S'cell'
p1070
tp1071
(lp1072
(I25
I3
F-0.625
S'other'
p1073
tp1074
a(I69
I2
F0.125
S'last'
p1075
tp1076
a(I143
I0
F0.5
S'characteristic'
p1077
tp1078
a(I166
I2
I0
S'own'
p1079
tp1080
a(I167
I0
F0.125
S'first'
p1081
tp1082
a(I218
I10
I0
S'fly-by-night'
p1083
tp1084
a(I239
I1
F1.0
S'better'
p1085
tp1086
a(I248
I1
F-0.625
S'bad'
p1087
tp1088
a(I258
I3
I0
S'mobile'
p1089
tp1090
a(I258
I3
F1.0
S'best'
p1091
tp1092
as(S'months'
p1093
tp1094
(lp1095
(I9
I3
F0.125
S'first'
p1096
tp1097
a(I9
I40
F0.125
S'last'
p1098
tp1099
a(I44
I9
F-0.25
S'cheaper'
p1100
tp1101
a(I89
I3
F0.25
S'used'
p1102
tp1103
a(I99
I2
I0
S'later'
p1104
tp1105
a(I227
I2
F-0.5
S'less'
p1106
tp1107
a(I262
I3
I0
S'few'
p1108
tp1109
a(I265
I0
F-0.5
S'less'
p1110
tp1111
as(S'super'
p1112
S'fast'
p1113
tp1114
(lp1115
(I12
I18
F-0.125
S'super'
p1116
tp1117
a(I28
I0
F-0.125
S'super'
p1118
tp1119
a(I50
I2
F-0.125
S'super'
p1120
tp1121
a(I121
I2
F-0.125
S'super'
p1122
tp1123
a(I268
I2
F-0.125
S'super'
p1124
tp1125
a(I269
I2
F-0.125
S'super'
p1126
tp1127
as(S'apps'
p1128
tp1129
(lp1130
(I9
I51
I0
S'few'
p1131
tp1132
a(I44
I8
F1.0
S'best'
p1133
tp1134
a(I44
I9
F-0.625
S'free'
p1135
tp1136
a(I55
I0
I0
S'great'
p1137
tp1138
a(I78
I3
I0
S'great'
p1139
tp1140
a(I95
I1
F0.625
S'easy'
p1141
tp1142
a(I127
I8
F0.375
S'available'
p1143
tp1144
a(I129
I5
I0
S'buggy'
p1145
tp1146
a(I129
I5
F-0.375
S'disable'
p1147
tp1148
a(I136
I0
F-0.375
S'crash'
p1149
tp1150
a(I149
I7
I0
S'many'
p1151
tp1152
a(I155
I1
F0.625
S'easy'
p1153
tp1154
a(I192
I0
F1.0
S'good'
p1155
tp1156
a(I204
I3
F0.625
S'aware'
p1157
tp1158
a(I206
I3
I0
S'few'
p1159
tp1160
a(I234
I0
I0
S'great'
p1161
tp1162
a(I234
I0
F0.625
S'easy'
p1163
tp1164
as(S'internal'
p1165
S'memory'
p1166
tp1167
(lp1168
(I42
I1
I0
g379
tp1169
a(I42
I1
I0
g381
tp1170
a(I102
I1
I0
g383
tp1171
a(I122
I1
I0
g385
tp1172
a(I164
I1
I0
g387
tp1173
a(I191
I0
I0
g389
tp1174
as(S'days'
p1175
tp1176
(lp1177
(I9
I6
F-0.75
S'dead'
p1178
tp1179
a(I9
I10
I0
S'later'
p1180
tp1181
a(I36
I4
F0.125
S'first'
p1182
tp1183
a(I36
I4
I0
S'few'
p1184
tp1185
a(I71
I20
I0
S'few'
p1186
tp1187
a(I109
I28
I0
S'few'
p1188
tp1189
a(I185
I2
I0
S'few'
p1190
tp1191
a(I257
I0
F-0.75
S'short'
p1192
tp1193
as(S'love'
p1194
S'love'
p1195
tp1196
(lp1197
(I16
I0
F1.0
g278
tp1198
as(S'fast'
p1199
tp1200
(lp1201
(I12
I18
F-0.125
g1116
tp1202
a(I20
I0
I0
S'unbelievable'
p1203
tp1204
a(I20
I0
I0
S'fast'
p1205
tp1206
a(I28
I0
F-0.125
g1118
tp1207
a(I50
I2
F-0.125
g1120
tp1208
a(I121
I2
F-0.125
g1122
tp1209
a(I151
I2
I0
S'fast'
p1210
tp1211
a(I235
I1
I0
S'very'
p1212
tp1213
a(I268
I2
F-0.125
g1124
tp1214
a(I269
I2
F-0.125
g1126
tp1215
as.