(dp0
(S'a'
p1
S'long'
p2
S'time'
p3
tp4
(lp5
(I0
I33
I0
S'same'
p6
I12
tp7
a(I7
I23
F-0.5
S'long'
p8
I12
tp9
a(I21
I0
F-0.5
S'long'
p10
I12
tp11
a(I21
I0
F-0.5
S'long'
p12
I12
tp13
a(I21
I4
F-0.5
S'long'
p14
I12
tp15
as(S'blackberry'
p16
tp17
(lp18
(I0
I3
F0.125
S'first'
p19
I1
tp20
a(I0
I4
I0
S'wish'
p21
I1
tp22
a(I7
I45
F0.875
S'happy'
p23
I1
tp24
a(I9
I2
I0
S'great'
p25
I1
tp26
a(I13
I30
F1.0
S'best'
p27
I1
tp28
a(I19
I29
I0
S'standard'
p29
I1
tp30
a(I19
I29
I0
S'keypad'
p31
I1
tp32
as(S'voice'
p33
tp34
(lp35
(I7
I51
F1.0
S'good'
p36
I4
tp37
a(I12
I17
I0
S'general'
p38
I4
tp39
as(S'battery'
p40
S'life'
p41
tp42
(lp43
(I3
I36
F0.125
S'spectacular'
p44
I1
tp45
a(I10
I36
I0
S'great'
p46
I1
tp47
a(I12
I9
I0
S'same'
p48
I1
tp49
a(I13
I32
F0.5
S'second'
p50
I1
tp51
a(I15
I15
F1.0
S'good'
p52
I1
tp53
a(I16
I1
F0.625
S'fair'
p54
I1
tp55
a(I21
I8
F-0.5
S'long'
p56
I1
tp57
a(I3
I36
F0.125
g44
I19
tp58
a(I12
I9
I0
g48
I19
tp59
a(I13
I32
F0.5
g50
I19
tp60
a(I16
I1
F0.625
g54
I19
tp61
a(I19
I4
F0.5
S'personal'
p62
I19
tp63
a(I0
I27
F0.125
S'last'
p64
I15
tp65
a(I7
I21
I0
S'least'
p66
I15
tp67
a(I10
I10
F0.125
S'last'
p68
I15
tp69
a(I10
I10
F-0.5
S'long'
p70
I15
tp71
a(I10
I10
F-0.625
S'other'
p72
I15
tp73
a(I10
I36
I0
g46
I15
tp74
a(I15
I15
F1.0
g52
I15
tp75
a(I21
I8
F-0.5
g56
I15
tp76
as(S'mobile'
p77
tp78
(lp79
(I0
I4
I0
S'great'
p80
I0
tp81
as(S'service'
p82
tp83
(lp84
(I0
I61
F0.625
S'easy'
p85
I16
tp86
a(I0
I61
I0
S'great'
p87
I16
tp88
a(I7
I11
F0.75
S'due'
p89
I16
tp90
a(I8
I0
F1.0
S'good'
p91
I16
tp92
as(S'apps'
p93
tp94
(lp95
(I3
I20
I0
S'fewer'
p96
I0
tp97
a(I7
I36
I0
S'different'
p98
I0
tp99
a(I7
I51
I0
S'many'
p100
I0
tp101
a(I11
I5
I0
S'many'
p102
I0
tp103
a(I13
I42
F0.5
S'compatible'
p104
I0
tp105
a(I13
I42
F0.375
S'new'
p106
I0
tp107
a(I13
I42
F0.5
S'compatible'
p108
I0
tp109
a(I19
I22
I0
S'many'
p110
I0
tp111
as(S'music'
p112
tp113
(lp114
(I10
I21
I0
S'great'
p115
I0
tp116
as(S'camera'
p117
tp118
(lp119
(I7
I15
F1.0
S'good'
p120
I1
tp121
a(I7
I25
F1.0
S'good'
p122
I1
tp123
a(I21
I7
I0
S'great'
p124
I1
tp125
as(S'calls'
p126
tp127
(lp128
(I10
I14
F0.875
S'nice'
p129
I0
tp130
a(I10
I14
F0.5
S'clear'
p131
I0
tp132
as.