(dp0
(S'clock'
p1
tp2
(lp3
(I1
I24
F-0.889
S'unfortunate'
p4
I3
tp5
as(S'casio'
p6
tp7
(lp8
(I0
I184
F0.875
S'happy'
p9
I11
tp10
a(I3
I32
F0.125
S'able'
p11
I11
tp12
a(I4
I28
I0
S'old'
p13
I11
tp14
as(S'flip'
p15
tp16
(lp17
(I1
I12
F-0.5
S'sure'
p18
I4
tp19
a(I1
I13
F0.875
S'happy'
p20
I4
tp21
a(I1
I21
I0
S'most'
p22
I4
tp23
a(I5
I12
F-0.375
S'simple'
p24
I4
tp25
as(S'battery'
p26
tp27
(lp28
(I0
I21
F-0.625
S'bad'
p29
I15
tp30
a(I0
I111
I-100
S'1150mah'
p31
I15
tp32
a(I0
I183
F-0.5
S'weak'
p33
I15
tp34
a(I1
I2
F0.375
S'new'
p35
I15
tp36
a(I1
I2
F0.375
S'new'
p37
I15
tp38
a(I4
I7
I0
S'great'
p39
I15
tp40
a(I4
I28
F0.375
S'new'
p41
I15
tp42
a(I5
I4
F0.375
S'new'
p43
I15
tp44
as(S'verizon'
p45
tp46
(lp47
(I0
I36
F-0.75
S'unable'
p48
I0
tp49
a(I0
I120
F0.875
S'happy'
p50
I0
tp51
a(I4
I30
F0.375
S'confident'
p52
I0
tp53
as.