(dp0
(S'battery'
p1
S'life'
p2
tp3
(lp4
(I7
I42
F-0.75
S'short'
p5
I1
tp6
a(I20
I4
F0.375
S'extra'
p7
I1
tp8
a(I23
I0
F-0.5
S'poor'
p9
I1
tp10
a(I27
I52
F-0.5
S'poor'
p11
I1
tp12
a(I27
I53
F0.25
S'stellar'
p13
I1
tp14
a(I27
I53
F0.25
g13
I19
tp15
a(I7
I40
F0.625
S'removable'
p16
I15
tp17
a(I7
I42
F-0.75
g5
I15
tp18
a(I7
I52
F1.0
S'good'
p19
I15
tp20
a(I15
I0
F0.125
S'last'
p21
I15
tp22
a(I20
I4
F0.375
g7
I15
tp23
a(I20
I14
F0.625
S'replaceable'
p24
I15
tp25
a(I20
I24
F0.125
S'last'
p26
I15
tp27
a(I20
I24
F-0.75
S'little'
p28
I15
tp29
a(I23
I0
F-0.5
g9
I15
tp30
a(I27
I52
F-0.5
g11
I15
tp31
a(I29
I43
F0.375
S'extra'
p32
I15
tp33
a(I29
I44
F0.625
S'accessible'
p34
I15
tp35
a(I29
I45
F-0.625
S'bad'
p36
I15
tp37
a(I35
I10
F-0.125
S'slow'
p38
I15
tp39
a(I38
I1
I0
S'charged'
p40
I15
tp41
as(S'cellphone'
p42
tp43
(lp44
(I4
I4
F0.125
S'first'
p45
I0
tp46
a(I4
I4
F1.0
S'best'
p47
I0
tp48
a(I4
I4
I0
S'great'
p49
I0
tp50
as(S'resolution'
p51
tp52
(lp53
(I7
I37
I0
S'same'
p54
I1
tp55
a(I19
I0
I0
S'great'
p56
I1
tp57
a(I27
I67
F1.0
S'good'
p58
I1
tp59
as(S'spanish'
p60
S'language'
p61
tp62
(lp63
(I4
I4
I0
S'chinese'
p64
I0
tp65
a(I21
I0
I0
S'spanish'
p66
I0
tp67
a(I27
I43
I0
S'spanish'
p68
I0
tp69
a(I4
I1
I0
S'different'
p70
I3
tp71
a(I4
I4
I0
g64
I3
tp72
a(I21
I0
I0
g66
I3
tp73
a(I27
I43
I0
g68
I3
tp74
as(S'camera'
p75
tp76
(lp77
(I3
I2
I0
S'user'
p78
I1
tp79
a(I9
I12
I0
S'great'
p80
I1
tp81
a(I16
I0
F1.0
S'good'
p82
I1
tp83
a(I20
I3
I0
S'great'
p84
I1
tp85
a(I23
I0
F1.0
S'good'
p86
I1
tp87
a(I23
I0
F-0.25
S'low'
p88
I1
tp89
a(I23
I0
F-0.625
S'light'
p90
I1
tp91
a(I33
I8
F1.0
S'good'
p92
I1
tp93
as(S'ppi'
p94
S'pixel'
p95
tp96
(lp97
(I7
I36
F-0.25
S'lowest'
p98
I0
tp99
a(I7
I36
F1.0
S'good'
p100
I0
tp101
as(S'games'
p102
tp103
(lp104
(I9
I26
I0
S'most'
p105
I19
tp106
a(I10
I6
I0
S'special'
p107
I19
tp108
a(I27
I16
I0
S'play'
p109
I19
tp110
as(S'iphone'
p111
tp112
(lp113
(I27
I47
F-0.625
S'lighter'
p114
I1
tp115
a(I34
I19
I0
S'instant'
p116
I1
tp117
a(I34
I19
F0.875
S'happy'
p118
I1
tp119
a(I39
I27
F1.0
S'better'
p120
I1
tp121
as(S'mobile'
p122
tp123
(lp124
(I5
I5
F-0.375
S'simple'
p125
I0
tp126
a(I18
I2
F1.0
S'good'
p127
I0
tp128
as(S'android'
p129
tp130
(lp131
(I9
I43
I0
S'initial'
p132
I0
tp133
a(I34
I9
F1.0
S'best'
p134
I0
tp135
a(I39
I16
F0.125
S'first'
p136
I0
tp137
as(S'samsung'
p138
S'galaxy'
p139
tp140
(lp141
(I27
I26
I0
S'old'
p142
I0
tp143
a(I27
I26
I0
g142
I7
tp144
a(I32
I12
F0.5
S'comparable'
p145
I7
tp146
a(I7
I15
F-0.5
S'less'
p147
I0
tp148
a(I8
I2
F-0.125
S'slow'
p149
I0
tp150
a(I8
I2
F-0.5
S'heavy'
p151
I0
tp152
a(I15
I15
F1.0
S'good'
p153
I0
tp154
a(I25
I10
I0
S'slower'
p155
I0
tp156
a(I27
I57
F0.5
S'expensive'
p157
I0
tp158
as(S'power'
p159
S'hungry'
p160
tp161
(lp162
(I7
I39
F-0.5
S'power'
p163
I0
tp164
a(I31
I14
I0
S'more'
p165
I0
tp166
as(S'speaker'
p167
tp168
(lp169
(I3
I11
F-0.625
S'bad'
p170
I8
tp171
a(I29
I37
F-0.25
S'low'
p172
I8
tp173
as(S'core'
p174
tp175
(lp176
(I29
I34
F-0.875
S'hard'
p177
I3
tp178
a(I29
I43
F-0.875
S'hard'
p179
I3
tp180
a(I35
I10
F0.25
S'powerful'
p181
I3
tp182
as(S'international'
p183
S'version'
p184
tp185
(lp186
(I5
I10
F-0.5
S'international'
p187
I0
tp188
a(I37
I11
F-0.5
S'international'
p189
I0
tp190
as(S'smartphone'
p191
tp192
(lp193
(I4
I0
F0.375
S'new'
p194
I0
tp195
a(I16
I3
I0
S'current'
p196
I0
tp197
a(I20
I18
F0.125
S'first'
p198
I0
tp199
a(I20
I24
I0
S'normal'
p200
I0
tp201
a(I33
I11
I0
S'current'
p202
I0
tp203
a(I39
I24
F1.0
S'best'
p204
I0
tp205
as(S'galaxy'
p206
S's3'
p207
tp208
(lp209
(I7
I15
F-0.5
g147
I0
tp210
a(I8
I2
F-0.125
g149
I0
tp211
a(I8
I2
F-0.5
g151
I0
tp212
a(I27
I57
F0.5
g157
I0
tp213
as(S'customer'
p214
S'service'
p215
tp216
(lp217
(I9
I15
F0.25
S'responsive'
p218
I3
tp219
a(I9
I15
F0.5
S'willing'
p220
I3
tp221
as(S'apps'
p222
tp223
(lp224
(I0
I6
I0
S'useful'
p225
I0
tp226
a(I15
I4
F-0.5
S'heavy'
p227
I0
tp228
a(I24
I2
I0
S'korean'
p229
I0
tp230
a(I34
I16
F-0.25
S'google'
p231
I0
tp232
as(S'performance'
p233
tp234
(lp235
(I7
I43
I0
S'close'
p236
I2
tp237
a(I7
I46
I0
S'great'
p238
I2
tp239
a(I16
I1
F1.0
S'best'
p240
I2
tp241
a(I18
I1
F1.0
S'better'
p242
I2
tp243
a(I20
I0
F1.0
S'good'
p244
I2
tp245
a(I30
I5
F0.125
S'solid'
p246
I2
tp247
a(I33
I9
F1.0
S'best'
p248
I2
tp249
as.