(dp0
(S'screen'
p1
S'size'
p2
tp3
(lp4
(I56
I16
F0.375
S'available'
p5
I3
tp6
a(I56
I26
F0.25
S'sharper'
p7
I3
tp8
a(I57
I46
I0
S'great'
p9
I3
tp10
a(I70
I10
F0.625
S'perfect'
p11
I3
tp12
as(S'battery'
p13
S'life'
p14
tp15
(lp16
(I3
I27
F-0.5
S'open'
p17
I1
tp18
a(I5
I11
F0.625
S'fair'
p19
I1
tp20
a(I10
I30
F-0.75
S'worse'
p21
I1
tp22
a(I17
I21
F1.0
S'good'
p23
I1
tp24
a(I25
I11
F1.0
S'better'
p25
I1
tp26
a(I25
I12
F-0.5
S'sure'
p27
I1
tp28
a(I25
I12
F-0.75
S'worse'
p29
I1
tp30
a(I31
I0
F1.0
S'good'
p31
I1
tp32
a(I33
I4
F-0.75
S'short'
p33
I1
tp34
a(I56
I11
I0
S'great'
p35
I1
tp36
a(I57
I41
F-0.75
S'short'
p37
I1
tp38
a(I57
I46
I0
S'great'
p39
I1
tp40
a(I63
I48
F0.625
S'easy'
p41
I1
tp42
a(I63
I48
I0
S'great'
p43
I1
tp44
a(I69
I47
F1.0
S'better'
p45
I1
tp46
a(I5
I11
F0.625
g19
I19
tp47
a(I10
I30
F-0.75
g21
I19
tp48
a(I17
I21
F1.0
g23
I19
tp49
a(I25
I11
F1.0
g25
I19
tp50
a(I25
I12
F-0.75
g29
I19
tp51
a(I28
I3
F0.625
S'easier'
p52
I19
tp53
a(I28
I3
F0.625
S'easy'
p54
I19
tp55
a(I31
I0
F1.0
g31
I19
tp56
a(I57
I46
I0
g39
I19
tp57
a(I63
I48
I0
g43
I19
tp58
a(I69
I47
F1.0
g45
I19
tp59
a(I2
I20
I0
S'such'
p60
I15
tp61
a(I2
I99
F-0.625
S'bad'
p62
I15
tp63
a(I2
I127
F-0.75
S'minor'
p64
I15
tp65
a(I3
I27
F-0.5
g17
I15
tp66
a(I3
I37
F0.5
S'reasonable'
p67
I15
tp68
a(I3
I37
F0.375
S'conscious'
p69
I15
tp70
a(I3
I37
F0.375
S'much'
p71
I15
tp72
a(I3
I37
F0.625
S'manageable'
p73
I15
tp74
a(I4
I7
F0.125
S'last'
p75
I15
tp76
a(I5
I14
I0
S'cool'
p77
I15
tp78
a(I12
I6
F-0.5
S'long'
p79
I15
tp80
a(I18
I37
F0.375
S'new'
p81
I15
tp82
a(I18
I38
F0.375
S'new'
p83
I15
tp84
a(I20
I25
I-100
S'com/gp/product/b006sk5hhw/ref=oh_details_o00_s00_i01with'
p85
I15
tp86
a(I20
I25
F0.375
S'new'
p87
I15
tp88
a(I20
I26
F0.25
S'larger'
p89
I15
tp90
a(I25
I12
F-0.5
g27
I15
tp91
a(I25
I40
F0.375
S'extended'
p92
I15
tp93
a(I25
I40
F0.375
S'new'
p94
I15
tp95
a(I25
I44
F0.375
S'new'
p96
I15
tp97
a(I33
I4
F-0.75
g33
I15
tp98
a(I42
I9
F0.625
S'removable'
p99
I15
tp100
a(I54
I15
I0
S'most'
p101
I15
tp102
a(I54
I28
F0.375
S'much'
p103
I15
tp104
a(I54
I28
F0.25
S'original'
p105
I15
tp106
a(I55
I0
F0.75
S'give'
p107
I15
tp108
a(I56
I11
I0
g35
I15
tp109
a(I57
I41
F-0.75
g37
I15
tp110
a(I57
I42
I0
S'external'
p111
I15
tp112
a(I60
I7
F0.125
S'last'
p113
I15
tp114
a(I63
I48
F0.625
g41
I15
tp115
a(I68
I30
I0
S'external'
p116
I15
tp117
a(I69
I28
F0.375
S'extended'
p118
I15
tp119
as(S'boost'
p120
S'mobile'
p121
tp122
(lp123
(I10
I18
F1.0
S'best'
p124
I0
tp125
a(I12
I18
I0
S'different'
p126
I0
tp127
a(I25
I41
F-0.5
S'call'
p128
I0
tp129
a(I28
I5
F-0.625
S'sorry'
p130
I0
tp131
a(I44
I4
F0.125
S'first'
p132
I0
tp133
a(I61
I12
F-0.125
S'overall'
p134
I0
tp135
a(I61
I12
I0
S'mobile'
p136
I0
tp137
a(I66
I1
F0.5
S'second'
p138
I0
tp139
a(I68
I33
I0
S'older'
p140
I0
tp141
a(I44
I4
F0.125
g132
I0
tp142
a(I2
I97
F-0.625
S'other'
p143
I0
tp144
a(I7
I16
I0
S'faithful'
p145
I0
tp146
a(I10
I15
F-0.875
S'stuck'
p147
I0
tp148
a(I10
I18
F1.0
g124
I0
tp149
a(I12
I18
I0
g126
I0
tp150
a(I13
I7
F-0.25
S'disappointing'
p151
I0
tp152
a(I17
I29
F-0.75
S'unable'
p153
I0
tp154
a(I18
I45
I0
S'great'
p155
I0
tp156
a(I18
I46
I0
S'physical'
p157
I0
tp158
a(I25
I41
F-0.5
g128
I0
tp159
a(I28
I5
F-0.625
g130
I0
tp160
a(I36
I21
F-0.5
S'less'
p161
I0
tp162
a(I40
I24
F0.5
S'loyal'
p163
I0
tp164
a(I57
I31
F-0.25
S'fish'
p165
I0
tp166
a(I57
I43
F1.0
S'best'
p167
I0
tp168
a(I61
I12
F-0.125
g134
I0
tp169
a(I61
I12
I0
g136
I0
tp170
a(I66
I1
F0.5
g138
I0
tp171
a(I68
I33
I0
g140
I0
tp172
as(S'call'
p173
S'quality'
p174
tp175
(lp176
(I5
I17
I0
S'great'
p177
I0
tp178
a(I18
I51
I0
S'great'
p179
I0
tp180
a(I56
I57
I0
S'great'
p181
I0
tp182
a(I58
I34
I0
S'great'
p183
I0
tp184
as(S'camera'
p185
tp186
(lp187
(I18
I18
F0.125
S'digital'
p188
I1
tp189
a(I18
I57
F0.875
S'nice'
p190
I1
tp191
a(I18
I57
I0
S'traditional'
p192
I1
tp193
a(I18
I57
F0.5
S'clear'
p194
I1
tp195
a(I19
I7
I0
S'full'
p196
I1
tp197
a(I27
I19
F0.125
S'impressive'
p198
I1
tp199
a(I27
I19
F-0.75
S'secondary'
p200
I1
tp201
a(I53
I1
F1.0
S'good'
p202
I1
tp203
a(I56
I11
F0.125
S'capable'
p204
I1
tp205
a(I57
I2
F-0.375
S'double'
p206
I1
tp207
a(I57
I46
F-0.875
S'hard'
p208
I1
tp209
as(S'sprint'
p210
tp211
(lp212
(I2
I52
F1.0
S'best'
p213
I0
tp214
a(I17
I40
F0.125
S'able'
p215
I0
tp216
a(I56
I51
I0
S'great'
p217
I0
tp218
as(S'iphone'
p219
tp220
(lp221
(I7
I14
F0.375
S'new'
p222
I1
tp223
a(I7
I14
F-0.125
S'super'
p224
I1
tp225
a(I20
I19
I-100
S'ten-fold'
p226
I1
tp227
a(I30
I8
I0
S'more'
p228
I1
tp229
a(I61
I2
F-0.125
S'former'
p230
I1
tp231
as(S'memory'
p232
tp233
(lp234
(I9
I9
I0
S'more'
p235
I5
tp236
a(I9
I9
I0
S'internal'
p237
I5
tp238
a(I23
I16
I0
S'internal'
p239
I5
tp240
a(I27
I18
I0
S'internal'
p241
I5
tp242
a(I40
I27
I0
S'internal'
p243
I5
tp244
a(I49
I0
I0
S'internal'
p245
I5
tp246
a(I58
I34
F0.375
S'flash'
p247
I5
tp248
as(S'signal'
p249
tp250
(lp251
(I7
I24
F1.0
S'good'
p252
I1
tp253
as(S'samsung'
p254
S'galaxy'
p255
S's'
p256
tp257
(lp258
(I54
I38
I0
S'such'
p259
I0
tp260
a(I68
I0
F0.5
S'advanced'
p261
I0
tp262
a(I69
I52
I0
S'current'
p263
I0
tp264
a(I54
I38
I0
g259
I0
tp265
a(I68
I0
F0.5
g261
I0
tp266
a(I69
I52
I0
g263
I0
tp267
a(I18
I3
I0
S'old'
p268
I7
tp269
a(I25
I42
F0.5
S'told'
p270
I7
tp271
a(I68
I0
F0.5
g261
I7
tp272
a(I69
I52
I0
g263
I7
tp273
a(I34
I1
I0
S'third'
p274
I0
tp275
a(I40
I42
F0.25
S'recent'
p276
I0
tp277
a(I42
I0
F0.375
S'newer'
p278
I0
tp279
a(I54
I38
I0
g259
I0
tp280
as(S'every'
p281
S'month'
p282
tp283
(lp284
(I68
I38
F0.125
S'first'
p285
I0
tp286
as(S'light'
p287
S'weight'
p288
tp289
(lp290
(I0
I6
F-0.625
S'light'
p291
I5
tp292
a(I1
I1
F-0.625
S'light'
p293
I5
tp294
a(I18
I57
F-0.625
S'lighter'
p295
I5
tp296
a(I20
I13
F-0.625
S'light'
p297
I5
tp298
a(I25
I1
F-0.625
S'light'
p299
I5
tp300
a(I25
I46
F-0.625
S'light'
p301
I5
tp302
a(I68
I18
F0.5
S'clear'
p303
I5
tp304
as(S'contract'
p305
tp306
(lp307
(I12
I15
F1.0
S'better'
p308
I0
tp309
a(I12
I15
F0.125
S'last'
p310
I0
tp311
a(I12
I15
F-0.625
S'free'
p312
I0
tp313
a(I12
I19
F-0.5
S'less'
p314
I0
tp315
a(I56
I1
F-0.625
S'free'
p316
I0
tp317
as(S'network'
p318
tp319
(lp320
(I3
I14
F0.75
S'constant'
p321
I0
tp322
a(I3
I14
F-0.5
S'unavailable'
p323
I0
tp324
a(I18
I33
F0.375
S'reliable'
p325
I0
tp326
a(I56
I51
F-0.125
S'slow'
p327
I0
tp328
a(I68
I10
F-0.5
S'weak'
p329
I0
tp330
a(I68
I10
F0.5
S'strong'
p331
I0
tp332
a(I68
I27
I0
S'different'
p333
I0
tp334
as(S'calls'
p335
tp336
(lp337
(I13
I18
F0.5
S'clear'
p338
I0
tp339
a(I13
I18
F0.875
S'important'
p340
I0
tp341
a(I17
I16
F0.125
S'able'
p342
I0
tp343
a(I18
I50
F-0.25
S'dropped'
p344
I0
tp345
a(I25
I23
F0.5
S'clearer'
p346
I0
tp347
a(I54
I49
F0.125
S'able'
p348
I0
tp349
a(I68
I20
F0.75
S'receive'
p350
I0
tp351
as(S'2'
p352
S'months'
p353
tp354
(lp355
(I2
I10
F0.125
S'first'
p356
I0
tp357
a(I20
I3
F0.25
S'used'
p358
I0
tp359
a(I23
I6
I0
S'later'
p360
I0
tp361
as(S'love'
p362
S'love'
p363
S'love'
p364
tp365
(lp366
(I8
I0
I0
S'large'
p367
I2
tp368
a(I8
I0
I0
g367
I2
tp369
as(S'customer'
p370
S'service'
p371
tp372
(lp373
(I11
I6
I0
S'mobile'
p374
I3
tp375
a(I17
I12
F0.5
S'live'
p376
I3
tp377
a(I17
I37
I0
S'funny'
p378
I3
tp379
a(I28
I44
F1.0
S'best'
p380
I3
tp381
a(I42
I25
F1.0
S'better'
p382
I3
tp383
a(I2
I9
F1.0
S'good'
p384
I16
tp385
a(I2
I25
F-0.75
S'off'
p386
I16
tp387
a(I2
I37
F1.0
S'best'
p388
I16
tp389
a(I2
I51
F1.0
S'best'
p390
I16
tp391
a(I2
I121
I0
S'great'
p392
I16
tp393
a(I4
I4
F-0.625
S'bad'
p394
I16
tp395
a(I4
I8
F1.0
S'good'
p396
I16
tp397
a(I7
I21
F1.0
S'best'
p398
I16
tp399
a(I17
I37
I0
g378
I16
tp400
a(I20
I30
F0.875
S'happy'
p401
I16
tp402
a(I22
I0
I0
S'great'
p403
I16
tp404
a(I28
I17
I0
S'normal'
p405
I16
tp406
a(I28
I44
F1.0
g380
I16
tp407
a(I40
I41
I0
S'only'
p408
I16
tp409
a(I42
I25
F1.0
g382
I16
tp410
a(I42
I31
I0
S'great'
p411
I16
tp412
a(I56
I3
F0.375
S'similar'
p413
I16
tp414
a(I61
I16
F1.0
S'good'
p415
I16
tp416
a(I68
I25
F1.0
S'good'
p417
I16
tp418
a(I69
I35
F0.5
S'satisfied'
p419
I16
tp420
a(I11
I6
I0
g374
I11
tp421
a(I17
I12
F0.5
g376
I11
tp422
as(S'wifi'
p423
tp424
(lp425
(I7
I5
F-0.125
S'public'
p426
I0
tp427
a(I25
I30
F-0.375
S'serious'
p428
I0
tp429
as(S'super'
p430
S'fast'
p431
tp432
(lp433
(I2
I122
F-0.125
S'super'
p434
I0
tp435
a(I5
I15
F-0.125
S'super'
p436
I0
tp437
a(I11
I10
F-0.125
S'super'
p438
I0
tp439
a(I27
I7
F-0.125
S'super'
p440
I0
tp441
a(I70
I10
F-0.125
S'super'
p442
I0
tp443
as(S'apps'
p444
tp445
(lp446
(I2
I65
I0
S'few'
p447
I0
tp448
a(I10
I13
F1.0
S'best'
p449
I0
tp450
a(I10
I14
F-0.625
S'free'
p451
I0
tp452
a(I12
I16
I0
S'great'
p453
I0
tp454
a(I20
I42
F0.625
S'easy'
p455
I0
tp456
a(I28
I18
F0.375
S'available'
p457
I0
tp458
a(I31
I0
F-0.375
S'crash'
p459
I0
tp460
a(I36
I11
I0
S'many'
p461
I0
tp462
a(I49
I6
F1.0
S'good'
p463
I0
tp464
a(I54
I7
F0.625
S'aware'
p465
I0
tp466
a(I54
I17
I0
S'few'
p467
I0
tp468
a(I60
I9
I0
S'great'
p469
I0
tp470
a(I60
I9
F0.625
S'easy'
p471
I0
tp472
as(S'amazon'
p473
tp474
(lp475
(I17
I1
I0
S'great'
p476
I13
tp477
a(I19
I9
F-0.5
S'sure'
p478
I13
tp479
as(S'touch'
p480
S'screen'
p481
tp482
(lp483
(I26
I21
F0.5
S'touch'
p484
I2
tp485
a(I29
I1
F0.5
S'touch'
p486
I2
tp487
a(I54
I47
F0.5
S'touch'
p488
I2
tp489
a(I56
I28
F0.5
S'touch'
p490
I2
tp491
a(I56
I29
F0.25
S'responsive'
p492
I2
tp493
a(I56
I29
F0.5
S'accurate'
p494
I2
tp495
a(I56
I30
F1.0
S'best'
p496
I2
tp497
as.