(dp0
(S'sound'
p1
tp2
(lp3
(I8
I34
F-0.375
S'manual'
p4
I7
tp5
a(I27
I39
F1.0
S'good'
p6
I7
tp7
a(I38
I55
F1.0
S'good'
p8
I7
tp9
a(I45
I72
F0.5
S'speaking'
p10
I7
tp11
a(I50
I8
F1.0
S'good'
p12
I7
tp13
a(I56
I9
F0.5
S'clear'
p14
I7
tp15
a(I56
I73
F0.875
S'happy'
p16
I7
tp17
as(S'and'
p18
S'touch'
p19
S'screen'
p20
tp21
(lp22
(I2
I52
F0.5
S'touch'
p23
I0
tp24
a(I2
I64
F0.5
S'touch'
p25
I0
tp26
a(I6
I2
F0.5
S'touch'
p27
I0
tp28
a(I17
I3
F0.5
S'touch'
p29
I0
tp30
a(I17
I3
F-0.125
S'slow'
p31
I0
tp32
a(I17
I3
F-0.625
S'inaccurate'
p33
I0
tp34
a(I23
I9
F0.5
S'touch'
p35
I0
tp36
a(I24
I4
F0.5
S'touch'
p37
I0
tp38
a(I25
I11
F0.5
S'touch'
p39
I0
tp40
a(I29
I55
F0.625
S'easy'
p41
I0
tp42
a(I29
I55
F0.625
S'easy'
p43
I0
tp44
a(I29
I75
F-0.875
S'hard'
p45
I0
tp46
a(I31
I13
F0.5
S'touch'
p47
I0
tp48
a(I36
I14
F0.5
S'touch'
p49
I0
tp50
a(I38
I52
F0.5
S'touch'
p51
I0
tp52
a(I38
I157
F0.5
S'touch'
p53
I0
tp54
a(I39
I6
F0.5
S'touch'
p55
I0
tp56
a(I45
I23
F0.5
S'touch'
p57
I0
tp58
a(I45
I81
F0.5
S'touch'
p59
I0
tp60
a(I46
I9
F0.5
S'touch'
p61
I0
tp62
a(I48
I2
I0
S'large'
p63
I0
tp64
a(I48
I2
I0
S'handy'
p65
I0
tp66
a(I48
I5
F0.5
S'touch'
p67
I0
tp68
a(I48
I10
F0.625
S'easy'
p69
I0
tp70
a(I48
I10
F0.5
S'touch'
p71
I0
tp72
a(I48
I10
F0.5
S'true'
p73
I0
tp74
a(I48
I10
F-0.375
S'small'
p75
I0
tp76
a(I48
I10
I0
S'automatic'
p77
I0
tp78
a(I51
I19
F0.5
S'touch'
p79
I0
tp80
a(I51
I32
F0.5
S'touch'
p81
I0
tp82
a(I56
I61
F0.5
S'touch'
p83
I0
tp84
a(I56
I61
F0.25
S'responsive'
p85
I0
tp86
a(I56
I70
F0.5
S'touch'
p87
I0
tp88
a(I2
I0
F0.5
S'touch'
p89
I2
tp90
a(I2
I52
F0.5
g23
I2
tp91
a(I2
I64
F0.5
g25
I2
tp92
a(I5
I26
F0.5
S'touch'
p93
I2
tp94
a(I6
I2
F0.5
g27
I2
tp95
a(I8
I9
F0.625
S'kind'
p96
I2
tp97
a(I8
I9
F-0.375
S'small'
p98
I2
tp99
a(I8
I11
F0.25
S'responsive'
p100
I2
tp101
a(I10
I23
F0.5
S'touch'
p102
I2
tp103
a(I10
I48
F0.5
S'touch'
p104
I2
tp105
a(I17
I3
F0.5
g29
I2
tp106
a(I17
I3
F-0.125
g31
I2
tp107
a(I17
I3
F-0.625
g33
I2
tp108
a(I22
I5
F0.5
S'touch'
p109
I2
tp110
a(I23
I9
F0.5
g35
I2
tp111
a(I23
I19
F0.5
S'touch'
p112
I2
tp113
a(I24
I4
F0.5
g37
I2
tp114
a(I24
I13
F0.5
S'touch'
p115
I2
tp116
a(I25
I11
F0.5
g39
I2
tp117
a(I26
I20
F0.5
S'touch'
p118
I2
tp119
a(I26
I34
F0.5
S'touch'
p120
I2
tp121
a(I29
I41
F0.5
S'touch'
p122
I2
tp123
a(I29
I55
F0.625
g41
I2
tp124
a(I29
I55
F0.625
g43
I2
tp125
a(I29
I75
F-0.875
g45
I2
tp126
a(I31
I13
F0.5
g47
I2
tp127
a(I36
I13
F0.5
S'touch'
p128
I2
tp129
a(I36
I14
F0.5
g49
I2
tp130
a(I38
I52
F0.5
g51
I2
tp131
a(I38
I62
I0
S'wish'
p132
I2
tp133
a(I38
I62
F0.5
S'touch'
p134
I2
tp135
a(I38
I63
I0
S'resistive'
p136
I2
tp137
a(I38
I63
I0
S'capacitive'
p138
I2
tp139
a(I38
I74
F0.5
S'touch'
p140
I2
tp141
a(I38
I74
I0
S'sensitive'
p142
I2
tp143
a(I38
I157
F0.5
g53
I2
tp144
a(I39
I6
F0.5
g55
I2
tp145
a(I39
I18
F-0.625
S'rough'
p146
I2
tp147
a(I41
I25
I0
S'sensitive'
p148
I2
tp149
a(I41
I25
F0.875
S'nice'
p150
I2
tp151
a(I45
I23
F0.5
g57
I2
tp152
a(I45
I81
F0.5
g59
I2
tp153
a(I45
I90
F1.0
S'best'
p154
I2
tp155
a(I46
I9
F0.5
g61
I2
tp156
a(I48
I2
I0
g63
I2
tp157
a(I48
I2
I0
g65
I2
tp158
a(I48
I4
F-0.375
S'smaller'
p159
I2
tp160
a(I48
I5
F0.5
g67
I2
tp161
a(I48
I9
F0.5
S'touch'
p162
I2
tp163
a(I48
I9
F-0.375
S'small'
p164
I2
tp165
a(I48
I10
F0.625
g69
I2
tp166
a(I48
I10
F0.5
g71
I2
tp167
a(I48
I10
F0.5
g73
I2
tp168
a(I48
I10
F-0.375
g75
I2
tp169
a(I48
I10
I0
g77
I2
tp170
a(I51
I19
F0.5
g79
I2
tp171
a(I51
I32
F0.5
g81
I2
tp172
a(I51
I56
F0.5
S'touch'
p173
I2
tp174
a(I53
I35
F0.5
S'touch'
p175
I2
tp176
a(I55
I0
F-0.75
S'wrong'
p177
I2
tp178
a(I55
I0
F0.5
S'touch'
p179
I2
tp180
a(I55
I0
I0
S'full'
p181
I2
tp182
a(I56
I42
F0.25
S'responsive'
p183
I2
tp184
a(I56
I42
I0
S'resistive'
p185
I2
tp186
a(I56
I42
I0
S'capacitive'
p187
I2
tp188
a(I56
I43
F0.5
S'touch'
p189
I2
tp190
a(I56
I57
F0.5
S'touch'
p191
I2
tp192
a(I56
I57
F0.25
S'responsive'
p193
I2
tp194
a(I56
I61
F0.5
g83
I2
tp195
a(I56
I61
F0.25
g85
I2
tp196
a(I56
I66
F0.625
S'easy'
p197
I2
tp198
a(I56
I70
F0.5
g87
I2
tp199
as(S'big'
p200
S'improvement'
p201
tp202
(lp203
(I55
I11
I0
S'big'
p204
I0
tp205
as(S'keys'
p206
tp207
(lp208
(I18
I0
F-0.375
S'small'
p209
I9
tp210
a(I29
I61
F0.625
S'easy'
p211
I9
tp212
a(I29
I61
F-0.375
S'small'
p213
I9
tp214
a(I35
I3
F0.625
S'easy'
p215
I9
tp216
a(I38
I20
F0.25
S'larger'
p217
I9
tp218
a(I38
I20
I0
S'numeric'
p219
I9
tp220
a(I45
I19
F-0.25
S'white'
p221
I9
tp222
a(I45
I20
F-0.375
S'black'
p223
I9
tp224
a(I45
I20
F-0.75
S'impossible'
p225
I9
tp226
a(I48
I4
F0.5
S'touch'
p227
I9
tp228
a(I49
I31
F-0.375
S'small'
p229
I9
tp230
a(I55
I41
F-0.375
S'small'
p231
I9
tp232
as(S'text'
p233
tp234
(lp235
(I8
I1
F-0.25
S'past'
p236
I18
tp237
a(I8
I17
F0.375
S'new'
p238
I18
tp239
a(I8
I28
F-0.5
S'regular'
p240
I18
tp241
a(I10
I49
I0
S'few'
p242
I18
tp243
a(I55
I32
I0
S'sized'
p244
I18
tp245
as(S'micro'
p246
S'sd'
p247
S'card'
p248
tp249
(lp250
(I10
I26
F0.625
S'easy'
p251
I0
tp252
a(I26
I21
F0.625
S'removable'
p253
I0
tp254
a(I45
I68
F0.875
S'music'
p255
I0
tp256
a(I49
I32
F0.875
S'music'
p257
I0
tp258
a(I10
I26
F0.625
g251
I0
tp259
a(I27
I31
I0
S'great'
p260
I0
tp261
a(I45
I68
F0.875
g255
I0
tp262
a(I49
I32
F0.875
g257
I0
tp263
a(I26
I21
F0.625
g253
I0
tp264
as(S'slider'
p265
S'keyboard'
p266
tp267
(lp268
(I2
I22
F1.0
S'best'
p269
I0
tp270
a(I10
I24
F0.875
S'nice'
p271
I0
tp272
a(I13
I31
I0
S'full'
p273
I0
tp274
a(I26
I13
I0
S'plastic'
p275
I0
tp276
a(I36
I69
F0.625
S'easy'
p277
I0
tp278
a(I38
I15
I0
S'older'
p279
I0
tp280
a(I9
I32
I0
S'adamant'
p281
I0
tp282
a(I15
I6
F1.0
S'good'
p283
I0
tp284
a(I26
I45
F0.875
S'nice'
p285
I0
tp286
a(I36
I69
F0.625
g277
I0
tp287
a(I38
I15
I0
g279
I0
tp288
a(I45
I16
F0.25
S'bigger'
p289
I0
tp290
a(I45
I16
I0
S'more'
p291
I0
tp292
a(I45
I16
I0
S'substantial'
p293
I0
tp294
a(I52
I24
F0.375
S'much'
p295
I0
tp296
as(S'minutes'
p297
S'for'
p298
S'life'
p299
tp300
(lp301
(I11
I19
F-0.25
S'triple'
p302
I0
tp303
a(I52
I45
F-0.25
S'cheapest'
p304
I0
tp305
a(I55
I8
F1.0
S'good'
p306
I0
tp307
a(I55
I8
F-0.5
S'long'
p308
I0
tp309
a(I20
I13
F0.625
S'easy'
p310
I19
tp311
a(I38
I34
I0
S'great'
p312
I19
tp313
a(I47
I0
F1.0
S'good'
p314
I19
tp315
a(I51
I11
F-0.5
S'less'
p316
I19
tp317
a(I53
I32
F1.0
S'good'
p318
I19
tp319
a(I56
I40
F1.0
S'better'
p320
I19
tp321
a(I56
I61
F1.0
S'good'
p322
I19
tp323
as(S'camera'
p324
tp325
(lp326
(I5
I3
F-0.75
S'worse'
p327
I1
tp328
a(I6
I8
F-0.625
S'bad'
p329
I1
tp330
a(I8
I55
I0
S'great'
p331
I1
tp332
a(I13
I7
F1.0
S'good'
p333
I1
tp334
a(I32
I22
F-0.5
S'regular'
p335
I1
tp336
a(I38
I157
F1.0
S'good'
p337
I1
tp338
as(S'key'
p339
S'board'
p340
tp341
(lp342
(I29
I54
F0.125
S'key'
p343
I0
tp344
a(I50
I0
F0.125
S'key'
p345
I0
tp346
as(S'battery'
p347
S'life'
p348
tp349
(lp350
(I25
I17
F-0.75
S'short'
p351
I1
tp352
a(I38
I34
I0
g312
I1
tp353
a(I47
I0
F1.0
g314
I1
tp354
a(I51
I11
F-0.5
g316
I1
tp355
a(I53
I32
F1.0
g318
I1
tp356
a(I56
I40
F1.0
g320
I1
tp357
a(I56
I61
F1.0
g322
I1
tp358
a(I6
I8
F0.125
S'last'
p359
I15
tp360
a(I6
I9
I0
S'standard'
p361
I15
tp362
a(I8
I71
F-0.5
S'long'
p363
I15
tp364
a(I10
I33
F-0.25
S'low'
p365
I15
tp366
a(I10
I33
I0
S'signal'
p367
I15
tp368
a(I10
I34
F0.375
S'new'
p369
I15
tp370
a(I18
I26
F-0.75
S'dead'
p371
I15
tp372
a(I18
I27
F0.125
S'first'
p373
I15
tp374
a(I20
I11
F1.0
S'good'
p375
I15
tp376
a(I20
I11
F0.125
S'last'
p377
I15
tp378
a(I20
I11
F-0.5
S'long'
p379
I15
tp380
a(I25
I17
F-0.75
g351
I15
tp381
a(I38
I157
I0
S'great'
p382
I15
tp383
a(I44
I5
F1.0
S'good'
p384
I15
tp385
a(I51
I33
F0.375
S'new'
p386
I15
tp387
as(S'message'
p388
tp389
(lp390
(I8
I25
F0.25
S'main'
p391
I1
tp392
a(I8
I63
F-0.5
S'open'
p393
I1
tp394
as(S'straight'
p395
S'talk'
p396
tp397
(lp398
(I2
I59
F0.625
S'easy'
p399
I0
tp400
a(I2
I59
F1.0
S'best'
p401
I0
tp402
a(I2
I59
F0.625
S'straight'
p403
I0
tp404
a(I3
I1
F0.625
S'straight'
p405
I0
tp406
a(I38
I130
F0.5
S'expensive'
p407
I0
tp408
a(I38
I132
I0
S'own'
p409
I0
tp410
a(I52
I35
F0.625
S'straight'
p411
I0
tp412
a(I2
I1
I0
S'physical'
p413
I13
tp414
a(I2
I59
F0.625
g399
I13
tp415
a(I2
I59
F1.0
g401
I13
tp416
a(I2
I59
F0.625
g403
I13
tp417
a(I3
I1
F0.625
g405
I13
tp418
a(I52
I35
F0.625
g411
I13
tp419
as(S'a'
p420
S'touch'
p421
S'screen'
p422
tp423
(lp424
(I2
I0
F0.5
g89
I0
tp425
a(I2
I52
F0.5
g23
I0
tp426
a(I2
I64
F0.5
g25
I0
tp427
a(I5
I26
F0.5
g93
I0
tp428
a(I6
I2
F0.5
g27
I0
tp429
a(I8
I9
F0.625
g96
I0
tp430
a(I8
I9
F-0.375
g98
I0
tp431
a(I8
I11
F0.25
g100
I0
tp432
a(I10
I23
F0.5
g102
I0
tp433
a(I10
I48
F0.5
g104
I0
tp434
a(I17
I3
F0.5
g29
I0
tp435
a(I17
I3
F-0.125
g31
I0
tp436
a(I17
I3
F-0.625
g33
I0
tp437
a(I22
I5
F0.5
g109
I0
tp438
a(I23
I9
F0.5
g35
I0
tp439
a(I23
I19
F0.5
g112
I0
tp440
a(I24
I4
F0.5
g37
I0
tp441
a(I24
I13
F0.5
g115
I0
tp442
a(I25
I11
F0.5
g39
I0
tp443
a(I26
I34
F0.5
g120
I0
tp444
a(I29
I41
F0.5
g122
I0
tp445
a(I29
I55
F0.625
g41
I0
tp446
a(I29
I55
F0.625
g43
I0
tp447
a(I29
I75
F-0.875
g45
I0
tp448
a(I31
I13
F0.5
g47
I0
tp449
a(I36
I13
F0.5
g128
I0
tp450
a(I36
I14
F0.5
g49
I0
tp451
a(I38
I52
F0.5
g51
I0
tp452
a(I38
I62
I0
g132
I0
tp453
a(I38
I62
F0.5
g134
I0
tp454
a(I38
I63
I0
g136
I0
tp455
a(I38
I63
I0
g138
I0
tp456
a(I38
I74
F0.5
g140
I0
tp457
a(I38
I74
I0
g142
I0
tp458
a(I38
I157
F0.5
g53
I0
tp459
a(I39
I6
F0.5
g55
I0
tp460
a(I39
I18
F-0.625
g146
I0
tp461
a(I41
I25
I0
g148
I0
tp462
a(I41
I25
F0.875
g150
I0
tp463
a(I45
I23
F0.5
g57
I0
tp464
a(I45
I81
F0.5
g59
I0
tp465
a(I45
I90
F1.0
g154
I0
tp466
a(I46
I9
F0.5
g61
I0
tp467
a(I48
I2
I0
g63
I0
tp468
a(I48
I2
I0
g65
I0
tp469
a(I48
I4
F-0.375
g159
I0
tp470
a(I48
I5
F0.5
g67
I0
tp471
a(I48
I9
F0.5
g162
I0
tp472
a(I48
I9
F-0.375
g164
I0
tp473
a(I48
I10
F0.625
g69
I0
tp474
a(I48
I10
F0.5
g71
I0
tp475
a(I48
I10
F0.5
g73
I0
tp476
a(I48
I10
F-0.375
g75
I0
tp477
a(I48
I10
I0
g77
I0
tp478
a(I51
I19
F0.5
g79
I0
tp479
a(I51
I32
F0.5
g81
I0
tp480
a(I51
I56
F0.5
g173
I0
tp481
a(I53
I35
F0.5
g175
I0
tp482
a(I55
I0
F-0.75
g177
I0
tp483
a(I55
I0
F0.5
g179
I0
tp484
a(I55
I0
I0
g181
I0
tp485
a(I56
I42
F0.25
g183
I0
tp486
a(I56
I42
I0
g185
I0
tp487
a(I56
I42
I0
g187
I0
tp488
a(I56
I43
F0.5
g189
I0
tp489
a(I56
I57
F0.5
g191
I0
tp490
a(I56
I57
F0.25
g193
I0
tp491
a(I56
I61
F0.5
g83
I0
tp492
a(I56
I61
F0.25
g85
I0
tp493
a(I56
I66
F0.625
g197
I0
tp494
a(I56
I70
F0.5
g87
I0
tp495
as(S'much'
p496
S'easier'
p497
tp498
(lp499
(I5
I15
F0.375
S'much'
p500
I9
tp501
a(I43
I30
F0.375
S'much'
p502
I9
tp503
a(I55
I2
F0.625
S'easier'
p504
I9
tp505
as(S'coverage'
p506
tp507
(lp508
(I29
I28
I0
S'full'
p509
I0
tp510
a(I36
I57
I0
S'adequate'
p511
I0
tp512
a(I36
I59
F0.875
S'happy'
p513
I0
tp514
a(I37
I0
F-0.5
S'poor'
p515
I0
tp516
a(I37
I1
F0.25
S'broadest'
p517
I0
tp518
a(I37
I12
I0
S'extensive'
p519
I0
tp520
a(I45
I15
I0
S'adequate'
p521
I0
tp522
a(I53
I43
F1.0
S'good'
p523
I0
tp524
a(I56
I14
I0
S'great'
p525
I0
tp526
a(I56
I20
I0
S'most'
p527
I0
tp528
a(I56
I39
F0.375
S'much'
p529
I0
tp530
a(I56
I39
F1.0
S'better'
p531
I0
tp532
as(S'touchscreen'
p533
tp534
(lp535
(I8
I13
F-0.75
S'difficult'
p536
I0
tp537
a(I8
I84
I0
S'basic'
p538
I0
tp539
a(I29
I10
F-0.125
S'slow'
p540
I0
tp541
a(I29
I12
F0.25
S'responsive'
p542
I0
tp543
a(I32
I20
F0.25
S'larger'
p544
I0
tp545
as(S'prepaid'
p546
tp547
(lp548
(I29
I59
F0.75
S'worth'
p549
I0
tp550
as(g420
S'great'
p551
S'price'
p552
tp553
(lp554
(I2
I32
I0
S'great'
p555
I9
tp556
a(I2
I37
F0.5
S'second'
p557
I9
tp558
a(I2
I37
F0.625
S'easy'
p559
I9
tp560
a(I2
I65
I0
S'great'
p561
I9
tp562
a(I17
I0
I0
S'great'
p563
I9
tp564
a(I25
I8
I0
S'great'
p565
I9
tp566
a(I25
I8
F0.875
S'happy'
p567
I9
tp568
a(I27
I35
I0
S'great'
p569
I9
tp570
a(I28
I12
I0
S'great'
p571
I9
tp572
a(I36
I10
I0
S'great'
p573
I9
tp574
a(I38
I206
I0
S'great'
p575
I9
tp576
a(I51
I42
I0
S'great'
p577
I9
tp578
a(I51
I45
I0
S'great'
p579
I9
tp580
a(I52
I10
F1.0
S'good'
p581
I9
tp582
a(I54
I2
I0
S'great'
p583
I9
tp584
a(I55
I23
I0
S'great'
p585
I9
tp586
as(S'get'
p587
S'triple'
p588
S'minutes'
p589
tp590
(lp591
(I32
I24
F-0.625
S'free'
p592
I0
tp593
a(I35
I4
F-0.25
S'triple'
p594
I0
tp595
a(I52
I45
F-0.25
g304
I0
tp596
as(S'on'
p597
S'verizon'
p598
S'network'
p599
tp600
(lp601
(I36
I57
F-0.5
S'sure'
p602
I0
tp603
a(I45
I79
F0.5
S'satisfied'
p604
I0
tp605
a(I56
I46
I0
S'more'
p606
I0
tp607
a(I36
I57
F-0.5
g602
I0
tp608
a(I45
I79
F0.5
g604
I0
tp609
a(I56
I46
I0
g606
I0
tp610
a(I36
I57
F-0.5
g602
I0
tp611
a(I38
I151
F0.125
S'able'
p612
I0
tp613
a(I56
I46
I0
g606
I0
tp614
a(I45
I79
F0.5
g604
I0
tp615
as(S'slide'
p616
S'out'
p617
S'keyboard'
p618
tp619
(lp620
(I5
I24
F0.625
S'easy'
p621
I0
tp622
a(I8
I45
F-0.125
S'slow'
p623
I0
tp624
a(I10
I68
F0.5
S'stylish'
p625
I0
tp626
a(I31
I13
I0
S'full'
p627
I0
tp628
a(I36
I38
F0.25
S'responsive'
p629
I0
tp630
a(I36
I38
F0.5
S'touch'
p631
I0
tp632
a(I38
I146
I0
S'handy'
p633
I0
tp634
a(I50
I10
F0.375
S'much'
p635
I0
tp636
a(I10
I68
F0.5
g625
I6
tp637
a(I11
I22
F0.875
S'nice'
p638
I6
tp639
a(I50
I10
F0.375
g635
I6
tp640
a(I2
I22
F1.0
g269
I2
tp641
a(I2
I35
I0
S'physical'
p642
I2
tp643
a(I4
I1
I0
S'great'
p644
I2
tp645
a(I5
I7
F0.625
S'easy'
p646
I2
tp647
a(I5
I24
F0.625
g621
I2
tp648
a(I8
I45
F-0.125
g623
I2
tp649
a(I10
I24
F0.875
g271
I2
tp650
a(I10
I59
I0
S'handy'
p651
I2
tp652
a(I13
I31
I0
g273
I2
tp653
a(I17
I12
F0.25
S'bigger'
p654
I2
tp655
a(I17
I14
I0
S'great'
p656
I2
tp657
a(I18
I4
I0
S'full'
p658
I2
tp659
a(I20
I10
F0.625
S'easier'
p660
I2
tp661
a(I22
I1
F-0.375
S'small'
p662
I2
tp663
a(I22
I1
F-0.875
S'hard'
p664
I2
tp665
a(I26
I13
I0
g275
I2
tp666
a(I31
I13
I0
g627
I2
tp667
a(I32
I20
F0.875
S'nice'
p668
I2
tp669
a(I36
I30
I0
S'more'
p670
I2
tp671
a(I36
I38
F0.25
g629
I2
tp672
a(I36
I38
F0.5
g631
I2
tp673
a(I38
I11
F-0.375
S'manual'
p674
I2
tp675
a(I38
I11
I0
S'microscopic'
p676
I2
tp677
a(I38
I71
I0
S'large'
p678
I2
tp679
a(I38
I146
I0
g633
I2
tp680
a(I43
I20
I0
S'full'
p681
I2
tp682
a(I43
I64
F-0.375
S'small'
p683
I2
tp684
a(I43
I64
I0
S'great'
p685
I2
tp686
a(I43
I64
F0.625
S'easy'
p687
I2
tp688
a(I51
I1
I0
S'full'
p689
I2
tp690
a(I52
I13
I0
S'real'
p691
I2
tp692
a(I56
I70
I0
S'full'
p693
I2
tp694
a(I56
I84
F0.625
S'easy'
p695
I2
tp696
a(I56
I99
I0
S'different'
p697
I2
tp698
as(S'cdma'
p699
tp700
(lp701
(I8
I26
F-0.625
S'other'
p702
I0
tp703
a(I27
I10
F0.125
S'capable'
p704
I0
tp705
a(I36
I59
I0
S'few'
p706
I0
tp707
as(S'keyboard'
p708
S'for'
p709
S'texting'
p710
tp711
(lp712
(I2
I35
I0
g642
I0
tp713
a(I17
I14
I0
g656
I0
tp714
a(I20
I10
F0.625
g660
I0
tp715
a(I25
I5
F0.625
S'easier'
p716
I0
tp717
a(I39
I10
F0.625
S'easy'
p718
I0
tp719
a(I41
I51
F0.875
S'nice'
p720
I0
tp721
a(I5
I15
I0
S'more'
p722
I0
tp723
a(I25
I5
F0.625
g716
I0
tp724
a(I39
I10
F0.625
g718
I0
tp725
a(I41
I51
F0.875
g720
I0
tp726
as(S'smart'
p727
tp728
(lp729
(I9
I3
F0.5
S'true'
p730
I10
tp731
a(I10
I19
F0.625
S'interested'
p732
I10
tp733
a(I10
I27
I0
S'real'
p734
I10
tp735
a(I36
I19
I0
S'close'
p736
I10
tp737
a(I50
I31
F1.0
S'good'
p738
I10
tp739
a(I55
I18
I0
S'wish'
p740
I10
tp741
as(S'button'
p742
S'on'
p743
S'side'
p744
tp745
(lp746
(I2
I41
F0.625
S'easiest'
p747
I0
tp748
a(I8
I52
F-0.5
S'open'
p749
I0
tp750
as(S'tracfone'
p751
S'web'
p752
S'site'
p753
tp754
(lp755
(I45
I11
F0.375
S'new'
p756
I0
tp757
a(I0
I10
I0
S'old'
p758
I0
tp759
a(I2
I50
F1.0
S'best'
p760
I0
tp761
a(I3
I0
F0.125
S'able'
p762
I0
tp763
a(I5
I12
F-0.625
S'other'
p764
I0
tp765
a(I8
I35
F-0.625
S'other'
p766
I0
tp767
a(I9
I21
I0
S'old'
p768
I0
tp769
a(I22
I5
I0
S'old'
p770
I0
tp771
a(I23
I9
F-0.25
S'inexpensive'
p772
I0
tp773
a(I25
I23
F1.0
S'best'
p774
I0
tp775
a(I26
I27
F1.0
S'best'
p776
I0
tp777
a(I27
I36
I0
S'old'
p778
I0
tp779
a(I27
I37
I0
S'great'
p780
I0
tp781
a(I31
I36
F-0.125
S'mine'
p782
I0
tp783
a(I34
I16
F-0.625
S'other'
p784
I0
tp785
a(I36
I24
F-0.625
S'other'
p786
I0
tp787
a(I36
I56
F-0.5
S'less'
p788
I0
tp789
a(I38
I54
F0.125
S'above'
p790
I0
tp791
a(I38
I78
I0
S'great'
p792
I0
tp793
a(I38
I194
I0
S'old'
p794
I0
tp795
a(I41
I11
F0.375
S'much'
p796
I0
tp797
a(I41
I12
I0
S'wish'
p798
I0
tp799
a(I45
I11
F0.375
g756
I0
tp800
a(I45
I75
I0
S'coolest'
p801
I0
tp802
a(I45
I76
I0
S'dial'
p803
I0
tp804
a(I50
I4
F1.0
S'best'
p805
I0
tp806
a(I52
I32
F-0.375
S'simple'
p807
I0
tp808
a(I55
I10
I0
S'closer'
p809
I0
tp810
a(I56
I38
I0
S'wish'
p811
I0
tp812
as(g420
S'micro'
p813
S'sd'
p814
tp815
(lp816
(I26
I21
F0.625
g253
I0
tp817
as(S'calls'
p818
tp819
(lp820
(I8
I17
F0.25
S'recent'
p821
I0
tp822
a(I10
I49
I0
S'few'
p823
I0
tp824
a(I23
I0
I0
S'many'
p825
I0
tp826
a(I31
I16
F0.875
S'nice'
p827
I0
tp828
a(I31
I16
F0.5
S'clear'
p829
I0
tp830
a(I33
I3
F0.5
S'clear'
p831
I0
tp832
a(I36
I44
F-0.375
S'black'
p833
I0
tp834
a(I45
I5
F-0.25
S'dropped'
p835
I0
tp836
a(I45
I74
I0
S'domestic'
p837
I0
tp838
a(I49
I24
F-0.375
S'simple'
p839
I0
tp840
a(I49
I24
F0.5
S'clear'
p841
I0
tp842
a(I51
I23
F0.625
S'hold'
p843
I0
tp844
as(S'contacts'
p845
tp846
(lp847
(I11
I8
I0
S'general'
p848
I0
tp849
a(I26
I17
F0.125
S'first'
p850
I0
tp851
a(I26
I18
F-0.375
S'top'
p852
I0
tp853
a(I38
I52
I0
S'full'
p854
I0
tp855
a(I45
I47
F0.25
S'used'
p856
I0
tp857
a(I52
I39
F0.125
S'able'
p858
I0
tp859
a(I53
I57
I0
S'few'
p860
I0
tp861
as(S'voice'
p862
S'command'
p863
tp864
(lp865
(I37
I10
I0
S'specific'
p866
I0
tp867
a(I15
I2
F0.5
S'clear'
p868
I4
tp869
a(I20
I2
I0
S'android'
p870
I4
tp871
a(I25
I23
I0
S'great'
p872
I4
tp873
a(I37
I10
I0
g866
I4
tp874
a(I49
I47
F0.5
S'touch'
p875
I4
tp876
as(S'signal'
p877
S'strength'
p878
tp879
(lp880
(I9
I36
I0
S'signal'
p881
I0
tp882
a(I52
I14
I0
S'signal'
p883
I0
tp884
a(I52
I21
I0
S'signal'
p885
I0
tp886
as(S'bells'
p887
S'and'
p888
S'whistles'
p889
tp890
(lp891
(I25
I8
F0.875
S'happy'
p892
I0
tp893
as(S'reception'
p894
tp895
(lp896
(I2
I51
F1.0
S'best'
p897
I0
tp898
a(I10
I34
F0.5
S'possible'
p899
I0
tp900
a(I10
I34
F-0.25
S'low'
p901
I0
tp902
a(I10
I58
F0.5
S'clear'
p903
I0
tp904
a(I13
I7
F1.0
S'good'
p905
I0
tp906
a(I13
I30
I0
S'great'
p907
I0
tp908
a(I26
I12
I0
S'great'
p909
I0
tp910
a(I32
I2
I0
S'same'
p911
I0
tp912
a(I32
I31
F-0.625
S'bad'
p913
I0
tp914
a(I43
I2
F1.0
S'good'
p915
I0
tp916
a(I43
I13
F1.0
S'good'
p917
I0
tp918
a(I43
I27
F1.0
S'better'
p919
I0
tp920
a(I43
I45
F1.0
S'good'
p921
I0
tp922
a(I44
I5
F1.0
S'good'
p923
I0
tp924
a(I52
I4
F-0.125
S'overall'
p925
I0
tp926
a(I52
I4
I0
S'great'
p927
I0
tp928
a(I53
I10
F1.0
S'best'
p929
I0
tp930
a(I55
I8
I0
S'large'
p931
I0
tp932
a(I56
I18
I0
S'great'
p933
I0
tp934
as(g420
S'qwerty'
p935
S'keyboard'
p936
tp937
(lp938
(I8
I45
F-0.125
g623
I0
tp939
a(I8
I46
F-0.5
S'sure'
p940
I0
tp941
a(I8
I46
F-0.875
S'hardest'
p942
I0
tp943
a(I36
I55
F0.625
S'easy'
p944
I0
tp945
a(I52
I50
F0.5
S'true'
p946
I0
tp947
a(I8
I45
F-0.125
g623
I0
tp948
a(I8
I46
F-0.5
g940
I0
tp949
a(I8
I46
F-0.875
g942
I0
tp950
a(I36
I55
F0.625
g944
I0
tp951
a(I52
I50
F0.5
g946
I0
tp952
a(I8
I46
F-0.5
g940
I0
tp953
a(I8
I46
F-0.875
g942
I0
tp954
a(I18
I8
F0.625
S'easy'
p955
I0
tp956
a(I36
I55
F0.625
g944
I0
tp957
a(I38
I200
F0.125
S'key'
p958
I0
tp959
a(I52
I50
F0.5
g946
I0
tp960
as(S'to'
p961
S'go'
p962
S'back'
p963
tp964
(lp965
(I56
I27
I0
S'old'
p966
I2
tp967
as(S'much'
p968
S'better'
p969
tp970
(lp971
(I0
I10
F0.375
S'much'
p972
I9
tp973
as(S'instruction'
p974
S'booklet'
p975
tp976
(lp977
(I37
I8
F-0.375
S'small'
p978
I2
tp979
a(I39
I1
F0.125
S'informative'
p980
I2
tp981
a(I39
I2
F0.375
S'complete'
p982
I2
tp983
as(S'three'
p984
S'times'
p985
tp986
(lp987
(I38
I109
I0
S'more'
p988
I3
tp989
a(I48
I14
I0
S'many'
p990
I3
tp991
as(S'make'
p992
g420
S'call'
p993
tp994
(lp995
(I10
I14
I0
S'sensitive'
p996
I0
tp997
a(I10
I14
F-0.75
S'difficult'
p998
I0
tp999
as(S'customer'
p1000
S'service'
p1001
tp1002
(lp1003
(I38
I99
F0.875
S'happy'
p1004
I3
tp1005
a(I53
I23
F0.25
S'helpful'
p1006
I3
tp1007
a(I11
I15
F0.875
S'happy'
p1008
I16
tp1009
a(I18
I18
I0
S'great'
p1010
I16
tp1011
a(I23
I12
F0.5
S'told'
p1012
I16
tp1013
a(I23
I30
I0
S'more'
p1014
I16
tp1015
a(I26
I4
F1.0
S'good'
p1016
I16
tp1017
a(I27
I32
F1.0
S'best'
p1018
I16
tp1019
a(I29
I47
F1.0
S'best'
p1020
I16
tp1021
a(I38
I49
I0
S'real'
p1022
I16
tp1023
a(I38
I49
F1.0
S'good'
p1024
I16
tp1025
a(I38
I65
F-0.625
S'sorry'
p1026
I16
tp1027
a(I38
I89
F1.0
S'best'
p1028
I16
tp1029
a(I38
I164
F0.375
S'available'
p1030
I16
tp1031
a(I50
I6
F0.75
S'gave'
p1032
I16
tp1033
a(I50
I6
F-0.5
S'poor'
p1034
I16
tp1035
a(I50
I6
F0.625
S'superior'
p1036
I16
tp1037
a(I53
I23
F0.25
g1006
I16
tp1038
a(I55
I30
F0.875
S'happy'
p1039
I16
tp1040
as(S'call'
p1041
S'quality'
p1042
tp1043
(lp1044
(I25
I16
F-0.5
S'poor'
p1045
I0
tp1046
a(I26
I52
F-0.625
S'bad'
p1047
I0
tp1048
a(I36
I53
F0.5
S'clear'
p1049
I0
tp1050
a(I38
I123
F0.625
S'easy'
p1051
I0
tp1052
a(I38
I123
I0
S'great'
p1053
I0
tp1054
a(I41
I42
F1.0
S'good'
p1055
I0
tp1056
a(I49
I4
F-0.5
S'poor'
p1057
I0
tp1058
a(I56
I44
F1.0
S'good'
p1059
I0
tp1060
as(S'love'
p1061
S'triple'
p1062
S'minutes'
p1063
tp1064
(lp1065
(I20
I9
F-0.25
S'triple'
p1066
I0
tp1067
a(I23
I43
F-0.25
S'triple'
p1068
I0
tp1069
a(I7
I2
F0.375
S'extra'
p1070
I0
tp1071
a(I7
I11
I0
S'handy'
p1072
I0
tp1073
a(I10
I5
I0
S'great'
p1074
I0
tp1075
a(I10
I74
F-0.75
S'wrong'
p1076
I0
tp1077
a(I11
I19
F-0.25
g302
I0
tp1078
a(I20
I9
F-0.25
g1066
I0
tp1079
a(I22
I11
I0
S'great'
p1080
I0
tp1081
a(I23
I43
F-0.25
g1068
I0
tp1082
a(I29
I29
F-0.25
S'triple'
p1083
I0
tp1084
a(I29
I43
F-0.75
S'wrong'
p1085
I0
tp1086
a(I29
I43
F-0.25
S'triple'
p1087
I0
tp1088
a(I32
I24
F-0.625
g592
I0
tp1089
a(I34
I7
F-0.25
S'triple'
p1090
I0
tp1091
a(I35
I4
F-0.25
g594
I0
tp1092
a(I36
I7
I0
S'great'
p1093
I0
tp1094
a(I36
I42
F0.875
S'nice'
p1095
I0
tp1096
a(I38
I23
F-0.375
S'double'
p1097
I0
tp1098
a(I38
I154
F-0.25
S'triple'
p1099
I0
tp1100
a(I38
I173
I0
S'great'
p1101
I0
tp1102
a(I41
I3
I0
S'great'
p1103
I0
tp1104
a(I41
I3
F-0.375
S'additive'
p1105
I0
tp1106
a(I43
I25
F-0.25
S'triple'
p1107
I0
tp1108
a(I51
I14
F0.875
S'happy'
p1109
I0
tp1110
a(I52
I45
F-0.25
g304
I0
tp1111
a(I55
I8
F1.0
g306
I0
tp1112
a(I55
I8
F-0.5
g308
I0
tp1113
a(I56
I10
F-0.25
S'triple'
p1114
I0
tp1115
a(I56
I54
F-0.25
S'triple'
p1116
I0
tp1117
a(I7
I11
I0
g1072
I1
tp1118
a(I10
I74
F-0.75
g1076
I1
tp1119
a(I36
I7
I0
g1093
I1
tp1120
a(I36
I42
F0.875
g1095
I1
tp1121
a(I38
I173
I0
g1101
I1
tp1122
a(I43
I66
I0
S'great'
p1123
I1
tp1124
a(I51
I14
F0.875
g1109
I1
tp1125
as(S'mp3'
p1126
S'player'
p1127
tp1128
(lp1129
(I10
I21
F0.875
S'nice'
p1130
I1
tp1131
a(I27
I39
F0.875
S'nice'
p1132
I1
tp1133
as(S'land'
p1134
S'line'
p1135
tp1136
(lp1137
(I49
I45
F-0.625
S'free'
p1138
I0
tp1139
as.