(dp0
(S'happy'
p1
S'with'
p2
S'purchase'
p3
tp4
(lp5
(I53
I3
F0.875
S'happy'
p6
tp7
a(I131
I3
F0.875
S'happy'
p8
tp9
a(I241
I5
F0.875
S'happy'
p10
tp11
as(S'perfect'
p12
tp13
(lp14
(I89
I0
I0
S'great'
p15
tp16
as(S'battery'
p17
S'life'
p18
tp19
(lp20
(I14
I4
F1.0
S'good'
p21
tp22
a(I27
I1
I0
S'fast'
p23
tp24
a(I27
I1
I0
S'great'
p25
tp26
a(I119
I1
F0.625
S'decent'
p27
tp28
a(I125
I3
I0
S'most'
p29
tp30
a(I201
I3
F1.0
S'good'
p31
tp32
a(I291
I2
F-0.5
S'poor'
p33
tp34
a(I311
I4
F-0.25
S'low'
p35
tp36
a(I424
I0
F-0.75
S'short'
p37
tp38
a(I426
I1
F-0.5
S'poor'
p39
tp40
a(I465
I6
F1.0
S'good'
p41
tp42
a(I472
I6
F-0.25
S'low'
p43
tp44
as(S'quad'
p45
S'core'
p46
S'processor'
p47
tp48
(lp49
(I12
I3
F-0.5
S'international'
p50
tp51
a(I55
I7
I0
S'least'
p52
tp53
as(S'problem'
p54
tp55
(lp56
(I76
I3
I0
S'only'
p57
tp58
a(I102
I4
I0
S'same'
p59
tp60
a(I125
I12
F0.125
S'sole'
p61
tp62
a(I169
I0
I0
S'only'
p63
tp64
a(I243
I0
I0
S'real'
p65
tp66
a(I271
I8
I0
S'individual'
p67
tp68
a(I332
I0
I0
S'only'
p69
tp70
a(I389
I3
I0
S'same'
p71
tp72
a(I390
I2
F0.375
S'similar'
p73
tp74
a(I436
I0
F-0.625
S'bad'
p75
tp76
a(I441
I0
I0
S'only'
p77
tp78
a(I451
I2
I0
S'only'
p79
tp80
a(I497
I12
I0
S'same'
p81
tp82
as(S'year'
p83
tp84
(lp85
(I203
I14
F0.125
S'last'
p86
tp87
a(I316
I2
F-0.25
S'past'
p88
tp89
as(S'came'
p90
tp91
(lp92
(I45
I3
F-0.25
S'white'
p93
tp94
as(S'money'
p95
tp96
(lp97
(I129
I3
F0.25
S'used'
p98
tp99
a(I227
I6
I0
S'more'
p100
tp101
as(S'galaxy'
p102
tp103
(lp104
(I26
I0
F-0.375
S'simple'
p105
tp106
a(I34
I0
F0.375
S'new'
p107
tp108
a(I78
I0
F1.0
S'best'
p109
tp110
a(I98
I1
F-0.5
S'gripe'
p111
tp112
a(I274
I3
F0.375
S'new'
p113
tp114
a(I473
I4
F-0.25
S'cheaper'
p115
tp116
a(I473
I4
F0.25
S'unlocked'
p117
tp118
as(S'nice'
p119
tp120
(lp121
(I368
I0
F-0.625
S'clean'
p122
tp123
a(I368
I0
F0.875
S'nice'
p124
tp125
a(I368
I0
I0
S'net'
p126
tp127
as(S'screen'
p128
tp129
(lp130
(I8
I3
F0.625
S'easy'
p131
tp132
a(I16
I0
F0.25
S'larger'
p133
tp134
a(I21
I2
I0
S'big'
p135
tp136
a(I26
I0
I0
S'big'
p137
tp138
a(I27
I1
F0.75
S'beautiful'
p139
tp140
a(I50
I1
F-0.375
S'black'
p141
tp142
a(I53
I1
I0
S'great'
p143
tp144
a(I55
I1
F0.75
S'beautiful'
p145
tp146
a(I80
I2
I0
S'big'
p147
tp148
a(I91
I1
I0
S'fast'
p149
tp150
a(I91
I1
I0
S'great'
p151
tp152
a(I101
I2
F0.75
S'beautiful'
p153
tp154
a(I101
I2
F0.125
S'solid'
p155
tp156
a(I103
I1
F0.25
S'responsive'
p157
tp158
a(I113
I5
F0.75
S'due'
p159
tp160
a(I113
I7
I0
S'large'
p161
tp162
a(I116
I0
I0
S'incredible'
p163
tp164
a(I120
I19
F-0.375
S'small'
p165
tp166
a(I120
I19
I0
S'vertical'
p167
tp168
a(I120
I19
I0
S'horizontal'
p169
tp170
a(I151
I8
F0.125
S'able'
p171
tp172
a(I151
I14
I0
S'large'
p173
tp174
a(I162
I1
I0
S'big'
p175
tp176
a(I185
I0
F1.0
S'good'
p177
tp178
a(I188
I0
I0
S'big'
p179
tp180
a(I234
I0
F0.875
S'nice'
p181
tp182
a(I252
I0
F-0.125
S'mine'
p183
tp184
a(I254
I9
F-0.5
S'cracked'
p185
tp186
a(I272
I0
I0
S'big'
p187
tp188
a(I286
I2
I0
S'sensitive'
p189
tp190
a(I316
I12
I0
S'large'
p191
tp192
a(I319
I3
F1.0
S'good'
p193
tp194
a(I347
I0
F1.0
S'best'
p195
tp196
a(I364
I0
F-0.625
S'light'
p197
tp198
a(I367
I2
F0.625
S'led'
p199
tp200
a(I403
I0
F-0.75
S'bright'
p201
tp202
a(I414
I0
F-0.625
S'rough'
p203
tp204
a(I414
I0
I0
S'joint'
p205
tp206
a(I427
I0
I0
S'big'
p207
tp208
a(I430
I4
I0
S'large'
p209
tp210
a(I430
I9
F0.875
S'nice'
p211
tp212
a(I430
I10
F0.25
S'larger'
p213
tp214
a(I453
I4
F0.25
S'bigger'
p215
tp216
a(I465
I0
F0.875
S'nice'
p217
tp218
a(I497
I5
F-0.25
S'low'
p219
tp220
a(I504
I3
I0
S'big'
p221
tp222
as(S'negative'
p223
S'reviews'
p224
tp225
(lp226
(I102
I4
F0.5
S'possible'
p227
tp228
a(I102
I4
F-0.875
S'negative'
p229
tp230
a(I102
I4
I0
S'most'
p231
tp232
a(I157
I1
F-0.875
S'negative'
p233
tp234
a(I425
I0
F-0.875
S'negative'
p235
tp236
a(I425
I4
F-0.875
S'negative'
p237
tp238
as(S'sd'
p239
S'cards'
p240
tp241
(lp242
(I194
I1
F0.375
S'extra'
p243
tp244
a(I194
I1
F-0.625
S'other'
p245
tp246
a(I194
I1
F0.375
S'new'
p247
tp248
a(I497
I13
I0
S'many'
p249
tp250
as(S'quad'
p251
S'core'
p252
tp253
(lp254
(I12
I3
F-0.5
g50
tp255
a(I12
I11
I0
S'quad'
p256
tp257
a(I426
I0
I0
S'quad'
p258
tp259
as(S'everything'
p260
tp261
(lp262
(I3
I2
F-0.625
S'other'
p263
tp264
a(I3
I2
F1.0
S'good'
p265
tp266
a(I190
I1
F0.625
S'perfect'
p267
tp268
a(I252
I1
F0.375
S'much'
p269
tp270
a(I332
I0
F0.625
S'perfect'
p271
tp272
a(I360
I6
F0.625
S'necessary'
p273
tp274
a(I421
I0
F0.375
S'new'
p275
tp276
a(I421
I0
F-0.5
S'unlimited'
p277
tp278
a(I441
I0
I0
S'great'
p279
tp280
a(I446
I0
I0
S'useful'
p281
tp282
a(I446
I0
F0.875
S'nice'
p283
tp284
a(I460
I0
F0.625
S'perfect'
p285
tp286
as(S'problems'
p287
tp288
(lp289
(I249
I1
F0.625
S'avoidable'
p290
tp291
a(I249
I4
F-0.625
S'other'
p292
tp293
a(I357
I0
F-0.375
S'serious'
p294
tp295
a(I380
I6
F-0.125
S'mine'
p296
tp297
a(I399
I0
F1.0
S'good'
p298
tp299
a(I442
I0
I0
S'few'
p300
tp301
a(I479
I6
F-0.375
S'small'
p302
tp303
as(S'samsung'
p304
tp305
(lp306
(I9
I3
F-0.625
S'other'
p307
tp308
a(I55
I2
I0
S'signal'
p309
tp310
a(I127
I3
F0.125
S'last'
p311
tp312
a(I163
I1
F0.375
S'new'
p313
tp314
a(I163
I1
F0.375
S'new'
p315
tp316
a(I169
I0
F0.25
S'original'
p317
tp318
a(I182
I3
F0.25
S'original'
p319
tp320
a(I194
I15
F-0.75
S'likely'
p321
tp322
a(I194
I15
I0
S'anymore'
p323
tp324
a(I195
I2
I0
S'such'
p325
tp326
a(I195
I2
F-0.25
S'google'
p327
tp328
a(I200
I2
F1.0
S'better'
p329
tp330
a(I201
I2
F0.375
S'new'
p331
tp332
a(I203
I4
I0
S'exclusive'
p333
tp334
a(I223
I2
I0
S'more'
p335
tp336
a(I267
I4
F1.0
S'good'
p337
tp338
a(I276
I0
F0.25
S'original'
p339
tp340
a(I334
I1
F0.875
S'happy'
p341
tp342
a(I334
I1
F0.375
S'new'
p343
tp344
a(I339
I1
F0.375
S'reliable'
p345
tp346
a(I356
I0
F0.125
S'first'
p347
tp348
a(I390
I1
F0.125
S'last'
p349
tp350
a(I419
I0
F1.0
S'best'
p351
tp352
a(I428
I0
F-0.5
S'international'
p353
tp354
a(I428
I0
F-0.25
S'cheaper'
p355
tp356
a(I428
I0
F-0.875
S'inferior'
p357
tp358
a(I428
I0
I0
S'overseas'
p359
tp360
a(I430
I2
F0.125
S'first'
p361
tp362
a(I440
I0
F1.0
S'good'
p363
tp364
a(I497
I10
F-0.625
S'other'
p365
tp366
as(S'cell'
p367
tp368
(lp369
(I120
I22
F-0.75
S'wrong'
p370
tp371
a(I452
I0
F1.0
S'best'
p372
tp373
a(I523
I0
I0
S'great'
p374
tp375
as(S'nternational'
p376
S'version'
p377
tp378
(lp379
(I11
I0
F-0.5
S'international'
p380
tp381
a(I12
I11
F-0.5
S'international'
p382
tp383
a(I12
I16
F-0.25
S'cheaper'
p384
tp385
a(I12
I16
F-0.5
S'international'
p386
tp387
a(I12
I19
F1.0
S'better'
p388
tp389
a(I12
I19
F-0.5
S'international'
p390
tp391
a(I39
I0
F-0.5
S'international'
p392
tp393
a(I54
I0
F-0.5
S'international'
p394
tp395
a(I54
I0
F-0.5
S'international'
p396
tp397
a(I54
I4
F-0.5
S'international'
p398
tp399
a(I67
I0
F-0.5
S'international'
p400
tp401
a(I100
I0
F-0.5
S'international'
p402
tp403
a(I109
I0
F-0.5
S'international'
p404
tp405
a(I117
I1
F-0.5
S'international'
p406
tp407
a(I130
I1
F-0.5
S'international'
p408
tp409
a(I132
I3
F-0.5
S'international'
p410
tp411
a(I140
I0
F-0.5
S'international'
p412
tp413
a(I140
I1
F-0.5
S'international'
p414
tp415
a(I146
I1
F-0.5
S'international'
p416
tp417
a(I163
I2
F-0.5
S'international'
p418
tp419
a(I163
I2
I0
S'european'
p420
tp421
a(I189
I0
F-0.5
S'international'
p422
tp423
a(I193
I0
F-0.5
S'international'
p424
tp425
a(I197
I0
F-0.5
S'international'
p426
tp427
a(I198
I1
F-0.5
S'international'
p428
tp429
a(I218
I0
F-0.5
S'international'
p430
tp431
a(I224
I0
F-0.5
S'international'
p432
tp433
a(I241
I2
F-0.5
S'international'
p434
tp435
a(I241
I2
F0.625
S'polish'
p436
tp437
a(I241
I2
I0
S'english'
p438
tp439
a(I243
I0
F-0.5
S'international'
p440
tp441
a(I251
I1
F-0.5
S'international'
p442
tp443
a(I252
I0
F-0.5
S'international'
p444
tp445
a(I268
I0
F0.125
S'first'
p446
tp447
a(I268
I0
F-0.5
S'international'
p448
tp449
a(I275
I0
F-0.5
S'international'
p450
tp451
a(I280
I0
F-0.5
S'international'
p452
tp453
a(I281
I0
F-0.5
S'international'
p454
tp455
a(I296
I3
F-0.5
S'international'
p456
tp457
a(I298
I0
F-0.5
S'international'
p458
tp459
a(I314
I0
F-0.5
S'international'
p460
tp461
a(I345
I0
F-0.5
S'international'
p462
tp463
a(I346
I0
F-0.5
S'international'
p464
tp465
a(I358
I0
F0.125
S'first'
p466
tp467
a(I365
I0
F-0.5
S'international'
p468
tp469
a(I368
I1
F-0.5
S'international'
p470
tp471
a(I371
I1
F-0.5
S'international'
p472
tp473
a(I380
I3
F-0.5
S'international'
p474
tp475
a(I389
I4
F-0.5
S'international'
p476
tp477
a(I393
I1
F-0.5
S'international'
p478
tp479
a(I393
I6
F-0.5
S'international'
p480
tp481
a(I412
I1
F-0.5
S'international'
p482
tp483
a(I412
I3
F-0.5
S'international'
p484
tp485
a(I417
I1
F-0.5
S'international'
p486
tp487
a(I424
I7
F-0.5
S'international'
p488
tp489
a(I425
I0
F0.25
S'unlocked'
p490
tp491
a(I425
I0
F-0.5
S'international'
p492
tp493
a(I425
I2
F-0.5
S'international'
p494
tp495
a(I459
I3
F-0.5
S'international'
p496
tp497
a(I484
I2
F-0.5
S'international'
p498
tp499
a(I498
I4
F-0.5
S'international'
p500
tp501
a(I506
I1
F-0.5
S'international'
p502
tp503
a(I513
I0
F-0.5
S'international'
p504
tp505
a(I523
I0
F-0.5
S'international'
p506
tp507
as(S'version'
p508
tp509
(lp510
(I11
I0
F-0.5
g380
tp511
a(I12
I11
F-0.5
g382
tp512
a(I12
I16
F-0.25
g384
tp513
a(I12
I16
F-0.5
g386
tp514
a(I12
I19
F1.0
g388
tp515
a(I12
I19
F-0.5
g390
tp516
a(I39
I0
F-0.5
g392
tp517
a(I54
I0
F-0.5
g394
tp518
a(I54
I0
F-0.5
g396
tp519
a(I54
I4
F-0.5
g398
tp520
a(I67
I0
F-0.5
g400
tp521
a(I75
I2
I0
S'android'
p522
tp523
a(I75
I4
I0
S'android'
p524
tp525
a(I100
I0
F-0.5
g402
tp526
a(I102
I1
I0
S'chinese'
p527
tp528
a(I109
I0
F-0.5
g404
tp529
a(I117
I1
F-0.5
g406
tp530
a(I118
I0
I0
S'real'
p531
tp532
a(I124
I2
I0
S'next'
p533
tp534
a(I127
I0
I0
S'european'
p535
tp536
a(I130
I1
F-0.5
g408
tp537
a(I132
I3
F-0.5
g410
tp538
a(I140
I0
F-0.5
g412
tp539
a(I140
I1
F-0.5
g414
tp540
a(I144
I1
I0
S'particular'
p541
tp542
a(I146
I1
F-0.5
g416
tp543
a(I149
I0
I0
S'same'
p544
tp545
a(I163
I2
F-0.5
g418
tp546
a(I163
I2
I0
g420
tp547
a(I189
I0
F-0.5
g422
tp548
a(I193
I0
F-0.5
g424
tp549
a(I197
I0
F-0.5
g426
tp550
a(I198
I1
F-0.5
g428
tp551
a(I218
I0
F-0.5
g430
tp552
a(I224
I0
F-0.5
g432
tp553
a(I241
I2
F-0.5
g434
tp554
a(I241
I2
F0.625
g436
tp555
a(I241
I2
I0
g438
tp556
a(I243
I0
F-0.5
g440
tp557
a(I251
I1
F-0.5
g442
tp558
a(I252
I0
F-0.5
g444
tp559
a(I264
I6
I0
S'latest'
p560
tp561
a(I268
I0
F0.125
g446
tp562
a(I268
I0
F-0.5
g448
tp563
a(I268
I1
I0
S'generic'
p564
tp565
a(I268
I1
I0
S'least'
p566
tp567
a(I268
I1
I0
S'particular'
p568
tp569
a(I275
I0
F-0.5
g450
tp570
a(I280
I0
F-0.5
g452
tp571
a(I281
I0
F-0.5
g454
tp572
a(I296
I3
F-0.5
g456
tp573
a(I298
I0
F-0.5
g458
tp574
a(I314
I0
F-0.5
g460
tp575
a(I345
I0
F-0.5
g462
tp576
a(I346
I0
F-0.5
g464
tp577
a(I358
I0
F0.125
g466
tp578
a(I365
I0
F-0.5
g468
tp579
a(I368
I1
F-0.5
g470
tp580
a(I371
I1
F-0.5
g472
tp581
a(I380
I3
F-0.5
g474
tp582
a(I389
I4
F-0.5
g476
tp583
a(I393
I1
F-0.5
g478
tp584
a(I393
I6
F-0.5
g480
tp585
a(I404
I0
I0
S'android'
p586
tp587
a(I412
I1
F-0.5
g482
tp588
a(I412
I3
F-0.5
g484
tp589
a(I417
I1
F-0.5
g486
tp590
a(I424
I7
F-0.5
g488
tp591
a(I425
I0
F0.25
g490
tp592
a(I425
I0
F-0.5
g492
tp593
a(I425
I2
F-0.5
g494
tp594
a(I447
I1
I0
S'latest'
p595
tp596
a(I459
I3
F-0.5
g496
tp597
a(I481
I0
I0
S'english'
p598
tp599
a(I484
I2
F-0.5
g498
tp600
a(I498
I4
F-0.5
g500
tp601
a(I506
I1
F-0.5
g502
tp602
a(I513
I0
F-0.5
g504
tp603
a(I523
I0
F-0.5
g506
tp604
as(S'back'
p605
tp606
(lp607
(I125
I15
F0.125
S'fat'
p608
tp609
as(S'using'
p610
tp611
(lp612
(I407
I0
F0.875
S'happy'
p613
tp614
a(I407
I0
F0.375
S'new'
p615
tp616
a(I424
I4
I0
S'hot'
p617
tp618
a(I528
I1
F-0.125
S'mine'
p619
tp620
as(S'n'
p621
S'venezuela'
p622
tp623
(lp624
(I24
I1
F1.0
S'good'
p625
tp626
a(I34
I0
F-0.625
S'free'
p627
tp628
a(I455
I1
I0
S'great'
p629
tp630
a(I455
I1
F-0.25
S'white'
p631
tp632
a(I455
I1
F0.625
S'perfect'
p633
tp634
as(S'unlocked'
p635
S'nternational'
p636
S'version'
p637
tp638
(lp639
(I54
I4
F-0.5
g398
tp640
a(I67
I0
F-0.5
g400
tp641
a(I109
I0
F-0.5
g404
tp642
a(I275
I0
F-0.5
g450
tp643
a(I280
I0
F-0.5
g452
tp644
a(I281
I0
F-0.5
g454
tp645
a(I296
I3
F-0.5
g456
tp646
a(I298
I0
F-0.5
g458
tp647
a(I365
I0
F-0.5
g468
tp648
a(I412
I1
F-0.5
g482
tp649
a(I417
I1
F-0.5
g486
tp650
a(I425
I0
F0.25
g490
tp651
a(I425
I0
F-0.5
g492
tp652
a(I425
I2
F-0.5
g494
tp653
a(I498
I4
F-0.5
g500
tp654
a(I506
I1
F-0.5
g502
tp655
a(I513
I0
F-0.5
g504
tp656
as(S'straight'
p657
S'talk'
p658
tp659
(lp660
(I230
I0
F0.625
S'straight'
p661
tp662
a(I230
I2
F0.625
S'straight'
p663
tp664
a(I473
I3
F0.625
S'straight'
p665
tp666
as(S'need'
p667
tp668
(lp669
(I424
I2
I0
S'song'
p670
tp671
as(S'purchase'
p672
tp673
(lp674
(I27
I0
F0.875
S'happier'
p675
tp676
a(I53
I3
F0.875
g6
tp677
a(I131
I3
F0.875
g8
tp678
a(I241
I5
F0.875
g10
tp679
a(I336
I0
F0.125
S'first'
p680
tp681
a(I336
I0
F-0.75
S'sad'
p682
tp683
a(I343
I0
F1.0
S'good'
p684
tp685
a(I456
I0
F-0.625
S'glad'
p686
tp687
a(I484
I5
F-0.5
S'poor'
p688
tp689
as(S'quality'
p690
tp691
(lp692
(I12
I18
F1.0
S'good'
p693
tp694
a(I13
I0
I0
S'high'
p695
tp696
a(I48
I2
F0.375
S'similar'
p697
tp698
a(I53
I1
I0
S'high'
p699
tp700
a(I78
I1
I0
S'high'
p701
tp702
a(I80
I1
F1.0
S'good'
p703
tp704
a(I80
I2
I0
S'high'
p705
tp706
a(I120
I24
F0.125
S'last'
p707
tp708
a(I195
I16
F0.125
S'solid'
p709
tp710
a(I282
I1
I0
S'high'
p711
tp712
a(I370
I0
F1.0
S'good'
p713
tp714
a(I430
I12
F1.0
S'better'
p715
tp716
a(I449
I2
F1.0
S'good'
p717
tp718
a(I495
I6
F-0.625
S'average'
p719
tp720
as(S'life'
p721
tp722
(lp723
(I8
I5
F0.5
S'whole'
p724
tp725
a(I14
I4
F1.0
g21
tp726
a(I119
I1
F0.625
g27
tp727
a(I195
I8
I0
S'real'
p728
tp729
a(I291
I2
F-0.5
g33
tp730
a(I424
I0
F-0.75
g37
tp731
a(I426
I1
F-0.5
g39
tp732
a(I465
I6
F1.0
g41
tp733
as(S'an'
p734
S'nternational'
p735
S'version'
p736
tp737
(lp738
(I11
I0
F-0.5
g380
tp739
a(I12
I11
F-0.5
g382
tp740
a(I12
I19
F1.0
g388
tp741
a(I12
I19
F-0.5
g390
tp742
a(I54
I0
F-0.5
g394
tp743
a(I54
I0
F-0.5
g396
tp744
a(I54
I4
F-0.5
g398
tp745
a(I67
I0
F-0.5
g400
tp746
a(I132
I3
F-0.5
g410
tp747
a(I140
I1
F-0.5
g414
tp748
a(I163
I2
F-0.5
g418
tp749
a(I163
I2
I0
g420
tp750
a(I189
I0
F-0.5
g422
tp751
a(I193
I0
F-0.5
g424
tp752
a(I198
I1
F-0.5
g428
tp753
a(I224
I0
F-0.5
g432
tp754
a(I243
I0
F-0.5
g440
tp755
a(I252
I0
F-0.5
g444
tp756
a(I268
I0
F0.125
g446
tp757
a(I268
I0
F-0.5
g448
tp758
a(I280
I0
F-0.5
g452
tp759
a(I281
I0
F-0.5
g454
tp760
a(I296
I3
F-0.5
g456
tp761
a(I298
I0
F-0.5
g458
tp762
a(I314
I0
F-0.5
g460
tp763
a(I345
I0
F-0.5
g462
tp764
a(I346
I0
F-0.5
g464
tp765
a(I358
I0
F0.125
g466
tp766
a(I365
I0
F-0.5
g468
tp767
a(I371
I1
F-0.5
g472
tp768
a(I380
I3
F-0.5
g474
tp769
a(I393
I6
F-0.5
g480
tp770
a(I412
I1
F-0.5
g482
tp771
a(I424
I7
F-0.5
g488
tp772
a(I425
I0
F0.25
g490
tp773
a(I425
I0
F-0.5
g492
tp774
a(I484
I2
F-0.5
g498
tp775
a(I498
I4
F-0.5
g500
tp776
a(I523
I0
F-0.5
g506
tp777
as(S'mobile'
p778
tp779
(lp780
(I323
I2
F-0.25
S'unhelpful'
p781
tp782
a(I324
I0
F0.125
S'first'
p783
tp784
a(I368
I0
F-0.375
S'simple'
p785
tp786
as(S'a'
p787
S'samsung'
p788
S'galaxy'
p789
tp790
(lp791
(I9
I3
F-0.625
g307
tp792
a(I34
I0
F0.375
g107
tp793
a(I169
I0
F0.25
g317
tp794
a(I200
I2
F1.0
g329
tp795
a(I201
I2
F0.375
g331
tp796
a(I223
I2
I0
g335
tp797
a(I334
I1
F0.875
g341
tp798
a(I334
I1
F0.375
g343
tp799
a(I419
I0
F1.0
g351
tp800
as(S'return'
p801
tp802
(lp803
(I356
I3
F0.125
S'key'
p804
tp805
a(I525
I0
F0.375
S'available'
p806
tp807
as(S'times'
p808
g787
S'day'
p809
tp810
(lp811
(I229
I1
I0
S'different'
p812
tp813
as(S'features'
p814
tp815
(lp816
(I12
I19
I0
S'more'
p817
tp818
a(I12
I21
I0
S'more'
p819
tp820
a(I21
I1
I0
S'many'
p821
tp822
a(I21
I1
F0.5
S'advanced'
p823
tp824
a(I27
I3
I0
S'more'
p825
tp826
a(I59
I1
I0
S'more'
p827
tp828
a(I68
I3
F0.375
S'available'
p829
tp830
a(I93
I1
F1.0
S'good'
p831
tp832
a(I103
I2
I0
S'rich'
p833
tp834
a(I103
I2
F0.75
S'beautiful'
p835
tp836
a(I113
I17
F0.375
S'new'
p837
tp838
a(I141
I1
F0.125
S'able'
p839
tp840
a(I141
I1
I0
S'common'
p841
tp842
a(I203
I15
F-0.5
S'poor'
p843
tp844
a(I222
I0
I0
S'many'
p845
tp846
a(I309
I2
I0
S'many'
p847
tp848
a(I371
I2
I0
S'most'
p849
tp850
a(I371
I3
F-0.25
S'lower'
p851
tp852
a(I398
I0
I0
S'many'
p853
tp854
a(I424
I0
F1.0
S'good'
p855
tp856
a(I489
I1
F0.125
S'last'
p857
tp858
as(S'people'
p859
tp860
(lp861
(I14
I5
F-0.625
S'other'
p862
tp863
a(I68
I4
I0
S'most'
p864
tp865
a(I79
I0
F0.375
S'new'
p866
tp867
a(I104
I7
I0
S'most'
p868
tp869
a(I271
I9
F1.0
S'better'
p870
tp871
a(I389
I3
F-0.625
S'other'
p872
tp873
a(I419
I3
I0
S'many'
p874
tp875
a(I419
I6
F-0.5
S'sure'
p876
tp877
a(I473
I2
I0
S'few'
p878
tp879
a(I476
I0
I0
S'many'
p880
tp881
a(I497
I12
I0
S'many'
p882
tp883
a(I497
I12
F-0.625
S'other'
p884
tp885
a(I499
I7
I0
S'many'
p886
tp887
as(S'months'
p888
tp889
(lp890
(I198
I0
F-0.75
S'dead'
p891
tp892
a(I235
I7
I0
S'few'
p893
tp894
a(I254
I16
I0
S'next'
p895
tp896
a(I254
I17
F-0.5
S'long'
p897
tp898
a(I264
I0
F0.125
S'last'
p899
tp900
a(I400
I11
F-0.5
S'less'
p901
tp902
a(I469
I3
I0
S'later'
p903
tp904
a(I497
I4
I0
S'few'
p905
tp906
as(S'factory'
p907
tp908
(lp909
(I12
I30
F1.0
S'best'
p910
tp911
a(I194
I2
I0
S'weird'
p912
tp913
a(I251
I0
F0.375
S'new'
p914
tp915
a(I502
I1
F-0.5
S'international'
p916
tp917
as(S'buying'
p918
tp919
(lp920
(I172
I2
F1.0
S'better'
p921
tp922
a(I339
I1
F0.625
S'safe'
p923
tp924
a(I419
I5
F0.25
S'weary'
p925
tp926
a(I475
I0
F0.375
S'new'
p927
tp928
as(S'seller'
p929
tp930
(lp931
(I223
I3
F0.5
S'recommend'
p932
tp933
a(I384
I3
I0
S'ceramic'
p934
tp935
a(I404
I0
F0.25
S'original'
p936
tp937
a(I464
I2
F0.75
S'give'
p938
tp939
a(I468
I0
F0.5
S'trustworthy'
p940
tp941
a(I515
I1
F-0.625
S'other'
p942
tp943
as(S'android'
p944
tp945
(lp946
(I105
I1
F1.0
S'best'
p947
tp948
a(I371
I0
F1.0
S'best'
p949
tp950
as(S'works'
p951
tp952
(lp953
(I67
I0
F1.0
S'good'
p954
tp955
a(I113
I7
F0.125
S'impressive'
p956
tp957
a(I125
I7
I0
S'great'
p958
tp959
a(I195
I12
I0
S'english'
p960
tp961
a(I435
I1
I0
S'great'
p962
tp963
a(I465
I9
I0
S'least'
p964
tp965
as(S'card'
p966
tp967
(lp968
(I287
I2
I0
S'own'
p969
tp970
as(S'samsung'
p971
S'galaxy'
p972
S's3'
p973
tp974
(lp975
(I201
I2
F1.0
S'best'
p976
tp977
a(I201
I2
F0.375
g331
tp978
a(I223
I3
F0.375
S'new'
p979
tp980
a(I334
I1
F0.875
g341
tp981
a(I334
I1
F0.375
g343
tp982
as(S'fgs'
p983
S'trading'
p984
tp985
(lp986
(I439
I4
F-0.125
S'mine'
p987
tp988
as(S'battery'
p989
tp990
(lp991
(I9
I3
F-0.625
S'bad'
p992
tp993
a(I16
I4
F-0.625
S'unpredictable'
p994
tp995
a(I27
I1
I0
g23
tp996
a(I27
I1
I0
g25
tp997
a(I32
I1
F1.0
S'good'
p998
tp999
a(I45
I3
F0.25
S'original'
p1000
tp1001
a(I51
I3
I0
S'store'
p1002
tp1003
a(I51
I3
F0.375
S'extra'
p1004
tp1005
a(I51
I3
F0.375
S'extra'
p1006
tp1007
a(I80
I2
F0.125
S'last'
p1008
tp1009
a(I81
I0
F0.125
S'last'
p1010
tp1011
a(I125
I3
I0
g29
tp1012
a(I134
I3
F-0.5
S'sure'
p1013
tp1014
a(I134
I3
F1.0
S'good'
p1015
tp1016
a(I195
I9
F0.375
S'extra'
p1017
tp1018
a(I201
I3
F1.0
g31
tp1019
a(I234
I0
F0.125
S'last'
p1020
tp1021
a(I259
I0
I0
S'fast'
p1022
tp1023
a(I262
I0
I0
S'angry'
p1024
tp1025
a(I267
I1
F-0.625
S'bad'
p1026
tp1027
a(I267
I1
F-0.25
S'battery'
p1028
tp1029
a(I271
I4
F0.375
S'new'
p1030
tp1031
a(I271
I4
I0
S'old'
p1032
tp1033
a(I281
I13
F-0.375
S'top'
p1034
tp1035
a(I305
I4
F0.625
S'replaceable'
p1036
tp1037
a(I311
I4
F-0.25
g35
tp1038
a(I312
I2
F1.0
S'better'
p1039
tp1040
a(I372
I0
I0
S'fast'
p1041
tp1042
a(I372
I0
F-0.625
S'other'
p1043
tp1044
a(I394
I0
F0.125
S'last'
p1045
tp1046
a(I400
I4
F-0.75
S'little'
p1047
tp1048
a(I401
I0
F1.0
S'good'
p1049
tp1050
a(I401
I0
I0
S'real'
p1051
tp1052
a(I472
I6
F-0.25
g43
tp1053
a(I489
I2
I0
S'fast'
p1054
tp1055
a(I504
I2
I0
S'only'
p1056
tp1057
a(I504
I2
F-0.625
S'bad'
p1058
tp1059
a(I504
I2
F-0.5
S'long'
p1060
tp1061
a(I504
I2
F0.375
S'much'
p1062
tp1063
as(S'smart'
p1064
tp1065
(lp1066
(I186
I0
I0
S'useful'
p1067
tp1068
a(I235
I5
I0
S'such'
p1069
tp1070
a(I236
I0
F1.0
S'best'
p1071
tp1072
a(I243
I0
F1.0
S'best'
p1073
tp1074
a(I281
I14
F0.125
S'first'
p1075
tp1076
a(I305
I1
I0
S'such'
p1077
tp1078
a(I311
I4
I0
S'most'
p1079
tp1080
a(I375
I0
I0
S'old'
p1081
tp1082
a(I405
I0
F1.0
S'best'
p1083
tp1084
a(I447
I0
F1.0
S'best'
p1085
tp1086
a(I500
I0
F0.125
S'first'
p1087
tp1088
a(I517
I3
F0.125
S'last'
p1089
tp1090
a(I517
I3
F-0.5
S'long'
p1091
tp1092
a(I517
I3
F-0.625
S'other'
p1093
tp1094
as(S'got'
p1095
S'galaxy'
p1096
S's3'
p1097
tp1098
(lp1099
(I26
I0
F-0.375
g105
tp1100
a(I51
I0
I0
S'galaxy'
p1101
tp1102
a(I223
I3
F0.375
g979
tp1103
as(S'camera'
p1104
tp1105
(lp1106
(I80
I0
F-0.625
S'other'
p1107
tp1108
a(I105
I1
I0
S'great'
p1109
tp1110
a(I112
I2
I0
S'great'
p1111
tp1112
a(I248
I0
I0
S'great'
p1113
tp1114
a(I257
I0
I0
S'great'
p1115
tp1116
a(I266
I1
I0
S'great'
p1117
tp1118
as(S'for'
p1119
S'samsung'
p1120
S'galaxy'
p1121
tp1122
(lp1123
(I34
I0
F0.375
g107
tp1124
as(S'awesome'
p1125
tp1126
(lp1127
(I479
I14
F0.375
S'new'
p1128
tp1129
as(S'samsung'
p1130
S'galaxy'
p1131
tp1132
(lp1133
(I9
I3
F-0.625
g307
tp1134
a(I34
I0
F0.375
g107
tp1135
a(I169
I0
F0.25
g317
tp1136
a(I200
I2
F1.0
g329
tp1137
a(I201
I2
F0.375
g331
tp1138
a(I223
I2
I0
g335
tp1139
a(I334
I1
F0.875
g341
tp1140
a(I334
I1
F0.375
g343
tp1141
a(I419
I0
F1.0
g351
tp1142
as(S'better'
p1143
tp1144
(lp1145
(I59
I1
F0.375
S'much'
p1146
tp1147
a(I161
I0
F-0.25
S'white'
p1148
tp1149
a(I161
I0
F-0.375
S'black'
p1150
tp1151
as(S'language'
p1152
tp1153
(lp1154
(I3
I1
I0
S'asian'
p1155
tp1156
a(I9
I4
F-0.375
S'manual'
p1157
tp1158
a(I9
I4
F-0.625
S'other'
p1159
tp1160
a(I9
I4
I0
S'english'
p1161
tp1162
a(I9
I4
I0
S'chinese'
p1163
tp1164
a(I148
I0
I0
S'spanish'
p1165
tp1166
a(I195
I12
F0.5
S'second'
p1167
tp1168
a(I358
I3
F-0.625
S'other'
p1169
tp1170
a(I424
I6
F-0.625
S'other'
p1171
tp1172
a(I424
I6
I0
S'english'
p1173
tp1174
a(I424
I6
F-0.625
S'other'
p1175
tp1176
a(I447
I3
I0
S'english'
p1177
tp1178
as(S'thing'
p1179
tp1180
(lp1181
(I3
I1
F0.875
S'happy'
p1182
tp1183
a(I25
I0
I0
S'only'
p1184
tp1185
a(I25
I0
F-0.625
S'bad'
p1186
tp1187
a(I26
I0
F-0.625
S'bad'
p1188
tp1189
a(I48
I2
F-0.875
S'negative'
p1190
tp1191
a(I54
I4
F1.0
S'best'
p1192
tp1193
a(I82
I0
I0
S'next'
p1194
tp1195
a(I82
I0
I0
S'big'
p1196
tp1197
a(I86
I1
I0
S'only'
p1198
tp1199
a(I205
I2
F-0.625
S'bad'
p1200
tp1201
a(I252
I2
F0.125
S'last'
p1202
tp1203
a(I254
I2
F0.125
S'first'
p1204
tp1205
a(I254
I14
I0
S'only'
p1206
tp1207
a(I278
I1
I0
S'only'
p1208
tp1209
a(I351
I1
I0
S'only'
p1210
tp1211
a(I400
I2
F0.125
S'first'
p1212
tp1213
a(I400
I6
I0
S'next'
p1214
tp1215
a(I489
I2
I0
S'only'
p1216
tp1217
a(I489
I2
F-0.875
S'negative'
p1218
tp1219
as(S'sim'
p1220
S'card'
p1221
tp1222
(lp1223
(I26
I0
I0
S'ky'
p1224
tp1225
a(I181
I1
I0
S'different'
p1226
tp1227
a(I224
I1
F-0.375
S'small'
p1228
tp1229
a(I287
I2
I0
g969
tp1230
a(I298
I0
I0
S'old'
p1231
tp1232
a(I298
I2
I0
S'old'
p1233
tp1234
a(I298
I4
F0.375
S'new'
p1235
tp1236
a(I384
I4
F0.25
S'bigger'
p1237
tp1238
a(I413
I0
F-0.5
S'regular'
p1239
tp1240
a(I413
I0
I0
S'sized'
p1241
tp1242
a(I413
I0
F-0.375
S'modified'
p1243
tp1244
as(S'excellent'
p1245
tp1246
(lp1247
(I250
I3
F-0.125
S'blackberry'
p1248
tp1249
a(I434
I0
I0
S'fast'
p1250
tp1251
as(S'sudden'
p1252
S'death'
p1253
tp1254
(lp1255
(I235
I6
F-0.5
S'sudden'
p1256
tp1257
a(I339
I0
F-0.5
S'sudden'
p1258
tp1259
a(I390
I0
F-0.5
S'sudden'
p1260
tp1261
a(I477
I3
F-0.5
S'sudden'
p1262
tp1263
a(I477
I5
F-0.5
S'sure'
p1264
tp1265
a(I477
I5
F-0.5
S'sudden'
p1266
tp1267
a(I524
I2
F-0.5
S'sudden'
p1268
tp1269
as(S'however'
p1270
tp1271
(lp1272
(I333
I1
F0.375
S'new'
p1273
tp1274
as(S'device'
p1275
tp1276
(lp1277
(I12
I27
I0
S'electronic'
p1278
tp1279
a(I75
I4
F0.625
S'correct'
p1280
tp1281
a(I75
I7
I0
S'technician'
p1282
tp1283
a(I75
I7
F0.375
S'new'
p1284
tp1285
a(I230
I3
F0.75
S'give'
p1286
tp1287
a(I235
I9
I0
S'such'
p1288
tp1289
a(I235
I9
F0.5
S'expensive'
p1290
tp1291
a(I235
I13
I0
S'great'
p1292
tp1293
a(I241
I1
F-0.625
S'other'
p1294
tp1295
a(I241
I1
I0
S'cellular'
p1296
tp1297
a(I322
I0
I0
S'great'
p1298
tp1299
a(I494
I0
F-0.5
S'international'
p1300
tp1301
a(I494
I0
I0
S'european'
p1302
tp1303
as(S'love'
p1304
S'big'
p1305
S'screen'
p1306
tp1307
(lp1308
(I26
I0
I0
g137
tp1309
a(I162
I1
I0
g175
tp1310
a(I188
I0
I0
g179
tp1311
a(I427
I0
I0
g207
tp1312
as(S'costa'
p1313
S'rica'
p1314
tp1315
(lp1316
(I102
I3
F-0.75
S'impossible'
p1317
tp1318
as(S'warranty'
p1319
tp1320
(lp1321
(I170
I1
F1.0
S'good'
p1322
tp1323
a(I254
I11
F0.25
S'original'
p1324
tp1325
a(I254
I11
F-0.375
S'void'
p1326
tp1327
a(I351
I2
F0.125
S'valid'
p1328
tp1329
a(I390
I1
F-0.5
S'sure'
p1330
tp1331
a(I419
I6
F0.375
S'extended'
p1332
tp1333
as(S'data'
p1334
S'plan'
p1335
tp1336
(lp1337
(I111
I4
I0
S'more'
p1338
tp1339
a(I111
I4
I0
S'limited'
p1340
tp1341
a(I184
I1
F0.125
S'able'
p1342
tp1343
a(I184
I1
F0.5
S'compatible'
p1344
tp1345
a(I439
I0
F-0.5
S'unlimited'
p1346
tp1347
as(g787
S'screen'
p1348
S'protector'
p1349
tp1350
(lp1351
(I252
I0
F-0.125
g183
tp1352
as(S'price'
p1353
tp1354
(lp1355
(I101
I1
I0
S'great'
p1356
tp1357
a(I111
I7
I0
S'general'
p1358
tp1359
a(I139
I1
F1.0
S'good'
p1360
tp1361
a(I143
I1
I0
S'great'
p1362
tp1363
a(I166
I0
F1.0
S'good'
p1364
tp1365
a(I172
I1
I0
S'normal'
p1366
tp1367
a(I238
I0
I0
S'great'
p1368
tp1369
a(I276
I0
F0.25
S'original'
p1370
tp1371
a(I335
I0
I0
S'great'
p1372
tp1373
a(I407
I2
F1.0
S'best'
p1374
tp1375
a(I407
I2
F-0.25
S'low'
p1376
tp1377
a(I425
I5
F0.875
S'nice'
p1378
tp1379
a(I431
I1
F0.875
S'nice'
p1380
tp1381
a(I459
I6
F0.75
S'worth'
p1382
tp1383
as(S'nternational'
p1384
S'version'
p1385
S't'
p1386
tp1387
(lp1388
(I11
I0
F-0.5
g380
tp1389
a(I12
I11
F-0.5
g382
tp1390
a(I12
I16
F-0.25
g384
tp1391
a(I12
I16
F-0.5
g386
tp1392
a(I12
I19
F1.0
g388
tp1393
a(I12
I19
F-0.5
g390
tp1394
a(I39
I0
F-0.5
g392
tp1395
a(I54
I0
F-0.5
g394
tp1396
a(I54
I0
F-0.5
g396
tp1397
a(I54
I4
F-0.5
g398
tp1398
a(I67
I0
F-0.5
g400
tp1399
a(I100
I0
F-0.5
g402
tp1400
a(I109
I0
F-0.5
g404
tp1401
a(I117
I1
F-0.5
g406
tp1402
a(I130
I1
F-0.5
g408
tp1403
a(I132
I3
F-0.5
g410
tp1404
a(I140
I0
F-0.5
g412
tp1405
a(I140
I1
F-0.5
g414
tp1406
a(I146
I1
F-0.5
g416
tp1407
a(I163
I2
F-0.5
g418
tp1408
a(I163
I2
I0
g420
tp1409
a(I189
I0
F-0.5
g422
tp1410
a(I193
I0
F-0.5
g424
tp1411
a(I197
I0
F-0.5
g426
tp1412
a(I198
I1
F-0.5
g428
tp1413
a(I218
I0
F-0.5
g430
tp1414
a(I224
I0
F-0.5
g432
tp1415
a(I241
I2
F-0.5
g434
tp1416
a(I241
I2
F0.625
g436
tp1417
a(I241
I2
I0
g438
tp1418
a(I243
I0
F-0.5
g440
tp1419
a(I251
I1
F-0.5
g442
tp1420
a(I252
I0
F-0.5
g444
tp1421
a(I268
I0
F0.125
g446
tp1422
a(I268
I0
F-0.5
g448
tp1423
a(I275
I0
F-0.5
g450
tp1424
a(I280
I0
F-0.5
g452
tp1425
a(I281
I0
F-0.5
g454
tp1426
a(I296
I3
F-0.5
g456
tp1427
a(I298
I0
F-0.5
g458
tp1428
a(I314
I0
F-0.5
g460
tp1429
a(I345
I0
F-0.5
g462
tp1430
a(I346
I0
F-0.5
g464
tp1431
a(I358
I0
F0.125
g466
tp1432
a(I365
I0
F-0.5
g468
tp1433
a(I368
I1
F-0.5
g470
tp1434
a(I371
I1
F-0.5
g472
tp1435
a(I380
I3
F-0.5
g474
tp1436
a(I389
I4
F-0.5
g476
tp1437
a(I393
I1
F-0.5
g478
tp1438
a(I393
I6
F-0.5
g480
tp1439
a(I412
I1
F-0.5
g482
tp1440
a(I412
I3
F-0.5
g484
tp1441
a(I417
I1
F-0.5
g486
tp1442
a(I424
I7
F-0.5
g488
tp1443
a(I425
I0
F0.25
g490
tp1444
a(I425
I0
F-0.5
g492
tp1445
a(I425
I2
F-0.5
g494
tp1446
a(I459
I3
F-0.5
g496
tp1447
a(I484
I2
F-0.5
g498
tp1448
a(I498
I4
F-0.5
g500
tp1449
a(I506
I1
F-0.5
g502
tp1450
a(I513
I0
F-0.5
g504
tp1451
a(I523
I0
F-0.5
g506
tp1452
as(S'easy'
p1453
S'to'
p1454
S'use'
p1455
tp1456
(lp1457
(I15
I1
F0.5
S'personal'
p1458
tp1459
as(S'make'
p1460
tp1461
(lp1462
(I477
I5
F-0.125
S'cant'
p1463
tp1464
as(S'galaxy'
p1465
S's3'
p1466
tp1467
(lp1468
(I26
I0
F-0.375
g105
tp1469
a(I51
I0
I0
g1101
tp1470
a(I201
I2
F1.0
g976
tp1471
a(I223
I3
F0.375
g979
tp1472
a(I424
I7
F-0.5
S'sure'
p1473
tp1474
a(I479
I0
F-0.5
S'international'
p1475
tp1476
as(S'charger'
p1477
tp1478
(lp1479
(I51
I3
I0
S'mobile'
p1480
tp1481
a(I101
I0
I0
S'european'
p1482
tp1483
a(I132
I0
F0.5
S'compatible'
p1484
tp1485
a(I432
I1
I0
S'external'
p1486
tp1487
a(I453
I2
F1.0
S'good'
p1488
tp1489
a(I495
I12
I0
S'least'
p1490
tp1491
a(I499
I6
F0.25
S'main'
p1492
tp1493
as(S'love'
p1494
tp1495
(lp1496
(I333
I7
F1.0
S'love'
p1497
tp1498
a(I413
I0
I0
S'great'
p1499
tp1500
as(S'size'
p1501
tp1502
(lp1503
(I22
I0
F0.375
S'busy'
p1504
tp1505
a(I53
I2
F0.625
S'perfect'
p1506
tp1507
a(I55
I1
F0.25
S'bigger'
p1508
tp1509
a(I93
I1
F-0.25
S'thin'
p1510
tp1511
a(I311
I6
I0
S'great'
p1512
tp1513
a(I311
I6
F0.25
S'bigger'
p1514
tp1515
as(S'time'
p1516
tp1517
(lp1518
(I14
I5
F-0.625
S'wall'
p1519
tp1520
a(I33
I0
F0.125
S'first'
p1521
tp1522
a(I67
I0
F-0.5
S'long'
p1523
tp1524
a(I76
I0
F0.125
S'first'
p1525
tp1526
a(I76
I2
I0
S'user'
p1527
tp1528
a(I80
I2
F-0.5
S'long'
p1529
tp1530
a(I87
I0
F0.5
S'second'
p1531
tp1532
a(I110
I0
F0.125
S'first'
p1533
tp1534
a(I134
I3
F-0.5
S'long'
p1535
tp1536
a(I160
I2
F0.125
S'first'
p1537
tp1538
a(I203
I6
F1.0
S'best'
p1539
tp1540
a(I241
I0
F0.125
S'first'
p1541
tp1542
a(I254
I16
I0
S'angry'
p1543
tp1544
a(I384
I1
F-0.5
S'long'
p1545
tp1546
a(I420
I0
F0.125
S'first'
p1547
tp1548
a(I420
I0
I0
S'spanish'
p1549
tp1550
a(I424
I8
I0
S'high'
p1551
tp1552
a(I430
I11
I0
S'android'
p1553
tp1554
a(I430
I11
F-0.375
S'unstable'
p1555
tp1556
a(I463
I1
F0.125
S'first'
p1557
tp1558
a(I499
I14
I0
S'next'
p1559
tp1560
as(S'samsung'
p1561
S'galaxy'
p1562
S's'
p1563
tp1564
(lp1565
(I9
I3
F-0.625
g307
tp1566
a(I34
I0
F0.375
g107
tp1567
a(I169
I0
F0.25
g317
tp1568
a(I200
I2
F1.0
g329
tp1569
a(I201
I2
F0.375
g331
tp1570
a(I223
I2
I0
g335
tp1571
a(I334
I1
F0.875
g341
tp1572
a(I334
I1
F0.375
g343
tp1573
a(I419
I0
F1.0
g351
tp1574
as(S'work'
p1575
tp1576
(lp1577
(I195
I10
F-0.25
S'inexpensive'
p1578
tp1579
as(S'product'
p1580
tp1581
(lp1582
(I10
I3
F-0.5
S'actual'
p1583
tp1584
a(I51
I2
F0.125
S'able'
p1585
tp1586
a(I57
I1
F0.875
S'nice'
p1587
tp1588
a(I57
I1
I0
S'packaged'
p1589
tp1590
a(I62
I4
F-0.75
S'wrong'
p1591
tp1592
a(I63
I0
F1.0
S'good'
p1593
tp1594
a(I69
I0
F1.0
S'good'
p1595
tp1596
a(I85
I2
I0
S'exact'
p1597
tp1598
a(I204
I1
I0
S'incredible'
p1599
tp1600
a(I220
I1
F0.5
S'satisfied'
p1601
tp1602
a(I221
I2
F0.25
S'original'
p1603
tp1604
a(I230
I4
F-0.75
S'wrong'
p1605
tp1606
a(I230
I6
F-0.75
S'wrong'
p1607
tp1608
a(I230
I6
F-0.5
S'open'
p1609
tp1610
a(I231
I2
I0
S'great'
p1611
tp1612
a(I237
I0
I0
S'great'
p1613
tp1614
a(I237
I0
I0
S'great'
p1615
tp1616
a(I237
I0
I0
S'great'
p1617
tp1618
a(I317
I0
F1.0
S'good'
p1619
tp1620
a(I409
I0
F1.0
S'best'
p1621
tp1622
a(I425
I4
I0
S'great'
p1623
tp1624
a(I436
I0
F0.5
S'stronger'
p1625
tp1626
a(I469
I4
F-0.75
S'unreliable'
p1627
tp1628
a(I478
I1
F0.125
S'solid'
p1629
tp1630
a(I493
I0
F1.0
S'good'
p1631
tp1632
a(I503
I0
F1.0
S'good'
p1633
tp1634
as(S'apps'
p1635
tp1636
(lp1637
(I28
I1
F-0.625
S'other'
p1638
tp1639
a(I43
I2
F0.875
S'nice'
p1640
tp1641
a(I43
I2
F1.0
S'good'
p1642
tp1643
a(I61
I1
F-0.625
S'free'
p1644
tp1645
a(I90
I2
I0
S'many'
p1646
tp1647
a(I105
I1
I0
S'great'
p1648
tp1649
a(I151
I2
I0
S'android'
p1650
tp1651
a(I195
I14
I0
S'bible'
p1652
tp1653
a(I195
I16
I0
S'android'
p1654
tp1655
a(I203
I4
F1.0
S'best'
p1656
tp1657
a(I316
I9
F-0.625
S'free'
p1658
tp1659
a(I487
I0
F1.0
S'good'
p1660
tp1661
a(I487
I0
I0
S'user'
p1662
tp1663
as(S'let'
p1664
S'me'
p1665
S'tell'
p1666
tp1667
(lp1668
(I421
I3
F-0.25
S'let'
p1669
tp1670
as(S'fast'
p1671
tp1672
(lp1673
(I81
I0
F-0.125
S'super'
p1674
tp1675
a(I113
I17
F-0.625
S'unreal'
p1676
tp1677
a(I165
I1
I0
S'very'
p1678
tp1679
as(S'samsung'
p1680
S'galaxy'
p1681
S'siii'
p1682
tp1683
(lp1684
(I182
I4
F0.25
S'original'
p1685
tp1686
as(S'service'
p1687
tp1688
(lp1689
(I30
I1
F-0.875
S'awful'
p1690
tp1691
a(I133
I0
F1.0
S'good'
p1692
tp1693
a(I311
I8
F1.0
S'best'
p1694
tp1695
a(I333
I9
I0
S'great'
p1696
tp1697
a(I360
I1
I0
S'internet'
p1698
tp1699
a(I424
I7
F-0.625
S'bad'
p1700
tp1701
a(I447
I3
F1.0
S'good'
p1702
tp1703
a(I474
I5
I0
S'generic'
p1704
tp1705
a(I498
I7
F0.875
S'happy'
p1706
tp1707
as.