(dp0
(S'el'
p1
S'tiempo'
p2
tp3
(lp4
(I6
I0
I0
S'al'
p5
tp6
as(S'blackberry'
p7
tp8
(lp9
(I1
I2
I0
S'android'
p10
tp11
a(I1
I2
F0.5
S'touch'
p12
tp13
a(I1
I2
F0.875
S'nice'
p14
tp15
a(I91
I0
F1.0
S'better'
p16
tp17
as(S'con'
p18
S'la'
p19
tp20
(lp21
(I101
I0
F0.25
S'original'
p22
tp23
as(S'purchase'
p24
tp25
(lp26
(I33
I1
F1.0
S'better'
p27
tp28
a(I73
I0
F0.875
S'happy'
p29
tp30
as(S'quality'
p31
tp32
(lp33
(I3
I0
F-0.25
S'low'
p34
tp35
a(I34
I2
F1.0
S'good'
p36
tp37
a(I54
I1
I0
S'high'
p38
tp39
a(I100
I1
I0
S'great'
p40
tp41
a(I115
I4
F1.0
S'good'
p42
tp43
as(S'time'
p44
tp45
(lp46
(I1
I7
I0
S'same'
p47
tp48
a(I33
I0
I0
S'same'
p49
tp50
a(I77
I3
I0
S'cellular'
p51
tp52
a(I93
I4
F1.0
S'good'
p53
tp54
a(I111
I3
F0.125
S'first'
p55
tp56
as(S'tiempo'
p57
tp58
(lp59
(I6
I0
I0
g5
tp60
as(S'battery'
p61
tp62
(lp63
(I1
I3
F1.0
S'best'
p64
tp65
a(I110
I4
F-0.625
S'free'
p66
tp67
a(I149
I2
F-0.5
S'actual'
p68
tp69
a(I149
I4
F0.5
S'told'
p70
tp71
as(S'gracias'
p72
tp73
(lp74
(I140
I0
I0
S'al'
p75
tp76
as(S'movistar'
p77
tp78
(lp79
(I8
I0
I0
S'great'
p80
tp81
as(S'only'
p82
S'thing'
p83
tp84
(lp85
(I33
I0
I0
S'only'
p86
tp87
a(I113
I1
I0
S'only'
p88
tp89
as(S'screen'
p90
tp91
(lp92
(I1
I7
F-0.375
S'smaller'
p93
tp94
a(I48
I3
F0.5
S'clear'
p95
tp96
a(I111
I0
I0
S'plastic'
p97
tp98
as(S'el'
p99
S'vendedor'
p100
tp101
(lp102
(I138
I2
I0
S'al'
p103
tp104
as(S'product'
p105
tp106
(lp107
(I49
I0
F1.0
S'good'
p108
tp109
a(I110
I9
F1.0
S'good'
p110
tp111
as(S'vendedor'
p112
tp113
(lp114
(I138
I2
I0
g103
tp115
as(S'con'
p116
S'todos'
p117
tp118
(lp119
(I101
I0
F0.25
g22
tp120
as(S'con'
p121
S'el'
p122
tp123
(lp124
(I101
I0
F0.25
g22
tp125
as.