(dp0
(S'camera'
p1
tp2
(lp3
(I2
I13
F0.25
S'main'
p4
I1
tp5
a(I2
I13
F1.0
S'good'
p6
I1
tp7
a(I4
I21
I0
S'fast'
p8
I1
tp9
a(I4
I21
F1.0
S'best'
p10
I1
tp11
a(I4
I24
I0
S'many'
p12
I1
tp13
as(S'battery'
p14
S'life'
p15
tp16
(lp17
(I0
I2
I0
S'unbelievable'
p18
I1
tp19
a(I5
I20
I0
S'full'
p20
I15
tp21
as(S'sim'
p22
S'card'
p23
tp24
(lp25
(I3
I29
F-0.375
S'smaller'
p26
I0
tp27
a(I4
I20
I0
S'prepaid'
p28
I0
tp29
as.