(dp0
(S'battery'
p1
S'life'
p2
tp3
(lp4
(I3
I6
I0
S'great'
p5
I1
tp6
a(I13
I41
F1.0
S'good'
p7
I1
tp8
a(I16
I10
F-0.25
S'low'
p9
I1
tp10
a(I16
I148
F0.25
S'bigger'
p11
I1
tp12
a(I16
I148
F1.0
S'good'
p13
I1
tp14
a(I21
I6
F1.0
S'better'
p15
I1
tp16
a(I3
I6
I0
g5
I19
tp17
a(I13
I41
F1.0
g7
I19
tp18
a(I21
I6
F1.0
g15
I19
tp19
a(I10
I12
F-0.625
S'bad'
p20
I15
tp21
a(I10
I67
F0.625
S'acceptable'
p22
I15
tp23
a(I15
I19
F-0.375
S'small'
p24
I15
tp25
a(I16
I10
F-0.25
g9
I15
tp26
a(I16
I83
I0
S'great'
p27
I15
tp28
a(I16
I147
I0
S'most'
p29
I15
tp30
a(I16
I148
F0.25
g11
I15
tp31
a(I16
I148
F1.0
g13
I15
tp32
a(I16
I153
F0.25
S'larger'
p33
I15
tp34
a(I16
I189
F-0.75
S'little'
p35
I15
tp36
a(I16
I189
F-0.5
S'actual'
p37
I15
tp38
a(I16
I190
F0.625
S'changeable'
p39
I15
tp40
a(I16
I192
F0.625
S'changeable'
p41
I15
tp42
a(I16
I195
F0.375
S'meant'
p43
I15
tp44
as(S'lock'
p45
S'screen'
p46
S'and'
p47
tp48
(lp49
(I10
I28
F0.125
S'usual'
p50
I0
tp51
a(I16
I62
F-0.625
S'other'
p52
I0
tp53
a(I16
I77
F-0.5
S'open'
p54
I0
tp55
a(I10
I28
F0.125
g50
I0
tp56
a(I16
I59
F-0.75
S'worse'
p57
I0
tp58
a(I16
I62
F-0.625
g52
I0
tp59
a(I16
I77
F-0.5
g54
I0
tp60
as(S'settings'
p61
tp62
(lp63
(I13
I28
F-0.75
S'wrong'
p64
I1
tp65
as(S'slide'
p66
tp67
(lp68
(I16
I65
F0.875
S'nice'
p69
I6
tp70
as(S'camera'
p71
tp72
(lp73
(I6
I9
F1.0
S'good'
p74
I1
tp75
a(I8
I27
F-0.75
S'secondary'
p76
I1
tp77
a(I10
I1
F1.0
S'good'
p78
I1
tp79
a(I10
I17
F0.125
S'digital'
p80
I1
tp81
a(I10
I80
F0.25
S'powerful'
p82
I1
tp83
a(I11
I6
F1.0
S'good'
p84
I1
tp85
a(I13
I10
F1.0
S'good'
p86
I1
tp87
a(I13
I28
F0.125
S'first'
p88
I1
tp89
a(I13
I28
F1.0
S'good'
p90
I1
tp91
a(I13
I72
I0
S'great'
p92
I1
tp93
a(I15
I26
F1.0
S'good'
p94
I1
tp95
as(S'sony'
p96
tp97
(lp98
(I3
I10
F0.125
S'able'
p99
I5
tp100
a(I8
I21
F0.625
S'easy'
p101
I5
tp102
a(I8
I25
F0.875
S'music'
p103
I5
tp104
a(I13
I0
F0.125
S'usual'
p105
I5
tp106
a(I16
I3
I0
S'android'
p107
I5
tp108
a(I16
I80
F-0.5
S'sudden'
p109
I5
tp110
a(I16
I107
I0
S'useful'
p111
I5
tp112
a(I16
I167
F0.875
S'nice'
p113
I5
tp114
a(I16
I195
F0.375
S'meant'
p115
I5
tp116
a(I16
I211
I0
S'least'
p117
I5
tp118
a(I16
I225
F-0.75
S'single'
p119
I5
tp120
a(I21
I13
F0.25
S'unlocked'
p121
I5
tp122
as(S'iphone'
p123
tp124
(lp125
(I13
I30
F0.125
S'able'
p126
I1
tp127
a(I16
I94
F0.875
S'important'
p128
I1
tp129
a(I16
I94
I0
S'most'
p130
I1
tp131
a(I16
I192
I0
S'identical'
p132
I1
tp133
a(I16
I196
F0.5
S'possible'
p134
I1
tp135
as(S'memory'
p136
tp137
(lp138
(I15
I26
F0.75
S'due'
p139
I5
tp140
a(I16
I204
F1.0
S'good'
p141
I5
tp142
a(I16
I204
I0
S'internal'
p143
I5
tp144
as(S'dual'
p145
S'core'
p146
tp147
(lp148
(I0
I18
F-0.75
S'single'
p149
I0
tp150
a(I21
I31
F0.625
S'perfect'
p151
I0
tp152
as(S'music'
p153
S'player'
p154
tp155
(lp156
(I13
I18
I0
S'great'
p157
I0
tp158
a(I16
I58
F0.875
S'music'
p159
I0
tp160
a(I16
I113
F0.875
S'nice'
p161
I0
tp162
a(I13
I18
I0
g157
I0
tp163
a(I16
I113
F0.875
g161
I0
tp164
a(I16
I165
I0
S'few'
p165
I0
tp166
as(S'email'
p167
tp168
(lp169
(I16
I118
F0.125
S'subject'
p170
I5
tp171
as(S'android'
p172
tp173
(lp174
(I3
I11
F0.375
S'new'
p175
I0
tp176
a(I3
I11
F0.5
S'whole'
p177
I0
tp178
a(I4
I0
F0.375
S'newer'
p179
I0
tp180
a(I16
I6
F0.375
S'new'
p181
I0
tp182
a(I16
I91
F0.125
S'first'
p183
I0
tp184
a(I16
I148
F-0.625
S'other'
p185
I0
tp186
a(I16
I179
F0.375
S'newer'
p187
I0
tp188
a(I16
I220
I0
S'latest'
p189
I0
tp190
a(I16
I225
I0
S'latest'
p191
I0
tp192
as(S'upgrade'
p193
tp194
(lp195
(I16
I89
F0.875
S'happy'
p196
I3
tp197
as(S'smart'
p198
tp199
(lp200
(I10
I85
F1.0
S'best'
p201
I10
tp202
a(I21
I0
F0.125
S'first'
p203
I10
tp204
as(S'sola'
p205
tp206
(lp207
(I10
I9
F1.0
S'better'
p208
I1
tp209
a(I21
I10
F1.0
S'best'
p210
I1
tp211
a(I21
I21
I0
S'own'
p212
I1
tp213
as(S'stock'
p214
tp215
(lp216
(I21
I36
F0.625
S'perfect'
p217
I6
tp218
a(I21
I37
F-0.625
S'clean'
p219
I6
tp220
as(S'chrome'
p221
tp222
(lp223
(I16
I14
F-0.125
S'slow'
p224
I0
tp225
a(I16
I52
F-0.125
S'slow'
p226
I0
tp227
a(I16
I68
F-0.125
S'slow'
p228
I0
tp229
a(I16
I68
F0.125
S'able'
p230
I0
tp231
a(I16
I82
I0
S'great'
p232
I0
tp233
as(S'xperia'
p234
tp235
(lp236
(I5
I4
I0
S'different'
p237
I0
tp238
a(I21
I21
F0.25
S'read'
p239
I0
tp240
a(I22
I5
F1.0
S'good'
p241
I0
tp242
as(S'wifi'
p243
tp244
(lp245
(I16
I19
F-0.5
S'lose'
p246
I0
tp247
a(I16
I42
F0.375
S'new'
p248
I0
tp249
a(I16
I109
F0.625
S'easy'
p250
I0
tp251
as(S'apps'
p252
tp253
(lp254
(I3
I7
F0.125
S'popular'
p255
I0
tp256
a(I10
I9
I0
S'most'
p257
I0
tp258
a(I10
I31
I0
S'latest'
p259
I0
tp260
a(I10
I33
I0
S'latest'
p261
I0
tp262
a(I10
I52
I0
S'great'
p263
I0
tp264
a(I13
I16
I0
S'close'
p265
I0
tp266
a(I14
I2
I0
S'few'
p267
I0
tp268
a(I15
I25
I0
S'standard'
p269
I0
tp270
a(I16
I16
F-0.625
S'other'
p271
I0
tp272
a(I16
I16
F-0.375
S'black'
p273
I0
tp274
a(I16
I17
F-0.5
S'certain'
p275
I0
tp276
a(I16
I151
I0
S'most'
p277
I0
tp278
a(I16
I165
I0
S'few'
p279
I0
tp280
a(I16
I171
F0.875
S'nice'
p281
I0
tp282
a(I16
I171
F-0.625
S'free'
p283
I0
tp284
a(I16
I179
F-0.25
S'lower'
p285
I0
tp286
a(I20
I11
I0
S'useful'
p287
I0
tp288
a(I22
I12
F-0.5
S'certain'
p289
I0
tp290
as.