(dp0
(S'android'
p1
tp2
(lp3
(I7
I1
F-0.5
S'poor'
p4
I0
tp5
a(I13
I1
F0.125
S'last'
p6
I0
tp7
a(I19
I23
F0.25
S'recent'
p8
I0
tp9
a(I27
I24
F0.875
S'nice'
p10
I0
tp11
a(I27
I30
F1.0
S'best'
p12
I0
tp13
as(S'quad'
p14
S'core'
p15
tp16
(lp17
(I16
I28
I0
S'quad'
p18
I0
tp19
a(I21
I0
I0
S'quick'
p20
I0
tp21
a(I11
I26
I0
S'fifth'
p22
I3
tp23
a(I11
I26
I0
S'active'
p24
I3
tp25
a(I16
I28
I0
g18
I3
tp26
as(S'battery'
p27
S'life'
p28
tp29
(lp30
(I1
I5
F-0.625
S'remove'
p31
I1
tp32
a(I6
I2
F1.0
S'good'
p33
I1
tp34
a(I11
I36
I0
S'unbelievable'
p35
I1
tp36
a(I12
I3
F-0.5
S'poor'
p37
I1
tp38
a(I18
I5
F1.0
S'good'
p39
I1
tp40
a(I24
I10
F-0.5
S'poor'
p41
I1
tp42
a(I27
I32
F1.0
S'good'
p43
I1
tp44
a(I6
I2
F1.0
g33
I19
tp45
a(I12
I3
F-0.5
g37
I19
tp46
a(I24
I10
F-0.5
g41
I19
tp47
a(I1
I5
F-0.625
g31
I15
tp48
a(I11
I36
I0
g35
I15
tp49
a(I12
I13
I0
S'quick'
p50
I15
tp51
a(I12
I23
I0
S'user'
p52
I15
tp53
a(I16
I29
F0.625
S'removable'
p54
I15
tp55
a(I17
I14
I0
S'quick'
p56
I15
tp57
a(I18
I5
F1.0
g39
I15
tp58
a(I27
I32
F1.0
g43
I15
tp59
a(I29
I10
F0.125
S'last'
p60
I15
tp61
as(S'samsung'
p62
S'galaxy'
p63
S's3'
p64
tp65
(lp66
(I12
I0
F1.0
S'better'
p67
I0
tp68
a(I21
I28
F0.25
S'responsive'
p69
I0
tp70
a(I12
I0
F1.0
g67
I0
tp71
a(I21
I28
F0.25
g69
I0
tp72
a(I15
I3
F0.5
S'comparable'
p73
I0
tp74
a(I12
I0
F1.0
g67
I7
tp75
a(I21
I28
F0.25
g69
I7
tp76
a(I15
I3
F0.5
g73
I0
tp77
as(S'sim'
p78
S'card'
p79
tp80
(lp81
(I16
I7
I0
S'great'
p82
I0
tp83
as(S'smartphone'
p84
tp85
(lp86
(I11
I19
F0.375
S'much'
p87
I0
tp88
a(I13
I10
F1.0
S'best'
p89
I0
tp90
a(I14
I16
F0.875
S'happy'
p91
I0
tp92
a(I15
I3
I0
S'great'
p93
I0
tp94
a(I27
I12
I0
S'incredible'
p95
I0
tp96
a(I27
I12
F-0.375
S'smooth'
p97
I0
tp98
a(I27
I22
F0.125
S'first'
p99
I0
tp100
as(S'optimus'
p101
S'4x'
p102
S'hd'
p103
tp104
(lp105
(I14
I13
I0
S'close'
p106
I0
tp107
a(I14
I13
I0
g106
I0
tp108
as(S'wifi'
p109
tp110
(lp111
(I16
I19
F0.5
S'possible'
p112
I0
tp113
a(I16
I19
F-0.5
S'weak'
p114
I0
tp115
a(I16
I21
F0.5
S'stronger'
p116
I0
tp117
a(I16
I21
I0
S'signal'
p118
I0
tp119
a(I16
I22
F0.5
S'strong'
p120
I0
tp121
as(S'spanish'
p122
S'language'
p123
tp124
(lp125
(I5
I1
I0
S'spanish'
p126
I0
tp127
a(I6
I2
F0.375
S'available'
p128
I0
tp129
a(I17
I16
I0
S'spanish'
p130
I0
tp131
a(I18
I13
I0
S'spanish'
p132
I0
tp133
a(I5
I1
I0
g126
I3
tp134
a(I17
I16
I0
g130
I3
tp135
a(I18
I13
I0
g132
I3
tp136
a(I28
I21
I0
S'korean'
p137
I3
tp138
a(I28
I23
I0
S'korean'
p139
I3
tp140
as(S'camera'
p141
tp142
(lp143
(I1
I5
F-0.625
S'bad'
p144
I1
tp145
a(I14
I29
F1.0
S'good'
p146
I1
tp147
a(I16
I3
F1.0
S'good'
p148
I1
tp149
a(I16
I3
F0.5
S'second'
p150
I1
tp151
a(I17
I0
F1.0
S'good'
p152
I1
tp153
a(I17
I9
F1.0
S'good'
p154
I1
tp155
a(I19
I8
F1.0
S'good'
p156
I1
tp157
as(S'speaker'
p158
tp159
(lp160
(I3
I9
F0.625
S'fair'
p161
I8
tp162
a(I3
I9
F0.375
S'loudest'
p163
I8
tp164
a(I11
I31
F-0.25
S'low'
p165
I8
tp166
a(I21
I43
F0.75
S'beautiful'
p167
I8
tp168
as.