(dp0
(S'sims'
p1
tp2
(lp3
(I11
I6
I0
S'great'
p4
I0
tp5
a(I11
I7
F0.625
S'easy'
p6
I0
tp7
a(I23
I5
F0.375
S'new'
p8
I0
tp9
a(I23
I9
F0.25
S'original'
p10
I0
tp11
a(I23
I15
F-0.75
S'unable'
p12
I0
tp13
as(S'battery'
p14
S'life'
p15
tp16
(lp17
(I1
I19
F1.0
S'good'
p18
I1
tp19
a(I1
I19
F1.0
S'good'
p20
I1
tp21
a(I11
I3
I0
S'adequate'
p22
I1
tp23
a(I1
I19
F1.0
g18
I15
tp24
a(I1
I19
F1.0
g20
I15
tp25
as(S'memory'
p26
tp27
(lp28
(I10
I15
I0
S'valuable'
p29
I5
tp30
a(I13
I40
F-0.125
S'slow'
p31
I5
tp32
as(S'smart'
p33
tp34
(lp35
(I5
I21
F0.125
S'first'
p36
I10
tp37
a(I9
I10
I0
S'real'
p38
I10
tp39
a(I10
I0
I0
S'great'
p40
I10
tp41
a(I10
I0
F-0.75
S'little'
p42
I10
tp43
a(I10
I1
F0.375
S'newer'
p44
I10
tp45
as(S'samsung'
p46
tp47
(lp48
(I0
I6
F0.125
S'able'
p49
I7
tp50
a(I13
I39
F0.25
S'original'
p51
I7
tp52
as(S'dual'
p53
S'sim'
p54
S'card'
p55
tp56
(lp57
(I23
I9
F0.125
S'able'
p58
I0
tp59
a(I23
I9
F0.375
S'new'
p60
I0
tp61
a(I20
I3
I0
S'useful'
p62
I0
tp63
a(I21
I6
F0.375
S'available'
p64
I0
tp65
a(I23
I9
F0.125
g58
I0
tp66
a(I23
I9
F0.375
g60
I0
tp67
a(I10
I2
F-0.75
S'single'
p68
I0
tp69
a(I10
I7
F-0.25
S'white'
p70
I0
tp71
as.