(dp0
(S'screen'
p1
S'size'
p2
tp3
(lp4
(I99
I1
F0.875
S'nice'
p5
tp6
a(I114
I3
F0.25
S'larger'
p7
tp8
a(I162
I0
F0.25
S'bigger'
p9
tp10
a(I183
I5
F0.75
S'due'
p11
tp12
a(I247
I4
F0.625
S'perfect'
p13
tp14
a(I283
I8
F-0.625
S'bad'
p15
tp16
a(I294
I4
F-0.625
S'light'
p17
tp18
a(I316
I2
I0
S'great'
p19
tp20
a(I338
I11
F-0.375
S'smaller'
p21
tp22
a(I374
I9
F0.25
S'larger'
p23
tp24
as(S'perfect'
p25
tp26
(lp27
(I121
I2
F0.75
S'beautiful'
p28
tp29
as(S'comes'
p30
tp31
(lp32
(I356
I7
F-0.375
S'smaller'
p33
tp34
a(I356
I7
I0
S'many'
p35
tp36
as(S'nice'
p37
tp38
(lp39
(I29
I0
F0.625
S'easy'
p40
tp41
a(I136
I6
F-0.75
S'comfortable'
p42
tp43
a(I392
I0
I0
S'big'
p44
tp45
as(S'quad'
p46
S'core'
p47
tp48
(lp49
(I225
I5
F-0.5
S'international'
p50
tp51
a(I328
I5
F0.875
S'nice'
p52
tp53
as(S'to'
p54
S'galaxy'
p55
S's3'
p56
tp57
(lp58
(I20
I0
F-0.25
S'white'
p59
tp60
a(I20
I0
I0
S'great'
p61
tp62
a(I27
I0
F0.375
S'new'
p63
tp64
a(I27
I0
F0.25
S'unlocked'
p65
tp66
a(I27
I0
I0
S'few'
p67
tp68
a(I72
I0
I0
S'android'
p69
tp70
a(I100
I1
F-0.625
S'other'
p71
tp72
a(I100
I13
F-0.125
S'complex'
p73
tp74
a(I100
I27
I0
S'great'
p75
tp76
a(I109
I2
F-0.625
S'other'
p77
tp78
a(I158
I3
F0.5
S'compatible'
p79
tp80
a(I158
I3
I0
S'curious'
p81
tp82
a(I158
I3
F0.375
S'new'
p83
tp84
a(I190
I0
F0.125
S'last'
p85
tp86
a(I219
I55
F1.0
S'better'
p87
tp88
a(I378
I2
F-0.375
S'black'
p89
tp90
a(I378
I2
F-0.25
S'white'
p91
tp92
a(I378
I2
F0.875
S'nice'
p93
tp94
a(I407
I2
F0.5
S'expensive'
p95
tp96
as(S'version'
p97
tp98
(lp99
(I8
I0
F-0.5
S'international'
p100
tp101
a(I16
I0
F-0.5
S'international'
p102
tp103
a(I44
I3
F-0.5
S'international'
p104
tp105
a(I69
I0
I0
S'same'
p106
tp107
a(I69
I0
F-0.5
S'international'
p108
tp109
a(I83
I1
F-0.5
S'international'
p110
tp111
a(I84
I0
F-0.5
S'international'
p112
tp113
a(I117
I0
F-0.5
S'international'
p114
tp115
a(I129
I17
F-0.25
S'white'
p116
tp117
a(I186
I0
I0
S'exact'
p118
tp119
a(I191
I0
I0
S'european'
p120
tp121
a(I215
I1
F-0.5
S'international'
p122
tp123
a(I233
I0
F-0.5
S'international'
p124
tp125
a(I233
I0
I0
S'european'
p126
tp127
a(I233
I0
F-0.5
S'international'
p128
tp129
a(I236
I1
I0
S'english'
p130
tp131
a(I264
I0
F-0.5
S'international'
p132
tp133
a(I287
I4
F-0.5
S'international'
p134
tp135
a(I298
I0
F-0.5
S'international'
p136
tp137
a(I298
I34
I0
S'updated'
p138
tp139
a(I306
I1
F-0.5
S'international'
p140
tp141
a(I309
I1
F-0.5
S'international'
p142
tp143
a(I379
I0
I0
S'european'
p144
tp145
as(S'operating'
p146
S'system'
p147
tp148
(lp149
(I18
I15
F0.375
S'new'
p150
tp151
a(I114
I2
I0
S'mobile'
p152
tp153
a(I114
I8
I0
S'android'
p154
tp155
a(I114
I12
I0
S'android'
p156
tp157
a(I315
I1
F-0.375
S'smooth'
p158
tp159
a(I315
I1
F0.875
S'nice'
p160
tp161
a(I374
I10
I0
S'update'
p162
tp163
a(I374
I10
F-0.125
S'bean'
p164
tp165
as(S'quality'
p166
tp167
(lp168
(I18
I2
F0.5
S'clear'
p169
tp170
a(I18
I30
F0.75
S'sound'
p171
tp172
a(I56
I16
I0
S'physical'
p173
tp174
a(I57
I52
I0
S'vocal'
p175
tp176
a(I57
I52
F0.5
S'clear'
p177
tp178
a(I74
I7
F-0.5
S'poor'
p179
tp180
a(I100
I20
F-0.125
S'super'
p181
tp182
a(I100
I20
F-0.25
S'thin'
p183
tp184
a(I100
I22
F1.0
S'good'
p185
tp186
a(I114
I29
F-0.875
S'inferior'
p187
tp188
a(I114
I38
F0.625
S'superior'
p189
tp190
a(I122
I6
I0
S'great'
p191
tp192
a(I171
I1
I0
S'same'
p193
tp194
a(I219
I19
I0
S'high'
p195
tp196
a(I219
I21
I0
S'plastic'
p197
tp198
a(I219
I21
I0
S'high'
p199
tp200
a(I258
I0
I0
S'high'
p201
tp202
a(I286
I8
F-0.5
S'poor'
p203
tp204
a(I352
I0
I0
S'high'
p205
tp206
a(I392
I2
F1.0
S'better'
p207
tp208
a(I409
I23
I0
S'expect'
p209
tp210
a(I409
I23
F0.375
S'similar'
p211
tp212
a(I409
I26
F-0.25
S'higher'
p213
tp214
as(S'pebble'
p215
S'blue'
p216
tp217
(lp218
(I108
I5
I0
S'pebble'
p219
tp220
a(I219
I13
I0
S'pebble'
p221
tp222
as(S'features'
p223
tp224
(lp225
(I20
I1
I0
S'more'
p226
tp227
a(I36
I0
F0.875
S'nice'
p228
tp229
a(I37
I0
I0
S'same'
p230
tp231
a(I37
I0
F-0.5
S'less'
p232
tp233
a(I37
I0
F0.5
S'expensive'
p234
tp235
a(I43
I3
I0
S'more'
p236
tp237
a(I45
I8
I0
S'many'
p238
tp239
a(I45
I10
I0
S'such'
p240
tp241
a(I57
I9
F0.375
S'extra'
p242
tp243
a(I57
I9
F1.0
S'good'
p244
tp245
a(I57
I25
I0
S'same'
p246
tp247
a(I81
I2
F-0.5
S'open'
p248
tp249
a(I100
I23
F-0.375
S'thing'
p250
tp251
a(I100
I23
I0
S'many'
p252
tp253
a(I113
I0
I0
S'real'
p254
tp255
a(I114
I26
I0
S'android'
p256
tp257
a(I114
I26
F-0.875
S'trouble'
p258
tp259
a(I114
I26
I0
S'even'
p260
tp261
a(I114
I26
F-0.375
S'simplest'
p262
tp263
a(I152
I0
F0.5
S'clear'
p264
tp265
a(I159
I24
I0
S'many'
p266
tp267
a(I159
I24
F0.375
S'new'
p268
tp269
a(I219
I27
I0
S'great'
p270
tp271
a(I219
I54
F-0.125
S'present'
p272
tp273
a(I234
I0
I0
S'most'
p274
tp275
a(I234
I2
I0
S'special'
p276
tp277
a(I293
I6
F-0.125
S'super'
p278
tp279
a(I336
I0
I0
S'human'
p280
tp281
a(I347
I1
I0
S'many'
p282
tp283
a(I356
I1
F-0.625
S'other'
p284
tp285
a(I356
I1
I0
S'such'
p286
tp287
a(I356
I1
F0.375
S'available'
p288
tp289
a(I408
I0
I0
S'fast'
p290
tp291
a(I411
I4
F-0.125
S'overall'
p292
tp293
a(I411
I4
F0.875
S'nice'
p294
tp295
as(S'samsung'
p296
S'galaxy'
p297
S's'
p298
tp299
(lp300
(I29
I0
F0.125
S'last'
p301
tp302
a(I73
I11
F0.625
S'easy'
p303
tp304
a(I108
I6
F-0.25
S'white'
p305
tp306
a(I109
I10
F0.25
S'bigger'
p307
tp308
a(I160
I0
I0
S'latest'
p309
tp310
a(I219
I39
F-0.375
S'black'
p311
tp312
a(I308
I0
F0.5
S'second'
p313
tp314
a(I341
I0
F0.5
S'told'
p315
tp316
as(S'case'
p317
tp318
(lp319
(I36
I0
F-0.5
S'less'
p320
tp321
a(I122
I13
I0
S'more'
p322
tp323
a(I202
I4
F0.5
S'strong'
p324
tp325
a(I231
I4
F-0.5
S'sure'
p326
tp327
a(I298
I10
F0.125
S'protective'
p328
tp329
a(I298
I49
I0
S'slippery'
p330
tp331
a(I298
I54
F0.125
S'protective'
p332
tp333
as(S'ice'
p334
S'cream'
p335
tp336
(lp337
(I219
I40
I0
S'android'
p338
tp339
a(I322
I1
I0
S'latest'
p340
tp341
a(I380
I2
F0.375
S'new'
p342
tp343
as(S'razr'
p344
S'maxx'
p345
tp346
(lp347
(I117
I15
I0
S'slim'
p348
tp349
a(I117
I15
I0
S'sturdy'
p350
tp351
a(I117
I15
F0.125
S'solid'
p352
tp353
as(S'store'
p354
tp355
(lp356
(I144
I3
I0
S'local'
p357
tp358
a(I210
I0
F1.0
S'good'
p359
tp360
as(S'turn'
p361
tp362
(lp363
(I237
I8
F-0.75
S'wrong'
p364
tp365
as(S'sim'
p366
S'card'
p367
tp368
(lp369
(I105
I1
F0.125
S'first'
p370
tp371
a(I129
I10
I0
S'big'
p372
tp373
a(I135
I12
F0.375
S'new'
p374
tp375
a(I184
I1
F0.375
S'new'
p376
tp377
a(I221
I2
F-0.5
S'regular'
p378
tp379
a(I356
I7
F0.5
S'compatible'
p380
tp381
a(I356
I7
I0
S'old'
p382
tp383
a(I372
I2
I0
S'old'
p384
tp385
a(I376
I18
I0
S'different'
p386
tp387
as(S'charge'
p388
tp389
(lp390
(I183
I9
F-0.75
S'single'
p391
tp392
a(I219
I12
F-0.75
S'single'
p393
tp394
a(I219
I33
F-0.75
S'single'
p395
tp396
as(S'however'
p397
tp398
(lp399
(I168
I1
F0.25
S'favorite'
p400
tp401
as(S'galaxy'
p402
S'siii'
p403
tp404
(lp405
(I204
I1
I0
S'minimal'
p406
tp407
as(S'easy'
p408
S'to'
p409
S'use'
p410
tp411
(lp412
(I153
I1
F-0.625
S'moderate'
p413
tp414
as(S'good'
p415
tp416
(lp417
(I323
I1
I0
S'outweigh'
p418
tp419
as(S'card'
p420
tp421
(lp422
(I1
I1
I0
S'prepaid'
p423
tp424
a(I1
I1
I0
S'monthly'
p425
tp426
a(I16
I3
F-0.125
S'mine'
p427
tp428
a(I16
I5
F0.5
S'clear'
p429
tp430
a(I129
I7
F-0.75
S'little'
p431
tp432
a(I129
I10
I0
g372
tp433
as(S'love'
p434
tp435
(lp436
(I94
I0
F1.0
S'best'
p437
tp438
as(S'customer'
p439
S'service'
p440
tp441
(lp442
(I32
I2
F0.5
S'clear'
p443
tp444
a(I32
I3
F0.625
S'aware'
p445
tp446
a(I106
I8
F0.5
S'willing'
p447
tp448
a(I181
I6
I0
S'great'
p449
tp450
as(S'mega'
p451
S'pixel'
p452
S'camera'
p453
tp454
(lp455
(I219
I9
I0
S'standard'
p456
tp457
as(S'fast'
p458
tp459
(lp460
(I47
I1
F-0.125
S'super'
p461
tp462
a(I298
I11
I0
S'such'
p463
tp464
a(I301
I0
I0
S'very'
p465
tp466
a(I348
I0
F-0.125
S'super'
p467
tp468
a(I374
I2
I0
S'very'
p469
tp470
as(S'times'
p471
tp472
(lp473
(I30
I0
I0
S'many'
p474
tp475
a(I30
I0
I0
S'many'
p476
tp477
a(I57
I42
I0
S'same'
p478
tp479
a(I57
I65
F-0.5
S'sure'
p480
tp481
a(I57
I65
I0
S'hot'
p482
tp483
a(I97
I0
F0.625
S'responsible'
p484
tp485
a(I122
I12
I0
S'few'
p486
tp487
a(I147
I5
F1.0
S'better'
p488
tp489
a(I237
I6
I0
S'many'
p490
tp491
a(I244
I1
F0.125
S'able'
p492
tp493
a(I248
I2
I0
S'more'
p494
tp495
a(I313
I1
I0
S'few'
p496
tp497
a(I334
I7
I0
S'few'
p498
tp499
a(I384
I10
I0
S'few'
p500
tp501
a(I386
I3
I0
S'many'
p502
tp503
as(S'problem'
p504
tp505
(lp506
(I26
I11
I0
S'only'
p507
tp508
a(I26
I11
F-0.625
S'other'
p509
tp510
a(I26
I11
I0
S'real'
p511
tp512
a(I144
I3
F0.125
S'amazon'
p513
tp514
a(I144
I3
F0.75
S'receive'
p515
tp516
a(I144
I3
F-0.75
S'unable'
p517
tp518
a(I155
I4
F0.375
S'new'
p519
tp520
a(I242
I2
F0.625
S'major'
p521
tp522
a(I242
I8
I0
S'imaginary'
p523
tp524
a(I246
I0
F0.75
S'constant'
p525
tp526
a(I295
I4
F0.375
S'similar'
p527
tp528
a(I302
I2
I0
S'only'
p529
tp530
a(I318
I0
I0
S'only'
p531
tp532
a(I360
I0
F0.875
S'nice'
p533
tp534
a(I389
I0
F-0.625
S'other'
p535
tp536
a(I396
I2
I0
S'only'
p537
tp538
as(S'happy'
p539
tp540
(lp541
(I105
I4
F-0.125
S'super'
p542
tp543
a(I197
I0
I0
S'more'
p544
tp545
a(I326
I7
F-0.125
S'super'
p546
tp547
as(S'service'
p548
tp549
(lp550
(I8
I0
F1.0
S'good'
p551
tp552
a(I32
I2
F0.5
g443
tp553
a(I32
I3
F0.625
g445
tp554
a(I96
I5
I0
S'great'
p555
tp556
a(I106
I8
F0.5
g447
tp557
a(I174
I1
F0.5
S'compatible'
p558
tp559
a(I367
I1
F0.625
S'perfect'
p560
tp561
a(I396
I2
F1.0
S'good'
p562
tp563
as(S'getting'
p564
tp565
(lp566
(I99
I2
F0.625
S'decent'
p567
tp568
as(S'qualcomm'
p569
S'snapdragon'
p570
tp571
(lp572
(I193
I1
F-0.5
S'international'
p573
tp574
as(S'product'
p575
tp576
(lp577
(I0
I3
I0
S'great'
p578
tp579
a(I19
I4
F1.0
S'good'
p580
tp581
a(I106
I8
I0
S'own'
p582
tp583
a(I140
I0
F0.75
S'beautiful'
p584
tp585
a(I142
I0
I0
S'angry'
p586
tp587
a(I144
I1
F0.375
S'new'
p588
tp589
a(I175
I0
F1.0
S'good'
p590
tp591
a(I189
I1
F1.0
S'good'
p592
tp593
a(I195
I0
F0.125
S'first'
p594
tp595
a(I206
I0
I0
S'great'
p596
tp597
a(I207
I9
I0
S'android'
p598
tp599
a(I231
I1
I0
S'absurd'
p600
tp601
a(I270
I1
F0.375
S'reliable'
p602
tp603
a(I270
I1
F-0.5
S'sure'
p604
tp605
a(I270
I1
F1.0
S'best'
p606
tp607
a(I270
I1
F0.5
S'possible'
p608
tp609
a(I356
I4
F-0.5
S'poor'
p610
tp611
as(S'right'
p612
tp613
(lp614
(I332
I2
F-0.375
S'manual'
p615
tp616
as(S'things'
p617
tp618
(lp619
(I18
I10
F-0.625
S'other'
p620
tp621
a(I18
I10
F-0.75
S'little'
p622
tp623
a(I18
I32
I0
S'many'
p624
tp625
a(I18
I32
F0.875
S'nice'
p626
tp627
a(I18
I32
F-0.75
S'little'
p628
tp629
a(I18
I32
I0
S'cool'
p630
tp631
a(I100
I6
I0
S'farthest'
p632
tp633
a(I100
I11
F-0.625
S'other'
p634
tp635
a(I100
I12
F-0.5
S'certain'
p636
tp637
a(I122
I17
F0.25
S'main'
p638
tp639
a(I126
I17
I0
S'initial'
p640
tp641
a(I181
I2
I0
S'few'
p642
tp643
a(I212
I1
F1.0
S'better'
p644
tp645
a(I237
I5
I0
S'same'
p646
tp647
a(I298
I45
I0
S'different'
p648
tp649
a(I336
I0
I0
S'high'
p650
tp651
a(I336
I0
F1.0
S'good'
p652
tp653
as(S'apple'
p654
tp655
(lp656
(I108
I28
F-0.75
S'hate'
p657
tp658
a(I248
I2
F0.5
S'thankful'
p659
tp660
a(I359
I2
F1.0
S'better'
p661
tp662
as(S'android'
p663
tp664
(lp665
(I129
I8
I0
S'cool'
p666
tp667
a(I203
I0
I0
S'big'
p668
tp669
a(I225
I0
F0.125
S'first'
p670
tp671
a(I254
I3
F0.125
S'first'
p672
tp673
a(I298
I34
I0
S'only'
p674
tp675
a(I374
I1
F0.125
S'first'
p676
tp677
a(I380
I4
F0.375
S'new'
p678
tp679
as(S'voice'
p680
tp681
(lp682
(I183
I39
I0
S'funny'
p683
tp684
a(I183
I39
F-0.625
S'other'
p685
tp686
as(S'thing'
p687
tp688
(lp689
(I22
I4
I0
S'only'
p690
tp691
a(I26
I6
I0
S'only'
p692
tp693
a(I38
I0
I0
S'only'
p694
tp695
a(I100
I15
F0.875
S'important'
p696
tp697
a(I109
I1
F0.125
S'first'
p698
tp699
a(I135
I18
F1.0
S'good'
p700
tp701
a(I135
I18
I0
S'same'
p702
tp703
a(I135
I18
F1.0
S'best'
p704
tp705
a(I155
I7
I0
S'only'
p706
tp707
a(I159
I26
I0
S'shiniest'
p708
tp709
a(I225
I10
F1.0
S'best'
p710
tp711
a(I237
I1
I0
S'only'
p712
tp713
a(I237
I1
F1.0
S'good'
p714
tp715
a(I252
I2
I0
S'same'
p716
tp717
a(I282
I1
I0
S'only'
p718
tp719
a(I296
I0
F0.625
S'perfect'
p720
tp721
a(I298
I36
I0
S'great'
p722
tp723
a(I323
I7
F-0.625
S'bad'
p724
tp725
a(I333
I1
I0
S'only'
p726
tp727
a(I333
I1
F-0.625
S'bad'
p728
tp729
a(I365
I0
I0
S'only'
p730
tp731
a(I376
I8
I0
S'basic'
p732
tp733
a(I378
I1
I0
S'only'
p734
tp735
a(I384
I4
I0
S'same'
p736
tp737
a(I406
I2
I0
S'only'
p738
tp739
as(S'a'
p740
S'samsung'
p741
S'galaxy'
p742
tp743
(lp744
(I29
I0
F0.125
g301
tp745
a(I73
I11
F0.625
g303
tp746
a(I108
I6
F-0.25
g305
tp747
a(I109
I10
F0.25
g307
tp748
a(I160
I0
I0
g309
tp749
a(I219
I39
F-0.375
g311
tp750
a(I308
I0
F0.5
g313
tp751
a(I341
I0
F0.5
g315
tp752
as(S'size'
p753
tp754
(lp755
(I99
I1
F0.875
g5
tp756
a(I122
I4
F0.875
S'nice'
p757
tp758
a(I151
I2
F-0.625
S'other'
p759
tp760
a(I183
I6
F-0.875
S'hard'
p761
tp762
a(I247
I4
F0.625
g13
tp763
a(I283
I8
F-0.625
g15
tp764
a(I294
I4
F-0.625
g17
tp765
a(I298
I51
F1.0
S'good'
p766
tp767
a(I338
I11
F-0.375
g21
tp768
a(I375
I1
I0
S'fast'
p769
tp770
a(I375
I1
I0
S'large'
p771
tp772
as(S'make'
p773
tp774
(lp775
(I45
I8
F0.5
S'functional'
p776
tp777
a(I300
I1
F1.0
S'good'
p778
tp779
a(I328
I4
I0
S'weird'
p780
tp781
a(I328
I4
F0.5
S'possible'
p782
tp783
a(I384
I7
I0
S'user'
p784
tp785
as(S'work'
p786
tp787
(lp788
(I135
I6
I0
S'adequate'
p789
tp790
a(I210
I0
F1.0
S'good'
p791
tp792
as(S'siii'
p793
tp794
(lp795
(I26
I9
F0.5
S'clear'
p796
tp797
a(I204
I1
I0
g406
tp798
as(S'battery'
p799
S'life'
p800
tp801
(lp802
(I20
I1
I0
S'more'
p803
tp804
a(I20
I1
I0
S'great'
p805
tp806
a(I38
I0
F1.0
S'good'
p807
tp808
a(I43
I3
I0
S'great'
p809
tp810
a(I57
I12
F0.375
S'much'
p811
tp812
a(I67
I8
F0.125
S'last'
p813
tp814
a(I67
I8
I0
S'least'
p815
tp816
a(I107
I4
F0.375
S'new'
p817
tp818
a(I122
I15
F0.125
S'last'
p819
tp820
a(I159
I5
F0.5
S'so-so'
p821
tp822
a(I171
I0
F-0.5
S'poor'
p823
tp824
a(I171
I4
I0
S'great'
p825
tp826
a(I189
I0
F0.5
S'clear'
p827
tp828
a(I189
I0
F-0.5
S'long'
p829
tp830
a(I196
I0
F1.0
S'good'
p831
tp832
a(I219
I30
I0
S'incredible'
p833
tp834
a(I263
I4
F1.0
S'good'
p835
tp836
a(I272
I0
F0.25
S'sharp'
p837
tp838
a(I272
I0
F0.625
S'removable'
p839
tp840
a(I278
I2
I0
S'soft'
p841
tp842
a(I278
I2
F1.0
S'good'
p843
tp844
a(I377
I3
F-0.5
S'poor'
p845
tp846
a(I377
I4
F-0.5
S'poor'
p847
tp848
a(I380
I9
I0
S'more'
p849
tp850
as(S'made'
p851
tp852
(lp853
(I99
I17
F1.0
S'better'
p854
tp855
a(I208
I13
I0
S'european'
p856
tp857
as(S'bought'
p858
tp859
(lp860
(I171
I1
I0
S'retail'
p861
tp862
as(S'back'
p863
tp864
(lp865
(I33
I5
I0
S'plastic'
p866
tp867
a(I33
I5
I0
S'slippery'
p868
tp869
a(I75
I2
F0.125
S'able'
p870
tp871
a(I75
I2
F-0.125
S'mine'
p872
tp873
a(I282
I1
I0
S'plastic'
p874
tp875
a(I384
I8
F0.5
S'touch'
p876
tp877
as(S'nternational'
p878
S'version'
p879
tp880
(lp881
(I8
I0
F-0.5
g100
tp882
a(I16
I0
F-0.5
g102
tp883
a(I44
I3
F-0.5
g104
tp884
a(I69
I0
I0
g106
tp885
a(I69
I0
F-0.5
g108
tp886
a(I83
I1
F-0.5
g110
tp887
a(I84
I0
F-0.5
g112
tp888
a(I117
I0
F-0.5
g114
tp889
a(I215
I1
F-0.5
g122
tp890
a(I233
I0
F-0.5
g124
tp891
a(I233
I0
I0
g126
tp892
a(I233
I0
F-0.5
g128
tp893
a(I264
I0
F-0.5
g132
tp894
a(I287
I4
F-0.5
g134
tp895
a(I298
I0
F-0.5
g136
tp896
a(I306
I1
F-0.5
g140
tp897
a(I309
I1
F-0.5
g142
tp898
as(S'with'
p899
S'one'
p900
S'hand'
p901
tp902
(lp903
(I33
I9
F0.625
S'manageable'
p904
tp905
a(I219
I23
F-0.625
S'other'
p906
tp907
a(I298
I55
F-0.625
S'light'
p908
tp909
as(S'straight'
p910
S'talk'
p911
tp912
(lp913
(I255
I3
F0.625
S'straight'
p914
tp915
a(I255
I11
F0.625
S'straight'
p916
tp917
a(I338
I1
F0.625
S'straight'
p918
tp919
as(S'life'
p920
tp921
(lp922
(I20
I1
I0
g805
tp923
a(I38
I0
F1.0
g807
tp924
a(I43
I3
I0
g809
tp925
a(I57
I12
F0.375
g811
tp926
a(I122
I15
F0.125
g819
tp927
a(I263
I4
F1.0
g835
tp928
a(I272
I0
F0.25
g837
tp929
a(I278
I2
I0
g841
tp930
a(I278
I2
F1.0
g843
tp931
a(I377
I3
F-0.5
g845
tp932
as(S'seller'
p933
tp934
(lp935
(I144
I4
I0
S'site'
p936
tp937
a(I144
I4
F1.0
S'good'
p938
tp939
a(I167
I0
F0.625
S'responsible'
p940
tp941
a(I227
I0
I0
S'great'
p942
tp943
as(S'user'
p944
tp945
(lp946
(I16
I2
F0.375
S'available'
p947
tp948
a(I95
I14
F-0.625
S'other'
p949
tp950
a(I136
I6
F-0.125
S'super'
p951
tp952
a(I169
I2
F-0.625
S'other'
p953
tp954
a(I183
I24
F-0.375
S'manual'
p955
tp956
a(I183
I25
F-0.375
S'manual'
p957
tp958
a(I225
I9
F-0.5
S'heavy'
p959
tp960
a(I226
I6
F-0.5
S'heavy'
p961
tp962
a(I293
I5
F-0.625
S'fresh'
p963
tp964
a(I298
I31
F-0.25
S'google'
p965
tp966
a(I376
I0
F0.875
S'happy'
p967
tp968
a(I380
I2
I0
S'more'
p969
tp970
a(I381
I11
F-0.875
S'negative'
p971
tp972
a(I381
I11
F-0.5
S'heavy'
p973
tp974
a(I386
I3
I0
S'android'
p975
tp976
a(I386
I3
I0
S'along'
p977
tp978
a(I386
I3
I0
S'great'
p979
tp980
a(I409
I5
F-0.5
S'sure'
p981
tp982
as(S'fgs'
p983
S'trading'
p984
tp985
(lp986
(I105
I0
F0.625
S'perfect'
p987
tp988
as(S'battery'
p989
tp990
(lp991
(I18
I24
F-0.5
S'long'
p992
tp993
a(I18
I26
F-0.25
S'low'
p994
tp995
a(I18
I27
F-0.25
S'low'
p996
tp997
a(I20
I1
I0
g803
tp998
a(I26
I10
F0.625
S'replaceable'
p999
tp1000
a(I33
I18
F0.25
S'bigger'
p1001
tp1002
a(I40
I1
F0.125
S'last'
p1003
tp1004
a(I56
I8
I0
S'fast'
p1005
tp1006
a(I67
I8
F0.125
g813
tp1007
a(I67
I8
I0
g815
tp1008
a(I101
I1
F0.375
S'new'
p1009
tp1010
a(I107
I4
F0.375
g817
tp1011
a(I108
I2
F0.375
S'extended'
p1012
tp1013
a(I108
I3
F0.375
S'extended'
p1014
tp1015
a(I108
I23
F-0.875
S'insufficient'
p1016
tp1017
a(I108
I28
I0
S'own'
p1018
tp1019
a(I129
I24
F0.375
S'extended'
p1020
tp1021
a(I153
I1
F0.625
S'easy'
p1022
tp1023
a(I159
I5
F0.5
g821
tp1024
a(I171
I0
F-0.5
g823
tp1025
a(I171
I2
F-0.75
S'short'
p1026
tp1027
a(I171
I4
I0
g825
tp1028
a(I181
I18
F0.125
S'charger'
p1029
tp1030
a(I183
I28
F0.625
S'easy'
p1031
tp1032
a(I183
I28
F-0.625
S'clean'
p1033
tp1034
a(I183
I28
F0.625
S'removable'
p1035
tp1036
a(I189
I0
F0.5
g827
tp1037
a(I189
I0
F-0.5
g829
tp1038
a(I196
I0
F1.0
g831
tp1039
a(I219
I27
F0.625
S'removable'
p1040
tp1041
a(I219
I28
F0.375
S'new'
p1042
tp1043
a(I219
I30
I0
g833
tp1044
a(I219
I31
I0
S'big'
p1045
tp1046
a(I219
I32
F0.125
S'last'
p1047
tp1048
a(I226
I10
I0
S'hot'
p1049
tp1050
a(I226
I11
F0.375
S'new'
p1051
tp1052
a(I226
I12
F0.375
S'new'
p1053
tp1054
a(I246
I2
I0
S'cool'
p1055
tp1056
a(I272
I0
F0.625
g839
tp1057
a(I293
I8
F0.125
S'last'
p1058
tp1059
a(I298
I12
F-0.625
S'bad'
p1060
tp1061
a(I307
I4
F-0.75
S'wrong'
p1062
tp1063
a(I323
I12
F0.5
S'careful'
p1064
tp1065
a(I336
I0
F0.625
S'removable'
p1066
tp1067
a(I374
I4
F0.375
S'extended'
p1068
tp1069
a(I375
I2
F0.125
S'enough'
p1070
tp1071
a(I377
I4
F-0.5
g847
tp1072
a(I380
I9
I0
g849
tp1073
a(I380
I10
F0.625
S'replaceable'
p1074
tp1075
a(I408
I0
F-0.625
S'light'
p1076
tp1077
as(S'smart'
p1078
tp1079
(lp1080
(I12
I1
F0.125
S'first'
p1081
tp1082
a(I54
I0
F0.125
S'first'
p1083
tp1084
a(I63
I0
F1.0
S'good'
p1085
tp1086
a(I74
I9
F-0.625
S'other'
p1087
tp1088
a(I135
I1
F0.125
S'first'
p1089
tp1090
a(I148
I0
F1.0
S'best'
p1091
tp1092
a(I219
I0
F1.0
S'best'
p1093
tp1094
a(I219
I2
F1.0
S'best'
p1095
tp1096
as(S'samsung'
p1097
S'galaxy'
p1098
tp1099
(lp1100
(I29
I0
F0.125
g301
tp1101
a(I73
I11
F0.625
g303
tp1102
a(I108
I6
F-0.25
g305
tp1103
a(I109
I10
F0.25
g307
tp1104
a(I160
I0
I0
g309
tp1105
a(I219
I39
F-0.375
g311
tp1106
a(I308
I0
F0.5
g313
tp1107
a(I341
I0
F0.5
g315
tp1108
as(S'looking'
p1109
tp1110
(lp1111
(I57
I15
I0
S'site'
p1112
tp1113
a(I127
I1
F-0.625
S'quiet'
p1114
tp1115
a(I127
I1
F0.875
S'nice'
p1116
tp1117
a(I258
I1
F0.75
S'beautiful'
p1118
tp1119
as(S'calls'
p1120
tp1121
(lp1122
(I57
I12
I0
S'few'
p1123
tp1124
a(I109
I1
I0
S'common'
p1125
tp1126
a(I187
I1
I0
S'many'
p1127
tp1128
a(I237
I2
I0
S'many'
p1129
tp1130
as(S'update'
p1131
tp1132
(lp1133
(I323
I2
F0.25
S'recent'
p1134
tp1135
a(I384
I10
I0
S'automatic'
p1136
tp1137
as(S'time'
p1138
tp1139
(lp1140
(I41
I0
F0.125
S'first'
p1141
tp1142
a(I41
I0
I0
S'least'
p1143
tp1144
a(I51
I3
F-0.75
S'shorter'
p1145
tp1146
a(I62
I2
I0
S'waste'
p1147
tp1148
a(I71
I0
F1.0
S'good'
p1149
tp1150
a(I81
I5
F-0.5
S'long'
p1151
tp1152
a(I117
I18
I0
S'instant'
p1153
tp1154
a(I155
I5
F0.375
S'mean'
p1155
tp1156
a(I159
I26
I0
S'same'
p1157
tp1158
a(I235
I1
F0.5
S'second'
p1159
tp1160
a(I254
I3
I0
S'android'
p1161
tp1162
a(I254
I3
F0.125
S'first'
p1163
tp1164
a(I260
I0
F0.25
S'natter'
p1165
tp1166
a(I261
I1
I0
S'different'
p1167
tp1168
a(I286
I0
I0
S'high'
p1169
tp1170
a(I298
I21
F0.375
S'prime'
p1171
tp1172
a(I339
I0
F-0.625
S'other'
p1173
tp1174
a(I351
I1
F0.125
S'last'
p1175
tp1176
a(I356
I4
F0.625
S'easier'
p1177
tp1178
a(I378
I0
F-0.5
S'long'
p1179
tp1180
a(I384
I0
F-0.875
S'hard'
p1181
tp1182
as(S'find'
p1183
tp1184
(lp1185
(I225
I13
I0
S'local'
p1186
tp1187
as(S'months'
p1188
tp1189
(lp1190
(I24
I0
I0
S'great'
p1191
tp1192
a(I26
I11
F-0.5
S'less'
p1193
tp1194
a(I99
I16
I0
S'few'
p1195
tp1196
a(I106
I2
I0
S'later'
p1197
tp1198
a(I211
I4
F-0.875
S'trouble'
p1199
tp1200
a(I211
I4
I0
S'few'
p1201
tp1202
a(I211
I4
I0
S'later'
p1203
tp1204
a(I246
I0
F0.125
S'first'
p1205
tp1206
a(I268
I4
I0
S'many'
p1207
tp1208
a(I268
I4
I0
S'later'
p1209
tp1210
a(I341
I1
F0.125
S'last'
p1211
tp1212
a(I352
I0
I0
S'few'
p1213
tp1214
a(I397
I3
I0
S'old'
p1215
tp1216
as(S'4g'
p1217
S'lte'
p1218
tp1219
(lp1220
(I57
I23
I0
S'faster'
p1221
tp1222
a(I57
I40
F0.5
S'told'
p1223
tp1224
a(I57
I40
I0
S'faster'
p1225
tp1226
a(I117
I17
I0
S'least'
p1227
tp1228
a(I117
I17
F0.375
S'available'
p1229
tp1230
as(S'samsung'
p1231
S'galaxy'
p1232
S'siii'
p1233
tp1234
(lp1235
(I108
I6
F-0.25
g305
tp1236
a(I341
I0
F0.5
g315
tp1237
as(S'went'
p1238
tp1239
(lp1240
(I126
I14
I0
S'website'
p1241
tp1242
as(S'noticeable'
p1243
S'effect'
p1244
tp1245
(lp1246
(I117
I5
F0.625
S'noticeable'
p1247
tp1248
a(I117
I6
F0.625
S'noticeable'
p1249
tp1250
a(I117
I8
F0.625
S'noticeable'
p1251
tp1252
as(S'year'
p1253
tp1254
(lp1255
(I57
I57
F-0.5
S'sure'
p1256
tp1257
a(I134
I3
I0
S'old'
p1258
tp1259
a(I159
I11
I0
S'next'
p1260
tp1261
a(I171
I4
F-0.375
S'simple'
p1262
tp1263
a(I171
I4
I0
S'old'
p1264
tp1265
a(I225
I4
I0
S'later'
p1266
tp1267
a(I226
I1
I0
S'old'
p1268
tp1269
a(I409
I10
F0.125
S'last'
p1270
tp1271
as(S'buy'
p1272
S'samsung'
p1273
S'galaxy'
p1274
tp1275
(lp1276
(I29
I0
F0.125
g301
tp1277
a(I308
I0
F0.5
g313
tp1278
as(S'screen'
p1279
tp1280
(lp1281
(I11
I0
I0
S'large'
p1282
tp1283
a(I18
I6
F-0.875
S'hard'
p1284
tp1285
a(I18
I7
F0.125
S'last'
p1286
tp1287
a(I18
I12
I0
S'full'
p1288
tp1289
a(I18
I32
I0
S'fast'
p1290
tp1291
a(I18
I35
F-0.375
S'top'
p1292
tp1293
a(I29
I0
I0
S'big'
p1294
tp1295
a(I29
I0
F0.25
S'bigger'
p1296
tp1297
a(I33
I8
I0
S'big'
p1298
tp1299
a(I40
I1
I0
S'big'
p1300
tp1301
a(I47
I11
F-0.25
S'white'
p1302
tp1303
a(I67
I4
F-0.5
S'long'
p1304
tp1305
a(I93
I1
F-0.625
S'bad'
p1306
tp1307
a(I93
I1
I0
S'harsh'
p1308
tp1309
a(I99
I16
F0.25
S'bigger'
p1310
tp1311
a(I100
I17
F1.0
S'best'
p1312
tp1313
a(I108
I9
F-0.5
S'heavy'
p1314
tp1315
a(I108
I9
F-0.625
S'light'
p1316
tp1317
a(I108
I9
F-0.25
S'thin'
p1318
tp1319
a(I114
I3
F0.25
g7
tp1320
a(I114
I4
F0.25
S'larger'
p1321
tp1322
a(I114
I7
I0
S'large'
p1323
tp1324
a(I114
I9
F0.25
S'larger'
p1325
tp1326
a(I114
I25
F0.25
S'larger'
p1327
tp1328
a(I117
I14
I0
S'large'
p1329
tp1330
a(I117
I16
F-0.5
S'long'
p1331
tp1332
a(I129
I6
I0
S'sleek'
p1333
tp1334
a(I129
I6
I0
S'big'
p1335
tp1336
a(I135
I4
F0.5
S'touch'
p1337
tp1338
a(I135
I4
F0.375
S'much'
p1339
tp1340
a(I135
I5
F0.5
S'touch'
p1341
tp1342
a(I136
I6
F0.875
S'nice'
p1343
tp1344
a(I145
I0
I0
S'great'
p1345
tp1346
a(I145
I0
I0
S'quick'
p1347
tp1348
a(I145
I0
I0
S'large'
p1349
tp1350
a(I148
I3
I0
S'great'
p1351
tp1352
a(I162
I0
F0.25
g9
tp1353
a(I169
I4
F0.75
S'beautiful'
p1354
tp1355
a(I179
I1
I0
S'big'
p1356
tp1357
a(I181
I3
I0
S'crystal'
p1358
tp1359
a(I181
I3
F0.5
S'clear'
p1360
tp1361
a(I183
I5
F0.75
g11
tp1362
a(I196
I20
F0.25
S'bigger'
p1363
tp1364
a(I219
I2
F0.5
S'touch'
p1365
tp1366
a(I219
I19
F0.375
S'much'
p1367
tp1368
a(I219
I19
F0.5
S'tall'
p1369
tp1370
a(I219
I50
I0
S'asleep'
p1371
tp1372
a(I222
I6
F-0.625
S'light'
p1373
tp1374
a(I232
I0
F0.75
S'break'
p1375
tp1376
a(I249
I1
F-0.125
S'super'
p1377
tp1378
a(I249
I1
I0
S'fast'
p1379
tp1380
a(I258
I1
I0
S'big'
p1381
tp1382
a(I267
I0
F-0.375
S'black'
p1383
tp1384
a(I279
I0
F0.5
S'touch'
p1385
tp1386
a(I287
I1
I0
S'great'
p1387
tp1388
a(I293
I2
F0.875
S'nice'
p1389
tp1390
a(I293
I2
I0
S'big'
p1391
tp1392
a(I298
I11
I0
S'big'
p1393
tp1394
a(I298
I52
F0.25
S'bigger'
p1395
tp1396
a(I298
I63
I0
S'big'
p1397
tp1398
a(I307
I4
I0
S'large'
p1399
tp1400
a(I313
I13
F0.625
S'easy'
p1401
tp1402
a(I316
I2
I0
g19
tp1403
a(I321
I0
F1.0
S'good'
p1404
tp1405
a(I323
I6
F0.625
S'easy'
p1406
tp1407
a(I326
I9
I0
S'great'
p1408
tp1409
a(I326
I12
F0.625
S'easy'
p1410
tp1411
a(I326
I12
F0.25
S'larger'
p1412
tp1413
a(I334
I8
I0
S'wide'
p1414
tp1415
a(I348
I0
F0.5
S'clear'
p1416
tp1417
a(I348
I0
I0
S'big'
p1418
tp1419
a(I368
I0
F-0.375
S'black'
p1420
tp1421
a(I374
I9
F0.25
g23
tp1422
a(I384
I2
I0
S'large'
p1423
tp1424
a(I386
I6
F-0.5
S'miss'
p1425
tp1426
a(I386
I6
I0
S'big'
p1427
tp1428
a(I386
I7
F1.0
S'good'
p1429
tp1430
a(I409
I20
F0.75
S'beautiful'
p1431
tp1432
a(I409
I23
F0.25
S'larger'
p1433
tp1434
a(I409
I30
I0
S'many'
p1435
tp1436
a(I409
I30
I0
S'great'
p1437
tp1438
as(S'look'
p1439
tp1440
(lp1441
(I108
I6
F-0.25
S'white'
p1442
tp1443
a(I183
I5
I0
S'big'
p1444
tp1445
a(I183
I5
F0.125
S'first'
p1446
tp1447
as(S'everything'
p1448
tp1449
(lp1450
(I13
I1
F0.125
S'flaky'
p1451
tp1452
a(I92
I0
F0.625
S'perfect'
p1453
tp1454
a(I92
I0
F1.0
S'good'
p1455
tp1456
a(I129
I16
F-0.375
S'smooth'
p1457
tp1458
a(I129
I16
I0
S'launcher'
p1459
tp1460
a(I171
I5
F-0.5
S'less'
p1461
tp1462
a(I305
I0
F0.25
S'original'
p1463
tp1464
a(I327
I0
I0
S'fast'
p1465
tp1466
a(I366
I3
F0.875
S'happy'
p1467
tp1468
as(S'samsung'
p1469
tp1470
(lp1471
(I16
I8
F-0.625
S'other'
p1472
tp1473
a(I73
I11
F0.625
g303
tp1474
a(I91
I1
I0
S'real'
p1475
tp1476
a(I99
I7
F0.375
S'new'
p1477
tp1478
a(I105
I0
F0.25
S'original'
p1479
tp1480
a(I108
I6
F-0.25
g305
tp1481
a(I109
I10
F0.25
g307
tp1482
a(I155
I6
F-0.625
S'sorry'
p1483
tp1484
a(I160
I0
I0
g309
tp1485
a(I189
I0
F1.0
S'best'
p1486
tp1487
a(I207
I12
I0
S'faithful'
p1488
tp1489
a(I219
I19
I0
S'plastic'
p1490
tp1491
a(I219
I39
F-0.375
g311
tp1492
a(I308
I0
F0.5
g313
tp1493
a(I341
I0
F0.5
g315
tp1494
a(I351
I2
I0
S'assistant'
p1495
tp1496
a(I366
I0
F0.25
S'original'
p1497
tp1498
a(I397
I4
F0.5
S'careful'
p1499
tp1500
as(S'camera'
p1501
tp1502
(lp1503
(I3
I4
F0.125
S'spectacular'
p1504
tp1505
a(I63
I5
F-0.375
S'top'
p1506
tp1507
a(I108
I21
F0.875
S'worthy'
p1508
tp1509
a(I117
I16
F1.0
S'good'
p1510
tp1511
a(I163
I2
F1.0
S'good'
p1512
tp1513
a(I167
I0
I0
S'great'
p1514
tp1515
a(I169
I5
I0
S'fast'
p1516
tp1517
a(I187
I0
I0
S'great'
p1518
tp1519
a(I187
I0
F0.625
S'easy'
p1520
tp1521
a(I196
I14
F1.0
S'good'
p1522
tp1523
a(I216
I1
I0
S'great'
p1524
tp1525
a(I219
I9
I0
g456
tp1526
a(I298
I16
F-0.125
S'slow'
p1527
tp1528
a(I402
I3
I0
S'great'
p1529
tp1530
as(S'mobile'
p1531
tp1532
(lp1533
(I158
I0
F-0.375
S'simple'
p1534
tp1535
a(I158
I3
F-0.375
S'simple'
p1536
tp1537
a(I251
I2
F1.0
S'best'
p1538
tp1539
as(S'take'
p1540
tp1541
(lp1542
(I18
I14
I0
S'few'
p1543
tp1544
as(S'headphone'
p1545
S'jack'
p1546
tp1547
(lp1548
(I166
I2
F-0.75
S'dirty'
p1549
tp1550
a(I166
I3
F-0.625
S'bad'
p1551
tp1552
as(S'galaxy'
p1553
tp1554
(lp1555
(I11
I2
F-0.5
S'sure'
p1556
tp1557
a(I11
I2
I0
S'next'
p1558
tp1559
a(I29
I0
F0.125
g301
tp1560
a(I109
I2
F-0.625
g77
tp1561
a(I132
I0
F-0.5
S'sure'
p1562
tp1563
a(I158
I3
F0.375
g83
tp1564
a(I169
I5
I0
S'old'
p1565
tp1566
a(I211
I2
I0
S'own'
p1567
tp1568
a(I293
I8
I0
S'faster'
p1569
tp1570
a(I353
I0
F-0.5
S'less'
p1571
tp1572
a(I378
I2
F-0.375
g89
tp1573
a(I384
I5
F0.125
S'first'
p1574
tp1575
a(I393
I7
F0.625
S'aware'
p1576
tp1577
a(I399
I2
F-0.125
S'overall'
p1578
tp1579
a(I407
I2
F0.5
g95
tp1580
as(S'samsung'
p1581
S'galaxy'
p1582
S's3'
p1583
tp1584
(lp1585
(I27
I0
F0.375
g63
tp1586
a(I27
I0
F0.25
g65
tp1587
a(I27
I0
I0
g67
tp1588
a(I73
I11
F0.625
g303
tp1589
a(I99
I0
F1.0
S'good'
p1590
tp1591
a(I109
I10
F0.25
g307
tp1592
a(I190
I0
F0.125
g85
tp1593
a(I211
I1
I0
S'pebble'
p1594
tp1595
a(I211
I1
I0
S'blue'
p1596
tp1597
a(I219
I39
F-0.375
g311
tp1598
a(I219
I39
I0
S'blue'
p1599
tp1600
a(I308
I0
F0.5
g313
tp1601
as(S'people'
p1602
tp1603
(lp1604
(I13
I3
I0
S'most'
p1605
tp1606
a(I45
I25
I0
S'only'
p1607
tp1608
a(I74
I8
F-0.625
S'other'
p1609
tp1610
a(I74
I10
I0
S'most'
p1611
tp1612
a(I74
I10
F-0.125
S'mine'
p1613
tp1614
a(I120
I0
I0
S'many'
p1615
tp1616
a(I159
I21
I0
S'few'
p1617
tp1618
a(I159
I21
F0.25
S'original'
p1619
tp1620
a(I159
I21
F-0.25
S'epic'
p1621
tp1622
a(I166
I8
I0
S'most'
p1623
tp1624
a(I238
I7
F0.125
S'fat'
p1625
tp1626
a(I256
I0
F-0.625
S'other'
p1627
tp1628
a(I391
I1
F-0.625
S'other'
p1629
tp1630
a(I409
I0
I0
S'many'
p1631
tp1632
as(S'works'
p1633
tp1634
(lp1635
(I11
I1
I0
S'great'
p1636
tp1637
a(I53
I1
I0
S'great'
p1638
tp1639
a(I147
I7
F-0.5
S'browser'
p1640
tp1641
a(I256
I0
F1.0
S'good'
p1642
tp1643
a(I298
I43
I0
S'great'
p1644
tp1645
a(I301
I0
I0
S'great'
p1646
tp1647
a(I396
I0
F1.0
S'good'
p1648
tp1649
a(I396
I0
I0
S'great'
p1650
tp1651
as(S'better'
p1652
tp1653
(lp1654
(I108
I5
F0.375
S'much'
p1655
tp1656
a(I170
I2
F0.375
S'much'
p1657
tp1658
a(I179
I0
F0.375
S'much'
p1659
tp1660
as(S'device'
p1661
tp1662
(lp1663
(I45
I2
I0
S'android'
p1664
tp1665
a(I100
I19
F-0.75
S'comfortable'
p1666
tp1667
a(I126
I23
F0.125
S'first'
p1668
tp1669
a(I126
I23
I0
S'electronic'
p1670
tp1671
a(I169
I0
F-0.375
S'daily'
p1672
tp1673
a(I169
I1
I0
S'more'
p1674
tp1675
a(I169
I3
F1.0
S'best'
p1676
tp1677
a(I183
I48
F-0.625
S'other'
p1678
tp1679
a(I225
I14
F1.0
S'best'
p1680
tp1681
a(I261
I10
F0.25
S'powerful'
p1682
tp1683
a(I278
I0
I0
S'big'
p1684
tp1685
a(I381
I7
F0.625
S'accessible'
p1686
tp1687
as(S'of'
p1688
S'samsung'
p1689
S'galaxy'
p1690
tp1691
(lp1692
(I160
I0
I0
g309
tp1693
a(I219
I39
F-0.375
g311
tp1694
as(S'call'
p1695
tp1696
(lp1697
(I153
I1
F1.0
S'good'
p1698
tp1699
a(I181
I13
F-0.625
S'other'
p1700
tp1701
a(I181
I15
F-0.5
S'disappear'
p1702
tp1703
a(I181
I15
F-0.25
S'thin'
p1704
tp1705
a(I181
I15
F0.5
S'second'
p1706
tp1707
a(I181
I15
F0.125
S'first'
p1708
tp1709
a(I219
I48
F-0.25
S'direct'
p1710
tp1711
a(I219
I51
F-0.25
S'direct'
p1712
tp1713
a(I317
I1
F0.5
S'clear'
p1714
tp1715
as(S'much'
p1716
S'better'
p1717
tp1718
(lp1719
(I108
I5
F0.375
g1655
tp1720
a(I170
I2
F0.375
g1657
tp1721
a(I179
I0
F0.375
g1659
tp1722
as(S'fan'
p1723
S'boy'
p1724
tp1725
(lp1726
(I114
I2
I0
S'most'
p1727
tp1728
a(I114
I2
I0
S'apple'
p1729
tp1730
as(S'galaxy'
p1731
S's3'
p1732
tp1733
(lp1734
(I20
I0
F-0.25
g59
tp1735
a(I20
I0
I0
g61
tp1736
a(I27
I0
F0.375
g63
tp1737
a(I27
I0
F0.25
g65
tp1738
a(I27
I0
I0
g67
tp1739
a(I72
I0
I0
g69
tp1740
a(I99
I0
F1.0
g1590
tp1741
a(I100
I1
F-0.625
g71
tp1742
a(I100
I13
F-0.125
g73
tp1743
a(I100
I27
I0
g75
tp1744
a(I109
I2
F-0.625
g77
tp1745
a(I112
I10
F0.375
S'new'
p1746
tp1747
a(I158
I3
F0.5
g79
tp1748
a(I158
I3
I0
g81
tp1749
a(I158
I3
F0.375
g83
tp1750
a(I190
I0
F0.125
g85
tp1751
a(I211
I1
I0
g1594
tp1752
a(I211
I1
I0
g1596
tp1753
a(I219
I39
I0
g1599
tp1754
a(I219
I55
F1.0
g87
tp1755
a(I293
I8
I0
S'galaxy'
p1756
tp1757
a(I293
I8
I0
g1569
tp1758
a(I378
I2
F-0.375
g89
tp1759
a(I378
I2
F-0.25
g91
tp1760
a(I378
I2
F0.875
g93
tp1761
a(I399
I2
F-0.125
g1578
tp1762
a(I407
I2
F0.5
g95
tp1763
as(S'apps'
p1764
tp1765
(lp1766
(I57
I6
F0.125
S'able'
p1767
tp1768
a(I72
I0
I0
S'same'
p1769
tp1770
a(I72
I0
F-0.625
S'free'
p1771
tp1772
a(I114
I29
I0
S'most'
p1773
tp1774
a(I129
I18
I0
S'more'
p1775
tp1776
a(I135
I6
F1.0
S'better'
p1777
tp1778
a(I135
I18
I0
S'android'
p1779
tp1780
a(I135
I18
F-0.25
S'parallel'
p1781
tp1782
a(I135
I19
F-0.75
S'difficult'
p1783
tp1784
a(I135
I19
F-0.5
S'long'
p1785
tp1786
a(I153
I1
F-0.625
S'free'
p1787
tp1788
a(I181
I16
I0
S'few'
p1789
tp1790
a(I226
I9
F-0.5
S'sure'
p1791
tp1792
a(I237
I7
F-0.625
S'other'
p1793
tp1794
a(I255
I10
F0.875
S'music'
p1795
tp1796
a(I263
I3
I0
S'quick'
p1797
tp1798
a(I263
I4
I0
S'great'
p1799
tp1800
a(I263
I4
I0
S'useful'
p1801
tp1802
a(I286
I3
F-0.5
S'less'
p1803
tp1804
a(I286
I3
I0
S'many'
p1805
tp1806
a(I298
I15
F0.125
S'solid'
p1807
tp1808
a(I298
I32
I0
S'many'
p1809
tp1810
a(I328
I2
F-0.625
S'other'
p1811
tp1812
a(I337
I2
F0.125
S'last'
p1813
tp1814
a(I337
I2
I0
S'few'
p1815
tp1816
a(I351
I3
F-0.25
S'google'
p1817
tp1818
a(I351
I3
F-0.625
S'other'
p1819
tp1820
a(I351
I3
I0
S'android'
p1821
tp1822
a(I356
I3
I0
S'many'
p1823
tp1824
a(I376
I12
I0
S'few'
p1825
tp1826
a(I392
I2
I0
S'fewer'
p1827
tp1828
as(S'days'
p1829
tp1830
(lp1831
(I99
I2
I0
S'full'
p1832
tp1833
a(I110
I2
F0.125
S'first'
p1834
tp1835
a(I110
I2
I0
S'few'
p1836
tp1837
a(I225
I7
F0.375
S'went'
p1838
tp1839
a(I244
I0
I0
S'few'
p1840
tp1841
a(I356
I9
I0
S'arrive'
p1842
tp1843
as.