(dp0
(S'virgin'
p1
S'mobile'
p2
tp3
(lp4
(I6
I10
I0
S'third'
p5
I0
tp6
a(I6
I73
F-0.25
S'cheaper'
p7
I0
tp8
a(I6
I3
I0
S'least'
p9
I0
tp10
a(I6
I10
I0
g5
I0
tp11
a(I6
I73
F-0.25
g7
I0
tp12
as(S'slide'
p13
S'out'
p14
S'keyboard'
p15
tp16
(lp17
(I4
I15
F0.625
S'easier'
p18
I0
tp19
a(I9
I36
F-0.75
S'difficult'
p20
I0
tp21
a(I4
I15
F0.625
g18
I2
tp22
a(I4
I39
F-0.625
S'want'
p23
I2
tp24
a(I9
I36
F-0.75
g20
I2
tp25
a(I12
I35
F0.625
S'perfect'
p26
I2
tp27
as(S'battery'
p28
S'life'
p29
tp30
(lp31
(I0
I14
I0
S'great'
p32
I1
tp33
a(I4
I21
F-0.75
S'short'
p34
I1
tp35
a(I12
I43
F1.0
S'good'
p36
I1
tp37
a(I0
I14
I0
g32
I19
tp38
a(I12
I43
F1.0
g36
I19
tp39
a(I0
I53
F-0.25
S'low'
p40
I15
tp41
a(I4
I21
F-0.75
g34
I15
tp42
a(I9
I18
I0
S'full'
p43
I15
tp44
a(I12
I55
F0.375
S'new'
p45
I15
tp46
a(I12
I59
I0
S'same'
p47
I15
tp48
a(I13
I4
F0.125
S'last'
p49
I15
tp50
as(S'text'
p51
tp52
(lp53
(I0
I19
I0
S'e-mail'
p54
I18
tp55
a(I0
I48
F0.375
S'friendly'
p56
I18
tp57
a(I6
I21
F-0.5
S'long'
p58
I18
tp59
a(I9
I38
F-0.25
S'white'
p60
I18
tp61
a(I10
I20
F0.375
S'new'
p62
I18
tp63
as(S'beep'
p64
tp65
(lp66
(I0
I40
F0.125
S'magic'
p67
I0
tp68
a(I0
I50
F-0.75
S'little'
p69
I0
tp70
a(I4
I45
F0.5
S'second'
p71
I0
tp72
as(S'texting'
p73
tp74
(lp75
(I4
I72
I0
S'great'
p76
I0
tp77
a(I4
I72
I0
S'fast'
p78
I0
tp79
a(I7
I3
I0
S'instant'
p80
I0
tp81
a(I10
I16
I0
S'more'
p82
I0
tp83
as(S'samsung'
p84
tp85
(lp86
(I0
I57
I0
S'such'
p87
I7
tp88
a(I9
I44
F0.125
S'last'
p89
I7
tp90
a(I13
I29
F0.875
S'nice'
p91
I7
tp92
as(S'miss'
p93
S'a'
p94
S'call'
p95
tp96
(lp97
(I4
I41
F0.75
S'receive'
p98
I0
tp99
as(S'beeping'
p100
tp101
(lp102
(I9
I48
F-0.875
S'negative'
p103
I0
tp104
as.