(dp0
(S'el'
p1
S'tiempo'
p2
tp3
(lp4
(I55
I2
I0
S'al'
p5
I0
tp6
a(I55
I2
I0
g5
I0
tp7
as(S'blackberry'
p8
tp9
(lp10
(I0
I7
F0.875
S'nice'
p11
I1
tp12
a(I44
I15
F1.0
S'better'
p13
I1
tp14
as(S'con'
p15
S'la'
p16
tp17
(lp18
(I47
I5
F0.25
S'original'
p19
I1
tp20
as(S'movistar'
p21
tp22
(lp23
(I2
I0
I0
S'great'
p24
I0
tp25
as(S'battery'
p26
tp27
(lp28
(I0
I8
F1.0
S'best'
p29
I15
tp30
a(I53
I8
F-0.625
S'free'
p31
I15
tp32
a(I68
I2
F-0.5
S'actual'
p33
I15
tp34
a(I68
I4
F0.5
S'told'
p35
I15
tp36
as(S'gracias'
p37
tp38
(lp39
(I64
I0
I0
S'al'
p40
I0
tp41
as(S'only'
p42
S'thing'
p43
tp44
(lp45
(I13
I0
I0
S'only'
p46
I13
tp47
a(I44
I18
I0
S'only'
p48
I13
tp49
a(I53
I20
I0
S'only'
p50
I13
tp51
as(S'el'
p52
S'vendedor'
p53
tp54
(lp55
(I63
I13
I0
S'al'
p56
I0
tp57
a(I63
I13
I0
g56
I0
tp58
as(S'con'
p59
S'todos'
p60
tp61
(lp62
(I47
I5
F0.25
g19
I0
tp63
as(S'con'
p64
S'el'
p65
tp66
(lp67
(I38
I5
F0.375
S'new'
p68
I0
tp69
a(I47
I5
F0.25
g19
I0
tp70
as.