(dp0
(S'seller'
p1
tp2
(lp3
(I4
I13
I0
S'later'
p4
I19
tp5
a(I6
I1
I0
S'approachable'
p6
I19
tp7
as(S'battery'
p8
tp9
(lp10
(I4
I5
F-0.75
S'dead'
p11
I15
tp12
a(I4
I10
F0.375
S'new'
p13
I15
tp14
a(I7
I4
F0.25
S'original'
p15
I15
tp16
as(S'galaxy'
p17
S's3'
p18
tp19
(lp20
(I3
I6
F0.375
S'similar'
p21
I0
tp22
a(I3
I6
I0
S'faster'
p23
I0
tp24
a(I19
I5
I0
S'close'
p25
I0
tp26
a(I19
I5
F0.375
S'new'
p27
I0
tp28
a(I19
I5
F0.5
S'possible'
p29
I0
tp30
a(I6
I6
F-0.25
S'white'
p31
I0
tp32
a(I6
I6
I0
S'metallic'
p33
I0
tp34
a(I6
I6
I0
S'blue'
p35
I0
tp36
a(I10
I1
F0.25
S'original'
p37
I0
tp38
as(S'customer'
p39
S'service'
p40
tp41
(lp42
(I4
I18
F1.0
S'good'
p43
I3
tp44
as(S'sprint'
p45
S'store'
p46
tp47
(lp48
(I17
I5
F0.125
S'able'
p49
I0
tp50
a(I0
I0
I0
S'plate'
p51
I0
tp52
a(I17
I5
F0.125
g49
I0
tp53
as.