(dp0
(S'something'
p1
tp2
(lp3
(I74
I6
F0.375
S'new'
p4
tp5
a(I108
I5
F0.375
S'similar'
p6
tp7
a(I200
I23
F0.375
S'interesting'
p8
tp9
a(I214
I1
F1.0
S'good'
p10
tp11
a(I290
I2
F-0.625
S'other'
p12
tp13
a(I311
I35
I0
S'useful'
p14
tp15
a(I312
I16
F0.5
S'rid'
p16
tp17
a(I313
I5
I0
S'more'
p18
tp19
a(I313
I5
F0.25
S'powerful'
p20
tp21
a(I398
I0
I0
S'more'
p22
tp23
a(I398
I0
I0
S'current'
p24
tp25
a(I437
I2
F-0.75
S'wrong'
p26
tp27
as(S'35'
p28
S'a'
p29
S'month'
p30
tp31
(lp32
(I0
I1
I0
S'next'
p33
tp34
a(I419
I0
I0
S'more'
p35
tp36
as(S'hot'
p37
S'spot'
p38
tp39
(lp40
(I224
I1
I0
S'hot'
p41
tp42
a(I224
I5
I0
S'hot'
p43
tp44
as(S'nice'
p45
tp46
(lp47
(I271
I10
F-0.125
S'overall'
p48
tp49
a(I460
I3
F-0.125
S'super'
p50
tp51
as(S'from'
p52
S'lg'
p53
S'optimus'
p54
tp55
(lp56
(I7
I1
I0
S'old'
p57
tp58
a(I19
I0
I0
S'old'
p59
tp60
a(I367
I0
F0.125
S'first'
p61
tp62
a(I421
I0
I0
S'great'
p63
tp64
as(S'month'
p65
tp66
(lp67
(I0
I1
I0
g33
tp68
a(I7
I0
F0.875
S'happier'
p69
tp70
a(I73
I10
I0
S'old'
p71
tp72
a(I73
I10
F0.375
S'new'
p73
tp74
a(I112
I3
I0
S'great'
p75
tp76
a(I112
I3
F0.125
S'first'
p77
tp78
a(I128
I1
F-0.5
S'less'
p79
tp80
a(I178
I11
I0
S'close'
p81
tp82
a(I178
I11
I0
S'forty'
p83
tp84
a(I191
I2
I0
S'old'
p85
tp86
a(I278
I0
I0
S'great'
p87
tp88
a(I278
I0
F0.125
S'first'
p89
tp90
a(I278
I3
F0.125
S'first'
p91
tp92
a(I419
I0
I0
g35
tp93
a(I436
I8
I0
S'update'
p94
tp95
as(S'htc'
p96
S'evo'
p97
tp98
(lp99
(I3
I1
F-0.375
S'smaller'
p100
tp101
a(I336
I10
F-0.5
S'less'
p102
tp103
a(I423
I3
I0
S'great'
p104
tp105
as(S'need'
p106
tp107
(lp108
(I364
I2
I0
S'latest'
p109
tp110
as(S'quality'
p111
tp112
(lp113
(I15
I27
F0.5
S'possible'
p114
tp115
a(I39
I1
F0.875
S'happy'
p116
tp117
a(I47
I1
F1.0
S'best'
p118
tp119
a(I52
I9
F1.0
S'good'
p120
tp121
a(I78
I3
I0
S'such'
p122
tp123
a(I84
I3
F-0.5
S'call'
p124
tp125
a(I93
I4
F1.0
S'good'
p126
tp127
a(I107
I0
I0
S'high'
p128
tp129
a(I113
I1
F1.0
S'good'
p130
tp131
a(I149
I74
I0
S'great'
p132
tp133
a(I163
I7
F1.0
S'good'
p134
tp135
a(I172
I2
I0
S'great'
p136
tp137
a(I184
I3
I0
S'high'
p138
tp139
a(I200
I3
F1.0
S'good'
p140
tp141
a(I221
I4
I0
S'build'
p142
tp143
a(I235
I9
F1.0
S'good'
p144
tp145
a(I247
I1
F0.875
S'nice'
p146
tp147
a(I250
I0
F1.0
S'good'
p148
tp149
a(I278
I8
F1.0
S'better'
p150
tp151
a(I300
I3
F1.0
S'good'
p152
tp153
a(I390
I1
I0
S'high'
p154
tp155
a(I415
I4
I0
S'physical'
p156
tp157
a(I415
I5
I0
S'high'
p158
tp159
a(I425
I1
I0
S'great'
p160
tp161
a(I433
I2
I0
S'great'
p162
tp163
a(I452
I1
F1.0
S'good'
p164
tp165
a(I474
I2
F-0.25
S'higher'
p166
tp167
as(S'htc'
p168
S'sense'
p169
tp170
(lp171
(I142
I0
F0.75
S'gave'
p172
tp173
a(I142
I0
F-0.625
S'other'
p174
tp175
a(I189
I7
I0
S'older'
p176
tp177
a(I209
I5
F-0.625
S'light'
p178
tp179
a(I271
I27
F-0.5
S'less'
p180
tp181
a(I271
I27
F-0.5
S'intrusive'
p182
tp183
a(I271
I27
F-0.625
S'other'
p184
tp185
a(I320
I10
F0.5
S'satisfied'
p186
tp187
as(S'lg'
p188
S'optimus'
p189
S'elite'
p190
tp191
(lp192
(I150
I0
F0.25
S'elite'
p193
tp194
a(I150
I1
F0.25
S'elite'
p195
tp196
a(I221
I8
F0.25
S'elite'
p197
tp198
a(I244
I1
F0.25
S'elite'
p199
tp200
a(I412
I3
F0.25
S'elite'
p201
tp202
as(S'sd'
p203
S'card'
p204
tp205
(lp206
(I29
I12
F-0.375
S'small'
p207
tp208
a(I59
I2
I0
S'many'
p209
tp210
a(I59
I2
I0
S'pic'
p211
tp212
a(I95
I1
F0.375
S'new'
p213
tp214
a(I109
I2
I0
S'sd'
p215
tp216
a(I209
I14
F0.75
S'due'
p217
tp218
a(I209
I14
I0
S'least'
p219
tp220
a(I376
I3
I0
S'most'
p221
tp222
as(S'contract'
p223
tp224
(lp225
(I21
I14
I0
S'current'
p226
tp227
a(I78
I5
F0.125
S'first'
p228
tp229
a(I108
I0
F0.125
S'last'
p230
tp231
a(I108
I0
I0
S'few'
p232
tp233
a(I193
I1
F-0.625
S'other'
p234
tp235
a(I247
I2
F-0.625
S'free'
p236
tp237
a(I271
I34
I0
S'only'
p238
tp239
a(I306
I6
I0
S'monthly'
p240
tp241
a(I423
I25
F0.125
S'able'
p242
tp243
as(S'ice'
p244
S'cream'
p245
tp246
(lp247
(I15
I2
I0
S'android'
p248
tp249
a(I19
I2
I0
S'android'
p250
tp251
a(I164
I2
I0
S'android'
p252
tp253
a(I180
I0
I0
S'android'
p254
tp255
a(I327
I7
I0
S'android'
p256
tp257
a(I407
I3
I0
S'android'
p258
tp259
as(S'one'
p260
S'v'
p261
tp262
(lp263
(I3
I13
I0
S'wish'
p264
tp265
a(I10
I6
F0.125
S'able'
p266
tp267
a(I15
I2
I0
S'quick'
p268
tp269
a(I15
I11
F-0.375
S'crazy'
p270
tp271
a(I15
I38
F0.875
S'lucky'
p272
tp273
a(I58
I4
I0
S'most'
p274
tp275
a(I82
I4
F0.125
S'first'
p276
tp277
a(I95
I7
F0.25
S'powerful'
p278
tp279
a(I108
I3
F1.0
S'good'
p280
tp281
a(I128
I0
I0
S'such'
p282
tp283
a(I149
I55
F0.75
S'worth'
p284
tp285
a(I149
I55
F0.375
S'extra'
p286
tp287
a(I149
I94
I0
S'awhile'
p288
tp289
a(I212
I15
I0
S'slim'
p290
tp291
a(I225
I3
I0
S'more'
p292
tp293
a(I271
I31
F-0.125
S'bean'
p294
tp295
a(I271
I33
F0.875
S'nice'
p296
tp297
a(I304
I0
I0
S'user'
p298
tp299
a(I311
I9
F0.375
S'available'
p300
tp301
a(I311
I37
F0.375
S'available'
p302
tp303
a(I367
I0
I0
S'android'
p304
tp305
a(I446
I5
F0.125
S'able'
p306
tp307
as(S'optimus'
p308
g261
tp309
(lp310
(I7
I3
F0.125
S'able'
p311
tp312
a(I15
I38
F0.875
g272
tp313
a(I85
I2
I0
S'old'
p314
tp315
a(I149
I55
F0.75
g284
tp316
a(I149
I55
F0.375
g286
tp317
a(I273
I2
I0
S'old'
p318
tp319
a(I316
I6
I0
S'next'
p320
tp321
a(I367
I0
I0
g304
tp322
a(I421
I0
I0
g63
tp323
a(I446
I5
F0.125
g306
tp324
as(S'virgin'
p325
S'mobile'
p326
S"'s"
p327
S'service'
p328
tp329
(lp330
(I52
I9
F0.625
S'acceptable'
p331
tp332
a(I52
I9
F-0.125
S'virgin'
p333
tp334
a(I52
I9
I0
S'mobile'
p335
tp336
a(I284
I2
F1.0
S'better'
p337
tp338
a(I388
I8
F1.0
S'good'
p339
tp340
a(I412
I2
F1.0
S'good'
p341
tp342
a(I412
I2
I0
S'great'
p343
tp344
as(S'charge'
p345
tp346
(lp347
(I60
I1
I0
S'monthly'
p348
tp349
a(I60
I1
F0.375
S'extra'
p350
tp351
a(I107
I3
F-0.75
S'single'
p352
tp353
a(I150
I11
F-0.5
S'heavy'
p354
tp355
a(I416
I1
F-0.75
S'single'
p356
tp357
a(I432
I5
I0
S'even'
p358
tp359
as(S'ce'
p360
S'cream'
p361
S'sandwich'
p362
tp363
(lp364
(I19
I2
I0
S'few'
p365
tp366
a(I271
I33
F0.375
S'new'
p367
tp368
a(I415
I2
F0.625
S'easy'
p369
tp370
as(S'htc'
p371
S'evo'
p372
g261
tp373
(lp374
(I3
I1
F-0.375
g100
tp375
a(I225
I3
I0
g292
tp376
a(I336
I10
F-0.5
g102
tp377
a(I423
I3
I0
g104
tp378
as(S'optimus'
p379
tp380
(lp381
(I7
I3
F0.125
g311
tp382
a(I85
I2
I0
g314
tp383
a(I273
I2
I0
g318
tp384
a(I316
I6
I0
g320
tp385
a(I421
I0
I0
g63
tp386
a(I421
I5
F0.875
S'music'
p387
tp388
as(S'easy'
p389
S'to'
p390
S'use'
p391
tp392
(lp393
(I23
I1
F0.625
S'easy'
p394
tp395
as(S'smartphone'
p396
tp397
(lp398
(I3
I14
F0.75
S'due'
p399
tp400
a(I21
I14
F-0.625
S'other'
p401
tp402
a(I41
I0
F0.125
S'first'
p403
tp404
a(I51
I1
F0.125
S'first'
p405
tp406
a(I51
I1
F0.125
S'first'
p407
tp408
a(I82
I1
F0.125
S'first'
p409
tp410
a(I86
I1
I0
S'great'
p411
tp412
a(I133
I2
F0.375
S'new'
p413
tp414
a(I213
I11
I0
S'old'
p415
tp416
a(I219
I0
I0
S'fourth'
p417
tp418
a(I278
I0
F0.625
S'easy'
p419
tp420
a(I337
I8
F0.125
S'first'
p421
tp422
a(I338
I10
I0
S'basic'
p423
tp424
a(I421
I8
F-0.625
S'average'
p425
tp426
a(I455
I8
I0
S'great'
p427
tp428
a(I455
I9
F1.0
S'best'
p429
tp430
a(I470
I5
F0.375
S'new'
p431
tp432
as(S'card'
p433
tp434
(lp435
(I29
I12
F-0.375
g207
tp436
a(I109
I2
I0
g215
tp437
a(I178
I2
F-0.125
S'top-up'
p438
tp439
a(I209
I14
F0.75
g217
tp440
a(I209
I14
I0
g219
tp441
a(I376
I3
I0
g221
tp442
as(S'virgin'
p443
S'mobile'
p444
S'service'
p445
tp446
(lp447
(I52
I9
F0.625
g331
tp448
a(I52
I9
F-0.125
g333
tp449
a(I52
I9
I0
g335
tp450
a(I202
I2
F-0.375
S'unacceptable'
p451
tp452
a(I284
I2
F1.0
g337
tp453
a(I308
I4
I0
S'mobile'
p454
tp455
a(I308
I4
I0
S'great'
p456
tp457
a(I319
I4
I0
S'mobile'
p458
tp459
a(I388
I8
F1.0
g339
tp460
a(I390
I1
I0
S'least'
p461
tp462
a(I407
I0
F-0.625
S'other'
p463
tp464
a(I412
I2
F1.0
g341
tp465
a(I412
I2
I0
g343
tp466
as(S'customer'
p467
S'service'
p468
tp469
(lp470
(I92
I7
I0
S'least'
p471
tp472
a(I92
I7
I0
S'different'
p473
tp474
a(I202
I2
F-0.375
g451
tp475
a(I252
I2
F-0.125
S'foreign'
p476
tp477
a(I252
I2
F0.5
S'polite'
p478
tp479
a(I252
I2
F0.25
S'helpful'
p480
tp481
a(I276
I1
I0
S'great'
p482
tp483
a(I443
I3
F-0.5
S'poor'
p484
tp485
as(S'wifi'
p486
tp487
(lp488
(I21
I9
F1.0
S'good'
p489
tp490
a(I73
I2
F-0.875
S'worst'
p491
tp492
a(I73
I9
F0.625
S'major'
p493
tp494
a(I73
I9
F-0.5
S'weak'
p495
tp496
a(I111
I7
F-0.25
S'plugged'
p497
tp498
a(I139
I10
I0
S'unresolved'
p499
tp500
a(I327
I27
F-0.125
S'public'
p501
tp502
a(I427
I6
F0.5
S'second'
p503
tp504
as(S'from'
p505
S'virgin'
p506
S'mobile'
p507
tp508
(lp509
(I9
I3
I0
S'basic'
p510
tp511
a(I217
I0
F-0.25
S'cheaper'
p512
tp513
a(I311
I37
I0
S'cellular'
p514
tp515
as(S'operating'
p516
S'system'
p517
tp518
(lp519
(I139
I3
F0.625
S'superior'
p520
tp521
a(I149
I15
F-0.375
S'smooth'
p522
tp523
a(I234
I2
I0
S'latest'
p524
tp525
a(I234
I2
I0
S'android'
p526
tp527
a(I415
I2
I0
S'android'
p528
tp529
a(I421
I4
I0
S'great'
p530
tp531
as(S'on'
p532
S'virgin'
p533
S'mobile'
p534
tp535
(lp536
(I9
I3
I0
g510
tp537
a(I15
I6
I0
S'great'
p538
tp539
a(I22
I0
I0
S'mobile'
p540
tp541
a(I48
I1
F0.375
S'available'
p542
tp543
a(I60
I1
I0
S'wish'
p544
tp545
a(I130
I2
F-0.125
S'virgin'
p546
tp547
a(I217
I0
F-0.25
g512
tp548
a(I225
I3
F0.5
S'possible'
p549
tp550
a(I244
I1
F0.125
S'last'
p551
tp552
a(I244
I10
F-0.5
S'call'
p553
tp554
a(I244
I10
I0
S'mobile'
p555
tp556
a(I268
I0
F0.125
S'first'
p557
tp558
a(I311
I37
I0
g514
tp559
a(I335
I0
I0
S'different'
p560
tp561
a(I344
I0
I0
S'own'
p562
tp563
a(I350
I2
F-0.625
S'other'
p564
tp565
a(I353
I2
F-0.625
S'other'
p566
tp567
a(I412
I3
F-0.625
S'other'
p568
tp569
a(I413
I1
F0.375
S'new'
p570
tp571
a(I457
I3
I0
S'same'
p572
tp573
as(S'fast'
p574
tp575
(lp576
(I425
I1
F0.125
S'plenty'
p577
tp578
a(I456
I10
I0
S'least'
p579
tp580
as(S'problem'
p581
tp582
(lp583
(I1
I1
I0
S're-start'
p584
tp585
a(I7
I4
I0
S'only'
p586
tp587
a(I7
I9
F-0.75
S'minor'
p588
tp589
a(I36
I2
I0
S'only'
p590
tp591
a(I36
I2
F0.625
S'major'
p592
tp593
a(I67
I2
I0
S'only'
p594
tp595
a(I72
I8
F-0.75
S'insurmountable'
p596
tp597
a(I190
I7
I0
S'same'
p598
tp599
a(I192
I6
F-0.75
S'single'
p600
tp601
a(I212
I35
I0
S'big'
p602
tp603
a(I215
I2
I0
S'only'
p604
tp605
a(I316
I26
I0
S'same'
p606
tp607
a(I322
I2
F0.625
S'major'
p608
tp609
a(I338
I1
F0.25
S'biggest'
p610
tp611
a(I397
I2
I0
S'only'
p612
tp613
a(I416
I6
I0
S'only'
p614
tp615
a(I416
I6
I0
S'signal'
p616
tp617
a(I458
I3
F-0.625
S'other'
p618
tp619
as(g29
S'reasonable'
p620
S'price'
p621
tp622
(lp623
(I29
I10
F0.5
S'reasonable'
p624
tp625
a(I144
I0
F0.5
S'reasonable'
p626
tp627
a(I200
I1
F0.5
S'reasonable'
p628
tp629
a(I319
I5
F0.5
S'reasonable'
p630
tp631
a(I437
I19
F0.5
S'reasonable'
p632
tp633
as(S'gets'
p634
S'job'
p635
S'done'
p636
tp637
(lp638
(I396
I1
I0
S'fastest'
p639
tp640
a(I396
I1
F1.0
S'better'
p641
tp642
as(S'good'
p643
tp644
(lp645
(I456
I3
I0
S'apple'
p646
tp647
as(S'text'
p648
tp649
(lp650
(I0
I5
I0
S'faster'
p651
tp652
a(I46
I10
F0.5
S'second'
p653
tp654
a(I46
I12
F0.875
S'lucky'
p655
tp656
a(I46
I12
I0
S'third'
p657
tp658
a(I72
I5
F0.375
S'new'
p659
tp660
a(I89
I2
I0
S'old'
p661
tp662
a(I95
I15
I0
S'predicative'
p663
tp664
a(I115
I3
F0.625
S'easy'
p665
tp666
a(I124
I5
I0
S'enter'
p667
tp668
a(I231
I5
F0.375
S'new'
p669
tp670
a(I231
I6
F0.375
S'new'
p671
tp672
a(I271
I25
F0.5
S'clear'
p673
tp674
a(I271
I25
F0.25
S'sharp'
p675
tp676
a(I318
I4
F-0.375
S'double'
p677
tp678
as(S'happy'
p679
tp680
(lp681
(I236
I5
F0.125
S'enough'
p682
tp683
as(S'price'
p684
tp685
(lp686
(I6
I1
I0
S'big'
p687
tp688
a(I13
I0
I0
S'great'
p689
tp690
a(I15
I9
F-0.25
S'low'
p691
tp692
a(I21
I10
I0
S'full'
p693
tp694
a(I21
I10
I0
S'retail'
p695
tp696
a(I25
I2
F-0.25
S'lower'
p697
tp698
a(I27
I6
F-0.25
S'low'
p699
tp700
a(I29
I10
F0.5
g624
tp701
a(I30
I0
F-0.25
S'low'
p702
tp703
a(I41
I3
I0
S'great'
p704
tp705
a(I46
I1
F-0.5
S'less'
p706
tp707
a(I56
I2
F1.0
S'good'
p708
tp709
a(I69
I2
I0
S'full'
p710
tp711
a(I69
I3
F1.0
S'good'
p712
tp713
a(I78
I3
F-0.25
S'inexpensive'
p714
tp715
a(I80
I0
F0.75
S'worth'
p716
tp717
a(I117
I1
F-0.875
S'hard'
p718
tp719
a(I123
I2
F1.0
S'good'
p720
tp721
a(I127
I0
I0
S'great'
p722
tp723
a(I130
I2
I0
S'great'
p724
tp725
a(I132
I2
I0
S'great'
p726
tp727
a(I132
I2
F-0.25
S'low'
p728
tp729
a(I142
I0
F-0.25
S'low'
p730
tp731
a(I144
I0
F0.5
g626
tp732
a(I149
I91
F0.25
S'original'
p733
tp734
a(I190
I7
I0
S'same'
p735
tp736
a(I199
I2
F0.875
S'happy'
p737
tp738
a(I200
I1
F0.5
g628
tp739
a(I201
I1
I0
S'great'
p740
tp741
a(I218
I1
I0
S'full'
p742
tp743
a(I221
I4
F-0.25
S'low'
p744
tp745
a(I222
I0
F1.0
S'good'
p746
tp747
a(I224
I10
F-0.25
S'low'
p748
tp749
a(I252
I1
I0
S'monthly'
p750
tp751
a(I255
I7
I0
S'high'
p752
tp753
a(I257
I4
I0
S'same'
p754
tp755
a(I271
I34
F-0.5
S'heavy'
p756
tp757
a(I306
I9
I0
S'great'
p758
tp759
a(I310
I1
F-0.25
S'higher'
p760
tp761
a(I311
I1
I0
S'same'
p762
tp763
a(I319
I1
F0.375
S'much'
p764
tp765
a(I319
I1
F-0.25
S'higher'
p766
tp767
a(I319
I5
F0.5
g630
tp768
a(I322
I7
F0.125
S'tolerable'
p769
tp770
a(I325
I0
F1.0
S'good'
p771
tp772
a(I354
I2
F0.5
S'expensive'
p773
tp774
a(I368
I4
I0
S'faster'
p775
tp776
a(I370
I0
F-0.5
S'sudden'
p777
tp778
a(I379
I0
I0
S'great'
p779
tp780
a(I401
I4
F0.375
S'new'
p781
tp782
a(I401
I5
F0.375
S'similar'
p783
tp784
a(I402
I3
I0
S'great'
p785
tp786
a(I419
I0
F1.0
S'best'
p787
tp788
a(I425
I2
I0
S'such'
p789
tp790
a(I437
I19
F0.5
g632
tp791
a(I445
I0
I0
S'great'
p792
tp793
a(I445
I0
F-0.375
S'smaller'
p794
tp795
a(I450
I1
F0.375
S'steep'
p796
tp797
a(I457
I1
F0.75
S'worth'
p798
tp799
a(I469
I0
I0
S'great'
p800
tp801
as(S'service'
p802
tp803
(lp804
(I4
I0
I0
S'old'
p805
tp806
a(I4
I0
I0
S'great'
p807
tp808
a(I4
I0
F1.0
S'good'
p809
tp810
a(I22
I2
I0
S'great'
p811
tp812
a(I51
I7
F-0.625
S'other'
p813
tp814
a(I52
I9
F0.625
g331
tp815
a(I52
I9
F-0.125
g333
tp816
a(I52
I9
I0
g335
tp817
a(I57
I1
F-0.5
S'less'
p818
tp819
a(I98
I7
I0
S'such'
p820
tp821
a(I98
I7
F-0.625
S'bad'
p822
tp823
a(I127
I4
I0
S'more'
p824
tp825
a(I134
I1
F1.0
S'good'
p826
tp827
a(I145
I3
F-0.25
S'disappointing'
p828
tp829
a(I146
I3
I0
S'great'
p830
tp831
a(I164
I1
F0.875
S'happy'
p832
tp833
a(I198
I2
F0.75
S'worth'
p834
tp835
a(I202
I2
F-0.375
g451
tp836
a(I224
I9
F1.0
S'best'
p837
tp838
a(I252
I2
F0.5
g478
tp839
a(I252
I2
F0.25
g480
tp840
a(I278
I9
F1.0
S'better'
p841
tp842
a(I284
I2
F1.0
g337
tp843
a(I308
I4
I0
g454
tp844
a(I308
I4
I0
g456
tp845
a(I310
I1
F1.0
S'better'
p846
tp847
a(I319
I4
I0
g458
tp848
a(I388
I8
F1.0
g339
tp849
a(I390
I1
I0
g461
tp850
a(I407
I0
F-0.625
g463
tp851
a(I412
I2
F1.0
g341
tp852
a(I412
I2
I0
g343
tp853
a(I419
I0
I0
S'more'
p854
tp855
as(S'overall'
p856
tp857
(lp858
(I446
I9
F1.0
S'good'
p859
tp860
as(S'cream'
p861
S'sandwich'
p862
tp863
(lp864
(I19
I2
I0
g365
tp865
a(I271
I33
F0.375
g367
tp866
a(I415
I2
F0.625
g369
tp867
as(S'angry'
p868
S'birds'
p869
tp870
(lp871
(I163
I6
I0
S'angry'
p872
tp873
a(I209
I24
I0
S'angry'
p874
tp875
a(I260
I1
I0
S'anymore'
p876
tp877
a(I260
I1
I0
S'angry'
p878
tp879
as(S'lg'
p880
S'optimus'
p881
g261
tp882
(lp883
(I7
I1
I0
g57
tp884
a(I15
I38
F0.875
g272
tp885
a(I19
I0
I0
g59
tp886
a(I150
I0
F0.25
g193
tp887
a(I150
I1
F0.25
g195
tp888
a(I244
I1
F0.25
g199
tp889
a(I367
I0
F0.125
g61
tp890
a(I367
I0
I0
g304
tp891
a(I412
I3
F0.25
g201
tp892
a(I421
I0
I0
g63
tp893
as(S'gorilla'
p894
S'glass'
p895
tp896
(lp897
(I108
I5
F0.25
S'read'
p898
tp899
as(S'front'
p900
S'facing'
p901
S'camera'
p902
tp903
(lp904
(I71
I3
F1.0
S'better'
p905
tp906
as(S'right'
p907
tp908
(lp909
(I141
I1
F0.625
S'easy'
p910
tp911
a(I231
I1
F-0.375
S'top'
p912
tp913
as(S'things'
p914
tp915
(lp916
(I3
I5
I0
S'such'
p917
tp918
a(I15
I12
F-0.5
S'sure'
p919
tp920
a(I30
I4
F-0.625
S'bad'
p921
tp922
a(I49
I2
I0
S'great'
p923
tp924
a(I49
I17
I0
S'close'
p925
tp926
a(I85
I9
F1.0
S'best'
p927
tp928
a(I95
I1
I0
S'same'
p929
tp930
a(I112
I5
F-0.375
S'simple'
p931
tp932
a(I112
I5
I0
S'such'
p933
tp934
a(I116
I11
I0
S'most'
p935
tp936
a(I124
I4
I0
S'same'
p937
tp938
a(I124
I5
F-0.625
S'other'
p939
tp940
a(I130
I5
F0.75
S'worth'
p941
tp942
a(I149
I46
F1.0
S'best'
p943
tp944
a(I149
I85
I0
S'great'
p945
tp946
a(I149
I92
F0.875
S'happy'
p947
tp948
a(I149
I92
F1.0
S'good'
p949
tp950
a(I149
I93
I0
S'great'
p951
tp952
a(I226
I0
I0
S'few'
p953
tp954
a(I279
I8
I0
S'few'
p955
tp956
a(I300
I5
I0
S'many'
p957
tp958
a(I300
I5
F-0.625
S'other'
p959
tp960
a(I311
I2
I0
S'few'
p961
tp962
a(I349
I1
I0
S'few'
p963
tp964
a(I349
I1
F-0.625
S'other'
p965
tp966
a(I423
I4
I0
S'many'
p967
tp968
a(I442
I4
I0
S'only'
p969
tp970
a(I442
I4
F-0.625
S'bad'
p971
tp972
as(S'features'
p973
tp974
(lp975
(I3
I7
I0
S'standard'
p976
tp977
a(I56
I2
F1.0
S'good'
p978
tp979
a(I114
I0
I0
S'great'
p980
tp981
a(I119
I6
I0
S'many'
p982
tp983
a(I119
I6
I0
S'great'
p984
tp985
a(I121
I0
F0.875
S'nice'
p986
tp987
a(I137
I0
I0
S'great'
p988
tp989
a(I150
I8
F0.875
S'nice'
p990
tp991
a(I150
I8
I0
S'such'
p992
tp993
a(I150
I11
I0
S'physical'
p994
tp995
a(I181
I1
I0
S'great'
p996
tp997
a(I190
I7
I0
S'same'
p998
tp999
a(I190
I7
F-0.875
S'unhappy'
p1000
tp1001
a(I204
I0
I0
S'many'
p1002
tp1003
a(I204
I0
I0
S'useful'
p1004
tp1005
a(I204
I0
F0.625
S'easy'
p1006
tp1007
a(I204
I0
I0
S'great'
p1008
tp1009
a(I247
I1
I0
S'many'
p1010
tp1011
a(I247
I1
I0
S'android'
p1012
tp1013
a(I253
I2
F-0.5
S'certain'
p1014
tp1015
a(I302
I0
I0
S'great'
p1016
tp1017
a(I314
I3
I0
S'great'
p1018
tp1019
a(I314
I3
I0
S'such'
p1020
tp1021
a(I317
I3
F0.625
S'major'
p1022
tp1023
a(I341
I0
F0.375
S'similar'
p1024
tp1025
a(I354
I2
I0
S'great'
p1026
tp1027
a(I364
I1
I0
S'great'
p1028
tp1029
a(I369
I1
I0
S'standard'
p1030
tp1031
a(I407
I4
F0.5
S'strongest'
p1032
tp1033
a(I422
I0
I0
S'cool'
p1034
tp1035
a(I423
I20
I0
S'many'
p1036
tp1037
a(I436
I8
I0
S'more'
p1038
tp1039
a(I437
I15
I0
S'many'
p1040
tp1041
a(I457
I7
I0
S'many'
p1042
tp1043
a(I457
I7
I0
S'many'
p1044
tp1045
a(I457
I10
F0.375
S'complete'
p1046
tp1047
a(I457
I10
F-0.375
S'manual'
p1048
tp1049
a(I457
I10
I0
S'downloaded'
p1050
tp1051
a(I457
I10
I0
S'many'
p1052
tp1053
as(S'single'
p1054
S'core'
p1055
S'processor'
p1056
tp1057
(lp1058
(I40
I1
F-0.75
S'single'
p1059
tp1060
a(I40
I1
I0
S'adequate'
p1061
tp1062
a(I58
I2
F-0.75
S'single'
p1063
tp1064
a(I154
I0
F-0.75
S'single'
p1065
tp1066
a(I209
I13
F-0.75
S'single'
p1067
tp1068
a(I284
I1
F-0.75
S'single'
p1069
tp1070
a(I359
I2
F-0.75
S'single'
p1071
tp1072
a(I407
I2
F-0.75
S'single'
p1073
tp1074
as(S'radio'
p1075
S'shack'
p1076
tp1077
(lp1078
(I288
I0
I0
S'january'
p1079
tp1080
a(I331
I0
I0
S'rebate'
p1081
tp1082
as(S'top'
p1083
S'of'
p1084
S'line'
p1085
tp1086
(lp1087
(I48
I6
F-0.375
S'top'
p1088
tp1089
a(I149
I38
F-0.375
S'top'
p1090
tp1091
a(I299
I0
F-0.375
S'top'
p1092
tp1093
a(I376
I6
F-0.375
S'top'
p1094
tp1095
a(I426
I9
F-0.375
S'top'
p1096
tp1097
as(g29
S'long'
p1098
S'time'
p1099
tp1100
(lp1101
(I12
I0
F-0.5
S'longest'
p1102
tp1103
a(I77
I0
F-0.5
S'long'
p1104
tp1105
a(I108
I14
I0
S'user'
p1106
tp1107
a(I108
I14
F-0.5
S'long'
p1108
tp1109
a(I122
I9
F-0.5
S'long'
p1110
tp1111
a(I130
I3
F-0.5
S'long'
p1112
tp1113
a(I130
I4
F-0.5
S'long'
p1114
tp1115
a(I394
I5
F-0.5
S'long'
p1116
tp1117
a(I440
I1
F-0.5
S'complaint'
p1118
tp1119
a(I440
I1
F-0.5
S'long'
p1120
tp1121
as(S'android'
p1122
tp1123
(lp1124
(I31
I0
F0.125
S'first'
p1125
tp1126
a(I138
I0
F0.125
S'first'
p1127
tp1128
a(I181
I5
F-0.375
S'modified'
p1129
tp1130
a(I184
I0
F0.25
S'recent'
p1131
tp1132
a(I194
I0
F0.125
S'first'
p1133
tp1134
a(I212
I14
I0
S'full'
p1135
tp1136
a(I296
I1
I0
S'basic'
p1137
tp1138
a(I335
I5
F0.125
S'first'
p1139
tp1140
a(I366
I2
F1.0
S'best'
p1141
tp1142
a(I407
I6
F0.375
S'similar'
p1143
tp1144
a(I423
I3
F1.0
S'good'
p1145
tp1146
a(I450
I3
F-0.25
S'modern'
p1147
tp1148
as(S'beats'
p1149
S'audio'
p1150
tp1151
(lp1152
(I15
I8
F0.625
S'noticeable'
p1153
tp1154
a(I99
I0
I0
S'fast'
p1155
tp1156
a(I189
I10
F0.125
S'cynic'
p1157
tp1158
a(I432
I4
F0.875
S'music'
p1159
tp1160
a(I442
I2
F1.0
S'best'
p1161
tp1162
as(S'black'
p1163
S'friday'
p1164
tp1165
(lp1166
(I124
I0
F-0.375
S'black'
p1167
tp1168
a(I124
I0
F0.125
S'last'
p1169
tp1170
a(I268
I0
F-0.375
S'black'
p1171
tp1172
a(I268
I0
I0
S'special'
p1173
tp1174
a(I286
I2
F-0.375
S'black'
p1175
tp1176
a(I331
I0
F-0.375
S'black'
p1177
tp1178
as(S'network'
p1179
tp1180
(lp1181
(I15
I39
I0
S'same'
p1182
tp1183
a(I30
I7
I0
S'mobile'
p1184
tp1185
a(I81
I4
F0.125
S'first'
p1186
tp1187
a(I81
I4
I0
S'mobile'
p1188
tp1189
a(I149
I68
I0
S'sprint'
p1190
tp1191
a(I209
I28
I0
S'mobile'
p1192
tp1193
a(I212
I5
I0
S'mobile'
p1194
tp1195
a(I359
I8
F0.125
S'able'
p1196
tp1197
a(I423
I27
F1.0
S'best'
p1198
tp1199
a(I458
I2
I0
S'real'
p1200
tp1201
a(I458
I2
F0.5
S'strong'
p1202
tp1203
as(S'micro'
p1204
S'sd'
p1205
S'card'
p1206
tp1207
(lp1208
(I376
I3
I0
g221
tp1209
as(S'thing'
p1210
tp1211
(lp1212
(I3
I3
I0
S'same'
p1213
tp1214
a(I3
I8
I0
S'next'
p1215
tp1216
a(I3
I8
F1.0
S'best'
p1217
tp1218
a(I17
I4
F0.5
S'second'
p1219
tp1220
a(I21
I8
I0
S'only'
p1221
tp1222
a(I73
I8
I0
S'same'
p1223
tp1224
a(I109
I4
F1.0
S'good'
p1225
tp1226
a(I149
I48
F-0.875
S'stuck'
p1227
tp1228
a(I150
I13
F-0.625
S'other'
p1229
tp1230
a(I156
I0
F-0.75
S'little'
p1231
tp1232
a(I189
I10
F-0.5
S'actual'
p1233
tp1234
a(I192
I1
I0
S'most'
p1235
tp1236
a(I200
I3
F0.25
S'main'
p1237
tp1238
a(I207
I5
F1.0
S'best'
p1239
tp1240
a(I218
I10
I0
S'only'
p1241
tp1242
a(I225
I5
I0
S'only'
p1243
tp1244
a(I240
I0
F-0.5
S'sure'
p1245
tp1246
a(I259
I9
F1.0
S'better'
p1247
tp1248
a(I279
I6
I0
S'only'
p1249
tp1250
a(I285
I0
F0.375
S'much'
p1251
tp1252
a(I286
I4
F0.375
S'indestructible'
p1253
tp1254
a(I306
I1
F0.125
S'first'
p1255
tp1256
a(I311
I27
F1.0
S'good'
p1257
tp1258
a(I316
I17
F1.0
S'good'
p1259
tp1260
a(I338
I2
I0
S'few'
p1261
tp1262
a(I411
I1
I0
S'only'
p1263
tp1264
a(I411
I1
F0.25
S'bigger'
p1265
tp1266
a(I412
I4
F1.0
S'best'
p1267
tp1268
a(I420
I10
I0
S'only'
p1269
tp1270
a(I420
I10
F1.0
S'good'
p1271
tp1272
a(I421
I3
F-0.75
S'single'
p1273
tp1274
a(I431
I1
I0
S'only'
p1275
tp1276
a(I448
I2
I0
S'only'
p1277
tp1278
a(I448
I2
F-0.875
S'negative'
p1279
tp1280
as(S'rating'
p1281
S'scale'
p1282
tp1283
(lp1284
(I84
I12
F0.5
S'second'
p1285
tp1286
as(S'data'
p1287
tp1288
(lp1289
(I27
I3
I0
S'same'
p1290
tp1291
a(I30
I7
F-0.125
S'slow'
p1292
tp1293
a(I73
I13
I0
S'slower'
p1294
tp1295
a(I190
I3
F0.5
S'personal'
p1296
tp1297
a(I361
I7
F-0.125
S'slow'
p1298
tp1299
a(I468
I0
F0.5
S'clear'
p1300
tp1301
as(S'gold'
p1302
S'box'
p1303
tp1304
(lp1305
(I319
I0
I0
S'special'
p1306
tp1307
a(I328
I0
I0
S'special'
p1308
tp1309
as(S'work'
p1310
tp1311
(lp1312
(I250
I1
F1.0
S'better'
p1313
tp1314
a(I253
I7
F-0.875
S'hard'
p1315
tp1316
a(I375
I3
I0
S'great'
p1317
tp1318
as(S'htc'
p1319
S'one'
p1320
g261
tp1321
(lp1322
(I3
I1
F-0.375
g100
tp1323
a(I15
I2
F-0.5
S'sure'
p1324
tp1325
a(I15
I2
F0.375
S'extra'
p1326
tp1327
a(I15
I2
I0
g268
tp1328
a(I15
I5
F-0.125
S'super'
p1329
tp1330
a(I15
I11
F-0.375
g270
tp1331
a(I15
I18
F0.5
S'rid'
p1332
tp1333
a(I15
I38
F0.875
g272
tp1334
a(I30
I6
F-0.75
S'sad'
p1335
tp1336
a(I82
I4
F0.125
g276
tp1337
a(I84
I8
I0
S'same'
p1338
tp1339
a(I108
I1
I0
S'current'
p1340
tp1341
a(I128
I0
F0.375
S'new'
p1342
tp1343
a(I128
I0
I0
g282
tp1344
a(I142
I0
F0.75
g172
tp1345
a(I142
I0
F-0.625
g174
tp1346
a(I177
I3
F0.625
S'superior'
p1347
tp1348
a(I182
I0
I0
S'old'
p1349
tp1350
a(I190
I7
F0.375
S'new'
p1351
tp1352
a(I212
I15
I0
g290
tp1353
a(I225
I3
I0
g292
tp1354
a(I243
I0
F0.375
S'new'
p1355
tp1356
a(I253
I0
I0
S'incredible'
p1357
tp1358
a(I271
I31
F-0.125
g294
tp1359
a(I271
I33
F0.875
g296
tp1360
a(I300
I1
I0
S'mobile'
p1361
tp1362
a(I304
I0
I0
g298
tp1363
a(I311
I9
F0.375
g300
tp1364
a(I311
I37
F0.375
g302
tp1365
a(I316
I1
I0
S'text'
p1366
tp1367
a(I316
I45
I0
S'update'
p1368
tp1369
a(I320
I10
F0.5
g186
tp1370
a(I327
I8
F-0.125
S'bean'
p1371
tp1372
a(I423
I3
I0
g104
tp1373
a(I423
I16
F1.0
S'good'
p1374
tp1375
a(I425
I1
I0
S'slower'
p1376
tp1377
a(I446
I5
F0.125
g306
tp1378
as(S'virgin'
p1379
S'mobile'
p1380
tp1381
(lp1382
(I9
I3
I0
g510
tp1383
a(I15
I6
I0
g538
tp1384
a(I22
I0
I0
g540
tp1385
a(I48
I1
F0.375
g542
tp1386
a(I60
I1
I0
g544
tp1387
a(I130
I2
F-0.125
g546
tp1388
a(I217
I0
F-0.25
g512
tp1389
a(I225
I3
F0.5
g549
tp1390
a(I244
I1
F0.125
g551
tp1391
a(I244
I10
F-0.5
g553
tp1392
a(I244
I10
I0
g555
tp1393
a(I268
I0
F0.125
g557
tp1394
a(I311
I37
I0
g514
tp1395
a(I335
I0
I0
g560
tp1396
a(I344
I0
I0
g562
tp1397
a(I350
I2
F-0.625
g564
tp1398
a(I353
I2
F-0.625
g566
tp1399
a(I412
I3
F-0.625
g568
tp1400
a(I413
I1
F0.375
g570
tp1401
a(I457
I3
I0
g572
tp1402
as(S'battery'
p1403
S'life'
p1404
tp1405
(lp1406
(I29
I10
F-0.625
S'average'
p1407
tp1408
a(I31
I2
F1.0
S'good'
p1409
tp1410
a(I74
I0
F-0.625
S'average'
p1411
tp1412
a(I86
I1
F1.0
S'good'
p1413
tp1414
a(I100
I5
I0
S'very'
p1415
tp1416
a(I100
I5
F0.875
S'important'
p1417
tp1418
a(I100
I5
F0.5
S'accurate'
p1419
tp1420
a(I116
I5
F0.625
S'hoping'
p1421
tp1422
a(I116
I5
F1.0
S'good'
p1423
tp1424
a(I125
I2
I0
S'general'
p1425
tp1426
a(I130
I7
I0
S'great'
p1427
tp1428
a(I139
I1
F0.125
S'first'
p1429
tp1430
a(I139
I1
F-0.5
S'longer'
p1431
tp1432
a(I149
I29
F1.0
S'good'
p1433
tp1434
a(I152
I2
F-0.75
S'short'
p1435
tp1436
a(I186
I0
F1.0
S'best'
p1437
tp1438
a(I200
I19
F1.0
S'good'
p1439
tp1440
a(I209
I26
F-0.875
S'hard'
p1441
tp1442
a(I214
I3
F-0.625
S'average'
p1443
tp1444
a(I234
I2
F0.125
S'capable'
p1445
tp1446
a(I234
I2
F0.125
S'tolerable'
p1447
tp1448
a(I256
I4
F1.0
S'better'
p1449
tp1450
a(I279
I10
F1.0
S'good'
p1451
tp1452
a(I280
I2
F-0.75
S'short'
p1453
tp1454
a(I285
I2
I0
S'great'
p1455
tp1456
a(I292
I1
F1.0
S'good'
p1457
tp1458
a(I297
I5
F1.0
S'good'
p1459
tp1460
a(I305
I3
I0
S'fast'
p1461
tp1462
a(I305
I3
F0.625
S'easy'
p1463
tp1464
a(I305
I3
F-0.625
S'bad'
p1465
tp1466
a(I307
I4
I0
S'great'
p1467
tp1468
a(I319
I3
F-0.5
S'complaint'
p1469
tp1470
a(I325
I1
F1.0
S'good'
p1471
tp1472
a(I338
I8
I0
S'same'
p1473
tp1474
a(I367
I6
I0
S'great'
p1475
tp1476
a(I395
I0
F-0.75
S'short'
p1477
tp1478
a(I407
I6
F1.0
S'good'
p1479
tp1480
a(I412
I3
F1.0
S'good'
p1481
tp1482
a(I416
I1
F-0.625
S'glad'
p1483
tp1484
a(I416
I1
F-0.625
S'average'
p1485
tp1486
a(I419
I0
F1.0
S'good'
p1487
tp1488
a(I437
I4
F0.875
S'happy'
p1489
tp1490
a(I446
I4
F1.0
S'good'
p1491
tp1492
a(I472
I3
F0.875
S'happy'
p1493
tp1494
as(S'minutes'
p1495
tp1496
(lp1497
(I0
I7
I0
S'least'
p1498
tp1499
a(I15
I6
I0
S'few'
p1500
tp1501
a(I149
I45
I0
S'total'
p1502
tp1503
a(I149
I46
I0
S'more'
p1504
tp1505
a(I149
I46
F-0.25
S'lower'
p1506
tp1507
a(I189
I21
F-0.625
S'free'
p1508
tp1509
a(I212
I15
I0
S'many'
p1510
tp1511
a(I316
I62
F-0.625
S'free'
p1512
tp1513
a(I334
I2
I0
S'full'
p1514
tp1515
a(I336
I5
F0.125
S'first'
p1516
tp1517
a(I388
I9
I0
S'more'
p1518
tp1519
a(I388
I9
F0.125
S'enough'
p1520
tp1521
a(I394
I12
I0
S'few'
p1522
tp1523
a(I426
I1
I0
S'active'
p1524
tp1525
a(I439
I4
F-0.625
S'light'
p1526
tp1527
as(S'to'
p1528
S'virgin'
p1529
S'mobile'
p1530
tp1531
(lp1532
(I15
I6
I0
g538
tp1533
a(I48
I1
F0.375
g542
tp1534
a(I60
I1
I0
g544
tp1535
a(I217
I0
F-0.25
g512
tp1536
a(I225
I3
F0.5
g549
tp1537
a(I244
I10
F-0.5
g553
tp1538
a(I244
I10
I0
g555
tp1539
a(I268
I0
F0.125
g557
tp1540
a(I344
I0
I0
g562
tp1541
a(I350
I2
F-0.625
g564
tp1542
a(I353
I2
F-0.625
g566
tp1543
as(S'job'
p1544
S'done'
p1545
tp1546
(lp1547
(I396
I1
I0
g639
tp1548
a(I396
I1
F1.0
g641
tp1549
as(S'f'
p1550
S'are'
p1551
S'looking'
p1552
tp1553
(lp1554
(I407
I0
I0
S'great'
p1555
tp1556
as(S'virgin'
p1557
tp1558
(lp1559
(I9
I3
I0
g510
tp1560
a(I22
I0
I0
g540
tp1561
a(I48
I1
F0.375
g542
tp1562
a(I60
I1
I0
g544
tp1563
a(I72
I6
I0
S'website'
p1564
tp1565
a(I72
I6
F-0.625
S'other'
p1566
tp1567
a(I72
I7
F-0.75
S'likely'
p1568
tp1569
a(I157
I9
F0.375
S'new'
p1570
tp1571
a(I184
I3
F-0.25
S'higher'
p1572
tp1573
a(I184
I3
I0
S'android'
p1574
tp1575
a(I217
I0
F-0.25
g512
tp1576
a(I225
I3
F0.5
g549
tp1577
a(I236
I0
F-0.75
S'unable'
p1578
tp1579
a(I236
I0
F0.125
S'first'
p1580
tp1581
a(I236
I0
F-0.25
S'direct'
p1582
tp1583
a(I244
I10
F-0.5
g553
tp1584
a(I244
I10
I0
g555
tp1585
a(I261
I2
F1.0
S'good'
p1586
tp1587
a(I264
I14
I0
S'galactic'
p1588
tp1589
a(I268
I0
F0.125
g557
tp1590
a(I311
I37
I0
g514
tp1591
a(I335
I0
I0
g560
tp1592
a(I344
I0
I0
g562
tp1593
a(I350
I2
F-0.625
g564
tp1594
a(I353
I2
F-0.625
g566
tp1595
a(I412
I3
F-0.625
g568
tp1596
a(I413
I1
F0.375
g570
tp1597
as(S'back'
p1598
tp1599
(lp1600
(I3
I10
F0.5
S'whole'
p1601
tp1602
a(I218
I8
I0
S'plastic'
p1603
tp1604
as(S'fine'
p1605
tp1606
(lp1607
(I149
I21
F-0.75
S'little'
p1608
tp1609
as(S'life'
p1610
tp1611
(lp1612
(I29
I10
F-0.625
g1407
tp1613
a(I100
I5
I0
g1415
tp1614
a(I116
I5
F1.0
g1423
tp1615
a(I130
I7
I0
g1427
tp1616
a(I149
I29
F1.0
g1433
tp1617
a(I152
I2
F-0.75
g1435
tp1618
a(I200
I19
F1.0
g1439
tp1619
a(I209
I26
F-0.875
g1441
tp1620
a(I214
I3
F-0.625
g1443
tp1621
a(I279
I10
F1.0
g1451
tp1622
a(I292
I1
F1.0
g1457
tp1623
a(I305
I3
F-0.625
g1465
tp1624
a(I338
I8
I0
g1473
tp1625
a(I367
I6
I0
g1475
tp1626
a(I375
I9
F-0.75
S'short'
p1627
tp1628
a(I395
I0
F-0.75
g1477
tp1629
a(I407
I6
F1.0
g1479
tp1630
a(I412
I3
F1.0
g1481
tp1631
a(I416
I1
F-0.625
g1483
tp1632
a(I416
I1
F-0.625
g1485
tp1633
a(I446
I4
F1.0
g1491
tp1634
as(S'little'
p1635
tp1636
(lp1637
(I52
I2
F1.0
S'good'
p1638
tp1639
as(S'beats'
p1640
tp1641
(lp1642
(I15
I8
F0.625
g1153
tp1643
a(I99
I0
I0
g1155
tp1644
a(I432
I4
F0.875
g1159
tp1645
a(I442
I2
F1.0
g1161
tp1646
as(S'music'
p1647
tp1648
(lp1649
(I0
I2
F-0.25
S'google'
p1650
tp1651
a(I15
I9
I0
S'own'
p1652
tp1653
as(S'lg'
p1654
S'optimus'
p1655
tp1656
(lp1657
(I7
I1
I0
g57
tp1658
a(I19
I0
I0
g59
tp1659
a(I150
I0
F0.25
g193
tp1660
a(I150
I1
F0.25
g195
tp1661
a(I221
I8
F0.25
g197
tp1662
a(I244
I1
F0.25
g199
tp1663
a(I367
I0
F0.125
g61
tp1664
a(I412
I3
F0.25
g201
tp1665
a(I421
I0
I0
g63
tp1666
as(S'plan'
p1667
tp1668
(lp1669
(I22
I0
I0
S'prepaid'
p1670
tp1671
a(I73
I1
F-0.25
S'cheaper'
p1672
tp1673
a(I73
I8
I0
S'monthly'
p1674
tp1675
a(I135
I2
I0
S'old'
p1676
tp1677
a(I148
I0
I0
S'monthly'
p1678
tp1679
a(I149
I4
I0
S'more'
p1680
tp1681
a(I149
I44
F0.625
S'add'
p1682
tp1683
a(I178
I1
I0
S'monthly'
p1684
tp1685
a(I178
I4
I0
S'monthly'
p1686
tp1687
a(I178
I11
F-0.5
S'unlimited'
p1688
tp1689
a(I224
I3
I0
S'mobile'
p1690
tp1691
a(I306
I7
F0.375
S'similar'
p1692
tp1693
a(I419
I0
I0
S'great'
p1694
tp1695
a(I423
I24
F-0.25
S'cheaper'
p1696
tp1697
a(I466
I1
F0.375
S'available'
p1698
tp1699
a(I470
I3
F0.375
S'new'
p1700
tp1701
as(S'n'
p1702
S'price'
p1703
S'range'
p1704
tp1705
(lp1706
(I190
I7
I0
g735
tp1707
a(I311
I1
I0
g762
tp1708
a(I314
I1
F0.875
S'happy'
p1709
tp1710
as(S'great'
p1711
tp1712
(lp1713
(I412
I1
I0
S'own'
p1714
tp1715
as(S'battery'
p1716
tp1717
(lp1718
(I0
I8
F-0.75
S'dead'
p1719
tp1720
a(I15
I36
I0
S'deplete'
p1721
tp1722
a(I31
I2
F1.0
g1409
tp1723
a(I43
I1
F0.375
S'extended'
p1724
tp1725
a(I74
I0
F-0.625
g1411
tp1726
a(I74
I5
F1.0
S'good'
p1727
tp1728
a(I82
I14
F-0.25
S'low'
p1729
tp1730
a(I82
I14
F-0.25
S'low'
p1731
tp1732
a(I86
I1
F1.0
g1413
tp1733
a(I95
I5
F-0.5
S'sure'
p1734
tp1735
a(I100
I2
F0.125
S'first'
p1736
tp1737
a(I100
I5
F0.875
g1417
tp1738
a(I100
I5
F0.5
g1419
tp1739
a(I115
I1
F-0.5
S'long'
p1740
tp1741
a(I116
I5
F0.625
g1421
tp1742
a(I125
I2
I0
g1425
tp1743
a(I139
I1
F0.125
g1429
tp1744
a(I139
I1
F-0.5
g1431
tp1745
a(I139
I10
F-0.625
S'permanent'
p1746
tp1747
a(I149
I58
I0
S'most'
p1748
tp1749
a(I149
I60
F1.0
S'good'
p1750
tp1751
a(I163
I9
I0
S'internal'
p1752
tp1753
a(I181
I4
F-0.5
S'certain'
p1754
tp1755
a(I186
I0
F1.0
g1437
tp1756
a(I188
I1
F-0.875
S'awful'
p1757
tp1758
a(I194
I1
I0
S'nervous'
p1759
tp1760
a(I203
I1
F0.75
S'due'
p1761
tp1762
a(I203
I1
F-0.625
S'bad'
p1763
tp1764
a(I203
I4
F-0.125
S'future'
p1765
tp1766
a(I203
I5
F0.5
S'possible'
p1767
tp1768
a(I207
I6
F0.375
S'much'
p1769
tp1770
a(I212
I2
F0.375
S'new'
p1771
tp1772
a(I212
I43
F-0.25
S'low'
p1773
tp1774
a(I234
I2
F0.125
g1445
tp1775
a(I234
I2
F0.125
g1447
tp1776
a(I253
I3
F0.375
S'new'
p1777
tp1778
a(I256
I4
F1.0
g1449
tp1779
a(I280
I2
F-0.75
g1453
tp1780
a(I285
I2
I0
g1455
tp1781
a(I297
I5
F1.0
g1459
tp1782
a(I305
I3
I0
g1461
tp1783
a(I305
I3
F0.625
g1463
tp1784
a(I307
I4
I0
g1467
tp1785
a(I319
I3
F-0.5
g1469
tp1786
a(I325
I1
F1.0
g1471
tp1787
a(I338
I10
F-0.25
S'low'
p1788
tp1789
a(I355
I4
F1.0
S'good'
p1790
tp1791
a(I403
I6
I0
S'internal'
p1792
tp1793
a(I419
I0
F1.0
g1487
tp1794
a(I422
I2
F0.625
S'removable'
p1795
tp1796
a(I432
I5
I0
S'full'
p1797
tp1798
a(I437
I4
F0.875
g1489
tp1799
a(I457
I5
I0
S'more'
p1800
tp1801
a(I457
I6
I0
S'more'
p1802
tp1803
a(I462
I2
F1.0
S'good'
p1804
tp1805
a(I472
I3
F0.875
g1493
tp1806
as(S'smart'
p1807
tp1808
(lp1809
(I36
I0
F0.125
S'first'
p1810
tp1811
a(I47
I1
F-0.625
S'other'
p1812
tp1813
a(I156
I0
F1.0
S'better'
p1814
tp1815
a(I170
I0
F0.125
S'first'
p1816
tp1817
a(I218
I2
F0.5
S'reasonable'
p1818
tp1819
a(I269
I2
F0.125
S'first'
p1820
tp1821
a(I278
I0
F0.125
S'first'
p1822
tp1823
a(I313
I4
I0
S'current'
p1824
tp1825
a(I319
I2
I0
S'fast'
p1826
tp1827
a(I319
I2
F0.375
S'reliable'
p1828
tp1829
a(I319
I2
I0
S'most'
p1830
tp1831
a(I335
I2
F0.125
S'first'
p1832
tp1833
a(I372
I0
F0.125
S'first'
p1834
tp1835
a(I399
I0
F0.125
S'first'
p1836
tp1837
a(I407
I3
F0.5
S'expensive'
p1838
tp1839
a(I445
I0
I0
S'great'
p1840
tp1841
a(I460
I0
F0.875
S'nice'
p1842
tp1843
a(I466
I0
F0.125
S'first'
p1844
tp1845
a(I471
I2
F1.0
S'better'
p1846
tp1847
as(S'cell'
p1848
tp1849
(lp1850
(I0
I0
F-0.625
S'other'
p1851
tp1852
a(I0
I1
F0.375
S'much'
p1853
tp1854
a(I0
I2
I0
S'faster'
p1855
tp1856
a(I0
I2
I0
S'old'
p1857
tp1858
a(I0
I3
I0
S'old'
p1859
tp1860
a(I0
I8
F-0.75
S'stupid'
p1861
tp1862
a(I23
I0
F0.125
S'first'
p1863
tp1864
a(I39
I2
F-0.625
S'other'
p1865
tp1866
a(I83
I2
F-0.25
S'cheaper'
p1867
tp1868
a(I84
I6
I0
S'many'
p1869
tp1870
a(I108
I0
F0.375
S'new'
p1871
tp1872
a(I119
I5
I0
S'own'
p1873
tp1874
a(I212
I12
I0
S'old'
p1875
tp1876
a(I269
I4
I0
S'old'
p1877
tp1878
a(I312
I17
F0.5
S'expensive'
p1879
tp1880
a(I312
I17
I0
S'basic'
p1881
tp1882
a(I361
I8
F-0.5
S'poor'
p1883
tp1884
a(I444
I1
F0.625
S'acceptable'
p1885
tp1886
a(I457
I5
I0
S'old'
p1887
tp1888
as(S'money'
p1889
tp1890
(lp1891
(I15
I19
I0
S'same'
p1892
tp1893
a(I92
I1
F0.875
S'nice'
p1894
tp1895
a(I92
I1
F0.625
S'easy'
p1896
tp1897
a(I283
I0
F0.75
S'worth'
p1898
tp1899
a(I327
I4
I0
S'more'
p1900
tp1901
a(I410
I4
F0.875
S'happier'
p1902
tp1903
a(I420
I11
F-0.625
S'other'
p1904
tp1905
a(I420
I11
F0.75
S'worth'
p1906
tp1907
a(I439
I20
I0
S'more'
p1908
tp1909
a(I452
I8
F0.375
S'extra'
p1910
tp1911
as(S'update'
p1912
tp1913
(lp1914
(I394
I7
F0.125
S'last'
p1915
tp1916
as(S'pretty'
p1917
tp1918
(lp1919
(I11
I4
F0.625
S'easy'
p1920
tp1921
a(I149
I66
F1.0
S'good'
p1922
tp1923
as(S'time'
p1924
tp1925
(lp1926
(I9
I11
F-0.75
S'single'
p1927
tp1928
a(I12
I0
F-0.5
g1102
tp1929
a(I17
I0
F0.125
S'last'
p1930
tp1931
a(I18
I5
F0.125
S'first'
p1932
tp1933
a(I25
I2
F0.125
S'first'
p1934
tp1935
a(I34
I0
F1.0
S'good'
p1936
tp1937
a(I76
I3
F-0.125
S'slow'
p1938
tp1939
a(I77
I0
F-0.5
g1104
tp1940
a(I82
I11
F-0.75
S'dead'
p1941
tp1942
a(I93
I11
F0.125
S'first'
p1943
tp1944
a(I108
I14
I0
g1106
tp1945
a(I108
I14
F-0.5
g1108
tp1946
a(I109
I8
F-0.5
S'sure'
p1947
tp1948
a(I109
I8
I0
S'funny'
p1949
tp1950
a(I122
I9
F-0.5
g1110
tp1951
a(I130
I3
F-0.5
g1112
tp1952
a(I130
I4
F-0.5
g1114
tp1953
a(I145
I2
F-0.875
S'awful'
p1954
tp1955
a(I148
I2
F-0.875
S'hard'
p1956
tp1957
a(I180
I0
F0.625
S'decent'
p1958
tp1959
a(I191
I1
F0.5
S'second'
p1960
tp1961
a(I192
I5
F1.0
S'best'
p1962
tp1963
a(I194
I0
F-0.75
S'short'
p1964
tp1965
a(I213
I1
I0
S'most'
p1966
tp1967
a(I213
I9
F0.5
S'whole'
p1968
tp1969
a(I213
I12
F0.125
S'first'
p1970
tp1971
a(I233
I1
I0
S'next'
p1972
tp1973
a(I235
I4
I0
S'brief'
p1974
tp1975
a(I258
I0
I0
S'same'
p1976
tp1977
a(I271
I16
I0
S'same'
p1978
tp1979
a(I273
I9
I0
S'same'
p1980
tp1981
a(I275
I8
I0
S'more'
p1982
tp1983
a(I305
I1
I0
S'more'
p1984
tp1985
a(I316
I26
I0
S'enter'
p1986
tp1987
a(I316
I38
F0.5
S'whole'
p1988
tp1989
a(I316
I60
F0.5
S'willing'
p1990
tp1991
a(I323
I0
F-0.5
S'certain'
p1992
tp1993
a(I373
I3
I0
S'text'
p1994
tp1995
a(I375
I2
F-0.75
S'single'
p1996
tp1997
a(I388
I11
I0
S'most'
p1998
tp1999
a(I394
I5
F-0.5
g1116
tp2000
a(I440
I1
F-0.5
g1118
tp2001
a(I440
I1
F-0.5
g1120
tp2002
a(I458
I8
F0.125
S'first'
p2003
tp2004
a(I463
I6
I0
S'same'
p2005
tp2006
a(I463
I6
F-0.875
S'worst'
p2007
tp2008
as(S'with'
p2009
S'beats'
p2010
S'audio'
p2011
tp2012
(lp2013
(I15
I8
F0.625
g1153
tp2014
as(S'always'
p2015
tp2016
(lp2017
(I51
I7
F-0.625
S'other'
p2018
tp2019
a(I78
I12
F-0.125
S'slow'
p2020
tp2021
as(S'for'
p2022
S'virgin'
p2023
S'mobile'
p2024
tp2025
(lp2026
(I15
I6
I0
g538
tp2027
a(I48
I1
F0.375
g542
tp2028
a(I130
I2
F-0.125
g546
tp2029
a(I225
I3
F0.5
g549
tp2030
a(I244
I1
F0.125
g551
tp2031
a(I268
I0
F0.125
g557
tp2032
a(I344
I0
I0
g562
tp2033
a(I350
I2
F-0.625
g564
tp2034
a(I457
I3
I0
g572
tp2035
as(S'months'
p2036
tp2037
(lp2038
(I0
I4
I0
S'later'
p2039
tp2040
a(I0
I4
F-0.125
S'slow'
p2041
tp2042
a(I12
I2
I0
S'great'
p2043
tp2044
a(I18
I1
F0.125
S'first'
p2045
tp2046
a(I48
I7
I0
S'few'
p2047
tp2048
a(I51
I3
I0
S'later'
p2049
tp2050
a(I52
I2
I0
S'few'
p2051
tp2052
a(I59
I2
I0
S'few'
p2053
tp2054
a(I83
I1
I0
S'few'
p2055
tp2056
a(I89
I5
F-0.25
S'past'
p2057
tp2058
a(I89
I5
I0
S'few'
p2059
tp2060
a(I95
I4
I0
S'next'
p2061
tp2062
a(I95
I4
I0
S'few'
p2063
tp2064
a(I124
I6
I0
S'more'
p2065
tp2066
a(I130
I5
I0
S'few'
p2067
tp2068
a(I160
I4
I0
S'few'
p2069
tp2070
a(I170
I0
I0
S'few'
p2071
tp2072
a(I193
I1
I0
S'few'
p2073
tp2074
a(I206
I0
F0.125
S'first'
p2075
tp2076
a(I213
I10
F-0.5
S'less'
p2077
tp2078
a(I229
I0
I0
S'few'
p2079
tp2080
a(I253
I12
F0.125
S'first'
p2081
tp2082
a(I273
I2
I0
S'few'
p2083
tp2084
a(I306
I4
F-0.125
S'minimum'
p2085
tp2086
a(I312
I4
F-0.125
S'slow'
p2087
tp2088
a(I318
I9
F-0.25
S'past'
p2089
tp2090
a(I318
I13
I0
S'few'
p2091
tp2092
a(I364
I0
I0
S'few'
p2093
tp2094
a(I373
I0
F0.125
S'first'
p2095
tp2096
a(I374
I0
I0
S'later'
p2097
tp2098
a(I400
I1
F0.375
S'new'
p2099
tp2100
a(I400
I1
F-0.875
S'awful'
p2101
tp2102
a(I406
I0
F0.125
S'first'
p2103
tp2104
a(I413
I0
I0
S'few'
p2105
tp2106
a(I437
I3
I0
S'later'
p2107
tp2108
a(I437
I3
F0.125
S'first'
p2109
tp2110
a(I452
I0
I0
S'few'
p2111
tp2112
a(I452
I4
F0.125
S'first'
p2113
tp2114
a(I463
I1
I0
S'great'
p2115
tp2116
a(I463
I1
F0.125
S'first'
p2117
tp2118
a(I463
I9
I0
S'more'
p2119
tp2120
a(I463
I9
I0
S'few'
p2121
tp2122
as(S'virgin'
p2123
S'mobile'
p2124
S'website'
p2125
tp2126
(lp2127
(I212
I9
F-0.5
S'sure'
p2128
tp2129
a(I344
I0
I0
g562
tp2130
as(S'viewing'
p2131
S'angles'
p2132
tp2133
(lp2134
(I284
I0
F1.0
S'good'
p2135
tp2136
as(S'text'
p2137
S'and'
p2138
S'data'
p2139
tp2140
(lp2141
(I468
I0
F0.5
g1300
tp2142
as(S'an'
p2143
S'lg'
p2144
S'optimus'
p2145
tp2146
(lp2147
(I7
I1
I0
g57
tp2148
a(I19
I0
I0
g59
tp2149
a(I150
I0
F0.25
g193
tp2150
a(I150
I1
F0.25
g195
tp2151
a(I221
I8
F0.25
g197
tp2152
a(I244
I1
F0.25
g199
tp2153
a(I367
I0
F0.125
g61
tp2154
a(I412
I3
F0.25
g201
tp2155
a(I421
I0
I0
g63
tp2156
as(S'entry'
p2157
S'level'
p2158
tp2159
(lp2160
(I202
I4
F0.5
S'sensible'
p2161
tp2162
a(I314
I4
I0
S'most'
p2163
tp2164
a(I314
I4
I0
S'entry'
p2165
tp2166
a(I368
I2
F0.875
S'nice'
p2167
tp2168
a(I407
I0
F-0.25
S'inexpensive'
p2169
tp2170
a(I407
I22
F0.875
S'nice'
p2171
tp2172
as(S'screen'
p2173
tp2174
(lp2175
(I3
I8
F-0.75
S'bright'
p2176
tp2177
a(I3
I8
F0.5
S'clear'
p2178
tp2179
a(I10
I2
F0.25
S'biggest'
p2180
tp2181
a(I15
I3
F-0.75
S'bright'
p2182
tp2183
a(I15
I3
F-0.75
S'bright'
p2184
tp2185
a(I21
I4
F0.5
S'clear'
p2186
tp2187
a(I22
I1
F0.5
S'touch'
p2188
tp2189
a(I32
I4
I0
S'great'
p2190
tp2191
a(I52
I6
I0
S'different'
p2192
tp2193
a(I66
I0
I0
S'great'
p2194
tp2195
a(I74
I2
I0
S'large'
p2196
tp2197
a(I78
I21
F0.75
S'beautiful'
p2198
tp2199
a(I84
I2
I0
S'entire'
p2200
tp2201
a(I89
I3
F-0.125
S'slow'
p2202
tp2203
a(I98
I1
F0.5
S'touch'
p2204
tp2205
a(I112
I10
F-0.375
S'black'
p2206
tp2207
a(I116
I4
F-0.375
S'locked'
p2208
tp2209
a(I116
I4
I0
S'wish'
p2210
tp2211
a(I124
I5
I0
S'same'
p2212
tp2213
a(I149
I11
F0.875
S'nice'
p2214
tp2215
a(I150
I3
F0.875
S'happy'
p2216
tp2217
a(I155
I1
I0
S'big'
p2218
tp2219
a(I155
I1
I0
S'big'
p2220
tp2221
a(I176
I9
I0
S'large'
p2222
tp2223
a(I177
I3
F0.375
S'dependable'
p2224
tp2225
a(I177
I3
I0
S'great'
p2226
tp2227
a(I207
I3
F0.25
S'bigger'
p2228
tp2229
a(I209
I15
F-0.75
S'bright'
p2230
tp2231
a(I209
I15
F0.5
S'clear'
p2232
tp2233
a(I212
I1
I0
S'big'
p2234
tp2235
a(I212
I19
I0
S'big'
p2236
tp2237
a(I214
I7
I0
S'entire'
p2238
tp2239
a(I257
I9
F0.25
S'bigger'
p2240
tp2241
a(I257
I9
F0.875
S'nice'
p2242
tp2243
a(I262
I1
I0
S'big'
p2244
tp2245
a(I264
I10
I0
S'next'
p2246
tp2247
a(I271
I33
F0.25
S'sharp'
p2248
tp2249
a(I271
I36
F0.75
S'beautiful'
p2250
tp2251
a(I279
I4
F0.25
S'responsive'
p2252
tp2253
a(I297
I4
F0.5
S'clear'
p2254
tp2255
a(I301
I6
F-0.75
S'difficult'
p2256
tp2257
a(I308
I1
I0
S'large'
p2258
tp2259
a(I308
I1
F0.625
S'easy'
p2260
tp2261
a(I309
I3
F0.5
S'clear'
p2262
tp2263
a(I311
I14
I0
S'closer'
p2264
tp2265
a(I314
I5
F-0.75
S'bright'
p2266
tp2267
a(I315
I2
F0.875
S'nice'
p2268
tp2269
a(I315
I2
F0.5
S'clear'
p2270
tp2271
a(I315
I2
I0
S'big'
p2272
tp2273
a(I316
I5
F0.25
S'larger'
p2274
tp2275
a(I316
I11
F0.25
S'bigger'
p2276
tp2277
a(I316
I11
I0
S'more'
p2278
tp2279
a(I316
I14
F0.125
S'visible'
p2280
tp2281
a(I316
I16
F0.5
S'whole'
p2282
tp2283
a(I320
I4
F0.75
S'beautiful'
p2284
tp2285
a(I327
I11
I0
S'big'
p2286
tp2287
a(I329
I2
F-0.375
S'small'
p2288
tp2289
a(I329
I2
F0.25
S'bigger'
p2290
tp2291
a(I331
I0
I0
S'big'
p2292
tp2293
a(I338
I6
F-0.375
S'smaller'
p2294
tp2295
a(I345
I5
F0.75
S'beautiful'
p2296
tp2297
a(I345
I19
F-0.375
S'black'
p2298
tp2299
a(I355
I2
F-0.75
S'bright'
p2300
tp2301
a(I366
I1
F1.0
S'good'
p2302
tp2303
a(I386
I0
I0
S'great'
p2304
tp2305
a(I394
I0
I0
S'november'
p2306
tp2307
a(I415
I7
F0.875
S'nice'
p2308
tp2309
a(I423
I13
I0
S'close'
p2310
tp2311
a(I425
I1
F-0.375
S'smaller'
p2312
tp2313
a(I437
I15
I0
S'most'
p2314
tp2315
a(I439
I3
F-0.375
S'top'
p2316
tp2317
a(I449
I1
I0
S'great'
p2318
tp2319
a(I449
I1
F0.25
S'responsive'
p2320
tp2321
a(I449
I1
F-0.125
S'super'
p2322
tp2323
a(I449
I1
F0.25
S'sharp'
p2324
tp2325
a(I455
I2
F0.5
S'clear'
p2326
tp2327
a(I455
I2
F-0.25
S'thin'
p2328
tp2329
a(I455
I2
F0.875
S'nice'
p2330
tp2331
a(I457
I7
F0.25
S'responsive'
p2332
tp2333
a(I462
I0
I0
S'big'
p2334
tp2335
a(I462
I2
I0
S'great'
p2336
tp2337
a(I466
I3
F0.75
S'beautiful'
p2338
tp2339
a(I466
I6
F-0.375
S'wear'
p2340
tp2341
a(I474
I1
F0.5
S'touch'
p2342
tp2343
a(I474
I1
F-0.625
S'inaccurate'
p2344
tp2345
as(S'everything'
p2346
tp2347
(lp2348
(I19
I1
F0.625
S'easy'
p2349
tp2350
a(I74
I2
F0.75
S'due'
p2351
tp2352
a(I79
I3
F-0.125
S'slow'
p2353
tp2354
a(I89
I0
I0
S'great'
p2355
tp2356
a(I138
I1
F0.625
S'easy'
p2357
tp2358
a(I138
I1
F0.125
S'able'
p2359
tp2360
a(I200
I9
F-0.375
S'manual'
p2361
tp2362
a(I200
I9
F0.125
S'able'
p2363
tp2364
a(I200
I9
I0
S'own'
p2365
tp2366
a(I203
I0
F1.0
S'good'
p2367
tp2368
a(I343
I1
F-0.375
S'impatient'
p2369
tp2370
a(I407
I22
F0.125
S'able'
p2371
tp2372
a(I436
I6
F0.125
S'able'
p2373
tp2374
a(I469
I0
I0
S'incredible'
p2375
tp2376
a(I469
I0
F0.625
S'easy'
p2377
tp2378
as(S'audio'
p2379
tp2380
(lp2381
(I177
I3
F1.0
S'good'
p2382
tp2383
a(I189
I10
F0.125
g1157
tp2384
as(S'camera'
p2385
tp2386
(lp2387
(I3
I3
I0
S'same'
p2388
tp2389
a(I3
I4
I0
S'flush'
p2390
tp2391
a(I9
I3
F0.75
S'beautiful'
p2392
tp2393
a(I30
I2
F1.0
S'good'
p2394
tp2395
a(I51
I6
I0
S'big'
p2396
tp2397
a(I71
I3
F1.0
g905
tp2398
a(I121
I0
I0
S'great'
p2399
tp2400
a(I149
I25
F-0.625
S'bad'
p2401
tp2402
a(I189
I9
I0
S'android'
p2403
tp2404
a(I201
I1
I0
S'great'
p2405
tp2406
a(I209
I16
F1.0
S'better'
p2407
tp2408
a(I210
I3
F0.875
S'nice'
p2409
tp2410
a(I231
I6
I0
S'great'
p2411
tp2412
a(I253
I5
F1.0
S'good'
p2413
tp2414
a(I262
I0
I0
S'fast'
p2415
tp2416
a(I271
I7
I0
S'latest'
p2417
tp2418
a(I271
I17
F-0.125
S'overall'
p2419
tp2420
a(I274
I2
F-0.125
S'frontal'
p2421
tp2422
a(I297
I4
I0
S'great'
p2423
tp2424
a(I311
I24
I0
S'rear'
p2425
tp2426
a(I338
I7
I0
S'rear'
p2427
tp2428
a(I344
I2
I0
S'great'
p2429
tp2430
a(I358
I3
I0
S'great'
p2431
tp2432
a(I358
I4
I0
S'great'
p2433
tp2434
a(I358
I4
F0.875
S'music'
p2435
tp2436
a(I416
I3
F1.0
S'good'
p2437
tp2438
a(I431
I0
F1.0
S'good'
p2439
tp2440
a(I461
I1
I0
S'great'
p2441
tp2442
a(I466
I6
F0.875
S'happy'
p2443
tp2444
as(S'using'
p2445
tp2446
(lp2447
(I150
I16
F-0.625
S'bad'
p2448
tp2449
as(S'want'
p2450
tp2451
(lp2452
(I78
I9
I0
S'dial'
p2453
tp2454
as(S'listen'
p2455
S'to'
p2456
S'music'
p2457
tp2458
(lp2459
(I0
I2
F-0.25
g1650
tp2460
as(S'mobile'
p2461
tp2462
(lp2463
(I15
I6
I0
g538
tp2464
a(I21
I12
F-0.5
S'heavy'
p2465
tp2466
a(I93
I6
F0.125
S'first'
p2467
tp2468
a(I130
I2
F-0.125
g546
tp2469
a(I131
I0
F1.0
S'good'
p2470
tp2471
a(I131
I0
F0.875
S'nice'
p2472
tp2473
a(I244
I1
F0.125
g551
tp2474
a(I251
I0
F0.5
S'second'
p2475
tp2476
a(I457
I3
I0
g572
tp2477
as(S'task'
p2478
S'killer'
p2479
tp2480
(lp2481
(I338
I5
I0
S'own'
p2482
tp2483
a(I407
I18
F-0.625
S'other'
p2484
tp2485
as(S'and'
p2486
S'virgin'
p2487
S'mobile'
p2488
tp2489
(lp2490
(I9
I3
I0
g510
tp2491
a(I15
I6
I0
g538
tp2492
a(I48
I1
F0.375
g542
tp2493
a(I130
I2
F-0.125
g546
tp2494
a(I217
I0
F-0.25
g512
tp2495
a(I225
I3
F0.5
g549
tp2496
a(I244
I1
F0.125
g551
tp2497
a(I244
I10
F-0.5
g553
tp2498
a(I244
I10
I0
g555
tp2499
a(I311
I37
I0
g514
tp2500
a(I335
I0
I0
g560
tp2501
a(I350
I2
F-0.625
g564
tp2502
a(I457
I3
I0
g572
tp2503
as(S'google'
p2504
S'play'
p2505
S'store'
p2506
tp2507
(lp2508
(I442
I1
F-0.25
S'google'
p2509
tp2510
as(S'people'
p2511
tp2512
(lp2513
(I29
I1
I0
S'many'
p2514
tp2515
a(I51
I6
F-0.875
S'trouble'
p2516
tp2517
a(I52
I13
F-0.625
S'other'
p2518
tp2519
a(I95
I17
I0
S'more'
p2520
tp2521
a(I100
I7
F-0.625
S'other'
p2522
tp2523
a(I107
I2
I0
S'most'
p2524
tp2525
a(I107
I3
I0
S'many'
p2526
tp2527
a(I109
I5
I0
S'many'
p2528
tp2529
a(I149
I53
I0
S'most'
p2530
tp2531
a(I149
I69
I0
S'more'
p2532
tp2533
a(I200
I2
I0
S'most'
p2534
tp2535
a(I225
I3
I0
S'few'
p2536
tp2537
a(I225
I3
F-0.625
S'other'
p2538
tp2539
a(I244
I5
I0
S'most'
p2540
tp2541
a(I255
I25
I0
S'most'
p2542
tp2543
a(I408
I10
I0
S'angry'
p2544
tp2545
a(I424
I4
F0.625
S'interested'
p2546
tp2547
a(I466
I9
I0
S'creative'
p2548
tp2549
as(S'evo'
p2550
g261
tp2551
(lp2552
(I3
I3
F0.375
S'honest'
p2553
tp2554
a(I3
I13
I0
g264
tp2555
a(I78
I20
I0
S'old'
p2556
tp2557
a(I149
I94
I0
g288
tp2558
a(I225
I3
I0
g292
tp2559
a(I336
I8
F0.375
S'extra'
p2560
tp2561
a(I336
I10
F-0.5
g102
tp2562
a(I472
I4
I0
S'fast'
p2563
tp2564
as(S'works'
p2565
tp2566
(lp2567
(I77
I0
I0
S'great'
p2568
tp2569
a(I104
I3
I0
S'great'
p2570
tp2571
a(I190
I7
I0
S'great'
p2572
tp2573
a(I210
I1
F0.875
S'nice'
p2574
tp2575
a(I241
I1
I0
S'great'
p2576
tp2577
a(I305
I4
I0
S'great'
p2578
tp2579
a(I361
I9
F1.0
S'better'
p2580
tp2581
a(I369
I5
I0
S'sturdy'
p2582
tp2583
a(I369
I5
F1.0
S'better'
p2584
tp2585
a(I399
I6
I0
S'great'
p2586
tp2587
a(I459
I0
I0
S'great'
p2588
tp2589
a(I465
I1
I0
S'real'
p2590
tp2591
as(S'think'
p2592
tp2593
(lp2594
(I451
I2
F0.875
S'important'
p2595
tp2596
as(g29
S'great'
p2597
S'price'
p2598
tp2599
(lp2600
(I13
I0
I0
g689
tp2601
a(I29
I10
F0.5
g624
tp2602
a(I41
I3
I0
g704
tp2603
a(I69
I2
I0
g710
tp2604
a(I127
I0
I0
g722
tp2605
a(I130
I2
I0
g724
tp2606
a(I132
I2
I0
g726
tp2607
a(I132
I2
F-0.25
g728
tp2608
a(I190
I7
I0
g735
tp2609
a(I201
I1
I0
g740
tp2610
a(I271
I34
F-0.5
g756
tp2611
a(I306
I9
I0
g758
tp2612
a(I354
I2
F0.5
g773
tp2613
a(I379
I0
I0
g779
tp2614
a(I402
I3
I0
g785
tp2615
a(I419
I0
F1.0
g787
tp2616
a(I445
I0
I0
g792
tp2617
a(I445
I0
F-0.375
g794
tp2618
a(I469
I0
I0
g800
tp2619
as(S'with'
p2620
S'virgin'
p2621
S'mobile'
p2622
tp2623
(lp2624
(I15
I6
I0
g538
tp2625
a(I22
I0
I0
g540
tp2626
a(I48
I1
F0.375
g542
tp2627
a(I130
I2
F-0.125
g546
tp2628
a(I225
I3
F0.5
g549
tp2629
a(I344
I0
I0
g562
tp2630
a(I350
I2
F-0.625
g564
tp2631
as(g29
S'virgin'
p2632
S'mobile'
p2633
tp2634
(lp2635
(I9
I3
I0
g510
tp2636
a(I15
I6
I0
g538
tp2637
a(I22
I0
I0
g540
tp2638
a(I48
I1
F0.375
g542
tp2639
a(I60
I1
I0
g544
tp2640
a(I130
I2
F-0.125
g546
tp2641
a(I217
I0
F-0.25
g512
tp2642
a(I225
I3
F0.5
g549
tp2643
a(I244
I1
F0.125
g551
tp2644
a(I244
I10
F-0.5
g553
tp2645
a(I244
I10
I0
g555
tp2646
a(I268
I0
F0.125
g557
tp2647
a(I311
I37
I0
g514
tp2648
a(I335
I0
I0
g560
tp2649
a(I344
I0
I0
g562
tp2650
a(I350
I2
F-0.625
g564
tp2651
a(I353
I2
F-0.625
g566
tp2652
a(I412
I3
F-0.625
g568
tp2653
a(I413
I1
F0.375
g570
tp2654
a(I457
I3
I0
g572
tp2655
as(S'better'
p2656
tp2657
(lp2658
(I87
I5
F-0.375
S'slant'
p2659
tp2660
a(I125
I2
F0.375
S'much'
p2661
tp2662
a(I316
I1
F0.375
S'much'
p2663
tp2664
a(I407
I17
F0.375
S'much'
p2665
tp2666
a(I455
I5
F0.375
S'much'
p2667
tp2668
as(S'device'
p2669
tp2670
(lp2671
(I3
I2
F-0.625
S'lighter'
p2672
tp2673
a(I3
I7
I0
S'most'
p2674
tp2675
a(I3
I7
I0
S'android'
p2676
tp2677
a(I37
I0
F0.625
S'superior'
p2678
tp2679
a(I72
I12
I0
S'more'
p2680
tp2681
a(I186
I0
I0
S'android'
p2682
tp2683
a(I200
I20
I0
S'great'
p2684
tp2685
a(I221
I5
F-0.75
S'difficult'
p2686
tp2687
a(I269
I5
I0
S'useful'
p2688
tp2689
a(I271
I34
I0
S'great'
p2690
tp2691
a(I286
I6
I0
S'most'
p2692
tp2693
a(I311
I1
I0
S'same'
p2694
tp2695
a(I466
I4
I0
S'such'
p2696
tp2697
a(I466
I4
F-0.375
S'small'
p2698
tp2699
a(I466
I6
F0.5
S'whole'
p2700
tp2701
a(I470
I6
F0.125
S'subject'
p2702
tp2703
a(I470
I6
F0.375
S'new'
p2704
tp2705
as(S'bells'
p2706
S'and'
p2707
S'whistles'
p2708
tp2709
(lp2710
(I407
I3
I0
S'more'
p2711
tp2712
as(S'call'
p2713
tp2714
(lp2715
(I63
I1
F0.125
S'first'
p2716
tp2717
a(I159
I3
F1.0
S'good'
p2718
tp2719
a(I216
I1
F-0.5
S'less'
p2720
tp2721
a(I300
I3
F0.125
S'pokey'
p2722
tp2723
a(I332
I1
F-0.375
S'simple'
p2724
tp2725
as(S'much'
p2726
S'better'
p2727
tp2728
(lp2729
(I125
I2
F0.375
g2661
tp2730
a(I316
I1
F0.375
g2663
tp2731
a(I407
I17
F0.375
g2665
tp2732
a(I455
I5
F0.375
g2667
tp2733
as(S'able'
p2734
S'to'
p2735
S'get'
p2736
tp2737
(lp2738
(I49
I10
F-0.625
S'bad'
p2739
tp2740
as(S'looking'
p2741
tp2742
(lp2743
(I56
I2
F0.875
S'nice'
p2744
tp2745
a(I116
I1
F0.625
S'industrial'
p2746
tp2747
a(I149
I79
F0.875
S'nice'
p2748
tp2749
a(I288
I4
I0
S'great'
p2750
tp2751
a(I290
I2
F1.0
S'good'
p2752
tp2753
a(I312
I12
F0.875
S'nice'
p2754
tp2755
a(I407
I0
I0
g1555
tp2756
as(S'form'
p2757
S'factor'
p2758
tp2759
(lp2760
(I313
I5
F0.875
S'happy'
p2761
tp2762
as(S'apps'
p2763
tp2764
(lp2765
(I15
I17
I0
S'large'
p2766
tp2767
a(I19
I2
F0.625
S'easier'
p2768
tp2769
a(I26
I1
F-0.625
S'other'
p2770
tp2771
a(I27
I5
I0
S'same'
p2772
tp2773
a(I29
I7
F-0.25
S'intensive'
p2774
tp2775
a(I35
I4
F0.125
S'able'
p2776
tp2777
a(I38
I0
F0.875
S'important'
p2778
tp2779
a(I52
I3
F0.625
S'easy'
p2780
tp2781
a(I52
I3
I0
S'most'
p2782
tp2783
a(I59
I1
F-0.125
S'slow'
p2784
tp2785
a(I64
I0
I0
S'great'
p2786
tp2787
a(I64
I0
F0.5
S'stylish'
p2788
tp2789
a(I76
I3
I0
S'few'
p2790
tp2791
a(I78
I7
I0
S'most'
p2792
tp2793
a(I78
I16
I0
S'multiple'
p2794
tp2795
a(I79
I4
I0
S'many'
p2796
tp2797
a(I82
I9
I0
S'many'
p2798
tp2799
a(I82
I9
F-0.5
S'sure'
p2800
tp2801
a(I87
I8
F-0.625
S'free'
p2802
tp2803
a(I95
I1
I0
S'third'
p2804
tp2805
a(I101
I1
F0.375
S'available'
p2806
tp2807
a(I101
I7
F0.375
S'available'
p2808
tp2809
a(I107
I3
I0
S'many'
p2810
tp2811
a(I112
I12
I0
S'few'
p2812
tp2813
a(I116
I12
F0.25
S'recent'
p2814
tp2815
a(I130
I9
I0
S'very'
p2816
tp2817
a(I130
I9
F-0.125
S'minimum'
p2818
tp2819
a(I149
I21
F-0.625
S'other'
p2820
tp2821
a(I149
I72
F1.0
S'good'
p2822
tp2823
a(I149
I81
I0
S'few'
p2824
tp2825
a(I149
I83
I0
S'more'
p2826
tp2827
a(I166
I3
F0.625
S'easy'
p2828
tp2829
a(I179
I2
I0
S'android'
p2830
tp2831
a(I189
I4
I0
S'most'
p2832
tp2833
a(I198
I3
I0
S'many'
p2834
tp2835
a(I198
I3
F0.5
S'desirable'
p2836
tp2837
a(I209
I19
I0
S'such'
p2838
tp2839
a(I212
I14
F-0.625
S'free'
p2840
tp2841
a(I239
I1
I0
S'great'
p2842
tp2843
a(I240
I1
I0
S'many'
p2844
tp2845
a(I271
I21
F-0.25
S'intensive'
p2846
tp2847
a(I273
I3
I0
S'many'
p2848
tp2849
a(I283
I2
F-0.125
S'slow'
p2850
tp2851
a(I297
I5
I0
S'many'
p2852
tp2853
a(I306
I8
I0
S'most'
p2854
tp2855
a(I314
I3
I0
S'different'
p2856
tp2857
a(I316
I16
F-0.5
S'certain'
p2858
tp2859
a(I318
I3
I0
S'many'
p2860
tp2861
a(I318
I3
I0
S'such'
p2862
tp2863
a(I318
I3
I0
S'many'
p2864
tp2865
a(I335
I4
I0
S'fast'
p2866
tp2867
a(I367
I5
I0
S'few'
p2868
tp2869
a(I375
I8
I0
S'own'
p2870
tp2871
a(I391
I4
I0
S'many'
p2872
tp2873
a(I391
I4
F0.375
S'available'
p2874
tp2875
a(I407
I2
F0.375
S'available'
p2876
tp2877
a(I407
I9
F-0.25
S'intensive'
p2878
tp2879
a(I426
I7
F0.125
S'essential'
p2880
tp2881
a(I456
I9
I0
S'many'
p2882
tp2883
a(I457
I7
I0
S'most'
p2884
tp2885
as(S'days'
p2886
tp2887
(lp2888
(I29
I10
F0.125
S'last'
p2889
tp2890
a(I29
I10
F-0.625
S'light'
p2891
tp2892
a(I52
I10
I0
S'more'
p2893
tp2894
a(I82
I17
I0
S'later'
p2895
tp2896
a(I95
I7
I0
S'few'
p2897
tp2898
a(I95
I8
I0
S'full'
p2899
tp2900
a(I95
I9
I0
S'few'
p2901
tp2902
a(I107
I3
I0
S'full'
p2903
tp2904
a(I143
I5
F0.125
S'solid'
p2905
tp2906
a(I220
I1
F0.875
S'happy'
p2907
tp2908
a(I271
I23
I0
S'big'
p2909
tp2910
a(I286
I9
I0
S'most'
p2911
tp2912
a(I307
I4
I0
S'full'
p2913
tp2914
a(I370
I0
I0
S'few'
p2915
tp2916
a(I370
I0
I0
S'later'
p2917
tp2918
a(I406
I4
I0
S'later'
p2919
tp2920
a(I408
I6
F0.375
S'new'
p2921
tp2922
a(I420
I8
I0
S'same'
p2923
tp2924
a(I439
I15
I0
S'later'
p2925
tp2926
a(I439
I17
I0
S'full'
p2927
tp2928
a(I441
I2
I0
S'few'
p2929
tp2930
a(I463
I8
F1.0
S'good'
p2931
tp2932
as(S't'
p2933
S"'s"
p2934
g29
S'great'
p2935
tp2936
(lp2937
(I412
I1
I0
g1714
tp2938
as(S'calls'
p2939
tp2940
(lp2941
(I15
I20
F0.5
S'clear'
p2942
tp2943
a(I35
I3
I0
S'few'
p2944
tp2945
a(I35
I3
F-0.25
S'dropped'
p2946
tp2947
a(I126
I2
F-0.125
S'public'
p2948
tp2949
a(I143
I5
I0
S'few'
p2950
tp2951
a(I198
I2
F0.5
S'clear'
p2952
tp2953
a(I198
I2
F0.5
S'accurate'
p2954
tp2955
a(I200
I11
I0
S'few'
p2956
tp2957
a(I213
I9
F0.5
S'uncommon'
p2958
tp2959
a(I235
I5
F-0.25
S'dropped'
p2960
tp2961
a(I349
I2
F0.5
S'clear'
p2962
tp2963
a(I407
I6
F-0.25
S'dropped'
p2964
tp2965
a(I442
I5
F1.0
S'better'
p2966
tp2967
a(I457
I11
F0.5
S'clear'
p2968
tp2969
a(I458
I6
I0
S'few'
p2970
tp2971
as.