(dp0
(S'service'
p1
tp2
(lp3
(I6
I15
I0
S'old'
p4
I16
tp5
as(S'battery'
p6
S'life'
p7
tp8
(lp9
(I0
I10
F0.125
S'rugged'
p10
I1
tp11
a(I0
I10
F-0.5
S'long'
p12
I1
tp13
a(I6
I11
F1.0
S'good'
p14
I1
tp15
a(I0
I10
F0.125
g10
I15
tp16
a(I0
I10
F-0.5
g12
I15
tp17
a(I1
I91
F0.625
S'hold'
p18
I15
tp19
a(I2
I74
I0
S'proprietary'
p20
I15
tp21
a(I2
I76
F0.5
S'careful'
p22
I15
tp23
as(S'double'
p24
S'minutes'
p25
tp26
(lp27
(I0
I37
F-0.375
S'double'
p28
I0
tp29
a(I1
I23
F-0.375
S'double'
p30
I0
tp31
a(I2
I36
F-0.375
S'double'
p32
I0
tp33
a(I3
I2
F-0.375
S'double'
p34
I0
tp35
a(I3
I2
I0
S'more'
p36
I0
tp37
a(I5
I49
F-0.375
S'double'
p38
I0
tp39
a(I5
I57
F-0.375
S'double'
p40
I0
tp41
a(I6
I6
F-0.375
S'double'
p42
I0
tp43
a(I6
I6
F0.875
S'nice'
p44
I0
tp45
as(S'minutes'
p46
S'for'
p47
S'life'
p48
tp49
(lp50
(I0
I37
F-0.375
g28
I0
tp51
a(I1
I23
F-0.375
g30
I0
tp52
a(I2
I36
F-0.375
g32
I0
tp53
a(I6
I11
F1.0
g14
I19
tp54
as(S'verizon'
p55
tp56
(lp57
(I0
I45
F0.5
S'compatible'
p58
I0
tp59
a(I0
I45
I0
S'great'
p60
I0
tp61
a(I1
I14
F-0.25
S'lower'
p62
I0
tp63
as(S'triple'
p64
S'minutes'
p65
tp66
(lp67
(I1
I37
I0
S'touchscreen'
p68
I0
tp69
as(S'tracfone'
p70
tp71
(lp72
(I0
I29
F0.625
S'easy'
p73
I0
tp74
a(I1
I39
F0.375
S'new'
p75
I0
tp76
a(I1
I93
F0.875
S'happy'
p77
I0
tp78
a(I5
I22
F0.875
S'happy'
p79
I0
tp80
a(I6
I28
F0.625
S'easiest'
p81
I0
tp82
as(S'sound'
p83
S'quality'
p84
tp85
(lp86
(I2
I1
F-0.875
S'hard'
p87
I0
tp88
a(I2
I68
I0
S'great'
p89
I0
tp90
a(I3
I24
I0
S'great'
p91
I0
tp92
a(I5
I39
F1.0
S'good'
p93
I0
tp94
as.