(dp0
(S'apple'
p1
S'store'
p2
tp3
(lp4
(I25
I1
I0
S'apple'
p5
tp6
as(S'problem'
p7
tp8
(lp9
(I17
I2
I0
S'only'
p10
tp11
a(I76
I5
I0
S'same'
p12
tp13
a(I126
I8
F1.0
S'good'
p14
tp15
a(I126
I8
F0.625
S'acceptable'
p16
tp17
as(S'thanks'
p18
tp19
(lp20
(I121
I0
F-0.75
S'ill'
p21
tp22
as(S'purchase'
p23
tp24
(lp25
(I37
I7
F0.875
S'happy'
p26
tp27
a(I98
I3
F0.875
S'happy'
p28
tp29
a(I100
I0
F1.0
S'good'
p30
tp31
a(I119
I13
F0.875
S'happy'
p32
tp33
a(I127
I5
F0.875
S'happy'
p34
tp35
a(I135
I1
I0
S'great'
p36
tp37
a(I153
I3
I0
S'entire'
p38
tp39
a(I153
I3
F-0.5
S'poor'
p40
tp41
a(I196
I2
I0
S'particular'
p42
tp43
as(S'happy'
p44
S'with'
p45
S'purchase'
p46
tp47
(lp48
(I37
I7
F0.875
g26
tp49
a(I98
I3
F0.875
g28
tp50
a(I119
I13
F0.875
g32
tp51
a(I127
I5
F0.875
g34
tp52
as(S'power'
p53
S'adapter'
p54
tp55
(lp56
(I162
I1
I0
S'cable'
p57
tp58
a(I162
I8
I0
S'cable'
p59
tp60
as(S'came'
p61
tp62
(lp63
(I91
I0
F-0.125
S'mine'
p64
tp65
as(S'money'
p66
tp67
(lp68
(I166
I5
F0.75
S'worth'
p69
tp70
as(S'condition'
p71
tp72
(lp73
(I0
I0
F0.875
S'happy'
p74
tp75
a(I20
I0
F1.0
S'good'
p76
tp77
a(I27
I2
I0
S'great'
p78
tp79
a(I38
I0
I0
S'great'
p80
tp81
a(I42
I0
I0
S'exact'
p82
tp83
a(I61
I0
F1.0
S'good'
p84
tp85
a(I67
I0
F1.0
S'good'
p86
tp87
a(I83
I0
F1.0
S'good'
p88
tp89
a(I91
I0
F0.5
S'true'
p90
tp91
a(I95
I1
F-0.125
S'overall'
p92
tp93
a(I95
I1
F1.0
S'good'
p94
tp95
a(I133
I0
F1.0
S'good'
p96
tp97
a(I136
I0
I0
S'exact'
p98
tp99
a(I166
I3
F-0.625
S'clean'
p100
tp101
a(I166
I3
F1.0
S'good'
p102
tp103
a(I167
I1
F0.375
S'new'
p104
tp105
a(I175
I2
F1.0
S'good'
p106
tp107
as(S'company'
p108
tp109
(lp110
(I4
I10
F-0.75
S'immoral'
p111
tp112
a(I69
I2
F0.5
S'told'
p113
tp114
a(I107
I0
I0
S'great'
p115
tp116
as(S'ross'
p117
S'cellular'
p118
tp119
(lp120
(I65
I5
I0
S'cellular'
p121
tp122
as(S'working'
p123
tp124
(lp125
(I79
I0
I0
S'great'
p126
tp127
a(I146
I2
F1.0
S'good'
p128
tp129
as(S'problems'
p130
tp131
(lp132
(I37
I1
F-0.25
S'past'
p133
tp134
a(I106
I1
F0.375
S'new'
p135
tp136
a(I106
I1
I0
S'few'
p137
tp138
a(I106
I1
F-0.625
S'other'
p139
tp140
as(S'back'
p141
tp142
(lp143
(I149
I7
I0
S'close'
p144
tp145
as(S'newer'
p146
S'version'
p147
tp148
(lp149
(I100
I0
F0.375
S'newer'
p150
tp151
a(I162
I6
F0.375
S'newer'
p152
tp153
a(I167
I0
F0.375
S'newer'
p154
tp155
as(S'straight'
p156
S'talk'
p157
tp158
(lp159
(I37
I6
F0.625
S'straight'
p160
tp161
a(I45
I0
F0.625
S'straight'
p162
tp163
a(I45
I6
F0.625
S'straight'
p164
tp165
a(I98
I2
F0.625
S'straight'
p166
tp167
a(I189
I2
F0.625
S'straight'
p168
tp169
as(S'apps'
p170
tp171
(lp172
(I78
I0
F-0.25
S'potential'
p173
tp174
a(I186
I0
I0
S'different'
p175
tp176
as(S'product'
p177
tp178
(lp179
(I1
I0
I0
S'great'
p180
tp181
a(I28
I0
F-0.875
S'inferior'
p182
tp183
a(I49
I2
F1.0
S'good'
p184
tp185
a(I63
I3
I0
S'great'
p186
tp187
a(I65
I0
F0.375
S'new'
p188
tp189
a(I70
I0
F0.25
S'sent'
p190
tp191
a(I131
I0
I0
S'great'
p192
tp193
a(I148
I0
I0
S'great'
p194
tp195
a(I155
I0
F1.0
S'good'
p196
tp197
a(I172
I1
F0.875
S'happy'
p198
tp199
as(S'mobile'
p200
tp201
(lp202
(I117
I0
F0.375
S'new'
p203
tp204
a(I117
I0
F0.375
S'new'
p205
tp206
as(S'apple'
p207
tp208
(lp209
(I54
I4
F0.125
S'able'
p210
tp211
a(I60
I0
I0
S'great'
p212
tp213
a(I94
I2
F0.125
S'first'
p214
tp215
as(S'price'
p216
tp217
(lp218
(I18
I8
F-0.25
S'low'
p219
tp220
a(I27
I1
I0
S'great'
p221
tp222
a(I38
I0
I0
S'great'
p223
tp224
a(I42
I2
F-0.625
S'other'
p225
tp226
a(I42
I2
F0.375
S'new'
p227
tp228
a(I44
I0
I0
S'high'
p229
tp230
a(I63
I1
I0
S'great'
p231
tp232
a(I99
I4
I0
S'great'
p233
tp234
a(I124
I2
I0
S'great'
p235
tp236
a(I127
I2
F1.0
S'good'
p237
tp238
a(I129
I0
F1.0
S'good'
p239
tp240
a(I136
I2
F-0.625
S'other'
p241
tp242
a(I136
I2
F0.375
S'new'
p243
tp244
a(I142
I0
I0
S'great'
p245
tp246
a(I154
I1
I0
S'great'
p247
tp248
a(I183
I0
I0
S'great'
p249
tp250
a(I198
I0
F1.0
S'good'
p251
tp252
as(S'factory'
p253
tp254
(lp255
(I50
I0
F0.625
S'perfect'
p256
tp257
a(I62
I0
F-0.375
S'black'
p258
tp259
a(I91
I1
F0.375
S'new'
p260
tp261
a(I102
I0
F0.125
S'able'
p262
tp263
a(I134
I0
F0.375
S'new'
p264
tp265
a(I180
I0
F-0.375
S'black'
p266
tp267
a(I193
I5
I0
S'plastic'
p268
tp269
as(S'seller'
p270
tp271
(lp272
(I18
I7
F0.125
S'enough'
p273
tp274
a(I18
I7
F1.0
S'good'
p275
tp276
a(I49
I2
F1.0
S'good'
p277
tp278
a(I58
I0
I0
S'different'
p279
tp280
a(I58
I6
I0
S'different'
p281
tp282
a(I158
I2
F-0.625
S'glad'
p283
tp284
as(S'works'
p285
tp286
(lp287
(I37
I5
I0
S'old'
p288
tp289
a(I97
I1
I0
S'great'
p290
tp291
a(I112
I0
F0.875
S'nicer'
p292
tp293
a(I112
I0
I0
S'great'
p294
tp295
a(I143
I2
F0.375
S'new'
p296
tp297
a(I170
I3
I0
S'cable'
p298
tp299
a(I177
I0
I0
S'great'
p300
tp301
a(I194
I0
I0
S'current'
p302
tp303
as(S'battery'
p304
tp305
(lp306
(I26
I0
F1.0
S'good'
p307
tp308
a(I45
I5
F1.0
S'good'
p309
tp310
a(I60
I0
F-0.875
S'trouble'
p311
tp312
a(I171
I0
I0
S'great'
p313
tp314
a(I197
I2
F1.0
S'good'
p315
tp316
as(S'good'
p317
S'condition'
p318
tp319
(lp320
(I20
I0
F1.0
g76
tp321
a(I61
I0
F1.0
g84
tp322
a(I67
I0
F1.0
g86
tp323
a(I83
I0
F1.0
g88
tp324
a(I95
I1
F-0.125
g92
tp325
a(I95
I1
F1.0
g94
tp326
a(I133
I0
F1.0
g96
tp327
a(I166
I3
F-0.625
g100
tp328
a(I166
I3
F1.0
g102
tp329
a(I175
I2
F1.0
g106
tp330
as(S'n'
p331
S'original'
p332
S'box'
p333
tp334
(lp335
(I47
I1
F0.25
S'original'
p336
tp337
a(I47
I1
F0.375
S'complete'
p338
tp339
a(I48
I0
F0.25
S'original'
p340
tp341
a(I54
I3
F0.25
S'original'
p342
tp343
a(I65
I1
F0.25
S'original'
p344
tp345
a(I81
I0
F0.25
S'original'
p346
tp347
a(I119
I0
F0.25
S'original'
p348
tp349
as(S'original'
p350
S'box'
p351
tp352
(lp353
(I47
I1
F0.25
g336
tp354
a(I47
I1
F0.375
g338
tp355
a(I48
I0
F0.25
g340
tp356
a(I54
I3
F0.25
g342
tp357
a(I65
I1
F0.25
g344
tp358
a(I81
I0
F0.25
g346
tp359
a(I119
I0
F0.25
g348
tp360
as(S'thing'
p361
tp362
(lp363
(I8
I0
I0
S'only'
p364
tp365
a(I45
I4
I0
S'only'
p366
tp367
a(I67
I4
I0
S'only'
p368
tp369
a(I111
I0
I0
S'same'
p370
tp371
a(I163
I0
F-0.75
S'stupid'
p372
tp373
a(I184
I0
F0.125
S'able'
p374
tp375
as(S'sim'
p376
S'card'
p377
tp378
(lp379
(I32
I0
F0.625
S'perfect'
p380
tp381
a(I140
I1
F0.125
S'valid'
p382
tp383
as(S'charge'
p384
tp385
(lp386
(I4
I2
F-0.5
S'long'
p387
tp388
a(I105
I1
I0
S'very'
p389
tp390
a(I105
I1
F0.125
S'first'
p391
tp392
as(S'serial'
p393
S'number'
p394
tp395
(lp396
(I114
I0
I0
S'serial'
p397
tp398
a(I114
I1
I0
S'serial'
p399
tp400
a(I114
I2
F-0.625
S'sorry'
p401
tp402
a(I114
I2
I0
S'serial'
p403
tp404
a(I114
I3
I0
S'serial'
p405
tp406
a(I114
I4
I0
S'serial'
p407
tp408
as(S'device'
p409
tp410
(lp411
(I13
I1
F-0.125
S'future'
p412
tp413
a(I13
I3
F0.375
S'new'
p414
tp415
a(I65
I4
F0.25
S'used'
p416
tp417
a(I65
I4
F0.375
S'new'
p418
tp419
a(I80
I0
F0.375
S'new'
p420
tp421
a(I119
I12
F0.625
S'pleasant'
p422
tp423
a(I178
I2
F-0.375
S'top'
p424
tp425
as(S'carrier'
p426
tp427
(lp428
(I14
I2
I0
S'specific'
p429
tp430
a(I33
I2
F0.375
S'new'
p431
tp432
as(S'gsm'
p433
S'carrier'
p434
tp435
(lp436
(I30
I0
F-0.25
S'ready'
p437
tp438
as(S'brand'
p439
tp440
(lp441
(I30
I6
I0
S'apple'
p442
tp443
a(I54
I3
F0.375
S'new'
p444
tp445
a(I63
I1
F0.375
S'new'
p446
tp447
a(I92
I0
F0.375
S'new'
p448
tp449
a(I102
I0
F0.375
S'new'
p450
tp451
a(I112
I1
F0.375
S'new'
p452
tp453
a(I146
I1
F0.375
S'new'
p454
tp455
a(I162
I3
F0.375
S'new'
p456
tp457
as(S'time'
p458
tp459
(lp460
(I52
I0
F-0.625
S'clean'
p461
tp462
a(I81
I2
F0.5
S'reasonable'
p463
tp464
a(I86
I2
F-0.5
S'long'
p465
tp466
a(I114
I5
F0.125
S'first'
p467
tp468
a(I156
I0
F0.125
S'first'
p469
tp470
a(I193
I5
F0.75
S'wonder'
p471
tp472
a(I193
I5
F0.375
S'new'
p473
tp474
as(S'fine'
p475
tp476
(lp477
(I100
I0
F1.0
S'good'
p478
tp479
a(I103
I1
I0
S'more'
p480
tp481
as(S'card'
p482
tp483
(lp484
(I32
I0
F0.625
g380
tp485
as(S'charger'
p486
tp487
(lp488
(I20
I2
F0.375
S'new'
p489
tp490
a(I55
I1
I0
S'cable'
p491
tp492
a(I127
I3
F0.625
S'perfect'
p493
tp494
as(S'great'
p495
S'price'
p496
tp497
(lp498
(I18
I8
F-0.25
g219
tp499
a(I27
I1
I0
g221
tp500
a(I38
I0
I0
g223
tp501
a(I42
I2
F-0.625
g225
tp502
a(I42
I2
F0.375
g227
tp503
a(I63
I1
I0
g231
tp504
a(I99
I4
I0
g233
tp505
a(I124
I2
I0
g235
tp506
a(I136
I2
F-0.625
g241
tp507
a(I136
I2
F0.375
g243
tp508
a(I142
I0
I0
g245
tp509
a(I154
I1
I0
g247
tp510
a(I183
I0
I0
g249
tp511
as(S'screen'
p512
tp513
(lp514
(I10
I4
I0
S'high'
p515
tp516
a(I18
I4
F-0.875
S'scratch'
p517
tp518
a(I18
I4
F-0.625
S'free'
p519
tp520
a(I45
I5
F0.375
S'new'
p521
tp522
a(I45
I5
F-0.625
S'light'
p523
tp524
a(I153
I2
F-0.75
S'dirty'
p525
tp526
a(I171
I0
I0
S'great'
p527
tp528
as(S'work'
p529
tp530
(lp531
(I120
I1
F0.375
S'new'
p532
tp533
as(S'a'
p534
S'great'
p535
S'price'
p536
tp537
(lp538
(I18
I8
F-0.25
g219
tp539
a(I27
I1
I0
g221
tp540
a(I38
I0
I0
g223
tp541
a(I42
I2
F-0.625
g225
tp542
a(I42
I2
F0.375
g227
tp543
a(I63
I1
I0
g231
tp544
a(I99
I4
I0
g233
tp545
a(I124
I2
I0
g235
tp546
a(I136
I2
F-0.625
g241
tp547
a(I136
I2
F0.375
g243
tp548
a(I142
I0
I0
g245
tp549
a(I154
I1
I0
g247
tp550
a(I183
I0
I0
g249
tp551
as(S'service'
p552
tp553
(lp554
(I86
I0
F0.625
S'easy'
p555
tp556
a(I150
I1
I0
S'cellular'
p557
tp558
a(I189
I2
I0
S'great'
p559
tp560
as.