(dp0
(S'n'
p1
S'an'
p2
S'area'
p3
tp4
(lp5
(I188
I0
I0
S'rural'
p6
tp7
a(I198
I10
I0
S'rural'
p8
tp9
a(I323
I5
I0
S'signal'
p10
tp11
a(I323
I5
I0
S'few'
p12
tp13
a(I335
I3
F-0.625
S'quiet'
p14
tp15
a(I335
I5
F0.5
S'clear'
p16
tp17
as(S'keyboard'
p18
tp19
(lp20
(I9
I3
F1.0
S'best'
p21
tp22
a(I11
I4
I0
S'physical'
p23
tp24
a(I24
I1
I0
S'great'
p25
tp26
a(I25
I2
F0.625
S'easy'
p27
tp28
a(I28
I1
F0.625
S'easy'
p29
tp30
a(I40
I32
F-0.125
S'slow'
p31
tp32
a(I58
I2
F0.875
S'nice'
p33
tp34
a(I60
I10
I0
S'handy'
p35
tp36
a(I77
I0
I0
S'full'
p37
tp38
a(I86
I0
F0.25
S'bigger'
p39
tp40
a(I87
I1
I0
S'great'
p41
tp42
a(I89
I0
I0
S'full'
p43
tp44
a(I102
I3
F0.625
S'easier'
p45
tp46
a(I107
I1
F-0.375
S'small'
p47
tp48
a(I107
I1
F-0.875
S'hard'
p49
tp50
a(I130
I2
I0
S'full'
p51
tp52
a(I135
I2
I0
S'plastic'
p53
tp54
a(I155
I4
I0
S'real'
p55
tp56
a(I172
I3
I0
S'full'
p57
tp58
a(I180
I5
F0.875
S'nice'
p59
tp60
a(I199
I5
I0
S'more'
p61
tp62
a(I200
I5
F0.25
S'responsive'
p63
tp64
a(I200
I5
F0.5
S'touch'
p65
tp66
a(I213
I2
F-0.375
S'manual'
p67
tp68
a(I213
I2
I0
S'microscopic'
p69
tp70
a(I222
I2
I0
S'large'
p71
tp72
a(I234
I4
I0
S'handy'
p73
tp74
a(I266
I2
I0
S'full'
p75
tp76
a(I275
I2
F-0.375
S'small'
p77
tp78
a(I275
I2
I0
S'great'
p79
tp80
a(I275
I2
F0.625
S'easy'
p81
tp82
a(I310
I1
I0
S'full'
p83
tp84
a(I323
I1
I0
S'real'
p85
tp86
a(I359
I1
I0
S'full'
p87
tp88
a(I359
I11
F0.625
S'easy'
p89
tp90
a(I361
I4
I0
S'different'
p91
tp92
as(S'keys'
p93
tp94
(lp95
(I88
I0
F-0.375
S'small'
p96
tp97
a(I164
I1
F0.625
S'easy'
p98
tp99
a(I164
I1
F-0.375
S'small'
p100
tp101
a(I194
I1
F0.625
S'easy'
p102
tp103
a(I215
I4
F0.25
S'larger'
p104
tp105
a(I215
I4
I0
S'numeric'
p106
tp107
a(I280
I6
F-0.25
S'white'
p108
tp109
a(I280
I7
F-0.375
S'black'
p110
tp111
a(I280
I7
F-0.75
S'impossible'
p112
tp113
a(I291
I3
F0.5
S'touch'
p114
tp115
a(I298
I2
F-0.375
S'small'
p116
tp117
a(I346
I13
F-0.375
S'small'
p118
tp119
as(S'nice'
p120
tp121
(lp122
(I267
I10
F-0.625
S'other'
p123
tp124
a(I283
I0
F-0.375
S'small'
p125
tp126
as(S'call'
p127
S'quality'
p128
tp129
(lp130
(I130
I7
F-0.5
S'poor'
p131
tp132
a(I139
I7
F-0.625
S'bad'
p133
tp134
a(I204
I3
F0.5
S'clear'
p135
tp136
a(I204
I3
I0
S'great'
p137
tp138
a(I230
I1
F0.625
S'easy'
p139
tp140
a(I230
I1
I0
S'great'
p141
tp142
a(I258
I4
F1.0
S'good'
p143
tp144
a(I295
I1
F-0.5
S'poor'
p145
tp146
a(I354
I5
F1.0
S'good'
p147
tp148
as(S'triple'
p149
S'minutes'
p150
tp151
(lp152
(I25
I2
F-0.25
S'triple'
p153
tp154
a(I34
I2
F0.375
S'extra'
p155
tp156
a(I37
I2
I0
S'handy'
p157
tp158
a(I54
I2
I0
S'great'
p159
tp160
a(I63
I4
F-0.75
S'wrong'
p161
tp162
a(I66
I4
F-0.25
S'triple'
p163
tp164
a(I90
I2
F-0.25
S'triple'
p165
tp166
a(I102
I2
F-0.25
S'triple'
p167
tp168
a(I110
I0
I0
S'great'
p169
tp170
a(I115
I2
F-0.25
S'triple'
p171
tp172
a(I121
I0
F-0.25
S'triple'
p173
tp174
a(I158
I1
F-0.25
S'triple'
p175
tp176
a(I159
I11
F-0.75
S'wrong'
p177
tp178
a(I159
I11
F-0.25
S'triple'
p179
tp180
a(I180
I8
F-0.625
S'free'
p181
tp182
a(I190
I1
F-0.25
S'triple'
p183
tp184
a(I195
I0
F-0.25
S'triple'
p185
tp186
a(I196
I6
I0
S'great'
p187
tp188
a(I202
I1
F0.875
S'nice'
p189
tp190
a(I215
I7
F-0.375
S'double'
p191
tp192
a(I235
I7
F-0.25
S'triple'
p193
tp194
a(I237
I3
I0
S'great'
p195
tp196
a(I251
I2
I0
S'great'
p197
tp198
a(I251
I2
F-0.375
S'additive'
p199
tp200
a(I266
I5
F-0.25
S'triple'
p201
tp202
a(I311
I1
F0.875
S'happy'
p203
tp204
a(I328
I0
F-0.25
S'cheapest'
p205
tp206
a(I341
I5
F1.0
S'good'
p207
tp208
a(I341
I5
F-0.5
S'long'
p209
tp210
a(I349
I2
F-0.25
S'triple'
p211
tp212
a(I355
I7
F-0.25
S'triple'
p213
tp214
as(S'cell'
p215
tp216
(lp217
(I1
I6
F0.375
S'newer'
p218
tp219
a(I18
I2
I0
S'sturdy'
p220
tp221
a(I71
I3
I0
S'big'
p222
tp223
a(I104
I0
I0
S'great'
p224
tp225
a(I128
I0
F0.375
S'new'
p226
tp227
a(I245
I2
I0
S'high'
p228
tp229
a(I280
I1
F-0.5
S'less'
p230
tp231
a(I299
I0
F0.125
S'first'
p232
tp233
a(I327
I2
I0
S'old'
p234
tp235
a(I339
I3
F-0.625
S'glad'
p236
tp237
a(I340
I0
F1.0
S'best'
p238
tp239
as(S'touch'
p240
tp241
(lp242
(I40
I3
F-0.5
S'sure'
p243
tp244
a(I56
I1
I0
S'luddite'
p245
tp246
a(I136
I1
F0.25
S'responsive'
p247
tp248
a(I221
I5
I0
S'resistive'
p249
tp250
a(I256
I4
I0
S'sensitive'
p251
tp252
a(I256
I4
F0.875
S'nice'
p253
tp254
a(I337
I6
F0.5
S'possible'
p255
tp256
a(I356
I0
F0.25
S'responsive'
p257
tp258
as(S'battery'
p259
S'life'
p260
tp261
(lp262
(I130
I8
F-0.75
S'short'
p263
tp264
a(I216
I2
I0
S'great'
p265
tp266
a(I288
I0
F1.0
S'good'
p267
tp268
a(I310
I10
F-0.5
S'less'
p269
tp270
a(I334
I1
F1.0
S'good'
p271
tp272
a(I354
I1
F1.0
S'better'
p273
tp274
a(I357
I2
F1.0
S'good'
p275
tp276
as(S'qwerty'
p277
S'keyboard'
p278
tp279
(lp280
(I40
I32
F-0.125
g31
tp281
a(I40
I33
F-0.5
S'sure'
p282
tp283
a(I40
I33
F-0.875
S'hardest'
p284
tp285
a(I204
I4
F0.625
S'easy'
p286
tp287
a(I228
I10
F0.625
S'easy'
p288
tp289
a(I328
I3
F0.5
S'true'
p290
tp291
as(S'quality'
p292
tp293
(lp294
(I0
I2
F-0.25
S'lower'
p295
tp296
a(I51
I4
F-0.125
S'overall'
p297
tp298
a(I51
I4
I0
S'great'
p299
tp300
a(I65
I3
F1.0
S'best'
p301
tp302
a(I108
I0
I0
S'high'
p303
tp304
a(I139
I7
F-0.625
g133
tp305
a(I200
I6
F1.0
S'good'
p306
tp307
a(I204
I3
I0
g137
tp308
a(I230
I1
I0
g141
tp309
a(I237
I5
I0
S'high'
p310
tp311
a(I258
I4
F1.0
g143
tp312
a(I295
I1
F-0.5
g145
tp313
a(I297
I7
I0
S'high'
p314
tp315
a(I297
I7
I0
S'full'
p316
tp317
a(I321
I4
F1.0
S'good'
p318
tp319
a(I354
I5
F1.0
g147
tp320
a(I359
I5
F-0.625
S'bad'
p321
tp322
as(S'touchscreen'
p323
tp324
(lp325
(I40
I6
F-0.75
S'difficult'
p326
tp327
a(I43
I1
I0
S'basic'
p328
tp329
a(I155
I2
F-0.125
S'slow'
p330
tp331
a(I155
I3
F0.25
S'responsive'
p332
tp333
a(I180
I5
F0.25
S'larger'
p334
tp335
as(S'verizon'
p336
tp337
(lp338
(I204
I4
F-0.5
S'sure'
p339
tp340
a(I235
I4
F0.125
S'able'
p341
tp342
a(I354
I7
I0
S'more'
p343
tp344
as(S'sd'
p345
S'card'
p346
tp347
(lp348
(I58
I4
F0.625
S'easy'
p349
tp350
a(I145
I1
I0
S'great'
p351
tp352
a(I280
I46
F0.875
S'music'
p353
tp354
a(I298
I3
F0.875
S'music'
p355
tp356
a(I306
I8
I0
S'sd'
p357
tp358
as(S'sound'
p359
tp360
(lp361
(I15
I2
F1.0
S'best'
p362
tp363
a(I40
I24
F-0.375
S'manual'
p364
tp365
a(I147
I4
F1.0
S'good'
p366
tp367
a(I161
I3
F1.0
S'good'
p368
tp369
a(I161
I3
F1.0
S'better'
p370
tp371
a(I220
I5
F1.0
S'good'
p372
tp373
a(I304
I1
F1.0
S'good'
p374
tp375
a(I349
I1
F0.5
S'clear'
p376
tp377
a(I359
I3
F0.875
S'happy'
p378
tp379
as(S'triple'
p380
tp381
(lp382
(I37
I2
I0
g157
tp383
a(I63
I4
F-0.75
g161
tp384
a(I202
I1
F0.875
g189
tp385
a(I276
I0
I0
S'great'
p386
tp387
a(I311
I1
F0.875
g203
tp388
as(S'and'
p389
S'triple'
p390
S'minutes'
p391
tp392
(lp393
(I25
I2
F-0.25
g153
tp394
a(I34
I2
F0.375
g155
tp395
a(I37
I2
I0
g157
tp396
a(I63
I4
F-0.75
g161
tp397
a(I102
I2
F-0.25
g167
tp398
a(I110
I0
I0
g169
tp399
a(I115
I2
F-0.25
g171
tp400
a(I121
I0
F-0.25
g173
tp401
a(I159
I11
F-0.75
g177
tp402
a(I159
I11
F-0.25
g179
tp403
a(I180
I8
F-0.625
g181
tp404
a(I190
I1
F-0.25
g183
tp405
a(I195
I0
F-0.25
g185
tp406
a(I266
I5
F-0.25
g201
tp407
a(I328
I0
F-0.25
g205
tp408
a(I341
I5
F1.0
g207
tp409
a(I341
I5
F-0.5
g209
tp410
a(I349
I2
F-0.25
g211
tp411
as(S'love'
p412
S'triple'
p413
S'minutes'
p414
tp415
(lp416
(I102
I2
F-0.25
g167
tp417
a(I121
I0
F-0.25
g173
tp418
a(I190
I1
F-0.25
g183
tp419
a(I266
I5
F-0.25
g201
tp420
as(S'with'
p421
S'triple'
p422
S'minutes'
p423
tp424
(lp425
(I25
I2
F-0.25
g153
tp426
a(I63
I4
F-0.75
g161
tp427
a(I66
I4
F-0.25
g163
tp428
a(I90
I2
F-0.25
g165
tp429
a(I115
I2
F-0.25
g171
tp430
a(I121
I0
F-0.25
g173
tp431
a(I158
I1
F-0.25
g175
tp432
a(I159
I11
F-0.75
g177
tp433
a(I159
I11
F-0.25
g179
tp434
a(I195
I0
F-0.25
g185
tp435
a(I235
I7
F-0.25
g193
tp436
a(I266
I5
F-0.25
g201
tp437
a(I311
I1
F0.875
g203
tp438
a(I349
I2
F-0.25
g211
tp439
as(S'card'
p440
tp441
(lp442
(I42
I2
F-0.625
S'bad'
p443
tp444
a(I58
I4
F0.625
g349
tp445
a(I132
I1
F-0.625
S'bad'
p446
tp447
a(I145
I1
I0
g351
tp448
a(I280
I46
F0.875
g353
tp449
a(I298
I3
F0.875
g355
tp450
a(I306
I8
I0
g357
tp451
as(S'wish'
p452
tp453
(lp454
(I300
I0
I0
S'android'
p455
tp456
as(S'love'
p457
tp458
(lp459
(I157
I1
F1.0
S'love'
p460
tp461
a(I157
I7
F1.0
S'love'
p462
tp463
as(S'problem'
p464
tp465
(lp466
(I8
I0
I0
S'same'
p467
tp468
a(I84
I1
I0
S'big'
p469
tp470
a(I159
I0
I0
S'only'
p471
tp472
a(I285
I1
I0
S'only'
p473
tp474
a(I297
I8
F0.25
S'read'
p475
tp476
a(I297
I8
F-0.375
S'manual'
p477
tp478
a(I313
I3
I0
S'only'
p479
tp480
a(I332
I6
I0
S'remedy'
p481
tp482
a(I332
I8
I0
S'only'
p483
tp484
as(S'text'
p485
tp486
(lp487
(I39
I1
F-0.25
S'past'
p488
tp489
a(I40
I9
F0.375
S'new'
p490
tp491
a(I40
I19
F-0.5
S'regular'
p492
tp493
a(I60
I3
I0
S'few'
p494
tp495
a(I346
I4
F0.125
S'first'
p496
tp497
a(I346
I4
F0.375
S'new'
p498
tp499
a(I346
I4
I0
S'large'
p500
tp501
a(I346
I4
I0
S'sized'
p502
tp503
as(S'price'
p504
tp505
(lp506
(I0
I1
F1.0
S'good'
p507
tp508
a(I11
I1
I0
S'great'
p509
tp510
a(I12
I1
F0.625
S'easy'
p511
tp512
a(I19
I0
I0
S'great'
p513
tp514
a(I20
I0
I0
S'least'
p515
tp516
a(I27
I2
F0.375
S'much'
p517
tp518
a(I29
I0
F0.5
S'reasonable'
p519
tp520
a(I52
I1
F1.0
S'good'
p521
tp522
a(I68
I0
I0
S'high'
p523
tp524
a(I80
I4
F1.0
S'good'
p525
tp526
a(I83
I0
I0
S'great'
p527
tp528
a(I89
I0
F1.0
S'good'
p529
tp530
a(I108
I0
F0.5
S'reasonable'
p531
tp532
a(I129
I1
I0
S'great'
p533
tp534
a(I129
I1
F0.875
S'happy'
p535
tp536
a(I147
I0
I0
S'great'
p537
tp538
a(I152
I0
I0
S'great'
p539
tp540
a(I153
I1
F0.5
S'reasonable'
p541
tp542
a(I160
I1
I0
S'great'
p543
tp544
a(I167
I1
F-0.25
S'low'
p545
tp546
a(I197
I1
I0
S'great'
p547
tp548
a(I207
I1
F0.5
S'reasonable'
p549
tp550
a(I239
I1
F1.0
S'best'
p551
tp552
a(I242
I7
I0
S'great'
p553
tp554
a(I267
I9
F0.75
S'worth'
p555
tp556
a(I316
I8
I0
S'great'
p557
tp558
a(I316
I10
I0
S'great'
p559
tp560
a(I322
I3
F1.0
S'good'
p561
tp562
a(I327
I0
F0.375
S'reflective'
p563
tp564
a(I339
I1
I0
S'great'
p565
tp566
a(I345
I0
I0
S'great'
p567
tp568
a(I353
I0
F1.0
S'good'
p569
tp570
as(S'service'
p571
tp572
(lp573
(I66
I0
F0.875
S'happy'
p574
tp575
a(I93
I0
I0
S'great'
p576
tp577
a(I114
I4
F0.5
S'told'
p578
tp579
a(I133
I1
F1.0
S'good'
p580
tp581
a(I145
I2
F1.0
S'best'
p582
tp583
a(I160
I2
F1.0
S'best'
p584
tp585
a(I219
I0
I0
S'real'
p586
tp587
a(I219
I0
F1.0
S'good'
p588
tp589
a(I221
I7
F-0.625
S'sorry'
p590
tp591
a(I226
I0
F1.0
S'best'
p592
tp593
a(I236
I2
F0.375
S'available'
p594
tp595
a(I259
I1
F1.0
S'good'
p596
tp597
a(I303
I0
F0.75
S'gave'
p598
tp599
a(I303
I0
F-0.5
S'poor'
p600
tp601
a(I303
I0
F0.625
S'superior'
p602
tp603
a(I332
I6
F0.25
S'helpful'
p604
tp605
a(I346
I3
F0.875
S'happy'
p606
tp607
as(S'getting'
p608
tp609
(lp610
(I60
I4
F-0.5
S'sure'
p611
tp612
a(I199
I2
F-0.875
S'trouble'
p613
tp614
a(I258
I6
F-0.75
S'little'
p615
tp616
as(S'number'
p617
tp618
(lp619
(I7
I1
F0.125
S'able'
p620
tp621
a(I7
I1
I0
S'old'
p622
tp623
a(I20
I1
F0.625
S'easy'
p624
tp625
a(I20
I1
I0
S'crystal'
p626
tp627
a(I22
I1
I0
S'serial'
p628
tp629
a(I26
I2
I0
S'quick'
p630
tp631
a(I59
I0
F-0.5
S'open'
p632
tp633
a(I119
I1
I0
S'next'
p634
tp635
a(I119
I2
I0
S'next'
p636
tp637
a(I143
I5
F-0.75
S'wrong'
p638
tp639
a(I143
I6
F-0.75
S'wrong'
p640
tp641
a(I210
I2
I0
S'serial'
p642
tp643
a(I242
I5
I0
S'dial'
p644
tp645
a(I242
I5
F0.5
S'second'
p646
tp647
a(I263
I1
F0.125
S'first'
p648
tp649
a(I263
I1
I0
S'limited'
p650
tp651
a(I280
I5
F0.125
S'first'
p652
tp653
a(I280
I5
F-0.5
S'separate'
p654
tp655
a(I285
I1
I0
S'old'
p656
tp657
a(I291
I3
I0
S'physical'
p658
tp659
a(I291
I4
I0
S'physical'
p660
tp661
a(I315
I1
I0
S'serial'
p662
tp663
a(I324
I2
F-0.5
S'certain'
p664
tp665
as(S'much'
p666
S'easier'
p667
tp668
(lp669
(I26
I1
F0.375
S'much'
p670
tp671
a(I267
I4
F0.375
S'much'
p672
tp673
as(S'make'
p674
S'a'
p675
S'call'
p676
tp677
(lp678
(I56
I2
I0
S'sensitive'
p679
tp680
a(I56
I2
F-0.75
S'difficult'
p681
tp682
a(I335
I5
I0
S'caller'
p683
tp684
a(I335
I5
I0
S'id'
p685
tp686
as(S'tracfone'
p687
tp688
(lp689
(I1
I4
I0
S'old'
p690
tp691
a(I15
I1
F1.0
S'best'
p692
tp693
a(I22
I0
F0.125
S'able'
p694
tp695
a(I25
I3
F-0.625
S'other'
p696
tp697
a(I40
I25
F-0.625
S'other'
p698
tp699
a(I49
I0
I0
S'old'
p700
tp701
a(I108
I1
I0
S'old'
p702
tp703
a(I110
I0
I0
S'net'
p704
tp705
a(I114
I1
F-0.25
S'inexpensive'
p706
tp707
a(I131
I0
F1.0
S'best'
p708
tp709
a(I137
I2
F1.0
S'best'
p710
tp711
a(I147
I1
I0
S'old'
p712
tp713
a(I147
I2
I0
S'great'
p714
tp715
a(I175
I1
F-0.125
S'mine'
p716
tp717
a(I191
I3
F-0.625
S'other'
p718
tp719
a(I199
I0
F-0.625
S'other'
p720
tp721
a(I220
I4
F0.125
S'above'
p722
tp723
a(I224
I0
I0
S'great'
p724
tp725
a(I234
I1
F0.125
S'first'
p726
tp727
a(I240
I0
I0
S'old'
p728
tp729
a(I253
I1
F0.375
S'much'
p730
tp731
a(I253
I2
I0
S'wish'
p732
tp733
a(I280
I0
F0.375
S'new'
p734
tp735
a(I280
I52
I0
S'coolest'
p736
tp737
a(I280
I53
I0
S'dial'
p738
tp739
a(I303
I0
F1.0
S'best'
p740
tp741
a(I325
I0
F-0.375
S'simple'
p742
tp743
a(I342
I0
I0
S'closer'
p744
tp745
as(S'features'
p746
tp747
(lp748
(I0
I3
I0
S'few'
p749
tp750
a(I16
I0
I0
S'great'
p751
tp752
a(I63
I4
I0
S'many'
p753
tp754
a(I64
I4
F0.125
S'practical'
p755
tp756
a(I64
I5
F0.5
S'advanced'
p757
tp758
a(I94
I1
I0
S'many'
p759
tp760
a(I94
I1
I0
S'great'
p761
tp762
a(I101
I0
F0.5
S'obvious'
p763
tp764
a(I134
I1
I0
S'great'
p765
tp766
a(I180
I3
F0.875
S'nice'
p767
tp768
a(I199
I4
I0
S'many'
p769
tp770
a(I205
I0
F0.625
S'easy'
p771
tp772
a(I237
I1
F-0.25
S'low'
p773
tp774
a(I252
I1
I0
S'many'
p775
tp776
a(I255
I2
I0
S'many'
p777
tp778
a(I255
I2
I0
S'great'
p779
tp780
a(I261
I1
F0.375
S'much'
p781
tp782
a(I280
I3
I0
S'great'
p783
tp784
a(I281
I2
I0
S'basic'
p785
tp786
a(I291
I6
F1.0
S'good'
p787
tp788
a(I316
I10
I0
S'great'
p789
tp790
a(I337
I0
I0
S'many'
p791
tp792
a(I352
I1
F1.0
S'good'
p793
tp794
as(S'slider'
p795
tp796
(lp797
(I51
I0
I0
S'adamant'
p798
tp799
a(I81
I0
F1.0
S'good'
p800
tp801
a(I139
I0
F0.875
S'nice'
p802
tp803
a(I208
I1
F0.625
S'easy'
p804
tp805
a(I214
I1
I0
S'older'
p806
tp807
a(I280
I3
F0.25
S'bigger'
p808
tp809
a(I280
I3
I0
S'more'
p810
tp811
a(I280
I3
I0
S'substantial'
p812
tp813
a(I323
I6
F0.375
S'much'
p814
tp815
as(S'voice'
p816
tp817
(lp818
(I80
I2
F0.5
S'clear'
p819
tp820
a(I101
I2
I0
S'android'
p821
tp822
a(I131
I0
I0
S'great'
p823
tp824
a(I209
I10
I0
S'specific'
p825
tp826
a(I299
I3
F0.5
S'touch'
p827
tp828
as(S'to'
p829
S'go'
p830
S'back'
p831
tp832
(lp833
(I351
I1
I0
S'old'
p834
tp835
as(S'tracfone'
p836
S'web'
p837
S'site'
p838
tp839
(lp840
(I280
I0
F0.375
g734
tp841
as(S'network'
p842
tp843
(lp844
(I280
I55
F0.5
S'satisfied'
p845
tp846
as(S'thing'
p847
tp848
(lp849
(I84
I1
I0
S'only'
p850
tp851
a(I84
I2
F-0.75
S'wrong'
p852
tp853
a(I96
I3
I0
S'same'
p854
tp855
a(I141
I9
F0.25
S'helpful'
p856
tp857
a(I180
I8
F0.5
S'whole'
p858
tp859
a(I198
I3
F-0.875
S'negative'
p860
tp861
a(I217
I2
F0.25
S'favorite'
p862
tp863
a(I256
I7
F1.0
S'best'
p864
tp865
a(I257
I3
F-0.75
S'wrong'
p866
tp867
a(I280
I20
F0.625
S'easier'
p868
tp869
a(I280
I20
F-0.75
S'wrong'
p870
tp871
a(I296
I7
F-0.625
S'other'
p872
tp873
a(I302
I1
F1.0
S'best'
p874
tp875
a(I329
I8
I0
S'more'
p876
tp877
a(I335
I0
I0
S'only'
p878
tp879
as(S'area'
p880
tp881
(lp882
(I165
I0
I0
S'rural'
p883
tp884
a(I188
I0
I0
g6
tp885
a(I198
I10
I0
g8
tp886
a(I316
I1
I0
S'rural'
p887
tp888
a(I323
I5
I0
g10
tp889
a(I323
I5
I0
g12
tp890
a(I335
I3
F-0.625
g14
tp891
a(I335
I5
F0.5
g16
tp892
as(S'reception'
p893
tp894
(lp895
(I15
I2
F1.0
S'best'
p896
tp897
a(I59
I5
F0.5
S'possible'
p898
tp899
a(I59
I5
F-0.25
S'low'
p900
tp901
a(I60
I9
F0.5
S'clear'
p902
tp903
a(I72
I1
F1.0
S'good'
p904
tp905
a(I76
I1
I0
S'great'
p906
tp907
a(I135
I1
I0
S'great'
p908
tp909
a(I177
I2
I0
S'same'
p910
tp911
a(I181
I3
F-0.625
S'bad'
p912
tp913
a(I262
I1
F1.0
S'good'
p914
tp915
a(I264
I1
F1.0
S'good'
p916
tp917
a(I267
I1
F1.0
S'better'
p918
tp919
a(I269
I1
F1.0
S'good'
p920
tp921
a(I321
I4
F-0.125
S'overall'
p922
tp923
a(I321
I4
I0
S'great'
p924
tp925
a(I330
I0
F1.0
S'best'
p926
tp927
a(I341
I5
I0
S'large'
p928
tp929
a(I350
I6
I0
S'great'
p930
tp931
as(S'micro'
p932
S'sd'
p933
S'card'
p934
tp935
(lp936
(I58
I4
F0.625
g349
tp937
a(I136
I2
F0.625
S'removable'
p938
tp939
a(I280
I46
F0.875
g353
tp940
a(I298
I3
F0.875
g355
tp941
as(S'make'
p942
tp943
(lp944
(I221
I1
F-0.5
S'less'
p945
tp946
as(S'work'
p947
tp948
(lp949
(I246
I1
I0
S'great'
p950
tp951
as(S'and'
p952
S'touch'
p953
S'screen'
p954
tp955
(lp956
(I15
I2
F0.5
S'touch'
p957
tp958
a(I19
I0
F0.5
S'touch'
p959
tp960
a(I30
I2
F0.5
S'touch'
p961
tp962
a(I84
I1
F0.5
S'touch'
p963
tp964
a(I84
I1
F-0.125
S'slow'
p965
tp966
a(I84
I1
F-0.625
S'inaccurate'
p967
tp968
a(I114
I1
F0.5
S'touch'
p969
tp970
a(I130
I2
F0.5
S'touch'
p971
tp972
a(I162
I2
F0.625
S'easy'
p973
tp974
a(I162
I2
F0.625
S'easy'
p975
tp976
a(I167
I1
F-0.875
S'hard'
p977
tp978
a(I172
I3
F0.5
S'touch'
p979
tp980
a(I198
I3
F0.5
S'touch'
p981
tp982
a(I220
I2
F0.5
S'touch'
p983
tp984
a(I235
I10
F0.5
S'touch'
p985
tp986
a(I244
I2
F0.5
S'touch'
p987
tp988
a(I280
I9
F0.5
S'touch'
p989
tp990
a(I281
I1
F0.5
S'touch'
p991
tp992
a(I286
I3
F0.5
S'touch'
p993
tp994
a(I291
I1
I0
S'large'
p995
tp996
a(I291
I1
I0
S'handy'
p997
tp998
a(I291
I4
F0.5
S'touch'
p999
tp1000
a(I291
I7
F0.5
S'touch'
p1001
tp1002
a(I291
I7
F-0.375
S'small'
p1003
tp1004
a(I291
I8
F0.625
S'easy'
p1005
tp1006
a(I291
I8
F0.5
S'touch'
p1007
tp1008
a(I291
I8
F0.5
S'true'
p1009
tp1010
a(I291
I8
F-0.375
S'small'
p1011
tp1012
a(I291
I8
I0
S'automatic'
p1013
tp1014
a(I313
I0
F0.5
S'touch'
p1015
tp1016
a(I315
I0
F0.5
S'touch'
p1017
tp1018
a(I328
I3
F0.5
S'touch'
p1019
tp1020
a(I357
I2
F0.5
S'touch'
p1021
tp1022
a(I357
I2
F0.25
S'responsive'
p1023
tp1024
a(I359
I1
F0.5
S'touch'
p1025
tp1026
as(S'minutes'
p1027
tp1028
(lp1029
(I25
I2
F-0.25
g153
tp1030
a(I34
I2
F0.375
g155
tp1031
a(I54
I2
I0
g159
tp1032
a(I66
I4
F-0.25
g163
tp1033
a(I90
I2
F-0.25
g165
tp1034
a(I102
I2
F-0.25
g167
tp1035
a(I109
I1
F0.125
S'gobble'
p1036
tp1037
a(I110
I0
I0
g169
tp1038
a(I115
I2
F-0.25
g171
tp1039
a(I121
I0
F-0.25
g173
tp1040
a(I125
I0
F0.375
S'available'
p1041
tp1042
a(I158
I1
F-0.25
g175
tp1043
a(I159
I11
F-0.75
g177
tp1044
a(I159
I11
F-0.25
g179
tp1045
a(I173
I6
F0.25
S'used'
p1046
tp1047
a(I180
I8
F-0.625
g181
tp1048
a(I187
I1
I0
S'promotional'
p1049
tp1050
a(I190
I1
F-0.25
g183
tp1051
a(I195
I0
F-0.25
g185
tp1052
a(I196
I6
I0
g187
tp1053
a(I215
I7
F-0.375
g191
tp1054
a(I235
I7
F-0.25
g193
tp1055
a(I236
I5
I0
S'prepaid'
p1056
tp1057
a(I237
I3
I0
g195
tp1058
a(I251
I2
I0
g197
tp1059
a(I251
I2
F-0.375
g199
tp1060
a(I263
I5
I0
S'many'
p1061
tp1062
a(I264
I2
I0
S'more'
p1063
tp1064
a(I266
I5
F-0.25
g201
tp1065
a(I281
I5
I0
S'more'
p1066
tp1067
a(I324
I1
I0
S'least'
p1068
tp1069
a(I324
I1
F0.75
S'give'
p1070
tp1071
a(I328
I0
F-0.25
g205
tp1072
a(I341
I5
F1.0
g207
tp1073
a(I341
I5
F-0.5
g209
tp1074
a(I346
I8
I0
S'many'
p1075
tp1076
a(I347
I3
F0.5
S'told'
p1077
tp1078
a(I349
I2
F-0.25
g211
tp1079
a(I355
I7
F-0.25
g213
tp1080
as(S'easier'
p1081
tp1082
(lp1083
(I26
I1
F0.375
g670
tp1084
a(I267
I4
F0.375
g672
tp1085
as(S'talk'
p1086
tp1087
(lp1088
(I4
I1
I0
S'physical'
p1089
tp1090
a(I17
I1
F0.625
S'easy'
p1091
tp1092
a(I17
I1
F1.0
S'best'
p1093
tp1094
a(I17
I1
F0.625
S'straight'
p1095
tp1096
a(I22
I1
F0.625
S'straight'
p1097
tp1098
a(I232
I0
F0.625
S'straight'
p1099
tp1100
a(I232
I1
F0.625
S'straight'
p1101
tp1102
a(I232
I3
F0.625
S'straight'
p1103
tp1104
a(I232
I4
F0.625
S'straight'
p1105
tp1106
a(I232
I7
F0.625
S'straight'
p1107
tp1108
a(I326
I0
F0.625
S'straight'
p1109
tp1110
a(I327
I6
F0.625
S'straight'
p1111
tp1112
as(S'back'
p1113
tp1114
(lp1115
(I351
I1
I0
g834
tp1116
as(S'minutes'
p1117
S'for'
p1118
S'life'
p1119
tp1120
(lp1121
(I66
I4
F-0.25
g163
tp1122
a(I328
I0
F-0.25
g205
tp1123
a(I341
I5
F1.0
g207
tp1124
a(I341
I5
F-0.5
g209
tp1125
as(S'straight'
p1126
S'talk'
p1127
tp1128
(lp1129
(I17
I1
F0.625
g1091
tp1130
a(I17
I1
F1.0
g1093
tp1131
a(I17
I1
F0.625
g1095
tp1132
a(I22
I1
F0.625
g1097
tp1133
a(I232
I0
F0.625
g1099
tp1134
a(I232
I1
F0.625
g1101
tp1135
a(I232
I3
F0.625
g1103
tp1136
a(I232
I4
I0
S'own'
p1137
tp1138
a(I232
I4
F0.625
g1105
tp1139
a(I232
I7
F0.625
g1107
tp1140
a(I326
I0
F0.625
g1109
tp1141
a(I327
I6
F0.625
g1111
tp1142
as(g675
S'touch'
p1143
S'screen'
p1144
tp1145
(lp1146
(I4
I0
F0.5
S'touch'
p1147
tp1148
a(I15
I2
F0.5
g957
tp1149
a(I19
I0
F0.5
g959
tp1150
a(I29
I0
F0.5
S'touch'
p1151
tp1152
a(I30
I2
F0.5
g961
tp1153
a(I40
I2
F0.625
S'kind'
p1154
tp1155
a(I40
I2
F-0.375
S'small'
p1156
tp1157
a(I40
I4
F0.25
S'responsive'
p1158
tp1159
a(I60
I2
F0.5
S'touch'
p1160
tp1161
a(I84
I1
F0.5
g963
tp1162
a(I84
I1
F-0.125
g965
tp1163
a(I84
I1
F-0.625
g967
tp1164
a(I108
I1
F0.5
S'touch'
p1165
tp1166
a(I114
I1
F0.5
g969
tp1167
a(I130
I2
F0.5
g971
tp1168
a(I138
I5
F0.5
S'touch'
p1169
tp1170
a(I159
I9
F0.5
S'touch'
p1171
tp1172
a(I162
I2
F0.625
g973
tp1173
a(I162
I2
F0.625
g975
tp1174
a(I167
I1
F-0.875
g977
tp1175
a(I172
I3
F0.5
g979
tp1176
a(I198
I2
F0.5
S'touch'
p1177
tp1178
a(I198
I3
F0.5
g981
tp1179
a(I220
I2
F0.5
g983
tp1180
a(I221
I4
I0
S'wish'
p1181
tp1182
a(I221
I4
F0.5
S'touch'
p1183
tp1184
a(I221
I5
I0
g249
tp1185
a(I221
I5
I0
S'capacitive'
p1186
tp1187
a(I222
I4
F0.5
S'touch'
p1188
tp1189
a(I222
I4
I0
S'sensitive'
p1190
tp1191
a(I235
I10
F0.5
g985
tp1192
a(I244
I2
F0.5
g987
tp1193
a(I247
I0
F-0.625
S'rough'
p1194
tp1195
a(I256
I4
I0
g251
tp1196
a(I256
I4
F0.875
g253
tp1197
a(I280
I9
F0.5
g989
tp1198
a(I281
I1
F0.5
g991
tp1199
a(I283
I0
F1.0
S'best'
p1200
tp1201
a(I286
I3
F0.5
g993
tp1202
a(I291
I1
I0
g995
tp1203
a(I291
I1
I0
g997
tp1204
a(I291
I3
F-0.375
S'smaller'
p1205
tp1206
a(I291
I4
F0.5
g999
tp1207
a(I291
I7
F0.5
g1001
tp1208
a(I291
I7
F-0.375
g1003
tp1209
a(I291
I8
F0.625
g1005
tp1210
a(I291
I8
F0.5
g1007
tp1211
a(I291
I8
F0.5
g1009
tp1212
a(I291
I8
F-0.375
g1011
tp1213
a(I291
I8
I0
g1013
tp1214
a(I313
I0
F0.5
g1015
tp1215
a(I315
I0
F0.5
g1017
tp1216
a(I319
I2
F0.5
S'touch'
p1217
tp1218
a(I328
I3
F0.5
g1019
tp1219
a(I335
I0
F0.5
S'touch'
p1220
tp1221
a(I340
I0
F-0.75
S'wrong'
p1222
tp1223
a(I340
I0
F0.5
S'touch'
p1224
tp1225
a(I340
I0
I0
S'full'
p1226
tp1227
a(I354
I3
F0.25
S'responsive'
p1228
tp1229
a(I354
I3
I0
S'resistive'
p1230
tp1231
a(I354
I3
I0
S'capacitive'
p1232
tp1233
a(I354
I4
F0.5
S'touch'
p1234
tp1235
a(I356
I0
F0.25
g257
tp1236
a(I357
I2
F0.5
g1021
tp1237
a(I357
I2
F0.25
g1023
tp1238
a(I358
I3
F0.625
S'easy'
p1239
tp1240
a(I359
I1
F0.5
g1025
tp1241
as(S'life'
p1242
tp1243
(lp1244
(I104
I0
F0.625
S'easy'
p1245
tp1246
a(I216
I2
I0
g265
tp1247
a(I288
I0
F1.0
g267
tp1248
a(I310
I10
F-0.5
g269
tp1249
a(I334
I1
F1.0
g271
tp1250
a(I354
I1
F1.0
g273
tp1251
a(I357
I2
F1.0
g275
tp1252
as(S'recommend'
p1253
S'to'
p1254
S'anyone'
p1255
tp1256
(lp1257
(I201
I0
F0.625
S'easy'
p1258
tp1259
as(S'ton'
p1260
S'on'
p1261
S'side'
p1262
tp1263
(lp1264
(I13
I2
F0.625
S'easiest'
p1265
tp1266
as(S'qwerty'
p1267
tp1268
(lp1269
(I40
I33
F-0.5
g282
tp1270
a(I40
I33
F-0.875
g284
tp1271
a(I90
I3
F0.625
S'easy'
p1272
tp1273
a(I204
I4
F0.625
g286
tp1274
a(I228
I10
F0.625
g288
tp1275
a(I242
I1
F0.125
S'key'
p1276
tp1277
a(I328
I3
F0.5
g290
tp1278
as(S'get'
p1279
S'triple'
p1280
S'minutes'
p1281
tp1282
(lp1283
(I180
I8
F-0.625
g181
tp1284
a(I195
I0
F-0.25
g185
tp1285
a(I328
I0
F-0.25
g205
tp1286
as(S'slide'
p1287
S'out'
p1288
S'keyboard'
p1289
tp1290
(lp1291
(I28
I1
F0.625
g29
tp1292
a(I40
I32
F-0.125
g31
tp1293
a(I62
I2
F0.5
S'stylish'
p1294
tp1295
a(I155
I4
I0
g55
tp1296
a(I172
I3
I0
g57
tp1297
a(I200
I5
F0.25
g63
tp1298
a(I200
I5
F0.5
g65
tp1299
a(I234
I4
I0
g73
tp1300
a(I305
I0
F0.375
S'much'
p1301
tp1302
as(S'cdma'
p1303
tp1304
(lp1305
(I40
I17
F-0.625
S'other'
p1306
tp1307
a(I141
I5
F0.125
S'capable'
p1308
tp1309
a(I204
I6
I0
S'few'
p1310
tp1311
a(I225
I0
I0
S'great'
p1312
tp1313
as(S'battery'
p1314
tp1315
(lp1316
(I33
I0
F0.125
S'last'
p1317
tp1318
a(I33
I1
I0
S'standard'
p1319
tp1320
a(I40
I53
F-0.5
S'long'
p1321
tp1322
a(I59
I4
F-0.25
S'low'
p1323
tp1324
a(I59
I4
I0
S'signal'
p1325
tp1326
a(I59
I5
F0.375
S'new'
p1327
tp1328
a(I96
I1
F-0.75
S'dead'
p1329
tp1330
a(I96
I2
F0.125
S'first'
p1331
tp1332
a(I103
I0
F1.0
S'good'
p1333
tp1334
a(I103
I0
F0.125
S'last'
p1335
tp1336
a(I103
I0
F-0.5
S'long'
p1337
tp1338
a(I130
I8
F-0.75
g263
tp1339
a(I235
I10
I0
S'great'
p1340
tp1341
a(I278
I1
F1.0
S'good'
p1342
tp1343
a(I315
I1
F0.375
S'new'
p1344
tp1345
as(S'keyboard'
p1346
S'for'
p1347
S'texting'
p1348
tp1349
(lp1350
(I11
I4
I0
g23
tp1351
a(I87
I1
I0
g41
tp1352
a(I102
I3
F0.625
g45
tp1353
a(I128
I4
F0.625
S'easier'
p1354
tp1355
a(I245
I0
F0.625
S'easy'
p1356
tp1357
a(I259
I2
F0.875
S'nice'
p1358
tp1359
as(S'smart'
p1360
tp1361
(lp1362
(I44
I3
F0.5
S'true'
p1363
tp1364
a(I57
I2
F0.625
S'interested'
p1365
tp1366
a(I58
I4
I0
S'real'
p1367
tp1368
a(I198
I8
I0
S'close'
p1369
tp1370
a(I308
I1
F1.0
S'good'
p1371
tp1372
as(g675
S'micro'
p1373
S'sd'
p1374
tp1375
(lp1376
(I136
I2
F0.625
g938
tp1377
as(S'money'
p1378
tp1379
(lp1380
(I44
I0
I0
S'more'
p1381
tp1382
a(I266
I5
I0
S'big'
p1383
tp1384
a(I277
I0
F0.75
S'worth'
p1385
tp1386
a(I288
I0
F0.625
S'easy'
p1387
tp1388
a(I324
I3
F0.375
S'tight'
p1389
tp1390
as(S'contacts'
p1391
tp1392
(lp1393
(I135
I5
F0.125
S'first'
p1394
tp1395
a(I135
I6
F-0.375
S'top'
p1396
tp1397
a(I220
I2
I0
S'full'
p1398
tp1399
a(I280
I30
F0.25
S'used'
p1400
tp1401
a(I327
I2
F0.125
S'able'
p1402
tp1403
a(I337
I8
I0
S'few'
p1404
tp1405
as(g675
S'qwerty'
p1406
S'keyboard'
p1407
tp1408
(lp1409
(I40
I32
F-0.125
g31
tp1410
a(I40
I33
F-0.5
g282
tp1411
a(I40
I33
F-0.875
g284
tp1412
a(I204
I4
F0.625
g286
tp1413
a(I228
I10
F0.625
g288
tp1414
a(I328
I3
F0.5
g290
tp1415
as(S'time'
p1416
tp1417
(lp1418
(I3
I0
F-0.25
S'cheaper'
p1419
tp1420
a(I29
I0
F-0.5
S'long'
p1421
tp1422
a(I40
I37
F-0.5
S'certain'
p1423
tp1424
a(I44
I8
F-0.75
S'short'
p1425
tp1426
a(I47
I0
I0
S'old'
p1427
tp1428
a(I47
I0
F1.0
S'good'
p1429
tp1430
a(I52
I0
I0
S'same'
p1431
tp1432
a(I61
I2
F-0.875
S'hard'
p1433
tp1434
a(I104
I0
F-0.5
S'long'
p1435
tp1436
a(I107
I2
F0.125
S'key'
p1437
tp1438
a(I109
I2
I0
S'next'
p1439
tp1440
a(I127
I0
I0
S'great'
p1441
tp1442
a(I158
I0
F0.125
S'first'
p1443
tp1444
a(I191
I0
F-0.5
S'long'
p1445
tp1446
a(I201
I0
I0
S'great'
p1447
tp1448
a(I212
I4
I0
S'most'
p1449
tp1450
a(I241
I0
F-0.625
S'save'
p1451
tp1452
a(I241
I0
F0.375
S'much'
p1453
tp1454
a(I241
I0
F-0.75
S'little'
p1455
tp1456
a(I258
I3
F-0.625
S'idle'
p1457
tp1458
a(I316
I4
F1.0
S'good'
p1459
tp1460
a(I343
I0
I0
S'more'
p1461
tp1462
as(S'find'
p1463
tp1464
(lp1465
(I161
I0
I0
S'real'
p1466
tp1467
as(S'slider'
p1468
S'keyboard'
p1469
tp1470
(lp1471
(I9
I3
F1.0
g21
tp1472
a(I58
I2
F0.875
g33
tp1473
a(I77
I0
I0
g37
tp1474
a(I130
I2
I0
g51
tp1475
a(I135
I2
I0
g53
tp1476
a(I208
I1
F0.625
g804
tp1477
a(I214
I1
I0
g806
tp1478
as(S'touch'
p1479
S'screen'
p1480
tp1481
(lp1482
(I4
I0
F0.5
g1147
tp1483
a(I15
I2
F0.5
g957
tp1484
a(I19
I0
F0.5
g959
tp1485
a(I29
I0
F0.5
g1151
tp1486
a(I30
I2
F0.5
g961
tp1487
a(I40
I2
F0.625
g1154
tp1488
a(I40
I2
F-0.375
g1156
tp1489
a(I40
I4
F0.25
g1158
tp1490
a(I60
I2
F0.5
g1160
tp1491
a(I84
I1
F0.5
g963
tp1492
a(I84
I1
F-0.125
g965
tp1493
a(I84
I1
F-0.625
g967
tp1494
a(I108
I1
F0.5
g1165
tp1495
a(I114
I1
F0.5
g969
tp1496
a(I130
I2
F0.5
g971
tp1497
a(I136
I1
F0.25
g247
tp1498
a(I138
I5
F0.5
g1169
tp1499
a(I159
I9
F0.5
g1171
tp1500
a(I162
I2
F0.625
g973
tp1501
a(I162
I2
F0.625
g975
tp1502
a(I167
I1
F-0.875
g977
tp1503
a(I172
I3
F0.5
g979
tp1504
a(I198
I2
F0.5
g1177
tp1505
a(I198
I3
F0.5
g981
tp1506
a(I220
I2
F0.5
g983
tp1507
a(I221
I4
I0
g1181
tp1508
a(I221
I4
F0.5
g1183
tp1509
a(I221
I5
I0
g249
tp1510
a(I221
I5
I0
g1186
tp1511
a(I222
I4
F0.5
g1188
tp1512
a(I222
I4
I0
g1190
tp1513
a(I235
I10
F0.5
g985
tp1514
a(I244
I2
F0.5
g987
tp1515
a(I247
I0
F-0.625
g1194
tp1516
a(I256
I4
I0
g251
tp1517
a(I256
I4
F0.875
g253
tp1518
a(I280
I9
F0.5
g989
tp1519
a(I281
I1
F0.5
g991
tp1520
a(I283
I0
F1.0
g1200
tp1521
a(I286
I3
F0.5
g993
tp1522
a(I291
I1
I0
g995
tp1523
a(I291
I1
I0
g997
tp1524
a(I291
I3
F-0.375
g1205
tp1525
a(I291
I4
F0.5
g999
tp1526
a(I291
I7
F0.5
g1001
tp1527
a(I291
I7
F-0.375
g1003
tp1528
a(I291
I8
F0.625
g1005
tp1529
a(I291
I8
F0.5
g1007
tp1530
a(I291
I8
F0.5
g1009
tp1531
a(I291
I8
F-0.375
g1011
tp1532
a(I291
I8
I0
g1013
tp1533
a(I313
I0
F0.5
g1015
tp1534
a(I315
I0
F0.5
g1017
tp1535
a(I319
I2
F0.5
g1217
tp1536
a(I328
I3
F0.5
g1019
tp1537
a(I335
I0
F0.5
g1220
tp1538
a(I340
I0
F-0.75
g1222
tp1539
a(I340
I0
F0.5
g1224
tp1540
a(I340
I0
I0
g1226
tp1541
a(I354
I3
F0.25
g1228
tp1542
a(I354
I3
I0
g1230
tp1543
a(I354
I3
I0
g1232
tp1544
a(I354
I4
F0.5
g1234
tp1545
a(I356
I0
F0.25
g257
tp1546
a(I357
I2
F0.5
g1021
tp1547
a(I357
I2
F0.25
g1023
tp1548
a(I358
I3
F0.625
g1239
tp1549
a(I359
I1
F0.5
g1025
tp1550
as(S'verizon'
p1551
S'network'
p1552
tp1553
(lp1554
(I204
I4
F-0.5
g339
tp1555
a(I280
I55
F0.5
g845
tp1556
a(I354
I7
I0
g343
tp1557
as(S'coverage'
p1558
tp1559
(lp1560
(I158
I0
I0
S'full'
p1561
tp1562
a(I204
I4
I0
S'adequate'
p1563
tp1564
a(I204
I6
F0.875
S'happy'
p1565
tp1566
a(I209
I0
F-0.5
S'poor'
p1567
tp1568
a(I209
I1
F0.25
S'broadest'
p1569
tp1570
a(I209
I12
I0
S'extensive'
p1571
tp1572
a(I280
I3
I0
S'adequate'
p1573
tp1574
a(I335
I6
F1.0
S'good'
p1575
tp1576
a(I350
I3
I0
S'great'
p1577
tp1578
a(I350
I8
I0
S'most'
p1579
tp1580
a(I354
I0
F0.375
S'much'
p1581
tp1582
a(I354
I0
F1.0
S'better'
p1583
tp1584
as(S'makes'
p1585
tp1586
(lp1587
(I223
I0
F0.625
S'easy'
p1588
tp1589
as(S'year'
p1590
tp1591
(lp1592
(I51
I0
I0
S'old'
p1593
tp1594
a(I129
I0
I0
S'old'
p1595
tp1596
a(I129
I0
F0.625
S'perfect'
p1597
tp1598
a(I190
I0
I0
S'old'
p1599
tp1600
a(I202
I0
I0
S'great'
p1601
tp1602
a(I246
I2
I0
S'cellular'
p1603
tp1604
a(I334
I2
I0
S'old'
p1605
tp1606
a(I341
I6
F0.875
S'attractive'
p1607
tp1608
a(I341
I6
F-0.125
S'alternative'
p1609
tp1610
as(S'screen'
p1611
tp1612
(lp1613
(I4
I0
F0.5
g1147
tp1614
a(I15
I2
F0.5
g957
tp1615
a(I19
I0
F0.5
g959
tp1616
a(I29
I0
F0.5
g1151
tp1617
a(I30
I2
F0.5
g961
tp1618
a(I40
I2
F0.625
g1154
tp1619
a(I40
I2
F-0.375
g1156
tp1620
a(I40
I4
F0.25
g1158
tp1621
a(I40
I37
F0.25
S'main'
p1622
tp1623
a(I51
I1
F0.125
S'solid'
p1624
tp1625
a(I60
I2
F0.5
g1160
tp1626
a(I84
I1
F0.5
g963
tp1627
a(I84
I1
F-0.125
g965
tp1628
a(I84
I1
F-0.625
g967
tp1629
a(I108
I1
F0.5
g1165
tp1630
a(I114
I1
F0.5
g969
tp1631
a(I130
I2
F0.5
g971
tp1632
a(I138
I5
F0.5
g1169
tp1633
a(I159
I9
F0.5
g1171
tp1634
a(I162
I2
F0.625
g973
tp1635
a(I162
I2
F0.625
g975
tp1636
a(I167
I1
F-0.875
g977
tp1637
a(I172
I3
F0.5
g979
tp1638
a(I175
I2
I0
S'wish'
p1639
tp1640
a(I198
I2
F0.5
g1177
tp1641
a(I198
I3
F0.5
g981
tp1642
a(I220
I2
F0.5
g983
tp1643
a(I221
I4
I0
g1181
tp1644
a(I221
I4
F0.5
g1183
tp1645
a(I221
I5
I0
g1186
tp1646
a(I222
I4
F0.5
g1188
tp1647
a(I222
I4
I0
g1190
tp1648
a(I235
I10
F0.5
g985
tp1649
a(I244
I2
F0.5
g987
tp1650
a(I247
I0
F-0.625
g1194
tp1651
a(I258
I1
I0
S'soft'
p1652
tp1653
a(I280
I9
F0.5
g989
tp1654
a(I280
I18
F0.25
S'read'
p1655
tp1656
a(I280
I30
F-0.5
S'separate'
p1657
tp1658
a(I281
I1
F0.5
g991
tp1659
a(I283
I0
F1.0
g1200
tp1660
a(I286
I3
F0.5
g993
tp1661
a(I291
I1
I0
g995
tp1662
a(I291
I1
I0
g997
tp1663
a(I291
I3
F-0.375
g1205
tp1664
a(I291
I4
F0.5
g999
tp1665
a(I291
I7
F0.5
g1001
tp1666
a(I291
I7
F-0.375
g1003
tp1667
a(I291
I8
F0.625
g1005
tp1668
a(I291
I8
F0.5
g1007
tp1669
a(I291
I8
F0.5
g1009
tp1670
a(I291
I8
F-0.375
g1011
tp1671
a(I291
I8
I0
g1013
tp1672
a(I310
I1
F0.25
S'bigger'
p1673
tp1674
a(I313
I0
F0.5
g1015
tp1675
a(I315
I0
F0.5
g1017
tp1676
a(I319
I2
F0.5
g1217
tp1677
a(I328
I3
F0.5
g1019
tp1678
a(I335
I0
F0.5
g1220
tp1679
a(I337
I8
I0
S'most'
p1680
tp1681
a(I340
I0
F-0.75
g1222
tp1682
a(I340
I0
F0.5
g1224
tp1683
a(I340
I0
I0
g1226
tp1684
a(I354
I3
F0.25
g1228
tp1685
a(I354
I3
I0
g1230
tp1686
a(I354
I3
I0
g1232
tp1687
a(I354
I4
F0.5
g1234
tp1688
a(I357
I2
F0.5
g1021
tp1689
a(I357
I2
F0.25
g1023
tp1690
a(I358
I3
F0.625
g1239
tp1691
a(I359
I1
F0.5
g1025
tp1692
as(S'everything'
p1693
tp1694
(lp1695
(I103
I0
F1.0
S'good'
p1696
tp1697
a(I157
I8
F0.625
S'easy'
p1698
tp1699
a(I280
I6
F0.625
S'easier'
p1700
tp1701
a(I316
I4
F0.625
S'easier'
p1702
tp1703
as(S'slide'
p1704
tp1705
(lp1706
(I62
I2
F0.5
g1294
tp1707
a(I67
I0
F0.875
S'nice'
p1708
tp1709
a(I305
I0
F0.375
g1301
tp1710
as(S'camera'
p1711
tp1712
(lp1713
(I25
I0
F-0.75
S'worse'
p1714
tp1715
a(I40
I39
I0
S'great'
p1716
tp1717
a(I72
I1
F1.0
S'good'
p1718
tp1719
a(I180
I7
F-0.5
S'regular'
p1720
tp1721
a(I235
I10
F1.0
S'good'
p1722
tp1723
as(S'message'
p1724
tp1725
(lp1726
(I40
I16
F0.25
S'main'
p1727
tp1728
a(I40
I46
F-0.5
S'open'
p1729
tp1730
as(g675
S'full'
p1731
S'keyboard'
p1732
tp1733
(lp1734
(I77
I0
I0
g37
tp1735
a(I89
I0
I0
g43
tp1736
a(I130
I2
I0
g51
tp1737
a(I172
I3
I0
g57
tp1738
a(I266
I2
I0
g75
tp1739
a(I310
I1
I0
g83
tp1740
a(I359
I1
I0
g87
tp1741
as(S'no'
p1742
S'service'
p1743
g1
tp1744
(lp1745
(I114
I4
F0.5
g578
tp1746
a(I221
I7
F-0.625
g590
tp1747
as(S'feature'
p1748
tp1749
(lp1750
(I139
I12
F-0.5
S'sure'
p1751
tp1752
a(I256
I3
F0.25
S'helpful'
p1753
tp1754
a(I284
I2
I0
S'great'
p1755
tp1756
a(I329
I3
F1.0
S'best'
p1757
tp1758
a(I355
I1
F-0.875
S'hard'
p1759
tp1760
as(S'on'
p1761
S'verizon'
p1762
S'network'
p1763
tp1764
(lp1765
(I204
I4
F-0.5
g339
tp1766
a(I280
I55
F0.5
g845
tp1767
a(I354
I7
I0
g343
tp1768
as(S'works'
p1769
tp1770
(lp1771
(I1
I0
F1.0
S'better'
p1772
tp1773
a(I72
I1
I0
S'great'
p1774
tp1775
a(I77
I1
F-0.125
S'overall'
p1776
tp1777
a(I148
I0
F-0.375
S'small'
p1778
tp1779
a(I148
I0
F-0.375
S'simple'
p1780
tp1781
a(I187
I2
I0
S'great'
p1782
tp1783
a(I219
I0
F1.0
S'good'
p1784
tp1785
a(I235
I10
I0
S'great'
p1786
tp1787
a(I256
I5
I0
S'great'
p1788
tp1789
a(I300
I0
I0
S'great'
p1790
tp1791
a(I315
I0
I0
S'great'
p1792
tp1793
a(I332
I0
I0
S'great'
p1794
tp1795
a(I361
I0
I0
S'great'
p1796
tp1797
as(g675
S'great'
p1798
S'price'
p1799
tp1800
(lp1801
(I11
I1
I0
g509
tp1802
a(I12
I1
F0.625
g511
tp1803
a(I19
I0
I0
g513
tp1804
a(I83
I0
I0
g527
tp1805
a(I89
I0
F1.0
g529
tp1806
a(I129
I1
I0
g533
tp1807
a(I129
I1
F0.875
g535
tp1808
a(I147
I0
I0
g537
tp1809
a(I152
I0
I0
g539
tp1810
a(I160
I1
I0
g543
tp1811
a(I197
I1
I0
g547
tp1812
a(I242
I7
I0
g553
tp1813
a(I316
I8
I0
g557
tp1814
a(I316
I10
I0
g559
tp1815
a(I322
I3
F1.0
g561
tp1816
a(I339
I1
I0
g565
tp1817
a(I345
I0
I0
g567
tp1818
as(S'better'
p1819
tp1820
(lp1821
(I1
I4
F0.375
S'much'
p1822
tp1823
a(I334
I0
F0.375
S'much'
p1824
tp1825
as(g1
S'area'
p1826
tp1827
(lp1828
(I165
I0
I0
g883
tp1829
a(I188
I0
I0
g6
tp1830
a(I198
I10
I0
g8
tp1831
a(I316
I1
I0
g887
tp1832
a(I323
I5
I0
g10
tp1833
a(I323
I5
I0
g12
tp1834
a(I335
I3
F-0.625
g14
tp1835
a(I335
I5
F0.5
g16
tp1836
as(S'bells'
p1837
S'and'
p1838
S'whistles'
p1839
tp1840
(lp1841
(I41
I1
F0.625
S'interested'
p1842
tp1843
a(I129
I1
F0.875
S'happy'
p1844
tp1845
as(S'home'
p1846
tp1847
(lp1848
(I204
I5
F-0.875
S'awful'
p1849
tp1850
a(I280
I30
F0.25
S'main'
p1851
tp1852
a(I299
I1
I0
S'old'
p1853
tp1854
as(S'call'
p1855
tp1856
(lp1857
(I13
I1
F-0.5
S'long'
p1858
tp1859
a(I56
I2
I0
g679
tp1860
a(I56
I2
F-0.75
g681
tp1861
a(I84
I0
F0.125
S'capable'
p1862
tp1863
a(I130
I7
F-0.5
g131
tp1864
a(I204
I3
F0.5
g135
tp1865
a(I230
I1
F0.625
g139
tp1866
a(I335
I5
I0
g683
tp1867
a(I335
I5
I0
g685
tp1868
as(S'much'
p1869
S'better'
p1870
tp1871
(lp1872
(I1
I4
F0.375
g1822
tp1873
a(I334
I0
F0.375
g1824
tp1874
as(g675
S'tracfone'
p1875
S'customer'
p1876
tp1877
(lp1878
(I199
I0
F-0.625
g720
tp1879
as(S'access'
p1880
tp1881
(lp1882
(I25
I0
F0.125
S'popular'
p1883
tp1884
a(I40
I12
I0
S'quick'
p1885
tp1886
a(I40
I12
F0.625
S'easy'
p1887
tp1888
a(I65
I0
F0.625
S'easy'
p1889
tp1890
a(I159
I11
F0.625
S'easy'
p1891
tp1892
a(I191
I0
F0.375
S'allow'
p1893
tp1894
a(I228
I2
I0
S'internet'
p1895
tp1896
a(I228
I2
F-0.125
S'slow'
p1897
tp1898
a(I280
I39
I0
S'least'
p1899
tp1900
a(I280
I53
F-0.5
S'international'
p1901
tp1902
as(g675
S'good'
p1903
S'size'
p1904
tp1905
(lp1906
(I6
I1
F1.0
S'good'
p1907
tp1908
a(I193
I1
F1.0
S'good'
p1909
tp1910
a(I235
I10
F-0.375
S'small'
p1911
tp1912
a(I256
I3
F1.0
S'good'
p1913
tp1914
a(I291
I8
F0.375
S'similar'
p1915
tp1916
a(I291
I8
F-0.375
S'smaller'
p1917
tp1918
a(I359
I12
F1.0
S'good'
p1919
tp1920
as(S'texting'
p1921
tp1922
(lp1923
(I26
I1
I0
S'more'
p1924
tp1925
a(I128
I4
F0.625
g1354
tp1926
a(I144
I2
I0
S'great'
p1927
tp1928
a(I245
I0
F0.625
g1356
tp1929
a(I259
I2
F0.875
g1358
tp1930
as(S'calls'
p1931
tp1932
(lp1933
(I40
I9
F0.25
S'recent'
p1934
tp1935
a(I60
I3
I0
S'few'
p1936
tp1937
a(I113
I0
I0
S'many'
p1938
tp1939
a(I172
I5
F0.875
S'nice'
p1940
tp1941
a(I172
I5
F0.5
S'clear'
p1942
tp1943
a(I184
I1
F0.5
S'clear'
p1944
tp1945
a(I203
I0
F-0.375
S'black'
p1946
tp1947
a(I279
I5
I0
S'few'
p1948
tp1949
a(I279
I5
F-0.25
S'dropped'
p1950
tp1951
a(I280
I51
I0
S'domestic'
p1952
tp1953
a(I297
I4
F-0.375
S'simple'
p1954
tp1955
a(I297
I4
F0.5
S'clear'
p1956
tp1957
a(I313
I4
F0.625
S'hold'
p1958
tp1959
as.