(dp0
(S'tiene'
p1
S'el'
p2
tp3
(lp4
(I6
I5
F0.25
S'original'
p5
I0
tp6
as(S'a'
p7
S'long'
p8
S'time'
p9
tp10
(lp11
(I1
I29
F-0.5
S'long'
p12
I12
tp13
a(I2
I32
F-0.5
S'long'
p14
I12
tp15
a(I6
I0
F-0.5
S'long'
p16
I12
tp17
a(I6
I9
F-0.5
S'long'
p18
I12
tp19
a(I15
I60
F-0.5
S'long'
p20
I12
tp21
a(I15
I60
F0.125
S'last'
p22
I12
tp23
a(I34
I21
F-0.5
S'long'
p24
I12
tp25
a(I34
I23
F-0.5
S'long'
p26
I12
tp27
as(S'samsung'
p28
S'galaxy'
p29
S'note'
p30
tp31
(lp32
(I15
I1
F0.125
S'first'
p33
I0
tp34
a(I15
I1
F-0.5
S'actual'
p35
I0
tp36
a(I21
I26
I0
S'generic'
p37
I0
tp38
a(I52
I66
I0
S'real'
p39
I0
tp40
a(I61
I6
I0
S'big'
p41
I0
tp42
a(I3
I0
I0
S'mimic'
p43
I0
tp44
a(I15
I1
F0.125
g33
I0
tp45
a(I15
I1
F-0.5
g35
I0
tp46
a(I21
I26
I0
g37
I0
tp47
a(I61
I6
I0
g41
I0
tp48
a(I2
I26
F0.375
S'similar'
p49
I0
tp50
a(I6
I1
F0.25
S'original'
p51
I0
tp52
a(I6
I5
F0.25
S'original'
p53
I0
tp54
a(I10
I18
F-0.625
S'other'
p55
I0
tp56
a(I14
I13
I0
S'big'
p57
I0
tp58
a(I47
I6
F0.375
S'similar'
p59
I0
tp60
a(I52
I66
I0
g39
I0
tp61
a(I59
I39
F0.25
S'original'
p62
I0
tp63
a(I59
I43
F1.0
S'better'
p64
I0
tp65
a(I59
I43
I0
S'fast'
p66
I0
tp67
a(I59
I43
F0.25
S'responsive'
p68
I0
tp69
a(I59
I44
F0.25
S'original'
p70
I0
tp71
a(I82
I13
F0.75
S'fit'
p72
I0
tp73
a(I3
I0
I0
g43
I7
tp74
a(I6
I24
I0
S'generic'
p75
I7
tp76
a(I15
I1
F0.125
g33
I7
tp77
a(I15
I1
F-0.5
g35
I7
tp78
a(I18
I36
F-0.375
S'smaller'
p79
I7
tp80
a(I21
I26
I0
g37
I7
tp81
a(I34
I7
F-0.5
S'less'
p82
I7
tp83
a(I37
I156
I0
S'old'
p84
I7
tp85
a(I44
I74
F0.25
S'unlocked'
p86
I7
tp87
a(I51
I5
I0
S'efficient'
p88
I7
tp89
a(I61
I6
I0
g41
I7
tp90
a(I75
I9
F0.5
S'comparable'
p91
I7
tp92
a(I10
I18
F-0.625
g55
I0
tp93
a(I21
I27
I0
S'identical'
p94
I0
tp95
a(I47
I6
F0.375
g59
I0
tp96
a(I59
I39
F0.25
g62
I0
tp97
a(I59
I43
F1.0
g64
I0
tp98
a(I59
I44
F0.25
g70
I0
tp99
a(I82
I13
F0.75
g72
I0
tp100
as(S'magnetic'
p101
S'sensor'
p102
tp103
(lp104
(I25
I8
F0.625
S'magnetic'
p105
I0
tp106
a(I25
I9
F0.625
S'magnetic'
p107
I0
tp108
a(I25
I12
F0.625
S'magnetic'
p109
I0
tp110
as(S'battery'
p111
S'life'
p112
tp113
(lp114
(I24
I29
F0.5
S'reasonable'
p115
I1
tp116
a(I25
I11
F1.0
S'good'
p117
I1
tp118
a(I29
I11
F1.0
S'good'
p119
I1
tp120
a(I29
I11
F0.375
S'extended'
p121
I1
tp122
a(I34
I72
I0
S'fast'
p123
I1
tp124
a(I34
I72
F-0.5
S'longer'
p125
I1
tp126
a(I37
I61
F1.0
S'good'
p127
I1
tp128
a(I44
I57
F-0.625
S'bad'
p129
I1
tp130
a(I56
I68
I0
S'great'
p131
I1
tp132
a(I59
I45
F1.0
S'good'
p133
I1
tp134
a(I76
I18
I0
S'great'
p135
I1
tp136
a(I76
I36
F1.0
S'good'
p137
I1
tp138
a(I82
I21
F0.5
S'reasonable'
p139
I1
tp140
a(I89
I11
F-0.25
S'disappointing'
p141
I1
tp142
a(I1
I18
F0.625
S'easy'
p143
I15
tp144
a(I1
I30
F0.5
S'second'
p145
I15
tp146
a(I1
I70
F-0.625
S'bad'
p147
I15
tp148
a(I6
I11
F0.25
S'original'
p149
I15
tp150
a(I6
I11
I0
S'local'
p151
I15
tp152
a(I6
I35
I0
S'most'
p153
I15
tp154
a(I13
I10
I0
S'quick'
p155
I15
tp156
a(I17
I13
F0.75
S'give'
p157
I15
tp158
a(I17
I13
F0.5
S'second'
p159
I15
tp160
a(I24
I40
F0.125
S'last'
p161
I15
tp162
a(I25
I11
F1.0
g117
I15
tp163
a(I26
I19
F-0.5
S'less'
p164
I15
tp165
a(I29
I11
F0.375
g121
I15
tp166
a(I34
I72
I0
g123
I15
tp167
a(I49
I26
F-0.625
S'other'
p168
I15
tp169
a(I56
I68
I0
g131
I15
tp170
a(I60
I21
F-0.125
S'slow'
p171
I15
tp172
a(I63
I11
F0.125
S'last'
p173
I15
tp174
a(I78
I60
F0.5
S'second'
p175
I15
tp176
a(I78
I60
F0.375
S'extra'
p177
I15
tp178
a(I78
I63
F0.5
S'second'
p179
I15
tp180
a(I78
I66
F-0.625
S'other'
p181
I15
tp182
a(I82
I20
F0.375
S'extra'
p183
I15
tp184
a(I89
I16
F0.5
S'second'
p185
I15
tp186
as(S'happy'
p187
S'with'
p188
S'purchase'
p189
tp190
(lp191
(I18
I6
F0.875
S'happy'
p192
I0
tp193
a(I33
I15
F0.375
S'new'
p194
I0
tp195
a(I76
I53
F0.875
S'happy'
p196
I0
tp197
a(I78
I55
F0.875
S'happy'
p198
I0
tp199
a(I85
I34
F0.875
S'happy'
p200
I0
tp201
as(S'2'
p202
S'weeks'
p203
tp204
(lp205
(I15
I4
F-0.5
S'less'
p206
I4
tp207
a(I17
I36
I0
S'later'
p208
I4
tp209
a(I15
I4
F-0.5
g206
I18
tp210
a(I17
I36
I0
g208
I18
tp211
a(I18
I54
F0.5
S'whole'
p212
I18
tp213
a(I37
I17
I0
S'few'
p214
I18
tp215
a(I52
I42
F0.125
S'last'
p216
I18
tp217
a(I52
I42
I0
S'few'
p218
I18
tp219
a(I52
I42
I0
S'more'
p220
I18
tp221
a(I78
I64
I0
S'later'
p222
I18
tp223
a(I78
I64
F0.5
S'second'
p224
I18
tp225
as(g7
S'screen'
p226
S'protector'
p227
tp228
(lp229
(I1
I35
F-0.125
S'mine'
p230
I1
tp231
a(I1
I35
F-0.125
S'mine'
p232
I1
tp233
a(I1
I35
F-0.375
S'top'
p234
I1
tp235
a(I18
I64
F-0.5
S'afraid'
p236
I1
tp237
a(I35
I2
F0.875
S'nice'
p238
I1
tp239
a(I35
I51
F0.5
S'clear'
p240
I1
tp241
a(I1
I35
F-0.125
g230
I4
tp242
a(I1
I35
F-0.125
g232
I4
tp243
a(I1
I35
F-0.375
g234
I4
tp244
a(I18
I64
F-0.5
g236
I4
tp245
a(I35
I2
F0.875
g238
I4
tp246
a(I35
I51
F0.5
g240
I4
tp247
as(S'service'
p248
tp249
(lp250
(I2
I21
F1.0
S'good'
p251
I16
tp252
a(I6
I18
F1.0
S'best'
p253
I16
tp254
a(I6
I80
I0
S'immediate'
p255
I16
tp256
a(I20
I83
I0
S'old'
p257
I16
tp258
a(I26
I9
F0.875
S'nice'
p259
I16
tp260
a(I43
I35
F-0.5
S'regular'
p261
I16
tp262
a(I44
I83
F-0.875
S'awful'
p263
I16
tp264
a(I45
I1
I0
S'great'
p265
I16
tp266
a(I56
I31
I0
S'full'
p267
I16
tp268
a(I68
I8
I0
S'great'
p269
I16
tp270
a(I68
I14
I0
S'fastest'
p271
I16
tp272
a(I75
I2
I0
S'prepaid'
p273
I16
tp274
a(I79
I11
F-0.625
S'light'
p275
I16
tp276
a(I79
I11
F-0.125
S'super'
p277
I16
tp278
a(I79
I11
F-0.125
S'slow'
p279
I16
tp280
a(I82
I5
F0.125
S'able'
p281
I16
tp282
as(S'straight'
p283
S'talk'
p284
tp285
(lp286
(I6
I40
I0
S'signal'
p287
I0
tp288
a(I7
I2
I0
S'great'
p289
I0
tp290
a(I15
I18
F0.625
S'straight'
p291
I0
tp292
a(I17
I33
F0.625
S'straight'
p293
I0
tp294
a(I20
I82
F0.625
S'straight'
p295
I0
tp296
a(I20
I95
F0.625
S'straight'
p297
I0
tp298
a(I35
I12
F0.625
S'straight'
p299
I0
tp300
a(I37
I23
F0.625
S'straight'
p301
I0
tp302
a(I39
I22
F0.625
S'straight'
p303
I0
tp304
a(I43
I19
F0.625
S'straight'
p305
I0
tp306
a(I68
I23
F0.625
S'straight'
p307
I0
tp308
a(I70
I4
F0.625
S'straight'
p309
I0
tp310
a(I87
I0
F0.625
S'straight'
p311
I0
tp312
a(I15
I18
F0.625
g291
I13
tp313
a(I17
I33
F0.625
g293
I13
tp314
a(I20
I82
F0.625
g295
I13
tp315
a(I20
I95
F0.625
g297
I13
tp316
a(I35
I12
F0.625
g299
I13
tp317
a(I37
I23
F0.625
g301
I13
tp318
a(I39
I22
F0.625
g303
I13
tp319
a(I43
I19
F0.625
g305
I13
tp320
a(I68
I23
F0.625
g307
I13
tp321
a(I70
I4
F0.625
g309
I13
tp322
a(I87
I0
F0.625
g311
I13
tp323
a(I6
I40
I0
g287
I17
tp324
a(I7
I2
I0
g289
I17
tp325
as(S'find'
p326
g7
S'case'
p327
tp328
(lp329
(I27
I33
F1.0
S'good'
p330
I0
tp331
a(I27
I33
F0.125
S'protective'
p332
I0
tp333
a(I32
I1
I0
S'big'
p334
I0
tp335
a(I56
I69
F-0.875
S'hard'
p336
I0
tp337
a(I59
I47
F0.375
S'extra'
p338
I0
tp339
a(I59
I47
F-0.875
S'hard'
p340
I0
tp341
a(I85
I31
F-0.75
S'impossible'
p342
I0
tp343
as(S'front'
p344
S'facing'
p345
S'camera'
p346
tp347
(lp348
(I34
I17
F-0.625
S'unfocused'
p349
I0
tp350
a(I39
I21
F-0.625
S'bad'
p351
I0
tp352
a(I44
I63
I0
S'great'
p353
I0
tp354
a(I49
I18
F-0.625
S'bad'
p355
I0
tp356
a(I3
I4
F1.0
S'good'
p357
I1
tp358
a(I6
I1
F-0.875
S'awful'
p359
I1
tp360
a(I6
I1
I0
S'great'
p361
I1
tp362
a(I10
I17
F-0.625
S'average'
p363
I1
tp364
a(I20
I42
F-0.125
S'front'
p365
I1
tp366
a(I20
I85
F1.0
S'good'
p367
I1
tp368
a(I22
I6
F0.5
S'operable'
p369
I1
tp370
a(I26
I5
F1.0
S'good'
p371
I1
tp372
a(I26
I15
I0
S'great'
p373
I1
tp374
a(I29
I42
I0
S'rear'
p375
I1
tp376
a(I34
I6
F0.375
S'loud'
p377
I1
tp378
a(I34
I17
F-0.625
g349
I1
tp379
a(I34
I67
F1.0
S'good'
p380
I1
tp381
a(I35
I0
F-0.5
S'poor'
p382
I1
tp383
a(I37
I184
F1.0
S'good'
p384
I1
tp385
a(I39
I19
F0.5
S'primary'
p386
I1
tp387
a(I39
I21
F-0.625
g351
I1
tp388
a(I43
I43
F-0.625
S'bad'
p389
I1
tp390
a(I44
I62
F1.0
S'good'
p391
I1
tp392
a(I44
I63
I0
g353
I1
tp393
a(I45
I0
F0.625
S'major'
p394
I1
tp395
a(I49
I18
F-0.625
g355
I1
tp396
a(I56
I8
F-0.625
S'other'
p397
I1
tp398
a(I56
I62
F-0.5
S'poor'
p399
I1
tp400
a(I59
I13
I0
S'great'
p401
I1
tp402
a(I59
I42
F0.5
S'true'
p403
I1
tp404
a(I59
I42
F1.0
S'good'
p405
I1
tp406
a(I59
I42
F0.25
S'original'
p407
I1
tp408
a(I60
I2
F-0.25
S'loose'
p409
I1
tp410
a(I60
I4
F0.125
S'outside'
p411
I1
tp412
a(I63
I15
F1.0
S'good'
p413
I1
tp414
a(I63
I20
F0.625
S'acceptable'
p415
I1
tp416
a(I84
I0
I0
S'great'
p417
I1
tp418
as(S'signal'
p419
tp420
(lp421
(I37
I23
F1.0
S'good'
p422
I1
tp423
a(I59
I40
F1.0
S'good'
p424
I1
tp425
a(I61
I10
I0
S'same'
p426
I1
tp427
as(S'internet'
p428
tp429
(lp430
(I36
I16
I0
S'dial'
p431
I6
tp432
a(I56
I29
F0.375
S'working'
p433
I6
tp434
a(I56
I30
I0
S'great'
p435
I6
tp436
as(S'make'
p437
g7
S'call'
p438
tp439
(lp440
(I2
I19
F0.375
S'complete'
p441
I0
tp442
a(I6
I74
F0.125
S'first'
p443
I0
tp444
a(I6
I81
F-0.75
S'short'
p445
I0
tp446
a(I6
I81
I0
S'mobile'
p447
I0
tp448
as(S'recommend'
p449
S'to'
p450
S'anyone'
p451
tp452
(lp453
(I26
I38
F0.875
S'happy'
p454
I4
tp455
as(g7
S'samsung'
p456
S'galaxy'
p457
tp458
(lp459
(I3
I0
I0
g43
I0
tp460
a(I15
I1
F0.125
g33
I0
tp461
a(I15
I1
F-0.5
g35
I0
tp462
a(I21
I26
I0
g37
I0
tp463
a(I61
I6
I0
g41
I0
tp464
as(S'sim'
p465
S'card'
p466
S'slots'
p467
tp468
(lp469
(I37
I173
F0.875
S'nice'
p470
I0
tp471
a(I1
I23
F1.0
S'good'
p472
I0
tp473
a(I6
I102
F1.0
S'good'
p474
I0
tp475
a(I27
I3
I0
S'different'
p476
I0
tp477
a(I36
I27
I0
S'same'
p478
I0
tp479
a(I37
I45
F1.0
S'good'
p480
I0
tp481
a(I37
I173
F0.875
g470
I0
tp482
a(I44
I15
F-0.375
S'small'
p483
I0
tp484
a(I44
I49
F-0.25
S'ready'
p485
I0
tp486
a(I44
I92
F-0.75
S'secondary'
p487
I0
tp488
a(I44
I92
I0
S'more'
p489
I0
tp490
a(I46
I3
F-0.625
S'other'
p491
I0
tp492
a(I65
I4
F-0.625
S'other'
p493
I0
tp494
as(S'batteries'
p495
tp496
(lp497
(I1
I34
F0.375
S'extra'
p498
I3
tp499
a(I56
I4
F0.375
S'extra'
p500
I3
tp501
a(I56
I41
I0
S'great'
p502
I3
tp503
a(I59
I45
F0.875
S'nice'
p504
I3
tp505
a(I61
I35
F-0.25
S'white'
p506
I3
tp507
as(S'dual'
p508
S'sim'
p509
S'card'
p510
tp511
(lp512
(I37
I45
F1.0
g480
I0
tp513
a(I37
I45
F1.0
g480
I0
tp514
a(I76
I38
F0.25
S'helpful'
p515
I0
tp516
as(S'seller'
p517
tp518
(lp519
(I1
I6
I0
S'great'
p520
I19
tp521
a(I6
I0
I0
S'great'
p522
I19
tp523
a(I35
I30
F0.375
S'new'
p524
I19
tp525
a(I36
I37
F-0.125
S'overall'
p526
I19
tp527
a(I36
I37
F1.0
S'good'
p528
I19
tp529
a(I48
I0
F1.0
S'good'
p530
I19
tp531
a(I51
I3
F0.875
S'nice'
p532
I19
tp533
a(I51
I3
I0
S'quick'
p534
I19
tp535
a(I52
I53
F0.5
S'possible'
p536
I19
tp537
a(I56
I60
I0
S'great'
p538
I19
tp539
a(I59
I37
F0.625
S'responsible'
p540
I19
tp541
a(I59
I45
I0
S'real'
p542
I19
tp543
a(I59
I47
F0.875
S'nice'
p544
I19
tp545
as(S'android'
p546
tp547
(lp548
(I18
I50
I0
S'big'
p549
I0
tp550
a(I20
I18
F0.375
S'newer'
p551
I0
tp552
a(I26
I14
F0.375
S'available'
p553
I0
tp554
a(I39
I32
F1.0
S'good'
p555
I0
tp556
a(I44
I1
F-0.75
S'little'
p557
I0
tp558
a(I44
I86
F-0.25
S'inexpensive'
p559
I0
tp560
a(I46
I12
F0.25
S'unlocked'
p561
I0
tp562
a(I49
I10
F0.5
S'compatible'
p563
I0
tp564
as(S'big'
p565
S'screen'
p566
tp567
(lp568
(I1
I22
F0.25
S'bigger'
p569
I1
tp570
a(I3
I2
I0
S'big'
p571
I1
tp572
a(I6
I35
I0
S'big'
p573
I1
tp574
a(I15
I16
F0.625
S'easy'
p575
I1
tp576
a(I15
I16
I0
S'slim'
p577
I1
tp578
a(I18
I34
I0
S'big'
p579
I1
tp580
a(I20
I0
I0
S'big'
p581
I1
tp582
a(I20
I16
I0
S'big'
p583
I1
tp584
a(I20
I16
F0.125
S'last'
p585
I1
tp586
a(I31
I38
I0
S'big'
p587
I1
tp588
a(I31
I44
I0
S'cool'
p589
I1
tp590
a(I31
I44
I0
S'big'
p591
I1
tp592
a(I46
I36
I0
S'big'
p593
I1
tp594
a(I46
I42
I0
S'big'
p595
I1
tp596
a(I46
I42
I0
S'great'
p597
I1
tp598
a(I55
I16
I0
S'big'
p599
I1
tp600
a(I55
I16
I0
S'great'
p601
I1
tp602
a(I75
I4
F0.75
S'beautiful'
p603
I1
tp604
a(I75
I4
I0
S'big'
p605
I1
tp606
a(I75
I4
F0.625
S'perfect'
p607
I1
tp608
a(I76
I4
F0.25
S'bigger'
p609
I1
tp610
a(I76
I17
I0
S'big'
p611
I1
tp612
a(I89
I31
I0
S'many'
p613
I1
tp614
as(S'calls'
p615
tp616
(lp617
(I9
I0
I0
S'few'
p618
I0
tp619
a(I13
I5
F-0.25
S'low'
p620
I0
tp621
a(I33
I6
F-0.625
S'unbearable'
p622
I0
tp623
a(I34
I23
F-0.875
S'hard'
p624
I0
tp625
a(I37
I40
F-0.5
S'less'
p626
I0
tp627
a(I37
I190
F-0.5
S'less'
p628
I0
tp629
a(I46
I39
I0
S'internet'
p630
I0
tp631
a(I46
I39
F1.0
S'good'
p632
I0
tp633
a(I46
I40
I0
S'internet'
p634
I0
tp635
a(I46
I53
F0.875
S'nice'
p636
I0
tp637
a(I46
I53
F0.5
S'clear'
p638
I0
tp639
a(I51
I1
I0
S'many'
p640
I0
tp641
a(I52
I73
F-0.625
S'other'
p642
I0
tp643
a(I88
I0
F0.125
S'first'
p644
I0
tp645
as(S'in'
p646
S'sim'
p647
S'card'
p648
tp649
(lp650
(I1
I23
F1.0
g472
I0
tp651
a(I6
I102
F1.0
g474
I0
tp652
a(I27
I3
I0
g476
I0
tp653
a(I36
I27
I0
g478
I0
tp654
a(I37
I45
F1.0
g480
I0
tp655
a(I44
I49
F-0.25
g485
I0
tp656
a(I44
I92
F-0.75
g487
I0
tp657
a(I44
I92
I0
g489
I0
tp658
a(I46
I3
F-0.625
g491
I0
tp659
as(g7
S'call'
p660
S'screen'
p661
tp662
(lp663
(I1
I67
F-0.375
S'black'
p664
I0
tp665
a(I2
I19
F0.375
g441
I0
tp666
a(I15
I42
F-0.375
S'black'
p667
I0
tp668
a(I15
I70
F-0.375
S'black'
p669
I0
tp670
a(I20
I37
F-0.375
S'black'
p671
I0
tp672
a(I22
I2
F-0.375
S'black'
p673
I0
tp674
a(I26
I9
F1.0
S'good'
p675
I0
tp676
a(I35
I14
F-0.375
S'black'
p677
I0
tp678
a(I37
I40
F-0.375
S'black'
p679
I0
tp680
a(I44
I102
F-0.375
S'black'
p681
I0
tp682
a(I60
I12
F-0.375
S'black'
p683
I0
tp684
as(S'waste'
p685
S'of'
p686
S'money'
p687
tp688
(lp689
(I37
I29
I0
S'later'
p690
I4
tp691
as(S'bells'
p692
S'and'
p693
S'whistles'
p694
tp695
(lp696
(I37
I91
F0.125
S'usual'
p697
I0
tp698
a(I49
I21
I0
S'few'
p699
I0
tp700
a(I59
I44
F0.5
S'true'
p701
I0
tp702
as(S'receive'
p703
g7
S'call'
p704
tp705
(lp706
(I6
I74
F0.125
g443
I0
tp707
as(g7
S'good'
p708
S'buy'
p709
tp710
(lp711
(I22
I9
F1.0
S'good'
p712
I6
tp713
a(I34
I7
F1.0
S'good'
p714
I6
tp715
a(I42
I1
F1.0
S'good'
p716
I6
tp717
a(I44
I79
I0
S'current'
p718
I6
tp719
a(I60
I11
F1.0
S'good'
p720
I6
tp721
a(I85
I35
F1.0
S'good'
p722
I6
tp723
as(S'of'
p724
S'galaxy'
p725
S'note'
p726
tp727
(lp728
(I2
I26
F0.375
g49
I0
tp729
a(I6
I1
F0.25
g51
I0
tp730
a(I59
I43
F1.0
g64
I0
tp731
a(I59
I43
I0
g66
I0
tp732
a(I59
I43
F0.25
g68
I0
tp733
as(S'data'
p734
tp735
(lp736
(I4
I4
F-0.5
S'heavy'
p737
I13
tp738
a(I37
I81
F-0.125
S'minimum'
p739
I13
tp740
a(I43
I45
F0.5
S'compatible'
p741
I13
tp742
a(I46
I41
F-0.375
S'smaller'
p743
I13
tp744
a(I76
I12
F-0.125
S'slow'
p745
I13
tp746
as(S'analog'
p747
S'tv'
p748
tp749
(lp750
(I33
I11
F0.125
S'digital'
p751
I1
tp752
a(I39
I1
I0
S'anymore'
p753
I1
tp754
a(I43
I33
F0.125
S'digital'
p755
I1
tp756
a(I44
I111
F0.125
S'digital'
p757
I1
tp758
as(g7
S'sim'
p759
S'card'
p760
tp761
(lp762
(I1
I23
F1.0
g472
I0
tp763
a(I6
I102
F1.0
g474
I0
tp764
a(I27
I3
I0
g476
I0
tp765
a(I36
I27
I0
g478
I0
tp766
a(I37
I45
F1.0
g480
I0
tp767
a(I37
I173
F0.875
g470
I0
tp768
a(I44
I15
F-0.375
g483
I0
tp769
a(I44
I49
F-0.25
g485
I0
tp770
a(I44
I92
F-0.75
g487
I0
tp771
a(I44
I92
I0
g489
I0
tp772
a(I46
I3
F-0.625
g491
I0
tp773
a(I65
I4
F-0.625
g493
I0
tp774
as(S'5'
p775
S'inch'
p776
S'screen'
p777
tp778
(lp779
(I20
I0
I0
g581
I0
tp780
a(I37
I172
F0.25
S'sharp'
p781
I0
tp782
as(S't'
p783
S'mobile'
p784
S'sim'
p785
tp786
(lp787
(I37
I45
F1.0
g480
I0
tp788
as(S'volume'
p789
tp790
(lp791
(I4
I6
I0
S'high'
p792
I6
tp793
a(I13
I5
F-0.25
S'low'
p794
I6
tp795
a(I13
I5
I0
S'headset'
p796
I6
tp797
a(I15
I82
F-0.25
S'highest'
p798
I6
tp799
a(I20
I31
F-0.25
S'low'
p800
I6
tp801
a(I39
I27
F-0.25
S'highest'
p802
I6
tp803
a(I52
I82
F-0.25
S'low'
p804
I6
tp805
a(I87
I3
F-0.25
S'low'
p806
I6
tp807
a(I87
I3
I0
S'high'
p808
I6
tp809
as(S'wifi'
p810
tp811
(lp812
(I4
I10
F-0.875
S'worst'
p813
I0
tp814
a(I6
I111
I0
S'fast'
p815
I0
tp816
a(I44
I119
F-0.875
S'awful'
p817
I0
tp818
a(I46
I65
F-0.375
S'disable'
p819
I0
tp820
a(I46
I65
F0.375
S'enable'
p821
I0
tp822
a(I66
I15
F-0.125
S'super'
p823
I0
tp824
a(I66
I15
I0
S'fast'
p825
I0
tp826
a(I76
I41
F-0.625
S'free'
p827
I0
tp828
as(S'apps'
p829
tp830
(lp831
(I4
I7
F-0.625
S'other'
p832
I0
tp833
a(I10
I3
I0
S'downloaded'
p834
I0
tp835
a(I17
I28
I0
S'internet'
p836
I0
tp837
a(I25
I10
I0
S'same'
p838
I0
tp839
a(I25
I10
F0.625
S'magnetic'
p840
I0
tp841
a(I27
I20
F-0.625
S'other'
p842
I0
tp843
a(I29
I40
F-0.375
S'loaded'
p844
I0
tp845
a(I29
I40
F0.25
S'favorite'
p846
I0
tp847
a(I36
I71
I0
S'many'
p848
I0
tp849
a(I37
I192
I0
S'great'
p850
I0
tp851
a(I39
I15
I0
S'most'
p852
I0
tp853
a(I39
I32
I0
S'most'
p854
I0
tp855
a(I51
I0
F1.0
S'good'
p856
I0
tp857
a(I56
I42
I0
S'many'
p858
I0
tp859
a(I56
I44
F-0.625
S'free'
p860
I0
tp861
a(I68
I10
I0
S'fast'
p862
I0
tp863
a(I68
I27
F-0.5
S'sure'
p864
I0
tp865
a(I68
I27
F0.375
S'acting'
p866
I0
tp867
a(I82
I19
I0
S'latest'
p868
I0
tp869
a(I87
I9
I0
S'most'
p870
I0
tp871
as(S'amazon'
p872
tp873
(lp874
(I14
I1
F1.0
S'good'
p875
I13
tp876
a(I18
I69
F0.875
S'happy'
p877
I13
tp878
a(I52
I35
F1.0
S'good'
p879
I13
tp880
a(I76
I46
I0
S'great'
p881
I13
tp882
as(S'touch'
p883
S'screen'
p884
tp885
(lp886
(I4
I4
I0
S'big'
p887
I2
tp888
a(I4
I4
F-0.5
S'heavy'
p889
I2
tp890
a(I15
I67
F0.5
S'touch'
p891
I2
tp892
a(I26
I5
F0.25
S'responsive'
p893
I2
tp894
a(I26
I9
F1.0
g675
I2
tp895
a(I31
I16
F0.5
S'touch'
p896
I2
tp897
a(I31
I16
F1.0
S'good'
p898
I2
tp899
a(I31
I16
F1.0
S'best'
p900
I2
tp901
a(I35
I36
F0.5
S'touch'
p902
I2
tp903
a(I36
I10
F0.5
S'touch'
p904
I2
tp905
a(I37
I154
F0.5
S'touch'
p906
I2
tp907
a(I44
I68
I0
S'sensitive'
p908
I2
tp909
a(I64
I0
F1.0
S'good'
p910
I2
tp911
a(I64
I0
F0.75
S'beautiful'
p912
I2
tp913
a(I69
I0
F0.5
S'touch'
p914
I2
tp915
as.