(dp0
(S'kyocera'
p1
S'hydro'
p2
tp3
(lp4
(I4
I72
F0.375
S'new'
p5
I0
tp6
a(I30
I1
I0
S'more'
p7
I0
tp8
a(I30
I64
I0
S'android'
p9
I0
tp10
a(I37
I6
F0.375
S'new'
p11
I0
tp12
a(I4
I72
F0.375
g5
I0
tp13
a(I21
I16
F-0.625
S'other'
p14
I0
tp15
a(I30
I64
I0
g9
I0
tp16
a(I31
I27
F-0.5
S'sure'
p17
I0
tp18
a(I37
I6
F0.375
g11
I0
tp19
a(I71
I23
F-0.5
S'try'
p20
I0
tp21
a(I20
I24
F0.5
S'second'
p22
I0
tp23
a(I23
I3
F0.875
S'happy'
p24
I0
tp25
a(I23
I53
F-0.625
S'bad'
p26
I0
tp27
a(I30
I1
I0
g7
I0
tp28
a(I30
I21
I0
S'useful'
p29
I0
tp30
a(I30
I57
I0
S'stable'
p31
I0
tp32
a(I45
I0
F-0.375
S'small'
p33
I0
tp34
a(I45
I0
F0.625
S'easy'
p35
I0
tp36
a(I62
I47
F0.375
S'reliable'
p37
I0
tp38
a(I62
I47
F0.875
S'attractive'
p39
I0
tp40
a(I64
I31
F-0.625
S'light'
p41
I0
tp42
a(I64
I72
F0.375
S'new'
p43
I0
tp44
as(S'battery'
p45
S'life'
p46
tp47
(lp48
(I2
I2
F1.0
S'good'
p49
I1
tp50
a(I2
I14
F1.0
S'good'
p51
I1
tp52
a(I2
I23
F1.0
S'good'
p53
I1
tp54
a(I17
I1
F-0.75
S'short'
p55
I1
tp56
a(I20
I23
F0.625
S'accessible'
p57
I1
tp58
a(I21
I27
F0.125
S'able'
p59
I1
tp60
a(I21
I40
F1.0
S'good'
p61
I1
tp62
a(I30
I89
F-0.75
S'short'
p63
I1
tp64
a(I47
I6
F1.0
S'good'
p65
I1
tp66
a(I50
I16
F-0.5
S'complaint'
p67
I1
tp68
a(I50
I16
F-0.75
S'short'
p69
I1
tp70
a(I55
I12
F-0.75
S'short'
p71
I1
tp72
a(I76
I25
F-0.125
S'overall'
p73
I1
tp74
a(I76
I25
F-0.875
S'worst'
p75
I1
tp76
a(I79
I11
I0
S'standard'
p77
I1
tp78
a(I79
I11
F1.0
S'good'
p79
I1
tp80
a(I81
I10
F-0.75
S'worse'
p81
I1
tp82
a(I2
I2
F1.0
g49
I19
tp83
a(I2
I14
F1.0
g51
I19
tp84
a(I21
I40
F1.0
g61
I19
tp85
a(I50
I16
F-0.75
g69
I19
tp86
a(I55
I12
F-0.75
g71
I19
tp87
a(I76
I25
F-0.125
g73
I19
tp88
a(I76
I25
F-0.875
g75
I19
tp89
a(I79
I11
I0
g77
I19
tp90
a(I79
I11
F1.0
g79
I19
tp91
a(I81
I10
F-0.75
g81
I19
tp92
a(I81
I43
F0.625
S'easier'
p93
I19
tp94
a(I1
I0
F-0.5
S'weak'
p95
I15
tp96
a(I2
I23
F1.0
g53
I15
tp97
a(I7
I12
F0.375
S'meant'
p98
I15
tp99
a(I10
I4
F1.0
S'better'
p100
I15
tp101
a(I12
I8
F0.125
S'last'
p102
I15
tp103
a(I16
I24
I0
S'fast'
p104
I15
tp105
a(I17
I1
F-0.75
g55
I15
tp106
a(I20
I23
F0.625
g57
I15
tp107
a(I20
I67
I0
S'hot'
p108
I15
tp109
a(I21
I27
F0.125
g59
I15
tp110
a(I23
I56
F0.375
S'much'
p111
I15
tp112
a(I23
I60
I0
S'most'
p113
I15
tp114
a(I23
I60
F-0.25
S'past'
p115
I15
tp116
a(I29
I1
F0.125
S'last'
p117
I15
tp118
a(I30
I89
F-0.75
g63
I15
tp119
a(I37
I8
F-0.5
S'less'
p120
I15
tp121
a(I47
I6
F1.0
g65
I15
tp122
a(I48
I35
F0.5
S'careful'
p123
I15
tp124
a(I50
I16
F-0.5
g67
I15
tp125
a(I52
I6
F0.75
S'due'
p126
I15
tp127
a(I54
I4
F-0.875
S'worst'
p128
I15
tp129
a(I58
I18
I0
S'fast'
p130
I15
tp131
a(I58
I66
F0.5
S'second'
p132
I15
tp133
a(I58
I66
F-0.375
S'daily'
p134
I15
tp135
a(I58
I98
F0.5
S'clear'
p136
I15
tp137
a(I59
I3
I0
S'fullest'
p138
I15
tp139
a(I65
I12
I0
S'fast'
p140
I15
tp141
a(I73
I14
F1.0
S'better'
p142
I15
tp143
a(I73
I37
F-0.75
S'dead'
p144
I15
tp145
a(I73
I38
I0
S'plastic'
p146
I15
tp147
a(I78
I6
F-0.75
S'dead'
p148
I15
tp149
as(S'power'
p150
S'button'
p151
tp152
(lp153
(I47
I42
I0
S'hear'
p154
I0
tp155
a(I81
I8
I0
S'such'
p156
I0
tp157
a(I23
I23
I0
S'physical'
p158
I19
tp159
a(I47
I42
I0
g154
I19
tp160
a(I81
I8
I0
g156
I19
tp161
as(S'text'
p162
tp163
(lp164
(I23
I32
I-100
S'messaging/mail'
p165
I18
tp166
a(I24
I8
I0
S'vocal'
p167
I18
tp168
as(S'gon'
p169
S'na'
p170
tp171
(lp172
(I10
I15
F1.0
S'better'
p173
I1
tp174
as(S'service'
p175
tp176
(lp177
(I30
I62
F0.625
S'easy'
p178
I16
tp179
a(I42
I27
F1.0
S'best'
p180
I16
tp181
a(I42
I28
F0.375
S'reliable'
p182
I16
tp183
a(I42
I28
F0.125
S'capable'
p184
I16
tp185
a(I50
I1
F0.625
S'easy'
p186
I16
tp187
a(I50
I1
I0
S'great'
p188
I16
tp189
a(I62
I39
F1.0
S'good'
p190
I16
tp191
a(I65
I48
F-0.125
S'slow'
p192
I16
tp193
a(I67
I44
F-0.25
S'stunned'
p194
I16
tp195
as(S'camera'
p196
tp197
(lp198
(I4
I10
F-0.75
S'unresponsive'
p199
I1
tp200
a(I19
I11
I0
S'great'
p201
I1
tp202
a(I30
I24
I0
S'rear'
p203
I1
tp204
a(I42
I24
F1.0
S'good'
p205
I1
tp206
a(I51
I7
F-0.625
S'bad'
p207
I1
tp208
a(I51
I18
I0
S'great'
p209
I1
tp210
a(I51
I18
I0
S'real'
p211
I1
tp212
a(I58
I52
F1.0
S'good'
p213
I1
tp214
a(I58
I84
F0.125
S'digital'
p215
I1
tp216
a(I64
I73
I0
S'autofocus'
p217
I1
tp218
a(I65
I24
I0
S'third'
p219
I1
tp220
a(I76
I32
F-0.5
S'weak'
p221
I1
tp222
as(S'operating'
p223
S'system'
p224
tp225
(lp226
(I31
I19
F-0.625
S'other'
p227
I2
tp228
a(I47
I60
F0.5
S'expensive'
p229
I2
tp230
a(I63
I32
F-0.125
S'slow'
p231
I2
tp232
as(S'headphone'
p233
S'jack'
p234
tp235
(lp236
(I30
I7
I0
S'standard'
p237
I0
tp238
a(I50
I10
F-0.375
S'top'
p239
I0
tp240
as(S'google'
p241
tp242
(lp243
(I4
I46
F0.5
S'compatible'
p244
I4
tp245
a(I21
I27
I-100
S'built-'
p246
I4
tp247
a(I64
I21
F0.625
S'responsible'
p248
I4
tp249
as(S'task'
p250
S'killer'
p251
tp252
(lp253
(I37
I22
F0.5
S'advanced'
p254
I0
tp255
as(S'sd'
p256
S'card'
p257
tp258
(lp259
(I3
I8
F0.625
S'easy'
p260
I0
tp261
a(I3
I8
F0.125
S'able'
p262
I0
tp263
a(I30
I58
F0.875
S'music'
p264
I0
tp265
a(I30
I90
I0
S'full'
p266
I0
tp267
as(S'ice'
p268
S'cream'
p269
S'sandwich'
p270
tp271
(lp272
(I63
I28
I0
S'cool'
p273
I0
tp274
a(I63
I28
I0
g273
I0
tp275
as(S'social'
p276
S'networking'
p277
tp278
(lp279
(I47
I57
I0
S'social'
p280
I0
tp281
a(I50
I15
I0
S'social'
p282
I0
tp283
a(I50
I16
I0
S'social'
p284
I0
tp285
as(S'android'
p286
tp287
(lp288
(I4
I51
F0.25
S'favorite'
p289
I0
tp290
a(I7
I13
I0
S'great'
p291
I0
tp292
a(I16
I25
I0
S'most'
p293
I0
tp294
a(I30
I1
F-0.25
S'cheapest'
p295
I0
tp296
a(I33
I1
I0
S'great'
p297
I0
tp298
a(I33
I1
F-0.75
S'little'
p299
I0
tp300
a(I47
I30
F0.125
S'first'
p301
I0
tp302
a(I58
I6
F0.125
S'first'
p303
I0
tp304
a(I58
I6
F-0.625
S'glad'
p305
I0
tp306
a(I59
I1
F0.125
S'first'
p307
I0
tp308
a(I63
I4
F-0.375
S'small'
p309
I0
tp310
a(I66
I1
F0.125
S'first'
p311
I0
tp312
a(I66
I5
I0
S'great'
p313
I0
tp314
a(I74
I5
F0.125
S'first'
p315
I0
tp316
a(I81
I2
F1.0
S'good'
p317
I0
tp318
a(I82
I4
F0.875
S'nice'
p319
I0
tp320
a(I82
I4
I0
S'basic'
p321
I0
tp322
as(S'to'
p323
S'boost'
p324
S'mobile'
p325
tp326
(lp327
(I5
I5
I0
S'local'
p328
I0
tp329
a(I71
I13
I0
S'monthly'
p330
I0
tp331
a(I5
I5
I0
g328
I0
tp332
a(I50
I11
F-0.625
S'other'
p333
I0
tp334
a(I58
I77
F-0.125
S'overall'
p335
I0
tp336
a(I71
I13
I0
g330
I0
tp337
a(I74
I9
F-0.5
S'actual'
p338
I0
tp339
a(I58
I77
F-0.125
g335
I0
tp340
a(I64
I8
F0.375
S'much'
p341
I0
tp342
a(I5
I5
I0
g328
I0
tp343
a(I12
I8
F-0.25
S'cheaper'
p344
I0
tp345
a(I30
I1
F0.75
S'due'
p346
I0
tp347
a(I31
I36
F0.125
S'tower'
p348
I0
tp349
a(I42
I19
F-0.625
S'other'
p350
I0
tp351
a(I42
I28
I0
S'more'
p352
I0
tp353
a(I50
I11
F-0.625
g333
I0
tp354
a(I57
I27
F-0.75
S'worse'
p355
I0
tp356
a(I57
I28
F-0.875
S'worst'
p357
I0
tp358
a(I71
I13
I0
g330
I0
tp359
a(I74
I0
I0
S'more'
p360
I0
tp361
a(I74
I0
I0
S'more'
p362
I0
tp363
a(I74
I9
F-0.5
g338
I0
tp364
a(I83
I6
I0
S'same'
p365
I0
tp366
as(S'sim'
p367
S'card'
p368
tp369
(lp370
(I71
I12
F-0.75
S'damaged'
p371
I0
tp372
as(S'smart'
p373
tp374
(lp375
(I16
I8
I0
S'more'
p376
I10
tp377
a(I16
I8
F0.5
S'expensive'
p378
I10
tp379
a(I19
I21
F0.125
S'first'
p380
I10
tp381
a(I23
I22
F0.125
S'first'
p382
I10
tp383
a(I30
I14
I0
S'most'
p384
I10
tp385
a(I30
I14
F-0.625
S'other'
p386
I10
tp387
a(I63
I0
I0
S'great'
p388
I10
tp389
a(I80
I8
I0
S'great'
p390
I10
tp391
a(I80
I9
F1.0
S'good'
p392
I10
tp393
as(S'water'
p394
S'proof'
p395
S'feature'
p396
tp397
(lp398
(I16
I41
I0
S'yeah'
p399
I0
tp400
a(I7
I6
F-0.75
S'little'
p401
I6
tp402
a(I16
I41
I0
g399
I6
tp403
a(I22
I0
I0
S'least'
p404
I6
tp405
a(I23
I62
F0.625
S'easy'
p406
I6
tp407
a(I31
I1
F0.125
S'first'
p408
I6
tp409
a(I31
I1
I0
S'cool'
p410
I6
tp411
a(I31
I1
I0
S'android'
p412
I6
tp413
a(I50
I6
F0.75
S'ideal'
p414
I6
tp415
a(I51
I16
F-0.625
S'fresh'
p416
I6
tp417
a(I59
I17
F-0.75
S'dead'
p418
I6
tp419
as(S'calls'
p420
tp421
(lp422
(I3
I3
F0.375
S'unintelligible'
p423
I0
tp424
a(I14
I4
F0.5
S'clear'
p425
I0
tp426
a(I23
I19
I0
S'hear'
p427
I0
tp428
a(I23
I19
F0.5
S'clear'
p429
I0
tp430
a(I29
I10
F-0.25
S'dropped'
p431
I0
tp432
a(I29
I10
F-0.5
S'sure'
p433
I0
tp434
a(I50
I8
I0
S'great'
p435
I0
tp436
a(I57
I31
F-0.125
S'slow'
p437
I0
tp438
a(I63
I54
I0
S'more'
p439
I0
tp440
a(I65
I50
I0
S'many'
p441
I0
tp442
a(I65
I50
I0
S'many'
p443
I0
tp444
a(I67
I4
F-0.25
S'hang'
p445
I0
tp446
a(I67
I42
F-0.125
S'private'
p447
I0
tp448
a(I81
I17
I0
S'least'
p449
I0
tp450
a(I81
I17
I0
S'fast'
p451
I0
tp452
as(S'amazon'
p453
tp454
(lp455
(I2
I18
F0.375
S'prime'
p456
I13
tp457
a(I33
I0
I0
S'many'
p458
I13
tp459
a(I78
I27
I0
S'many'
p460
I13
tp461
a(I78
I27
I0
S'more'
p462
I13
tp463
as(S'single'
p464
S'core'
p465
tp466
(lp467
(I47
I6
F-0.75
S'single'
p468
I0
tp469
a(I78
I22
F-0.75
S'single'
p470
I0
tp471
a(I78
I22
F0.125
S'impressive'
p472
I0
tp473
a(I79
I8
F-0.75
S'single'
p474
I0
tp475
a(I82
I0
F-0.75
S'single'
p476
I0
tp477
as(S'music'
p478
tp479
(lp480
(I4
I46
F0.375
S'new'
p481
I0
tp482
a(I42
I31
F0.75
S'worth'
p483
I0
tp484
a(I69
I3
I0
S'own'
p485
I0
tp486
as(S'much'
p487
S'better'
p488
tp489
(lp490
(I7
I20
F0.375
S'much'
p491
I9
tp492
a(I16
I5
F0.375
S'much'
p493
I9
tp494
a(I47
I28
F0.375
S'much'
p495
I9
tp496
a(I47
I49
F0.375
S'much'
p497
I9
tp498
a(I62
I29
F0.375
S'much'
p499
I9
tp500
as(S'eco'
p501
S'mode'
p502
tp503
(lp504
(I4
I49
F0.875
S'nice'
p505
I0
tp506
a(I4
I49
I0
S'automatic'
p507
I0
tp508
a(I31
I20
I0
S'real'
p509
I0
tp510
a(I50
I7
I0
S'great'
p511
I0
tp512
as(S'wifi'
p513
tp514
(lp515
(I19
I35
F-0.625
S'other'
p516
I0
tp517
a(I23
I48
F0.125
S'able'
p518
I0
tp519
a(I23
I51
F-0.5
S'weak'
p520
I0
tp521
a(I23
I51
I0
S'signal'
p522
I0
tp523
a(I30
I10
F0.125
S'capable'
p524
I0
tp525
a(I47
I15
F-0.125
S'slow'
p526
I0
tp527
a(I58
I39
F1.0
S'good'
p528
I0
tp529
a(I58
I40
F0.125
S'able'
p530
I0
tp531
as(S'apps'
p532
tp533
(lp534
(I3
I7
I0
S'great'
p535
I0
tp536
a(I4
I44
I0
S'more'
p537
I0
tp538
a(I4
I46
F0.25
S'favorite'
p539
I0
tp540
a(I21
I32
I0
S'many'
p541
I0
tp542
a(I21
I32
F0.875
S'music'
p543
I0
tp544
a(I30
I21
I0
S'few'
p545
I0
tp546
a(I30
I21
I0
S'such'
p547
I0
tp548
a(I30
I35
F0.375
S'available'
p549
I0
tp550
a(I30
I82
F0.5
S'compatible'
p551
I0
tp552
a(I46
I1
F-0.625
S'other'
p553
I0
tp554
a(I46
I1
I0
S'such'
p555
I0
tp556
a(I47
I7
I0
S'android'
p557
I0
tp558
a(I48
I2
I0
S'latest'
p559
I0
tp560
a(I50
I7
I0
S'few'
p561
I0
tp562
a(I67
I7
F-0.625
S'other'
p563
I0
tp564
a(I76
I19
I0
S'close'
p565
I0
tp566
a(I79
I15
F0.625
S'necessary'
p567
I0
tp568
a(I79
I15
I0
S'hot'
p569
I0
tp570
a(I79
I15
F0.625
S'necessary'
p571
I0
tp572
a(I81
I10
F-0.25
S'intensive'
p573
I0
tp574
a(I81
I42
I0
S'many'
p575
I0
tp576
as(S'waterproof'
p577
tp578
(lp579
(I31
I32
F0.875
S'nice'
p580
I0
tp581
as(S'mp3'
p582
S'player'
p583
tp584
(lp585
(I4
I39
I0
S'android'
p586
I1
tp587
a(I4
I51
I0
S'great'
p588
I1
tp589
a(I16
I27
I0
S'water'
p590
I1
tp591
a(I30
I43
F1.0
S'good'
p592
I1
tp593
a(I30
I55
F-0.75
S'dirty'
p594
I1
tp595
a(I30
I61
I0
S'great'
p596
I1
tp597
a(I30
I61
F-0.75
S'little'
p598
I1
tp599
a(I30
I62
I0
S'normal'
p600
I1
tp601
as(S'touch'
p602
S'screen'
p603
tp604
(lp605
(I4
I64
I0
S'capacitive'
p606
I2
tp607
a(I4
I64
F0.25
S'responsive'
p608
I2
tp609
a(I17
I0
F1.0
S'good'
p610
I2
tp611
a(I21
I21
F0.5
S'touch'
p612
I2
tp613
a(I23
I32
F0.125
S'last'
p614
I2
tp615
a(I47
I18
F-0.5
S'less'
p616
I2
tp617
a(I47
I18
F-0.625
S'other'
p618
I2
tp619
a(I47
I40
F0.5
S'touch'
p620
I2
tp621
a(I62
I39
F0.25
S'responsive'
p622
I2
tp623
a(I63
I61
F0.5
S'touch'
p624
I2
tp625
a(I63
I61
I0
S'cool'
p626
I2
tp627
a(I76
I12
F0.25
S'responsive'
p628
I2
tp629
a(I76
I21
F-0.5
S'sure'
p630
I2
tp631
a(I76
I21
F0.5
S'touch'
p632
I2
tp633
as.