(dp0
(S'battery'
p1
S'life'
p2
tp3
(lp4
(I0
I34
F-0.625
S'bad'
p5
I1
tp6
a(I0
I119
F1.0
S'best'
p7
I1
tp8
a(I5
I5
F-0.5
S'longer'
p9
I1
tp10
a(I5
I5
I0
S'faster'
p11
I1
tp12
a(I13
I2
F1.0
S'good'
p13
I1
tp14
a(I20
I3
F1.0
S'good'
p15
I1
tp16
a(I23
I60
F-0.625
S'average'
p17
I1
tp18
a(I24
I9
F-0.5
S'long'
p19
I1
tp20
a(I33
I11
F0.375
S'much'
p21
I1
tp22
a(I46
I53
F1.0
S'good'
p23
I1
tp24
a(I49
I28
F1.0
S'good'
p25
I1
tp26
a(I0
I119
F1.0
g7
I19
tp27
a(I5
I5
I0
g11
I19
tp28
a(I13
I2
F1.0
g13
I19
tp29
a(I20
I3
F1.0
g15
I19
tp30
a(I24
I9
F-0.5
g19
I19
tp31
a(I46
I53
F1.0
g23
I19
tp32
a(I49
I28
F1.0
g25
I19
tp33
a(I0
I34
F-0.625
g5
I15
tp34
a(I5
I5
F-0.5
g9
I15
tp35
a(I19
I39
I0
S'most'
p36
I15
tp37
a(I19
I39
F-0.5
S'weak'
p38
I15
tp39
a(I19
I48
I0
S'such'
p40
I15
tp41
a(I19
I48
F-0.5
S'weak'
p42
I15
tp43
a(I21
I11
F0.125
S'last'
p44
I15
tp45
a(I23
I60
F-0.625
g17
I15
tp46
a(I32
I5
F-0.75
S'dead'
p47
I15
tp48
a(I32
I19
F-0.75
S'dry'
p49
I15
tp50
a(I33
I11
F0.375
g21
I15
tp51
a(I40
I8
F0.625
S'removable'
p52
I15
tp53
a(I40
I8
I0
S'useful'
p54
I15
tp55
a(I44
I19
F0.25
S'larger'
p56
I15
tp57
a(I44
I19
F0.625
S'perfect'
p58
I15
tp59
a(I46
I15
F0.125
S'last'
p60
I15
tp61
a(I46
I34
F-0.75
S'dead'
p62
I15
tp63
a(I46
I54
F-0.5
S'long'
p64
I15
tp65
a(I46
I55
I0
S'full'
p66
I15
tp67
a(I46
I58
F0.5
S'expensive'
p68
I15
tp69
as(S'sony'
p70
S'xperia'
p71
tp72
(lp73
(I41
I2
F0.375
S'new'
p74
I0
tp75
a(I0
I4
F-0.375
S'black'
p76
I0
tp77
a(I41
I2
F0.375
g74
I0
tp78
a(I0
I183
I0
S'website'
p79
I5
tp80
a(I19
I57
I0
S'anymore'
p81
I5
tp82
a(I23
I42
F0.125
S'able'
p83
I5
tp84
a(I33
I31
F0.125
S'able'
p85
I5
tp86
a(I37
I13
I0
S'faster'
p87
I5
tp88
a(I46
I21
F0.125
S'first'
p89
I5
tp90
as(S'service'
p91
tp92
(lp93
(I3
I15
I0
S'al'
p94
I16
tp95
a(I45
I31
I0
S'many'
p96
I16
tp97
as(S'light'
p98
S'bar'
p99
tp100
(lp101
(I0
I111
F-0.625
S'light'
p102
I0
tp103
a(I0
I120
F-0.625
S'light'
p104
I0
tp105
a(I31
I16
F-0.625
S'light'
p106
I0
tp107
as(S'camera'
p108
tp109
(lp110
(I0
I68
F1.0
S'good'
p111
I1
tp112
a(I0
I69
F1.0
S'best'
p113
I1
tp114
a(I0
I69
F-0.875
S'worst'
p115
I1
tp116
a(I0
I176
F0.25
S'powerful'
p117
I1
tp118
a(I16
I32
F0.875
S'nice'
p119
I1
tp120
a(I17
I4
F0.75
S'due'
p121
I1
tp122
a(I21
I13
F-0.5
S'longer'
p123
I1
tp124
a(I37
I11
F0.875
S'nice'
p125
I1
tp126
a(I44
I18
F1.0
S'good'
p127
I1
tp128
a(I45
I16
I0
S'great'
p129
I1
tp130
a(I46
I24
F1.0
S'good'
p131
I1
tp132
a(I46
I46
F1.0
S'good'
p133
I1
tp134
a(I47
I4
F0.125
S'key'
p135
I1
tp136
a(I48
I5
F1.0
S'good'
p137
I1
tp138
a(I49
I9
I0
S'3d'
p139
I1
tp140
as(S'expandable'
p141
S'storage'
p142
tp143
(lp144
(I23
I46
F0.125
S'popular'
p145
I0
tp146
a(I45
I38
F-0.375
S'small'
p147
I0
tp148
a(I1
I7
F-0.875
S'stuck'
p149
I1
tp150
a(I1
I7
I0
S'standard'
p151
I1
tp152
a(I3
I19
F0.375
S'much'
p153
I1
tp154
a(I8
I12
I0
S'internal'
p155
I1
tp156
a(I8
I12
F-0.75
S'sufficient'
p157
I1
tp158
a(I9
I7
F-0.375
S'small'
p159
I1
tp160
a(I9
I21
I0
S'only'
p161
I1
tp162
a(I9
I21
F-0.875
S'negative'
p163
I1
tp164
a(I13
I18
F0.375
S'available'
p165
I1
tp166
a(I23
I46
F0.125
g145
I1
tp167
a(I45
I38
F-0.375
g147
I1
tp168
as(S'iphone'
p169
tp170
(lp171
(I0
I46
F0.25
S'original'
p172
I1
tp173
a(I3
I11
F0.125
S'usual'
p174
I1
tp175
a(I3
I12
F0.5
S'expensive'
p176
I1
tp177
a(I23
I15
I0
S'many'
p178
I1
tp179
as(S'straight'
p180
S'talk'
p181
tp182
(lp183
(I19
I58
F0.625
S'straight'
p184
I0
tp185
a(I29
I2
I0
S'full'
p186
I0
tp187
as(S'apps'
p188
tp189
(lp190
(I0
I25
I0
S'more'
p191
I0
tp192
a(I5
I8
F0.875
S'music'
p193
I0
tp194
a(I11
I5
I0
S'basic'
p195
I0
tp196
a(I44
I13
I0
S'great'
p197
I0
tp198
a(I45
I15
F0.875
S'music'
p199
I0
tp200
a(I45
I22
I0
S'more'
p201
I0
tp202
as(S'memory'
p203
tp204
(lp205
(I2
I0
I0
S'more'
p206
I5
tp207
a(I5
I8
I0
S'external'
p208
I5
tp209
a(I19
I61
I0
S'more'
p210
I5
tp211
a(I46
I16
I0
S'internal'
p212
I5
tp213
a(I46
I16
I0
S'adequate'
p214
I5
tp215
as(S'good'
p216
S'price'
p217
tp218
(lp219
(I0
I25
F1.0
S'good'
p220
I14
tp221
a(I17
I7
F0.875
S'nice'
p222
I14
tp223
a(I17
I7
F1.0
S'good'
p224
I14
tp225
a(I19
I69
I0
S'great'
p226
I14
tp227
a(I43
I5
F1.0
S'good'
p228
I14
tp229
a(I44
I17
F1.0
S'best'
p230
I14
tp231
as(S'mobile'
p232
tp233
(lp234
(I35
I6
F0.375
S'new'
p235
I0
tp236
as(S'no'
p237
S'sd'
p238
S'card'
p239
tp240
(lp241
(I6
I3
I0
S'sd'
p242
I0
tp243
a(I19
I63
I0
S'external'
p244
I0
tp245
as(S'android'
p246
tp247
(lp248
(I0
I25
F1.0
S'good'
p249
I0
tp250
a(I3
I0
I0
S'great'
p251
I0
tp252
a(I5
I17
F-0.625
S'other'
p253
I0
tp254
a(I23
I12
I0
S'many'
p255
I0
tp256
a(I26
I6
F-0.625
S'other'
p257
I0
tp258
a(I35
I6
F1.0
S'good'
p259
I0
tp260
a(I39
I5
I0
S'stable'
p261
I0
tp262
a(I45
I10
F0.375
S'new'
p263
I0
tp264
a(I49
I5
F0.5
S'upgraded'
p265
I0
tp266
a(I49
I33
I0
S'romanian'
p267
I0
tp268
as(S'sd'
p269
S'card'
p270
S'slot'
p271
tp272
(lp273
(I6
I3
I0
g242
I0
tp274
a(I43
I15
I0
S'cooler'
p275
I0
tp276
a(I6
I3
I0
g242
I0
tp277
a(I19
I63
I0
g244
I0
tp278
a(I6
I3
I0
g242
I0
tp279
a(I43
I15
I0
g275
I0
tp280
as(S'upgrade'
p281
tp282
(lp283
(I19
I74
F0.5
S'clear'
p284
I3
tp285
a(I42
I2
I0
S'next'
p286
I3
tp287
as(S'screen'
p288
S'protector'
p289
tp290
(lp291
(I24
I3
F0.125
S'bent'
p292
I4
tp293
a(I29
I3
F-0.5
S'separate'
p294
I4
tp295
a(I43
I11
F0.375
S'extra'
p296
I4
tp297
as(S'calls'
p298
tp299
(lp300
(I16
I8
F-0.75
S'unable'
p301
I0
tp302
a(I16
I10
I0
S'many'
p303
I0
tp304
a(I17
I19
F0.125
S'able'
p305
I0
tp306
as(S'black'
p307
tp308
(lp309
(I15
I3
F-0.25
S'lower'
p310
I19
tp311
as(S'choice'
p312
tp313
(lp314
(I5
I6
F1.0
S'better'
p315
I18
tp316
a(I23
I14
I0
S'mandatory'
p317
I18
tp318
a(I24
I18
I0
S'great'
p319
I18
tp320
a(I31
I8
I0
S'great'
p321
I18
tp322
a(I35
I7
F1.0
S'good'
p323
I18
tp324
a(I35
I16
F1.0
S'good'
p325
I18
tp326
a(I35
I16
F0.75
S'beautiful'
p327
I18
tp328
a(I37
I12
F1.0
S'best'
p329
I18
tp330
a(I49
I39
F1.0
S'good'
p331
I18
tp332
a(I49
I40
I0
S'great'
p333
I18
tp334
as(S'es'
p335
S'muy'
p336
tp337
(lp338
(I41
I16
I0
S'android'
p339
I0
tp340
as(S'ice'
p341
S'cream'
p342
S'sandwich'
p343
tp344
(lp345
(I0
I15
F0.125
S'capable'
p346
I0
tp347
a(I0
I15
F0.125
g346
I2
tp348
as(S'music'
p349
tp350
(lp351
(I46
I24
F0.875
S'important'
p352
I0
tp353
a(I48
I7
F1.0
S'good'
p354
I0
tp355
as(S'high'
p356
S'end'
p357
tp358
(lp359
(I23
I51
F-0.25
S'low'
p360
I0
tp361
a(I23
I51
I0
S'high'
p362
I0
tp363
a(I45
I37
I0
S'high'
p364
I0
tp365
a(I49
I25
I0
S'high'
p366
I0
tp367
as(S'smartphone'
p368
tp369
(lp370
(I5
I9
F-0.625
S'moderate'
p371
I0
tp372
a(I13
I22
I0
S'great'
p373
I0
tp374
a(I13
I22
I0
S'basic'
p375
I0
tp376
a(I19
I58
F0.125
S'first'
p377
I0
tp378
a(I46
I40
F-0.625
S'other'
p379
I0
tp380
as(S'data'
p381
S'plan'
p382
tp383
(lp384
(I9
I10
F0.125
S'able'
p385
I0
tp386
a(I13
I5
I0
S'great'
p387
I0
tp388
a(I46
I24
F-0.375
S'small'
p389
I0
tp390
a(I0
I19
F-0.125
S'traffic'
p391
I13
tp392
a(I9
I10
F0.125
g385
I13
tp393
a(I13
I5
I0
g387
I13
tp394
a(I46
I24
F-0.375
g389
I13
tp395
as(S'internet'
p396
tp397
(lp398
(I25
I31
I0
S'active'
p399
I6
tp400
a(I46
I53
F-0.5
S'heavy'
p401
I6
tp402
as(S'amazon'
p403
tp404
(lp405
(I30
I8
I0
S'wish'
p406
I13
tp407
a(I36
I6
I0
S'earlier'
p408
I13
tp409
as(S'few'
p410
S'hours'
p411
tp412
(lp413
(I19
I40
I0
S'few'
p414
I2
tp415
a(I43
I18
I0
S'few'
p416
I2
tp417
a(I46
I32
I0
S'few'
p418
I2
tp419
as.