(dp0
(S'home'
p1
S'button'
p2
tp3
(lp4
(I6
I24
F-0.5
S'actual'
p5
I0
tp6
a(I6
I24
I0
S'physical'
p7
I0
tp8
a(I12
I243
I0
S'physical'
p9
I0
tp10
a(I27
I118
I0
S'mechanical'
p11
I0
tp12
a(I27
I118
I0
S'haptic'
p13
I0
tp14
a(I27
I134
F-0.375
S'double'
p15
I0
tp16
a(I27
I186
F-0.875
S'hard'
p17
I0
tp18
a(I28
I53
I0
S'physical'
p19
I0
tp20
a(I11
I129
I0
S'useful'
p21
I19
tp22
a(I27
I118
I0
g11
I19
tp23
a(I27
I118
I0
g13
I19
tp24
a(I27
I119
I0
S'mechanical'
p25
I19
tp26
a(I27
I122
I0
S'fourth'
p27
I19
tp28
a(I27
I126
I0
S'mechanical'
p29
I19
tp30
a(I27
I134
F-0.375
g15
I19
tp31
a(I27
I148
I0
S'mechanical'
p32
I19
tp33
a(I27
I148
I0
S'most'
p34
I19
tp35
a(I28
I53
I0
g19
I19
tp36
as(S'battery'
p37
S'life'
p38
tp39
(lp40
(I4
I20
F0.5
S'comparable'
p41
I1
tp42
a(I4
I55
F-0.25
S'low'
p43
I1
tp44
a(I4
I97
F0.625
S'acceptable'
p45
I1
tp46
a(I4
I100
F-0.25
S'battery'
p47
I1
tp48
a(I8
I15
F0.125
S'last'
p49
I1
tp50
a(I9
I61
I0
S'close'
p51
I1
tp52
a(I11
I92
F-0.75
S'short'
p53
I1
tp54
a(I11
I139
F0.875
S'happy'
p55
I1
tp56
a(I12
I129
F1.0
S'better'
p57
I1
tp58
a(I12
I165
F1.0
S'good'
p59
I1
tp60
a(I12
I279
F0.125
S'solid'
p61
I1
tp62
a(I12
I279
F0.625
S'removable'
p63
I1
tp64
a(I17
I28
F-0.25
S'thin'
p65
I1
tp66
a(I27
I13
F0.375
S'extended'
p67
I1
tp68
a(I4
I20
F0.5
g41
I19
tp69
a(I4
I97
F0.625
g45
I19
tp70
a(I4
I100
F-0.25
g47
I19
tp71
a(I8
I15
F0.125
g49
I19
tp72
a(I9
I42
F-0.75
S'worse'
p73
I19
tp74
a(I9
I61
I0
g51
I19
tp75
a(I12
I165
F1.0
g59
I19
tp76
a(I4
I55
F-0.25
g43
I15
tp77
a(I4
I101
F0.625
S'replaceable'
p78
I15
tp79
a(I8
I20
F-0.625
S'bad'
p80
I15
tp81
a(I9
I133
F0.125
S'able'
p82
I15
tp83
a(I11
I92
F-0.75
g53
I15
tp84
a(I11
I93
I0
S'third'
p85
I15
tp86
a(I11
I123
I0
S'faster'
p87
I15
tp88
a(I11
I125
F-0.125
S'slow'
p89
I15
tp90
a(I11
I139
F0.875
g55
I15
tp91
a(I12
I129
F1.0
g57
I15
tp92
a(I12
I248
F0.625
S'removable'
p93
I15
tp94
a(I12
I278
F1.0
S'good'
p95
I15
tp96
a(I12
I278
I0
S'ran'
p97
I15
tp98
a(I12
I279
F0.125
g61
I15
tp99
a(I12
I279
F0.625
g63
I15
tp100
a(I12
I334
F0.625
S'removable'
p101
I15
tp102
a(I16
I13
I0
S'more'
p103
I15
tp104
a(I17
I28
F-0.25
g65
I15
tp105
a(I18
I8
F0.375
S'extended'
p106
I15
tp107
a(I20
I12
F0.625
S'removable'
p108
I15
tp109
a(I27
I13
F0.375
g67
I15
tp110
a(I27
I67
F0.375
S'extended'
p111
I15
tp112
a(I27
I185
F0.625
S'removable'
p113
I15
tp114
as(S'call'
p115
S'quality'
p116
tp117
(lp118
(I12
I252
F0.125
S'spectacular'
p119
I0
tp120
a(I12
I254
F1.0
S'good'
p121
I0
tp122
a(I27
I23
F1.0
S'good'
p123
I0
tp124
as(S'service'
p125
tp126
(lp127
(I1
I19
I0
S'such'
p128
I16
tp129
a(I1
I19
F-0.625
S'bad'
p130
I16
tp131
a(I11
I116
F0.375
S'reliable'
p132
I16
tp133
a(I12
I13
F-0.625
S'free'
p134
I16
tp135
a(I12
I150
F1.0
S'good'
p136
I16
tp137
a(I12
I191
F-0.5
S'international'
p138
I16
tp139
a(I27
I104
I0
S'quick'
p140
I16
tp141
as(S'camera'
p142
tp143
(lp144
(I1
I6
I0
S'great'
p145
I1
tp146
a(I4
I19
F1.0
S'better'
p147
I1
tp148
a(I9
I26
F0.875
S'nice'
p149
I1
tp150
a(I12
I4
F1.0
S'good'
p151
I1
tp152
a(I12
I288
I0
S'such'
p153
I1
tp154
a(I12
I299
I0
S'faster'
p155
I1
tp156
a(I12
I325
F0.25
S'main'
p157
I1
tp158
a(I12
I331
F0.125
S'last'
p159
I1
tp160
a(I12
I335
I0
S'physical'
p161
I1
tp162
a(I18
I17
I0
S'great'
p163
I1
tp164
a(I20
I18
F-0.625
S'bad'
p165
I1
tp166
as(S'home'
p167
S'screen'
p168
tp169
(lp170
(I12
I168
F0.875
S'nice'
p171
I0
tp172
a(I12
I243
I0
g9
I0
tp173
a(I27
I186
F-0.875
g17
I0
tp174
as(S'iphone'
p175
tp176
(lp177
(I4
I64
I0
S'more'
p178
I1
tp179
a(I4
I64
F-0.125
S'complicated'
p180
I1
tp181
a(I4
I102
F-0.625
S'glad'
p182
I1
tp183
a(I4
I146
F-0.5
S'less'
p184
I1
tp185
a(I7
I45
I0
S'few'
p186
I1
tp187
a(I7
I45
I0
S'android'
p188
I1
tp189
a(I12
I161
F1.0
S'good'
p190
I1
tp191
a(I26
I0
F-0.25
S'formal'
p192
I1
tp193
as(S'signal'
p194
tp195
(lp196
(I18
I5
I0
S'most'
p197
I1
tp198
a(I18
I5
F-0.75
S'likely'
p199
I1
tp200
as(S'google'
p201
tp202
(lp203
(I9
I93
F0.125
S'popular'
p204
I4
tp205
a(I27
I24
I0
S'own'
p206
I4
tp207
a(I27
I132
I0
S'own'
p208
I4
tp209
as(S'samsung'
p210
S'galaxy'
p211
S's'
p212
tp213
(lp214
(I3
I10
F0.375
S'new'
p215
I0
tp216
a(I9
I150
I0
S'many'
p217
I0
tp218
a(I9
I150
F-0.625
S'other'
p219
I0
tp220
a(I12
I232
F-0.375
S'smaller'
p221
I0
tp222
a(I12
I232
F-0.625
S'lighter'
p223
I0
tp224
a(I18
I0
F0.25
S'original'
p225
I0
tp226
a(I22
I0
I0
S'decided'
p227
I0
tp228
a(I26
I15
F0.375
S'new'
p229
I0
tp230
a(I3
I10
F0.375
g215
I0
tp231
a(I9
I150
I0
g217
I0
tp232
a(I9
I150
F-0.625
g219
I0
tp233
a(I12
I232
F-0.375
g221
I0
tp234
a(I12
I232
F-0.625
g223
I0
tp235
a(I18
I0
F0.25
g225
I0
tp236
a(I22
I0
I0
g227
I0
tp237
a(I26
I15
F0.375
g229
I0
tp238
a(I3
I10
F0.375
g215
I7
tp239
a(I6
I1
F0.5
S'upgraded'
p240
I7
tp241
a(I6
I20
F-0.5
S'sure'
p242
I7
tp243
a(I9
I12
F0.5
S'second'
p244
I7
tp245
a(I9
I150
I0
g217
I7
tp246
a(I9
I150
F-0.625
g219
I7
tp247
a(I9
I158
F-0.75
S'dry'
p248
I7
tp249
a(I12
I232
F-0.375
g221
I7
tp250
a(I12
I232
F-0.625
g223
I7
tp251
a(I12
I282
I0
S'exclusive'
p252
I7
tp253
a(I12
I353
I0
S'cool'
p254
I7
tp255
a(I12
I353
I0
S'useful'
p256
I7
tp257
a(I12
I373
F0.875
S'nice'
p258
I7
tp259
a(I12
I373
I0
S'different'
p260
I7
tp261
a(I12
I382
F-0.625
S'sporadic'
p262
I7
tp263
a(I18
I0
F0.25
g225
I7
tp264
a(I22
I0
I0
g227
I7
tp265
a(I26
I15
F0.375
g229
I7
tp266
a(I4
I147
F0.25
S'original'
p267
I0
tp268
a(I4
I158
F0.25
S'original'
p269
I0
tp270
a(I9
I152
I0
S'most'
p271
I0
tp272
a(I9
I152
F0.25
S'original'
p273
I0
tp274
a(I9
I156
F0.375
S'new'
p275
I0
tp276
a(I12
I225
F0.375
S'new'
p277
I0
tp278
a(I28
I61
F-0.5
S'certain'
p279
I0
tp280
as(S'sprint'
p281
S'network'
p282
tp283
(lp284
(I9
I193
I0
S'later'
p285
I0
tp286
a(I9
I193
F0.375
S'new'
p287
I0
tp288
a(I11
I114
I0
S'traditional'
p289
I0
tp290
a(I12
I267
I0
S'slowest'
p291
I0
tp292
a(I13
I2
F0.375
S'reliable'
p293
I0
tp294
a(I4
I116
I0
S'wish'
p295
I0
tp296
a(I5
I17
F0.5
S'loyal'
p297
I0
tp298
a(I9
I31
F0.125
S'fellow'
p299
I0
tp300
a(I9
I158
I0
S'deductible'
p301
I0
tp302
a(I9
I193
I0
g285
I0
tp303
a(I11
I97
F-0.5
S'poor'
p304
I0
tp305
a(I11
I104
F-0.625
S'other'
p306
I0
tp307
a(I11
I106
I0
S'old'
p308
I0
tp309
a(I11
I114
I0
g289
I0
tp310
a(I12
I22
F0.375
S'available'
p311
I0
tp312
a(I12
I94
I0
S'deductible'
p313
I0
tp314
a(I12
I213
F-0.5
S'sure'
p315
I0
tp316
a(I12
I266
F0.375
S'new'
p317
I0
tp318
a(I27
I71
F0.75
S'due'
p319
I0
tp320
a(I27
I82
F-0.5
S'call'
p321
I0
tp322
a(I27
I166
F0.375
S'new'
p323
I0
tp324
a(I28
I28
I0
S'more'
p325
I0
tp326
a(I5
I20
F0.625
S'perfect'
p327
I0
tp328
a(I9
I193
F0.375
g287
I0
tp329
a(I12
I267
I0
g291
I0
tp330
a(I13
I2
F0.375
g293
I0
tp331
as(S'android'
p332
tp333
(lp334
(I4
I32
F0.375
S'new'
p335
I0
tp336
a(I4
I117
F0.125
S'popular'
p337
I0
tp338
a(I4
I117
F0.125
S'practical'
p339
I0
tp340
a(I4
I117
I0
S'many'
p341
I0
tp342
a(I6
I4
F0.25
S'familiar'
p343
I0
tp344
a(I9
I11
F0.125
S'first'
p345
I0
tp346
a(I9
I33
F-0.75
S'little'
p347
I0
tp348
a(I9
I174
F1.0
S'better'
p349
I0
tp350
a(I12
I32
F0.125
S'first'
p351
I0
tp352
as(S'upgrade'
p353
tp354
(lp355
(I9
I134
I0
S'next'
p356
I3
tp357
a(I12
I213
F0.5
S'eligible'
p358
I3
tp359
a(I27
I49
I0
S'current'
p360
I3
tp361
a(I27
I168
I0
S'great'
p362
I3
tp363
as(S'an'
p364
S'htc'
p365
S'evo'
p366
tp367
(lp368
(I8
I3
F-0.625
S'lighter'
p369
I0
tp370
a(I27
I116
F0.25
S'original'
p371
I0
tp372
a(I8
I3
F-0.625
g369
I0
tp373
a(I25
I3
F-0.125
S'overall'
p374
I0
tp375
a(I27
I57
I0
S'old'
p376
I0
tp377
a(I27
I116
F0.25
g371
I0
tp378
a(I28
I22
F0.5
S'upgraded'
p379
I0
tp380
as(S'calls'
p381
tp382
(lp383
(I3
I19
I0
S'many'
p384
I0
tp385
a(I5
I8
I0
S'great'
p386
I0
tp387
a(I11
I107
F-0.25
S'dropped'
p388
I0
tp389
a(I11
I114
F-0.25
S'dropped'
p390
I0
tp391
a(I12
I264
F0.25
S'sharp'
p392
I0
tp393
a(I12
I264
I0
S'more'
p394
I0
tp395
a(I16
I15
I0
S'mobile'
p396
I0
tp397
a(I17
I14
F-0.625
S'light'
p398
I0
tp399
a(I27
I96
F0.625
S'easy'
p400
I0
tp401
as(S'music'
p402
tp403
(lp404
(I4
I68
F1.0
S'better'
p405
I0
tp406
a(I12
I310
F0.125
S'usual'
p407
I0
tp408
a(I12
I313
F0.125
S'typical'
p409
I0
tp410
as(S'data'
p411
tp412
(lp413
(I6
I5
I0
S'cable'
p414
I13
tp415
a(I6
I13
I0
S'cable'
p416
I13
tp417
a(I6
I19
I0
S'cable'
p418
I13
tp419
a(I11
I17
F-0.5
S'actual'
p420
I13
tp421
a(I11
I32
F0.5
S'thrifty'
p422
I13
tp423
a(I16
I15
F-0.625
S'free'
p424
I13
tp425
a(I22
I4
F-0.875
S'awful'
p426
I13
tp427
a(I28
I3
I0
S'cable'
p428
I13
tp429
as(S'voice'
p430
S'to'
p431
S'text'
p432
tp433
(lp434
(I26
I13
F0.625
S'easy'
p435
I0
tp436
a(I12
I42
F0.25
S'powerful'
p437
I4
tp438
a(I27
I128
F-0.5
S'poor'
p439
I4
tp440
a(I27
I133
I0
S'own'
p441
I4
tp442
a(I26
I12
F0.25
S'larger'
p443
I18
tp444
a(I26
I13
F0.625
g435
I18
tp445
as(S'apps'
p446
tp447
(lp448
(I4
I1
F1.0
S'good'
p449
I0
tp450
a(I4
I92
I0
S'many'
p451
I0
tp452
a(I4
I92
F0.375
S'available'
p453
I0
tp454
a(I4
I129
F-0.25
S'low'
p455
I0
tp456
a(I7
I24
F0.125
S'enough'
p457
I0
tp458
a(I7
I29
F0.25
S'helpful'
p459
I0
tp460
a(I7
I44
I0
S'many'
p461
I0
tp462
a(I7
I44
I0
S'android'
p463
I0
tp464
a(I9
I112
I0
S'many'
p465
I0
tp466
a(I9
I112
I0
S'more'
p467
I0
tp468
a(I9
I144
I0
S'different'
p469
I0
tp470
a(I12
I6
F-0.625
S'free'
p471
I0
tp472
a(I12
I6
I0
S'incredible'
p473
I0
tp474
a(I12
I10
F1.0
S'good'
p475
I0
tp476
a(I12
I50
F-0.5
S'sure'
p477
I0
tp478
a(I12
I62
F-0.375
S'smooth'
p479
I0
tp480
a(I12
I62
I0
S'most'
p481
I0
tp482
a(I12
I316
F-0.625
S'other'
p483
I0
tp484
a(I12
I316
F-0.625
S'useless'
p485
I0
tp486
a(I27
I24
I0
S'same'
p487
I0
tp488
a(I27
I103
F0.625
S'easy'
p489
I0
tp490
a(I27
I103
I0
S'quick'
p491
I0
tp492
a(I28
I51
I0
S'such'
p493
I0
tp494
as(S'amazon'
p495
tp496
(lp497
(I24
I12
I-100
S'wirecry'
p498
I13
tp499
as(S'touch'
p500
S'screen'
p501
tp502
(lp503
(I12
I60
I0
S'large'
p504
I2
tp505
a(I12
I60
F0.5
S'touch'
p506
I2
tp507
a(I26
I26
F0.5
S'touch'
p508
I2
tp509
a(I26
I31
F0.5
S'touch'
p510
I2
tp511
a(I26
I39
F0.5
S'touch'
p512
I2
tp513
as(S'sound'
p514
S'quality'
p515
tp516
(lp517
(I3
I5
I0
S'high'
p518
I0
tp519
a(I9
I40
F0.875
S'music'
p520
I0
tp521
a(I9
I47
F0.875
S'music'
p522
I0
tp523
a(I26
I51
I0
S'great'
p524
I0
tp525
a(I7
I41
I0
S'great'
p526
I7
tp527
a(I9
I40
F0.875
g520
I7
tp528
a(I9
I47
F0.875
g522
I7
tp529
a(I12
I100
F-0.5
S'sure'
p530
I7
tp531
a(I12
I299
I0
S'integral'
p532
I7
tp533
a(I12
I314
F0.25
S'effective'
p534
I7
tp535
a(I26
I2
F1.0
S'good'
p536
I7
tp537
as.