(dp0
(S'android'
p1
tp2
(lp3
(I6
I72
F1.0
S'best'
p4
I0
tp5
a(I10
I16
F0.125
S'first'
p6
I0
tp7
a(I14
I1
F0.25
S'larger'
p8
I0
tp9
as(S'battery'
p10
S'life'
p11
tp12
(lp13
(I5
I30
F-0.75
S'short'
p14
I1
tp15
a(I5
I40
F-0.625
S'bad'
p16
I1
tp17
a(I5
I45
F-0.5
S'less'
p18
I1
tp19
a(I5
I45
F0.25
S'stellar'
p20
I1
tp21
a(I6
I26
F0.5
S'reasonable'
p22
I1
tp23
a(I10
I14
F-0.625
S'bad'
p24
I1
tp25
a(I10
I14
F-0.625
S'average'
p26
I1
tp27
a(I5
I40
F-0.625
g16
I19
tp28
a(I5
I45
F-0.5
g18
I19
tp29
a(I5
I45
F0.25
g20
I19
tp30
a(I6
I26
F0.5
g22
I19
tp31
a(I10
I14
F-0.625
g24
I19
tp32
a(I10
I14
F-0.625
g26
I19
tp33
a(I5
I30
F-0.75
g14
I15
tp34
a(I7
I1
F-0.5
S'cracked'
p35
I15
tp36
a(I9
I27
I0
S'more'
p37
I15
tp38
a(I10
I19
F0.375
S'extra'
p39
I15
tp40
as(S'sim'
p41
S'card'
p42
tp43
(lp44
(I6
I52
F-0.375
S'manual'
p45
I0
tp46
a(I6
I65
F0.375
S'new'
p47
I0
tp48
a(I6
I65
I0
S'old'
p49
I0
tp50
a(I12
I19
I0
S'local'
p51
I0
tp52
as(S'apps'
p53
tp54
(lp55
(I0
I4
I0
S'more'
p56
I0
tp57
a(I5
I8
I0
S'slower'
p58
I0
tp59
a(I5
I8
F0.125
S'usual'
p60
I0
tp61
a(I5
I39
F1.0
S'good'
p62
I0
tp63
a(I6
I13
I0
S'few'
p64
I0
tp65
a(I6
I14
I0
S'most'
p66
I0
tp67
a(I6
I30
I0
S'few'
p68
I0
tp69
a(I6
I30
I0
S'standard'
p70
I0
tp71
a(I6
I33
F0.375
S'extra'
p72
I0
tp73
a(I6
I69
I0
S'most'
p74
I0
tp75
a(I6
I69
F-0.125
S'slow'
p76
I0
tp77
a(I12
I10
F0.5
S'possible'
p78
I0
tp79
a(I13
I2
I0
S'such'
p80
I0
tp81
as(S'smartphone'
p82
tp83
(lp84
(I0
I26
F0.125
S'essential'
p85
I0
tp86
a(I1
I0
F0.5
S'expensive'
p87
I0
tp88
a(I2
I0
F0.125
S'first'
p89
I0
tp90
a(I3
I1
I0
S'basic'
p91
I0
tp92
a(I5
I11
I0
S'great'
p93
I0
tp94
a(I5
I11
I0
S'basic'
p95
I0
tp96
a(I5
I13
F-0.25
S'cheapest'
p97
I0
tp98
a(I6
I74
F1.0
S'best'
p99
I0
tp100
a(I6
I74
F-0.5
S'sure'
p101
I0
tp102
a(I6
I74
I0
S'most'
p103
I0
tp104
as(S'micro'
p105
S'sd'
p106
S'card'
p107
tp108
(lp109
(I0
I6
F1.0
S'good'
p110
I0
tp111
a(I9
I29
F0.25
S'used'
p112
I0
tp113
a(I0
I6
F1.0
g110
I0
tp114
a(I5
I35
I0
S'large'
p115
I0
tp116
a(I6
I30
F0.375
S'much'
p117
I0
tp118
a(I6
I30
F0.5
S'possible'
p119
I0
tp120
a(I9
I7
F-0.625
S'secure'
p121
I0
tp122
a(I9
I29
F0.25
g112
I0
tp123
as(S'internal'
p124
S'storage'
p125
tp126
(lp127
(I0
I4
I0
S'internal'
p128
I0
tp129
a(I0
I5
I0
S'internal'
p130
I0
tp131
a(I4
I8
I0
S'internal'
p132
I0
tp133
a(I4
I8
F-0.375
S'small'
p134
I0
tp135
a(I4
I8
F0.375
S'extra'
p136
I0
tp137
a(I5
I3
I0
S'full'
p138
I0
tp139
a(I9
I28
I0
S'internal'
p140
I0
tp141
a(I10
I8
I0
S'internal'
p142
I0
tp143
a(I10
I8
F-0.375
S'small'
p144
I0
tp145
a(I0
I4
I0
g128
I1
tp146
a(I0
I5
I0
g130
I1
tp147
a(I4
I8
I0
g132
I1
tp148
a(I4
I8
F-0.375
g134
I1
tp149
a(I4
I8
F0.375
g136
I1
tp150
a(I5
I3
I0
g138
I1
tp151
a(I5
I39
F-0.25
S'low'
p152
I1
tp153
a(I9
I28
I0
g140
I1
tp154
a(I10
I8
I0
g142
I1
tp155
a(I10
I8
F-0.375
g144
I1
tp156
as(S'few'
p157
S'weeks'
p158
tp159
(lp160
(I0
I8
I0
S'few'
p161
I2
tp162
a(I0
I29
F0.125
S'last'
p163
I2
tp164
a(I0
I29
I0
S'few'
p165
I2
tp166
a(I11
I6
I0
S'few'
p167
I2
tp168
as(S'internal'
p169
S'memory'
p170
tp171
(lp172
(I0
I3
I0
S'internal'
p173
I0
tp174
a(I5
I3
I0
S'internal'
p175
I0
tp176
a(I5
I34
I0
S'internal'
p177
I0
tp178
a(I5
I34
I0
S'full'
p179
I0
tp180
a(I5
I35
I0
S'internal'
p181
I0
tp182
a(I5
I35
I0
S'full'
p183
I0
tp184
a(I6
I27
I0
S'internal'
p185
I0
tp186
a(I6
I29
I0
S'internal'
p187
I0
tp188
a(I6
I30
I0
S'internal'
p189
I0
tp190
a(I6
I31
I0
S'most'
p191
I0
tp192
a(I6
I31
I0
S'internal'
p193
I0
tp194
a(I6
I69
I0
S'internal'
p195
I0
tp196
a(I14
I2
I0
S'internal'
p197
I0
tp198
a(I0
I3
I0
g173
I5
tp199
a(I0
I8
F0.5
S'possible'
p200
I5
tp201
a(I0
I8
F-0.625
S'free'
p202
I5
tp203
a(I0
I8
F0.125
S'enough'
p204
I5
tp205
a(I0
I8
I0
S'useful'
p206
I5
tp207
a(I5
I3
I0
g175
I5
tp208
a(I5
I34
I0
g177
I5
tp209
a(I5
I34
I0
g179
I5
tp210
a(I5
I35
I0
g181
I5
tp211
a(I5
I35
I0
g183
I5
tp212
a(I6
I13
F-0.25
S'low'
p213
I5
tp214
a(I6
I27
I0
g185
I5
tp215
a(I6
I29
I0
g187
I5
tp216
a(I6
I30
I0
g189
I5
tp217
a(I6
I31
I0
g191
I5
tp218
a(I6
I31
I0
g193
I5
tp219
a(I6
I42
F-0.25
S'low'
p220
I5
tp221
a(I6
I69
I0
g195
I5
tp222
a(I9
I50
F-0.25
S'low'
p223
I5
tp224
a(I11
I6
F-0.25
S'low'
p225
I5
tp226
a(I12
I9
F-0.375
S'small'
p227
I5
tp228
a(I14
I2
I0
g197
I5
tp229
as(S'camera'
p230
tp231
(lp232
(I9
I6
F1.0
S'better'
p233
I1
tp234
a(I9
I20
I0
S'more'
p235
I1
tp236
a(I13
I6
F0.125
S'digital'
p237
I1
tp238
as.