(dp0
(S'android'
p1
tp2
(lp3
(I2
I11
F0.375
S'new'
p4
I0
tp5
a(I2
I12
F0.375
S'new'
p6
I0
tp7
a(I11
I32
F0.125
S'usual'
p8
I0
tp9
a(I11
I50
I-100
S'app-a-holic'
p10
I0
tp11
a(I13
I97
F0.5
S'grateful'
p12
I0
tp13
a(I13
I101
F1.0
S'better'
p14
I0
tp15
as(S'iphone'
p16
tp17
(lp18
(I4
I29
F0.125
S'able'
p19
I1
tp20
a(I4
I36
F1.0
S'good'
p21
I1
tp22
a(I4
I37
F-0.875
S'inferior'
p23
I1
tp24
a(I8
I11
F-0.125
S'blackberry'
p25
I1
tp26
a(I13
I30
F0.5
S'expensive'
p27
I1
tp28
as(S'data'
p29
tp30
(lp31
(I4
I7
F-0.5
S'unlimited'
p32
I13
tp33
a(I11
I144
I0
S'great'
p34
I13
tp35
a(I13
I22
I0
S'least'
p36
I13
tp37
as(S'sim'
p38
S'card'
p39
tp40
(lp41
(I11
I42
I0
S'normal'
p42
I0
tp43
a(I13
I21
F0.125
S'able'
p44
I0
tp45
as(S'windows'
p46
tp47
(lp48
(I8
I3
F0.375
S'new'
p49
I0
tp50
a(I8
I7
F0.375
S'new'
p51
I0
tp52
a(I8
I8
F1.0
S'good'
p53
I0
tp54
a(I10
I6
I0
S'wish'
p55
I0
tp56
a(I10
I6
I0
S'android'
p57
I0
tp58
a(I11
I36
F0.375
S'new'
p59
I0
tp60
a(I12
I9
I0
S'update'
p61
I0
tp62
a(I13
I46
F0.5
S'live'
p63
I0
tp64
a(I13
I60
F0.5
S'second'
p65
I0
tp66
as(S'nokia'
p67
tp68
(lp69
(I6
I4
F0.875
S'happy'
p70
I0
tp71
a(I11
I73
F-0.25
S'acid'
p72
I0
tp73
a(I11
I82
F-0.625
S'other'
p74
I0
tp75
a(I11
I95
F-0.5
S'sudden'
p76
I0
tp77
a(I13
I50
I0
S'e-mail'
p78
I0
tp79
a(I13
I61
F1.0
S'good'
p80
I0
tp81
as(S'apps'
p82
tp83
(lp84
(I2
I27
I0
S'many'
p85
I0
tp86
a(I4
I4
I0
S'most'
p87
I0
tp88
a(I4
I4
F0.375
S'available'
p89
I0
tp90
a(I4
I29
I0
S'most'
p91
I0
tp92
a(I8
I9
F0.375
S'reliable'
p93
I0
tp94
a(I11
I50
I0
S'many'
p95
I0
tp96
a(I11
I81
F0.375
S'available'
p97
I0
tp98
a(I13
I36
I0
S'great'
p99
I0
tp100
a(I13
I83
I0
S'common'
p101
I0
tp102
a(I13
I83
I0
S'such'
p103
I0
tp104
a(I13
I84
F0.375
S'similar'
p105
I0
tp106
a(I13
I119
F0.25
S'used'
p107
I0
tp108
a(I13
I119
F-0.625
S'free'
p109
I0
tp110
as(S'contract'
p111
tp112
(lp113
(I11
I24
F-0.625
S'free'
p114
I0
tp115
a(I11
I41
F-0.625
S'free'
p116
I0
tp117
a(I11
I68
I0
S'same'
p118
I0
tp119
a(I13
I2
I0
S'old'
p120
I0
tp121
as.