(dp0
(S'evo'
p1
S'design'
p2
tp3
(lp4
(I168
I10
F0.5
S'rid'
p5
tp6
as(S'problem'
p7
tp8
(lp9
(I17
I6
I0
S'same'
p10
tp11
a(I52
I2
F0.625
S'major'
p12
tp13
a(I165
I5
F0.5
S'second'
p14
tp15
a(I167
I2
I0
S'only'
p16
tp17
a(I192
I6
I0
S'same'
p18
tp19
as(S'battery'
p20
S'life'
p21
tp22
(lp23
(I8
I5
I0
S'graphic'
p24
tp25
a(I8
I5
I0
S'great'
p26
tp27
a(I8
I5
F1.0
S'good'
p28
tp29
a(I12
I2
F-0.5
S'complaint'
p30
tp31
a(I53
I3
F0.125
S'first'
p32
tp33
a(I99
I7
F1.0
S'good'
p34
tp35
a(I105
I4
F1.0
S'better'
p36
tp37
a(I111
I0
F-0.25
S'lower'
p38
tp39
a(I120
I3
F0.625
S'decent'
p40
tp41
a(I130
I3
I0
S'great'
p42
tp43
a(I157
I0
F-0.25
S'low'
p44
tp45
a(I157
I0
I0
S'charged'
p46
tp47
a(I157
I0
I0
S'charged'
p48
tp49
a(I158
I3
F-0.75
S'care'
p50
tp51
a(I177
I0
F-0.625
S'bad'
p52
tp53
a(I184
I0
F-0.875
S'worst'
p54
tp55
as(S'android'
p56
tp57
(lp58
(I4
I1
I0
S'normal'
p59
tp60
a(I6
I0
I0
S'old'
p61
tp62
a(I48
I1
F0.125
S'first'
p63
tp64
a(I48
I1
F1.0
S'good'
p65
tp66
a(I121
I0
F0.125
S'first'
p67
tp68
a(I121
I0
I0
S'great'
p69
tp70
a(I161
I9
I0
S'next'
p71
tp72
a(I163
I1
F1.0
S'best'
p73
tp74
a(I172
I0
F0.125
S'first'
p75
tp76
a(I190
I1
F-0.375
S'manual'
p77
tp78
a(I190
I1
F-0.375
S'simple'
p79
tp80
a(I190
I1
F-0.375
S'simple'
p81
tp82
a(I191
I2
F0.125
S'first'
p83
tp84
as(S'galaxy'
p85
tp86
(lp87
(I66
I3
F0.25
S'boost'
p88
tp89
a(I124
I0
I0
S'big'
p90
tp91
a(I168
I3
F1.0
S'better'
p92
tp93
a(I171
I2
F-0.25
S'cheaper'
p94
tp95
a(I171
I3
F-0.125
S'overall'
p96
tp97
as(S'htc'
p98
S'evo'
p99
S'design'
p100
tp101
(lp102
(I168
I10
F0.5
g5
tp103
as(S'came'
p104
tp105
(lp106
(I65
I0
F0.125
S'first'
p107
tp108
as(S'text'
p109
tp110
(lp111
(I13
I8
F0.125
S'last'
p112
tp113
a(I79
I4
I0
S'mobile'
p114
tp115
a(I79
I4
F-0.5
S'unlimited'
p116
tp117
a(I161
I77
F-0.625
S'other'
p118
tp119
as(S'card'
p120
tp121
(lp122
(I57
I3
I0
S'sd'
p123
tp124
a(I57
I3
F-0.375
S'smaller'
p125
tp126
a(I120
I1
F-0.75
S'sufficient'
p127
tp128
as(S'screen'
p129
tp130
(lp131
(I0
I4
F-0.625
S'clean'
p132
tp133
a(I3
I0
F-0.75
S'unable'
p134
tp135
a(I7
I3
F-0.375
S'smaller'
p136
tp137
a(I27
I0
F0.5
S'touch'
p138
tp139
a(I27
I0
F1.0
S'good'
p140
tp141
a(I31
I1
I0
S'big'
p142
tp143
a(I31
I1
F0.125
S'visible'
p144
tp145
a(I34
I1
I0
S'great'
p146
tp147
a(I53
I11
F0.25
S'responsive'
p148
tp149
a(I76
I15
F0.5
S'touch'
p150
tp151
a(I81
I0
F-0.375
S'small'
p152
tp153
a(I92
I2
I0
S'large'
p154
tp155
a(I92
I2
F-0.75
S'bright'
p156
tp157
a(I101
I14
F-0.5
S'sure'
p158
tp159
a(I118
I3
F0.625
S'easy'
p160
tp161
a(I118
I3
I0
S'big'
p162
tp163
a(I119
I1
F-0.375
S'small'
p164
tp165
a(I144
I1
F0.75
S'beautiful'
p166
tp167
a(I149
I1
F-0.75
S'bright'
p168
tp169
a(I161
I49
F-0.25
S'low'
p170
tp171
a(I161
I49
F-0.625
S'light'
p172
tp173
a(I171
I3
F-0.5
S'poorer'
p174
tp175
a(I181
I1
I0
S'big'
p176
tp177
a(I182
I1
I0
S'large'
p178
tp179
a(I191
I13
I0
S'great'
p180
tp181
a(I195
I1
I0
S'big'
p182
tp183
as(S'service'
p184
tp185
(lp186
(I15
I1
F1.0
S'good'
p187
tp188
a(I15
I3
I0
S'great'
p189
tp190
a(I55
I17
I0
S'strung'
p191
tp192
a(I55
I17
F0.5
S'technical'
p193
tp194
a(I73
I1
F-0.125
S'overall'
p195
tp196
a(I76
I2
F1.0
S'good'
p197
tp198
a(I83
I0
F-0.125
S'overall'
p199
tp200
a(I83
I0
F1.0
S'good'
p201
tp202
a(I116
I6
I0
S'great'
p203
tp204
a(I124
I2
F0.375
S'new'
p205
tp206
a(I155
I2
F-0.875
S'hard'
p207
tp208
a(I161
I21
F0.375
S'available'
p209
tp210
a(I191
I3
F0.375
S'reliable'
p211
tp212
as(S'everything'
p213
tp214
(lp215
(I50
I3
F-0.5
S'unlimited'
p216
tp217
a(I109
I4
F0.375
S'new'
p218
tp219
a(I168
I7
F-0.5
S'poor'
p220
tp221
as(S'problems'
p222
tp223
(lp224
(I60
I1
I0
S'close'
p225
tp226
as(S'samsung'
p227
tp228
(lp229
(I109
I0
I0
S'old'
p230
tp231
a(I161
I64
I0
S'old'
p232
tp233
as(S'ice'
p234
S'cream'
p235
tp236
(lp237
(I134
I0
F0.375
S'new'
p238
tp239
as(S'camera'
p240
tp241
(lp242
(I25
I5
F0.25
S'main'
p243
tp244
a(I25
I6
F0.125
S'impressive'
p245
tp246
a(I30
I1
I0
S'great'
p247
tp248
a(I47
I2
I0
S'rear'
p249
tp250
a(I53
I11
I0
S'great'
p251
tp252
a(I105
I2
F1.0
S'good'
p253
tp254
a(I134
I0
F1.0
S'good'
p255
tp256
a(I134
I0
F1.0
S'best'
p257
tp258
a(I161
I40
F0.5
S'satisfactory'
p259
tp260
a(I168
I6
I0
S'great'
p261
tp262
a(I173
I62
F0.5
S'second'
p263
tp264
a(I177
I0
F-0.625
S'other'
p265
tp266
a(I182
I1
I0
S'rear'
p267
tp268
a(I194
I2
I0
S'great'
p269
tp270
as(S'hot'
p271
S'spot'
p272
tp273
(lp274
(I11
I1
I0
S'hot'
p275
tp276
a(I45
I2
I0
S'mobile'
p277
tp278
a(I52
I0
I0
S'hot'
p279
tp280
as(S'month'
p281
tp282
(lp283
(I30
I7
F-0.25
S'past'
p284
tp285
a(I47
I3
F-0.125
S'mine'
p286
tp287
a(I161
I25
F0.125
S'last'
p288
tp289
a(I191
I9
F0.125
S'first'
p290
tp291
as(S'sprint'
p292
tp293
(lp294
(I0
I8
I0
S'old'
p295
tp296
a(I65
I2
I0
S'mobile'
p297
tp298
a(I106
I1
I0
S'same'
p299
tp300
a(I106
I2
I0
S'same'
p301
tp302
a(I198
I10
F1.0
S'better'
p303
tp304
as(S'htc'
p305
S'evo'
p306
tp307
(lp308
(I52
I1
F0.25
S'bigger'
p309
tp310
a(I114
I0
F0.25
S'original'
p311
tp312
a(I174
I0
F0.125
S'first'
p313
tp314
as(S's'
p315
S'ii'
p316
tp317
(lp318
(I171
I2
F-0.5
S'sure'
p319
tp320
as(S'speed'
p321
tp322
(lp323
(I0
I7
F-0.125
S'slow'
p324
tp325
a(I53
I12
I0
S'great'
p326
tp327
a(I101
I23
F0.875
S'important'
p328
tp329
as(S'memory'
p330
tp331
(lp332
(I4
I1
I0
S'more'
p333
tp334
a(I4
I1
I0
S'internal'
p335
tp336
a(I57
I3
F-0.25
S'low'
p337
tp338
a(I69
I3
I0
S'more'
p339
tp340
a(I168
I7
I0
S'internal'
p341
tp342
a(I198
I5
I0
S'internal'
p343
tp344
as(S'life'
p345
tp346
(lp347
(I8
I5
F1.0
g28
tp348
a(I66
I3
F0.875
S'important'
p349
tp350
a(I99
I7
F1.0
g34
tp351
a(I105
I4
F1.0
g36
tp352
a(I111
I0
F-0.25
g38
tp353
a(I120
I3
F0.625
g40
tp354
a(I130
I3
I0
g42
tp355
a(I138
I1
F0.625
S'easier'
p356
tp357
a(I157
I0
I0
g48
tp358
as(S'build'
p359
S'quality'
p360
tp361
(lp362
(I159
I3
I0
S'great'
p363
tp364
as(S'takes'
p365
S'great'
p366
S'pictures'
p367
tp368
(lp369
(I43
I1
I0
S'great'
p370
tp371
a(I82
I1
I0
S'great'
p372
tp373
a(I82
I1
F0.375
S'reliable'
p374
tp375
a(I98
I0
I0
S'great'
p376
tp377
as(S'things'
p378
tp379
(lp380
(I8
I4
F1.0
S'good'
p381
tp382
a(I46
I4
F0.5
S'careful'
p383
tp384
a(I109
I0
F0.125
S'first'
p385
tp386
a(I109
I0
F0.125
S'first'
p387
tp388
a(I138
I1
I0
S'more'
p389
tp390
a(I138
I1
F-0.375
S'top'
p391
tp392
a(I138
I1
I0
S'faster'
p393
tp394
a(I168
I11
I0
S'many'
p395
tp396
a(I191
I4
I0
S'few'
p397
tp398
as(S'galaxy'
p399
S'prevail'
p400
tp401
(lp402
(I53
I1
F0.125
S'first'
p403
tp404
a(I168
I3
F1.0
g92
tp405
as(S'zte'
p406
S'warp'
p407
tp408
(lp409
(I101
I20
I0
S'such'
p410
tp411
as(S'slow'
p412
tp413
(lp414
(I138
I2
F-0.75
S'little'
p415
tp416
as(S'prevail'
p417
tp418
(lp419
(I53
I1
F0.125
g403
tp420
a(I133
I0
F1.0
S'better'
p421
tp422
as(S'years'
p423
tp424
(lp425
(I130
I0
F-0.25
S'past'
p426
tp427
a(I150
I0
I0
S'old'
p428
tp429
a(I198
I0
I0
S'only'
p430
tp431
a(I198
I2
I0
S'incredible'
p432
tp433
as(S'work'
p434
tp435
(lp436
(I65
I12
I0
S'few'
p437
tp438
a(I125
I0
F1.0
S'good'
p439
tp440
a(I153
I1
I0
S'great'
p441
tp442
as(S'sd'
p443
S'card'
p444
tp445
(lp446
(I57
I3
I0
g123
tp447
a(I57
I3
F-0.375
g125
tp448
a(I120
I1
F-0.75
g127
tp449
a(I190
I2
I0
S'pic'
p450
tp451
as(S'love'
p452
S't'
p453
S'love'
p454
tp455
(lp456
(I135
I0
F0.25
S'responsive'
p457
tp458
a(I158
I0
F1.0
S'love'
p459
tp460
as(S'design'
p461
tp462
(lp463
(I168
I10
F0.5
g5
tp464
a(I182
I11
F0.5
S'elegant'
p465
tp466
as(S'weeks'
p467
tp468
(lp469
(I2
I0
I0
S'few'
p470
tp471
a(I68
I1
F0.125
S'first'
p472
tp473
a(I68
I3
F-0.25
S'past'
p474
tp475
a(I68
I5
F0.125
S'last'
p476
tp477
a(I98
I1
I0
S'few'
p478
tp479
a(I165
I3
I0
S'later'
p480
tp481
as(S'case'
p482
tp483
(lp484
(I0
I11
I0
S'sleek'
p485
tp486
a(I0
I11
F0.875
S'nice'
p487
tp488
a(I0
I11
I0
S'slim'
p489
tp490
a(I129
I3
F-0.25
S'ready'
p491
tp492
a(I129
I3
I0
S'plastic'
p493
tp494
a(I137
I2
F0.125
S'able'
p495
tp496
a(I153
I2
F1.0
S'good'
p497
tp498
as(S'works'
p499
tp500
(lp501
(I10
I0
I0
S'great'
p502
tp503
a(I117
I0
I0
S'great'
p504
tp505
a(I161
I32
I0
S'monthly'
p506
tp507
as(S'boost'
p508
tp509
(lp510
(I97
I0
F-0.625
S'other'
p511
tp512
a(I97
I3
F0.125
S'last'
p513
tp514
a(I97
I3
F-0.625
S'other'
p515
tp516
a(I98
I0
F0.375
S'new'
p517
tp518
a(I101
I11
F-0.625
S'other'
p519
tp520
a(I124
I0
I0
S'most'
p521
tp522
a(I144
I3
I0
S'great'
p523
tp524
as(S'features'
p525
tp526
(lp527
(I120
I0
I0
S'great'
p528
tp529
a(I120
I0
I0
S'great'
p530
tp531
a(I120
I2
F0.625
S'easy'
p532
tp533
a(I159
I2
I0
S'great'
p534
tp535
a(I161
I1
F0.5
S'technical'
p536
tp537
a(I161
I82
F0.875
S'nice'
p538
tp539
a(I161
I82
F0.375
S'dependable'
p540
tp541
a(I172
I1
I0
S'great'
p542
tp543
as(S'battery'
p544
tp545
(lp546
(I8
I5
I0
g24
tp547
a(I8
I5
I0
g26
tp548
a(I12
I2
F-0.5
g30
tp549
a(I13
I8
F-0.25
S'low'
p550
tp551
a(I26
I3
F0.375
S'extra'
p552
tp553
a(I46
I3
F0.375
S'new'
p554
tp555
a(I53
I3
F0.125
g32
tp556
a(I63
I1
F0.375
S'new'
p557
tp558
a(I99
I11
I0
S'signal'
p559
tp560
a(I145
I2
F-0.125
S'mine'
p561
tp562
a(I157
I0
F-0.25
g44
tp563
a(I157
I0
I0
g46
tp564
a(I158
I3
F-0.75
g50
tp565
a(I171
I6
F0.125
S'plenty'
p566
tp567
a(I173
I22
F0.375
S'extra'
p568
tp569
a(I175
I8
F-0.5
S'sure'
p570
tp571
a(I177
I0
F-0.625
g52
tp572
a(I184
I0
F-0.875
g54
tp573
a(I187
I0
F-0.5
S'less'
p574
tp575
as(S'upgrade'
p576
tp577
(lp578
(I69
I2
I0
S'great'
p579
tp580
a(I172
I0
F0.625
S'major'
p581
tp582
as(S'network'
p583
tp584
(lp585
(I165
I11
I0
S'same'
p586
tp587
a(I183
I2
I0
S'slowest'
p588
tp589
as(S'better'
p590
tp591
(lp592
(I109
I0
F0.375
S'much'
p593
tp594
a(I109
I0
F0.375
S'much'
p595
tp596
a(I109
I0
F0.375
S'much'
p597
tp598
as(S'never'
p599
tp600
(lp601
(I198
I3
I0
S'incredible'
p602
tp603
as(S'calls'
p604
tp605
(lp606
(I76
I10
F-0.625
S'average'
p607
tp608
a(I100
I0
I0
S'many'
p609
tp610
a(I100
I0
F-0.25
S'dropped'
p611
tp612
a(I168
I1
F-0.25
S'dropped'
p613
tp614
as(S'thing'
p615
tp616
(lp617
(I5
I2
I0
S'same'
p618
tp619
a(I9
I2
I0
S'anymore'
p620
tp621
a(I17
I7
I0
S'same'
p622
tp623
a(I22
I1
F1.0
S'best'
p624
tp625
a(I31
I2
F-0.5
S'poor'
p626
tp627
a(I31
I3
F-0.625
S'unstoppable'
p628
tp629
a(I33
I3
I0
S'only'
p630
tp631
a(I35
I1
I0
S'same'
p632
tp633
a(I66
I2
I0
S'only'
p634
tp635
a(I71
I0
I0
S'only'
p636
tp637
a(I71
I1
F-0.625
S'other'
p638
tp639
a(I78
I0
I0
S'only'
p640
tp641
a(I93
I3
F1.0
S'good'
p642
tp643
a(I123
I0
F0.125
S'amazon'
p644
tp645
a(I123
I0
F-0.25
S'lower'
p646
tp647
a(I153
I1
I0
S'only'
p648
tp649
a(I173
I28
I0
S'same'
p650
tp651
a(I173
I49
I0
S'funny'
p652
tp653
as(S'area'
p654
tp655
(lp656
(I100
I1
I0
S'signal'
p657
tp658
a(I130
I2
I0
S'rural'
p659
tp660
a(I150
I2
F1.0
S'better'
p661
tp662
a(I150
I5
I0
S'different'
p663
tp664
a(I198
I10
F0.25
S'boost'
p665
tp666
a(I198
I10
I0
S'mobile'
p667
tp668
a(I198
I10
F0.375
S'much'
p669
tp670
as(S'device'
p671
tp672
(lp673
(I108
I3
F-0.125
S'minimum'
p674
tp675
a(I108
I5
F0.125
S'able'
p676
tp677
a(I108
I5
I0
S'more'
p678
tp679
a(I171
I0
F1.0
S'best'
p680
tp681
a(I171
I1
I0
S'android'
p682
tp683
as(S'call'
p684
tp685
(lp686
(I101
I18
F-0.125
S'slow'
p687
tp688
a(I150
I2
F1.0
S'good'
p689
tp690
as(S'airplane'
p691
S'mode'
p692
tp693
(lp694
(I161
I53
F0.375
S'available'
p695
tp696
a(I161
I54
F0.5
S'possible'
p697
tp698
as(S'pretty'
p699
tp700
(lp701
(I168
I4
I0
S'next'
p702
tp703
as(S'price'
p704
tp705
(lp706
(I48
I11
F1.0
S'good'
p707
tp708
a(I130
I4
F0.5
S'reasonable'
p709
tp710
a(I131
I0
F1.0
S'good'
p711
tp712
a(I161
I31
F-0.25
S'highest'
p713
tp714
a(I161
I31
I0
S'cellular'
p715
tp716
a(I191
I6
F0.875
S'lucky'
p717
tp718
as(S'time'
p719
tp720
(lp721
(I17
I2
F-0.875
S'hard'
p722
tp723
a(I32
I0
F0.125
S'first'
p724
tp725
a(I53
I8
F1.0
S'good'
p726
tp727
a(I53
I8
I0
S'same'
p728
tp729
a(I64
I4
F-0.5
S'long'
p730
tp731
a(I68
I5
F0.75
S'worth'
p732
tp733
a(I99
I10
I0
S'only'
p734
tp735
a(I103
I1
F-0.875
S'hardest'
p736
tp737
a(I192
I2
F0.125
S'first'
p738
tp739
as(S'task'
p740
S'killer'
p741
tp742
(lp743
(I99
I5
F0.5
S'advanced'
p744
tp745
a(I108
I6
F0.5
S'advanced'
p746
tp747
as(S'quality'
p748
tp749
(lp750
(I48
I3
F0.875
S'music'
p751
tp752
a(I48
I3
I0
S'great'
p753
tp754
a(I95
I0
I0
S'great'
p755
tp756
a(I159
I3
I0
g363
tp757
a(I173
I58
F-0.625
S'bad'
p758
tp759
as(S'smartphone'
p760
tp761
(lp762
(I92
I0
F0.125
S'first'
p763
tp764
a(I127
I5
F0.5
S'possible'
p765
tp766
a(I127
I5
I0
S'different'
p767
tp768
a(I129
I0
F0.125
S'first'
p769
tp770
a(I138
I0
F0.125
S'first'
p771
tp772
a(I168
I0
I0
S'only'
p773
tp774
a(I168
I0
F-0.625
S'other'
p775
tp776
as(S'technical'
p777
S'support'
p778
tp779
(lp780
(I55
I4
F0.5
S'technical'
p781
tp782
a(I55
I8
F0.5
S'technical'
p783
tp784
a(I55
I12
F0.5
S'technical'
p785
tp786
a(I161
I20
F0.5
S'technical'
p787
tp788
as(S'love'
p789
tp790
(lp791
(I135
I0
F0.25
g457
tp792
a(I158
I0
F1.0
g459
tp793
as(S'signal'
p794
tp795
(lp796
(I55
I2
F1.0
S'good'
p797
tp798
a(I55
I10
F1.0
S'better'
p799
tp800
a(I150
I0
F1.0
S'good'
p801
tp802
a(I161
I53
F-0.25
S'low'
p803
tp804
as(S'months'
p805
tp806
(lp807
(I0
I3
I0
S'few'
p808
tp809
a(I17
I5
I0
S'more'
p810
tp811
a(I85
I1
F0.125
S'first'
p812
tp813
a(I109
I9
I0
S'real'
p814
tp815
as(S'apps'
p816
tp817
(lp818
(I5
I1
I0
S'multiple'
p819
tp820
a(I13
I10
F-0.5
S'open'
p821
tp822
a(I20
I2
F1.0
S'better'
p823
tp824
a(I40
I0
I0
S'android'
p825
tp826
a(I47
I1
I0
S'fast'
p827
tp828
a(I65
I11
I0
S'such'
p829
tp830
a(I101
I2
I0
S'least'
p831
tp832
a(I109
I0
F-0.75
S'stupid'
p833
tp834
a(I109
I0
F0.125
S'able'
p835
tp836
a(I109
I0
F-0.75
S'stupid'
p837
tp838
a(I109
I0
F-0.75
S'stupid'
p839
tp840
a(I145
I2
I0
S'close'
p841
tp842
a(I197
I0
I0
S'fast'
p843
tp844
as(S'core'
p845
S'processor'
p846
tp847
(lp848
(I34
I3
F-0.75
S'single'
p849
tp850
a(I101
I8
F-0.75
S'single'
p851
tp852
as(S'days'
p853
tp854
(lp855
(I19
I1
F-0.125
S'minimum'
p856
tp857
a(I26
I3
I0
S'few'
p858
tp859
a(I30
I1
F0.5
S'told'
p860
tp861
a(I33
I1
I0
S'great'
p862
tp863
a(I55
I12
I0
S'few'
p864
tp865
a(I55
I12
I0
S'later'
p866
tp867
a(I101
I18
I0
S'later'
p868
tp869
a(I130
I0
I0
S'few'
p870
tp871
as(S'4g'
p872
S'lte'
p873
tp874
(lp875
(I183
I2
F0.375
S'new'
p876
tp877
a(I183
I2
F0.375
S'new'
p878
tp879
a(I183
I2
F0.25
S'boost'
p880
tp881
as(S'fast'
p882
tp883
(lp884
(I37
I0
I0
S'android'
p885
tp886
a(I47
I0
F0.625
S'easy'
p887
tp888
a(I47
I0
I0
S'great'
p889
tp890
a(I65
I16
I0
S'cable'
p891
tp892
as.