(dp0
(S'times'
p1
tp2
(lp3
(I18
I0
I0
S'few'
p4
tp5
a(I48
I2
F-0.75
S'unable'
p6
tp7
a(I61
I6
F-0.125
S'slow'
p8
tp9
a(I105
I4
I0
S'few'
p10
tp11
a(I172
I2
F-0.875
S'worst'
p12
tp13
a(I198
I1
F1.0
S'better'
p14
tp15
as(S'problem'
p16
tp17
(lp18
(I43
I0
F-0.625
S'other'
p19
tp20
a(I57
I0
I0
S'big'
p21
tp22
as(S'battery'
p23
S'life'
p24
tp25
(lp26
(I4
I9
F1.0
S'better'
p27
tp28
a(I19
I1
I0
S'rush'
p29
tp30
a(I19
I1
I0
S'hot'
p31
tp32
a(I19
I1
F-0.625
S'bad'
p33
tp34
a(I68
I0
I0
S'quick'
p35
tp36
a(I74
I8
F1.0
S'better'
p37
tp38
a(I141
I5
I0
S'internet'
p39
tp40
a(I145
I2
F1.0
S'good'
p41
tp42
a(I147
I2
F1.0
S'good'
p43
tp44
a(I150
I2
F1.0
S'better'
p45
tp46
a(I195
I0
F1.0
S'good'
p47
tp48
as(S'purchase'
p49
tp50
(lp51
(I16
I0
F1.0
S'best'
p52
tp53
a(I181
I1
I0
S'great'
p54
tp55
a(I182
I2
F1.0
S'good'
p56
tp57
as(S'network'
p58
tp59
(lp60
(I61
I3
F-0.625
S'bad'
p61
tp62
a(I105
I9
F-0.125
S'slow'
p63
tp64
a(I123
I6
F0.125
S'capable'
p65
tp66
a(I184
I16
F0.5
S'strong'
p67
tp68
as(S'christmas'
p69
tp70
(lp71
(I144
I6
I0
S'great'
p72
tp73
a(I170
I0
F0.375
S'early'
p74
tp75
as(S'galaxy'
p76
S'rush'
p77
tp78
(lp79
(I105
I10
F0.125
S'able'
p80
tp81
a(I119
I3
F-0.75
S'little'
p82
tp83
as(S'plan'
p84
tp85
(lp86
(I27
I1
F0.5
S'reasonable'
p87
tp88
a(I27
I1
I0
S'monthly'
p89
tp90
a(I36
I1
I0
S'monthly'
p91
tp92
a(I81
I3
F-0.375
S'daily'
p93
tp94
as(S'money'
p95
tp96
(lp97
(I59
I0
F0.5
S'willing'
p98
tp99
a(I80
I4
F0.75
S'worth'
p100
tp101
a(I176
I2
F0.5
S'willing'
p102
tp103
as(S'entry'
p104
S'level'
p105
tp106
(lp107
(I27
I2
I0
S'great'
p108
tp109
a(I39
I3
F1.0
S'good'
p110
tp111
a(I68
I1
F0.125
S'solid'
p112
tp113
a(I107
I6
I0
S'great'
p114
tp115
a(I184
I0
F1.0
S'good'
p116
tp117
as(S'happy'
p118
tp119
(lp120
(I98
I1
F0.5
S'willing'
p121
tp122
a(I98
I1
F0.75
S'due'
p123
tp124
a(I160
I5
F0.875
S'happy'
p125
tp126
a(I160
I5
F0.875
S'happy'
p127
tp128
as(S'price'
p129
tp130
(lp131
(I4
I20
I0
S'retail'
p132
tp133
a(I7
I3
F-0.25
S'low'
p134
tp135
a(I11
I1
F-0.25
S'low'
p136
tp137
a(I15
I12
I0
S'great'
p138
tp139
a(I71
I0
F0.75
S'worth'
p140
tp141
a(I75
I1
I0
S'great'
p142
tp143
a(I79
I3
F-0.375
S'simple'
p144
tp145
a(I79
I3
I0
S'great'
p146
tp147
a(I97
I3
F-0.25
S'low'
p148
tp149
a(I117
I0
I0
S'great'
p150
tp151
a(I118
I2
F0.75
S'worth'
p152
tp153
a(I123
I7
F-0.75
S'wrong'
p154
tp155
a(I141
I1
I0
S'third'
p156
tp157
a(I143
I10
F-0.625
S'other'
p158
tp159
a(I143
I10
F0.75
S'worth'
p160
tp161
a(I144
I4
F1.0
S'good'
p162
tp163
a(I146
I0
I0
S'high'
p164
tp165
as(S'service'
p166
tp167
(lp168
(I19
I2
F-0.875
S'worst'
p169
tp170
a(I19
I2
F-0.25
S'unhelpful'
p171
tp172
a(I36
I1
F-0.875
S'unhappy'
p173
tp174
a(I142
I1
I0
S'fast'
p175
tp176
a(I183
I0
I0
S'great'
p177
tp178
as(S'everything'
p179
tp180
(lp181
(I83
I2
F0.375
S'reliable'
p182
tp183
a(I97
I5
F0.375
S'much'
p184
tp185
a(I167
I1
F1.0
S'good'
p186
tp187
a(I171
I3
F-0.125
S'refresh'
p188
tp189
as(S'problems'
p190
tp191
(lp192
(I53
I6
F0.375
S'early'
p193
tp194
a(I53
I6
I0
S'real'
p195
tp196
a(I100
I0
F1.0
S'good'
p197
tp198
a(I191
I1
I0
S'same'
p199
tp200
as(S'samsung'
p201
tp202
(lp203
(I4
I0
F-0.125
S'former'
p204
tp205
a(I18
I0
I0
S'next'
p206
tp207
a(I18
I0
F1.0
S'best'
p208
tp209
a(I81
I9
I0
S'fast'
p210
tp211
a(I88
I0
F-0.625
S'other'
p212
tp213
as(S'works'
p214
tp215
(lp216
(I82
I1
F1.0
S'best'
p217
tp218
a(I118
I0
I0
S'latest'
p219
tp220
as(S'back'
p221
tp222
(lp223
(I31
I7
I0
S'hot'
p224
tp225
as(S'touch'
p226
tp227
(lp228
(I119
I0
F0.125
S'first'
p229
tp230
a(I124
I0
F0.125
S'first'
p231
tp232
as(S'camera'
p233
tp234
(lp235
(I13
I1
I0
S'great'
p236
tp237
a(I34
I6
F-0.5
S'open'
p238
tp239
a(I36
I2
F0.625
S'easy'
p240
tp241
a(I66
I3
I0
S'basic'
p242
tp243
a(I84
I0
I0
S'rear'
p244
tp245
a(I98
I1
F0.375
S'improve'
p246
tp247
a(I127
I1
F-0.125
S'slow'
p248
tp249
as(S'n'
p250
S'pocket'
p251
tp252
(lp253
(I174
I1
I0
S'big'
p254
tp255
a(I174
I1
I0
S'close'
p256
tp257
as(S'games'
p258
tp259
(lp260
(I34
I4
F-0.625
S'other'
p261
tp262
a(I97
I9
F-0.625
S'other'
p263
tp264
a(I97
I9
F0.125
S'popular'
p265
tp266
as(S'prevail'
p267
tp268
(lp269
(I15
I6
F0.375
S'newer'
p270
tp271
a(I15
I6
I0
S'shinier'
p272
tp273
a(I198
I0
F1.0
S'good'
p274
tp275
as(S'memory'
p276
tp277
(lp278
(I5
I9
F0.25
S'main'
p279
tp280
a(I10
I9
F-0.25
S'low'
p281
tp282
a(I33
I1
I0
S'internal'
p283
tp284
a(I73
I0
F-0.25
S'low'
p285
tp286
a(I160
I1
I0
S'internal'
p287
tp288
a(I160
I2
F0.125
S'enough'
p289
tp290
a(I160
I2
I0
S'internal'
p291
tp292
a(I160
I4
F0.125
S'plenty'
p293
tp294
a(I165
I2
I0
S'more'
p295
tp296
a(I178
I2
I0
S'internal'
p297
tp298
a(I184
I1
I0
S'internal'
p299
tp300
as(S'life'
p301
tp302
(lp303
(I68
I0
I0
g35
tp304
a(I74
I8
F1.0
g37
tp305
a(I145
I2
F1.0
g41
tp306
a(I147
I2
F1.0
g43
tp307
as(S'mobile'
p308
tp309
(lp310
(I71
I0
F0.75
S'due'
p311
tp312
a(I81
I3
F-0.625
S'bad'
p313
tp314
a(I99
I1
F0.625
S'easy'
p315
tp316
a(I108
I0
I0
S'site'
p317
tp318
a(I108
I0
F0.5
S'satisfied'
p319
tp320
a(I195
I0
F0.5
S'true'
p321
tp322
as(S'galaxy'
p323
tp324
(lp325
(I87
I0
F0.125
S'first'
p326
tp327
a(I105
I10
F0.125
g80
tp328
a(I119
I3
F-0.75
g82
tp329
a(I132
I8
I0
S'more'
p330
tp331
a(I143
I4
F-0.5
S'long'
p332
tp333
a(I153
I1
F0.375
S'similar'
p334
tp335
as(S'things'
p336
tp337
(lp338
(I15
I2
F-0.375
S'crazy'
p339
tp340
a(I28
I0
F1.0
S'good'
p341
tp342
a(I38
I3
I0
S'real'
p343
tp344
a(I38
I3
F0.625
S'easy'
p345
tp346
a(I97
I8
F0.625
S'perfect'
p347
tp348
a(I114
I1
I0
S'same'
p349
tp350
a(I123
I5
I0
S'such'
p351
tp352
a(I135
I1
I0
S'few'
p353
tp354
a(I135
I1
I0
S'great'
p355
tp356
as(S'features'
p357
tp358
(lp359
(I2
I0
F0.5
S'whole'
p360
tp361
a(I2
I0
F-0.375
S'manual'
p362
tp363
a(I22
I2
I0
S'many'
p364
tp365
a(I55
I2
F1.0
S'best'
p366
tp367
a(I67
I1
F1.0
S'better'
p368
tp369
a(I107
I2
I0
S'great'
p370
tp371
a(I132
I6
I0
S'same'
p372
tp373
a(I159
I0
I0
S'many'
p374
tp375
a(I182
I0
I0
S'many'
p376
tp377
a(I190
I2
I0
S'many'
p378
tp379
a(I195
I0
I0
S'same'
p380
tp381
a(I195
I0
I0
S'most'
p382
tp383
as(S'people'
p384
tp385
(lp386
(I51
I2
F-0.625
S'other'
p387
tp388
a(I81
I4
I0
S'different'
p389
tp390
a(I143
I0
F-0.625
S'want'
p391
tp392
as(S'months'
p393
tp394
(lp395
(I90
I0
F0.375
S'new'
p396
tp397
a(I93
I1
F-0.5
S'less'
p398
tp399
a(I93
I1
I0
S'old'
p400
tp401
a(I155
I0
F1.0
S'good'
p402
tp403
a(I164
I9
I0
S'few'
p404
tp405
a(I169
I2
I0
S'next'
p406
tp407
a(I201
I0
I0
S'later'
p408
tp409
a(I201
I0
F0.25
S'refurbished'
p410
tp411
as(S'sd'
p412
S'card'
p413
tp414
(lp415
(I5
I3
I0
S'add-on'
p416
tp417
a(I5
I6
F-0.75
S'secondary'
p418
tp419
a(I5
I6
I0
S'add-on'
p420
tp421
a(I5
I6
F0.625
S'easy'
p422
tp423
a(I8
I5
F0.625
S'fair'
p424
tp425
a(I178
I1
I0
S'external'
p426
tp427
as(S'email'
p428
tp429
(lp430
(I166
I2
I0
S'multiple'
p431
tp432
a(I166
I12
F0.625
S'easy'
p433
tp434
as(S'fast'
p435
tp436
(lp437
(I149
I1
F0.625
S'easy'
p438
tp439
a(I203
I0
F-0.375
S'small'
p440
tp441
as(S'android'
p442
tp443
(lp444
(I27
I0
F0.125
S'typical'
p445
tp446
a(I53
I2
F0.125
S'first'
p447
tp448
a(I87
I1
F-0.5
S'regular'
p449
tp450
a(I90
I0
I0
S'great'
p451
tp452
a(I95
I2
F-0.375
S'small'
p453
tp454
a(I126
I0
F0.125
S'first'
p455
tp456
a(I148
I0
F0.125
S'first'
p457
tp458
a(I154
I1
F0.125
S'last'
p459
tp460
a(I202
I0
F0.125
S'first'
p461
tp462
as(S'samsung'
p463
S'galaxy'
p464
S'rush'
p465
tp466
(lp467
(I4
I0
F-0.125
g204
tp468
as(S'boost'
p469
S'mobile'
p470
tp471
(lp472
(I71
I0
F0.75
g311
tp473
a(I81
I3
F-0.625
g313
tp474
a(I99
I1
F0.625
g315
tp475
a(I108
I0
I0
g317
tp476
a(I108
I0
F0.5
g319
tp477
a(I195
I0
F0.5
g321
tp478
as(S'boost'
p479
tp480
(lp481
(I134
I3
F0.875
S'happy'
p482
tp483
a(I141
I0
F0.875
S'happier'
p484
tp485
a(I184
I0
F0.375
S'new'
p486
tp487
a(I184
I0
F0.375
S'new'
p488
tp489
as(S'rush'
p490
tp491
(lp492
(I4
I2
F0.5
S'clear'
p493
tp494
a(I61
I5
I0
S'different'
p495
tp496
a(I184
I14
F0.125
S'enough'
p497
tp498
as(S'battery'
p499
tp500
(lp501
(I4
I9
F1.0
g27
tp502
a(I19
I1
I0
g29
tp503
a(I19
I1
I0
g31
tp504
a(I19
I1
F-0.625
g33
tp505
a(I82
I1
I0
S'large'
p506
tp507
a(I141
I5
I0
g39
tp508
a(I150
I2
F1.0
g45
tp509
a(I195
I0
F1.0
g47
tp510
as(S'smart'
p511
tp512
(lp513
(I38
I1
F0.125
S'first'
p514
tp515
a(I59
I0
F0.125
S'first'
p516
tp517
a(I74
I0
F0.125
S'first'
p518
tp519
a(I74
I0
F0.5
S'compare'
p520
tp521
a(I74
I0
F-0.625
S'other'
p522
tp523
a(I102
I0
I0
S'tech'
p524
tp525
a(I125
I0
F0.125
S'first'
p526
tp527
a(I159
I3
F1.0
S'good'
p528
tp529
a(I159
I3
F-0.625
S'other'
p530
tp531
as(S'samsung'
p532
S'galaxy'
p533
tp534
(lp535
(I4
I0
F-0.125
g204
tp536
as(S'cell'
p537
tp538
(lp539
(I31
I2
F0.125
S'first'
p540
tp541
a(I67
I2
I0
S'old'
p542
tp543
a(I67
I2
F1.0
S'better'
p544
tp545
a(I67
I2
F1.0
S'good'
p546
tp547
a(I107
I3
I0
S'sleek'
p548
tp549
a(I181
I2
F0.375
S'much'
p550
tp551
a(I181
I2
F1.0
S'good'
p552
tp553
as(S'calls'
p554
tp555
(lp556
(I99
I4
F0.5
S'clear'
p557
tp558
as(S'thing'
p559
tp560
(lp561
(I15
I9
I0
S'such'
p562
tp563
a(I15
I9
F0.25
S'responsive'
p564
tp565
a(I15
I9
F-0.75
S'little'
p566
tp567
a(I47
I3
I0
S'only'
p568
tp569
a(I98
I3
I0
S'great'
p570
tp571
a(I106
I2
I0
S'only'
p572
tp573
a(I186
I10
F-0.75
S'wrong'
p574
tp575
as(S'device'
p576
tp577
(lp578
(I66
I12
F0.875
S'happy'
p579
tp580
a(I95
I4
F-0.75
S'wrong'
p581
tp582
a(I95
I4
F-0.75
S'little'
p583
tp584
a(I163
I2
I0
S'android'
p585
tp586
as(S'call'
p587
tp588
(lp589
(I29
I0
I0
S'more'
p590
tp591
a(I53
I4
F-0.5
S'poor'
p592
tp593
a(I105
I5
F0.125
S'able'
p594
tp595
a(I143
I9
F-0.25
S'low'
p596
tp597
a(I196
I1
F0.25
S'familiar'
p598
tp599
as(S'nice'
p600
tp601
(lp602
(I137
I2
I0
S'real'
p603
tp604
as(S'screen'
p605
tp606
(lp607
(I3
I1
I0
S'large'
p608
tp609
a(I4
I3
F1.0
S'good'
p610
tp611
a(I4
I3
F0.25
S'responsive'
p612
tp613
a(I15
I1
F0.25
S'responsive'
p614
tp615
a(I15
I3
F-0.375
S'black'
p616
tp617
a(I15
I11
F-0.625
S'other'
p618
tp619
a(I15
I11
F0.25
S'bigger'
p620
tp621
a(I42
I0
F0.625
S'easy'
p622
tp623
a(I47
I3
F-0.375
S'small'
p624
tp625
a(I49
I1
I0
S'anymore'
p626
tp627
a(I64
I2
I0
S'great'
p628
tp629
a(I64
I2
F0.5
S'touch'
p630
tp631
a(I66
I9
I0
S'same'
p632
tp633
a(I70
I1
I0
S'large'
p634
tp635
a(I74
I6
F0.25
S'larger'
p636
tp637
a(I74
I6
F0.875
S'nice'
p638
tp639
a(I95
I1
F0.25
S'responsive'
p640
tp641
a(I117
I2
I0
S'sensitive'
p642
tp643
a(I134
I1
F-0.375
S'small'
p644
tp645
a(I138
I2
F1.0
S'good'
p646
tp647
a(I140
I1
F0.5
S'touch'
p648
tp649
a(I164
I2
F0.25
S'responsive'
p650
tp651
a(I167
I1
F1.0
S'best'
p652
tp653
a(I184
I7
F-0.375
S'smaller'
p654
tp655
a(I184
I7
I0
S'most'
p656
tp657
as(S'time'
p658
tp659
(lp660
(I7
I1
F-0.5
S'long'
p661
tp662
a(I66
I6
F0.125
S'first'
p663
tp664
a(I91
I5
F-0.5
S'long'
p665
tp666
a(I105
I5
F0.5
S'second'
p667
tp668
a(I105
I5
F0.125
S'last'
p669
tp670
a(I120
I1
F0.125
S'first'
p671
tp672
a(I164
I3
I0
S'same'
p673
tp674
a(I165
I3
F-0.875
S'hard'
p675
tp676
a(I171
I2
I0
S'same'
p677
tp678
a(I175
I1
I0
S'own'
p679
tp680
a(I186
I6
F0.125
S'first'
p681
tp682
a(I202
I3
F0.125
S'first'
p683
tp684
as(S'quality'
p685
tp686
(lp687
(I48
I0
F-0.625
S'bad'
p688
tp689
a(I98
I0
I0
S'great'
p690
tp691
a(I123
I2
I0
S'great'
p692
tp693
a(I187
I5
F1.0
S'good'
p694
tp695
a(I196
I0
F0.5
S'reasonable'
p696
tp697
as(S'smartphone'
p698
tp699
(lp700
(I24
I2
F0.5
S'expensive'
p701
tp702
a(I34
I10
F1.0
S'good'
p703
tp704
a(I97
I2
F0.125
S'first'
p705
tp706
a(I97
I11
F1.0
S'better'
p707
tp708
a(I131
I1
F0.125
S'first'
p709
tp710
a(I131
I1
F0.875
S'happier'
p711
tp712
a(I138
I1
F0.125
S'first'
p713
tp714
as(S'card'
p715
tp716
(lp717
(I5
I6
F0.625
g422
tp718
a(I8
I5
F0.625
g424
tp719
as(S'love'
p720
tp721
(lp722
(I118
I2
I0
S'only'
p723
tp724
as(S'size'
p725
tp726
(lp727
(I66
I10
F0.375
S'loud'
p728
tp729
a(I74
I7
I0
S'same'
p730
tp731
a(I81
I8
F-0.375
S'small'
p732
tp733
a(I123
I3
F0.625
S'perfect'
p734
tp735
a(I128
I2
F-0.375
S'smaller'
p736
tp737
as(S'better'
p738
tp739
(lp740
(I141
I4
F0.375
S'much'
p741
tp742
as(S'work'
p743
tp744
(lp745
(I25
I3
I0
S'great'
p746
tp747
as(S'apps'
p748
tp749
(lp750
(I7
I1
I0
S'many'
p751
tp752
a(I22
I2
F-0.625
S'free'
p753
tp754
a(I22
I2
I0
S'cool'
p755
tp756
a(I41
I1
I0
S'great'
p757
tp758
a(I53
I3
F-0.625
S'free'
p759
tp760
a(I53
I4
F0.375
S'available'
p761
tp762
a(I76
I1
F0.875
S'music'
p763
tp764
a(I84
I0
I0
S'useful'
p765
tp766
a(I84
I0
F0.625
S'necessary'
p767
tp768
a(I91
I9
I0
S'many'
p769
tp770
a(I97
I5
F-0.125
S'slow'
p771
tp772
a(I97
I9
F-0.625
S'free'
p773
tp774
a(I97
I9
I0
S'such'
p775
tp776
a(I105
I7
F-0.5
S'certain'
p777
tp778
a(I139
I0
I0
S'few'
p779
tp780
a(I149
I2
I0
S'many'
p781
tp782
a(I149
I2
F-0.5
S'open'
p783
tp784
a(I160
I4
I0
S'few'
p785
tp786
a(I163
I4
I0
S'many'
p787
tp788
a(I164
I3
I0
S'few'
p789
tp790
a(I175
I1
F-0.125
S'slow'
p791
tp792
a(I178
I1
F0.375
S'new'
p793
tp794
a(I178
I1
I0
S'downloaded'
p795
tp796
a(I178
I2
F0.125
S'able'
p797
tp798
a(I184
I2
F-0.625
S'bad'
p799
tp800
a(I198
I2
I0
S'many'
p801
tp802
a(I199
I2
F0.625
S'easy'
p803
tp804
as(S'nternal'
p805
S'memory'
p806
tp807
(lp808
(I33
I1
I0
g283
tp809
a(I160
I1
I0
g287
tp810
a(I160
I2
F0.125
g289
tp811
a(I160
I2
I0
g291
tp812
a(I178
I2
I0
g297
tp813
a(I184
I1
I0
g299
tp814
as(S'days'
p815
tp816
(lp817
(I5
I10
F0.25
S'familiar'
p818
tp819
a(I22
I0
I0
S'few'
p820
tp821
a(I132
I2
I0
S'more'
p822
tp823
a(I132
I4
I0
S'later'
p824
tp825
as(S'touch'
p826
S'screen'
p827
tp828
(lp829
(I15
I1
F0.25
g614
tp830
a(I64
I2
I0
g628
tp831
a(I64
I2
F0.5
g630
tp832
a(I66
I9
I0
g632
tp833
a(I117
I2
I0
g642
tp834
a(I119
I0
F0.125
g229
tp835
a(I124
I0
F0.125
g231
tp836
a(I140
I1
F0.5
g648
tp837
a(I164
I2
F0.25
g650
tp838
as(S'galaxy'
p839
S'ii'
p840
tp841
(lp842
(I132
I8
I0
g330
tp843
as.