(dp0
(S'battery'
p1
tp2
(lp3
(I0
I20
F-0.75
S'dead'
p4
I15
tp5
a(I0
I21
F-0.25
S'cheaper'
p6
I15
tp7
a(I4
I5
I0
S'least'
p8
I15
tp9
a(I10
I88
I0
S'hear'
p10
I15
tp11
as(S'a'
p12
S'data'
p13
S'plan'
p14
tp15
(lp16
(I2
I1
F-0.5
S'did'
p17
I0
tp18
a(I2
I1
F0.625
S'perfect'
p19
I0
tp20
a(I10
I46
F-0.625
S'want'
p21
I0
tp22
a(I14
I3
F0.5
S'expensive'
p23
I0
tp24
a(I2
I1
F-0.5
g17
I0
tp25
a(I2
I1
F0.625
g19
I0
tp26
a(I10
I46
F-0.625
g21
I0
tp27
a(I14
I3
F0.5
g23
I0
tp28
as(S'text'
p29
tp30
(lp31
(I0
I19
F0.75
S'due'
p32
I18
tp33
a(I4
I15
F0.5
S'whole'
p34
I18
tp35
a(I10
I2
F0.5
S'whole'
p36
I18
tp37
a(I10
I42
F-0.125
S'cant'
p38
I18
tp39
a(I10
I42
F-0.125
S'cant'
p40
I18
tp41
a(I10
I73
F0.375
S'new'
p42
I18
tp43
as(S'button'
p44
tp45
(lp46
(I10
I25
I0
S'physical'
p47
I19
tp48
as(S'verizon'
p49
tp50
(lp51
(I4
I3
F0.125
S'able'
p52
I0
tp53
as(S'touch'
p54
S'screen'
p55
tp56
(lp57
(I0
I3
F-0.75
S'impossible'
p58
I2
tp59
a(I0
I13
I0
S'great'
p60
I2
tp61
a(I2
I9
F-0.375
S'pull'
p62
I2
tp63
a(I9
I20
F0.5
S'touch'
p64
I2
tp65
a(I12
I2
F0.5
S'touch'
p66
I2
tp67
a(I13
I1
F0.5
S'touch'
p68
I2
tp69
a(I14
I2
I0
S'deliberate'
p70
I2
tp71
a(I15
I8
F0.875
S'nice'
p72
I2
tp73
as.