(dp0
(S'zte'
p1
S'warp'
p2
tp3
(lp4
(I27
I53
I0
S'such'
p5
I0
tp6
as(S'battery'
p7
S'life'
p8
tp9
(lp10
(I3
I17
F1.0
S'good'
p11
I1
tp12
a(I5
I2
F-0.5
S'complaint'
p13
I1
tp14
a(I27
I19
F1.0
S'good'
p15
I1
tp16
a(I27
I74
F1.0
S'better'
p17
I1
tp18
a(I28
I0
F-0.25
S'lower'
p19
I1
tp20
a(I30
I18
F0.625
S'decent'
p21
I1
tp22
a(I35
I11
I0
S'great'
p23
I1
tp24
a(I41
I9
F-0.25
S'low'
p25
I1
tp26
a(I41
I9
I0
S'charged'
p27
I1
tp28
a(I41
I9
I0
S'charged'
p29
I1
tp30
a(I41
I14
F-0.75
S'care'
p31
I1
tp32
a(I44
I14
F-0.625
S'bad'
p33
I1
tp34
a(I45
I34
F-0.875
S'worst'
p35
I1
tp36
a(I3
I17
F1.0
g11
I19
tp37
a(I18
I51
F0.875
S'important'
p38
I19
tp39
a(I27
I19
F1.0
g15
I19
tp40
a(I27
I74
F1.0
g17
I19
tp41
a(I28
I0
F-0.25
g19
I19
tp42
a(I30
I18
F0.625
g21
I19
tp43
a(I35
I11
I0
g23
I19
tp44
a(I38
I6
F0.625
S'easier'
p45
I19
tp46
a(I41
I9
I0
g29
I19
tp47
a(I5
I2
F-0.5
g13
I15
tp48
a(I5
I15
F-0.25
S'low'
p49
I15
tp50
a(I7
I24
F0.375
S'extra'
p51
I15
tp52
a(I12
I11
F0.375
S'new'
p53
I15
tp54
a(I18
I16
F0.375
S'new'
p55
I15
tp56
a(I27
I23
I0
S'signal'
p57
I15
tp58
a(I40
I8
F-0.125
S'mine'
p59
I15
tp60
a(I41
I9
F-0.25
g25
I15
tp61
a(I41
I9
I0
g27
I15
tp62
a(I41
I14
F-0.75
g31
I15
tp63
a(I43
I13
F0.125
S'plenty'
p64
I15
tp65
a(I43
I49
F0.375
S'extra'
p66
I15
tp67
a(I44
I8
F-0.5
S'sure'
p68
I15
tp69
a(I44
I14
F-0.625
g33
I15
tp70
a(I45
I8
F0.375
S'improve'
p71
I15
tp72
a(I45
I34
F-0.875
g35
I15
tp73
a(I47
I0
F-0.5
S'less'
p74
I15
tp75
as(S'weeks'
p76
tp77
(lp78
(I1
I0
I0
S'few'
p79
I18
tp80
a(I18
I67
F0.125
S'first'
p81
I18
tp82
a(I18
I69
F-0.25
S'past'
p83
I18
tp84
a(I18
I71
F0.125
S'last'
p85
I18
tp86
a(I27
I11
I0
S'few'
p87
I18
tp88
a(I42
I113
I0
S'later'
p89
I18
tp90
as(S'htc'
p91
S'evo'
p92
S'design'
p93
tp94
(lp95
(I42
I153
F0.5
S'rid'
p96
I0
tp97
a(I12
I46
F0.25
S'bigger'
p98
I0
tp99
a(I29
I0
F0.25
S'original'
p100
I0
tp101
a(I43
I116
F0.125
S'first'
p102
I0
tp103
a(I42
I153
F0.5
g96
I0
tp104
as(S'text'
p105
tp106
(lp107
(I5
I15
F0.125
S'last'
p108
I18
tp109
a(I42
I89
F-0.625
S'other'
p110
I18
tp111
as(S's'
p112
S'ii'
p113
tp114
(lp115
(I43
I6
F-0.5
S'sure'
p116
I0
tp117
as(S'service'
p118
tp119
(lp120
(I6
I1
F1.0
S'good'
p121
I16
tp122
a(I6
I3
I0
S'great'
p123
I16
tp124
a(I13
I17
I0
S'strung'
p125
I16
tp126
a(I13
I17
F0.5
S'technical'
p127
I16
tp128
a(I19
I5
F-0.125
S'overall'
p129
I16
tp130
a(I21
I2
F1.0
S'good'
p131
I16
tp132
a(I23
I4
F-0.125
S'overall'
p133
I16
tp134
a(I23
I4
F1.0
S'good'
p135
I16
tp136
a(I32
I6
F0.375
S'new'
p137
I16
tp138
a(I41
I2
F-0.875
S'hard'
p139
I16
tp140
a(I42
I26
F0.375
S'available'
p141
I16
tp142
a(I47
I19
F0.375
S'reliable'
p143
I16
tp144
as(S'samsung'
p145
tp146
(lp147
(I27
I108
I0
S'old'
p148
I7
tp149
a(I42
I75
I0
S'old'
p150
I7
tp151
as(S'camera'
p152
tp153
(lp154
(I7
I18
F0.25
S'main'
p155
I1
tp156
a(I7
I19
F0.125
S'impressive'
p157
I1
tp158
a(I7
I43
I0
S'great'
p159
I1
tp160
a(I12
I16
I0
S'rear'
p161
I1
tp162
a(I12
I65
F-0.625
S'other'
p163
I1
tp164
a(I12
I65
I0
S'great'
p165
I1
tp166
a(I27
I52
F-0.5
S'poor'
p167
I1
tp168
a(I37
I0
F1.0
S'good'
p169
I1
tp170
a(I37
I0
F1.0
S'best'
p171
I1
tp172
a(I42
I49
F0.5
S'satisfactory'
p173
I1
tp174
a(I42
I145
I0
S'great'
p175
I1
tp176
a(I43
I96
F0.5
S'second'
p177
I1
tp178
a(I44
I14
F-0.625
S'other'
p179
I1
tp180
a(I45
I14
I0
S'rear'
p181
I1
tp182
a(I47
I58
I0
S'great'
p183
I1
tp184
as(S'hot'
p185
S'spot'
p186
tp187
(lp188
(I4
I1
I0
S'hot'
p189
I0
tp190
a(I12
I4
I0
S'mobile'
p191
I0
tp192
as(S'sprint'
p193
tp194
(lp195
(I0
I8
I0
S'old'
p196
I0
tp197
a(I27
I81
I0
S'same'
p198
I0
tp199
a(I27
I83
F0.375
S'extra'
p200
I0
tp201
a(I27
I83
I0
S'same'
p202
I0
tp203
a(I47
I80
F1.0
S'better'
p204
I0
tp205
as(S'galaxy'
p206
S'prevail'
p207
tp208
(lp209
(I12
I54
F0.125
S'first'
p210
I0
tp211
a(I42
I141
F1.0
S'better'
p212
I0
tp213
a(I12
I54
F0.125
g210
I0
tp214
a(I32
I1
I0
S'big'
p215
I0
tp216
a(I42
I141
F1.0
g212
I0
tp217
a(I43
I6
F-0.25
S'cheaper'
p218
I0
tp219
a(I43
I7
F-0.125
S'overall'
p220
I0
tp221
as(S'memory'
p222
tp223
(lp224
(I2
I4
I0
S'more'
p225
I5
tp226
a(I2
I4
I0
S'internal'
p227
I5
tp228
a(I14
I4
F-0.25
S'low'
p229
I5
tp230
a(I18
I75
I0
S'more'
p231
I5
tp232
a(I42
I146
I0
S'internal'
p233
I5
tp234
a(I47
I74
I0
S'internal'
p235
I5
tp236
as(S'build'
p237
S'quality'
p238
tp239
(lp240
(I41
I18
I0
S'great'
p241
I2
tp242
as(S'love'
p243
S'love'
p244
tp245
(lp246
(I12
I41
I0
S'mobile'
p247
I2
tp248
a(I37
I1
F0.25
S'responsive'
p249
I2
tp250
a(I41
I11
F1.0
S'love'
p251
I2
tp252
as(S'task'
p253
S'killer'
p254
tp255
(lp256
(I27
I17
F0.5
S'advanced'
p257
I0
tp258
a(I27
I94
F0.5
S'advanced'
p259
I0
tp260
as(S'signal'
p261
tp262
(lp263
(I13
I2
F1.0
S'good'
p264
I1
tp265
a(I13
I10
F1.0
S'better'
p266
I1
tp267
a(I40
I26
F1.0
S'good'
p268
I1
tp269
as(S'sd'
p270
S'card'
p271
tp272
(lp273
(I14
I4
I0
S'more'
p274
I0
tp275
a(I14
I4
F-0.375
S'smaller'
p276
I0
tp277
a(I47
I11
I0
S'pic'
p278
I0
tp279
as(S'android'
p280
tp281
(lp282
(I2
I4
I0
S'normal'
p283
I0
tp284
a(I3
I4
I0
S'old'
p285
I0
tp286
a(I12
I21
F0.125
S'first'
p287
I0
tp288
a(I12
I21
F1.0
S'good'
p289
I0
tp290
a(I30
I17
F0.625
S'easy'
p291
I0
tp292
a(I30
I21
F0.125
S'first'
p293
I0
tp294
a(I30
I21
I0
S'great'
p295
I0
tp296
a(I42
I13
I0
S'next'
p297
I0
tp298
a(I42
I106
F1.0
S'best'
p299
I0
tp300
a(I43
I17
F0.125
S'first'
p301
I0
tp302
a(I47
I9
F-0.375
S'manual'
p303
I0
tp304
a(I47
I9
F-0.375
S'simple'
p305
I0
tp306
a(I47
I9
F-0.375
S'simple'
p307
I0
tp308
a(I47
I18
F0.125
S'first'
p309
I0
tp310
a(I47
I69
I0
S'only'
p311
I0
tp312
a(I47
I69
F-0.625
S'other'
p313
I0
tp314
as(S'ice'
p315
S'cream'
p316
tp317
(lp318
(I37
I0
F0.375
S'new'
p319
I2
tp320
as(S'slow'
p321
tp322
(lp323
(I38
I7
F-0.75
S'little'
p324
I17
tp325
as(S'upgrade'
p326
tp327
(lp328
(I18
I74
I0
S'great'
p329
I3
tp330
a(I43
I17
F0.625
S'major'
p331
I3
tp332
as(S'network'
p333
tp334
(lp335
(I42
I125
I0
S'same'
p336
I0
tp337
a(I45
I30
I0
S'slowest'
p338
I0
tp339
a(I45
I32
F0.375
S'new'
p340
I0
tp341
as(S'calls'
p342
tp343
(lp344
(I21
I11
F-0.625
S'average'
p345
I0
tp346
a(I27
I27
I0
S'many'
p347
I0
tp348
a(I27
I27
F-0.25
S'dropped'
p349
I0
tp350
a(I42
I138
F-0.25
S'dropped'
p351
I0
tp352
as(S'core'
p353
S'processor'
p354
tp355
(lp356
(I8
I13
F-0.75
S'single'
p357
I0
tp358
a(I27
I38
F-0.75
S'single'
p359
I0
tp360
as(S'boost'
p361
S'mobile'
p362
tp363
(lp364
(I47
I80
F0.375
S'much'
p365
I0
tp366
a(I47
I80
F0.375
g365
I0
tp367
a(I27
I4
F-0.625
S'other'
p368
I0
tp369
a(I27
I7
F0.125
S'last'
p370
I0
tp371
a(I27
I7
F-0.625
S'other'
p372
I0
tp373
a(I27
I10
F0.375
S'new'
p374
I0
tp375
a(I27
I41
F-0.625
S'other'
p376
I0
tp377
a(I32
I1
I0
S'most'
p378
I0
tp379
a(I40
I4
I0
S'great'
p380
I0
tp381
a(I42
I25
F0.5
S'technical'
p382
I0
tp383
as(S'airplane'
p384
S'mode'
p385
tp386
(lp387
(I42
I62
F0.375
S'available'
p388
I0
tp389
a(I42
I63
F0.5
S'possible'
p390
I0
tp391
as(S'speed'
p392
tp393
(lp394
(I12
I66
I0
S'great'
p395
I9
tp396
a(I27
I56
F0.875
S'important'
p397
I9
tp398
as(S'smartphone'
p399
tp400
(lp401
(I25
I9
F0.125
S'first'
p402
I0
tp403
a(I34
I9
F0.5
S'possible'
p404
I0
tp405
a(I34
I9
I0
S'different'
p406
I0
tp407
a(I35
I0
F0.125
S'first'
p408
I0
tp409
a(I38
I5
F0.125
S'first'
p410
I0
tp411
a(I42
I136
I0
S'only'
p412
I0
tp413
a(I42
I136
F-0.625
S'other'
p414
I0
tp415
as(S'technical'
p416
S'support'
p417
tp418
(lp419
(I13
I4
F0.5
S'technical'
p420
I0
tp421
a(I13
I8
F0.5
S'technical'
p422
I0
tp423
a(I13
I12
F0.5
S'technical'
p424
I0
tp425
as(S'internet'
p426
tp427
(lp428
(I17
I2
F-0.125
S'slow'
p429
I6
tp430
a(I44
I2
I0
S'cable'
p431
I6
tp432
as(S'apps'
p433
tp434
(lp435
(I3
I1
I0
S'multiple'
p436
I0
tp437
a(I5
I17
F-0.5
S'open'
p438
I0
tp439
a(I12
I15
I0
S'fast'
p440
I0
tp441
a(I18
I38
I0
S'such'
p442
I0
tp443
a(I27
I32
I0
S'least'
p444
I0
tp445
a(I27
I105
F-0.75
S'stupid'
p446
I0
tp447
a(I27
I107
F-0.75
S'stupid'
p448
I0
tp449
a(I40
I7
I0
S'close'
p450
I0
tp451
a(I47
I66
I0
S'fast'
p452
I0
tp453
as(S'amazon'
p454
tp455
(lp456
(I12
I30
F-0.875
S'hard'
p457
I13
tp458
a(I21
I33
F-0.25
S'cheaper'
p459
I13
tp460
a(I42
I102
I0
S'quick'
p461
I13
tp462
a(I45
I35
F0.625
S'interested'
p463
I13
tp464
as.