(dp0
(S'days'
p1
S'to'
p2
S'get'
p3
tp4
(lp5
(I36
I3
I0
S'faster'
p6
tp7
a(I36
I3
F0.375
S'new'
p8
tp9
a(I36
I3
F0.125
S'first'
p10
tp11
a(I227
I6
I0
S'few'
p12
tp13
as(S'comes'
p14
tp15
(lp16
(I3
I9
F-0.375
S'manual'
p17
tp18
as(S'nice'
p19
tp20
(lp21
(I272
I4
I0
S'big'
p22
tp23
as(S'reviews'
p24
tp25
(lp26
(I22
I0
F-0.25
S'higher'
p27
tp28
a(I56
I10
F0.625
S'positive'
p29
tp30
a(I85
I0
F-0.625
S'other'
p31
tp32
a(I114
I1
F0.125
S'solid'
p33
tp34
a(I120
I7
I0
S'great'
p35
tp36
a(I150
I0
I0
S'many'
p37
tp38
a(I150
I0
I0
S'great'
p39
tp40
a(I170
I5
I0
S'weird'
p41
tp42
a(I170
I5
F-0.625
S'other'
p43
tp44
a(I203
I2
F0.25
S'read'
p45
tp46
a(I255
I0
I0
S'great'
p47
tp48
a(I271
I0
F-0.625
S'bad'
p49
tp50
a(I329
I2
F0.25
S'read'
p51
tp52
a(I335
I3
I0
S'great'
p53
tp54
a(I352
I0
F-0.625
S'other'
p55
tp56
as(S'with'
p57
S'straight'
p58
S'talk'
p59
tp60
(lp61
(I25
I24
F0.625
S'straight'
p62
tp63
a(I31
I2
I0
S'great'
p64
tp65
a(I49
I3
F0.625
S'straight'
p66
tp67
a(I72
I2
F0.625
S'straight'
p68
tp69
a(I114
I3
F0.625
S'straight'
p70
tp71
a(I114
I4
F0.625
S'straight'
p72
tp73
a(I173
I0
F0.625
S'straight'
p74
tp75
a(I195
I5
F0.625
S'straight'
p76
tp77
a(I211
I4
F0.625
S'straight'
p78
tp79
a(I234
I8
F0.625
S'straight'
p80
tp81
a(I268
I0
F0.625
S'straight'
p82
tp83
a(I303
I1
F0.625
S'straight'
p84
tp85
a(I355
I0
F0.625
S'straight'
p86
tp87
as(S'month'
p88
tp89
(lp90
(I20
I8
F-0.125
S'mine'
p91
tp92
a(I89
I15
I0
S'next'
p93
tp94
a(I106
I1
I0
S'fast'
p95
tp96
a(I106
I1
F0.25
S'responsive'
p97
tp98
a(I166
I1
F0.5
S'second'
p99
tp100
a(I219
I20
F-0.625
S'free'
p101
tp102
a(I241
I3
I0
S'later'
p103
tp104
a(I299
I2
F0.125
S'able'
p105
tp106
a(I318
I1
F0.5
S'whole'
p107
tp108
a(I330
I0
F-0.125
S'overall'
p109
tp110
as(S'quality'
p111
tp112
(lp113
(I3
I4
F0.5
S'clear'
p114
tp115
a(I25
I36
F-0.125
S'super'
p116
tp117
a(I47
I3
F1.0
S'best'
p118
tp119
a(I89
I4
I0
S'high'
p120
tp121
a(I114
I23
F0.875
S'important'
p122
tp123
a(I138
I3
F1.0
S'good'
p124
tp125
a(I147
I3
F1.0
S'good'
p126
tp127
a(I192
I32
F-0.25
S'low'
p128
tp129
a(I223
I5
F0.625
S'perfect'
p130
tp131
a(I227
I28
F-0.625
S'bad'
p132
tp133
a(I233
I4
F-0.5
S'poor'
p134
tp135
a(I241
I14
I0
S'high'
p136
tp137
a(I248
I2
F-0.5
S'poor'
p138
tp139
a(I321
I1
F1.0
S'good'
p140
tp141
a(I342
I4
F0.125
S'solid'
p142
tp143
a(I345
I1
F1.0
S'good'
p144
tp145
as(S'a'
p146
S'full'
p147
S'refund'
p148
tp149
(lp150
(I17
I3
I0
S'full'
p151
tp152
a(I109
I1
I0
S'full'
p153
tp154
a(I109
I4
I0
S'full'
p155
tp156
a(I154
I8
I0
S'full'
p157
tp158
a(I235
I2
I0
S'full'
p159
tp160
a(I261
I3
I0
S'full'
p161
tp162
a(I283
I0
I0
S'full'
p163
tp164
as(S'weeks'
p165
tp166
(lp167
(I47
I4
F-0.5
S'less'
p168
tp169
a(I56
I3
I0
S'later'
p170
tp171
a(I63
I1
F0.5
S'whole'
p172
tp173
a(I172
I1
I0
S'few'
p174
tp175
a(I246
I1
F0.125
S'last'
p176
tp177
a(I246
I1
I0
S'few'
p178
tp179
a(I246
I1
I0
S'more'
p180
tp181
a(I330
I7
I0
S'later'
p182
tp183
a(I330
I7
F0.5
S'second'
p184
tp185
as(S'case'
p186
tp187
(lp188
(I24
I0
F-0.875
S'hard'
p189
tp190
a(I30
I2
F-0.875
S'hard'
p191
tp192
a(I30
I3
F-0.875
S'hard'
p193
tp194
a(I30
I4
I0
S'soft'
p195
tp196
a(I55
I4
I0
S'hybrid'
p197
tp198
a(I58
I2
F-0.875
S'hard'
p199
tp200
a(I89
I9
F0.125
S'protective'
p201
tp202
a(I98
I1
F-0.375
S'black'
p203
tp204
a(I106
I10
F1.0
S'good'
p205
tp206
a(I106
I10
F0.125
S'protective'
p207
tp208
a(I115
I20
I0
S'only'
p209
tp210
a(I129
I1
I0
S'big'
p211
tp212
a(I137
I2
F-0.625
S'free'
p213
tp214
a(I185
I19
F0.25
S'forgive'
p215
tp216
a(I185
I19
F-0.75
S'wrong'
p217
tp218
a(I185
I19
F-0.625
S'free'
p219
tp220
a(I192
I7
I0
S'plastic'
p221
tp222
a(I214
I5
F0.125
S'protective'
p223
tp224
a(I230
I14
F-0.5
S'flimsy'
p225
tp226
a(I230
I14
I0
S'such'
p227
tp228
a(I262
I2
F-0.875
S'hard'
p229
tp230
a(I274
I14
F0.375
S'extra'
p231
tp232
a(I274
I14
F-0.875
S'hard'
p233
tp234
a(I281
I6
F0.5
S'clear'
p235
tp236
a(I342
I7
F0.875
S'nice'
p237
tp238
a(I342
I9
F-0.375
S'top'
p239
tp240
a(I342
I13
F-0.25
S'white'
p241
tp242
a(I342
I13
F0.375
S'flexible'
p243
tp244
a(I352
I4
I0
S'plastic'
p245
tp246
a(I352
I16
F-0.75
S'impossible'
p247
tp248
as(S'ice'
p249
S'cream'
p250
tp251
(lp252
(I342
I2
I0
S'android'
p253
tp254
as(S'came'
p255
tp256
(lp257
(I243
I1
F-0.625
S'other'
p258
tp259
a(I282
I22
I0
S'android'
p260
tp261
a(I329
I17
F-0.375
S'manual'
p262
tp263
as(S'big'
p264
S'screen'
p265
tp266
(lp267
(I3
I9
F0.25
S'bigger'
p268
tp269
a(I10
I0
I0
S'big'
p270
tp271
a(I20
I2
I0
S'big'
p272
tp273
a(I25
I13
I0
S'big'
p274
tp275
a(I25
I21
I0
S'big'
p276
tp277
a(I49
I1
F0.625
S'easy'
p278
tp279
a(I49
I1
I0
S'slim'
p280
tp281
a(I61
I1
I0
S'big'
p282
tp283
a(I67
I0
I0
S'big'
p284
tp285
a(I67
I9
I0
S'big'
p286
tp287
a(I67
I9
F0.125
S'last'
p288
tp289
a(I125
I1
I0
S'big'
p290
tp291
a(I126
I2
I0
S'cool'
p292
tp293
a(I126
I2
I0
S'big'
p294
tp295
a(I227
I19
I0
S'big'
p296
tp297
a(I227
I25
I0
S'big'
p298
tp299
a(I227
I25
I0
S'great'
p300
tp301
a(I256
I0
I0
S'big'
p302
tp303
a(I256
I0
I0
S'great'
p304
tp305
a(I273
I5
I0
S'big'
p306
tp307
a(I311
I0
I0
S'big'
p308
tp309
a(I311
I0
F0.875
S'nice'
p310
tp311
a(I311
I0
F0.375
S'new'
p312
tp313
a(I317
I3
F0.75
S'beautiful'
p314
tp315
a(I317
I3
I0
S'big'
p316
tp317
a(I321
I0
F0.25
S'bigger'
p318
tp319
a(I321
I13
I0
S'big'
p320
tp321
as(S'5'
p322
S'nch'
p323
S'screen'
p324
tp325
(lp326
(I67
I0
I0
g284
tp327
a(I270
I4
F0.75
S'worth'
p328
tp329
as(S'note'
p330
tp331
(lp332
(I18
I4
F0.375
S'similar'
p333
tp334
a(I24
I0
F0.25
S'original'
p335
tp336
a(I24
I2
I0
S'galaxy'
p337
tp338
a(I24
I2
F0.25
S'original'
p339
tp340
a(I36
I3
I0
S'galaxy'
p341
tp342
a(I38
I1
I0
S'real'
p343
tp344
a(I43
I5
I0
S'big'
p345
tp346
a(I247
I10
I0
S'real'
p347
tp348
a(I247
I10
I0
S'real'
p349
tp350
a(I274
I10
I0
S'fast'
p351
tp352
a(I274
I10
F0.25
S'responsive'
p353
tp354
a(I282
I2
F-0.5
S'less'
p355
tp356
a(I282
I2
F0.5
S'expensive'
p357
tp358
as(S'anything'
p359
tp360
(lp361
(I55
I3
F-0.75
S'impossible'
p362
tp363
a(I89
I13
F-0.75
S'wrong'
p364
tp365
a(I98
I1
I0
S'update'
p366
tp367
a(I234
I4
F1.0
S'good'
p368
tp369
a(I270
I2
I0
S'more'
p370
tp371
a(I274
I3
F0.125
S'able'
p372
tp373
as(S'sim'
p374
S'card'
p375
tp376
(lp377
(I30
I9
F1.0
S'good'
p378
tp379
a(I103
I3
I0
S'different'
p380
tp381
a(I125
I2
F-0.375
S'simple'
p382
tp383
a(I125
I2
I0
S'mobile'
p384
tp385
a(I160
I2
I0
S'same'
p386
tp387
a(I179
I0
F1.0
S'good'
p388
tp389
a(I192
I9
I0
S'irish'
p390
tp391
a(I192
I9
I0
S'american'
p392
tp393
a(I194
I2
F0.875
S'nice'
p394
tp395
a(I214
I2
I0
S'provider'
p396
tp397
a(I218
I9
F-0.375
S'small'
p398
tp399
a(I218
I34
F-0.25
S'ready'
p400
tp401
a(I220
I6
F-0.75
S'secondary'
p402
tp403
a(I220
I6
I0
S'more'
p404
tp405
a(I225
I3
F-0.625
S'other'
p406
tp407
a(I292
I0
F-0.625
S'other'
p408
tp409
as(S'united'
p410
S'states'
p411
tp412
(lp413
(I67
I8
I0
S'united'
p414
tp415
as(S'charge'
p416
tp417
(lp418
(I25
I2
F-0.375
S'daily'
p419
tp420
as(S'waste'
p421
S'of'
p422
S'money'
p423
tp424
(lp425
(I174
I1
I0
S'later'
p426
tp427
a(I335
I14
F0.375
S'complete'
p428
tp429
as(S'far'
p430
S'so'
p431
S'good'
p432
tp433
(lp434
(I278
I2
I0
S'inside'
p435
tp436
a(I278
I2
I0
S'close'
p437
tp438
as(S'for'
p439
S'galaxy'
p440
S'note'
p441
tp442
(lp443
(I24
I0
F0.25
g335
tp444
a(I36
I3
I0
g341
tp445
a(I43
I5
I0
g345
tp446
a(I274
I6
F0.25
S'original'
p447
tp448
a(I274
I11
F0.25
S'original'
p449
tp450
as(S'good'
p451
tp452
(lp453
(I278
I2
I0
g435
tp454
a(I278
I2
I0
g437
tp455
as(S'card'
p456
tp457
(lp458
(I30
I9
F1.0
g378
tp459
a(I194
I2
F0.875
g394
tp460
a(I218
I9
F-0.375
g398
tp461
a(I218
I34
F-0.25
g400
tp462
a(I220
I6
I0
g404
tp463
a(I241
I5
F0.375
S'new'
p464
tp465
a(I255
I8
I0
S'prepaid'
p466
tp467
as(S'love'
p468
tp469
(lp470
(I69
I8
F1.0
S'love'
p471
tp472
a(I120
I3
I0
S'remedy'
p473
tp474
a(I120
I3
I0
S'id'
p475
tp476
a(I259
I0
F1.0
S'love'
p477
tp478
as(S'volume'
p479
tp480
(lp481
(I21
I2
I0
S'high'
p482
tp483
a(I41
I1
F-0.25
S'low'
p484
tp485
a(I41
I1
I0
S'headset'
p486
tp487
a(I51
I38
F-0.25
S'highest'
p488
tp489
a(I67
I16
F-0.25
S'low'
p490
tp491
a(I199
I20
F-0.25
S'highest'
p492
tp493
a(I251
I2
F-0.25
S'low'
p494
tp495
a(I355
I1
F-0.25
S'low'
p496
tp497
a(I355
I1
I0
S'high'
p498
tp499
as(S'wifi'
p500
tp501
(lp502
(I21
I5
F-0.875
S'worst'
p503
tp504
a(I30
I17
I0
S'fast'
p505
tp506
a(I228
I5
F-0.375
S'disable'
p507
tp508
a(I228
I5
F0.375
S'enable'
p509
tp510
a(I296
I1
F-0.125
S'super'
p511
tp512
a(I296
I1
I0
S'fast'
p513
tp514
a(I323
I8
F-0.625
S'free'
p515
tp516
as(S'happy'
p517
S'with'
p518
S'purchase'
p519
tp520
(lp521
(I130
I14
F0.875
S'happy'
p522
tp523
a(I130
I14
F0.375
S'new'
p524
tp525
a(I324
I1
F0.875
S'happy'
p526
tp527
a(I329
I27
F0.875
S'happy'
p528
tp529
a(I352
I18
F0.875
S'happy'
p530
tp531
as(S'2'
p532
S'batteries'
p533
tp534
(lp535
(I260
I17
I0
S'great'
p536
tp537
a(I274
I12
F0.875
S'nice'
p538
tp539
a(I282
I20
F-0.25
S'white'
p540
tp541
as(S'money'
p542
tp543
(lp544
(I138
I20
I0
S'more'
p545
tp546
a(I172
I5
F0.375
S'extra'
p547
tp548
a(I174
I1
I0
g426
tp549
a(I190
I9
F0.75
S'worth'
p550
tp551
a(I220
I1
F-0.5
S'less'
p552
tp553
a(I274
I15
F0.375
S'extra'
p554
tp555
as(S'price'
p556
tp557
(lp558
(I14
I0
F0.75
S'worth'
p559
tp560
a(I26
I3
F-0.125
S'overall'
p561
tp562
a(I26
I3
I0
S'such'
p563
tp564
a(I30
I19
F0.625
S'beat'
p565
tp566
a(I48
I3
I0
S'high'
p567
tp568
a(I61
I2
F-0.25
S'low'
p569
tp570
a(I107
I4
F0.5
S'reasonable'
p571
tp572
a(I142
I4
I0
S'great'
p573
tp574
a(I185
I8
I0
S'more'
p575
tp576
a(I194
I9
I0
S'great'
p577
tp578
a(I195
I4
F1.0
S'best'
p579
tp580
a(I232
I0
I0
S'great'
p581
tp582
a(I256
I1
F1.0
S'good'
p583
tp584
a(I282
I22
F0.75
S'worth'
p585
tp586
a(I336
I0
F-0.25
S'higher'
p587
tp588
a(I350
I0
F1.0
S'good'
p589
tp590
as(S'service'
p591
tp592
(lp593
(I17
I3
F1.0
S'good'
p594
tp595
a(I25
I7
F1.0
S'best'
p596
tp597
a(I27
I9
I0
S'immediate'
p598
tp599
a(I69
I17
I0
S'old'
p600
tp601
a(I98
I1
F0.875
S'nice'
p602
tp603
a(I214
I0
F-0.5
S'regular'
p604
tp605
a(I220
I1
F-0.875
S'awful'
p606
tp607
a(I222
I1
I0
S'great'
p608
tp609
a(I260
I9
I0
S'full'
p610
tp611
a(I300
I2
I0
S'great'
p612
tp613
a(I301
I1
I0
S'fastest'
p614
tp615
a(I317
I1
I0
S'prepaid'
p616
tp617
a(I335
I4
F-0.625
S'light'
p618
tp619
a(I335
I4
F-0.125
S'super'
p620
tp621
a(I335
I4
F-0.125
S'slow'
p622
tp623
a(I342
I3
F0.125
S'able'
p624
tp625
as(S'getting'
p626
tp627
(lp628
(I26
I0
F0.75
S'worth'
p629
tp630
a(I77
I5
F-0.375
S'impatient'
p631
tp632
as(S'dual'
p633
S'sim'
p634
tp635
(lp636
(I179
I0
F1.0
g388
tp637
a(I323
I5
F0.25
S'helpful'
p638
tp639
as(S'front'
p640
S'facing'
p641
S'camera'
p642
tp643
(lp644
(I138
I4
F-0.625
S'unfocused'
p645
tp646
a(I199
I15
F-0.625
S'bad'
p647
tp648
a(I219
I10
I0
S'great'
p649
tp650
a(I234
I6
F-0.625
S'bad'
p651
tp652
as(S'recommend'
p653
tp654
(lp655
(I100
I8
F0.875
S'happy'
p656
tp657
as(S'make'
p658
g146
S'call'
p659
tp660
(lp661
(I17
I1
F0.375
S'complete'
p662
tp663
a(I27
I4
F0.125
S'first'
p664
tp665
a(I27
I9
I0
S'mobile'
p666
tp667
as(S'straight'
p668
tp669
(lp670
(I31
I2
I0
g64
tp671
as(g146
S'samsung'
p672
S'galaxy'
p673
tp674
(lp675
(I20
I0
I0
S'mimic'
p676
tp677
a(I47
I1
F0.125
S'first'
p678
tp679
a(I47
I1
F-0.5
S'actual'
p680
tp681
a(I76
I4
F0.375
S'new'
p682
tp683
a(I78
I0
I0
S'generic'
p684
tp685
a(I281
I6
I0
S'big'
p686
tp687
as(S'batteries'
p688
tp689
(lp690
(I3
I17
F0.375
S'extra'
p691
tp692
a(I235
I1
F-0.875
S'stuck'
p693
tp694
a(I258
I0
F0.375
S'extra'
p695
tp696
a(I260
I17
I0
g536
tp697
a(I274
I12
F0.875
g538
tp698
a(I282
I20
F-0.25
g540
tp699
as(g146
S'long'
p700
S'time'
p701
tp702
(lp703
(I3
I14
F-0.5
S'long'
p704
tp705
a(I18
I7
F-0.5
S'long'
p706
tp707
a(I24
I0
F-0.5
S'long'
p708
tp709
a(I25
I1
F-0.5
S'long'
p710
tp711
a(I51
I21
F-0.5
S'long'
p712
tp713
a(I51
I21
F0.125
S'last'
p714
tp715
a(I138
I8
F-0.5
S'long'
p716
tp717
a(I138
I10
F-0.5
S'long'
p718
tp719
as(S'android'
p720
tp721
(lp722
(I61
I10
I0
S'big'
p723
tp724
a(I218
I1
F-0.75
S'little'
p725
tp726
a(I220
I3
F-0.25
S'inexpensive'
p727
tp728
a(I227
I0
F0.25
S'unlocked'
p729
tp730
as(S'estimated'
p731
S'delivery'
p732
S'date'
p733
tp734
(lp735
(I227
I7
F-0.625
S'bad'
p736
tp737
as(S'card'
p738
S'n'
p739
tp740
(lp741
(I30
I9
F1.0
g378
tp742
a(I194
I2
F0.875
g394
tp743
a(I218
I9
F-0.375
g398
tp744
a(I218
I34
F-0.25
g400
tp745
a(I220
I6
I0
g404
tp746
a(I241
I5
F0.375
g464
tp747
a(I255
I8
I0
g466
tp748
as(S'thing'
p749
tp750
(lp751
(I23
I0
F-0.625
S'surprising'
p752
tp753
a(I25
I24
I0
S'funny'
p754
tp755
a(I43
I4
I0
S'only'
p756
tp757
a(I48
I6
I0
S'dial'
p758
tp759
a(I51
I26
I0
S'only'
p760
tp761
a(I55
I1
I0
S'same'
p762
tp763
a(I55
I2
I0
S'only'
p764
tp765
a(I55
I25
I0
S'only'
p766
tp767
a(I55
I25
F0.75
S'give'
p768
tp769
a(I74
I3
I0
S'only'
p770
tp771
a(I89
I5
F1.0
S'best'
p772
tp773
a(I92
I1
I0
S'only'
p774
tp775
a(I100
I1
F0.875
S'important'
p776
tp777
a(I102
I0
F1.0
S'good'
p778
tp779
a(I103
I4
I0
S'same'
p780
tp781
a(I163
I5
I0
S'same'
p782
tp783
a(I168
I6
F1.0
S'good'
p784
tp785
a(I188
I0
I0
S'only'
p786
tp787
a(I204
I5
I0
S'only'
p788
tp789
a(I227
I40
F0.125
S'last'
p790
tp791
a(I235
I1
I0
S'same'
p792
tp793
a(I242
I3
F1.0
S'better'
p794
tp795
a(I242
I3
I0
S'real'
p796
tp797
a(I303
I1
F-0.875
S'worst'
p798
tp799
a(I304
I2
F1.0
S'good'
p800
tp801
a(I318
I6
I0
S'only'
p802
tp803
a(I327
I5
I0
S'only'
p804
tp805
a(I329
I23
F-0.625
S'other'
p806
tp807
a(I360
I24
F1.0
S'good'
p808
tp809
as(S'data'
p810
tp811
(lp812
(I21
I1
F-0.5
S'heavy'
p813
tp814
a(I59
I15
I0
S'update'
p815
tp816
a(I185
I2
F-0.125
S'minimum'
p817
tp818
a(I216
I1
F0.5
S'compatible'
p819
tp820
a(I227
I24
F-0.375
S'smaller'
p821
tp822
a(I321
I8
F-0.125
S'slow'
p823
tp824
as(g146
S'sim'
p825
S'card'
p826
tp827
(lp828
(I30
I9
F1.0
g378
tp829
a(I103
I3
I0
g380
tp830
a(I125
I2
F-0.375
g382
tp831
a(I125
I2
I0
g384
tp832
a(I160
I2
I0
g386
tp833
a(I179
I0
F1.0
g388
tp834
a(I192
I9
I0
g390
tp835
a(I192
I9
I0
g392
tp836
a(I194
I2
F0.875
g394
tp837
a(I214
I2
I0
g396
tp838
a(I218
I9
F-0.375
g398
tp839
a(I218
I34
F-0.25
g400
tp840
a(I220
I6
F-0.75
g402
tp841
a(I220
I6
I0
g404
tp842
a(I225
I3
F-0.625
g406
tp843
a(I292
I0
F-0.625
g408
tp844
as(S'work'
p845
tp846
(lp847
(I27
I0
I0
S'european'
p848
tp849
a(I100
I5
F1.0
S'good'
p850
tp851
a(I227
I23
F1.0
S'good'
p852
tp853
as(S'seems'
p854
tp855
(lp856
(I25
I18
I0
S'more'
p857
tp858
as(S'magnetic'
p859
S'sensor'
p860
tp861
(lp862
(I95
I0
F0.625
S'magnetic'
p863
tp864
a(I95
I1
F0.625
S'magnetic'
p865
tp866
a(I95
I3
F0.625
S'magnetic'
p867
tp868
as(S'tiene'
p869
S'el'
p870
tp871
(lp872
(I24
I2
F0.25
S'original'
p873
tp874
as(S'battery'
p875
S'life'
p876
tp877
(lp878
(I89
I9
F0.5
S'reasonable'
p879
tp880
a(I95
I2
F1.0
S'good'
p881
tp882
a(I114
I10
F1.0
S'good'
p883
tp884
a(I114
I10
F0.375
S'extended'
p885
tp886
a(I144
I9
I0
S'fast'
p887
tp888
a(I144
I9
F-0.5
S'longer'
p889
tp890
a(I182
I3
F1.0
S'good'
p891
tp892
a(I219
I4
F-0.625
S'bad'
p893
tp894
a(I262
I1
I0
S'great'
p895
tp896
a(I274
I12
F1.0
S'good'
p897
tp898
a(I321
I14
I0
S'great'
p899
tp900
a(I323
I3
F1.0
S'good'
p901
tp902
a(I343
I3
F0.5
S'reasonable'
p903
tp904
a(I360
I9
F-0.25
S'disappointing'
p905
tp906
as(S'problem'
p907
tp908
(lp909
(I67
I19
I0
S'big'
p910
tp911
a(I67
I25
F-0.625
S'light'
p912
tp913
a(I67
I25
F-0.75
S'dark'
p914
tp915
a(I91
I0
I0
S'only'
p916
tp917
a(I151
I25
I0
S'only'
p918
tp919
a(I162
I2
I0
S'same'
p920
tp921
a(I230
I8
I0
S'critical'
p922
tp923
a(I254
I2
F0.375
S'new'
p924
tp925
a(I269
I1
I0
S'only'
p926
tp927
a(I317
I6
F-0.625
S'other'
p928
tp929
a(I348
I1
I0
S'android'
p930
tp931
as(S'talk'
p932
tp933
(lp934
(I25
I24
F0.625
g62
tp935
a(I49
I3
F0.625
g66
tp936
a(I56
I0
F0.625
S'straight'
p937
tp938
a(I56
I11
F0.625
S'straight'
p939
tp940
a(I69
I3
F0.625
S'straight'
p941
tp942
a(I72
I2
F0.625
g68
tp943
a(I100
I4
F0.625
S'straight'
p944
tp945
a(I114
I3
F0.625
g70
tp946
a(I114
I4
F0.625
g72
tp947
a(I149
I0
F0.625
S'straight'
p948
tp949
a(I173
I0
F0.625
g74
tp950
a(I195
I5
F0.625
g76
tp951
a(I199
I16
F0.625
S'straight'
p952
tp953
a(I211
I4
F0.625
g78
tp954
a(I234
I8
F0.625
g80
tp955
a(I268
I0
F0.625
g82
tp956
a(I282
I3
F0.625
S'straight'
p957
tp958
a(I303
I1
F0.625
g84
tp959
a(I310
I1
F0.625
S'straight'
p960
tp961
a(I335
I9
F0.625
S'straight'
p962
tp963
a(I355
I0
F0.625
g86
tp964
as(S'problems'
p965
tp966
(lp967
(I5
I0
F0.5
S'technical'
p968
tp969
a(I20
I8
F0.625
S'major'
p970
tp971
a(I192
I16
I0
S'signal'
p972
tp973
a(I230
I1
F0.625
S'major'
p974
tp975
a(I258
I0
F0.75
S'due'
p976
tp977
a(I295
I8
F0.375
S'similar'
p978
tp979
as(S'back'
p980
tp981
(lp982
(I25
I39
I0
S'plastic'
p983
tp984
a(I25
I39
F-0.5
S'flimsy'
p985
tp986
a(I25
I40
F-0.5
S'open'
p987
tp988
a(I192
I20
I0
S'plastic'
p989
tp990
a(I219
I3
I0
S'plastic'
p991
tp992
a(I220
I24
I0
S'great'
p993
tp994
a(I327
I5
F1.0
S'good'
p995
tp996
a(I327
I5
F0.125
S'enough'
p997
tp998
a(I329
I15
F0.375
S'extra'
p999
tp1000
a(I335
I5
F-0.625
S'free'
p1001
tp1002
as(g739
S'sim'
p1003
S'card'
p1004
tp1005
(lp1006
(I30
I9
F1.0
g378
tp1007
a(I103
I3
I0
g380
tp1008
a(I125
I2
F-0.375
g382
tp1009
a(I125
I2
I0
g384
tp1010
a(I160
I2
I0
g386
tp1011
a(I179
I0
F1.0
g388
tp1012
a(I192
I9
I0
g390
tp1013
a(I192
I9
I0
g392
tp1014
a(I194
I2
F0.875
g394
tp1015
a(I218
I9
F-0.375
g398
tp1016
a(I218
I34
F-0.25
g400
tp1017
a(I220
I6
F-0.75
g402
tp1018
a(I220
I6
I0
g404
tp1019
a(I225
I3
F-0.625
g406
tp1020
a(I292
I0
F-0.625
g408
tp1021
as(S'straight'
p1022
S'talk'
p1023
tp1024
(lp1025
(I25
I24
F0.625
g62
tp1026
a(I31
I2
I0
g64
tp1027
a(I49
I3
F0.625
g66
tp1028
a(I56
I0
F0.625
g937
tp1029
a(I56
I11
F0.625
g939
tp1030
a(I69
I3
F0.625
g941
tp1031
a(I72
I2
F0.625
g68
tp1032
a(I100
I4
F0.625
g944
tp1033
a(I114
I3
F0.625
g70
tp1034
a(I114
I4
F0.625
g72
tp1035
a(I149
I0
F0.625
g948
tp1036
a(I173
I0
F0.625
g74
tp1037
a(I195
I5
F0.625
g76
tp1038
a(I199
I16
F0.625
g952
tp1039
a(I211
I4
F0.625
g78
tp1040
a(I234
I8
F0.625
g80
tp1041
a(I268
I0
F0.625
g82
tp1042
a(I282
I3
F0.625
g957
tp1043
a(I303
I1
F0.625
g84
tp1044
a(I310
I1
F0.625
g960
tp1045
a(I335
I9
F0.625
g962
tp1046
a(I355
I0
F0.625
g86
tp1047
as(S'find'
p1048
g146
S'case'
p1049
tp1050
(lp1051
(I106
I10
F1.0
g205
tp1052
a(I106
I10
F0.125
g207
tp1053
a(I129
I1
I0
g211
tp1054
a(I262
I2
F-0.875
g229
tp1055
a(I274
I14
F0.375
g231
tp1056
a(I274
I14
F-0.875
g233
tp1057
a(I352
I16
F-0.75
g247
tp1058
as(S'fine'
p1059
tp1060
(lp1061
(I34
I0
F0.375
S'worked'
p1062
tp1063
a(I45
I0
I0
S'only'
p1064
tp1065
a(I216
I1
F1.0
S'good'
p1066
tp1067
as(S'galaxy'
p1068
S'note'
p1069
tp1070
(lp1071
(I18
I4
F0.375
g333
tp1072
a(I24
I0
F0.25
g335
tp1073
a(I24
I2
I0
g337
tp1074
a(I24
I2
F0.25
g339
tp1075
a(I36
I3
I0
g341
tp1076
a(I43
I5
I0
g345
tp1077
a(I230
I5
F0.375
S'similar'
p1078
tp1079
a(I247
I10
I0
g347
tp1080
a(I247
I10
I0
g349
tp1081
a(I274
I6
F0.25
g447
tp1082
a(I274
I10
F1.0
S'better'
p1083
tp1084
a(I274
I10
I0
g351
tp1085
a(I274
I10
F0.25
g353
tp1086
a(I274
I11
F0.25
g449
tp1087
a(I342
I10
F0.75
S'fit'
p1088
tp1089
as(S'sim'
p1090
S'card'
p1091
g739
tp1092
(lp1093
(I30
I9
F1.0
g378
tp1094
a(I103
I3
I0
g380
tp1095
a(I125
I2
F-0.375
g382
tp1096
a(I125
I2
I0
g384
tp1097
a(I160
I2
I0
g386
tp1098
a(I179
I0
F1.0
g388
tp1099
a(I192
I9
I0
g390
tp1100
a(I192
I9
I0
g392
tp1101
a(I194
I2
F0.875
g394
tp1102
a(I218
I9
F-0.375
g398
tp1103
a(I218
I34
F-0.25
g400
tp1104
a(I220
I6
F-0.75
g402
tp1105
a(I220
I6
I0
g404
tp1106
a(I225
I3
F-0.625
g406
tp1107
a(I292
I0
F-0.625
g408
tp1108
as(S'seller'
p1109
tp1110
(lp1111
(I3
I0
I0
S'great'
p1112
tp1113
a(I24
I0
I0
S'great'
p1114
tp1115
a(I114
I21
F-0.25
S'ready'
p1116
tp1117
a(I150
I11
F0.375
S'new'
p1118
tp1119
a(I162
I7
F-0.125
S'overall'
p1120
tp1121
a(I162
I7
F1.0
S'good'
p1122
tp1123
a(I239
I0
F0.875
S'nice'
p1124
tp1125
a(I239
I1
F0.375
S'honest'
p1126
tp1127
a(I246
I12
F0.5
S'possible'
p1128
tp1129
a(I260
I29
I0
S'great'
p1130
tp1131
a(I274
I4
F0.625
S'responsible'
p1132
tp1133
a(I274
I12
I0
S'real'
p1134
tp1135
a(I274
I14
F0.875
S'nice'
p1136
tp1137
as(S'battery'
p1138
tp1139
(lp1140
(I3
I7
F0.625
S'easy'
p1141
tp1142
a(I3
I15
F0.5
S'second'
p1143
tp1144
a(I13
I1
F-0.625
S'bad'
p1145
tp1146
a(I25
I2
F0.25
S'original'
p1147
tp1148
a(I25
I2
I0
S'local'
p1149
tp1150
a(I41
I1
I0
S'quick'
p1151
tp1152
a(I55
I11
F0.75
S'give'
p1153
tp1154
a(I55
I11
F0.5
S'second'
p1155
tp1156
a(I90
I1
F0.125
S'last'
p1157
tp1158
a(I95
I2
F1.0
g881
tp1159
a(I99
I8
F-0.5
S'less'
p1160
tp1161
a(I114
I10
F0.375
g885
tp1162
a(I144
I9
I0
g887
tp1163
a(I235
I1
F-0.625
S'other'
p1164
tp1165
a(I262
I1
I0
g895
tp1166
a(I286
I3
F0.125
S'last'
p1167
tp1168
a(I330
I3
F0.5
S'second'
p1169
tp1170
a(I330
I3
F0.375
S'extra'
p1171
tp1172
a(I330
I6
F0.5
S'second'
p1173
tp1174
a(I330
I9
F-0.625
S'other'
p1175
tp1176
a(I343
I2
F0.375
S'extra'
p1177
tp1178
a(I360
I14
F0.5
S'second'
p1179
tp1180
as(S'samsung'
p1181
S'galaxy'
p1182
tp1183
(lp1184
(I20
I0
I0
g676
tp1185
a(I47
I1
F0.125
g678
tp1186
a(I47
I1
F-0.5
g680
tp1187
a(I76
I4
F0.375
g682
tp1188
a(I78
I0
I0
g684
tp1189
a(I281
I6
I0
g686
tp1190
as(S'ring'
p1191
S'tone'
p1192
tp1193
(lp1194
(I101
I3
F0.875
S'happy'
p1195
tp1196
as(S'works'
p1197
S'great'
p1198
tp1199
(lp1200
(I69
I9
I0
S'great'
p1201
tp1202
a(I100
I3
I0
S'great'
p1203
tp1204
a(I105
I2
I0
S'great'
p1205
tp1206
a(I107
I0
I0
S'great'
p1207
tp1208
a(I148
I2
I0
S'great'
p1209
tp1210
a(I169
I0
I0
S'great'
p1211
tp1212
a(I204
I2
I0
S'great'
p1213
tp1214
a(I227
I20
I0
S'great'
p1215
tp1216
a(I270
I2
I0
S'great'
p1217
tp1218
a(I270
I4
I0
S'great'
p1219
tp1220
a(I308
I0
I0
S'great'
p1221
tp1222
as(S'receive'
p1223
g146
S'call'
p1224
tp1225
(lp1226
(I27
I4
F0.125
g664
tp1227
a(I27
I9
I0
g666
tp1228
as(g146
S'good'
p1229
S'buy'
p1230
tp1231
(lp1232
(I85
I0
F1.0
S'good'
p1233
tp1234
a(I135
I3
F1.0
S'good'
p1235
tp1236
a(I208
I0
F1.0
S'good'
p1237
tp1238
a(I219
I25
I0
S'current'
p1239
tp1240
a(I278
I6
F1.0
S'good'
p1241
tp1242
a(I353
I0
F1.0
S'good'
p1243
tp1244
as(S'of'
p1245
S'galaxy'
p1246
S'note'
p1247
tp1248
(lp1249
(I18
I4
F0.375
g333
tp1250
a(I24
I0
F0.25
g335
tp1251
a(I274
I10
F1.0
g1083
tp1252
a(I274
I10
I0
g351
tp1253
a(I274
I10
F0.25
g353
tp1254
as(S'screen'
p1255
tp1256
(lp1257
(I3
I9
F0.25
g268
tp1258
a(I4
I0
F-0.125
S'mine'
p1259
tp1260
a(I4
I0
F-0.125
S'mine'
p1261
tp1262
a(I4
I0
F-0.375
S'top'
p1263
tp1264
a(I10
I0
I0
g270
tp1265
a(I11
I0
F-0.375
S'black'
p1266
tp1267
a(I20
I2
I0
g272
tp1268
a(I25
I13
I0
g274
tp1269
a(I25
I21
I0
g276
tp1270
a(I27
I2
F1.0
S'good'
p1271
tp1272
a(I47
I2
F0.5
S'clear'
p1273
tp1274
a(I47
I2
F0.25
S'larger'
p1275
tp1276
a(I49
I1
F0.625
g278
tp1277
a(I49
I1
I0
g280
tp1278
a(I51
I1
I0
S'large'
p1279
tp1280
a(I51
I4
F-0.375
S'black'
p1281
tp1282
a(I51
I23
F1.0
S'better'
p1283
tp1284
a(I51
I27
F0.5
S'touch'
p1285
tp1286
a(I51
I29
F-0.375
S'black'
p1287
tp1288
a(I51
I38
F-0.375
S'black'
p1289
tp1290
a(I61
I1
I0
g282
tp1291
a(I67
I0
I0
g284
tp1292
a(I67
I9
I0
g286
tp1293
a(I67
I9
F0.125
g288
tp1294
a(I67
I20
F-0.375
S'black'
p1295
tp1296
a(I74
I1
F-0.25
S'giant'
p1297
tp1298
a(I78
I1
I0
S'large'
p1299
tp1300
a(I83
I2
F-0.375
S'black'
p1301
tp1302
a(I98
I1
F0.25
S'responsive'
p1303
tp1304
a(I99
I0
F1.0
S'good'
p1305
tp1306
a(I106
I4
I0
S'large'
p1307
tp1308
a(I110
I0
F0.25
S'larger'
p1309
tp1310
a(I115
I11
I0
S'great'
p1311
tp1312
a(I120
I4
F0.5
S'touch'
p1313
tp1314
a(I120
I4
F1.0
S'good'
p1315
tp1316
a(I120
I4
F1.0
S'best'
p1317
tp1318
a(I125
I1
I0
g290
tp1319
a(I126
I2
I0
g292
tp1320
a(I126
I2
I0
g294
tp1321
a(I138
I14
F-0.25
S'white'
p1322
tp1323
a(I147
I1
F0.875
S'nice'
p1324
tp1325
a(I151
I4
F0.5
S'touch'
p1326
tp1327
a(I151
I18
F0.5
S'clear'
p1328
tp1329
a(I155
I1
F0.5
S'touch'
p1330
tp1331
a(I158
I1
F0.875
S'nice'
p1332
tp1333
a(I162
I0
F0.75
S'beautiful'
p1334
tp1335
a(I170
I1
F0.625
S'perfect'
p1336
tp1337
a(I178
I1
F-0.375
S'black'
p1338
tp1339
a(I192
I25
F0.5
S'touch'
p1340
tp1341
a(I195
I1
I0
S'large'
p1342
tp1343
a(I199
I6
I0
S'great'
p1344
tp1345
a(I219
I15
I0
S'sensitive'
p1346
tp1347
a(I220
I12
F-0.375
S'black'
p1348
tp1349
a(I223
I9
F-0.25
S'white'
p1350
tp1351
a(I227
I2
I0
S'large'
p1352
tp1353
a(I227
I19
I0
g296
tp1354
a(I227
I25
I0
g298
tp1355
a(I227
I25
I0
g300
tp1356
a(I256
I0
I0
g302
tp1357
a(I256
I0
I0
g304
tp1358
a(I267
I1
F0.5
S'strong'
p1359
tp1360
a(I270
I4
F0.75
g328
tp1361
a(I273
I5
I0
g306
tp1362
a(I274
I10
I0
S'great'
p1363
tp1364
a(I278
I5
F0.125
S'adjust'
p1365
tp1366
a(I279
I0
F-0.375
S'black'
p1367
tp1368
a(I282
I23
I0
S'large'
p1369
tp1370
a(I287
I0
F0.75
S'beautiful'
p1371
tp1372
a(I290
I0
F1.0
S'good'
p1373
tp1374
a(I290
I0
F0.75
S'beautiful'
p1375
tp1376
a(I306
I0
F0.5
S'touch'
p1377
tp1378
a(I311
I0
I0
g308
tp1379
a(I311
I0
F0.875
g310
tp1380
a(I311
I0
F0.375
g312
tp1381
a(I317
I3
F0.75
g314
tp1382
a(I317
I3
I0
g316
tp1383
a(I321
I0
F0.25
g318
tp1384
a(I321
I13
I0
g320
tp1385
a(I357
I2
F0.375
S'extra'
p1386
tp1387
a(I357
I2
I0
S'sensitive'
p1388
tp1389
as(S'time'
p1390
tp1391
(lp1392
(I3
I14
F-0.5
g704
tp1393
a(I5
I3
F0.125
S'first'
p1394
tp1395
a(I18
I7
F-0.5
g706
tp1396
a(I24
I0
F-0.5
g708
tp1397
a(I25
I1
F-0.5
g710
tp1398
a(I25
I20
I0
S'same'
p1399
tp1400
a(I51
I11
I0
S'most'
p1401
tp1402
a(I51
I21
F-0.5
g712
tp1403
a(I51
I21
F0.125
g714
tp1404
a(I51
I36
F-0.875
S'hard'
p1405
tp1406
a(I67
I22
F-0.75
S'bright'
p1407
tp1408
a(I76
I2
F-0.625
S'unbearable'
p1409
tp1410
a(I77
I5
I0
S'next'
p1411
tp1412
a(I77
I5
F1.0
S'better'
p1413
tp1414
a(I99
I6
I0
S'most'
p1415
tp1416
a(I106
I1
F-0.875
S'hard'
p1417
tp1418
a(I110
I3
F0.375
S'extra'
p1419
tp1420
a(I138
I6
F-0.875
S'hard'
p1421
tp1422
a(I138
I8
F-0.5
g716
tp1423
a(I138
I10
F-0.5
g718
tp1424
a(I139
I5
F-0.875
S'hard'
p1425
tp1426
a(I183
I1
F0.125
S'first'
p1427
tp1428
a(I183
I1
F0.5
S'second'
p1429
tp1430
a(I192
I9
I0
S'same'
p1431
tp1432
a(I205
I6
I0
S'next'
p1433
tp1434
a(I228
I3
I0
S'next'
p1435
tp1436
a(I228
I3
F-0.375
S'black'
p1437
tp1438
a(I243
I2
F0.125
S'first'
p1439
tp1440
a(I282
I17
F-0.875
S'hard'
p1441
tp1442
a(I328
I6
F0.5
S'reasonable'
p1443
tp1444
a(I335
I11
I0
S'most'
p1445
tp1446
a(I341
I0
F-0.125
S'slow'
p1447
tp1448
as(S'with'
p1449
g532
S'batteries'
p1450
tp1451
(lp1452
(I260
I17
I0
g536
tp1453
a(I282
I20
F-0.25
g540
tp1454
as(S'touch'
p1455
S'screen'
p1456
tp1457
(lp1458
(I21
I1
I0
S'very'
p1459
tp1460
a(I21
I1
I0
S'big'
p1461
tp1462
a(I21
I1
F-0.5
S'heavy'
p1463
tp1464
a(I51
I27
F0.5
g1285
tp1465
a(I98
I1
F0.25
g1303
tp1466
a(I99
I0
F1.0
g1305
tp1467
a(I120
I4
F0.5
g1313
tp1468
a(I120
I4
F1.0
g1315
tp1469
a(I120
I4
F1.0
g1317
tp1470
a(I151
I4
F0.5
g1326
tp1471
a(I155
I1
F0.5
g1330
tp1472
a(I192
I25
F0.5
g1340
tp1473
a(I219
I15
I0
g1346
tp1474
a(I290
I0
F1.0
g1373
tp1475
a(I290
I0
F0.75
g1375
tp1476
a(I306
I0
F0.5
g1377
tp1477
as(S'samsung'
p1478
S'galaxy'
p1479
S'note'
p1480
tp1481
(lp1482
(I47
I1
F0.125
g678
tp1483
a(I47
I1
F-0.5
g680
tp1484
a(I78
I0
I0
g684
tp1485
a(I247
I10
I0
g347
tp1486
a(I247
I10
I0
g349
tp1487
a(I281
I6
I0
g686
tp1488
as(S'to'
p1489
S'remove'
p1490
S'battery'
p1491
tp1492
(lp1493
(I41
I1
I0
g1151
tp1494
as(S'samsung'
p1495
tp1496
(lp1497
(I20
I0
I0
g676
tp1498
a(I25
I12
I0
S'generic'
p1499
tp1500
a(I47
I1
F0.125
g678
tp1501
a(I47
I1
F-0.5
g680
tp1502
a(I61
I3
F-0.375
S'smaller'
p1503
tp1504
a(I76
I4
F0.375
g682
tp1505
a(I78
I0
I0
g684
tp1506
a(I135
I3
F-0.5
S'less'
p1507
tp1508
a(I192
I27
I0
S'old'
p1509
tp1510
a(I219
I21
F0.25
S'unlocked'
p1511
tp1512
a(I239
I0
I0
S'efficient'
p1513
tp1514
a(I281
I6
I0
g686
tp1515
a(I317
I7
F0.5
S'comparable'
p1516
tp1517
as(S'everything'
p1518
tp1519
(lp1520
(I3
I2
I0
S'chinese'
p1521
tp1522
a(I25
I5
F1.0
S'best'
p1523
tp1524
a(I25
I17
F0.625
S'easy'
p1525
tp1526
a(I69
I10
I0
S'internet'
p1527
tp1528
a(I141
I6
I0
S'great'
p1529
tp1530
a(I247
I0
I0
S'quick'
p1531
tp1532
a(I296
I0
F0.25
S'bigger'
p1533
tp1534
a(I315
I0
I0
S'great'
p1535
tp1536
a(I315
I0
I0
S'great'
p1537
tp1538
as(g146
S'screen'
p1539
S'protector'
p1540
tp1541
(lp1542
(I4
I0
F-0.125
g1259
tp1543
a(I4
I0
F-0.125
g1261
tp1544
a(I4
I0
F-0.375
g1263
tp1545
a(I98
I1
F0.25
g1303
tp1546
a(I147
I1
F0.875
g1324
tp1547
a(I151
I18
F0.5
g1328
tp1548
as(S'camera'
p1549
tp1550
(lp1551
(I20
I4
F1.0
S'good'
p1552
tp1553
a(I24
I0
I0
S'great'
p1554
tp1555
a(I24
I0
I0
S'great'
p1556
tp1557
a(I24
I0
F-0.875
S'awful'
p1558
tp1559
a(I24
I0
I0
S'great'
p1560
tp1561
a(I67
I25
F-0.125
S'front'
p1562
tp1563
a(I70
I0
F1.0
S'good'
p1564
tp1565
a(I84
I1
F0.5
S'operable'
p1566
tp1567
a(I98
I1
F1.0
S'good'
p1568
tp1569
a(I99
I4
I0
S'great'
p1570
tp1571
a(I115
I9
I0
S'rear'
p1572
tp1573
a(I135
I2
F0.375
S'loud'
p1574
tp1575
a(I138
I4
F-0.625
g645
tp1576
a(I144
I5
F1.0
S'good'
p1577
tp1578
a(I146
I0
F-0.5
S'poor'
p1579
tp1580
a(I195
I3
F1.0
S'good'
p1581
tp1582
a(I199
I13
F0.5
S'primary'
p1583
tp1584
a(I199
I15
F-0.625
g647
tp1585
a(I215
I0
F-0.625
S'bad'
p1586
tp1587
a(I219
I9
F1.0
S'good'
p1588
tp1589
a(I219
I10
I0
g649
tp1590
a(I222
I0
F0.625
S'major'
p1591
tp1592
a(I234
I6
F-0.625
g651
tp1593
a(I258
I2
F-0.625
S'other'
p1594
tp1595
a(I260
I20
F0.75
S'worth'
p1596
tp1597
a(I261
I0
F-0.5
S'poor'
p1598
tp1599
a(I274
I9
F0.5
S'true'
p1600
tp1601
a(I274
I9
F1.0
S'good'
p1602
tp1603
a(I274
I9
F0.25
S'original'
p1604
tp1605
a(I278
I0
F-0.25
S'loose'
p1606
tp1607
a(I287
I3
F1.0
S'good'
p1608
tp1609
a(I289
I1
F0.625
S'acceptable'
p1610
tp1611
a(I348
I0
I0
S'great'
p1612
tp1613
as(S'galaxy'
p1614
tp1615
(lp1616
(I78
I1
I0
S'identical'
p1617
tp1618
a(I230
I5
F0.375
g1078
tp1619
a(I274
I6
F0.25
g447
tp1620
a(I274
I10
F1.0
g1083
tp1621
a(I274
I11
F0.25
g449
tp1622
a(I342
I10
F0.75
g1088
tp1623
as(S'signal'
p1624
tp1625
(lp1626
(I173
I0
F1.0
S'good'
p1627
tp1628
a(I274
I7
F1.0
S'good'
p1629
tp1630
a(I282
I3
I0
S'same'
p1631
tp1632
as(S'people'
p1633
tp1634
(lp1635
(I71
I4
I0
S'many'
p1636
tp1637
a(I115
I0
I0
S'more'
p1638
tp1639
a(I115
I0
I0
S'more'
p1640
tp1641
a(I170
I2
F-0.625
S'other'
p1642
tp1643
a(I186
I1
F-0.625
S'other'
p1644
tp1645
a(I224
I0
F1.0
S'better'
p1646
tp1647
a(I234
I1
I0
S'most'
p1648
tp1649
a(I251
I2
I0
S'hear'
p1650
tp1651
a(I329
I7
I0
S'many'
p1652
tp1653
as(S'dual'
p1654
S'sim'
p1655
S'card'
p1656
tp1657
(lp1658
(I179
I0
F1.0
g388
tp1659
as(S'works'
p1660
tp1661
(lp1662
(I41
I1
F-0.125
S'slow'
p1663
tp1664
a(I69
I9
I0
g1201
tp1665
a(I94
I2
F1.0
S'good'
p1666
tp1667
a(I100
I3
I0
g1203
tp1668
a(I105
I2
I0
g1205
tp1669
a(I107
I0
I0
g1207
tp1670
a(I148
I2
I0
g1209
tp1671
a(I169
I0
I0
g1211
tp1672
a(I204
I2
I0
g1213
tp1673
a(I227
I20
I0
g1215
tp1674
a(I262
I0
F1.0
S'good'
p1675
tp1676
a(I264
I0
I0
S'mobile'
p1677
tp1678
a(I270
I2
I0
g1217
tp1679
a(I270
I4
I0
g1219
tp1680
a(I278
I2
F1.0
S'good'
p1681
tp1682
a(I278
I2
F0.375
S'flash'
p1683
tp1684
a(I278
I2
F1.0
S'good'
p1685
tp1686
a(I278
I3
F0.875
S'nice'
p1687
tp1688
a(I308
I0
I0
g1221
tp1689
as(S'think'
p1690
tp1691
(lp1692
(I196
I2
F-0.625
S'bad'
p1693
tp1694
a(I281
I4
I0
S'only'
p1695
tp1696
as(S'apps'
p1697
tp1698
(lp1699
(I21
I3
F-0.625
S'other'
p1700
tp1701
a(I55
I26
I0
S'internet'
p1702
tp1703
a(I95
I2
I0
S'same'
p1704
tp1705
a(I95
I2
F0.625
S'magnetic'
p1706
tp1707
a(I115
I7
F0.25
S'favorite'
p1708
tp1709
a(I168
I6
I0
S'many'
p1710
tp1711
a(I197
I1
I0
S'great'
p1712
tp1713
a(I199
I10
I0
S'most'
p1714
tp1715
a(I199
I24
I0
S'most'
p1716
tp1717
a(I238
I0
F1.0
S'good'
p1718
tp1719
a(I260
I17
I0
S'many'
p1720
tp1721
a(I260
I19
F-0.625
S'free'
p1722
tp1723
a(I300
I4
I0
S'fast'
p1724
tp1725
a(I304
I3
F-0.5
S'sure'
p1726
tp1727
a(I304
I3
F0.375
S'acting'
p1728
tp1729
a(I343
I1
I0
S'latest'
p1730
tp1731
a(I356
I3
I0
S'most'
p1732
tp1733
as(S'waste'
p1734
S'r'
p1735
S'money'
p1736
tp1737
(lp1738
(I174
I1
I0
g426
tp1739
a(I335
I14
F0.375
g428
tp1740
as(S'screen'
p1741
S'protector'
p1742
tp1743
(lp1744
(I4
I0
F-0.125
g1259
tp1745
a(I4
I0
F-0.125
g1261
tp1746
a(I4
I0
F-0.375
g1263
tp1747
a(I98
I1
F0.25
g1303
tp1748
a(I147
I1
F0.875
g1324
tp1749
a(I151
I18
F0.5
g1328
tp1750
as(g146
S'call'
p1751
S'screen'
p1752
tp1753
(lp1754
(I11
I0
F-0.375
g1266
tp1755
a(I17
I1
F0.375
g662
tp1756
a(I51
I4
F-0.375
g1281
tp1757
a(I51
I29
F-0.375
g1287
tp1758
a(I67
I20
F-0.375
g1295
tp1759
a(I83
I2
F-0.375
g1301
tp1760
a(I98
I1
F0.25
g1303
tp1761
a(I178
I1
F-0.375
g1338
tp1762
a(I220
I12
F-0.375
g1348
tp1763
a(I279
I0
F-0.375
g1367
tp1764
as(S'took'
p1765
tp1766
(lp1767
(I268
I0
F0.5
S'true'
p1768
tp1769
as(S'bells'
p1770
S'and'
p1771
S'whistles'
p1772
tp1773
(lp1774
(I148
I2
I0
S'android'
p1775
tp1776
a(I185
I11
F0.125
S'usual'
p1777
tp1778
a(I234
I8
I0
S'few'
p1779
tp1780
a(I274
I11
F0.5
S'true'
p1781
tp1782
as(S'call'
p1783
tp1784
(lp1785
(I17
I1
F0.375
g662
tp1786
a(I27
I4
F0.125
g664
tp1787
a(I27
I9
I0
g666
tp1788
a(I51
I34
F-0.375
S'manual'
p1789
tp1790
a(I83
I3
F0.125
S'able'
p1791
tp1792
a(I295
I4
F-0.75
S'difficult'
p1793
tp1794
as(S'buying'
p1795
tp1796
(lp1797
(I222
I2
F0.75
S'worth'
p1798
tp1799
a(I329
I6
I0
S'great'
p1800
tp1801
as(S'charger'
p1802
tp1803
(lp1804
(I100
I2
F-0.625
S'wall'
p1805
tp1806
a(I141
I4
F-0.625
S'other'
p1807
tp1808
a(I141
I4
I0
S'old'
p1809
tp1810
a(I192
I3
F-0.5
S'regular'
p1811
tp1812
a(I192
I16
F-0.5
S'international'
p1813
tp1814
a(I192
I16
I0
S'standard'
p1815
tp1816
a(I219
I17
I0
S'included'
p1817
tp1818
a(I227
I14
I0
S'cable'
p1819
tp1820
a(I314
I2
F0.375
S'new'
p1821
tp1822
a(I330
I8
F0.125
S'last'
p1823
tp1824
as(S'estimated'
p1825
S'delivery'
p1826
tp1827
(lp1828
(I227
I7
F-0.625
g736
tp1829
as(S'review'
p1830
tp1831
(lp1832
(I88
I1
F1.0
S'good'
p1833
tp1834
a(I151
I11
F-0.5
S'longer'
p1835
tp1836
a(I230
I0
I0
S'full'
p1837
tp1838
a(I329
I0
I0
S'initial'
p1839
tp1840
a(I329
I8
I0
S'full'
p1841
tp1842
as(S't'
p1843
S'mobile'
p1844
S'sim'
p1845
tp1846
(lp1847
(I25
I22
F-0.125
S'foreign'
p1848
tp1849
a(I125
I2
F-0.375
g382
tp1850
a(I125
I2
I0
g384
tp1851
a(I179
I0
F1.0
g388
tp1852
as(S'product'
p1853
tp1854
(lp1855
(I37
I0
F-0.125
S'overall'
p1856
tp1857
a(I37
I0
F0.875
S'nice'
p1858
tp1859
a(I49
I0
I0
S'great'
p1860
tp1861
a(I162
I7
F1.0
S'good'
p1862
tp1863
a(I211
I12
F1.0
S'good'
p1864
tp1865
a(I234
I1
F-0.875
S'inferior'
p1866
tp1867
a(I234
I1
F1.0
S'good'
p1868
tp1869
a(I234
I1
F0.5
S'true'
p1870
tp1871
a(I316
I4
I0
S'great'
p1872
tp1873
a(I320
I3
F0.75
S'worth'
p1874
tp1875
a(I322
I4
I0
S'great'
p1876
tp1877
a(I328
I0
F1.0
S'good'
p1878
tp1879
as(S'sim'
p1880
S'card'
p1881
S'slots'
p1882
tp1883
(lp1884
(I194
I2
F0.875
g394
tp1885
as(S'days'
p1886
tp1887
(lp1888
(I10
I3
I0
S'quick'
p1889
tp1890
a(I36
I3
I0
g6
tp1891
a(I36
I3
F0.375
g8
tp1892
a(I36
I3
F0.125
g10
tp1893
a(I56
I9
F-0.25
S'past'
p1894
tp1895
a(I69
I4
I0
S'few'
p1896
tp1897
a(I89
I0
F-0.5
S'less'
p1898
tp1899
a(I111
I0
I0
S'few'
p1900
tp1901
a(I142
I0
I0
S'few'
p1902
tp1903
a(I219
I0
F0.75
S'contrary'
p1904
tp1905
a(I227
I6
I0
g12
tp1906
a(I260
I26
I0
S'few'
p1907
tp1908
a(I335
I16
F0.125
S'first'
p1909
tp1910
a(I335
I16
I0
S'few'
p1911
tp1912
a(I350
I1
I0
S'few'
p1913
tp1914
a(I355
I1
I0
S'many'
p1915
tp1916
as(S'calls'
p1917
tp1918
(lp1919
(I34
I0
I0
S'few'
p1920
tp1921
a(I41
I1
F-0.25
S'low'
p1922
tp1923
a(I130
I6
F-0.625
S'unbearable'
p1924
tp1925
a(I138
I10
F-0.875
S'hard'
p1926
tp1927
a(I178
I1
F-0.5
S'less'
p1928
tp1929
a(I196
I2
F-0.5
S'less'
p1930
tp1931
a(I227
I22
I0
S'internet'
p1932
tp1933
a(I227
I22
F1.0
S'good'
p1934
tp1935
a(I227
I23
I0
S'internet'
p1936
tp1937
a(I227
I36
F0.875
S'nice'
p1938
tp1939
a(I227
I36
F0.5
S'clear'
p1940
tp1941
a(I238
I1
I0
S'many'
p1942
tp1943
a(I249
I0
F-0.625
S'other'
p1944
tp1945
a(I357
I0
F0.125
S'first'
p1946
tp1947
as.