(dp0
(S'back'
p1
S'cover'
p2
tp3
(lp4
(I12
I90
F-0.625
S'push'
p5
I2
tp6
as(S'left'
p7
S'side'
p8
tp9
(lp10
(I13
I11
F-0.25
S'lower'
p11
I2
tp12
as(S'battery'
p13
S'life'
p14
tp15
(lp16
(I1
I13
I0
S'great'
p17
I1
tp18
a(I6
I8
F-0.5
S'long'
p19
I1
tp20
a(I6
I24
F-0.5
S'long'
p21
I1
tp22
a(I7
I96
F-0.5
S'long'
p23
I1
tp24
a(I11
I49
F1.0
S'good'
p25
I1
tp26
a(I1
I13
I0
g17
I15
tp27
a(I6
I8
F-0.5
g19
I15
tp28
a(I12
I37
I0
S'close'
p29
I15
tp30
as(S'text'
p31
tp32
(lp33
(I12
I106
F0.125
S'first'
p34
I18
tp35
as(S'cover'
p36
S'towards'
p37
S'bottom'
p38
tp39
(lp40
(I2
I38
F-0.625
S'push'
p41
I0
tp42
a(I12
I90
F-0.625
g5
I0
tp43
as(S'tracfone'
p44
tp45
(lp46
(I0
I5
F-0.25
S'cheaper'
p47
I0
tp48
a(I1
I5
F-0.625
S'other'
p49
I0
tp50
a(I2
I88
I0
S'most'
p51
I0
tp52
a(I3
I96
F-0.5
S'less'
p53
I0
tp54
a(I3
I106
F-0.5
S'regular'
p55
I0
tp56
a(I6
I5
I0
S'internet'
p57
I0
tp58
a(I11
I38
F1.0
S'best'
p59
I0
tp60
a(I11
I44
I0
S'great'
p61
I0
tp62
a(I11
I44
F-0.75
S'little'
p63
I0
tp64
a(I12
I9
F0.5
S'second'
p65
I0
tp66
a(I12
I16
F0.375
S'much'
p67
I0
tp68
a(I12
I20
I0
S'website'
p69
I0
tp70
as(S'camera'
p71
tp72
(lp73
(I1
I47
F-0.75
S'wrong'
p74
I1
tp75
a(I6
I17
F-0.875
S'awful'
p76
I1
tp77
a(I6
I18
I0
S'great'
p78
I1
tp79
a(I6
I18
F1.0
S'better'
p80
I1
tp81
a(I7
I21
F0.625
S'decent'
p82
I1
tp83
a(I7
I22
F1.0
S'good'
p84
I1
tp85
a(I7
I43
I0
S'real'
p86
I1
tp87
a(I10
I79
F-0.625
S'bad'
p88
I1
tp89
a(I11
I9
I0
S'great'
p90
I1
tp91
a(I11
I9
F0.625
S'easy'
p92
I1
tp93
as(S'bluetooth'
p94
tp95
(lp96
(I10
I27
F0.5
S'clear'
p97
I3
tp98
as(S'reception'
p99
tp100
(lp101
(I0
I4
F1.0
S'good'
p102
I0
tp103
a(I2
I90
I0
S'signal'
p104
I0
tp105
a(I3
I68
I0
S'great'
p106
I0
tp107
a(I3
I68
F-0.375
S'simple'
p108
I0
tp109
a(I3
I109
F1.0
S'good'
p110
I0
tp111
a(I6
I27
F1.0
S'better'
p112
I0
tp113
a(I7
I120
F1.0
S'good'
p114
I0
tp115
a(I12
I74
F0.5
S'reasonable'
p116
I0
tp117
a(I12
I74
F0.625
S'easy'
p118
I0
tp119
a(I13
I24
F0.625
S'easy'
p120
I0
tp121
a(I13
I24
F1.0
S'better'
p122
I0
tp123
a(I13
I24
I0
S'more'
p124
I0
tp125
a(I13
I24
F0.5
S'expensive'
p126
I0
tp127
a(I14
I9
F1.0
S'good'
p128
I0
tp129
as(S'rural'
p130
S'areas'
p131
tp132
(lp133
(I3
I4
I0
S'rural'
p134
I0
tp135
a(I3
I106
I0
S'rural'
p136
I0
tp137
a(I10
I61
I0
S'rural'
p138
I0
tp139
as(S'with'
p140
S'double'
p141
S'minutes'
p142
tp143
(lp144
(I2
I87
F-0.375
S'double'
p145
I0
tp146
a(I6
I10
F-0.375
S'double'
p147
I0
tp148
a(I11
I11
F-0.375
S'double'
p149
I0
tp150
a(I12
I15
F-0.375
S'double'
p151
I0
tp152
a(I12
I81
F-0.375
S'double'
p153
I0
tp154
a(I0
I26
F-0.375
S'double'
p155
I0
tp156
a(I2
I19
F-0.375
S'double'
p157
I0
tp158
a(I2
I87
F-0.375
g145
I0
tp159
a(I6
I10
F-0.375
g147
I0
tp160
a(I11
I11
F-0.375
g149
I0
tp161
a(I11
I26
F-0.375
S'double'
p162
I0
tp163
a(I12
I15
F-0.375
g151
I0
tp164
a(I12
I43
F-0.375
S'double'
p165
I0
tp166
a(I12
I81
F-0.375
g153
I0
tp167
a(I15
I10
F-0.375
S'double'
p168
I0
tp169
a(I15
I20
F-0.375
S'double'
p170
I0
tp171
a(I15
I20
I0
S'most'
p172
I0
tp173
as(S'minutes'
p174
S'for'
p175
S'life'
p176
tp177
(lp178
(I2
I19
F-0.375
g157
I0
tp179
a(I6
I10
F-0.375
g147
I0
tp180
a(I11
I11
F-0.375
g149
I0
tp181
a(I11
I26
F-0.375
g162
I0
tp182
a(I12
I15
F-0.375
g151
I0
tp183
a(I6
I24
F-0.5
g21
I19
tp184
a(I7
I96
F-0.5
g23
I19
tp185
a(I11
I49
F1.0
g25
I19
tp186
as(S'button'
p187
tp188
(lp189
(I7
I35
F-0.125
S'overall'
p190
I19
tp191
as(S'verizon'
p192
tp193
(lp194
(I11
I46
I0
S'old'
p195
I0
tp196
as(S'sd'
p197
S'card'
p198
tp199
(lp200
(I3
I41
I0
S'sd'
p201
I0
tp202
as(S'cdma'
p203
tp204
(lp205
(I2
I18
F0.5
S'reasonable'
p206
I0
tp207
a(I2
I18
I0
S'basic'
p208
I0
tp209
a(I3
I50
I0
S'most'
p210
I0
tp211
a(I3
I50
F0.875
S'important'
p212
I0
tp213
as(S'battery'
p214
S'cover'
p215
tp216
(lp217
(I2
I77
F0.625
S'easier'
p218
I0
tp219
as(S'tabs'
p220
tp221
(lp222
(I2
I33
F-0.375
S'top'
p223
I2
tp224
a(I7
I115
F0.5
S'aggressive'
p225
I2
tp226
a(I12
I90
F-0.375
S'top'
p227
I2
tp228
as(S'buttons'
p229
tp230
(lp231
(I1
I17
I0
S'big'
p232
I13
tp233
a(I2
I17
I0
S'big'
p234
I13
tp235
a(I3
I17
I0
S'big'
p236
I13
tp237
a(I4
I1
F0.375
S'exterior'
p238
I13
tp239
a(I7
I78
I0
S'large'
p240
I13
tp241
a(I10
I51
I0
S'large'
p242
I13
tp243
a(I12
I13
I0
S'large'
p244
I13
tp245
a(I15
I31
I0
S'large'
p246
I13
tp247
as(S'calls'
p248
tp249
(lp250
(I3
I17
F0.25
S'recent'
p251
I0
tp252
a(I7
I65
F-0.125
S'mine'
p253
I0
tp254
as(S'signal'
p255
S'strength'
p256
tp257
(lp258
(I2
I21
I0
S'signal'
p259
I0
tp260
a(I7
I70
I0
S'signal'
p261
I0
tp262
a(I7
I85
F0.375
S'busy'
p263
I1
tp264
a(I7
I86
F0.375
S'busy'
p265
I1
tp266
a(I7
I95
I0
S'great'
p267
I1
tp268
a(I12
I32
F0.5
S'stronger'
p269
I1
tp270
a(I12
I76
F-0.75
S'little'
p271
I1
tp272
as(S'activation'
p273
S'process'
p274
tp275
(lp276
(I10
I8
F-0.75
S'unable'
p277
I0
tp278
a(I10
I8
I0
S'own'
p279
I0
tp280
a(I12
I22
F0.375
S'complete'
p281
I0
tp282
as(S'better'
p283
S'coverage'
p284
tp285
(lp286
(I1
I30
F1.0
S'better'
p287
I0
tp288
a(I3
I95
F0.375
S'much'
p289
I0
tp290
a(I3
I106
F1.0
S'better'
p291
I0
tp292
a(I6
I52
F1.0
S'better'
p293
I0
tp294
a(I15
I2
F1.0
S'better'
p295
I0
tp296
a(I1
I30
F1.0
g287
I0
tp297
a(I3
I4
I0
S'more'
p298
I0
tp299
a(I3
I95
F0.375
g289
I0
tp300
a(I3
I106
F1.0
g291
I0
tp301
a(I6
I52
F1.0
g293
I0
tp302
a(I6
I53
F1.0
S'good'
p303
I0
tp304
a(I6
I53
F0.375
S'available'
p305
I0
tp306
a(I11
I40
I0
S'wide'
p307
I0
tp308
a(I15
I2
F1.0
g295
I0
tp309
as(S'much'
p310
S'better'
p311
tp312
(lp313
(I11
I2
F0.375
S'much'
p314
I9
tp315
as(S'customer'
p316
S'service'
p317
tp318
(lp319
(I7
I52
I0
S'overseas'
p320
I3
tp321
a(I12
I17
F-0.625
S'bad'
p322
I3
tp323
a(I0
I4
I0
S'most'
p324
I16
tp325
a(I3
I76
F1.0
S'good'
p326
I16
tp327
a(I7
I52
I0
g320
I16
tp328
a(I7
I57
F-0.5
S'try'
p329
I16
tp330
a(I10
I61
F1.0
S'good'
p331
I16
tp332
a(I12
I17
F-0.625
g322
I16
tp333
a(I13
I19
F1.0
S'good'
p334
I16
tp335
a(I3
I31
F0.625
S'easier'
p336
I11
tp337
a(I3
I31
I0
S'next'
p338
I11
tp339
a(I11
I41
F-0.25
S'past'
p340
I11
tp341
as(S'volume'
p342
tp343
(lp344
(I2
I30
F-0.25
S'low'
p345
I6
tp346
a(I2
I117
F0.625
S'easy'
p347
I6
tp348
a(I2
I117
F1.0
S'good'
p349
I6
tp350
a(I2
I117
F1.0
S'good'
p351
I6
tp352
a(I7
I12
I0
S'large'
p353
I6
tp354
a(I11
I48
I0
S'adequate'
p355
I6
tp356
a(I15
I4
F-0.25
S'low'
p357
I6
tp358
as(S'contact'
p359
S'list'
p360
tp361
(lp362
(I11
I23
I0
S'reestablish'
p363
I0
tp364
a(I12
I83
F0.625
S'easy'
p365
I0
tp366
as(S'battery'
p367
S'lasts'
p368
tp369
(lp370
(I12
I32
F-0.5
S'longer'
p371
I0
tp372
a(I12
I32
F0.875
S'happy'
p373
I0
tp374
as(S'mp3'
p375
S'player'
p376
tp377
(lp378
(I3
I36
I0
S'traditional'
p379
I1
tp380
as(S'flip'
p381
tp382
(lp383
(I2
I64
I0
S'basic'
p384
I4
tp385
a(I2
I64
F0.625
S'easy'
p386
I4
tp387
a(I3
I17
I0
S'large'
p388
I4
tp389
a(I9
I0
F1.0
S'good'
p390
I4
tp391
a(I9
I0
I0
S'basic'
p392
I4
tp393
a(I10
I34
F1.0
S'good'
p394
I4
tp395
a(I10
I34
I0
S'basic'
p396
I4
tp397
a(I10
I58
F-0.375
S'simple'
p398
I4
tp399
a(I15
I0
F-0.375
S'simple'
p400
I4
tp401
as(S'busy'
p402
S'signal'
p403
tp404
(lp405
(I7
I85
F0.375
g263
I0
tp406
a(I7
I86
F0.375
g265
I0
tp407
as(S'sound'
p408
S'quality'
p409
tp410
(lp411
(I1
I34
F1.0
S'good'
p412
I0
tp413
a(I3
I57
F0.25
S'bigger'
p414
I0
tp415
a(I3
I57
F0.375
S'much'
p416
I0
tp417
a(I1
I34
F1.0
g412
I7
tp418
a(I3
I57
F0.25
g414
I7
tp419
a(I6
I20
F-0.5
S'press'
p420
I7
tp421
a(I7
I119
F1.0
S'good'
p422
I7
tp423
as.