(dp0
(S'battery'
p1
S'life'
p2
tp3
(lp4
(I0
I119
F1.0
S'good'
p5
I1
tp6
a(I8
I16
F0.125
S'first'
p7
I1
tp8
a(I14
I9
F-0.5
S'poor'
p9
I1
tp10
a(I15
I31
F-0.75
S'short'
p11
I1
tp12
a(I17
I63
F-0.5
S'complaint'
p13
I1
tp14
a(I18
I32
I0
S'great'
p15
I1
tp16
a(I21
I28
F-0.625
S'average'
p17
I1
tp18
a(I8
I16
F0.125
g7
I19
tp19
a(I14
I9
F-0.5
g9
I19
tp20
a(I15
I31
F-0.75
g11
I19
tp21
a(I18
I30
F0.875
S'nice'
p22
I19
tp23
a(I18
I32
I0
g15
I19
tp24
a(I21
I28
F-0.625
g17
I19
tp25
a(I0
I119
F1.0
g5
I15
tp26
a(I4
I24
F0.125
S'last'
p27
I15
tp28
a(I8
I18
F0.5
S'second'
p29
I15
tp30
a(I11
I94
F0.375
S'new'
p31
I15
tp32
a(I14
I12
F0.375
S'extended'
p33
I15
tp34
a(I14
I12
F0.375
S'available'
p35
I15
tp36
a(I15
I24
F0.125
S'last'
p37
I15
tp38
a(I17
I8
I0
S'great'
p39
I15
tp40
a(I17
I51
F0.625
S'easy'
p41
I15
tp42
a(I17
I51
F0.125
S'last'
p43
I15
tp44
a(I17
I63
F-0.5
g13
I15
tp45
a(I18
I56
F-0.625
S'fresh'
p46
I15
tp47
a(I18
I58
F0.125
S'charger'
p48
I15
tp49
a(I18
I68
F0.375
S'new'
p50
I15
tp51
a(I18
I69
F-0.5
S'inadequate'
p52
I15
tp53
a(I18
I100
F0.125
S'last'
p54
I15
tp55
a(I19
I0
F0.125
S'last'
p56
I15
tp57
a(I21
I44
F0.375
S'extended'
p58
I15
tp59
a(I21
I49
I0
S'external'
p60
I15
tp61
a(I22
I7
F0.375
S'new'
p62
I15
tp63
as(S'weeks'
p64
tp65
(lp66
(I2
I25
I0
S'few'
p67
I18
tp68
a(I18
I70
F0.125
S'last'
p69
I18
tp70
a(I22
I45
I0
S'few'
p71
I18
tp72
as(S'several'
p73
S'times'
p74
tp75
(lp76
(I15
I9
I0
S'faster'
p77
I4
tp78
as(S'texting'
p79
tp80
(lp81
(I8
I39
I0
S'more'
p82
I0
tp83
as(S'samsung'
p84
tp85
(lp86
(I0
I8
F0.125
S'first'
p87
I7
tp88
a(I2
I33
F0.25
S'original'
p89
I7
tp90
a(I4
I10
I0
S'exclusive'
p91
I7
tp92
a(I8
I30
F-0.5
S'sure'
p93
I7
tp94
a(I8
I36
I0
S'old'
p95
I7
tp96
a(I18
I68
I0
S'identical'
p97
I7
tp98
as(S'camera'
p99
tp100
(lp101
(I0
I70
F0.875
S'nice'
p102
I1
tp103
a(I0
I73
F1.0
S'good'
p104
I1
tp105
a(I2
I12
F1.0
S'good'
p106
I1
tp107
a(I2
I12
I0
S'great'
p108
I1
tp109
a(I2
I12
F1.0
S'good'
p110
I1
tp111
a(I2
I85
I-100
S'cons*front'
p112
I1
tp113
a(I3
I1
F0.875
S'nice'
p114
I1
tp115
a(I4
I18
I0
S'rear'
p116
I1
tp117
a(I4
I30
F1.0
S'good'
p118
I1
tp119
a(I22
I3
F1.0
S'good'
p120
I1
tp121
as(S'key'
p122
S'board'
p123
tp124
(lp125
(I11
I81
F0.125
S'key'
p126
I0
tp127
a(I17
I13
F0.125
S'key'
p128
I0
tp129
as(S'qwerty'
p130
S'keyboard'
p131
tp132
(lp133
(I18
I51
F0.875
S'nice'
p134
I0
tp135
a(I18
I95
I0
S'full'
p136
I0
tp137
a(I1
I2
F1.0
S'best'
p138
I0
tp139
a(I1
I2
I0
S'real'
p140
I0
tp141
a(I13
I14
I0
S'great'
p142
I0
tp143
a(I18
I21
I0
S'more'
p144
I0
tp145
a(I18
I95
I0
g136
I0
tp146
as(S'straight'
p147
S'talk'
p148
tp149
(lp150
(I0
I11
F0.875
S'happy'
p151
I0
tp152
a(I17
I5
F0.625
S'easy'
p153
I0
tp154
a(I17
I5
F0.625
S'straight'
p155
I0
tp156
as(S'apps'
p157
tp158
(lp159
(I9
I0
I0
S'great'
p160
I0
tp161
a(I13
I5
I0
S'few'
p162
I0
tp163
a(I13
I5
I0
S'add-on'
p164
I0
tp165
a(I14
I23
I0
S'download'
p166
I0
tp167
a(I18
I22
I0
S'handy'
p168
I0
tp169
a(I18
I27
F0.125
S'able'
p170
I0
tp171
a(I22
I24
F-0.125
S'delete'
p172
I0
tp173
as(S'memory'
p174
tp175
(lp176
(I0
I8
F0.125
S'enough'
p177
I5
tp178
a(I0
I56
I0
S'external'
p179
I5
tp180
a(I2
I35
F0.375
S'extra'
p181
I5
tp182
a(I2
I35
I0
S'internal'
p183
I5
tp184
a(I4
I16
I0
S'internal'
p185
I5
tp186
a(I8
I32
I0
S'more'
p187
I5
tp188
a(I17
I20
F0.5
S'clear'
p189
I5
tp190
as(S'a'
p191
S'physical'
p192
S'keyboard'
p193
tp194
(lp195
(I0
I13
I0
S'physical'
p196
I0
tp197
a(I0
I44
I0
S'physical'
p198
I0
tp199
a(I2
I0
I0
S'physical'
p200
I0
tp201
a(I2
I16
I0
S'physical'
p202
I0
tp203
a(I2
I48
I0
S'physical'
p204
I0
tp205
a(I2
I48
F0.125
S'first'
p206
I0
tp207
a(I2
I48
F0.25
S'bigger'
p208
I0
tp209
a(I7
I3
I0
S'physical'
p210
I0
tp211
a(I17
I27
I0
S'physical'
p212
I0
tp213
a(I21
I26
I0
S'physical'
p214
I0
tp215
a(I21
I46
I0
S'physical'
p216
I0
tp217
a(I22
I28
I0
S'physical'
p218
I0
tp219
a(I22
I28
F1.0
S'good'
p220
I0
tp221
a(I0
I13
I0
g196
I0
tp222
a(I0
I44
I0
g198
I0
tp223
a(I2
I0
I0
g200
I0
tp224
a(I2
I16
I0
g202
I0
tp225
a(I2
I48
I0
g204
I0
tp226
a(I2
I48
F0.125
g206
I0
tp227
a(I2
I48
F0.25
g208
I0
tp228
a(I7
I3
I0
g210
I0
tp229
a(I17
I27
I0
g212
I0
tp230
a(I21
I26
I0
g214
I0
tp231
a(I21
I46
I0
g216
I0
tp232
a(I22
I28
I0
g218
I0
tp233
a(I22
I28
F1.0
g220
I0
tp234
as(S'sd'
p235
S'card'
p236
tp237
(lp238
(I0
I60
F-0.75
S'damaged'
p239
I0
tp240
as(S'seller'
p241
tp242
(lp243
(I0
I31
F-0.625
S'uncommunicative'
p244
I19
tp245
a(I0
I79
I0
S'more'
p246
I19
tp247
a(I2
I23
I0
S'different'
p248
I19
tp249
as(S'android'
p250
tp251
(lp252
(I0
I17
I0
S'great'
p253
I0
tp254
a(I4
I4
F1.0
S'good'
p255
I0
tp256
a(I4
I28
F0.375
S'much'
p257
I0
tp258
a(I15
I14
I0
S'great'
p259
I0
tp260
as(S'slide'
p261
S'out'
p262
S'keyboard'
p263
tp264
(lp265
(I2
I48
I0
g204
I0
tp266
a(I2
I48
F0.125
g206
I0
tp267
a(I2
I48
F0.25
g208
I0
tp268
a(I8
I26
I0
S'luddite'
p269
I0
tp270
a(I8
I47
I0
S'large'
p271
I0
tp272
a(I21
I26
I0
g214
I0
tp273
a(I0
I5
I0
S'great'
p274
I2
tp275
a(I0
I5
I0
S'real'
p276
I2
tp277
a(I0
I8
I0
S'real'
p278
I2
tp279
a(I0
I10
F0.5
S'strong'
p280
I2
tp281
a(I0
I10
F0.625
S'easy'
p282
I2
tp283
a(I0
I13
I0
g196
I2
tp284
a(I0
I27
I0
S'large'
p285
I2
tp286
a(I0
I27
F0.125
S'key'
p287
I2
tp288
a(I0
I27
I0
S'big'
p289
I2
tp290
a(I0
I44
I0
g198
I2
tp291
a(I0
I45
F0.875
S'nice'
p292
I2
tp293
a(I0
I47
I0
S'real'
p294
I2
tp295
a(I0
I73
F0.875
S'nice'
p296
I2
tp297
a(I0
I83
I0
S'full'
p298
I2
tp299
a(I2
I0
I0
g200
I2
tp300
a(I2
I13
I0
S'great'
p301
I2
tp302
a(I2
I16
I0
g202
I2
tp303
a(I2
I29
F0.625
S'easy'
p304
I2
tp305
a(I2
I48
I0
g204
I2
tp306
a(I2
I48
F0.125
g206
I2
tp307
a(I2
I48
F0.25
g208
I2
tp308
a(I2
I75
I0
S'real'
p309
I2
tp310
a(I4
I2
I0
S'great'
p311
I2
tp312
a(I4
I16
I0
S'android'
p313
I2
tp314
a(I7
I3
I0
g210
I2
tp315
a(I8
I5
F0.5
S'flat'
p316
I2
tp317
a(I8
I26
I0
g269
I2
tp318
a(I8
I47
I0
g271
I2
tp319
a(I8
I48
I0
S'inconsistent'
p320
I2
tp321
a(I11
I95
I0
S'external'
p322
I2
tp323
a(I11
I95
F0.625
S'convenient'
p324
I2
tp325
a(I11
I97
I0
S'external'
p326
I2
tp327
a(I14
I15
F0.375
S'much'
p328
I2
tp329
a(I15
I26
I0
S'alternate'
p330
I2
tp331
a(I17
I27
I0
g212
I2
tp332
a(I18
I22
F0.375
S'much'
p333
I2
tp334
a(I18
I51
F0.875
g134
I2
tp335
a(I21
I11
I0
S'great'
p336
I2
tp337
a(I21
I26
I0
g214
I2
tp338
a(I21
I46
I0
g216
I2
tp339
a(I22
I28
I0
g218
I2
tp340
a(I22
I28
F1.0
g220
I2
tp341
a(I22
I32
F0.25
S'larger'
p342
I2
tp343
as(S'smart'
p344
tp345
(lp346
(I8
I2
I0
S'older'
p347
I10
tp348
a(I8
I40
F-0.25
S'modern'
p349
I10
tp350
a(I8
I58
I0
S'more'
p351
I10
tp352
a(I8
I58
F0.375
S'reliable'
p353
I10
tp354
a(I11
I75
I0
S'old'
p355
I10
tp356
a(I11
I83
F1.0
S'best'
p357
I10
tp358
as(S'calls'
p359
tp360
(lp361
(I0
I41
I0
S'few'
p362
I0
tp363
a(I2
I12
F-0.75
S'tough'
p364
I0
tp365
as(S'sim'
p366
S'card'
p367
tp368
(lp369
(I8
I9
F0.625
S'polish'
p370
I0
tp371
as(S'problem'
p372
S'number'
p373
tp374
(lp375
(I11
I29
F0.125
S'last'
p376
I0
tp377
a(I11
I29
I0
S'more'
p378
I0
tp379
as(S'data'
p380
tp381
(lp382
(I21
I28
I0
S'mobile'
p383
I13
tp384
as(S'smartphone'
p385
tp386
(lp387
(I2
I45
F0.125
S'first'
p388
I0
tp389
a(I2
I45
F0.875
S'happy'
p390
I0
tp391
a(I4
I21
F1.0
S'good'
p392
I0
tp393
a(I8
I25
F0.125
S'first'
p394
I0
tp395
a(I11
I70
I0
S'android'
p396
I0
tp397
a(I11
I89
F0.125
S'first'
p398
I0
tp399
a(I16
I3
F0.375
S'interesting'
p400
I0
tp401
a(I16
I4
F-0.25
S'modern'
p402
I0
tp403
a(I22
I41
F0.75
S'beautiful'
p404
I0
tp405
as(g191
S'real'
p406
S'keyboard'
p407
tp408
(lp409
(I0
I5
I0
g274
I0
tp410
a(I0
I5
I0
g276
I0
tp411
a(I0
I8
I0
g278
I0
tp412
a(I0
I45
F0.875
g292
I0
tp413
a(I0
I47
I0
g294
I0
tp414
a(I2
I75
I0
g309
I0
tp415
as(g191
S'great'
p416
S'price'
p417
tp418
(lp419
(I5
I0
I0
S'great'
p420
I9
tp421
a(I5
I3
I0
S'great'
p422
I9
tp423
a(I7
I6
I0
S'great'
p424
I9
tp425
a(I15
I28
I0
S'great'
p426
I9
tp427
a(I17
I22
I0
S'great'
p428
I9
tp429
a(I17
I22
F-0.375
S'top'
p430
I9
tp431
a(I5
I0
I0
g420
I19
tp432
a(I5
I3
I0
g422
I19
tp433
a(I7
I6
I0
g424
I19
tp434
a(I15
I28
I0
g426
I19
tp435
a(I17
I22
I0
g428
I19
tp436
a(I17
I22
F-0.375
g430
I19
tp437
as(S'amazon'
p438
tp439
(lp440
(I4
I36
F0.25
S'unlocked'
p441
I13
tp442
as(S'touch'
p443
S'screen'
p444
tp445
(lp446
(I0
I83
F0.5
S'touch'
p447
I2
tp448
a(I2
I64
F0.5
S'touch'
p449
I2
tp450
a(I2
I64
F0.5
S'functional'
p451
I2
tp452
a(I4
I1
I0
S'great'
p453
I2
tp454
a(I4
I1
F0.875
S'nice'
p455
I2
tp456
a(I4
I1
F0.25
S'responsive'
p457
I2
tp458
a(I8
I49
F0.5
S'touch'
p459
I2
tp460
a(I11
I95
F0.5
S'touch'
p461
I2
tp462
a(I17
I8
F0.5
S'accurate'
p463
I2
tp464
a(I17
I53
F0.5
S'touch'
p465
I2
tp466
a(I17
I82
F0.5
S'touch'
p467
I2
tp468
a(I20
I9
F0.5
S'touch'
p469
I2
tp470
as(S'glide'
p471
tp472
(lp473
(I11
I85
I0
S'captive'
p474
I0
tp475
a(I11
I85
F0.625
S'easy'
p476
I0
tp477
a(I11
I85
F-0.25
S'thin'
p478
I0
tp479
a(I11
I85
I0
S'big'
p480
I0
tp481
as.