(dp0
(S'android'
p1
tp2
(lp3
(I4
I17
F0.5
S'advanced'
p4
I0
tp5
a(I7
I39
I0
S'efficient'
p6
I0
tp7
a(I13
I10
F0.25
S'unlocked'
p8
I0
tp9
a(I14
I19
F0.125
S'first'
p10
I0
tp11
a(I17
I3
F-0.375
S'small'
p12
I0
tp13
a(I33
I4
F0.375
S'new'
p14
I0
tp15
as(S'mobile'
p16
tp17
(lp18
(I0
I0
I0
S't'
p19
I0
tp20
a(I29
I0
F1.0
S'good'
p21
I0
tp22
as(S'battery'
p23
S'life'
p24
tp25
(lp26
(I11
I25
I0
S'android'
p27
I1
tp28
a(I17
I21
F1.0
S'good'
p29
I1
tp30
a(I17
I27
F1.0
S'good'
p31
I1
tp32
a(I21
I1
F-0.625
S'bad'
p33
I1
tp34
a(I23
I5
F-0.25
S'low'
p35
I1
tp36
a(I23
I5
F1.0
S'better'
p37
I1
tp38
a(I29
I17
F-0.75
S'short'
p39
I1
tp40
a(I32
I2
F-0.5
S'poor'
p41
I1
tp42
a(I32
I3
F-0.5
S'poor'
p43
I1
tp44
a(I11
I25
I0
g27
I19
tp45
a(I17
I27
F1.0
g31
I19
tp46
a(I23
I5
F1.0
g37
I19
tp47
a(I29
I17
F-0.75
g39
I19
tp48
a(I32
I2
F-0.5
g41
I19
tp49
a(I2
I5
I0
S'old'
p50
I15
tp51
a(I4
I30
F-0.75
S'short'
p52
I15
tp53
a(I4
I43
F0.625
S'easy'
p54
I15
tp55
a(I12
I1
F-0.625
S'bad'
p56
I15
tp57
a(I15
I3
F0.125
S'last'
p58
I15
tp59
a(I15
I4
I0
S'different'
p60
I15
tp61
a(I15
I4
F-0.5
S'longer'
p62
I15
tp63
a(I17
I21
F1.0
g29
I15
tp64
a(I21
I1
F-0.625
g33
I15
tp65
a(I23
I5
F-0.25
g35
I15
tp66
a(I29
I9
F-0.25
S'low'
p67
I15
tp68
a(I29
I13
F-0.5
S'less'
p69
I15
tp70
a(I32
I3
F-0.5
g43
I15
tp71
a(I35
I12
I0
S'quick'
p72
I15
tp73
a(I37
I18
F-0.375
S'pull'
p74
I15
tp75
as(S'keyboard'
p76
tp77
(lp78
(I3
I0
I0
S'full'
p79
I2
tp80
a(I7
I19
F0.5
S'flat'
p81
I2
tp82
a(I29
I28
F0.625
S'easier'
p83
I2
tp84
a(I37
I12
I0
S'great'
p85
I2
tp86
as(S'sim'
p87
S'card'
p88
tp89
(lp90
(I6
I12
I0
S'old'
p91
I0
tp92
a(I26
I2
F0.125
S'able'
p93
I0
tp94
as(S'memory'
p95
tp96
(lp97
(I4
I24
F-0.25
S'low'
p98
I5
tp99
a(I4
I24
I0
S'internal'
p100
I5
tp101
a(I4
I24
F0.75
S'due'
p102
I5
tp103
a(I4
I26
I0
S'more'
p104
I5
tp105
a(I4
I26
I0
S'internal'
p106
I5
tp107
a(I11
I16
F-0.75
S'little'
p108
I5
tp109
a(I13
I40
F0.25
S'main'
p110
I5
tp111
a(I29
I2
I0
S'external'
p112
I5
tp113
as(S'wifi'
p114
tp115
(lp116
(I17
I12
F-0.125
S'slow'
p117
I0
tp118
as(S'calls'
p119
tp120
(lp121
(I11
I24
F-0.25
S'dropped'
p122
I0
tp123
as(S'apps'
p124
tp125
(lp126
(I3
I12
F-0.5
S'certain'
p127
I0
tp128
a(I4
I27
I0
S'more'
p129
I0
tp130
a(I11
I2
I0
S'many'
p131
I0
tp132
a(I13
I31
F0.125
S'able'
p133
I0
tp134
a(I28
I3
F1.0
S'good'
p135
I0
tp136
a(I29
I19
I0
S'many'
p137
I0
tp138
a(I33
I6
F0.375
S'newer'
p139
I0
tp140
as(S'hold'
p141
S'a'
p142
S'charge'
p143
tp144
(lp145
(I10
I8
F0.125
S'first'
p146
I0
tp147
a(I13
I8
F-0.5
S'long'
p148
I0
tp149
a(I17
I20
F-0.5
S'long'
p150
I0
tp151
as(S'amazon'
p152
tp153
(lp154
(I15
I7
F1.0
S'good'
p155
I13
tp156
as(S'sd'
p157
S'card'
p158
tp159
(lp160
(I7
I47
I0
S'sd'
p161
I0
tp162
as(S'touch'
p163
S'screen'
p164
tp165
(lp166
(I6
I2
F0.5
S'touch'
p167
I2
tp168
a(I10
I0
I0
S'capacitive'
p169
I2
tp170
a(I13
I26
I0
S'fast'
p171
I2
tp172
a(I13
I26
F0.25
S'responsive'
p173
I2
tp174
a(I13
I26
F0.125
S'first'
p175
I2
tp176
a(I17
I2
I0
S'next'
p177
I2
tp178
a(I17
I2
F-0.5
S'touched'
p179
I2
tp180
a(I17
I16
F1.0
S'good'
p181
I2
tp182
a(I29
I28
I0
S'finger'
p183
I2
tp184
a(I29
I28
F0.375
S'friendly'
p185
I2
tp186
a(I29
I28
F0.5
S'touch'
p187
I2
tp188
a(I38
I7
I0
S'sensitive'
p189
I2
tp190
as(S'text'
p191
S'messages'
p192
tp193
(lp194
(I13
I31
I0
S'text'
p195
I0
tp196
a(I17
I2
F0.125
S'able'
p197
I0
tp198
a(I17
I2
F0.125
g197
I18
tp199
as.