(dp0
(S'usb'
p1
S'mass'
p2
S'storage'
p3
tp4
(lp5
(I146
I3
F0.5
S'drive'
p6
tp7
as(S'droid'
p8
tp9
(lp10
(I6
I0
F0.875
S'happier'
p11
tp12
a(I33
I5
F0.25
S'original'
p13
tp14
a(I48
I0
F0.25
S'original'
p15
tp16
a(I48
I15
F0.25
S'original'
p17
tp18
a(I59
I0
F0.375
S'new'
p19
tp20
a(I60
I2
F0.375
S'new'
p21
tp22
a(I77
I1
I0
S'fourth'
p23
tp24
a(I85
I4
F0.25
S'original'
p25
tp26
a(I93
I1
I0
S'incredible'
p27
tp28
a(I93
I1
I0
S'least'
p29
tp30
a(I103
I8
I0
S'old'
p31
tp32
a(I107
I1
F0.5
S'second'
p33
tp34
a(I123
I5
F0.375
S'new'
p35
tp36
a(I123
I15
F0.375
S'new'
p37
tp38
a(I124
I0
F0.375
S'new'
p39
tp40
a(I134
I6
I0
S'old'
p41
tp42
a(I138
I0
F0.375
S'newer'
p43
tp44
as(S'motorola'
p45
tp46
(lp47
(I11
I13
F0.125
S'last'
p48
tp49
a(I11
I18
F-0.5
S'sure'
p50
tp51
a(I11
I18
I0
S'internal'
p52
tp53
a(I11
I20
I0
S'wish'
p54
tp55
a(I48
I25
F0.125
S'last'
p56
tp57
a(I54
I14
I0
S'january'
p58
tp59
a(I66
I18
F1.0
S'better'
p60
tp61
a(I76
I3
F0.625
S'responsible'
p62
tp63
a(I76
I14
I0
S'android'
p64
tp65
a(I78
I18
I0
S'refined'
p66
tp67
a(I84
I0
F-0.25
S'past'
p68
tp69
a(I116
I0
F0.25
S'original'
p70
tp71
a(I124
I10
I0
S'american'
p72
tp73
a(I134
I20
F-0.125
S'bean'
p74
tp75
a(I143
I3
I0
S'few'
p76
tp77
a(I148
I11
I0
S'general'
p78
tp79
a(I158
I3
F-0.125
S'future'
p80
tp81
a(I158
I3
F-0.25
S'google'
p82
tp83
a(I164
I1
I0
S'old'
p84
tp85
as(S'call'
p86
S'quality'
p87
tp88
(lp89
(I41
I8
I0
S'phenomenal'
p90
tp91
a(I76
I12
F1.0
S'better'
p92
tp93
a(I101
I21
I0
S'same'
p94
tp95
a(I111
I2
I0
S'great'
p96
tp97
a(I121
I6
F0.5
S'clear'
p98
tp99
a(I134
I8
I0
S'great'
p100
tp101
as(S'droid'
p102
S'razr'
p103
S'maxx'
p104
tp105
(lp106
(I52
I0
F0.375
S'new'
p107
tp108
a(I60
I2
F0.375
g21
tp109
a(I85
I4
F0.25
g25
tp110
a(I98
I2
I0
S'wide'
p111
tp112
a(I98
I2
I0
S'earlier'
p113
tp114
a(I98
I2
F0.375
S'new'
p115
tp116
a(I123
I5
F0.375
g35
tp117
a(I124
I0
F0.375
g39
tp118
a(I134
I6
I0
g41
tp119
a(I172
I0
F0.375
S'new'
p120
tp121
as(S'operating'
p122
S'system'
p123
tp124
(lp125
(I0
I1
F-0.5
S'open'
p126
tp127
a(I0
I1
I0
S'many'
p128
tp129
a(I0
I9
I0
S'water'
p130
tp131
a(I14
I2
F1.0
S'best'
p132
tp133
a(I56
I1
F-0.125
S'bean'
p134
tp135
a(I100
I4
I0
S'android'
p136
tp137
a(I116
I4
F-0.125
S'bean'
p138
tp139
a(I132
I8
F-0.125
S'bean'
p140
tp141
a(I132
I8
I0
S'great'
p142
tp143
a(I153
I4
F0.375
S'new'
p144
tp145
as(S'week'
p146
tp147
(lp148
(I2
I15
F0.125
S'first'
p149
tp150
a(I3
I2
F-0.25
S'past'
p151
tp152
a(I32
I10
F0.125
S'first'
p153
tp154
a(I113
I0
F0.875
S'happier'
p155
tp156
a(I119
I0
F-0.5
S'less'
p157
tp158
a(I123
I47
I0
S'next'
p159
tp160
a(I153
I4
F0.125
S'first'
p161
tp162
as(S'quality'
p163
tp164
(lp165
(I3
I12
F1.0
S'best'
p166
tp167
a(I41
I8
I0
g90
tp168
a(I52
I26
F1.0
S'good'
p169
tp170
a(I52
I26
F-0.5
S'insane'
p171
tp172
a(I76
I12
F1.0
g92
tp173
a(I91
I0
I0
S'high'
p174
tp175
a(I101
I21
I0
g94
tp176
a(I111
I2
I0
g96
tp177
a(I121
I6
F0.5
g98
tp178
a(I148
I10
F1.0
S'good'
p179
tp180
a(I148
I26
F-0.25
S'higher'
p181
tp182
as(S'from'
p183
S'droid'
p184
S'x'
p185
tp186
(lp187
(I60
I2
F0.375
g21
tp188
as(S'apple'
p189
tp190
(lp191
(I2
I1
F0.375
S'newest'
p192
tp193
a(I76
I10
I0
S'android'
p194
tp195
a(I142
I0
I0
S'perspective'
p196
tp197
a(I142
I1
F-0.75
S'sick'
p198
tp199
as(S'verizon'
p200
tp201
(lp202
(I2
I17
I0
S'local'
p203
tp204
a(I47
I1
F0.5
S'eligible'
p205
tp206
a(I47
I1
I0
S'update'
p207
tp208
a(I76
I23
F0.375
S'much'
p209
tp210
a(I103
I2
I0
S'local'
p211
tp212
a(I123
I4
F0.375
S'new'
p213
tp214
a(I123
I24
F0.5
S'personal'
p215
tp216
a(I123
I29
F0.375
S'new'
p217
tp218
a(I134
I3
I0
S'fast'
p219
tp220
a(I134
I21
F0.875
S'happy'
p221
tp222
a(I134
I21
I0
S'dial'
p223
tp224
a(I138
I5
F-0.5
S'sure'
p225
tp226
a(I143
I2
I0
S'few'
p227
tp228
a(I143
I2
I0
S'many'
p229
tp230
a(I147
I1
I0
S'same'
p231
tp232
a(I155
I8
F-0.5
S'less'
p233
tp234
as(S'less'
p235
tp236
(lp237
(I8
I5
F0.375
S'much'
p238
tp239
as(S'sd'
p240
S'card'
p241
tp242
(lp243
(I62
I9
I0
S'spring-loaded'
p244
tp245
a(I76
I14
F-0.75
S'dead'
p246
tp247
a(I94
I9
F0.875
S'nice'
p248
tp249
a(I94
I9
F-0.125
S'con'
p250
tp251
a(I94
I9
F0.625
S'aware'
p252
tp253
a(I126
I3
I0
S'external'
p254
tp255
as(S'like'
p256
S'a'
p257
S'tank'
p258
tp259
(lp260
(I160
I1
I0
S'sturdy'
p261
tp262
a(I160
I1
F0.125
S'able'
p263
tp264
as(S'case'
p265
tp266
(lp267
(I11
I44
F0.5
S'expensive'
p268
tp269
a(I78
I15
F-0.5
S'sure'
p270
tp271
a(I78
I15
F-0.5
S'gimmick'
p272
tp273
a(I123
I47
F1.0
S'best'
p274
tp275
a(I148
I22
F-0.75
S'panic'
p276
tp277
as(S'with'
p278
S'heavy'
p279
S'usage'
p280
tp281
(lp282
(I0
I7
F-0.5
S'heavy'
p283
tp284
a(I41
I8
F-0.5
S'heavy'
p285
tp286
a(I54
I24
I0
S'full'
p287
tp288
a(I54
I24
F-0.5
S'regular'
p289
tp290
a(I54
I24
F-0.5
S'heavy'
p291
tp292
a(I132
I1
F-0.5
S'heavy'
p293
tp294
a(I149
I12
F-0.5
S'heavy'
p295
tp296
a(I149
I12
I0
S'such'
p297
tp298
as(S'razr'
p299
S'maxx'
p300
tp301
(lp302
(I52
I0
F0.375
g107
tp303
a(I98
I2
I0
g111
tp304
a(I98
I2
I0
g113
tp305
a(I98
I2
F0.375
g115
tp306
a(I146
I1
F0.375
S'new'
p307
tp308
a(I160
I12
F-0.5
S'regular'
p309
tp310
a(I160
I14
F-0.25
S'late'
p311
tp312
a(I160
I14
F-0.5
S'regular'
p313
tp314
a(I172
I0
F0.375
g120
tp315
a(I172
I5
I0
S'old'
p316
tp317
as(S'and'
p318
S'battery'
p319
S'life'
p320
tp321
(lp322
(I3
I18
F-0.375
S'double'
p323
tp324
a(I3
I18
I0
S'most'
p325
tp326
a(I4
I2
I0
S'great'
p327
tp328
a(I8
I13
I0
S'update'
p329
tp330
a(I12
I2
I0
S'faster'
p331
tp332
a(I19
I0
I0
S'incredible'
p333
tp334
a(I34
I2
I0
S'unbelievable'
p335
tp336
a(I41
I8
I0
S'crystal'
p337
tp338
a(I43
I2
F1.0
S'better'
p339
tp340
a(I48
I6
F0.125
S'enough'
p341
tp342
a(I50
I12
F-0.5
S'long'
p343
tp344
a(I72
I1
F-0.625
S'other'
p345
tp346
a(I76
I1
F-0.25
S'grate'
p347
tp348
a(I84
I0
F1.0
S'good'
p349
tp350
a(I86
I2
F0.625
S'acceptable'
p351
tp352
a(I86
I2
F0.25
S'stellar'
p353
tp354
a(I99
I0
I0
S'great'
p355
tp356
a(I100
I5
F-0.75
S'dry'
p357
tp358
a(I104
I0
F-0.5
S'longest'
p359
tp360
a(I104
I0
I0
S'very'
p361
tp362
a(I118
I13
F-0.375
S'top'
p363
tp364
a(I118
I17
F0.5
S'crucial'
p365
tp366
a(I118
I17
F0.375
S'much'
p367
tp368
a(I127
I2
F-0.25
S'battery'
p369
tp370
a(I132
I12
I0
S'phenomenal'
p371
tp372
a(I153
I5
F0.375
S'extended'
p373
tp374
a(I153
I5
I0
S'android'
p375
tp376
a(I155
I2
F-0.75
S'sufficient'
p377
tp378
a(I172
I2
F-0.25
S'battery'
p379
tp380
a(I172
I2
F-0.25
S'battery'
p381
tp382
a(I172
I3
F-0.75
S'little'
p383
tp384
a(I172
I3
I0
S'more'
p385
tp386
as(S'software'
p387
tp388
(lp389
(I54
I12
F-0.125
S'bean'
p390
tp391
a(I72
I8
F-0.625
S'unclear'
p392
tp393
a(I125
I1
I0
S'net'
p394
tp395
a(I146
I3
F-0.5
S'unavailable'
p396
tp397
a(I147
I3
I0
S'android'
p398
tp399
a(I163
I6
F0.375
S'new'
p400
tp401
as(S'n'
p402
S'r'
p403
S'hand'
p404
tp405
(lp406
(I3
I8
F0.75
S'due'
p407
tp408
a(I9
I8
I0
S'more'
p409
tp410
a(I9
I8
F0.125
S'solid'
p411
tp412
a(I9
I8
F1.0
S'better'
p413
tp414
a(I71
I17
F-0.625
S'steady'
p415
tp416
a(I87
I3
I0
S'great'
p417
tp418
a(I87
I3
F-0.5
S'heavy'
p419
tp420
a(I98
I1
I0
S'great'
p421
tp422
a(I124
I10
F0.125
S'first'
p423
tp424
a(I124
I10
I0
S'american'
p425
tp426
a(I134
I18
F-0.625
S'other'
p427
tp428
a(I134
I18
F0.125
S'able'
p429
tp430
as(S'charge'
p431
tp432
(lp433
(I3
I2
I0
S'next'
p434
tp435
a(I111
I0
F0.125
S'first'
p436
tp437
a(I121
I8
I0
S'full'
p438
tp439
a(I121
I24
F0.125
S'last'
p440
tp441
a(I122
I3
F-0.75
S'single'
p442
tp443
a(I122
I5
F-0.75
S'single'
p444
tp445
a(I122
I12
F-0.75
S'single'
p446
tp447
as(S'smart'
p448
S'actions'
p449
tp450
(lp451
(I66
I14
F0.125
S'able'
p452
tp453
a(I107
I19
I0
S'cool'
p454
tp455
a(I143
I3
I0
S'complement'
p456
tp457
as(S'card'
p458
tp459
(lp460
(I26
I0
F-0.75
S'dead'
p461
tp462
a(I62
I9
I0
g244
tp463
a(I94
I9
F0.875
g248
tp464
a(I94
I9
F-0.125
g250
tp465
a(I94
I9
F0.625
g252
tp466
as(S'about'
p467
S'battery'
p468
S'life'
p469
tp470
(lp471
(I48
I6
F0.125
g341
tp472
a(I70
I1
I0
S'bionic'
p473
tp474
a(I118
I17
F0.5
g365
tp475
a(I118
I17
F0.375
g367
tp476
a(I132
I2
F0.125
S'enough'
p477
tp478
a(I172
I2
F-0.25
g379
tp479
a(I172
I2
F-0.25
g381
tp480
as(S'fast'
p481
tp482
(lp483
(I12
I0
F0.125
S'solid'
p484
tp485
a(I69
I0
F-0.125
S'super'
p486
tp487
as(S'problem'
p488
tp489
(lp490
(I43
I5
I0
S'android'
p491
tp492
a(I46
I12
I0
S'only'
p493
tp494
a(I76
I3
F-0.625
S'unclear'
p495
tp496
a(I76
I14
I0
S'same'
p497
tp498
a(I142
I24
F0.5
S'known'
p499
tp500
a(I147
I5
I0
S'big'
p501
tp502
as(S'android'
p503
tp504
(lp505
(I0
I5
F0.125
S'typical'
p506
tp507
a(I3
I8
F0.125
S'popular'
p508
tp509
a(I77
I27
I0
S'many'
p510
tp511
a(I77
I27
F1.0
S'good'
p512
tp513
a(I110
I0
F0.25
S'polished'
p514
tp515
a(I143
I2
F0.5
S'stylish'
p516
tp517
as(S'happy'
p518
tp519
(lp520
(I3
I1
F-0.125
S'overall'
p521
tp522
a(I135
I0
F-0.125
S'super'
p523
tp524
as(S'need'
p525
tp526
(lp527
(I142
I22
F-0.25
S'google'
p528
tp529
as(S'going'
p530
tp531
(lp532
(I172
I5
I0
S'more'
p533
tp534
as(S'gorilla'
p535
S'glass'
p536
tp537
(lp538
(I148
I20
F0.875
S'nice'
p539
tp540
as(S'with'
p541
S'razr'
p542
S'maxx'
p543
tp544
(lp545
(I160
I12
F-0.5
g309
tp546
a(I160
I14
F-0.25
g311
tp547
a(I160
I14
F-0.5
g313
tp548
a(I172
I0
F0.375
g120
tp549
a(I172
I5
I0
g316
tp550
as(S'droid'
p551
g185
tp552
(lp553
(I6
I0
F0.875
g11
tp554
a(I37
I3
I0
S'same'
p555
tp556
a(I59
I0
F0.375
g19
tp557
a(I60
I2
F0.375
g21
tp558
a(I82
I4
F0.875
S'important'
p559
tp560
a(I85
I4
F0.25
g25
tp561
a(I103
I8
I0
g31
tp562
a(I123
I5
F0.375
g35
tp563
a(I124
I0
F0.375
g39
tp564
a(I134
I6
I0
g41
tp565
a(I138
I0
F0.375
g43
tp566
a(I174
I1
F1.0
S'good'
p567
tp568
a(I174
I1
I0
S'slower'
p569
tp570
as(S'google'
p571
tp572
(lp573
(I122
I5
I0
S'particular'
p574
tp575
a(I142
I21
F0.375
S'enable'
p576
tp577
a(I154
I1
F-0.125
S'slow'
p578
tp579
a(I154
I1
F-0.75
S'stupid'
p580
tp581
as(S'things'
p582
tp583
(lp584
(I2
I4
I0
S'many'
p585
tp586
a(I2
I18
F0.125
S'electrical'
p587
tp588
a(I9
I18
I0
S'great'
p589
tp590
a(I11
I3
F0.125
S'first'
p591
tp592
a(I11
I11
F-0.875
S'hardest'
p593
tp594
a(I56
I0
I0
S'weird'
p595
tp596
a(I78
I35
F-0.625
S'other'
p597
tp598
a(I92
I0
F1.0
S'good'
p599
tp600
a(I105
I1
F0.625
S'positive'
p601
tp602
a(I122
I3
F0.5
S'distinguish'
p603
tp604
a(I148
I10
I0
S'most'
p605
tp606
a(I168
I0
F0.125
S'first'
p607
tp608
as(S'features'
p609
tp610
(lp611
(I0
I1
I0
S'more'
p612
tp613
a(I37
I0
F0.875
S'happy'
p614
tp615
a(I41
I11
I0
S'great'
p616
tp617
a(I56
I0
I0
S'great'
p618
tp619
a(I96
I1
I0
S'great'
p620
tp621
a(I96
I1
F0.25
S'biggest'
p622
tp623
a(I96
I29
I0
S'great'
p624
tp625
a(I96
I29
I0
S'such'
p626
tp627
a(I96
I32
I0
S'own'
p628
tp629
a(I118
I27
F1.0
S'good'
p630
tp631
a(I125
I2
I0
S'more'
p632
tp633
a(I141
I5
F-0.625
S'other'
p634
tp635
a(I146
I22
F-0.25
S'google'
p636
tp637
a(I146
I22
I0
S'many'
p638
tp639
a(I163
I4
F1.0
S'good'
p640
tp641
a(I163
I4
I0
S'more'
p642
tp643
as(S'power'
p644
tp645
(lp646
(I52
I8
F0.5
S'functional'
p647
tp648
a(I54
I23
I0
S'different'
p649
tp650
a(I77
I20
F-0.5
S'less'
p651
tp652
as(g257
S'long'
p653
S'time'
p654
tp655
(lp656
(I94
I0
F-0.5
S'long'
p657
tp658
a(I128
I1
F-0.5
S'long'
p659
tp660
a(I164
I1
F-0.5
S'long'
p661
tp662
a(I172
I3
I0
S'more'
p663
tp664
as(S'years'
p665
tp666
(lp667
(I2
I0
F0.125
S'last'
p668
tp669
a(I13
I4
I0
S'least'
p670
tp671
a(I18
I6
F-0.875
S'stuck'
p672
tp673
a(I32
I4
F0.125
S'last'
p674
tp675
a(I86
I6
F0.625
S'aware'
p676
tp677
a(I93
I2
I0
S'old'
p678
tp679
a(I97
I5
I0
S'old'
p680
tp681
a(I101
I0
I0
S'old'
p682
tp683
a(I108
I0
F-0.25
S'past'
p684
tp685
a(I118
I1
F-0.25
S'past'
p686
tp687
a(I121
I0
I0
S'few'
p688
tp689
a(I155
I6
I0
S'next'
p690
tp691
a(I155
I7
I0
S'next'
p692
tp693
a(I158
I0
I0
S'sprint'
p694
tp695
a(I172
I5
I0
S'more'
p696
tp697
as(S'thing'
p698
tp699
(lp700
(I4
I2
F1.0
S'good'
p701
tp702
a(I4
I6
I0
S'only'
p703
tp704
a(I15
I7
I0
S'same'
p705
tp706
a(I30
I2
F-0.875
S'awful'
p707
tp708
a(I41
I9
I0
S'unbelievable'
p709
tp710
a(I41
I9
I0
S'fast'
p711
tp712
a(I43
I6
F0.625
S'easier'
p713
tp714
a(I43
I6
I0
S'only'
p715
tp716
a(I54
I4
I0
S'only'
p717
tp718
a(I61
I2
I0
S'same'
p719
tp720
a(I79
I7
F1.0
S'good'
p721
tp722
a(I88
I4
I0
S'only'
p723
tp724
a(I110
I7
F1.0
S'good'
p725
tp726
a(I121
I21
F0.75
S'beautiful'
p727
tp728
a(I123
I21
I0
S'same'
p729
tp730
a(I135
I1
I0
S'such'
p731
tp732
a(I142
I21
I0
S'only'
p733
tp734
as(S'better'
p735
S'battery'
p736
S'life'
p737
tp738
(lp739
(I12
I2
I0
g331
tp740
a(I43
I2
F1.0
g339
tp741
a(I76
I15
F1.0
S'good'
p742
tp743
a(I147
I2
F0.375
S'much'
p744
tp745
as(S'data'
p746
tp747
(lp748
(I89
I4
I0
S'mobile'
p749
tp750
a(I89
I5
I0
S'mobile'
p751
tp752
a(I108
I13
I0
S'mobile'
p753
tp754
a(I124
I2
I0
S'mobile'
p755
tp756
a(I124
I3
I0
S'considerable'
p757
tp758
as(S'micro'
p759
S'sd'
p760
S'card'
p761
tp762
(lp763
(I62
I9
I0
g244
tp764
a(I76
I14
F0.5
S'second'
p765
tp766
a(I76
I14
F-0.75
g246
tp767
a(I94
I9
F0.875
g248
tp768
a(I94
I9
F-0.125
g250
tp769
a(I94
I9
F0.625
g252
tp770
as(S'size'
p771
tp772
(lp773
(I2
I14
F1.0
S'good'
p774
tp775
a(I9
I1
I0
S'same'
p776
tp777
a(I43
I1
F-0.625
S'average'
p778
tp779
a(I44
I2
F0.625
S'perfect'
p780
tp781
a(I48
I8
F0.875
S'happy'
p782
tp783
a(I54
I23
F-0.625
S'average'
p784
tp785
a(I72
I3
F0.125
S'last'
p786
tp787
a(I77
I6
F1.0
S'good'
p788
tp789
a(I110
I2
I0
S'normal'
p790
tp791
a(I132
I5
F0.5
S'strong'
p792
tp793
a(I148
I7
F-0.5
S'less'
p794
tp795
a(I156
I2
F0.625
S'perfect'
p796
tp797
as(S'hours'
p798
tp799
(lp800
(I25
I9
I0
S'least'
p801
tp802
a(I66
I13
I0
S'more'
p803
tp804
a(I68
I4
I0
S'few'
p805
tp806
a(I125
I2
F0.625
S'straight'
p807
tp808
a(I161
I5
I0
S'more'
p809
tp810
a(I161
I5
F-0.5
S'less'
p811
tp812
a(I161
I5
F1.0
S'good'
p813
tp814
a(I163
I1
F0.125
S'charger'
p815
tp816
a(I172
I4
I0
S'more'
p817
tp818
a(I172
I4
I0
S'few'
p819
tp820
as(S'work'
p821
tp822
(lp823
(I102
I1
F1.0
S'good'
p824
tp825
a(I123
I33
I0
S'normal'
p826
tp827
a(I148
I13
F-0.5
S'vibrate'
p828
tp829
as(S'seems'
p830
tp831
(lp832
(I46
I14
F1.0
S'good'
p833
tp834
as(S'battery'
p835
S'life'
p836
tp837
(lp838
(I3
I18
F-0.375
g323
tp839
a(I3
I18
I0
g325
tp840
a(I4
I2
I0
g327
tp841
a(I8
I0
F-0.5
S'long'
p842
tp843
a(I8
I13
I0
g329
tp844
a(I12
I2
I0
g331
tp845
a(I19
I0
I0
g333
tp846
a(I20
I1
F-0.125
S'minimum'
p847
tp848
a(I22
I9
I0
S'great'
p849
tp850
a(I34
I2
I0
g335
tp851
a(I38
I5
I0
S'great'
p852
tp853
a(I41
I8
I0
g337
tp854
a(I42
I0
F0.25
S'larger'
p855
tp856
a(I42
I1
F-0.5
S'poor'
p857
tp858
a(I43
I2
F1.0
g339
tp859
a(I48
I6
F0.125
g341
tp860
a(I50
I12
F-0.5
g343
tp861
a(I67
I1
F-0.5
S'poor'
p862
tp863
a(I70
I1
I0
g473
tp864
a(I72
I1
F-0.625
g345
tp865
a(I74
I2
I0
S'great'
p866
tp867
a(I76
I1
F-0.25
g347
tp868
a(I76
I15
F1.0
g742
tp869
a(I84
I0
F1.0
g349
tp870
a(I85
I1
I0
S'unbelievable'
p871
tp872
a(I86
I2
F0.625
g351
tp873
a(I86
I2
F0.25
g353
tp874
a(I99
I0
I0
g355
tp875
a(I100
I5
F-0.75
g357
tp876
a(I104
I0
F-0.5
g359
tp877
a(I104
I0
I0
g361
tp878
a(I110
I30
F1.0
S'good'
p879
tp880
a(I118
I13
F-0.375
g363
tp881
a(I118
I17
F0.5
g365
tp882
a(I118
I17
F0.375
g367
tp883
a(I127
I2
F-0.25
g369
tp884
a(I129
I1
F-0.5
S'long'
p885
tp886
a(I132
I2
F0.125
g477
tp887
a(I132
I12
I0
g371
tp888
a(I143
I0
F0.625
S'extraordinary'
p889
tp890
a(I149
I11
F0.125
S'spectacular'
p891
tp892
a(I153
I5
F0.375
g373
tp893
a(I153
I5
I0
g375
tp894
a(I155
I2
F-0.75
g377
tp895
a(I160
I12
F-0.5
S'longer'
p896
tp897
a(I167
I1
I0
S'fast'
p898
tp899
a(I167
I1
F-0.5
S'longer'
p900
tp901
a(I172
I2
F-0.25
g379
tp902
a(I172
I2
F-0.25
g381
tp903
a(I172
I3
F-0.75
g383
tp904
a(I172
I3
I0
g385
tp905
as(S'maxx'
p906
tp907
(lp908
(I3
I16
F0.875
S'happy'
p909
tp910
a(I54
I4
I0
S'fast'
p911
tp912
a(I98
I2
I0
g111
tp913
a(I98
I2
I0
g113
tp914
a(I98
I2
F0.375
g115
tp915
a(I138
I5
F-0.75
S'wrong'
p916
tp917
a(I172
I0
F0.375
g120
tp918
as(S'maxx'
p919
S'hd'
p920
tp921
(lp922
(I3
I3
I0
S'quick'
p923
tp924
a(I3
I3
F0.25
S'responsive'
p925
tp926
a(I3
I16
F0.875
g909
tp927
a(I34
I9
I0
S'more'
p928
tp929
a(I54
I4
I0
g911
tp930
a(I85
I4
F-0.625
S'glad'
p931
tp932
a(I88
I1
F0.875
S'music'
p933
tp934
a(I90
I6
F0.625
S'add'
p935
tp936
a(I96
I2
I0
S'large'
p937
tp938
a(I96
I12
I0
S'android'
p939
tp940
a(I96
I14
F-0.5
S'power'
p941
tp942
a(I96
I14
F-0.625
S'average'
p943
tp944
a(I96
I21
I0
S'great'
p945
tp946
a(I96
I28
F0.125
S'last'
p947
tp948
a(I98
I2
I0
g111
tp949
a(I98
I2
I0
g113
tp950
a(I98
I2
F0.375
g115
tp951
a(I98
I2
F1.0
S'good'
p952
tp953
a(I116
I3
I0
S'more'
p954
tp955
a(I123
I5
F-0.25
S'cheaper'
p956
tp957
a(I155
I4
F-0.625
S'other'
p958
tp959
a(I172
I0
F0.375
g120
tp960
as(S'best'
p961
tp962
(lp963
(I103
I7
I0
S'next'
p964
tp965
as(S'motorola'
p966
S'droid'
p967
S'razr'
p968
tp969
(lp970
(I60
I2
F0.375
g21
tp971
a(I76
I14
I0
g64
tp972
as(S'back'
p973
tp974
(lp975
(I9
I8
I0
S'great'
p976
tp977
a(I31
I2
F0.625
S'sexy'
p978
tp979
a(I62
I8
I0
S'plastic'
p980
tp981
a(I62
I8
F-0.75
S'impossible'
p982
tp983
a(I77
I8
F-0.625
S'lighter'
p984
tp985
a(I77
I8
I0
S'forth'
p986
tp987
a(I146
I12
I0
S'file'
p988
tp989
a(I146
I12
I0
S'forth'
p990
tp991
as(S'life'
p992
tp993
(lp994
(I3
I18
I0
g325
tp995
a(I4
I2
I0
g327
tp996
a(I8
I13
I0
g329
tp997
a(I20
I1
F-0.125
g847
tp998
a(I22
I9
I0
g849
tp999
a(I38
I5
I0
g852
tp1000
a(I41
I8
I0
g337
tp1001
a(I48
I6
F0.125
g341
tp1002
a(I67
I1
F-0.5
g862
tp1003
a(I74
I2
I0
g866
tp1004
a(I85
I1
I0
g871
tp1005
a(I86
I2
F0.625
g351
tp1006
a(I86
I2
F0.25
g353
tp1007
a(I101
I9
I0
S'more'
p1008
tp1009
a(I104
I0
I0
g361
tp1010
a(I110
I30
F1.0
g879
tp1011
a(I118
I13
F-0.375
g363
tp1012
a(I118
I17
F0.5
g365
tp1013
a(I118
I17
F0.375
g367
tp1014
a(I127
I2
F-0.25
g369
tp1015
a(I149
I11
F0.125
g891
tp1016
a(I153
I5
I0
g375
tp1017
a(I155
I2
F-0.75
g377
tp1018
a(I172
I2
F-0.25
g379
tp1019
a(I172
I2
F-0.25
g381
tp1020
a(I172
I3
F-0.75
g383
tp1021
a(I172
I3
I0
g385
tp1022
as(S'droid'
p1023
S'razr'
p1024
tp1025
(lp1026
(I33
I5
F0.25
g13
tp1027
a(I52
I0
F0.375
g107
tp1028
a(I60
I2
F0.375
g21
tp1029
a(I85
I4
F0.25
g25
tp1030
a(I123
I5
F0.375
g35
tp1031
a(I124
I0
F0.375
g39
tp1032
a(I134
I6
I0
g41
tp1033
as(S'user'
p1034
tp1035
(lp1036
(I52
I12
F-0.5
S'less'
p1037
tp1038
a(I66
I18
I0
S'more'
p1039
tp1040
a(I76
I12
F-0.625
S'bad'
p1041
tp1042
a(I78
I26
F-0.5
S'heavy'
p1043
tp1044
a(I94
I2
F-0.625
S'light'
p1045
tp1046
a(I97
I2
F-0.5
S'heavy'
p1047
tp1048
a(I100
I0
I0
S'android'
p1049
tp1050
a(I100
I0
F0.25
S'related'
p1051
tp1052
a(I104
I3
F-0.5
S'heavy'
p1053
tp1054
a(I110
I27
I0
S'incredible'
p1055
tp1056
a(I150
I0
F-0.625
S'average'
p1057
tp1058
as(S'feel'
p1059
tp1060
(lp1061
(I2
I23
F0.375
S'indestructible'
p1062
tp1063
a(I2
I23
F0.125
S'solid'
p1064
tp1065
a(I41
I14
F-0.625
S'free'
p1066
tp1067
a(I44
I1
F0.5
S'strong'
p1068
tp1069
a(I45
I4
F-0.125
S'overall'
p1070
tp1071
a(I51
I3
F1.0
S'good'
p1072
tp1073
a(I101
I5
F0.125
S'solid'
p1074
tp1075
a(I113
I13
F1.0
S'good'
p1076
tp1077
a(I118
I3
F0.125
S'solid'
p1078
tp1079
a(I124
I3
F1.0
S'good'
p1080
tp1081
a(I145
I0
F0.375
S'reliable'
p1082
tp1083
as(S'smart'
p1084
tp1085
(lp1086
(I34
I0
F0.125
S'first'
p1087
tp1088
a(I61
I0
F0.125
S'first'
p1089
tp1090
a(I88
I4
F-0.625
S'other'
p1091
tp1092
a(I132
I12
F0.625
S'interested'
p1093
tp1094
as(S'looking'
p1095
tp1096
(lp1097
(I35
I0
F1.0
S'good'
p1098
tp1099
a(I54
I3
F0.875
S'nice'
p1100
tp1101
a(I105
I1
F1.0
S'good'
p1102
tp1103
a(I145
I8
F0.25
S'sharp'
p1104
tp1105
as(S'update'
p1106
tp1107
(lp1108
(I22
I10
I0
S'android'
p1109
tp1110
a(I30
I6
I0
S'latest'
p1111
tp1112
a(I44
I1
F1.0
S'good'
p1113
tp1114
a(I51
I2
I0
S'big'
p1115
tp1116
a(I96
I29
F-0.125
S'bean'
p1117
tp1118
a(I113
I13
F-0.125
S'bean'
p1119
tp1120
a(I121
I9
F-0.125
S'bean'
p1121
tp1122
a(I149
I16
F-0.125
S'bean'
p1123
tp1124
as(S'battery'
p1125
S'life'
p1126
S'great'
p1127
tp1128
(lp1129
(I4
I2
I0
g327
tp1130
a(I19
I0
I0
g333
tp1131
a(I22
I9
I0
g849
tp1132
a(I38
I5
I0
g852
tp1133
a(I74
I2
I0
g866
tp1134
a(I99
I0
I0
g355
tp1135
a(I118
I17
F0.5
g365
tp1136
a(I118
I17
F0.375
g367
tp1137
a(I132
I12
I0
g371
tp1138
as(S'time'
p1139
tp1140
(lp1141
(I11
I7
F0.125
S'first'
p1142
tp1143
a(I15
I15
I0
S'more'
p1144
tp1145
a(I18
I3
I0
S'next'
p1146
tp1147
a(I38
I4
I0
S'same'
p1148
tp1149
a(I46
I6
F-0.75
S'short'
p1150
tp1151
a(I48
I2
I0
S'same'
p1152
tp1153
a(I49
I1
F-0.75
S'short'
p1154
tp1155
a(I68
I5
F-0.625
S'other'
p1156
tp1157
a(I76
I12
F-0.625
S'free'
p1158
tp1159
a(I89
I7
F0.125
S'first'
p1160
tp1161
a(I94
I0
F-0.5
g657
tp1162
a(I102
I4
F1.0
S'best'
p1163
tp1164
a(I111
I1
F0.125
S'first'
p1165
tp1166
a(I111
I1
I0
S'more'
p1167
tp1168
a(I121
I9
F0.125
S'first'
p1169
tp1170
a(I128
I1
F-0.5
g659
tp1171
a(I139
I1
F0.5
S'second'
p1172
tp1173
a(I148
I16
F0.75
S'give'
p1174
tp1175
a(I160
I15
F0.125
S'first'
p1176
tp1177
a(I160
I16
F0.5
S'second'
p1178
tp1179
a(I160
I22
F0.5
S'second'
p1180
tp1181
a(I164
I1
F-0.5
g661
tp1182
a(I166
I13
I0
S'same'
p1183
tp1184
a(I166
I13
F0.125
S'able'
p1185
tp1186
a(I172
I3
I0
g663
tp1187
as(S'on'
p1188
S'razr'
p1189
S'maxx'
p1190
tp1191
(lp1192
(I52
I0
F0.375
g107
tp1193
a(I98
I2
I0
g111
tp1194
a(I98
I2
I0
g113
tp1195
a(I98
I2
F0.375
g115
tp1196
a(I160
I12
F-0.5
g309
tp1197
a(I160
I14
F-0.25
g311
tp1198
a(I160
I14
F-0.5
g313
tp1199
a(I172
I5
I0
g316
tp1200
as(S'verizon'
p1201
S'store'
p1202
tp1203
(lp1204
(I2
I17
I0
g203
tp1205
a(I103
I2
I0
g211
tp1206
as(S'razr'
p1207
tp1208
(lp1209
(I52
I0
F0.375
g107
tp1210
a(I78
I9
F1.0
S'good'
p1211
tp1212
a(I78
I31
F0.5
S'clear'
p1213
tp1214
a(I93
I5
F-0.875
S'unhappy'
p1215
tp1216
a(I121
I8
F-0.75
S'minor'
p1217
tp1218
a(I121
I11
F0.375
S'steeper'
p1219
tp1220
a(I146
I1
F0.375
g307
tp1221
a(I160
I12
F-0.5
g309
tp1222
a(I160
I14
F-0.25
g311
tp1223
a(I160
I14
F-0.5
g313
tp1224
a(I172
I5
I0
g316
tp1225
as(S'4g'
p1226
S'lte'
p1227
tp1228
(lp1229
(I3
I9
I0
S'signal'
p1230
tp1231
a(I3
I10
F0.5
S'strong'
p1232
tp1233
a(I3
I10
I0
S'signal'
p1234
tp1235
a(I8
I11
F0.5
S'true'
p1236
tp1237
as(S'razr'
p1238
S'maxx'
p1239
S'hd'
p1240
tp1241
(lp1242
(I52
I0
F0.375
g107
tp1243
a(I85
I4
F-0.625
g931
tp1244
a(I90
I6
F0.625
g935
tp1245
a(I96
I2
I0
g937
tp1246
a(I98
I2
I0
g111
tp1247
a(I98
I2
I0
g113
tp1248
a(I98
I2
F0.375
g115
tp1249
a(I98
I2
F1.0
g952
tp1250
a(I116
I3
I0
g954
tp1251
a(I123
I5
F-0.25
g956
tp1252
a(I146
I1
F0.375
g307
tp1253
a(I172
I0
F0.375
g120
tp1254
a(I172
I5
I0
g316
tp1255
as(S'looks'
p1256
tp1257
(lp1258
(I68
I1
F0.375
S'new'
p1259
tp1260
a(I89
I9
I0
S'faster'
p1261
tp1262
a(I113
I1
F0.125
S'first'
p1263
tp1264
a(I115
I5
F1.0
S'good'
p1265
tp1266
as(S'motorola'
p1267
S'droid'
p1268
tp1269
(lp1270
(I60
I2
F0.375
g21
tp1271
a(I76
I3
F0.625
g62
tp1272
a(I76
I14
I0
g64
tp1273
a(I84
I0
F-0.25
g68
tp1274
a(I116
I0
F0.25
g70
tp1275
a(I138
I0
F0.375
g43
tp1276
a(I148
I11
I0
g78
tp1277
as(S'new'
p1278
S'droid'
p1279
S'razr'
p1280
tp1281
(lp1282
(I52
I0
F0.375
g107
tp1283
a(I60
I2
F0.375
g21
tp1284
a(I123
I5
F0.375
g35
tp1285
a(I124
I0
F0.375
g39
tp1286
as(S'screen'
p1287
tp1288
(lp1289
(I1
I3
I0
S'great'
p1290
tp1291
a(I2
I3
I0
S'android'
p1292
tp1293
a(I2
I3
I0
S'large'
p1294
tp1295
a(I2
I4
F-0.75
S'bright'
p1296
tp1297
a(I6
I1
F-0.75
S'bright'
p1298
tp1299
a(I6
I1
F0.5
S'clear'
p1300
tp1301
a(I8
I0
F0.25
S'bigger'
p1302
tp1303
a(I9
I18
I0
S'fastest'
p1304
tp1305
a(I9
I18
F-0.25
S'thinnest'
p1306
tp1307
a(I9
I18
F1.0
S'best'
p1308
tp1309
a(I17
I15
I0
S'great'
p1310
tp1311
a(I28
I2
F0.25
S'bigger'
p1312
tp1313
a(I32
I1
F0.875
S'nice'
p1314
tp1315
a(I36
I1
I0
S'armrest'
p1316
tp1317
a(I36
I1
I0
S'couch'
p1318
tp1319
a(I38
I2
F0.75
S'beautiful'
p1320
tp1321
a(I39
I2
I0
S'great'
p1322
tp1323
a(I41
I8
F0.75
S'beautiful'
p1324
tp1325
a(I41
I11
F0.75
S'beautiful'
p1326
tp1327
a(I45
I9
F0.125
S'impressive'
p1328
tp1329
a(I47
I6
F-0.625
S'free'
p1330
tp1331
a(I48
I8
F0.875
S'nice'
p1332
tp1333
a(I48
I8
I0
S'great'
p1334
tp1335
a(I48
I10
F0.125
S'first'
p1336
tp1337
a(I51
I3
I0
S'great'
p1338
tp1339
a(I52
I18
F-0.25
S'higher'
p1340
tp1341
a(I62
I1
F-0.75
S'bright'
p1342
tp1343
a(I71
I9
F-0.75
S'bright'
p1344
tp1345
a(I72
I4
I0
S'great'
p1346
tp1347
a(I76
I1
F1.0
S'good'
p1348
tp1349
a(I86
I5
F0.125
S'outside'
p1350
tp1351
a(I91
I0
I0
S'large'
p1352
tp1353
a(I94
I5
F0.875
S'nice'
p1354
tp1355
a(I98
I2
F0.25
S'larger'
p1356
tp1357
a(I101
I15
F0.25
S'larger'
p1358
tp1359
a(I104
I3
F0.25
S'bigger'
p1360
tp1361
a(I104
I3
I0
S'great'
p1362
tp1363
a(I107
I1
F0.125
S'first'
p1364
tp1365
a(I107
I5
F0.5
S'second'
p1366
tp1367
a(I107
I13
F0.625
S'easy'
p1368
tp1369
a(I107
I13
I0
S'big'
p1370
tp1371
a(I107
I13
F0.5
S'clear'
p1372
tp1373
a(I110
I9
I0
S'fast'
p1374
tp1375
a(I113
I2
F-0.75
S'bright'
p1376
tp1377
a(I113
I2
F0.25
S'sharp'
p1378
tp1379
a(I133
I2
F0.25
S'bigger'
p1380
tp1381
a(I133
I2
I0
S'great'
p1382
tp1383
a(I134
I14
F0.125
S'first'
p1384
tp1385
a(I142
I24
F0.125
S'purple'
p1386
tp1387
a(I143
I5
F-0.375
S'smaller'
p1388
tp1389
a(I145
I0
F0.875
S'nice'
p1390
tp1391
a(I148
I7
I0
S'large'
p1392
tp1393
a(I148
I27
I0
S'same'
p1394
tp1395
a(I149
I7
F0.875
S'nice'
p1396
tp1397
a(I151
I3
I0
S'big'
p1398
tp1399
a(I151
I3
F0.25
S'sweet'
p1400
tp1401
a(I153
I1
F0.375
S'new'
p1402
tp1403
a(I156
I4
I0
S'great'
p1404
tp1405
a(I158
I3
F0.875
S'nice'
p1406
tp1407
a(I160
I8
F0.25
S'sharp'
p1408
tp1409
a(I160
I8
F0.25
S'responsive'
p1410
tp1411
a(I166
I9
F0.375
S'new'
p1412
tp1413
as(S'everything'
p1414
tp1415
(lp1416
(I76
I15
F1.0
S'good'
p1417
tp1418
a(I95
I1
I0
S'great'
p1419
tp1420
a(I107
I23
F0.5
S'second'
p1421
tp1422
a(I120
I3
F0.875
S'nice'
p1423
tp1424
a(I155
I7
F-0.75
S'short'
p1425
tp1426
as(S'samsung'
p1427
tp1428
(lp1429
(I16
I0
I0
S'old'
p1430
tp1431
a(I19
I0
I0
S'slippery'
p1432
tp1433
a(I19
I0
I0
S'plastic'
p1434
tp1435
a(I64
I1
F1.0
S'better'
p1436
tp1437
as(S'camera'
p1438
tp1439
(lp1440
(I1
I4
F-0.625
S'other'
p1441
tp1442
a(I1
I4
F-0.625
S'bad'
p1443
tp1444
a(I2
I23
F1.0
S'good'
p1445
tp1446
a(I9
I11
F-0.625
S'other'
p1447
tp1448
a(I9
I18
F1.0
S'best'
p1449
tp1450
a(I39
I2
F0.625
S'decent'
p1451
tp1452
a(I43
I6
F1.0
S'good'
p1453
tp1454
a(I43
I6
F0.75
S'due'
p1455
tp1456
a(I43
I7
F0.875
S'important'
p1457
tp1458
a(I48
I19
I0
S'real'
p1459
tp1460
a(I52
I27
F0.25
S'professional'
p1461
tp1462
a(I52
I29
F1.0
S'good'
p1463
tp1464
a(I54
I17
I0
S'only'
p1465
tp1466
a(I72
I5
I0
S'great'
p1467
tp1468
a(I75
I1
F-0.25
S'low'
p1469
tp1470
a(I75
I1
F-0.625
S'light'
p1471
tp1472
a(I77
I17
F-0.625
S'bad'
p1473
tp1474
a(I77
I26
I0
S'wish'
p1475
tp1476
a(I77
I29
F-0.625
S'bad'
p1477
tp1478
a(I87
I8
I0
S'such'
p1479
tp1480
a(I102
I3
F1.0
S'good'
p1481
tp1482
a(I102
I3
F1.0
S'better'
p1483
tp1484
a(I107
I8
I0
S'full'
p1485
tp1486
a(I107
I8
F1.0
S'good'
p1487
tp1488
a(I111
I1
F0.25
S'professional'
p1489
tp1490
a(I120
I4
F1.0
S'good'
p1491
tp1492
a(I146
I14
I0
S'different'
p1493
tp1494
a(I148
I9
F1.0
S'good'
p1495
tp1496
a(I148
I11
I0
S'physical'
p1497
tp1498
a(I156
I1
F1.0
S'best'
p1499
tp1500
a(I163
I6
F-0.5
S'poor'
p1501
tp1502
as(S'for'
p1503
S'razr'
p1504
S'maxx'
p1505
tp1506
(lp1507
(I52
I0
F0.375
g107
tp1508
a(I98
I2
I0
g111
tp1509
a(I98
I2
I0
g113
tp1510
a(I98
I2
F0.375
g115
tp1511
a(I172
I0
F0.375
g120
tp1512
a(I172
I5
I0
g316
tp1513
as(S'power'
p1514
S'and'
p1515
S'volume'
p1516
tp1517
(lp1518
(I98
I2
F-0.5
S'sure'
p1519
tp1520
as(S'apps'
p1521
S'to'
p1522
S'sd'
p1523
tp1524
(lp1525
(I155
I6
F0.375
S'newer'
p1526
tp1527
a(I155
I6
I0
S'more'
p1528
tp1529
a(I155
I6
F-0.375
S'pull'
p1530
tp1531
as(S'galaxy'
p1532
tp1533
(lp1534
(I71
I15
I0
S'old'
p1535
tp1536
a(I78
I18
F-0.375
S'smoother'
p1537
tp1538
as(S'pictures'
p1539
tp1540
(lp1541
(I11
I57
F0.75
S'beautiful'
p1542
tp1543
a(I15
I14
F0.625
S'acceptable'
p1544
tp1545
a(I17
I15
F1.0
S'good'
p1546
tp1547
a(I22
I5
F0.5
S'clear'
p1548
tp1549
a(I22
I6
F0.5
S'comparable'
p1550
tp1551
a(I43
I6
F-0.875
S'awful'
p1552
tp1553
a(I48
I19
I0
S'real'
p1554
tp1555
a(I77
I12
F-0.625
S'bad'
p1556
tp1557
a(I78
I40
I0
S'visual'
p1558
tp1559
a(I91
I0
I0
S'great'
p1560
tp1561
a(I160
I9
I0
S'adequate'
p1562
tp1563
a(I166
I14
F1.0
S'better'
p1564
tp1565
as(S'people'
p1566
tp1567
(lp1568
(I9
I11
F1.0
S'best'
p1569
tp1570
a(I51
I4
F-0.625
S'other'
p1571
tp1572
a(I52
I35
I0
S'few'
p1573
tp1574
a(I54
I8
I0
S'many'
p1575
tp1576
a(I76
I10
F0.5
S'hi-tech'
p1577
tp1578
a(I111
I1
F-0.75
S'complain'
p1579
tp1580
a(I111
I1
I0
S'most'
p1581
tp1582
a(I121
I3
F-0.625
S'other'
p1583
tp1584
a(I121
I3
F0.25
S'ok'
p1585
tp1586
a(I124
I9
F0.375
S'fine'
p1587
tp1588
a(I147
I0
I0
S'different'
p1589
tp1590
a(I148
I0
I0
S'most'
p1591
tp1592
a(I148
I4
I0
S'most'
p1593
tp1594
as(S'motorola'
p1595
S'razr'
p1596
S'maxx'
p1597
tp1598
(lp1599
(I76
I14
I0
g64
tp1600
a(I98
I2
I0
g111
tp1601
a(I98
I2
I0
g113
tp1602
a(I98
I2
F0.375
g115
tp1603
a(I172
I5
I0
g316
tp1604
as(S'battery'
p1605
tp1606
(lp1607
(I2
I5
F0.5
S'second'
p1608
tp1609
a(I3
I18
F-0.375
g323
tp1610
a(I8
I0
F-0.5
g842
tp1611
a(I9
I2
F0.375
S'extended'
p1612
tp1613
a(I9
I16
I0
S'great'
p1614
tp1615
a(I12
I2
I0
g331
tp1616
a(I13
I1
I0
S'big'
p1617
tp1618
a(I19
I0
I0
g333
tp1619
a(I24
I4
F0.125
S'able'
p1620
tp1621
a(I33
I0
F0.125
S'last'
p1622
tp1623
a(I34
I2
I0
g335
tp1624
a(I42
I0
F0.25
g855
tp1625
a(I42
I1
F-0.5
g857
tp1626
a(I43
I2
F1.0
g339
tp1627
a(I50
I12
F-0.5
g343
tp1628
a(I52
I3
F0.125
S'last'
p1629
tp1630
a(I54
I24
F0.125
S'last'
p1631
tp1632
a(I66
I13
I0
S'more'
p1633
tp1634
a(I67
I2
F-0.25
S'low'
p1635
tp1636
a(I70
I1
I0
g473
tp1637
a(I71
I2
F-0.625
S'unsinkable'
p1638
tp1639
a(I72
I1
F-0.625
g345
tp1640
a(I76
I1
F-0.25
g347
tp1641
a(I76
I15
F1.0
g742
tp1642
a(I76
I16
F-0.75
S'dead'
p1643
tp1644
a(I78
I11
F0.125
S'impressive'
p1645
tp1646
a(I84
I0
F1.0
g349
tp1647
a(I88
I2
I0
S'stable'
p1648
tp1649
a(I89
I3
F0.75
S'worth'
p1650
tp1651
a(I90
I2
F0.125
S'first'
p1652
tp1653
a(I90
I2
F1.0
S'best'
p1654
tp1655
a(I96
I27
I0
S'more'
p1656
tp1657
a(I96
I37
F-0.125
S'bean'
p1658
tp1659
a(I96
I37
I0
S'more'
p1660
tp1661
a(I99
I0
I0
g355
tp1662
a(I100
I5
F-0.75
g357
tp1663
a(I104
I0
F-0.5
g359
tp1664
a(I105
I1
F1.0
S'good'
p1665
tp1666
a(I106
I1
F0.125
S'last'
p1667
tp1668
a(I107
I8
F-0.5
S'heavy'
p1669
tp1670
a(I113
I12
F0.25
S'larger'
p1671
tp1672
a(I117
I2
I0
S'incredible'
p1673
tp1674
a(I121
I12
F0.5
S'true'
p1675
tp1676
a(I121
I12
I0
S'great'
p1677
tp1678
a(I129
I1
F-0.5
g885
tp1679
a(I132
I2
F0.125
g477
tp1680
a(I132
I12
I0
g371
tp1681
a(I142
I4
I0
S'great'
p1682
tp1683
a(I142
I5
I0
S'big'
p1684
tp1685
a(I142
I6
F1.0
S'good'
p1686
tp1687
a(I143
I0
F0.625
g889
tp1688
a(I148
I4
F0.375
S'extended'
p1689
tp1690
a(I149
I3
F-0.375
S'serious'
p1691
tp1692
a(I153
I5
F0.375
g373
tp1693
a(I160
I12
F-0.5
g896
tp1694
a(I163
I4
F-0.75
S'dead'
p1695
tp1696
a(I163
I7
F1.0
S'best'
p1697
tp1698
a(I164
I6
F-0.5
S'less'
p1699
tp1700
a(I167
I1
I0
g898
tp1701
a(I167
I1
F-0.5
g900
tp1702
as(S'works'
p1703
tp1704
(lp1705
(I9
I11
I0
S'same'
p1706
tp1707
a(I9
I11
F1.0
S'good'
p1708
tp1709
a(I25
I5
I0
S'great'
p1710
tp1711
a(I31
I4
I0
S'great'
p1712
tp1713
a(I102
I0
I0
S'great'
p1714
tp1715
a(I159
I1
I0
S'fast'
p1716
tp1717
as(g257
S'great'
p1718
S'screen'
p1719
tp1720
(lp1721
(I1
I3
I0
g1290
tp1722
a(I9
I18
I0
g1304
tp1723
a(I9
I18
F-0.25
g1306
tp1724
a(I9
I18
F1.0
g1308
tp1725
a(I17
I15
I0
g1310
tp1726
a(I32
I1
F0.875
g1314
tp1727
a(I39
I2
I0
g1322
tp1728
a(I41
I11
F0.75
g1326
tp1729
a(I48
I8
F0.875
g1332
tp1730
a(I48
I8
I0
g1334
tp1731
a(I51
I3
I0
g1338
tp1732
a(I72
I4
I0
g1346
tp1733
a(I91
I0
I0
g1352
tp1734
a(I104
I3
F0.25
g1360
tp1735
a(I104
I3
I0
g1362
tp1736
a(I133
I2
F0.25
g1380
tp1737
a(I133
I2
I0
g1382
tp1738
a(I156
I4
I0
g1404
tp1739
as(S'better'
p1740
tp1741
(lp1742
(I9
I20
F0.375
S'much'
p1743
tp1744
a(I71
I12
I0
S'more'
p1745
tp1746
a(I147
I2
F0.375
g744
tp1747
as(S'device'
p1748
tp1749
(lp1750
(I2
I19
I0
S'faster'
p1751
tp1752
a(I52
I6
I0
S'android'
p1753
tp1754
a(I63
I0
F1.0
S'best'
p1755
tp1756
a(I63
I0
F0.125
S'far'
p1757
tp1758
a(I66
I2
F-0.5
S'sure'
p1759
tp1760
a(I96
I8
F0.625
S'sexy'
p1761
tp1762
a(I96
I26
F0.625
S'correct'
p1763
tp1764
a(I123
I21
I0
S'interim'
p1765
tp1766
a(I123
I29
F0.375
S'new'
p1767
tp1768
a(I123
I46
I0
S'cellular'
p1769
tp1770
a(I143
I9
F0.625
S'wary'
p1771
tp1772
a(I149
I17
F-0.75
S'wrong'
p1773
tp1774
as(S'home'
p1775
tp1776
(lp1777
(I9
I16
F0.125
S'digital'
p1778
tp1779
a(I13
I4
F0.125
S'able'
p1780
tp1781
a(I78
I27
I0
S'physical'
p1782
tp1783
a(I78
I31
I0
S'different'
p1784
tp1785
a(I118
I21
I0
S'many'
p1786
tp1787
as(S'call'
p1788
tp1789
(lp1790
(I66
I3
F-0.75
S'single'
p1791
tp1792
a(I66
I3
F-0.25
S'dropped'
p1793
tp1794
a(I134
I8
I0
g100
tp1795
a(I161
I7
I0
S'same'
p1796
tp1797
as(S'galaxy'
p1798
S's3'
p1799
tp1800
(lp1801
(I71
I20
I0
S'galaxy'
p1802
tp1803
a(I149
I1
F-0.5
S'flimsy'
p1804
tp1805
as(S'apps'
p1806
tp1807
(lp1808
(I21
I1
F-0.5
S'open'
p1809
tp1810
a(I32
I1
F0.25
S'recent'
p1811
tp1812
a(I32
I7
F0.25
S'recent'
p1813
tp1814
a(I46
I3
F0.125
S'able'
p1815
tp1816
a(I54
I5
F0.125
S'enough'
p1817
tp1818
a(I54
I5
I0
S'many'
p1819
tp1820
a(I77
I20
I0
S'same'
p1821
tp1822
a(I78
I27
F0.25
S'recent'
p1823
tp1824
a(I86
I5
I0
S'few'
p1825
tp1826
a(I86
I5
F-0.625
S'other'
p1827
tp1828
a(I95
I0
F1.0
S'best'
p1829
tp1830
a(I95
I0
F-0.375
S'smooth'
p1831
tp1832
a(I108
I10
I0
S'only'
p1833
tp1834
a(I117
I1
F-0.5
S'unwanted'
p1835
tp1836
a(I136
I0
F0.5
S'careful'
p1837
tp1838
a(I149
I12
I0
S'such'
p1839
tp1840
a(I155
I6
F0.375
g1526
tp1841
a(I155
I6
I0
g1528
tp1842
a(I155
I6
F-0.375
g1530
tp1843
a(I160
I19
I0
S'different'
p1844
tp1845
a(I174
I6
F0.375
S'much'
p1846
tp1847
a(I174
I6
I0
S'standard'
p1848
tp1849
as(S'feels'
p1850
tp1851
(lp1852
(I11
I45
F-0.625
S'lighter'
p1853
tp1854
a(I11
I45
F0.556
S'delicate'
p1855
tp1856
a(I118
I5
F0.625
S'easy'
p1857
tp1858
a(I160
I6
I0
S'great'
p1859
tp1860
a(I164
I3
F1.0
S'good'
p1861
tp1862
as(S'days'
p1863
tp1864
(lp1865
(I9
I18
I0
S'few'
p1866
tp1867
a(I32
I9
I0
S'standard'
p1868
tp1869
a(I35
I0
I0
S'few'
p1870
tp1871
a(I96
I38
I0
S'full'
p1872
tp1873
a(I101
I14
I0
S'more'
p1874
tp1875
a(I132
I1
I0
S'full'
p1876
tp1877
a(I148
I6
I0
S'full'
p1878
tp1879
a(I148
I6
F-0.625
S'moderate'
p1880
tp1881
a(I150
I0
I0
S'full'
p1882
tp1883
a(I174
I1
I0
S'few'
p1884
tp1885
as.