(dp0
(S'contacts'
p1
tp2
(lp3
(I102
I0
I0
S'few'
p4
tp5
as(S'a'
p6
S'long'
p7
S'time'
p8
tp9
(lp10
(I107
I0
F-0.5
S'long'
p11
tp12
a(I111
I0
F-0.5
S'long'
p13
tp14
a(I123
I10
F-0.5
S'long'
p15
tp16
a(I139
I1
F-0.5
S'long'
p17
tp18
a(I139
I1
I0
S'useful'
p19
tp20
a(I147
I10
F-0.5
S'long'
p21
tp22
as(S'upper'
p23
S'right'
p24
tp25
(lp26
(I8
I45
F0.375
S'upper'
p27
tp28
a(I103
I15
F0.375
S'upper'
p29
tp30
a(I103
I15
F0.125
S'key'
p31
tp32
a(I103
I29
F0.375
S'upper'
p33
tp34
as(S'battery'
p35
S'life'
p36
tp37
(lp38
(I25
I3
F1.0
S'good'
p39
tp40
a(I29
I1
I0
S'phenomenal'
p41
tp42
a(I51
I2
F1.0
S'good'
p43
tp44
a(I68
I4
F1.0
S'good'
p45
tp46
a(I78
I0
I0
S'incredible'
p47
tp48
a(I78
I0
F0.625
S'easy'
p49
tp50
a(I102
I2
I0
S'great'
p51
tp52
a(I109
I1
F1.0
S'good'
p53
tp54
a(I129
I2
F1.0
S'good'
p55
tp56
a(I155
I2
I0
S'great'
p57
tp58
as(S'sim'
p59
S'card'
p60
tp61
(lp62
(I18
I0
F1.0
S'good'
p63
tp64
a(I23
I4
F0.125
S'first'
p65
tp66
a(I23
I4
F-0.75
S'wrong'
p67
tp68
a(I24
I0
F-0.5
S'international'
p69
tp70
a(I24
I0
F-0.75
S'difficult'
p71
tp72
a(I24
I1
F-0.5
S'international'
p73
tp74
a(I27
I2
I0
S'local'
p75
tp76
a(I28
I1
F0.625
S'easy'
p77
tp78
a(I50
I4
F-0.5
S'sure'
p79
tp80
a(I50
I4
I0
S'local'
p81
tp82
a(I62
I2
F0.125
S'first'
p83
tp84
a(I92
I0
I0
S'old'
p85
tp86
a(I99
I4
F0.5
S'second'
p87
tp88
a(I121
I2
I0
S'great'
p89
tp90
a(I123
I7
I0
S'great'
p91
tp92
a(I127
I0
F-0.375
S'simple'
p93
tp94
a(I131
I0
F-0.125
S'foreign'
p95
tp96
a(I141
I1
F-0.5
S'international'
p97
tp98
a(I141
I2
F0.875
S'nice'
p99
tp100
a(I141
I2
F0.125
S'able'
p101
tp102
a(I148
I0
I0
S'different'
p103
tp104
a(I154
I0
I0
S'indian'
p105
tp106
a(I155
I1
F0.625
S'easy'
p107
tp108
a(I157
I0
I0
S'basic'
p109
tp110
as(S'came'
p111
tp112
(lp113
(I8
I18
F-0.125
S'mine'
p114
tp115
as(S'text'
p116
tp117
(lp118
(I19
I1
F0.125
S'able'
p119
tp120
a(I19
I3
F-0.375
S'simple'
p121
tp122
a(I23
I2
I0
S'old'
p123
tp124
a(I44
I2
F-0.375
S'simple'
p125
tp126
a(I108
I3
F0.75
S'receive'
p127
tp128
a(I108
I3
I0
S'basic'
p129
tp130
as(S'battery'
p131
tp132
(lp133
(I68
I4
F1.0
g45
tp134
a(I78
I0
I0
g47
tp135
a(I92
I1
F0.125
S'last'
p136
tp137
a(I102
I2
I0
g51
tp138
a(I103
I52
F-0.25
S'low'
p139
tp140
a(I109
I1
F1.0
g53
tp141
a(I115
I0
F0.125
S'last'
p142
tp143
a(I129
I2
F1.0
g55
tp144
a(I155
I2
I0
g57
tp145
as(S'price'
p146
tp147
(lp148
(I1
I0
F1.0
S'good'
p149
tp150
a(I36
I0
I0
S'great'
p151
tp152
a(I47
I2
I0
S'great'
p153
tp154
a(I70
I1
I0
S'same'
p155
tp156
a(I89
I0
I0
S'same'
p157
tp158
a(I135
I1
I0
S'great'
p159
tp160
a(I138
I0
I0
S'great'
p161
tp162
as(S'plug'
p163
tp164
(lp165
(I4
I2
I0
S'european'
p166
tp167
a(I4
I2
I0
S'prong'
p168
tp169
a(I140
I4
I0
S'european'
p170
tp171
as(S'nternational'
p172
S'sim'
p173
tp174
(lp175
(I8
I15
F-0.625
S'other'
p176
tp177
a(I24
I0
F-0.5
g69
tp178
a(I24
I1
F-0.5
g73
tp179
a(I99
I3
F-0.25
S'cheapest'
p180
tp181
a(I103
I40
I0
S'local'
p182
tp183
a(I141
I1
F-0.5
g97
tp184
as(S'service'
p185
tp186
(lp187
(I23
I3
F0.375
S'available'
p188
tp189
a(I103
I23
I0
S'different'
p190
tp191
as(S'dual'
p192
S'sim'
p193
S'card'
p194
tp195
(lp196
(I127
I0
F-0.375
g93
tp197
a(I148
I0
I0
g103
tp198
a(I157
I0
I0
g109
tp199
as(S'charger'
p200
tp201
(lp202
(I89
I2
I0
S'common'
p203
tp204
a(I89
I2
I0
S'same'
p205
tp206
a(I103
I59
I0
S'common'
p207
tp208
a(I103
I60
I0
S'cable'
p209
tp210
a(I126
I0
I0
S'european'
p211
tp212
as(S'number'
p213
tp214
(lp215
(I50
I4
I0
S'local'
p216
tp217
a(I103
I62
F0.5
S'primary'
p218
tp219
as(g6
S'sim'
p220
S'card'
p221
tp222
(lp223
(I18
I0
F1.0
g63
tp224
a(I23
I4
F0.125
g65
tp225
a(I23
I4
F-0.75
g67
tp226
a(I24
I0
F-0.5
g69
tp227
a(I24
I0
F-0.75
g71
tp228
a(I24
I1
F-0.5
g73
tp229
a(I27
I2
I0
g75
tp230
a(I28
I1
F0.625
g77
tp231
a(I50
I4
F-0.5
g79
tp232
a(I50
I4
I0
g81
tp233
a(I62
I2
F0.125
g83
tp234
a(I92
I0
I0
g85
tp235
a(I99
I4
F0.5
g87
tp236
a(I121
I2
I0
g89
tp237
a(I123
I7
I0
g91
tp238
a(I127
I0
F-0.375
g93
tp239
a(I131
I0
F-0.125
g95
tp240
a(I141
I1
F-0.5
g97
tp241
a(I141
I2
F0.875
g99
tp242
a(I141
I2
F0.125
g101
tp243
a(I148
I0
I0
g103
tp244
a(I154
I0
I0
g105
tp245
a(I155
I1
F0.625
g107
tp246
a(I157
I0
I0
g109
tp247
as(S'dual'
p248
S'sim'
p249
tp250
(lp251
(I63
I3
F1.0
S'best'
p252
tp253
a(I99
I3
F-0.25
g180
tp254
a(I103
I40
I0
g182
tp255
a(I117
I0
F1.0
S'good'
p256
tp257
a(I127
I0
F-0.375
g93
tp258
a(I129
I0
I0
S'basic'
p259
tp260
a(I148
I0
I0
g103
tp261
a(I157
I0
I0
g109
tp262
as(S'reviews'
p263
tp264
(lp265
(I54
I30
F-0.625
S'other'
p266
tp267
a(I88
I3
F1.0
S'good'
p268
tp269
a(I123
I2
F-0.75
S'little'
p270
tp271
as(S'message'
p272
tp273
(lp274
(I54
I10
F0.375
S'new'
p275
tp276
a(I54
I14
F-0.125
S'delete'
p277
tp278
a(I54
I14
F0.125
S'first'
p279
tp280
a(I54
I15
F-0.5
S'open'
p281
tp282
a(I54
I15
I0
S'next'
p283
tp284
a(I141
I6
F-0.75
S'short'
p285
tp286
as(S't'
p287
S'mobile'
p288
S'sim'
p289
tp290
(lp291
(I141
I1
F-0.5
g97
tp292
as(S'europe'
p293
tp294
(lp295
(I79
I1
F1.0
S'good'
p296
tp297
as(S'center'
p298
S'button'
p299
tp300
(lp301
(I103
I33
I0
S'large'
p302
tp303
as(S'got'
p304
g6
S'sim'
p305
tp306
(lp307
(I99
I4
F0.5
g87
tp308
as(S'quality'
p309
tp310
(lp311
(I62
I4
F1.0
S'good'
p312
tp313
a(I148
I22
F-0.625
S'average'
p314
tp315
a(I157
I3
I0
S'great'
p316
tp317
as(S'product'
p318
tp319
(lp320
(I3
I2
F-0.375
S'manual'
p321
tp322
a(I55
I0
I0
S'great'
p323
tp324
a(I74
I1
F1.0
S'good'
p325
tp326
a(I77
I0
I0
S'spanish'
p327
tp328
a(I119
I2
F1.0
S'better'
p329
tp330
as(S'fm'
p331
S'radio'
p332
tp333
(lp334
(I54
I1
F-0.625
S'other'
p335
tp336
a(I140
I3
F-0.75
S'bright'
p337
tp338
a(I148
I16
F-0.625
S'bad'
p339
tp340
a(I148
I16
I0
S'noisy'
p341
tp342
as(S'right'
p343
tp344
(lp345
(I8
I45
F0.375
g27
tp346
a(I103
I15
F0.375
g29
tp347
a(I103
I15
F0.125
g31
tp348
a(I103
I29
F0.375
g33
tp349
as(S'alarm'
p350
S'clock'
p351
tp352
(lp353
(I8
I18
I0
S'most'
p354
tp355
as(S'menu'
p356
tp357
(lp358
(I54
I17
F-0.75
S'short'
p359
tp360
a(I75
I0
I0
S'spanish'
p361
tp362
a(I148
I13
I0
S'activate'
p363
tp364
as(S'alarm'
p365
tp366
(lp367
(I54
I29
F-0.375
S'weekly'
p368
tp369
as(S'features'
p370
tp371
(lp372
(I47
I2
I0
S'many'
p373
tp374
a(I47
I2
F0.375
S'extra'
p375
tp376
a(I69
I0
I0
S'great'
p377
tp378
a(I69
I0
F-0.625
S'light'
p379
tp380
a(I70
I1
I0
S'more'
p381
tp382
a(I70
I1
I0
S'user'
p383
tp384
a(I103
I67
I0
S'such'
p385
tp386
a(I109
I2
F0.375
S'much'
p387
tp388
a(I123
I11
F1.0
S'best'
p389
tp390
a(I154
I0
F0.125
S'enough'
p391
tp392
a(I157
I3
I0
S'more'
p393
tp394
as(S'verizon'
p395
tp396
(lp397
(I33
I4
F0.5
S'told'
p398
tp399
a(I33
I4
I0
S'representative'
p400
tp401
as(S'band'
p402
tp403
(lp404
(I12
I0
I0
S'quad'
p405
tp406
a(I47
I0
I0
S'great'
p407
tp408
a(I47
I0
I0
S'quad'
p409
tp410
a(I47
I0
F-0.25
S'inexpensive'
p411
tp412
as(S'messages'
p413
tp414
(lp415
(I19
I1
F-0.5
S'call'
p416
tp417
a(I54
I14
F0.375
S'new'
p418
tp419
as(S'screen'
p420
tp421
(lp422
(I54
I14
F0.25
S'main'
p423
tp424
a(I54
I22
F0.25
S'main'
p425
tp426
a(I78
I0
F-0.375
S'small'
p427
tp428
a(I78
I0
F-0.75
S'difficult'
p429
tp430
a(I103
I20
F0.25
S'lit'
p431
tp432
a(I126
I6
F-0.375
S'small'
p433
tp434
a(I148
I3
F-0.375
S'small'
p435
tp436
a(I148
I4
I0
S'big'
p437
tp438
a(I148
I4
I0
S'same'
p439
tp440
as(S'work'
p441
tp442
(lp443
(I34
I5
F0.5
S'personal'
p444
tp445
as(S'feature'
p446
tp447
(lp448
(I38
I3
I0
S'great'
p449
tp450
a(I67
I2
F1.0
S'best'
p451
tp452
a(I103
I11
I0
S'later'
p453
tp454
a(I103
I36
F0.625
S'convenient'
p455
tp456
a(I107
I0
I0
S'basic'
p457
tp458
a(I139
I1
F0.875
S'nice'
p459
tp460
a(I144
I3
I0
S'useful'
p461
tp462
as(S'call'
p463
tp464
(lp465
(I62
I4
F-0.625
S'light'
p466
tp467
a(I103
I3
I0
S'brief'
p468
tp469
a(I103
I3
F0.5
S'expensive'
p470
tp471
a(I103
I26
I0
S'active'
p472
tp473
a(I103
I29
I0
S'active'
p474
tp475
a(I103
I54
F1.0
S'good'
p476
tp477
as(S'light'
p478
S'weight'
p479
tp480
(lp481
(I69
I1
F0.625
S'easy'
p482
tp483
a(I69
I1
F-0.625
S'light'
p484
tp485
a(I103
I43
F-0.375
S'small'
p486
tp487
a(I103
I43
F-0.625
S'light'
p488
tp489
a(I109
I0
F-0.375
S'small'
p490
tp491
as(S'sim'
p492
S'cards'
p493
tp494
(lp495
(I50
I4
F-0.5
g79
tp496
a(I50
I4
I0
g81
tp497
a(I99
I4
F0.5
g87
tp498
a(I127
I0
F-0.375
g93
tp499
a(I141
I2
F0.875
g99
tp500
a(I141
I2
F0.125
g101
tp501
a(I148
I0
I0
g103
tp502
a(I154
I0
I0
g105
tp503
as(S'radio'
p504
tp505
(lp506
(I54
I1
F-0.625
g335
tp507
a(I67
I3
I0
S'great'
p508
tp509
a(I103
I32
I0
S'adequate'
p510
tp511
a(I103
I33
F0.25
S'portable'
p512
tp513
a(I115
I1
I0
S'useful'
p514
tp515
a(I148
I16
F-0.625
g339
tp516
a(I148
I16
I0
g341
tp517
as(S'nternational'
p518
S'sim'
p519
S'card'
p520
tp521
(lp522
(I24
I0
F-0.5
g69
tp523
a(I24
I0
F-0.75
g71
tp524
a(I24
I1
F-0.5
g73
tp525
a(I141
I1
F-0.5
g97
tp526
as(S'sound'
p527
tp528
(lp529
(I2
I0
F1.0
S'good'
p530
tp531
a(I78
I0
F1.0
S'good'
p532
tp533
a(I81
I3
F-0.625
S'other'
p534
tp535
a(I121
I4
F0.5
S'told'
p536
tp537
as(S'works'
p538
tp539
(lp540
(I72
I0
F-0.375
S'small'
p541
tp542
a(I118
I0
I0
S'great'
p543
tp544
a(I140
I0
I0
S'great'
p545
tp546
as(S'display'
p547
tp548
(lp549
(I60
I5
F-0.375
S'small'
p550
tp551
a(I126
I6
F-0.375
S'small'
p552
tp553
as(S'texting'
p554
tp555
(lp556
(I60
I5
I0
S'legible'
p557
tp558
a(I110
I8
I0
S'old'
p559
tp560
a(I121
I5
I0
S'primitive'
p561
tp562
a(I139
I2
F-0.875
S'hard'
p563
tp564
as(S'n'
p565
S'europe'
p566
tp567
(lp568
(I79
I1
F1.0
g296
tp569
as(S'user'
p570
S'guide'
p571
tp572
(lp573
(I8
I25
I0
S'full'
p574
tp575
a(I8
I25
I0
S'english'
p576
tp577
as(S'mobile'
p578
S'sim'
p579
tp580
(lp581
(I141
I1
F-0.5
g97
tp582
as(S'cell'
p583
tp584
(lp585
(I26
I0
F0.25
S'unlocked'
p586
tp587
a(I28
I2
F1.0
S'best'
p588
tp589
a(I31
I3
F-0.375
S'manual'
p590
tp591
a(I51
I5
I0
S'current'
p592
tp593
a(I54
I11
I0
S'most'
p594
tp595
a(I54
I11
I0
S'basic'
p596
tp597
a(I115
I0
F1.0
S'best'
p598
tp599
a(I144
I1
I0
S'great'
p600
tp601
a(I144
I1
I0
S'basic'
p602
tp603
a(I149
I8
F-0.375
S'small'
p604
tp605
as(S'talk'
p606
tp607
(lp608
(I85
I4
I0
S'normal'
p609
tp610
a(I129
I1
F1.0
S'good'
p611
tp612
as(S'calls'
p613
tp614
(lp615
(I6
I2
F0.5
S'clear'
p616
tp617
a(I21
I0
F0.125
S'able'
p618
tp619
a(I21
I0
I0
S'brief'
p620
tp621
a(I37
I1
I0
S'cool'
p622
tp623
a(I103
I27
I0
S'subsequent'
p624
tp625
a(I111
I1
F0.5
S'clear'
p626
tp627
a(I114
I2
F0.5
S'clear'
p628
tp629
a(I130
I1
F0.125
S'able'
p630
tp631
a(I147
I1
I0
S'few'
p632
tp633
a(I147
I5
F-0.625
S'free'
p634
tp635
a(I156
I1
I0
S'local'
p636
tp637
a(I156
I1
F-0.5
S'international'
p638
tp639
a(I156
I1
F0.5
S'reasonable'
p640
tp641
as(S'thing'
p642
tp643
(lp644
(I51
I5
F-0.625
S'other'
p645
tp646
a(I68
I1
I0
S'great'
p647
tp648
a(I80
I1
F0.875
S'important'
p649
tp650
a(I97
I2
I0
S'only'
p651
tp652
a(I97
I2
F0.625
S'aware'
p653
tp654
a(I103
I64
I0
S'same'
p655
tp656
a(I115
I1
F-0.625
S'other'
p657
tp658
a(I155
I4
I0
S'only'
p659
tp660
as(S'cheap'
p661
tp662
(lp663
(I16
I0
I0
S'great'
p664
tp665
a(I155
I9
I0
S'useful'
p666
tp667
as(S'flashlight'
p668
tp669
(lp670
(I68
I2
F0.625
S'decent'
p671
tp672
a(I127
I1
I0
S'great'
p673
tp674
as(S'lg'
p675
S'a275'
p676
tp677
(lp678
(I8
I28
F-0.375
S'manual'
p679
tp680
a(I8
I28
I0
S'english'
p681
tp682
a(I88
I2
I0
S'many'
p683
tp684
as(S'press'
p685
tp686
(lp687
(I145
I0
F0.125
S'key'
p688
tp689
a(I145
I0
I0
S'general'
p690
tp691
a(I145
I0
F0.125
S'key'
p692
tp693
as(S'text'
p694
S'messages'
p695
tp696
(lp697
(I19
I1
F0.125
g119
tp698
a(I19
I1
F-0.5
g416
tp699
a(I19
I3
F-0.375
g121
tp700
a(I23
I2
I0
g123
tp701
a(I108
I3
F0.75
g127
tp702
a(I108
I3
I0
g129
tp703
as(S'low'
p704
S'cost'
p705
tp706
(lp707
(I16
I13
F-0.25
S'low'
p708
tp709
a(I38
I5
I0
S'great'
p710
tp711
a(I38
I5
F-0.25
S'low'
p712
tp713
as(S'sims'
p714
tp715
(lp716
(I12
I2
F0.5
S'expensive'
p717
tp718
a(I85
I3
F0.625
S'easy'
p719
tp720
a(I108
I1
F0.875
S'nice'
p721
tp722
a(I108
I1
I0
S'different'
p723
tp724
a(I156
I0
I0
S'local'
p725
tp726
as(S'quad'
p727
S'band'
p728
tp729
(lp730
(I12
I0
I0
g405
tp731
a(I47
I0
I0
g407
tp732
a(I47
I0
I0
g409
tp733
a(I47
I0
F-0.25
g411
tp734
as(S'tech'
p735
S'support'
p736
tp737
(lp738
(I22
I3
F-0.375
S'manual'
p739
tp740
a(I22
I4
I0
S'mobile'
p741
tp742
as(S'time'
p743
tp744
(lp745
(I15
I3
I0
S'next'
p746
tp747
a(I24
I0
F0.625
S'perfect'
p748
tp749
a(I54
I19
I0
S'exact'
p750
tp751
a(I54
I32
I0
S'same'
p752
tp753
a(I103
I39
F0.5
S'accurate'
p754
tp755
a(I103
I42
I0
S'same'
p756
tp757
a(I107
I0
F-0.5
g11
tp758
a(I111
I0
F-0.5
g13
tp759
a(I123
I10
F-0.5
g15
tp760
a(I139
I1
F-0.5
g17
tp761
a(I139
I1
I0
g19
tp762
a(I142
I5
F-0.375
S'small'
p763
tp764
a(I147
I10
F-0.5
g21
tp765
a(I148
I21
F-0.75
S'impossible'
p766
tp767
as(S'long'
p768
S'time'
p769
tp770
(lp771
(I107
I0
F-0.5
g11
tp772
a(I111
I0
F-0.5
g13
tp773
a(I123
I10
F-0.5
g15
tp774
a(I139
I1
F-0.5
g17
tp775
a(I139
I1
I0
g19
tp776
a(I147
I10
F-0.5
g21
tp777
as(S'trip'
p778
tp779
(lp780
(I26
I0
F-0.5
S'international'
p781
tp782
a(I48
I0
I0
S'great'
p783
tp784
as(S'card'
p785
tp786
(lp787
(I23
I4
F-0.75
g67
tp788
a(I24
I0
F-0.75
g71
tp789
a(I74
I1
F0.5
S'true'
p790
tp791
a(I121
I2
I0
g89
tp792
a(I123
I7
I0
g91
tp793
as(S'country'
p794
tp795
(lp796
(I34
I6
F-0.625
S'other'
p797
tp798
a(I63
I3
I0
S'same'
p799
tp800
a(I97
I2
F-0.5
S'sure'
p801
tp802
as(S'world'
p803
S'clock'
p804
tp805
(lp806
(I8
I18
I0
g354
tp807
as(S'size'
p808
tp809
(lp810
(I8
I20
I0
S'great'
p811
tp812
a(I95
I1
F-0.375
S'small'
p813
tp814
a(I98
I2
F-0.375
S'small'
p815
tp816
a(I99
I5
F-0.375
S'small'
p817
tp818
a(I114
I4
F-0.375
S'small'
p819
tp820
a(I142
I2
F-0.375
S'small'
p821
tp822
a(I142
I2
F1.0
S'good'
p823
tp824
as(S'travel'
p825
tp826
(lp827
(I16
I13
I0
S'great'
p828
tp829
a(I87
I2
I0
S'american'
p830
tp831
a(I87
I4
I0
S'basic'
p832
tp833
a(I121
I5
I0
S'great'
p834
tp835
as(g565
S'usa'
p836
tp837
(lp838
(I108
I4
F0.5
S'expensive'
p839
tp840
as(S'volume'
p841
tp842
(lp843
(I8
I17
F0.125
S'adjust'
p844
tp845
a(I106
I2
F1.0
S'good'
p846
tp847
a(I128
I1
I0
S'few'
p848
tp849
as(S'sim'
p850
S'card'
p851
g287
tp852
(lp853
(I18
I0
F1.0
g63
tp854
a(I23
I4
F0.125
g65
tp855
a(I23
I4
F-0.75
g67
tp856
a(I24
I0
F-0.5
g69
tp857
a(I24
I0
F-0.75
g71
tp858
a(I24
I1
F-0.5
g73
tp859
a(I27
I2
I0
g75
tp860
a(I28
I1
F0.625
g77
tp861
a(I50
I4
F-0.5
g79
tp862
a(I50
I4
I0
g81
tp863
a(I62
I2
F0.125
g83
tp864
a(I92
I0
I0
g85
tp865
a(I99
I4
F0.5
g87
tp866
a(I121
I2
I0
g89
tp867
a(I123
I7
I0
g91
tp868
a(I127
I0
F-0.375
g93
tp869
a(I131
I0
F-0.125
g95
tp870
a(I141
I1
F-0.5
g97
tp871
a(I141
I2
F0.875
g99
tp872
a(I141
I2
F0.125
g101
tp873
a(I148
I0
I0
g103
tp874
a(I154
I0
I0
g105
tp875
a(I155
I1
F0.625
g107
tp876
a(I157
I0
I0
g109
tp877
as(S'life'
p878
tp879
(lp880
(I25
I3
F1.0
g39
tp881
a(I29
I1
I0
g41
tp882
a(I51
I2
F1.0
g43
tp883
a(I78
I0
F0.625
g49
tp884
as(S'light'
p885
tp886
(lp887
(I95
I0
F0.125
S'practical'
p888
tp889
a(I109
I0
F-0.375
g490
tp890
a(I114
I3
I0
S'more'
p891
tp892
a(I115
I1
F0.25
S'powerful'
p893
tp894
a(I123
I11
F-0.25
S'white'
p895
tp896
a(I123
I11
F0.625
S'led'
p897
tp898
a(I131
I4
F-0.75
S'dark'
p899
tp900
a(I136
I1
F1.0
S'good'
p901
tp902
as(S'days'
p903
tp904
(lp905
(I26
I4
F0.875
S'nice'
p906
tp907
a(I30
I3
F0.125
S'able'
p908
tp909
a(I147
I4
I0
S'few'
p910
tp911
as(S'upper'
p912
S'left'
p913
tp914
(lp915
(I103
I15
F0.375
S'upper'
p916
tp917
a(I103
I15
F0.125
S'key'
p918
tp919
a(I103
I16
F0.375
S'upper'
p920
tp921
a(I103
I16
F0.125
S'key'
p922
tp923
as(S'small'
p924
S'size'
p925
tp926
(lp927
(I95
I1
F-0.375
g813
tp928
a(I98
I2
F-0.375
g815
tp929
a(I99
I5
F-0.375
g817
tp930
a(I114
I4
F-0.375
g819
tp931
a(I142
I2
F-0.375
g821
tp932
a(I142
I2
F1.0
g823
tp933
as(S'language'
p934
tp935
(lp936
(I17
I1
I0
S'spanish'
p937
tp938
a(I113
I3
I0
S'english'
p939
tp940
a(I135
I0
I0
S'french'
p941
tp942
a(I151
I6
I0
S'english'
p943
tp944
as.