(dp0
(S'call'
p1
S'quality'
p2
tp3
(lp4
(I1
I72
F1.0
S'best'
p5
I0
tp6
a(I1
I180
F1.0
S'better'
p7
I0
tp8
a(I1
I294
I0
S'great'
p9
I0
tp10
a(I1
I371
F1.0
S'better'
p11
I0
tp12
a(I1
I381
F1.0
S'good'
p13
I0
tp14
as(S'iphone'
p15
tp16
(lp17
(I1
I116
F-0.25
S'disappointing'
p18
I1
tp19
a(I1
I275
F-0.625
S'light'
p20
I1
tp21
as(S'battery'
p22
S'life'
p23
tp24
(lp25
(I0
I88
I-100
S'pro-battery'
p26
I1
tp27
a(I0
I88
F-0.5
S'insane'
p28
I1
tp29
a(I1
I23
F-0.625
S'glad'
p30
I1
tp31
a(I1
I34
F-0.5
S'longer'
p32
I1
tp33
a(I1
I126
F-0.25
S'battery'
p34
I1
tp35
a(I1
I165
I0
S'great'
p36
I1
tp37
a(I1
I192
F-0.5
S'long'
p38
I1
tp39
a(I1
I192
F-0.25
S'battery'
p40
I1
tp41
a(I1
I233
F-0.5
S'long'
p42
I1
tp43
a(I1
I233
F0.5
S'clear'
p44
I1
tp45
a(I1
I276
I0
S'great'
p46
I1
tp47
a(I1
I294
F-0.625
S'average'
p48
I1
tp49
a(I1
I335
F1.0
S'good'
p50
I1
tp51
a(I2
I10
I0
S'great'
p52
I1
tp53
a(I0
I88
F-0.5
g28
I19
tp54
a(I1
I23
F-0.625
g30
I19
tp55
a(I1
I34
F-0.5
g32
I19
tp56
a(I1
I126
F-0.25
g34
I19
tp57
a(I1
I192
F-0.5
g38
I19
tp58
a(I1
I192
F-0.25
g40
I19
tp59
a(I1
I233
F0.5
g44
I19
tp60
a(I1
I276
I0
g46
I19
tp61
a(I1
I294
F-0.625
g48
I19
tp62
a(I2
I10
I0
g52
I19
tp63
a(I2
I48
F0.25
S'favorite'
p64
I19
tp65
a(I0
I29
F0.125
S'last'
p66
I15
tp67
a(I1
I8
I0
S'adequate'
p68
I15
tp69
a(I1
I68
F0.25
S'larger'
p70
I15
tp71
a(I1
I68
F0.75
S'worth'
p72
I15
tp73
a(I1
I100
F-0.375
S'smaller'
p74
I15
tp75
a(I1
I165
I0
g36
I15
tp76
a(I1
I233
F-0.5
g42
I15
tp77
a(I1
I277
F0.75
S'worth'
p78
I15
tp79
a(I1
I277
F0.25
S'larger'
p80
I15
tp81
a(I1
I335
F1.0
g50
I15
tp82
a(I1
I337
F1.0
S'good'
p83
I15
tp84
a(I1
I337
F0.125
S'essential'
p85
I15
tp86
a(I1
I338
F-0.875
S'worst'
p87
I15
tp88
a(I2
I38
F0.625
S'removable'
p89
I15
tp90
a(I4
I16
F-0.75
S'little'
p91
I15
tp92
a(I4
I16
F-0.25
S'low'
p93
I15
tp94
as(S'droid'
p95
S'razr'
p96
S'hd'
p97
tp98
(lp99
(I1
I89
I0
S'few'
p100
I0
tp101
a(I1
I92
I0
S'more'
p102
I0
tp103
a(I1
I92
F0.125
S'solid'
p104
I0
tp105
a(I1
I109
F-0.625
S'other'
p106
I0
tp107
a(I1
I375
I0
S'more'
p108
I0
tp109
a(I2
I37
F0.875
S'happy'
p110
I0
tp111
a(I2
I37
F0.875
g110
I0
tp112
as(S'motorola'
p113
tp114
(lp115
(I0
I21
I0
S'representative'
p116
I0
tp117
a(I1
I281
F1.0
S'best'
p118
I0
tp119
as(S'verizon'
p120
tp121
(lp122
(I0
I15
F0.625
S'correct'
p123
I0
tp124
a(I0
I31
F-0.25
S'cheaper'
p125
I0
tp126
a(I0
I58
F1.0
S'best'
p127
I0
tp128
a(I1
I81
F-0.25
S'past'
p129
I0
tp130
a(I1
I148
I0
S'local'
p131
I0
tp132
a(I1
I214
F0.125
S'usual'
p133
I0
tp134
a(I1
I370
I0
S'same'
p135
I0
tp136
as(S'on'
p137
S'razr'
p138
S'hd'
p139
tp140
(lp141
(I1
I89
I0
g100
I0
tp142
a(I1
I109
F-0.625
g106
I0
tp143
a(I1
I371
F0.75
S'worth'
p144
I0
tp145
a(I1
I375
I0
g108
I0
tp146
a(I1
I89
I0
g100
I0
tp147
a(I1
I92
I0
g102
I0
tp148
a(I1
I92
F0.125
g104
I0
tp149
a(I1
I107
I0
S'big'
p150
I0
tp151
a(I1
I109
F-0.625
g106
I0
tp152
a(I1
I371
F0.75
g144
I0
tp153
a(I1
I375
I0
g108
I0
tp154
a(I0
I83
I0
S'earlier'
p155
I0
tp156
a(I1
I107
I0
g150
I0
tp157
as(S'on'
p158
S'droid'
p159
S'x'
p160
tp161
(lp162
(I1
I16
I0
S'old'
p163
I0
tp164
a(I2
I39
I0
S'least'
p165
I0
tp166
a(I1
I16
I0
g163
I0
tp167
a(I2
I22
F-0.5
S'less'
p168
I0
tp169
a(I2
I22
F0.625
S'noticeable'
p170
I0
tp171
a(I2
I22
F-0.25
S'thinner'
p172
I0
tp173
a(I2
I39
I0
g165
I0
tp174
a(I4
I23
I0
S'old'
p175
I0
tp176
a(I1
I16
I0
g163
I0
tp177
a(I2
I22
F-0.5
g168
I0
tp178
a(I2
I22
F0.625
g170
I0
tp179
a(I2
I22
F-0.25
g172
I0
tp180
a(I2
I37
F0.875
g110
I0
tp181
a(I4
I23
I0
g175
I0
tp182
as(S'camera'
p183
tp184
(lp185
(I0
I10
F1.0
S'better'
p186
I1
tp187
a(I1
I77
I0
S'rear'
p188
I1
tp189
a(I1
I166
F-0.5
S'complaint'
p190
I1
tp191
a(I1
I302
F0.625
S'aware'
p192
I1
tp193
a(I1
I302
F-0.5
S'poor'
p194
I1
tp195
a(I1
I303
F1.0
S'better'
p196
I1
tp197
a(I1
I303
F0.875
S'nice'
p198
I1
tp199
a(I1
I311
F0.25
S'stellar'
p200
I1
tp201
a(I2
I16
I0
S'great'
p202
I1
tp203
a(I2
I18
F-0.5
S'actual'
p204
I1
tp205
a(I2
I49
I0
S'great'
p206
I1
tp207
as(S'upgrade'
p208
tp209
(lp210
(I1
I203
I0
S'wish'
p211
I3
tp212
a(I1
I203
I0
S'next'
p213
I3
tp214
a(I1
I280
F0.75
S'worth'
p215
I3
tp216
as.