(dp0
(S'android'
p1
tp2
(lp3
(I1
I41
F-0.375
S'liberal'
p4
I0
tp5
as(S'iphone'
p6
tp7
(lp8
(I1
I23
F0.5
S'compatible'
p9
I1
tp10
a(I1
I30
F0.375
S'new'
p11
I1
tp12
a(I2
I15
F0.5
S'functional'
p13
I1
tp14
a(I3
I0
F0.375
S'new'
p15
I1
tp16
a(I3
I2
I0
S'great'
p17
I1
tp18
a(I8
I6
F0.375
S'new'
p19
I1
tp20
a(I11
I0
F0.625
S'easy'
p21
I1
tp22
a(I11
I0
F0.625
S'easy'
p23
I1
tp24
a(I12
I14
F-0.125
S'overall'
p25
I1
tp26
a(I12
I14
F-0.125
S'super'
p27
I1
tp28
a(I12
I14
I0
S'particular'
p29
I1
tp30
a(I13
I1
F-0.625
S'light'
p31
I1
tp32
a(I13
I17
I0
S'faster'
p33
I1
tp34
a(I13
I22
F0.375
S'loudest'
p35
I1
tp36
a(I13
I75
F1.0
S'best'
p37
I1
tp38
a(I15
I0
F0.375
S'similar'
p39
I1
tp40
a(I15
I4
F0.375
S'new'
p41
I1
tp42
a(I15
I4
F1.0
S'better'
p43
I1
tp44
a(I16
I30
F0.375
S'new'
p45
I1
tp46
a(I18
I10
I0
S'old'
p47
I1
tp48
as(S'much'
p49
S'better'
p50
tp51
(lp52
(I13
I2
F0.375
S'much'
p53
I9
tp54
a(I13
I70
F0.375
S'much'
p55
I9
tp56
as(S'battery'
p57
tp58
(lp59
(I4
I2
I0
S'fast'
p60
I15
tp61
a(I12
I3
F0.125
S'last'
p62
I15
tp63
a(I13
I29
I0
S'internet'
p64
I15
tp65
as(S'apple'
p66
tp67
(lp68
(I11
I8
I0
S'android'
p69
I4
tp70
a(I13
I35
I0
S'old'
p71
I4
tp72
a(I13
I69
F0.125
S'able'
p73
I4
tp74
a(I13
I79
I0
S'many'
p75
I4
tp76
a(I13
I81
F0.5
S'possible'
p77
I4
tp78
a(I18
I3
F0.5
S'smarter'
p79
I4
tp80
a(I18
I3
F-0.25
S'thinnest'
p81
I4
tp82
a(I18
I3
F0.5
S'stylish'
p83
I4
tp84
as(S'sim'
p85
S'card'
p86
tp87
(lp88
(I8
I14
F-0.75
S'unable'
p89
I0
tp90
a(I10
I3
F0.375
S'new'
p91
I0
tp92
a(I12
I8
I-100
S'replacing/changing'
p93
I0
tp94
a(I12
I8
F-0.75
S'difficult'
p95
I0
tp96
a(I16
I17
F0.375
S'new'
p97
I0
tp98
a(I16
I17
F-0.625
S'free'
p99
I0
tp100
as(S'camera'
p101
tp102
(lp103
(I1
I0
I0
S'full'
p104
I1
tp105
a(I12
I6
I0
S'great'
p106
I1
tp107
a(I13
I14
F1.0
S'best'
p108
I1
tp109
a(I13
I15
F1.0
S'good'
p110
I1
tp111
a(I13
I16
I0
S'great'
p112
I1
tp113
as.