(dp0
(S'home'
p1
S'button'
p2
tp3
(lp4
(I1
I15
F-0.75
S'single'
p5
I0
tp6
a(I2
I275
I0
S'physical'
p7
I0
tp8
as(S'screen'
p9
S'size'
p10
tp11
(lp12
(I2
I11
F0.625
S'perfect'
p13
I3
tp14
a(I3
I60
F0.125
S'impressive'
p15
I3
tp16
as(S'samsung'
p17
S'galaxy'
p18
S'note'
p19
tp20
(lp21
(I3
I0
F0.25
S'original'
p22
I0
tp23
a(I3
I2
F0.375
S'much'
p24
I0
tp25
a(I3
I2
F0.25
S'original'
p26
I0
tp27
a(I3
I2
F0.375
g24
I0
tp28
a(I3
I2
F0.25
g26
I0
tp29
a(I1
I4
F0.375
S'new'
p30
I0
tp31
a(I2
I285
F0.875
S'nice'
p32
I0
tp33
a(I3
I0
F0.25
g22
I0
tp34
a(I5
I25
F-0.25
S'higher'
p35
I0
tp36
a(I2
I237
I0
S'such'
p37
I7
tp38
a(I2
I270
I-100
S'design-wise'
p39
I7
tp40
a(I2
I287
I0
S'current'
p41
I7
tp42
a(I2
I287
F1.0
S'best'
p43
I7
tp44
a(I2
I334
F-0.125
S'overall'
p45
I7
tp46
a(I2
I424
F-0.625
S'generous'
p47
I7
tp48
a(I3
I2
F0.375
g24
I7
tp49
a(I3
I2
F0.25
g26
I7
tp50
a(I4
I6
I0
S'least'
p51
I7
tp52
a(I1
I4
F0.375
g30
I0
tp53
a(I5
I25
F-0.25
g35
I0
tp54
as(S'battery'
p55
S'life'
p56
tp57
(lp58
(I0
I9
F-0.5
S'long'
p59
I1
tp60
a(I2
I10
F0.25
S'stellar'
p61
I1
tp62
a(I3
I149
I0
S'same'
p63
I19
tp64
a(I0
I9
F-0.5
g59
I15
tp65
a(I2
I10
F0.25
g61
I15
tp66
a(I2
I93
F0.375
S'extra'
p67
I15
tp68
a(I2
I430
F-0.25
S'lowest'
p69
I15
tp70
as(S'call'
p71
S'quality'
p72
tp73
(lp74
(I2
I209
F1.0
S'good'
p75
I0
tp76
a(I5
I86
F1.0
S'good'
p77
I0
tp78
as(S'quad'
p79
S'core'
p80
tp81
(lp82
(I2
I330
I0
S'quad'
p83
I0
tp84
as(S'camera'
p85
tp86
(lp87
(I2
I88
I0
S'cool'
p88
I1
tp89
a(I3
I3
I0
S'same'
p90
I1
tp91
a(I3
I74
F1.0
S'good'
p92
I1
tp93
a(I3
I74
F-0.625
S'clean'
p94
I1
tp95
as(S'operating'
p96
S'system'
p97
tp98
(lp99
(I5
I108
F0.25
S'responsive'
p100
I2
tp101
a(I5
I108
I0
S'android'
p102
I2
tp103
as(S'iphone'
p104
tp105
(lp106
(I2
I19
I0
S'cool'
p107
I1
tp108
a(I5
I26
I0
S'least'
p109
I1
tp110
a(I5
I53
F0.75
S'fortunate'
p111
I1
tp112
a(I5
I53
F-0.75
S'damaged'
p113
I1
tp114
a(I5
I53
F0.5
S'functional'
p115
I1
tp116
a(I5
I114
F0.125
S'able'
p117
I1
tp118
as(S'memory'
p119
tp120
(lp121
(I3
I94
I0
S'internal'
p122
I5
tp123
as(S'google'
p124
tp125
(lp126
(I2
I147
F0.875
S'music'
p127
I4
tp128
as(S'apple'
p129
tp130
(lp131
(I2
I44
F0.125
S'first'
p132
I4
tp133
a(I2
I235
I0
S'user'
p134
I4
tp135
as(S'stylus'
p136
tp137
(lp138
(I2
I87
F0.125
S'proficient'
p139
I7
tp140
a(I2
I405
F0.5
S'functional'
p141
I7
tp142
as(S'hands'
p143
tp144
(lp145
(I2
I207
I0
S'large'
p146
I15
tp147
a(I2
I341
I0
S'big'
p148
I15
tp149
a(I2
I353
F-0.375
S'small'
p150
I15
tp151
a(I2
I354
I0
S'big'
p152
I15
tp153
a(I2
I361
I0
S'large'
p154
I15
tp155
a(I2
I377
I0
S'big'
p156
I15
tp157
a(I3
I134
F-0.75
S'panic'
p158
I15
tp159
as(S'original'
p160
S'note'
p161
tp162
(lp163
(I1
I46
F0.75
S'fit'
p164
I0
tp165
a(I1
I46
F0.25
S'original'
p166
I0
tp167
a(I2
I63
F0.25
S'original'
p168
I0
tp169
a(I3
I0
F0.25
g22
I0
tp170
a(I3
I3
F0.25
S'original'
p171
I0
tp172
a(I3
I5
F0.25
S'original'
p173
I0
tp174
a(I3
I6
F0.25
S'original'
p175
I0
tp176
a(I3
I26
F0.25
S'original'
p177
I0
tp178
a(I3
I27
F0.25
S'original'
p179
I0
tp180
as(S'functionality'
p181
tp182
(lp183
(I4
I6
I0
S'full'
p184
I5
tp185
a(I4
I12
F0.375
S'much'
p186
I5
tp187
as(S'much'
p188
S'better'
p189
tp190
(lp191
(I1
I14
F0.375
S'much'
p192
I9
tp193
a(I1
I14
F0.375
S'much'
p194
I9
tp195
a(I2
I27
F0.375
S'much'
p196
I9
tp197
a(I5
I87
F0.375
S'much'
p198
I9
tp199
as(S'pocket'
p200
tp201
(lp202
(I2
I59
F-0.375
S'top'
p203
I17
tp204
a(I2
I434
F-0.875
S'negative'
p205
I17
tp206
a(I3
I4
I0
S'more'
p207
I17
tp208
a(I3
I4
F0.625
S'acceptable'
p209
I17
tp210
as(S'internal'
p211
S'storage'
p212
tp213
(lp214
(I3
I86
I0
S'internal'
p215
I0
tp216
a(I3
I90
I0
S'entire'
p217
I0
tp218
a(I3
I90
I0
S'internal'
p219
I0
tp220
a(I3
I99
I0
S'internal'
p221
I0
tp222
a(I3
I99
I0
S'external'
p223
I0
tp224
as(S'apps'
p225
tp226
(lp227
(I0
I23
I0
S'useful'
p228
I0
tp229
a(I2
I48
I0
S'many'
p230
I0
tp231
a(I2
I183
F-0.625
S'free'
p232
I0
tp233
a(I4
I9
F-0.5
S'certain'
p234
I0
tp235
as(S'core'
p236
S'processor'
p237
tp238
(lp239
(I2
I330
I0
g83
I0
tp240
as(S'tablet'
p241
tp242
(lp243
(I5
I51
F0.5
S'functional'
p244
I14
tp245
as.