(dp0
(S'touch'
p1
S'screen'
p2
tp3
(lp4
(I4
I30
F1.0
S'good'
p5
I2
tp6
a(I6
I2
F0.5
S'touch'
p7
I2
tp8
a(I6
I78
F1.0
S'better'
p9
I2
tp10
a(I6
I86
F0.125
S'first'
p11
I2
tp12
a(I6
I86
F0.5
S'touch'
p13
I2
tp14
a(I6
I86
F1.0
S'good'
p15
I2
tp16
a(I6
I155
F0.5
S'touch'
p17
I2
tp18
as(S'area'
p19
S'code'
p20
tp21
(lp22
(I6
I139
I0
S'local'
p23
I0
tp24
as(S'verizon'
p25
tp26
(lp27
(I0
I12
F0.25
S'original'
p28
I0
tp29
a(I0
I12
F-0.5
S'actual'
p30
I0
tp31
a(I2
I10
F0.375
S'new'
p32
I0
tp33
a(I4
I2
F0.125
S'able'
p34
I0
tp35
a(I4
I2
F0.125
S'able'
p36
I0
tp37
a(I4
I9
F0.125
S'able'
p38
I0
tp39
a(I4
I26
F0.125
S'able'
p40
I0
tp41
a(I5
I13
F-0.75
S'unable'
p42
I0
tp43
a(I6
I102
I0
S'nervous'
p44
I0
tp45
a(I6
I102
F-0.5
S'sure'
p46
I0
tp47
a(I6
I102
F0.125
S'able'
p48
I0
tp49
a(I6
I108
I0
S'spoke'
p50
I0
tp51
as(S'battery'
p52
S'life'
p53
tp54
(lp55
(I2
I8
F-0.75
S'short'
p56
I1
tp57
a(I3
I0
I0
S'great'
p58
I1
tp59
a(I4
I1
F-0.75
S'short'
p60
I1
tp61
a(I0
I4
F0.375
S'new'
p62
I15
tp63
as.