(dp0
(S'nice'
p1
tp2
(lp3
(I174
I1
I0
S'big'
p4
tp5
a(I297
I2
F0.375
S'honest'
p6
tp7
a(I449
I2
I0
S'big'
p8
tp9
as(S'reviews'
p10
tp11
(lp12
(I49
I5
F-0.625
S'bad'
p13
tp14
a(I87
I4
I0
S'great'
p15
tp16
a(I99
I7
F-0.5
S'less'
p17
tp18
a(I99
I19
F-0.625
S'bad'
p19
tp20
a(I103
I4
F-0.625
S'bad'
p21
tp22
a(I103
I4
F1.0
S'good'
p23
tp24
a(I146
I3
F0.75
S'due'
p25
tp26
a(I146
I3
F-0.625
S'bad'
p27
tp28
a(I146
I11
F0.75
S'due'
p29
tp30
a(I153
I1
I0
S'earlier'
p31
tp32
a(I205
I1
F0.625
S'aware'
p33
tp34
a(I258
I2
F1.0
S'good'
p35
tp36
a(I278
I0
I0
S'write'
p37
tp38
a(I326
I1
F-0.625
S'other'
p39
tp40
a(I385
I1
F1.0
S'good'
p41
tp42
a(I389
I0
F-0.625
S'bad'
p43
tp44
a(I412
I24
I0
S'update'
p45
tp46
a(I477
I5
F-0.125
S'overall'
p47
tp48
a(I477
I5
F1.0
S'good'
p49
tp50
a(I570
I11
F-0.625
S'other'
p51
tp52
a(I598
I4
F0.625
S'kind'
p53
tp54
a(I598
I4
F0.375
S'scared'
p55
tp56
a(I598
I4
I0
S'many'
p57
tp58
a(I598
I4
F1.0
S'good'
p59
tp60
a(I634
I62
F-0.875
S'negative'
p61
tp62
a(I654
I8
F-0.625
S'other'
p63
tp64
a(I654
I8
I0
S'most'
p65
tp66
a(I708
I2
F-0.875
S'negative'
p67
tp68
a(I708
I5
I0
S'few'
p69
tp70
a(I708
I5
F-0.875
S'negative'
p71
tp72
a(I708
I15
F-0.875
S'negative'
p73
tp74
a(I733
I8
F-0.625
S'other'
p75
tp76
a(I763
I4
F-0.625
S'other'
p77
tp78
as(S'a'
p79
S'hard'
p80
S'time'
p81
tp82
(lp83
(I0
I0
F-0.625
S'other'
p84
tp85
a(I0
I0
F0.625
S'easy'
p86
tp87
a(I100
I0
F-0.875
S'hard'
p88
tp89
a(I113
I0
F-0.875
S'hard'
p90
tp91
a(I113
I0
F0.125
S'first'
p92
tp93
a(I115
I15
F-0.875
S'hardest'
p94
tp95
a(I304
I2
F-0.875
S'hard'
p96
tp97
a(I310
I10
F-0.875
S'hard'
p98
tp99
a(I325
I1
F-0.875
S'hard'
p100
tp101
a(I343
I3
F0.625
S'easy'
p102
tp103
a(I529
I3
F-0.875
S'hard'
p104
tp105
a(I538
I4
I0
S'such'
p106
tp107
a(I538
I4
F-0.875
S'hard'
p108
tp109
a(I658
I21
F-0.875
S'hard'
p110
tp111
a(I658
I29
F-0.875
S'hard'
p112
tp113
a(I658
I33
F-0.875
S'hard'
p114
tp115
as(S'update'
p116
tp117
(lp118
(I145
I0
F0.5
S'second'
p119
tp120
a(I257
I0
I0
S'signal'
p121
tp122
a(I482
I15
I0
S'android'
p123
tp124
a(I595
I0
F0.875
S'important'
p125
tp126
as(S'with'
p127
S'straight'
p128
S'talk'
p129
tp130
(lp131
(I37
I0
F0.625
S'straight'
p132
tp133
a(I63
I0
F0.625
S'straight'
p134
tp135
a(I103
I10
F0.625
S'straight'
p136
tp137
a(I146
I9
F0.625
S'straight'
p138
tp139
a(I152
I1
F0.625
S'straight'
p140
tp141
a(I212
I0
F0.625
S'straight'
p142
tp143
a(I222
I12
F0.625
S'straight'
p144
tp145
a(I222
I12
F-0.375
S'simple'
p146
tp147
a(I286
I0
F0.625
S'straight'
p148
tp149
a(I329
I2
F0.625
S'straight'
p150
tp151
a(I340
I0
F0.625
S'straight'
p152
tp153
a(I342
I4
F0.625
S'straight'
p154
tp155
a(I342
I5
F0.625
S'straight'
p156
tp157
a(I346
I1
F0.625
S'straight'
p158
tp159
a(I346
I1
F0.625
S'straight'
p160
tp161
a(I346
I1
F0.5
S'expensive'
p162
tp163
a(I346
I4
F0.625
S'straight'
p164
tp165
a(I377
I0
F0.625
S'straight'
p166
tp167
a(I383
I0
F0.625
S'straight'
p168
tp169
a(I388
I0
F0.625
S'straight'
p170
tp171
a(I482
I15
F0.625
S'straight'
p172
tp173
a(I482
I35
F0.625
S'straight'
p174
tp175
a(I483
I13
I0
S'different'
p176
tp177
a(I483
I13
F0.625
S'straight'
p178
tp179
a(I664
I8
F0.625
S'straight'
p180
tp181
a(I692
I3
F0.625
S'straight'
p182
tp183
a(I708
I14
I0
S'old'
p184
tp185
a(I708
I15
F0.625
S'straight'
p186
tp187
a(I708
I51
F-0.75
S'single'
p188
tp189
a(I742
I4
F0.625
S'straight'
p190
tp191
a(I762
I1
F0.625
S'straight'
p192
tp193
a(I763
I2
F0.625
S'straight'
p194
tp195
as(S'operating'
p196
S'system'
p197
tp198
(lp199
(I337
I0
I0
S'android'
p200
tp201
a(I384
I0
F0.375
S'similar'
p202
tp203
as(S'quality'
p204
tp205
(lp206
(I26
I0
F-0.5
S'poor'
p207
tp208
a(I26
I0
F-0.25
S'low'
p209
tp210
a(I28
I0
F1.0
S'good'
p211
tp212
a(I42
I10
F-0.25
S'highest'
p213
tp214
a(I42
I10
F1.0
S'good'
p215
tp216
a(I55
I1
F1.0
S'best'
p217
tp218
a(I72
I6
I0
S'same'
p219
tp220
a(I74
I2
F-0.125
S'overall'
p221
tp222
a(I77
I3
F0.875
S'nice'
p223
tp224
a(I105
I1
F0.875
S'nice'
p225
tp226
a(I115
I5
F1.0
S'good'
p227
tp228
a(I115
I10
I0
S'signal'
p229
tp230
a(I115
I10
I0
S'great'
p231
tp232
a(I142
I8
F-0.875
S'worst'
p233
tp234
a(I172
I0
F1.0
S'good'
p235
tp236
a(I222
I14
F1.0
S'good'
p237
tp238
a(I222
I14
I0
S'great'
p239
tp240
a(I242
I3
F-0.5
S'poor'
p241
tp242
a(I251
I14
F-0.5
S'call'
p243
tp244
a(I271
I3
F-0.125
S'overall'
p245
tp246
a(I272
I0
F1.0
S'good'
p247
tp248
a(I301
I22
I0
S'big'
p249
tp250
a(I310
I10
F-0.875
S'awful'
p251
tp252
a(I310
I10
F-0.75
S'worse'
p253
tp254
a(I324
I4
I0
S'great'
p255
tp256
a(I340
I0
I0
S'great'
p257
tp258
a(I356
I0
F-0.625
S'bad'
p259
tp260
a(I361
I11
F0.375
S'similar'
p261
tp262
a(I372
I14
F1.0
S'good'
p263
tp264
a(I400
I20
F-0.125
S'overall'
p265
tp266
a(I400
I20
F1.0
S'good'
p267
tp268
a(I405
I4
F1.0
S'good'
p269
tp270
a(I405
I4
F-0.375
S'serious'
p271
tp272
a(I415
I5
F-0.75
S'bright'
p273
tp274
a(I415
I5
F-0.625
S'light'
p275
tp276
a(I415
I5
F1.0
S'good'
p277
tp278
a(I445
I2
F1.0
S'good'
p279
tp280
a(I447
I1
F1.0
S'good'
p281
tp282
a(I461
I5
F-0.5
S'poor'
p283
tp284
a(I463
I1
I0
S'questionable'
p285
tp286
a(I482
I25
F1.0
S'good'
p287
tp288
a(I482
I26
F1.0
S'good'
p289
tp290
a(I482
I28
F0.625
S'fair'
p291
tp292
a(I504
I2
I0
S'great'
p293
tp294
a(I518
I7
F-0.625
S'bad'
p295
tp296
a(I530
I2
F1.0
S'good'
p297
tp298
a(I538
I1
I0
S'great'
p299
tp300
a(I558
I19
F-0.5
S'call'
p301
tp302
a(I619
I2
F-0.25
S'low'
p303
tp304
a(I628
I8
F0.25
S'sharp'
p305
tp306
a(I634
I23
F-0.25
S'low'
p307
tp308
a(I638
I17
F-0.625
S'average'
p309
tp310
a(I639
I1
F-0.5
S'poor'
p311
tp312
a(I640
I3
F-0.25
S'low'
p313
tp314
a(I658
I58
F0.125
S'first'
p315
tp316
a(I671
I0
F1.0
S'good'
p317
tp318
a(I700
I6
F1.0
S'good'
p319
tp320
a(I706
I0
F-0.625
S'bad'
p321
tp322
a(I708
I29
F1.0
S'good'
p323
tp324
a(I714
I2
I0
S'great'
p325
tp326
a(I718
I1
I0
S'great'
p327
tp328
a(I721
I1
F-0.25
S'cheaper'
p329
tp330
a(I745
I0
F-0.25
S'low'
p331
tp332
a(I764
I3
F-0.25
S'lower'
p333
tp334
as(S'sd'
p335
S'card'
p336
tp337
(lp338
(I93
I2
I0
S'sd'
p339
tp340
a(I220
I5
F0.75
S'due'
p341
tp342
a(I238
I3
F-0.625
S'other'
p343
tp344
a(I487
I0
F0.25
S'read'
p345
tp346
a(I708
I46
F0.25
S'larger'
p347
tp348
as(S'weeks'
p349
tp350
(lp351
(I92
I1
I0
S'faster'
p352
tp353
a(I144
I14
F1.0
S'good'
p354
tp355
a(I184
I10
F0.125
S'first'
p356
tp357
a(I220
I2
I0
S'great'
p358
tp359
a(I370
I0
I0
S'few'
p360
tp361
a(I415
I6
F-0.5
S'less'
p362
tp363
a(I428
I0
F-0.5
S'sure'
p364
tp365
a(I497
I1
F1.0
S'good'
p366
tp367
a(I500
I3
F0.5
S'whole'
p368
tp369
a(I634
I2
I0
S'later'
p370
tp371
a(I681
I4
I0
S'later'
p372
tp373
a(I715
I0
I0
S'few'
p374
tp375
a(I715
I1
I0
S'few'
p376
tp377
a(I715
I1
I0
S'later'
p378
tp379
a(I740
I0
I0
S'few'
p380
tp381
a(I742
I0
I0
S'great'
p382
tp383
a(I744
I1
I0
S'arrive'
p384
tp385
as(S'case'
p386
tp387
(lp388
(I10
I5
I0
S'plastic'
p389
tp390
a(I10
I6
F-0.75
S'little'
p391
tp392
a(I16
I1
F0.5
S'clear'
p393
tp394
a(I22
I2
F0.875
S'nice'
p395
tp396
a(I31
I1
F-0.625
S'free'
p397
tp398
a(I80
I5
F0.5
S'clear'
p399
tp400
a(I143
I6
I0
S'own'
p401
tp402
a(I144
I13
F-0.875
S'hard'
p403
tp404
a(I151
I1
F0.875
S'nice'
p405
tp406
a(I203
I3
F0.125
S'able'
p407
tp408
a(I203
I3
F1.0
S'good'
p409
tp410
a(I203
I3
F-0.625
S'other'
p411
tp412
a(I251
I13
F-0.875
S'hard'
p413
tp414
a(I352
I0
I0
S'big'
p415
tp416
a(I423
I0
F-0.875
S'hard'
p417
tp418
a(I442
I1
F-0.875
S'hard'
p419
tp420
a(I451
I2
F0.875
S'nice'
p421
tp422
a(I538
I3
F0.5
S'clear'
p423
tp424
a(I538
I3
F-0.875
S'hard'
p425
tp426
a(I628
I19
F-0.875
S'hard'
p427
tp428
a(I653
I5
F-0.875
S'worst'
p429
tp430
a(I654
I7
F-0.5
S'sure'
p431
tp432
a(I658
I5
F0.125
S'protective'
p433
tp434
a(I658
I15
F0.375
S'tight'
p435
tp436
a(I667
I2
F-0.625
S'other'
p437
tp438
a(I674
I4
F0.125
S'protective'
p439
tp440
a(I692
I12
F-0.875
S'hard'
p441
tp442
a(I737
I0
F0.125
S'able'
p443
tp444
as(S'dial'
p445
S'pad'
p446
tp447
(lp448
(I267
I24
I0
S'dial'
p449
tp450
a(I267
I25
I0
S'dial'
p451
tp452
as(S'big'
p453
S'screen'
p454
tp455
(lp456
(I44
I1
I0
S'big'
p457
tp458
a(I71
I0
I0
S'big'
p459
tp460
a(I71
I0
F1.0
S'better'
p461
tp462
a(I77
I3
I0
S'big'
p463
tp464
a(I113
I5
I0
S'big'
p465
tp466
a(I143
I3
I0
S'big'
p467
tp468
a(I143
I3
F-0.75
S'bright'
p469
tp470
a(I143
I3
F0.5
S'clear'
p471
tp472
a(I145
I17
F0.25
S'bigger'
p473
tp474
a(I156
I0
I0
S'big'
p475
tp476
a(I168
I2
I0
S'big'
p477
tp478
a(I172
I0
I0
S'big'
p479
tp480
a(I195
I0
I0
S'big'
p481
tp482
a(I222
I13
I0
S'big'
p483
tp484
a(I272
I0
I0
S'big'
p485
tp486
a(I284
I2
I0
S'big'
p487
tp488
a(I287
I2
I0
S'big'
p489
tp490
a(I304
I1
I0
S'big'
p491
tp492
a(I304
I1
F0.875
S'nice'
p493
tp494
a(I414
I0
I0
S'big'
p495
tp496
a(I417
I1
F0.875
S'nice'
p497
tp498
a(I417
I1
I0
S'big'
p499
tp500
a(I447
I2
I0
S'big'
p501
tp502
a(I447
I2
F0.75
S'beautiful'
p503
tp504
a(I499
I0
I0
S'big'
p505
tp506
a(I499
I0
F-0.75
S'bright'
p507
tp508
a(I533
I1
I0
S'big'
p509
tp510
a(I540
I0
I0
S'big'
p511
tp512
a(I540
I0
F-0.625
S'other'
p513
tp514
a(I549
I3
I0
S'big'
p515
tp516
a(I549
I3
F0.875
S'nice'
p517
tp518
a(I580
I0
I0
S'big'
p519
tp520
a(I594
I0
I0
S'big'
p521
tp522
a(I599
I1
I0
S'big'
p523
tp524
a(I600
I2
I0
S'big'
p525
tp526
a(I611
I3
I0
S'big'
p527
tp528
a(I617
I2
I0
S'big'
p529
tp530
a(I617
I2
F0.875
S'nice'
p531
tp532
a(I617
I2
F0.625
S'easy'
p533
tp534
a(I661
I0
I0
S'real'
p535
tp536
a(I661
I0
I0
S'big'
p537
tp538
a(I719
I0
I0
S'big'
p539
tp540
as(S'note'
p541
tp542
(lp543
(I10
I1
I0
S'android'
p544
tp545
a(I73
I0
F0.75
S'fit'
p546
tp547
a(I99
I0
F0.125
S'first'
p548
tp549
a(I99
I21
F-0.5
S'actual'
p550
tp551
a(I99
I21
F0.75
S'due'
p552
tp553
a(I112
I1
F0.625
S'correct'
p554
tp555
a(I151
I0
F-0.5
S'regular'
p556
tp557
a(I157
I1
F0.25
S'original'
p558
tp559
a(I201
I0
I0
S'same'
p560
tp561
a(I248
I0
F-0.5
S'sure'
p562
tp563
a(I249
I0
F0.25
S'original'
p564
tp565
a(I267
I22
F0.25
S'bigger'
p566
tp567
a(I272
I0
F0.375
S'similar'
p568
tp569
a(I301
I4
I0
S'many'
p570
tp571
a(I301
I23
I0
S'real'
p572
tp573
a(I310
I0
F-0.75
S'little'
p574
tp575
a(I327
I3
F0.25
S'original'
p576
tp577
a(I352
I0
I0
S'android'
p578
tp579
a(I374
I1
F-0.75
S'little'
p580
tp581
a(I376
I0
F-0.5
S'actual'
p582
tp583
a(I447
I1
I0
S'fast'
p584
tp585
a(I458
I2
F0.625
S'aware'
p586
tp587
a(I590
I0
F-0.5
S'actual'
p588
tp589
a(I658
I10
F-0.375
S'smaller'
p590
tp591
a(I693
I2
F0.25
S'bigger'
p592
tp593
as(S'sim'
p594
S'card'
p595
tp596
(lp597
(I9
I1
F-0.875
S'hard'
p598
tp599
a(I69
I1
F-0.5
S'open'
p600
tp601
a(I79
I0
F-0.75
S'worse'
p602
tp603
a(I91
I1
F-0.5
S'long'
p604
tp605
a(I142
I3
F0.125
S'able'
p606
tp607
a(I152
I1
F-0.375
S'small'
p608
tp609
a(I173
I1
F0.375
S'extra'
p610
tp611
a(I267
I1
F0.125
S'first'
p612
tp613
a(I336
I0
F1.0
S'best'
p614
tp615
a(I336
I0
F-0.375
S'double'
p616
tp617
a(I336
I0
F-0.375
S'double'
p618
tp619
a(I367
I8
F0.5
S'second'
p620
tp621
a(I367
I8
F0.5
S'second'
p622
tp623
a(I385
I0
I0
S'different'
p624
tp625
a(I407
I3
F0.125
S'first'
p626
tp627
a(I440
I1
F-0.375
S'simple'
p628
tp629
a(I440
I1
I0
S'mobile'
p630
tp631
a(I446
I1
F-0.25
S'inserted'
p632
tp633
a(I477
I1
F0.25
S'larger'
p634
tp635
a(I585
I23
I0
S'old'
p636
tp637
a(I588
I0
I0
S'least'
p638
tp639
a(I594
I0
F0.625
S'perfect'
p640
tp641
a(I596
I1
F-0.375
S'simple'
p642
tp643
a(I619
I2
F-0.375
S'double'
p644
tp645
a(I629
I0
F0.375
S'new'
p646
tp647
a(I629
I0
I0
S'same'
p648
tp649
a(I629
I0
F0.5
S'rid'
p650
tp651
a(I638
I4
F-0.5
S'regular'
p652
tp653
a(I638
I4
I0
S'old'
p654
tp655
a(I672
I4
I0
S'old'
p656
tp657
a(I692
I3
F-0.5
S'regular'
p658
tp659
a(I708
I3
F0.125
S'first'
p660
tp661
a(I728
I0
F-0.375
S'simple'
p662
tp663
as(S'united'
p664
S'states'
p665
tp666
(lp667
(I366
I0
F1.0
S'better'
p668
tp669
as(S'charge'
p670
tp671
(lp672
(I10
I14
F-0.625
S'free'
p673
tp674
a(I64
I5
I0
S'full'
p675
tp676
a(I529
I4
F-0.625
S'other'
p677
tp678
a(I566
I9
I0
S'european'
p679
tp680
as(S'waste'
p681
S'of'
p682
S'money'
p683
tp684
(lp685
(I318
I2
F-0.625
S'want'
p686
tp687
a(I328
I0
I0
S'own'
p688
tp689
a(I613
I0
F0.75
S'worth'
p690
tp691
a(I613
I0
F0.75
S'worth'
p692
tp693
as(S'pretty'
p694
tp695
(lp696
(I222
I2
I0
S'signal'
p697
tp698
a(I472
I4
F-0.625
S'other'
p699
tp700
a(I598
I24
F0.125
S'last'
p701
tp702
a(I598
I24
F1.0
S'good'
p703
tp704
as(S'picture'
p705
tp706
(lp707
(I4
I2
F0.75
S'receive'
p708
tp709
a(I98
I3
F1.0
S'good'
p710
tp711
a(I98
I3
F0.5
S'second'
p712
tp713
a(I265
I1
F-0.75
S'unable'
p714
tp715
a(I372
I3
F1.0
S'good'
p716
tp717
a(I486
I0
F1.0
S'good'
p718
tp719
a(I608
I0
F0.75
S'receive'
p720
tp721
a(I706
I2
F-0.5
S'regular'
p722
tp723
a(I708
I10
I0
S'great'
p724
tp725
as(S'months'
p726
tp727
(lp728
(I6
I1
F-0.5
S'less'
p729
tp730
a(I145
I2
F-0.5
S'less'
p731
tp732
a(I218
I0
I0
S'such'
p733
tp734
a(I277
I0
I0
S'few'
p735
tp736
a(I290
I0
I0
S'few'
p737
tp738
a(I293
I1
I0
S'few'
p739
tp740
a(I293
I1
I0
S'later'
p741
tp742
a(I328
I0
I0
S'few'
p743
tp744
a(I343
I1
I0
S'few'
p745
tp746
a(I482
I3
F-0.25
S'past'
p747
tp748
a(I504
I3
I0
S'later'
p749
tp750
a(I511
I1
I0
S'great'
p751
tp752
a(I512
I13
F-0.5
S'less'
p753
tp754
a(I599
I0
I0
S'few'
p755
tp756
a(I664
I3
I0
S'old'
p757
tp758
as(S'wi'
p759
S'fi'
p760
tp761
(lp762
(I44
I0
F0.125
S'able'
p763
tp764
as(S'card'
p765
tp766
(lp767
(I9
I1
F-0.875
g598
tp768
a(I93
I2
I0
g339
tp769
a(I142
I3
F0.125
g606
tp770
a(I220
I5
F0.75
g341
tp771
a(I238
I3
F-0.625
g343
tp772
a(I433
I5
I0
S'anymore'
p773
tp774
a(I588
I0
I0
g638
tp775
a(I594
I0
F0.625
g640
tp776
a(I595
I7
I0
S'movable'
p777
tp778
a(I595
I7
F-0.625
S'free'
p779
tp780
a(I596
I1
F-0.375
g642
tp781
a(I629
I0
I0
g648
tp782
a(I629
I0
F0.5
g650
tp783
a(I728
I0
F-0.375
g662
tp784
as(S'love'
p785
tp786
(lp787
(I88
I0
I0
S'fast'
p788
tp789
a(I223
I0
F0.5
S'absolute'
p790
tp791
a(I507
I0
F1.0
S'good'
p792
tp793
as(S'wifi'
p794
tp795
(lp796
(I148
I2
I0
S'fast'
p797
tp798
a(I184
I10
I0
S'fast'
p799
tp800
a(I184
I10
I0
S'great'
p801
tp802
a(I190
I7
I0
S'faster'
p803
tp804
a(I251
I8
I0
S'quick'
p805
tp806
a(I258
I2
F-0.25
S'low'
p807
tp808
a(I399
I4
F-0.125
S'slow'
p809
tp810
a(I399
I4
F0.875
S'lucky'
p811
tp812
a(I413
I3
F1.0
S'good'
p813
tp814
a(I498
I2
F-0.125
S'overall'
p815
tp816
a(I499
I0
F1.0
S'good'
p817
tp818
a(I558
I15
F0.875
S'lucky'
p819
tp820
a(I654
I6
I0
S'great'
p821
tp822
a(I671
I0
I0
S'great'
p823
tp824
a(I697
I1
F-0.25
S'low'
p825
tp826
a(I740
I4
F-0.125
S'private'
p827
tp828
a(I749
I1
F-0.5
S'weak'
p829
tp830
as(S'auxillary'
p831
S'cord'
p832
tp833
(lp834
(I549
I8
I0
S'standard'
p835
tp836
as(S'fast'
p837
tp838
(lp839
(I333
I2
F0.375
S'reliable'
p840
tp841
a(I400
I10
F-0.125
S'super'
p842
tp843
as(S'problem'
p844
tp845
(lp846
(I69
I8
F-0.125
S'overall'
p847
tp848
a(I98
I1
F0.375
S'extra'
p849
tp850
a(I179
I1
I0
S'only'
p851
tp852
a(I260
I5
I0
S'only'
p853
tp854
a(I270
I0
F1.0
S'good'
p855
tp856
a(I349
I8
F-0.875
S'worst'
p857
tp858
a(I370
I3
F-0.625
S'other'
p859
tp860
a(I428
I3
I0
S'only'
p861
tp862
a(I452
I2
F-0.25
S'white'
p863
tp864
a(I486
I2
F-0.625
S'free'
p865
tp866
a(I489
I0
I0
S'only'
p867
tp868
a(I563
I0
I0
S'only'
p869
tp870
a(I566
I7
I0
S'same'
p871
tp872
a(I607
I2
I0
S'only'
p873
tp874
a(I607
I4
I0
S'only'
p875
tp876
a(I608
I0
I0
S'only'
p877
tp878
a(I682
I1
I0
S'only'
p879
tp880
a(I706
I4
F0.25
S'main'
p881
tp882
a(I712
I4
F-0.625
S'bad'
p883
tp884
as(S'headphones'
p885
tp886
(lp887
(I167
I3
I0
S'chinese'
p888
tp889
a(I412
I14
I0
S'great'
p890
tp891
a(I421
I1
I0
S'most'
p892
tp893
a(I444
I4
F1.0
S'good'
p894
tp895
a(I444
I8
F-0.875
S'stick'
p896
tp897
a(I444
I12
F-0.625
S'other'
p898
tp899
a(I490
I2
F0.125
S'first'
p900
tp901
a(I566
I9
F-0.25
S'white'
p902
tp903
a(I601
I5
F-0.625
S'other'
p904
tp905
a(I601
I5
I0
S'standard'
p906
tp907
a(I601
I5
F-0.5
S'long'
p908
tp909
a(I708
I24
F-0.625
S'other'
p910
tp911
a(I713
I14
F-0.125
S'universal'
p912
tp913
a(I721
I2
F0.125
S'charger'
p914
tp915
a(I725
I6
I0
S'basic'
p916
tp917
a(I725
I6
F-0.375
S'small'
p918
tp919
as(S'money'
p920
tp921
(lp922
(I34
I0
F0.75
S'worth'
p923
tp924
a(I34
I0
F0.625
S'aware'
p925
tp926
a(I110
I2
F0.375
S'extra'
p927
tp928
a(I184
I12
F0.375
S'much'
p929
tp930
a(I227
I1
F0.75
S'worth'
p931
tp932
a(I257
I0
I0
S'trash'
p933
tp934
a(I318
I2
F-0.625
g686
tp935
a(I328
I0
I0
g688
tp936
a(I404
I6
F0.75
S'worth'
p937
tp938
a(I445
I1
F-0.5
S'less'
p939
tp940
a(I501
I2
I0
S'waist'
p941
tp942
a(I501
I2
F0.5
S'second'
p943
tp944
a(I501
I3
F0.375
S'extra'
p945
tp946
a(I526
I6
F0.375
S'extra'
p947
tp948
a(I532
I3
F0.875
S'happy'
p949
tp950
a(I597
I0
F-0.75
S'wrong'
p951
tp952
a(I613
I0
F0.75
g690
tp953
a(I613
I0
F0.75
g692
tp954
a(I619
I3
F-0.125
S'overall'
p955
tp956
a(I619
I3
F-0.25
S'disappointing'
p957
tp958
a(I619
I3
F0.75
S'worth'
p959
tp960
a(I658
I1
F0.75
S'worth'
p961
tp962
a(I659
I6
I0
S'more'
p963
tp964
a(I663
I0
F0.625
S'major'
p965
tp966
a(I694
I2
I0
S'legal'
p967
tp968
as(S'happy'
p969
tp970
(lp971
(I23
I10
F0.875
S'nice'
p972
tp973
as(S'price'
p974
tp975
(lp976
(I26
I0
F-0.25
S'lower'
p977
tp978
a(I87
I0
I0
S'great'
p979
tp980
a(I87
I12
I0
S'close'
p981
tp982
a(I113
I6
F1.0
S'good'
p983
tp984
a(I137
I8
F0.875
S'worthy'
p985
tp986
a(I148
I1
F-0.25
S'cheaper'
p987
tp988
a(I156
I6
F0.875
S'nice'
p989
tp990
a(I159
I1
F-0.25
S'low'
p991
tp992
a(I173
I3
F-0.5
S'less'
p993
tp994
a(I188
I2
I0
S'great'
p995
tp996
a(I202
I0
I0
S'great'
p997
tp998
a(I218
I0
F-0.25
S'low'
p999
tp1000
a(I233
I1
F0.75
S'worth'
p1001
tp1002
a(I243
I0
F1.0
S'good'
p1003
tp1004
a(I254
I0
F-0.125
S'slow'
p1005
tp1006
a(I254
I0
F1.0
S'good'
p1007
tp1008
a(I258
I4
F0.375
S'similar'
p1009
tp1010
a(I278
I3
F-0.625
S'other'
p1011
tp1012
a(I278
I3
F1.0
S'good'
p1013
tp1014
a(I372
I11
F-0.25
S'lower'
p1015
tp1016
a(I379
I13
I0
S'great'
p1017
tp1018
a(I387
I0
F0.875
S'nice'
p1019
tp1020
a(I404
I7
F1.0
S'good'
p1021
tp1022
a(I424
I0
F1.0
S'good'
p1023
tp1024
a(I437
I0
F1.0
S'good'
p1025
tp1026
a(I447
I0
I0
S'great'
p1027
tp1028
a(I462
I2
I0
S'great'
p1029
tp1030
a(I510
I0
I0
S'great'
p1031
tp1032
a(I526
I7
F1.0
S'good'
p1033
tp1034
a(I534
I0
F0.75
S'worth'
p1035
tp1036
a(I548
I0
I0
S'great'
p1037
tp1038
a(I549
I20
F-0.25
S'cheaper'
p1039
tp1040
a(I552
I4
I0
S'full'
p1041
tp1042
a(I556
I2
F-0.25
S'late'
p1043
tp1044
a(I556
I2
I0
S'great'
p1045
tp1046
a(I556
I2
F1.0
S'good'
p1047
tp1048
a(I562
I0
I0
S'great'
p1049
tp1050
a(I600
I3
F-0.5
S'less'
p1051
tp1052
a(I606
I0
F0.875
S'nice'
p1053
tp1054
a(I623
I2
I0
S'great'
p1055
tp1056
a(I730
I3
F1.0
S'good'
p1057
tp1058
as(S'service'
p1059
tp1060
(lp1061
(I52
I1
F0.625
S'easy'
p1062
tp1063
a(I61
I1
F1.0
S'good'
p1064
tp1065
a(I141
I50
F0.375
S'available'
p1066
tp1067
a(I188
I0
I0
S'great'
p1068
tp1069
a(I188
I0
I0
S'great'
p1070
tp1071
a(I248
I3
F0.375
S'reliable'
p1072
tp1073
a(I333
I0
I0
S'great'
p1074
tp1075
a(I342
I7
I0
S'cellular'
p1076
tp1077
a(I354
I0
F-0.875
S'awful'
p1078
tp1079
a(I373
I1
F-0.875
S'awful'
p1080
tp1081
a(I404
I3
F-0.125
S'overall'
p1082
tp1083
a(I459
I5
F0.5
S'compatible'
p1084
tp1085
a(I558
I16
F0.5
S'told'
p1086
tp1087
a(I595
I4
F-0.5
S'sure'
p1088
tp1089
a(I614
I2
I0
S'great'
p1090
tp1091
a(I625
I1
I0
S'prompt'
p1092
tp1093
a(I733
I3
F0.125
S'first'
p1094
tp1095
a(I742
I5
F0.25
S'helpful'
p1096
tp1097
a(I762
I2
F-0.875
S'awful'
p1098
tp1099
a(I763
I2
F1.0
S'good'
p1100
tp1101
as(S'getting'
p1102
tp1103
(lp1104
(I46
I2
F-0.875
S'trouble'
p1105
tp1106
as(S'need'
p1107
tp1108
(lp1109
(I99
I4
I0
S'third'
p1110
tp1111
a(I656
I1
F-0.625
S'other'
p1112
tp1113
as(S'memory'
p1114
tp1115
(lp1116
(I19
I4
I0
S'same'
p1117
tp1118
a(I19
I4
I0
S'more'
p1119
tp1120
a(I40
I4
F0.375
S'much'
p1121
tp1122
a(I83
I1
F-0.375
S'small'
p1123
tp1124
a(I83
I1
F-0.125
S'slow'
p1125
tp1126
a(I86
I1
F1.0
S'good'
p1127
tp1128
a(I124
I0
F-0.75
S'wrong'
p1129
tp1130
a(I191
I2
I0
S'internal'
p1131
tp1132
a(I220
I4
F-0.25
S'low'
p1133
tp1134
a(I220
I5
I0
S'internal'
p1135
tp1136
a(I220
I5
I0
S'full'
p1137
tp1138
a(I220
I6
I0
S'more'
p1139
tp1140
a(I220
I6
I0
S'internal'
p1141
tp1142
a(I222
I4
F-0.25
S'intensive'
p1143
tp1144
a(I239
I2
I0
S'full'
p1145
tp1146
a(I281
I1
I0
S'full'
p1147
tp1148
a(I293
I1
F-0.25
S'low'
p1149
tp1150
a(I293
I1
I0
S'internal'
p1151
tp1152
a(I293
I1
I0
S'such'
p1153
tp1154
a(I302
I1
I0
S'internal'
p1155
tp1156
a(I311
I1
I0
S'more'
p1157
tp1158
a(I311
I1
I0
S'internal'
p1159
tp1160
a(I311
I1
F0.625
S'perfect'
p1161
tp1162
a(I356
I0
I0
S'internal'
p1163
tp1164
a(I356
I0
F-0.25
S'low'
p1165
tp1166
a(I400
I35
F-0.25
S'low'
p1167
tp1168
a(I400
I35
I0
S'quick'
p1169
tp1170
a(I499
I0
I0
S'internal'
p1171
tp1172
a(I525
I7
F0.125
S'native'
p1173
tp1174
a(I576
I0
F-0.25
S'low'
p1175
tp1176
a(I609
I2
F0.5
S'greater'
p1177
tp1178
a(I617
I2
I0
S'fast'
p1179
tp1180
a(I618
I2
I0
S'more'
p1181
tp1182
a(I658
I24
I0
S'internal'
p1183
tp1184
a(I658
I26
I0
S'internal'
p1185
tp1186
a(I663
I0
F-0.375
S'small'
p1187
tp1188
a(I664
I10
I0
S'internal'
p1189
tp1190
a(I664
I23
F0.75
S'due'
p1191
tp1192
a(I664
I23
F-0.25
S'low'
p1193
tp1194
a(I664
I23
I0
S'internal'
p1195
tp1196
a(I684
I1
F-0.75
S'little'
p1197
tp1198
a(I684
I1
I0
S'internal'
p1199
tp1200
a(I706
I4
I0
S'internal'
p1201
tp1202
a(I708
I48
I0
S'more'
p1203
tp1204
a(I740
I3
F0.375
S'extra'
p1205
tp1206
a(I746
I1
F-0.25
S'low'
p1207
tp1208
a(I746
I1
I0
S'internal'
p1209
tp1210
as(S'make'
p1211
g79
S'call'
p1212
tp1213
(lp1214
(I3
I2
F0.75
S'worth'
p1215
tp1216
a(I48
I1
I0
S'more'
p1217
tp1218
a(I349
I5
F-0.875
S'trouble'
p1219
tp1220
a(I349
I5
F0.75
S'receive'
p1221
tp1222
a(I595
I4
F0.5
S'second'
p1223
tp1224
as(S'right'
p1225
tp1226
(lp1227
(I570
I5
I0
S'great'
p1228
tp1229
as(S'straight'
p1230
tp1231
(lp1232
(I564
I1
F0.125
S'able'
p1233
tp1234
a(I708
I14
I0
g184
tp1235
a(I708
I51
F-0.75
g188
tp1236
as(g79
S'samsung'
p1237
S'galaxy'
p1238
tp1239
(lp1240
(I141
I25
F0.375
S'interesting'
p1241
tp1242
a(I499
I0
F0.125
S'first'
p1243
tp1244
a(I499
I0
F1.0
S'good'
p1245
tp1246
as(S'cover'
p1247
tp1248
(lp1249
(I128
I1
F-0.875
S'hard'
p1250
tp1251
a(I146
I6
F-0.5
S'flimsy'
p1252
tp1253
a(I248
I4
I0
S'plate'
p1254
tp1255
a(I282
I2
F-0.875
S'hard'
p1256
tp1257
a(I296
I1
I0
S'full'
p1258
tp1259
a(I399
I2
F-0.625
S'other'
p1260
tp1261
a(I537
I7
F0.625
S'kind'
p1262
tp1263
a(I537
I7
F0.625
S'easy'
p1264
tp1265
a(I634
I6
I0
S'useful'
p1266
tp1267
as(S'batteries'
p1268
tp1269
(lp1270
(I99
I13
F-0.5
S'sure'
p1271
tp1272
a(I191
I10
F0.375
S'extra'
p1273
tp1274
a(I242
I3
I0
S'anymore'
p1275
tp1276
a(I362
I1
I0
S'big'
p1277
tp1278
a(I654
I15
F0.25
S'responsive'
p1279
tp1280
a(I654
I15
I0
S'cool'
p1281
tp1282
a(I720
I0
F-0.625
S'bad'
p1283
tp1284
as(S'android'
p1285
tp1286
(lp1287
(I9
I4
I0
S'capacitive'
p1288
tp1289
a(I137
I9
F1.0
S'best'
p1290
tp1291
a(I301
I20
F-0.125
S'mine'
p1292
tp1293
a(I301
I20
I0
S'comprehensive'
p1294
tp1295
a(I301
I20
F-0.375
S'manual'
p1296
tp1297
a(I313
I1
F0.125
S'first'
p1298
tp1299
a(I334
I2
I0
S'old'
p1300
tp1301
a(I400
I15
F0.375
S'newer'
p1302
tp1303
a(I575
I0
I0
S'capacitive'
p1304
tp1305
a(I643
I0
I0
S'capacitive'
p1306
tp1307
a(I650
I6
I0
S'different'
p1308
tp1309
a(I650
I6
I0
S'old'
p1310
tp1311
a(I731
I0
I0
S'capacitive'
p1312
tp1313
a(I733
I15
F-0.75
S'little'
p1314
tp1315
a(I733
I15
F-0.625
S'green'
p1316
tp1317
as(S'2'
p1318
S'batteries'
p1319
tp1320
(lp1321
(I99
I13
F-0.5
g1271
tp1322
a(I362
I1
I0
g1277
tp1323
a(I654
I15
F0.25
g1279
tp1324
a(I654
I15
I0
g1281
tp1325
as(S'card'
p1326
S'n'
p1327
tp1328
(lp1329
(I9
I1
F-0.875
g598
tp1330
a(I93
I2
I0
g339
tp1331
a(I142
I3
F0.125
g606
tp1332
a(I220
I5
F0.75
g341
tp1333
a(I238
I3
F-0.625
g343
tp1334
a(I433
I5
I0
g773
tp1335
a(I588
I0
I0
g638
tp1336
a(I594
I0
F0.625
g640
tp1337
a(I595
I7
I0
g777
tp1338
a(I595
I7
F-0.625
g779
tp1339
a(I596
I1
F-0.375
g642
tp1340
a(I629
I0
I0
g648
tp1341
a(I629
I0
F0.5
g650
tp1342
a(I728
I0
F-0.375
g662
tp1343
as(S'product'
p1344
tp1345
(lp1346
(I19
I12
F1.0
S'good'
p1347
tp1348
a(I27
I0
F0.375
S'new'
p1349
tp1350
a(I27
I5
F-0.75
S'inconvenient'
p1351
tp1352
a(I38
I5
F-0.875
S'stuck'
p1353
tp1354
a(I49
I5
F1.0
S'good'
p1355
tp1356
a(I55
I3
F1.0
S'good'
p1357
tp1358
a(I87
I0
I0
S'great'
p1359
tp1360
a(I155
I0
F0.75
S'worth'
p1361
tp1362
a(I203
I0
F1.0
S'good'
p1363
tp1364
a(I218
I0
F0.875
S'nice'
p1365
tp1366
a(I218
I1
F1.0
S'good'
p1367
tp1368
a(I218
I4
F0.5
S'recommended'
p1369
tp1370
a(I276
I0
I0
S'exact'
p1371
tp1372
a(I311
I0
F0.875
S'happy'
p1373
tp1374
a(I378
I0
I0
S'great'
p1375
tp1376
a(I378
I0
I0
S'chinese'
p1377
tp1378
a(I378
I0
I0
S'same'
p1379
tp1380
a(I378
I0
F0.25
S'original'
p1381
tp1382
a(I378
I0
I0
S'great'
p1383
tp1384
a(I378
I0
I0
S'great'
p1385
tp1386
a(I378
I0
I0
S'great'
p1387
tp1388
a(I446
I1
F1.0
S'good'
p1389
tp1390
a(I474
I2
I0
S'great'
p1391
tp1392
a(I493
I0
F0.75
S'receive'
p1393
tp1394
a(I500
I2
I0
S'e-mail'
p1395
tp1396
a(I553
I2
I0
S'great'
p1397
tp1398
a(I573
I1
I0
S'generic'
p1399
tp1400
a(I593
I1
F1.0
S'good'
p1401
tp1402
a(I599
I2
I0
S'great'
p1403
tp1404
a(I604
I6
F0.125
S'solid'
p1405
tp1406
a(I604
I6
F0.125
S'solid'
p1407
tp1408
a(I610
I0
I0
S'great'
p1409
tp1410
a(I619
I0
F-0.875
S'awful'
p1411
tp1412
a(I626
I4
I0
S'quick'
p1413
tp1414
a(I638
I0
I0
S'great'
p1415
tp1416
a(I638
I19
F0.625
S'perfect'
p1417
tp1418
a(I716
I0
F1.0
S'good'
p1419
tp1420
a(I725
I2
I0
S'great'
p1421
tp1422
a(I729
I0
I0
S'great'
p1423
tp1424
a(I729
I0
F-0.25
S'inexpensive'
p1425
tp1426
a(I744
I1
F0.625
S'decent'
p1427
tp1428
a(I747
I0
F0.125
S'first'
p1429
tp1430
a(I751
I0
F-0.875
S'worst'
p1431
tp1432
as(S'order'
p1433
tp1434
(lp1435
(I222
I12
F0.125
S'able'
p1436
tp1437
a(I328
I0
F-0.5
S'sure'
p1438
tp1439
a(I558
I3
I0
S'faster'
p1440
tp1441
a(I596
I2
I0
S'big'
p1442
tp1443
a(I634
I26
I0
S'special'
p1444
tp1445
a(I727
I1
I0
S'more'
p1446
tp1447
as(S'slow'
p1448
tp1449
(lp1450
(I150
I18
F-0.125
S'overall'
p1451
tp1452
as(S'thing'
p1453
tp1454
(lp1455
(I19
I8
F0.375
S'newest'
p1456
tp1457
a(I22
I2
F1.0
S'good'
p1458
tp1459
a(I43
I2
F1.0
S'best'
p1460
tp1461
a(I56
I9
F-0.625
S'bad'
p1462
tp1463
a(I80
I5
F1.0
S'good'
p1464
tp1465
a(I99
I6
I0
S'fourth'
p1466
tp1467
a(I106
I0
I0
S'only'
p1468
tp1469
a(I115
I9
I0
S'only'
p1470
tp1471
a(I133
I6
F1.0
S'good'
p1472
tp1473
a(I146
I6
I0
S'only'
p1474
tp1475
a(I162
I7
I0
S'only'
p1476
tp1477
a(I179
I5
I0
S'only'
p1478
tp1479
a(I190
I4
I0
S'only'
p1480
tp1481
a(I194
I0
I0
S'only'
p1482
tp1483
a(I227
I1
F0.875
S'important'
p1484
tp1485
a(I232
I2
I0
S'such'
p1486
tp1487
a(I232
I7
I0
S'same'
p1488
tp1489
a(I251
I3
I0
S'only'
p1490
tp1491
a(I257
I0
F-0.75
S'worse'
p1492
tp1493
a(I295
I1
I0
S'only'
p1494
tp1495
a(I295
I1
F-0.625
S'other'
p1496
tp1497
a(I295
I1
F0.875
S'nice'
p1498
tp1499
a(I307
I2
I0
S'only'
p1500
tp1501
a(I349
I10
I0
S'only'
p1502
tp1503
a(I349
I10
F0.625
S'positive'
p1504
tp1505
a(I374
I3
I0
S'same'
p1506
tp1507
a(I376
I0
I0
S'real'
p1508
tp1509
a(I379
I10
I0
S'only'
p1510
tp1511
a(I396
I1
I0
S'real'
p1512
tp1513
a(I454
I1
F1.0
S'best'
p1514
tp1515
a(I482
I22
I0
S'same'
p1516
tp1517
a(I500
I1
F0.125
S'first'
p1518
tp1519
a(I527
I0
F1.0
S'good'
p1520
tp1521
a(I531
I1
F1.0
S'good'
p1522
tp1523
a(I531
I1
I0
S'only'
p1524
tp1525
a(I548
I3
I0
S'update'
p1526
tp1527
a(I548
I3
I0
S'only'
p1528
tp1529
a(I552
I4
I0
S'real'
p1530
tp1531
a(I557
I19
I0
S'more'
p1532
tp1533
a(I558
I3
I0
S'only'
p1534
tp1535
a(I558
I3
F0.625
S'positive'
p1536
tp1537
a(I580
I0
F-0.75
S'wrong'
p1538
tp1539
a(I584
I3
I0
S'real'
p1540
tp1541
a(I595
I0
F1.0
S'good'
p1542
tp1543
a(I618
I2
I0
S'real'
p1544
tp1545
a(I621
I1
I0
S'same'
p1546
tp1547
a(I638
I2
F-0.375
S'manual'
p1548
tp1549
a(I641
I0
I0
S'only'
p1550
tp1551
a(I641
I0
F-0.5
S'long'
p1552
tp1553
a(I650
I5
F-0.875
S'hardest'
p1554
tp1555
a(I664
I6
I0
S'only'
p1556
tp1557
a(I704
I1
I0
S'only'
p1558
tp1559
a(I708
I34
F-0.75
S'single'
p1560
tp1561
a(I708
I34
F-0.75
S'little'
p1562
tp1563
a(I708
I34
I0
S'great'
p1564
tp1565
a(I715
I0
F0.25
S'sweet'
p1566
tp1567
a(I715
I0
F0.125
S'first'
p1568
tp1569
a(I717
I4
F1.0
S'good'
p1570
tp1571
a(I729
I2
I0
S'real'
p1572
tp1573
as(S'cases'
p1574
tp1575
(lp1576
(I19
I11
F0.375
S'available'
p1577
tp1578
a(I23
I6
I0
S'most'
p1579
tp1580
a(I91
I3
I0
S'such'
p1581
tp1582
a(I190
I1
F0.875
S'nice'
p1583
tp1584
a(I266
I5
F-0.625
S'free'
p1585
tp1586
a(I299
I1
I0
S'real'
p1587
tp1588
a(I299
I1
F0.375
S'available'
p1589
tp1590
a(I360
I0
F0.625
S'find'
p1591
tp1592
a(I393
I1
F-0.875
S'hard'
p1593
tp1594
a(I422
I0
F0.625
S'easier'
p1595
tp1596
a(I442
I0
F-0.875
S'hard'
p1597
tp1598
a(I442
I0
F0.625
S'easy'
p1599
tp1600
a(I485
I5
F0.625
S'easy'
p1601
tp1602
a(I485
I6
F0.5
S'compatible'
p1603
tp1604
a(I537
I11
F-0.5
S'actual'
p1605
tp1606
a(I537
I11
F0.75
S'fit'
p1607
tp1608
a(I630
I1
F-0.125
S'overall'
p1609
tp1610
a(I667
I2
F-0.375
S'ugly'
p1611
tp1612
as(S'came'
p1613
tp1614
(lp1615
(I503
I0
I0
S'old'
p1616
tp1617
as(S'data'
p1618
tp1619
(lp1620
(I26
I0
I0
S'cable'
p1621
tp1622
a(I31
I2
I0
S'cable'
p1623
tp1624
a(I108
I3
F-0.5
S'unlimited'
p1625
tp1626
a(I159
I5
F0.125
S'able'
p1627
tp1628
a(I299
I1
I0
S'cellular'
p1629
tp1630
a(I324
I2
I0
S'signal'
p1631
tp1632
a(I428
I2
I0
S'faster'
p1633
tp1634
a(I525
I8
F0.875
S'music'
p1635
tp1636
a(I677
I1
F-0.5
S'regular'
p1637
tp1638
a(I677
I3
F-0.5
S'regular'
p1639
tp1640
a(I708
I20
F-0.5
S'regular'
p1641
tp1642
a(I740
I4
F0.5
S'expensive'
p1643
tp1644
as(S'micro'
p1645
S'sd'
p1646
S'card'
p1647
tp1648
(lp1649
(I287
I3
I0
S'external'
p1650
tp1651
as(g79
S'sim'
p1652
S'card'
p1653
tp1654
(lp1655
(I9
I1
F-0.875
g598
tp1656
a(I69
I1
F-0.5
g600
tp1657
a(I79
I0
F-0.75
g602
tp1658
a(I91
I1
F-0.5
g604
tp1659
a(I142
I3
F0.125
g606
tp1660
a(I152
I1
F-0.375
g608
tp1661
a(I173
I1
F0.375
g610
tp1662
a(I267
I1
F0.125
g612
tp1663
a(I336
I0
F1.0
g614
tp1664
a(I336
I0
F-0.375
g616
tp1665
a(I336
I0
F-0.375
g618
tp1666
a(I367
I8
F0.5
g620
tp1667
a(I367
I8
F0.5
g622
tp1668
a(I385
I0
I0
g624
tp1669
a(I407
I3
F0.125
g626
tp1670
a(I440
I1
F-0.375
g628
tp1671
a(I440
I1
I0
g630
tp1672
a(I446
I1
F-0.25
g632
tp1673
a(I477
I1
F0.25
g634
tp1674
a(I585
I23
I0
g636
tp1675
a(I588
I0
I0
g638
tp1676
a(I594
I0
F0.625
g640
tp1677
a(I596
I1
F-0.375
g642
tp1678
a(I619
I2
F-0.375
g644
tp1679
a(I629
I0
F0.375
g646
tp1680
a(I629
I0
I0
g648
tp1681
a(I629
I0
F0.5
g650
tp1682
a(I638
I4
F-0.5
g652
tp1683
a(I638
I4
I0
g654
tp1684
a(I672
I4
I0
g656
tp1685
a(I692
I3
F-0.5
g658
tp1686
a(I708
I3
F0.125
g660
tp1687
a(I728
I0
F-0.375
g662
tp1688
as(S'size'
p1689
tp1690
(lp1691
(I11
I0
F0.625
S'easy'
p1692
tp1693
a(I91
I3
I0
S'different'
p1694
tp1695
a(I137
I1
I0
S'big'
p1696
tp1697
a(I137
I1
I0
S'wide'
p1698
tp1699
a(I152
I1
F-0.5
S'regular'
p1700
tp1701
a(I189
I0
F-0.75
S'unable'
p1702
tp1703
a(I267
I20
F0.375
S'feel'
p1704
tp1705
a(I267
I20
I0
S'same'
p1706
tp1707
a(I267
I24
I0
S'same'
p1708
tp1709
a(I278
I2
I0
S'same'
p1710
tp1711
a(I340
I2
I0
S'great'
p1712
tp1713
a(I374
I1
I0
S'same'
p1714
tp1715
a(I415
I2
F1.0
S'good'
p1716
tp1717
a(I490
I1
I0
S'big'
p1718
tp1719
a(I557
I3
F0.125
S'first'
p1720
tp1721
a(I559
I2
I0
S'standard'
p1722
tp1723
a(I575
I4
F0.625
S'easier'
p1724
tp1725
a(I585
I27
I0
S'large'
p1726
tp1727
a(I634
I26
F0.5
S'odd'
p1728
tp1729
a(I640
I1
I0
S'same'
p1730
tp1731
a(I658
I10
I0
S'same'
p1732
tp1733
a(I735
I0
F0.125
S'able'
p1734
tp1735
as(S'make'
p1736
tp1737
(lp1738
(I48
I1
I0
g1217
tp1739
a(I50
I0
F1.0
S'good'
p1740
tp1741
a(I115
I14
I0
S'same'
p1742
tp1743
as(S'calls'
p1744
tp1745
(lp1746
(I150
I23
F0.125
S'able'
p1747
tp1748
a(I152
I9
F-0.625
S'bad'
p1749
tp1750
a(I238
I3
F0.25
S'recent'
p1751
tp1752
a(I433
I1
F1.0
S'good'
p1753
tp1754
a(I482
I20
I0
S'more'
p1755
tp1756
a(I525
I5
I0
S'many'
p1757
tp1758
as(S'work'
p1759
tp1760
(lp1761
(I127
I3
F-0.375
S'manual'
p1762
tp1763
a(I141
I56
F-0.75
S'likely'
p1764
tp1765
a(I595
I12
I0
S'more'
p1766
tp1767
a(I702
I10
F-0.75
S'minor'
p1768
tp1769
a(I702
I10
I0
S'net'
p1770
tp1771
a(I756
I0
F-0.625
S'other'
p1772
tp1773
as(S'ear'
p1774
S'buds'
p1775
tp1776
(lp1777
(I115
I8
F0.75
S'ear'
p1778
tp1779
a(I127
I1
F0.75
S'ear'
p1780
tp1781
a(I664
I15
F-0.5
S'longer'
p1782
tp1783
a(I664
I15
I0
S'standard'
p1784
tp1785
a(I664
I15
F-0.5
S'sure'
p1786
tp1787
a(I692
I11
I0
S'great'
p1788
tp1789
as(S'battery'
p1790
S'life'
p1791
tp1792
(lp1793
(I28
I3
F0.625
S'acceptable'
p1794
tp1795
a(I96
I35
F1.0
S'better'
p1796
tp1797
a(I96
I35
F0.5
S'so-so'
p1798
tp1799
a(I144
I13
F1.0
S'better'
p1800
tp1801
a(I144
I13
F-0.5
S'longer'
p1802
tp1803
a(I218
I2
F0.625
S'easy'
p1804
tp1805
a(I251
I3
F0.625
S'fair'
p1806
tp1807
a(I258
I1
F-0.625
S'bad'
p1808
tp1809
a(I420
I3
F0.125
S'last'
p1810
tp1811
a(I472
I1
F1.0
S'good'
p1812
tp1813
a(I501
I0
F-0.875
S'awful'
p1814
tp1815
a(I584
I4
F-0.75
S'short'
p1816
tp1817
a(I584
I10
F-0.5
S'poor'
p1818
tp1819
a(I612
I1
F1.0
S'good'
p1820
tp1821
a(I612
I1
F-0.25
S'low'
p1822
tp1823
a(I655
I4
F1.0
S'good'
p1824
tp1825
a(I697
I0
F-0.625
S'bad'
p1826
tp1827
a(I719
I1
I0
S'great'
p1828
tp1829
as(S'talk'
p1830
tp1831
(lp1832
(I5
I0
F0.625
S'straight'
p1833
tp1834
a(I37
I0
F0.625
g132
tp1835
a(I39
I1
F0.625
S'straight'
p1836
tp1837
a(I45
I6
F0.625
S'straight'
p1838
tp1839
a(I56
I1
F0.625
S'straight'
p1840
tp1841
a(I63
I0
F0.625
g134
tp1842
a(I64
I8
F-0.25
S'google'
p1843
tp1844
a(I103
I10
F0.625
g136
tp1845
a(I144
I6
F0.625
S'straight'
p1846
tp1847
a(I144
I8
F0.625
S'straight'
p1848
tp1849
a(I146
I9
F0.625
g138
tp1850
a(I152
I1
F0.625
g140
tp1851
a(I154
I10
F0.625
S'straight'
p1852
tp1853
a(I191
I7
F0.625
S'straight'
p1854
tp1855
a(I191
I7
F0.625
S'easy'
p1856
tp1857
a(I212
I0
F0.625
g142
tp1858
a(I222
I0
F0.625
S'straight'
p1859
tp1860
a(I222
I12
F0.625
g144
tp1861
a(I222
I12
F-0.375
g146
tp1862
a(I248
I2
F0.625
S'straight'
p1863
tp1864
a(I275
I7
F0.625
S'straight'
p1865
tp1866
a(I286
I0
F0.625
g148
tp1867
a(I324
I2
F0.625
S'straight'
p1868
tp1869
a(I329
I2
F0.625
g150
tp1870
a(I340
I0
F0.625
g152
tp1871
a(I342
I1
F0.625
S'straight'
p1872
tp1873
a(I342
I4
F0.625
g154
tp1874
a(I342
I5
F0.625
g156
tp1875
a(I346
I1
F0.625
g158
tp1876
a(I346
I1
F0.625
g160
tp1877
a(I346
I1
F0.5
g162
tp1878
a(I346
I4
F0.625
g164
tp1879
a(I377
I0
F0.625
g166
tp1880
a(I383
I0
F0.625
g168
tp1881
a(I388
I0
F0.625
g170
tp1882
a(I412
I18
F0.625
S'straight'
p1883
tp1884
a(I412
I19
F0.625
S'easy'
p1885
tp1886
a(I412
I25
F0.625
S'straight'
p1887
tp1888
a(I482
I15
F0.625
g172
tp1889
a(I482
I35
F0.625
g174
tp1890
a(I483
I0
F0.625
S'straight'
p1891
tp1892
a(I483
I6
F0.625
S'straight'
p1893
tp1894
a(I483
I13
I0
g176
tp1895
a(I483
I13
F0.625
g178
tp1896
a(I491
I0
F0.625
S'straight'
p1897
tp1898
a(I567
I0
F0.625
S'straight'
p1899
tp1900
a(I601
I6
F0.625
S'straight'
p1901
tp1902
a(I664
I8
F0.625
g180
tp1903
a(I692
I3
F0.625
g182
tp1904
a(I692
I4
F0.625
S'straight'
p1905
tp1906
a(I708
I15
F0.625
g186
tp1907
a(I708
I36
F0.625
S'straight'
p1908
tp1909
a(I708
I37
F0.625
S'straight'
p1910
tp1911
a(I708
I38
F0.625
S'straight'
p1912
tp1913
a(I708
I38
F0.25
S'bigger'
p1914
tp1915
a(I708
I38
F1.0
S'better'
p1916
tp1917
a(I713
I12
F1.0
S'good'
p1918
tp1919
a(I742
I4
F0.625
g190
tp1920
a(I757
I0
F0.625
S'straight'
p1921
tp1922
a(I762
I1
F0.625
g192
tp1923
a(I763
I2
F0.625
g194
tp1924
as(S'problems'
p1925
tp1926
(lp1927
(I9
I4
I0
S'many'
p1928
tp1929
a(I115
I16
F0.625
S'major'
p1930
tp1931
a(I141
I44
F-0.75
S'minor'
p1932
tp1933
a(I296
I4
I0
S'few'
p1934
tp1935
a(I357
I0
I0
S'fast'
p1936
tp1937
a(I357
I0
I0
S'real'
p1938
tp1939
a(I396
I0
F1.0
S'better'
p1940
tp1941
a(I399
I3
I0
S'many'
p1942
tp1943
a(I399
I4
F1.0
S'good'
p1944
tp1945
a(I436
I0
F0.625
S'perfect'
p1946
tp1947
a(I444
I0
F0.625
S'major'
p1948
tp1949
a(I499
I3
F0.375
S'available'
p1950
tp1951
a(I499
I3
I0
S'android'
p1952
tp1953
a(I499
I3
F0.125
S'above'
p1954
tp1955
a(I649
I0
I0
S'only'
p1956
tp1957
a(I708
I34
F0.25
S'original'
p1958
tp1959
a(I741
I0
I0
S'many'
p1960
tp1961
a(I763
I0
I0
S'mechanical'
p1962
tp1963
as(S'back'
p1964
tp1965
(lp1966
(I133
I4
F-0.875
S'hard'
p1967
tp1968
a(I190
I2
F-0.5
S'open'
p1969
tp1970
a(I222
I13
I0
S'great'
p1971
tp1972
a(I222
I14
F1.0
S'good'
p1973
tp1974
a(I251
I12
F0.625
S'fair'
p1975
tp1976
a(I376
I0
F0.375
S'extra'
p1977
tp1978
a(I612
I2
F-0.5
S'regular'
p1979
tp1980
a(I654
I15
F0.375
S'extra'
p1981
tp1982
a(I692
I1
F0.5
S'clear'
p1983
tp1984
a(I721
I2
I0
S'big'
p1985
tp1986
a(I722
I0
F0.25
S'original'
p1987
tp1988
as(S'straight'
p1989
S'talk'
p1990
tp1991
(lp1992
(I5
I0
F0.625
g1833
tp1993
a(I37
I0
F0.625
g132
tp1994
a(I39
I1
F0.625
g1836
tp1995
a(I45
I6
F0.625
g1838
tp1996
a(I56
I1
F0.625
g1840
tp1997
a(I63
I0
F0.625
g134
tp1998
a(I103
I10
F0.625
g136
tp1999
a(I144
I6
F0.625
g1846
tp2000
a(I144
I8
F0.625
g1848
tp2001
a(I146
I9
F0.625
g138
tp2002
a(I152
I1
F0.625
g140
tp2003
a(I154
I10
F0.625
g1852
tp2004
a(I191
I7
F0.625
g1854
tp2005
a(I191
I7
F0.625
g1856
tp2006
a(I212
I0
F0.625
g142
tp2007
a(I222
I0
F0.625
g1859
tp2008
a(I222
I12
F0.625
g144
tp2009
a(I222
I12
F-0.375
g146
tp2010
a(I248
I2
F0.625
g1863
tp2011
a(I275
I7
F0.625
g1865
tp2012
a(I286
I0
F0.625
g148
tp2013
a(I324
I2
F0.625
g1868
tp2014
a(I329
I2
F0.625
g150
tp2015
a(I340
I0
F0.625
g152
tp2016
a(I342
I1
F0.625
g1872
tp2017
a(I342
I4
F0.625
g154
tp2018
a(I342
I5
F0.625
g156
tp2019
a(I346
I1
F0.625
g158
tp2020
a(I346
I1
F0.625
g160
tp2021
a(I346
I1
F0.5
g162
tp2022
a(I346
I4
F0.625
g164
tp2023
a(I377
I0
F0.625
g166
tp2024
a(I383
I0
F0.625
g168
tp2025
a(I388
I0
F0.625
g170
tp2026
a(I412
I18
F0.625
g1883
tp2027
a(I412
I25
F0.625
g1887
tp2028
a(I482
I15
F0.625
g172
tp2029
a(I482
I35
F0.625
g174
tp2030
a(I483
I0
F0.625
g1891
tp2031
a(I483
I6
F0.625
g1893
tp2032
a(I483
I13
I0
g176
tp2033
a(I483
I13
F0.625
g178
tp2034
a(I491
I0
F0.625
g1897
tp2035
a(I564
I1
F0.125
g1233
tp2036
a(I567
I0
F0.625
g1899
tp2037
a(I601
I6
F0.625
g1901
tp2038
a(I664
I8
F0.625
g180
tp2039
a(I692
I3
F0.625
g182
tp2040
a(I692
I4
F0.625
g1905
tp2041
a(I708
I14
I0
g184
tp2042
a(I708
I15
F0.625
g186
tp2043
a(I708
I36
F0.625
g1908
tp2044
a(I708
I37
F0.625
g1910
tp2045
a(I708
I38
F0.625
g1912
tp2046
a(I708
I38
F0.25
g1914
tp2047
a(I708
I38
F1.0
g1916
tp2048
a(I708
I51
F-0.75
g188
tp2049
a(I742
I4
F0.625
g190
tp2050
a(I757
I0
F0.625
g1921
tp2051
a(I762
I1
F0.625
g192
tp2052
a(I763
I2
F0.625
g194
tp2053
as(S'find'
p2054
g79
S'case'
p2055
tp2056
(lp2057
(I144
I13
F-0.875
g403
tp2058
a(I203
I3
F0.125
g407
tp2059
a(I203
I3
F1.0
g409
tp2060
a(I203
I3
F-0.625
g411
tp2061
a(I423
I0
F-0.875
g417
tp2062
a(I667
I2
F-0.625
g437
tp2063
a(I737
I0
F0.125
g443
tp2064
as(S'fine'
p2065
tp2066
(lp2067
(I1
I4
I0
S'shipper'
p2068
tp2069
a(I125
I3
F-0.125
S'mine'
p2070
tp2071
a(I343
I3
F0.125
S'able'
p2072
tp2073
a(I617
I4
F0.625
S'easy'
p2074
tp2075
a(I638
I14
I0
S'fast'
p2076
tp2077
a(I638
I15
F-0.125
S'slow'
p2078
tp2079
a(I657
I0
I0
S'signal'
p2080
tp2081
a(I664
I7
F0.75
S'receive'
p2082
tp2083
as(S'quite'
p2084
g79
S'bit'
p2085
tp2086
(lp2087
(I251
I9
F-0.625
S'quite'
p2088
tp2089
a(I658
I15
F-0.625
S'quite'
p2090
tp2091
a(I740
I3
I0
S'plastic'
p2092
tp2093
as(S'galaxy'
p2094
S'note'
p2095
tp2096
(lp2097
(I10
I1
I0
g544
tp2098
a(I10
I2
I0
S'high'
p2099
tp2100
a(I10
I2
I0
S'real'
p2101
tp2102
a(I72
I5
I0
S'real'
p2103
tp2104
a(I142
I5
I0
S'slower'
p2105
tp2106
a(I215
I0
I0
S'more'
p2107
tp2108
a(I272
I0
F0.375
g568
tp2109
a(I310
I0
I0
S'old'
p2110
tp2111
a(I310
I0
F-0.75
g574
tp2112
a(I327
I3
F0.25
g576
tp2113
a(I327
I5
I0
S'same'
p2114
tp2115
a(I377
I1
I0
S'real'
p2116
tp2117
a(I523
I10
I0
S'real'
p2118
tp2119
a(I558
I6
F0.375
S'similar'
p2120
tp2121
a(I570
I2
F1.0
S'good'
p2122
tp2123
as(S'sim'
p2124
S'card'
p2125
g1327
tp2126
(lp2127
(I9
I1
F-0.875
g598
tp2128
a(I69
I1
F-0.5
g600
tp2129
a(I79
I0
F-0.75
g602
tp2130
a(I91
I1
F-0.5
g604
tp2131
a(I142
I3
F0.125
g606
tp2132
a(I152
I1
F-0.375
g608
tp2133
a(I173
I1
F0.375
g610
tp2134
a(I267
I1
F0.125
g612
tp2135
a(I336
I0
F1.0
g614
tp2136
a(I336
I0
F-0.375
g616
tp2137
a(I336
I0
F-0.375
g618
tp2138
a(I367
I8
F0.5
g620
tp2139
a(I367
I8
F0.5
g622
tp2140
a(I385
I0
I0
g624
tp2141
a(I407
I3
F0.125
g626
tp2142
a(I440
I1
F-0.375
g628
tp2143
a(I440
I1
I0
g630
tp2144
a(I446
I1
F-0.25
g632
tp2145
a(I477
I1
F0.25
g634
tp2146
a(I585
I23
I0
g636
tp2147
a(I588
I0
I0
g638
tp2148
a(I594
I0
F0.625
g640
tp2149
a(I596
I1
F-0.375
g642
tp2150
a(I619
I2
F-0.375
g644
tp2151
a(I629
I0
F0.375
g646
tp2152
a(I629
I0
I0
g648
tp2153
a(I629
I0
F0.5
g650
tp2154
a(I638
I4
F-0.5
g652
tp2155
a(I638
I4
I0
g654
tp2156
a(I672
I4
I0
g656
tp2157
a(I692
I3
F-0.5
g658
tp2158
a(I708
I3
F0.125
g660
tp2159
a(I728
I0
F-0.375
g662
tp2160
as(S'seller'
p2161
tp2162
(lp2163
(I96
I10
F-0.375
S'black'
p2164
tp2165
a(I141
I7
I0
S'great'
p2166
tp2167
a(I150
I2
I0
S'leary'
p2168
tp2169
a(I252
I1
F0.125
S'first'
p2170
tp2171
a(I265
I5
I0
S'unfair'
p2172
tp2173
a(I266
I1
F0.875
S'nice'
p2174
tp2175
a(I296
I6
F-0.75
S'unable'
p2176
tp2177
a(I321
I6
I0
S'next'
p2178
tp2179
a(I328
I0
F1.0
S'good'
p2180
tp2181
a(I339
I9
I0
S'later'
p2182
tp2183
a(I340
I1
F0.25
S'helpful'
p2184
tp2185
a(I399
I9
F-0.375
S'black'
p2186
tp2187
a(I412
I5
F0.875
S'nice'
p2188
tp2189
a(I440
I4
F-0.625
S'bad'
p2190
tp2191
a(I482
I23
I0
S'later'
p2192
tp2193
a(I485
I2
I0
S'fast'
p2194
tp2195
a(I522
I1
F-0.5
S'sure'
p2196
tp2197
a(I548
I2
F0.125
S'able'
p2198
tp2199
a(I553
I1
I0
S'same'
p2200
tp2201
a(I560
I3
F0.875
S'nice'
p2202
tp2203
a(I566
I3
I0
S'great'
p2204
tp2205
a(I566
I6
F0.5
S'second'
p2206
tp2207
a(I639
I6
F0.5
S'second'
p2208
tp2209
a(I752
I2
F-0.625
S'bad'
p2210
tp2211
a(I752
I2
I0
S'particular'
p2212
tp2213
a(I752
I2
F1.0
S'good'
p2214
tp2215
a(I764
I5
I0
S'great'
p2216
tp2217
as(S'battery'
p2218
tp2219
(lp2220
(I10
I5
F0.375
S'extra'
p2221
tp2222
a(I22
I2
F0.375
S'extra'
p2223
tp2224
a(I79
I0
I0
S'quick'
p2225
tp2226
a(I98
I3
F0.375
S'extra'
p2227
tp2228
a(I98
I5
F-0.75
S'dead'
p2229
tp2230
a(I99
I9
F-0.625
S'bad'
p2231
tp2232
a(I133
I6
F-0.5
S'regular'
p2233
tp2234
a(I143
I6
F0.5
S'second'
p2235
tp2236
a(I143
I7
F-0.5
S'sure'
p2237
tp2238
a(I144
I13
F1.0
g1800
tp2239
a(I144
I13
F-0.5
g1802
tp2240
a(I145
I7
F0.375
S'extra'
p2241
tp2242
a(I154
I4
F-0.75
S'dead'
p2243
tp2244
a(I155
I0
I0
S'initial'
p2245
tp2246
a(I156
I4
F0.375
S'extra'
p2247
tp2248
a(I156
I4
F0.625
S'easy'
p2249
tp2250
a(I198
I3
F0.125
S'last'
p2251
tp2252
a(I198
I3
F-0.5
S'long'
p2253
tp2254
a(I217
I0
I0
S'hot'
p2255
tp2256
a(I218
I2
F0.625
g1804
tp2257
a(I224
I7
I0
S'anymore'
p2258
tp2259
a(I242
I3
F-0.625
S'other'
p2260
tp2261
a(I248
I5
F0.5
S'second'
p2262
tp2263
a(I258
I1
F-0.625
g1808
tp2264
a(I296
I1
F0.5
S'second'
p2265
tp2266
a(I308
I3
F0.375
S'extra'
p2267
tp2268
a(I334
I1
F0.375
S'extra'
p2269
tp2270
a(I334
I1
F-0.125
S'overall'
p2271
tp2272
a(I351
I0
F-0.125
S'slow'
p2273
tp2274
a(I372
I7
F0.125
S'last'
p2275
tp2276
a(I386
I4
F0.375
S'extra'
p2277
tp2278
a(I472
I1
F1.0
g1812
tp2279
a(I501
I0
F-0.875
g1814
tp2280
a(I536
I3
F-0.625
S'bad'
p2281
tp2282
a(I560
I2
F0.125
S'first'
p2283
tp2284
a(I560
I2
F-0.625
S'bad'
p2285
tp2286
a(I574
I3
F-0.5
S'less'
p2287
tp2288
a(I584
I4
F-0.75
g1816
tp2289
a(I584
I6
F0.5
S'second'
p2290
tp2291
a(I584
I10
F-0.5
g1818
tp2292
a(I596
I1
I0
S'mobile'
p2293
tp2294
a(I598
I23
F0.125
S'last'
p2295
tp2296
a(I612
I1
F-0.25
g1822
tp2297
a(I617
I3
F0.125
S'last'
p2298
tp2299
a(I632
I2
F-0.5
S'poor'
p2300
tp2301
a(I634
I44
F0.125
S'first'
p2302
tp2303
a(I638
I18
F0.125
S'last'
p2304
tp2305
a(I655
I3
F0.375
S'extra'
p2306
tp2307
a(I697
I0
F-0.625
g1826
tp2308
a(I715
I0
I0
S'own'
p2309
tp2310
a(I715
I0
F-0.75
S'dead'
p2311
tp2312
a(I719
I1
I0
g1828
tp2313
a(I740
I3
F-0.5
S'long'
p2314
tp2315
as(S't'
p2316
S'sim'
p2317
S'card'
p2318
tp2319
(lp2320
(I9
I1
F-0.875
g598
tp2321
a(I69
I1
F-0.5
g600
tp2322
a(I79
I0
F-0.75
g602
tp2323
a(I91
I1
F-0.5
g604
tp2324
a(I142
I3
F0.125
g606
tp2325
a(I152
I1
F-0.375
g608
tp2326
a(I173
I1
F0.375
g610
tp2327
a(I267
I1
F0.125
g612
tp2328
a(I336
I0
F1.0
g614
tp2329
a(I336
I0
F-0.375
g616
tp2330
a(I336
I0
F-0.375
g618
tp2331
a(I367
I8
F0.5
g620
tp2332
a(I367
I8
F0.5
g622
tp2333
a(I385
I0
I0
g624
tp2334
a(I407
I3
F0.125
g626
tp2335
a(I440
I1
F-0.375
g628
tp2336
a(I440
I1
I0
g630
tp2337
a(I446
I1
F-0.25
g632
tp2338
a(I477
I1
F0.25
g634
tp2339
a(I585
I23
I0
g636
tp2340
a(I588
I0
I0
g638
tp2341
a(I594
I0
F0.625
g640
tp2342
a(I596
I1
F-0.375
g642
tp2343
a(I619
I2
F-0.375
g644
tp2344
a(I629
I0
F0.375
g646
tp2345
a(I629
I0
I0
g648
tp2346
a(I629
I0
F0.5
g650
tp2347
a(I638
I4
F-0.5
g652
tp2348
a(I638
I4
I0
g654
tp2349
a(I640
I0
F0.375
S'much'
p2350
tp2351
a(I672
I4
I0
g656
tp2352
a(I692
I3
F-0.5
g658
tp2353
a(I708
I3
F0.125
g660
tp2354
a(I728
I0
F-0.375
g662
tp2355
as(g2316
S'works'
p2356
S'great'
p2357
tp2358
(lp2359
(I92
I3
I0
S'great'
p2360
tp2361
a(I92
I7
I0
S'great'
p2362
tp2363
a(I165
I0
F0.875
S'nice'
p2364
tp2365
a(I165
I0
I0
S'great'
p2366
tp2367
a(I174
I1
I0
S'great'
p2368
tp2369
a(I190
I3
I0
S'great'
p2370
tp2371
a(I190
I3
F0.125
S'able'
p2372
tp2373
a(I210
I0
I0
S'great'
p2374
tp2375
a(I227
I0
I0
S'great'
p2376
tp2377
a(I399
I4
I0
S'great'
p2378
tp2379
a(I451
I1
I0
S'big'
p2380
tp2381
a(I451
I1
I0
S'great'
p2382
tp2383
a(I459
I1
I0
S'great'
p2384
tp2385
a(I460
I0
I0
S'great'
p2386
tp2387
a(I509
I0
I0
S'great'
p2388
tp2389
a(I542
I1
I0
S'great'
p2390
tp2391
a(I542
I2
I0
S'great'
p2392
tp2393
a(I542
I2
I0
S'internet'
p2394
tp2395
a(I612
I1
I0
S'great'
p2396
tp2397
a(I645
I0
I0
S'great'
p2398
tp2399
a(I655
I1
I0
S'great'
p2400
tp2401
a(I728
I0
I0
S'great'
p2402
tp2403
as(S'samsung'
p2404
S'galaxy'
p2405
tp2406
(lp2407
(I141
I25
F0.375
g1241
tp2408
a(I499
I0
F0.125
g1243
tp2409
a(I499
I0
F1.0
g1245
tp2410
as(S'text'
p2411
tp2412
(lp2413
(I66
I2
I0
S'kindle'
p2414
tp2415
a(I66
I2
F0.125
S'able'
p2416
tp2417
a(I205
I2
F0.125
S'able'
p2418
tp2419
a(I357
I0
I0
S'text'
p2420
tp2421
a(I407
I3
F0.75
S'receive'
p2422
tp2423
a(I709
I5
I0
S'great'
p2424
tp2425
as(S'works'
p2426
S'great'
p2427
tp2428
(lp2429
(I92
I3
I0
g2360
tp2430
a(I92
I7
I0
g2362
tp2431
a(I165
I0
F0.875
g2364
tp2432
a(I165
I0
I0
g2366
tp2433
a(I174
I1
I0
g2368
tp2434
a(I190
I3
I0
g2370
tp2435
a(I190
I3
F0.125
g2372
tp2436
a(I210
I0
I0
g2374
tp2437
a(I227
I0
I0
g2376
tp2438
a(I399
I4
I0
g2378
tp2439
a(I451
I1
I0
g2380
tp2440
a(I451
I1
I0
g2382
tp2441
a(I459
I1
I0
g2384
tp2442
a(I460
I0
I0
g2386
tp2443
a(I509
I0
I0
g2388
tp2444
a(I542
I1
I0
g2390
tp2445
a(I542
I2
I0
g2392
tp2446
a(I542
I2
I0
g2394
tp2447
a(I612
I1
I0
g2396
tp2448
a(I645
I0
I0
g2398
tp2449
a(I655
I1
I0
g2400
tp2450
a(I728
I0
I0
g2402
tp2451
as(S'time'
p2452
S'and'
p2453
S'money'
p2454
tp2455
(lp2456
(I110
I2
F0.375
g927
tp2457
a(I328
I0
I0
g688
tp2458
a(I482
I23
F0.125
S'first'
p2459
tp2460
as(S'time'
p2461
tp2462
(lp2463
(I0
I0
F-0.625
g84
tp2464
a(I0
I0
F0.625
g86
tp2465
a(I5
I2
F0.75
S'worth'
p2466
tp2467
a(I14
I3
I0
S'extensive'
p2468
tp2469
a(I27
I1
F-0.5
S'long'
p2470
tp2471
a(I54
I1
F-0.125
S'slow'
p2472
tp2473
a(I69
I7
F0.5
S'second'
p2474
tp2475
a(I96
I25
I0
S'big'
p2476
tp2477
a(I96
I36
F0.125
S'further'
p2478
tp2479
a(I100
I0
F-0.875
g88
tp2480
a(I102
I0
I0
S'earlier'
p2481
tp2482
a(I113
I0
F-0.875
g90
tp2483
a(I113
I0
F0.125
g92
tp2484
a(I115
I15
F-0.875
g94
tp2485
a(I128
I0
F-0.5
S'long'
p2486
tp2487
a(I141
I47
F-0.625
S'other'
p2488
tp2489
a(I150
I13
I0
S'same'
p2490
tp2491
a(I224
I3
F0.125
S'first'
p2492
tp2493
a(I246
I2
F0.25
S'bigger'
p2494
tp2495
a(I246
I2
I0
S'next'
p2496
tp2497
a(I294
I0
F-0.5
S'long'
p2498
tp2499
a(I304
I2
F-0.875
g96
tp2500
a(I310
I10
F-0.875
g98
tp2501
a(I325
I1
F-0.875
g100
tp2502
a(I343
I3
F0.625
g102
tp2503
a(I361
I8
F-0.5
S'long'
p2504
tp2505
a(I374
I1
F-0.125
S'complicated'
p2506
tp2507
a(I394
I1
I0
S'unplugged'
p2508
tp2509
a(I394
I1
F0.5
S'whole'
p2510
tp2511
a(I454
I2
I0
S'big'
p2512
tp2513
a(I482
I15
F0.625
S'easy'
p2514
tp2515
a(I482
I23
F0.125
g2459
tp2516
a(I493
I1
F-0.5
S'long'
p2517
tp2518
a(I493
I1
I0
S'same'
p2519
tp2520
a(I529
I3
F-0.875
g104
tp2521
a(I537
I5
I0
S'same'
p2522
tp2523
a(I538
I4
I0
g106
tp2524
a(I538
I4
F-0.875
g108
tp2525
a(I543
I0
F-0.25
S'white'
p2526
tp2527
a(I546
I0
F0.125
S'first'
p2528
tp2529
a(I587
I3
F-0.5
S'long'
p2530
tp2531
a(I598
I20
I0
S'entire'
p2532
tp2533
a(I603
I1
I0
S'entire'
p2534
tp2535
a(I613
I0
I0
S'waste'
p2536
tp2537
a(I616
I6
F0.125
S'first'
p2538
tp2539
a(I634
I41
I0
S'dictionary'
p2540
tp2541
a(I638
I10
F-0.5
S'long'
p2542
tp2543
a(I658
I21
F-0.875
g110
tp2544
a(I658
I29
F-0.875
g112
tp2545
a(I658
I33
F-0.875
g114
tp2546
a(I658
I51
F-0.75
S'wrong'
p2547
tp2548
a(I675
I2
I0
S'entire'
p2549
tp2550
a(I692
I3
F0.125
S'first'
p2551
tp2552
a(I710
I6
I0
S'next'
p2553
tp2554
a(I717
I8
F-0.75
S'short'
p2555
tp2556
a(I717
I8
I0
S'screen'
p2557
tp2558
a(I725
I3
I0
S'faster'
p2559
tp2560
as(S'find'
p2561
tp2562
(lp2563
(I82
I1
F0.875
S'nice'
p2564
tp2565
as(S'instruction'
p2566
S'booklet'
p2567
tp2568
(lp2569
(I707
I0
F-0.375
S'small'
p2570
tp2571
as(g79
S'large'
p2572
S'screen'
p2573
tp2574
(lp2575
(I73
I0
I0
S'large'
p2576
tp2577
a(I80
I11
F0.25
S'larger'
p2578
tp2579
a(I156
I6
I0
S'large'
p2580
tp2581
a(I157
I1
I0
S'large'
p2582
tp2583
a(I310
I3
I0
S'large'
p2584
tp2585
a(I435
I2
I0
S'large'
p2586
tp2587
a(I445
I1
I0
S'large'
p2588
tp2589
a(I494
I1
I0
S'large'
p2590
tp2591
a(I494
I2
I0
S'large'
p2592
tp2593
a(I498
I3
I0
S'large'
p2594
tp2595
a(I570
I5
I0
S'large'
p2596
tp2597
a(I584
I0
I0
S'large'
p2598
tp2599
a(I647
I0
I0
S'large'
p2600
tp2601
a(I664
I25
I0
S'large'
p2602
tp2603
a(I708
I9
I0
S'large'
p2604
tp2605
a(I708
I9
F0.5
S'clear'
p2606
tp2607
as(g79
S'samsung'
p2608
S'note'
p2609
tp2610
(lp2611
(I10
I1
I0
g544
tp2612
a(I267
I22
F0.25
g566
tp2613
a(I272
I0
F0.375
g568
tp2614
a(I376
I2
F-0.5
S'actual'
p2615
tp2616
a(I447
I1
I0
g584
tp2617
a(I548
I0
F0.375
S'similar'
p2618
tp2619
as(S'with'
p2620
g1318
S'batteries'
p2621
tp2622
(lp2623
(I99
I13
F-0.5
g1271
tp2624
a(I654
I15
F0.25
g1279
tp2625
a(I654
I15
I0
g1281
tp2626
as(S'mp3'
p2627
S'player'
p2628
tp2629
(lp2630
(I98
I3
F-0.5
S'poor'
p2631
tp2632
a(I301
I21
F-0.625
S'bad'
p2633
tp2634
a(I301
I23
F0.5
S'primary'
p2635
tp2636
a(I634
I10
F0.875
S'music'
p2637
tp2638
as(S'working'
p2639
tp2640
(lp2641
(I30
I13
F1.0
S'good'
p2642
tp2643
a(I203
I3
I0
S'great'
p2644
tp2645
as(S'samsung'
p2646
S'galaxy'
p2647
S'note'
p2648
tp2649
(lp2650
(I10
I1
I0
g544
tp2651
a(I272
I0
F0.375
g568
tp2652
as(g79
S'galaxy'
p2653
S'note'
p2654
tp2655
(lp2656
(I10
I1
I0
g544
tp2657
a(I10
I2
I0
g2099
tp2658
a(I10
I2
I0
g2101
tp2659
a(I72
I5
I0
g2103
tp2660
a(I142
I5
I0
g2105
tp2661
a(I215
I0
I0
g2107
tp2662
a(I272
I0
F0.375
g568
tp2663
a(I310
I0
I0
g2110
tp2664
a(I310
I0
F-0.75
g574
tp2665
a(I327
I3
F0.25
g576
tp2666
a(I327
I5
I0
g2114
tp2667
a(I377
I1
I0
g2116
tp2668
a(I523
I10
I0
g2118
tp2669
a(I558
I6
F0.375
g2120
tp2670
a(I570
I2
F1.0
g2122
tp2671
as(S'screen'
p2672
tp2673
(lp2674
(I10
I8
F-0.375
S'black'
p2675
tp2676
a(I16
I3
F-0.375
S'black'
p2677
tp2678
a(I44
I1
I0
g457
tp2679
a(I54
I2
I0
S'stable'
p2680
tp2681
a(I54
I2
F-0.625
S'sometime'
p2682
tp2683
a(I71
I0
I0
g459
tp2684
a(I71
I0
F1.0
g461
tp2685
a(I73
I0
I0
g2576
tp2686
a(I77
I3
I0
g463
tp2687
a(I78
I2
F-0.125
S'mine'
p2688
tp2689
a(I78
I2
F0.375
S'new'
p2690
tp2691
a(I80
I11
F0.25
g2578
tp2692
a(I92
I3
F0.5
S'touch'
p2693
tp2694
a(I113
I5
I0
g465
tp2695
a(I115
I13
F-0.25
S'white'
p2696
tp2697
a(I118
I3
F-0.5
S'cracked'
p2698
tp2699
a(I143
I3
I0
g467
tp2700
a(I143
I3
F-0.75
g469
tp2701
a(I143
I3
F0.5
g471
tp2702
a(I144
I2
F0.5
S'true'
p2703
tp2704
a(I145
I17
F0.25
g473
tp2705
a(I150
I5
F-0.125
S'slow'
p2706
tp2707
a(I150
I5
F0.125
S'able'
p2708
tp2709
a(I156
I0
I0
g475
tp2710
a(I156
I2
F0.875
S'nice'
p2711
tp2712
a(I156
I6
I0
g2580
tp2713
a(I157
I1
I0
g2582
tp2714
a(I161
I2
F-0.75
S'bright'
p2715
tp2716
a(I163
I2
F0.375
S'extra'
p2717
tp2718
a(I168
I2
I0
g477
tp2719
a(I172
I0
I0
g479
tp2720
a(I195
I0
I0
g481
tp2721
a(I203
I0
I0
S'great'
p2722
tp2723
a(I222
I13
I0
g483
tp2724
a(I224
I1
F0.5
S'second'
p2725
tp2726
a(I224
I1
I0
S'normal'
p2727
tp2728
a(I224
I8
F-0.25
S'white'
p2729
tp2730
a(I226
I0
F0.5
S'touch'
p2731
tp2732
a(I226
I2
F0.5
S'touch'
p2733
tp2734
a(I238
I0
I0
S'wide'
p2735
tp2736
a(I248
I1
I0
S'quick'
p2737
tp2738
a(I251
I10
F-0.625
S'bad'
p2739
tp2740
a(I251
I10
F-0.75
S'damage'
p2741
tp2742
a(I252
I1
F0.625
S'perfect'
p2743
tp2744
a(I267
I9
F-0.75
S'bright'
p2745
tp2746
a(I267
I9
F-0.25
S'lowest'
p2747
tp2748
a(I272
I0
I0
g485
tp2749
a(I278
I2
F0.5
S'true'
p2750
tp2751
a(I283
I0
F-0.75
S'hate'
p2752
tp2753
a(I284
I2
I0
g487
tp2754
a(I287
I2
I0
g489
tp2755
a(I301
I13
F-0.5
S'long'
p2756
tp2757
a(I304
I1
I0
g491
tp2758
a(I304
I1
F0.875
g493
tp2759
a(I310
I3
I0
g2584
tp2760
a(I316
I0
F-0.625
S'other'
p2761
tp2762
a(I325
I0
F-0.25
S'white'
p2763
tp2764
a(I328
I0
F-0.625
S'light'
p2765
tp2766
a(I334
I5
F-0.25
S'past'
p2767
tp2768
a(I334
I5
I0
S'android'
p2769
tp2770
a(I337
I9
F0.125
S'able'
p2771
tp2772
a(I372
I2
F0.5
S'clear'
p2773
tp2774
a(I372
I15
F1.0
S'better'
p2775
tp2776
a(I374
I1
F0.75
S'beautiful'
p2777
tp2778
a(I374
I1
F0.5
S'clear'
p2779
tp2780
a(I380
I0
F1.0
S'better'
p2781
tp2782
a(I395
I0
F-0.5
S'less'
p2783
tp2784
a(I395
I0
F0.25
S'responsive'
p2785
tp2786
a(I414
I0
I0
g495
tp2787
a(I417
I1
F0.875
g497
tp2788
a(I417
I1
I0
g499
tp2789
a(I435
I2
I0
g2586
tp2790
a(I445
I1
I0
g2588
tp2791
a(I447
I2
I0
g501
tp2792
a(I447
I2
F0.75
g503
tp2793
a(I449
I1
I0
S'great'
p2794
tp2795
a(I452
I1
F-0.25
S'white'
p2796
tp2797
a(I482
I17
F-0.375
S'smaller'
p2798
tp2799
a(I482
I18
I0
S'same'
p2800
tp2801
a(I482
I22
I0
S'normal'
p2802
tp2803
a(I494
I1
I0
g2590
tp2804
a(I494
I2
I0
g2592
tp2805
a(I498
I3
I0
g2594
tp2806
a(I499
I0
I0
g505
tp2807
a(I499
I0
F-0.75
g507
tp2808
a(I501
I1
I0
S'great'
p2809
tp2810
a(I501
I1
I0
S'great'
p2811
tp2812
a(I512
I6
F-0.25
S'white'
p2813
tp2814
a(I524
I1
F-0.375
S'black'
p2815
tp2816
a(I525
I3
F-0.5
S'poor'
p2817
tp2818
a(I529
I1
F0.5
S'clearer'
p2819
tp2820
a(I529
I1
F1.0
S'better'
p2821
tp2822
a(I533
I1
I0
g509
tp2823
a(I540
I0
I0
g511
tp2824
a(I540
I0
F-0.625
g513
tp2825
a(I549
I3
I0
g515
tp2826
a(I549
I3
F0.875
g517
tp2827
a(I559
I7
F-0.75
S'impossible'
p2828
tp2829
a(I561
I1
I0
S'pen'
p2830
tp2831
a(I562
I0
I0
S'sensitive'
p2832
tp2833
a(I569
I0
F0.5
S'touch'
p2834
tp2835
a(I570
I5
I0
g2596
tp2836
a(I574
I1
F0.125
S'first'
p2837
tp2838
a(I580
I0
I0
g519
tp2839
a(I584
I0
I0
g2598
tp2840
a(I584
I3
F-0.75
S'bright'
p2841
tp2842
a(I594
I0
I0
g521
tp2843
a(I599
I1
I0
g523
tp2844
a(I600
I2
I0
g525
tp2845
a(I611
I3
I0
g527
tp2846
a(I617
I2
I0
g529
tp2847
a(I617
I2
F0.875
g531
tp2848
a(I617
I2
F0.625
g533
tp2849
a(I643
I10
F0.5
S'clear'
p2850
tp2851
a(I647
I0
I0
g2600
tp2852
a(I653
I1
F0.375
S'new'
p2853
tp2854
a(I658
I41
F-0.5
S'flimsy'
p2855
tp2856
a(I658
I50
F0.125
S'key'
p2857
tp2858
a(I658
I50
F-0.25
S'turned'
p2859
tp2860
a(I660
I0
F0.875
S'happy'
p2861
tp2862
a(I661
I0
I0
g535
tp2863
a(I661
I0
I0
g537
tp2864
a(I664
I16
F0.125
S'outside'
p2865
tp2866
a(I664
I25
I0
g2602
tp2867
a(I678
I0
F0.5
S'touch'
p2868
tp2869
a(I708
I9
I0
g2604
tp2870
a(I708
I9
F0.5
g2606
tp2871
a(I713
I8
F1.0
S'good'
p2872
tp2873
a(I713
I16
F-0.25
S'cheaper'
p2874
tp2875
a(I717
I3
I0
S'sensitive'
p2876
tp2877
a(I719
I0
I0
g539
tp2878
a(I761
I0
I0
S'real'
p2879
tp2880
a(I761
I0
F-0.625
S'bad'
p2881
tp2882
as(S'samsung'
p2883
S'note'
p2884
tp2885
(lp2886
(I10
I1
I0
g544
tp2887
a(I267
I22
F0.25
g566
tp2888
a(I272
I0
F0.375
g568
tp2889
a(I376
I2
F-0.5
g2615
tp2890
a(I447
I1
I0
g584
tp2891
a(I548
I0
F0.375
g2618
tp2892
as(S'everything'
p2893
tp2894
(lp2895
(I79
I0
F-0.125
S'slow'
p2896
tp2897
a(I87
I10
F0.75
S'beautiful'
p2898
tp2899
a(I113
I0
I0
S'korean'
p2900
tp2901
a(I174
I1
I0
S'net'
p2902
tp2903
a(I192
I2
F-0.125
S'slow'
p2904
tp2905
a(I379
I5
F0.125
S'able'
p2906
tp2907
a(I512
I11
F0.125
S'first'
p2908
tp2909
a(I634
I39
F-0.75
S'wrong'
p2910
tp2911
a(I639
I9
I0
S'chinese'
p2912
tp2913
a(I654
I12
F1.0
S'good'
p2914
tp2915
a(I673
I2
F0.25
S'suppose'
p2916
tp2917
a(I678
I0
I0
S'great'
p2918
tp2919
a(I728
I0
I0
S'mobile'
p2920
tp2921
as(S'samsung'
p2922
tp2923
(lp2924
(I28
I1
F1.0
S'good'
p2925
tp2926
a(I28
I1
F1.0
S'good'
p2927
tp2928
a(I56
I11
I0
S'real'
p2929
tp2930
a(I58
I1
I0
S'real'
p2931
tp2932
a(I141
I25
F0.375
g1241
tp2933
a(I141
I34
I0
S'different'
p2934
tp2935
a(I267
I11
F0.5
S'clear'
p2936
tp2937
a(I361
I12
I0
S'more'
p2938
tp2939
a(I376
I2
F-0.5
g2615
tp2940
a(I400
I22
F0.375
S'newest'
p2941
tp2942
a(I546
I0
F-0.625
S'other'
p2943
tp2944
a(I548
I0
F0.375
g2618
tp2945
a(I570
I6
I0
S'quick'
p2946
tp2947
a(I570
I6
I0
S'old'
p2948
tp2949
a(I634
I17
I0
S'old'
p2950
tp2951
as(S'waste'
p2952
S'of'
p2953
S'time'
p2954
tp2955
(lp2956
(I150
I30
F0.375
S'complete'
p2957
tp2958
a(I613
I0
I0
g2536
tp2959
as(S'camera'
p2960
tp2961
(lp2962
(I45
I8
I0
S'only'
p2963
tp2964
a(I45
I8
F-0.875
S'negative'
p2965
tp2966
a(I45
I8
I0
S'real'
p2967
tp2968
a(I45
I12
I0
S'real'
p2969
tp2970
a(I64
I1
F0.875
S'nice'
p2971
tp2972
a(I71
I0
I0
S'prepaid'
p2973
tp2974
a(I99
I0
F1.0
S'good'
p2975
tp2976
a(I99
I0
F1.0
S'good'
p2977
tp2978
a(I125
I1
I0
S'own'
p2979
tp2980
a(I143
I4
F-0.625
S'bad'
p2981
tp2982
a(I162
I6
F0.5
S'clear'
p2983
tp2984
a(I162
I6
F0.5
S'clear'
p2985
tp2986
a(I232
I4
F1.0
S'good'
p2987
tp2988
a(I251
I12
F0.625
S'fair'
p2989
tp2990
a(I252
I1
F-0.5
S'poor'
p2991
tp2992
a(I301
I12
F-0.625
S'bad'
p2993
tp2994
a(I343
I3
F0.125
S'digital'
p2995
tp2996
a(I379
I7
I0
S'rear'
p2997
tp2998
a(I391
I1
F-0.625
S'bad'
p2999
tp3000
a(I412
I20
F1.0
S'good'
p3001
tp3002
a(I413
I5
F1.0
S'good'
p3003
tp3004
a(I485
I3
I0
S'great'
p3005
tp3006
a(I537
I11
I0
S'rear'
p3007
tp3008
a(I567
I0
I0
S'rear'
p3009
tp3010
a(I585
I43
F0.5
S'so-so'
p3011
tp3012
a(I601
I3
F0.25
S'responsive'
p3013
tp3014
a(I601
I3
F1.0
S'better'
p3015
tp3016
a(I627
I2
F0.5
S'clear'
p3017
tp3018
a(I634
I19
F1.0
S'good'
p3019
tp3020
a(I634
I21
I0
S'real'
p3021
tp3022
a(I638
I16
F0.125
S'first'
p3023
tp3024
a(I640
I3
I0
S'great'
p3025
tp3026
a(I661
I1
F1.0
S'good'
p3027
tp3028
a(I670
I0
F-0.5
S'less'
p3029
tp3030
a(I690
I6
F1.0
S'good'
p3031
tp3032
a(I690
I11
F-0.625
S'average'
p3033
tp3034
a(I690
I11
F-0.625
S'clean'
p3035
tp3036
a(I700
I3
F0.5
S'so-so'
p3037
tp3038
a(I708
I39
F1.0
S'best'
p3039
tp3040
a(I716
I2
I0
S'great'
p3041
tp3042
a(I744
I2
I0
S'great'
p3043
tp3044
a(I754
I0
F0.75
S'worth'
p3045
tp3046
as(S'using'
p3047
tp3048
(lp3049
(I99
I21
F-0.5
S'heavy'
p3050
tp3051
a(I99
I21
F-0.75
S'sad'
p3052
tp3053
as(S'listen'
p3054
S'to'
p3055
S'music'
p3056
tp3057
(lp3058
(I379
I17
F0.125
S'able'
p3059
tp3060
a(I549
I10
I0
S'downloaded'
p3061
tp3062
a(I549
I14
F0.125
S'able'
p3063
tp3064
as(S'works'
p3065
S'fine'
p3066
tp3067
(lp3068
(I399
I4
I0
g2378
tp3069
a(I612
I1
I0
g2396
tp3070
a(I638
I15
F-0.125
g2078
tp3071
a(I657
I0
I0
g2080
tp3072
a(I664
I7
F0.75
g2082
tp3073
as(S'mobile'
p3074
tp3075
(lp3076
(I145
I11
F0.25
S'helpful'
p3077
tp3078
a(I267
I7
F-0.125
S'slow'
p3079
tp3080
a(I347
I0
F-0.375
S'simple'
p3081
tp3082
as(S'galaxy'
p3083
tp3084
(lp3085
(I10
I2
I0
g2099
tp3086
a(I10
I2
I0
g2101
tp3087
a(I72
I5
I0
g2103
tp3088
a(I124
I0
F0.5
S'expensive'
p3089
tp3090
a(I142
I5
I0
g2105
tp3091
a(I168
I5
F1.0
S'better'
p3092
tp3093
a(I215
I0
I0
g2107
tp3094
a(I230
I1
F-0.5
S'less'
p3095
tp3096
a(I230
I1
I0
S'signal'
p3097
tp3098
a(I310
I0
I0
g2110
tp3099
a(I327
I5
I0
g2114
tp3100
a(I349
I0
F1.0
S'better'
p3101
tp3102
a(I349
I0
I0
S'ancient'
p3103
tp3104
a(I349
I12
I0
S'old'
p3105
tp3106
a(I377
I1
I0
g2116
tp3107
a(I432
I6
I0
S'real'
p3108
tp3109
a(I499
I0
F0.125
g1243
tp3110
a(I499
I0
F1.0
g1245
tp3111
a(I523
I10
I0
g2118
tp3112
a(I558
I6
F0.375
g2120
tp3113
a(I570
I2
F1.0
g2122
tp3114
as(g2316
S'works'
p3115
S'fine'
p3116
tp3117
(lp3118
(I399
I4
I0
g2378
tp3119
a(I612
I1
I0
g2396
tp3120
a(I638
I15
F-0.125
g2078
tp3121
a(I657
I0
I0
g2080
tp3122
a(I664
I7
F0.75
g2082
tp3123
as(g79
S'screen'
p3124
S'protector'
p3125
tp3126
(lp3127
(I156
I2
F0.875
g2711
tp3128
a(I163
I2
F0.375
g2717
tp3129
a(I251
I10
F-0.625
g2739
tp3130
a(I251
I10
F-0.75
g2741
tp3131
a(I301
I13
F-0.5
g2756
tp3132
a(I337
I9
F0.125
g2771
tp3133
a(I374
I1
F0.75
g2777
tp3134
a(I374
I1
F0.5
g2779
tp3135
a(I655
I3
F1.0
S'best'
p3136
tp3137
a(I672
I13
F1.0
S'best'
p3138
tp3139
as(S'google'
p3140
S'play'
p3141
S'store'
p3142
tp3143
(lp3144
(I53
I1
F-0.25
S'google'
p3145
tp3146
a(I95
I0
F-0.75
S'difficult'
p3147
tp3148
a(I95
I0
F-0.25
S'google'
p3149
tp3150
a(I282
I0
F0.375
S'new'
p3151
tp3152
a(I379
I6
F-0.25
S'google'
p3153
tp3154
a(I595
I4
F-0.25
S'google'
p3155
tp3156
as(S'people'
p3157
tp3158
(lp3159
(I3
I1
F0.375
S'e'
p3160
tp3161
a(I4
I1
F0.125
S'able'
p3162
tp3163
a(I64
I3
I0
S'hear'
p3164
tp3165
a(I64
I3
I0
S'high'
p3166
tp3167
a(I64
I3
I0
S'treble'
p3168
tp3169
a(I141
I60
F0.875
S'happy'
p3170
tp3171
a(I353
I5
I0
S'needed'
p3172
tp3173
a(I370
I8
F0.375
S'similar'
p3174
tp3175
a(I415
I8
I0
S'many'
p3176
tp3177
a(I433
I2
I0
S'hear'
p3178
tp3179
a(I447
I10
F0.75
S'give'
p3180
tp3181
a(I486
I5
F-0.375
S'top'
p3182
tp3183
a(I638
I7
F-0.625
S'other'
p3184
tp3185
a(I639
I8
I0
S'few'
p3186
tp3187
a(I756
I0
F-0.625
S'bad'
p3188
tp3189
as(S'works'
p3190
tp3191
(lp3192
(I92
I3
I0
g2360
tp3193
a(I92
I7
I0
g2362
tp3194
a(I165
I0
F0.875
g2364
tp3195
a(I165
I0
I0
g2366
tp3196
a(I174
I1
I0
g2368
tp3197
a(I190
I3
I0
g2370
tp3198
a(I190
I3
F0.125
g2372
tp3199
a(I210
I0
I0
g2374
tp3200
a(I224
I11
F0.875
S'nice'
p3201
tp3202
a(I227
I0
I0
g2376
tp3203
a(I399
I4
I0
g2378
tp3204
a(I451
I1
I0
g2380
tp3205
a(I451
I1
I0
g2382
tp3206
a(I459
I1
I0
g2384
tp3207
a(I460
I0
I0
g2386
tp3208
a(I509
I0
I0
g2388
tp3209
a(I542
I1
I0
g2390
tp3210
a(I542
I2
I0
g2392
tp3211
a(I542
I2
I0
g2394
tp3212
a(I612
I1
I0
g2396
tp3213
a(I634
I25
I0
S'same'
p3214
tp3215
a(I634
I60
F1.0
S'better'
p3216
tp3217
a(I645
I0
I0
g2398
tp3218
a(I655
I1
I0
g2400
tp3219
a(I728
I0
I0
g2402
tp3220
as(S'apps'
p3221
tp3222
(lp3223
(I16
I2
I0
S'few'
p3224
tp3225
a(I96
I41
I0
S'most'
p3226
tp3227
a(I115
I7
I0
S'minimal'
p3228
tp3229
a(I125
I0
F-0.75
S'little'
p3230
tp3231
a(I125
I0
I0
S'more'
p3232
tp3233
a(I130
I1
I0
S'chinese'
p3234
tp3235
a(I154
I6
I0
S'more'
p3236
tp3237
a(I157
I3
F0.125
S'essential'
p3238
tp3239
a(I263
I2
F0.25
S'responsive'
p3240
tp3241
a(I267
I12
F0.125
S'able'
p3242
tp3243
a(I267
I12
I0
S'such'
p3244
tp3245
a(I275
I5
F-0.5
S'certain'
p3246
tp3247
a(I349
I11
I0
S'many'
p3248
tp3249
a(I373
I1
I0
S'android'
p3250
tp3251
a(I412
I13
I0
S'large'
p3252
tp3253
a(I441
I1
F1.0
S'good'
p3254
tp3255
a(I476
I0
F-0.25
S'google'
p3256
tp3257
a(I476
I0
I0
S'android'
p3258
tp3259
a(I482
I31
I0
S'american'
p3260
tp3261
a(I499
I1
I0
S'more'
p3262
tp3263
a(I499
I4
I0
S'more'
p3264
tp3265
a(I500
I8
I0
S'american'
p3266
tp3267
a(I502
I0
I0
S'different'
p3268
tp3269
a(I549
I20
F0.125
S'able'
p3270
tp3271
a(I566
I15
I0
S'closing'
p3272
tp3273
a(I570
I13
F-0.625
S'other'
p3274
tp3275
a(I570
I13
F0.5
S'satisfied'
p3276
tp3277
a(I585
I25
F0.25
S'favorite'
p3278
tp3279
a(I591
I0
I0
S'big'
p3280
tp3281
a(I618
I6
I0
S'many'
p3282
tp3283
a(I634
I63
I0
S'few'
p3284
tp3285
a(I643
I10
F-0.375
S'simple'
p3286
tp3287
a(I664
I10
I0
S'most'
p3288
tp3289
a(I686
I0
F0.375
S'available'
p3290
tp3291
a(I710
I2
F0.875
S'music'
p3292
tp3293
a(I740
I3
I0
S'more'
p3294
tp3295
as(S'straight'
p3296
S'talk'
p3297
S'sim'
p3298
tp3299
(lp3300
(I45
I6
F0.625
g1838
tp3301
a(I56
I1
F0.625
g1840
tp3302
a(I144
I6
F0.625
g1846
tp3303
a(I146
I9
F0.625
g138
tp3304
a(I152
I1
F0.625
g140
tp3305
a(I152
I1
F-0.375
g608
tp3306
a(I154
I10
F0.625
g1852
tp3307
a(I222
I12
F0.625
g144
tp3308
a(I222
I12
F-0.375
g146
tp3309
a(I286
I0
F0.625
g148
tp3310
a(I297
I7
I0
S'great'
p3311
tp3312
a(I342
I1
F0.625
g1872
tp3313
a(I342
I4
F0.625
g154
tp3314
a(I342
I4
I0
S'active'
p3315
tp3316
a(I342
I5
F0.625
g156
tp3317
a(I346
I4
F0.625
g164
tp3318
a(I412
I18
F0.625
g1883
tp3319
a(I412
I25
F0.625
g1887
tp3320
a(I483
I0
F0.625
g1891
tp3321
a(I483
I6
F0.625
g1893
tp3322
a(I483
I13
I0
g176
tp3323
a(I483
I13
F0.625
g178
tp3324
a(I491
I0
F0.625
g1897
tp3325
a(I564
I1
F0.125
g1233
tp3326
a(I567
I0
F0.625
g1899
tp3327
a(I601
I6
F0.625
g1901
tp3328
a(I664
I8
F0.625
g180
tp3329
a(I692
I3
F-0.5
g658
tp3330
a(I692
I3
F0.625
g182
tp3331
a(I708
I14
I0
g184
tp3332
a(I742
I4
F0.625
g190
tp3333
a(I763
I2
F0.625
g194
tp3334
as(S'better'
p3335
tp3336
(lp3337
(I99
I6
F0.25
S'responsive'
p3338
tp3339
a(I184
I12
F0.375
S'much'
p3340
tp3341
a(I258
I5
F0.375
S'much'
p3342
tp3343
a(I361
I3
F0.375
S'much'
p3344
tp3345
as(S'screen'
p3346
S'protector'
p3347
tp3348
(lp3349
(I156
I2
F0.875
g2711
tp3350
a(I163
I2
F0.375
g2717
tp3351
a(I251
I10
F-0.625
g2739
tp3352
a(I251
I10
F-0.75
g2741
tp3353
a(I301
I13
F-0.5
g2756
tp3354
a(I337
I9
F0.125
g2771
tp3355
a(I374
I1
F0.75
g2777
tp3356
a(I374
I1
F0.5
g2779
tp3357
a(I655
I3
F1.0
g3136
tp3358
a(I672
I13
F1.0
g3138
tp3359
as(S'put'
p3360
S'sim'
p3361
S'card'
p3362
tp3363
(lp3364
(I69
I1
F-0.5
g600
tp3365
a(I585
I23
I0
g636
tp3366
a(I594
I0
F0.625
g640
tp3367
a(I596
I1
F-0.375
g642
tp3368
a(I672
I4
I0
g656
tp3369
a(I728
I0
F-0.375
g662
tp3370
as(S'took'
p3371
tp3372
(lp3373
(I374
I2
F-0.5
S'regular'
p3374
tp3375
as(S'call'
p3376
tp3377
(lp3378
(I3
I2
F0.75
g1215
tp3379
a(I64
I10
F-0.75
S'difficult'
p3380
tp3381
a(I232
I3
F0.125
S'able'
p3382
tp3383
a(I349
I5
F-0.875
g1219
tp3384
a(I349
I5
F0.75
g1221
tp3385
a(I399
I6
F0.125
S'first'
p3386
tp3387
a(I482
I11
F0.5
S'second'
p3388
tp3389
a(I482
I12
F0.125
S'able'
p3390
tp3391
a(I482
I18
F0.5
S'second'
p3392
tp3393
a(I595
I4
F0.5
g1223
tp3394
a(I595
I5
I0
S'next'
p3395
tp3396
as(S'come'
p3397
tp3398
(lp3399
(I18
I0
I0
S'great'
p3400
tp3401
as(S'charger'
p3402
tp3403
(lp3404
(I98
I3
I0
S'external'
p3405
tp3406
a(I98
I3
F1.0
S'good'
p3407
tp3408
a(I98
I4
F-0.625
S'other'
p3409
tp3410
a(I115
I8
I0
S'standard'
p3411
tp3412
a(I141
I8
F0.375
S'new'
p3413
tp3414
a(I141
I10
F-0.5
S'sure'
p3415
tp3416
a(I155
I0
I0
S'different'
p3417
tp3418
a(I155
I0
I0
S'standard'
p3419
tp3420
a(I190
I1
F0.875
S'nice'
p3421
tp3422
a(I242
I3
I0
S'external'
p3423
tp3424
a(I394
I1
F-0.25
S'plugged'
p3425
tp3426
a(I640
I1
I0
S'old'
p3427
tp3428
a(I640
I1
F-0.625
S'wall'
p3429
tp3430
a(I640
I1
I0
S'old'
p3431
tp3432
a(I654
I17
F0.375
S'extra'
p3433
tp3434
as(g2316
S'mobile'
p3435
S'sim'
p3436
tp3437
(lp3438
(I69
I1
F-0.5
g600
tp3439
a(I79
I0
F-0.75
g602
tp3440
a(I145
I11
F0.25
g3077
tp3441
a(I190
I2
F-0.125
S'mine'
p3442
tp3443
a(I267
I1
F0.125
g612
tp3444
a(I347
I0
F-0.375
g3081
tp3445
a(I440
I1
F-0.375
g628
tp3446
a(I440
I1
I0
g630
tp3447
a(I585
I23
I0
g636
tp3448
a(I672
I4
I0
g656
tp3449
as(S'piece'
p3450
S'of'
p3451
S'junk'
p3452
tp3453
(lp3454
(I466
I2
F0.5
S'expensive'
p3455
tp3456
as(g79
S'great'
p3457
S'price'
p3458
tp3459
(lp3460
(I87
I0
I0
g979
tp3461
a(I156
I6
F0.875
g989
tp3462
a(I173
I3
F-0.5
g993
tp3463
a(I188
I2
I0
g995
tp3464
a(I202
I0
I0
g997
tp3465
a(I379
I13
I0
g1017
tp3466
a(I437
I0
F1.0
g1025
tp3467
a(I447
I0
I0
g1027
tp3468
a(I462
I2
I0
g1029
tp3469
a(I510
I0
I0
g1031
tp3470
a(I548
I0
I0
g1037
tp3471
a(I556
I2
F-0.25
g1043
tp3472
a(I556
I2
I0
g1045
tp3473
a(I556
I2
F1.0
g1047
tp3474
a(I562
I0
I0
g1049
tp3475
a(I606
I0
F0.875
g1053
tp3476
a(I623
I2
I0
g1055
tp3477
as(S'days'
p3478
tp3479
(lp3480
(I45
I0
F0.75
S'beautiful'
p3481
tp3482
a(I56
I4
I0
S'fast'
p3483
tp3484
a(I65
I0
I0
S'few'
p3485
tp3486
a(I72
I2
F0.125
S'first'
p3487
tp3488
a(I72
I2
F1.0
S'good'
p3489
tp3490
a(I80
I13
I0
S'few'
p3491
tp3492
a(I143
I2
I0
S'few'
p3493
tp3494
a(I148
I3
I0
S'few'
p3495
tp3496
a(I156
I1
F-0.125
S'super'
p3497
tp3498
a(I193
I2
I0
S'few'
p3499
tp3500
a(I342
I5
I0
S'few'
p3501
tp3502
a(I386
I2
I0
S'later'
p3503
tp3504
a(I485
I1
I0
S'fast'
p3505
tp3506
a(I565
I0
I0
S'faster'
p3507
tp3508
a(I570
I1
F-0.125
S'mine'
p3509
tp3510
a(I603
I2
I0
S'few'
p3511
tp3512
a(I626
I5
I0
S'later'
p3513
tp3514
a(I626
I5
I0
S'west'
p3515
tp3516
a(I626
I5
I0
S'coast'
p3517
tp3518
a(I638
I0
I0
S'later'
p3519
tp3520
a(I638
I4
I0
S'few'
p3521
tp3522
a(I640
I2
I0
S'later'
p3523
tp3524
a(I640
I2
I0
S'standard'
p3525
tp3526
a(I654
I3
I0
S'few'
p3527
tp3528
a(I703
I3
F0.125
S'first'
p3529
tp3530
a(I703
I3
I0
S'few'
p3531
tp3532
a(I748
I0
I0
S'great'
p3533
tp3534
as(S'china'
p3535
tp3536
(lp3537
(I45
I0
F0.625
S'straight'
p3538
tp3539
a(I337
I5
F0.5
S'technical'
p3540
tp3541
a(I482
I42
F0.125
S'able'
p3542
tp3543
a(I542
I4
I0
S'faster'
p3544
tp3545
a(I647
I0
F-0.125
S'slow'
p3546
tp3547
as(S'bubble'
p3548
S'wrap'
p3549
tp3550
(lp3551
(I80
I5
F-0.25
S'bubble'
p3552
tp3553
a(I343
I3
F-0.25
S'bubble'
p3554
tp3555
a(I585
I21
F-0.25
S'bubble'
p3556
tp3557
a(I692
I0
F-0.25
S'bubble'
p3558
tp3559
as.