(dp0
(S'bean'
p1
tp2
(lp3
(I1
I408
I0
S'quicker'
p4
I0
tp5
as(S'battery'
p6
S'life'
p7
tp8
(lp9
(I1
I329
I0
S'more'
p10
I1
tp11
a(I1
I329
F-0.75
S'worse'
p12
I1
tp13
a(I1
I383
F-0.625
S'bad'
p14
I1
tp15
a(I8
I32
F1.0
S'good'
p16
I1
tp17
a(I1
I55
F-0.125
S'slow'
p18
I19
tp19
a(I1
I55
I0
S'mobile'
p20
I19
tp21
a(I1
I329
F-0.75
g12
I19
tp22
a(I1
I383
F-0.625
g14
I19
tp23
a(I8
I32
F1.0
g16
I19
tp24
a(I0
I77
F-0.5
S'complaint'
p25
I15
tp26
a(I0
I77
I0
S'wish'
p27
I15
tp28
a(I1
I13
F0.875
S'nice'
p29
I15
tp30
a(I1
I124
F0.5
S'inaccessible'
p31
I15
tp32
a(I1
I230
F0.625
S'removable'
p33
I15
tp34
a(I1
I329
I0
g10
I15
tp35
as(S'samsung'
p36
tp37
(lp38
(I4
I6
I0
S'sensitive'
p39
I7
tp40
a(I9
I3
I0
S'faster'
p41
I7
tp42
as(S'project'
p43
S'butter'
p44
tp45
(lp46
(I0
I24
I0
S'fast'
p47
I0
tp48
as(S'quad'
p49
S'core'
p50
tp51
(lp52
(I9
I1
I0
S'only'
p53
I0
tp54
a(I9
I1
I0
g53
I0
tp55
as(S'deal'
p56
S'breaker'
p57
tp58
(lp59
(I1
I39
I0
S'deal'
p60
I0
tp61
a(I1
I323
I0
S'big'
p62
I0
tp63
as(S'camera'
p64
tp65
(lp66
(I0
I71
I0
S'great'
p67
I1
tp68
a(I1
I277
F-0.125
S'alternative'
p69
I1
tp70
a(I1
I278
F0.875
S'nice'
p71
I1
tp72
a(I1
I338
F-0.125
S'slow'
p73
I1
tp74
a(I1
I366
F1.0
S'good'
p75
I1
tp76
as(S'iphone'
p77
tp78
(lp79
(I1
I30
I-100
S"'longer"
p80
I1
tp81
a(I1
I349
F1.0
S'good'
p82
I1
tp83
a(I7
I1
F-0.375
S'small'
p84
I1
tp85
as(S'lg'
p86
S'optimus'
p87
S'g'
p88
tp89
(lp90
(I1
I104
F-0.75
S'minor'
p91
I0
tp92
a(I1
I104
F0.125
S'first'
p93
I0
tp94
a(I1
I17
I0
S'most'
p95
I0
tp96
a(I1
I17
F-0.625
S'other'
p97
I0
tp98
a(I1
I17
I0
S'only'
p99
I0
tp100
a(I1
I55
F-0.75
S'dark'
p101
I0
tp102
a(I1
I104
F-0.75
g91
I0
tp103
a(I1
I104
F0.125
g93
I0
tp104
a(I5
I29
F-0.125
S'overall'
p105
I0
tp106
a(I5
I64
F-0.75
S'wrong'
p107
I0
tp108
a(I1
I17
I0
g95
I0
tp109
a(I1
I17
F-0.625
g97
I0
tp110
a(I1
I17
I0
g99
I0
tp111
a(I5
I29
F-0.125
g105
I0
tp112
a(I5
I64
F-0.75
g107
I0
tp113
as(S'2'
p114
S'years'
p115
tp116
(lp117
(I1
I138
I0
S'next'
p118
I3
tp119
a(I1
I140
F-0.25
S'past'
p120
I3
tp121
a(I1
I279
I0
S'next'
p122
I3
tp123
as(S'google'
p124
tp125
(lp126
(I1
I47
I0
S'perspective'
p127
I4
tp128
as(S'button'
p129
tp130
(lp131
(I1
I105
I0
S'cool'
p132
I19
tp133
as(S'glass'
p134
tp135
(lp136
(I1
I247
F-0.375
S'black'
p137
I9
tp138
a(I5
I74
F-0.375
S'black'
p139
I9
tp140
a(I8
I42
F0.5
S'careful'
p141
I9
tp142
a(I8
I60
I0
S'large'
p143
I9
tp144
a(I10
I8
I-100
S'craked/scratched'
p145
I9
tp146
as(S'smooth'
p147
tp148
(lp149
(I8
I39
F0.25
S'responsive'
p150
I16
tp151
as(S'sd'
p152
S'card'
p153
tp154
(lp155
(I1
I130
F0.875
S'music'
p156
I0
tp157
a(I1
I145
F0.25
S'larger'
p158
I0
tp159
as(S'galaxy'
p160
S's'
p161
tp162
(lp163
(I1
I405
F-0.125
S'bean'
p164
I0
tp165
a(I5
I67
F-0.375
S'smaller'
p166
I0
tp167
as(S'contract'
p168
tp169
(lp170
(I4
I30
F-0.25
S'cheaper'
p171
I0
tp172
as(S'android'
p173
tp174
(lp175
(I0
I33
F0.375
S'new'
p176
I0
tp177
a(I0
I54
F-0.625
S'other'
p178
I0
tp179
a(I0
I88
F0.375
S'new'
p180
I0
tp181
a(I1
I33
F0.25
S'familiar'
p182
I0
tp183
a(I1
I78
F-0.125
S'overall'
p184
I0
tp185
a(I1
I159
F0.375
S'available'
p186
I0
tp187
a(I1
I162
F0.375
S'available'
p188
I0
tp189
a(I1
I243
F0.125
S'first'
p190
I0
tp191
a(I1
I264
I0
S'standard'
p192
I0
tp193
a(I4
I54
F-0.5
S'regular'
p194
I0
tp195
a(I5
I21
F0.125
S'first'
p196
I0
tp197
as(S'processor'
p198
tp199
(lp200
(I5
I56
F0.875
S'nice'
p201
I1
tp202
a(I8
I36
I0
S'fastest'
p203
I1
tp204
a(I8
I36
F0.375
S'available'
p205
I1
tp206
as(S'sim'
p207
S'card'
p208
tp209
(lp210
(I0
I32
F0.375
S'new'
p211
I0
tp212
as(S'key'
p213
S'lime'
p214
tp215
(lp216
(I1
I204
F0.125
S'key'
p217
I0
tp218
as(S'atrix'
p219
tp220
(lp221
(I1
I112
F-0.5
S'kept'
p222
I1
tp223
a(I8
I9
I0
S'more'
p224
I1
tp225
as(S'smartphone'
p226
tp227
(lp228
(I0
I15
F0.5
S'strong'
p229
I0
tp230
a(I1
I304
I0
S'cool'
p231
I0
tp232
a(I1
I332
F-0.625
S'other'
p233
I0
tp234
as(S'galaxy'
p235
S's3'
p236
tp237
(lp238
(I5
I67
F-0.375
g166
I0
tp239
a(I5
I67
F-0.375
g166
I0
tp240
as(S'super'
p241
S'fast'
p242
tp243
(lp244
(I0
I19
F-0.125
S'super'
p245
I0
tp246
as(S'apps'
p247
tp248
(lp249
(I1
I89
I0
S'old'
p250
I0
tp251
a(I1
I126
F-0.5
S'open'
p252
I0
tp253
a(I1
I126
F0.375
S'available'
p254
I0
tp255
a(I1
I238
F-0.625
S'other'
p256
I0
tp257
a(I1
I272
F1.0
S'good'
p258
I0
tp259
as(S'feels'
p260
tp261
(lp262
(I0
I43
I0
S'great'
p263
I14
tp264
a(I0
I43
F0.125
S'solid'
p265
I14
tp266
a(I0
I65
I0
S'sturdy'
p267
I14
tp268
a(I1
I20
F0.5
S'expensive'
p269
I14
tp270
a(I5
I34
I0
S'great'
p271
I14
tp272
as.