(dp0
(S'times'
p1
tp2
(lp3
(I90
I7
I0
S'few'
p4
tp5
a(I169
I21
F-0.25
S'white'
p6
tp7
as(S'problem'
p8
tp9
(lp10
(I15
I0
I0
S'same'
p11
tp12
a(I23
I4
F0.5
S'primary'
p13
tp14
a(I28
I2
I0
S'same'
p15
tp16
a(I67
I33
F0.375
S'much'
p17
tp18
a(I72
I5
I0
S'same'
p19
tp20
a(I175
I6
I0
S'same'
p21
tp22
a(I180
I1
I0
S'same'
p23
tp24
as(S'battery'
p25
S'life'
p26
tp27
(lp28
(I23
I13
F1.0
S'good'
p29
tp30
a(I23
I13
F0.375
S'new'
p31
tp32
a(I54
I2
F1.0
S'good'
p33
tp34
a(I61
I5
F0.625
S'acceptable'
p35
tp36
a(I82
I11
F1.0
S'good'
p37
tp38
a(I97
I11
F-0.5
S'poor'
p39
tp40
a(I107
I0
F1.0
S'good'
p41
tp42
a(I113
I4
I0
S'great'
p43
tp44
a(I116
I2
F1.0
S'good'
p45
tp46
a(I122
I2
F1.0
S'good'
p47
tp48
a(I155
I4
F1.0
S'good'
p49
tp50
as(S'keyboard'
p51
tp52
(lp53
(I27
I0
F0.375
S'much'
p54
tp55
a(I30
I3
I0
S'full'
p56
tp57
a(I30
I3
F1.0
S'good'
p58
tp59
a(I30
I3
F-0.625
S'bad'
p60
tp61
a(I30
I8
I0
S'full'
p62
tp63
a(I30
I9
F-0.375
S'small'
p64
tp65
a(I35
I0
F-0.5
S'separate'
p66
tp67
a(I53
I2
I0
S'great'
p68
tp69
a(I63
I6
F-0.75
S'difficult'
p70
tp71
a(I71
I1
I0
S'physical'
p72
tp73
a(I71
I4
I0
S'real'
p74
tp75
a(I71
I4
F0.875
S'nice'
p76
tp77
a(I86
I1
F0.625
S'easy'
p78
tp79
a(I86
I1
F-0.375
S'small'
p80
tp81
a(I94
I4
I0
S'full'
p82
tp83
a(I102
I6
F-0.625
S'light'
p84
tp85
a(I113
I7
F-0.375
S'smaller'
p86
tp87
a(I113
I7
F-0.625
S'bad'
p88
tp89
a(I116
I2
F-0.375
S'small'
p90
tp91
a(I138
I1
I0
S'full'
p92
tp93
a(I139
I2
F-0.375
S'small'
p94
tp95
a(I139
I2
I0
S'adequate'
p96
tp97
a(I140
I1
I0
S'full'
p98
tp99
a(I140
I8
I0
S'full'
p100
tp101
a(I145
I4
F0.5
S'touch'
p102
tp103
a(I145
I4
I0
S'sensitive'
p104
tp105
a(I163
I0
F-0.375
S'small'
p106
tp107
a(I163
I0
F0.625
S'easy'
p108
tp109
a(I169
I20
F0.875
S'nice'
p110
tp111
a(I169
I20
F0.125
S'able'
p112
tp113
a(I178
I8
I0
S'real'
p114
tp115
as(S'full'
p116
S'keyboard'
p117
tp118
(lp119
(I30
I3
I0
g56
tp120
a(I30
I3
F1.0
g58
tp121
a(I30
I3
F-0.625
g60
tp122
a(I30
I8
I0
g62
tp123
a(I94
I4
I0
g82
tp124
a(I138
I1
I0
g92
tp125
a(I140
I1
I0
g98
tp126
a(I140
I8
I0
g100
tp127
as(S'keys'
p128
tp129
(lp130
(I14
I0
F-0.375
S'small'
p131
tp132
a(I14
I0
F0.625
S'easy'
p133
tp134
a(I16
I0
I0
S'few'
p135
tp136
a(I20
I4
F0.25
S'responsive'
p137
tp138
a(I23
I9
F-0.375
S'small'
p139
tp140
a(I59
I3
F-0.375
S'small'
p141
tp142
a(I75
I1
F-0.375
S'small'
p143
tp144
a(I78
I0
F-0.375
S'small'
p145
tp146
a(I85
I3
F-0.75
S'comfortable'
p147
tp148
a(I92
I4
F-0.375
S'small'
p149
tp150
a(I101
I3
F0.625
S'easy'
p151
tp152
a(I152
I4
F0.625
S'easy'
p153
tp154
a(I152
I4
F-0.375
S'small'
p155
tp156
a(I152
I4
F0.625
S'easy'
p157
tp158
a(I169
I14
F0.5
S'flat'
p159
tp160
a(I174
I2
F0.625
S'kind'
p161
tp162
a(I177
I3
F-0.375
S'small'
p163
tp164
as(S'decent'
p165
tp166
(lp167
(I167
I5
F0.375
S'reliable'
p168
tp169
as(S'text'
p170
tp171
(lp172
(I20
I10
F0.375
S'new'
p173
tp174
a(I61
I3
F0.625
S'easy'
p175
tp176
a(I77
I8
F0.375
S'new'
p177
tp178
a(I82
I3
I0
S'same'
p179
tp180
a(I108
I2
I0
S'monthly'
p181
tp182
a(I134
I0
F0.125
S'able'
p183
tp184
a(I137
I10
F0.625
S'easy'
p185
tp186
a(I175
I3
F0.75
S'receive'
p187
tp188
as(S'card'
p189
tp190
(lp191
(I105
I2
F0.375
S'new'
p192
tp193
as(S'little'
p194
tp195
(lp196
(I98
I0
F1.0
S'good'
p197
tp198
a(I134
I0
F1.0
S'good'
p199
tp200
as(S'price'
p201
tp202
(lp203
(I3
I6
F-0.25
S'low'
p204
tp205
a(I15
I0
F1.0
S'best'
p206
tp207
a(I39
I2
F1.0
S'good'
p208
tp209
a(I48
I0
I0
S'great'
p210
tp211
a(I62
I0
I0
S'great'
p212
tp213
a(I97
I2
F0.75
S'due'
p214
tp215
a(I98
I1
F-0.125
S'overall'
p216
tp217
a(I111
I0
F0.5
S'reasonable'
p218
tp219
a(I116
I2
F0.75
S'worth'
p220
tp221
a(I125
I5
F-0.125
S'overall'
p222
tp223
a(I152
I1
F-0.25
S'low'
p224
tp225
a(I172
I1
F1.0
S'good'
p226
tp227
a(I178
I0
F-0.75
S'wrong'
p228
tp229
as(S'text'
p230
S'messaging'
p231
tp232
(lp233
(I77
I8
F0.375
g177
tp234
as(S'sound'
p235
tp236
(lp237
(I23
I12
F1.0
S'good'
p238
tp239
a(I28
I1
F-0.25
S'low'
p240
tp241
a(I83
I0
I0
S'great'
p242
tp243
a(I107
I0
F0.5
S'clear'
p244
tp245
a(I128
I2
F0.375
S'interesting'
p246
tp247
a(I172
I0
F0.5
S'clear'
p248
tp249
as(S'service'
p250
tp251
(lp252
(I54
I5
F0.5
S'told'
p253
tp254
a(I97
I5
F0.625
S'decent'
p255
tp256
a(I111
I0
F0.5
S'second'
p257
tp258
a(I114
I2
F1.0
S'good'
p259
tp260
as(S'high'
p261
S'tech'
p262
tp263
(lp264
(I13
I4
F0.375
S'reliable'
p265
tp266
a(I13
I4
F-0.375
S'simple'
p267
tp268
a(I13
I4
I0
S'high'
p269
tp270
a(I73
I3
I0
S'high'
p271
tp272
a(I89
I7
I0
S'high'
p273
tp274
as(S'number'
p275
tp276
(lp277
(I20
I5
I0
S'dial'
p278
tp279
a(I118
I1
F1.0
S'good'
p280
tp281
as(S'big'
p282
S'deal'
p283
tp284
(lp285
(I30
I14
I0
S'big'
p286
tp287
a(I113
I22
I0
S'big'
p288
tp289
a(I137
I13
I0
S'big'
p290
tp291
a(I169
I22
I0
S'big'
p292
tp293
as(S'qwerty'
p294
S'keyboard'
p295
tp296
(lp297
(I36
I1
I0
S'full'
p298
tp299
a(I59
I3
I0
S'full'
p300
tp301
a(I63
I6
F-0.75
g70
tp302
a(I113
I7
F-0.375
g86
tp303
a(I113
I7
F-0.625
g88
tp304
a(I116
I2
F-0.375
g90
tp305
a(I139
I21
F-0.875
S'hard'
p306
tp307
as(S'data'
p308
S'plan'
p309
tp310
(lp311
(I30
I0
I0
S'high'
p312
tp313
a(I127
I4
F0.625
S'easy'
p314
tp315
a(I178
I8
I0
S'economical'
p316
tp317
as(S'job'
p318
S'done'
p319
tp320
(lp321
(I174
I3
F-0.625
S'other'
p322
tp323
as(S'blue'
p324
S'tooth'
p325
tp326
(lp327
(I77
I5
I0
S'blue'
p328
tp329
a(I77
I17
I0
S'blue'
p330
tp331
a(I96
I5
I0
S'blue'
p332
tp333
as(S'quality'
p334
tp335
(lp336
(I5
I0
F-0.125
S'overall'
p337
tp338
a(I5
I0
F1.0
S'good'
p339
tp340
a(I30
I4
F1.0
S'good'
p341
tp342
a(I55
I2
F1.0
S'good'
p343
tp344
a(I67
I30
F1.0
S'best'
p345
tp346
a(I67
I30
F1.0
S'good'
p347
tp348
a(I67
I30
I0
S'pic'
p349
tp350
a(I75
I0
F1.0
S'good'
p351
tp352
a(I94
I6
F0.25
S'professional'
p353
tp354
a(I94
I6
F0.25
S'professional'
p355
tp356
a(I97
I5
F1.0
S'good'
p357
tp358
a(I117
I2
F1.0
S'good'
p359
tp360
a(I127
I4
F-0.25
S'lower'
p361
tp362
a(I133
I7
F-0.125
S'invest'
p363
tp364
a(I133
I8
F-0.25
S'lower'
p365
tp366
a(I137
I9
I0
S'adequate'
p367
tp368
a(I139
I2
F1.0
S'good'
p369
tp370
a(I148
I1
F1.0
S'best'
p371
tp372
a(I155
I4
F1.0
S'good'
p373
tp374
a(I155
I5
F1.0
S'good'
p375
tp376
a(I173
I3
F1.0
S'good'
p377
tp378
a(I178
I16
I0
S'high'
p379
tp380
a(I178
I21
F-0.25
S'lower'
p381
tp382
as(S'life'
p383
tp384
(lp385
(I23
I13
F1.0
g29
tp386
a(I23
I13
F0.375
g31
tp387
a(I54
I2
F1.0
g33
tp388
a(I61
I5
F0.625
g35
tp389
a(I82
I11
F1.0
g37
tp390
a(I97
I11
F-0.5
g39
tp391
a(I113
I4
I0
g43
tp392
a(I122
I2
F1.0
g47
tp393
a(I155
I4
F1.0
g49
tp394
as(S'send'
p395
S'picture'
p396
tp397
(lp398
(I153
I5
I0
S'text'
p399
tp400
as(S'a'
p401
S'full'
p402
S'keyboard'
p403
tp404
(lp405
(I30
I3
I0
g56
tp406
a(I30
I3
F1.0
g58
tp407
a(I30
I3
F-0.625
g60
tp408
a(I30
I8
I0
g62
tp409
a(I94
I4
I0
g82
tp410
a(I138
I1
I0
g92
tp411
a(I140
I1
I0
g98
tp412
a(I140
I8
I0
g100
tp413
as(S'pictures'
p414
tp415
(lp416
(I75
I2
F1.0
S'good'
p417
tp418
a(I96
I4
F0.875
S'music'
p419
tp420
as(S'features'
p421
tp422
(lp423
(I74
I2
I0
S'different'
p424
tp425
a(I97
I9
F-0.625
S'other'
p426
tp427
a(I116
I3
F-0.75
S'unconventional'
p428
tp429
a(I116
I3
F-0.875
S'hard'
p430
tp431
a(I163
I1
I0
S'great'
p432
tp433
a(I163
I1
F1.0
S'good'
p434
tp435
as(S'messages'
p436
tp437
(lp438
(I9
I1
I0
S'cool'
p439
tp440
a(I87
I2
I0
S'text'
p441
tp442
a(I114
I2
F-0.625
S'other'
p443
tp444
a(I128
I2
F-0.75
S'inconvenient'
p445
tp446
a(I139
I11
I0
S'text'
p447
tp448
as(S'people'
p449
tp450
(lp451
(I30
I14
I0
S'text'
p452
tp453
a(I30
I14
I0
S'few'
p454
tp455
a(I82
I13
I0
S'most'
p456
tp457
a(I178
I12
I0
S'many'
p458
tp459
as(S'feature'
p460
tp461
(lp462
(I30
I22
I0
S'more'
p463
tp464
a(I79
I4
F-0.5
S'miss'
p465
tp466
a(I101
I1
F0.625
S'easy'
p467
tp468
a(I116
I2
F-0.125
S'slow'
p469
tp470
a(I178
I6
F1.0
S'best'
p471
tp472
a(I178
I11
I0
S'many'
p473
tp474
as(S'light'
p475
S'weight'
p476
tp477
(lp478
(I14
I3
F-0.625
S'light'
p479
tp480
a(I113
I9
F0.875
S'nice'
p481
tp482
a(I122
I2
F-0.25
S'thin'
p483
tp484
a(I122
I2
F-0.625
S'light'
p485
tp486
a(I133
I5
F-0.625
S'light'
p487
tp488
as(S'send'
p489
tp490
(lp491
(I79
I2
I0
S'dial'
p492
tp493
a(I153
I5
I0
g399
tp494
as(S'month'
p495
tp496
(lp497
(I69
I5
F-0.5
S'less'
p498
tp499
as(S'plan'
p500
tp501
(lp502
(I79
I3
F-0.25
S'cheaper'
p503
tp504
a(I127
I4
F0.625
g314
tp505
as(S'case'
p506
tp507
(lp508
(I9
I2
F0.625
S'safe'
p509
tp510
a(I61
I2
I0
S'plastic'
p511
tp512
a(I61
I2
F-0.875
S'hard'
p513
tp514
a(I61
I3
F-0.875
S'hard'
p515
tp516
a(I69
I12
F-0.25
S'lower'
p517
tp518
a(I69
I12
F0.375
S'upper'
p519
tp520
as(S'works'
p521
tp522
(lp523
(I39
I0
I0
S'great'
p524
tp525
a(I67
I17
I0
S'great'
p526
tp527
a(I74
I2
I0
S'great'
p528
tp529
a(I96
I6
I0
S'great'
p530
tp531
a(I117
I3
F1.0
S'good'
p532
tp533
a(I128
I5
I0
S'great'
p534
tp535
a(I135
I1
I0
S'great'
p536
tp537
a(I141
I3
F1.0
S'better'
p538
tp539
as(S'message'
p540
tp541
(lp542
(I30
I13
F0.5
S'true'
p543
tp544
a(I30
I13
F-0.5
S'open'
p545
tp546
a(I113
I6
F0.375
S'new'
p547
tp548
a(I113
I18
F0.375
S'new'
p549
tp550
a(I117
I3
F0.375
S'new'
p551
tp552
a(I117
I3
F0.375
S'new'
p553
tp554
a(I127
I0
F0.375
S'new'
p555
tp556
a(I127
I0
F0.375
S'new'
p557
tp558
as(S'simple'
p559
tp560
(lp561
(I13
I0
F0.625
S'easy'
p562
tp563
a(I13
I0
F0.625
S'manageable'
p564
tp565
as(S'smart'
p566
tp567
(lp568
(I2
I2
F0.5
S'true'
p569
tp570
a(I23
I12
I0
S'real'
p571
tp572
a(I60
I1
F0.5
S'expensive'
p573
tp574
a(I60
I1
F1.0
S'good'
p575
tp576
a(I173
I1
F0.125
S'popular'
p577
tp578
as(S'and'
p579
S'battery'
p580
S'life'
p581
tp582
(lp583
(I23
I13
F1.0
g29
tp584
a(I23
I13
F0.375
g31
tp585
a(I54
I2
F1.0
g33
tp586
a(I61
I5
F0.625
g35
tp587
a(I82
I11
F1.0
g37
tp588
a(I97
I11
F-0.5
g39
tp589
a(I107
I0
F1.0
g41
tp590
a(I116
I2
F1.0
g45
tp591
a(I122
I2
F1.0
g47
tp592
as(S'replacement'
p593
tp594
(lp595
(I60
I1
I0
S'quick'
p596
tp597
a(I60
I1
F0.625
S'easy'
p598
tp599
a(I85
I0
I0
S'great'
p600
tp601
a(I88
I0
I0
S'great'
p602
tp603
a(I122
I0
I0
S'older'
p604
tp605
a(I147
I4
F0.375
S'new'
p606
tp607
a(I148
I1
I0
S'great'
p608
tp609
as(S'samsung'
p610
S'galaxy'
p611
tp612
(lp613
(I112
I4
I0
S'basic'
p614
tp615
a(I112
I4
F0.875
S'nice'
p616
tp617
a(I112
I7
F0.375
S'extra'
p618
tp619
a(I112
I7
F0.375
S'dependable'
p620
tp621
as(S'looking'
p622
tp623
(lp624
(I55
I2
I0
S'great'
p625
tp626
as(S'money'
p627
tp628
(lp629
(I20
I15
F1.0
S'good'
p630
tp631
a(I89
I14
F1.0
S'good'
p632
tp633
a(I159
I2
F0.75
S'worth'
p634
tp635
a(I170
I0
F0.375
S'much'
p636
tp637
a(I173
I16
F0.75
S'worth'
p638
tp639
as(S'thing'
p640
tp641
(lp642
(I77
I19
I0
S'useful'
p643
tp644
a(I77
I19
I0
S'most'
p645
tp646
a(I113
I0
F0.125
S'first'
p647
tp648
a(I113
I11
F-0.625
S'other'
p649
tp650
a(I125
I3
F1.0
S'good'
p651
tp652
a(I125
I3
I0
S'big'
p653
tp654
a(I128
I1
F0.25
S'favorite'
p655
tp656
a(I169
I1
F0.875
S'important'
p657
tp658
a(I169
I1
I0
S'such'
p659
tp660
a(I169
I9
F0.5
S'whole'
p661
tp662
a(I173
I13
I0
S'entire'
p663
tp664
as(S'sim'
p665
S'card'
p666
tp667
(lp668
(I71
I3
I0
S'prepaid'
p669
tp670
a(I105
I2
F0.375
g192
tp671
a(I133
I5
F0.375
S'new'
p672
tp673
a(I133
I5
I0
S'old'
p674
tp675
a(I137
I15
I0
S'old'
p676
tp677
a(I155
I8
F0.25
S'larger'
p678
tp679
a(I155
I10
I0
S'own'
p680
tp681
as(S'charge'
p682
tp683
(lp684
(I20
I12
F-0.625
S'fresh'
p685
tp686
a(I110
I2
F0.375
S'new'
p687
tp688
a(I110
I2
F-0.5
S'did'
p689
tp690
a(I110
I2
F0.125
S'last'
p691
tp692
a(I139
I5
I0
S'full'
p693
tp694
as(S'camera'
p695
tp696
(lp697
(I113
I15
I0
S'great'
p698
tp699
a(I139
I14
F1.0
S'good'
p700
tp701
a(I173
I8
I0
S'least'
p702
tp703
as(S'sd'
p704
S'card'
p705
tp706
(lp707
(I173
I13
F0.875
S'music'
p708
tp709
as(S'text'
p710
S'messages'
p711
tp712
(lp713
(I87
I2
I0
g441
tp714
a(I128
I2
F-0.75
g445
tp715
a(I139
I11
I0
g447
tp716
a(I175
I3
F0.75
g187
tp717
as(S'call'
p718
tp719
(lp720
(I122
I6
I0
S'great'
p721
tp722
as(S'make'
p723
tp724
(lp725
(I109
I0
F-0.125
S'cant'
p726
tp727
as(S'store'
p728
tp729
(lp730
(I173
I0
I0
S'retail'
p731
tp732
as(S'screen'
p733
tp734
(lp735
(I9
I1
F0.75
S'beautiful'
p736
tp737
a(I10
I1
F0.25
S'main'
p738
tp739
a(I20
I7
I0
S'different'
p740
tp741
a(I20
I7
F-0.625
S'other'
p742
tp743
a(I20
I8
F-0.25
S'white'
p744
tp745
a(I78
I0
F-0.375
S'small'
p746
tp747
a(I113
I19
F0.25
S'main'
p748
tp749
a(I113
I20
F0.25
S'main'
p750
tp751
a(I121
I0
F-0.25
S'white'
p752
tp753
a(I122
I1
I0
S'large'
p754
tp755
a(I122
I1
F0.625
S'easy'
p756
tp757
a(I126
I1
I0
S'great'
p758
tp759
a(I131
I0
F-0.25
S'white'
p760
tp761
a(I139
I14
F0.625
S'easy'
p762
tp763
a(I152
I7
F0.5
S'clear'
p764
tp765
a(I152
I7
F0.625
S'easy'
p766
tp767
a(I171
I1
F0.625
S'easy'
p768
tp769
a(I171
I1
F0.875
S'nice'
p770
tp771
a(I178
I32
F0.25
S'main'
p772
tp773
as(S'time'
p774
tp775
(lp776
(I15
I0
F0.125
S'first'
p777
tp778
a(I20
I11
F-0.5
S'long'
p779
tp780
a(I20
I11
F-0.5
S'sure'
p781
tp782
a(I74
I2
I0
S'most'
p783
tp784
a(I85
I3
F-0.5
S'long'
p785
tp786
a(I111
I0
I0
S'more'
p787
tp788
a(I114
I1
F0.625
S'easy'
p789
tp790
a(I120
I4
F-0.5
S'long'
p791
tp792
a(I121
I0
F-0.25
S'white'
p793
tp794
a(I121
I0
F0.5
S'whole'
p795
tp796
a(I122
I8
I0
S'same'
p797
tp798
a(I139
I7
F-0.5
S'long'
p799
tp800
a(I150
I0
F-0.875
S'hard'
p801
tp802
a(I159
I1
F-0.5
S'long'
p803
tp804
a(I172
I0
F0.125
S'first'
p805
tp806
a(I173
I1
F0.5
S'second'
p807
tp808
a(I173
I1
F-0.5
S'less'
p809
tp810
as(S'music'
p811
S'player'
p812
tp813
(lp814
(I77
I9
F0.875
S'music'
p815
tp816
a(I77
I9
F0.875
S'music'
p817
tp818
as(S'battery'
p819
tp820
(lp821
(I3
I4
F0.375
S'extra'
p822
tp823
a(I63
I7
I0
S'big'
p824
tp825
a(I69
I4
F-0.875
S'awful'
p826
tp827
a(I69
I5
F-0.5
S'less'
p828
tp829
a(I73
I3
F0.125
S'last'
p830
tp831
a(I97
I12
F0.5
S'possible'
p832
tp833
a(I107
I0
F1.0
g41
tp834
a(I116
I2
F1.0
g45
tp835
as(S'data'
p836
tp837
(lp838
(I30
I0
I0
g312
tp839
a(I31
I5
F0.5
S'expensive'
p840
tp841
a(I63
I11
I0
S'cable'
p842
tp843
a(I67
I11
F-0.25
S'cheaper'
p844
tp845
a(I168
I3
F-0.375
S'disable'
p846
tp847
a(I178
I8
I0
g316
tp848
as(g401
S'data'
p849
S'plan'
p850
tp851
(lp852
(I30
I0
I0
g312
tp853
a(I127
I4
F0.625
g314
tp854
a(I178
I8
I0
g316
tp855
as(S'heavy'
p856
S'texter'
p857
tp858
(lp859
(I30
I2
F-0.5
S'heavy'
p860
tp861
a(I30
I2
F0.375
S'mean'
p862
tp863
a(I169
I10
F-0.5
S'heavy'
p864
tp865
a(I178
I9
F-0.5
S'heavy'
p866
tp867
as(S'always'
p868
tp869
(lp870
(I30
I0
F0.25
S'tired'
p871
tp872
as(g401
S'sim'
p873
S'card'
p874
tp875
(lp876
(I71
I3
I0
g669
tp877
a(I105
I2
F0.375
g192
tp878
a(I133
I5
F0.375
g672
tp879
a(I133
I5
I0
g674
tp880
a(I137
I15
I0
g676
tp881
a(I155
I8
F0.25
g678
tp882
a(I155
I10
I0
g680
tp883
as(S'problems'
p884
tp885
(lp886
(I9
I4
F-0.5
S'sure'
p887
tp888
a(I151
I4
I0
S'same'
p889
tp890
as(S'customer'
p891
S'service'
p892
tp893
(lp894
(I54
I5
F0.5
g253
tp895
as(S'cheap'
p896
tp897
(lp898
(I112
I8
I0
S'basic'
p899
tp900
as(S'better'
p901
tp902
(lp903
(I113
I3
F0.375
S'much'
p904
tp905
as(S'texting'
p906
tp907
(lp908
(I20
I6
I0
S'normal'
p909
tp910
a(I20
I6
I0
S'phenomenal'
p911
tp912
a(I30
I4
F-0.375
S'simple'
p913
tp914
a(I41
I1
F0.625
S'perfect'
p915
tp916
a(I51
I2
I0
S'great'
p917
tp918
a(I59
I5
I0
S'limited'
p919
tp920
a(I61
I4
F1.0
S'good'
p921
tp922
a(I67
I10
F0.625
S'easy'
p923
tp924
a(I97
I4
I0
S'great'
p925
tp926
a(I139
I9
F-0.5
S'heavy'
p927
tp928
as(S'apps'
p929
tp930
(lp931
(I31
I4
I0
S'such'
p932
tp933
a(I44
I1
F0.875
S'nice'
p934
tp935
a(I44
I1
I0
S'useful'
p936
tp937
a(I61
I0
F0.125
S'able'
p938
tp939
a(I61
I0
F0.625
S'easier'
p940
tp941
a(I67
I36
I0
S'wish'
p942
tp943
a(I178
I16
I0
S'many'
p944
tp945
a(I178
I30
F-0.625
S'other'
p946
tp947
as(S'someone'
p948
tp949
(lp950
(I140
I9
F1.0
S'better'
p951
tp952
as(S'days'
p953
tp954
(lp955
(I30
I10
I0
S'few'
p956
tp957
a(I45
I1
I0
S'later'
p958
tp959
a(I59
I1
I0
S'later'
p960
tp961
a(I113
I17
I0
S'few'
p962
tp963
as(S'smartphone'
p964
tp965
(lp966
(I56
I4
I0
S'sleek'
p967
tp968
a(I98
I1
F-0.125
S'slow'
p969
tp970
a(I140
I9
F0.5
S'expensive'
p971
tp972
a(I178
I1
I0
S'latest'
p973
tp974
a(I178
I5
F0.5
S'expensive'
p975
tp976
as(S'calls'
p977
tp978
(lp979
(I28
I2
I0
S'many'
p980
tp981
a(I41
I1
F0.5
S'clear'
p982
tp983
a(I58
I1
F1.0
S'good'
p984
tp985
a(I113
I2
F0.5
S'clear'
p986
tp987
a(I113
I2
F0.625
S'easy'
p988
tp989
a(I118
I1
F1.0
S'good'
p990
tp991
a(I142
I1
F0.625
S'perfect'
p992
tp993
a(I145
I9
F0.25
S'recent'
p994
tp995
a(I149
I0
F0.75
S'receive'
p996
tp997
as.