(dp0
(S'seller'
p1
tp2
(lp3
(I1
I7
F0.25
S'helpful'
p4
I19
tp5
a(I1
I7
I0
S'efficient'
p6
I19
tp7
a(I10
I7
I0
S'such'
p8
I19
tp9
a(I10
I7
I0
S'great'
p10
I19
tp11
as(S'iphone'
p12
tp13
(lp14
(I0
I23
I0
S'most'
p15
I1
tp16
a(I1
I32
F0.125
S'last'
p17
I1
tp18
a(I2
I3
F0.5
S'compatible'
p19
I1
tp20
a(I2
I4
F-0.625
S'other'
p21
I1
tp22
a(I3
I5
F0.375
S'new'
p23
I1
tp24
a(I13
I9
F0.375
S'new'
p25
I1
tp26
a(I15
I7
I0
S'fast'
p27
I1
tp28
a(I16
I7
I0
S'old'
p29
I1
tp30
as.