(dp0
(S'iphone'
p1
tp2
(lp3
(I5
I7
F-0.125
S'former'
p4
I1
tp5
a(I5
I9
F0.375
S'new'
p6
I1
tp7
as(S'apps'
p8
tp9
(lp10
(I8
I12
I0
S'great'
p11
I0
tp12
a(I10
I8
F-0.625
S'other'
p13
I0
tp14
a(I10
I17
I0
S'big'
p15
I0
tp16
a(I10
I18
I0
S'big'
p17
I0
tp18
a(I15
I3
I0
S'fewer'
p19
I0
tp20
as(S'windows'
p21
tp22
(lp23
(I4
I9
I0
S'different'
p24
I0
tp25
a(I6
I0
F0.125
S'first'
p26
I0
tp27
a(I8
I16
F-0.625
S'other'
p28
I0
tp29
a(I11
I2
I0
S'same'
p30
I0
tp31
a(I12
I9
F-0.625
S'want'
p32
I0
tp33
a(I15
I14
F0.125
S'first'
p34
I0
tp35
as(S'sim'
p36
S'card'
p37
tp38
(lp39
(I7
I5
F-0.375
S'smaller'
p40
I0
tp41
as(S'first'
p42
S'smartphone'
p43
tp44
(lp45
(I4
I12
F0.125
S'first'
p46
I0
tp47
a(I8
I23
F0.125
S'first'
p48
I0
tp49
a(I15
I24
F0.125
S'first'
p50
I0
tp51
as(S'camera'
p52
tp53
(lp54
(I5
I22
F-0.125
S'front'
p55
I1
tp56
a(I5
I23
I0
S'rear'
p57
I1
tp58
a(I10
I6
F1.0
S'good'
p59
I1
tp60
a(I13
I1
F1.0
S'best'
p61
I1
tp62
as(S'touch'
p63
S'screen'
p64
tp65
(lp66
(I0
I0
F0.625
S'easy'
p67
I2
tp68
a(I17
I0
F0.125
S'first'
p69
I2
tp70
a(I17
I0
F0.125
S'first'
p71
I2
tp72
as.