(dp0
(S'existing'
p1
S'plan'
p2
tp3
(lp4
(I5
I2
F0.125
S'able'
p5
I0
tp6
as(S'battery'
p7
S'life'
p8
tp9
(lp10
(I1
I6
F0.125
S'able'
p11
I1
tp12
a(I12
I2
F-0.5
S'poor'
p13
I1
tp14
a(I12
I3
I0
S'great'
p15
I1
tp16
a(I16
I3
F-0.25
S'battery'
p17
I1
tp18
a(I16
I3
F0.625
S'easy'
p19
I1
tp20
a(I16
I31
F-0.375
S'double'
p21
I1
tp22
a(I5
I14
F-0.625
S'bad'
p23
I15
tp24
a(I12
I2
F-0.5
g13
I15
tp25
a(I12
I56
F-0.75
S'dead'
p26
I15
tp27
a(I12
I79
F-0.625
S'bad'
p28
I15
tp29
a(I12
I80
F-0.625
S'other'
p30
I15
tp31
a(I15
I5
F0.375
S'new'
p32
I15
tp33
a(I16
I28
F0.25
S'larger'
p34
I15
tp35
as(S'revere'
p36
tp37
(lp38
(I4
I0
F0.25
S'original'
p39
I0
tp40
a(I16
I41
F0.5
S'second'
p41
I0
tp42
a(I16
I41
I0
S'great'
p43
I0
tp44
as(S'verizon'
p45
tp46
(lp47
(I2
I14
F0.875
S'happy'
p48
I0
tp49
a(I2
I14
F0.875
S'happy'
p50
I0
tp51
a(I4
I35
F0.375
S'new'
p52
I0
tp53
a(I5
I16
I0
S'more'
p54
I0
tp55
a(I11
I1
I0
S'local'
p56
I0
tp57
a(I11
I22
F-0.25
S'cheaper'
p58
I0
tp59
as(S'flip'
p60
tp61
(lp62
(I2
I7
F1.0
S'good'
p63
I4
tp64
a(I2
I7
F-0.375
S'small'
p65
I4
tp66
a(I2
I7
F0.125
S'solid'
p67
I4
tp68
a(I4
I7
I0
S'basic'
p69
I4
tp70
a(I4
I46
F-0.625
S'bad'
p71
I4
tp72
a(I4
I67
F0.375
S'reliable'
p73
I4
tp74
as(S'calls'
p75
tp76
(lp77
(I12
I8
F-0.25
S'dropped'
p78
I0
tp79
a(I12
I71
I0
S'dial'
p80
I0
tp81
as.