(dp0
(S'battery'
p1
S'life'
p2
tp3
(lp4
(I0
I13
F-0.5
S'suspect'
p5
I1
tp6
a(I10
I21
F0.625
S'easy'
p7
I1
tp8
a(I10
I21
F1.0
S'good'
p9
I1
tp10
a(I16
I11
F-0.5
S'long'
p11
I1
tp12
a(I27
I108
F1.0
S'good'
p13
I1
tp14
a(I29
I16
F1.0
S'good'
p15
I1
tp16
a(I41
I30
F1.0
S'good'
p17
I1
tp18
a(I53
I100
F0.375
S'new'
p19
I1
tp20
a(I53
I100
I0
S'great'
p21
I1
tp22
a(I65
I33
F-0.5
S'long'
p23
I1
tp24
a(I71
I13
F-0.625
S'average'
p25
I1
tp26
a(I86
I33
F-0.5
S'complaint'
p27
I1
tp28
a(I7
I32
F0.375
S'new'
p29
I15
tp30
a(I7
I32
F-0.5
S'worthless'
p31
I15
tp32
a(I7
I36
F-0.25
S'low'
p33
I15
tp34
a(I7
I36
F0.5
S'possible'
p35
I15
tp36
a(I7
I39
F-0.25
S'low'
p37
I15
tp38
a(I10
I21
F0.625
g7
I15
tp39
a(I16
I11
F-0.5
g11
I15
tp40
a(I16
I12
F-0.75
S'dead'
p41
I15
tp42
a(I18
I17
F-0.25
S'low'
p43
I15
tp44
a(I25
I106
F0.375
S'extra'
p45
I15
tp46
a(I30
I11
F-0.25
S'low'
p47
I15
tp48
a(I30
I11
F1.0
S'good'
p49
I15
tp50
a(I30
I11
F0.375
S'new'
p51
I15
tp52
a(I41
I30
F1.0
g17
I15
tp53
a(I45
I7
I0
S'full'
p54
I15
tp55
a(I45
I7
F-0.5
S'sure'
p56
I15
tp57
a(I48
I53
F0.125
S'last'
p58
I15
tp59
a(I51
I6
F0.125
S'last'
p60
I15
tp61
a(I51
I6
F-0.5
S'long'
p62
I15
tp63
a(I53
I28
F-0.625
S'bad'
p64
I15
tp65
a(I53
I53
F0.125
S'first'
p66
I15
tp67
a(I53
I100
F0.375
g19
I15
tp68
a(I53
I100
I0
g21
I15
tp69
a(I53
I129
F0.125
S'last'
p70
I15
tp71
a(I64
I4
F-0.5
S'long'
p72
I15
tp73
a(I64
I4
F0.125
S'last'
p74
I15
tp75
a(I65
I33
F-0.5
g23
I15
tp76
a(I86
I33
F-0.5
g27
I15
tp77
as(S'need'
p78
S'a'
p79
S'smart'
p80
tp81
(lp82
(I41
I32
F-0.625
S'want'
p83
I0
tp84
a(I66
I11
I0
S'shy'
p85
I0
tp86
a(I80
I48
F-0.25
S'higher'
p87
I0
tp88
a(I82
I25
F0.5
S'true'
p89
I0
tp90
a(I15
I0
F0.125
S'first'
p91
I10
tp92
a(I16
I7
F0.5
S'true'
p93
I10
tp94
a(I17
I41
F0.5
S'expensive'
p95
I10
tp96
a(I18
I4
F0.5
S'true'
p97
I10
tp98
a(I32
I11
F0.375
S'much'
p99
I10
tp100
a(I32
I38
F0.5
S'true'
p101
I10
tp102
a(I36
I184
F0.125
S'first'
p103
I10
tp104
a(I41
I32
F-0.625
g83
I10
tp105
a(I48
I13
F-0.5
S'sure'
p106
I10
tp107
a(I53
I18
I0
S'close'
p108
I10
tp109
a(I53
I117
F0.375
S'reliable'
p110
I10
tp111
a(I53
I117
I0
S'most'
p112
I10
tp113
a(I53
I121
I0
S'latest'
p114
I10
tp115
a(I61
I40
F0.875
S'happy'
p116
I10
tp117
a(I61
I40
F0.375
S'new'
p118
I10
tp119
a(I66
I11
I0
g85
I10
tp120
a(I66
I57
F0.5
S'true'
p121
I10
tp122
a(I67
I1
I0
S'close'
p123
I10
tp124
a(I67
I56
I0
S'real'
p125
I10
tp126
a(I69
I9
F-0.375
S'smaller'
p127
I10
tp128
a(I69
I9
I0
S'most'
p129
I10
tp130
a(I80
I48
F-0.25
g87
I10
tp131
a(I82
I25
F0.5
g89
I10
tp132
a(I83
I24
I0
S'very'
p133
I10
tp134
a(I83
I24
F0.5
S'expensive'
p135
I10
tp136
a(I84
I39
I0
S'prepaid'
p137
I10
tp138
as(S'email'
p139
tp140
(lp141
(I0
I24
F-0.625
S'other'
p142
I5
tp143
a(I35
I80
I0
S'sensitive'
p144
I5
tp145
a(I35
I82
F0.25
S'sign'
p146
I5
tp147
a(I35
I113
I0
S'own'
p148
I5
tp149
a(I37
I11
F0.625
S'superior'
p150
I5
tp151
a(I49
I5
I0
S'least'
p152
I5
tp153
a(I53
I3
F0.625
S'easy'
p154
I5
tp155
a(I53
I42
I0
S'great'
p156
I5
tp157
a(I53
I43
I0
S'net'
p158
I5
tp159
a(I57
I44
F0.625
S'convenient'
p160
I5
tp161
a(I58
I12
F-0.625
S'other'
p162
I5
tp163
a(I58
I12
F0.875
S'important'
p164
I5
tp165
a(I61
I96
F-0.625
S'free'
p166
I5
tp167
a(I73
I7
I0
S'net'
p168
I5
tp169
a(I81
I7
F-0.75
S'difficult'
p170
I5
tp171
a(I91
I24
I0
S'basic'
p172
I5
tp173
as(g79
S'great'
p174
S'deal'
p175
tp176
(lp177
(I1
I0
I0
S'great'
p178
I9
tp179
a(I2
I171
I0
S'great'
p180
I9
tp181
a(I6
I10
I0
S'big'
p182
I9
tp183
a(I12
I127
F0.5
S'second'
p184
I9
tp185
a(I12
I127
I0
S'great'
p186
I9
tp187
a(I14
I12
I0
S'great'
p188
I9
tp189
a(I32
I14
I0
S'great'
p190
I9
tp191
a(I37
I3
I0
S'great'
p192
I9
tp193
a(I44
I0
I0
S'great'
p194
I9
tp195
a(I51
I9
I0
S'great'
p196
I9
tp197
a(I61
I90
I0
S'great'
p198
I9
tp199
a(I67
I15
I0
S'great'
p200
I9
tp201
a(I68
I6
I0
S'great'
p202
I9
tp203
a(I72
I0
F1.0
S'better'
p204
I9
tp205
a(I84
I13
I0
S'great'
p206
I9
tp207
a(I89
I7
I0
S'great'
p208
I9
tp209
a(I1
I0
I0
g178
I10
tp210
a(I2
I171
I0
g180
I10
tp211
a(I6
I10
I0
g182
I10
tp212
a(I12
I127
F0.5
g184
I10
tp213
a(I12
I127
I0
g186
I10
tp214
a(I14
I12
I0
g188
I10
tp215
a(I32
I14
I0
g190
I10
tp216
a(I37
I3
I0
g192
I10
tp217
a(I44
I0
I0
g194
I10
tp218
a(I51
I9
I0
g196
I10
tp219
a(I61
I90
I0
g198
I10
tp220
a(I67
I15
I0
g200
I10
tp221
a(I68
I6
I0
g202
I10
tp222
a(I72
I0
F1.0
g204
I10
tp223
a(I84
I13
I0
g206
I10
tp224
a(I89
I7
I0
g208
I10
tp225
as(S'ring'
p226
S'tone'
p227
tp228
(lp229
(I70
I11
I0
S'own'
p230
I0
tp231
as(S'youtube'
p232
S'videos'
p233
tp234
(lp235
(I84
I11
F-0.5
S'certain'
p236
I2
tp237
as(S'text'
p238
tp239
(lp240
(I19
I10
F-0.625
S'free'
p241
I18
tp242
a(I29
I57
F-0.125
S'overall'
p243
I18
tp244
a(I36
I23
I0
S'great'
p245
I18
tp246
a(I36
I23
F0.625
S'easier'
p247
I18
tp248
a(I36
I23
I0
S'old'
p249
I18
tp250
a(I37
I29
I0
S'large'
p251
I18
tp252
a(I80
I61
I0
S'large'
p253
I18
tp254
a(I82
I28
F-0.5
S'long'
p255
I18
tp256
a(I85
I18
F0.375
S'new'
p257
I18
tp258
a(I85
I32
F0.625
S'add'
p259
I18
tp260
a(I91
I39
I0
S'net'
p261
I18
tp262
as(S'mp3'
p263
S'player'
p264
tp265
(lp266
(I35
I22
I-100
S'lg-840g'
p267
I1
tp268
a(I35
I22
F0.875
S'nice'
p269
I1
tp270
a(I82
I24
F0.625
S'decent'
p271
I1
tp272
a(I86
I35
F1.0
S'good'
p273
I1
tp274
as(S'with'
p275
S'touch'
p276
S'screen'
p277
tp278
(lp279
(I10
I34
F0.5
S'touch'
p280
I0
tp281
a(I10
I34
I0
S'slide'
p282
I0
tp283
a(I10
I34
F0.5
S'touch'
p284
I0
tp285
a(I11
I6
F0.5
S'touch'
p286
I0
tp287
a(I11
I9
F0.5
S'touch'
p288
I0
tp289
a(I18
I18
F0.5
S'touch'
p290
I0
tp291
a(I25
I41
F0.5
S'touch'
p292
I0
tp293
a(I43
I5
F0.5
S'touch'
p294
I0
tp295
a(I43
I6
F0.5
S'touch'
p296
I0
tp297
a(I43
I16
F0.5
S'touch'
p298
I0
tp299
a(I43
I19
F0.5
S'touch'
p300
I0
tp301
a(I48
I22
F0.5
S'touch'
p302
I0
tp303
a(I48
I22
F1.0
S'good'
p304
I0
tp305
a(I48
I22
F-0.875
S'trouble'
p306
I0
tp307
a(I48
I22
F0.5
S'touch'
p308
I0
tp309
a(I60
I1
F-0.625
S'clean'
p310
I0
tp311
a(I67
I38
I0
S'capacitive'
p312
I0
tp313
a(I80
I85
F0.125
S'first'
p314
I0
tp315
a(I80
I85
F0.875
S'happy'
p316
I0
tp317
a(I82
I32
F0.5
S'touch'
p318
I0
tp319
a(I92
I0
F0.5
S'touch'
p320
I0
tp321
a(I0
I30
F0.5
S'touch'
p322
I2
tp323
a(I0
I33
F0.25
S'responsive'
p324
I2
tp325
a(I0
I38
F0.5
S'touch'
p326
I2
tp327
a(I2
I45
I0
S'large'
p328
I2
tp329
a(I2
I45
F0.625
S'easy'
p330
I2
tp331
a(I2
I45
F0.5
S'touch'
p332
I2
tp333
a(I2
I97
F0.5
S'touch'
p334
I2
tp335
a(I2
I111
F0.5
S'touch'
p336
I2
tp337
a(I2
I111
I0
S'sensitive'
p338
I2
tp339
a(I3
I4
F0.75
S'fit'
p340
I2
tp341
a(I8
I49
F0.5
S'touch'
p342
I2
tp343
a(I8
I49
F0.5
S'whole'
p344
I2
tp345
a(I8
I49
I0
S'different'
p346
I2
tp347
a(I8
I68
F0.5
S'touch'
p348
I2
tp349
a(I8
I68
I0
S'dial'
p350
I2
tp351
a(I10
I34
F0.5
g280
I2
tp352
a(I10
I34
I0
g282
I2
tp353
a(I10
I34
F0.5
g284
I2
tp354
a(I11
I6
F0.5
g286
I2
tp355
a(I11
I9
F0.5
g288
I2
tp356
a(I11
I11
F0.5
S'touch'
p357
I2
tp358
a(I12
I67
F0.25
S'responsive'
p359
I2
tp360
a(I12
I125
F0.5
S'touch'
p361
I2
tp362
a(I12
I125
I0
S'great'
p363
I2
tp364
a(I13
I46
F0.5
S'touch'
p365
I2
tp366
a(I14
I1
F0.625
S'easy'
p367
I2
tp368
a(I14
I6
F0.5
S'touch'
p369
I2
tp370
a(I14
I6
I0
S'sensitive'
p371
I2
tp372
a(I14
I7
F0.375
S'much'
p373
I2
tp374
a(I14
I7
F0.25
S'responsive'
p375
I2
tp376
a(I16
I14
F0.5
S'touch'
p377
I2
tp378
a(I17
I31
F0.5
S'touch'
p379
I2
tp380
a(I17
I45
F0.5
S'touch'
p381
I2
tp382
a(I17
I50
F0.625
S'easy'
p383
I2
tp384
a(I18
I18
F0.5
g290
I2
tp385
a(I20
I12
F0.5
S'touch'
p386
I2
tp387
a(I20
I12
F0.625
S'easy'
p388
I2
tp389
a(I20
I38
F0.375
S'much'
p390
I2
tp391
a(I25
I41
F0.5
g292
I2
tp392
a(I26
I36
I0
S'capacitive'
p393
I2
tp394
a(I27
I69
I0
S'great'
p395
I2
tp396
a(I29
I11
F0.5
S'touch'
p397
I2
tp398
a(I32
I63
F1.0
S'good'
p399
I2
tp400
a(I32
I96
F0.25
S'bigger'
p401
I2
tp402
a(I32
I137
F0.5
S'touch'
p403
I2
tp404
a(I34
I34
F0.5
S'touch'
p405
I2
tp406
a(I34
I47
F0.5
S'touch'
p407
I2
tp408
a(I35
I74
F0.625
S'easy'
p409
I2
tp410
a(I36
I81
I0
S'capacitive'
p411
I2
tp412
a(I36
I133
F0.5
S'touch'
p413
I2
tp414
a(I36
I133
F0.625
S'easy'
p415
I2
tp416
a(I36
I189
F0.5
S'touch'
p417
I2
tp418
a(I36
I189
F0.25
S'responsive'
p419
I2
tp420
a(I36
I189
F0.625
S'easy'
p421
I2
tp422
a(I37
I37
F0.5
S'touch'
p423
I2
tp424
a(I37
I37
I0
S'sensitive'
p425
I2
tp426
a(I43
I5
F0.5
g294
I2
tp427
a(I43
I6
F0.5
g296
I2
tp428
a(I43
I16
F0.5
g298
I2
tp429
a(I43
I19
F0.5
g300
I2
tp430
a(I47
I14
F0.5
S'touch'
p431
I2
tp432
a(I47
I14
I0
S'sensitive'
p433
I2
tp434
a(I48
I7
F0.25
S'responsive'
p435
I2
tp436
a(I48
I22
F0.5
g302
I2
tp437
a(I48
I22
F1.0
g304
I2
tp438
a(I48
I22
F-0.875
g306
I2
tp439
a(I48
I22
F0.5
g308
I2
tp440
a(I49
I22
F0.5
S'touch'
p441
I2
tp442
a(I52
I9
I0
S'basic'
p443
I2
tp444
a(I53
I5
F0.5
S'touch'
p445
I2
tp446
a(I53
I5
I0
S'sensitive'
p447
I2
tp448
a(I53
I5
I0
S'quick'
p449
I2
tp450
a(I54
I19
F-0.625
S'light'
p451
I2
tp452
a(I55
I1
F0.125
S'last'
p453
I2
tp454
a(I58
I14
F0.5
S'touch'
p455
I2
tp456
a(I60
I1
F-0.625
g310
I2
tp457
a(I61
I28
F0.25
S'bigger'
p458
I2
tp459
a(I67
I38
I0
g312
I2
tp460
a(I71
I9
F0.5
S'touch'
p461
I2
tp462
a(I73
I9
I0
S'very'
p463
I2
tp464
a(I73
I9
F0.25
S'responsive'
p465
I2
tp466
a(I73
I9
F0.25
S'sweet'
p467
I2
tp468
a(I75
I7
F-0.875
S'trouble'
p469
I2
tp470
a(I79
I41
F0.5
S'touch'
p471
I2
tp472
a(I79
I41
I0
S'sensitive'
p473
I2
tp474
a(I80
I30
F0.5
S'touch'
p475
I2
tp476
a(I80
I35
I0
S'temperamental'
p477
I2
tp478
a(I80
I85
F0.125
g314
I2
tp479
a(I80
I85
F0.875
g316
I2
tp480
a(I80
I90
F0.375
S'new'
p481
I2
tp482
a(I81
I27
F0.375
S'new'
p483
I2
tp484
a(I81
I52
F0.25
S'responsive'
p485
I2
tp486
a(I82
I1
F0.5
S'touch'
p487
I2
tp488
a(I82
I32
F0.5
g318
I2
tp489
a(I82
I36
F0.5
S'touch'
p490
I2
tp491
a(I82
I36
I0
S'user'
p492
I2
tp493
a(I83
I38
F0.5
S'touch'
p494
I2
tp495
a(I85
I16
F0.875
S'nice'
p496
I2
tp497
a(I85
I16
I0
S'large'
p498
I2
tp499
a(I85
I16
F0.625
S'easy'
p500
I2
tp501
a(I85
I59
F0.5
S'touch'
p502
I2
tp503
a(I88
I1
F0.5
S'touch'
p504
I2
tp505
a(I89
I55
F0.25
S'responsive'
p506
I2
tp507
a(I92
I0
F0.5
g320
I2
tp508
as(S'lot'
p509
S'of'
p510
S'features'
p511
tp512
(lp513
(I8
I45
F-0.625
S'other'
p514
I0
tp515
a(I24
I6
F0.25
S'deeper'
p516
I0
tp517
a(I25
I109
I0
S'useful'
p518
I0
tp519
a(I36
I131
I0
S'great'
p520
I0
tp521
a(I36
I142
I0
S'great'
p522
I0
tp523
as(S'jad'
p524
S'file'
p525
tp526
(lp527
(I34
I64
I0
S'install'
p528
I0
tp529
as(S'bells'
p530
S'and'
p531
S'whistles'
p532
tp533
(lp534
(I12
I23
I0
S'few'
p535
I0
tp536
a(I12
I23
F0.625
S'easy'
p537
I0
tp538
a(I14
I13
F0.375
S'newest'
p539
I0
tp540
a(I33
I29
I0
S'current'
p541
I0
tp542
as(S'minutes'
p543
S'for'
p544
S'life'
p545
tp546
(lp547
(I2
I160
F-0.25
S'triple'
p548
I0
tp549
a(I2
I178
F-0.25
S'triple'
p550
I0
tp551
a(I12
I68
F-0.25
S'triple'
p552
I0
tp553
a(I14
I10
F-0.25
S'triple'
p554
I0
tp555
a(I53
I113
F-0.25
S'triple'
p556
I0
tp557
a(I53
I113
I0
S'more'
p558
I0
tp559
a(I57
I38
F-0.375
S'double'
p560
I0
tp561
a(I61
I119
F-0.25
S'triple'
p562
I0
tp563
a(I66
I47
F-0.25
S'triple'
p564
I0
tp565
a(I84
I13
F0.375
S'extra'
p566
I0
tp567
a(I87
I2
I0
S'great'
p568
I0
tp569
a(I0
I13
F-0.5
g5
I19
tp570
a(I10
I21
F1.0
g9
I19
tp571
a(I27
I108
F1.0
g13
I19
tp572
a(I29
I16
F1.0
g15
I19
tp573
a(I51
I25
I0
S'real'
p574
I19
tp575
a(I71
I13
F-0.625
g25
I19
tp576
a(I87
I2
I0
g568
I19
tp577
as(S'camera'
p578
tp579
(lp580
(I2
I165
F-0.375
S'simple'
p581
I1
tp582
a(I6
I20
F1.0
S'good'
p583
I1
tp584
a(I17
I55
I0
S'illegal'
p585
I1
tp586
a(I27
I66
I0
S'great'
p587
I1
tp588
a(I27
I66
F-0.75
S'little'
p589
I1
tp590
a(I27
I118
F0.875
S'nice'
p591
I1
tp592
a(I43
I12
F-0.625
S'bad'
p593
I1
tp594
a(I53
I116
F0.625
S'decent'
p595
I1
tp596
a(I54
I20
F0.625
S'easy'
p597
I1
tp598
a(I66
I9
I0
S'great'
p599
I1
tp600
a(I76
I0
F1.0
S'good'
p601
I1
tp602
as(S'lg840g'
p603
tp604
(lp605
(I14
I3
F0.375
S'new'
p606
I0
tp607
a(I25
I43
F-0.125
S'overall'
p608
I0
tp609
a(I48
I28
F0.375
S'much'
p610
I0
tp611
a(I48
I45
F1.0
S'better'
p612
I0
tp613
a(I51
I16
I0
S'close'
p614
I0
tp615
a(I53
I57
F0.375
S'new'
p616
I0
tp617
a(I81
I48
I0
S'more'
p618
I0
tp619
a(I81
I48
F0.875
S'happier'
p620
I0
tp621
a(I89
I54
F0.875
S'nice'
p622
I0
tp623
as(S'clam'
p624
S'shell'
p625
tp626
(lp627
(I13
I28
F0.375
S'new'
p628
I0
tp629
as(S'qwerty'
p630
S'keyboard'
p631
tp632
(lp633
(I2
I109
F0.625
S'easier'
p634
I0
tp635
a(I3
I4
I0
S'great'
p636
I0
tp637
a(I3
I4
F0.375
S'available'
p638
I0
tp639
a(I34
I47
F0.625
S'wanted'
p640
I0
tp641
a(I34
I50
I0
S'full'
p642
I0
tp643
a(I53
I80
F0.625
S'easy'
p644
I0
tp645
a(I53
I80
I0
S'physical'
p646
I0
tp647
a(I67
I33
I0
S'full'
p648
I0
tp649
a(I75
I6
I0
S'great'
p650
I0
tp651
a(I75
I6
F0.125
S'able'
p652
I0
tp653
a(I2
I97
I0
S'full'
p654
I2
tp655
a(I3
I4
F0.375
g638
I2
tp656
a(I7
I29
F0.625
S'easy'
p657
I2
tp658
a(I17
I11
F0.625
S'manageable'
p659
I2
tp660
a(I17
I14
F0.375
S'new'
p661
I2
tp662
a(I17
I14
F-0.5
S'regular'
p663
I2
tp664
a(I24
I29
F-0.625
S'bad'
p665
I2
tp666
a(I24
I29
F-0.5
S'unavailable'
p667
I2
tp668
a(I25
I48
F-0.625
S'other'
p669
I2
tp670
a(I26
I8
F-0.75
S'impossible'
p671
I2
tp672
a(I26
I8
I0
S'sensitive'
p673
I2
tp674
a(I35
I91
F0.375
S'available'
p675
I2
tp676
a(I53
I80
F0.625
g644
I2
tp677
a(I53
I80
I0
g646
I2
tp678
a(I70
I17
F0.25
S'bigger'
p679
I2
tp680
a(I71
I0
F0.375
S'available'
p681
I2
tp682
a(I85
I21
I0
S'touchscreen'
p683
I2
tp684
a(I89
I42
I0
S'external'
p685
I2
tp686
as(S'one'
p687
S'year'
p688
tp689
(lp690
(I2
I82
I0
S'old'
p691
I2
tp692
a(I2
I113
I0
S'old'
p693
I2
tp694
a(I15
I17
I0
S'old'
p695
I2
tp696
a(I17
I1
F0.125
S'first'
p697
I2
tp698
a(I17
I1
F0.125
S'last'
p699
I2
tp700
a(I19
I15
I0
S'old'
p701
I2
tp702
a(I21
I8
I0
S'old'
p703
I2
tp704
a(I22
I9
I0
S'next'
p705
I2
tp706
a(I25
I62
I0
S'old'
p707
I2
tp708
a(I32
I44
I0
S'old'
p709
I2
tp710
a(I34
I27
F0.125
S'last'
p711
I2
tp712
a(I41
I0
F0.5
S'expensive'
p713
I2
tp714
a(I43
I31
I0
S'old'
p715
I2
tp716
a(I51
I15
F0.5
S'added'
p717
I2
tp718
a(I58
I40
I0
S'old'
p719
I2
tp720
as(S'blue'
p721
S'tooth'
p722
tp723
(lp724
(I0
I5
F-0.125
S'universal'
p725
I0
tp726
a(I13
I8
I0
S'blue'
p727
I0
tp728
a(I13
I15
I0
S'blue'
p729
I0
tp730
as(S'internet'
p731
tp732
(lp733
(I27
I75
I0
S'faster'
p734
I6
tp735
a(I33
I23
I0
S'basic'
p736
I6
tp737
a(I33
I60
F-0.5
S'regular'
p738
I6
tp739
a(I33
I75
I0
S'th'
p740
I6
tp741
a(I33
I75
F1.0
S'best'
p742
I6
tp743
a(I33
I75
F1.0
S'better'
p744
I6
tp745
a(I75
I9
F0.125
S'capable'
p746
I6
tp747
a(I80
I57
F0.75
S'worth'
p748
I6
tp749
as(S'easier'
p750
S'to'
p751
S'use'
p752
tp753
(lp754
(I32
I132
F0.375
S'much'
p755
I1
tp756
a(I43
I19
F0.625
S'easier'
p757
I1
tp758
as(S'tracfone'
p759
tp760
(lp761
(I2
I8
F-0.625
S'other'
p762
I0
tp763
a(I2
I28
I0
S'current'
p764
I0
tp765
a(I2
I64
I0
S'old'
p766
I0
tp767
a(I3
I11
I0
S'net'
p768
I0
tp769
a(I3
I11
I0
S'website'
p770
I0
tp771
a(I6
I12
F-0.625
S'other'
p772
I0
tp773
a(I7
I30
F0.125
S'key'
p774
I0
tp775
a(I8
I19
F0.5
S'second'
p776
I0
tp777
a(I8
I75
I0
S'general'
p778
I0
tp779
a(I9
I19
I0
S'old'
p780
I0
tp781
a(I10
I17
F1.0
S'good'
p782
I0
tp783
a(I10
I34
F-0.625
S'other'
p784
I0
tp785
a(I11
I6
I0
S'basic'
p786
I0
tp787
a(I12
I11
I0
S'old'
p788
I0
tp789
a(I12
I45
F-0.25
S'low'
p790
I0
tp791
a(I12
I89
F-0.75
S'difficult'
p792
I0
tp793
a(I12
I117
F0.875
S'happy'
p794
I0
tp795
a(I13
I37
F0.5
S'expensive'
p796
I0
tp797
a(I16
I17
F-0.625
S'other'
p798
I0
tp799
a(I17
I21
I0
S'old'
p800
I0
tp801
a(I18
I13
F-0.625
S'other'
p802
I0
tp803
a(I19
I13
I0
S'wish'
p804
I0
tp805
a(I20
I10
F-0.5
S'regular'
p806
I0
tp807
a(I20
I34
I0
S'old'
p808
I0
tp809
a(I24
I41
I0
S'same'
p810
I0
tp811
a(I24
I41
F-0.25
S'low'
p812
I0
tp813
a(I24
I63
F0.125
S'usual'
p814
I0
tp815
a(I25
I41
F-0.375
S'pull'
p816
I0
tp817
a(I25
I116
I0
S'basic'
p818
I0
tp819
a(I26
I12
F-0.375
S'simple'
p820
I0
tp821
a(I26
I35
F-0.75
S'likely'
p822
I0
tp823
a(I26
I47
I0
S'old'
p824
I0
tp825
a(I30
I14
F0.125
S'able'
p826
I0
tp827
a(I32
I35
F1.0
S'best'
p828
I0
tp829
a(I32
I52
F-0.625
S'bad'
p830
I0
tp831
a(I32
I128
F1.0
S'good'
p832
I0
tp833
a(I33
I72
F0.125
S'first'
p834
I0
tp835
a(I34
I29
F-0.625
S'bad'
p836
I0
tp837
a(I34
I53
I0
S'local'
p838
I0
tp839
a(I35
I26
F1.0
S'best'
p840
I0
tp841
a(I35
I31
F0.5
S'loyal'
p842
I0
tp843
a(I35
I117
I0
S'latest'
p844
I0
tp845
a(I35
I117
F0.125
S'able'
p846
I0
tp847
a(I35
I117
I0
S'song'
p848
I0
tp849
a(I35
I118
F0.125
S'able'
p850
I0
tp851
a(I36
I1
F0.125
S'last'
p852
I0
tp853
a(I36
I13
F0.375
S'new'
p854
I0
tp855
a(I36
I23
F1.0
S'best'
p856
I0
tp857
a(I36
I188
I0
S'old'
p858
I0
tp859
a(I37
I16
F0.375
S'much'
p860
I0
tp861
a(I40
I2
F-0.5
S'less'
p862
I0
tp863
a(I41
I29
F0.125
S'last'
p864
I0
tp865
a(I49
I40
I0
S'different'
p866
I0
tp867
a(I53
I61
F0.125
S'last'
p868
I0
tp869
a(I54
I0
F0.375
S'new'
p870
I0
tp871
a(I57
I2
F0.375
S'new'
p872
I0
tp873
a(I57
I17
F0.125
S'last'
p874
I0
tp875
a(I61
I130
F0.125
S'able'
p876
I0
tp877
a(I65
I8
F0.375
S'new'
p878
I0
tp879
a(I65
I8
F0.125
S'sealed'
p880
I0
tp881
a(I65
I9
I0
S'old'
p882
I0
tp883
a(I66
I60
I0
S'third'
p884
I0
tp885
a(I66
I60
F1.0
S'best'
p886
I0
tp887
a(I67
I46
I0
S'corporate'
p888
I0
tp889
a(I69
I13
F1.0
S'better'
p890
I0
tp891
a(I70
I5
F-0.5
S'sure'
p892
I0
tp893
a(I70
I27
F1.0
S'good'
p894
I0
tp895
a(I70
I27
F0.25
S'helpful'
p896
I0
tp897
a(I71
I1
I0
S'website'
p898
I0
tp899
a(I71
I3
I0
S'old'
p900
I0
tp901
a(I79
I26
I0
S'website'
p902
I0
tp903
a(I80
I90
I0
S'website'
p904
I0
tp905
a(I84
I3
I0
S'old'
p906
I0
tp907
a(I84
I39
F-0.25
S'past'
p908
I0
tp909
a(I85
I20
F0.125
S'usual'
p910
I0
tp911
a(I85
I20
F-0.5
S'open'
p912
I0
tp913
a(I86
I41
I0
S'old'
p914
I0
tp915
a(I89
I17
I0
S'great'
p916
I0
tp917
a(I89
I32
I0
S'old'
p918
I0
tp919
as(S'1200'
p920
S'minutes'
p921
tp922
(lp923
(I51
I11
I0
S'great'
p924
I0
tp925
a(I53
I113
F-0.25
g556
I0
tp926
a(I53
I113
I0
g558
I0
tp927
a(I84
I13
F0.375
g566
I0
tp928
a(I92
I0
F0.625
S'easy'
p929
I0
tp930
as(g79
S'good'
p931
S'deal'
p932
tp933
(lp934
(I10
I0
F1.0
S'good'
p935
I5
tp936
a(I30
I3
F1.0
S'good'
p937
I5
tp938
a(I32
I123
F1.0
S'good'
p939
I5
tp940
a(I34
I30
F1.0
S'good'
p941
I5
tp942
a(I43
I30
F1.0
S'good'
p943
I5
tp944
a(I48
I41
F1.0
S'good'
p945
I5
tp946
a(I57
I25
F1.0
S'good'
p947
I5
tp948
a(I74
I5
F1.0
S'good'
p949
I5
tp950
a(I79
I56
F1.0
S'best'
p951
I5
tp952
a(I82
I21
F1.0
S'good'
p953
I5
tp954
a(I89
I48
F1.0
S'good'
p955
I5
tp956
as(S'hold'
p957
g79
S'charge'
p958
tp959
(lp960
(I36
I180
I0
S'more'
p961
I0
tp962
a(I65
I30
F-0.5
S'long'
p963
I0
tp964
as(S'music'
p965
tp966
(lp967
(I25
I75
I0
S'cool'
p968
I0
tp969
a(I48
I6
F-0.25
S'inexpensive'
p970
I0
tp971
a(I68
I23
I0
S'fifty'
p972
I0
tp973
a(I68
I23
F0.375
S'complete'
p974
I0
tp975
as(S'light'
p976
S'weight'
p977
tp978
(lp979
(I2
I185
F0.625
S'easy'
p980
I5
tp981
a(I8
I3
F-0.625
S'light'
p982
I5
tp983
a(I33
I55
F-0.625
S'light'
p984
I5
tp985
a(I37
I2
F-0.625
S'light'
p986
I5
tp987
as(S'year'
p988
S'of'
p989
S'service'
p990
tp991
(lp992
(I54
I2
I0
S'one-year'
p993
I0
tp994
a(I54
I2
I0
S'one-year'
p995
I0
tp996
a(I0
I3
I0
S'more'
p997
I16
tp998
a(I0
I22
I0
S'expect'
p999
I16
tp1000
a(I0
I22
F0.625
S'kind'
p1001
I16
tp1002
a(I3
I24
I0
S'great'
p1003
I16
tp1004
a(I7
I20
F0.25
S'larger'
p1005
I16
tp1006
a(I7
I28
F0.125
S'able'
p1007
I16
tp1008
a(I16
I18
F-0.625
S'glad'
p1009
I16
tp1010
a(I20
I26
I0
S'great'
p1011
I16
tp1012
a(I25
I37
I0
S'signal'
p1013
I16
tp1014
a(I26
I45
F1.0
S'good'
p1015
I16
tp1016
a(I37
I22
F-0.5
S'international'
p1017
I16
tp1018
a(I38
I4
F0.875
S'happy'
p1019
I16
tp1020
a(I38
I47
I0
S'more'
p1021
I16
tp1022
a(I49
I62
I0
S'great'
p1023
I16
tp1024
a(I52
I5
I0
S'great'
p1025
I16
tp1026
a(I54
I2
I0
g993
I16
tp1027
a(I54
I2
I0
g995
I16
tp1028
a(I66
I45
I0
S'great'
p1029
I16
tp1030
a(I80
I2
F0.375
S'available'
p1031
I16
tp1032
a(I80
I66
F0.875
S'happier'
p1033
I16
tp1034
a(I89
I14
I0
S'great'
p1035
I16
tp1036
a(I89
I63
F1.0
S'good'
p1037
I16
tp1038
as(g79
S'long'
p1039
S'time'
p1040
tp1041
(lp1042
(I2
I57
F-0.5
S'long'
p1043
I12
tp1044
a(I2
I77
F-0.5
S'long'
p1045
I12
tp1046
a(I9
I31
F-0.5
S'long'
p1047
I12
tp1048
a(I11
I28
F-0.5
S'long'
p1049
I12
tp1050
a(I32
I112
F-0.5
S'long'
p1051
I12
tp1052
a(I34
I26
F-0.5
S'long'
p1053
I12
tp1054
a(I35
I56
F-0.5
S'long'
p1055
I12
tp1056
a(I37
I29
F-0.5
S'long'
p1057
I12
tp1058
a(I53
I129
F-0.5
S'long'
p1059
I12
tp1060
a(I61
I113
F-0.5
S'long'
p1061
I12
tp1062
a(I61
I194
F-0.5
S'long'
p1063
I12
tp1064
a(I65
I34
F-0.5
S'long'
p1065
I12
tp1066
a(I79
I2
F-0.5
S'long'
p1067
I12
tp1068
a(I82
I28
F-0.625
S'bad'
p1069
I12
tp1070
as(S'bluetooth'
p1071
tp1072
(lp1073
(I17
I47
F0.125
S'able'
p1074
I3
tp1075
a(I35
I29
F0.375
S'new'
p1076
I3
tp1077
a(I80
I47
F0.375
S'new'
p1078
I3
tp1079
as(S'like'
p1080
S'triple'
p1081
S'minutes'
p1082
tp1083
(lp1084
(I61
I129
F0.625
S'easy'
p1085
I0
tp1086
a(I61
I130
F-0.125
S'future'
p1087
I0
tp1088
a(I77
I5
F0.375
S'extra'
p1089
I0
tp1090
a(I2
I110
F-0.25
S'triple'
p1091
I0
tp1092
a(I2
I160
F-0.25
g548
I0
tp1093
a(I2
I178
F-0.25
g550
I0
tp1094
a(I2
I179
F-0.25
S'triple'
p1095
I0
tp1096
a(I9
I3
I0
S'more'
p1097
I0
tp1098
a(I12
I68
F-0.25
g552
I0
tp1099
a(I13
I43
F-0.5
S'sure'
p1100
I0
tp1101
a(I14
I10
F-0.25
g554
I0
tp1102
a(I14
I13
F-0.25
S'triple'
p1103
I0
tp1104
a(I16
I22
F-0.25
S'triple'
p1105
I0
tp1106
a(I20
I27
F-0.25
S'triple'
p1107
I0
tp1108
a(I26
I46
F0.375
S'appreciate'
p1109
I0
tp1110
a(I27
I58
I0
S'great'
p1111
I0
tp1112
a(I33
I19
I0
S'great'
p1113
I0
tp1114
a(I35
I33
F-0.25
S'triple'
p1115
I0
tp1116
a(I36
I49
F0.875
S'nice'
p1117
I0
tp1118
a(I53
I19
F0.625
S'convenient'
p1119
I0
tp1120
a(I53
I113
F-0.25
g556
I0
tp1121
a(I53
I113
I0
g558
I0
tp1122
a(I56
I6
I0
S'e-mail'
p1123
I0
tp1124
a(I61
I24
F-0.375
S'double'
p1125
I0
tp1126
a(I61
I119
F-0.25
g562
I0
tp1127
a(I61
I129
F0.625
g1085
I0
tp1128
a(I61
I130
F-0.125
g1087
I0
tp1129
a(I65
I29
F0.625
S'easy'
p1130
I0
tp1131
a(I66
I38
I0
S'handy'
p1132
I0
tp1133
a(I66
I47
F-0.25
g564
I0
tp1134
a(I67
I3
I0
S'great'
p1135
I0
tp1136
a(I70
I19
F0.875
S'nice'
p1137
I0
tp1138
a(I77
I5
F0.375
g1089
I0
tp1139
a(I84
I2
F-0.125
S'future'
p1140
I0
tp1141
a(I84
I2
I0
S'great'
p1142
I0
tp1143
a(I84
I13
F0.375
g566
I0
tp1144
a(I86
I38
I0
S'great'
p1145
I0
tp1146
a(I89
I18
F0.25
S'helpful'
p1147
I0
tp1148
a(I89
I18
F0.375
S'extra'
p1149
I0
tp1150
a(I9
I3
I0
g1097
I1
tp1151
a(I13
I43
F-0.5
g1100
I1
tp1152
a(I26
I46
F0.375
g1109
I1
tp1153
a(I27
I58
I0
g1111
I1
tp1154
a(I28
I4
F1.0
S'good'
p1155
I1
tp1156
a(I33
I19
I0
g1113
I1
tp1157
a(I36
I49
F0.875
g1117
I1
tp1158
a(I53
I19
F0.625
g1119
I1
tp1159
a(I56
I6
I0
g1123
I1
tp1160
a(I61
I129
F0.625
g1085
I1
tp1161
a(I61
I130
F-0.125
g1087
I1
tp1162
a(I65
I29
F0.625
g1130
I1
tp1163
a(I66
I38
I0
g1132
I1
tp1164
a(I67
I3
I0
g1135
I1
tp1165
a(I70
I19
F0.875
g1137
I1
tp1166
a(I86
I38
I0
g1145
I1
tp1167
a(I89
I18
F0.25
g1147
I1
tp1168
as(S'wi'
p1169
S'fi'
p1170
tp1171
(lp1172
(I7
I36
F-0.5
S'sure'
p1173
I0
tp1174
a(I7
I36
F-0.75
S'off'
p1175
I0
tp1176
as(g79
S'34'
p1177
S'smart'
p1178
tp1179
(lp1180
(I32
I11
F0.375
g99
I0
tp1181
a(I53
I18
I0
g108
I0
tp1182
a(I69
I9
F-0.375
g127
I0
tp1183
a(I69
I9
I0
g129
I0
tp1184
a(I82
I25
F0.5
g89
I0
tp1185
as(S'texting'
p1186
tp1187
(lp1188
(I2
I103
F-0.625
S'free'
p1189
I0
tp1190
a(I27
I32
F0.125
S'fat'
p1191
I0
tp1192
a(I35
I27
F-0.75
S'difficult'
p1193
I0
tp1194
a(I37
I39
I0
S'basic'
p1195
I0
tp1196
a(I87
I0
F1.0
S'good'
p1197
I0
tp1198
as(S'upgrade'
p1199
tp1200
(lp1201
(I20
I47
I0
S'next'
p1202
I3
tp1203
a(I20
I48
I0
S'next'
p1204
I3
tp1205
a(I24
I61
F0.125
S'first'
p1206
I3
tp1207
a(I27
I18
F-0.75
S'sad'
p1208
I3
tp1209
a(I30
I40
F0.875
S'nice'
p1210
I3
tp1211
a(I30
I40
I0
S'big'
p1212
I3
tp1213
a(I34
I24
F-0.625
S'free'
p1214
I3
tp1215
a(I41
I31
F-0.375
S'serious'
p1216
I3
tp1217
a(I47
I11
I0
S'great'
p1218
I3
tp1219
as(S'new'
p1220
S'sim'
p1221
S'card'
p1222
tp1223
(lp1224
(I2
I199
F0.375
S'new'
p1225
I0
tp1226
a(I12
I36
F0.375
S'new'
p1227
I0
tp1228
a(I12
I37
F0.375
S'new'
p1229
I0
tp1230
a(I12
I38
F0.375
S'new'
p1231
I0
tp1232
a(I13
I29
F0.375
S'new'
p1233
I0
tp1234
a(I25
I95
F0.375
S'new'
p1235
I0
tp1236
a(I25
I95
F0.375
S'new'
p1237
I0
tp1238
a(I49
I4
F0.375
S'new'
p1239
I0
tp1240
a(I49
I7
F0.375
S'new'
p1241
I0
tp1242
a(I80
I47
I0
S'old'
p1243
I0
tp1244
a(I2
I199
F0.375
g1225
I0
tp1245
a(I12
I36
F0.375
g1227
I0
tp1246
a(I12
I37
F0.375
g1229
I0
tp1247
a(I12
I38
F0.375
g1231
I0
tp1248
a(I13
I29
F0.375
g1233
I0
tp1249
a(I25
I95
F0.375
g1235
I0
tp1250
a(I25
I95
F0.375
g1237
I0
tp1251
a(I49
I4
F0.375
g1239
I0
tp1252
a(I49
I7
F0.375
g1241
I0
tp1253
a(I49
I8
F0.75
S'receive'
p1254
I0
tp1255
a(I49
I8
F0.5
S'second'
p1256
I0
tp1257
a(I49
I8
I0
S'next'
p1258
I0
tp1259
a(I49
I10
F0.125
S'received'
p1260
I0
tp1261
a(I49
I10
I0
S'third'
p1262
I0
tp1263
a(I67
I75
F-0.625
S'bad'
p1264
I0
tp1265
a(I80
I47
I0
g1243
I0
tp1266
as(S'calls'
p1267
tp1268
(lp1269
(I2
I83
F0.875
S'music'
p1270
I0
tp1271
a(I2
I142
F-0.5
S'international'
p1272
I0
tp1273
a(I5
I9
F-0.625
S'free'
p1274
I0
tp1275
a(I10
I5
F-0.125
S'accidental'
p1276
I0
tp1277
a(I11
I14
I0
S'few'
p1278
I0
tp1279
a(I18
I17
F-0.5
S'missed'
p1280
I0
tp1281
a(I24
I71
I0
S'many'
p1282
I0
tp1283
a(I32
I119
F1.0
S'good'
p1284
I0
tp1285
a(I33
I4
I0
S'more'
p1286
I0
tp1287
a(I35
I20
F-0.5
S'unwanted'
p1288
I0
tp1289
a(I61
I60
F0.75
S'receive'
p1290
I0
tp1291
a(I61
I132
F-0.625
S'other'
p1292
I0
tp1293
a(I73
I12
F0.875
S'important'
p1294
I0
tp1295
a(I80
I60
F-0.625
S'steady'
p1296
I0
tp1297
a(I80
I60
F0.5
S'strong'
p1298
I0
tp1299
a(I85
I41
F0.25
S'recent'
p1300
I0
tp1301
as(S'google'
p1302
S'voice'
p1303
tp1304
(lp1305
(I2
I146
F-0.25
S'google'
p1306
I0
tp1307
a(I7
I48
F-0.625
S'free'
p1308
I0
tp1309
a(I41
I8
F-0.25
S'google'
p1310
I0
tp1311
a(I2
I146
F-0.25
g1306
I4
tp1312
a(I41
I8
F-0.25
g1310
I4
tp1313
a(I53
I122
I0
S'basic'
p1314
I4
tp1315
as(g79
S'touch'
p1316
S'screen'
p1317
tp1318
(lp1319
(I0
I30
F0.5
g322
I0
tp1320
a(I0
I33
F0.25
g324
I0
tp1321
a(I0
I38
F0.5
g326
I0
tp1322
a(I2
I45
I0
g328
I0
tp1323
a(I2
I45
F0.625
g330
I0
tp1324
a(I2
I45
F0.5
g332
I0
tp1325
a(I2
I97
F0.5
g334
I0
tp1326
a(I2
I111
F0.5
g336
I0
tp1327
a(I2
I111
I0
g338
I0
tp1328
a(I3
I4
F0.75
g340
I0
tp1329
a(I8
I49
F0.5
g342
I0
tp1330
a(I8
I49
F0.5
g344
I0
tp1331
a(I8
I49
I0
g346
I0
tp1332
a(I8
I68
F0.5
g348
I0
tp1333
a(I8
I68
I0
g350
I0
tp1334
a(I10
I34
F0.5
g280
I0
tp1335
a(I10
I34
I0
g282
I0
tp1336
a(I10
I34
F0.5
g284
I0
tp1337
a(I11
I6
F0.5
g286
I0
tp1338
a(I11
I9
F0.5
g288
I0
tp1339
a(I11
I11
F0.5
g357
I0
tp1340
a(I12
I67
F0.25
g359
I0
tp1341
a(I12
I125
F0.5
g361
I0
tp1342
a(I12
I125
I0
g363
I0
tp1343
a(I13
I46
F0.5
g365
I0
tp1344
a(I14
I1
F0.625
g367
I0
tp1345
a(I14
I6
F0.5
g369
I0
tp1346
a(I14
I6
I0
g371
I0
tp1347
a(I14
I7
F0.375
g373
I0
tp1348
a(I14
I7
F0.25
g375
I0
tp1349
a(I16
I14
F0.5
g377
I0
tp1350
a(I17
I31
F0.5
g379
I0
tp1351
a(I17
I45
F0.5
g381
I0
tp1352
a(I17
I50
F0.625
g383
I0
tp1353
a(I18
I18
F0.5
g290
I0
tp1354
a(I20
I12
F0.5
g386
I0
tp1355
a(I20
I12
F0.625
g388
I0
tp1356
a(I20
I38
F0.375
g390
I0
tp1357
a(I25
I41
F0.5
g292
I0
tp1358
a(I26
I36
I0
g393
I0
tp1359
a(I27
I69
I0
g395
I0
tp1360
a(I29
I11
F0.5
g397
I0
tp1361
a(I32
I96
F0.25
g401
I0
tp1362
a(I32
I137
F0.5
g403
I0
tp1363
a(I34
I34
F0.5
g405
I0
tp1364
a(I34
I47
F0.5
g407
I0
tp1365
a(I35
I74
F0.625
g409
I0
tp1366
a(I36
I81
I0
g411
I0
tp1367
a(I36
I133
F0.5
g413
I0
tp1368
a(I36
I133
F0.625
g415
I0
tp1369
a(I36
I189
F0.5
g417
I0
tp1370
a(I36
I189
F0.25
g419
I0
tp1371
a(I36
I189
F0.625
g421
I0
tp1372
a(I37
I37
F0.5
g423
I0
tp1373
a(I37
I37
I0
g425
I0
tp1374
a(I43
I5
F0.5
g294
I0
tp1375
a(I43
I6
F0.5
g296
I0
tp1376
a(I43
I16
F0.5
g298
I0
tp1377
a(I43
I19
F0.5
g300
I0
tp1378
a(I48
I7
F0.25
g435
I0
tp1379
a(I48
I22
F0.5
g302
I0
tp1380
a(I48
I22
F1.0
g304
I0
tp1381
a(I48
I22
F-0.875
g306
I0
tp1382
a(I48
I22
F0.5
g308
I0
tp1383
a(I49
I22
F0.5
g441
I0
tp1384
a(I52
I9
I0
g443
I0
tp1385
a(I53
I5
F0.5
g445
I0
tp1386
a(I53
I5
I0
g447
I0
tp1387
a(I53
I5
I0
g449
I0
tp1388
a(I54
I19
F-0.625
g451
I0
tp1389
a(I55
I1
F0.125
g453
I0
tp1390
a(I58
I14
F0.5
g455
I0
tp1391
a(I60
I1
F-0.625
g310
I0
tp1392
a(I61
I28
F0.25
g458
I0
tp1393
a(I67
I38
I0
g312
I0
tp1394
a(I71
I9
F0.5
g461
I0
tp1395
a(I73
I9
I0
g463
I0
tp1396
a(I73
I9
F0.25
g465
I0
tp1397
a(I73
I9
F0.25
g467
I0
tp1398
a(I75
I7
F-0.875
g469
I0
tp1399
a(I79
I41
F0.5
g471
I0
tp1400
a(I79
I41
I0
g473
I0
tp1401
a(I80
I30
F0.5
g475
I0
tp1402
a(I80
I35
I0
g477
I0
tp1403
a(I80
I85
F0.125
g314
I0
tp1404
a(I80
I85
F0.875
g316
I0
tp1405
a(I80
I90
F0.375
g481
I0
tp1406
a(I81
I27
F0.375
g483
I0
tp1407
a(I82
I1
F0.5
g487
I0
tp1408
a(I82
I36
F0.5
g490
I0
tp1409
a(I82
I36
I0
g492
I0
tp1410
a(I83
I38
F0.5
g494
I0
tp1411
a(I85
I16
F0.875
g496
I0
tp1412
a(I85
I16
I0
g498
I0
tp1413
a(I85
I16
F0.625
g500
I0
tp1414
a(I85
I59
F0.5
g502
I0
tp1415
a(I88
I1
F0.5
g504
I0
tp1416
a(I89
I55
F0.25
g506
I0
tp1417
a(I92
I0
F0.5
g320
I0
tp1418
as(S'browser'
p1419
tp1420
(lp1421
(I5
I10
I0
S'mobile'
p1422
I0
tp1423
a(I8
I44
F0.625
S'easy'
p1424
I0
tp1425
a(I53
I83
F0.75
S'worth'
p1426
I0
tp1427
a(I54
I10
I0
S'quick'
p1428
I0
tp1429
a(I86
I41
I0
S'great'
p1430
I0
tp1431
a(I87
I0
F-0.125
S'slow'
p1432
I0
tp1433
a(I87
I0
F-0.875
S'hard'
p1434
I0
tp1435
a(I89
I27
F-0.75
S'unresponsive'
p1436
I0
tp1437
as(S'reception'
p1438
tp1439
(lp1440
(I2
I106
I0
S'great'
p1441
I0
tp1442
a(I5
I0
F1.0
S'good'
p1443
I0
tp1444
a(I5
I1
I0
S'great'
p1445
I0
tp1446
a(I5
I13
I0
S'least'
p1447
I0
tp1448
a(I5
I13
F0.625
S'decent'
p1449
I0
tp1450
a(I6
I33
F1.0
S'best'
p1451
I0
tp1452
a(I13
I25
F1.0
S'good'
p1453
I0
tp1454
a(I26
I2
F-0.5
S'poor'
p1455
I0
tp1456
a(I33
I34
F1.0
S'good'
p1457
I0
tp1458
a(I35
I66
I0
S'great'
p1459
I0
tp1460
a(I39
I8
F1.0
S'good'
p1461
I0
tp1462
a(I41
I35
I0
S'most'
p1463
I0
tp1464
a(I49
I57
F-0.5
S'regular'
p1465
I0
tp1466
a(I52
I1
F1.0
S'good'
p1467
I0
tp1468
a(I53
I23
F1.0
S'good'
p1469
I0
tp1470
a(I67
I78
F1.0
S'better'
p1471
I0
tp1472
a(I79
I8
F-0.5
S'poor'
p1473
I0
tp1474
a(I89
I64
F-0.5
S'poor'
p1475
I0
tp1476
as(S'much'
p1477
S'better'
p1478
tp1479
(lp1480
(I8
I55
F0.375
S'much'
p1481
I9
tp1482
a(I8
I55
F0.125
S'able'
p1483
I9
tp1484
a(I8
I56
F0.375
S'much'
p1485
I9
tp1486
a(I8
I74
F0.375
S'much'
p1487
I9
tp1488
a(I12
I47
F0.375
S'much'
p1489
I9
tp1490
a(I17
I19
F0.375
S'much'
p1491
I9
tp1492
a(I32
I96
F0.375
S'much'
p1493
I9
tp1494
a(I50
I1
I0
S'signal'
p1495
I9
tp1496
a(I50
I1
F0.375
S'much'
p1497
I9
tp1498
a(I70
I16
F0.375
S'much'
p1499
I9
tp1500
as(S'smartphone'
p1501
tp1502
(lp1503
(I5
I10
F0.5
S'true'
p1504
I0
tp1505
a(I11
I18
F0.5
S'expensive'
p1506
I0
tp1507
a(I15
I12
I0
S'full'
p1508
I0
tp1509
a(I27
I78
I0
S'android'
p1510
I0
tp1511
a(I34
I6
F0.125
S'impressive'
p1512
I0
tp1513
a(I35
I89
F0.5
S'true'
p1514
I0
tp1515
a(I37
I35
I0
S'basic'
p1516
I0
tp1517
a(I43
I9
F0.875
S'nice'
p1518
I0
tp1519
a(I51
I21
F1.0
S'good'
p1520
I0
tp1521
a(I89
I36
I0
S'great'
p1522
I0
tp1523
as(S'micro'
p1524
S'sd'
p1525
S'card'
p1526
tp1527
(lp1528
(I57
I47
F0.25
S'larger'
p1529
I0
tp1530
a(I85
I15
F0.875
S'music'
p1531
I0
tp1532
as(S'customer'
p1533
S'service'
p1534
tp1535
(lp1536
(I2
I19
F-0.625
S'bad'
p1537
I3
tp1538
a(I2
I19
F-0.625
S'bad'
p1539
I3
tp1540
a(I2
I19
F-0.625
S'bad'
p1541
I3
tp1542
a(I7
I53
F0.5
S'polite'
p1543
I3
tp1544
a(I12
I51
I0
S'different'
p1545
I3
tp1546
a(I18
I20
F-0.5
S'poor'
p1547
I3
tp1548
a(I26
I21
F-0.125
S'overall'
p1549
I3
tp1550
a(I36
I135
F0.375
S'much'
p1551
I3
tp1552
a(I36
I135
F-0.75
S'little'
p1553
I3
tp1554
a(I89
I63
F1.0
g1037
I3
tp1555
a(I2
I19
F-0.625
g1537
I11
tp1556
a(I2
I19
F-0.625
g1539
I11
tp1557
a(I2
I19
F-0.625
g1541
I11
tp1558
a(I7
I53
F0.5
g1543
I11
tp1559
a(I12
I51
I0
g1545
I11
tp1560
a(I18
I20
F-0.5
g1547
I11
tp1561
a(I26
I21
F-0.125
g1549
I11
tp1562
a(I36
I135
F0.375
g1551
I11
tp1563
a(I36
I135
F-0.75
g1553
I11
tp1564
as(S'easy'
p1565
S'to'
p1566
S'setup'
p1567
tp1568
(lp1569
(I26
I17
F0.625
S'easy'
p1570
I2
tp1571
a(I26
I17
I0
S'automatic'
p1572
I2
tp1573
a(I26
I18
F0.625
S'easy'
p1574
I2
tp1575
a(I26
I18
I0
S'automatic'
p1576
I2
tp1577
a(I40
I14
F0.625
S'easy'
p1578
I2
tp1579
as(S'file'
p1580
S'manager'
p1581
tp1582
(lp1583
(I2
I139
I0
S'file'
p1584
I0
tp1585
a(I82
I22
I0
S'file'
p1586
I0
tp1587
as(S'wifi'
p1588
tp1589
(lp1590
(I2
I223
F0.25
S'used'
p1591
I0
tp1592
a(I4
I0
I0
S'many'
p1593
I0
tp1594
a(I4
I0
F-0.625
S'free'
p1595
I0
tp1596
a(I5
I8
F-0.625
S'free'
p1597
I0
tp1598
a(I10
I14
F-0.125
S'public'
p1599
I0
tp1600
a(I14
I9
F-0.5
S'sure'
p1601
I0
tp1602
a(I18
I11
F-0.5
S'open'
p1603
I0
tp1604
a(I20
I9
I0
S'great'
p1605
I0
tp1606
a(I20
I36
F0.125
S'capable'
p1607
I0
tp1608
a(I27
I74
I0
S'great'
p1609
I0
tp1610
a(I33
I0
I0
S'great'
p1611
I0
tp1612
a(I33
I0
F-0.125
S'public'
p1613
I0
tp1614
a(I41
I19
F-0.625
S'free'
p1615
I0
tp1616
a(I47
I13
F0.5
S'careful'
p1617
I0
tp1618
a(I47
I13
I0
S'blue'
p1619
I0
tp1620
a(I53
I3
F0.625
S'easy'
p1621
I0
tp1622
a(I61
I77
F-0.5
S'try'
p1623
I0
tp1624
a(I61
I96
I0
S'great'
p1625
I0
tp1626
a(I66
I26
F-0.625
S'free'
p1627
I0
tp1628
a(I70
I11
I0
S'great'
p1629
I0
tp1630
a(I70
I18
F0.125
S'capable'
p1631
I0
tp1632
a(I81
I35
F0.875
S'nice'
p1633
I0
tp1634
a(I89
I56
F0.5
S'strong'
p1635
I0
tp1636
as(S'apps'
p1637
tp1638
(lp1639
(I2
I117
F0.625
S'easy'
p1640
I0
tp1641
a(I2
I128
I0
S'android'
p1642
I0
tp1643
a(I2
I144
F0.375
S'available'
p1644
I0
tp1645
a(I4
I9
F0.625
S'easy'
p1646
I0
tp1647
a(I5
I18
F0.125
S'essential'
p1648
I0
tp1649
a(I5
I18
F-0.625
S'other'
p1650
I0
tp1651
a(I12
I119
F1.0
S'good'
p1652
I0
tp1653
a(I12
I120
F0.125
S'able'
p1654
I0
tp1655
a(I12
I120
F-0.25
S'google'
p1656
I0
tp1657
a(I13
I18
I0
S'android'
p1658
I0
tp1659
a(I27
I2
I0
S'useful'
p1660
I0
tp1661
a(I27
I2
F-0.125
S'slow'
p1662
I0
tp1663
a(I27
I135
F-0.875
S'unhappy'
p1664
I0
tp1665
a(I32
I52
F0.375
S'available'
p1666
I0
tp1667
a(I32
I52
I0
S'site'
p1668
I0
tp1669
a(I34
I10
F1.0
S'good'
p1670
I0
tp1671
a(I35
I47
I0
S'useful'
p1672
I0
tp1673
a(I53
I98
I0
S'such'
p1674
I0
tp1675
a(I61
I179
F-0.625
S'free'
p1676
I0
tp1677
a(I66
I65
I0
S'few'
p1678
I0
tp1679
a(I66
I67
F-0.625
S'free'
p1680
I0
tp1681
as(S'number'
p1682
S'and'
p1683
S'minutes'
p1684
tp1685
(lp1686
(I36
I23
I0
S'old'
p1687
I0
tp1688
a(I36
I121
F0.625
S'add'
p1689
I0
tp1690
a(I54
I2
F-0.5
S'toll-free'
p1691
I0
tp1692
a(I65
I9
I0
S'website'
p1693
I0
tp1694
a(I80
I47
I0
S'few'
p1695
I0
tp1696
as(S'amazon'
p1697
tp1698
(lp1699
(I25
I3
I0
S'real'
p1700
I13
tp1701
a(I27
I40
I0
S'more'
p1702
I13
tp1703
a(I27
I50
F-0.25
S'cheaper'
p1704
I13
tp1705
a(I29
I51
F1.0
S'good'
p1706
I13
tp1707
a(I50
I3
F0.25
S'sweet'
p1708
I13
tp1709
a(I83
I4
F0.125
S'last'
p1710
I13
tp1711
a(I83
I14
F0.125
S'first'
p1712
I13
tp1713
as(g79
S'triple'
p1714
S'minute'
p1715
tp1716
(lp1717
(I9
I3
I0
g1097
I0
tp1718
a(I13
I43
F-0.5
g1100
I0
tp1719
a(I26
I46
F0.375
g1109
I0
tp1720
a(I27
I58
I0
g1111
I0
tp1721
a(I33
I19
I0
g1113
I0
tp1722
a(I53
I19
F0.625
g1119
I0
tp1723
a(I56
I6
I0
g1123
I0
tp1724
a(I61
I129
F0.625
g1085
I0
tp1725
a(I61
I130
F-0.125
g1087
I0
tp1726
a(I65
I29
F0.625
g1130
I0
tp1727
a(I66
I38
I0
g1132
I0
tp1728
a(I67
I3
I0
g1135
I0
tp1729
a(I70
I19
F0.875
g1137
I0
tp1730
a(I86
I38
I0
g1145
I0
tp1731
a(I89
I18
F0.25
g1147
I0
tp1732
as(S'star'
p1733
S'rating'
p1734
tp1735
(lp1736
(I84
I25
F0.25
S'original'
p1737
I3
tp1738
as(S'wan'
p1739
S'na'
p1740
tp1741
(lp1742
(I60
I4
F-0.375
S'wan'
p1743
I0
tp1744
as.