(dp0
(S'android'
p1
tp2
(lp3
(I18
I0
F1.0
S'best'
p4
I0
tp5
as(S'battery'
p6
S'life'
p7
tp8
(lp9
(I6
I4
F-0.25
S'battery'
p10
I1
tp11
a(I9
I12
F0.625
S'acceptable'
p12
I1
tp13
a(I13
I54
I0
S'internal'
p14
I1
tp15
a(I13
I56
F-0.25
S'battery'
p16
I1
tp17
a(I23
I9
F0.125
S'last'
p18
I1
tp19
a(I6
I4
F-0.25
g10
I19
tp20
a(I8
I41
I0
S'general'
p21
I19
tp22
a(I8
I41
F1.0
S'good'
p23
I19
tp24
a(I9
I12
F0.625
g12
I19
tp25
a(I12
I10
F0.125
S'last'
p26
I19
tp27
a(I13
I56
F-0.25
g16
I19
tp28
a(I23
I9
F0.125
g18
I19
tp29
a(I13
I54
I0
g14
I15
tp30
a(I19
I36
F0.625
S'removable'
p31
I15
tp32
as(S'many'
p33
S'times'
p34
tp35
(lp36
(I20
I4
I0
S'many'
p37
I5
tp38
as(S'xperia'
p39
tp40
(lp41
(I12
I2
F-0.125
S'mine'
p42
I0
tp43
as(S'worst'
p44
S')'
p45
tp46
(lp47
(I19
I35
F-0.875
S'worst'
p48
I0
tp49
a(I19
I35
F-0.875
S'worst'
p50
I0
tp51
a(I19
I35
F-0.875
S'worst'
p52
I0
tp53
a(I19
I35
F-0.875
S'worst'
p54
I0
tp55
as(S'works'
p56
S'fine'
p57
tp58
(lp59
(I17
I4
F-0.125
S'glide'
p60
I9
tp61
as(S'camera'
p62
tp63
(lp64
(I5
I4
I0
S'different'
p65
I1
tp66
a(I5
I4
F0.375
S'new'
p67
I1
tp68
a(I13
I2
F1.0
S'good'
p69
I1
tp70
a(I13
I30
I0
S'great'
p71
I1
tp72
a(I13
I40
I0
S'great'
p73
I1
tp74
as(S'sd'
p75
S'card'
p76
tp77
(lp78
(I19
I51
I0
S'handy'
p79
I0
tp80
a(I19
I53
I0
S'external'
p81
I0
tp82
as(S'sony'
p83
tp84
(lp85
(I8
I11
F-0.5
S'certain'
p86
I5
tp87
a(I13
I50
I0
S'cable'
p88
I5
tp89
a(I13
I63
F-0.375
S'top'
p90
I5
tp91
as.