(dp0
(S'battery'
p1
S'life'
p2
tp3
(lp4
(I2
I52
F1.0
S'good'
p5
I1
tp6
a(I2
I52
F1.0
S'good'
p7
I1
tp8
a(I2
I52
F0.375
S'new'
p9
I1
tp10
a(I4
I82
F1.0
S'good'
p11
I1
tp12
a(I8
I10
F0.625
S'acceptable'
p13
I1
tp14
a(I12
I19
F1.0
S'good'
p15
I1
tp16
a(I15
I44
F-0.5
S'poor'
p17
I1
tp18
a(I17
I9
F1.0
S'good'
p19
I1
tp20
a(I18
I16
I0
S'great'
p21
I1
tp22
a(I18
I81
F1.0
S'good'
p23
I1
tp24
a(I20
I2
F1.0
S'good'
p25
I1
tp26
a(I23
I30
F1.0
S'good'
p27
I1
tp28
a(I2
I52
F1.0
g7
I19
tp29
a(I2
I52
F0.375
g9
I19
tp30
a(I4
I82
F1.0
g11
I19
tp31
a(I8
I10
F0.625
g13
I19
tp32
a(I12
I19
F1.0
g15
I19
tp33
a(I15
I44
F-0.5
g17
I19
tp34
a(I18
I16
I0
g21
I19
tp35
a(I20
I2
F1.0
g25
I19
tp36
a(I23
I30
F1.0
g27
I19
tp37
a(I0
I18
F0.375
S'extra'
p38
I15
tp39
a(I2
I52
F1.0
g5
I15
tp40
a(I9
I8
I0
S'big'
p41
I15
tp42
a(I10
I75
F-0.875
S'awful'
p43
I15
tp44
a(I10
I76
F-0.5
S'less'
p45
I15
tp46
a(I11
I21
F0.125
S'last'
p47
I15
tp48
a(I15
I45
F0.5
S'possible'
p49
I15
tp50
a(I17
I9
F1.0
g19
I15
tp51
a(I18
I81
F1.0
g23
I15
tp52
as(S'keys'
p53
tp54
(lp55
(I0
I66
F-0.375
S'small'
p56
I9
tp57
a(I0
I66
F0.625
S'easy'
p58
I9
tp59
a(I1
I0
I0
S'few'
p60
I9
tp61
a(I2
I17
F0.25
S'responsive'
p62
I9
tp63
a(I2
I47
F-0.375
S'small'
p64
I9
tp65
a(I11
I28
F-0.375
S'small'
p66
I9
tp67
a(I11
I65
F-0.375
S'small'
p68
I9
tp69
a(I13
I5
F-0.75
S'comfortable'
p70
I9
tp71
a(I15
I5
F-0.375
S'small'
p72
I9
tp73
a(I16
I7
F0.625
S'easy'
p74
I9
tp75
a(I22
I90
F-0.375
S'small'
p76
I9
tp77
a(I23
I12
F0.625
S'easy'
p78
I9
tp79
a(I23
I12
F-0.375
S'small'
p80
I9
tp81
a(I23
I12
F0.625
S'easy'
p82
I9
tp83
a(I24
I38
F0.5
S'flat'
p84
I9
tp85
a(I24
I97
F0.625
S'kind'
p86
I9
tp87
a(I24
I117
F-0.375
S'small'
p88
I9
tp89
as(S'smartphone'
p90
tp91
(lp92
(I15
I47
F-0.125
S'slow'
p93
I0
tp94
a(I22
I102
F0.5
S'expensive'
p95
I0
tp96
a(I24
I121
I0
S'latest'
p97
I0
tp98
a(I24
I126
F0.5
S'expensive'
p99
I0
tp100
as(S'send'
p101
S'picture'
p102
tp103
(lp104
(I23
I21
I0
S'text'
p105
I0
tp106
as(S'call'
p107
S'quality'
p108
tp109
(lp110
(I15
I38
F1.0
S'good'
p111
I0
tp112
a(I19
I3
F1.0
S'good'
p113
I0
tp114
a(I22
I60
F1.0
S'good'
p115
I0
tp116
a(I23
I30
F1.0
S'good'
p117
I0
tp118
a(I24
I78
F1.0
S'good'
p119
I0
tp120
as(S'service'
p121
tp122
(lp123
(I4
I87
F0.5
S'told'
p124
I16
tp125
a(I15
I38
F0.625
S'decent'
p126
I16
tp127
a(I17
I30
F0.5
S'second'
p128
I16
tp129
a(I18
I49
F1.0
S'good'
p130
I16
tp131
as(S'high'
p132
S'tech'
p133
tp134
(lp135
(I0
I64
F0.375
S'reliable'
p136
I0
tp137
a(I0
I64
F-0.375
S'simple'
p138
I0
tp139
a(I0
I64
I0
S'high'
p140
I0
tp141
a(I11
I22
I0
S'high'
p142
I0
tp143
a(I14
I7
I0
S'high'
p144
I0
tp145
as(S'deal'
p146
S'breaker'
p147
tp148
(lp149
(I10
I45
I0
S'great'
p150
I0
tp151
a(I10
I45
I0
S'total'
p152
I0
tp153
as(S'camera'
p154
tp155
(lp156
(I2
I16
F0.625
S'decent'
p157
I1
tp158
a(I18
I32
I0
S'great'
p159
I1
tp160
a(I22
I76
F1.0
S'good'
p161
I1
tp162
a(I24
I83
I0
S'least'
p163
I1
tp164
as(S'qwerty'
p165
S'keyboard'
p166
tp167
(lp168
(I4
I8
I0
S'full'
p169
I0
tp170
a(I9
I7
F-0.75
S'difficult'
p171
I0
tp172
a(I18
I21
F-0.375
S'smaller'
p173
I0
tp174
a(I18
I21
F-0.625
S'bad'
p175
I0
tp176
a(I18
I81
F-0.375
S'small'
p177
I0
tp178
a(I22
I86
F-0.875
S'hard'
p179
I0
tp180
as(S'job'
p181
S'done'
p182
tp183
(lp184
(I24
I98
F-0.625
S'other'
p185
I2
tp186
as(S'blue'
p187
S'tooth'
p188
tp189
(lp190
(I15
I31
I0
S'blue'
p191
I0
tp192
as(S'apps'
p193
tp194
(lp195
(I3
I38
I0
S'such'
p196
I0
tp197
a(I4
I36
F0.875
S'nice'
p198
I0
tp199
a(I4
I36
I0
S'useful'
p200
I0
tp201
a(I8
I3
F0.125
S'able'
p202
I0
tp203
a(I8
I3
F0.625
S'easier'
p204
I0
tp205
a(I24
I145
I0
S'many'
p206
I0
tp207
a(I24
I159
F-0.625
S'other'
p208
I0
tp209
as(S'internet'
p210
tp211
(lp212
(I4
I71
I0
S'basic'
p213
I6
tp214
a(I14
I2
F0.375
S'much'
p215
I6
tp216
a(I15
I28
I0
S'own'
p217
I6
tp218
a(I21
I26
F-0.5
S'unlimited'
p219
I6
tp220
a(I24
I81
F0.5
S'so-so'
p221
I6
tp222
as(S'big'
p223
S'deal'
p224
tp225
(lp226
(I3
I23
I0
S'big'
p227
I11
tp228
a(I18
I44
I0
S'big'
p229
I11
tp230
a(I22
I45
I0
S'big'
p231
I11
tp232
a(I24
I49
I0
S'big'
p233
I11
tp234
as(S'do'
p235
S"n't"
p236
S'use'
p237
tp238
(lp239
(I5
I2
F-0.625
S'average'
p240
I0
tp241
as(S'a'
p242
S'full'
p243
S'keyboard'
p244
tp245
(lp246
(I3
I11
I0
S'full'
p247
I0
tp248
a(I3
I11
F1.0
S'good'
p249
I0
tp250
a(I3
I11
F-0.625
S'bad'
p251
I0
tp252
a(I3
I17
I0
S'full'
p253
I0
tp254
a(I15
I12
I0
S'full'
p255
I0
tp256
a(I21
I29
I0
S'full'
p257
I0
tp258
a(I22
I54
I0
S'full'
p259
I0
tp260
a(I22
I89
I0
S'full'
p261
I0
tp262
a(I22
I101
I0
S'full'
p263
I0
tp264
a(I3
I11
I0
g247
I0
tp265
a(I3
I11
F1.0
g249
I0
tp266
a(I3
I11
F-0.625
g251
I0
tp267
a(I3
I17
I0
g253
I0
tp268
a(I15
I12
I0
g255
I0
tp269
a(I21
I29
I0
g257
I0
tp270
a(I22
I54
I0
g259
I0
tp271
a(I22
I89
I0
g261
I0
tp272
a(I22
I101
I0
g263
I0
tp273
a(I3
I0
F0.375
S'much'
p274
I2
tp275
a(I3
I11
I0
g247
I2
tp276
a(I3
I11
F1.0
g249
I2
tp277
a(I3
I11
F-0.625
g251
I2
tp278
a(I3
I17
I0
g253
I2
tp279
a(I3
I18
F-0.375
S'small'
p280
I2
tp281
a(I4
I0
F-0.5
S'separate'
p282
I2
tp283
a(I9
I7
F-0.75
g171
I2
tp284
a(I11
I1
I0
S'physical'
p285
I2
tp286
a(I11
I5
I0
S'real'
p287
I2
tp288
a(I11
I5
F0.875
S'nice'
p289
I2
tp290
a(I13
I10
F0.625
S'easy'
p291
I2
tp292
a(I13
I10
F-0.375
S'small'
p293
I2
tp294
a(I15
I12
I0
g255
I2
tp295
a(I16
I14
F-0.625
S'light'
p296
I2
tp297
a(I18
I21
F-0.375
g173
I2
tp298
a(I18
I21
F-0.625
g175
I2
tp299
a(I18
I81
F-0.375
g177
I2
tp300
a(I21
I29
I0
g257
I2
tp301
a(I22
I54
I0
g259
I2
tp302
a(I22
I60
F-0.375
S'small'
p303
I2
tp304
a(I22
I60
I0
S'adequate'
p305
I2
tp306
a(I22
I89
I0
g261
I2
tp307
a(I22
I101
I0
g263
I2
tp308
a(I22
I121
F0.5
S'touch'
p309
I2
tp310
a(I22
I121
I0
S'sensitive'
p311
I2
tp312
a(I23
I57
F-0.375
S'small'
p313
I2
tp314
a(I23
I57
F0.625
S'easy'
p315
I2
tp316
a(I24
I46
F0.875
S'nice'
p317
I2
tp318
a(I24
I46
F0.125
S'able'
p319
I2
tp320
as(S'decent'
p321
tp322
(lp323
(I22
I101
F-0.125
S'overall'
p324
I10
tp325
a(I24
I14
F0.375
S'reliable'
p326
I10
tp327
as(S'sd'
p328
S'card'
p329
tp330
(lp331
(I24
I90
F0.875
S'music'
p332
I0
tp333
as(S'light'
p334
S'weight'
p335
tp336
(lp337
(I0
I71
F-0.625
S'light'
p338
I5
tp339
a(I18
I24
F-0.625
S'light'
p340
I5
tp341
a(I18
I24
F0.875
S'nice'
p342
I5
tp343
a(I20
I2
F-0.25
S'thin'
p344
I5
tp345
a(I20
I2
F-0.625
S'light'
p346
I5
tp347
a(I22
I8
F-0.625
S'light'
p348
I5
tp349
as(S'sound'
p350
tp351
(lp352
(I2
I51
F1.0
S'good'
p353
I7
tp354
a(I3
I3
F-0.25
S'low'
p355
I7
tp356
a(I17
I9
F0.5
S'clear'
p357
I7
tp358
a(I21
I35
F0.375
S'interesting'
p359
I7
tp360
a(I24
I69
F0.5
S'clear'
p361
I7
tp362
as(S'battery'
p363
S'cover'
p364
tp365
(lp366
(I18
I81
F1.0
g23
I0
tp367
as(S'smart'
p368
tp369
(lp370
(I0
I9
F0.5
S'true'
p371
I10
tp372
a(I2
I50
I0
S'real'
p373
I10
tp374
a(I8
I1
F0.5
S'expensive'
p375
I10
tp376
a(I24
I75
F0.125
S'popular'
p377
I10
tp378
as(S'replacement'
p379
tp380
(lp381
(I8
I1
I0
S'quick'
p382
I13
tp383
a(I8
I1
F0.625
S'easy'
p384
I13
tp385
a(I13
I2
I0
S'great'
p386
I13
tp387
a(I13
I23
I0
S'great'
p388
I13
tp389
a(I20
I0
I0
S'older'
p390
I13
tp391
a(I22
I140
I0
S'great'
p392
I13
tp393
as(S'calls'
p394
tp395
(lp396
(I3
I4
I0
S'many'
p397
I0
tp398
a(I4
I21
F0.5
S'clear'
p399
I0
tp400
a(I6
I1
F1.0
S'good'
p401
I0
tp402
a(I10
I19
F0.5
S'clear'
p403
I0
tp404
a(I18
I14
F0.5
S'clear'
p405
I0
tp406
a(I18
I14
F0.625
S'easy'
p407
I0
tp408
a(I19
I13
F1.0
S'good'
p409
I0
tp410
a(I22
I108
F0.625
S'perfect'
p411
I0
tp412
a(I22
I126
F0.25
S'recent'
p413
I0
tp414
a(I22
I143
F0.75
S'receive'
p415
I0
tp416
as(S'text'
p417
S'messages'
p418
tp419
(lp420
(I13
I21
I0
S'text'
p421
I0
tp422
a(I21
I34
F-0.75
S'inconvenient'
p423
I0
tp424
a(I22
I70
I0
S'text'
p425
I0
tp426
a(I22
I93
I0
S'quick'
p427
I0
tp428
a(I24
I102
F0.75
S'receive'
p429
I0
tp430
a(I0
I44
I0
S'cool'
p431
I1
tp432
a(I13
I21
I0
g421
I1
tp433
a(I18
I49
F-0.625
S'other'
p434
I1
tp435
a(I21
I34
F-0.75
g423
I1
tp436
a(I22
I70
I0
g425
I1
tp437
a(I22
I93
I0
g427
I1
tp438
as(S'new'
p439
S'message'
p440
tp441
(lp442
(I18
I19
F0.375
S'new'
p443
I0
tp444
a(I18
I38
F0.375
S'new'
p445
I0
tp446
a(I19
I4
F0.375
S'new'
p447
I0
tp448
a(I19
I4
F0.375
S'new'
p449
I0
tp450
a(I21
I17
F0.375
S'new'
p451
I0
tp452
a(I21
I17
F0.375
S'new'
p453
I0
tp454
a(I3
I22
F0.5
S'true'
p455
I1
tp456
a(I3
I22
F-0.5
S'open'
p457
I1
tp458
a(I18
I19
F0.375
g443
I1
tp459
a(I18
I38
F0.375
g445
I1
tp460
a(I19
I4
F0.375
g447
I1
tp461
a(I19
I4
F0.375
g449
I1
tp462
a(I21
I17
F0.375
g451
I1
tp463
a(I21
I17
F0.375
g453
I1
tp464
as(S'music'
p465
S'player'
p466
tp467
(lp468
(I11
I45
F0.875
S'music'
p469
I0
tp470
a(I11
I45
F0.875
S'music'
p471
I0
tp472
as(g242
S'data'
p473
S'plan'
p474
tp475
(lp476
(I3
I7
I0
S'high'
p477
I0
tp478
a(I21
I29
F0.625
S'easy'
p479
I0
tp480
a(I24
I129
I0
S'economical'
p481
I0
tp482
a(I3
I7
I0
g477
I0
tp483
a(I21
I29
F0.625
g479
I0
tp484
a(I24
I129
I0
g481
I0
tp485
a(I3
I7
I0
g477
I13
tp486
a(I3
I39
F0.5
S'expensive'
p487
I13
tp488
a(I9
I15
I0
S'cable'
p489
I13
tp490
a(I10
I24
F-0.25
S'cheaper'
p491
I13
tp492
a(I24
I19
F-0.375
S'disable'
p493
I13
tp494
a(I24
I129
I0
g481
I13
tp495
as(S'heavy'
p496
S'texter'
p497
tp498
(lp499
(I3
I9
F-0.5
S'heavy'
p500
I0
tp501
a(I3
I9
F0.375
S'mean'
p502
I0
tp503
a(I24
I33
F-0.5
S'heavy'
p504
I0
tp505
a(I24
I130
F-0.5
S'heavy'
p506
I0
tp507
as(g242
S'sim'
p508
S'card'
p509
tp510
(lp511
(I11
I3
I0
S'prepaid'
p512
I0
tp513
a(I17
I2
F0.375
S'new'
p514
I0
tp515
a(I22
I7
F0.375
S'new'
p516
I0
tp517
a(I22
I7
I0
S'old'
p518
I0
tp519
a(I22
I48
I0
S'old'
p520
I0
tp521
a(I23
I34
F0.25
S'larger'
p522
I0
tp523
a(I23
I37
I0
S'own'
p524
I0
tp525
a(I11
I3
I0
g512
I0
tp526
a(I17
I2
F0.375
g514
I0
tp527
a(I22
I7
F0.375
g516
I0
tp528
a(I22
I7
I0
g518
I0
tp529
a(I22
I48
I0
g520
I0
tp530
a(I23
I34
F0.25
g522
I0
tp531
a(I23
I37
I0
g524
I0
tp532
as(S'texting'
p533
tp534
(lp535
(I2
I19
I0
S'normal'
p536
I0
tp537
a(I2
I19
I0
S'phenomenal'
p538
I0
tp539
a(I3
I12
F-0.375
S'simple'
p540
I0
tp541
a(I4
I21
F0.625
S'perfect'
p542
I0
tp543
a(I4
I65
I0
S'great'
p544
I0
tp545
a(I7
I8
I0
S'limited'
p546
I0
tp547
a(I8
I8
F1.0
S'good'
p548
I0
tp549
a(I10
I22
F0.625
S'easy'
p550
I0
tp551
a(I22
I67
F-0.5
S'heavy'
p552
I0
tp553
as(S'amazon'
p554
tp555
(lp556
(I10
I26
F-0.5
S'long'
p557
I13
tp558
a(I13
I3
I0
S'great'
p559
I13
tp560
a(I13
I28
F0.875
S'happy'
p561
I13
tp562
as(S'text'
p563
S'messaging'
p564
tp565
(lp566
(I11
I44
F0.375
S'new'
p567
I0
tp568
a(I24
I88
F0.375
S'new'
p569
I0
tp570
a(I2
I24
F0.375
S'new'
p571
I18
tp572
a(I4
I43
F0.5
S'whole'
p573
I18
tp574
a(I4
I43
I0
S'pic'
p575
I18
tp576
a(I8
I7
F0.625
S'easy'
p577
I18
tp578
a(I11
I44
F0.375
g567
I18
tp579
a(I12
I6
I0
S'same'
p580
I18
tp581
a(I17
I16
I0
S'monthly'
p582
I18
tp583
a(I22
I12
F0.125
S'able'
p584
I18
tp585
a(I22
I41
F0.625
S'easy'
p586
I18
tp587
a(I24
I88
F0.375
g569
I18
tp588
a(I24
I102
F0.75
g429
I18
tp589
as.