(dp0
(S'seller'
p1
tp2
(lp3
(I9
I7
F0.625
S'discourteous'
p4
I19
tp5
a(I29
I3
F0.625
S'responsible'
p6
I19
tp7
as(S'android'
p8
tp9
(lp10
(I4
I42
I0
S'current'
p11
I0
tp12
as(S'i9300'
p13
tp14
(lp15
(I4
I42
F-0.5
S'international'
p16
I0
tp17
a(I16
I11
F-0.5
S'international'
p18
I0
tp19
as(S'battery'
p20
S'life'
p21
tp22
(lp23
(I2
I16
F-0.75
S'short'
p24
I1
tp25
a(I11
I15
F1.0
S'better'
p26
I15
tp27
a(I19
I2
F0.125
S'last'
p28
I15
tp29
as(S'sapphire'
p30
S'black'
p31
tp32
(lp33
(I14
I37
F-0.375
S'black'
p34
I0
tp35
as(S'international'
p36
S'version'
p37
tp38
(lp39
(I4
I38
F-0.5
S'international'
p40
I0
tp41
a(I7
I6
F-0.5
S'international'
p42
I0
tp43
a(I9
I3
F-0.5
S'international'
p44
I0
tp45
a(I14
I36
F0.25
S'unlocked'
p46
I0
tp47
a(I14
I36
F-0.5
S'international'
p48
I0
tp49
a(I14
I37
F-0.5
S'international'
p50
I0
tp51
a(I23
I0
F-0.5
S'international'
p52
I0
tp53
a(I29
I17
F-0.5
S'international'
p54
I0
tp55
as(S'customer'
p56
S'service'
p57
tp58
(lp59
(I9
I6
F-0.875
S'worst'
p60
I3
tp61
as(S'samsung'
p62
tp63
(lp64
(I27
I13
I0
S'different'
p65
I7
tp66
as(S'galaxy'
p67
S's'
p68
tp69
(lp70
(I2
I3
I0
S'galaxy'
p71
I0
tp72
a(I14
I30
F-0.625
S'want'
p73
I0
tp74
a(I15
I3
F1.0
S'good'
p75
I0
tp76
a(I14
I30
F-0.625
g73
I0
tp77
a(I15
I3
F1.0
g75
I0
tp78
as.