(dp0
(S'android'
p1
tp2
(lp3
(I0
I96
F1.0
S'better'
p4
I0
tp5
a(I0
I96
I0
S'least'
p6
I0
tp7
a(I1
I11
I0
S'official'
p8
I0
tp9
a(I1
I11
F1.0
S'good'
p10
I0
tp11
a(I5
I116
I0
S'efficient'
p12
I0
tp13
a(I7
I110
I0
S'latest'
p14
I0
tp15
as(S'battery'
p16
S'life'
p17
tp18
(lp19
(I1
I27
I0
S'great'
p20
I1
tp21
a(I5
I33
F1.0
S'better'
p22
I1
tp23
a(I5
I62
F1.0
S'good'
p24
I1
tp25
a(I1
I27
I0
g20
I19
tp26
a(I5
I62
F1.0
g24
I19
tp27
a(I5
I33
F1.0
g22
I15
tp28
a(I7
I108
F-0.5
S'less'
p29
I15
tp30
a(I7
I113
F-0.375
S'smaller'
p31
I15
tp32
as(S'live'
p33
S'tiles'
p34
tp35
(lp36
(I0
I47
F0.5
S'live'
p37
I0
tp38
a(I0
I47
F0.5
S'live'
p39
I0
tp40
a(I5
I113
F0.5
S'live'
p41
I0
tp42
a(I7
I1
F0.5
S'live'
p43
I0
tp44
as(S'windows'
p45
tp46
(lp47
(I0
I28
F0.125
S'further'
p48
I0
tp49
a(I2
I47
I0
S'general'
p50
I0
tp51
a(I5
I15
F-0.625
S'other'
p52
I0
tp53
a(I5
I32
F1.0
S'good'
p54
I0
tp55
as(S'beats'
p56
S'audio'
p57
tp58
(lp59
(I0
I91
I0
S'great'
p60
I0
tp61
a(I0
I91
I0
g60
I2
tp62
as(S'button'
p63
tp64
(lp65
(I0
I104
F-0.375
S'top'
p66
I19
tp67
a(I1
I8
I0
S'third'
p68
I19
tp69
a(I1
I30
F-0.875
S'hard'
p70
I19
tp71
a(I2
I16
F-0.375
S'top'
p72
I19
tp73
a(I5
I71
F0.625
S'convenient'
p74
I19
tp75
as(S'wide'
p76
S'angle'
p77
S'lens'
p78
tp79
(lp80
(I0
I54
I0
S'wide-angle'
p81
I0
tp82
a(I0
I88
I0
S'wide'
p83
I0
tp84
a(I7
I13
I0
S'wide'
p85
I0
tp86
a(I7
I141
I0
S'wide'
p87
I0
tp88
as(S'apps'
p89
tp90
(lp91
(I0
I19
F0.375
S'new'
p92
I0
tp93
a(I0
I97
F1.0
S'good'
p94
I0
tp95
a(I0
I117
I0
S'few'
p96
I0
tp97
a(I0
I117
I0
S'different'
p98
I0
tp99
a(I1
I7
F-0.75
S'unofficial'
p100
I0
tp101
a(I1
I9
I0
S'big'
p102
I0
tp103
a(I4
I14
F-0.5
S'miss'
p104
I0
tp105
a(I5
I43
I0
S'such'
p106
I0
tp107
a(I5
I44
F1.0
S'good'
p108
I0
tp109
a(I5
I95
F0.125
S'able'
p110
I0
tp111
a(I5
I117
F-0.5
S'open'
p112
I0
tp113
a(I7
I65
F0.125
S'key'
p114
I0
tp115
a(I7
I65
F0.625
S'necessary'
p116
I0
tp117
as(S'camera'
p118
tp119
(lp120
(I0
I57
I0
S'external'
p121
I1
tp122
a(I0
I84
F0.125
S'dedicated'
p123
I1
tp124
a(I0
I87
I0
S'rear'
p125
I1
tp126
a(I0
I87
F1.0
S'good'
p127
I1
tp128
a(I0
I130
F0.125
S'profile'
p129
I1
tp130
a(I1
I35
F-0.875
S'hard'
p131
I1
tp132
a(I2
I28
F1.0
S'better'
p133
I1
tp134
a(I7
I95
F0.25
S'main'
p135
I1
tp136
as.