(dp0
(S'sprint'
p1
tp2
(lp3
(I8
I13
I0
S'great'
p4
I0
tp5
a(I9
I27
F-0.625
S'free'
p6
I0
tp7
a(I9
I27
F0.375
S'new'
p8
I0
tp9
a(I9
I52
F0.375
S'new'
p10
I0
tp11
as(S'only'
p12
S'way'
p13
tp14
(lp15
(I2
I28
I0
S'only'
p16
I2
tp17
a(I2
I50
I0
S'only'
p18
I2
tp19
a(I11
I9
I0
S'only'
p20
I2
tp21
as(S'battery'
p22
S'life'
p23
tp24
(lp25
(I3
I2
F-0.75
S'short'
p26
I1
tp27
a(I4
I60
F1.0
S'good'
p28
I1
tp29
a(I8
I6
F1.0
S'good'
p30
I1
tp31
a(I8
I6
F-0.25
S'low'
p32
I1
tp33
a(I2
I5
F0.875
S'lucky'
p34
I15
tp35
a(I2
I28
F-0.375
S'pull'
p36
I15
tp37
a(I2
I45
I0
S'empty'
p38
I15
tp39
a(I2
I46
F0.125
S'last'
p40
I15
tp41
a(I3
I2
F-0.75
g26
I15
tp42
a(I4
I5
F0.375
S'new'
p43
I15
tp44
a(I4
I60
F1.0
g28
I15
tp45
a(I8
I6
F-0.25
g32
I15
tp46
a(I11
I2
F0.125
S'charger'
p47
I15
tp48
a(I11
I2
F-0.25
S'low'
p49
I15
tp50
as(S'an'
p51
S'upgrade'
p52
tp53
(lp54
(I0
I22
F0.5
S'eligible'
p55
I0
tp56
a(I2
I49
F-0.25
S'ready'
p57
I0
tp58
as(S'text'
p59
tp60
(lp61
(I2
I19
I0
S'most'
p62
I18
tp63
a(I2
I26
F0.875
S'important'
p64
I18
tp65
as(S'internal'
p66
S'storage'
p67
tp68
(lp69
(I4
I55
F-0.625
S'bad'
p70
I0
tp71
a(I4
I55
I0
S'internal'
p72
I0
tp73
a(I4
I55
F-0.25
S'low'
p74
I0
tp75
a(I8
I3
I0
S'internal'
p76
I0
tp77
a(I8
I8
I0
S'internal'
p78
I0
tp79
a(I12
I3
I0
S'internal'
p80
I0
tp81
as(S'apps'
p82
tp83
(lp84
(I0
I10
I0
S'download'
p85
I0
tp86
a(I0
I20
I0
S'many'
p87
I0
tp88
a(I6
I13
F-0.375
S'crash'
p89
I0
tp90
a(I11
I12
F0.375
S'extra'
p91
I0
tp92
as(S'internal'
p93
S'memory'
p94
tp95
(lp96
(I0
I13
I0
S'internal'
p97
I0
tp98
a(I0
I14
I0
S'internal'
p99
I0
tp100
a(I0
I14
F-0.375
S'small'
p101
I0
tp102
a(I0
I20
I0
S'minimal'
p103
I0
tp104
a(I0
I20
I0
S'internal'
p105
I0
tp106
a(I0
I20
I0
S'high'
p107
I0
tp108
a(I0
I20
I0
S'internal'
p109
I0
tp110
a(I0
I22
I0
S'internal'
p111
I0
tp112
a(I4
I24
I0
S'internal'
p113
I0
tp114
a(I4
I25
F-0.375
S'small'
p115
I0
tp116
a(I4
I25
I0
S'internal'
p117
I0
tp118
a(I0
I13
I0
g97
I5
tp119
a(I0
I14
I0
g99
I5
tp120
a(I0
I14
F-0.375
g101
I5
tp121
a(I0
I20
I0
g103
I5
tp122
a(I0
I20
I0
g105
I5
tp123
a(I0
I20
I0
g107
I5
tp124
a(I0
I20
I0
g109
I5
tp125
a(I0
I22
I0
g111
I5
tp126
a(I3
I14
I0
S'full'
p127
I5
tp128
a(I4
I24
I0
g113
I5
tp129
a(I4
I25
F-0.375
g115
I5
tp130
a(I4
I25
I0
g117
I5
tp131
a(I11
I12
I0
S'more'
p132
I5
tp133
a(I12
I19
F-0.25
S'low'
p134
I5
tp135
as(S'touch'
p136
S'screen'
p137
tp138
(lp139
(I2
I2
F0.5
S'touch'
p140
I2
tp141
a(I5
I29
F0.5
S'touch'
p142
I2
tp143
a(I11
I5
F0.5
S'touch'
p144
I2
tp145
as.