(dp0
(S'battery'
p1
S'life'
p2
tp3
(lp4
(I0
I24
F1.0
S'good'
p5
I1
tp6
a(I8
I66
F-0.75
S'worse'
p7
I1
tp8
a(I13
I39
F-0.75
S'short'
p9
I1
tp10
a(I0
I24
F1.0
g5
I19
tp11
a(I8
I66
F-0.75
g7
I19
tp12
a(I8
I19
F0.375
S'new'
p13
I15
tp14
a(I12
I6
F-0.625
S'free'
p15
I15
tp16
a(I13
I39
F-0.75
g9
I15
tp17
as(S'keyboard'
p18
tp19
(lp20
(I1
I1
I0
S'full'
p21
I2
tp22
a(I1
I2
I0
S'great'
p23
I2
tp24
a(I1
I26
F0.625
S'easy'
p25
I2
tp26
a(I3
I1
I0
S'physical'
p27
I2
tp28
a(I3
I16
I0
S'full'
p29
I2
tp30
a(I6
I15
I0
S'great'
p31
I2
tp32
a(I13
I8
I0
S'great'
p33
I2
tp34
as(S'a'
p35
S'data'
p36
S'plan'
p37
tp38
(lp39
(I6
I13
I0
S'large'
p40
I0
tp41
a(I8
I81
I0
S'most'
p42
I0
tp43
a(I13
I11
F0.5
S'expensive'
p44
I0
tp45
a(I6
I13
I0
g40
I0
tp46
a(I8
I81
I0
g42
I0
tp47
a(I13
I11
F0.5
g44
I0
tp48
a(I6
I13
I0
g40
I13
tp49
a(I8
I57
F0.625
S'easy'
p50
I13
tp51
a(I8
I59
F-0.375
S'disable'
p52
I13
tp53
a(I8
I81
I0
g42
I13
tp54
a(I13
I11
F0.5
g44
I13
tp55
as(S'text'
p56
tp57
(lp58
(I13
I3
F0.5
S'second'
p59
I18
tp60
a(I13
I48
I0
S'dial'
p61
I18
tp62
as(S'camera'
p63
tp64
(lp65
(I0
I1
F0.875
S'nice'
p66
I1
tp67
a(I13
I13
F1.0
S'good'
p68
I1
tp69
a(I13
I40
F0.375
S'honest'
p70
I1
tp71
a(I13
I40
F-0.75
S'unreliable'
p72
I1
tp73
as(S'samsung'
p74
S'brightside'
p75
tp76
(lp77
(I8
I42
F0.125
S'able'
p78
I0
tp79
a(I8
I78
F-0.125
S'overall'
p80
I0
tp81
a(I4
I53
I0
S'few'
p82
I7
tp83
a(I4
I53
F-0.625
S'other'
p84
I7
tp85
a(I7
I39
I0
S'general'
p86
I7
tp87
a(I8
I42
F0.125
g78
I7
tp88
a(I3
I21
F0.25
S'original'
p89
I0
tp90
a(I3
I29
F0.875
S'happy'
p91
I0
tp92
a(I4
I0
F0.5
S'second'
p93
I0
tp94
a(I8
I78
F-0.125
g80
I0
tp95
a(I13
I11
I0
S'great'
p96
I0
tp97
as(S'home'
p98
S'screen'
p99
tp100
(lp101
(I1
I9
F-0.5
S'open'
p102
I0
tp103
a(I13
I52
F0.25
S'main'
p104
I0
tp105
as(S'button'
p106
tp107
(lp108
(I4
I34
F-0.75
S'wrong'
p109
I19
tp110
a(I4
I34
F1.0
S'good'
p111
I19
tp112
a(I8
I46
F0.625
S'easy'
p113
I19
tp114
a(I8
I75
I0
S'physical'
p115
I19
tp116
as(S'seller'
p117
tp118
(lp119
(I0
I15
F0.375
S'new'
p120
I19
tp121
as(S'smart'
p122
tp123
(lp124
(I3
I4
F-0.75
S'short'
p125
I10
tp126
as(S'replacement'
p127
tp128
(lp129
(I0
I13
F-0.75
S'little'
p130
I13
tp131
a(I1
I33
I0
S'great'
p132
I13
tp133
as(S'calls'
p134
tp135
(lp136
(I7
I19
F0.625
S'easy'
p137
I0
tp138
as(S'smartphone'
p139
tp140
(lp141
(I7
I34
I0
S'real'
p142
I0
tp143
as(S'verizon'
p144
S'store'
p145
tp146
(lp147
(I6
I2
I0
S'local'
p148
I0
tp149
a(I6
I2
I0
g148
I0
tp150
a(I8
I39
I0
S'few'
p151
I0
tp152
as(S'texting'
p153
tp154
(lp155
(I8
I40
I0
S'fanatic'
p156
I0
tp157
as(S'touch'
p158
S'screen'
p159
tp160
(lp161
(I1
I12
F0.5
S'touch'
p162
I2
tp163
a(I1
I36
F0.5
S'touch'
p164
I2
tp165
a(I2
I2
F0.5
S'touch'
p166
I2
tp167
a(I3
I4
F0.5
S'touch'
p168
I2
tp169
a(I3
I23
F0.5
S'touch'
p170
I2
tp171
a(I3
I32
F0.5
S'touch'
p172
I2
tp173
a(I3
I34
F0.5
S'touch'
p174
I2
tp175
a(I4
I24
F1.0
S'good'
p176
I2
tp177
a(I4
I24
F0.5
S'touch'
p178
I2
tp179
a(I4
I26
F0.875
S'nice'
p180
I2
tp181
a(I4
I34
F1.0
S'good'
p182
I2
tp183
a(I4
I40
I0
S'sensitive'
p184
I2
tp185
a(I6
I6
F0.5
S'touch'
p186
I2
tp187
a(I6
I15
F0.25
S'responsive'
p188
I2
tp189
a(I6
I15
F0.5
S'touch'
p190
I2
tp191
a(I8
I44
F0.5
S'touch'
p192
I2
tp193
a(I8
I75
F0.5
S'touch'
p194
I2
tp195
a(I8
I77
F0.5
S'touch'
p196
I2
tp197
a(I12
I9
F1.0
S'good'
p198
I2
tp199
a(I12
I9
F0.5
S'touch'
p200
I2
tp201
a(I13
I22
F0.5
S'touch'
p202
I2
tp203
a(I13
I25
F0.5
S'touch'
p204
I2
tp205
a(I13
I46
F0.5
S'true'
p206
I2
tp207
a(I13
I46
F0.5
S'touch'
p208
I2
tp209
a(I13
I55
F0.5
S'touch'
p210
I2
tp211
as.