(dp0
(S'operating'
p1
S'system'
p2
tp3
(lp4
(I4
I5
F0.125
S'solid'
p5
I2
tp6
a(I5
I11
F0.625
S'easy'
p7
I2
tp8
as(S'bluetooth'
p9
tp10
(lp11
(I8
I67
I0
S'standard'
p12
I3
tp13
as(S'battery'
p14
tp15
(lp16
(I8
I55
F0.625
S'removable'
p17
I15
tp18
a(I8
I57
F0.125
S'able'
p19
I15
tp20
a(I8
I58
F0.875
S'important'
p21
I15
tp22
as(S'windows'
p23
tp24
(lp25
(I8
I29
I0
S'few'
p26
I0
tp27
a(I8
I86
F1.0
S'best'
p28
I0
tp29
as(S'nokia'
p30
S'lumia'
p31
tp32
(lp33
(I1
I6
F-0.625
S'free'
p34
I0
tp35
a(I1
I6
F-0.625
S'free'
p36
I0
tp37
a(I1
I6
F-0.625
g34
I0
tp38
a(I1
I6
F-0.625
g36
I0
tp39
a(I5
I0
F1.0
S'better'
p40
I0
tp41
a(I6
I15
F0.125
S'first'
p42
I0
tp43
a(I6
I56
F-0.625
S'other'
p44
I0
tp45
a(I5
I1
F0.375
S'new'
p46
I0
tp47
as(S'warranty'
p48
tp49
(lp50
(I8
I90
F-0.5
S'international'
p51
I2
tp52
as(S'apps'
p53
tp54
(lp55
(I4
I6
I0
S'few'
p56
I0
tp57
a(I4
I6
F0.375
S'available'
p58
I0
tp59
a(I5
I31
F-0.375
S'simple'
p60
I0
tp61
a(I6
I39
I0
S'few'
p62
I0
tp63
a(I6
I39
F0.625
S'major'
p64
I0
tp65
a(I8
I79
F-0.5
S'less'
p66
I0
tp67
as(S'camera'
p68
tp69
(lp70
(I1
I2
F1.0
S'best'
p71
I1
tp72
a(I1
I5
F1.0
S'best'
p73
I1
tp74
a(I4
I5
I0
S'great'
p75
I1
tp76
a(I5
I22
I0
S'great'
p77
I1
tp78
as(S'touch'
p79
S'screen'
p80
tp81
(lp82
(I6
I52
F0.5
S'touch'
p83
I2
tp84
a(I8
I8
F0.5
S'touch'
p85
I2
tp86
a(I8
I9
F0.5
S'touch'
p87
I2
tp88
as.