(dp0
(S'problem'
p1
tp2
(lp3
(I52
I0
F-0.25
S'past'
p4
tp5
a(I58
I2
F-0.5
S'sure'
p6
tp7
a(I66
I31
F0.5
S'careful'
p8
tp9
a(I108
I0
F0.375
S'newest'
p10
tp11
a(I146
I29
I0
S'only'
p12
tp13
as(S'virgin'
p14
S'mobile'
p15
tp16
(lp17
(I95
I3
I0
S'full'
p18
tp19
a(I95
I3
F0.125
S'first'
p20
tp21
as(S'battery'
p22
S'life'
p23
tp24
(lp25
(I100
I1
F-0.5
S'long'
p26
tp27
a(I116
I0
I0
S'old'
p28
tp29
a(I133
I5
F-0.5
S'long'
p30
tp31
a(I133
I5
F-0.5
S'long'
p32
tp33
a(I133
I5
F0.125
S'last'
p34
tp35
a(I133
I6
F0.125
S'last'
p36
tp37
a(I133
I16
I0
S'great'
p38
tp39
as(S'minutes'
p40
tp41
(lp42
(I5
I5
I0
S'more'
p43
tp44
a(I5
I5
F-0.625
S'free'
p45
tp46
a(I5
I8
F0.125
S'able'
p47
tp48
a(I30
I6
I0
S'later'
p49
tp50
a(I38
I1
F-0.375
S'double'
p51
tp52
a(I40
I11
F-0.25
S'triple'
p53
tp54
a(I43
I2
I0
S'later'
p55
tp56
a(I53
I2
F0.875
S'nice'
p57
tp58
a(I62
I10
F-0.5
S'less'
p59
tp60
a(I62
I13
I0
S'cool'
p61
tp62
a(I62
I14
I0
S'many'
p63
tp64
a(I66
I15
I0
S'online'
p65
tp66
a(I66
I26
I0
S'few'
p67
tp68
a(I74
I0
F-0.5
S'heavy'
p69
tp70
a(I81
I5
F-0.25
S'triple'
p71
tp72
a(I85
I8
I0
S'many'
p73
tp74
a(I89
I1
F-0.625
S'free'
p75
tp76
a(I95
I4
F-0.25
S'triple'
p77
tp78
a(I133
I4
F-0.25
S'triple'
p79
tp80
a(I133
I4
I0
S'great'
p81
tp82
a(I133
I5
F0.375
S'extra'
p83
tp84
a(I133
I5
F-0.625
S'free'
p85
tp86
a(I133
I36
F-0.625
S'average'
p87
tp88
a(I149
I0
I0
S'few'
p89
tp90
as(S'keyboard'
p91
tp92
(lp93
(I5
I10
F-0.375
S'small'
p94
tp95
a(I5
I10
F1.0
S'good'
p96
tp97
a(I12
I8
F1.0
S'good'
p98
tp99
a(I16
I3
F-0.5
S'complaint'
p100
tp101
a(I20
I2
I0
S'full'
p102
tp103
a(I27
I0
F-0.375
S'small'
p104
tp105
a(I29
I1
F1.0
S'good'
p106
tp107
a(I29
I2
I0
S'physical'
p108
tp109
a(I33
I0
F0.875
S'nice'
p110
tp111
a(I34
I3
I0
S'great'
p112
tp113
a(I34
I3
F0.125
S'able'
p114
tp115
a(I35
I1
I0
S'full'
p116
tp117
a(I45
I1
I0
S'real'
p118
tp119
a(I45
I1
F0.625
S'easy'
p120
tp121
a(I60
I0
I0
S'old'
p122
tp123
a(I65
I0
I0
S'real'
p124
tp125
a(I65
I0
F-0.375
S'small'
p126
tp127
a(I73
I1
F0.625
S'easy'
p128
tp129
a(I74
I6
F0.5
S'accurate'
p130
tp131
a(I76
I1
F-0.375
S'small'
p132
tp133
a(I95
I2
F-0.375
S'small'
p134
tp135
a(I98
I5
I0
S'full'
p136
tp137
a(I113
I0
F0.625
S'easier'
p138
tp139
a(I118
I1
I0
S'real'
p140
tp141
a(I123
I2
F0.625
S'easy'
p142
tp143
a(I133
I19
I0
S'useful'
p144
tp145
a(I133
I21
I0
S'normal'
p146
tp147
a(I133
I21
F0.875
S'nice'
p148
tp149
a(I133
I24
F-0.375
S'small'
p150
tp151
a(I133
I28
F0.875
S'nice'
p152
tp153
a(I140
I2
F1.0
S'good'
p154
tp155
a(I150
I2
F0.625
S'easier'
p156
tp157
as(S'little'
p158
tp159
(lp160
(I118
I0
F-0.125
S'overall'
p161
tp162
a(I118
I0
F1.0
S'good'
p163
tp164
as(S'keys'
p165
tp166
(lp167
(I58
I1
F-0.375
S'small'
p168
tp169
a(I66
I3
F-0.375
S'small'
p170
tp171
a(I66
I4
F-0.375
S'small'
p172
tp173
a(I69
I2
F0.625
S'easier'
p174
tp175
a(I75
I1
F-0.375
S'small'
p176
tp177
a(I108
I0
I0
S'great'
p178
tp179
a(I113
I0
F-0.75
S'little'
p180
tp181
a(I118
I2
F-0.75
S'wrong'
p182
tp183
a(I133
I55
F-0.5
S'certain'
p184
tp185
as(S'talk'
p186
tp187
(lp188
(I62
I8
F-0.75
S'ill'
p189
tp190
a(I62
I8
I0
S'later'
p191
tp192
as(S'money'
p193
tp194
(lp195
(I2
I2
F-0.625
S'other'
p196
tp197
a(I34
I2
F0.375
S'much'
p198
tp199
a(I150
I1
F-0.375
S'crazy'
p200
tp201
as(S'micro'
p202
S'sd'
p203
tp204
(lp205
(I83
I2
I0
S'same'
p206
tp207
as(S'nice'
p208
tp209
(lp210
(I70
I0
F-0.625
S'other'
p211
tp212
as(S'price'
p213
tp214
(lp215
(I4
I0
F0.5
S'reasonable'
p216
tp217
a(I29
I6
I0
S'same'
p218
tp219
a(I40
I11
F1.0
S'good'
p220
tp221
a(I69
I1
F-0.375
S'unexpected'
p222
tp223
a(I69
I1
F-0.25
S'low'
p224
tp225
a(I91
I5
F1.0
S'good'
p226
tp227
a(I96
I0
F0.5
S'greater'
p228
tp229
a(I97
I6
F1.0
S'best'
p230
tp231
a(I122
I11
I0
S'great'
p232
tp233
a(I127
I2
F1.0
S'good'
p234
tp235
a(I131
I5
I0
S'great'
p236
tp237
as(S'service'
p238
tp239
(lp240
(I8
I0
F1.0
S'good'
p241
tp242
a(I8
I0
F0.625
S'easy'
p243
tp244
a(I12
I8
I0
S'old'
p245
tp246
a(I17
I2
F0.125
S'able'
p247
tp248
a(I18
I2
F1.0
S'good'
p249
tp250
a(I42
I1
F-0.5
S'sure'
p251
tp252
a(I42
I1
F1.0
S'good'
p253
tp254
a(I50
I1
I0
S'local'
p255
tp256
a(I52
I2
F1.0
S'good'
p257
tp258
a(I81
I1
F0.125
S'popular'
p259
tp260
a(I96
I3
F0.375
S'dependable'
p261
tp262
a(I98
I6
F1.0
S'better'
p263
tp264
a(I114
I1
F0.125
S'enough'
p265
tp266
a(I114
I1
I0
S'monthly'
p267
tp268
a(I121
I8
I0
S'great'
p269
tp270
a(I123
I3
F0.375
S'available'
p271
tp272
a(I146
I43
I0
S'different'
p273
tp274
as(S'ten'
p275
S'days'
p276
tp277
(lp278
(I133
I12
F0.125
S'last'
p279
tp280
a(I133
I13
F0.25
S'used'
p281
tp282
as(S'car'
p283
S'charger'
p284
tp285
(lp286
(I137
I2
I0
S'such'
p287
tp288
as(S'triple'
p289
S'minutes'
p290
tp291
(lp292
(I5
I5
I0
g43
tp293
a(I5
I5
F-0.625
g45
tp294
a(I40
I11
F-0.25
g53
tp295
a(I53
I2
F0.875
g57
tp296
a(I62
I13
I0
g61
tp297
a(I81
I5
F-0.25
g71
tp298
a(I94
I2
I0
S'great'
p299
tp300
a(I95
I4
F-0.25
g77
tp301
a(I133
I4
F-0.25
g79
tp302
a(I133
I4
I0
g81
tp303
a(I133
I5
F0.375
g83
tp304
a(I133
I5
F-0.625
g85
tp305
as(S'number'
p306
tp307
(lp308
(I51
I0
I0
S'more'
p309
tp310
a(I56
I0
F0.625
S'easy'
p311
tp312
a(I66
I4
F0.125
S'able'
p313
tp314
a(I66
I4
I0
S'dial'
p315
tp316
a(I89
I4
F0.125
S'able'
p317
tp318
a(I89
I4
I0
S'old'
p319
tp320
a(I113
I2
F0.625
S'easier'
p321
tp322
a(I120
I3
F0.5
S'second'
p323
tp324
a(I120
I3
F0.375
S'new'
p325
tp326
a(I120
I5
I0
S'old'
p327
tp328
a(I130
I1
F0.625
S'easy'
p329
tp330
as(S'camera'
p331
tp332
(lp333
(I3
I2
F-0.625
S'bad'
p334
tp335
a(I77
I4
F0.625
S'easy'
p336
tp337
a(I133
I33
F0.625
S'decent'
p338
tp339
as(S'back'
p340
tp341
(lp342
(I77
I2
F-0.25
S'dropped'
p343
tp344
a(I86
I2
F0.625
S'removable'
p345
tp346
as(S'better'
p347
tp348
(lp349
(I54
I6
F0.375
S'much'
p350
tp351
as(S'month'
p352
tp353
(lp354
(I2
I2
F-0.375
S'returnable'
p355
tp356
a(I12
I2
I0
S'more'
p357
tp358
a(I98
I12
I0
S'least'
p359
tp360
as(S'quality'
p361
tp362
(lp363
(I25
I4
F0.5
S'clear'
p364
tp365
a(I54
I5
F1.0
S'good'
p366
tp367
a(I60
I1
F1.0
S'good'
p368
tp369
a(I66
I6
F1.0
S'good'
p370
tp371
a(I66
I10
F1.0
S'good'
p372
tp373
a(I69
I1
I0
S'sturdy'
p374
tp375
a(I69
I1
F0.625
S'kind'
p376
tp377
a(I116
I2
F1.0
S'good'
p378
tp379
a(I133
I19
I0
S'signal'
p380
tp381
a(I133
I34
F0.625
S'decent'
p382
tp383
a(I148
I2
F1.0
S'good'
p384
tp385
a(I150
I3
I0
S'high'
p386
tp387
as(S'online'
p388
tp389
(lp390
(I23
I4
F0.5
S'live'
p391
tp392
a(I86
I1
F-0.375
S'manual'
p393
tp394
as(S'works'
p395
S'fine'
p396
tp397
(lp398
(I102
I10
F0.625
S'easy'
p399
tp400
as(S'do'
p401
S"n't"
p402
S'use'
p403
tp404
(lp405
(I127
I5
F1.0
S'good'
p406
tp407
as(S'voice'
p408
S'mail'
p409
tp410
(lp411
(I95
I6
F-0.5
S'sure'
p412
tp413
as(S'right'
p414
tp415
(lp416
(I16
I6
F0.375
S'available'
p417
tp418
a(I133
I53
F-0.375
S'top'
p419
tp420
a(I133
I55
F-0.875
S'hard'
p421
tp422
as(S'alarm'
p423
S'clock'
p424
tp425
(lp426
(I133
I45
F0.375
S'loud'
p427
tp428
as(S'pictures'
p429
tp430
(lp431
(I48
I4
F1.0
S'good'
p432
tp433
a(I48
I4
I0
S'such'
p434
tp435
a(I66
I12
F1.0
S'good'
p436
tp437
a(I66
I12
F0.625
S'easy'
p438
tp439
a(I66
I13
I0
S'big'
p440
tp441
a(I133
I34
F1.0
S'good'
p442
tp443
a(I133
I35
I0
S'quick'
p444
tp445
as(S'tracfone'
p446
tp447
(lp448
(I5
I6
F-0.25
S'google'
p449
tp450
a(I17
I0
I0
S'general'
p451
tp452
a(I25
I0
I0
S'older'
p453
tp454
a(I30
I9
F0.625
S'easy'
p455
tp456
a(I42
I1
F0.375
S'new'
p457
tp458
a(I45
I0
F1.0
S'good'
p459
tp460
a(I50
I0
F0.125
S'last'
p461
tp462
a(I66
I25
F0.125
S'able'
p463
tp464
a(I69
I4
I0
S'interactive'
p465
tp466
a(I69
I4
I0
S'tutorial'
p467
tp468
a(I79
I4
F0.625
S'easy'
p469
tp470
a(I84
I0
F0.625
S'eager'
p471
tp472
a(I84
I0
F0.375
S'new'
p473
tp474
a(I89
I1
F-0.5
S'sure'
p475
tp476
a(I93
I1
F0.125
S'first'
p477
tp478
a(I102
I4
I0
S'website'
p479
tp480
a(I122
I2
F0.375
S'available'
p481
tp482
a(I124
I4
F0.125
S'able'
p483
tp484
a(I134
I1
I0
S'old'
p485
tp486
a(I137
I5
I0
S'old'
p487
tp488
a(I137
I5
I0
S'basic'
p489
tp490
a(I143
I0
F1.0
S'best'
p491
tp492
as(S'year'
p493
tp494
(lp495
(I27
I1
I0
S'old'
p496
tp497
a(I52
I0
I0
S'old'
p498
tp499
a(I69
I13
I0
S'next'
p500
tp501
a(I73
I2
I0
S'old'
p502
tp503
a(I98
I12
F-0.5
S'less'
p504
tp505
a(I146
I19
F-0.25
S'past'
p506
tp507
as(S'features'
p508
tp509
(lp510
(I38
I3
F1.0
S'good'
p511
tp512
a(I66
I0
I0
S'few'
p513
tp514
a(I66
I0
F-0.625
S'other'
p515
tp516
a(I102
I14
F0.625
S'interested'
p517
tp518
a(I102
I14
F-0.625
S'other'
p519
tp520
a(I117
I0
F-0.5
S'less'
p521
tp522
as(S't'
p523
S'works'
p524
S'fine'
p525
tp526
(lp527
(I102
I10
F0.625
g399
tp528
as(S'people'
p529
tp530
(lp531
(I30
I0
F0.5
S'careful'
p532
tp533
a(I30
I0
F-0.625
S'other'
p534
tp535
a(I76
I4
I0
S'different'
p536
tp537
a(I133
I10
I0
S'text'
p538
tp539
a(I133
I10
I0
S'different'
p540
tp541
as(S'qwerty'
p542
tp543
(lp544
(I58
I0
F-0.25
S'inexpensive'
p545
tp546
a(I91
I3
I0
S'full'
p547
tp548
a(I100
I2
I0
S'few'
p549
tp550
a(I100
I3
F-0.625
S'other'
p551
tp552
a(I133
I19
F0.375
S'complete'
p553
tp554
a(I133
I25
F-0.625
S'bad'
p555
tp556
a(I133
I28
F-0.125
S'overall'
p557
tp558
as(S'feature'
p559
tp560
(lp561
(I13
I1
F0.5
S'crucial'
p562
tp563
a(I13
I8
I0
S'such'
p564
tp565
a(I13
I8
I0
S'basic'
p566
tp567
a(I95
I3
I0
S'same'
p568
tp569
as(S'contract'
p570
tp571
(lp572
(I17
I1
I0
S'monthly'
p573
tp574
a(I78
I1
F-0.625
S'free'
p575
tp576
a(I78
I1
I0
S'monthly'
p577
tp578
a(I81
I12
F-0.5
S'complaint'
p579
tp580
as(S'a'
p581
S'long'
p582
S'time'
p583
tp584
(lp585
(I12
I9
F-0.5
S'long'
p586
tp587
a(I25
I3
F-0.5
S'long'
p588
tp589
a(I52
I2
I0
S'more'
p590
tp591
a(I52
I2
I0
S'total'
p592
tp593
a(I58
I0
F-0.5
S'long'
p594
tp595
a(I135
I3
F-0.5
S'long'
p596
tp597
a(I146
I25
F-0.5
S'long'
p598
tp599
as(S'qwerty'
p600
S'keyboard'
p601
tp602
(lp603
(I33
I0
F0.875
g110
tp604
a(I58
I0
F-0.25
g545
tp605
a(I60
I0
I0
g122
tp606
a(I91
I3
I0
g547
tp607
a(I123
I2
F0.625
g142
tp608
a(I133
I19
F0.375
g553
tp609
a(I133
I19
I0
g144
tp610
a(I133
I21
I0
g146
tp611
a(I133
I21
F0.875
g148
tp612
a(I133
I24
F-0.375
g150
tp613
a(I133
I25
F-0.625
g555
tp614
a(I133
I28
F-0.125
g557
tp615
a(I133
I28
F0.875
g152
tp616
as(S'case'
p617
tp618
(lp619
(I4
I1
F0.125
S'protective'
p620
tp621
a(I11
I2
F-0.875
S'hard'
p622
tp623
a(I18
I7
F-0.875
S'hard'
p624
tp625
a(I18
I9
F-0.875
S'hard'
p626
tp627
a(I18
I9
F0.75
S'consider'
p628
tp629
a(I39
I0
I0
S'weird'
p630
tp631
a(I66
I23
F-0.5
S'sure'
p632
tp633
a(I91
I4
I0
S'slippery'
p634
tp635
a(I91
I4
F0.875
S'nice'
p636
tp637
a(I102
I7
F0.125
S'able'
p638
tp639
a(I108
I0
F0.125
S'protective'
p640
tp641
a(I131
I0
I0
S'pouch'
p642
tp643
as(S'works'
p644
tp645
(lp646
(I4
I3
I0
S'great'
p647
tp648
a(I65
I0
F1.0
S'good'
p649
tp650
a(I96
I3
I0
S'great'
p651
tp652
a(I133
I39
F0.625
S'easy'
p653
tp654
a(I133
I45
F1.0
S'best'
p655
tp656
as(S'triple'
p657
tp658
(lp659
(I93
I2
F0.875
S'happy'
p660
tp661
a(I94
I2
I0
g299
tp662
as(S'memory'
p663
S'card'
p664
tp665
(lp666
(I97
I7
F0.375
S'extra'
p667
tp668
as(S'type'
p669
tp670
(lp671
(I16
I5
I0
S'only'
p672
tp673
a(I16
I5
F0.375
S'available'
p674
tp675
a(I16
I5
I0
S'pouch'
p676
tp677
a(I23
I2
I0
S'website'
p678
tp679
a(I123
I0
I0
S'only'
p680
tp681
as(S'signal'
p682
tp683
(lp684
(I133
I19
F1.0
S'good'
p685
tp686
a(I133
I19
F1.0
S'good'
p687
tp688
as(S'battery'
p689
tp690
(lp691
(I98
I7
I0
S'few'
p692
tp693
a(I100
I1
F-0.5
g26
tp694
a(I114
I4
F0.375
S'new'
p695
tp696
a(I133
I5
F-0.5
g30
tp697
a(I133
I5
F-0.5
g32
tp698
a(I133
I9
F0.125
S'last'
p699
tp700
a(I133
I16
I0
g38
tp701
a(I133
I46
F0.875
S'nice'
p702
tp703
as(S'codes'
p704
tp705
(lp706
(I40
I7
F-0.5
S'long'
p707
tp708
a(I52
I2
I0
S'more'
p709
tp710
a(I69
I15
I0
S'different'
p711
tp712
as(S'smart'
p713
tp714
(lp715
(I15
I2
I0
S'more'
p716
tp717
a(I82
I8
I0
S'android'
p718
tp719
a(I98
I9
F0.375
S'newest'
p720
tp721
a(I125
I0
I0
S'more'
p722
tp723
as(S'browser'
p724
tp725
(lp726
(I57
I4
F0.5
S'expensive'
p727
tp728
a(I74
I1
F-0.5
S'open'
p729
tp730
as(S'cell'
p731
tp732
(lp733
(I13
I0
F0.125
S'first'
p734
tp735
a(I32
I1
F-0.625
S'other'
p736
tp737
a(I69
I0
I0
S'normal'
p738
tp739
a(I81
I8
F-0.5
S'heavy'
p740
tp741
a(I81
I12
I0
S'big'
p742
tp743
a(I133
I5
I0
S'great'
p744
tp745
a(I133
I61
I0
S'great'
p746
tp747
as(S'calls'
p748
tp749
(lp750
(I9
I1
F0.125
S'able'
p751
tp752
a(I33
I5
I0
S'great'
p753
tp754
a(I66
I6
F0.625
S'easier'
p755
tp756
a(I81
I10
I0
S'more'
p757
tp758
a(I98
I7
I0
S'few'
p759
tp760
a(I127
I12
F-0.25
S'dropped'
p761
tp762
as(S'thing'
p763
tp764
(lp765
(I0
I2
I0
S'only'
p766
tp767
a(I12
I11
F1.0
S'good'
p768
tp769
a(I40
I5
F1.0
S'good'
p770
tp771
a(I42
I1
I0
S'particular'
p772
tp773
a(I57
I2
I0
S'only'
p774
tp775
a(I57
I2
F-0.75
S'wrong'
p776
tp777
a(I91
I3
F1.0
S'good'
p778
tp779
a(I118
I3
F1.0
S'good'
p780
tp781
a(I133
I27
F1.0
S'good'
p782
tp783
a(I142
I3
F1.0
S'good'
p784
tp785
as(S'contacts'
p786
tp787
(lp788
(I66
I24
I0
S'different'
p789
tp790
a(I122
I9
F0.125
S'able'
p791
tp792
as(S'press'
p793
tp794
(lp795
(I74
I5
F-0.75
S'difficult'
p796
tp797
a(I97
I9
F0.625
S'easy'
p798
tp799
as(S'days'
p800
tp801
(lp802
(I29
I4
I0
S'few'
p803
tp804
a(I115
I2
F-0.625
S'other'
p805
tp806
a(I115
I2
I0
S'great'
p807
tp808
a(I133
I9
F1.0
S'good'
p809
tp810
a(I133
I10
I0
S'few'
p811
tp812
a(I133
I12
F0.125
g279
tp813
a(I133
I13
F0.25
g281
tp814
a(I146
I37
I0
S'more'
p815
tp816
a(I146
I40
F1.0
S'good'
p817
tp818
as(S'music'
p819
tp820
(lp821
(I133
I42
F0.625
S'decent'
p822
tp823
as(S'top'
p824
S'row'
p825
tp826
(lp827
(I133
I52
F-0.375
S'top'
p828
tp829
a(I133
I53
F-0.375
S'top'
p830
tp831
a(I133
I53
F-0.375
S'top'
p832
tp833
as(S'has'
p834
S'triple'
p835
S'minutes'
p836
tp837
(lp838
(I81
I5
F-0.25
g71
tp839
a(I133
I4
F-0.25
g79
tp840
a(I133
I4
I0
g81
tp841
as(S'do'
p842
S"n't"
p843
S'use'
p844
g523
tp845
(lp846
(I127
I5
F1.0
g406
tp847
as(g581
S'qwerty'
p848
S'keyboard'
p849
tp850
(lp851
(I33
I0
F0.875
g110
tp852
a(I58
I0
F-0.25
g545
tp853
a(I60
I0
I0
g122
tp854
a(I91
I3
I0
g547
tp855
a(I123
I2
F0.625
g142
tp856
a(I133
I19
F0.375
g553
tp857
a(I133
I19
I0
g144
tp858
a(I133
I21
I0
g146
tp859
a(I133
I21
F0.875
g148
tp860
a(I133
I24
F-0.375
g150
tp861
a(I133
I25
F-0.625
g555
tp862
a(I133
I28
F-0.125
g557
tp863
a(I133
I28
F0.875
g152
tp864
as(S'with'
p865
S'triple'
p866
S'minutes'
p867
tp868
(lp869
(I40
I11
F-0.25
g53
tp870
a(I62
I13
I0
g61
tp871
a(I81
I5
F-0.25
g71
tp872
a(I95
I4
F-0.25
g77
tp873
a(I133
I4
F-0.25
g79
tp874
a(I133
I4
I0
g81
tp875
as(S'screen'
p876
tp877
(lp878
(I23
I3
F-0.75
S'impossible'
p879
tp880
a(I30
I3
F-0.5
S'sure'
p881
tp882
a(I30
I3
F-0.375
S'black'
p883
tp884
a(I31
I1
F0.5
S'touch'
p885
tp886
a(I31
I1
I0
S'least'
p887
tp888
a(I31
I2
F-0.5
S'afraid'
p889
tp890
a(I31
I2
F0.5
S'touch'
p891
tp892
a(I39
I1
F0.5
S'touch'
p893
tp894
a(I50
I0
F0.5
S'touch'
p895
tp896
a(I54
I3
I0
S'great'
p897
tp898
a(I66
I4
I0
S'different'
p899
tp900
a(I85
I2
I0
S'standard'
p901
tp902
a(I85
I2
F-0.375
S'small'
p903
tp904
a(I85
I2
I0
S'full'
p905
tp906
a(I85
I2
I0
S'jerky'
p907
tp908
a(I89
I2
F-0.375
S'small'
p909
tp910
a(I100
I6
F0.25
S'larger'
p911
tp912
a(I127
I12
F-0.5
S'sure'
p913
tp914
as(S'time'
p915
tp916
(lp917
(I5
I6
F-0.625
S'free'
p918
tp919
a(I12
I9
F-0.5
g586
tp920
a(I23
I6
F-0.875
S'hard'
p921
tp922
a(I25
I3
F-0.5
g588
tp923
a(I27
I1
F-0.875
S'hard'
p924
tp925
a(I33
I11
F-0.375
S'kid'
p926
tp927
a(I52
I2
I0
g590
tp928
a(I52
I2
I0
g592
tp929
a(I58
I0
F-0.5
g594
tp930
a(I64
I3
F0.375
S'available'
p931
tp932
a(I91
I4
F-0.5
S'vibrate'
p933
tp934
a(I113
I0
F-0.875
S'hard'
p935
tp936
a(I133
I1
F0.125
S'first'
p937
tp938
a(I133
I9
I0
S'same'
p939
tp940
a(I135
I3
F-0.5
g596
tp941
a(I146
I25
F-0.5
g598
tp942
a(I149
I0
F0.5
S'second'
p943
tp944
as(S'fine'
p945
tp946
(lp947
(I102
I10
F0.625
g399
tp948
as(S'micro'
p949
S'sd'
p950
S'card'
p951
tp952
(lp953
(I83
I2
I0
g206
tp954
as(S'large'
p955
S'hands'
p956
tp957
(lp958
(I33
I1
I0
S'large'
p959
tp960
a(I54
I4
I0
S'large'
p961
tp962
a(I141
I0
I0
S'large'
p963
tp964
as(S'customer'
p965
S'service'
p966
tp967
(lp968
(I18
I2
F1.0
g249
tp969
a(I23
I4
F0.5
S'live'
p970
tp971
as(S'hours'
p972
tp973
(lp974
(I30
I4
I0
S'later'
p975
tp976
a(I52
I2
I0
S'more'
p977
tp978
a(I133
I8
F0.625
S'decent'
p979
tp980
a(I133
I12
F1.0
S'good'
p981
tp982
a(I146
I16
I0
S'few'
p983
tp984
a(I149
I0
I0
S'more'
p985
tp986
as(S'work'
p987
tp988
(lp989
(I133
I19
I0
S'signal'
p990
tp991
as(S'deal'
p992
tp993
(lp994
(I7
I3
I0
S'great'
p995
tp996
a(I12
I1
F1.0
S'good'
p997
tp998
a(I60
I3
I0
S'big'
p999
tp1000
a(I66
I3
I0
S'big'
p1001
tp1002
a(I75
I0
I0
S'great'
p1003
tp1004
a(I97
I4
F1.0
S'good'
p1005
tp1006
a(I102
I5
F1.0
S'good'
p1007
tp1008
a(I133
I28
I0
S'big'
p1009
tp1010
a(I137
I8
F1.0
S'good'
p1011
tp1012
as(S'texts'
p1013
tp1014
(lp1015
(I33
I10
I0
S'great'
p1016
tp1017
a(I98
I10
F0.875
S'music'
p1018
tp1019
a(I108
I0
I0
S'many'
p1020
tp1021
a(I110
I13
I0
S'individual'
p1022
tp1023
a(I146
I13
F-0.5
S'sure'
p1024
tp1025
a(I146
I13
F0.125
S'able'
p1026
tp1027
as(S'texting'
p1028
tp1029
(lp1030
(I62
I10
F0.625
S'easy'
p1031
tp1032
a(I69
I2
F1.0
S'better'
p1033
tp1034
a(I79
I0
F0.625
S'easy'
p1035
tp1036
a(I94
I1
F0.625
S'easy'
p1037
tp1038
a(I94
I1
F0.625
S'easy'
p1039
tp1040
a(I94
I1
F-0.25
S'inexpensive'
p1041
tp1042
a(I103
I0
I0
S'android'
p1043
tp1044
a(I103
I0
I0
S'great'
p1045
tp1046
a(I113
I0
F-0.5
S'regular'
p1047
tp1048
a(I127
I2
F1.0
S'good'
p1049
tp1050
a(I127
I14
I0
S'basic'
p1051
tp1052
a(I127
I14
F0.375
S'reliable'
p1053
tp1054
as(S'mp3'
p1055
S'player'
p1056
tp1057
(lp1058
(I133
I36
F-0.625
S'bad'
p1059
tp1060
as(S'flip'
p1061
tp1062
(lp1063
(I5
I1
F-0.75
S'fumble'
p1064
tp1065
a(I5
I1
F-0.75
S'impossible'
p1066
tp1067
a(I5
I1
I0
S'old'
p1068
tp1069
a(I62
I16
I0
S'old'
p1070
tp1071
a(I85
I0
I0
S'faster'
p1072
tp1073
a(I100
I6
I0
S'old'
p1074
tp1075
a(I100
I7
F0.625
S'easier'
p1076
tp1077
as(S'good'
p1078
S'thing'
p1079
tp1080
(lp1081
(I12
I11
F1.0
g768
tp1082
a(I40
I5
F1.0
g770
tp1083
a(I42
I1
I0
g772
tp1084
a(I91
I3
F1.0
g778
tp1085
a(I118
I3
F1.0
g780
tp1086
a(I133
I27
F1.0
g782
tp1087
a(I142
I3
F1.0
g784
tp1088
as(S'computer'
p1089
tp1090
(lp1091
(I46
I2
F0.875
S'music'
p1092
tp1093
a(I133
I39
F0.875
S'music'
p1094
tp1095
as(S'touch'
p1096
S'screen'
p1097
tp1098
(lp1099
(I31
I1
F0.5
g885
tp1100
a(I31
I1
I0
g887
tp1101
a(I31
I2
F-0.5
g889
tp1102
a(I31
I2
F0.5
g891
tp1103
a(I39
I1
F0.5
g893
tp1104
a(I50
I0
F0.5
g895
tp1105
a(I110
I2
F1.0
S'good'
p1106
tp1107
as(S'text'
p1108
tp1109
(lp1110
(I4
I0
F-0.5
S'heavy'
p1111
tp1112
a(I12
I5
F0.25
S'sent'
p1113
tp1114
a(I116
I1
F0.625
S'easier'
p1115
tp1116
a(I127
I13
F-0.75
S'unable'
p1117
tp1118
a(I127
I13
F1.0
S'good'
p1119
tp1120
a(I127
I13
I0
S'text'
p1121
tp1122
a(I130
I3
F0.75
S'receive'
p1123
tp1124
a(I133
I16
F0.875
S'nice'
p1125
tp1126
as.