(dp0
(S'screen'
p1
S'size'
p2
tp3
(lp4
(I1
I160
F0.25
S'biggest'
p5
I3
tp6
a(I6
I60
I0
S'great'
p7
I3
tp8
a(I13
I129
F-0.25
S'giant'
p9
I3
tp10
a(I28
I7
F0.625
S'perfect'
p11
I3
tp12
a(I36
I29
I0
S'big'
p13
I3
tp14
a(I37
I45
I0
S'website'
p15
I3
tp16
a(I37
I45
I0
S'big'
p17
I3
tp18
a(I38
I27
F0.5
S'comparable'
p19
I3
tp20
a(I42
I19
F0.625
S'perfect'
p21
I3
tp22
a(I48
I32
F1.0
S'good'
p23
I3
tp24
a(I74
I13
F0.75
S'beautiful'
p25
I3
tp26
a(I78
I115
I0
S'more'
p27
I3
tp28
a(I78
I115
F0.625
S'easier'
p29
I3
tp30
a(I87
I133
F1.0
S'good'
p31
I3
tp32
a(I87
I145
F0.625
S'perfect'
p33
I3
tp34
a(I96
I24
F0.625
S'perfect'
p35
I3
tp36
a(I96
I100
I0
S'big'
p37
I3
tp38
a(I98
I8
I0
S'full'
p39
I3
tp40
a(I103
I61
F-0.375
S'small'
p41
I3
tp42
as(S'samsung'
p43
S'galaxy'
p44
S'note'
p45
tp46
(lp47
(I1
I197
F-0.75
S'worse'
p48
I0
tp49
a(I53
I69
I0
S'many'
p50
I0
tp51
a(I59
I8
F-0.625
S'other'
p52
I0
tp53
a(I59
I43
F0.375
S'new'
p54
I0
tp55
a(I63
I1
F1.0
S'best'
p56
I0
tp57
a(I68
I3
F0.25
S'original'
p58
I0
tp59
a(I91
I12
F0.375
S'new'
p60
I0
tp61
a(I1
I197
F-0.75
g48
I0
tp62
a(I53
I69
I0
g50
I0
tp63
a(I59
I43
F0.375
g54
I0
tp64
a(I63
I1
F1.0
g56
I0
tp65
a(I68
I3
F0.25
g58
I0
tp66
a(I91
I12
F0.375
g60
I0
tp67
a(I2
I62
F0.25
S'unlocked'
p68
I0
tp69
a(I2
I62
I0
S'european'
p70
I0
tp71
a(I5
I1
F0.875
S'happy'
p72
I0
tp73
a(I13
I31
I0
S'narrower'
p74
I0
tp75
a(I13
I51
F0.375
S'new'
p76
I0
tp77
a(I13
I73
F0.375
S'new'
p78
I0
tp79
a(I13
I79
F0.25
S'original'
p80
I0
tp81
a(I13
I92
F0.25
S'original'
p82
I0
tp83
a(I13
I92
F0.5
S'possible'
p84
I0
tp85
a(I22
I12
F0.25
S'original'
p86
I0
tp87
a(I22
I27
F0.25
S'original'
p88
I0
tp89
a(I22
I51
F-0.25
S'thin'
p90
I0
tp91
a(I22
I51
F-0.625
S'light'
p92
I0
tp93
a(I22
I51
F0.625
S'easy'
p94
I0
tp95
a(I22
I100
F0.25
S'original'
p96
I0
tp97
a(I22
I118
I0
S'old'
p98
I0
tp99
a(I25
I0
F0.375
S'new'
p100
I0
tp101
a(I33
I17
F0.375
S'new'
p102
I0
tp103
a(I38
I17
F0.25
S'original'
p104
I0
tp105
a(I51
I21
F0.375
S'new'
p106
I0
tp107
a(I58
I32
F0.375
S'meant'
p108
I0
tp109
a(I58
I49
F0.375
S'new'
p110
I0
tp111
a(I59
I8
F-0.625
g52
I0
tp112
a(I66
I42
I0
S'more'
p113
I0
tp114
a(I69
I1
F0.375
S'new'
p115
I0
tp116
a(I70
I38
F0.375
S'new'
p117
I0
tp118
a(I74
I53
F0.375
S'much'
p119
I0
tp120
a(I89
I11
I0
S'old'
p121
I0
tp122
a(I93
I7
F-0.25
S'white'
p123
I0
tp124
a(I105
I0
F0.125
S'first'
p125
I0
tp126
a(I1
I46
I0
S'local'
p127
I7
tp128
a(I1
I197
F-0.75
g48
I7
tp129
a(I2
I91
I0
S'big'
p130
I7
tp131
a(I13
I71
F-0.375
S'smaller'
p132
I7
tp133
a(I13
I72
F-0.375
S'modified'
p134
I7
tp135
a(I13
I159
F-0.375
S'unacceptable'
p136
I7
tp137
a(I24
I5
I0
S'most'
p138
I7
tp139
a(I26
I42
F-0.75
S'unable'
p140
I7
tp141
a(I26
I49
F-0.125
S'overall'
p142
I7
tp143
a(I30
I13
F-0.625
S'bad'
p144
I7
tp145
a(I48
I71
F0.625
S'magnetic'
p146
I7
tp147
a(I53
I69
I0
g50
I7
tp148
a(I54
I2
F-0.5
S'sure'
p149
I7
tp150
a(I58
I38
F0.625
S'straight'
p151
I7
tp152
a(I59
I43
F0.375
g54
I7
tp153
a(I63
I1
F1.0
g56
I7
tp154
a(I65
I6
F0.25
S'larger'
p155
I7
tp156
a(I66
I20
F0.375
S'new'
p157
I7
tp158
a(I68
I3
F0.25
g58
I7
tp159
a(I74
I69
F-0.625
S'glad'
p160
I7
tp161
a(I78
I3
I0
S'corporate'
p162
I7
tp163
a(I78
I19
F-0.625
S'other'
p164
I7
tp165
a(I84
I6
F0.125
S'last'
p166
I7
tp167
a(I85
I12
I0
S'faith'
p168
I7
tp169
a(I87
I36
F0.25
S'consistent'
p170
I7
tp171
a(I87
I98
I0
S'next'
p172
I7
tp173
a(I87
I110
F1.0
S'best'
p174
I7
tp175
a(I89
I20
I0
S'proprietary'
p176
I7
tp177
a(I91
I12
F0.375
g60
I7
tp178
a(I95
I34
F0.5
S'buy'
p179
I7
tp180
a(I96
I69
F0.5
S'controlled'
p181
I7
tp182
a(I103
I52
F0.125
S'first'
p183
I7
tp184
a(I108
I15
I0
S'such'
p185
I7
tp186
a(I108
I19
I0
S'website'
p187
I7
tp188
a(I2
I100
I0
S'only'
p189
I0
tp190
a(I9
I27
F1.0
S'better'
p191
I0
tp192
a(I13
I47
F-0.625
S'other'
p193
I0
tp194
a(I13
I47
F0.25
S'recent'
p195
I0
tp196
a(I13
I51
F0.375
g76
I0
tp197
a(I13
I60
I0
S'latest'
p198
I0
tp199
a(I13
I73
F0.375
g78
I0
tp200
a(I13
I79
F0.25
g80
I0
tp201
a(I13
I92
F0.25
g82
I0
tp202
a(I22
I12
F0.25
g86
I0
tp203
a(I22
I27
F0.25
g88
I0
tp204
a(I22
I100
F0.25
g96
I0
tp205
a(I22
I118
I0
g98
I0
tp206
a(I25
I0
F0.375
g100
I0
tp207
a(I33
I17
F0.375
g102
I0
tp208
a(I38
I17
F0.25
g104
I0
tp209
a(I51
I21
F0.375
g106
I0
tp210
a(I57
I6
F1.0
S'good'
p211
I0
tp212
a(I58
I49
F0.375
g110
I0
tp213
a(I69
I1
F0.375
g115
I0
tp214
a(I70
I38
F0.375
g117
I0
tp215
a(I74
I53
F0.375
g119
I0
tp216
a(I81
I8
F1.0
S'better'
p217
I0
tp218
a(I89
I11
I0
g121
I0
tp219
a(I93
I7
F-0.25
g123
I0
tp220
a(I95
I23
F0.5
S'upgraded'
p221
I0
tp222
a(I96
I71
F-0.5
S'international'
p223
I0
tp224
a(I105
I0
F0.125
g125
I0
tp225
as(S'battery'
p226
S'life'
p227
tp228
(lp229
(I0
I18
F0.625
S'superior'
p230
I1
tp231
a(I1
I29
I0
S'great'
p232
I1
tp233
a(I6
I64
F1.0
S'best'
p234
I1
tp235
a(I11
I30
F-0.375
S'top'
p236
I1
tp237
a(I11
I30
F0.125
S'last'
p238
I1
tp239
a(I13
I85
F1.0
S'good'
p240
I1
tp241
a(I13
I109
F1.0
S'good'
p242
I1
tp243
a(I52
I1
I0
S'great'
p244
I1
tp245
a(I60
I12
I0
S'great'
p246
I1
tp247
a(I63
I130
I0
S'great'
p248
I1
tp249
a(I70
I46
F-0.5
S'long'
p250
I1
tp251
a(I87
I114
F1.0
S'best'
p252
I1
tp253
a(I96
I46
F1.0
S'good'
p254
I1
tp255
a(I96
I47
F0.25
S'stellar'
p256
I1
tp257
a(I103
I45
I0
S'phenomenal'
p258
I1
tp259
a(I103
I76
F1.0
S'good'
p260
I1
tp261
a(I0
I18
F0.625
g230
I19
tp262
a(I11
I5
I0
S'full'
p263
I19
tp264
a(I13
I85
F1.0
g240
I19
tp265
a(I17
I8
F0.625
S'easier'
p266
I19
tp267
a(I52
I1
I0
g244
I19
tp268
a(I58
I42
F0.375
S'much'
p269
I19
tp270
a(I58
I42
F0.625
S'easier'
p271
I19
tp272
a(I60
I12
I0
g246
I19
tp273
a(I63
I52
F0.625
S'easier'
p274
I19
tp275
a(I87
I114
F1.0
g252
I19
tp276
a(I96
I47
F0.25
g256
I19
tp277
a(I96
I114
F0.625
S'easy'
p278
I19
tp279
a(I103
I45
I0
g258
I19
tp280
a(I103
I76
F1.0
g260
I19
tp281
a(I1
I14
F0.75
S'due'
p282
I15
tp283
a(I1
I29
I0
g232
I15
tp284
a(I2
I18
F0.375
S'new'
p285
I15
tp286
a(I6
I64
F1.0
g234
I15
tp287
a(I6
I70
F0.125
S'last'
p288
I15
tp289
a(I11
I30
F-0.375
g236
I15
tp290
a(I11
I30
F0.125
g238
I15
tp291
a(I13
I109
F1.0
g242
I15
tp292
a(I22
I68
F0.125
S'last'
p293
I15
tp294
a(I28
I11
I0
S'most'
p295
I15
tp296
a(I37
I39
I0
S'great'
p297
I15
tp298
a(I42
I2
F0.25
S'effective'
p299
I15
tp300
a(I42
I6
F-0.75
S'short'
p301
I15
tp302
a(I48
I51
F0.25
S'bigger'
p303
I15
tp304
a(I48
I55
I0
S'big'
p305
I15
tp306
a(I48
I56
F0.25
S'bigger'
p307
I15
tp308
a(I48
I66
F-0.5
S'separate'
p309
I15
tp310
a(I55
I0
I0
S'generic'
p311
I15
tp312
a(I61
I25
I0
S'same'
p313
I15
tp314
a(I63
I130
I0
g248
I15
tp315
a(I67
I24
F0.625
S'removable'
p316
I15
tp317
a(I67
I29
F0.625
S'removable'
p318
I15
tp319
a(I70
I46
F-0.5
g250
I15
tp320
a(I85
I17
I0
S'normal'
p321
I15
tp322
a(I96
I46
F1.0
g254
I15
tp323
a(I96
I55
F0.25
S'larger'
p324
I15
tp325
a(I96
I105
F0.5
S'added'
p326
I15
tp327
a(I96
I105
I0
S'big'
p328
I15
tp329
a(I97
I13
F0.625
S'replaceable'
p330
I15
tp331
a(I100
I2
F1.0
S'best'
p332
I15
tp333
a(I108
I27
F0.125
S'last'
p334
I15
tp335
as(S'quad'
p336
S'core'
p337
S'processor'
p338
tp339
(lp340
(I8
I32
F0.125
S'first'
p341
I0
tp342
a(I66
I6
I0
S'great'
p343
I0
tp344
a(I6
I65
I0
S'quad'
p345
I0
tp346
a(I8
I32
F0.125
g341
I0
tp347
as(S'happy'
p348
S'with'
p349
S'purchase'
p350
tp351
(lp352
(I6
I0
F0.875
S'happy'
p353
I0
tp354
a(I13
I13
F0.875
S'happy'
p355
I0
tp356
a(I13
I126
F0.875
S'happy'
p357
I0
tp358
a(I13
I141
F0.875
S'happy'
p359
I0
tp360
a(I34
I19
F-0.125
S'overall'
p361
I0
tp362
a(I34
I19
F0.875
S'happy'
p363
I0
tp364
as(S'a'
p365
S'micro'
p366
S'sim'
p367
tp368
(lp369
(I76
I3
F-0.5
S'regular'
p370
I0
tp371
a(I84
I54
F-0.375
S'smaller'
p372
I0
tp373
a(I89
I2
F0.625
S'easy'
p374
I0
tp375
a(I89
I3
F-0.5
S'regular'
p376
I0
tp377
as(S'home'
p378
S'button'
p379
tp380
(lp381
(I13
I45
I0
S'physical'
p382
I0
tp383
a(I96
I55
I0
S'physical'
p384
I0
tp385
a(I96
I55
F0.125
S'key'
p386
I0
tp387
a(I96
I56
F0.625
S'easier'
p388
I0
tp389
a(I104
I6
F0.125
S'key'
p390
I0
tp391
a(I104
I21
F-0.5
S'open'
p392
I0
tp393
a(I32
I4
F0.375
S'new'
p394
I19
tp395
a(I78
I155
F0.25
S'main'
p396
I19
tp397
a(I78
I156
F0.25
S'main'
p398
I19
tp399
a(I104
I23
I0
S'capacitive'
p400
I19
tp401
as(S'original'
p402
S'note'
p403
tp404
(lp405
(I13
I57
F0.25
S'original'
p406
I0
tp407
a(I13
I92
F0.5
g84
I0
tp408
a(I22
I109
F0.25
S'original'
p409
I0
tp410
a(I22
I123
F-0.375
S'smaller'
p411
I0
tp412
a(I22
I123
F0.625
S'easy'
p413
I0
tp414
a(I59
I20
F0.25
S'original'
p415
I0
tp416
a(I59
I38
F0.25
S'original'
p417
I0
tp418
a(I68
I4
F0.25
S'original'
p419
I0
tp420
a(I68
I5
F0.25
S'original'
p421
I0
tp422
a(I70
I0
F0.25
S'original'
p423
I0
tp424
a(I70
I0
F0.625
S'perfect'
p425
I0
tp426
a(I70
I21
I0
S'wide'
p427
I0
tp428
a(I70
I21
F0.25
S'original'
p429
I0
tp430
a(I76
I2
F0.25
S'bigger'
p431
I0
tp432
a(I76
I2
F0.25
S'original'
p433
I0
tp434
a(I76
I2
F-0.125
S'mine'
p435
I0
tp436
a(I87
I11
F0.25
S'original'
p437
I0
tp438
a(I87
I14
F0.25
S'original'
p439
I0
tp440
a(I87
I39
F0.25
S'original'
p441
I0
tp442
a(I96
I69
F0.875
S'important'
p443
I0
tp444
a(I96
I69
F-0.5
S'international'
p445
I0
tp446
a(I108
I32
F0.5
S'second'
p447
I0
tp448
a(I108
I32
F0.25
S'original'
p449
I0
tp450
as(S'let'
p451
S'me'
p452
S'tell'
p453
tp454
(lp455
(I89
I34
F-0.25
S'let'
p456
I0
tp457
as(S'tablet'
p458
tp459
(lp460
(I1
I248
I0
S'cellular'
p461
I14
tp462
a(I13
I146
I0
S'large'
p463
I14
tp464
a(I48
I54
F-0.375
S'smaller'
p465
I14
tp466
a(I67
I22
F-0.375
S'small'
p467
I14
tp468
a(I74
I12
F0.625
S'kind'
p469
I14
tp470
a(I89
I15
F0.25
S'larger'
p471
I14
tp472
a(I95
I36
I0
S'more'
p473
I14
tp474
a(I96
I91
I0
S'big'
p475
I14
tp476
a(I97
I21
I0
S'very'
p477
I14
tp478
a(I97
I21
F0.125
S'popular'
p479
I14
tp480
as(S'worth'
p481
S'every'
p482
S'penny'
p483
tp484
(lp485
(I1
I188
I0
S'hot'
p486
I2
tp487
a(I8
I57
F0.75
S'worth'
p488
I2
tp489
a(I22
I128
F0.75
S'worth'
p490
I2
tp491
a(I22
I128
F-0.75
S'single'
p492
I2
tp493
a(I30
I32
F0.75
S'worth'
p494
I2
tp495
a(I59
I41
F-0.75
S'single'
p496
I2
tp497
a(I74
I29
F0.75
S'worth'
p498
I2
tp499
as(S'camera'
p500
tp501
(lp502
(I1
I29
I0
S'great'
p503
I1
tp504
a(I2
I32
F0.125
S'solid'
p505
I1
tp506
a(I6
I6
F-0.5
S'regular'
p507
I1
tp508
a(I31
I4
I0
S'different'
p509
I1
tp510
a(I36
I1
F0.125
S'usual'
p511
I1
tp512
a(I45
I2
I0
S'big'
p513
I1
tp514
a(I52
I1
F1.0
S'good'
p515
I1
tp516
a(I53
I17
I0
S'wish'
p517
I1
tp518
a(I53
I29
F-0.125
S'persistent'
p519
I1
tp520
a(I63
I104
F0.125
S'digital'
p521
I1
tp522
a(I67
I12
F0.125
S'digital'
p523
I1
tp524
a(I84
I6
F0.375
S'similar'
p525
I1
tp526
a(I88
I0
F0.25
S'sharp'
p527
I1
tp528
a(I91
I18
I0
S'great'
p529
I1
tp530
a(I96
I61
F-0.5
S'sure'
p531
I1
tp532
a(I97
I15
I0
S'real'
p533
I1
tp534
as(S'skinny'
p535
S'jeans'
p536
tp537
(lp538
(I66
I28
I0
S'skinny'
p539
I0
tp540
as(S'seller'
p541
tp542
(lp543
(I2
I85
F0.5
S'attentive'
p544
I19
tp545
a(I13
I114
I0
S'same'
p546
I19
tp547
a(I13
I114
F0.5
S'second'
p548
I19
tp549
a(I13
I119
F-0.75
S'unreliable'
p550
I19
tp551
a(I32
I8
F-0.75
S'difficult'
p552
I19
tp553
a(I32
I12
I0
S'different'
p554
I19
tp555
a(I38
I49
I0
S'individual'
p556
I19
tp557
a(I38
I58
F-0.5
S'sure'
p558
I19
tp559
a(I38
I69
F-0.5
S'international'
p560
I19
tp561
a(I75
I10
I0
S'great'
p562
I19
tp563
a(I93
I20
F1.0
S'good'
p564
I19
tp565
as(g365
S'long'
p566
S'time'
p567
tp568
(lp569
(I8
I20
F-0.5
S'long'
p570
I12
tp571
a(I19
I14
F-0.5
S'long'
p572
I12
tp573
a(I22
I85
F-0.5
S'long'
p574
I12
tp575
a(I22
I111
F-0.5
S'long'
p576
I12
tp577
a(I38
I27
F-0.5
S'longest'
p578
I12
tp579
a(I38
I65
F-0.5
S'long'
p580
I12
tp581
a(I38
I92
F-0.5
S'long'
p582
I12
tp583
a(I38
I92
F0.125
S'enough'
p584
I12
tp585
a(I44
I6
F-0.5
S'long'
p586
I12
tp587
a(I66
I38
F-0.5
S'long'
p588
I12
tp589
a(I87
I128
F-0.5
S'long'
p590
I12
tp591
a(I89
I0
F-0.5
S'long'
p592
I12
tp593
a(I107
I18
F-0.5
S'long'
p594
I12
tp595
as(S'iphone'
p596
tp597
(lp598
(I1
I174
F0.25
S'responsive'
p599
I1
tp600
a(I2
I93
I0
S'assistant'
p601
I1
tp602
a(I2
I139
F-0.875
S'hard'
p603
I1
tp604
a(I13
I133
I0
S'old'
p605
I1
tp606
a(I13
I133
F0.375
S'new'
p607
I1
tp608
a(I26
I7
F0.25
S'used'
p609
I1
tp610
a(I36
I31
I0
S'more'
p611
I1
tp612
a(I37
I16
I0
S'old'
p613
I1
tp614
a(I37
I19
F-0.375
S'small'
p615
I1
tp616
a(I38
I27
F-0.5
S'miss'
p617
I1
tp618
a(I58
I3
I0
S'monumental'
p619
I1
tp620
a(I59
I69
F-0.375
S'small'
p621
I1
tp622
a(I59
I77
F0.75
S'worth'
p623
I1
tp624
a(I63
I99
F-0.75
S'impossible'
p625
I1
tp626
a(I70
I13
F0.375
S'new'
p627
I1
tp628
a(I78
I110
F-0.625
S'lighter'
p629
I1
tp630
a(I78
I110
F0.25
S'bigger'
p631
I1
tp632
a(I78
I110
I0
S'narrow'
p633
I1
tp634
a(I78
I122
F-0.375
S'small'
p635
I1
tp636
a(I78
I132
F-0.375
S'smoother'
p637
I1
tp638
a(I96
I89
I0
S'impress'
p639
I1
tp640
a(I97
I0
I0
S'many'
p641
I1
tp642
a(I97
I35
F0.75
S'fortunate'
p643
I1
tp644
as(S'worldwide'
p645
S'distributors'
p646
tp647
(lp648
(I32
I10
F0.5
S'possible'
p649
I0
tp650
as(g365
S'big'
p651
S'screen'
p652
tp653
(lp654
(I0
I3
F0.25
S'bigger'
p655
I0
tp656
a(I0
I6
I0
S'big'
p657
I0
tp658
a(I2
I136
I0
S'big'
p659
I0
tp660
a(I2
I137
I0
S'big'
p661
I0
tp662
a(I2
I137
F-0.75
S'little'
p663
I0
tp664
a(I2
I137
F0.125
S'first'
p665
I0
tp666
a(I6
I12
F0.25
S'bigger'
p667
I0
tp668
a(I8
I29
F-0.75
S'bright'
p669
I0
tp670
a(I8
I62
I0
S'big'
p671
I0
tp672
a(I8
I62
F-0.5
S'less'
p673
I0
tp674
a(I9
I3
I0
S'big'
p675
I0
tp676
a(I10
I3
F0.25
S'larger'
p677
I0
tp678
a(I23
I18
I0
S'big'
p679
I0
tp680
a(I30
I31
F0.25
S'bigger'
p681
I0
tp682
a(I31
I20
I0
S'big'
p683
I0
tp684
a(I36
I29
I0
g13
I0
tp685
a(I37
I11
F0.25
S'bigger'
p686
I0
tp687
a(I37
I45
I0
g15
I0
tp688
a(I37
I45
I0
g17
I0
tp689
a(I41
I1
F0.25
S'bigger'
p690
I0
tp691
a(I42
I2
I0
S'heaven'
p692
I0
tp693
a(I53
I59
I0
S'big'
p694
I0
tp695
a(I53
I59
F1.0
S'good'
p696
I0
tp697
a(I59
I16
I0
S'big'
p698
I0
tp699
a(I60
I4
F0.25
S'bigger'
p700
I0
tp701
a(I60
I22
I0
S'big'
p702
I0
tp703
a(I60
I22
I0
S'great'
p704
I0
tp705
a(I60
I32
I0
S'big'
p706
I0
tp707
a(I66
I53
I0
S'big'
p708
I0
tp709
a(I68
I14
I0
S'large'
p710
I0
tp711
a(I68
I14
F0.375
S'much'
p712
I0
tp713
a(I70
I3
I0
S'big'
p714
I0
tp715
a(I75
I4
I0
S'big'
p716
I0
tp717
a(I77
I6
I0
S'big'
p718
I0
tp719
a(I78
I168
I0
S'big'
p720
I0
tp721
a(I78
I168
F-0.75
S'comfortable'
p722
I0
tp723
a(I81
I8
F0.25
S'bigger'
p724
I0
tp725
a(I81
I8
F0.25
S'bigger'
p726
I0
tp727
a(I81
I26
I0
S'more'
p728
I0
tp729
a(I81
I26
F0.25
S'larger'
p730
I0
tp731
a(I87
I112
I0
S'big'
p732
I0
tp733
a(I88
I0
I0
S'big'
p734
I0
tp735
a(I90
I0
I0
S'big'
p736
I0
tp737
a(I90
I0
I0
S'great'
p738
I0
tp739
a(I96
I100
I0
g37
I0
tp740
a(I103
I5
I0
S'big'
p741
I0
tp742
a(I103
I5
I0
S'least'
p743
I0
tp744
a(I103
I29
F0.25
S'bigger'
p745
I0
tp746
a(I108
I13
F0.25
S'bigger'
p747
I0
tp748
a(I0
I3
F0.25
g655
I1
tp749
a(I0
I6
I0
g657
I1
tp750
a(I2
I136
I0
g659
I1
tp751
a(I2
I137
I0
g661
I1
tp752
a(I2
I137
F-0.75
g663
I1
tp753
a(I2
I137
F0.125
g665
I1
tp754
a(I6
I12
F0.25
g667
I1
tp755
a(I8
I29
F-0.75
g669
I1
tp756
a(I8
I62
I0
g671
I1
tp757
a(I8
I62
F-0.5
g673
I1
tp758
a(I9
I3
I0
g675
I1
tp759
a(I10
I3
F0.25
g677
I1
tp760
a(I23
I18
I0
g679
I1
tp761
a(I23
I19
I0
S'big'
p762
I1
tp763
a(I30
I31
F0.25
g681
I1
tp764
a(I31
I20
I0
g683
I1
tp765
a(I36
I29
I0
g13
I1
tp766
a(I37
I11
F0.25
g686
I1
tp767
a(I37
I45
I0
g15
I1
tp768
a(I37
I45
I0
g17
I1
tp769
a(I41
I1
F0.25
g690
I1
tp770
a(I42
I2
I0
g692
I1
tp771
a(I53
I59
I0
g694
I1
tp772
a(I53
I59
F1.0
g696
I1
tp773
a(I59
I16
I0
g698
I1
tp774
a(I60
I4
F0.25
g700
I1
tp775
a(I60
I22
I0
g702
I1
tp776
a(I60
I22
I0
g704
I1
tp777
a(I60
I32
I0
g706
I1
tp778
a(I60
I44
F0.25
S'bigest'
p779
I1
tp780
a(I66
I53
I0
g708
I1
tp781
a(I68
I14
I0
g710
I1
tp782
a(I68
I14
F0.375
g712
I1
tp783
a(I70
I3
I0
g714
I1
tp784
a(I75
I4
I0
g716
I1
tp785
a(I77
I6
I0
g718
I1
tp786
a(I78
I168
I0
g720
I1
tp787
a(I78
I168
F-0.75
g722
I1
tp788
a(I81
I8
F0.25
g724
I1
tp789
a(I81
I8
F0.25
g726
I1
tp790
a(I81
I26
I0
g728
I1
tp791
a(I81
I26
F0.25
g730
I1
tp792
a(I87
I112
I0
g732
I1
tp793
a(I88
I0
I0
g734
I1
tp794
a(I90
I0
I0
g736
I1
tp795
a(I90
I0
I0
g738
I1
tp796
a(I96
I100
I0
g37
I1
tp797
a(I103
I5
I0
g741
I1
tp798
a(I103
I5
I0
g743
I1
tp799
a(I103
I29
F0.25
g745
I1
tp800
a(I108
I13
F0.25
g747
I1
tp801
as(S'mobile'
p802
tp803
(lp804
(I27
I0
F0.75
S'worth'
p805
I0
tp806
a(I74
I51
F0.5
S'odd'
p807
I0
tp808
a(I74
I51
F0.125
S'first'
p809
I0
tp810
a(I74
I51
F0.375
S'remember'
p811
I0
tp812
a(I74
I51
I0
S'large'
p813
I0
tp814
a(I74
I51
F0.375
S'early'
p815
I0
tp816
a(I96
I18
F0.5
S'primary'
p817
I0
tp818
a(I96
I25
F-0.25
S'modern'
p819
I0
tp820
as(S'google'
p821
tp822
(lp823
(I1
I88
F0.875
S'music'
p824
I4
tp825
as(S'apple'
p826
tp827
(lp828
(I1
I172
F0.625
S'easy'
p829
I4
tp830
a(I36
I32
F-0.625
S'bad'
p831
I4
tp832
a(I66
I46
F-0.75
S'difficult'
p833
I4
tp834
a(I66
I54
I0
S'big'
p835
I4
tp836
a(I74
I70
F-0.625
S'other'
p837
I4
tp838
a(I78
I65
F0.125
S'able'
p839
I4
tp840
as(S'micro'
p841
S'sim'
p842
S'card'
p843
tp844
(lp845
(I22
I65
F1.0
S'good'
p846
I0
tp847
a(I84
I54
F-0.375
g372
I0
tp848
a(I15
I11
F0.5
S'second'
p849
I0
tp850
a(I15
I12
I0
S'same'
p851
I0
tp852
a(I22
I65
F1.0
g846
I0
tp853
a(I26
I19
F-0.75
S'impossible'
p854
I0
tp855
as(S'galaxy'
p856
S'note'
p857
S'ii'
p858
tp859
(lp860
(I2
I62
F0.25
g68
I0
tp861
a(I2
I62
I0
g70
I0
tp862
a(I25
I0
F0.375
g100
I0
tp863
a(I33
I17
F0.375
g102
I0
tp864
a(I49
I0
F0.125
S'last'
p865
I0
tp866
a(I59
I8
F-0.625
g52
I0
tp867
a(I63
I65
I0
S'more'
p868
I0
tp869
a(I69
I1
F0.375
g115
I0
tp870
a(I70
I38
F0.375
g117
I0
tp871
a(I74
I53
F0.375
g119
I0
tp872
a(I2
I62
F0.25
g68
I0
tp873
a(I2
I62
I0
g70
I0
tp874
a(I6
I14
I0
S'least'
p875
I0
tp876
a(I37
I11
F0.625
S'easier'
p877
I0
tp878
a(I38
I36
F-0.25
S'cheaper'
p879
I0
tp880
a(I49
I0
F0.125
g865
I0
tp881
a(I59
I8
F-0.625
g52
I0
tp882
a(I63
I65
I0
g868
I0
tp883
a(I63
I93
F0.125
S'magic'
p884
I0
tp885
a(I63
I95
F0.125
S'first'
p886
I0
tp887
a(I63
I137
F-0.625
S'light'
p888
I0
tp889
a(I63
I137
F-0.25
S'thin'
p890
I0
tp891
a(I74
I57
F0.75
S'worth'
p892
I0
tp893
a(I96
I36
I0
S'older'
p894
I0
tp895
a(I96
I36
I0
S'firmware'
p896
I0
tp897
a(I96
I69
F0.875
g443
I0
tp898
a(I96
I69
F-0.5
g445
I0
tp899
as(S'in'
p900
S'front'
p901
S'pocket'
p902
tp903
(lp904
(I31
I7
F0.375
S'tight'
p905
I0
tp906
a(I10
I3
F-0.375
S'small'
p907
I17
tp908
a(I10
I3
I0
S'big'
p909
I17
tp910
a(I28
I8
F0.625
S'right'
p911
I17
tp912
a(I31
I7
F0.375
g905
I17
tp913
a(I33
I37
F0.75
S'fit'
p914
I17
tp915
a(I60
I3
I0
S'more'
p916
I17
tp917
a(I73
I0
I0
S'big'
p918
I17
tp919
as(S'on'
p920
S'galaxy'
p921
S'note'
p922
tp923
(lp924
(I2
I62
F0.25
g68
I0
tp925
a(I2
I62
I0
g70
I0
tp926
a(I13
I92
F0.25
g82
I0
tp927
a(I13
I92
F0.5
g84
I0
tp928
a(I33
I17
F0.375
g102
I0
tp929
a(I51
I21
F0.375
g106
I0
tp930
a(I58
I32
F0.375
g108
I0
tp931
a(I58
I49
F0.375
g110
I0
tp932
a(I66
I42
I0
g113
I0
tp933
a(I69
I1
F0.375
g115
I0
tp934
a(I70
I38
F0.375
g117
I0
tp935
as(S'android'
p936
tp937
(lp938
(I13
I188
F0.375
S'new'
p939
I0
tp940
a(I17
I1
F0.25
S'mature'
p941
I0
tp942
a(I22
I81
F0.125
S'first'
p943
I0
tp944
a(I22
I118
F-0.125
S'future'
p945
I0
tp946
a(I27
I8
F0.125
S'first'
p947
I0
tp948
a(I36
I20
F0.375
S'new'
p949
I0
tp950
a(I49
I12
F1.0
S'best'
p951
I0
tp952
a(I51
I18
F1.0
S'best'
p953
I0
tp954
a(I67
I25
F-0.625
S'other'
p955
I0
tp956
a(I67
I26
F0.625
S'perfect'
p957
I0
tp958
a(I73
I0
I0
S'fast'
p959
I0
tp960
a(I93
I14
F0.375
S'friendly'
p961
I0
tp962
a(I104
I12
F-0.125
S'overall'
p963
I0
tp964
as(S'large'
p965
S'screen'
p966
tp967
(lp968
(I1
I149
I0
S'large'
p969
I3
tp970
a(I1
I149
F0.75
S'beautiful'
p971
I3
tp972
a(I1
I149
F0.625
S'easy'
p973
I3
tp974
a(I10
I3
F0.25
g677
I3
tp975
a(I13
I66
F0.5
S'clear'
p976
I3
tp977
a(I13
I66
I0
S'large'
p978
I3
tp979
a(I13
I66
F0.5
S'possible'
p980
I3
tp981
a(I13
I94
I0
S'large'
p982
I3
tp983
a(I33
I18
F1.0
S'best'
p984
I3
tp985
a(I33
I18
I0
S'large'
p986
I3
tp987
a(I33
I37
I0
S'large'
p988
I3
tp989
a(I34
I0
F0.25
S'larger'
p990
I3
tp991
a(I38
I41
I0
S'large'
p992
I3
tp993
a(I42
I2
I0
g692
I3
tp994
a(I42
I22
F-0.375
S'smaller'
p995
I3
tp996
a(I44
I16
I0
S'large'
p997
I3
tp998
a(I48
I54
F0.25
S'largest'
p999
I3
tp1000
a(I52
I2
I0
S'large'
p1001
I3
tp1002
a(I65
I6
I0
S'large'
p1003
I3
tp1004
a(I65
I19
F0.25
S'larger'
p1005
I3
tp1006
a(I66
I1
I0
S'large'
p1007
I3
tp1008
a(I67
I17
I0
S'large'
p1009
I3
tp1010
a(I67
I21
I0
S'large'
p1011
I3
tp1012
a(I68
I14
I0
g710
I3
tp1013
a(I68
I14
F0.375
g712
I3
tp1014
a(I70
I45
I0
S'large'
p1015
I3
tp1016
a(I70
I47
I0
S'large'
p1017
I3
tp1018
a(I74
I44
I0
S'large'
p1019
I3
tp1020
a(I74
I59
F0.25
S'larger'
p1021
I3
tp1022
a(I75
I19
I0
S'large'
p1023
I3
tp1024
a(I78
I86
F0.25
S'larger'
p1025
I3
tp1026
a(I81
I26
I0
g728
I3
tp1027
a(I81
I26
F0.25
g730
I3
tp1028
a(I87
I107
I0
S'large'
p1029
I3
tp1030
a(I89
I17
I0
S'large'
p1031
I3
tp1032
a(I91
I15
F0.25
S'largest'
p1033
I3
tp1034
a(I102
I8
I0
S'large'
p1035
I3
tp1036
a(I103
I12
I0
S'large'
p1037
I3
tp1038
a(I103
I12
I0
S'great'
p1039
I3
tp1040
a(I103
I27
I0
S'large'
p1041
I3
tp1042
a(I103
I64
I0
S'large'
p1043
I3
tp1044
a(I105
I36
I0
S'large'
p1045
I3
tp1046
as(S'ease'
p1047
S'of'
p1048
S'use'
p1049
tp1050
(lp1051
(I63
I41
F-0.125
S'super'
p1052
I1
tp1053
a(I74
I28
F-0.5
S'miss'
p1054
I1
tp1055
a(I97
I48
I0
S'total'
p1056
I1
tp1057
as(S'one'
p1058
S'handed'
p1059
S'operation'
p1060
tp1061
(lp1062
(I70
I11
I0
S'handed'
p1063
I0
tp1064
as(S'sudden'
p1065
S'death'
p1066
tp1067
(lp1068
(I2
I110
F0.5
S'told'
p1069
I0
tp1070
a(I2
I110
F-0.5
S'sudden'
p1071
I0
tp1072
a(I23
I57
I0
S'same'
p1073
I0
tp1074
a(I23
I57
F-0.5
S'sudden'
p1075
I0
tp1076
as(S'for'
p1077
S'6'
p1078
S'months'
p1079
tp1080
(lp1081
(I31
I2
F0.625
S'perfect'
p1082
I0
tp1083
a(I88
I2
F-0.875
S'trouble'
p1084
I0
tp1085
as(S'first'
p1086
S'time'
p1087
tp1088
(lp1089
(I1
I26
F0.125
S'first'
p1090
I10
tp1091
a(I1
I26
F-0.5
S'sure'
p1092
I10
tp1093
a(I8
I20
F-0.5
g570
I10
tp1094
a(I22
I56
F0.125
S'first'
p1095
I10
tp1096
a(I22
I84
F0.125
S'first'
p1097
I10
tp1098
a(I22
I86
I0
S'very'
p1099
I10
tp1100
a(I22
I86
F0.125
S'first'
p1101
I10
tp1102
a(I23
I18
F0.125
S'first'
p1103
I10
tp1104
a(I30
I20
F0.125
S'first'
p1105
I10
tp1106
a(I30
I20
F0.125
S'last'
p1107
I10
tp1108
a(I30
I33
F0.125
S'first'
p1109
I10
tp1110
a(I37
I25
F0.125
S'first'
p1111
I10
tp1112
a(I38
I12
F0.125
S'first'
p1113
I10
tp1114
a(I65
I5
F0.125
S'first'
p1115
I10
tp1116
a(I70
I6
F0.125
S'first'
p1117
I10
tp1118
a(I77
I19
F0.125
S'first'
p1119
I10
tp1120
a(I97
I42
F0.125
S'first'
p1121
I10
tp1122
a(I101
I0
F0.125
S'first'
p1123
I10
tp1124
as(g365
S'quad'
p1125
S'core'
p1126
tp1127
(lp1128
(I6
I65
I0
g345
I0
tp1129
a(I8
I32
F0.125
g341
I0
tp1130
as(S'of'
p1131
S'samsung'
p1132
S'galaxy'
p1133
tp1134
(lp1135
(I63
I1
F1.0
g56
I0
tp1136
a(I91
I12
F0.375
g60
I0
tp1137
as(S'saudi'
p1138
S'arabia'
p1139
tp1140
(lp1141
(I1
I24
F-0.625
S'bad'
p1142
I0
tp1143
as(S'on'
p1144
S'left'
p1145
S'side'
p1146
tp1147
(lp1148
(I13
I71
F-0.125
S'side'
p1149
I0
tp1150
as(S'international'
p1151
S'version'
p1152
tp1153
(lp1154
(I2
I101
F-0.5
S'international'
p1155
I0
tp1156
a(I11
I40
F-0.5
S'international'
p1157
I0
tp1158
a(I11
I41
F-0.5
S'international'
p1159
I0
tp1160
a(I23
I4
F-0.5
S'international'
p1161
I0
tp1162
a(I23
I7
F-0.5
S'international'
p1163
I0
tp1164
a(I27
I1
F-0.5
S'international'
p1165
I0
tp1166
a(I61
I19
F0.25
S'unlocked'
p1167
I0
tp1168
a(I61
I19
F-0.5
S'international'
p1169
I0
tp1170
a(I61
I20
F-0.5
S'international'
p1171
I0
tp1172
a(I61
I22
F-0.5
S'international'
p1173
I0
tp1174
a(I78
I14
F-0.5
S'international'
p1175
I0
tp1176
a(I78
I15
F-0.5
S'international'
p1177
I0
tp1178
a(I81
I32
F-0.5
S'international'
p1179
I0
tp1180
a(I89
I12
F-0.5
S'international'
p1181
I0
tp1182
a(I93
I15
F-0.5
S'international'
p1183
I0
tp1184
a(I104
I15
F-0.5
S'international'
p1185
I0
tp1186
as(S'smartphone'
p1187
tp1188
(lp1189
(I11
I25
F0.875
S'happier'
p1190
I0
tp1191
a(I13
I41
F0.5
S'characteristic'
p1192
I0
tp1193
a(I23
I12
F0.125
S'first'
p1194
I0
tp1195
a(I23
I63
F1.0
S'best'
p1196
I0
tp1197
a(I26
I14
F1.0
S'best'
p1198
I0
tp1199
a(I26
I14
F0.625
S'easy'
p1200
I0
tp1201
a(I28
I35
F1.0
S'best'
p1202
I0
tp1203
a(I30
I58
F0.375
S'new'
p1204
I0
tp1205
a(I40
I0
F0.125
S'last'
p1206
I0
tp1207
a(I63
I87
F0.125
S'first'
p1208
I0
tp1209
a(I63
I87
F1.0
S'best'
p1210
I0
tp1211
a(I63
I93
F-0.625
S'other'
p1212
I0
tp1213
a(I63
I93
F0.125
S'capable'
p1214
I0
tp1215
a(I63
I96
F0.125
S'first'
p1216
I0
tp1217
a(I63
I115
F1.0
S'best'
p1218
I0
tp1219
a(I63
I123
F0.125
S'first'
p1220
I0
tp1221
a(I66
I34
F0.25
S'bigger'
p1222
I0
tp1223
a(I71
I0
F1.0
S'best'
p1224
I0
tp1225
a(I75
I38
I0
S'great'
p1226
I0
tp1227
a(I87
I36
I0
S'more'
p1228
I0
tp1229
a(I91
I23
I0
S'only'
p1230
I0
tp1231
a(I95
I30
F0.375
S'new'
p1232
I0
tp1233
as(S'galaxy'
p1234
S's3'
p1235
tp1236
(lp1237
(I9
I27
F1.0
g191
I0
tp1238
a(I13
I60
I0
g198
I0
tp1239
a(I42
I30
I0
S'galaxy'
p1240
I0
tp1241
a(I54
I4
F0.25
S'bigger'
p1242
I0
tp1243
a(I81
I8
F1.0
g217
I0
tp1244
a(I96
I71
F-0.5
g223
I0
tp1245
as(S'customer'
p1246
S'service'
p1247
tp1248
(lp1249
(I8
I10
F1.0
S'best'
p1250
I3
tp1251
a(I26
I28
F0.5
S'polite'
p1252
I3
tp1253
a(I26
I36
F0.375
S'new'
p1254
I3
tp1255
a(I26
I46
I0
S'later'
p1256
I3
tp1257
a(I26
I46
I0
S'different'
p1258
I3
tp1259
a(I30
I12
I0
S'great'
p1260
I3
tp1261
a(I38
I37
F-0.625
S'bad'
p1262
I3
tp1263
a(I38
I54
F0.75
S'fit'
p1264
I3
tp1265
a(I38
I56
F0.75
S'competent'
p1266
I3
tp1267
a(I1
I45
F-0.375
S'story'
p1268
I16
tp1269
a(I1
I45
F-0.75
S'short'
p1270
I16
tp1271
a(I1
I166
I0
S'sympathetic'
p1272
I16
tp1273
a(I2
I18
F1.0
S'good'
p1274
I16
tp1275
a(I26
I28
F0.5
g1252
I16
tp1276
a(I30
I13
I0
S'only'
p1277
I16
tp1278
a(I38
I56
F0.75
g1266
I16
tp1279
a(I39
I0
F1.0
S'good'
p1280
I16
tp1281
a(I39
I0
I0
S'fast'
p1282
I16
tp1283
a(I44
I17
I0
S'great'
p1284
I16
tp1285
a(I48
I4
I0
S'net'
p1286
I16
tp1287
a(I59
I81
I0
S'cellular'
p1288
I16
tp1289
a(I84
I15
F0.875
S'happy'
p1290
I16
tp1291
a(I87
I38
F1.0
S'best'
p1292
I16
tp1293
a(I87
I128
F-0.75
S'stupid'
p1294
I16
tp1295
a(I87
I128
I0
S'old'
p1296
I16
tp1297
a(I1
I0
I0
S'real'
p1298
I11
tp1299
a(I8
I10
F1.0
g1250
I11
tp1300
a(I26
I36
F0.375
g1254
I11
tp1301
a(I26
I46
I0
g1256
I11
tp1302
a(I26
I46
I0
g1258
I11
tp1303
a(I30
I12
I0
g1260
I11
tp1304
a(I38
I37
F-0.625
g1262
I11
tp1305
a(I38
I54
F0.75
g1264
I11
tp1306
a(I74
I47
I0
S'prospective'
p1307
I11
tp1308
a(I78
I162
F-0.875
S'negative'
p1309
I11
tp1310
as(S'form'
p1311
S'factor'
p1312
tp1313
(lp1314
(I96
I19
F-0.375
S'smaller'
p1315
I1
tp1316
as(S'apps'
p1317
tp1318
(lp1319
(I1
I124
F-0.625
S'free'
p1320
I0
tp1321
a(I2
I27
I0
S'useful'
p1322
I0
tp1323
a(I2
I40
I0
S'own'
p1324
I0
tp1325
a(I2
I71
I0
S'few'
p1326
I0
tp1327
a(I6
I58
F0.75
S'due'
p1328
I0
tp1329
a(I9
I23
I0
S'cool'
p1330
I0
tp1331
a(I22
I91
F-0.5
S'open'
p1332
I0
tp1333
a(I22
I98
F1.0
S'good'
p1334
I0
tp1335
a(I22
I130
I0
S'few'
p1336
I0
tp1337
a(I42
I18
I0
S'different'
p1338
I0
tp1339
a(I48
I65
I0
S'few'
p1340
I0
tp1341
a(I58
I54
F0.5
S'careful'
p1342
I0
tp1343
a(I63
I108
I0
S'interactive'
p1344
I0
tp1345
a(I66
I13
F0.25
S'favorite'
p1346
I0
tp1347
a(I70
I3
I0
S'great'
p1348
I0
tp1349
a(I70
I43
F-0.625
S'bad'
p1350
I0
tp1351
a(I70
I43
I0
S'full'
p1352
I0
tp1353
a(I78
I25
F-0.625
S'free'
p1354
I0
tp1355
a(I78
I84
I0
S'same'
p1356
I0
tp1357
a(I78
I84
F-0.625
S'other'
p1358
I0
tp1359
a(I78
I107
F-0.625
S'free'
p1360
I0
tp1361
a(I87
I105
I0
S'many'
p1362
I0
tp1363
a(I96
I35
F-0.625
S'other'
p1364
I0
tp1365
a(I105
I40
I0
S'many'
p1366
I0
tp1367
a(I107
I8
I0
S'fast'
p1368
I0
tp1369
a(I108
I32
I0
S'more'
p1370
I0
tp1371
as(S'amazon'
p1372
tp1373
(lp1374
(I2
I80
F-0.75
S'impossible'
p1375
I13
tp1376
a(I2
I125
F0.5
S'polite'
p1377
I13
tp1378
a(I23
I47
F-0.5
S'less'
p1379
I13
tp1380
a(I38
I16
F0.125
S'usual'
p1381
I13
tp1382
a(I38
I83
I0
S'website'
p1383
I13
tp1384
a(I38
I83
I-100
S'pre-approved'
p1385
I13
tp1386
a(I38
I86
F0.875
S'happy'
p1387
I13
tp1388
a(I59
I54
F0.375
S'similar'
p1389
I13
tp1390
a(I59
I56
F0.5
S'possible'
p1391
I13
tp1392
a(I81
I36
F0.125
S'last'
p1393
I13
tp1394
a(I88
I13
F-0.625
S'bad'
p1395
I13
tp1396
as.