(dp0
(S'screen'
p1
S'size'
p2
tp3
(lp4
(I3
I0
I0
S'big'
p5
I3
tp6
a(I3
I0
I0
S'more'
p7
I3
tp8
a(I7
I1
F0.625
S'easy'
p9
I3
tp10
a(I11
I16
I0
S'more'
p11
I3
tp12
a(I15
I28
F1.0
S'good'
p13
I3
tp14
a(I18
I18
I0
S'great'
p15
I3
tp16
a(I22
I31
F-0.625
S'other'
p17
I3
tp18
a(I22
I31
I0
S'great'
p19
I3
tp20
a(I22
I31
I0
S'great'
p21
I3
tp22
a(I30
I27
F0.625
S'perfect'
p23
I3
tp24
a(I31
I14
F0.5
S'odd'
p25
I3
tp26
a(I31
I14
F-0.375
S'smaller'
p27
I3
tp28
a(I36
I11
F-0.375
S'small'
p29
I3
tp30
a(I38
I28
F0.625
S'perfect'
p31
I3
tp32
as(S'battery'
p33
S'life'
p34
tp35
(lp36
(I10
I35
I0
S'great'
p37
I1
tp38
a(I14
I9
I0
S'more'
p39
I1
tp40
a(I30
I26
I0
S'great'
p41
I1
tp42
a(I34
I23
F0.125
S'impressive'
p43
I1
tp44
a(I10
I35
I0
g37
I19
tp45
a(I14
I9
I0
g39
I19
tp46
a(I30
I26
I0
g41
I19
tp47
a(I6
I30
I0
S'own'
p48
I15
tp49
a(I20
I17
F1.0
S'good'
p50
I15
tp51
a(I34
I23
F0.125
g43
I15
tp52
a(I38
I9
F0.875
S'nice'
p53
I15
tp54
as(S'european'
p55
S'model'
p56
tp57
(lp58
(I28
I12
I0
S'european'
p59
I0
tp60
a(I30
I22
I0
S'european'
p61
I0
tp62
a(I30
I22
F-0.25
S'white'
p63
I0
tp64
a(I42
I4
I0
S'european'
p65
I0
tp66
as(S'tablet'
p67
tp68
(lp69
(I8
I66
I0
S'cellular'
p70
I14
tp71
a(I9
I26
F1.0
S'best'
p72
I14
tp73
a(I24
I27
I0
S'inch'
p74
I14
tp75
a(I24
I27
F0.875
S'happy'
p76
I14
tp77
a(I28
I34
I0
S'more'
p78
I14
tp79
as(S'camera'
p80
tp81
(lp82
(I11
I14
I0
S'great'
p83
I1
tp84
a(I15
I32
F-0.625
S'light'
p85
I1
tp86
a(I15
I32
F0.5
S'functional'
p87
I1
tp88
a(I15
I32
I0
S'fast'
p89
I1
tp90
a(I15
I32
I0
S'great'
p91
I1
tp92
a(I28
I31
I0
S'great'
p93
I1
tp94
a(I38
I41
F-0.375
S'small'
p95
I1
tp96
a(I38
I41
I0
S'real'
p97
I1
tp98
a(I42
I49
F-0.75
S'bright'
p99
I1
tp100
a(I42
I80
F-0.75
S'secondary'
p101
I1
tp102
a(I46
I28
I0
S'great'
p103
I1
tp104
as(S'iphone'
p105
tp106
(lp107
(I8
I86
I0
S'great'
p108
I1
tp109
a(I31
I8
F0.375
S'new'
p110
I1
tp111
a(I31
I11
I0
S'great'
p112
I1
tp113
a(I38
I25
F-0.375
S'small'
p114
I1
tp115
as(S'repair'
p116
tp117
(lp118
(I9
I43
F0.75
S'due'
p119
I4
tp120
a(I20
I3
I0
S'local'
p121
I4
tp122
as(S'speed'
p123
tp124
(lp125
(I10
I41
F-0.5
S'actual'
p126
I9
tp127
a(I10
I41
I0
S'dial'
p128
I9
tp129
a(I14
I48
I0
S'full'
p130
I9
tp131
a(I14
I49
I0
S'great'
p132
I9
tp133
a(I21
I6
I0
S'slower'
p134
I9
tp135
a(I22
I13
I0
S'high'
p136
I9
tp137
a(I22
I90
F-0.75
S'unable'
p138
I9
tp139
a(I22
I90
I0
S'high'
p140
I9
tp141
a(I42
I74
I0
S'high'
p142
I9
tp143
a(I46
I70
F-0.375
S'top'
p144
I9
tp145
as(S'mobile'
p146
tp147
(lp148
(I42
I87
F1.0
S'best'
p149
I0
tp150
as(S'google'
p151
tp152
(lp153
(I9
I34
F0.625
S'interested'
p154
I4
tp155
a(I26
I36
F0.875
S'music'
p156
I4
tp157
a(I36
I8
I0
S'great'
p158
I4
tp159
as(S'apple'
p160
tp161
(lp162
(I12
I20
F-0.625
S'bad'
p163
I4
tp164
a(I36
I5
I0
S'wish'
p165
I4
tp166
as(S'galaxy'
p167
S'note'
p168
tp169
(lp170
(I1
I6
F0.125
S'first'
p171
I0
tp172
a(I16
I7
F-0.125
S'mine'
p173
I0
tp174
a(I21
I7
F0.25
S'original'
p175
I0
tp176
a(I42
I81
I0
S'real'
p177
I0
tp178
as(S'seller'
p179
tp180
(lp181
(I9
I40
F-0.875
S'dishonest'
p182
I19
tp183
a(I26
I109
F-0.5
S'answer'
p184
I19
tp185
a(I32
I14
F0.25
S'helpful'
p186
I19
tp187
a(I34
I39
F-0.125
S'slow'
p188
I19
tp189
as(S'android'
p190
tp191
(lp192
(I8
I69
F-0.375
S'smaller'
p193
I0
tp194
a(I21
I17
F0.375
S'new'
p195
I0
tp196
a(I34
I25
F0.125
S'first'
p197
I0
tp198
a(I40
I2
I0
S'user'
p199
I0
tp200
as(S'hands'
p201
tp202
(lp203
(I9
I13
I0
S'big'
p204
I15
tp205
a(I9
I18
I0
S'big'
p206
I15
tp207
a(I9
I20
F-0.375
S'smaller'
p208
I15
tp209
a(I22
I33
I0
S'big'
p210
I15
tp211
a(I22
I33
I0
S'many'
p212
I15
tp213
a(I34
I32
I0
S'large'
p214
I15
tp215
a(I34
I32
F-0.375
S'smaller'
p216
I15
tp217
a(I42
I53
I0
S'large'
p218
I15
tp219
a(I42
I53
I0
S'big'
p220
I15
tp221
as(S'big'
p222
S'screen'
p223
tp224
(lp225
(I1
I10
I0
S'big'
p226
I1
tp227
a(I1
I10
F-0.375
S'smooth'
p228
I1
tp229
a(I1
I10
F0.25
S'helpful'
p230
I1
tp231
a(I3
I0
I0
g5
I1
tp232
a(I3
I0
I0
g7
I1
tp233
a(I5
I1
I0
S'big'
p234
I1
tp235
a(I8
I113
I0
S'big'
p236
I1
tp237
a(I20
I15
I0
S'big'
p238
I1
tp239
a(I22
I47
F-0.75
S'bright'
p240
I1
tp241
a(I22
I79
I0
S'big'
p242
I1
tp243
a(I22
I79
F-0.5
S'less'
p244
I1
tp245
a(I28
I18
I0
S'big'
p246
I1
tp247
a(I30
I33
I0
S'big'
p248
I1
tp249
a(I31
I10
F0.25
S'bigger'
p250
I1
tp251
as(S'samsung'
p252
S'galaxy'
p253
tp254
(lp255
(I18
I15
I0
S'old'
p256
I0
tp257
a(I9
I43
I-100
S'-response'
p258
I7
tp259
a(I18
I15
I0
g256
I7
tp260
a(I24
I22
F0.625
S'easy'
p261
I7
tp262
a(I28
I45
F-0.625
S'other'
p263
I7
tp264
a(I30
I14
F1.0
S'best'
p265
I7
tp266
a(I42
I7
F-0.75
S'worse'
p267
I7
tp268
a(I49
I10
F0.125
S'first'
p269
I7
tp270
a(I49
I14
I0
S'corporate'
p271
I7
tp272
a(I1
I6
F0.125
g171
I0
tp273
a(I16
I7
F-0.125
g173
I0
tp274
a(I21
I7
F0.25
g175
I0
tp275
as(S'sim'
p276
S'card'
p277
tp278
(lp279
(I8
I7
F-0.625
S'unclear'
p280
I0
tp281
a(I8
I71
F0.625
S'easy'
p282
I0
tp283
as(S'quad'
p284
S'core'
p285
tp286
(lp287
(I22
I50
F0.125
S'first'
p288
I0
tp289
as(S'warranty'
p290
tp291
(lp292
(I14
I20
F0.625
S'responsible'
p293
I2
tp294
a(I32
I21
I0
S'importer'
p295
I2
tp296
a(I34
I13
I0
S'manufacturer'
p297
I2
tp298
as(S'international'
p299
S'version'
p300
tp301
(lp302
(I8
I87
F-0.5
S'international'
p303
I0
tp304
a(I15
I6
F-0.5
S'international'
p305
I0
tp306
a(I20
I4
F-0.5
S'international'
p307
I0
tp308
a(I20
I4
I0
S'overseas'
p309
I0
tp310
a(I28
I56
F-0.5
S'international'
p311
I0
tp312
a(I29
I0
F-0.5
S'international'
p313
I0
tp314
a(I29
I0
I0
S'korean'
p315
I0
tp316
a(I31
I24
F-0.5
S'international'
p317
I0
tp318
a(I38
I11
F0.5
S'true'
p319
I0
tp320
a(I38
I11
F-0.5
S'international'
p321
I0
tp322
a(I42
I80
F-0.5
S'international'
p323
I0
tp324
a(I46
I2
F-0.5
S'international'
p325
I0
tp326
a(I46
I73
F-0.5
S'international'
p327
I0
tp328
as(S'customer'
p329
S'service'
p330
tp331
(lp332
(I9
I41
F-0.75
S'painful'
p333
I3
tp334
a(I11
I2
F0.125
S'able'
p335
I3
tp336
a(I14
I32
F-0.625
S'bad'
p337
I3
tp338
a(I14
I32
F-0.625
S'bad'
p339
I3
tp340
a(I8
I16
F0.5
S'willing'
p341
I16
tp342
a(I10
I63
F1.0
S'good'
p343
I16
tp344
a(I11
I2
F0.125
g335
I16
tp345
a(I14
I32
F-0.625
g339
I16
tp346
a(I8
I99
F0.875
S'happy'
p347
I11
tp348
a(I9
I41
F-0.75
g333
I11
tp349
a(I14
I32
F-0.625
g337
I11
tp350
as(S'apps'
p351
tp352
(lp353
(I1
I6
I0
S'old'
p354
I0
tp355
a(I8
I68
F0.375
S'available'
p356
I0
tp357
a(I8
I87
F-0.875
S'trouble'
p358
I0
tp359
a(I26
I72
F-0.625
S'free'
p360
I0
tp361
a(I31
I23
I0
S'great'
p362
I0
tp363
a(I36
I8
F-0.625
S'free'
p364
I0
tp365
as(S'amazon'
p366
tp367
(lp368
(I13
I0
F0.125
S'last'
p369
I13
tp370
a(I13
I15
F0.375
S'reliable'
p371
I13
tp372
a(I13
I17
F0.625
S'responsible'
p373
I13
tp374
as.