(dp0
(S'upper'
p1
S'right'
p2
tp3
(lp4
(I5
I64
F0.375
S'upper'
p5
I0
tp6
a(I21
I61
F0.375
S'upper'
p7
I0
tp8
a(I21
I61
F0.125
S'key'
p9
I0
tp10
a(I21
I80
F0.375
S'upper'
p11
I0
tp12
as(S'battery'
p13
S'life'
p14
tp15
(lp16
(I8
I20
F1.0
S'good'
p17
I1
tp18
a(I8
I34
I0
S'phenomenal'
p19
I1
tp20
a(I12
I20
F1.0
S'good'
p21
I1
tp22
a(I13
I51
F1.0
S'good'
p23
I1
tp24
a(I16
I0
I0
S'incredible'
p25
I1
tp26
a(I16
I0
F0.625
S'easy'
p27
I1
tp28
a(I21
I34
I0
S'great'
p29
I1
tp30
a(I22
I9
F1.0
S'good'
p31
I1
tp32
a(I31
I17
F-0.5
S'long'
p33
I1
tp34
a(I8
I20
F1.0
g17
I19
tp35
a(I8
I34
I0
g19
I19
tp36
a(I12
I20
F1.0
g21
I19
tp37
a(I16
I0
F0.625
g27
I19
tp38
a(I13
I51
F1.0
g23
I15
tp39
a(I16
I0
I0
g25
I15
tp40
a(I20
I26
F0.125
S'last'
p41
I15
tp42
a(I21
I34
I0
g29
I15
tp43
a(I21
I114
F-0.25
S'low'
p44
I15
tp45
a(I22
I9
F1.0
g31
I15
tp46
a(I23
I17
F0.125
S'last'
p47
I15
tp48
a(I31
I17
F-0.5
g33
I15
tp49
as(S'user'
p50
S'guide'
p51
tp52
(lp53
(I5
I37
I0
S'full'
p54
I0
tp55
a(I5
I37
I0
S'english'
p56
I0
tp57
a(I20
I1
I0
S'french'
p58
I0
tp59
as(S'flashlight'
p60
tp61
(lp62
(I13
I49
F0.625
S'decent'
p63
I0
tp64
a(I25
I50
F-0.375
S'top'
p65
I0
tp66
as(S'service'
p67
tp68
(lp69
(I8
I9
F0.375
S'available'
p70
I16
tp71
a(I21
I71
I0
S'different'
p72
I16
tp73
as(S'message'
p74
tp75
(lp76
(I12
I54
F-0.125
S'delete'
p77
I1
tp78
a(I12
I54
F0.125
S'first'
p79
I1
tp80
a(I12
I55
F-0.5
S'open'
p81
I1
tp82
a(I12
I55
I0
S'next'
p83
I1
tp84
a(I28
I16
F-0.75
S'short'
p85
I1
tp86
as(S'center'
p87
S'button'
p88
tp89
(lp90
(I21
I86
I0
S'large'
p91
I0
tp92
as(S'fm'
p93
S'radio'
p94
tp95
(lp96
(I12
I34
F-0.625
S'other'
p97
I0
tp98
a(I28
I7
F-0.75
S'bright'
p99
I0
tp100
a(I31
I38
F-0.625
S'bad'
p101
I0
tp102
a(I31
I38
I0
S'noisy'
p103
I0
tp104
a(I12
I34
F-0.625
g97
I0
tp105
a(I13
I46
I0
S'great'
p106
I0
tp107
a(I21
I84
I0
S'adequate'
p108
I0
tp109
a(I21
I85
F0.25
S'portable'
p110
I0
tp111
a(I23
I18
I0
S'useful'
p112
I0
tp113
a(I31
I38
F-0.625
g101
I0
tp114
a(I31
I38
I0
g103
I0
tp115
as(S'menu'
p116
tp117
(lp118
(I12
I58
F-0.75
S'short'
p119
I2
tp120
a(I31
I33
I0
S'activate'
p121
I2
tp122
as(S'alarm'
p123
tp124
(lp125
(I12
I74
F-0.375
S'weekly'
p126
I0
tp127
as(S'language'
p128
tp129
(lp130
(I23
I5
I0
S'english'
p131
I3
tp132
a(I27
I0
I0
S'french'
p133
I3
tp134
a(I32
I6
I0
S'english'
p135
I3
tp136
as(S'light'
p137
S'weight'
p138
tp139
(lp140
(I13
I53
F-0.625
S'light'
p141
I5
tp142
a(I21
I99
F-0.375
S'small'
p143
I5
tp144
a(I21
I99
F-0.625
S'light'
p145
I5
tp146
a(I22
I8
F-0.375
S'small'
p147
I5
tp148
as(S'dual'
p149
S'sim'
p150
S'card'
p151
tp152
(lp153
(I8
I49
F0.25
S'used'
p154
I0
tp155
a(I31
I13
I0
S'different'
p156
I0
tp157
a(I33
I2
I0
S'basic'
p158
I0
tp159
a(I8
I49
F0.25
g154
I0
tp160
a(I13
I36
F1.0
S'best'
p161
I0
tp162
a(I21
I20
F-0.25
S'cheapest'
p163
I0
tp164
a(I21
I95
I0
S'local'
p165
I0
tp166
a(I25
I59
I0
S'basic'
p167
I0
tp168
a(I31
I13
I0
g156
I0
tp169
a(I33
I2
I0
g158
I0
tp170
as(S'sound'
p171
tp172
(lp173
(I1
I0
F1.0
S'good'
p174
I7
tp175
a(I16
I0
F1.0
S'good'
p176
I7
tp177
a(I17
I12
F-0.625
S'other'
p178
I7
tp179
as(S'talk'
p180
tp181
(lp182
(I18
I9
I0
S'normal'
p183
I13
tp184
as(S'international'
p185
S'sim'
p186
S'card'
p187
tp188
(lp189
(I8
I14
F-0.5
S'international'
p190
I0
tp191
a(I8
I14
F-0.75
S'difficult'
p192
I0
tp193
a(I8
I15
F-0.5
S'international'
p194
I0
tp195
a(I28
I11
F-0.5
S'international'
p196
I0
tp197
a(I8
I10
F0.125
S'first'
p198
I0
tp199
a(I8
I10
F-0.75
S'wrong'
p200
I0
tp201
a(I8
I14
F-0.5
g190
I0
tp202
a(I8
I14
F-0.75
g192
I0
tp203
a(I8
I15
F-0.5
g194
I0
tp204
a(I8
I29
I0
S'local'
p205
I0
tp206
a(I8
I31
F0.625
S'easy'
p207
I0
tp208
a(I8
I49
F0.25
g154
I0
tp209
a(I12
I16
F-0.5
S'sure'
p210
I0
tp211
a(I12
I16
I0
S'local'
p212
I0
tp213
a(I13
I29
F0.125
S'first'
p214
I0
tp215
a(I20
I25
I0
S'old'
p216
I0
tp217
a(I21
I21
F0.5
S'second'
p218
I0
tp219
a(I25
I5
I0
S'great'
p220
I0
tp221
a(I25
I24
I0
S'great'
p222
I0
tp223
a(I25
I53
F-0.375
S'simple'
p224
I0
tp225
a(I25
I65
F-0.375
S'loaded'
p226
I0
tp227
a(I25
I66
F-0.125
S'foreign'
p228
I0
tp229
a(I28
I11
F-0.5
g196
I0
tp230
a(I28
I12
F0.875
S'nice'
p231
I0
tp232
a(I28
I12
F0.125
S'able'
p233
I0
tp234
a(I31
I1
I0
S'french'
p235
I0
tp236
a(I31
I13
I0
g156
I0
tp237
a(I32
I13
I0
S'indian'
p238
I0
tp239
a(I33
I2
I0
g158
I0
tp240
a(I5
I18
F-0.625
S'other'
p241
I0
tp242
a(I8
I14
F-0.5
g190
I0
tp243
a(I8
I15
F-0.5
g194
I0
tp244
a(I21
I20
F-0.25
g163
I0
tp245
a(I21
I95
I0
g165
I0
tp246
a(I28
I11
F-0.5
g196
I0
tp247
as(S'calls'
p248
tp249
(lp250
(I4
I2
F0.5
S'clear'
p251
I0
tp252
a(I7
I1
F0.125
S'able'
p253
I0
tp254
a(I7
I1
I0
S'brief'
p255
I0
tp256
a(I10
I1
I0
S'cool'
p257
I0
tp258
a(I20
I20
F1.0
S'good'
p259
I0
tp260
a(I21
I78
I0
S'subsequent'
p261
I0
tp262
a(I22
I29
F0.5
S'clear'
p263
I0
tp264
a(I23
I10
F0.5
S'clear'
p265
I0
tp266
a(I25
I65
F0.125
S'able'
p267
I0
tp268
a(I31
I1
I0
S'few'
p269
I0
tp270
a(I33
I1
I0
S'local'
p271
I0
tp272
a(I33
I1
F-0.5
S'international'
p273
I0
tp274
a(I33
I1
F0.5
S'reasonable'
p275
I0
tp276
as(S'contacts'
p277
tp278
(lp279
(I21
I32
I0
S'few'
p280
I0
tp281
as(S'text'
p282
S'messages'
p283
tp284
(lp285
(I6
I51
F0.125
S'able'
p286
I0
tp287
a(I6
I51
F-0.5
S'call'
p288
I0
tp289
a(I6
I54
F-0.375
S'simple'
p290
I0
tp291
a(I8
I8
I0
S'old'
p292
I0
tp293
a(I22
I6
F0.75
S'receive'
p294
I0
tp295
a(I22
I6
I0
S'basic'
p296
I0
tp297
a(I6
I51
F0.125
g286
I18
tp298
a(I6
I54
F-0.375
g290
I18
tp299
a(I8
I8
I0
g292
I18
tp300
a(I11
I7
F-0.375
S'simple'
p301
I18
tp302
a(I22
I6
F0.75
g294
I18
tp303
a(I22
I6
I0
g296
I18
tp304
a(I6
I51
F-0.5
g288
I1
tp305
a(I12
I54
F0.375
S'new'
p306
I1
tp307
as(S'low'
p308
S'cost'
p309
tp310
(lp311
(I6
I40
F-0.25
S'low'
p312
I2
tp313
a(I10
I8
I0
S'great'
p314
I2
tp315
a(I10
I8
F-0.25
S'low'
p316
I2
tp317
as(S'sims'
p318
tp319
(lp320
(I21
I75
I0
S'same'
p321
I0
tp322
a(I22
I4
F0.875
S'nice'
p323
I0
tp324
a(I22
I4
I0
S'different'
p325
I0
tp326
a(I33
I0
I0
S'local'
p327
I0
tp328
as(S'quad'
p329
S'band'
p330
tp331
(lp332
(I12
I0
I0
S'quad'
p333
I0
tp334
a(I12
I0
F-0.25
S'inexpensive'
p335
I0
tp336
as(S'long'
p337
S'time'
p338
tp339
(lp340
(I22
I0
F-0.5
S'long'
p341
I13
tp342
a(I22
I28
F-0.5
S'long'
p343
I13
tp344
a(I25
I28
F-0.5
S'long'
p345
I13
tp346
a(I28
I1
F-0.5
S'long'
p347
I13
tp348
a(I28
I1
I0
S'useful'
p349
I13
tp350
a(I31
I12
F-0.5
S'long'
p351
I13
tp352
as(S'sim'
p353
S'cards'
p354
tp355
(lp356
(I8
I49
F0.25
g154
I0
tp357
a(I12
I16
F-0.5
g210
I0
tp358
a(I12
I16
I0
g212
I0
tp359
a(I21
I21
F0.5
g218
I0
tp360
a(I25
I53
F-0.375
g224
I0
tp361
a(I25
I65
F-0.375
g226
I0
tp362
a(I28
I12
F0.875
g231
I0
tp363
a(I28
I12
F0.125
g233
I0
tp364
a(I31
I13
I0
g156
I0
tp365
a(I32
I13
I0
g238
I0
tp366
as(S'country'
p367
tp368
(lp369
(I9
I6
F-0.625
S'other'
p370
I5
tp371
a(I13
I36
I0
S'same'
p372
I5
tp373
a(I21
I10
F-0.5
S'sure'
p374
I5
tp375
a(I21
I47
I0
S'minute'
p376
I5
tp377
as(S'a'
p378
S'sim'
p379
S'card'
p380
tp381
(lp382
(I8
I10
F0.125
g198
I0
tp383
a(I8
I10
F-0.75
g200
I0
tp384
a(I8
I14
F-0.5
g190
I0
tp385
a(I8
I14
F-0.75
g192
I0
tp386
a(I8
I15
F-0.5
g194
I0
tp387
a(I8
I29
I0
g205
I0
tp388
a(I8
I31
F0.625
g207
I0
tp389
a(I8
I49
F0.25
g154
I0
tp390
a(I12
I16
F-0.5
g210
I0
tp391
a(I12
I16
I0
g212
I0
tp392
a(I13
I29
F0.125
g214
I0
tp393
a(I20
I25
I0
g216
I0
tp394
a(I21
I21
F0.5
g218
I0
tp395
a(I25
I5
I0
g220
I0
tp396
a(I25
I24
I0
g222
I0
tp397
a(I25
I53
F-0.375
g224
I0
tp398
a(I25
I65
F-0.375
g226
I0
tp399
a(I25
I66
F-0.125
g228
I0
tp400
a(I28
I11
F-0.5
g196
I0
tp401
a(I28
I12
F0.875
g231
I0
tp402
a(I28
I12
F0.125
g233
I0
tp403
a(I31
I1
I0
g235
I0
tp404
a(I31
I13
I0
g156
I0
tp405
a(I32
I13
I0
g238
I0
tp406
a(I33
I2
I0
g158
I0
tp407
as(S'travel'
p408
tp409
(lp410
(I6
I40
I0
S'great'
p411
I19
tp412
a(I20
I2
I0
S'american'
p413
I19
tp414
a(I20
I4
I0
S'basic'
p415
I19
tp416
a(I25
I8
I0
S'great'
p417
I19
tp418
as(S'volume'
p419
tp420
(lp421
(I5
I21
F0.125
S'adjust'
p422
I6
tp423
a(I21
I143
F1.0
S'good'
p424
I6
tp425
a(I25
I56
I0
S'few'
p426
I6
tp427
as(S'texting'
p428
tp429
(lp430
(I13
I19
I0
S'legible'
p431
I0
tp432
a(I25
I8
I0
S'primitive'
p433
I0
tp434
a(I28
I2
F-0.875
S'hard'
p435
I0
tp436
as(S'amazon'
p437
tp438
(lp439
(I4
I3
F1.0
S'good'
p440
I13
tp441
a(I4
I3
I0
S'described'
p442
I13
tp443
as(S'small'
p444
S'size'
p445
tp446
(lp447
(I21
I3
F-0.375
S'small'
p448
I1
tp449
a(I21
I15
F-0.375
S'small'
p450
I1
tp451
a(I21
I22
F-0.375
S'small'
p452
I1
tp453
a(I23
I14
F-0.375
S'small'
p454
I1
tp455
a(I28
I23
F-0.375
S'small'
p456
I1
tp457
a(I28
I23
F1.0
S'good'
p458
I1
tp459
as(S'upper'
p460
S'left'
p461
tp462
(lp463
(I21
I61
F0.375
S'upper'
p464
I0
tp465
a(I21
I61
F0.125
S'key'
p466
I0
tp467
a(I21
I62
F0.375
S'upper'
p468
I0
tp469
a(I21
I62
F0.125
S'key'
p470
I0
tp471
as.