(dp0
(S'problem'
p1
tp2
(lp3
(I6
I2
I0
S'same'
p4
tp5
a(I41
I5
F0.25
S'biggest'
p6
tp7
a(I43
I1
I0
S'only'
p8
tp9
a(I148
I14
I0
S'only'
p10
tp11
as(S'numbers'
p12
tp13
(lp14
(I11
I2
I0
S'large'
p15
tp16
a(I13
I2
I0
S'large'
p17
tp18
a(I13
I2
I0
S'dial'
p19
tp20
a(I17
I0
I0
S'large'
p21
tp22
a(I17
I0
F0.625
S'easy'
p23
tp24
a(I19
I3
F0.625
S'easy'
p25
tp26
a(I19
I3
F-0.25
S'inexpensive'
p27
tp28
a(I21
I0
I0
S'big'
p29
tp30
a(I36
I2
I0
S'large'
p31
tp32
a(I62
I0
I0
S'big'
p33
tp34
a(I63
I2
I0
S'large'
p35
tp36
a(I63
I2
F0.625
S'easy'
p37
tp38
a(I70
I1
I0
S'large'
p39
tp40
a(I85
I2
F0.625
S'easy'
p41
tp42
a(I86
I5
I0
S'large'
p43
tp44
a(I88
I3
I0
S'large'
p45
tp46
a(I91
I0
F0.625
S'easy'
p47
tp48
a(I93
I4
I0
S'big'
p49
tp50
a(I97
I1
F0.625
S'easy'
p51
tp52
a(I98
I2
I0
S'large'
p53
tp54
a(I100
I0
F-0.375
S'small'
p55
tp56
a(I105
I7
I0
S'large'
p57
tp58
a(I114
I2
I0
S'large'
p59
tp60
a(I121
I2
I0
S'big'
p61
tp62
a(I121
I2
F-0.75
S'bright'
p63
tp64
a(I128
I2
I0
S'big'
p65
tp66
a(I132
I0
I0
S'big'
p67
tp68
a(I136
I0
I0
S'big'
p69
tp70
a(I137
I0
F-0.75
S'little'
p71
tp72
a(I137
I2
I0
S'big'
p73
tp74
a(I140
I0
I0
S'large'
p75
tp76
a(I154
I1
I0
S'large'
p77
tp78
a(I164
I0
F0.875
S'nice'
p79
tp80
a(I164
I0
I0
S'big'
p81
tp82
a(I167
I0
I0
S'big'
p83
tp84
a(I167
I0
F-0.125
S'overall'
p85
tp86
a(I167
I0
I0
S'big'
p87
tp88
a(I169
I2
I0
S'large'
p89
tp90
a(I176
I0
I0
S'large'
p91
tp92
a(I182
I1
I0
S'big'
p93
tp94
a(I184
I2
F0.625
S'easy'
p95
tp96
a(I184
I2
I0
S'dial'
p97
tp98
a(I187
I2
F0.875
S'nice'
p99
tp100
a(I195
I1
I0
S'big'
p101
tp102
a(I208
I0
I0
S'big'
p103
tp104
a(I209
I1
I0
S'big'
p105
tp106
a(I225
I0
I0
S'big'
p107
tp108
as(S'flashlight'
p109
tp110
(lp111
(I93
I6
F0.25
S'bigger'
p112
tp113
a(I136
I1
I0
S'great'
p114
tp115
a(I231
I0
I0
S'weird'
p116
tp117
as(S'everything'
p118
tp119
(lp120
(I145
I1
F-0.375
S'simple'
p121
tp122
a(I161
I1
F0.5
S'clear'
p123
tp124
a(I172
I6
F0.625
S'easy'
p125
tp126
as(S'minutes'
p127
tp128
(lp129
(I5
I0
F-0.375
S'double'
p130
tp131
a(I5
I1
F0.625
S'easy'
p132
tp133
a(I15
I0
F-0.375
S'double'
p134
tp135
a(I20
I4
F0.625
S'easier'
p136
tp137
a(I20
I4
I0
S'normal'
p138
tp139
a(I24
I0
F-0.375
S'double'
p140
tp141
a(I24
I1
I0
S'many'
p142
tp143
a(I27
I1
F-0.5
S'less'
p144
tp145
a(I27
I1
F0.375
S'new'
p146
tp147
a(I43
I1
I0
S'same'
p148
tp149
a(I44
I2
F-0.375
S'double'
p150
tp151
a(I58
I7
I0
S'monthly'
p152
tp153
a(I63
I7
I0
S'same'
p154
tp155
a(I69
I2
I0
S'many'
p156
tp157
a(I69
I2
I0
S'more'
p158
tp159
a(I77
I3
I0
S'few'
p160
tp161
a(I83
I3
F0.375
S'new'
p162
tp163
a(I86
I7
F-0.375
S'double'
p164
tp165
a(I91
I0
F-0.375
S'double'
p166
tp167
a(I97
I2
F-0.375
S'double'
p168
tp169
a(I97
I2
I0
S'cool'
p170
tp171
a(I98
I6
F-0.375
S'double'
p172
tp173
a(I116
I2
F0.125
S'last'
p174
tp175
a(I121
I9
F-0.375
S'double'
p176
tp177
a(I121
I28
F-0.375
S'double'
p178
tp179
a(I168
I1
F-0.375
S'double'
p180
tp181
a(I172
I4
I0
S'few'
p182
tp183
a(I172
I4
I0
S'website'
p184
tp185
a(I175
I0
F-0.375
S'double'
p186
tp187
a(I204
I4
F-0.375
S'double'
p188
tp189
a(I212
I3
F-0.375
S'double'
p190
tp191
a(I216
I0
F-0.375
S'double'
p192
tp193
a(I229
I1
F0.625
S'easy'
p194
tp195
a(I231
I0
F-0.375
S'double'
p196
tp197
as(S'year'
p198
tp199
(lp200
(I19
I0
I0
S'old'
p201
tp202
a(I26
I0
I0
S'old'
p203
tp204
a(I53
I5
I0
S'old'
p205
tp206
a(I80
I0
I0
S'old'
p207
tp208
a(I113
I1
I0
S'old'
p209
tp210
a(I121
I4
I0
S'old'
p211
tp212
a(I146
I0
I0
S'old'
p213
tp214
a(I148
I13
I0
S'old'
p215
tp216
a(I184
I6
I0
S'old'
p217
tp218
a(I190
I0
I0
S'old'
p219
tp220
a(I193
I0
F0.375
S'new'
p221
tp222
a(I194
I0
I0
S'old'
p223
tp224
a(I206
I1
I0
S'total'
p225
tp226
a(I222
I0
I0
S'old'
p227
tp228
a(I232
I0
I0
S'old'
p229
tp230
a(I233
I0
I0
S'old'
p231
tp232
as(S'keys'
p233
tp234
(lp235
(I29
I1
I0
S'big'
p236
tp237
a(I29
I1
I0
S'more'
p238
tp239
a(I38
I5
I0
S'sensitive'
p240
tp241
a(I41
I7
F-0.375
S'small'
p242
tp243
a(I43
I0
I0
S'large'
p244
tp245
a(I53
I0
I0
S'large'
p246
tp247
a(I56
I2
I0
S'large'
p248
tp249
a(I56
I2
I0
S'large'
p250
tp251
a(I66
I1
I0
S'large'
p252
tp253
a(I66
I1
F0.625
S'easy'
p254
tp255
a(I68
I2
I0
S'numeric'
p256
tp257
a(I74
I3
I0
S'large'
p258
tp259
a(I75
I3
F0.875
S'nice'
p260
tp261
a(I101
I4
F0.25
S'larger'
p262
tp263
a(I102
I0
F0.25
S'bigger'
p264
tp265
a(I102
I0
F0.25
S'helpful'
p266
tp267
a(I103
I1
F-0.875
S'trouble'
p268
tp269
a(I103
I1
F-0.375
S'small'
p270
tp271
a(I126
I0
I0
S'big'
p272
tp273
a(I142
I1
I0
S'big'
p274
tp275
a(I143
I1
F0.25
S'larger'
p276
tp277
a(I156
I2
F0.625
S'easy'
p278
tp279
a(I171
I1
I0
S'large'
p280
tp281
a(I174
I3
F0.25
S'larger'
p282
tp283
a(I175
I0
I0
S'great'
p284
tp285
a(I191
I0
F-0.375
S'small'
p286
tp287
a(I204
I1
F0.625
S'easy'
p288
tp289
a(I223
I0
I0
S'big'
p290
tp291
as(S'radio'
p292
S'and'
p293
S'flashlight'
p294
tp295
(lp296
(I103
I3
I0
S'handy'
p297
tp298
a(I137
I2
F-0.25
S'low'
p299
tp300
a(I231
I0
I0
g116
tp301
as(S'lock'
p302
tp303
(lp304
(I38
I11
F0.125
S'key'
p305
tp306
a(I105
I4
F0.125
S'key'
p307
tp308
as(S'bells'
p309
tp310
(lp311
(I10
I2
F-0.625
S'other'
p312
tp313
a(I17
I1
I0
S'basic'
p314
tp315
as(S'screen'
p316
tp317
(lp318
(I8
I0
F0.875
S'nice'
p319
tp320
a(I8
I0
I0
S'big'
p321
tp322
a(I8
I0
I0
S'big'
p323
tp324
a(I20
I7
F0.625
S'easiest'
p325
tp326
a(I21
I0
F0.5
S'touch'
p327
tp328
a(I38
I2
I0
S'big'
p329
tp330
a(I65
I1
F0.25
S'larger'
p331
tp332
a(I70
I1
F1.0
S'good'
p333
tp334
a(I87
I3
F0.875
S'nice'
p335
tp336
a(I92
I0
I0
S'large'
p337
tp338
a(I99
I1
F-0.625
S'light'
p339
tp340
a(I105
I7
F-0.375
S'manual'
p341
tp342
a(I113
I2
I0
S'large'
p343
tp344
a(I113
I2
F-0.375
S'simple'
p345
tp346
a(I124
I0
F0.5
S'clear'
p347
tp348
a(I148
I13
I0
S'big'
p349
tp350
a(I160
I3
I0
S'large'
p351
tp352
a(I160
I3
F0.625
S'easy'
p353
tp354
a(I177
I3
F0.25
S'larger'
p355
tp356
a(I187
I2
F0.625
S'easy'
p357
tp358
a(I214
I3
F0.125
S'digital'
p359
tp360
a(I215
I2
I0
S'big'
p361
tp362
a(I233
I2
F0.25
S'larger'
p363
tp364
as(S'alcatel'
p365
tp366
(lp367
(I98
I4
F-0.375
S'manual'
p368
tp369
a(I231
I0
F0.625
S'easy'
p370
tp371
as(S'case'
p372
tp373
(lp374
(I47
I1
F0.625
S'easy'
p375
tp376
a(I106
I5
F0.875
S'happy'
p377
tp378
as(S'service'
p379
tp380
(lp381
(I41
I0
F0.625
S'easy'
p382
tp383
a(I79
I5
I0
S'such'
p384
tp385
a(I83
I3
I0
S'active'
p386
tp387
a(I86
I2
I0
S'full'
p388
tp389
a(I94
I5
I0
S'great'
p390
tp391
a(I103
I5
F0.125
S'able'
p392
tp393
a(I105
I22
I0
S'net'
p394
tp395
a(I125
I1
F1.0
S'better'
p396
tp397
a(I148
I4
F-0.25
S'past'
p398
tp399
a(I152
I1
F0.375
S'reliable'
p400
tp401
a(I209
I3
I0
S'great'
p402
tp403
as(S'usb'
p404
S'cord'
p405
tp406
(lp407
(I83
I4
F0.625
S'necessary'
p408
tp409
as(S'ring'
p410
S'tones'
p411
tp412
(lp413
(I63
I3
F0.125
S'enough'
p414
tp415
a(I81
I0
F1.0
S'better'
p416
tp417
a(I158
I2
I0
S'different'
p418
tp419
a(I216
I5
F0.125
S'enough'
p420
tp421
as(S'number'
p422
tp423
(lp424
(I11
I0
I0
S'large'
p425
tp426
a(I18
I0
I0
S'large'
p427
tp428
a(I57
I0
F0.125
S'able'
p429
tp430
a(I99
I1
I0
S'serial'
p431
tp432
a(I124
I1
F-0.375
S'simple'
p433
tp434
a(I124
I1
F0.25
S'larger'
p435
tp436
a(I148
I8
I0
S'old'
p437
tp438
a(I222
I2
I0
S'large'
p439
tp440
a(I231
I0
F-0.5
S'toll-free'
p441
tp442
as(S'minutes'
p443
S'for'
p444
S'life'
p445
tp446
(lp447
(I168
I1
F-0.375
g180
tp448
a(I204
I4
F-0.375
g188
tp449
as(S'large'
p450
S'keys'
p451
tp452
(lp453
(I43
I0
I0
g244
tp454
a(I53
I0
I0
g246
tp455
a(I56
I2
I0
g248
tp456
a(I56
I2
I0
g250
tp457
a(I66
I1
I0
g252
tp458
a(I66
I1
F0.625
g254
tp459
a(I74
I3
I0
g258
tp460
a(I101
I4
F0.25
g262
tp461
a(I143
I1
F0.25
g276
tp462
a(I171
I1
I0
g280
tp463
a(I174
I3
F0.25
g282
tp464
a(I204
I1
F0.625
g288
tp465
as(S'back'
p466
tp467
(lp468
(I123
I0
I0
S'great'
p469
tp470
as(S'flash'
p471
S'light'
p472
tp473
(lp474
(I229
I5
F-0.5
S'actual'
p475
tp476
as(S'hearing'
p477
tp478
(lp479
(I37
I0
F-0.875
S'hard'
p480
tp481
a(I37
I1
F-0.875
S'hard'
p482
tp483
a(I51
I0
I0
S'economical'
p484
tp485
a(I137
I2
F-0.875
S'hard'
p486
tp487
as(S'ring'
p488
tp489
(lp490
(I81
I0
F1.0
g416
tp491
a(I121
I7
I0
S'old'
p492
tp493
a(I158
I2
I0
g418
tp494
a(I175
I0
F0.625
S'easy'
p495
tp496
as(S'hard'
p497
S'of'
p498
S'hearing'
p499
tp500
(lp501
(I37
I0
F-0.875
g480
tp502
a(I37
I1
F-0.875
g482
tp503
a(I137
I2
F-0.875
g486
tp504
as(S'simple'
p505
tp506
(lp507
(I207
I1
F1.0
S'best'
p508
tp509
as(S'nice'
p510
S'big'
p511
S'numbers'
p512
tp513
(lp514
(I132
I0
I0
g67
tp515
a(I134
I0
I0
S'real'
p516
tp517
a(I134
I0
I0
S'big'
p518
tp519
a(I164
I0
I0
S'big'
p520
tp521
a(I164
I0
F0.875
g79
tp522
a(I164
I0
I0
g81
tp523
a(I167
I0
I0
g83
tp524
a(I167
I0
F-0.125
g85
tp525
a(I167
I0
I0
g87
tp526
a(I187
I2
F0.875
g99
tp527
as(S'reception'
p528
tp529
(lp530
(I20
I3
I0
S'great'
p531
tp532
a(I42
I2
F0.5
S'clear'
p533
tp534
a(I88
I2
F0.5
S'clear'
p535
tp536
a(I132
I0
F0.5
S'clear'
p537
tp538
a(I148
I14
F0.5
S'clear'
p539
tp540
a(I194
I3
F1.0
S'good'
p541
tp542
a(I227
I2
F1.0
S'better'
p543
tp544
as(S'signal'
p545
tp546
(lp547
(I133
I0
F0.5
S'strong'
p548
tp549
as(S'camera'
p550
tp551
(lp552
(I114
I1
F0.875
S'nice'
p553
tp554
a(I137
I2
F0.625
S'easy'
p555
tp556
as(S'with'
p557
S'double'
p558
S'minutes'
p559
tp560
(lp561
(I5
I0
F-0.375
g130
tp562
a(I24
I0
F-0.375
g140
tp563
a(I86
I7
F-0.375
g164
tp564
a(I121
I28
F-0.375
g178
tp565
a(I168
I1
F-0.375
g180
tp566
a(I175
I0
F-0.375
g186
tp567
a(I204
I4
F-0.375
g188
tp568
a(I231
I0
F-0.375
g196
tp569
as(S'perfect'
p570
tp571
(lp572
(I116
I3
F-0.375
S'simple'
p573
tp574
a(I116
I3
F-0.375
S'manual'
p575
tp576
as(S'right'
p577
tp578
(lp579
(I61
I1
F-0.625
S'other'
p580
tp581
a(I148
I2
F1.0
S'good'
p582
tp583
as(S'double'
p584
S'minutes'
p585
tp586
(lp587
(I5
I0
F-0.375
g130
tp588
a(I15
I0
F-0.375
g134
tp589
a(I24
I0
F-0.375
g140
tp590
a(I44
I2
F-0.375
g150
tp591
a(I86
I7
F-0.375
g164
tp592
a(I91
I0
F-0.375
g166
tp593
a(I97
I2
F-0.375
g168
tp594
a(I97
I2
I0
g170
tp595
a(I98
I6
F-0.375
g172
tp596
a(I121
I9
F-0.375
g176
tp597
a(I121
I28
F-0.375
g178
tp598
a(I168
I1
F-0.375
g180
tp599
a(I175
I0
F-0.375
g186
tp600
a(I204
I4
F-0.375
g188
tp601
a(I212
I3
F-0.375
g190
tp602
a(I216
I0
F-0.375
g192
tp603
a(I231
I0
F-0.375
g196
tp604
as(S'tracfone'
p605
tp606
(lp607
(I6
I0
F-0.875
S'worst'
p608
tp609
a(I6
I0
F0.125
S'far'
p610
tp611
a(I27
I0
F-0.25
S'cheaper'
p612
tp613
a(I27
I17
I0
S'wish'
p614
tp615
a(I53
I1
I0
S'old'
p616
tp617
a(I63
I5
F0.375
S'new'
p618
tp619
a(I66
I3
F0.625
S'show-stopper'
p620
tp621
a(I87
I4
F-0.5
S'less'
p622
tp623
a(I103
I5
F-0.5
S'sure'
p624
tp625
a(I105
I1
I0
S'net'
p626
tp627
a(I105
I12
I0
S'corporate'
p628
tp629
a(I105
I23
F-0.5
S'less'
p630
tp631
a(I112
I1
F-0.25
S'inexpensive'
p632
tp633
a(I148
I4
F-0.5
S'poor'
p634
tp635
a(I160
I0
I0
S'old'
p636
tp637
a(I162
I2
F0.625
S'easy'
p638
tp639
a(I162
I2
F0.25
S'helpful'
p640
tp641
a(I173
I0
I0
S'activate'
p642
tp643
a(I180
I2
F-0.25
S'past'
p644
tp645
a(I181
I1
F0.625
S'easy'
p646
tp647
a(I212
I0
I0
S'old'
p648
tp649
a(I212
I0
I0
S'user'
p650
tp651
as(S'clear'
p652
tp653
(lp654
(I76
I1
F1.0
S'good'
p655
tp656
as(S'features'
p657
tp658
(lp659
(I49
I3
F0.375
S'extra'
p660
tp661
a(I81
I0
F0.625
S'easy'
p662
tp663
a(I87
I4
I0
S'same'
p664
tp665
a(I131
I1
I0
S'basic'
p666
tp667
a(I152
I1
I0
S'basic'
p668
tp669
a(I174
I2
F0.5
S'desirable'
p670
tp671
a(I184
I4
F0.5
S'true'
p672
tp673
a(I229
I5
I0
S'basic'
p674
tp675
as(S'emergency'
p676
tp677
(lp678
(I50
I0
F0.5
S'personal'
p679
tp680
a(I72
I3
I0
S'more'
p681
tp682
a(I100
I1
I0
S'great'
p683
tp684
a(I148
I19
F1.0
S'good'
p685
tp686
a(I148
I19
F-0.125
S'mine'
p687
tp688
a(I206
I1
F-0.625
S'other'
p689
tp690
as(S'customer'
p691
S'service'
p692
tp693
(lp694
(I148
I4
F-0.75
S'off'
p695
tp696
a(I148
I4
F-0.25
g398
tp697
as(S'n'
p698
S'car'
p699
tp700
(lp701
(I59
I3
I0
S'illegal'
p702
tp703
as(S'people'
p704
tp705
(lp706
(I33
I1
F0.375
S'much'
p707
tp708
a(I66
I3
F0.5
S'experienced'
p709
tp710
a(I105
I7
I0
S'same'
p711
tp712
a(I115
I0
I0
S'older'
p713
tp714
a(I137
I2
F-0.375
S'static'
p715
tp716
a(I162
I1
F0.625
S'easy'
p717
tp718
a(I162
I1
I0
S'older'
p719
tp720
a(I171
I5
F0.25
S'helpful'
p721
tp722
a(I220
I6
F0.5
S'technical'
p723
tp724
a(I220
I6
F0.5
S'told'
p725
tp726
a(I220
I8
F0.25
S'helpful'
p727
tp728
a(I223
I0
F0.625
S'easy'
p729
tp730
as(S'feature'
p731
tp732
(lp733
(I59
I14
F1.0
S'better'
p734
tp735
a(I87
I1
F-0.75
S'single'
p736
tp737
a(I121
I16
I0
S'useful'
p738
tp739
a(I196
I13
F0.625
S'easy'
p740
tp741
as(S'radio'
p742
tp743
(lp744
(I15
I0
F0.625
S'necessary'
p745
tp746
a(I103
I3
I0
g297
tp747
a(I137
I2
F-0.25
g299
tp748
as(S'address'
p749
S'book'
p750
tp751
(lp752
(I59
I8
F0.625
S'necessary'
p753
tp754
as(S'user'
p755
tp756
(lp757
(I129
I16
F-0.375
S'manual'
p758
tp759
a(I189
I0
F1.0
S'good'
p760
tp761
a(I189
I0
F-0.375
S'manual'
p762
tp763
a(I229
I13
F-0.5
S'heavy'
p764
tp765
as(S'sound'
p766
tp767
(lp768
(I18
I1
F1.0
S'good'
p769
tp770
a(I37
I0
I0
S'great'
p771
tp772
a(I76
I0
F0.5
S'clear'
p773
tp774
a(I97
I3
F0.5
S'clear'
p775
tp776
a(I98
I1
F0.5
S'clear'
p777
tp778
a(I212
I0
F-0.5
S'poor'
p779
tp780
as(S'works'
p781
tp782
(lp783
(I34
I1
I0
S'great'
p784
tp785
as(S'display'
p786
tp787
(lp788
(I18
I0
F0.625
S'easy'
p789
tp790
a(I19
I3
F0.625
S'easy'
p791
tp792
a(I109
I1
F0.25
S'bigger'
p793
tp794
a(I229
I4
F0.875
S'nice'
p795
tp796
a(I229
I4
F0.625
S'easy'
p797
tp798
as(S'battery'
p799
tp800
(lp801
(I16
I0
F0.125
S'last'
p802
tp803
a(I46
I1
I0
S'only'
p804
tp805
a(I46
I1
F-0.875
S'negative'
p806
tp807
a(I46
I1
F0.125
S'last'
p808
tp809
a(I76
I1
F-0.5
S'poor'
p810
tp811
a(I82
I0
F0.625
S'easy'
p812
tp813
a(I105
I5
F-0.75
S'bright'
p814
tp815
a(I129
I12
F-0.75
S'dead'
p816
tp817
a(I150
I0
F0.125
S'last'
p818
tp819
a(I196
I5
F-0.25
S'low'
p820
tp821
a(I211
I0
F0.375
S'new'
p822
tp823
a(I211
I2
F0.375
S'new'
p824
tp825
a(I232
I0
F-0.75
S'little'
p826
tp827
as(S'use'
p828
S'a'
p829
S'cell'
p830
tp831
(lp832
(I44
I1
F0.5
S'second'
p833
tp834
a(I44
I1
I0
S'different'
p835
tp836
a(I50
I1
F-0.375
S'locked'
p837
tp838
a(I94
I3
I0
S'most'
p839
tp840
a(I137
I0
I0
S'most'
p841
tp842
a(I215
I0
F-0.625
S'other'
p843
tp844
a(I231
I3
F0.625
S'easy'
p845
tp846
as(S'money'
p847
tp848
(lp849
(I152
I0
F0.75
S'ideal'
p850
tp851
a(I166
I1
F0.75
S'worth'
p852
tp853
a(I228
I2
F-0.875
S'hard'
p854
tp855
as(S'husband'
p856
tp857
(lp858
(I154
I0
F-0.5
S'poor'
p859
tp860
a(I180
I1
F0.625
S'easy'
p861
tp862
as(S'old'
p863
S'mother'
p864
tp865
(lp866
(I14
I0
I0
S'old'
p867
tp868
as(S'cell'
p869
tp870
(lp871
(I10
I3
I0
S'most'
p872
tp873
a(I20
I0
I0
S'great'
p874
tp875
a(I32
I1
F0.75
S'ideal'
p876
tp877
a(I44
I1
F0.5
g833
tp878
a(I44
I1
I0
g835
tp879
a(I50
I1
F-0.375
g837
tp880
a(I53
I3
F-0.625
S'nearby'
p881
tp882
a(I63
I0
F1.0
S'best'
p883
tp884
a(I94
I3
I0
g839
tp885
a(I121
I21
F-0.125
S'overall'
p886
tp887
a(I121
I21
F1.0
S'best'
p888
tp889
a(I122
I0
I0
S'old'
p890
tp891
a(I132
I0
F0.875
S'nice'
p892
tp893
a(I137
I0
I0
g841
tp894
a(I177
I3
F0.875
S'nice'
p895
tp896
a(I192
I0
I0
S'basic'
p897
tp898
a(I215
I0
F-0.625
g843
tp899
a(I215
I3
F0.375
S'new'
p900
tp901
a(I231
I3
F0.625
g845
tp902
as(S'calls'
p903
tp904
(lp905
(I88
I0
F0.625
S'perfect'
p906
tp907
a(I201
I4
I0
S'total'
p908
tp909
as(S'sim'
p910
S'card'
p911
tp912
(lp913
(I129
I8
F0.375
S'new'
p914
tp915
a(I151
I1
F0.375
S'new'
p916
tp917
as(S'charge'
p918
tp919
(lp920
(I16
I0
F-0.5
S'long'
p921
tp922
a(I16
I0
I0
S'full'
p923
tp924
a(I40
I4
I0
S'more'
p925
tp926
as(S'year'
p927
S'old'
p928
S'mother'
p929
tp930
(lp931
(I53
I5
I0
g205
tp932
a(I113
I1
I0
g209
tp933
a(I184
I6
I0
g217
tp934
a(I190
I0
I0
g219
tp935
a(I194
I0
I0
g223
tp936
a(I222
I0
I0
g227
tp937
a(I233
I0
I0
g231
tp938
as(S'signal'
p939
S'strength'
p940
tp941
(lp942
(I105
I16
I0
S'signal'
p943
tp944
as(S'bells'
p945
S'and'
p946
S'whistles'
p947
tp948
(lp949
(I10
I2
F-0.625
g312
tp950
a(I17
I1
I0
g314
tp951
as(S'call'
p952
tp953
(lp954
(I67
I0
I0
S'great'
p955
tp956
a(I105
I7
I0
S'initial'
p957
tp958
a(I105
I8
I0
S'accomplish'
p959
tp960
a(I196
I2
I0
S'great'
p961
tp962
as(S'easy'
p963
S'to'
p964
S'use'
p965
tp966
(lp967
(I212
I1
F-0.375
S'manual'
p968
tp969
a(I231
I0
F-0.5
S'regular'
p970
tp971
as(S'nice'
p972
tp973
(lp974
(I68
I1
F-0.625
S'other'
p975
tp976
a(I134
I0
I0
g516
tp977
a(I134
I0
I0
g518
tp978
a(I161
I3
I0
S'big'
p979
tp980
a(I164
I0
I0
g520
tp981
a(I230
I0
F0.625
S'easy'
p982
tp983
as(S'customer'
p984
tp985
(lp986
(I95
I7
F0.5
S'whole'
p987
tp988
a(I148
I4
F-0.75
g695
tp989
as(S'customer'
p990
S'support'
p991
tp992
(lp993
(I173
I1
I0
S'english'
p994
tp995
as(S'price'
p996
tp997
(lp998
(I40
I0
F1.0
S'good'
p999
tp1000
a(I114
I1
F0.875
S'nice'
p1001
tp1002
a(I114
I1
F1.0
S'good'
p1003
tp1004
a(I160
I5
F-0.5
S'less'
p1005
tp1006
a(I162
I0
I0
S'great'
p1007
tp1008
as(S'mother'
p1009
tp1010
(lp1011
(I14
I0
I0
g867
tp1012
a(I94
I2
I0
S'big'
p1013
tp1014
a(I94
I2
F0.625
S'easy'
p1015
tp1016
a(I141
I7
F0.125
S'last'
p1017
tp1018
a(I185
I0
I0
S'elderly'
p1019
tp1020
a(I216
I6
I0
S'later'
p1021
tp1022
a(I216
I7
F0.625
S'interested'
p1023
tp1024
as(S'big'
p1025
S'numbers'
p1026
tp1027
(lp1028
(I21
I0
I0
g29
tp1029
a(I62
I0
I0
g33
tp1030
a(I93
I4
I0
g49
tp1031
a(I121
I2
I0
g61
tp1032
a(I121
I2
F-0.75
g63
tp1033
a(I128
I2
I0
g65
tp1034
a(I132
I0
I0
g67
tp1035
a(I136
I0
I0
g69
tp1036
a(I137
I2
I0
g73
tp1037
a(I164
I0
F0.875
g79
tp1038
a(I164
I0
I0
g81
tp1039
a(I167
I0
I0
g83
tp1040
a(I167
I0
F-0.125
g85
tp1041
a(I167
I0
I0
g87
tp1042
a(I182
I1
I0
g93
tp1043
a(I187
I2
F0.875
g99
tp1044
a(I195
I1
I0
g101
tp1045
a(I208
I0
I0
g103
tp1046
a(I209
I1
I0
g105
tp1047
a(I225
I0
I0
g107
tp1048
as(S'happy'
p1049
tp1050
(lp1051
(I95
I13
I0
S'real'
p1052
tp1053
as(S'years'
p1054
tp1055
(lp1056
(I83
I4
F0.125
S'last'
p1057
tp1058
a(I141
I2
I0
S'old'
p1059
tp1060
a(I148
I19
I0
S'old'
p1061
tp1062
a(I149
I0
I0
S'old'
p1063
tp1064
as(S'someone'
p1065
tp1066
(lp1067
(I48
I0
F0.625
S'perfect'
p1068
tp1069
as(S'card'
p1070
tp1071
(lp1072
(I121
I9
I0
S'standard'
p1073
tp1074
a(I231
I0
I0
S'special'
p1075
tp1076
as(S'charger'
p1077
tp1078
(lp1079
(I223
I1
F0.625
S'easy'
p1080
tp1081
as(S'time'
p1082
tp1083
(lp1084
(I27
I1
I0
S'old'
p1085
tp1086
a(I27
I17
F-0.5
S'longer'
p1087
tp1088
a(I38
I6
I0
S'most'
p1089
tp1090
a(I160
I4
I0
S'dial'
p1091
tp1092
a(I172
I3
F-0.875
S'hardest'
p1093
tp1094
a(I210
I0
F-0.875
S'hard'
p1095
tp1096
a(I221
I2
I0
S'next'
p1097
tp1098
a(I233
I3
F-0.5
S'long'
p1099
tp1100
as(S'better'
p1101
tp1102
(lp1103
(I88
I2
F0.375
S'much'
p1104
tp1105
a(I88
I2
I0
S'old'
p1106
tp1107
as(S'large'
p1108
S'numbers'
p1109
tp1110
(lp1111
(I11
I2
I0
g15
tp1112
a(I13
I2
I0
g17
tp1113
a(I13
I2
I0
g19
tp1114
a(I17
I0
I0
g21
tp1115
a(I17
I0
F0.625
g23
tp1116
a(I36
I2
I0
g31
tp1117
a(I63
I2
I0
g35
tp1118
a(I63
I2
F0.625
g37
tp1119
a(I70
I1
I0
g39
tp1120
a(I86
I5
I0
g43
tp1121
a(I88
I3
I0
g45
tp1122
a(I98
I2
I0
g53
tp1123
a(I105
I7
I0
g57
tp1124
a(I114
I2
I0
g59
tp1125
a(I140
I0
I0
g75
tp1126
a(I154
I1
I0
g77
tp1127
a(I169
I2
I0
g89
tp1128
a(I176
I0
I0
g91
tp1129
a(I187
I2
F0.875
g99
tp1130
a(I195
I1
I0
g101
tp1131
as(S'keypad'
p1132
tp1133
(lp1134
(I39
I1
I0
S'great'
p1135
tp1136
a(I39
I1
F0.625
S'easy'
p1137
tp1138
a(I105
I1
I0
S'large'
p1139
tp1140
a(I121
I26
I0
S'same'
p1141
tp1142
a(I160
I2
I0
S'large'
p1143
tp1144
a(I160
I2
F0.25
S'responsive'
p1145
tp1146
a(I180
I0
I0
S'large'
p1147
tp1148
a(I196
I12
I0
S'dial'
p1149
tp1150
a(I204
I1
F0.25
S'larger'
p1151
tp1152
as(S'light'
p1153
tp1154
(lp1155
(I229
I5
F-0.5
g475
tp1156
as(S'days'
p1157
tp1158
(lp1159
(I79
I2
F0.375
S'much'
p1160
tp1161
a(I79
I3
F0.875
S'lucky'
p1162
tp1163
a(I129
I4
I0
S'later'
p1164
tp1165
a(I129
I9
I0
S'few'
p1166
tp1167
a(I185
I1
F0.125
S'last'
p1168
tp1169
a(I220
I6
I0
S'few'
p1170
tp1171
as(S'tracfone'
p1172
S'customer'
p1173
S'service'
p1174
tp1175
(lp1176
(I105
I12
I0
g628
tp1177
a(I148
I4
F-0.75
g695
tp1178
a(I148
I4
F-0.25
g398
tp1179
a(I148
I4
F-0.5
g634
tp1180
as(S'fm'
p1181
S'radio'
p1182
tp1183
(lp1184
(I98
I1
F0.25
S'powerful'
p1185
tp1186
a(I137
I2
F-0.25
g299
tp1187
as(S'text'
p1188
tp1189
(lp1190
(I227
I3
I0
S'more'
p1191
tp1192
as(S'tracfone'
p1193
S'customer'
p1194
tp1195
(lp1196
(I105
I12
I0
g628
tp1197
a(I148
I4
F-0.75
g695
tp1198
a(I148
I4
F-0.5
g634
tp1199
a(I173
I0
I0
g642
tp1200
as.