(dp0
(S'apple'
p1
S'store'
p2
tp3
(lp4
(I53
I59
I0
S'local'
p5
I0
tp6
a(I3
I11
F0.5
S'true'
p7
I4
tp8
a(I4
I13
F1.0
S'best'
p9
I4
tp10
a(I6
I0
F0.375
S'new'
p11
I4
tp12
a(I7
I52
I0
S'great'
p13
I4
tp14
a(I8
I9
I-100
S'phablet'
p15
I4
tp16
a(I20
I1
I0
S'latest'
p17
I4
tp18
a(I22
I28
F0.5
S'loyal'
p19
I4
tp20
a(I26
I2
F0.125
S'last'
p21
I4
tp22
a(I26
I2
F-0.5
S'long'
p23
I4
tp24
a(I31
I8
F0.375
S'new'
p25
I4
tp26
a(I33
I28
F0.5
S'suggested'
p27
I4
tp28
a(I51
I1
F0.375
S'newest'
p29
I4
tp30
a(I52
I0
F0.25
S'original'
p31
I4
tp32
a(I53
I59
I0
g5
I4
tp33
a(I61
I4
F0.625
S'easier'
p34
I4
tp35
a(I61
I20
F0.625
S'easy'
p36
I4
tp37
a(I61
I22
F-0.625
S'free'
p38
I4
tp39
a(I61
I22
F-0.5
S'open'
p40
I4
tp41
a(I71
I5
F-0.25
S'past'
p42
I4
tp43
a(I75
I0
F-0.625
S'light'
p44
I4
tp45
as(S'battery'
p46
S'life'
p47
tp48
(lp49
(I12
I8
I0
S'adequate'
p50
I1
tp51
a(I18
I29
I0
S'competitive'
p52
I1
tp53
a(I18
I35
F-0.75
S'short'
p54
I1
tp55
a(I22
I20
F-0.5
S'poor'
p56
I1
tp57
a(I33
I13
F-0.5
S'poor'
p58
I1
tp59
a(I39
I18
F1.0
S'better'
p60
I1
tp61
a(I39
I48
F0.625
S'acceptable'
p62
I1
tp63
a(I44
I3
I0
S'more'
p64
I1
tp65
a(I51
I14
F-0.5
S'poor'
p66
I1
tp67
a(I53
I72
F1.0
S'better'
p68
I1
tp69
a(I12
I8
I0
g50
I19
tp70
a(I18
I29
I0
g52
I19
tp71
a(I18
I35
F-0.75
g54
I19
tp72
a(I22
I20
F-0.5
g56
I19
tp73
a(I39
I48
F0.625
g62
I19
tp74
a(I44
I14
I0
S'real'
p75
I19
tp76
a(I44
I14
F0.5
S'advanced'
p77
I19
tp78
a(I53
I72
F1.0
g68
I19
tp79
a(I67
I0
F-0.375
S'daily'
p80
I19
tp81
a(I7
I46
F-0.5
S'poor'
p82
I15
tp83
a(I14
I2
F0.375
S'new'
p84
I15
tp85
a(I22
I33
I0
S'great'
p86
I15
tp87
a(I23
I5
F-0.25
S'loose'
p88
I15
tp89
a(I33
I13
F-0.5
g58
I15
tp90
a(I33
I46
I0
S'external'
p91
I15
tp92
a(I39
I18
F1.0
g60
I15
tp93
a(I44
I3
I0
g64
I15
tp94
a(I44
I9
F0.625
S'removable'
p95
I15
tp96
a(I44
I9
F0.625
S'removable'
p97
I15
tp98
a(I51
I14
F-0.5
g66
I15
tp99
a(I53
I89
I0
S'fast'
p100
I15
tp101
a(I55
I1
F-0.5
S'less'
p102
I15
tp103
a(I80
I79
F0.375
S'extended'
p104
I15
tp105
as(S'a'
p106
S'nano'
p107
S'sim'
p108
tp109
(lp110
(I17
I6
F-0.5
S'regular'
p111
I0
tp112
as(S'power'
p113
S'button'
p114
tp115
(lp116
(I10
I101
F-0.5
S'vibrate'
p117
I0
tp118
a(I30
I30
I0
S'same'
p119
I19
tp120
a(I51
I8
F0.375
S'working'
p121
I19
tp122
as(S'text'
p123
tp124
(lp125
(I51
I11
F-0.125
S'overall'
p126
I18
tp127
as(S'apple'
p128
S'products'
p129
tp130
(lp131
(I22
I30
I0
S'many'
p132
I0
tp133
a(I31
I8
F0.375
g25
I0
tp134
as(S'service'
p135
tp136
(lp137
(I7
I32
I0
S'advocate'
p138
I16
tp139
a(I16
I10
F1.0
S'good'
p140
I16
tp141
a(I17
I11
F0.5
S'compatible'
p142
I16
tp143
a(I39
I11
F0.5
S'strong'
p144
I16
tp145
a(I78
I11
F-0.125
S'super'
p146
I16
tp147
a(I78
I11
F0.25
S'helpful'
p148
I16
tp149
as(S'air'
p150
S'gestures'
p151
tp152
(lp153
(I10
I92
I0
S'many'
p154
I0
tp155
as(S'operating'
p156
S'system'
p157
tp158
(lp159
(I39
I15
I0
S'efficient'
p160
I2
tp161
as(S'steve'
p162
S'jobs'
p163
tp164
(lp165
(I38
I4
F-0.5
S'miss'
p166
I0
tp167
as(S'an'
p168
S'unlocked'
p169
S'iphone'
p170
tp171
(lp172
(I17
I5
F0.25
S'unlocked'
p173
I0
tp174
a(I78
I1
F0.25
S'unlocked'
p175
I0
tp176
a(I87
I29
F0.125
S'able'
p177
I0
tp178
a(I17
I5
F0.25
g173
I0
tp179
a(I78
I1
F0.25
g175
I0
tp180
a(I87
I29
F0.125
g177
I0
tp181
a(I3
I8
I-100
S'made/designed'
p182
I1
tp183
a(I3
I12
F-0.625
S'free'
p184
I1
tp185
a(I3
I12
F-0.625
S'free'
p186
I1
tp187
a(I3
I12
I0
S'real'
p188
I1
tp189
a(I4
I3
F0.5
S'compare'
p190
I1
tp191
a(I4
I3
I0
S'old'
p192
I1
tp193
a(I4
I7
I0
S'old'
p194
I1
tp195
a(I6
I0
I0
S'faster'
p196
I1
tp197
a(I7
I8
I0
S'third'
p198
I1
tp199
a(I10
I12
I0
S'next'
p200
I1
tp201
a(I10
I18
F-0.25
S'unaware'
p202
I1
tp203
a(I10
I20
F-0.625
S'wall'
p204
I1
tp205
a(I10
I59
I0
S'hear'
p206
I1
tp207
a(I10
I88
F0.75
S'give'
p208
I1
tp209
a(I10
I152
F1.0
S'better'
p210
I1
tp211
a(I15
I15
I0
S'more'
p212
I1
tp213
a(I15
I32
I0
S'next'
p214
I1
tp215
a(I16
I0
F0.625
S'easy'
p216
I1
tp217
a(I17
I5
F0.25
g173
I1
tp218
a(I18
I15
F-0.375
S'black'
p219
I1
tp220
a(I18
I34
I-100
S"'find"
p221
I1
tp222
a(I22
I14
F0.5
S'taller'
p223
I1
tp224
a(I22
I31
F0.375
S'much'
p225
I1
tp226
a(I24
I0
I0
S'cool'
p227
I1
tp228
a(I24
I0
F0.375
S'new'
p229
I1
tp230
a(I24
I0
F0.375
S'new'
p231
I1
tp232
a(I27
I8
F0.125
S'usual'
p233
I1
tp234
a(I27
I8
I-100
S'turbo/super'
p235
I1
tp236
a(I27
I10
I0
S'limited'
p237
I1
tp238
a(I27
I11
F1.0
S'better'
p239
I1
tp240
a(I31
I0
F0.75
S'receive'
p241
I1
tp242
a(I33
I2
F-0.625
S'light'
p243
I1
tp244
a(I33
I2
F0.75
S'beautiful'
p245
I1
tp246
a(I33
I2
F0.5
S'elegant'
p247
I1
tp248
a(I33
I8
F0.125
S'last'
p249
I1
tp250
a(I36
I0
I-100
S'nano-simcard'
p251
I1
tp252
a(I36
I5
I0
S'faster'
p253
I1
tp254
a(I39
I0
F0.375
S'new'
p255
I1
tp256
a(I39
I4
I0
S'own'
p257
I1
tp258
a(I39
I15
F-0.5
S'poor'
p259
I1
tp260
a(I39
I31
I0
S'cable'
p261
I1
tp262
a(I39
I41
I0
S'online'
p263
I1
tp264
a(I40
I0
F0.375
S'new'
p265
I1
tp266
a(I40
I0
F0.125
S'able'
p267
I1
tp268
a(I43
I4
F0.25
S'original'
p269
I1
tp270
a(I44
I0
I0
S'narrow'
p271
I1
tp272
a(I47
I1
I-100
S'5sprint'
p273
I1
tp274
a(I49
I12
I0
S'more'
p275
I1
tp276
a(I49
I13
I0
S'signal'
p277
I1
tp278
a(I49
I16
I0
S'old'
p279
I1
tp280
a(I51
I11
F0.5
S'clearer'
p281
I1
tp282
a(I51
I11
F0.625
S'easier'
p283
I1
tp284
a(I51
I12
F-0.125
S'overall'
p285
I1
tp286
a(I53
I17
F0.125
S'enough'
p287
I1
tp288
a(I53
I17
F0.125
S'first'
p289
I1
tp290
a(I53
I52
I-100
S'reliability/warranty'
p291
I1
tp292
a(I53
I86
F0.375
S'new'
p293
I1
tp294
a(I53
I97
I-100
S'bb.-'
p295
I1
tp296
a(I55
I3
F-0.375
S'smoother'
p297
I1
tp298
a(I56
I8
F0.625
S'perfect'
p299
I1
tp300
a(I56
I25
F0.5
S'compatible'
p301
I1
tp302
a(I59
I15
F0.25
S'used'
p303
I1
tp304
a(I61
I26
I-100
S'yuck'
p305
I1
tp306
a(I64
I2
F0.375
S'new'
p307
I1
tp308
a(I67
I16
F-0.125
S'opposite'
p309
I1
tp310
a(I67
I17
F0.375
S'new'
p311
I1
tp312
a(I67
I25
F0.125
S'first'
p313
I1
tp314
a(I67
I27
I0
S'great'
p315
I1
tp316
a(I67
I29
F-0.125
S'slow'
p317
I1
tp318
a(I69
I9
F0.5
S'second'
p319
I1
tp320
a(I71
I9
F-0.25
S'past'
p321
I1
tp322
a(I71
I15
F0.375
S'new'
p323
I1
tp324
a(I71
I15
F0.75
S'worth'
p325
I1
tp326
a(I77
I1
F0.375
S'new'
p327
I1
tp328
a(I78
I1
F0.25
g175
I1
tp329
a(I78
I27
F0.125
S'first'
p330
I1
tp331
a(I78
I27
F0.5
S'expensive'
p332
I1
tp333
a(I78
I31
F1.0
S'best'
p334
I1
tp335
a(I84
I2
F1.0
S'best'
p336
I1
tp337
a(I87
I29
F0.125
g177
I1
tp338
a(I87
I30
I0
S'great'
p339
I1
tp340
a(I87
I33
F1.0
S'best'
p341
I1
tp342
as(S'iphones'
p343
tp344
(lp345
(I12
I10
F-0.625
S'other'
p346
I0
tp347
a(I26
I15
F-0.875
S'worst'
p348
I0
tp349
a(I33
I11
I0
S'old'
p350
I0
tp351
a(I33
I11
F-0.625
S'plague'
p352
I0
tp353
a(I39
I16
F-0.625
S'other'
p354
I0
tp355
a(I51
I2
I0
S'old'
p356
I0
tp357
a(I51
I12
I0
S'old'
p358
I0
tp359
a(I71
I8
F-0.25
S'past'
p360
I0
tp361
as(S'seller'
p362
tp363
(lp364
(I49
I1
F0.875
S'happy'
p365
I19
tp366
a(I56
I14
I0
S'particular'
p367
I19
tp368
a(I59
I15
I0
S'great'
p369
I19
tp370
as(S'android'
p371
tp372
(lp373
(I7
I53
F0.375
S'new'
p374
I0
tp375
a(I26
I3
F-0.75
S'worse'
p376
I0
tp377
a(I26
I6
I0
S'next'
p378
I0
tp379
a(I33
I57
I0
S'old'
p380
I0
tp381
a(I39
I26
F-0.625
S'free'
p382
I0
tp383
a(I53
I42
F-0.375
S'overhead'
p384
I0
tp385
a(I53
I64
F0.5
S'possible'
p386
I0
tp387
a(I53
I68
F0.375
S'new'
p388
I0
tp389
a(I53
I72
F0.375
S'new'
p390
I0
tp391
a(I53
I82
F-0.25
S'past'
p392
I0
tp393
a(I69
I10
F0.625
S'superior'
p394
I0
tp395
as(g106
S'new'
p396
S'iphone'
p397
tp398
(lp399
(I6
I0
I0
g196
I0
tp400
a(I10
I152
F1.0
g210
I0
tp401
a(I24
I0
I0
g227
I0
tp402
a(I24
I0
F0.375
g229
I0
tp403
a(I24
I0
F0.375
g231
I0
tp404
a(I39
I0
F0.375
g255
I0
tp405
a(I40
I0
F0.375
g265
I0
tp406
a(I40
I0
F0.125
g267
I0
tp407
a(I53
I17
F0.125
g287
I0
tp408
a(I53
I17
F0.125
g289
I0
tp409
a(I53
I86
F0.375
g293
I0
tp410
a(I59
I15
F0.25
g303
I0
tp411
a(I64
I2
F0.375
g307
I0
tp412
a(I67
I17
F0.375
g311
I0
tp413
a(I71
I15
F0.375
g323
I0
tp414
a(I71
I15
F0.75
g325
I0
tp415
a(I77
I1
F0.375
g327
I0
tp416
a(I6
I0
I0
g196
I0
tp417
a(I10
I152
F1.0
g210
I0
tp418
a(I24
I0
I0
g227
I0
tp419
a(I24
I0
F0.375
g229
I0
tp420
a(I24
I0
F0.375
g231
I0
tp421
a(I39
I0
F0.375
g255
I0
tp422
a(I40
I0
F0.375
g265
I0
tp423
a(I40
I0
F0.125
g267
I0
tp424
a(I53
I17
F0.125
g287
I0
tp425
a(I53
I17
F0.125
g289
I0
tp426
a(I53
I86
F0.375
g293
I0
tp427
a(I59
I15
F0.25
g303
I0
tp428
a(I64
I2
F0.375
g307
I0
tp429
a(I67
I17
F0.375
g311
I0
tp430
a(I71
I15
F0.375
g323
I0
tp431
a(I71
I15
F0.75
g325
I0
tp432
a(I77
I1
F0.375
g327
I0
tp433
as(S'lo'
p434
S'recomiendo'
p435
tp436
(lp437
(I48
I17
I0
S'al'
p438
I0
tp439
as(S'first'
p440
S'time'
p441
tp442
(lp443
(I30
I9
I0
S'very'
p444
I10
tp445
a(I30
I9
F0.125
S'first'
p446
I10
tp447
a(I30
I17
F0.125
S'first'
p448
I10
tp449
a(I31
I7
F0.125
S'first'
p450
I10
tp451
a(I33
I29
F1.0
S'good'
p452
I10
tp453
a(I33
I29
F0.125
S'first'
p454
I10
tp455
a(I67
I37
F0.125
S'first'
p456
I10
tp457
a(I80
I60
F0.125
S'first'
p458
I10
tp459
as(S'retina'
p460
S'display'
p461
tp462
(lp463
(I33
I28
I0
S'standard'
p464
I0
tp465
a(I78
I30
I0
S'fast'
p466
I0
tp467
a(I78
I30
F0.5
S'clear'
p468
I0
tp469
a(I87
I33
I0
S'cool'
p470
I0
tp471
a(I87
I33
F0.25
S'responsive'
p472
I0
tp473
as(S'samsung'
p474
S'galaxy'
p475
S's4'
p476
tp477
(lp478
(I4
I4
F0.75
S'due'
p479
I0
tp480
a(I4
I4
F0.75
g479
I0
tp481
a(I2
I24
F0.125
S'first'
p482
I7
tp483
a(I2
I24
F-0.375
S'smaller'
p484
I7
tp485
a(I2
I24
F0.625
S'easier'
p486
I7
tp487
a(I2
I27
I0
S'old'
p488
I7
tp489
a(I56
I8
F0.25
S'bigger'
p490
I7
tp491
as(S'lighting'
p492
S'connector'
p493
tp494
(lp495
(I33
I40
I0
S'great'
p496
I0
tp497
as(S'great'
p498
S'product'
p499
tp500
(lp501
(I39
I19
I0
S'great'
p502
I15
tp503
a(I53
I1
I0
S'great'
p504
I15
tp505
a(I84
I1
I0
S'great'
p506
I15
tp507
a(I84
I1
I0
S'great'
p508
I15
tp509
as(S'much'
p510
S'better'
p511
tp512
(lp513
(I2
I9
F0.375
S'much'
p514
I9
tp515
a(I12
I10
F0.25
S'ok'
p516
I9
tp517
a(I39
I0
F0.375
S'much'
p518
I9
tp519
as(S'camera'
p520
tp521
(lp522
(I10
I11
I0
S'great'
p523
I1
tp524
a(I10
I129
I0
S'great'
p525
I1
tp526
a(I18
I14
F0.25
S'responsive'
p527
I1
tp528
a(I33
I11
F-0.5
S'poor'
p529
I1
tp530
a(I33
I59
I0
S'wish'
p531
I1
tp532
a(I39
I10
I0
S'rear'
p533
I1
tp534
as(S'nano'
p535
S'sim'
p536
S'card'
p537
tp538
(lp539
(I17
I6
F-0.5
g111
I0
tp540
a(I17
I6
F-0.5
g111
I0
tp541
a(I26
I11
I0
S'pin'
p542
I0
tp543
a(I36
I21
I0
S'european'
p544
I0
tp545
a(I78
I2
I0
S'standard'
p546
I0
tp547
a(I17
I6
F-0.5
g111
I0
tp548
as(S'3rd'
p549
S'party'
p550
tp551
(lp552
(I22
I12
I0
S'third'
p553
I0
tp554
as(S'apps'
p555
tp556
(lp557
(I7
I43
I0
S'same'
p558
I0
tp559
a(I10
I105
I0
S'forth'
p560
I0
tp561
a(I15
I2
F0.25
S'favorite'
p562
I0
tp563
a(I18
I28
F0.25
S'recent'
p564
I0
tp565
a(I33
I7
F0.375
S'available'
p566
I0
tp567
a(I33
I17
F0.75
S'worth'
p568
I0
tp569
a(I33
I17
I0
S'useful'
p570
I0
tp571
a(I33
I19
I0
S'most'
p572
I0
tp573
a(I36
I10
F0.875
S'music'
p574
I0
tp575
a(I39
I25
F0.125
S'impressive'
p576
I0
tp577
a(I53
I33
F1.0
S'best'
p578
I0
tp579
a(I53
I34
F0.875
S'music'
p580
I0
tp581
a(I53
I34
F0.125
S'essential'
p582
I0
tp583
a(I53
I35
I0
S'great'
p584
I0
tp585
a(I53
I36
F0.125
S'key'
p586
I0
tp587
a(I56
I1
I0
S'many'
p588
I0
tp589
a(I68
I0
I0
S'close'
p590
I0
tp591
a(I84
I3
F1.0
S'best'
p592
I0
tp593
a(I84
I3
F0.375
S'available'
p594
I0
tp595
a(I87
I17
F-0.625
S'other'
p596
I0
tp597
as(S'amazon'
p598
tp599
(lp600
(I2
I14
F-0.25
S'cheaper'
p601
I13
tp602
a(I17
I10
F0.125
S'usual'
p603
I13
tp604
a(I18
I6
I0
S'more'
p605
I13
tp606
as.