(dp0
(S'service'
p1
tp2
(lp3
(I5
I36
I0
S'promotional'
p4
I16
tp5
a(I8
I1
F-0.5
S'certain'
p6
I16
tp7
a(I8
I10
I0
S'fastest'
p8
I16
tp9
a(I8
I27
F0.375
S'available'
p10
I16
tp11
a(I9
I6
F0.125
S'impressive'
p12
I16
tp13
a(I12
I104
F-0.375
S'near'
p14
I16
tp15
a(I13
I7
I0
S'fewer'
p16
I16
tp17
a(I13
I18
I0
S'great'
p18
I16
tp19
as(S'metro'
p20
S'pcs'
p21
tp22
(lp23
(I1
I21
I0
S'corporate'
p24
I0
tp25
a(I1
I21
I0
S'corporate'
p26
I0
tp27
a(I5
I35
F-0.625
S'glad'
p28
I0
tp29
a(I5
I53
I0
S'fastest'
p30
I0
tp31
a(I8
I3
I0
S'local'
p32
I0
tp33
a(I8
I25
F-0.625
S'bad'
p34
I0
tp35
a(I11
I3
I0
S'few'
p36
I0
tp37
a(I5
I35
F-0.625
g28
I1
tp38
a(I8
I3
I0
g32
I1
tp39
a(I10
I7
F0.875
S'happy'
p40
I1
tp41
a(I12
I67
I0
S'own'
p42
I1
tp43
a(I12
I67
I0
S'site'
p44
I1
tp45
a(I12
I135
F0.375
S'new'
p46
I1
tp47
as(S'cdma'
p48
tp49
(lp50
(I5
I25
I0
S'current'
p51
I0
tp52
a(I5
I30
F0.5
S'rid'
p53
I0
tp54
a(I5
I30
I0
S'old'
p55
I0
tp56
a(I13
I9
I0
S'old'
p57
I0
tp58
as(S'data'
p59
tp60
(lp61
(I1
I21
I0
S'specific'
p62
I13
tp63
a(I12
I105
I0
S'slower'
p64
I13
tp65
a(I12
I113
F-0.5
S'less'
p66
I13
tp67
a(I12
I113
I0
S'least'
p68
I13
tp69
as(S'other'
p70
S'carriers'
p71
tp72
(lp73
(I5
I58
F-0.625
S'other'
p74
I0
tp75
a(I5
I81
F-0.625
S'other'
p76
I0
tp77
a(I12
I135
I0
S'few'
p78
I0
tp79
a(I12
I135
F-0.625
S'other'
p80
I0
tp81
as(S'coverage'
p82
S'maps'
p83
tp84
(lp85
(I4
I18
F-0.5
S'sure'
p86
I0
tp87
a(I4
I18
F-0.625
S'inaccurate'
p88
I0
tp89
a(I1
I22
F0.625
S'aware'
p90
I0
tp91
a(I4
I12
F0.25
S'main'
p92
I0
tp93
a(I4
I18
F-0.5
g86
I0
tp94
a(I5
I46
F0.375
S'extended'
p95
I0
tp96
a(I5
I47
F0.375
S'extended'
p97
I0
tp98
a(I13
I22
F0.875
S'nice'
p99
I0
tp100
as(S'metropcs'
p101
tp102
(lp103
(I1
I21
F-0.5
S'call'
p104
I0
tp105
a(I5
I24
F0.375
S'new'
p106
I0
tp107
a(I11
I10
I0
S'later'
p108
I0
tp109
a(I12
I20
F0.375
S'available'
p110
I0
tp111
a(I13
I7
I0
S'old'
p112
I0
tp113
as(S'galaxy'
p114
tp115
(lp116
(I4
I8
F0.25
S'original'
p117
I0
tp118
a(I12
I32
F-0.25
S'white'
p119
I0
tp120
as(S'network'
p121
tp122
(lp123
(I1
I7
I0
S'serviceable'
p124
I0
tp125
a(I1
I20
F-0.625
S'free'
p126
I0
tp127
a(I5
I31
F0.375
S'new'
p128
I0
tp129
as(S'sim'
p130
S'card'
p131
tp132
(lp133
(I12
I66
I0
S'most'
p134
I0
tp135
a(I12
I66
F-0.75
S'likely'
p136
I0
tp137
as(S'samsung'
p138
tp139
(lp140
(I3
I12
F0.5
S'upgraded'
p141
I7
tp142
a(I5
I51
F0.375
S'much'
p143
I7
tp144
a(I11
I26
F0.625
S'kind'
p145
I7
tp146
as(S'coverage'
p147
S'map'
p148
tp149
(lp150
(I4
I12
F-0.5
S'separate'
p151
I0
tp152
a(I4
I12
F0.25
g92
I0
tp153
a(I4
I18
F-0.5
g86
I0
tp154
as(S'camera'
p155
tp156
(lp157
(I7
I6
F0.5
S'clear'
p158
I1
tp159
a(I7
I6
F0.125
S'digital'
p160
I1
tp161
a(I11
I32
I0
S'great'
p162
I1
tp163
a(I11
I95
I0
S'fast'
p164
I1
tp165
a(I11
I102
F0.125
S'solid'
p166
I1
tp167
as(S'contract'
p168
tp169
(lp170
(I9
I10
F0.125
S'able'
p171
I0
tp172
a(I9
I10
F-0.25
S'cheaper'
p173
I0
tp174
as(S'battery'
p175
S'life'
p176
tp177
(lp178
(I3
I6
I0
S'minimal'
p179
I1
tp180
a(I12
I55
F1.0
S'good'
p181
I1
tp182
a(I0
I7
F-0.875
S'hard'
p183
I15
tp184
a(I0
I7
F-0.5
S'separate'
p185
I15
tp186
a(I1
I5
F0.125
S'able'
p187
I15
tp188
a(I1
I5
F0.375
S'extra'
p189
I15
tp190
a(I3
I6
I0
g179
I15
tp191
a(I3
I15
F0.375
S'new'
p192
I15
tp193
a(I11
I111
F-0.625
S'bad'
p194
I15
tp195
a(I11
I111
F-0.5
S'long'
p196
I15
tp197
a(I11
I121
F0.375
S'extended'
p198
I15
tp199
a(I12
I55
F1.0
g181
I15
tp200
as.