(dp0
(S'usb'
p1
S'cable'
p2
tp3
(lp4
(I3
I2
I0
S'cable'
p5
I2
tp6
a(I3
I2
F-0.75
S'short'
p7
I2
tp8
as(S'sd'
p9
S'card'
p10
tp11
(lp12
(I3
I5
I0
S'external'
p13
I0
tp14
a(I3
I8
I0
S'different'
p15
I0
tp16
as(S'only'
p17
S'thing'
p18
tp19
(lp20
(I6
I19
I0
S'only'
p21
I13
tp22
a(I7
I8
I0
S'only'
p23
I13
tp24
a(I14
I0
F1.0
S'good'
p25
I13
tp26
a(I14
I0
I0
S'only'
p27
I13
tp28
a(I17
I0
I0
S'only'
p29
I13
tp30
a(I17
I0
F1.0
S'good'
p31
I13
tp32
a(I20
I2
I0
S'only'
p33
I13
tp34
as.