(dp0
(S'screen'
p1
S'size'
p2
tp3
(lp4
(I7
I2
F0.875
S'nice'
p5
I3
tp6
a(I9
I11
F-0.375
S'small'
p7
I3
tp8
a(I21
I33
I0
S'large'
p9
I3
tp10
a(I21
I48
F0.5
S'clear'
p11
I3
tp12
a(I21
I48
F0.25
S'sharp'
p13
I3
tp14
a(I26
I7
I0
S'big'
p15
I3
tp16
a(I46
I4
F0.25
S'bigger'
p17
I3
tp18
a(I70
I0
I0
S'big'
p19
I3
tp20
a(I101
I11
F1.0
S'good'
p21
I3
tp22
as(S'love'
p23
S'screen'
p24
tp25
(lp26
(I21
I79
I0
S'big'
p27
I0
tp28
a(I31
I2
I0
S'big'
p29
I0
tp30
a(I40
I0
F0.75
S'beautiful'
p31
I0
tp32
a(I40
I0
I0
S'big'
p33
I0
tp34
a(I47
I41
I0
S'big'
p35
I0
tp36
a(I74
I25
I0
S'big'
p37
I0
tp38
a(I75
I34
F1.0
S'good'
p39
I0
tp40
a(I82
I19
F-0.75
S'bright'
p41
I0
tp42
a(I91
I21
I0
S'large'
p43
I0
tp44
a(I97
I31
I0
S'big'
p45
I0
tp46
a(I109
I1
F0.875
S'nice'
p47
I0
tp48
as(S'battery'
p49
S'life'
p50
tp51
(lp52
(I3
I1
I0
S'adequate'
p53
I1
tp54
a(I5
I15
F-0.75
S'short'
p55
I1
tp56
a(I19
I10
F-0.5
S'poor'
p57
I1
tp58
a(I21
I21
F1.0
S'good'
p59
I1
tp60
a(I25
I9
I0
S'fast'
p61
I1
tp62
a(I41
I28
F-0.75
S'short'
p63
I1
tp64
a(I41
I63
I0
S'net'
p65
I1
tp66
a(I43
I27
F1.0
S'good'
p67
I1
tp68
a(I44
I10
F-0.625
S'sorry'
p69
I1
tp70
a(I47
I16
F1.0
S'good'
p71
I1
tp72
a(I47
I165
F-0.5
S'longer'
p73
I1
tp74
a(I60
I10
F1.0
S'good'
p75
I1
tp76
a(I60
I10
I0
S'net'
p77
I1
tp78
a(I82
I5
F1.0
S'good'
p79
I1
tp80
a(I82
I10
F-0.625
S'average'
p81
I1
tp82
a(I83
I32
I0
S'great'
p83
I1
tp84
a(I86
I36
I0
S'great'
p85
I1
tp86
a(I94
I4
F-0.625
S'bad'
p87
I1
tp88
a(I95
I23
F-0.5
S'less'
p89
I1
tp90
a(I95
I23
F0.125
S'last'
p91
I1
tp92
a(I97
I0
F-0.875
S'worst'
p93
I1
tp94
a(I100
I13
F1.0
S'good'
p95
I1
tp96
a(I101
I6
F1.0
S'good'
p97
I1
tp98
a(I101
I6
I-100
S'age/usage'
p99
I1
tp100
a(I104
I7
I0
S'great'
p101
I1
tp102
a(I108
I10
I0
S'great'
p103
I1
tp104
a(I109
I6
F0.125
S'first'
p105
I1
tp106
a(I3
I1
I0
g53
I19
tp107
a(I19
I10
F-0.5
g57
I19
tp108
a(I21
I21
F1.0
g59
I19
tp109
a(I41
I28
F-0.75
g63
I19
tp110
a(I44
I10
F-0.625
g69
I19
tp111
a(I47
I16
F1.0
g71
I19
tp112
a(I47
I165
F-0.5
g73
I19
tp113
a(I60
I10
F1.0
g75
I19
tp114
a(I60
I10
I0
g77
I19
tp115
a(I82
I10
F-0.625
g81
I19
tp116
a(I83
I32
I0
g83
I19
tp117
a(I86
I36
I0
g85
I19
tp118
a(I94
I4
F-0.625
g87
I19
tp119
a(I97
I0
F-0.875
g93
I19
tp120
a(I101
I6
F1.0
g97
I19
tp121
a(I104
I7
I0
g101
I19
tp122
a(I5
I15
F-0.75
g55
I15
tp123
a(I5
I35
F0.125
S'last'
p124
I15
tp125
a(I10
I8
F0.125
S'last'
p126
I15
tp127
a(I10
I8
F-0.5
S'long'
p128
I15
tp129
a(I21
I8
F0.875
S'nice'
p130
I15
tp131
a(I21
I9
F-0.625
S'bad'
p132
I15
tp133
a(I21
I9
F-0.625
S'other'
p134
I15
tp135
a(I21
I22
F0.375
S'new'
p136
I15
tp137
a(I21
I25
F0.125
S'last'
p138
I15
tp139
a(I21
I67
F-0.625
S'bad'
p140
I15
tp141
a(I25
I9
I0
g61
I15
tp142
a(I41
I33
F0.375
S'dependable'
p143
I15
tp144
a(I41
I63
I0
g65
I15
tp145
a(I43
I27
F1.0
g67
I15
tp146
a(I49
I1
F0.5
S'live'
p147
I15
tp148
a(I51
I0
F0.125
S'last'
p149
I15
tp150
a(I56
I63
F-0.875
S'worst'
p151
I15
tp152
a(I82
I5
F1.0
g79
I15
tp153
a(I95
I23
F-0.5
g89
I15
tp154
a(I95
I23
F0.125
g91
I15
tp155
a(I100
I13
F1.0
g95
I15
tp156
a(I108
I10
I0
g103
I15
tp157
a(I108
I69
I0
S'charged'
p158
I15
tp159
a(I109
I6
F0.125
g105
I15
tp160
as(S'zte'
p161
S'warp'
p162
tp163
(lp164
(I48
I12
I0
S'old'
p165
I0
tp166
as(S'text'
p167
tp168
(lp169
(I41
I78
F1.0
S'enjoy'
p170
I18
tp171
a(I43
I17
F0.75
S'receive'
p172
I18
tp173
a(I56
I13
F1.0
S'better'
p174
I18
tp175
a(I90
I24
F0.5
S'whole'
p176
I18
tp177
as(S'with'
p178
S'boost'
p179
S'mobile'
p180
tp181
(lp182
(I40
I0
F0.375
S'new'
p183
I0
tp184
a(I54
I9
F-0.625
S'bad'
p185
I0
tp186
a(I71
I7
I0
S'mobile'
p187
I0
tp188
a(I84
I27
I0
S'mobile'
p189
I0
tp190
a(I16
I2
F0.5
S'second'
p191
I0
tp192
a(I40
I0
F0.375
g183
I0
tp193
a(I40
I7
F1.0
S'best'
p194
I0
tp195
a(I44
I35
F-0.5
S'less'
p196
I0
tp197
a(I50
I2
F0.625
S'beat'
p198
I0
tp199
a(I54
I9
F-0.625
g185
I0
tp200
a(I61
I3
F0.375
S'available'
p201
I0
tp202
a(I68
I0
I0
S'current'
p203
I0
tp204
a(I71
I7
I0
g187
I0
tp205
a(I83
I20
F-0.125
S'slow'
p206
I0
tp207
a(I83
I47
F1.0
S'good'
p208
I0
tp209
a(I84
I27
I0
g189
I0
tp210
a(I61
I3
F0.375
g201
I0
tp211
a(I12
I2
I0
S'site'
p212
I0
tp213
a(I12
I2
F0.625
S'wanted'
p214
I0
tp215
a(I16
I2
F0.5
g191
I0
tp216
a(I29
I6
I0
S'great'
p217
I0
tp218
a(I35
I7
F0.625
S'easy'
p219
I0
tp220
a(I40
I0
F0.375
g183
I0
tp221
a(I40
I7
F1.0
g194
I0
tp222
a(I40
I12
F0.375
S'available'
p223
I0
tp224
a(I44
I13
F-0.625
S'other'
p225
I0
tp226
a(I44
I35
F-0.5
g196
I0
tp227
a(I47
I95
F1.0
S'best'
p228
I0
tp229
a(I50
I2
F0.625
g198
I0
tp230
a(I54
I9
F-0.625
g185
I0
tp231
a(I60
I14
F-0.125
S'mine'
p232
I0
tp233
a(I60
I14
I0
S'august'
p234
I0
tp235
a(I68
I0
I0
g203
I0
tp236
a(I71
I7
I0
g187
I0
tp237
a(I83
I20
F-0.125
g206
I0
tp238
a(I83
I47
F1.0
g208
I0
tp239
a(I84
I27
I0
g189
I0
tp240
a(I89
I1
F-0.625
S'other'
p241
I0
tp242
a(I91
I21
F0.125
S'first'
p243
I0
tp244
a(I108
I2
F1.0
S'better'
p245
I0
tp246
a(I108
I2
F-0.625
S'other'
p247
I0
tp248
a(I108
I61
I0
S'great'
p249
I0
tp250
a(I109
I20
F0.5
S'second'
p251
I0
tp252
as(S'warp'
p253
S'sequent'
p254
tp255
(lp256
(I81
I17
F-0.125
S'slow'
p257
I0
tp258
as(S'ice'
p259
S'cream'
p260
tp261
(lp262
(I40
I6
I0
S'android'
p263
I2
tp264
a(I41
I47
F0.375
S'new'
p265
I2
tp266
as(S'camera'
p267
tp268
(lp269
(I3
I17
F1.0
S'good'
p270
I1
tp271
a(I3
I17
I0
S'great'
p272
I1
tp273
a(I21
I48
I0
S'rear'
p274
I1
tp275
a(I30
I1
F1.0
S'best'
p276
I1
tp277
a(I31
I27
F0.375
S'flash'
p278
I1
tp279
a(I38
I2
F0.875
S'nice'
p280
I1
tp281
a(I41
I44
I0
S'great'
p282
I1
tp283
a(I47
I57
F1.0
S'good'
p284
I1
tp285
a(I47
I98
I0
S'great'
p286
I1
tp287
a(I48
I17
F0.875
S'nice'
p288
I1
tp289
a(I55
I8
I0
S'fast'
p290
I1
tp291
a(I55
I8
F1.0
S'good'
p292
I1
tp293
a(I56
I59
F1.0
S'best'
p294
I1
tp295
a(I58
I2
F1.0
S'good'
p296
I1
tp297
a(I71
I15
F1.0
S'good'
p298
I1
tp299
a(I73
I9
I0
S'great'
p300
I1
tp301
a(I75
I17
F-0.75
S'little'
p302
I1
tp303
a(I77
I8
F1.0
S'better'
p304
I1
tp305
a(I77
I13
F-0.125
S'slow'
p306
I1
tp307
a(I82
I16
F0.875
S'nice'
p308
I1
tp309
a(I83
I29
I0
S'rear'
p310
I1
tp311
a(I84
I16
F1.0
S'good'
p312
I1
tp313
a(I84
I22
F0.875
S'nice'
p314
I1
tp315
as(S'apps'
p316
tp317
(lp318
(I3
I17
I0
S'useful'
p319
I0
tp320
a(I5
I28
I0
S'different'
p321
I0
tp322
a(I19
I12
F-0.125
S'overall'
p323
I0
tp324
a(I19
I12
I0
S'very'
p325
I0
tp326
a(I19
I12
I0
S'great'
p327
I0
tp328
a(I21
I48
F-0.625
S'free'
p329
I0
tp330
a(I31
I22
I0
S'few'
p331
I0
tp332
a(I41
I2
I0
S'fast'
p333
I0
tp334
a(I41
I2
F0.625
S'easy'
p335
I0
tp336
a(I41
I85
F-0.625
S'free'
p337
I0
tp338
a(I43
I25
F-0.625
S'free'
p339
I0
tp340
a(I47
I139
I0
S'such'
p341
I0
tp342
a(I47
I139
F-0.125
S'slow'
p343
I0
tp344
a(I47
I157
F-0.5
S'open'
p345
I0
tp346
a(I56
I63
F0.5
S'added'
p347
I0
tp348
a(I60
I1
I0
S'more'
p349
I0
tp350
a(I60
I1
F0.375
S'available'
p351
I0
tp352
a(I70
I0
I0
S'great'
p353
I0
tp354
a(I73
I2
I0
S'internet'
p355
I0
tp356
a(I73
I2
I0
S'android'
p357
I0
tp358
a(I83
I24
F0.25
S'favorite'
p359
I0
tp360
a(I83
I24
I0
S'such'
p361
I0
tp362
a(I86
I31
I0
S'different'
p363
I0
tp364
a(I90
I31
F0.25
S'helpful'
p365
I0
tp366
a(I94
I8
I0
S'many'
p367
I0
tp368
a(I97
I9
F-0.5
S'open'
p369
I0
tp370
a(I100
I7
I0
S'useful'
p371
I0
tp372
a(I108
I29
F0.375
S'new'
p373
I0
tp374
as(S'internet'
p375
tp376
(lp377
(I4
I11
F-0.125
S'slow'
p378
I6
tp379
a(I20
I8
I0
S'least'
p380
I6
tp381
a(I21
I62
F-0.75
S'unable'
p382
I6
tp383
a(I47
I8
F-0.125
S'slow'
p384
I6
tp385
a(I56
I15
I0
S'next'
p386
I6
tp387
a(I62
I6
I0
S'faster'
p388
I6
tp389
a(I94
I7
F-0.125
S'slow'
p390
I6
tp391
a(I107
I17
I0
S'great'
p392
I6
tp393
as(S'galaxy'
p394
tp395
(lp396
(I40
I0
I0
S'big'
p397
I0
tp398
a(I75
I41
F1.0
S'better'
p399
I0
tp400
as(S'transform'
p401
S'ultra'
p402
tp403
(lp404
(I25
I18
I0
S'old'
p405
I0
tp406
as(S'twice'
p407
S'a'
p408
S'day'
p409
tp410
(lp411
(I41
I41
I0
S'least'
p412
I0
tp413
as(S'on'
p414
S'boost'
p415
S'mobile'
p416
tp417
(lp418
(I16
I2
F0.5
g191
I0
tp419
a(I40
I0
F0.375
g183
I0
tp420
a(I40
I7
F1.0
g194
I0
tp421
a(I44
I35
F-0.5
g196
I0
tp422
a(I50
I2
F0.625
g198
I0
tp423
a(I54
I9
F-0.625
g185
I0
tp424
a(I61
I3
F0.375
g201
I0
tp425
a(I68
I0
I0
g203
I0
tp426
a(I71
I7
I0
g187
I0
tp427
a(I83
I20
F-0.125
g206
I0
tp428
a(I83
I47
F1.0
g208
I0
tp429
as(S'sometimes'
p430
tp431
(lp432
(I62
I8
I0
S'quick'
p433
I17
tp434
as(S'sd'
p435
S'card'
p436
tp437
(lp438
(I43
I14
F0.5
S'compatible'
p439
I0
tp440
a(I47
I25
F0.125
S'first'
p441
I0
tp442
a(I56
I27
I0
S'most'
p443
I0
tp444
as(g408
S'long'
p445
S'time'
p446
tp447
(lp448
(I25
I22
F-0.5
S'long'
p449
I12
tp450
a(I47
I80
F-0.5
S'long'
p451
I12
tp452
a(I47
I104
F-0.5
S'long'
p453
I12
tp454
a(I47
I104
F-0.625
S'other'
p455
I12
tp456
a(I47
I123
F-0.5
S'long'
p457
I12
tp458
a(I56
I22
F-0.5
S'long'
p459
I12
tp460
a(I61
I0
F-0.5
S'long'
p461
I12
tp462
a(I105
I27
F-0.5
S'long'
p463
I12
tp464
as(S'android'
p465
tp466
(lp467
(I5
I18
F0.375
S'reliable'
p468
I0
tp469
a(I21
I53
F0.125
S'first'
p470
I0
tp471
a(I26
I9
F0.125
S'first'
p472
I0
tp473
a(I29
I0
F0.125
S'first'
p474
I0
tp475
a(I35
I19
I0
S'great'
p476
I0
tp477
a(I37
I19
F1.0
S'good'
p478
I0
tp479
a(I37
I19
I0
S'competitive'
p480
I0
tp481
a(I40
I0
F0.375
S'newest'
p482
I0
tp483
a(I41
I46
F-0.625
S'other'
p484
I0
tp485
a(I55
I4
F-0.625
S'other'
p486
I0
tp487
a(I55
I4
F0.125
S'usual'
p488
I0
tp489
a(I76
I0
F0.125
S'first'
p490
I0
tp491
a(I83
I21
F0.375
S'newest'
p492
I0
tp493
a(I95
I21
F0.375
S'new'
p494
I0
tp495
a(I100
I9
F0.5
S'second'
p496
I0
tp497
as(S'voice'
p498
tp499
(lp500
(I0
I21
F0.125
S'last'
p501
I4
tp502
a(I0
I21
I0
S'least'
p503
I4
tp504
a(I0
I21
F0.375
S'available'
p505
I4
tp506
a(I56
I31
F-0.5
S'sudden'
p507
I4
tp508
a(I56
I31
F0.375
S'new'
p509
I4
tp510
a(I81
I24
F1.0
S'good'
p511
I4
tp512
a(I83
I7
F0.5
S'told'
p513
I4
tp514
a(I83
I7
F0.875
S'nice'
p515
I4
tp516
a(I108
I20
F0.375
S'new'
p517
I4
tp518
as(S'large'
p519
S'screen'
p520
tp521
(lp522
(I21
I33
I0
g9
I3
tp523
a(I25
I8
I0
S'large'
p524
I3
tp525
a(I41
I47
I0
S'large'
p526
I3
tp527
a(I41
I47
I0
S'great'
p528
I3
tp529
a(I47
I39
F0.25
S'larger'
p530
I3
tp531
a(I47
I39
F0.625
S'easier'
p532
I3
tp533
a(I50
I13
I0
S'large'
p534
I3
tp535
a(I68
I1
F0.25
S'larger'
p536
I3
tp537
a(I73
I4
I0
S'large'
p538
I3
tp539
a(I84
I23
I0
S'large'
p540
I3
tp541
a(I91
I21
I0
g43
I3
tp542
a(I95
I2
F0.25
S'larger'
p543
I3
tp544
a(I100
I13
I0
S'large'
p545
I3
tp546
a(I100
I13
F-0.75
S'bright'
p547
I3
tp548
a(I113
I1
I0
S'large'
p549
I3
tp550
as(S'slow'
p551
tp552
(lp553
(I47
I136
F-0.75
S'little'
p554
I17
tp555
a(I47
I136
F-0.125
S'overall'
p556
I17
tp557
as(S'big'
p558
S'screen'
p559
tp560
(lp561
(I3
I19
F0.25
S'bigger'
p562
I1
tp563
a(I21
I79
I0
g27
I1
tp564
a(I31
I2
I0
g29
I1
tp565
a(I40
I0
F0.75
g31
I1
tp566
a(I40
I0
I0
g33
I1
tp567
a(I40
I3
I0
S'big'
p568
I1
tp569
a(I46
I4
F0.25
g17
I1
tp570
a(I47
I41
I0
g35
I1
tp571
a(I47
I50
I0
S'big'
p572
I1
tp573
a(I47
I121
I0
S'big'
p574
I1
tp575
a(I47
I121
F-0.75
S'bright'
p576
I1
tp577
a(I47
I164
I0
S'big'
p578
I1
tp579
a(I66
I0
I0
S'big'
p580
I1
tp581
a(I74
I25
I0
g37
I1
tp582
a(I85
I0
I0
S'big'
p583
I1
tp584
a(I87
I1
I0
S'big'
p585
I1
tp586
a(I87
I1
F0.125
S'enough'
p587
I1
tp588
a(I100
I13
I0
g545
I1
tp589
a(I100
I13
F-0.75
g547
I1
tp590
a(I104
I13
I0
S'big'
p591
I1
tp592
a(I107
I10
I0
S'big'
p593
I1
tp594
a(I107
I10
F0.875
S'nice'
p595
I1
tp596
a(I108
I73
I0
S'big'
p597
I1
tp598
a(I108
I73
F0.5
S'clear'
p599
I1
tp600
a(I108
I73
F0.75
S'beautiful'
p601
I1
tp602
as(S'task'
p603
S'manager'
p604
tp605
(lp606
(I90
I14
I0
S'quick'
p607
I0
tp608
as(S'calls'
p609
tp610
(lp611
(I5
I5
F-0.25
S'dropped'
p612
I0
tp613
a(I5
I14
F0.875
S'music'
p614
I0
tp615
a(I19
I3
F0.75
S'due'
p616
I0
tp617
a(I41
I19
I0
S'least'
p618
I0
tp619
a(I50
I15
I0
S'real'
p620
I0
tp621
a(I50
I15
I0
S'signal'
p622
I0
tp623
a(I52
I1
I0
S'most'
p624
I0
tp625
a(I52
I1
F0.5
S'clear'
p626
I0
tp627
a(I56
I32
F0.875
S'important'
p628
I0
tp629
a(I84
I11
F0.75
S'receive'
p630
I0
tp631
a(I86
I27
I0
S'great'
p632
I0
tp633
a(I94
I10
F-0.625
S'unclear'
p634
I0
tp635
as(S'speaker'
p636
tp637
(lp638
(I26
I6
F0.5
S'clear'
p639
I8
tp640
a(I43
I14
F-0.5
S'regular'
p641
I8
tp642
a(I44
I45
F-0.25
S'low'
p643
I8
tp644
a(I44
I45
F-0.125
S'overall'
p645
I8
tp646
a(I56
I53
I0
S'external'
p647
I8
tp648
a(I67
I4
F0.375
S'loud'
p649
I8
tp650
a(I83
I26
I0
S'adequate'
p651
I8
tp652
a(I83
I27
I0
S'rear'
p653
I8
tp654
a(I108
I44
F1.0
S'good'
p655
I8
tp656
a(I108
I46
I0
S'external'
p657
I8
tp658
as(S'lg'
p659
S'venice'
p660
tp661
(lp662
(I14
I0
F1.0
S'better'
p663
I0
tp664
a(I21
I62
F-0.625
S'bad'
p665
I0
tp666
a(I40
I12
F1.0
S'best'
p667
I0
tp668
a(I41
I55
I0
S'such'
p669
I0
tp670
a(I47
I59
F0.375
S'similar'
p671
I0
tp672
a(I47
I168
I0
S'more'
p673
I0
tp674
a(I62
I0
F0.25
S'favorite'
p675
I0
tp676
a(I82
I24
F0.5
S'second'
p677
I0
tp678
a(I83
I2
F1.0
S'better'
p679
I0
tp680
a(I83
I8
F0.875
S'lucky'
p681
I0
tp682
a(I113
I0
F0.875
S'happy'
p683
I0
tp684
a(I14
I0
F1.0
g663
I0
tp685
a(I40
I12
F1.0
g667
I0
tp686
a(I41
I55
I0
g669
I0
tp687
a(I47
I168
I0
g673
I0
tp688
a(I62
I0
F0.25
g675
I0
tp689
a(I75
I6
F0.125
S'usual'
p690
I0
tp691
a(I75
I29
F0.625
S'perfect'
p692
I0
tp693
a(I83
I2
F1.0
g679
I0
tp694
a(I100
I10
I0
S'great'
p695
I0
tp696
as(S'much'
p697
S'better'
p698
tp699
(lp700
(I60
I11
F0.375
S'much'
p701
I9
tp702
a(I70
I2
F0.375
S'much'
p703
I9
tp704
a(I86
I22
F0.375
S'much'
p705
I9
tp706
as(S'samsung'
p707
S'transform'
p708
tp709
(lp710
(I77
I7
I0
S'old'
p711
I0
tp712
a(I43
I8
I0
S'old'
p713
I7
tp714
a(I77
I7
I0
g711
I7
tp715
a(I90
I3
I0
S'close'
p716
I7
tp717
as(S'takes'
p718
tp719
(lp720
(I109
I11
F0.875
S'nice'
p721
I19
tp722
a(I109
I11
I0
S'realty'
p723
I19
tp724
as(S'customer'
p725
S'service'
p726
tp727
(lp728
(I64
I7
F1.0
S'better'
p729
I3
tp730
a(I74
I0
F1.0
S'best'
p731
I3
tp732
a(I77
I16
F0.125
S'first'
p733
I3
tp734
a(I14
I1
F0.5
S'temporary'
p735
I16
tp736
a(I26
I21
I0
S'fast'
p737
I16
tp738
a(I37
I4
F1.0
S'good'
p739
I16
tp740
a(I56
I4
I0
S'same'
p741
I16
tp742
a(I106
I0
F-0.25
S'low'
p743
I16
tp744
a(I106
I0
F-0.625
S'other'
p745
I16
tp746
a(I109
I5
F1.0
S'better'
p747
I16
tp748
as(S'wifi'
p749
tp750
(lp751
(I11
I7
F0.125
S'capable'
p752
I0
tp753
a(I47
I4
I0
S'great'
p754
I0
tp755
a(I56
I19
I0
S'fast'
p756
I0
tp757
as(g408
S'great'
p758
S'price'
p759
tp760
(lp761
(I1
I1
I0
S'great'
p762
I9
tp763
a(I4
I1
I0
S'great'
p764
I9
tp765
a(I36
I0
I0
S'great'
p766
I9
tp767
a(I37
I13
I0
S'great'
p768
I9
tp769
a(I40
I4
I0
S'great'
p770
I9
tp771
a(I41
I49
I0
S'great'
p772
I9
tp773
a(I44
I34
I0
S'great'
p774
I9
tp775
a(I50
I4
I0
S'great'
p776
I9
tp777
a(I66
I11
I0
S'great'
p778
I9
tp779
a(I68
I2
I0
S'great'
p780
I9
tp781
a(I68
I4
I0
S'great'
p782
I9
tp783
a(I75
I40
I0
S'great'
p784
I9
tp785
a(I76
I0
I0
S'great'
p786
I9
tp787
a(I82
I11
F-0.125
S'breast'
p788
I9
tp789
a(I86
I30
F0.5
S'reasonable'
p790
I9
tp791
a(I96
I6
F1.0
S'good'
p792
I9
tp793
a(I1
I1
I0
g762
I19
tp794
a(I4
I1
I0
g764
I19
tp795
a(I36
I0
I0
g766
I19
tp796
a(I37
I13
I0
g768
I19
tp797
a(I40
I4
I0
g770
I19
tp798
a(I41
I49
I0
g772
I19
tp799
a(I44
I34
I0
g774
I19
tp800
a(I50
I4
I0
g776
I19
tp801
a(I66
I11
I0
g778
I19
tp802
a(I68
I2
I0
g780
I19
tp803
a(I68
I4
I0
g782
I19
tp804
a(I75
I40
I0
g784
I19
tp805
a(I76
I0
I0
g786
I19
tp806
a(I82
I11
F-0.125
g788
I19
tp807
a(I86
I30
F0.5
g790
I19
tp808
a(I96
I6
F1.0
g792
I19
tp809
as(S'amazon'
p810
tp811
(lp812
(I12
I3
I0
S'more'
p813
I13
tp814
a(I19
I0
I0
S'high'
p815
I13
tp816
a(I47
I22
F0.375
S'new'
p817
I13
tp818
a(I83
I9
F-0.125
S'mine'
p819
I13
tp820
as(S'coverage'
p821
S'map'
p822
tp823
(lp824
(I83
I42
F0.25
S'study'
p825
I0
tp826
as(S'touch'
p827
S'screen'
p828
tp829
(lp830
(I21
I37
F-0.75
S'tough'
p831
I2
tp832
a(I26
I13
F-0.5
S'afraid'
p833
I2
tp834
a(I26
I13
F0.5
S'touch'
p835
I2
tp836
a(I26
I14
F0.125
S'first'
p837
I2
tp838
a(I41
I44
I0
S'pic'
p839
I2
tp840
a(I43
I16
F0.5
S'touch'
p841
I2
tp842
a(I47
I81
I0
S'big'
p843
I2
tp844
a(I60
I2
F-0.625
S'light'
p845
I2
tp846
a(I60
I2
F-0.375
S'simple'
p847
I2
tp848
a(I74
I12
I0
S'sensitive'
p849
I2
tp850
a(I74
I15
F0.5
S'touch'
p851
I2
tp852
a(I86
I15
F0.875
S'nice'
p853
I2
tp854
a(I86
I18
F0.5
S'touch'
p855
I2
tp856
as(S'sound'
p857
S'quality'
p858
tp859
(lp860
(I41
I79
I0
S'wish'
p861
I0
tp862
a(I43
I14
I0
S'great'
p863
I0
tp864
a(I74
I7
F-0.25
S'low'
p865
I0
tp866
a(I83
I28
I0
S'high'
p867
I0
tp868
a(I108
I45
F1.0
S'better'
p869
I0
tp870
a(I15
I0
F0.25
S'powerful'
p871
I7
tp872
a(I41
I79
I0
g861
I7
tp873
a(I41
I90
I0
S'great'
p874
I7
tp875
a(I43
I14
I0
g863
I7
tp876
a(I90
I7
F1.0
S'good'
p877
I7
tp878
as.