(dp0
(S'international'
p1
S'travel'
p2
tp3
(lp4
(I0
I28
F-0.5
S'international'
p5
I0
tp6
a(I1
I18
F-0.5
S'international'
p7
I0
tp8
a(I2
I7
F-0.5
S'international'
p9
I0
tp10
a(I2
I90
F-0.5
S'international'
p11
I0
tp12
a(I3
I47
F-0.5
S'international'
p13
I0
tp14
a(I0
I28
F-0.5
g5
I19
tp15
a(I1
I18
F-0.5
g7
I19
tp16
a(I2
I7
F-0.5
g9
I19
tp17
a(I2
I90
F-0.5
g11
I19
tp18
a(I3
I47
F-0.5
g13
I19
tp19
as(S'great'
p20
S'value'
p21
tp22
(lp23
(I1
I26
I0
S'great'
p24
I6
tp25
as(S'sound'
p26
S'quality'
p27
tp28
(lp29
(I2
I84
F0.125
S'impressive'
p30
I0
tp31
as(S'battery'
p32
S'life'
p33
tp34
(lp35
(I2
I167
I0
S'great'
p36
I1
tp37
a(I5
I22
I0
S'incredible'
p38
I1
tp39
a(I5
I36
F-0.5
S'longer'
p40
I1
tp41
a(I2
I29
F0.125
S'last'
p42
I15
tp43
a(I5
I36
F-0.5
g40
I15
tp44
as(S'signal'
p45
tp46
(lp47
(I2
I52
F-0.625
S'bad'
p48
I1
tp49
as(S'old'
p50
S'school'
p51
tp52
(lp53
(I3
I23
I0
S'old'
p54
I0
tp55
a(I3
I45
I0
S'old'
p56
I0
tp57
a(I5
I20
I0
S'old'
p58
I0
tp59
as(S'text'
p60
tp61
(lp62
(I2
I96
I0
S'large'
p63
I18
tp64
as(S'a'
p65
S'sim'
p66
S'card'
p67
tp68
(lp69
(I0
I29
F1.0
S'good'
p70
I0
tp71
a(I1
I16
F0.25
S'used'
p72
I0
tp73
a(I1
I16
I0
S'local'
p74
I0
tp75
a(I1
I20
I0
S'british'
p76
I0
tp77
a(I1
I28
F0.625
S'easier'
p78
I0
tp79
a(I1
I29
F-0.625
S'push'
p80
I0
tp81
a(I2
I120
I0
S'local'
p82
I0
tp83
a(I2
I143
F-0.625
S'other'
p84
I0
tp85
a(I2
I159
I0
S'inside'
p86
I0
tp87
a(I2
I159
I0
S'next'
p88
I0
tp89
a(I2
I185
F-0.625
S'free'
p90
I0
tp91
a(I5
I34
I0
S'local'
p92
I0
tp93
a(I5
I44
F-0.5
S'open'
p94
I0
tp95
a(I0
I29
F1.0
g70
I0
tp96
a(I1
I16
F0.25
g72
I0
tp97
a(I1
I16
I0
g74
I0
tp98
a(I1
I20
I0
g76
I0
tp99
a(I1
I28
F0.625
g78
I0
tp100
a(I1
I29
F-0.625
g80
I0
tp101
a(I2
I120
I0
g82
I0
tp102
a(I2
I143
F-0.625
g84
I0
tp103
a(I2
I159
I0
g86
I0
tp104
a(I2
I159
I0
g88
I0
tp105
a(I2
I185
F-0.625
g90
I0
tp106
a(I5
I34
I0
g92
I0
tp107
a(I5
I44
F-0.5
g94
I0
tp108
as(S'service'
p109
S'provider'
p110
tp111
(lp112
(I2
I101
I0
S'great'
p113
I0
tp114
a(I3
I32
I0
S'local'
p115
I0
tp116
as(S'calls'
p117
tp118
(lp119
(I0
I45
F0.5
S'clear'
p120
I0
tp121
as(S'voice'
p122
S'mail'
p123
tp124
(lp125
(I2
I190
F-0.625
S'free'
p126
I0
tp127
as(S'radio'
p128
tp129
(lp130
(I0
I39
F0.875
S'nice'
p131
I0
tp132
as(S'sim'
p133
S'cards'
p134
tp135
(lp136
(I5
I44
F-0.5
g94
I0
tp137
as(S'dual'
p138
S'sim'
p139
tp140
(lp141
(I0
I29
F1.0
g70
I0
tp142
a(I0
I38
F0.625
S'easier'
p143
I0
tp144
a(I2
I7
F-0.25
S'inexpensive'
p145
I0
tp146
as.