(dp0
(S'android'
p1
tp2
(lp3
(I1
I3
F0.125
S'first'
p4
I0
tp5
a(I2
I20
F0.125
S'first'
p6
I0
tp7
a(I4
I7
F1.0
S'best'
p8
I0
tp9
a(I7
I1
I0
S'many'
p10
I0
tp11
a(I9
I6
I0
S'great'
p12
I0
tp13
a(I12
I1
F0.125
S'first'
p14
I0
tp15
a(I13
I91
I0
S'only'
p16
I0
tp17
as(S'net10'
p18
tp19
(lp20
(I10
I5
F-0.25
S'late'
p21
I0
tp22
a(I12
I13
I0
S'old'
p23
I0
tp24
as(S'battery'
p25
S'life'
p26
tp27
(lp28
(I9
I25
F1.0
S'best'
p29
I1
tp30
a(I13
I42
I0
S'third'
p31
I1
tp32
a(I13
I42
F-0.5
S'long'
p33
I1
tp34
a(I9
I25
F1.0
g29
I19
tp35
a(I2
I5
F1.0
S'good'
p36
I15
tp37
a(I12
I5
I0
S'plate'
p38
I15
tp39
a(I13
I42
I0
g31
I15
tp40
a(I13
I42
F-0.5
g33
I15
tp41
as(S'smartphone'
p42
tp43
(lp44
(I1
I0
F1.0
S'good'
p45
I0
tp46
a(I9
I24
F0.125
S'first'
p47
I0
tp48
a(I9
I29
F0.125
S'first'
p49
I0
tp50
a(I9
I32
F-0.125
S'overall'
p51
I0
tp52
a(I9
I32
I0
S'great'
p53
I0
tp54
a(I9
I32
F0.125
S'first'
p55
I0
tp56
as(S'smart'
p57
tp58
(lp59
(I2
I1
F-0.25
S'inexpensive'
p60
I10
tp61
a(I2
I66
F0.125
S'first'
p62
I10
tp63
a(I4
I6
I0
S'great'
p64
I10
tp65
a(I4
I6
F-0.75
S'little'
p66
I10
tp67
a(I11
I0
I0
S'net'
p68
I10
tp69
a(I13
I106
F0.125
S'first'
p70
I10
tp71
as(S'service'
p72
tp73
(lp74
(I9
I29
F-0.125
S'slow'
p75
I16
tp76
a(I9
I29
I0
S'normal'
p77
I16
tp78
a(I13
I18
F-0.625
S'bad'
p79
I16
tp80
a(I13
I92
F0.5
S'rid'
p81
I16
tp82
a(I13
I98
F1.0
S'good'
p83
I16
tp84
a(I15
I11
F-0.5
S'long'
p85
I16
tp86
as(S'apps'
p87
tp88
(lp89
(I1
I5
F-0.375
S'loaded'
p90
I0
tp91
a(I1
I5
I0
S'many'
p92
I0
tp93
a(I5
I10
F-0.375
S'stop'
p94
I0
tp95
a(I10
I6
F-0.125
S'delete'
p96
I0
tp97
as(S'internal'
p98
S'memory'
p99
tp100
(lp101
(I5
I11
I0
S'internal'
p102
I0
tp103
a(I6
I0
I0
S'internal'
p104
I0
tp105
a(I6
I0
I0
S'internal'
p106
I0
tp107
a(I12
I16
I0
S'internal'
p108
I0
tp109
a(I12
I16
I0
S'internal'
p110
I0
tp111
a(I13
I45
I0
S'internal'
p112
I0
tp113
a(I14
I3
F-0.375
S'small'
p114
I0
tp115
a(I14
I3
I0
S'internal'
p116
I0
tp117
a(I2
I8
F-0.25
S'low'
p118
I5
tp119
a(I2
I9
I0
S'quick'
p120
I5
tp121
a(I5
I8
F-0.25
S'low'
p122
I5
tp123
a(I5
I11
I0
g102
I5
tp124
a(I6
I0
I0
g104
I5
tp125
a(I6
I0
I0
g106
I5
tp126
a(I12
I16
I0
g108
I5
tp127
a(I12
I16
I0
g110
I5
tp128
a(I13
I45
I0
g112
I5
tp129
a(I14
I3
F-0.375
g114
I5
tp130
a(I14
I3
I0
g116
I5
tp131
as.