(dp0
(S'menu'
p1
S'system'
p2
tp3
(lp4
(I6
I24
I0
S'adequate'
p5
I0
tp6
as(S'battery'
p7
S'life'
p8
tp9
(lp10
(I6
I150
F1.0
S'good'
p11
I1
tp12
a(I6
I150
F1.0
g11
I19
tp13
a(I3
I4
F-0.75
S'dead'
p14
I15
tp15
a(I6
I75
F0.125
S'last'
p16
I15
tp17
a(I10
I17
I0
S'great'
p18
I15
tp19
a(I10
I17
F0.5
S'live'
p20
I15
tp21
a(I12
I17
F-0.75
S'dead'
p22
I15
tp23
a(I12
I17
F0.375
S'meant'
p24
I15
tp25
as(S'spanish'
p26
tp27
(lp28
(I6
I89
I0
S'english'
p29
I0
tp30
a(I12
I18
I0
S'great'
p31
I0
tp32
as(S'talk'
p33
S'text'
p34
tp35
(lp36
(I8
I6
F-0.375
S'simple'
p37
I0
tp38
a(I12
I48
F-0.5
S'sure'
p39
I18
tp40
as(S'mobile'
p41
S'tracker'
p42
tp43
(lp44
(I10
I20
I0
S'mobile'
p45
I0
tp46
a(I10
I27
I0
S'mobile'
p47
I0
tp48
as(S'language'
p49
tp50
(lp51
(I6
I90
F-0.625
S'other'
p52
I3
tp53
a(I9
I27
F0.125
S'first'
p54
I3
tp55
as(S'sim'
p56
S'card'
p57
tp58
(lp59
(I0
I13
I0
S'great'
p60
I0
tp61
a(I0
I18
I0
S'own'
p62
I0
tp63
a(I0
I30
I0
S'european'
p64
I0
tp65
a(I4
I9
I0
S'overseas'
p66
I0
tp67
a(I6
I55
I0
S'many'
p68
I0
tp69
a(I8
I26
I0
S'local'
p70
I0
tp71
a(I9
I37
I0
S'chinese'
p72
I0
tp73
a(I11
I8
F-0.625
S'free'
p74
I0
tp75
as(S'samsung'
p76
tp77
(lp78
(I2
I2
I0
S'different'
p79
I7
tp80
a(I3
I2
F-0.25
S'past'
p81
I7
tp82
a(I4
I32
F0.5
S'careful'
p83
I7
tp84
a(I6
I11
I0
S'proprietary'
p85
I7
tp86
a(I8
I1
F-0.25
S'inexpensive'
p87
I7
tp88
a(I9
I14
I0
S'proprietary'
p89
I7
tp90
a(I11
I8
F0.75
S'broke'
p91
I7
tp92
a(I11
I8
F0.125
S'usual'
p93
I7
tp94
a(I11
I14
I0
S'old'
p95
I7
tp96
a(I12
I53
I0
S'old'
p97
I7
tp98
as(S'signal'
p99
S'strength'
p100
tp101
(lp102
(I0
I21
I0
S'signal'
p103
I0
tp104
a(I0
I22
I0
S'signal'
p105
I0
tp106
as(S'fm'
p107
S'radio'
p108
tp109
(lp110
(I11
I13
F0.875
S'nice'
p111
I0
tp112
as(S'item'
p113
S'on'
p114
S'list'
p115
tp116
(lp117
(I8
I16
F0.125
S'first'
p118
I0
tp119
as.