(dp0
(S'android'
p1
tp2
(lp3
(I6
I0
F0.125
S'first'
p4
I0
tp5
a(I16
I7
F1.0
S'good'
p6
I0
tp7
a(I21
I1
I0
S'great'
p8
I0
tp9
a(I21
I54
I0
S'basic'
p10
I0
tp11
a(I25
I16
I0
S'basic'
p12
I0
tp13
a(I25
I17
I0
S'basic'
p14
I0
tp15
a(I27
I3
F0.25
S'unlocked'
p16
I0
tp17
a(I27
I10
I0
S'basic'
p18
I0
tp19
as(S'google'
p20
S'play'
p21
tp22
(lp23
(I24
I27
F-0.625
S'free'
p24
I0
tp25
a(I24
I27
F-0.25
S'google'
p26
I0
tp27
as(S'battery'
p28
S'life'
p29
tp30
(lp31
(I10
I3
F1.0
S'good'
p32
I1
tp33
a(I11
I15
F-0.25
S'low'
p34
I1
tp35
a(I15
I7
I0
S'very'
p36
I1
tp37
a(I15
I7
F-0.75
S'short'
p38
I1
tp39
a(I16
I11
F1.0
S'good'
p40
I1
tp41
a(I4
I0
F0.625
S'fair'
p42
I15
tp43
a(I8
I0
F-0.5
S'less'
p44
I15
tp45
a(I11
I15
F-0.25
g34
I15
tp46
a(I15
I7
I0
g36
I15
tp47
a(I15
I7
F-0.75
g38
I15
tp48
a(I15
I9
I0
S'charged'
p49
I15
tp50
a(I15
I60
F-0.5
S'less'
p51
I15
tp52
a(I26
I16
I0
S'same'
p53
I15
tp54
as(S'apps'
p55
tp56
(lp57
(I6
I12
F-0.625
S'other'
p58
I0
tp59
a(I6
I24
F-0.75
S'little'
p60
I0
tp61
a(I10
I1
F-0.125
S'complex'
p62
I0
tp63
a(I15
I34
F0.375
S'available'
p64
I0
tp65
a(I15
I59
I0
S'basic'
p66
I0
tp67
a(I15
I61
F-0.375
S'crash'
p68
I0
tp69
a(I21
I0
I0
S'many'
p70
I0
tp71
a(I24
I4
I0
S'many'
p72
I0
tp73
as(S'smartphone'
p74
tp75
(lp76
(I15
I49
F0.125
S'first'
p77
I0
tp78
a(I26
I15
I0
S'impress'
p79
I0
tp80
a(I26
I15
I0
S'great'
p81
I0
tp82
a(I26
I15
F-0.625
S'want'
p83
I0
tp84
as(S'take'
p85
S'pictures'
p86
tp87
(lp88
(I15
I48
F0.875
S'music'
p89
I0
tp90
as(S'dash'
p91
tp92
(lp93
(I18
I35
I0
S'own'
p94
I4
tp95
as(S'calls'
p96
tp97
(lp98
(I20
I3
F0.5
S'clear'
p99
I0
tp100
a(I22
I3
F0.625
S'successful'
p101
I0
tp102
as(S'sim'
p103
S'card'
p104
tp105
(lp106
(I10
I8
F-0.625
S'other'
p107
I0
tp108
a(I26
I7
I0
S'same'
p109
I0
tp110
as(S'camera'
p111
tp112
(lp113
(I6
I27
F1.0
S'better'
p114
I1
tp115
a(I9
I15
F-0.75
S'care'
p116
I1
tp117
a(I14
I0
F-0.375
S'small'
p118
I1
tp119
a(I14
I0
I0
S'great'
p120
I1
tp121
a(I14
I0
F1.0
S'best'
p122
I1
tp123
a(I16
I10
I0
S'great'
p124
I1
tp125
a(I25
I10
F0.625
S'fair'
p126
I1
tp127
a(I26
I0
F1.0
S'good'
p128
I1
tp129
as.