(dp0
(S'net10'
p1
S'service'
p2
tp3
(lp4
(I4
I70
F0.375
S'new'
p5
I0
tp6
a(I0
I102
I0
S'many'
p7
I16
tp8
a(I2
I17
I0
S'net'
p9
I16
tp10
a(I2
I49
I0
S'great'
p11
I16
tp12
a(I4
I83
F0.125
S'key'
p13
I16
tp14
as(S'battery'
p15
S'life'
p16
tp17
(lp18
(I0
I65
F1.0
S'good'
p19
I1
tp20
a(I2
I39
F1.0
S'good'
p21
I1
tp22
as(S'last'
p23
S'name'
p24
tp25
(lp26
(I3
I51
F0.125
S'last'
p27
I1
tp28
a(I4
I71
F0.125
S'last'
p29
I1
tp30
a(I4
I71
F0.125
S'last'
p31
I1
tp32
a(I4
I71
F0.125
S'first'
p33
I1
tp34
a(I4
I72
I0
S'entire'
p35
I1
tp36
a(I4
I72
F0.125
S'last'
p37
I1
tp38
a(I4
I72
F0.125
S'first'
p39
I1
tp40
a(I4
I72
I0
S'same'
p41
I1
tp42
a(I4
I72
F0.125
S'last'
p43
I1
tp44
as(S'old'
p45
S'net10'
p46
tp47
(lp48
(I0
I83
I0
S'needed'
p49
I0
tp50
a(I0
I83
I0
S'old'
p51
I0
tp52
a(I0
I88
F-0.75
S'unable'
p53
I0
tp54
a(I2
I30
I0
S'old'
p55
I0
tp56
a(I3
I24
I0
S'old'
p57
I0
tp58
a(I4
I11
I0
S'old'
p59
I0
tp60
a(I4
I65
I0
S'old'
p61
I0
tp62
a(I0
I83
I0
g49
I0
tp63
a(I0
I83
I0
g51
I0
tp64
a(I0
I88
F-0.75
g53
I0
tp65
a(I2
I30
I0
g55
I0
tp66
a(I3
I24
I0
g57
I0
tp67
a(I4
I11
I0
g59
I0
tp68
a(I4
I65
I0
g61
I0
tp69
a(I4
I70
F0.375
g5
I0
tp70
as(S'customer'
p71
S'service'
p72
tp73
(lp74
(I0
I102
I0
g7
I3
tp75
as(S'apps'
p76
tp77
(lp78
(I0
I48
F1.0
S'better'
p79
I0
tp80
a(I2
I2
I0
S'android'
p81
I0
tp82
a(I3
I29
F-0.625
S'other'
p83
I0
tp84
a(I3
I29
F0.375
S'much'
p85
I0
tp86
a(I3
I31
I0
S'few'
p87
I0
tp88
a(I3
I31
F-0.625
S'other'
p89
I0
tp90
a(I3
I31
I0
S'basic'
p91
I0
tp92
a(I3
I48
F-0.625
S'other'
p93
I0
tp94
as(S'flip'
p95
tp96
(lp97
(I0
I75
I0
S'basic'
p98
I4
tp99
a(I1
I14
I0
S'old'
p100
I4
tp101
a(I1
I14
I0
S'net'
p102
I4
tp103
a(I2
I3
I0
S'old'
p104
I4
tp105
a(I2
I6
I0
S'wish'
p106
I4
tp107
a(I3
I58
I0
S'basic'
p108
I4
tp109
as(S'camera'
p110
tp111
(lp112
(I0
I23
F-0.625
S'bad'
p113
I1
tp114
a(I1
I26
F1.0
S'good'
p115
I1
tp116
a(I2
I36
F0.5
S'functional'
p117
I1
tp118
a(I4
I80
I0
S'great'
p119
I1
tp120
as(S'touch'
p121
S'screen'
p122
tp123
(lp124
(I0
I38
F-0.375
S'smooth'
p125
I2
tp126
a(I0
I38
F0.25
S'responsive'
p127
I2
tp128
a(I0
I58
F0.5
S'touch'
p129
I2
tp130
a(I1
I26
F0.5
S'touch'
p131
I2
tp132
a(I2
I4
F0.5
S'touch'
p133
I2
tp134
a(I2
I15
F0.125
S'first'
p135
I2
tp136
a(I3
I38
I0
S'next'
p137
I2
tp138
a(I4
I35
F0.5
S'touch'
p139
I2
tp140
a(I4
I85
F0.5
S'touch'
p141
I2
tp142
as.