(dp0
(S'samsung'
p1
S'galaxy'
p2
S'note'
p3
tp4
(lp5
(I11
I64
F0.125
S'subject'
p6
I0
tp7
a(I11
I64
F0.125
g6
I0
tp8
a(I3
I6
F0.375
S'new'
p9
I0
tp10
a(I11
I64
F0.125
g6
I7
tp11
a(I14
I6
I0
S'corporate'
p12
I7
tp13
a(I3
I6
F0.375
g9
I0
tp14
a(I10
I93
F1.0
S'best'
p15
I0
tp16
as(S'iphone'
p17
tp18
(lp19
(I3
I15
F-0.125
S'mine'
p20
I1
tp21
a(I3
I15
F0.25
S'bigger'
p22
I1
tp23
a(I6
I3
F-0.875
S'hard'
p24
I1
tp25
a(I6
I6
F-0.375
S'top'
p26
I1
tp27
a(I6
I10
F-0.375
S'smaller'
p28
I1
tp29
a(I11
I84
F-0.375
S'small'
p30
I1
tp31
a(I14
I0
I0
S'same'
p32
I1
tp33
as(S'customer'
p34
S'service'
p35
tp36
(lp37
(I11
I67
F0.75
S'due'
p38
I3
tp39
a(I11
I68
F0.5
S'told'
p40
I3
tp41
a(I11
I67
F0.75
g38
I16
tp42
as(S'memory'
p43
tp44
(lp45
(I3
I11
I0
S'internal'
p46
I5
tp47
a(I3
I11
I0
S'external'
p48
I5
tp49
a(I3
I13
I0
S'external'
p50
I5
tp51
a(I8
I22
F-0.5
S'less'
p52
I5
tp53
a(I9
I22
F0.25
S'larger'
p54
I5
tp55
as(S'sim'
p56
S'card'
p57
tp58
(lp59
(I11
I40
F-0.5
S'regular'
p60
I0
tp61
as(S'international'
p62
S'version'
p63
tp64
(lp65
(I9
I30
F-0.5
S'international'
p66
I0
tp67
a(I11
I14
F-0.5
S'international'
p68
I0
tp69
a(I11
I19
F-0.5
S'international'
p70
I0
tp71
a(I11
I19
F0.75
S'due'
p72
I0
tp73
a(I11
I26
F-0.5
S'international'
p74
I0
tp75
a(I11
I55
F-0.5
S'international'
p76
I0
tp77
a(I11
I67
F-0.5
S'international'
p78
I0
tp79
a(I14
I7
F-0.5
S'separate'
p80
I0
tp81
a(I14
I7
F-0.5
S'international'
p82
I0
tp83
as(S'much'
p84
S'better'
p85
tp86
(lp87
(I5
I0
F0.375
S'much'
p88
I9
tp89
a(I11
I76
F0.375
S'much'
p90
I9
tp91
as(S'stupid'
p92
S'logo'
p93
tp94
(lp95
(I14
I10
F-0.75
S'stupid'
p96
I0
tp97
a(I14
I10
F-0.75
S'stupid'
p98
I0
tp99
a(I14
I10
F-0.75
S'stupid'
p100
I0
tp101
a(I14
I10
F-0.75
S'stupid'
p102
I0
tp103
a(I14
I10
F-0.75
S'stupid'
p104
I0
tp105
a(I14
I11
F-0.75
S'stupid'
p106
I0
tp107
a(I14
I11
F-0.75
S'stupid'
p108
I0
tp109
as(S'form'
p110
S'factor'
p111
tp112
(lp113
(I9
I40
F0.125
S'popular'
p114
I1
tp115
as(S'apps'
p116
tp117
(lp118
(I8
I20
I0
S'many'
p119
I0
tp120
a(I8
I29
F1.0
S'good'
p121
I0
tp122
a(I8
I29
F0.375
S'available'
p123
I0
tp124
a(I10
I69
F-0.625
S'free'
p125
I0
tp126
a(I11
I10
I0
S'many'
p127
I0
tp128
a(I11
I25
F0.625
S'easy'
p129
I0
tp130
a(I11
I45
F0.5
S'compatible'
p131
I0
tp132
a(I11
I46
I0
S'great'
p133
I0
tp134
a(I11
I46
F-0.625
S'free'
p135
I0
tp136
a(I11
I77
F0.125
S'native'
p137
I0
tp138
as.