(dp0
(S'times'
p1
tp2
(lp3
(I5
I1
I0
S'many'
p4
tp5
a(I9
I43
I0
S'many'
p6
tp7
a(I46
I5
I0
S'many'
p8
tp9
a(I58
I13
I0
S'few'
p10
tp11
a(I58
I14
I0
S'few'
p12
tp13
a(I58
I16
I0
S'most'
p14
tp15
a(I84
I0
F-0.625
S'other'
p16
tp17
a(I103
I1
I0
S'own'
p18
tp19
a(I136
I15
I0
S'own'
p20
tp21
a(I136
I15
I0
S'many'
p22
tp23
a(I178
I1
I0
S'many'
p24
tp25
as(S'problem'
p26
tp27
(lp28
(I9
I28
I0
S'only'
p29
tp30
a(I9
I29
F-0.5
S'sure'
p31
tp32
a(I9
I29
F-0.75
S'little'
p33
tp34
a(I28
I2
I0
S'only'
p35
tp36
a(I53
I5
F0.375
S'new'
p37
tp38
a(I69
I1
I0
S'only'
p39
tp40
a(I97
I5
F0.125
S'able'
p41
tp42
a(I111
I2
F-0.625
S'other'
p43
tp44
a(I111
I3
I0
S'such'
p45
tp46
a(I124
I5
F0.25
S'biggest'
p47
tp48
a(I157
I0
I0
S'update'
p49
tp50
as(S'virgin'
p51
S'mobile'
p52
tp53
(lp54
(I9
I18
F-0.5
S'sure'
p55
tp56
a(I9
I25
I0
S'wish'
p57
tp58
a(I29
I23
I0
S'mobile'
p59
tp60
a(I53
I0
I0
S'mobile'
p61
tp62
a(I94
I1
I0
S'mobile'
p63
tp64
a(I106
I0
F-0.125
S'virgin'
p65
tp66
a(I112
I1
F0.375
S'newer'
p67
tp68
a(I126
I10
F1.0
S'best'
p69
tp70
a(I126
I11
I0
S'same'
p71
tp72
a(I133
I1
F1.0
S'good'
p73
tp74
a(I143
I0
F-0.625
S'other'
p75
tp76
as(S'everything'
p77
tp78
(lp79
(I7
I2
I0
S'slower'
p80
tp81
a(I41
I2
F0.625
S'easy'
p82
tp83
a(I167
I25
F-0.5
S'hassle'
p84
tp85
as(S'samsung'
p86
S'galaxy'
p87
S'reverb'
p88
tp89
(lp90
(I42
I0
I0
S'january'
p91
tp92
a(I110
I2
F-0.125
S'opposite'
p93
tp94
a(I158
I0
F-0.5
S'less'
p95
tp96
as(S'reverb'
p97
tp98
(lp99
(I23
I1
F0.375
S'new'
p100
tp101
a(I42
I0
I0
g91
tp102
a(I42
I2
F0.375
S'working'
p103
tp104
a(I42
I5
F0.5
S'second'
p105
tp106
a(I100
I1
I0
S'android'
p107
tp108
a(I110
I2
F-0.125
g93
tp109
a(I141
I1
I0
S'great'
p110
tp111
a(I158
I0
F-0.5
g95
tp112
as(S'keyboard'
p113
tp114
(lp115
(I105
I2
F1.0
S'better'
p116
tp117
a(I105
I3
F-0.875
S'worst'
p118
tp119
a(I136
I7
F-0.75
S'stupid'
p120
tp121
a(I136
I9
I0
S'download'
p122
tp123
a(I163
I9
F-0.125
S'slow'
p124
tp125
as(S'overall'
p126
tp127
(lp128
(I131
I0
F1.0
S'good'
p129
tp130
as(S'money'
p131
tp132
(lp133
(I129
I2
I0
S'real'
p134
tp135
as(S'lg'
p136
S'optimus'
p137
tp138
(lp139
(I40
I0
F0.25
S'elite'
p140
tp141
a(I86
I8
I0
S'old'
p142
tp143
as(S'screen'
p144
tp145
(lp146
(I4
I0
F0.5
S'touch'
p147
tp148
a(I7
I6
F0.25
S'larger'
p149
tp150
a(I7
I6
F0.25
S'sharper'
p151
tp152
a(I9
I5
F0.25
S'biggest'
p153
tp154
a(I9
I5
F0.375
S'available'
p155
tp156
a(I9
I9
F0.5
S'touch'
p157
tp158
a(I9
I12
F0.5
S'true'
p159
tp160
a(I9
I28
I0
S'more'
p161
tp162
a(I15
I17
F-0.375
S'smaller'
p163
tp164
a(I28
I2
F-0.75
S'unresponsive'
p165
tp166
a(I29
I6
F-0.625
S'unbearable'
p167
tp168
a(I29
I9
F-0.75
S'impossible'
p169
tp170
a(I30
I2
I0
S'great'
p171
tp172
a(I39
I12
F-0.375
S'smaller'
p173
tp174
a(I40
I1
F0.25
S'larger'
p175
tp176
a(I44
I0
F-0.25
S'scratched'
p177
tp178
a(I51
I0
F0.25
S'responsive'
p179
tp180
a(I52
I2
I0
S'large'
p181
tp182
a(I52
I2
F-0.75
S'bright'
p183
tp184
a(I59
I0
F-0.25
S'past'
p185
tp186
a(I61
I8
F-0.75
S'bright'
p187
tp188
a(I71
I4
F0.625
S'easier'
p189
tp190
a(I77
I2
F0.5
S'touch'
p191
tp192
a(I79
I3
F0.25
S'bigger'
p193
tp194
a(I91
I1
F-0.875
S'trouble'
p195
tp196
a(I91
I1
F0.5
S'touch'
p197
tp198
a(I98
I1
F-0.375
S'smaller'
p199
tp200
a(I99
I5
F-0.75
S'worse'
p201
tp202
a(I99
I5
F-0.75
S'unresponsive'
p203
tp204
a(I99
I5
F0.5
S'touch'
p205
tp206
a(I112
I4
F0.875
S'nice'
p207
tp208
a(I112
I4
I0
S'big'
p209
tp210
a(I115
I0
I0
S'large'
p211
tp212
a(I133
I1
I0
S'large'
p213
tp214
a(I136
I6
I0
S'temperamental'
p215
tp216
a(I141
I5
F1.0
S'good'
p217
tp218
a(I146
I1
F0.25
S'bigger'
p219
tp220
a(I146
I4
F-0.5
S'sudden'
p221
tp222
a(I155
I3
F-0.75
S'bright'
p223
tp224
a(I155
I4
F0.25
S'responsive'
p225
tp226
a(I162
I0
I0
S'great'
p227
tp228
a(I163
I2
F0.25
S'larger'
p229
tp230
a(I163
I2
I0
S'more'
p231
tp232
a(I163
I2
F0.75
S'beautiful'
p233
tp234
a(I163
I2
I0
S'rich'
p235
tp236
a(I167
I29
F-0.75
S'bright'
p237
tp238
a(I169
I2
F1.0
S'good'
p239
tp240
as(S'thought'
p241
tp242
(lp243
(I42
I4
I0
S'mere'
p244
tp245
as(S'service'
p246
tp247
(lp248
(I54
I1
F1.0
S'good'
p249
tp250
a(I54
I1
F0.875
S'happy'
p251
tp252
a(I54
I1
F0.5
S'strong'
p253
tp254
a(I67
I7
F-0.5
S'actual'
p255
tp256
as(S'virgin'
p257
tp258
(lp259
(I9
I18
F-0.5
g55
tp260
a(I9
I25
I0
g57
tp261
a(I29
I23
I0
g59
tp262
a(I47
I32
F0.125
S'solid'
p263
tp264
a(I53
I0
I0
g61
tp265
a(I94
I1
I0
g63
tp266
a(I103
I5
F0.5
S'second'
p267
tp268
a(I112
I1
F0.375
g67
tp269
a(I125
I1
F0.75
S'worth'
p270
tp271
a(I125
I1
I0
S'full'
p272
tp273
a(I126
I10
F1.0
g69
tp274
a(I126
I11
I0
g71
tp275
a(I133
I1
F1.0
g73
tp276
a(I143
I0
F-0.625
g75
tp277
a(I146
I12
F-0.125
S'bean'
p278
tp279
as(S'problems'
p280
tp281
(lp282
(I47
I11
I0
S'same'
p283
tp284
a(I52
I6
I0
S'same'
p285
tp286
a(I61
I15
I0
S'few'
p287
tp288
a(I74
I1
F-0.875
S'unhappy'
p289
tp290
a(I165
I4
F0.375
S'new'
p291
tp292
a(I165
I4
F-0.75
S'had'
p293
tp294
a(I165
I4
I0
S'same'
p295
tp296
as(S'samsung'
p297
tp298
(lp299
(I7
I1
F0.5
S'rid'
p300
tp301
a(I16
I2
F-0.25
S'direct'
p302
tp303
a(I68
I15
I0
S'latest'
p304
tp305
as(S'cream'
p306
S'sandwich'
p307
tp308
(lp309
(I5
I1
F-0.125
S'bean'
p310
tp311
a(I99
I6
F-0.125
S'delete'
p312
tp313
a(I146
I10
I0
S'great'
p314
tp315
as(S'feel'
p316
tp317
(lp318
(I47
I24
F0.125
S'solid'
p319
tp320
a(I176
I1
I0
S'great'
p321
tp322
as(S'touch'
p323
tp324
(lp325
(I25
I0
F1.0
S'good'
p326
tp327
as(S'camera'
p328
tp329
(lp330
(I15
I17
F0.125
S'able'
p331
tp332
a(I26
I2
F0.875
S'nice'
p333
tp334
a(I47
I19
F-0.5
S'actual'
p335
tp336
a(I47
I31
F0.375
S'much'
p337
tp338
a(I75
I1
F0.625
S'easy'
p339
tp340
a(I88
I3
F1.0
S'better'
p341
tp342
a(I112
I6
I0
S'great'
p343
tp344
a(I121
I0
F1.0
S'good'
p345
tp346
a(I131
I0
F0.875
S'nice'
p347
tp348
a(I136
I12
F1.0
S'good'
p349
tp350
a(I155
I5
I0
S'crystal'
p351
tp352
a(I155
I5
F0.5
S'clear'
p353
tp354
a(I167
I19
F1.0
S'good'
p355
tp356
a(I179
I2
F0.625
S'decent'
p357
tp358
as(S'facing'
p359
S'camera'
p360
tp361
(lp362
(I15
I17
F0.125
g331
tp363
a(I112
I6
I0
g343
tp364
as(S'using'
p365
tp366
(lp367
(I126
I8
F0.125
S'first'
p368
tp369
as(S'battery'
p370
S'life'
p371
tp372
(lp373
(I9
I43
F1.0
S'better'
p374
tp375
a(I15
I23
F1.0
S'good'
p376
tp377
a(I26
I2
F1.0
S'good'
p378
tp379
a(I30
I2
F-0.625
S'average'
p380
tp381
a(I47
I22
I0
S'more'
p382
tp383
a(I73
I1
F0.625
S'acceptable'
p384
tp385
a(I73
I1
F-0.5
S'heavy'
p386
tp387
a(I73
I1
F0.125
S'solid'
p388
tp389
a(I78
I12
F-0.625
S'bad'
p390
tp391
a(I97
I1
F-0.5
S'poor'
p392
tp393
a(I97
I1
F-0.75
S'unreliable'
p394
tp395
a(I110
I11
F1.0
S'better'
p396
tp397
a(I110
I11
F1.0
S'good'
p398
tp399
a(I167
I17
I0
S'standard'
p400
tp401
a(I171
I1
F1.0
S'good'
p402
tp403
as(S'month'
p404
tp405
(lp406
(I58
I0
F0.5
S'second'
p407
tp408
a(I85
I2
I0
S'more'
p409
tp410
a(I113
I19
I0
S'least'
p411
tp412
a(I166
I0
I0
S'slower'
p413
tp414
a(I166
I0
F-0.25
S'past'
p415
tp416
as(S'lg'
p417
S'optimus'
p418
S'v'
p419
tp420
(lp421
(I40
I0
F0.25
g140
tp422
a(I86
I8
I0
g142
tp423
as(S'one'
p424
S'day'
p425
tp426
(lp427
(I45
I5
I0
S'next'
p428
tp429
a(I65
I7
I0
S'next'
p430
tp431
a(I68
I0
I0
S'entire'
p432
tp433
a(I111
I0
I0
S'least'
p434
tp435
a(I136
I17
F-0.25
S'unaware'
p436
tp437
a(I136
I17
F0.5
S'whole'
p438
tp439
as(S'front'
p440
S'facing'
p441
S'camera'
p442
tp443
(lp444
(I15
I17
F0.125
g331
tp445
as(S'quality'
p446
tp447
(lp448
(I3
I0
I0
S'great'
p449
tp450
a(I9
I11
F1.0
S'good'
p451
tp452
a(I58
I8
F-0.25
S'low'
p453
tp454
a(I64
I1
F-0.625
S'bad'
p455
tp456
a(I67
I3
F1.0
S'good'
p457
tp458
a(I73
I1
I0
S'great'
p459
tp460
a(I126
I3
F1.0
S'good'
p461
tp462
a(I136
I15
F1.0
S'better'
p463
tp464
a(I140
I1
F1.0
S'good'
p465
tp466
a(I162
I0
F0.75
S'beautiful'
p467
tp468
as(S'memory'
p469
tp470
(lp471
(I12
I1
F0.125
S'plenty'
p472
tp473
a(I12
I1
F-0.5
S'open'
p474
tp475
a(I29
I23
I0
S'more'
p476
tp477
a(I37
I2
F0.375
S'much'
p478
tp479
a(I47
I17
I0
S'internal'
p480
tp481
a(I47
I17
F0.375
S'available'
p482
tp483
a(I47
I29
F0.375
S'much'
p484
tp485
a(I47
I29
I0
S'internal'
p486
tp487
a(I126
I7
I0
S'internal'
p488
tp489
a(I126
I7
F0.375
S'available'
p490
tp491
a(I163
I5
I0
S'large'
p492
tp493
a(I163
I5
I0
S'internal'
p494
tp495
as(S'life'
p496
tp497
(lp498
(I15
I23
F1.0
g376
tp499
a(I30
I2
F-0.625
g380
tp500
a(I47
I22
I0
g382
tp501
a(I73
I1
F0.625
g384
tp502
a(I73
I1
F-0.5
g386
tp503
a(I73
I1
F0.125
g388
tp504
a(I78
I12
F-0.625
g390
tp505
a(I97
I1
F-0.75
g394
tp506
a(I110
I11
F1.0
g396
tp507
a(I167
I17
I0
g400
tp508
as(S'mobile'
p509
tp510
(lp511
(I106
I0
F-0.125
g65
tp512
as(S'right'
p513
tp514
(lp515
(I100
I6
F-0.375
S'top'
p516
tp517
as(S'galaxy'
p518
tp519
(lp520
(I7
I6
I0
S'latest'
p521
tp522
a(I44
I2
F0.125
S'popular'
p523
tp524
a(I79
I3
F0.375
S'new'
p525
tp526
as(S'things'
p527
tp528
(lp529
(I2
I0
I0
S'many'
p530
tp531
a(I9
I19
I0
S'few'
p532
tp533
a(I9
I24
F0.125
S'able'
p534
tp535
a(I78
I12
I0
S'few'
p536
tp537
a(I136
I11
I0
S'many'
p538
tp539
a(I158
I10
F1.0
S'good'
p540
tp541
a(I170
I0
I0
S'few'
p542
tp543
a(I170
I2
I0
S'few'
p544
tp545
as(S'much'
p546
S'faster'
p547
tp548
(lp549
(I86
I6
F0.375
S'much'
p550
tp551
a(I152
I2
F0.375
S'much'
p552
tp553
a(I177
I1
F0.375
S'much'
p554
tp555
as(S'times'
p556
S'a'
p557
S'day'
p558
tp559
(lp560
(I9
I43
I0
g6
tp561
a(I58
I15
I0
S'least'
p562
tp563
a(I103
I1
I0
g18
tp564
a(I136
I15
I0
g20
tp565
a(I136
I15
I0
g22
tp566
a(I136
I17
F-0.25
g436
tp567
a(I136
I17
F0.5
g438
tp568
as(S'power'
p569
tp570
(lp571
(I16
I7
I0
S'hit'
p572
tp573
a(I26
I1
I0
S'slippery'
p574
tp575
a(I63
I1
F-0.125
S'slow'
p576
tp577
a(I115
I0
F-0.5
S'sure'
p578
tp579
as(S'freezes'
p580
tp581
(lp582
(I131
I1
F-0.125
S'mine'
p583
tp584
as(S'make'
p585
g557
S'call'
p586
tp587
(lp588
(I103
I5
I0
S'quick'
p589
tp590
as(S'getting'
p591
tp592
(lp593
(I9
I44
I0
S'most'
p594
tp595
as(S'sound'
p596
tp597
(lp598
(I113
I3
F0.125
S'first'
p599
tp600
as(S'fast'
p601
tp602
(lp603
(I158
I6
F-0.125
S'super'
p604
tp605
as(S'virgin'
p606
S'mobile'
p607
S'website'
p608
tp609
(lp610
(I9
I25
I0
g57
tp611
as(S'android'
p612
tp613
(lp614
(I17
I1
F0.125
S'first'
p615
tp616
a(I126
I0
F-0.625
S'other'
p617
tp618
a(I150
I2
F-0.625
S'other'
p619
tp620
a(I150
I2
F0.5
S'second'
p621
tp622
as(S'plan'
p623
tp624
(lp625
(I61
I20
I0
S'great'
p626
tp627
a(I85
I2
F0.25
S'original'
p628
tp629
a(I113
I19
F-0.5
S'unlimited'
p630
tp631
a(I113
I19
I0
S'monthly'
p632
tp633
a(I163
I12
F-0.875
S'hard'
p634
tp635
as(S'case'
p636
tp637
(lp638
(I9
I3
I0
S'rubberized'
p639
tp640
a(I32
I4
F0.625
S'kind'
p641
tp642
a(I46
I3
F0.125
S'first'
p643
tp644
a(I46
I3
F-0.75
S'impossible'
p645
tp646
a(I46
I3
F1.0
S'good'
p647
tp648
a(I110
I6
I0
S'rubberized'
p649
tp650
a(I167
I32
F0.5
S'recommend'
p651
tp652
a(I167
I35
F0.625
S'cover'
p653
tp654
as(S'works'
p655
tp656
(lp657
(I9
I32
I0
S'great'
p658
tp659
a(I31
I0
I0
S'great'
p660
tp661
a(I140
I0
I0
S'great'
p662
tp663
as(S'one'
p664
g419
tp665
(lp666
(I81
I0
F-0.875
S'awful'
p667
tp668
a(I136
I15
F-0.25
S'cheaper'
p669
tp670
as(S'back'
p671
tp672
(lp673
(I50
I9
F-0.375
S'smooth'
p674
tp675
a(I110
I2
F-0.5
S'flimsy'
p676
tp677
a(I110
I2
I0
S'slippery'
p678
tp679
as(S'battery'
p680
tp681
(lp682
(I0
I0
I0
S'least'
p683
tp684
a(I9
I43
F1.0
g374
tp685
a(I9
I44
F0.625
S'noticeable'
p686
tp687
a(I15
I7
F-0.25
S'plugged'
p688
tp689
a(I26
I2
F1.0
g378
tp690
a(I29
I8
F0.125
S'last'
p691
tp692
a(I73
I7
F0.625
S'removable'
p693
tp694
a(I97
I1
F-0.5
g392
tp695
a(I97
I3
F0.125
S'last'
p696
tp697
a(I97
I5
F0.125
S'last'
p698
tp699
a(I99
I1
I0
S'great'
p700
tp701
a(I99
I1
I0
S'horsepower'
p702
tp703
a(I110
I11
F1.0
g398
tp704
a(I155
I8
F0.125
S'last'
p705
tp706
a(I171
I1
F1.0
g402
tp707
as(S'upgrade'
p708
tp709
(lp710
(I143
I0
I0
S'most'
p711
tp712
a(I152
I1
F0.875
S'nice'
p713
tp714
as(S'smart'
p715
tp716
(lp717
(I6
I0
F0.125
S'first'
p718
tp719
a(I29
I15
F0.125
S'first'
p720
tp721
a(I89
I1
F1.0
S'good'
p722
tp723
a(I156
I1
F0.5
S'second'
p724
tp725
a(I160
I0
F-0.375
S'manual'
p726
tp727
a(I160
I0
F0.125
S'first'
p728
tp729
a(I174
I0
I0
S'great'
p730
tp731
as(S'optimus'
p732
g419
tp733
(lp734
(I20
I0
F0.375
S'reliable'
p735
tp736
a(I47
I19
I0
S'old'
p737
tp738
a(I141
I3
I0
S'stable'
p739
tp740
a(I141
I3
I0
S'old'
p741
tp742
a(I141
I3
F-0.375
S'daily'
p743
tp744
as(g557
S'virgin'
p745
S'mobile'
p746
tp747
(lp748
(I9
I18
F-0.5
g55
tp749
a(I9
I25
I0
g57
tp750
a(I29
I23
I0
g59
tp751
a(I53
I0
I0
g61
tp752
a(I94
I1
I0
g63
tp753
a(I106
I0
F-0.125
g65
tp754
a(I112
I1
F0.375
g67
tp755
a(I126
I10
F1.0
g69
tp756
a(I126
I11
I0
g71
tp757
a(I133
I1
F1.0
g73
tp758
a(I143
I0
F-0.625
g75
tp759
as(S'better'
p760
tp761
(lp762
(I40
I4
F0.375
S'much'
p763
tp764
a(I171
I0
F0.375
S'much'
p765
tp766
as(S'screen'
p767
S'protector'
p768
tp769
(lp770
(I9
I12
F0.5
g159
tp771
as(S'anything'
p772
tp773
(lp774
(I9
I22
F0.5
S'personal'
p775
tp776
a(I52
I0
F-0.625
S'bad'
p777
tp778
a(I88
I0
I0
S'normal'
p779
tp780
a(I88
I4
F-0.75
S'wrong'
p781
tp782
a(I137
I0
I0
S'very'
p783
tp784
a(I144
I3
I0
S'more'
p785
tp786
a(I156
I6
I0
S're-enter'
p787
tp788
as(S'thing'
p789
tp790
(lp791
(I16
I4
I0
S'same'
p792
tp793
a(I43
I0
F1.0
S'best'
p794
tp795
a(I46
I6
F0.5
S'second'
p796
tp797
a(I46
I6
F0.625
S'aware'
p798
tp799
a(I58
I15
I0
S'only'
p800
tp801
a(I61
I2
F0.125
S'first'
p802
tp803
a(I88
I3
I0
S'same'
p804
tp805
a(I88
I3
F-0.25
S'cheaper'
p806
tp807
a(I96
I1
F0.5
S'whole'
p808
tp809
a(I106
I5
F1.0
S'good'
p810
tp811
a(I106
I5
F0.875
S'important'
p812
tp813
a(I120
I2
I0
S'mobile'
p814
tp815
a(I120
I2
F0.625
S'hold'
p816
tp817
a(I136
I11
F0.625
S'easiest'
p818
tp819
a(I137
I2
F1.0
S'better'
p820
tp821
a(I137
I2
I0
S'only'
p822
tp823
a(I153
I9
I0
S'next'
p824
tp825
a(I155
I8
F0.375
S'new'
p826
tp827
a(I155
I8
F-0.5
S'poor'
p828
tp829
a(I159
I3
I0
S'only'
p830
tp831
as(S'galaxy'
p832
S'reverb'
p833
tp834
(lp835
(I42
I0
I0
g91
tp836
a(I110
I2
F-0.125
g93
tp837
a(I158
I0
F-0.5
g95
tp838
as(S'update'
p839
tp840
(lp841
(I11
I0
F-0.125
S'bean'
p842
tp843
a(I15
I1
I0
S'android'
p844
tp845
a(I16
I0
F-0.125
S'bean'
p846
tp847
a(I68
I13
F-0.5
S'certain'
p848
tp849
a(I124
I1
I0
S'great'
p850
tp851
a(I124
I2
F0.125
S'first'
p852
tp853
a(I146
I9
F-0.125
S'bean'
p854
tp855
a(I154
I1
I0
S'automatic'
p856
tp857
as(S'ce'
p858
S'cream'
p859
S'sandwich'
p860
tp861
(lp862
(I5
I1
F-0.125
g310
tp863
a(I99
I6
F-0.125
g312
tp864
a(I146
I10
I0
g314
tp865
as(S'sd'
p866
S'card'
p867
tp868
(lp869
(I15
I25
F0.25
S'bigger'
p870
tp871
a(I73
I7
F0.25
S'larger'
p872
tp873
as(S'single'
p874
S'core'
p875
tp876
(lp877
(I9
I25
F-0.75
S'single'
p878
tp879
a(I67
I2
F-0.75
S'single'
p880
tp881
a(I68
I13
F-0.75
S'single'
p882
tp883
a(I100
I1
F-0.75
S'single'
p884
tp885
a(I163
I3
F-0.75
S'single'
p886
tp887
a(I163
I3
F0.25
S'responsive'
p888
tp889
as(S'call'
p890
tp891
(lp892
(I30
I2
F1.0
S'good'
p893
tp894
a(I87
I3
F-0.25
S'loose'
p895
tp896
a(I87
I3
F0.125
S'first'
p897
tp898
a(I103
I5
I0
g589
tp899
a(I114
I3
I0
S'mobile'
p900
tp901
a(I151
I0
F-0.625
S'other'
p902
tp903
as(S'however'
p904
tp905
(lp906
(I97
I6
F-0.125
S'slow'
p907
tp908
as(S'nice'
p909
tp910
(lp911
(I94
I1
I0
S'real'
p912
tp913
a(I131
I0
F-0.5
S'expansive'
p914
tp915
as(S'easy'
p916
S'to'
p917
S'use'
p918
tp919
(lp920
(I75
I4
F0.625
S'easy'
p921
tp922
as(S'price'
p923
tp924
(lp925
(I37
I0
I0
S'retail'
p926
tp927
a(I53
I0
F1.0
S'good'
p928
tp929
a(I58
I28
F-0.5
S'less'
p930
tp931
a(I61
I20
I0
S'minimal'
p932
tp933
a(I68
I11
I0
S'full'
p934
tp935
a(I101
I3
F0.625
S'alright'
p936
tp937
a(I101
I3
I0
S'current'
p938
tp939
a(I101
I3
F0.75
S'cautious'
p940
tp941
a(I108
I7
I0
S'high'
p942
tp943
a(I108
I8
F-0.25
S'higher'
p944
tp945
a(I125
I1
F-0.625
S'bad'
p946
tp947
a(I126
I10
F1.0
S'good'
p948
tp949
a(I126
I15
I0
S'same'
p950
tp951
a(I130
I0
F1.0
S'good'
p952
tp953
a(I138
I0
F0.5
S'reasonable'
p954
tp955
a(I141
I4
F1.0
S'good'
p956
tp957
a(I158
I14
I0
S'great'
p958
tp959
a(I172
I0
F1.0
S'good'
p960
tp961
a(I176
I1
I0
S'great'
p962
tp963
a(I177
I1
I0
S'same'
p964
tp965
as(S'time'
p966
tp967
(lp968
(I39
I10
I0
S'entire'
p969
tp970
a(I39
I10
F-0.5
S'sure'
p971
tp972
a(I68
I18
F-0.75
S'single'
p973
tp974
a(I68
I21
I0
S'more'
p975
tp976
a(I123
I0
F-0.875
S'hard'
p977
tp978
a(I135
I0
F-0.5
S'long'
p979
tp980
as(S'optimus'
p981
tp982
(lp983
(I20
I0
F0.375
g735
tp984
a(I47
I19
I0
g737
tp985
a(I141
I3
I0
g739
tp986
a(I141
I3
I0
g741
tp987
a(I155
I8
I0
S'more'
p988
tp989
as(g557
S'single'
p990
S'core'
p991
tp992
(lp993
(I9
I25
F-0.75
g878
tp994
a(I67
I2
F-0.75
g880
tp995
a(I68
I13
F-0.75
g882
tp996
a(I100
I1
F-0.75
g884
tp997
a(I163
I3
F-0.75
g886
tp998
a(I163
I3
F0.25
g888
tp999
as(S'smartphone'
p1000
tp1001
(lp1002
(I14
I1
F0.125
S'first'
p1003
tp1004
a(I57
I3
I0
S'great'
p1005
tp1006
a(I57
I3
I0
S'android'
p1007
tp1008
a(I61
I0
F0.125
S'first'
p1009
tp1010
a(I78
I0
F-0.625
S'want'
p1011
tp1012
a(I79
I2
F0.125
S'first'
p1013
tp1014
a(I79
I2
F0.125
S'last'
p1015
tp1016
a(I86
I0
I0
S'third'
p1017
tp1018
as(S'samsung'
p1019
S'galaxy'
p1020
tp1021
(lp1022
(I7
I1
F0.5
g300
tp1023
a(I79
I3
F0.375
g525
tp1024
as(S'htc'
p1025
S'one'
p1026
g419
tp1027
(lp1028
(I81
I0
F-0.875
g667
tp1029
a(I136
I15
F-0.25
g669
tp1030
as(S'hours'
p1031
tp1032
(lp1033
(I15
I9
F0.375
S'much'
p1034
tp1035
a(I15
I9
I0
S'even'
p1036
tp1037
a(I27
I3
I0
S'few'
p1038
tp1039
a(I113
I7
I0
S'later'
p1040
tp1041
a(I170
I5
I0
S'few'
p1042
tp1043
as(S'work'
p1044
tp1045
(lp1046
(I68
I10
F-0.25
S'disappointed'
p1047
tp1048
as(S'from'
p1049
S'virgin'
p1050
S'mobile'
p1051
tp1052
(lp1053
(I133
I1
F1.0
g73
tp1054
as(S'apps'
p1055
tp1056
(lp1057
(I16
I11
F-0.625
S'average'
p1058
tp1059
a(I16
I11
F-0.5
S'sure'
p1060
tp1061
a(I16
I11
F-0.5
S'open'
p1062
tp1063
a(I25
I1
F0.375
S'extra'
p1064
tp1065
a(I25
I1
I0
S'more'
p1066
tp1067
a(I29
I9
I0
S'great'
p1068
tp1069
a(I29
I21
F-0.375
S'simple'
p1070
tp1071
a(I47
I21
F-0.625
S'other'
p1072
tp1073
a(I62
I1
F-0.625
S'light'
p1074
tp1075
a(I62
I1
F1.0
S'good'
p1076
tp1077
a(I86
I4
F0.5
S'true'
p1078
tp1079
a(I86
I4
F-0.5
S'certain'
p1080
tp1081
a(I110
I9
I0
S'most'
p1082
tp1083
a(I126
I10
F0.5
S'brightness'
p1084
tp1085
a(I126
I10
F-0.25
S'lowest'
p1086
tp1087
a(I135
I1
I0
S'android'
p1088
tp1089
a(I136
I4
I0
S'many'
p1090
tp1091
a(I136
I6
I0
S'different'
p1092
tp1093
a(I156
I6
F-0.25
S'google'
p1094
tp1095
a(I158
I5
I0
S'internet'
p1096
tp1097
a(I158
I5
I0
S'e-mail'
p1098
tp1099
a(I163
I5
F0.75
S'due'
p1100
tp1101
a(I177
I2
I0
S'many'
p1102
tp1103
a(I177
I2
F0.375
S'newer'
p1104
tp1105
as(S'on'
p1106
S'virgin'
p1107
S'mobile'
p1108
tp1109
(lp1110
(I9
I18
F-0.5
g55
tp1111
a(I9
I25
I0
g57
tp1112
a(I29
I23
I0
g59
tp1113
a(I53
I0
I0
g61
tp1114
a(I94
I1
I0
g63
tp1115
a(I106
I0
F-0.125
g65
tp1116
a(I112
I1
F0.375
g67
tp1117
a(I126
I10
F1.0
g69
tp1118
a(I133
I1
F1.0
g73
tp1119
a(I143
I0
F-0.625
g75
tp1120
as(S'days'
p1121
tp1122
(lp1123
(I9
I45
I0
S'full'
p1124
tp1125
a(I47
I22
I0
S'adequate'
p1126
tp1127
a(I58
I11
I0
S'few'
p1128
tp1129
a(I68
I17
I0
S'few'
p1130
tp1131
a(I122
I2
I0
S'few'
p1132
tp1133
a(I130
I2
F-0.625
S'other'
p1134
tp1135
a(I151
I0
I0
S'few'
p1136
tp1137
a(I181
I4
F0.5
S'whole'
p1138
tp1139
as(S'touch'
p1140
S'screen'
p1141
tp1142
(lp1143
(I4
I0
F0.5
g147
tp1144
a(I9
I9
F0.5
g157
tp1145
a(I25
I0
F1.0
g326
tp1146
a(I51
I0
F0.25
g179
tp1147
a(I77
I2
F0.5
g191
tp1148
a(I91
I1
F-0.875
g195
tp1149
a(I91
I1
F0.5
g197
tp1150
a(I99
I5
F-0.75
g201
tp1151
a(I99
I5
F-0.75
g203
tp1152
a(I99
I5
F0.5
g205
tp1153
a(I155
I4
F0.25
g225
tp1154
as(S'calls'
p1155
tp1156
(lp1157
(I15
I11
I0
S'overseas'
p1158
tp1159
a(I97
I7
F0.375
S'register'
p1160
tp1161
a(I120
I1
F0.5
S'clear'
p1162
tp1163
as.