(dp0
(S'screen'
p1
S'size'
p2
tp3
(lp4
(I5
I89
I0
S'same'
p5
I3
tp6
a(I5
I93
I0
S'same'
p7
I3
tp8
a(I5
I93
I0
S'physical'
p9
I3
tp10
a(I5
I115
F0.25
S'larger'
p11
I3
tp12
a(I6
I5
F0.625
S'fair'
p13
I3
tp14
a(I6
I105
I0
S'identical'
p15
I3
tp16
a(I6
I193
F-0.75
S'bright'
p17
I3
tp18
a(I8
I65
I0
S'same'
p19
I3
tp20
a(I8
I112
F0.25
S'larger'
p21
I3
tp22
a(I8
I284
F0.25
S'larger'
p23
I3
tp24
a(I8
I284
I0
S'same'
p25
I3
tp26
a(I8
I289
F1.0
S'good'
p27
I3
tp28
a(I8
I289
F0.125
S'first'
p29
I3
tp30
a(I8
I289
F0.25
S'main'
p31
I3
tp32
a(I8
I289
F0.625
S'easy'
p33
I3
tp34
a(I8
I290
F0.25
S'larger'
p35
I3
tp36
a(I8
I290
F0.5
S'comparable'
p37
I3
tp38
a(I13
I34
F-0.125
S'overall'
p39
I3
tp40
a(I13
I34
I0
S'large'
p41
I3
tp42
a(I14
I95
I0
S'same'
p43
I3
tp44
a(I14
I179
I0
S'great'
p45
I3
tp46
a(I14
I180
F-0.375
S'small'
p47
I3
tp48
a(I14
I180
F-0.25
S'thin'
p49
I3
tp50
a(I15
I0
F-0.375
S'small'
p51
I3
tp52
a(I15
I0
I0
S'large'
p53
I3
tp54
a(I16
I2
F-0.375
S'small'
p55
I3
tp56
a(I16
I2
I0
S'same'
p57
I3
tp58
a(I16
I16
I0
S'great'
p59
I3
tp60
a(I18
I2
I0
S'great'
p61
I3
tp62
as(S'google'
p63
tp64
(lp65
(I6
I23
F0.375
S'new'
p66
I4
tp67
as(S'power'
p68
S'button'
p69
tp70
(lp71
(I5
I230
F-0.625
S'other'
p72
I0
tp73
a(I5
I230
I0
S'close'
p74
I0
tp75
a(I5
I232
I0
S'close'
p76
I0
tp77
a(I5
I230
I0
g74
I19
tp78
a(I5
I232
I0
g76
I19
tp79
a(I6
I141
F1.0
S'good'
p80
I19
tp81
a(I8
I134
I0
S'dial'
p82
I19
tp83
a(I8
I134
I0
S'same'
p84
I19
tp85
a(I14
I527
F1.0
S'better'
p86
I19
tp87
a(I14
I575
F0.5
S'second'
p88
I19
tp89
as(S'motorola'
p90
tp91
(lp92
(I2
I12
F0.375
S'new'
p93
I0
tp94
a(I3
I2
F0.25
S'read'
p95
I0
tp96
a(I3
I4
F-0.625
S'free'
p97
I0
tp98
a(I5
I138
I0
S'quick'
p99
I0
tp100
a(I5
I246
F0.5
S'touch'
p101
I0
tp102
a(I5
I261
I0
S'same'
p103
I0
tp104
a(I5
I297
F0.75
S'due'
p105
I0
tp106
a(I6
I119
F-0.75
S'wrong'
p107
I0
tp108
a(I6
I203
F0.5
S'characteristic'
p109
I0
tp110
a(I11
I29
F-0.375
S'top'
p111
I0
tp112
a(I11
I31
F1.0
S'best'
p113
I0
tp114
a(I11
I31
F1.0
S'best'
p115
I0
tp116
a(I14
I69
F0.375
S'new'
p117
I0
tp118
as(S'galaxy'
p119
tp120
(lp121
(I14
I198
F0.125
S'first'
p122
I0
tp123
as(S'apple'
p124
S'products'
p125
tp126
(lp127
(I14
I23
F0.625
S'easier'
p128
I0
tp129
as(S'call'
p130
S'quality'
p131
tp132
(lp133
(I11
I24
F1.0
S'good'
p134
I0
tp135
a(I13
I12
F1.0
S'good'
p136
I0
tp137
a(I14
I164
F0.625
S'acceptable'
p138
I0
tp139
a(I14
I252
F1.0
S'good'
p140
I0
tp141
as(S'overall'
p142
tp143
(lp144
(I14
I381
F0.625
S'easy'
p145
I12
tp146
as(S'settings'
p147
tp148
(lp149
(I14
I214
I0
S'more'
p150
I1
tp151
a(I14
I261
I0
S'quick'
p152
I1
tp153
a(I14
I533
F0.625
S'easier'
p154
I1
tp155
as(S'camera'
p156
tp157
(lp158
(I2
I21
I0
S'great'
p159
I1
tp160
a(I5
I262
F0.25
S'main'
p161
I1
tp162
a(I6
I121
F-0.625
S'bad'
p163
I1
tp164
a(I6
I156
F0.625
S'noticeable'
p165
I1
tp166
a(I6
I191
I0
S'adequate'
p167
I1
tp168
a(I6
I195
F-0.875
S'harder'
p169
I1
tp170
a(I11
I45
F1.0
S'good'
p171
I1
tp172
a(I14
I99
F1.0
S'better'
p173
I1
tp174
a(I14
I211
F0.875
S'nice'
p175
I1
tp176
a(I14
I214
I0
S'experiment'
p177
I1
tp178
a(I14
I295
F0.125
S'digital'
p179
I1
tp180
a(I14
I355
I0
S'great'
p181
I1
tp182
a(I14
I453
F-0.625
S'bad'
p183
I1
tp184
a(I14
I601
F1.0
S'better'
p185
I1
tp186
a(I15
I1
F1.0
S'better'
p187
I1
tp188
as(S'operating'
p189
S'system'
p190
tp191
(lp192
(I1
I42
F-0.125
S'bean'
p193
I2
tp194
a(I13
I29
F-0.125
S'bean'
p195
I2
tp196
a(I13
I29
F0.375
S'much'
p197
I2
tp198
a(I14
I277
I0
S'entire'
p199
I2
tp200
as(S'iphone'
p201
tp202
(lp203
(I2
I18
F1.0
S'better'
p204
I1
tp205
a(I5
I93
F0.375
S'new'
p206
I1
tp207
a(I5
I113
I0
S'incredible'
p208
I1
tp209
a(I5
I131
F0.125
S'first'
p210
I1
tp211
a(I5
I219
F1.0
S'best'
p212
I1
tp213
a(I5
I219
I0
S'least'
p214
I1
tp215
a(I5
I219
F-0.25
S'cheaper'
p216
I1
tp217
a(I6
I145
I0
S'arrive'
p218
I1
tp219
a(I9
I3
F0.25
S'bigger'
p220
I1
tp221
a(I9
I3
I-100
S'overly-large'
p222
I1
tp223
a(I11
I15
F-0.375
S'smaller'
p224
I1
tp225
a(I11
I15
F-0.75
S'difficult'
p226
I1
tp227
a(I11
I16
F1.0
S'good'
p228
I1
tp229
a(I14
I93
F0.375
S'much'
p230
I1
tp231
a(I14
I93
F0.375
S'exciting'
p232
I1
tp233
a(I14
I178
F-0.625
S'lighter'
p234
I1
tp235
a(I14
I409
I0
S'more'
p236
I1
tp237
as(S'wifi'
p238
tp239
(lp240
(I5
I150
F-0.375
S'disable'
p241
I0
tp242
a(I5
I167
F-0.625
S'free'
p243
I0
tp244
a(I5
I170
F0.625
S'aware'
p245
I0
tp246
a(I5
I170
F-0.625
S'free'
p247
I0
tp248
as(S'to'
p249
S'move'
p250
S'apps'
p251
tp252
(lp253
(I11
I1
F-0.75
S'impossible'
p254
I0
tp255
a(I11
I6
F-0.625
S'free'
p256
I0
tp257
a(I14
I581
F-0.5
S'open'
p258
I0
tp259
a(I14
I581
I0
S'faster'
p260
I0
tp261
a(I1
I16
F1.0
S'good'
p262
I0
tp263
a(I1
I44
F0.25
S'recent'
p264
I0
tp265
a(I2
I30
F0.125
S'able'
p266
I0
tp267
a(I2
I32
I0
S'many'
p268
I0
tp269
a(I3
I1
F0.375
S'allow'
p270
I0
tp271
a(I5
I51
F-0.125
S'delete'
p272
I0
tp273
a(I5
I51
I0
S'hot'
p274
I0
tp275
a(I5
I73
F0.25
S'recent'
p276
I0
tp277
a(I5
I269
I0
S'older'
p278
I0
tp279
a(I6
I157
I0
S'more'
p280
I0
tp281
a(I6
I157
F0.625
S'major'
p282
I0
tp283
a(I10
I15
F-0.25
S'google'
p284
I0
tp285
a(I10
I41
I0
S'more'
p286
I0
tp287
a(I11
I1
F-0.75
g254
I0
tp288
a(I11
I6
F-0.625
g256
I0
tp289
a(I11
I23
F0.25
S'recent'
p290
I0
tp291
a(I14
I111
F-0.5
S'certain'
p292
I0
tp293
a(I14
I256
I0
S'specific'
p294
I0
tp295
a(I14
I361
I0
S'most'
p296
I0
tp297
a(I14
I361
F0.125
S'essential'
p298
I0
tp299
a(I14
I386
F0.25
S'favorite'
p300
I0
tp301
a(I14
I486
F0.375
S'conscious'
p302
I0
tp303
a(I14
I550
I0
S'few'
p304
I0
tp305
a(I14
I550
F0.375
S'extra'
p306
I0
tp307
a(I14
I581
F-0.5
g258
I0
tp308
a(I14
I581
I0
g260
I0
tp309
as(S'pocket'
p310
tp311
(lp312
(I14
I389
F-0.375
S'small'
p313
I17
tp314
as(S'droid'
p315
S'razr'
p316
S'm'
p317
tp318
(lp319
(I5
I23
F-0.625
S'other'
p320
I0
tp321
a(I5
I89
F0.375
S'new'
p322
I0
tp323
a(I5
I295
F0.375
S'similar'
p324
I0
tp325
a(I8
I102
I0
S'old'
p326
I0
tp327
a(I14
I127
I0
S'incredible'
p328
I0
tp329
a(I14
I354
F0.25
S'favorite'
p330
I0
tp331
a(I17
I0
I0
S'such'
p332
I0
tp333
a(I2
I23
F0.25
S'original'
p334
I0
tp335
a(I4
I8
F0.125
S'first'
p336
I0
tp337
a(I5
I23
F-0.625
g320
I0
tp338
a(I5
I89
F0.375
g322
I0
tp339
a(I5
I90
F-0.625
S'other'
p340
I0
tp341
a(I5
I142
F0.875
S'lucky'
p342
I0
tp343
a(I5
I142
I0
S'older'
p344
I0
tp345
a(I5
I191
F-0.125
S'opposite'
p346
I0
tp347
a(I5
I202
I0
S'same'
p348
I0
tp349
a(I5
I206
F0.375
S'new'
p350
I0
tp351
a(I5
I216
F-0.25
S'white'
p352
I0
tp353
a(I5
I218
F-0.25
S'white'
p354
I0
tp355
a(I5
I224
F1.0
S'better'
p356
I0
tp357
a(I6
I178
I0
S'more'
p358
I0
tp359
a(I6
I178
F0.125
S'capable'
p360
I0
tp361
a(I6
I187
I0
S'least'
p362
I0
tp363
a(I6
I192
F0.875
S'happy'
p364
I0
tp365
a(I6
I205
F0.375
S'new'
p366
I0
tp367
a(I8
I53
F0.125
S'able'
p368
I0
tp369
a(I8
I64
I0
S'standard'
p370
I0
tp371
a(I8
I119
F-0.75
S'difficult'
p372
I0
tp373
a(I12
I0
I0
S'great'
p374
I0
tp375
a(I14
I136
I0
S'fast'
p376
I0
tp377
a(I14
I146
F-0.625
S'other'
p378
I0
tp379
a(I14
I323
F0.875
S'happy'
p380
I0
tp381
a(I14
I324
F-0.5
S'regular'
p382
I0
tp383
a(I14
I354
F0.25
g330
I0
tp384
a(I14
I372
F-0.125
S'slow'
p385
I0
tp386
a(I14
I379
I0
S'old'
p387
I0
tp388
a(I17
I0
I0
g332
I0
tp389
a(I5
I23
F-0.625
g320
I0
tp390
a(I5
I89
F0.375
g322
I0
tp391
a(I5
I295
F0.375
g324
I0
tp392
a(I8
I102
I0
g326
I0
tp393
a(I14
I127
I0
g328
I0
tp394
a(I14
I321
F0.25
S'original'
p395
I0
tp396
a(I2
I23
F0.25
g334
I0
tp397
a(I4
I8
F0.125
g336
I0
tp398
a(I5
I23
F-0.625
g320
I0
tp399
a(I5
I89
F0.375
g322
I0
tp400
a(I5
I90
F-0.625
g340
I0
tp401
a(I5
I142
F0.875
g342
I0
tp402
a(I5
I142
I0
g344
I0
tp403
a(I5
I206
F0.375
g350
I0
tp404
a(I5
I216
F-0.25
g352
I0
tp405
a(I5
I218
F-0.25
g354
I0
tp406
a(I5
I224
F1.0
g356
I0
tp407
a(I6
I192
F0.875
g364
I0
tp408
a(I6
I205
F0.375
g366
I0
tp409
a(I8
I64
I0
g370
I0
tp410
a(I8
I119
F-0.75
g372
I0
tp411
a(I14
I324
F-0.5
g382
I0
tp412
a(I14
I379
I0
g387
I0
tp413
a(I2
I35
F0.125
S'first'
p414
I0
tp415
a(I5
I295
F0.375
g324
I0
tp416
a(I6
I108
F0.875
S'happiest'
p417
I0
tp418
a(I6
I109
F1.0
S'good'
p419
I0
tp420
a(I6
I130
F1.0
S'better'
p421
I0
tp422
a(I8
I102
I0
g326
I0
tp423
a(I8
I172
I0
S'later'
p424
I0
tp425
a(I8
I172
I0
S'entire'
p426
I0
tp427
a(I14
I126
F-0.125
S'overall'
p428
I0
tp429
a(I14
I126
F-0.5
S'miss'
p430
I0
tp431
a(I14
I127
I0
g328
I0
tp432
a(I14
I186
F1.0
S'best'
p433
I0
tp434
a(I14
I321
F0.25
g395
I0
tp435
a(I14
I368
I0
S'many'
p436
I0
tp437
a(I14
I499
I0
S'current'
p438
I0
tp439
a(I14
I510
F-0.875
S'trouble'
p440
I0
tp441
a(I14
I510
I0
S'old'
p442
I0
tp443
a(I14
I573
I0
S'old'
p444
I0
tp445
as(S'mobile'
p446
S'data'
p447
tp448
(lp449
(I5
I166
F-0.25
S'turned'
p450
I0
tp451
a(I11
I66
I0
S'mobile'
p452
I0
tp453
a(I14
I537
I0
S'mobile'
p454
I0
tp455
a(I14
I599
I0
S'mobile'
p456
I0
tp457
a(I1
I4
I0
S'signal'
p458
I13
tp459
a(I5
I166
F-0.25
g450
I13
tp460
a(I6
I16
I0
S'full'
p461
I13
tp462
a(I11
I66
I0
g452
I13
tp463
a(I14
I351
F-0.75
S'secondary'
p464
I13
tp465
a(I14
I377
F-0.5
S'unlimited'
p466
I13
tp467
a(I14
I474
F-0.375
S'smallest'
p468
I13
tp469
a(I14
I537
I0
g454
I13
tp470
a(I14
I599
I0
g456
I13
tp471
a(I18
I5
F1.0
S'good'
p472
I13
tp473
as(S'good'
p474
S'battery'
p475
S'life'
p476
tp477
(lp478
(I4
I0
F1.0
S'good'
p479
I0
tp480
a(I4
I9
F0.5
S'strong'
p481
I0
tp482
a(I5
I133
F0.625
S'decent'
p483
I0
tp484
a(I6
I196
F1.0
S'good'
p485
I0
tp486
a(I2
I1
I0
S'great'
p487
I1
tp488
a(I4
I0
F1.0
g479
I1
tp489
a(I4
I9
F0.5
g481
I1
tp490
a(I5
I133
F0.625
g483
I1
tp491
a(I5
I140
I0
S'great'
p492
I1
tp493
a(I5
I184
F-0.75
S'disappointment'
p494
I1
tp495
a(I5
I184
F-0.25
S'battery'
p496
I1
tp497
a(I5
I306
I0
S'great'
p498
I1
tp499
a(I6
I129
I0
S'great'
p500
I1
tp501
a(I6
I152
I0
S'same'
p502
I1
tp503
a(I6
I184
I0
S'adequate'
p504
I1
tp505
a(I6
I196
F1.0
g485
I1
tp506
a(I8
I113
F0.125
S'impressive'
p507
I1
tp508
a(I10
I23
I0
S'great'
p509
I1
tp510
a(I10
I50
I0
S'great'
p511
I1
tp512
a(I14
I137
I0
S'great'
p513
I1
tp514
a(I14
I165
F0.625
S'acceptable'
p515
I1
tp516
a(I14
I178
I0
S'great'
p517
I1
tp518
a(I14
I284
F-0.625
S'average'
p519
I1
tp520
a(I14
I304
F0.375
S'much'
p521
I1
tp522
a(I14
I460
F-0.25
S'lower'
p523
I1
tp524
a(I14
I460
F1.0
S'better'
p525
I1
tp526
a(I14
I597
F-0.25
S'battery'
p527
I1
tp528
a(I18
I23
I0
S'incredible'
p529
I1
tp530
a(I5
I140
I0
g492
I19
tp531
a(I5
I184
F-0.75
g494
I19
tp532
a(I5
I184
F-0.25
g496
I19
tp533
a(I5
I224
F1.0
S'good'
p534
I19
tp535
a(I5
I306
I0
g498
I19
tp536
a(I6
I88
F-0.75
S'short'
p537
I19
tp538
a(I6
I129
I0
g500
I19
tp539
a(I6
I152
I0
g502
I19
tp540
a(I6
I184
I0
g504
I19
tp541
a(I6
I196
F1.0
g485
I19
tp542
a(I8
I113
F0.125
g507
I19
tp543
a(I8
I207
F0.625
S'easier'
p544
I19
tp545
a(I10
I23
I0
g509
I19
tp546
a(I11
I50
F0.625
S'easier'
p547
I19
tp548
a(I14
I137
I0
g513
I19
tp549
a(I14
I165
F0.625
g515
I19
tp550
a(I14
I178
I0
g517
I19
tp551
a(I14
I304
F0.375
g521
I19
tp552
a(I14
I597
F-0.25
g527
I19
tp553
a(I18
I23
I0
g529
I19
tp554
a(I2
I1
I0
g487
I15
tp555
a(I4
I0
F1.0
g479
I15
tp556
a(I4
I9
F0.5
g481
I15
tp557
a(I4
I18
I0
S'inside'
p558
I15
tp559
a(I4
I24
F1.0
S'good'
p560
I15
tp561
a(I5
I133
F0.625
g483
I15
tp562
a(I5
I194
F0.625
S'major'
p563
I15
tp564
a(I6
I103
I0
S'great'
p565
I15
tp566
a(I6
I171
F0.375
S'much'
p567
I15
tp568
a(I6
I195
F1.0
S'better'
p569
I15
tp570
a(I7
I0
I0
S'more'
p571
I15
tp572
a(I10
I50
I0
g511
I15
tp573
a(I14
I125
I0
S'more'
p574
I15
tp575
a(I14
I139
F0.5
S'whole'
p576
I15
tp577
a(I14
I179
F0.125
S'last'
p578
I15
tp579
a(I14
I284
F-0.625
g519
I15
tp580
a(I14
I460
F-0.25
g523
I15
tp581
a(I14
I460
F1.0
g525
I15
tp582
as(S'internal'
p583
S'storage'
p584
tp585
(lp586
(I2
I26
I0
S'internal'
p587
I0
tp588
a(I2
I28
I0
S'internal'
p589
I0
tp590
a(I5
I210
I0
S'internal'
p591
I0
tp592
a(I5
I213
F-0.5
S'less'
p593
I0
tp594
a(I5
I213
I0
S'internal'
p595
I0
tp596
a(I8
I0
I0
S'limited'
p597
I0
tp598
a(I8
I0
I0
S'internal'
p599
I0
tp600
a(I8
I5
F-0.75
S'little'
p601
I0
tp602
a(I8
I5
I0
S'internal'
p603
I0
tp604
a(I11
I0
I0
S'internal'
p605
I0
tp606
a(I11
I2
I0
S'internal'
p607
I0
tp608
a(I14
I338
I0
S'internal'
p609
I0
tp610
a(I14
I360
I0
S'internal'
p611
I0
tp612
a(I14
I360
F0.375
S'much'
p613
I0
tp614
a(I14
I581
F0.375
S'available'
p615
I0
tp616
a(I14
I581
I0
S'internal'
p617
I0
tp618
a(I14
I581
I0
S'internal'
p619
I0
tp620
a(I2
I26
I0
g587
I1
tp621
a(I2
I28
I0
g589
I1
tp622
a(I5
I210
I0
g591
I1
tp623
a(I5
I213
F-0.5
g593
I1
tp624
a(I5
I213
I0
g595
I1
tp625
a(I8
I0
I0
g597
I1
tp626
a(I8
I0
I0
g599
I1
tp627
a(I8
I5
F-0.75
g601
I1
tp628
a(I8
I5
I0
g603
I1
tp629
a(I11
I0
I0
g605
I1
tp630
a(I11
I2
I0
g607
I1
tp631
a(I12
I22
F-0.875
S'stuck'
p632
I1
tp633
a(I14
I338
I0
g609
I1
tp634
a(I14
I360
I0
g611
I1
tp635
a(I14
I360
F0.375
g613
I1
tp636
a(I14
I581
F0.375
g615
I1
tp637
a(I14
I581
I0
g617
I1
tp638
a(I14
I581
I0
g619
I1
tp639
as(S'ice'
p640
S'cream'
p641
S'sandwich'
p642
tp643
(lp644
(I2
I7
I0
S'standard'
p645
I0
tp646
a(I8
I35
F0.625
S'easy'
p647
I0
tp648
a(I14
I502
I0
S'useful'
p649
I0
tp650
a(I14
I502
F0.375
S'friendly'
p651
I0
tp652
a(I18
I10
I0
S'same'
p653
I0
tp654
a(I2
I7
I0
g645
I2
tp655
a(I18
I10
I0
g653
I2
tp656
a(I8
I35
F0.625
g647
I0
tp657
a(I14
I502
I0
g649
I0
tp658
a(I14
I502
F0.375
g651
I0
tp659
as(S'on'
p660
S'sd'
p661
S'card'
p662
tp663
(lp664
(I5
I126
F0.875
S'music'
p665
I0
tp666
a(I14
I72
I0
S'external'
p667
I0
tp668
a(I14
I494
F0.5
S'careful'
p669
I0
tp670
a(I3
I1
I0
S'external'
p671
I0
tp672
a(I5
I126
F0.875
g665
I0
tp673
a(I14
I44
I0
S'external'
p674
I0
tp675
a(I14
I72
I0
g667
I0
tp676
a(I14
I494
F0.5
g669
I0
tp677
as(S'verizon'
p678
tp679
(lp680
(I5
I55
F0.5
S'rid'
p681
I0
tp682
a(I5
I156
I0
S'local'
p683
I0
tp684
a(I8
I18
F0.375
S'available'
p685
I0
tp686
a(I8
I18
I0
S'quick'
p687
I0
tp688
a(I13
I21
I0
S'local'
p689
I0
tp690
a(I13
I36
F-0.625
S'other'
p691
I0
tp692
a(I14
I469
F-0.625
S'free'
p693
I0
tp694
a(I17
I5
F0.375
S'new'
p695
I0
tp696
as(S'android'
p697
tp698
(lp699
(I1
I6
I0
S'compact'
p700
I0
tp701
a(I5
I23
I0
S'same'
p702
I0
tp703
a(I5
I180
F-0.625
S'other'
p704
I0
tp705
a(I8
I225
I0
S'normal'
p706
I0
tp707
a(I13
I26
F-0.625
S'other'
p708
I0
tp709
a(I14
I154
F0.375
S'much'
p710
I0
tp711
a(I14
I399
F0.125
S'first'
p712
I0
tp713
a(I14
I424
F-0.375
S'small'
p714
I0
tp715
a(I14
I470
F0.375
S'honest'
p716
I0
tp717
a(I14
I470
F1.0
S'best'
p718
I0
tp719
as(S'apps'
p720
S'to'
p721
S'sd'
p722
tp723
(lp724
(I2
I30
F0.125
g266
I0
tp725
a(I3
I1
F0.375
g270
I0
tp726
a(I3
I1
I0
g671
I0
tp727
a(I11
I1
F-0.75
g254
I0
tp728
a(I11
I6
F-0.625
g256
I0
tp729
a(I14
I581
F-0.5
g258
I0
tp730
a(I14
I581
I0
g260
I0
tp731
as(S'alarm'
p732
S'clock'
p733
tp734
(lp735
(I13
I5
F-0.875
S'awful'
p736
I0
tp737
as(S'and'
p738
S'battery'
p739
S'life'
p740
tp741
(lp742
(I4
I0
F1.0
g479
I1
tp743
a(I4
I9
F0.5
g481
I1
tp744
a(I5
I133
F0.625
g483
I1
tp745
a(I6
I129
I0
g500
I1
tp746
a(I8
I113
F0.125
g507
I1
tp747
a(I10
I23
I0
g509
I1
tp748
a(I10
I50
I0
g511
I1
tp749
a(I14
I137
I0
g513
I1
tp750
a(I14
I165
F0.625
g515
I1
tp751
a(I14
I178
I0
g517
I1
tp752
a(I14
I284
F-0.625
g519
I1
tp753
a(I14
I597
F-0.25
g527
I1
tp754
as(S'kevlar'
p755
S'backing'
p756
tp757
(lp758
(I12
I30
F-0.75
S'tough'
p759
I0
tp760
as(S'droid'
p761
S'x'
p762
tp763
(lp764
(I6
I109
F1.0
g419
I0
tp765
a(I6
I130
F1.0
g421
I0
tp766
a(I14
I126
F-0.125
g428
I0
tp767
a(I14
I126
F-0.5
g430
I0
tp768
a(I14
I127
I0
g328
I0
tp769
a(I14
I499
I0
g438
I0
tp770
a(I14
I499
F0.625
S'superior'
p771
I0
tp772
as(S'things'
p773
S'like'
p774
tp775
(lp776
(I11
I35
F-0.625
S'other'
p777
I2
tp778
a(I14
I98
F-0.375
S'small'
p779
I2
tp780
as(S'much'
p781
S'better'
p782
tp783
(lp784
(I6
I160
F0.375
S'much'
p785
I9
tp786
a(I8
I84
F0.375
S'much'
p787
I9
tp788
a(I14
I140
F0.375
S'much'
p789
I9
tp790
a(I14
I324
F0.375
S'much'
p791
I9
tp792
as(S'smart'
p793
S'actions'
p794
tp795
(lp796
(I14
I82
F-0.125
S'bean'
p797
I0
tp798
a(I5
I35
F0.375
S'seasoned'
p799
I10
tp800
a(I5
I276
F-0.625
S'other'
p801
I10
tp802
a(I5
I276
F0.5
S'comparable'
p803
I10
tp804
a(I5
I301
F0.125
S'first'
p805
I10
tp806
a(I8
I36
I0
S'earlier'
p807
I10
tp808
a(I8
I279
F-0.625
S'other'
p809
I10
tp810
a(I14
I82
F-0.125
g797
I10
tp811
a(I14
I468
F0.125
S'first'
p812
I10
tp813
a(I14
I579
F0.125
S'first'
p814
I10
tp815
a(I14
I582
F-0.5
S'heavy'
p816
I10
tp817
a(I14
I545
I0
S'basic'
p818
I0
tp819
as(S'customer'
p820
S'service'
p821
tp822
(lp823
(I8
I7
I0
S'great'
p824
I3
tp825
a(I14
I503
I0
S'more'
p826
I3
tp827
as(S'volume'
p828
tp829
(lp830
(I11
I12
I0
S'full'
p831
I6
tp832
a(I11
I12
I0
S'full'
p833
I6
tp834
as(S'amazon'
p835
tp836
(lp837
(I8
I198
F-0.375
S'crazy'
p838
I13
tp839
as(S'touch'
p840
S'screen'
p841
tp842
(lp843
(I14
I110
F0.5
S'touch'
p844
I2
tp845
as.