(dp0
(S'screen'
p1
S'size'
p2
tp3
(lp4
(I3
I46
F-0.375
S'small'
p5
I3
tp6
a(I4
I12
F1.0
S'better'
p7
I3
tp8
a(I8
I7
F-0.375
S'smaller'
p9
I3
tp10
a(I8
I13
F-0.375
S'small'
p11
I3
tp12
a(I13
I11
F0.625
S'perfect'
p13
I3
tp14
a(I13
I11
F0.5
S'clear'
p15
I3
tp16
a(I13
I11
I0
S'detailed'
p17
I3
tp18
a(I17
I23
F-0.375
S'small'
p19
I3
tp20
as(S'google'
p21
S'play'
p22
tp23
(lp24
(I15
I62
F-0.25
S'google'
p25
I0
tp26
as(S'battery'
p27
S'life'
p28
tp29
(lp30
(I0
I10
F1.0
S'good'
p31
I1
tp32
a(I0
I102
F1.0
S'good'
p33
I1
tp34
a(I2
I20
F0.625
S'decent'
p35
I1
tp36
a(I4
I1
F1.0
S'good'
p37
I1
tp38
a(I4
I34
I0
S'great'
p39
I1
tp40
a(I13
I6
F-0.5
S'long'
p41
I1
tp42
a(I17
I28
F1.0
S'good'
p43
I1
tp44
a(I18
I11
F1.0
S'good'
p45
I1
tp46
a(I19
I10
F1.0
S'good'
p47
I1
tp48
a(I21
I0
F-0.625
S'other'
p49
I1
tp50
a(I0
I10
F1.0
g31
I19
tp51
a(I0
I102
F1.0
g33
I19
tp52
a(I2
I20
F0.625
g35
I19
tp53
a(I4
I34
I0
g39
I19
tp54
a(I13
I6
F-0.5
g41
I19
tp55
a(I17
I28
F1.0
g43
I19
tp56
a(I18
I11
F1.0
g45
I19
tp57
a(I21
I0
F-0.625
g49
I19
tp58
a(I3
I19
F0.25
S'larger'
p59
I15
tp60
a(I4
I1
F1.0
g37
I15
tp61
a(I4
I39
F0.625
S'removable'
p62
I15
tp63
a(I4
I39
F0.375
S'extra'
p64
I15
tp65
a(I13
I8
F0.125
S'last'
p66
I15
tp67
a(I19
I10
F1.0
g47
I15
tp68
a(I23
I13
F0.125
S'last'
p69
I15
tp70
as(S'keyboard'
p71
tp72
(lp73
(I0
I98
F-0.75
S'difficult'
p74
I2
tp75
a(I0
I113
I0
S'numeric'
p76
I2
tp77
a(I1
I0
F-0.375
S'small'
p78
I2
tp79
as(S'sony'
p80
S'xperia'
p81
tp82
(lp83
(I20
I4
F-0.125
S'overall'
p84
I0
tp85
a(I20
I4
F0.875
S'happy'
p86
I0
tp87
a(I0
I71
I0
S'least'
p88
I0
tp89
a(I1
I0
F-0.375
S'small'
p90
I5
tp91
a(I1
I0
F-0.75
S'wrong'
p92
I5
tp93
a(I4
I6
F-0.25
S'cheaper'
p94
I5
tp95
a(I7
I8
F-0.75
S'impossible'
p96
I5
tp97
a(I7
I8
I0
S'representative'
p98
I5
tp99
a(I12
I1
F-0.5
S'actual'
p100
I5
tp101
a(I12
I1
F-0.375
S'authorized'
p102
I5
tp103
a(I17
I8
F0.25
S'original'
p104
I5
tp105
a(I20
I4
F-0.125
g84
I5
tp106
a(I20
I4
F0.875
g86
I5
tp107
as(S'cassette'
p108
S'adapter'
p109
tp110
(lp111
(I9
I21
I0
S'cable'
p112
I0
tp113
as(S'service'
p114
tp115
(lp116
(I0
I82
F-0.125
S'foreign'
p117
I16
tp118
a(I7
I5
F0.875
S'rude'
p119
I16
tp120
as(S'camera'
p121
tp122
(lp123
(I0
I76
F-0.75
S'secondary'
p124
I1
tp125
a(I3
I18
F-0.625
S'light'
p126
I1
tp127
a(I4
I12
F1.0
S'better'
p128
I1
tp129
a(I4
I20
F0.5
S'willing'
p130
I1
tp131
a(I17
I25
F-0.5
S'poor'
p132
I1
tp133
a(I17
I35
F0.875
S'nice'
p134
I1
tp135
a(I18
I10
I0
S'basic'
p136
I1
tp137
a(I21
I0
I0
S'cellular'
p138
I1
tp139
a(I21
I0
F1.0
S'good'
p140
I1
tp141
as(S'dumb'
p142
S'phone-'
p143
tp144
(lp145
(I0
I10
F-0.625
S'lighter'
p146
I0
tp147
as(S'unlimited'
p148
S'voice'
p149
tp150
(lp151
(I4
I44
F-0.5
S'unlimited'
p152
I0
tp153
a(I4
I21
F-0.25
S'cheaper'
p154
I4
tp155
a(I4
I44
F-0.5
g152
I4
tp156
as(S'high'
p157
S'end'
p158
tp159
(lp160
(I3
I17
I0
S'high'
p161
I0
tp162
a(I3
I17
F-0.375
S'small'
p163
I0
tp164
a(I3
I20
F-0.25
S'low'
p165
I0
tp166
a(I3
I20
I0
S'high'
p167
I0
tp168
a(I3
I35
I0
S'high'
p169
I0
tp170
as(S'memory'
p171
tp172
(lp173
(I0
I33
I0
S'external'
p174
I5
tp175
a(I0
I34
F0.125
S'equal'
p176
I5
tp177
a(I0
I36
I0
S'external'
p178
I5
tp179
a(I15
I61
I0
S'internal'
p180
I5
tp181
a(I17
I63
I0
S'internal'
p182
I5
tp183
a(I19
I15
I0
S'internal'
p184
I5
tp185
a(I20
I2
I0
S'internal'
p186
I5
tp187
as(S'number'
p188
S'of'
p189
S'apps'
p190
tp191
(lp192
(I17
I52
I0
S'many'
p193
I0
tp194
a(I23
I9
I0
S'many'
p195
I0
tp196
a(I0
I17
I0
S'many'
p197
I0
tp198
a(I0
I40
I0
S'more'
p199
I0
tp200
a(I3
I32
I0
S'android'
p201
I0
tp202
a(I3
I37
F0.375
S'much'
p203
I0
tp204
a(I3
I37
I0
S'different'
p205
I0
tp206
a(I20
I2
F0.875
S'music'
p207
I0
tp208
as(S'android'
p209
tp210
(lp211
(I2
I29
F0.125
S'first'
p212
I0
tp213
a(I24
I1
F1.0
S'best'
p214
I0
tp215
as(S'sound'
p216
tp217
(lp218
(I0
I5
I0
S'great'
p219
I7
tp220
a(I0
I5
F-0.75
S'difficult'
p221
I7
tp222
a(I0
I9
I0
S'great'
p223
I7
tp224
a(I0
I71
F1.0
S'good'
p225
I7
tp226
as(S'smart'
p227
tp228
(lp229
(I3
I5
F-0.375
S'small'
p230
I10
tp231
a(I4
I14
I0
S'different'
p232
I10
tp233
as(S'dual'
p234
S'sim'
p235
S'cards'
p236
tp237
(lp238
(I4
I29
F-0.625
S'other'
p239
I0
tp240
a(I4
I30
F0.25
S'used'
p241
I0
tp242
a(I0
I82
F0.5
S'second'
p243
I0
tp244
a(I0
I82
I0
S'prepaid'
p245
I0
tp246
a(I4
I29
F-0.625
g239
I0
tp247
a(I4
I30
F0.25
g241
I0
tp248
a(I17
I46
F-0.5
S'sure'
p249
I0
tp250
a(I19
I17
I0
S'different'
p251
I0
tp252
a(I4
I27
F-0.75
S'single'
p253
I0
tp254
a(I4
I29
F-0.625
g239
I0
tp255
a(I4
I30
F0.25
g241
I0
tp256
a(I8
I12
F-0.375
S'unstable'
p257
I0
tp258
a(I17
I46
F-0.5
g249
I15
tp259
as(S'network'
p260
tp261
(lp262
(I2
I16
F-0.75
S'unresponsive'
p263
I0
tp264
a(I2
I19
F0.125
S'key'
p265
I0
tp266
a(I2
I19
F-0.5
S'sure'
p267
I0
tp268
a(I11
I23
I0
S'own'
p269
I0
tp270
a(I17
I17
I0
S'active'
p271
I0
tp272
as(S'sim'
p273
S'card'
p274
tp275
(lp276
(I0
I82
F0.5
g243
I0
tp277
a(I0
I82
I0
g245
I0
tp278
a(I4
I29
F-0.625
g239
I0
tp279
a(I4
I30
F0.25
g241
I0
tp280
a(I4
I43
I0
S'physical'
p281
I0
tp282
a(I8
I13
I0
S'same'
p283
I0
tp284
a(I19
I17
I0
g251
I0
tp285
as(S'dual'
p286
S'sims'
p287
tp288
(lp289
(I3
I26
F0.375
S'passive'
p290
I0
tp291
a(I17
I15
I0
S'handy'
p292
I0
tp293
a(I3
I26
F0.375
g290
I0
tp294
a(I12
I0
F-0.75
S'single'
p295
I0
tp296
a(I17
I15
I0
g292
I0
tp297
a(I19
I3
F-0.125
S'mine'
p298
I0
tp299
as(S'blue'
p300
S'tooth'
p301
tp302
(lp303
(I17
I36
I0
S'blue'
p304
I0
tp305
as(S'data'
p306
tp307
(lp308
(I0
I56
F0.5
S'characteristic'
p309
I13
tp310
a(I4
I30
F-0.5
S'separate'
p311
I13
tp312
a(I4
I49
I0
S'cellular'
p313
I13
tp314
as(S'smartphone'
p315
tp316
(lp317
(I4
I11
I0
S'basic'
p318
I0
tp319
a(I4
I19
I0
S'basic'
p320
I0
tp321
a(I15
I1
F0.625
S'easy'
p322
I0
tp323
a(I15
I1
F-0.375
S'simple'
p324
I0
tp325
a(I15
I29
F0.375
S'much'
p326
I0
tp327
a(I18
I8
F0.125
S'first'
p328
I0
tp329
as(S'music'
p330
S'library'
p331
tp332
(lp333
(I17
I67
I-100
S'slow-compiling'
p334
I0
tp335
as(S'wifi'
p336
tp337
(lp338
(I0
I1
F0.5
S'strong'
p339
I0
tp340
a(I0
I1
F1.0
S'good'
p341
I0
tp342
a(I0
I55
I0
S'more'
p343
I0
tp344
a(I0
I55
F0.625
S'convenient'
p345
I0
tp346
a(I17
I41
F0.125
S'outside'
p347
I0
tp348
a(I17
I43
F0.5
S'strong'
p349
I0
tp350
as(S'touch'
p351
S'screen'
p352
tp353
(lp354
(I0
I121
F0.5
S'touch'
p355
I2
tp356
a(I0
I121
I0
S'sensitive'
p357
I2
tp358
a(I1
I0
F-0.75
S'wrong'
p359
I2
tp360
a(I1
I0
F-0.875
S'worst'
p361
I2
tp362
a(I1
I0
I0
S'same'
p363
I2
tp364
a(I8
I9
F0.5
S'touch'
p365
I2
tp366
a(I15
I53
F0.5
S'touch'
p367
I2
tp368
a(I16
I28
F0.25
S'responsive'
p369
I2
tp370
a(I18
I21
F0.5
S'touch'
p371
I2
tp372
as.