(dp0
(S'mobile'
p1
tp2
(lp3
(I7
I53
F1.0
S'good'
p4
I0
tp5
a(I10
I14
F0.375
S'new'
p6
I0
tp7
as(S'battery'
p8
S'life'
p9
tp10
(lp11
(I1
I115
F-0.5
S'poor'
p12
I1
tp13
a(I1
I124
I0
S'more'
p14
I1
tp15
a(I1
I147
F-0.625
S'average'
p16
I1
tp17
a(I1
I148
I0
S'great'
p18
I1
tp19
a(I1
I97
F-0.75
S'short'
p20
I19
tp21
a(I1
I115
F-0.5
g12
I19
tp22
a(I1
I124
I0
g14
I19
tp23
a(I1
I148
I0
g18
I19
tp24
a(I7
I37
F1.0
S'good'
p25
I19
tp26
a(I1
I36
F0.625
S'removable'
p27
I15
tp28
a(I1
I38
F0.125
S'able'
p29
I15
tp30
a(I1
I39
F0.875
S'important'
p31
I15
tp32
a(I1
I70
F-0.25
S'low'
p33
I15
tp34
a(I1
I126
F-0.625
S'other'
p35
I15
tp36
a(I1
I147
F-0.625
g16
I15
tp37
a(I2
I33
I0
S'hot'
p38
I15
tp39
a(I11
I1
F-0.625
S'bad'
p40
I15
tp41
a(I11
I24
F0.625
S'removable'
p42
I15
tp43
as(S'email'
p44
tp45
(lp46
(I4
I24
F0.5
S'personal'
p47
I5
tp48
a(I8
I37
F-0.25
S'google'
p49
I5
tp50
as(S'itunes'
p51
tp52
(lp53
(I7
I26
F0.375
S'available'
p54
I0
tp55
as(S'best'
p56
S'camera'
p57
tp58
(lp59
(I0
I49
F1.0
S'best'
p60
I0
tp61
a(I8
I18
F1.0
S'best'
p62
I0
tp63
a(I11
I15
F1.0
S'best'
p64
I0
tp65
a(I11
I20
F1.0
S'best'
p66
I0
tp67
a(I15
I48
F0.25
S'powerful'
p68
I0
tp69
a(I0
I31
I0
S'great'
p70
I1
tp71
a(I0
I49
F1.0
g60
I1
tp72
a(I0
I97
I0
S'great'
p73
I1
tp74
a(I1
I143
F1.0
S'better'
p75
I1
tp76
a(I3
I59
F-0.375
S'beast'
p77
I1
tp78
a(I6
I0
I0
S'great'
p79
I1
tp80
a(I8
I5
I0
S'incredible'
p81
I1
tp82
a(I8
I18
F1.0
g62
I1
tp83
a(I10
I6
F1.0
S'good'
p84
I1
tp85
a(I11
I15
F1.0
g64
I1
tp86
a(I11
I20
F1.0
g66
I1
tp87
a(I11
I28
I0
S'great'
p88
I1
tp89
a(I11
I28
F0.75
S'beautiful'
p90
I1
tp91
a(I15
I48
F0.25
g68
I1
tp92
as(S'operating'
p93
S'system'
p94
tp95
(lp96
(I3
I22
F1.0
S'good'
p97
I2
tp98
as(S'iphone'
p99
tp100
(lp101
(I3
I67
F1.0
S'better'
p102
I1
tp103
a(I3
I67
I0
S'old'
p104
I1
tp105
a(I7
I38
I0
S'more'
p106
I1
tp107
a(I8
I1
F-0.125
S'former'
p108
I1
tp109
a(I11
I17
I0
S'common'
p110
I1
tp111
as(S'lumia'
p112
tp113
(lp114
(I1
I191
F-0.5
S'sure'
p115
I0
tp116
a(I8
I71
F0.875
S'nice'
p117
I0
tp118
a(I15
I7
I0
S'many'
p119
I0
tp120
a(I15
I48
F0.25
S'powerful'
p121
I0
tp122
as(S'windows'
p123
tp124
(lp125
(I0
I68
F-0.875
S'regret'
p126
I0
tp127
a(I0
I68
I0
S'android'
p128
I0
tp129
a(I1
I10
I0
S'few'
p130
I0
tp131
a(I1
I67
F1.0
S'best'
p132
I0
tp133
a(I2
I4
F0.5
S'true'
p134
I0
tp135
a(I3
I77
F0.375
S'new'
p136
I0
tp137
a(I5
I4
I0
S'mobile'
p138
I0
tp139
a(I7
I1
F-0.5
S'sure'
p140
I0
tp141
a(I7
I9
I0
S'update'
p142
I0
tp143
a(I7
I50
F0.125
S'typical'
p144
I0
tp145
a(I10
I17
F0.125
S'savvy'
p146
I0
tp147
a(I10
I25
F0.5
S'compatible'
p148
I0
tp149
a(I11
I21
F-0.625
S'cloud'
p150
I0
tp151
a(I13
I54
I-100
S'music/video/photo/playlist'
p152
I0
tp153
as(S'galaxy'
p154
tp155
(lp156
(I0
I81
I0
S'fast'
p157
I0
tp158
a(I3
I0
F-0.25
S'past'
p159
I0
tp160
a(I6
I25
F0.375
S'new'
p161
I0
tp162
as(S'glass'
p163
tp164
(lp165
(I1
I28
F-0.75
S'tough'
p166
I9
tp167
as(S'many'
p168
S'apps'
p169
tp170
(lp171
(I0
I40
I0
S'many'
p172
I0
tp173
a(I1
I170
I0
S'general'
p174
I0
tp175
a(I3
I58
I0
S'many'
p176
I0
tp177
a(I7
I31
I0
S'more'
p178
I0
tp179
a(I7
I31
I0
S'many'
p180
I0
tp181
a(I12
I2
I0
S'many'
p182
I0
tp183
a(I13
I49
I0
S'many'
p184
I0
tp185
a(I13
I50
I0
S'many'
p186
I0
tp187
a(I0
I40
I0
g172
I0
tp188
a(I0
I67
F0.625
S'major'
p189
I0
tp190
a(I0
I67
F-0.375
S'daily'
p191
I0
tp192
a(I0
I67
F1.0
S'best'
p193
I0
tp194
a(I0
I96
F0.125
S'essential'
p195
I0
tp196
a(I1
I60
F-0.5
S'less'
p197
I0
tp198
a(I1
I114
I0
S'only'
p199
I0
tp200
a(I1
I170
I0
g174
I0
tp201
a(I2
I5
F0.625
S'necessary'
p202
I0
tp203
a(I3
I5
F0.375
S'available'
p204
I0
tp205
a(I3
I5
I0
S'fewer'
p206
I0
tp207
a(I3
I5
F-0.625
S'free'
p208
I0
tp209
a(I3
I58
I0
g176
I0
tp210
a(I4
I6
I0
S'most'
p211
I0
tp212
a(I6
I27
F-0.125
S'slow'
p213
I0
tp214
a(I6
I27
F0.875
S'important'
p215
I0
tp216
a(I6
I28
F0.5
S'functional'
p217
I0
tp218
a(I6
I30
F0.375
S'available'
p219
I0
tp220
a(I7
I1
I0
S'great'
p221
I0
tp222
a(I7
I19
F0.875
S'happy'
p223
I0
tp224
a(I7
I31
I0
g178
I0
tp225
a(I7
I31
I0
g180
I0
tp226
a(I10
I36
F0.625
S'major'
p227
I0
tp228
a(I10
I53
F0.375
S'new'
p229
I0
tp230
a(I11
I22
F-0.5
S'less'
p231
I0
tp232
a(I12
I2
I0
g182
I0
tp233
a(I12
I6
I0
S'exclusive'
p234
I0
tp235
a(I13
I8
F1.0
S'good'
p236
I0
tp237
a(I13
I14
I0
S'more'
p238
I0
tp239
a(I13
I49
I0
g184
I0
tp240
a(I13
I50
I0
g186
I0
tp241
as(S'android'
p242
tp243
(lp244
(I1
I66
F1.0
S'good'
p245
I0
tp246
a(I6
I11
F0.375
S'newer'
p247
I0
tp248
as(S'nokia'
p249
tp250
(lp251
(I1
I182
F0.625
S'easy'
p252
I0
tp253
a(I2
I10
F1.0
S'good'
p254
I0
tp255
a(I3
I14
I0
S'faster'
p256
I0
tp257
a(I10
I32
F0.375
S'new'
p258
I0
tp259
a(I10
I55
I0
S'own'
p260
I0
tp261
a(I11
I23
F0.375
S'similar'
p262
I0
tp263
a(I12
I6
F0.75
S'due'
p264
I0
tp265
a(I13
I5
F0.875
S'happy'
p266
I0
tp267
a(I13
I47
F0.5
S'possible'
p268
I0
tp269
a(I15
I21
F-0.625
S'free'
p270
I0
tp271
a(I15
I21
F-0.625
S'free'
p272
I0
tp273
as(S'sim'
p274
S'card'
p275
tp276
(lp277
(I1
I74
I0
S'own'
p278
I0
tp279
a(I9
I7
I0
S'different'
p280
I0
tp281
as(S'interface'
p282
tp283
(lp284
(I4
I23
F0.625
S'easy'
p285
I1
tp286
a(I11
I24
F-0.375
S'simple'
p287
I1
tp288
as(S'music'
p289
tp290
(lp291
(I0
I25
I0
S'own'
p292
I0
tp293
a(I10
I55
F-0.625
S'free'
p294
I0
tp295
a(I15
I21
I0
S'more'
p296
I0
tp297
as(S'much'
p298
S'better'
p299
tp300
(lp301
(I1
I143
F0.375
S'much'
p302
I9
tp303
a(I1
I143
I0
S'more'
p304
I9
tp305
a(I1
I143
I0
S'faster'
p306
I9
tp307
a(I7
I13
F0.375
S'much'
p308
I9
tp309
as(S'smartphone'
p310
tp311
(lp312
(I0
I49
I0
S'only'
p313
I0
tp314
a(I0
I49
F1.0
S'best'
p315
I0
tp316
a(I1
I9
F0.125
S'first'
p317
I0
tp318
a(I1
I51
F0.125
S'usual'
p319
I0
tp320
a(I7
I2
I0
S'great'
p321
I0
tp322
a(I8
I7
F1.0
S'best'
p323
I0
tp324
a(I10
I38
I0
S'great'
p325
I0
tp326
a(I15
I14
F0.125
S'first'
p327
I0
tp328
a(I15
I54
F1.0
S'best'
p329
I0
tp330
as(S'gets'
p331
S'in'
p332
S'way'
p333
tp334
(lp335
(I0
I76
F-0.25
S'low'
p336
I0
tp337
as(S'wireless'
p338
tp339
(lp340
(I3
I73
F-0.625
S'free'
p341
I0
tp342
as(S'feels'
p343
tp344
(lp345
(I0
I4
F0.125
S'solid'
p346
I14
tp347
a(I0
I12
I0
S'great'
p348
I14
tp349
as.