(dp0
(S'for'
p1
S'razr'
p2
S'maxx'
p3
tp4
(lp5
(I16
I179
I0
S'old'
p6
I0
tp7
as(S'motorola'
p8
tp9
(lp10
(I0
I189
F0.125
S'last'
p11
I0
tp12
a(I0
I198
I0
S'wish'
p13
I0
tp14
a(I7
I82
F0.125
S'last'
p15
I0
tp16
a(I9
I71
F0.625
S'responsible'
p17
I0
tp18
a(I10
I69
I0
S'refined'
p19
I0
tp20
a(I11
I11
F-0.25
S'past'
p21
I0
tp22
a(I13
I22
F0.75
S'due'
p23
I0
tp24
a(I14
I229
F0.25
S'original'
p25
I0
tp26
a(I15
I332
I0
S'few'
p27
I0
tp28
a(I15
I411
I0
S'general'
p29
I0
tp30
a(I16
I3
I0
S'decided'
p31
I0
tp32
a(I16
I36
F-0.125
S'future'
p33
I0
tp34
a(I16
I99
I0
S'old'
p35
I0
tp36
as(S'micro'
p37
S'sd'
p38
S'card'
p39
tp40
(lp41
(I8
I91
I0
S'spring-loaded'
p42
I0
tp43
a(I9
I91
F0.5
S'second'
p44
I0
tp45
a(I9
I91
F-0.75
S'dead'
p46
I0
tp47
a(I12
I104
F0.875
S'nice'
p48
I0
tp49
a(I8
I91
I0
g42
I0
tp50
a(I9
I91
F-0.75
g46
I0
tp51
a(I12
I104
F0.875
g48
I0
tp52
a(I15
I144
I0
S'external'
p53
I0
tp54
as(S'call'
p55
S'quality'
p56
tp57
(lp58
(I6
I67
I0
S'phenomenal'
p59
I0
tp60
a(I9
I88
F1.0
S'better'
p61
I0
tp62
a(I14
I40
I0
S'same'
p63
I0
tp64
a(I14
I195
I0
S'great'
p65
I0
tp66
a(I15
I10
F0.5
S'clear'
p67
I0
tp68
as(S'police'
p69
S'report'
p70
tp71
(lp72
(I15
I96
I0
S'local'
p73
I0
tp74
as(S'samsung'
p75
tp76
(lp77
(I0
I278
I0
S'old'
p78
I7
tp79
a(I1
I0
I0
S'slippery'
p80
I7
tp81
a(I1
I0
I0
S'plastic'
p82
I7
tp83
a(I8
I105
F1.0
S'better'
p84
I7
tp85
a(I16
I106
I0
S'many'
p86
I7
tp87
as(S'camera'
p88
tp89
(lp90
(I0
I17
F-0.625
S'other'
p91
I1
tp92
a(I0
I17
F-0.625
S'bad'
p93
I1
tp94
a(I0
I50
F1.0
S'good'
p95
I1
tp96
a(I0
I164
F1.0
S'best'
p97
I1
tp98
a(I6
I51
F0.625
S'decent'
p99
I1
tp100
a(I6
I88
F1.0
S'good'
p101
I1
tp102
a(I6
I90
F0.75
S'due'
p103
I1
tp104
a(I6
I91
F0.875
S'important'
p105
I1
tp106
a(I7
I77
I0
S'real'
p107
I1
tp108
a(I7
I148
F0.25
S'professional'
p109
I1
tp110
a(I7
I150
F1.0
S'good'
p111
I1
tp112
a(I7
I150
F0.625
S'perfect'
p113
I1
tp114
a(I8
I21
I0
S'only'
p115
I1
tp116
a(I9
I41
I0
S'great'
p117
I1
tp118
a(I9
I66
F-0.25
S'low'
p119
I1
tp120
a(I9
I66
F-0.625
S'light'
p121
I1
tp122
a(I10
I19
F-0.625
S'bad'
p123
I1
tp124
a(I10
I19
F1.0
S'good'
p125
I1
tp126
a(I10
I32
I0
S'wish'
p127
I1
tp128
a(I10
I35
F-0.625
S'bad'
p129
I1
tp130
a(I12
I27
I0
S'such'
p131
I1
tp132
a(I14
I56
F1.0
S'good'
p133
I1
tp134
a(I14
I56
F1.0
S'better'
p135
I1
tp136
a(I14
I102
F1.0
S'good'
p137
I1
tp138
a(I14
I193
F0.25
S'professional'
p139
I1
tp140
a(I14
I292
F1.0
S'good'
p141
I1
tp142
a(I15
I310
F-0.625
S'bad'
p143
I1
tp144
a(I15
I370
I0
S'different'
p145
I1
tp146
a(I15
I408
F1.0
S'good'
p147
I1
tp148
a(I15
I410
I0
S'physical'
p149
I1
tp150
a(I16
I24
F1.0
S'best'
p151
I1
tp152
a(I16
I94
F-0.5
S'poor'
p153
I1
tp154
as(S'gorilla'
p155
S'glass'
p156
tp157
(lp158
(I15
I178
F0.5
S'strong'
p159
I0
tp160
a(I15
I422
F0.875
S'nice'
p161
I0
tp162
as(S'droid'
p163
S'razr'
p164
S'maxx'
p165
tp166
(lp167
(I7
I116
F0.375
S'new'
p168
I0
tp169
a(I8
I67
F0.375
S'new'
p170
I0
tp171
a(I12
I4
F0.25
S'original'
p172
I0
tp173
a(I15
I68
F0.375
S'new'
p174
I0
tp175
a(I15
I117
F0.375
S'new'
p176
I0
tp177
a(I15
I209
I0
S'old'
p178
I0
tp179
a(I16
I168
F0.375
S'new'
p180
I0
tp181
a(I6
I5
F0.25
S'original'
p182
I0
tp183
a(I7
I116
F0.375
g168
I0
tp184
a(I8
I67
F0.375
g170
I0
tp185
a(I12
I4
F0.25
g172
I0
tp186
a(I15
I68
F0.375
g174
I0
tp187
a(I15
I117
F0.375
g176
I0
tp188
a(I15
I209
I0
g178
I0
tp189
a(I7
I116
F0.375
g168
I0
tp190
a(I8
I67
F0.375
g170
I0
tp191
a(I12
I4
F0.25
g172
I0
tp192
a(I13
I59
F-0.125
S'overall'
p193
I0
tp194
a(I15
I68
F0.375
g174
I0
tp195
a(I15
I117
F0.375
g176
I0
tp196
a(I15
I209
I0
g178
I0
tp197
a(I15
I245
F0.375
S'newer'
p198
I0
tp199
a(I15
I253
F-0.75
S'wrong'
p200
I0
tp201
a(I16
I168
F0.375
g180
I0
tp202
a(I0
I104
F0.875
S'happier'
p203
I0
tp204
a(I6
I5
F0.25
g182
I0
tp205
a(I6
I37
I0
S'same'
p206
I0
tp207
a(I7
I56
F0.25
S'original'
p208
I0
tp209
a(I7
I73
F0.25
S'original'
p210
I0
tp211
a(I7
I116
F0.375
g168
I0
tp212
a(I8
I51
F0.375
S'new'
p213
I0
tp214
a(I8
I67
F0.375
g170
I0
tp215
a(I10
I1
I0
S'fourth'
p216
I0
tp217
a(I12
I4
F0.25
g172
I0
tp218
a(I13
I74
F-0.375
S'top'
p219
I0
tp220
a(I14
I69
I0
S'old'
p221
I0
tp222
a(I14
I91
F0.5
S'second'
p223
I0
tp224
a(I15
I68
F0.375
g174
I0
tp225
a(I15
I79
F0.375
S'new'
p226
I0
tp227
a(I15
I117
F0.375
g176
I0
tp228
a(I15
I209
I0
g178
I0
tp229
a(I15
I245
F0.375
g198
I0
tp230
a(I15
I253
F-0.75
g200
I0
tp231
a(I16
I196
F1.0
S'good'
p232
I0
tp233
as(S'operating'
p234
S'system'
p235
tp236
(lp237
(I0
I1
F-0.5
S'open'
p238
I2
tp239
a(I0
I1
I0
S'many'
p240
I2
tp241
a(I0
I256
F1.0
S'best'
p242
I2
tp243
a(I14
I235
F-0.125
S'bean'
p244
I2
tp245
a(I15
I185
F-0.125
S'bean'
p246
I2
tp247
a(I15
I185
I0
S'great'
p248
I2
tp249
a(I16
I5
F0.375
S'new'
p250
I2
tp251
as(S'iphone'
p252
tp253
(lp254
(I0
I8
F1.0
S'good'
p255
I1
tp256
a(I0
I8
F0.25
S'larger'
p257
I1
tp258
a(I0
I306
F0.125
S'first'
p259
I1
tp260
a(I0
I306
F1.0
S'good'
p261
I1
tp262
a(I7
I4
F0.25
S'bigger'
p263
I1
tp264
a(I7
I66
F-0.375
S'small'
p265
I1
tp266
a(I7
I131
F-0.875
S'stuck'
p267
I1
tp268
a(I8
I12
I0
S'dinky'
p269
I1
tp270
a(I8
I61
F-0.875
S'hard'
p271
I1
tp272
a(I9
I20
F0.5
S'whole'
p273
I1
tp274
a(I9
I33
F-0.625
S'other'
p275
I1
tp276
a(I15
I310
F1.0
S'good'
p277
I1
tp278
a(I15
I319
I0
S'great'
p279
I1
tp280
a(I16
I75
I0
S'old'
p281
I1
tp282
as(S'droid'
p283
S'x'
p284
tp285
(lp286
(I0
I104
F0.875
g203
I0
tp287
a(I6
I37
I0
g206
I0
tp288
a(I7
I116
F0.375
g168
I0
tp289
a(I8
I51
F0.375
g213
I0
tp290
a(I8
I67
F0.375
g170
I0
tp291
a(I11
I4
F0.875
S'important'
p292
I0
tp293
a(I12
I4
F0.25
g172
I0
tp294
a(I13
I74
F-0.375
g219
I0
tp295
a(I14
I69
I0
g221
I0
tp296
a(I15
I68
F0.375
g174
I0
tp297
a(I15
I117
F0.375
g176
I0
tp298
a(I15
I209
I0
g178
I0
tp299
a(I15
I245
F0.375
g198
I0
tp300
a(I15
I253
F-0.75
g200
I0
tp301
a(I16
I196
F1.0
g232
I0
tp302
a(I16
I196
I0
S'slower'
p303
I0
tp304
as(S'real'
p305
S'estate'
p306
tp307
(lp308
(I15
I148
I0
S'real'
p309
I1
tp310
as(S'police'
p311
S'department'
p312
tp313
(lp314
(I15
I96
I0
g73
I0
tp315
as(S'apps'
p316
tp317
(lp318
(I2
I6
F-0.5
S'open'
p319
I0
tp320
a(I5
I30
F0.25
S'recent'
p321
I0
tp322
a(I5
I36
F0.25
S'recent'
p323
I0
tp324
a(I7
I22
F0.125
S'able'
p325
I0
tp326
a(I8
I7
F0.125
S'enough'
p327
I0
tp328
a(I8
I7
I0
S'many'
p329
I0
tp330
a(I9
I71
I0
S'few'
p331
I0
tp332
a(I9
I71
F0.5
S'possible'
p333
I0
tp334
a(I10
I23
I0
S'same'
p335
I0
tp336
a(I10
I79
F0.25
S'recent'
p337
I0
tp338
a(I12
I12
I0
S'few'
p339
I0
tp340
a(I12
I12
F-0.625
S'other'
p341
I0
tp342
a(I12
I107
F1.0
S'best'
p343
I0
tp344
a(I12
I107
F-0.375
S'smooth'
p345
I0
tp346
a(I14
I239
F-0.5
S'unwanted'
p347
I0
tp348
a(I15
I236
F0.5
S'careful'
p349
I0
tp350
a(I15
I447
I0
S'such'
p351
I0
tp352
a(I16
I18
F0.375
S'newer'
p353
I0
tp354
a(I16
I18
I0
S'more'
p355
I0
tp356
a(I16
I18
F-0.375
S'pull'
p357
I0
tp358
a(I16
I68
I0
S'different'
p359
I0
tp360
a(I16
I202
F0.375
S'much'
p361
I0
tp362
a(I16
I202
I0
S'standard'
p363
I0
tp364
as(S'galaxy'
p365
S's3'
p366
tp367
(lp368
(I15
I435
F-0.5
S'flimsy'
p369
I0
tp370
a(I9
I26
I0
S'old'
p371
I0
tp372
a(I10
I69
F-0.375
S'smoother'
p373
I0
tp374
as(S'amazon'
p375
S'wireless'
p376
tp377
(lp378
(I5
I18
F-0.75
S'sick'
p379
I0
tp380
a(I5
I18
F-0.75
g379
I13
tp381
a(I6
I32
F-0.75
S'short'
p382
I13
tp383
a(I16
I162
F0.5
S'whole'
p384
I13
tp385
as(S'apple'
p386
tp387
(lp388
(I0
I22
F0.375
S'newest'
p389
I4
tp390
a(I0
I303
F-0.75
S'stupid'
p391
I4
tp392
a(I7
I62
F0.25
S'familiar'
p393
I4
tp394
a(I15
I147
F0.375
S'much'
p395
I4
tp396
a(I15
I147
I0
S'proprietary'
p397
I4
tp398
a(I15
I299
I0
S'perspective'
p399
I4
tp400
a(I15
I300
F-0.75
S'sick'
p401
I4
tp402
as(S'battery'
p403
S'life'
p404
S'amazing'
p405
tp406
(lp407
(I6
I76
F-0.5
S'poor'
p408
I0
tp409
a(I14
I71
F-0.5
S'longest'
p410
I0
tp411
a(I14
I71
I0
S'very'
p412
I0
tp413
as(S'razor'
p414
S'max'
p415
tp416
(lp417
(I4
I4
F0.375
S'new'
p418
I0
tp419
as(S'android'
p420
tp421
(lp422
(I0
I5
F0.125
S'typical'
p423
I0
tp424
a(I0
I63
F0.125
S'popular'
p425
I0
tp426
a(I7
I107
I0
S'different'
p427
I0
tp428
a(I10
I33
I0
S'many'
p429
I0
tp430
a(I10
I33
F1.0
S'good'
p431
I0
tp432
a(I12
I34
I0
S'latest'
p433
I0
tp434
a(I12
I102
F0.25
S'familiar'
p435
I0
tp436
a(I13
I59
F0.125
S'solid'
p437
I0
tp438
a(I14
I146
F-0.75
S'short'
p439
I0
tp440
a(I14
I146
F0.25
S'polished'
p441
I0
tp442
a(I14
I273
F0.125
S'typical'
p443
I0
tp444
a(I15
I331
F0.5
S'stylish'
p445
I0
tp446
a(I16
I149
I0
S'latest'
p447
I0
tp448
as(S'extended'
p449
S'warranty'
p450
tp451
(lp452
(I16
I53
F0.375
S'extended'
p453
I1
tp454
a(I16
I70
F0.75
S'fortunate'
p455
I1
tp456
a(I16
I70
F0.375
S'extended'
p457
I1
tp458
a(I16
I73
F0.375
S'extended'
p459
I1
tp460
as(S'and'
p461
S'battery'
p462
S'life'
p463
tp464
(lp465
(I0
I76
F-0.375
S'double'
p466
I1
tp467
a(I0
I76
I0
S'most'
p468
I1
tp469
a(I0
I79
I0
S'great'
p470
I1
tp471
a(I0
I136
I0
S'update'
p472
I1
tp473
a(I0
I247
I0
S'faster'
p474
I1
tp475
a(I1
I0
I0
S'incredible'
p476
I1
tp477
a(I6
I13
I0
S'unbelievable'
p478
I1
tp479
a(I6
I82
F1.0
S'better'
p480
I1
tp481
a(I7
I102
F-0.5
S'long'
p482
I1
tp483
a(I8
I32
F-0.875
S'awful'
p484
I1
tp485
a(I9
I36
F-0.625
S'other'
p486
I1
tp487
a(I12
I9
F0.625
S'acceptable'
p488
I1
tp489
a(I12
I9
F0.25
S'stellar'
p490
I1
tp491
a(I13
I81
I0
S'great'
p492
I1
tp493
a(I14
I6
F-0.75
S'dry'
p494
I1
tp495
a(I14
I71
F-0.5
g410
I1
tp496
a(I14
I71
I0
g412
I1
tp497
a(I14
I264
F0.5
S'crucial'
p498
I1
tp499
a(I14
I264
F0.375
S'much'
p500
I1
tp501
a(I15
I147
F-0.25
S'battery'
p502
I1
tp503
a(I15
I192
I0
S'phenomenal'
p504
I1
tp505
a(I16
I6
F0.375
S'extended'
p506
I1
tp507
a(I16
I13
F-0.75
S'sufficient'
p508
I1
tp509
a(I16
I171
F-0.25
S'battery'
p510
I1
tp511
a(I16
I173
F-0.75
S'little'
p512
I1
tp513
a(I16
I173
I0
S'more'
p514
I1
tp515
as(S'google'
p516
tp517
(lp518
(I8
I16
F0.25
S'biggest'
p519
I4
tp520
a(I8
I16
F-0.125
S'bean'
p521
I4
tp522
a(I15
I47
I0
S'particular'
p523
I4
tp524
a(I15
I323
F0.375
S'enable'
p525
I4
tp526
a(I16
I8
F-0.125
S'slow'
p527
I4
tp528
a(I16
I8
F-0.75
S'stupid'
p529
I4
tp530
a(I16
I154
F1.0
S'better'
p531
I4
tp532
as(S'unknown'
p533
S'sources'
p534
tp535
(lp536
(I7
I181
F0.625
S'safe'
p537
I0
tp538
as(S'better'
p539
S'battery'
p540
S'life'
p541
tp542
(lp543
(I0
I247
I0
g474
I0
tp544
a(I6
I82
F1.0
g480
I0
tp545
a(I15
I384
F0.375
S'much'
p546
I0
tp547
a(I0
I76
F-0.375
g466
I1
tp548
a(I0
I76
I0
g468
I1
tp549
a(I0
I79
I0
g470
I1
tp550
a(I0
I114
F-0.5
S'long'
p551
I1
tp552
a(I0
I136
I0
g472
I1
tp553
a(I0
I247
I0
g474
I1
tp554
a(I1
I0
I0
g476
I1
tp555
a(I2
I1
F-0.125
S'minimum'
p556
I1
tp557
a(I2
I17
I0
S'great'
p558
I1
tp559
a(I6
I13
I0
g478
I1
tp560
a(I6
I44
I0
S'great'
p561
I1
tp562
a(I6
I75
F0.25
S'larger'
p563
I1
tp564
a(I6
I76
F-0.5
g408
I1
tp565
a(I6
I82
F1.0
g480
I1
tp566
a(I7
I64
F0.125
S'enough'
p567
I1
tp568
a(I7
I102
F-0.5
g482
I1
tp569
a(I8
I32
F-0.875
g484
I1
tp570
a(I8
I148
F-0.5
S'poor'
p571
I1
tp572
a(I9
I36
F-0.625
g486
I1
tp573
a(I9
I63
I0
S'great'
p574
I1
tp575
a(I12
I1
I0
S'unbelievable'
p576
I1
tp577
a(I12
I9
F0.625
g488
I1
tp578
a(I12
I9
F0.25
g490
I1
tp579
a(I12
I16
F-0.5
S'less'
p580
I1
tp581
a(I13
I81
I0
g492
I1
tp582
a(I14
I6
F-0.75
g494
I1
tp583
a(I14
I71
F-0.5
g410
I1
tp584
a(I14
I71
I0
g412
I1
tp585
a(I14
I186
F1.0
S'good'
p586
I1
tp587
a(I14
I264
F0.5
g498
I1
tp588
a(I14
I264
F0.375
g500
I1
tp589
a(I15
I147
F-0.25
g502
I1
tp590
a(I15
I160
F-0.5
S'long'
p591
I1
tp592
a(I15
I192
I0
g504
I1
tp593
a(I15
I329
F0.625
S'extraordinary'
p594
I1
tp595
a(I16
I6
F0.375
g506
I1
tp596
a(I16
I13
F-0.75
g508
I1
tp597
a(I16
I60
F-0.5
S'longer'
p598
I1
tp599
a(I16
I142
I0
S'fast'
p600
I1
tp601
a(I16
I142
F-0.5
S'longer'
p602
I1
tp603
a(I16
I171
F-0.25
g510
I1
tp604
a(I16
I172
I0
S'more'
p605
I1
tp606
a(I16
I172
F-0.25
S'battery'
p607
I1
tp608
a(I16
I173
F-0.75
g512
I1
tp609
a(I16
I173
I0
g514
I1
tp610
a(I0
I76
I0
g468
I19
tp611
a(I0
I79
I0
g470
I19
tp612
a(I0
I136
I0
g472
I19
tp613
a(I2
I1
F-0.125
g556
I19
tp614
a(I2
I17
I0
g558
I19
tp615
a(I6
I44
I0
g561
I19
tp616
a(I7
I64
F0.125
g567
I19
tp617
a(I8
I32
F-0.875
g484
I19
tp618
a(I8
I148
F-0.5
g571
I19
tp619
a(I9
I63
I0
g574
I19
tp620
a(I12
I1
I0
g576
I19
tp621
a(I12
I9
F0.625
g488
I19
tp622
a(I12
I9
F0.25
g490
I19
tp623
a(I12
I16
F-0.5
g580
I19
tp624
a(I14
I22
I0
S'more'
p625
I19
tp626
a(I14
I71
I0
g412
I19
tp627
a(I14
I186
F1.0
g586
I19
tp628
a(I14
I264
F0.5
g498
I19
tp629
a(I14
I264
F0.375
g500
I19
tp630
a(I15
I147
F-0.25
g502
I19
tp631
a(I16
I13
F-0.75
g508
I19
tp632
a(I16
I171
F-0.25
g510
I19
tp633
a(I16
I172
I0
g605
I19
tp634
a(I16
I172
F-0.25
g607
I19
tp635
a(I16
I173
F-0.75
g512
I19
tp636
a(I16
I173
I0
g514
I19
tp637
a(I0
I26
F0.5
S'second'
p638
I15
tp639
a(I0
I76
F-0.375
g466
I15
tp640
a(I0
I114
F-0.5
g551
I15
tp641
a(I0
I140
F0.25
S'larger'
p642
I15
tp643
a(I0
I141
F0.375
S'extended'
p644
I15
tp645
a(I0
I162
I0
S'great'
p646
I15
tp647
a(I0
I247
I0
g474
I15
tp648
a(I0
I249
I0
S'big'
p649
I15
tp650
a(I1
I0
I0
g476
I15
tp651
a(I3
I5
F0.125
S'able'
p652
I15
tp653
a(I6
I0
F0.125
S'last'
p654
I15
tp655
a(I6
I13
I0
g478
I15
tp656
a(I6
I75
F0.25
g563
I15
tp657
a(I6
I76
F-0.5
g408
I15
tp658
a(I6
I82
F1.0
g480
I15
tp659
a(I7
I102
F-0.5
g482
I15
tp660
a(I7
I119
F0.125
S'last'
p661
I15
tp662
a(I8
I30
F0.125
S'last'
p663
I15
tp664
a(I8
I128
I0
S'more'
p665
I15
tp666
a(I8
I149
F-0.25
S'low'
p667
I15
tp668
a(I9
I12
F-0.625
S'unsinkable'
p669
I15
tp670
a(I9
I36
F-0.625
g486
I15
tp671
a(I9
I96
F-0.75
S'dead'
p672
I15
tp673
a(I10
I59
F0.125
S'impressive'
p674
I15
tp675
a(I12
I33
I0
S'stable'
p676
I15
tp677
a(I12
I44
F0.75
S'worth'
p678
I15
tp679
a(I12
I60
F1.0
S'best'
p680
I15
tp681
a(I13
I42
I0
S'more'
p682
I15
tp683
a(I13
I81
I0
g492
I15
tp684
a(I14
I6
F-0.75
g494
I15
tp685
a(I14
I71
F-0.5
g410
I15
tp686
a(I14
I86
F1.0
S'good'
p687
I15
tp688
a(I14
I88
F0.125
S'last'
p689
I15
tp690
a(I14
I101
F-0.5
S'heavy'
p691
I15
tp692
a(I14
I213
F0.25
S'larger'
p693
I15
tp694
a(I14
I241
I0
S'incredible'
p695
I15
tp696
a(I15
I17
F0.5
S'true'
p697
I15
tp698
a(I15
I17
I0
S'great'
p699
I15
tp700
a(I15
I160
F-0.5
g591
I15
tp701
a(I15
I192
I0
g504
I15
tp702
a(I15
I304
I0
S'great'
p703
I15
tp704
a(I15
I305
I0
S'big'
p705
I15
tp706
a(I15
I306
F1.0
S'good'
p707
I15
tp708
a(I15
I329
F0.625
g594
I15
tp709
a(I15
I399
F0.375
S'extended'
p710
I15
tp711
a(I15
I437
F-0.375
S'serious'
p712
I15
tp713
a(I16
I6
F0.375
g506
I15
tp714
a(I16
I60
F-0.5
g598
I15
tp715
a(I16
I90
F-0.75
S'dead'
p716
I15
tp717
a(I16
I95
F1.0
S'best'
p718
I15
tp719
a(I16
I104
F-0.5
S'less'
p720
I15
tp721
a(I16
I142
I0
g600
I15
tp722
a(I16
I142
F-0.5
g602
I15
tp723
as(S'2'
p724
S'days'
p725
tp726
(lp727
(I15
I173
I0
S'full'
p728
I3
tp729
a(I15
I402
I0
S'full'
p730
I3
tp731
a(I15
I402
F-0.625
S'moderate'
p732
I3
tp733
as(S'smart'
p734
S'actions'
p735
tp736
(lp737
(I8
I132
F0.125
S'able'
p738
I0
tp739
a(I14
I116
I0
S'cool'
p740
I0
tp741
a(I15
I332
I0
S'complement'
p742
I0
tp743
a(I6
I11
F0.125
S'first'
p744
I10
tp745
a(I8
I68
F0.125
S'first'
p746
I10
tp747
a(I12
I35
F-0.625
S'other'
p748
I10
tp749
a(I15
I192
F0.625
S'interested'
p750
I10
tp751
as(S'data'
p752
tp753
(lp754
(I12
I45
I0
S'mobile'
p755
I13
tp756
a(I12
I46
I0
S'mobile'
p757
I13
tp758
a(I14
I137
I0
S'mobile'
p759
I13
tp760
a(I15
I119
I0
S'mobile'
p761
I13
tp762
a(I15
I120
I0
S'considerable'
p763
I13
tp764
as(S'on'
p765
S'razr'
p766
S'maxx'
p767
tp768
(lp769
(I0
I106
F0.5
S'upgraded'
p770
I0
tp771
a(I13
I77
I0
S'wide'
p772
I0
tp773
a(I13
I77
I0
S'earlier'
p774
I0
tp775
a(I13
I77
F0.375
S'new'
p776
I0
tp777
a(I16
I60
F-0.5
S'regular'
p778
I0
tp779
a(I16
I63
F-0.5
S'regular'
p780
I0
tp781
as(S'verizon'
p782
S'store'
p783
tp784
(lp785
(I0
I40
I0
S'local'
p786
I0
tp787
a(I14
I63
I0
S'local'
p788
I0
tp789
a(I0
I40
I0
g786
I0
tp790
a(I7
I47
F0.5
S'eligible'
p791
I0
tp792
a(I7
I47
I0
S'update'
p793
I0
tp794
a(I9
I108
F0.375
S'much'
p795
I0
tp796
a(I14
I63
I0
g788
I0
tp797
a(I14
I279
F0.875
S'happy'
p798
I0
tp799
a(I15
I67
F0.375
S'new'
p800
I0
tp801
a(I15
I89
F0.5
S'personal'
p802
I0
tp803
a(I15
I94
F0.375
S'new'
p804
I0
tp805
a(I15
I206
I0
S'fast'
p806
I0
tp807
a(I15
I230
F0.875
S'happy'
p808
I0
tp809
a(I15
I230
I0
S'dial'
p810
I0
tp811
a(I15
I253
F-0.5
S'sure'
p812
I0
tp813
a(I15
I298
I0
S'reconsider'
p814
I0
tp815
a(I15
I331
I0
S'few'
p816
I0
tp817
a(I15
I331
I0
S'many'
p818
I0
tp819
a(I15
I383
I0
S'same'
p820
I0
tp821
a(I16
I22
F-0.5
S'less'
p822
I0
tp823
a(I16
I31
F0.75
S'due'
p824
I0
tp825
as(S'customer'
p826
S'service'
p827
tp828
(lp829
(I15
I203
F0.625
S'easy'
p830
I3
tp831
as(S'a'
p832
S'great'
p833
S'screen'
p834
tp835
(lp836
(I0
I164
I0
S'fastest'
p837
I0
tp838
a(I0
I164
F-0.25
S'thinnest'
p839
I0
tp840
a(I0
I164
F1.0
S'best'
p841
I0
tp842
a(I0
I297
I0
S'great'
p843
I0
tp844
a(I5
I29
F0.875
S'nice'
p845
I0
tp846
a(I6
I51
I0
S'great'
p847
I0
tp848
a(I7
I66
F0.875
S'nice'
p849
I0
tp850
a(I7
I66
I0
S'great'
p851
I0
tp852
a(I7
I106
I0
S'great'
p853
I0
tp854
a(I8
I122
F-0.75
S'short'
p855
I0
tp856
a(I8
I122
I0
S'great'
p857
I0
tp858
a(I9
I39
I0
S'great'
p859
I0
tp860
a(I12
I65
I0
S'large'
p861
I0
tp862
a(I14
I75
F0.25
S'bigger'
p863
I0
tp864
a(I14
I75
I0
S'great'
p865
I0
tp866
a(I15
I197
I0
S'incredible'
p867
I0
tp868
a(I15
I197
F0.25
S'bigger'
p869
I0
tp870
a(I15
I197
I0
S'great'
p871
I0
tp872
a(I16
I27
I0
S'great'
p873
I0
tp874
as(S'feels'
p875
tp876
(lp877
(I0
I226
F-0.625
S'lighter'
p878
I14
tp879
a(I0
I226
F0.556
S'delicate'
p880
I14
tp881
a(I13
I72
I0
S'great'
p882
I14
tp883
a(I14
I249
F0.625
S'easy'
p884
I14
tp885
a(I16
I54
I0
S'great'
p886
I14
tp887
a(I16
I101
F1.0
S'good'
p888
I14
tp889
as(S'razr'
p890
S'maxx'
p891
S'hd'
p892
tp893
(lp894
(I13
I2
I0
S'large'
p895
I0
tp896
a(I13
I77
I0
g772
I0
tp897
a(I13
I77
I0
g774
I0
tp898
a(I13
I77
F0.375
g776
I0
tp899
a(I13
I77
F1.0
S'good'
p900
I0
tp901
a(I14
I233
I0
S'more'
p902
I0
tp903
a(I15
I354
I0
S'decided'
p904
I0
tp905
a(I15
I354
F0.375
S'new'
p906
I0
tp907
a(I16
I168
F0.375
g180
I0
tp908
a(I0
I106
F0.5
g770
I0
tp909
a(I13
I77
I0
g772
I0
tp910
a(I13
I77
I0
g774
I0
tp911
a(I13
I77
F0.375
g776
I0
tp912
a(I15
I354
I0
g904
I0
tp913
a(I15
I354
F0.375
g906
I0
tp914
a(I16
I60
F-0.5
g778
I0
tp915
a(I16
I63
F-0.5
g780
I0
tp916
a(I16
I168
F0.375
g180
I0
tp917
a(I16
I179
I0
g6
I0
tp918
a(I0
I57
I0
S'quick'
p919
I0
tp920
a(I0
I57
F0.25
S'responsive'
p921
I0
tp922
a(I0
I66
I0
S'next'
p923
I0
tp924
a(I0
I74
F0.875
S'happy'
p925
I0
tp926
a(I6
I21
I0
S'more'
p927
I0
tp928
a(I8
I6
I0
S'fast'
p929
I0
tp930
a(I12
I32
F0.875
S'music'
p931
I0
tp932
a(I13
I2
I0
g895
I0
tp933
a(I13
I24
F-0.5
S'power'
p934
I0
tp935
a(I13
I35
I0
S'great'
p936
I0
tp937
a(I13
I43
F0.125
S'last'
p938
I0
tp939
a(I13
I59
F-0.125
g193
I0
tp940
a(I13
I77
I0
g772
I0
tp941
a(I13
I77
I0
g774
I0
tp942
a(I13
I77
F0.375
g776
I0
tp943
a(I13
I77
F1.0
g900
I0
tp944
a(I14
I233
I0
g902
I0
tp945
a(I16
I16
F-0.625
S'other'
p946
I0
tp947
a(I16
I168
F0.375
g180
I0
tp948
a(I0
I106
F0.5
g770
I0
tp949
a(I10
I56
F1.0
S'good'
p950
I0
tp951
a(I10
I84
F0.5
S'clear'
p952
I0
tp953
a(I12
I77
F-0.875
S'unhappy'
p954
I0
tp955
a(I15
I16
F0.375
S'steeper'
p956
I0
tp957
a(I15
I354
I0
g904
I0
tp958
a(I15
I354
F0.375
g906
I0
tp959
a(I16
I60
F-0.5
g778
I0
tp960
a(I16
I63
F-0.5
g780
I0
tp961
a(I16
I179
I0
g6
I0
tp962
a(I0
I66
I0
g923
I0
tp963
a(I0
I74
F0.875
g925
I0
tp964
a(I8
I6
I0
g929
I0
tp965
a(I13
I59
F-0.125
g193
I0
tp966
a(I13
I77
I0
g772
I0
tp967
a(I13
I77
I0
g774
I0
tp968
a(I13
I77
F0.375
g776
I0
tp969
a(I16
I168
F0.375
g180
I0
tp970
as.