(dp0
(S'screen'
p1
S'size'
p2
tp3
(lp4
(I13
I1
F-0.625
S'irresistible'
p5
tp6
a(I13
I2
F0.25
S'biggest'
p7
tp8
a(I55
I1
I0
S'great'
p9
tp10
a(I86
I10
F-0.25
S'giant'
p11
tp12
a(I149
I6
F0.625
S'perfect'
p13
tp14
a(I149
I7
F-0.625
S'other'
p15
tp16
a(I184
I3
I0
S'big'
p17
tp18
a(I192
I0
I0
S'website'
p19
tp20
a(I192
I0
I0
S'big'
p21
tp22
a(I198
I1
F0.5
S'comparable'
p23
tp24
a(I210
I3
F0.625
S'perfect'
p25
tp26
a(I227
I0
F1.0
S'good'
p27
tp28
a(I301
I6
I0
S'big'
p29
tp30
a(I321
I12
F0.75
S'beautiful'
p31
tp32
a(I346
I18
I0
S'more'
p33
tp34
a(I346
I18
F0.625
S'easier'
p35
tp36
a(I346
I54
F-0.375
S'top'
p37
tp38
a(I394
I5
F1.0
S'good'
p39
tp40
a(I396
I7
F0.625
S'perfect'
p41
tp42
a(I437
I10
F0.625
S'perfect'
p43
tp44
a(I439
I2
I0
S'big'
p45
tp46
a(I445
I8
I0
S'full'
p47
tp48
a(I467
I1
F-0.375
S'small'
p49
tp50
as(S'perfect'
p51
tp52
(lp53
(I69
I1
F0.5
S'functional'
p54
tp55
a(I427
I1
F0.625
S'easy'
p56
tp57
a(I427
I1
F-0.5
S'less'
p58
tp59
as(S'color'
p60
S'saturation'
p61
tp62
(lp63
(I42
I19
F1.0
S'good'
p64
tp65
as(S'quad'
p66
S'core'
p67
S'processor'
p68
tp69
(lp70
(I63
I11
F0.125
S'first'
p71
tp72
a(I300
I3
I0
S'great'
p73
tp74
as(S'right'
p75
tp76
(lp77
(I252
I2
F0.375
S'upper'
p78
tp79
a(I477
I10
F0.25
S'helpful'
p80
tp81
as(S'let'
p82
S'me'
p83
S'tell'
p84
tp85
(lp86
(I405
I3
F-0.25
S'let'
p87
tp88
as(S'quad'
p89
S'core'
p90
tp91
(lp92
(I55
I2
I0
S'quad'
p93
tp94
a(I63
I11
F0.125
g71
tp95
as(S'version'
p96
tp97
(lp98
(I19
I2
I0
S'latest'
p99
tp100
a(I19
I2
F1.0
S'good'
p101
tp102
a(I35
I0
F-0.5
S'international'
p103
tp104
a(I75
I9
F-0.5
S'international'
p105
tp106
a(I75
I10
F-0.5
S'international'
p107
tp108
a(I79
I4
F-0.5
S'international'
p109
tp110
a(I84
I3
I0
S'european'
p111
tp112
a(I84
I21
I0
S'latest'
p113
tp114
a(I121
I4
F-0.5
S'international'
p115
tp116
a(I121
I6
F-0.5
S'international'
p117
tp118
a(I121
I8
F0.5
S'second'
p119
tp120
a(I121
I8
I0
S'full'
p121
tp122
a(I124
I1
F-0.5
S'international'
p123
tp124
a(I137
I0
I0
S'more'
p125
tp126
a(I145
I1
F-0.5
S'international'
p127
tp128
a(I159
I3
I0
S'mobile'
p129
tp130
a(I222
I0
I0
S'french'
p131
tp132
a(I277
I0
F0.25
S'unlocked'
p133
tp134
a(I277
I0
F-0.5
S'international'
p135
tp136
a(I277
I1
F-0.5
S'international'
p137
tp138
a(I277
I2
F-0.5
S'international'
p139
tp140
a(I300
I12
F0.375
S'new'
p141
tp142
a(I315
I2
F0.375
S'new'
p143
tp144
a(I342
I1
F-0.5
S'international'
p145
tp146
a(I342
I2
F-0.5
S'international'
p147
tp148
a(I344
I27
F1.0
S'better'
p149
tp150
a(I361
I11
F-0.5
S'international'
p151
tp152
a(I401
I3
I0
S'european'
p153
tp154
a(I403
I0
F-0.5
S'international'
p155
tp156
a(I416
I0
F-0.5
S'international'
p157
tp158
a(I437
I22
I0
S'skinned'
p159
tp160
a(I437
I22
I0
S'android'
p161
tp162
a(I446
I0
I0
S'french'
p163
tp164
a(I471
I0
F-0.25
S'higher'
p165
tp166
a(I471
I0
I0
S'android'
p167
tp168
a(I474
I5
F-0.5
S'international'
p169
tp170
a(I474
I13
F0.375
S'available'
p171
tp172
as(S'death'
p173
S'syndrome'
p174
tp175
(lp176
(I259
I1
F-0.5
S'sudden'
p177
tp178
a(I482
I0
F-0.5
S'sudden'
p179
tp180
as(S'operating'
p181
S'system'
p182
tp183
(lp184
(I233
I7
I0
S'android'
p185
tp186
as(S'galaxy'
p187
S'note'
p188
S'i'
p189
tp190
(lp191
(I17
I6
F0.875
S'important'
p192
tp193
a(I28
I8
F0.25
S'unlocked'
p194
tp195
a(I28
I8
I0
S'european'
p196
tp197
a(I43
I0
I0
S'unfair'
p198
tp199
a(I46
I1
F0.875
S'happy'
p200
tp201
a(I66
I0
I0
S'rebate'
p202
tp203
a(I84
I0
I0
S'narrower'
p204
tp205
a(I84
I6
F0.375
S'new'
p206
tp207
a(I84
I12
I0
S'latest'
p208
tp209
a(I84
I20
F0.125
S'last'
p210
tp211
a(I84
I20
F0.375
S'new'
p212
tp213
a(I84
I24
F0.25
S'original'
p214
tp215
a(I84
I26
I0
S'asleep'
p216
tp217
a(I84
I33
F0.25
S'original'
p218
tp219
a(I84
I33
F0.5
S'possible'
p220
tp221
a(I84
I40
F1.0
S'enjoy'
p222
tp223
a(I120
I2
F0.25
S'original'
p224
tp225
a(I120
I7
F0.25
S'original'
p226
tp227
a(I120
I15
F0.25
S'original'
p228
tp229
a(I120
I31
F0.25
S'original'
p230
tp231
a(I120
I38
F-0.25
S'thin'
p232
tp233
a(I120
I38
F-0.625
S'light'
p234
tp235
a(I120
I38
F0.625
S'easy'
p236
tp237
a(I120
I49
I0
S'galaxy'
p238
tp239
a(I120
I50
F0.25
S'original'
p240
tp241
a(I120
I80
F0.25
S'original'
p242
tp243
a(I120
I95
I0
S'old'
p244
tp245
a(I134
I0
F0.375
S'new'
p246
tp247
a(I174
I0
F0.375
S'new'
p248
tp249
a(I195
I4
I0
S'large'
p250
tp251
a(I196
I0
F0.25
S'original'
p252
tp253
a(I213
I0
F0.125
S'usual'
p254
tp255
a(I237
I3
F0.375
S'new'
p256
tp257
a(I245
I2
I0
S'many'
p258
tp259
a(I252
I4
F1.0
S'good'
p260
tp261
a(I256
I4
F0.375
S'meant'
p262
tp263
a(I256
I17
F0.375
S'new'
p264
tp265
a(I259
I3
F-0.625
S'other'
p266
tp267
a(I286
I0
F0.125
S'first'
p268
tp269
a(I295
I1
I0
S'galaxy'
p270
tp271
a(I300
I28
I0
S'more'
p272
tp273
a(I310
I1
F0.375
S'new'
p274
tp275
a(I315
I2
F0.375
S'new'
p276
tp277
a(I326
I11
F0.375
S'much'
p278
tp279
a(I342
I23
F0.25
S'favorite'
p280
tp281
a(I361
I4
F-0.625
S'glad'
p282
tp283
a(I402
I7
F0.875
S'happy'
p284
tp285
a(I403
I0
I0
S'old'
p286
tp287
a(I413
I2
F-0.25
S'white'
p288
tp289
a(I476
I0
F0.125
S'first'
p290
tp291
as(S'quality'
p292
tp293
(lp294
(I13
I9
F1.0
S'good'
p295
tp296
a(I64
I0
F1.0
S'good'
p297
tp298
a(I120
I23
I0
S'great'
p299
tp300
a(I120
I43
I0
S'great'
p301
tp302
a(I159
I8
I0
S'high'
p303
tp304
a(I228
I2
F0.875
S'nice'
p305
tp306
a(I237
I3
F-0.25
S'low'
p307
tp308
a(I286
I49
I0
S'great'
p309
tp310
a(I300
I11
I0
S'great'
p311
tp312
a(I326
I21
F-0.25
S'lowest'
p313
tp314
a(I331
I16
I0
S'great'
p315
tp316
a(I344
I1
I0
S'great'
p317
tp318
a(I344
I27
I0
S'high'
p319
tp320
a(I346
I50
I0
S'faster'
p321
tp322
a(I346
I50
I0
S'same'
p323
tp324
a(I410
I1
I0
S'great'
p325
tp326
a(I410
I1
I0
S'more'
p327
tp328
a(I442
I20
F0.625
S'acceptable'
p329
tp330
a(I474
I18
F1.0
S'good'
p331
tp332
a(I481
I3
I0
S'great'
p333
tp334
as(S'a'
p335
S'big'
p336
S'screen'
p337
tp338
(lp339
(I1
I0
F0.25
S'bigger'
p340
tp341
a(I2
I0
I0
S'big'
p342
tp343
a(I37
I6
I0
S'big'
p344
tp345
a(I37
I7
I0
S'big'
p346
tp347
a(I37
I7
F-0.75
S'little'
p348
tp349
a(I37
I7
F0.125
S'first'
p350
tp351
a(I50
I2
F0.25
S'bigger'
p352
tp353
a(I63
I8
F-0.75
S'bright'
p354
tp355
a(I63
I35
I0
S'big'
p356
tp357
a(I63
I35
I0
S'big'
p358
tp359
a(I63
I35
F-0.5
S'less'
p360
tp361
a(I65
I3
I0
S'big'
p362
tp363
a(I68
I0
F0.125
S'fat'
p364
tp365
a(I69
I2
F0.25
S'larger'
p366
tp367
a(I74
I0
I0
S'big'
p368
tp369
a(I120
I30
F-0.75
S'comfortable'
p370
tp371
a(I122
I1
I0
S'big'
p372
tp373
a(I158
I7
F0.25
S'bigger'
p374
tp375
a(I165
I1
I0
S'big'
p376
tp377
a(I184
I3
I0
g17
tp378
a(I188
I2
F0.25
S'bigger'
p379
tp380
a(I192
I0
I0
g19
tp381
a(I192
I0
I0
g21
tp382
a(I205
I1
F0.25
S'bigger'
p383
tp384
a(I207
I2
I0
S'heaven'
p385
tp386
a(I207
I2
I0
S'big'
p387
tp388
a(I219
I1
I0
S'big'
p389
tp390
a(I229
I10
F0.25
S'largest'
p391
tp392
a(I244
I5
I0
S'big'
p393
tp394
a(I244
I5
F1.0
S'good'
p395
tp396
a(I259
I9
I0
S'big'
p397
tp398
a(I259
I9
F-0.625
S'bad'
p399
tp400
a(I269
I4
F0.25
S'bigger'
p401
tp402
a(I273
I3
I0
S'big'
p403
tp404
a(I273
I3
I0
S'great'
p405
tp406
a(I273
I9
I0
S'big'
p407
tp408
a(I301
I6
I0
g29
tp409
a(I309
I4
I0
S'large'
p410
tp411
a(I309
I4
F0.375
S'much'
p412
tp413
a(I311
I3
I0
S'big'
p414
tp415
a(I319
I0
I0
S'great'
p416
tp417
a(I328
I2
I0
S'big'
p418
tp419
a(I329
I0
I0
S'great'
p420
tp421
a(I329
I0
I0
S'big'
p422
tp423
a(I336
I0
I0
S'big'
p424
tp425
a(I349
I0
I0
S'big'
p426
tp427
a(I349
I0
F-0.75
S'comfortable'
p428
tp429
a(I357
I0
F-0.625
S'light'
p430
tp431
a(I357
I0
I0
S'big'
p432
tp433
a(I358
I0
F0.25
S'bigger'
p434
tp435
a(I358
I0
F0.25
S'bigger'
p436
tp437
a(I361
I9
I0
S'more'
p438
tp439
a(I391
I2
I0
S'big'
p440
tp441
a(I398
I0
I0
S'big'
p442
tp443
a(I406
I0
I0
S'big'
p444
tp445
a(I406
I0
I0
S'great'
p446
tp447
a(I439
I2
I0
g45
tp448
a(I460
I4
I0
S'big'
p449
tp450
a(I460
I4
I0
S'least'
p451
tp452
a(I463
I0
F0.25
S'bigger'
p453
tp454
a(I489
I10
F0.25
S'bigger'
p455
tp456
as(S'apple'
p457
tp458
(lp459
(I13
I12
F0.625
S'easy'
p460
tp461
a(I184
I6
F-0.625
S'bad'
p462
tp463
a(I301
I3
F-0.75
S'difficult'
p464
tp465
a(I301
I6
I0
S'big'
p466
tp467
a(I326
I16
F-0.25
S'google'
p468
tp469
a(I326
I24
F-0.625
S'other'
p470
tp471
a(I344
I15
F0.125
S'able'
p472
tp473
as(S'worldwide'
p474
S'distributors'
p475
tp476
(lp477
(I167
I8
F0.5
S'possible'
p478
tp479
as(S'y'
p480
S'told'
p481
S'me'
p482
tp483
(lp484
(I92
I2
I0
S'stiff'
p485
tp486
a(I126
I4
F0.5
S'told'
p487
tp488
as(S'case'
p489
tp490
(lp491
(I6
I10
I0
S'ionic'
p492
tp493
a(I21
I0
F1.0
S'good'
p494
tp495
a(I70
I10
I0
S'plastic'
p496
tp497
a(I70
I11
I0
S'plastic'
p498
tp499
a(I73
I7
F-0.875
S'worst'
p500
tp501
a(I182
I7
I0
S'full'
p502
tp503
a(I184
I16
F-0.5
S'separate'
p504
tp505
a(I184
I16
F0.5
S'careful'
p506
tp507
a(I229
I21
F0.625
S'magnetic'
p508
tp509
a(I458
I2
F1.0
S'good'
p510
tp511
a(I458
I2
F0.125
S'protective'
p512
tp513
as(S'ever'
p514
tp515
(lp516
(I220
I0
F0.5
S'smartest'
p517
tp518
a(I301
I1
F0.125
S'first'
p519
tp520
a(I387
I49
I0
S'great'
p521
tp522
as(S'excellent'
p523
tp524
(lp525
(I237
I4
F0.5
S'expensive'
p526
tp527
a(I302
I0
I0
S'internet'
p528
tp529
as(S'big'
p530
S'screen'
p531
tp532
(lp533
(I1
I0
F0.25
g340
tp534
a(I2
I0
I0
g342
tp535
a(I37
I6
I0
g344
tp536
a(I37
I7
I0
g346
tp537
a(I37
I7
F-0.75
g348
tp538
a(I37
I7
F0.125
g350
tp539
a(I50
I2
F0.25
g352
tp540
a(I63
I8
F-0.75
g354
tp541
a(I63
I35
I0
g356
tp542
a(I63
I35
I0
g358
tp543
a(I63
I35
F-0.5
g360
tp544
a(I65
I3
I0
g362
tp545
a(I68
I0
F0.125
g364
tp546
a(I69
I2
F0.25
g366
tp547
a(I74
I0
I0
g368
tp548
a(I120
I30
F-0.75
g370
tp549
a(I122
I1
I0
g372
tp550
a(I123
I0
I0
S'big'
p551
tp552
a(I158
I7
F0.25
g374
tp553
a(I165
I1
I0
g376
tp554
a(I184
I3
I0
g17
tp555
a(I188
I2
F0.25
g379
tp556
a(I192
I0
I0
g19
tp557
a(I192
I0
I0
g21
tp558
a(I205
I1
F0.25
g383
tp559
a(I207
I2
I0
g385
tp560
a(I207
I2
I0
g387
tp561
a(I219
I1
I0
g389
tp562
a(I229
I10
F0.25
g391
tp563
a(I244
I5
I0
g393
tp564
a(I244
I5
F1.0
g395
tp565
a(I259
I9
I0
g397
tp566
a(I259
I9
F-0.625
g399
tp567
a(I269
I4
F0.25
g401
tp568
a(I273
I3
I0
g403
tp569
a(I273
I3
I0
g405
tp570
a(I273
I9
I0
g407
tp571
a(I274
I2
F0.25
S'bigest'
p572
tp573
a(I301
I6
I0
g29
tp574
a(I309
I4
I0
g410
tp575
a(I309
I4
F0.375
g412
tp576
a(I311
I3
I0
g414
tp577
a(I319
I0
I0
g416
tp578
a(I328
I2
I0
g418
tp579
a(I329
I0
I0
g420
tp580
a(I329
I0
I0
g422
tp581
a(I336
I0
I0
g424
tp582
a(I349
I0
I0
g426
tp583
a(I349
I0
F-0.75
g428
tp584
a(I357
I0
F-0.625
g430
tp585
a(I357
I0
I0
g432
tp586
a(I358
I0
F0.25
g434
tp587
a(I358
I0
F0.25
g436
tp588
a(I361
I9
I0
g438
tp589
a(I391
I2
I0
g440
tp590
a(I398
I0
I0
g442
tp591
a(I406
I0
I0
g444
tp592
a(I406
I0
I0
g446
tp593
a(I439
I2
I0
g45
tp594
a(I460
I4
I0
g449
tp595
a(I460
I4
I0
g451
tp596
a(I463
I0
F0.25
g453
tp597
a(I489
I10
F0.25
g455
tp598
as(S'note'
p599
tp600
(lp601
(I10
I39
I0
S'fluid'
p602
tp603
a(I17
I6
F0.875
g192
tp604
a(I28
I8
F0.25
g194
tp605
a(I28
I8
I0
g196
tp606
a(I46
I1
F0.875
g200
tp607
a(I56
I0
I0
S'wide'
p608
tp609
a(I66
I0
I0
g202
tp610
a(I70
I21
F-0.75
S'stupid'
p611
tp612
a(I84
I0
I0
g204
tp613
a(I84
I10
F0.25
S'original'
p614
tp615
a(I84
I26
I0
g216
tp616
a(I84
I33
F0.5
g220
tp617
a(I86
I16
I0
S'same'
p618
tp619
a(I86
I16
F0.75
S'due'
p620
tp621
a(I108
I0
F-0.5
S'international'
p622
tp623
a(I120
I4
F0.25
S'original'
p624
tp625
a(I120
I19
F0.125
S'first'
p626
tp627
a(I120
I38
F-0.25
g232
tp628
a(I120
I38
F-0.625
g234
tp629
a(I120
I38
F0.625
g236
tp630
a(I120
I43
F0.25
S'original'
p631
tp632
a(I120
I44
F0.25
S'original'
p633
tp634
a(I120
I49
I0
g238
tp635
a(I120
I51
F0.125
S'first'
p636
tp637
a(I120
I88
F0.25
S'original'
p638
tp639
a(I120
I99
F-0.375
S'smaller'
p640
tp641
a(I120
I99
F0.25
S'original'
p642
tp643
a(I120
I99
F0.625
S'easy'
p644
tp645
a(I125
I0
F0.125
S'first'
p646
tp647
a(I149
I0
I0
S'big'
p648
tp649
a(I149
I7
I0
S'more'
p650
tp651
a(I149
I7
I0
S'more'
p652
tp653
a(I195
I4
I0
g250
tp654
a(I199
I6
F-0.25
S'cheaper'
p655
tp656
a(I248
I1
F-0.5
S'sure'
p657
tp658
a(I256
I4
F0.375
g262
tp659
a(I259
I3
F-0.625
g266
tp660
a(I260
I0
F0.25
S'original'
p661
tp662
a(I260
I6
F0.25
S'original'
p663
tp664
a(I266
I0
F0.375
S'new'
p665
tp666
a(I273
I13
I0
S'many'
p667
tp668
a(I286
I62
F-0.625
S'light'
p669
tp670
a(I286
I62
F-0.25
S'thin'
p671
tp672
a(I295
I1
I0
g270
tp673
a(I300
I27
I0
S'wherever'
p674
tp675
a(I300
I28
I0
g272
tp676
a(I301
I0
I0
S'standard'
p677
tp678
a(I308
I1
F0.25
S'original'
p679
tp680
a(I308
I2
F0.25
S'original'
p681
tp682
a(I311
I0
F0.25
S'original'
p683
tp684
a(I311
I0
F0.625
S'perfect'
p685
tp686
a(I312
I14
I0
S'wide'
p687
tp688
a(I312
I14
F0.25
S'original'
p689
tp690
a(I321
I25
I0
S'angry'
p691
tp692
a(I326
I18
F-0.5
S'separate'
p693
tp694
a(I333
I2
F0.25
S'bigger'
p695
tp696
a(I333
I2
F0.25
S'original'
p697
tp698
a(I333
I2
F-0.125
S'mine'
p699
tp700
a(I342
I4
F-0.125
S'super'
p701
tp702
a(I342
I4
I0
S'useful'
p703
tp704
a(I342
I23
F0.25
g280
tp705
a(I344
I6
I0
S'more'
p706
tp707
a(I346
I19
I0
S'big'
p708
tp709
a(I354
I0
F-0.5
S'less'
p710
tp711
a(I361
I4
F-0.625
g282
tp712
a(I387
I7
F0.25
S'original'
p713
tp714
a(I387
I10
F0.25
S'original'
p715
tp716
a(I387
I31
F0.25
S'original'
p717
tp718
a(I387
I35
F-0.5
S'international'
p719
tp720
a(I397
I1
F-0.75
S'wrong'
p721
tp722
a(I436
I2
F0.625
S'eager'
p723
tp724
a(I437
I54
F0.875
S'important'
p725
tp726
a(I437
I54
F-0.5
S'international'
p727
tp728
a(I442
I16
I0
S'own'
p729
tp730
a(I473
I2
I0
S'fast'
p731
tp732
a(I493
I1
F-0.625
S'bad'
p733
tp734
a(I493
I2
F0.5
S'second'
p735
tp736
a(I493
I2
F0.25
S'original'
p737
tp738
as(S'sudden'
p739
S'death'
p740
tp741
(lp742
(I36
I3
F0.5
S'told'
p743
tp744
a(I36
I3
F-0.5
S'sudden'
p745
tp746
a(I127
I6
I0
S'same'
p747
tp748
a(I127
I6
F-0.5
S'sudden'
p749
tp750
a(I259
I1
F-0.5
g177
tp751
a(I482
I0
F-0.5
g179
tp752
as(S'sim'
p753
S'card'
p754
tp755
(lp756
(I96
I2
F0.5
S'second'
p757
tp758
a(I96
I3
I0
S'same'
p759
tp760
a(I120
I49
F1.0
S'good'
p761
tp762
a(I139
I2
F-0.75
S'impossible'
p763
tp764
as(S'droid'
p765
S'dna'
p766
tp767
(lp768
(I18
I34
F0.625
S'superior'
p769
tp770
as(S'used'
p771
S'to'
p772
S'size'
p773
tp774
(lp775
(I175
I2
I0
S'great'
p776
tp777
a(I394
I5
F1.0
g39
tp778
as(S'10'
p779
S'1'
p780
S'tablet'
p781
tp782
(lp783
(I229
I10
F-0.375
S'smaller'
p784
tp785
a(I442
I16
I0
S'very'
p786
tp787
a(I442
I16
F0.125
S'popular'
p788
tp789
as(S'for'
p790
S'first'
p791
S'time'
p792
tp793
(lp794
(I7
I0
F0.125
S'first'
p795
tp796
a(I7
I0
F-0.5
S'sure'
p797
tp798
a(I63
I0
F-0.5
S'long'
p799
tp800
a(I120
I42
F0.125
S'first'
p801
tp802
a(I120
I67
I0
S'very'
p803
tp804
a(I120
I67
F0.125
S'first'
p805
tp806
a(I122
I1
F0.125
S'first'
p807
tp808
a(I195
I7
F0.125
S'first'
p809
tp810
a(I201
I0
F0.125
S'first'
p811
tp812
a(I339
I0
F0.125
S'first'
p813
tp814
a(I454
I0
F0.125
S'first'
p815
tp816
as(S'than'
p817
S'original'
p818
S'note'
p819
tp820
(lp821
(I308
I2
F0.25
g681
tp822
a(I312
I14
I0
g687
tp823
a(I312
I14
F0.25
g689
tp824
a(I333
I2
F0.25
g695
tp825
a(I333
I2
F0.25
g697
tp826
a(I333
I2
F-0.125
g699
tp827
a(I387
I7
F0.25
g713
tp828
a(I387
I31
F0.25
g717
tp829
as(S'smartphone'
p830
tp831
(lp832
(I73
I15
F0.875
S'happier'
p833
tp834
a(I84
I1
F0.5
S'characteristic'
p835
tp836
a(I121
I11
F0.125
S'first'
p837
tp838
a(I128
I0
F1.0
S'best'
p839
tp840
a(I138
I0
F1.0
S'best'
p841
tp842
a(I138
I0
F0.625
S'easy'
p843
tp844
a(I153
I3
F1.0
S'best'
p845
tp846
a(I162
I0
F0.375
S'new'
p847
tp848
a(I204
I0
F0.125
S'last'
p849
tp850
a(I209
I1
I0
S'android'
p851
tp852
a(I286
I19
F0.125
S'first'
p853
tp854
a(I286
I19
F1.0
S'best'
p855
tp856
a(I286
I23
F-0.625
S'other'
p857
tp858
a(I286
I23
F0.125
S'capable'
p859
tp860
a(I286
I26
F0.125
S'first'
p861
tp862
a(I286
I42
F1.0
S'best'
p863
tp864
a(I286
I50
F0.125
S'first'
p865
tp866
a(I300
I22
F0.25
S'bigger'
p867
tp868
a(I309
I4
I0
S'android'
p869
tp870
a(I317
I0
F1.0
S'best'
p871
tp872
a(I332
I0
I0
S'great'
p873
tp874
a(I387
I28
I0
S'more'
p875
tp876
a(I409
I8
I0
S'only'
p877
tp878
a(I410
I0
F1.0
S'best'
p879
tp880
a(I429
I2
F0.375
S'new'
p881
tp882
as(S'card'
p883
tp884
(lp885
(I120
I49
F1.0
g761
tp886
a(I139
I2
F-0.75
g763
tp887
a(I286
I65
F-0.5
S'relative'
p888
tp889
as(S'love'
p890
tp891
(lp892
(I422
I1
I0
S'great'
p893
tp894
a(I442
I20
I0
S'apple'
p895
tp896
a(I477
I23
F1.0
S'love'
p897
tp898
as(S'customer'
p899
S'service'
p900
tp901
(lp902
(I61
I4
F1.0
S'best'
p903
tp904
a(I139
I10
F0.5
S'polite'
p905
tp906
a(I139
I14
F0.375
S'new'
p907
tp908
a(I139
I22
I0
S'later'
p909
tp910
a(I139
I22
I0
S'different'
p911
tp912
a(I157
I12
I0
S'great'
p913
tp914
a(I199
I6
F-0.625
S'bad'
p915
tp916
a(I201
I6
F0.75
S'fit'
p917
tp918
a(I201
I7
F0.75
S'competent'
p919
tp920
a(I201
I33
F0.875
S'happy'
p921
tp922
as(S'fast'
p923
tp924
(lp925
(I113
I4
F-0.125
S'super'
p926
tp927
a(I113
I4
F-0.375
S'simple'
p928
tp929
a(I143
I1
F-0.125
S'super'
p930
tp931
a(I153
I1
F-0.125
S'super'
p932
tp933
a(I422
I0
I0
S'great'
p934
tp935
as(S'every'
p936
tp937
(lp938
(I63
I31
F0.75
S'worth'
p939
tp940
a(I260
I7
F-0.75
S'single'
p941
tp942
a(I321
I26
F0.75
S'worth'
p943
tp944
as(S'happy'
p945
S'with'
p946
S'purchase'
p947
tp948
(lp949
(I48
I0
F0.875
S'happy'
p950
tp951
a(I83
I1
F0.875
S'happy'
p952
tp953
a(I86
I19
F0.875
S'happy'
p954
tp955
a(I180
I11
F0.875
S'happy'
p956
tp957
as(g189
S'gt'
p958
S'n7100'
p959
tp960
(lp961
(I43
I0
I0
g198
tp962
a(I195
I8
F0.25
S'suppose'
p963
tp964
as(g335
S'micro'
p965
S'sim'
p966
tp967
(lp968
(I333
I3
F-0.5
S'regular'
p969
tp970
a(I377
I4
F-0.375
S'smaller'
p971
tp972
a(I402
I2
F0.625
S'easy'
p973
tp974
a(I402
I3
F-0.5
S'regular'
p975
tp976
as(S'service'
p977
tp978
(lp979
(I13
I7
I0
S'sympathetic'
p980
tp981
a(I23
I0
F1.0
S'good'
p982
tp983
a(I139
I10
F0.5
g905
tp984
a(I157
I13
I0
S'only'
p985
tp986
a(I201
I7
F0.75
g919
tp987
a(I203
I0
F1.0
S'good'
p988
tp989
a(I203
I0
I0
S'fast'
p990
tp991
a(I218
I2
I0
S'great'
p992
tp993
a(I224
I0
I0
S'net'
p994
tp995
a(I263
I6
I0
S'cellular'
p996
tp997
a(I373
I10
F0.875
S'happy'
p998
tp999
a(I387
I30
F1.0
S'best'
p1000
tp1001
a(I394
I0
F-0.75
S'stupid'
p1002
tp1003
a(I394
I0
I0
S'old'
p1004
tp1005
as(S'new'
p1006
S'galaxy'
p1007
S'note'
p1008
tp1009
(lp1010
(I84
I6
F0.375
g206
tp1011
a(I84
I20
F0.125
g210
tp1012
a(I84
I20
F0.375
g212
tp1013
a(I84
I26
I0
g216
tp1014
a(I134
I0
F0.375
g246
tp1015
a(I174
I0
F0.375
g248
tp1016
a(I237
I3
F0.375
g256
tp1017
a(I256
I17
F0.375
g264
tp1018
a(I310
I1
F0.375
g274
tp1019
a(I315
I2
F0.375
g276
tp1020
a(I342
I23
F0.25
g280
tp1021
as(S'getting'
p1022
tp1023
(lp1024
(I487
I8
F-0.5
S'sure'
p1025
tp1026
a(I487
I8
I0
S'large'
p1027
tp1028
as(S'need'
p1029
tp1030
(lp1031
(I138
I0
F0.625
S'easy'
p1032
tp1033
a(I142
I5
F0.5
S'expensive'
p1034
tp1035
a(I149
I3
F0.375
S'new'
p1036
tp1037
as(S'recommend'
p1038
tp1039
(lp1040
(I230
I8
F-0.5
S'less'
p1041
tp1042
as(S'product'
p1043
tp1044
(lp1045
(I14
I2
I0
S'full'
p1046
tp1047
a(I57
I0
F1.0
S'good'
p1048
tp1049
a(I84
I12
F0.25
S'consistent'
p1050
tp1051
a(I120
I94
I0
S'great'
p1052
tp1053
a(I125
I1
F1.0
S'better'
p1054
tp1055
a(I156
I0
F1.0
S'good'
p1056
tp1057
a(I187
I3
F-0.125
S'overall'
p1058
tp1059
a(I187
I3
F0.875
S'happy'
p1060
tp1061
a(I201
I30
F0.125
S'subject'
p1062
tp1063
a(I230
I8
F0.375
S'new'
p1064
tp1065
a(I230
I8
F0.375
S'much'
p1066
tp1067
a(I265
I2
F0.5
S'expensive'
p1068
tp1069
a(I284
I0
F1.0
S'best'
p1070
tp1071
a(I348
I0
I0
S'great'
p1072
tp1073
a(I350
I1
F1.0
S'good'
p1074
tp1075
a(I372
I0
F1.0
S'good'
p1076
tp1077
a(I372
I0
F0.5
S'buy'
p1078
tp1079
a(I417
I0
F0.875
S'nice'
p1080
tp1081
a(I420
I3
F0.125
S'solid'
p1082
tp1083
a(I439
I8
F-0.75
S'short'
p1084
tp1085
a(I439
I8
F0.875
S'happier'
p1086
tp1087
a(I480
I0
I0
S'great'
p1088
tp1089
a(I489
I1
F1.0
S'best'
p1090
tp1091
a(I489
I6
I0
S'different'
p1092
tp1093
a(I489
I12
I0
S'such'
p1094
tp1095
a(I489
I12
F0.75
S'beautiful'
p1096
tp1097
as(S'google'
p1098
tp1099
(lp1100
(I10
I26
F0.875
S'music'
p1101
tp1102
a(I256
I9
F-0.25
S'google'
p1103
tp1104
a(I442
I10
F-0.625
S'free'
p1105
tp1106
as(S'things'
p1107
tp1108
(lp1109
(I9
I3
I0
S'great'
p1110
tp1111
a(I10
I26
I0
S'many'
p1112
tp1113
a(I15
I1
F1.0
S'good'
p1114
tp1115
a(I18
I26
F-0.625
S'other'
p1116
tp1117
a(I50
I2
I0
S'same'
p1118
tp1119
a(I50
I5
I0
S'many'
p1120
tp1121
a(I73
I9
I0
S'many'
p1122
tp1123
a(I73
I17
F-0.375
S'simple'
p1124
tp1125
a(I73
I17
F0.625
S'easy'
p1126
tp1127
a(I78
I1
I0
S'few'
p1128
tp1129
a(I78
I1
F-0.75
S'little'
p1130
tp1131
a(I84
I17
F0.125
S'able'
p1132
tp1133
a(I86
I13
I0
S'few'
p1134
tp1135
a(I86
I17
I0
S'many'
p1136
tp1137
a(I86
I18
I0
S'different'
p1138
tp1139
a(I88
I5
I0
S'few'
p1140
tp1141
a(I120
I103
F-0.5
S'sure'
p1142
tp1143
a(I120
I103
I0
S'many'
p1144
tp1145
a(I120
I103
F-0.625
S'other'
p1146
tp1147
a(I158
I6
F0.125
S'enough'
p1148
tp1149
a(I158
I6
F1.0
S'good'
p1150
tp1151
a(I164
I1
F1.0
S'good'
p1152
tp1153
a(I182
I10
F0.375
S'new'
p1154
tp1155
a(I189
I9
I0
S'such'
p1156
tp1157
a(I189
I12
F-0.5
S'sure'
p1158
tp1159
a(I189
I17
F-0.75
S'wrong'
p1160
tp1161
a(I195
I4
F0.625
S'easy'
p1162
tp1163
a(I242
I8
I0
S'more'
p1164
tp1165
a(I256
I20
F0.5
S'careful'
p1166
tp1167
a(I286
I23
I0
S'few'
p1168
tp1169
a(I304
I5
I0
S'few'
p1170
tp1171
a(I304
I12
I0
S'many'
p1172
tp1173
a(I316
I3
I0
S'many'
p1174
tp1175
a(I321
I4
F0.125
S'first'
p1176
tp1177
a(I344
I12
F-0.875
S'negative'
p1178
tp1179
a(I346
I34
F-0.625
S'other'
p1180
tp1181
a(I373
I9
F-0.625
S'other'
p1182
tp1183
a(I387
I16
F0.375
S'new'
p1184
tp1185
a(I389
I1
I0
S'later'
p1186
tp1187
a(I415
I2
I0
S'many'
p1188
tp1189
a(I415
I2
F-0.625
S'other'
p1190
tp1191
a(I445
I5
I0
S'useful'
p1192
tp1193
a(I445
I5
I0
S'most'
p1194
tp1195
a(I466
I9
F0.25
S'sweet'
p1196
tp1197
as(S'skinny'
p1198
S'jeans'
p1199
tp1200
(lp1201
(I300
I19
I0
S'skinny'
p1202
tp1203
as(S'features'
p1204
tp1205
(lp1206
(I18
I15
I0
S'more'
p1207
tp1208
a(I65
I3
F0.25
S'responsive'
p1209
tp1210
a(I74
I1
F-0.375
S'simple'
p1211
tp1212
a(I82
I4
F1.0
S'good'
p1213
tp1214
a(I84
I18
I0
S'few'
p1215
tp1216
a(I102
I2
I0
S'many'
p1217
tp1218
a(I103
I11
I0
S'useful'
p1219
tp1220
a(I188
I3
F-0.625
S'other'
p1221
tp1222
a(I193
I6
I0
S'great'
p1223
tp1224
a(I193
I6
F0.875
S'nice'
p1225
tp1226
a(I195
I5
I0
S'many'
p1227
tp1228
a(I236
I2
I0
S'particular'
p1229
tp1230
a(I244
I2
I0
S'special'
p1231
tp1232
a(I248
I2
F0.375
S'similar'
p1233
tp1234
a(I256
I8
I0
S'most'
p1235
tp1236
a(I256
I8
F0.25
S'favorite'
p1237
tp1238
a(I259
I0
F0.375
S'new'
p1239
tp1240
a(I282
I19
F0.625
S'easy'
p1241
tp1242
a(I321
I16
F0.25
S'favorite'
p1243
tp1244
a(I338
I2
I0
S'great'
p1245
tp1246
a(I339
I0
I0
S'specific'
p1247
tp1248
a(I342
I5
F-0.625
S'other'
p1249
tp1250
a(I379
I0
F-0.125
S'overall'
p1251
tp1252
a(I409
I6
I0
S'same'
p1253
tp1254
a(I409
I10
I0
S'great'
p1255
tp1256
a(I466
I12
F0.375
S'extra'
p1257
tp1258
a(I473
I4
I0
S'useful'
p1259
tp1260
a(I474
I4
F0.25
S'main'
p1261
tp1262
a(I477
I21
F0.25
S'powerful'
p1263
tp1264
as(S'note'
p1265
g189
S'gt'
p1266
tp1267
(lp1268
(I43
I0
I0
g198
tp1269
a(I295
I1
I0
g270
tp1270
as(S'video'
p1271
tp1272
(lp1273
(I184
I5
I0
S'yeah'
p1274
tp1275
a(I240
I0
F-0.625
S'glad'
p1276
tp1277
a(I240
I0
F0.875
S'nice'
p1278
tp1279
a(I286
I54
I0
S'more'
p1280
tp1281
a(I286
I58
F-0.5
S'continuous'
p1282
tp1283
a(I387
I42
F-0.375
S'top'
p1284
tp1285
as(g335
S'long'
p1286
S'time'
p1287
tp1288
(lp1289
(I63
I0
F-0.5
g799
tp1290
a(I120
I66
F-0.5
S'long'
p1291
tp1292
a(I120
I89
F-0.5
S'long'
p1293
tp1294
a(I198
I1
F-0.5
S'longest'
p1295
tp1296
a(I201
I16
F-0.5
S'long'
p1297
tp1298
a(I201
I37
F-0.5
S'long'
p1299
tp1300
a(I201
I37
F0.125
S'enough'
p1301
tp1302
a(I215
I6
F-0.5
S'long'
p1303
tp1304
a(I300
I24
F-0.5
S'long'
p1305
tp1306
a(I394
I0
F-0.5
S'long'
p1307
tp1308
a(I402
I0
F-0.5
S'long'
p1309
tp1310
a(I483
I2
F-0.5
S'long'
p1311
tp1312
as(S'android'
p1313
tp1314
(lp1315
(I89
I24
I0
S'android'
p1316
tp1317
a(I89
I24
F0.375
S'new'
p1318
tp1319
a(I120
I62
F0.125
S'first'
p1320
tp1321
a(I147
I0
F0.125
S'first'
p1322
tp1323
a(I182
I10
F0.375
S'new'
p1324
tp1325
a(I237
I0
F1.0
S'best'
p1326
tp1327
a(I374
I3
F-0.125
S'bean'
p1328
tp1329
a(I415
I2
F0.375
S'friendly'
p1330
tp1331
as(S'know'
p1332
tp1333
(lp1334
(I262
I5
F0.125
S'first'
p1335
tp1336
as(S'one'
p1337
S'handed'
p1338
S'operation'
p1339
tp1340
(lp1341
(I312
I6
I0
S'handed'
p1342
tp1343
a(I387
I32
I0
S'handed'
p1344
tp1345
as(S'thing'
p1346
tp1347
(lp1348
(I10
I45
F0.25
S'main'
p1349
tp1350
a(I10
I45
I0
S'pen'
p1351
tp1352
a(I18
I41
I0
S'next'
p1353
tp1354
a(I18
I41
I0
S'big'
p1355
tp1356
a(I26
I15
F0.875
S'nice'
p1357
tp1358
a(I31
I6
I0
S'same'
p1359
tp1360
a(I37
I6
F0.125
S'first'
p1361
tp1362
a(I48
I2
I0
S'only'
p1363
tp1364
a(I48
I2
F0.375
S'new'
p1365
tp1366
a(I70
I28
F1.0
S'best'
p1367
tp1368
a(I70
I37
I0
S'only'
p1369
tp1370
a(I139
I5
I0
S'same'
p1371
tp1372
a(I142
I5
I0
S'big'
p1373
tp1374
a(I146
I1
I0
S'more'
p1375
tp1376
a(I164
I10
I0
S'only'
p1377
tp1378
a(I189
I19
F0.625
S'perfect'
p1379
tp1380
a(I189
I19
F-0.875
S'hard'
p1381
tp1382
a(I193
I3
I0
S'same'
p1383
tp1384
a(I195
I6
F-0.75
S'minor'
p1385
tp1386
a(I273
I0
F0.125
S'first'
p1387
tp1388
a(I286
I51
I0
S'closest'
p1389
tp1390
a(I300
I5
F0.375
S'alive'
p1391
tp1392
a(I344
I23
F0.625
S'positive'
p1393
tp1394
a(I347
I3
F0.5
S'whole'
p1395
tp1396
a(I350
I2
F1.0
S'good'
p1397
tp1398
a(I387
I49
I0
S'same'
p1399
tp1400
a(I415
I1
F-0.625
S'other'
p1401
tp1402
a(I415
I1
I0
S'least'
p1403
tp1404
a(I437
I10
F1.0
S'good'
p1405
tp1406
a(I458
I0
F0.125
S'first'
p1407
tp1408
a(I473
I3
I0
S'only'
p1409
tp1410
a(I493
I4
F0.625
S'noticeable'
p1411
tp1412
as(S'original'
p1413
S'note'
p1414
tp1415
(lp1416
(I84
I10
F0.25
g614
tp1417
a(I84
I33
F0.5
g220
tp1418
a(I120
I4
F0.25
g624
tp1419
a(I120
I43
F0.25
g631
tp1420
a(I120
I44
F0.25
g633
tp1421
a(I120
I88
F0.25
g638
tp1422
a(I120
I99
F-0.375
g640
tp1423
a(I120
I99
F0.25
g642
tp1424
a(I120
I99
F0.625
g644
tp1425
a(I260
I0
F0.25
g661
tp1426
a(I260
I6
F0.25
g663
tp1427
a(I308
I1
F0.25
g679
tp1428
a(I308
I2
F0.25
g681
tp1429
a(I311
I0
F0.25
g683
tp1430
a(I311
I0
F0.625
g685
tp1431
a(I312
I14
I0
g687
tp1432
a(I312
I14
F0.25
g689
tp1433
a(I333
I2
F0.25
g695
tp1434
a(I333
I2
F0.25
g697
tp1435
a(I333
I2
F-0.125
g699
tp1436
a(I387
I7
F0.25
g713
tp1437
a(I387
I10
F0.25
g715
tp1438
a(I387
I31
F0.25
g717
tp1439
a(I437
I54
F0.875
g725
tp1440
a(I437
I54
F-0.5
g727
tp1441
a(I493
I2
F0.5
g735
tp1442
a(I493
I2
F0.25
g737
tp1443
as(S'sure'
p1444
tp1445
(lp1446
(I275
I9
F-0.25
S'ready'
p1447
tp1448
as(S'size'
p1449
tp1450
(lp1451
(I10
I5
I0
S'big'
p1452
tp1453
a(I10
I5
F1.0
S'good'
p1454
tp1455
a(I13
I1
F-0.625
g5
tp1456
a(I13
I2
F0.25
g7
tp1457
a(I55
I1
I0
g9
tp1458
a(I64
I0
I0
S'many'
p1459
tp1460
a(I64
I0
F-0.5
S'afraid'
p1461
tp1462
a(I84
I13
F-0.125
S'future'
p1463
tp1464
a(I137
I2
I0
S'big'
p1465
tp1466
a(I149
I6
F0.625
g13
tp1467
a(I175
I2
I0
g776
tp1468
a(I189
I5
F0.875
S'nice'
p1469
tp1470
a(I192
I1
F1.0
S'good'
p1471
tp1472
a(I198
I1
F0.5
g23
tp1473
a(I210
I3
F0.625
g25
tp1474
a(I227
I0
F1.0
g27
tp1475
a(I278
I1
F0.25
S'original'
p1476
tp1477
a(I280
I7
F0.25
S'larger'
p1478
tp1479
a(I346
I18
F0.625
g35
tp1480
a(I364
I3
F0.125
S'first'
p1481
tp1482
a(I394
I5
F1.0
g39
tp1483
a(I396
I7
F0.625
g41
tp1484
a(I403
I5
I0
S'standard'
p1485
tp1486
a(I437
I10
F0.625
g43
tp1487
a(I467
I1
F-0.375
g49
tp1488
a(I473
I1
F0.625
S'perfect'
p1489
tp1490
as(S'make'
p1491
tp1492
(lp1493
(I70
I11
F0.625
S'easier'
p1494
tp1495
as(S'work'
p1496
tp1497
(lp1498
(I26
I12
F0.5
S'willing'
p1499
tp1500
a(I175
I1
F0.125
S'able'
p1501
tp1502
a(I189
I13
I0
S'touchscreen'
p1503
tp1504
a(I316
I1
I0
S'entire'
p1505
tp1506
a(I316
I1
F-0.5
S'long'
p1507
tp1508
a(I329
I0
I0
S'pen'
p1509
tp1510
as(S'battery'
p1511
S'life'
p1512
tp1513
(lp1514
(I5
I3
F0.625
S'superior'
p1515
tp1516
a(I8
I1
I0
S'great'
p1517
tp1518
a(I55
I2
F1.0
S'best'
p1519
tp1520
a(I68
I0
I0
S'big'
p1521
tp1522
a(I74
I1
F-0.375
S'top'
p1523
tp1524
a(I74
I1
F0.125
S'last'
p1525
tp1526
a(I84
I28
F1.0
S'good'
p1527
tp1528
a(I84
I40
F1.0
S'good'
p1529
tp1530
a(I113
I13
F-0.5
S'long'
p1531
tp1532
a(I239
I1
I0
S'great'
p1533
tp1534
a(I272
I3
I0
S'great'
p1535
tp1536
a(I280
I5
F0.625
S'replaceable'
p1537
tp1538
a(I286
I55
I0
S'great'
p1539
tp1540
a(I316
I1
F-0.5
S'long'
p1541
tp1542
a(I383
I2
F-0.75
S'wrong'
p1543
tp1544
a(I391
I4
F1.0
S'best'
p1545
tp1546
a(I437
I31
F1.0
S'good'
p1547
tp1548
a(I437
I32
F0.25
S'stellar'
p1549
tp1550
a(I466
I3
I0
S'phenomenal'
p1551
tp1552
a(I471
I1
F1.0
S'good'
p1553
tp1554
as(S'problem'
p1555
tp1556
(lp1557
(I88
I3
I0
S'common'
p1558
tp1559
a(I139
I2
F-0.375
S'simple'
p1560
tp1561
a(I139
I22
I0
S'same'
p1562
tp1563
a(I159
I11
I0
S'only'
p1564
tp1565
a(I201
I16
I0
S'same'
p1566
tp1567
a(I237
I3
I0
S'common'
p1568
tp1569
a(I259
I3
I0
S'same'
p1570
tp1571
a(I267
I0
I0
S'only'
p1572
tp1573
a(I276
I1
I0
S'only'
p1574
tp1575
a(I315
I4
I0
S'only'
p1576
tp1577
a(I320
I1
F-0.5
S'ogre'
p1578
tp1579
a(I342
I19
F-0.625
S'other'
p1580
tp1581
a(I382
I2
I0
S'only'
p1582
tp1583
a(I385
I1
I0
S'only'
p1584
tp1585
a(I461
I7
I0
S'same'
p1586
tp1587
as(S'anything'
p1588
tp1589
(lp1590
(I88
I5
F-0.625
S'unusual'
p1591
tp1592
a(I260
I2
F-0.5
S'sure'
p1593
tp1594
a(I282
I24
F1.0
S'good'
p1595
tp1596
a(I282
I24
F1.0
S'better'
p1597
tp1598
a(I286
I55
I0
S'great'
p1599
tp1600
a(I318
I1
F-0.5
S'imagine'
p1601
tp1602
a(I346
I37
I0
S'more'
p1603
tp1604
a(I392
I0
F0.125
S'first'
p1605
tp1606
a(I412
I0
F-0.75
S'wrong'
p1607
tp1608
as(S'large'
p1609
tp1610
(lp1611
(I248
I1
F0.375
S'new'
p1612
tp1613
as(S'gt'
p1614
S'n7100'
p1615
tp1616
(lp1617
(I195
I8
F0.25
g963
tp1618
as(S'back'
p1619
tp1620
(lp1621
(I342
I18
I0
S'store'
p1622
tp1623
a(I387
I48
I0
S'full'
p1624
tp1625
a(I476
I12
I0
S'table'
p1626
tp1627
a(I476
I12
F-0.5
S'afraid'
p1628
tp1629
as(S'nternational'
p1630
S'version'
p1631
tp1632
(lp1633
(I35
I0
F-0.5
g103
tp1634
a(I75
I9
F-0.5
g105
tp1635
a(I75
I10
F-0.5
g107
tp1636
a(I79
I4
F-0.5
g109
tp1637
a(I121
I4
F-0.5
g115
tp1638
a(I121
I6
F-0.5
g117
tp1639
a(I124
I1
F-0.5
g123
tp1640
a(I145
I1
F-0.5
g127
tp1641
a(I277
I0
F0.25
g133
tp1642
a(I277
I0
F-0.5
g135
tp1643
a(I277
I1
F-0.5
g137
tp1644
a(I277
I2
F-0.5
g139
tp1645
a(I342
I1
F-0.5
g145
tp1646
a(I342
I2
F-0.5
g147
tp1647
a(I361
I11
F-0.5
g151
tp1648
a(I403
I0
F-0.5
g155
tp1649
a(I416
I0
F-0.5
g157
tp1650
a(I474
I5
F-0.5
g169
tp1651
as(S'with'
p1652
S'one'
p1653
S'hand'
p1654
tp1655
(lp1656
(I260
I6
I0
S'great'
p1657
tp1658
a(I260
I6
F1.0
S'better'
p1659
tp1660
a(I260
I6
F1.0
S'best'
p1661
tp1662
a(I300
I22
F-0.75
S'comfortable'
p1663
tp1664
a(I438
I0
I0
S'big'
p1665
tp1666
a(I438
I0
F0.25
S'bigger'
p1667
tp1668
as(S'life'
p1669
tp1670
(lp1671
(I5
I3
F0.625
g1515
tp1672
a(I68
I0
I0
g1521
tp1673
a(I73
I3
I0
S'full'
p1674
tp1675
a(I84
I28
F1.0
g1527
tp1676
a(I109
I0
F0.625
S'easier'
p1677
tp1678
a(I239
I1
I0
g1533
tp1679
a(I256
I11
F0.375
S'much'
p1680
tp1681
a(I256
I11
F0.625
S'easier'
p1682
tp1683
a(I272
I3
I0
g1535
tp1684
a(I282
I27
F0.625
S'easier'
p1685
tp1686
a(I391
I4
F1.0
g1545
tp1687
a(I437
I32
F0.25
g1549
tp1688
a(I441
I1
F0.625
S'easy'
p1689
tp1690
a(I466
I3
I0
g1551
tp1691
a(I471
I1
F1.0
g1553
tp1692
as(S'galaxy'
p1693
S'note'
p1694
tp1695
(lp1696
(I17
I6
F0.875
g192
tp1697
a(I28
I8
F0.25
g194
tp1698
a(I28
I8
I0
g196
tp1699
a(I46
I1
F0.875
g200
tp1700
a(I66
I0
I0
g202
tp1701
a(I84
I0
I0
g204
tp1702
a(I84
I6
F0.375
g206
tp1703
a(I84
I12
I0
g208
tp1704
a(I84
I20
F0.125
g210
tp1705
a(I84
I20
F0.375
g212
tp1706
a(I84
I24
F0.25
g214
tp1707
a(I84
I26
I0
g216
tp1708
a(I84
I33
F0.25
g218
tp1709
a(I84
I33
F0.5
g220
tp1710
a(I84
I40
F1.0
g222
tp1711
a(I120
I2
F0.25
g224
tp1712
a(I120
I7
F0.25
g226
tp1713
a(I120
I15
F0.25
g228
tp1714
a(I120
I31
F0.25
g230
tp1715
a(I120
I38
F-0.25
g232
tp1716
a(I120
I38
F-0.625
g234
tp1717
a(I120
I38
F0.625
g236
tp1718
a(I120
I49
I0
g238
tp1719
a(I120
I50
F0.25
g240
tp1720
a(I120
I80
F0.25
g242
tp1721
a(I120
I95
I0
g244
tp1722
a(I134
I0
F0.375
g246
tp1723
a(I174
I0
F0.375
g248
tp1724
a(I195
I4
I0
g250
tp1725
a(I196
I0
F0.25
g252
tp1726
a(I237
I3
F0.375
g256
tp1727
a(I245
I2
I0
g258
tp1728
a(I252
I4
F1.0
g260
tp1729
a(I256
I4
F0.375
g262
tp1730
a(I256
I17
F0.375
g264
tp1731
a(I259
I3
F-0.625
g266
tp1732
a(I286
I0
F0.125
g268
tp1733
a(I295
I1
I0
g270
tp1734
a(I300
I28
I0
g272
tp1735
a(I310
I1
F0.375
g274
tp1736
a(I315
I2
F0.375
g276
tp1737
a(I326
I11
F0.375
g278
tp1738
a(I342
I23
F0.25
g280
tp1739
a(I361
I4
F-0.625
g282
tp1740
a(I402
I7
F0.875
g284
tp1741
a(I403
I0
I0
g286
tp1742
a(I413
I2
F-0.25
g288
tp1743
a(I476
I0
F0.125
g290
tp1744
as(S'with'
p1745
S'galaxy'
p1746
S'note'
p1747
tp1748
(lp1749
(I84
I12
I0
g208
tp1750
a(I84
I26
I0
g216
tp1751
a(I84
I33
F0.25
g218
tp1752
a(I84
I33
F0.5
g220
tp1753
a(I84
I40
F1.0
g222
tp1754
a(I120
I2
F0.25
g224
tp1755
a(I120
I38
F-0.25
g232
tp1756
a(I120
I38
F-0.625
g234
tp1757
a(I120
I38
F0.625
g236
tp1758
a(I120
I49
I0
g238
tp1759
a(I120
I95
I0
g244
tp1760
a(I237
I3
F0.375
g256
tp1761
a(I256
I17
F0.375
g264
tp1762
a(I315
I2
F0.375
g276
tp1763
a(I402
I7
F0.875
g284
tp1764
as(S'dell'
p1765
S'streak'
p1766
tp1767
(lp1768
(I120
I62
F0.125
S'far'
p1769
tp1770
as(S'seller'
p1771
tp1772
(lp1773
(I31
I9
F0.5
S'attentive'
p1774
tp1775
a(I85
I0
I0
S'same'
p1776
tp1777
a(I85
I0
F0.5
S'second'
p1778
tp1779
a(I86
I3
F-0.75
S'unreliable'
p1780
tp1781
a(I167
I6
F-0.75
S'difficult'
p1782
tp1783
a(I167
I10
I0
S'different'
p1784
tp1785
a(I201
I2
I0
S'individual'
p1786
tp1787
a(I201
I9
F-0.5
S'sure'
p1788
tp1789
a(I201
I28
I0
S'legal'
p1790
tp1791
a(I328
I6
I0
S'great'
p1792
tp1793
a(I417
I0
F1.0
S'good'
p1794
tp1795
as(S'n'
p1796
S'r'
p1797
S'pocket'
p1798
tp1799
(lp1800
(I69
I2
F-0.375
S'small'
p1801
tp1802
a(I69
I2
I0
S'big'
p1803
tp1804
a(I149
I7
F0.625
S'right'
p1805
tp1806
a(I164
I3
F0.375
S'tight'
p1807
tp1808
a(I178
I1
F0.75
S'fit'
p1809
tp1810
a(I269
I3
I0
S'more'
p1811
tp1812
as(S'battery'
p1813
tp1814
(lp1815
(I6
I12
F0.75
S'due'
p1816
tp1817
a(I8
I1
I0
g1517
tp1818
a(I14
I1
I0
S'great'
p1819
tp1820
a(I23
I0
F0.375
S'new'
p1821
tp1822
a(I55
I2
F1.0
g1519
tp1823
a(I56
I1
F0.125
S'last'
p1824
tp1825
a(I74
I1
F-0.375
g1523
tp1826
a(I74
I1
F0.125
g1525
tp1827
a(I84
I40
F1.0
g1529
tp1828
a(I113
I13
F-0.5
g1531
tp1829
a(I149
I9
I0
S'most'
p1830
tp1831
a(I189
I18
I0
S'great'
p1832
tp1833
a(I207
I2
F0.25
S'effective'
p1834
tp1835
a(I207
I4
F-0.75
S'short'
p1836
tp1837
a(I229
I7
F0.25
S'bigger'
p1838
tp1839
a(I229
I10
I0
S'big'
p1840
tp1841
a(I229
I10
F0.25
S'bigger'
p1842
tp1843
a(I229
I17
F-0.5
S'separate'
p1844
tp1845
a(I250
I0
I0
S'generic'
p1846
tp1847
a(I278
I1
I0
S'same'
p1848
tp1849
a(I280
I5
F0.625
g1537
tp1850
a(I286
I55
I0
g1539
tp1851
a(I306
I0
F0.625
S'removable'
p1852
tp1853
a(I306
I4
F0.625
S'removable'
p1854
tp1855
a(I316
I1
F-0.5
g1541
tp1856
a(I381
I2
I0
S'normal'
p1857
tp1858
a(I383
I2
F-0.75
g1543
tp1859
a(I437
I31
F1.0
g1547
tp1860
a(I437
I40
F0.25
S'larger'
p1861
tp1862
a(I439
I6
I0
S'big'
p1863
tp1864
a(I442
I10
F0.625
S'replaceable'
p1865
tp1866
a(I452
I2
F1.0
S'best'
p1867
tp1868
a(I492
I0
F0.125
S'last'
p1869
tp1870
as(S'awesome'
p1871
tp1872
(lp1873
(I68
I0
F0.875
S'music'
p1874
tp1875
a(I94
I0
I0
S'such'
p1876
tp1877
a(I252
I0
F-0.125
S'overall'
p1878
tp1879
a(I304
I1
F0.5
S'clear'
p1880
tp1881
a(I351
I1
F0.5
S'flat'
p1882
tp1883
as(S'samsung'
p1884
S'galaxy'
p1885
tp1886
(lp1887
(I17
I6
F-0.75
S'worse'
p1888
tp1889
a(I84
I6
F0.375
g206
tp1890
a(I84
I12
I0
g208
tp1891
a(I84
I20
F-0.375
S'modified'
p1892
tp1893
a(I84
I20
F0.125
g210
tp1894
a(I84
I20
F0.375
g212
tp1895
a(I84
I40
F1.0
g222
tp1896
a(I120
I7
F0.25
g226
tp1897
a(I229
I26
F0.375
S'new'
p1898
tp1899
a(I245
I2
I0
g258
tp1900
a(I261
I1
F0.375
S'new'
p1901
tp1902
a(I280
I1
F1.0
S'best'
p1903
tp1904
a(I308
I0
F0.25
S'original'
p1905
tp1906
a(I409
I0
F0.375
S'new'
p1907
tp1908
as(S'update'
p1909
tp1910
(lp1911
(I286
I66
F-0.25
S'google'
p1912
tp1913
a(I286
I67
I0
S'android'
p1914
tp1915
a(I308
I1
I0
S'big'
p1916
tp1917
a(I387
I41
F0.125
S'first'
p1918
tp1919
a(I387
I52
F-0.75
S'short'
p1920
tp1921
as(S'saudi'
p1922
S'arabia'
p1923
tp1924
(lp1925
(I6
I21
F-0.625
S'bad'
p1926
tp1927
as(S'south'
p1928
S'africa'
p1929
tp1930
(lp1931
(I139
I12
I0
S'south'
p1932
tp1933
as(S'time'
p1934
tp1935
(lp1936
(I7
I0
F0.125
g795
tp1937
a(I7
I0
F-0.5
g797
tp1938
a(I50
I1
I0
S'same'
p1939
tp1940
a(I63
I0
F-0.5
g799
tp1941
a(I64
I1
F0.875
S'happy'
p1942
tp1943
a(I88
I2
I0
S'next'
p1944
tp1945
a(I103
I5
I0
S'same'
p1946
tp1947
a(I120
I42
F0.125
g801
tp1948
a(I120
I65
F0.125
S'first'
p1949
tp1950
a(I120
I66
F-0.5
g1291
tp1951
a(I120
I67
I0
g803
tp1952
a(I120
I67
F0.125
g805
tp1953
a(I120
I72
I0
S'same'
p1954
tp1955
a(I120
I89
F-0.5
g1293
tp1956
a(I122
I1
F0.125
g807
tp1957
a(I144
I3
I0
S'same'
p1958
tp1959
a(I157
I19
F0.125
S'first'
p1960
tp1961
a(I157
I19
F0.125
S'last'
p1962
tp1963
a(I159
I0
F0.125
S'first'
p1964
tp1965
a(I180
I7
I0
S'same'
p1966
tp1967
a(I182
I5
I0
S'same'
p1968
tp1969
a(I189
I8
F0.125
S'first'
p1970
tp1971
a(I195
I7
F0.125
g809
tp1972
a(I198
I1
F-0.5
g1295
tp1973
a(I201
I0
F0.125
g811
tp1974
a(I201
I16
F-0.5
g1297
tp1975
a(I201
I37
F-0.5
g1299
tp1976
a(I201
I37
F0.125
g1301
tp1977
a(I215
I6
F-0.5
g1303
tp1978
a(I229
I5
F-0.875
S'hard'
p1979
tp1980
a(I244
I2
I0
S'incredible'
p1981
tp1982
a(I275
I3
F-0.75
S'likely'
p1983
tp1984
a(I275
I3
I0
S'arrive'
p1985
tp1986
a(I286
I32
F0.75
S'worth'
p1987
tp1988
a(I291
I0
F0.125
S'first'
p1989
tp1990
a(I294
I2
I0
S'same'
p1991
tp1992
a(I300
I22
I0
S'most'
p1993
tp1994
a(I300
I24
F-0.5
g1305
tp1995
a(I301
I6
I0
S'same'
p1996
tp1997
a(I311
I1
F0.5
S'second'
p1998
tp1999
a(I312
I1
F0.125
S'first'
p2000
tp2001
a(I312
I12
I0
S'real'
p2002
tp2003
a(I326
I9
I0
S'same'
p2004
tp2005
a(I339
I0
F0.125
g813
tp2006
a(I351
I2
F0.25
S'favorite'
p2007
tp2008
a(I394
I0
F-0.5
g1307
tp2009
a(I402
I0
F-0.5
g1309
tp2010
a(I409
I7
I0
S'same'
p2011
tp2012
a(I444
I0
F0.125
S'first'
p2013
tp2014
a(I445
I0
F0.25
S'familiar'
p2015
tp2016
a(I454
I0
F0.125
g815
tp2017
a(I461
I8
F-0.625
S'other'
p2018
tp2019
a(I474
I11
F-0.875
S'hard'
p2020
tp2021
a(I483
I2
F-0.5
g1311
tp2022
a(I490
I0
I0
S'great'
p2023
tp2024
as(S'support'
p2025
tp2026
(lp2027
(I51
I0
I0
S'tech'
p2028
tp2029
a(I75
I7
I0
S'tech'
p2030
tp2031
a(I225
I4
I0
S'tech'
p2032
tp2033
a(I331
I4
F0.375
S'available'
p2034
tp2035
a(I437
I19
F0.5
S'drive'
p2036
tp2037
as(g1796
g335
S'pocket'
p2038
tp2039
(lp2040
(I69
I2
F-0.375
g1801
tp2041
a(I69
I2
I0
g1803
tp2042
a(I149
I7
F0.625
g1805
tp2043
a(I164
I3
F0.375
g1807
tp2044
a(I178
I1
F0.75
g1809
tp2045
a(I269
I3
I0
g1811
tp2046
as(S'pocket'
p2047
tp2048
(lp2049
(I69
I2
F-0.375
g1801
tp2050
a(I69
I2
I0
g1803
tp2051
a(I149
I7
F0.625
g1805
tp2052
a(I164
I3
F0.375
g1807
tp2053
a(I178
I1
F0.75
g1809
tp2054
a(I269
I3
I0
g1811
tp2055
as(S'months'
p2056
tp2057
(lp2058
(I90
I6
F-0.75
S'difficult'
p2059
tp2060
a(I164
I0
F0.625
S'perfect'
p2061
tp2062
a(I193
I7
F-0.5
S'less'
p2063
tp2064
a(I226
I7
I0
S'few'
p2065
tp2066
a(I252
I1
I0
S'few'
p2067
tp2068
a(I260
I6
I0
S'few'
p2069
tp2070
a(I305
I3
I0
S'few'
p2071
tp2072
a(I342
I22
F0.5
S'strong'
p2073
tp2074
a(I379
I0
I0
S'few'
p2075
tp2076
a(I396
I13
I0
S'old'
p2077
tp2078
a(I461
I10
I0
S'next'
p2079
tp2080
as(S'north'
p2081
S'american'
p2082
tp2083
(lp2084
(I195
I8
I0
S'north'
p2085
tp2086
as(S'samsung'
p2087
S'galaxy'
p2088
S'note'
p2089
tp2090
(lp2091
(I17
I6
F-0.75
g1888
tp2092
a(I17
I6
F0.875
g192
tp2093
a(I66
I0
I0
g202
tp2094
a(I84
I0
I0
g204
tp2095
a(I84
I6
F0.375
g206
tp2096
a(I84
I12
I0
g208
tp2097
a(I84
I20
F-0.375
g1892
tp2098
a(I84
I20
F0.125
g210
tp2099
a(I84
I20
F0.375
g212
tp2100
a(I84
I26
I0
g216
tp2101
a(I84
I40
F1.0
g222
tp2102
a(I120
I7
F0.25
g226
tp2103
a(I229
I26
F0.375
g1898
tp2104
a(I245
I2
I0
g258
tp2105
a(I259
I3
F-0.625
g266
tp2106
a(I261
I1
F0.375
g1901
tp2107
a(I280
I1
F1.0
g1903
tp2108
a(I308
I0
F0.25
g1905
tp2109
a(I409
I0
F0.375
g1907
tp2110
as(S'original'
p2111
S'galaxy'
p2112
S'note'
p2113
tp2114
(lp2115
(I84
I24
F0.25
g214
tp2116
a(I84
I33
F0.25
g218
tp2117
a(I84
I33
F0.5
g220
tp2118
a(I120
I2
F0.25
g224
tp2119
a(I120
I7
F0.25
g226
tp2120
a(I120
I15
F0.25
g228
tp2121
a(I120
I31
F0.25
g230
tp2122
a(I120
I50
F0.25
g240
tp2123
a(I120
I80
F0.25
g242
tp2124
a(I196
I0
F0.25
g252
tp2125
as(S'screen'
p2126
tp2127
(lp2128
(I1
I0
F0.25
g340
tp2129
a(I2
I0
I0
g342
tp2130
a(I10
I17
F-0.375
S'disable'
p2131
tp2132
a(I12
I1
I0
S'large'
p2133
tp2134
a(I12
I1
F0.75
S'beautiful'
p2135
tp2136
a(I12
I1
F0.625
S'easy'
p2137
tp2138
a(I13
I7
F0.5
S'touch'
p2139
tp2140
a(I16
I0
F0.75
S'beautiful'
p2141
tp2142
a(I18
I32
F-0.625
S'light'
p2143
tp2144
a(I18
I35
F0.125
S'colorful'
p2145
tp2146
a(I26
I15
F-0.5
S'heavy'
p2147
tp2148
a(I37
I6
I0
g344
tp2149
a(I37
I7
I0
g346
tp2150
a(I37
I7
F-0.75
g348
tp2151
a(I37
I7
F0.125
g350
tp2152
a(I40
I0
I0
S'great'
p2153
tp2154
a(I42
I20
F0.625
S'perfect'
p2155
tp2156
a(I50
I2
F0.25
g352
tp2157
a(I56
I0
F-0.5
S'less'
p2158
tp2159
a(I63
I8
F-0.75
g354
tp2160
a(I63
I35
I0
g356
tp2161
a(I63
I35
I0
g358
tp2162
a(I63
I35
F-0.5
g360
tp2163
a(I65
I3
I0
g362
tp2164
a(I66
I2
F-0.75
S'difficult'
p2165
tp2166
a(I68
I0
F0.125
g364
tp2167
a(I69
I2
F0.25
g366
tp2168
a(I73
I3
F0.125
S'able'
p2169
tp2170
a(I74
I0
I0
g368
tp2171
a(I84
I15
F0.5
S'clear'
p2172
tp2173
a(I84
I15
I0
S'large'
p2174
tp2175
a(I84
I15
F0.5
S'possible'
p2176
tp2177
a(I84
I34
I0
S'large'
p2178
tp2179
a(I86
I10
F-0.25
g11
tp2180
a(I88
I1
I0
S'great'
p2181
tp2182
a(I120
I15
F0.625
S'superior'
p2183
tp2184
a(I120
I17
F1.0
S'best'
p2185
tp2186
a(I120
I22
F-0.75
S'have'
p2187
tp2188
a(I120
I23
I0
S'blast'
p2189
tp2190
a(I120
I30
F-0.75
g370
tp2191
a(I122
I1
I0
g372
tp2192
a(I123
I0
I0
g551
tp2193
a(I143
I2
I0
S'great'
p2194
tp2195
a(I149
I7
F-0.625
g15
tp2196
a(I149
I14
F-0.375
S'smaller'
p2197
tp2198
a(I158
I7
F0.25
g374
tp2199
a(I159
I7
I0
S'great'
p2200
tp2201
a(I164
I8
F-0.5
S'certain'
p2202
tp2203
a(I165
I1
I0
g376
tp2204
a(I172
I0
F0.625
S'perfect'
p2205
tp2206
a(I174
I1
F1.0
S'best'
p2207
tp2208
a(I174
I1
I0
S'large'
p2209
tp2210
a(I178
I1
I0
S'large'
p2211
tp2212
a(I179
I0
F0.25
S'larger'
p2213
tp2214
a(I180
I3
F0.25
S'responsive'
p2215
tp2216
a(I180
I3
F0.75
S'beautiful'
p2217
tp2218
a(I184
I3
I0
g17
tp2219
a(I184
I12
F0.5
S'whole'
p2220
tp2221
a(I188
I2
F0.25
g379
tp2222
a(I192
I0
I0
g19
tp2223
a(I192
I0
I0
g21
tp2224
a(I200
I2
I0
S'large'
p2225
tp2226
a(I205
I1
F0.25
g383
tp2227
a(I207
I2
I0
g385
tp2228
a(I207
I2
I0
g387
tp2229
a(I211
I0
F-0.375
S'smaller'
p2230
tp2231
a(I215
I3
F1.0
S'best'
p2232
tp2233
a(I218
I1
I0
S'large'
p2234
tp2235
a(I219
I1
I0
g389
tp2236
a(I229
I9
F-0.5
S'sure'
p2237
tp2238
a(I229
I10
F0.25
g391
tp2239
a(I229
I19
F0.5
S'touch'
p2240
tp2241
a(I229
I19
I0
S'more'
p2242
tp2243
a(I229
I19
F0.5
S'second'
p2244
tp2245
a(I239
I1
I0
S'large'
p2246
tp2247
a(I244
I5
I0
g393
tp2248
a(I244
I5
F1.0
g395
tp2249
a(I259
I9
I0
g397
tp2250
a(I259
I9
F-0.625
g399
tp2251
a(I269
I4
F0.25
g401
tp2252
a(I273
I3
I0
g403
tp2253
a(I273
I3
I0
g405
tp2254
a(I273
I9
I0
g407
tp2255
a(I274
I2
F0.25
g572
tp2256
a(I282
I3
F-0.375
S'top'
p2257
tp2258
a(I286
I11
I0
S'most'
p2259
tp2260
a(I286
I11
I0
S'real'
p2261
tp2262
a(I291
I1
I0
S'large'
p2263
tp2264
a(I293
I1
F0.25
S'larger'
p2265
tp2266
a(I293
I3
I0
S'rotate'
p2267
tp2268
a(I299
I1
I0
S'large'
p2269
tp2270
a(I301
I6
I0
g29
tp2271
a(I305
I1
I0
S'large'
p2272
tp2273
a(I305
I2
I0
S'large'
p2274
tp2275
a(I309
I2
F0.25
S'responsive'
p2276
tp2277
a(I309
I4
I0
g410
tp2278
a(I309
I4
F0.375
g412
tp2279
a(I311
I3
I0
g414
tp2280
a(I316
I0
I0
S'large'
p2281
tp2282
a(I316
I2
I0
S'large'
p2283
tp2284
a(I319
I0
I0
g416
tp2285
a(I321
I12
F0.75
g31
tp2286
a(I326
I4
I0
S'large'
p2287
tp2288
a(I326
I15
F0.25
S'larger'
p2289
tp2290
a(I328
I2
I0
g418
tp2291
a(I329
I0
I0
g420
tp2292
a(I329
I0
I0
g422
tp2293
a(I331
I1
I0
S'large'
p2294
tp2295
a(I336
I0
I0
g424
tp2296
a(I344
I28
F0.25
S'larger'
p2297
tp2298
a(I345
I2
I0
S'great'
p2299
tp2300
a(I346
I18
I0
g33
tp2301
a(I346
I54
F-0.375
g37
tp2302
a(I349
I0
I0
g426
tp2303
a(I349
I0
F-0.75
g428
tp2304
a(I352
I0
F-0.625
S'other'
p2305
tp2306
a(I357
I0
F-0.625
g430
tp2307
a(I357
I0
I0
g432
tp2308
a(I358
I0
F0.25
g434
tp2309
a(I358
I0
F0.25
g436
tp2310
a(I361
I2
F-0.375
S'smaller'
p2311
tp2312
a(I361
I9
I0
g438
tp2313
a(I370
I1
F0.5
S'clear'
p2314
tp2315
a(I373
I4
F0.625
S'easy'
p2316
tp2317
a(I385
I2
F-0.75
S'difficult'
p2318
tp2319
a(I385
I2
F0.375
S'new'
p2320
tp2321
a(I390
I4
I0
S'large'
p2322
tp2323
a(I391
I2
I0
g440
tp2324
a(I394
I2
F0.5
S'touch'
p2325
tp2326
a(I398
I0
I0
g442
tp2327
a(I403
I4
I0
S'large'
p2328
tp2329
a(I406
I0
I0
g444
tp2330
a(I406
I0
I0
g446
tp2331
a(I409
I3
F0.25
S'largest'
p2332
tp2333
a(I419
I3
F0.5
S'stronger'
p2334
tp2335
a(I437
I14
I0
S'only'
p2336
tp2337
a(I437
I67
F0.5
S'whole'
p2338
tp2339
a(I439
I2
I0
g45
tp2340
a(I445
I8
I0
g47
tp2341
a(I459
I0
I0
S'large'
p2342
tp2343
a(I460
I4
I0
g449
tp2344
a(I460
I4
I0
g451
tp2345
a(I461
I3
I0
S'large'
p2346
tp2347
a(I461
I3
I0
S'great'
p2348
tp2349
a(I463
I0
F0.25
g453
tp2350
a(I466
I4
I0
S'great'
p2351
tp2352
a(I468
I2
I0
S'large'
p2353
tp2354
a(I473
I2
F0.75
S'beautiful'
p2355
tp2356
a(I477
I17
I0
S'large'
p2357
tp2358
a(I489
I10
F0.25
g455
tp2359
a(I490
I1
F-0.375
S'black'
p2360
tp2361
a(I490
I1
F-0.5
S'power'
p2362
tp2363
as(S'look'
p2364
tp2365
(lp2366
(I86
I15
F0.375
S'new'
p2367
tp2368
a(I86
I16
I0
S'same'
p2369
tp2370
a(I185
I0
F0.125
S'first'
p2371
tp2372
as(S'customer'
p2373
tp2374
(lp2375
(I6
I0
F0.125
S'first'
p2376
tp2377
a(I6
I0
I0
S'real'
p2378
tp2379
a(I61
I4
F1.0
g903
tp2380
a(I139
I14
F0.375
g907
tp2381
a(I139
I22
I0
g909
tp2382
a(I139
I22
I0
g911
tp2383
a(I157
I12
I0
g913
tp2384
a(I199
I6
F-0.625
g915
tp2385
a(I201
I6
F0.75
g917
tp2386
a(I201
I33
F0.875
g921
tp2387
a(I326
I7
I0
S'prospective'
p2388
tp2389
a(I347
I4
F-0.875
S'negative'
p2390
tp2391
as(S'tablet'
p2392
tp2393
(lp2394
(I18
I39
I0
S'cellular'
p2395
tp2396
a(I229
I10
F-0.375
g784
tp2397
a(I305
I2
F-0.375
S'small'
p2398
tp2399
a(I321
I11
F0.625
S'kind'
p2400
tp2401
a(I403
I2
F0.25
S'larger'
p2402
tp2403
a(I410
I1
I0
S'real'
p2404
tp2405
a(I432
I0
I0
S'more'
p2406
tp2407
a(I438
I1
I0
S'big'
p2408
tp2409
a(I442
I16
I0
g786
tp2410
a(I442
I16
F0.125
g788
tp2411
as(S'everything'
p2412
tp2413
(lp2414
(I6
I8
I0
S'great'
p2415
tp2416
a(I19
I0
F1.0
S'good'
p2417
tp2418
a(I50
I5
F-0.75
S'wrong'
p2419
tp2420
a(I65
I4
I0
S'cool'
p2421
tp2422
a(I70
I46
I0
S'great'
p2423
tp2424
a(I86
I6
F-0.625
S'other'
p2425
tp2426
a(I128
I1
F0.625
S'perfect'
p2427
tp2428
a(I182
I7
I0
S'anymore'
p2429
tp2430
a(I195
I7
I0
S'japanese'
p2431
tp2432
a(I241
I4
I0
S'great'
p2433
tp2434
a(I267
I1
F0.375
S'new'
p2435
tp2436
a(I282
I11
I0
S'android'
p2437
tp2438
a(I305
I1
I0
S'android'
p2439
tp2440
a(I312
I14
F0.625
S'easy'
p2441
tp2442
a(I321
I14
F-0.375
S'small'
p2443
tp2444
a(I321
I14
F-0.125
S'slow'
p2445
tp2446
a(I344
I0
F1.0
S'better'
p2447
tp2448
a(I361
I9
F0.25
S'bigger'
p2449
tp2450
a(I405
I0
F0.375
S'new'
p2451
tp2452
a(I405
I0
F-0.5
S'unlimited'
p2453
tp2454
as(S'samsung'
p2455
tp2456
(lp2457
(I9
I11
I0
S'local'
p2458
tp2459
a(I17
I6
F-0.75
g1888
tp2460
a(I32
I0
I0
S'big'
p2461
tp2462
a(I70
I36
I0
S'pic'
p2463
tp2464
a(I84
I19
F-0.375
S'smaller'
p2465
tp2466
a(I84
I20
F-0.375
g1892
tp2467
a(I88
I10
F-0.375
S'unacceptable'
p2468
tp2469
a(I139
I24
F-0.125
S'overall'
p2470
tp2471
a(I157
I13
F-0.625
S'bad'
p2472
tp2473
a(I229
I26
F0.375
g1898
tp2474
a(I230
I8
F-0.625
S'want'
p2475
tp2476
a(I261
I1
F0.375
g1901
tp2477
a(I280
I1
F1.0
g1903
tp2478
a(I300
I12
F0.375
S'new'
p2479
tp2480
a(I308
I0
F0.25
g1905
tp2481
a(I341
I0
I0
S'corporate'
p2482
tp2483
a(I373
I5
F0.125
S'last'
p2484
tp2485
a(I389
I23
I0
S'next'
p2486
tp2487
a(I391
I0
F1.0
S'best'
p2488
tp2489
a(I403
I6
I0
S'proprietary'
p2490
tp2491
a(I409
I0
F0.375
g1907
tp2492
a(I466
I10
F0.125
S'first'
p2493
tp2494
a(I474
I4
I0
S'most'
p2495
tp2496
as(S'worth'
p2497
S'every'
p2498
S'penny'
p2499
tp2500
(lp2501
(I16
I0
I0
S'hot'
p2502
tp2503
a(I63
I31
F0.75
g939
tp2504
a(I120
I104
F0.75
S'worth'
p2505
tp2506
a(I120
I104
F-0.75
S'single'
p2507
tp2508
a(I158
I7
F0.75
S'worth'
p2509
tp2510
a(I260
I7
F-0.75
g941
tp2511
a(I321
I26
F0.75
g943
tp2512
as(S'camera'
p2513
tp2514
(lp2515
(I8
I1
I0
S'great'
p2516
tp2517
a(I26
I3
F0.125
S'solid'
p2518
tp2519
a(I49
I3
F-0.5
S'regular'
p2520
tp2521
a(I164
I1
I0
S'different'
p2522
tp2523
a(I182
I0
F0.125
S'usual'
p2524
tp2525
a(I219
I2
I0
S'big'
p2526
tp2527
a(I239
I1
F1.0
S'good'
p2528
tp2529
a(I242
I17
F-0.125
S'persistent'
p2530
tp2531
a(I286
I33
F0.125
S'digital'
p2532
tp2533
a(I304
I11
F0.125
S'digital'
p2534
tp2535
a(I373
I5
F0.375
S'similar'
p2536
tp2537
a(I398
I0
F0.25
S'sharp'
p2538
tp2539
a(I409
I5
I0
S'great'
p2540
tp2541
a(I437
I46
F-0.5
S'sure'
p2542
tp2543
a(I442
I12
I0
S'real'
p2544
tp2545
as(S'using'
p2546
tp2547
(lp2548
(I120
I51
I0
S'great'
p2549
tp2550
as(S'mobile'
p2551
tp2552
(lp2553
(I145
I0
F0.75
S'worth'
p2554
tp2555
a(I326
I10
F0.5
S'odd'
p2556
tp2557
a(I326
I10
F0.125
S'first'
p2558
tp2559
a(I326
I10
F0.375
S'remember'
p2560
tp2561
a(I326
I10
I0
S'large'
p2562
tp2563
a(I326
I10
F0.375
S'early'
p2564
tp2565
a(I437
I6
F0.5
S'primary'
p2566
tp2567
a(I437
I10
F-0.25
S'modern'
p2568
tp2569
as(S'galaxy'
p2570
tp2571
(lp2572
(I34
I2
I0
S'only'
p2573
tp2574
a(I55
I0
I0
S'fast'
p2575
tp2576
a(I66
I17
F1.0
S'better'
p2577
tp2578
a(I84
I4
F-0.625
S'other'
p2579
tp2580
a(I84
I4
F0.25
S'recent'
p2581
tp2582
a(I84
I6
F0.375
g206
tp2583
a(I84
I12
I0
g208
tp2584
a(I84
I20
F0.125
g210
tp2585
a(I84
I20
F0.375
g212
tp2586
a(I84
I24
F0.25
g214
tp2587
a(I84
I33
F0.25
g218
tp2588
a(I84
I40
F1.0
g222
tp2589
a(I120
I2
F0.25
g224
tp2590
a(I120
I7
F0.25
g226
tp2591
a(I120
I15
F0.25
g228
tp2592
a(I120
I31
F0.25
g230
tp2593
a(I120
I50
F0.25
g240
tp2594
a(I120
I80
F0.25
g242
tp2595
a(I120
I95
I0
g244
tp2596
a(I134
I0
F0.375
g246
tp2597
a(I174
I0
F0.375
g248
tp2598
a(I196
I0
F0.25
g252
tp2599
a(I237
I3
F0.375
g256
tp2600
a(I245
I2
I0
g258
tp2601
a(I252
I4
F1.0
g260
tp2602
a(I256
I17
F0.375
g264
tp2603
a(I286
I0
F0.125
g268
tp2604
a(I310
I1
F0.375
g274
tp2605
a(I315
I2
F0.375
g276
tp2606
a(I326
I11
F0.375
g278
tp2607
a(I358
I0
F1.0
S'better'
p2608
tp2609
a(I402
I7
F0.875
g284
tp2610
a(I403
I0
I0
g286
tp2611
a(I413
I2
F-0.25
g288
tp2612
a(I437
I56
F-0.5
S'international'
p2613
tp2614
a(I476
I0
F0.125
g290
tp2615
as(S'group'
p2616
S'wireless'
p2617
tp2618
(lp2619
(I392
I1
F-0.5
S'open'
p2620
tp2621
a(I392
I5
F-0.5
S'open'
p2622
tp2623
as(S'people'
p2624
tp2625
(lp2626
(I55
I0
I0
S'more'
p2627
tp2628
a(I70
I17
F-0.625
S'other'
p2629
tp2630
a(I84
I1
I0
S'many'
p2631
tp2632
a(I84
I1
I0
S'sensitive'
p2633
tp2634
a(I84
I40
I0
S'creative'
p2635
tp2636
a(I86
I10
I0
S'most'
p2637
tp2638
a(I90
I8
I0
S'many'
p2639
tp2640
a(I127
I6
I0
S'many'
p2641
tp2642
a(I127
I6
F-0.625
S'other'
p2643
tp2644
a(I127
I6
I0
S'own'
p2645
tp2646
a(I182
I10
F-0.625
S'rough'
p2647
tp2648
a(I233
I6
I0
S'many'
p2649
tp2650
a(I273
I3
F1.0
S'good'
p2651
tp2652
a(I280
I4
F-0.875
S'bother'
p2653
tp2654
a(I282
I22
F1.0
S'good'
p2655
tp2656
a(I282
I22
F-0.75
S'little'
p2657
tp2658
a(I346
I2
I0
S'most'
p2659
tp2660
a(I346
I23
I0
S'normal'
p2661
tp2662
a(I361
I10
F0.625
S'aware'
p2663
tp2664
a(I387
I34
I0
S'many'
p2665
tp2666
a(I387
I38
I0
S'many'
p2667
tp2668
a(I396
I3
I0
S'big'
p2669
tp2670
a(I409
I9
F-0.375
S'avoid'
p2671
tp2672
a(I421
I0
F-0.625
S'other'
p2673
tp2674
as(S'galaxy'
p2675
S'note'
p2676
S'n7000'
p2677
tp2678
(lp2679
(I120
I7
F0.25
g226
tp2680
a(I120
I95
I0
g244
tp2681
a(I174
I0
F0.375
g248
tp2682
a(I315
I2
F0.375
g276
tp2683
a(I315
I2
I0
S'incredible'
p2684
tp2685
as(S'works'
p2686
tp2687
(lp2688
(I44
I1
I0
S'great'
p2689
tp2690
a(I76
I0
F1.0
S'good'
p2691
tp2692
a(I120
I107
I0
S'great'
p2693
tp2694
a(I166
I0
I0
S'great'
p2695
tp2696
a(I242
I20
F1.0
S'best'
p2697
tp2698
a(I369
I1
I0
S'great'
p2699
tp2700
a(I369
I3
I0
S'great'
p2701
tp2702
as(S'large'
p2703
S'screen'
p2704
tp2705
(lp2706
(I12
I1
I0
g2133
tp2707
a(I12
I1
F0.75
g2135
tp2708
a(I12
I1
F0.625
g2137
tp2709
a(I69
I2
F0.25
g366
tp2710
a(I84
I15
F0.5
g2172
tp2711
a(I84
I15
I0
g2174
tp2712
a(I84
I15
F0.5
g2176
tp2713
a(I84
I34
I0
g2178
tp2714
a(I149
I7
F-0.625
g15
tp2715
a(I174
I1
F1.0
g2207
tp2716
a(I174
I1
I0
g2209
tp2717
a(I178
I1
I0
g2211
tp2718
a(I179
I0
F0.25
g2213
tp2719
a(I200
I2
I0
g2225
tp2720
a(I207
I2
I0
g385
tp2721
a(I207
I2
I0
g387
tp2722
a(I211
I0
F-0.375
g2230
tp2723
a(I218
I1
I0
g2234
tp2724
a(I229
I10
F0.25
g391
tp2725
a(I239
I1
I0
g2246
tp2726
a(I291
I1
I0
g2263
tp2727
a(I293
I1
F0.25
g2265
tp2728
a(I299
I1
I0
g2269
tp2729
a(I305
I1
I0
g2272
tp2730
a(I305
I2
I0
g2274
tp2731
a(I309
I4
I0
g410
tp2732
a(I309
I4
F0.375
g412
tp2733
a(I316
I0
I0
g2281
tp2734
a(I316
I2
I0
g2283
tp2735
a(I326
I4
I0
g2287
tp2736
a(I326
I15
F0.25
g2289
tp2737
a(I331
I1
I0
g2294
tp2738
a(I344
I28
F0.25
g2297
tp2739
a(I361
I9
I0
g438
tp2740
a(I390
I4
I0
g2322
tp2741
a(I403
I4
I0
g2328
tp2742
a(I409
I3
F0.25
g2332
tp2743
a(I459
I0
I0
g2342
tp2744
a(I461
I3
I0
g2346
tp2745
a(I461
I3
I0
g2348
tp2746
a(I468
I2
I0
g2353
tp2747
a(I477
I17
I0
g2357
tp2748
as(S'ease'
p2749
S'of'
p2750
S'use'
p2751
tp2752
(lp2753
(I42
I10
I0
S'large'
p2754
tp2755
a(I129
I4
I0
S'most'
p2756
tp2757
a(I282
I18
F-0.125
S'super'
p2758
tp2759
a(I321
I25
F-0.5
S'miss'
p2760
tp2761
a(I444
I6
I0
S'total'
p2762
tp2763
as(S'better'
p2764
tp2765
(lp2766
(I122
I1
F0.375
S'much'
p2767
tp2768
as(S'device'
p2769
tp2770
(lp2771
(I45
I1
I0
S'android'
p2772
tp2773
a(I71
I5
F-0.125
S'overall'
p2774
tp2775
a(I71
I5
I0
S'great'
p2776
tp2777
a(I84
I41
F-0.75
S'comfortable'
p2778
tp2779
a(I86
I20
I0
S'great'
p2780
tp2781
a(I88
I4
F-0.625
S'other'
p2782
tp2783
a(I88
I4
I0
S'electronic'
p2784
tp2785
a(I90
I8
F0.375
S'complete'
p2786
tp2787
a(I120
I33
I0
S'plastic'
p2788
tp2789
a(I120
I35
F0.625
S'sexy'
p2790
tp2791
a(I120
I84
I0
S'mobile'
p2792
tp2793
a(I120
I100
F0.625
S'easy'
p2794
tp2795
a(I142
I4
I0
S'incredible'
p2796
tp2797
a(I157
I11
F0.375
S'new'
p2798
tp2799
a(I189
I3
F0.375
S'new'
p2800
tp2801
a(I229
I29
F0.5
S'expensive'
p2802
tp2803
a(I256
I17
I0
S'electronic'
p2804
tp2805
a(I256
I17
I0
S'electronic'
p2806
tp2807
a(I265
I0
F1.0
S'good'
p2808
tp2809
a(I286
I51
I0
S'mobile'
p2810
tp2811
a(I286
I68
F-0.5
S'certain'
p2812
tp2813
a(I300
I20
I0
S'assistant'
p2814
tp2815
a(I303
I2
I0
S'spanish'
p2816
tp2817
a(I303
I2
F-0.875
S'inferior'
p2818
tp2819
a(I312
I14
F-0.625
S'other'
p2820
tp2821
a(I312
I17
F1.0
S'best'
p2822
tp2823
a(I326
I1
F-0.75
S'single'
p2824
tp2825
a(I351
I1
F-0.625
S'other'
p2826
tp2827
a(I361
I1
F-0.625
S'other'
p2828
tp2829
a(I408
I2
F-0.375
S'black'
p2830
tp2831
a(I408
I2
F1.0
S'good'
p2832
tp2833
a(I437
I5
I0
S'mobile'
p2834
tp2835
a(I441
I0
I0
S'most'
p2836
tp2837
a(I474
I17
I0
S'outweigh'
p2838
tp2839
a(I474
I18
I0
S'most'
p2840
tp2841
a(I484
I5
F0.25
S'powerful'
p2842
tp2843
as(S'of'
p2844
S'samsung'
p2845
S'galaxy'
p2846
tp2847
(lp2848
(I17
I6
F-0.75
g1888
tp2849
a(I84
I6
F0.375
g206
tp2850
a(I84
I12
I0
g208
tp2851
a(I84
I40
F1.0
g222
tp2852
a(I120
I7
F0.25
g226
tp2853
a(I280
I1
F1.0
g1903
tp2854
a(I409
I0
F0.375
g1907
tp2855
as(S'call'
p2856
tp2857
(lp2858
(I331
I2
I0
S'great'
p2859
tp2860
a(I425
I4
F-0.5
S'international'
p2861
tp2862
a(I445
I16
F0.375
S'friendly'
p2863
tp2864
a(I477
I5
F0.625
S'easy'
p2865
tp2866
as(S'for'
p2867
S'samsung'
p2868
S'galaxy'
p2869
tp2870
(lp2871
(I84
I12
I0
g208
tp2872
a(I84
I20
F-0.375
g1892
tp2873
a(I84
I20
F0.125
g210
tp2874
a(I84
I20
F0.375
g212
tp2875
a(I84
I40
F1.0
g222
tp2876
a(I229
I26
F0.375
g1898
tp2877
a(I261
I1
F0.375
g1901
tp2878
as(g335
S'full'
p2879
S'refund'
p2880
tp2881
(lp2882
(I201
I5
I0
S'full'
p2883
tp2884
a(I201
I25
I0
S'full'
p2885
tp2886
a(I201
I33
I0
S'full'
p2887
tp2888
a(I243
I2
I0
S'full'
p2889
tp2890
a(I288
I6
I0
S'full'
p2891
tp2892
as(g1796
S'pocket'
p2893
tp2894
(lp2895
(I69
I2
F-0.375
g1801
tp2896
a(I69
I2
I0
g1803
tp2897
a(I149
I7
F0.625
g1805
tp2898
a(I164
I3
F0.375
g1807
tp2899
a(I178
I1
F0.75
g1809
tp2900
a(I269
I3
I0
g1811
tp2901
as(S'galaxy'
p2902
S's3'
p2903
tp2904
(lp2905
(I66
I0
F-0.625
S'free'
p2906
tp2907
a(I66
I17
F1.0
g2577
tp2908
a(I84
I6
F0.375
g206
tp2909
a(I84
I12
I0
g208
tp2910
a(I84
I40
F1.0
g222
tp2911
a(I213
I0
I0
S'galaxy'
p2912
tp2913
a(I237
I3
F0.375
g256
tp2914
a(I248
I2
F0.25
S'bigger'
p2915
tp2916
a(I358
I0
F1.0
g2608
tp2917
a(I437
I56
F-0.5
g2613
tp2918
as(S'3rd'
p2919
S'party'
p2920
tp2921
(lp2922
(I265
I0
F-0.75
S'difficult'
p2923
tp2924
as(S'for'
p2925
S'6'
p2926
S'months'
p2927
tp2928
(lp2929
(I164
I0
F0.625
g2061
tp2930
a(I461
I10
I0
g2079
tp2931
as(g1796
S'front'
p2932
S'pocket'
p2933
tp2934
(lp2935
(I164
I3
F0.375
g1807
tp2936
as(S'apps'
p2937
tp2938
(lp2939
(I10
I55
F-0.625
S'free'
p2940
tp2941
a(I26
I0
I0
S'useful'
p2942
tp2943
a(I26
I9
I0
S'own'
p2944
tp2945
a(I30
I3
I0
S'few'
p2946
tp2947
a(I55
I0
F0.75
S'due'
p2948
tp2949
a(I66
I13
I0
S'cool'
p2950
tp2951
a(I89
I15
F0.375
S'new'
p2952
tp2953
a(I120
I72
F-0.5
S'open'
p2954
tp2955
a(I120
I78
F1.0
S'good'
p2956
tp2957
a(I120
I104
I0
S'few'
p2958
tp2959
a(I210
I2
I0
S'different'
p2960
tp2961
a(I229
I17
I0
S'few'
p2962
tp2963
a(I300
I8
F0.25
S'favorite'
p2964
tp2965
a(I300
I17
I0
S'bible'
p2966
tp2967
a(I315
I5
F-0.625
S'bad'
p2968
tp2969
a(I315
I5
I0
S'full'
p2970
tp2971
a(I342
I11
F-0.625
S'free'
p2972
tp2973
a(I344
I27
I0
S'same'
p2974
tp2975
a(I344
I27
F-0.625
S'other'
p2976
tp2977
a(I346
I11
F-0.625
S'free'
p2978
tp2979
a(I390
I2
I0
S'many'
p2980
tp2981
a(I437
I20
F-0.625
S'other'
p2982
tp2983
a(I437
I59
I0
S'great'
p2984
tp2985
a(I477
I20
I0
S'many'
p2986
tp2987
a(I481
I2
I0
S'fast'
p2988
tp2989
a(I493
I2
I0
S'more'
p2990
tp2991
as(S'days'
p2992
tp2993
(lp2994
(I8
I1
I0
S'full'
p2995
tp2996
a(I91
I0
I0
S'later'
p2997
tp2998
a(I113
I8
I0
S'few'
p2999
tp3000
a(I140
I6
I0
S'weird'
p3001
tp3002
a(I142
I4
F-0.125
S'mine'
p3003
tp3004
a(I142
I4
I0
S'few'
p3005
tp3006
a(I167
I7
F0.125
S'first'
p3007
tp3008
a(I171
I4
I0
S'full'
p3009
tp3010
a(I239
I1
I0
S'least'
p3011
tp3012
a(I245
I0
I0
S'few'
p3013
tp3014
a(I258
I0
I0
S'old'
p3015
tp3016
a(I367
I3
F0.125
S'first'
p3017
tp3018
a(I394
I4
F0.125
S'last'
p3019
tp3020
a(I394
I4
F0.625
S'easy'
p3021
tp3022
a(I437
I17
F-0.25
S'past'
p3023
tp3024
a(I437
I17
I0
S'few'
p3025
tp3026
a(I437
I22
I0
S'later'
p3027
tp3028
a(I482
I0
I0
S'few'
p3029
tp3030
a(I489
I4
F0.125
S'first'
p3031
tp3032
a(I489
I4
I0
S'few'
p3033
tp3034
as(S'first'
p3035
S'time'
p3036
tp3037
(lp3038
(I7
I0
F0.125
g795
tp3039
a(I7
I0
F-0.5
g797
tp3040
a(I63
I0
F-0.5
g799
tp3041
a(I120
I42
F0.125
g801
tp3042
a(I120
I65
F0.125
g1949
tp3043
a(I120
I67
I0
g803
tp3044
a(I120
I67
F0.125
g805
tp3045
a(I122
I1
F0.125
g807
tp3046
a(I157
I19
F0.125
g1960
tp3047
a(I157
I19
F0.125
g1962
tp3048
a(I159
I0
F0.125
g1964
tp3049
a(I189
I8
F0.125
g1970
tp3050
a(I195
I7
F0.125
g809
tp3051
a(I201
I0
F0.125
g811
tp3052
a(I291
I0
F0.125
g1989
tp3053
a(I312
I1
F0.125
g2000
tp3054
a(I339
I0
F0.125
g813
tp3055
a(I444
I0
F0.125
g2013
tp3056
a(I454
I0
F0.125
g815
tp3057
as.