(dp0
(S'android'
p1
tp2
(lp3
(I5
I15
F0.25
S'original'
p4
I0
tp5
a(I5
I15
F1.0
S'better'
p6
I0
tp7
a(I5
I49
F-0.5
S'less'
p8
I0
tp9
a(I5
I49
F0.25
S'powerful'
p10
I0
tp11
a(I5
I49
F1.0
S'better'
p12
I0
tp13
a(I15
I25
F0.125
S'first'
p14
I0
tp15
a(I16
I26
F0.25
S'helpful'
p16
I0
tp17
as(S'battery'
p18
S'life'
p19
tp20
(lp21
(I16
I91
F-0.75
S'short'
p22
I1
tp23
a(I16
I101
F1.0
S'good'
p24
I1
tp25
a(I17
I40
F1.0
S'good'
p26
I1
tp27
a(I16
I101
F1.0
g24
I19
tp28
a(I17
I40
F1.0
g26
I19
tp29
a(I2
I24
I0
S'quick'
p30
I15
tp31
a(I5
I46
F0.375
S'new'
p32
I15
tp33
a(I16
I19
F0.5
S'second'
p34
I15
tp35
a(I16
I91
F-0.75
g22
I15
tp36
as(S'water'
p37
S'proof'
p38
tp39
(lp40
(I12
I46
F0.125
S'last'
p41
I0
tp42
a(I12
I46
F-0.875
S'hard'
p43
I0
tp44
a(I15
I11
F-0.375
S'dust'
p45
I0
tp46
a(I12
I46
F0.125
g41
I6
tp47
a(I12
I46
F-0.875
g43
I6
tp48
a(I15
I0
I0
S'researched'
p49
I6
tp50
a(I15
I0
F0.125
S'rugged'
p51
I6
tp52
a(I17
I29
F1.0
S'good'
p53
I6
tp54
as(S'sim'
p55
S'card'
p56
tp57
(lp58
(I5
I46
I0
S'standard'
p59
I0
tp60
a(I19
I7
F-0.25
S'ready'
p61
I0
tp62
as(S'smart'
p63
tp64
(lp65
(I3
I6
F0.125
S'first'
p66
I10
tp67
a(I7
I0
F-0.25
S'ruggedized'
p68
I10
tp69
a(I12
I41
F1.0
S'better'
p70
I10
tp71
a(I12
I52
F0.125
S'first'
p72
I10
tp73
a(I12
I60
I0
S'most'
p74
I10
tp75
as(S'apps'
p76
tp77
(lp78
(I5
I4
I0
S'more'
p79
I0
tp80
a(I5
I4
F-0.5
S'open'
p81
I0
tp82
a(I12
I44
I0
S'most'
p83
I0
tp84
a(I15
I17
I0
S'few'
p85
I0
tp86
a(I15
I17
F-0.5
S'open'
p87
I0
tp88
a(I16
I10
F-0.875
S'harder'
p89
I0
tp90
a(I16
I10
F-0.5
S'open'
p91
I0
tp92
a(I16
I80
I0
S'download'
p93
I0
tp94
as(S'samsung'
p95
tp96
(lp97
(I2
I13
I0
S'website'
p98
I7
tp99
a(I16
I24
I0
S'latest'
p100
I7
tp101
as(S'camera'
p102
tp103
(lp104
(I5
I33
F0.875
S'nice'
p105
I1
tp106
a(I16
I66
I0
S'real'
p107
I1
tp108
as(S'computing'
p109
S'power'
p110
tp111
(lp112
(I16
I64
I0
S'latest'
p113
I0
tp114
a(I16
I65
I0
S'ample'
p115
I0
tp116
as.