(dp0
(S'battery'
p1
S'life'
p2
tp3
(lp4
(I6
I35
I0
S'ample'
p5
I1
tp6
a(I9
I6
F0.625
S'kind'
p7
I1
tp8
a(I13
I8
F1.0
S'better'
p9
I1
tp10
a(I17
I50
F1.0
S'good'
p11
I1
tp12
a(I17
I50
F1.0
S'good'
p13
I1
tp14
a(I17
I57
F0.625
S'responsible'
p15
I1
tp16
a(I17
I70
F0.375
S'new'
p17
I1
tp18
a(I17
I77
F-0.5
S'poor'
p19
I1
tp20
a(I26
I7
F-0.5
S'poor'
p21
I1
tp22
a(I42
I0
F-0.75
S'short'
p23
I1
tp24
a(I43
I14
F-0.5
S'longer'
p25
I1
tp26
a(I43
I18
F-0.5
S'poor'
p27
I1
tp28
a(I63
I58
F1.0
S'better'
p29
I1
tp30
a(I67
I65
F1.0
S'better'
p31
I1
tp32
a(I67
I132
I0
S'competitive'
p33
I1
tp34
a(I74
I52
F0.625
S'acceptable'
p35
I1
tp36
a(I9
I6
F0.625
g7
I19
tp37
a(I13
I8
F1.0
g9
I19
tp38
a(I17
I50
F1.0
g11
I19
tp39
a(I17
I50
F1.0
g13
I19
tp40
a(I28
I46
I0
S'social'
p41
I19
tp42
a(I42
I0
F-0.75
g23
I19
tp43
a(I43
I18
F-0.5
g27
I19
tp44
a(I63
I59
I0
S'real'
p45
I19
tp46
a(I67
I65
F1.0
g31
I19
tp47
a(I74
I52
F0.625
g35
I19
tp48
a(I99
I109
F0.625
S'easier'
p49
I19
tp50
a(I6
I35
I0
g5
I15
tp51
a(I17
I55
F-0.5
S'poor'
p52
I15
tp53
a(I17
I57
F0.625
g15
I15
tp54
a(I17
I70
F0.375
g17
I15
tp55
a(I17
I77
F-0.5
g19
I15
tp56
a(I26
I7
F-0.5
g21
I15
tp57
a(I43
I14
F-0.5
g25
I15
tp58
a(I44
I50
F0.25
S'consistent'
p59
I15
tp60
a(I51
I8
F-0.375
S'unacceptable'
p61
I15
tp62
a(I51
I12
I0
S'great'
p63
I15
tp64
a(I63
I58
F1.0
g29
I15
tp65
a(I67
I132
I0
g33
I15
tp66
a(I75
I12
F-0.75
S'dead'
p67
I15
tp68
a(I99
I15
I0
S'realistic'
p69
I15
tp70
as(S'iphone'
p71
S'5'
p72
S'for'
p73
tp74
(lp75
(I2
I11
F0.5
S'smarter'
p76
I0
tp77
a(I15
I0
I0
S'more'
p78
I0
tp79
a(I16
I18
F0.25
S'unlocked'
p80
I0
tp81
a(I16
I18
F0.25
S'unlocked'
p82
I0
tp83
a(I24
I24
F-0.125
S'super'
p84
I0
tp85
a(I24
I24
F-0.125
S'slow'
p86
I0
tp87
a(I25
I6
F0.375
S'new'
p88
I0
tp89
a(I25
I31
F0.375
S'new'
p90
I0
tp91
a(I43
I15
F-0.125
S'overall'
p92
I0
tp93
a(I44
I54
F0.375
S'appreciate'
p94
I0
tp95
a(I46
I6
I0
S'own'
p96
I0
tp97
a(I46
I7
F0.75
S'worth'
p98
I0
tp99
a(I78
I8
F-0.625
S'lighter'
p100
I0
tp101
a(I86
I39
F-0.375
S'simpler'
p102
I0
tp103
a(I93
I8
F0.25
S'unlocked'
p104
I0
tp105
a(I95
I21
F-0.25
S'epic'
p106
I0
tp107
a(I99
I92
I0
S'more'
p108
I0
tp109
a(I0
I47
F0.25
S'unlocked'
p110
I1
tp111
a(I0
I51
F0.125
S'last'
p112
I1
tp113
a(I1
I0
F0.5
S'second'
p114
I1
tp115
a(I1
I0
F0.375
S'new'
p116
I1
tp117
a(I1
I0
I0
S'old'
p118
I1
tp119
a(I1
I0
F1.0
S'best'
p120
I1
tp121
a(I1
I24
F0.125
S'first'
p122
I1
tp123
a(I1
I36
F0.125
S'last'
p124
I1
tp125
a(I1
I39
I0
S'latest'
p126
I1
tp127
a(I1
I45
F-0.625
S'inevitable'
p128
I1
tp129
a(I1
I45
F-0.5
S'sure'
p130
I1
tp131
a(I2
I7
F0.375
S'new'
p132
I1
tp133
a(I2
I11
F0.5
g76
I1
tp134
a(I4
I2
F1.0
S'good'
p135
I1
tp136
a(I4
I3
F-0.375
S'smaller'
p137
I1
tp138
a(I4
I10
I0
S'great'
p139
I1
tp140
a(I6
I0
F0.125
S'first'
p141
I1
tp142
a(I6
I60
I0
S'same'
p143
I1
tp144
a(I14
I2
I0
S'same'
p145
I1
tp146
a(I15
I0
I0
g78
I1
tp147
a(I16
I18
F0.25
g80
I1
tp148
a(I16
I18
F0.25
g82
I1
tp149
a(I17
I0
F0.75
S'due'
p150
I1
tp151
a(I17
I2
F-0.375
S'small'
p152
I1
tp153
a(I18
I10
F0.125
S'usual'
p154
I1
tp155
a(I18
I12
I0
S'limited'
p156
I1
tp157
a(I18
I13
F1.0
S'better'
p158
I1
tp159
a(I24
I18
F0.375
S'new'
p160
I1
tp161
a(I24
I24
F-0.125
g84
I1
tp162
a(I24
I24
F-0.125
g86
I1
tp163
a(I25
I6
F0.375
g88
I1
tp164
a(I25
I31
F0.375
g90
I1
tp165
a(I28
I15
F0.625
S'easy'
p166
I1
tp167
a(I28
I24
F1.0
S'best'
p168
I1
tp169
a(I28
I24
F0.125
S'last'
p170
I1
tp171
a(I28
I24
I0
S'such'
p172
I1
tp173
a(I28
I28
F-0.75
S'stupid'
p174
I1
tp175
a(I32
I3
F0.375
S'new'
p176
I1
tp177
a(I34
I0
F0.25
S'unlocked'
p178
I1
tp179
a(I36
I5
F-0.25
S'order'
p180
I1
tp181
a(I39
I29
F-0.125
S'overall'
p182
I1
tp183
a(I39
I29
F-0.375
S'simpler'
p184
I1
tp185
a(I39
I29
F0.625
S'easier'
p186
I1
tp187
a(I42
I19
F0.375
S'new'
p188
I1
tp189
a(I43
I5
F-0.625
S'glad'
p190
I1
tp191
a(I43
I5
F-0.25
S'white'
p192
I1
tp193
a(I43
I8
F0.625
S'easy'
p194
I1
tp195
a(I43
I15
F-0.125
g92
I1
tp196
a(I43
I16
F-0.625
S'glad'
p197
I1
tp198
a(I43
I21
F0.25
S'original'
p199
I1
tp200
a(I44
I19
F0.625
S'easy'
p201
I1
tp202
a(I44
I20
F0.125
S'popular'
p203
I1
tp204
a(I44
I54
F0.375
g94
I1
tp205
a(I45
I32
F0.5
S'second'
p206
I1
tp207
a(I45
I35
I-100
S'reseasrch'
p208
I1
tp209
a(I45
I35
F0.375
S'new'
p210
I1
tp211
a(I46
I6
I0
g96
I1
tp212
a(I46
I7
F0.75
g98
I1
tp213
a(I50
I12
F0.375
S'new'
p214
I1
tp215
a(I58
I1
I0
S'same'
p216
I1
tp217
a(I63
I60
I0
S'many'
p218
I1
tp219
a(I63
I62
I0
S'general'
p220
I1
tp221
a(I63
I82
F0.625
S'perfect'
p222
I1
tp223
a(I67
I10
F0.125
S'enough'
p224
I1
tp225
a(I67
I10
F0.125
S'first'
p226
I1
tp227
a(I68
I0
F-0.5
S'afraid'
p228
I1
tp229
a(I70
I13
I0
S'great'
p230
I1
tp231
a(I70
I14
F0.75
S'worth'
p232
I1
tp233
a(I70
I39
F0.125
S'enough'
p234
I1
tp235
a(I70
I39
F1.0
S'good'
p236
I1
tp237
a(I73
I5
F0.75
S'worth'
p238
I1
tp239
a(I74
I27
F1.0
S'good'
p240
I1
tp241
a(I74
I27
I0
S'same'
p242
I1
tp243
a(I74
I43
F0.25
S'original'
p244
I1
tp245
a(I74
I47
F0.875
S'nice'
p246
I1
tp247
a(I74
I58
F-0.625
S'light'
p248
I1
tp249
a(I74
I75
F-0.375
S'locked'
p250
I1
tp251
a(I78
I2
F0.875
S'happy'
p252
I1
tp253
a(I78
I8
F-0.625
g100
I1
tp254
a(I79
I2
I0
S'old'
p255
I1
tp256
a(I81
I0
F0.375
S'new'
p257
I1
tp258
a(I84
I14
I0
S'faster'
p259
I1
tp260
a(I84
I34
F0.375
S'new'
p261
I1
tp262
a(I86
I39
F-0.375
g102
I1
tp263
a(I87
I2
F0.25
S'refurbished'
p264
I1
tp265
a(I87
I7
F0.375
S'new'
p266
I1
tp267
a(I87
I9
F0.375
S'new'
p268
I1
tp269
a(I87
I20
F1.0
S'best'
p270
I1
tp271
a(I91
I4
I0
S'own'
p272
I1
tp273
a(I92
I0
F0.375
S'new'
p274
I1
tp275
a(I92
I0
F0.25
S'refurbished'
p276
I1
tp277
a(I93
I8
F0.25
g104
I1
tp278
a(I93
I18
F1.0
S'good'
p279
I1
tp280
a(I95
I1
I0
S'android'
p281
I1
tp282
a(I95
I12
F0.625
S'easier'
p283
I1
tp284
a(I95
I21
F-0.25
g106
I1
tp285
a(I95
I31
F-0.625
S'light'
p286
I1
tp287
a(I95
I31
I0
S'full'
p288
I1
tp289
a(I95
I35
F0.375
S'new'
p290
I1
tp291
a(I99
I2
I0
S'funny'
p292
I1
tp293
a(I99
I16
F1.0
S'best'
p294
I1
tp295
a(I99
I17
F1.0
S'best'
p296
I1
tp297
a(I99
I18
F1.0
S'best'
p298
I1
tp299
a(I99
I51
F0.5
S'expensive'
p300
I1
tp301
a(I99
I59
F0.625
S'easier'
p302
I1
tp303
a(I99
I92
I0
g108
I1
tp304
as(S'apple'
p305
S'products'
p306
tp307
(lp308
(I9
I5
I0
S'apple'
p309
I0
tp310
a(I18
I4
I0
S'apple'
p311
I0
tp312
a(I29
I5
F0.375
S'new'
p313
I0
tp314
a(I29
I25
F-0.125
S'slow'
p315
I0
tp316
a(I29
I25
F0.5
S'loyal'
p317
I0
tp318
a(I29
I25
F-0.625
S'other'
p319
I0
tp320
a(I51
I9
I0
S'integrated'
p321
I0
tp322
a(I63
I56
F-0.625
S'other'
p323
I0
tp324
a(I70
I33
I0
S'own'
p325
I0
tp326
a(I74
I63
I0
S'great'
p327
I0
tp328
a(I94
I43
I0
S'apple'
p329
I0
tp330
as(S'siri'
p331
tp332
(lp333
(I2
I9
I0
S'cool'
p334
I0
tp335
a(I18
I19
F0.5
S'whole'
p336
I0
tp337
a(I28
I24
F1.0
S'best'
p338
I0
tp339
a(I28
I25
F0.25
S'developed'
p340
I0
tp341
a(I43
I22
I0
S'phenomenal'
p342
I0
tp343
as(S'new'
p344
S'iphone'
p345
tp346
(lp347
(I1
I0
F0.5
g114
I0
tp348
a(I1
I0
F0.375
g116
I0
tp349
a(I1
I0
I0
g118
I0
tp350
a(I1
I0
F1.0
g120
I0
tp351
a(I2
I7
F0.375
g132
I0
tp352
a(I6
I60
I0
g143
I0
tp353
a(I15
I0
I0
g78
I0
tp354
a(I16
I18
F0.25
g80
I0
tp355
a(I16
I18
F0.25
g82
I0
tp356
a(I24
I18
F0.375
g160
I0
tp357
a(I25
I6
F0.375
g88
I0
tp358
a(I25
I31
F0.375
g90
I0
tp359
a(I32
I3
F0.375
g176
I0
tp360
a(I36
I5
F-0.25
g180
I0
tp361
a(I42
I19
F0.375
g188
I0
tp362
a(I43
I8
F0.625
g194
I0
tp363
a(I43
I21
F0.25
g199
I0
tp364
a(I45
I35
F0.375
g210
I0
tp365
a(I50
I12
F0.375
g214
I0
tp366
a(I67
I10
F0.125
g224
I0
tp367
a(I67
I10
F0.125
g226
I0
tp368
a(I81
I0
F0.375
g257
I0
tp369
a(I84
I34
F0.375
g261
I0
tp370
a(I87
I7
F0.375
g266
I0
tp371
a(I87
I9
F0.375
g268
I0
tp372
a(I92
I0
F0.375
g274
I0
tp373
a(I92
I0
F0.25
g276
I0
tp374
a(I95
I35
F0.375
g290
I0
tp375
as(S'easier'
p376
S'to'
p377
S'use'
p378
tp379
(lp380
(I43
I6
F0.625
S'easier'
p381
I1
tp382
as(S'faster'
p383
tp384
(lp385
(I24
I40
I0
S'great'
p386
I7
tp387
as(S'front'
p388
S'facing'
p389
S'camera'
p390
tp391
(lp392
(I6
I37
F0.625
S'convenient'
p393
I0
tp394
a(I6
I37
F0.625
g393
I1
tp395
a(I15
I0
I0
S'rear'
p396
I1
tp397
a(I29
I13
F0.625
S'necessary'
p398
I1
tp399
a(I63
I58
I0
S'physical'
p400
I1
tp401
a(I74
I47
F0.125
S'dedicated'
p402
I1
tp403
a(I84
I25
I0
S'same'
p404
I1
tp405
a(I84
I25
F0.375
S'flash'
p406
I1
tp407
as(S'business'
p408
S'tool'
p409
tp410
(lp411
(I24
I26
F0.875
S'important'
p412
I0
tp413
as(S'google'
p414
tp415
(lp416
(I63
I64
F-0.125
S'super'
p417
I4
tp418
a(I63
I64
I0
S'fluid'
p419
I4
tp420
as(S'one'
p421
S'and'
p422
S's4'
p423
tp424
(lp425
(I63
I47
F-0.5
S'less'
p426
I0
tp427
as(S'galaxy'
p428
S'note'
p429
tp430
(lp431
(I0
I15
I0
S'more'
p432
I0
tp433
a(I4
I1
F0.25
S'bigger'
p434
I0
tp435
a(I4
I1
F1.0
S'better'
p436
I0
tp437
a(I4
I1
I0
S'faster'
p438
I0
tp439
a(I63
I4
I-100
S'note-htc'
p440
I0
tp441
a(I63
I4
I-100
S'amaze-htc'
p442
I0
tp443
a(I63
I4
I-100
S'sensation-htc'
p444
I0
tp445
as(S'to'
p446
S'apple'
p447
S'store'
p448
tp449
(lp450
(I16
I18
I0
S'apple'
p451
I0
tp452
a(I16
I18
I0
S'apple'
p453
I0
tp454
a(I51
I6
F0.875
S'lucky'
p455
I0
tp456
a(I67
I52
I0
S'local'
p457
I0
tp458
a(I74
I64
I0
S'local'
p459
I0
tp460
a(I16
I18
I0
g451
I0
tp461
a(I16
I18
I0
g453
I0
tp462
a(I51
I6
F0.875
g455
I0
tp463
a(I67
I52
I0
g457
I0
tp464
a(I74
I64
I0
g459
I0
tp465
a(I0
I40
I0
S'more'
p466
I4
tp467
a(I1
I44
F0.125
S'first'
p468
I4
tp469
a(I2
I15
I0
S'standard'
p470
I4
tp471
a(I17
I28
F0.125
S'first'
p472
I4
tp473
a(I28
I20
F0.125
S'usual'
p474
I4
tp475
a(I29
I5
F0.375
g313
I4
tp476
a(I29
I25
F-0.125
g315
I4
tp477
a(I29
I25
F0.5
g317
I4
tp478
a(I29
I25
F-0.625
g319
I4
tp479
a(I42
I19
F0.125
S'able'
p480
I4
tp481
a(I44
I23
F-0.625
S'other'
p482
I4
tp483
a(I44
I58
F-0.5
S'sure'
p484
I4
tp485
a(I45
I23
F-0.5
S'longer'
p486
I4
tp487
a(I63
I56
F-0.625
g323
I4
tp488
a(I67
I52
I0
g457
I4
tp489
a(I67
I93
F0.5
S'true'
p490
I4
tp491
a(I70
I33
I0
g325
I4
tp492
a(I74
I3
I0
S'android'
p493
I4
tp494
a(I74
I3
I0
S'different'
p495
I4
tp496
a(I74
I20
F0.5
S'second'
p497
I4
tp498
a(I84
I5
F0.25
S'duplicate'
p499
I4
tp500
a(I91
I10
F0.375
S'much'
p501
I4
tp502
a(I93
I4
I0
S'more'
p503
I4
tp504
a(I93
I4
F-0.375
S'top'
p505
I4
tp506
a(I93
I4
F-0.75
S'stupid'
p507
I4
tp508
a(I94
I47
F0.125
S'first'
p509
I4
tp510
a(I94
I50
I0
S'few'
p511
I4
tp512
as(S'buy'
p513
S'an'
p514
S'iphone'
p515
tp516
(lp517
(I0
I47
F0.25
g110
I1
tp518
a(I15
I0
I0
g78
I1
tp519
a(I16
I18
F0.25
g80
I1
tp520
a(I16
I18
F0.25
g82
I1
tp521
a(I18
I10
F0.125
g154
I1
tp522
a(I36
I5
F-0.25
g180
I1
tp523
a(I71
I5
F1.0
S'better'
p524
I1
tp525
a(I99
I51
F0.5
g300
I1
tp526
as(S'seller'
p527
tp528
(lp529
(I11
I7
F-0.375
S'serious'
p530
I19
tp531
a(I11
I7
F0.375
S'reliable'
p532
I19
tp533
a(I31
I0
F0.625
S'enthusiastic'
p534
I19
tp535
a(I77
I0
F1.0
S'good'
p536
I19
tp537
a(I77
I0
F0.25
S'helpful'
p538
I19
tp539
a(I89
I1
F0.375
S'friendliest'
p540
I19
tp541
as(S'android'
p542
tp543
(lp544
(I25
I16
I0
S'old'
p545
I0
tp546
a(I25
I23
F1.0
S'good'
p547
I0
tp548
a(I25
I25
F1.0
S'best'
p549
I0
tp550
a(I63
I16
F-0.625
S'other'
p551
I0
tp552
a(I67
I35
F-0.375
S'overhead'
p553
I0
tp554
a(I67
I57
F0.5
S'possible'
p555
I0
tp556
a(I67
I61
F0.375
S'new'
p557
I0
tp558
a(I67
I65
F0.375
S'new'
p559
I0
tp560
a(I67
I75
F-0.25
S'past'
p561
I0
tp562
a(I67
I100
F1.0
S'best'
p563
I0
tp564
a(I67
I119
F1.0
S'better'
p565
I0
tp566
as(S'unlocked'
p567
S'iphone'
p568
tp569
(lp570
(I0
I47
F0.25
g110
I0
tp571
a(I16
I18
F0.25
g80
I0
tp572
a(I16
I18
F0.25
g82
I0
tp573
a(I34
I0
F0.25
g178
I0
tp574
a(I68
I0
F-0.5
g228
I0
tp575
a(I74
I75
F-0.375
g250
I0
tp576
a(I81
I0
F0.375
g257
I0
tp577
a(I93
I8
F0.25
g104
I0
tp578
as(S'best'
p579
S'smartphone'
p580
tp581
(lp582
(I1
I0
F1.0
S'best'
p583
I0
tp584
a(I6
I23
F-0.75
S'short'
p585
I0
tp586
a(I6
I23
F1.0
S'best'
p587
I0
tp588
a(I40
I0
F1.0
S'best'
p589
I0
tp590
a(I44
I16
F1.0
S'best'
p591
I0
tp592
a(I46
I5
F1.0
S'best'
p593
I0
tp594
a(I50
I18
F0.5
S'expensive'
p595
I0
tp596
a(I72
I2
F1.0
S'best'
p597
I0
tp598
a(I74
I21
F1.0
S'best'
p599
I0
tp600
a(I91
I3
F1.0
S'best'
p601
I0
tp602
as(S'upgrade'
p603
tp604
(lp605
(I1
I3
F0.375
S'early'
p606
I3
tp607
a(I2
I0
F0.625
S'major'
p608
I3
tp609
a(I63
I10
F0.375
S'significant'
p610
I3
tp611
as(S'brand'
p612
S'new'
p613
tp614
(lp615
(I0
I0
F-0.636
S'genuine'
p616
I9
tp617
a(I9
I8
F0.375
S'new'
p618
I9
tp619
a(I15
I0
F0.375
S'new'
p620
I9
tp621
a(I16
I18
F0.375
S'new'
p622
I9
tp623
a(I16
I18
F0.375
S'new'
p624
I9
tp625
a(I19
I0
F0.375
S'new'
p626
I9
tp627
a(I36
I5
F0.375
S'new'
p628
I9
tp629
a(I43
I21
F0.375
S'new'
p630
I9
tp631
a(I57
I0
F0.375
S'new'
p632
I9
tp633
a(I58
I6
F0.375
S'new'
p634
I9
tp635
a(I62
I2
F0.375
S'new'
p636
I9
tp637
a(I75
I0
F0.375
S'new'
p638
I9
tp639
a(I78
I5
F0.375
S'new'
p640
I9
tp641
a(I80
I0
F0.375
S'new'
p642
I9
tp643
a(I86
I0
F0.375
S'new'
p644
I9
tp645
a(I92
I5
F0.375
S'new'
p646
I9
tp647
a(I92
I5
F1.0
S'good'
p648
I9
tp649
as(S'sim'
p650
S'card'
p651
tp652
(lp653
(I9
I5
I0
S'own'
p654
I0
tp655
a(I9
I5
I0
S'sized'
p656
I0
tp657
a(I73
I1
I0
S'local'
p658
I0
tp659
as(S'serial'
p660
S'number'
p661
tp662
(lp663
(I82
I7
I0
S'serial'
p664
I0
tp665
as(S'a'
p666
S'bigger'
p667
S'screen'
p668
tp669
(lp670
(I0
I51
F0.25
S'bigger'
p671
I1
tp672
a(I14
I0
F0.375
S'much'
p673
I1
tp674
a(I29
I28
F0.25
S'bigger'
p675
I1
tp676
a(I29
I28
F0.875
S'nice'
p677
I1
tp678
a(I43
I14
F0.25
S'bigger'
p679
I1
tp680
a(I63
I59
F0.25
S'bigger'
p681
I1
tp682
a(I91
I12
F0.25
S'bigger'
p683
I1
tp684
a(I93
I2
F0.25
S'bigger'
p685
I1
tp686
a(I93
I2
I0
S'useful'
p687
I1
tp688
a(I99
I2
F0.25
S'bigger'
p689
I1
tp690
a(I99
I3
F-0.375
S'smaller'
p691
I1
tp692
a(I99
I7
F-0.5
S'less'
p693
I1
tp694
a(I99
I7
F0.625
S'easier'
p695
I1
tp696
a(I0
I51
F0.25
g671
I2
tp697
a(I14
I0
F0.375
g673
I2
tp698
a(I29
I28
F0.25
g675
I2
tp699
a(I29
I28
F0.875
g677
I2
tp700
a(I43
I14
F0.25
g679
I2
tp701
a(I63
I59
F0.25
g681
I2
tp702
a(I91
I12
F0.25
g683
I2
tp703
a(I93
I2
F0.25
g685
I2
tp704
a(I93
I2
I0
g687
I2
tp705
a(I99
I2
F0.25
g689
I2
tp706
a(I99
I3
F-0.375
g691
I2
tp707
a(I99
I7
F-0.5
g693
I2
tp708
a(I99
I7
F0.625
g695
I2
tp709
as(S'iphones'
p710
tp711
(lp712
(I13
I22
I0
S'older'
p713
I0
tp714
a(I17
I76
F0.375
S'new'
p715
I0
tp716
a(I71
I0
F-0.375
S'black'
p717
I0
tp718
as(S'file'
p719
S'management'
p720
tp721
(lp722
(I63
I27
I0
S'file'
p723
I0
tp724
as(S'much'
p725
S'better'
p726
tp727
(lp728
(I2
I31
F0.375
S'much'
p729
I9
tp730
a(I43
I12
F0.375
S'much'
p731
I9
tp732
a(I50
I26
F0.875
S'nice'
p733
I9
tp734
a(I50
I26
F0.375
S'much'
p735
I9
tp736
a(I63
I13
F0.375
S'much'
p737
I9
tp738
a(I63
I87
F0.375
S'much'
p739
I9
tp740
as(S'major'
p741
S'drawbacks'
p742
tp743
(lp744
(I63
I29
F0.625
S'major'
p745
I0
tp746
a(I63
I80
F0.625
S'major'
p747
I0
tp748
a(I63
I83
F0.625
S'major'
p749
I0
tp750
as(S'galaxy'
p751
S's3'
p752
tp753
(lp754
(I0
I24
F1.0
S'good'
p755
I0
tp756
a(I44
I50
F0.375
S'allow'
p757
I0
tp758
a(I0
I15
I0
g432
I0
tp759
a(I0
I24
F1.0
g755
I0
tp760
a(I63
I69
F0.125
S'first'
p761
I0
tp762
as(S'apps'
p763
tp764
(lp765
(I3
I4
F0.375
S'available'
p766
I0
tp767
a(I6
I38
I0
S'many'
p768
I0
tp769
a(I6
I38
F0.375
S'available'
p770
I0
tp771
a(I6
I38
F-0.625
S'free'
p772
I0
tp773
a(I6
I41
F-0.625
S'other'
p774
I0
tp775
a(I6
I41
F0.625
S'major'
p776
I0
tp777
a(I9
I4
I0
S'many'
p778
I0
tp779
a(I25
I21
I0
S'different'
p780
I0
tp781
a(I25
I27
I0
S'general'
p782
I0
tp783
a(I39
I10
I0
S'basic'
p784
I0
tp785
a(I39
I21
I0
S'different'
p786
I0
tp787
a(I40
I0
F0.875
S'music'
p788
I0
tp789
a(I43
I8
F0.375
S'new'
p790
I0
tp791
a(I44
I44
I0
S'more'
p792
I0
tp793
a(I46
I4
F1.0
S'good'
p794
I0
tp795
a(I63
I31
I0
S'carrier'
p796
I0
tp797
a(I63
I39
I0
S'trash'
p798
I0
tp799
a(I67
I26
F1.0
S'best'
p800
I0
tp801
a(I67
I27
F0.875
S'music'
p802
I0
tp803
a(I67
I27
F0.125
S'essential'
p804
I0
tp805
a(I67
I28
I0
S'great'
p806
I0
tp807
a(I67
I29
F0.125
S'key'
p808
I0
tp809
a(I67
I121
F0.125
S'first'
p810
I0
tp811
a(I67
I121
F0.125
S'visible'
p812
I0
tp813
a(I67
I122
F1.0
S'best'
p814
I0
tp815
a(I67
I122
F0.375
S'available'
p816
I0
tp817
a(I75
I28
F-0.5
S'fun'
p818
I0
tp819
a(I84
I16
I0
S'many'
p820
I0
tp821
a(I87
I15
F-0.125
S'slow'
p822
I0
tp823
a(I99
I89
I0
S'android'
p824
I0
tp825
as.