(dp0
(S'happy'
p1
S'with'
p2
S'purchase'
p3
tp4
(lp5
(I4
I5
F0.875
S'happy'
p6
I0
tp7
a(I37
I0
F-0.375
S'small'
p8
I0
tp9
a(I56
I0
F0.875
S'happy'
p10
I0
tp11
a(I66
I1
F0.875
S'happy'
p12
I0
tp13
a(I66
I1
F0.375
S'new'
p14
I0
tp15
a(I146
I33
F0.875
S'happy'
p16
I0
tp17
a(I201
I3
F0.875
S'happy'
p18
I0
tp19
a(I212
I16
F0.875
S'happy'
p20
I0
tp21
a(I304
I4
F0.875
S'happy'
p22
I0
tp23
as(S'very'
p24
S'good'
p25
S'price'
p26
tp27
(lp28
(I11
I12
F1.0
S'good'
p29
I5
tp30
a(I103
I0
F1.0
S'good'
p31
I5
tp32
a(I107
I55
F0.625
S'easy'
p33
I5
tp34
a(I152
I6
F1.0
S'good'
p35
I5
tp36
a(I179
I3
F1.0
S'good'
p37
I5
tp38
a(I208
I21
F1.0
S'good'
p39
I5
tp40
a(I208
I21
I0
S'dial'
p41
I5
tp42
a(I263
I4
F1.0
S'good'
p43
I5
tp44
a(I299
I33
F1.0
S'good'
p45
I5
tp46
as(S'size'
p47
S'and'
p48
S'weight'
p49
tp50
(lp51
(I29
I5
F-0.75
S'comfortable'
p52
I0
tp53
a(I205
I14
F0.5
S'stylish'
p54
I0
tp55
a(I205
I14
I0
S'great'
p56
I0
tp57
a(I212
I23
F-0.625
S'light'
p58
I0
tp59
a(I212
I23
F0.625
S'easy'
p60
I0
tp61
as(S'service'
p62
tp63
(lp64
(I11
I7
F1.0
S'good'
p65
I16
tp66
a(I33
I28
F1.0
S'good'
p67
I16
tp68
a(I33
I28
F-0.125
S'mine'
p69
I16
tp70
a(I68
I8
F1.0
S'better'
p71
I16
tp72
a(I68
I24
F0.625
S'acceptable'
p73
I16
tp74
a(I97
I5
I0
S'same'
p75
I16
tp76
a(I205
I1
I0
S'great'
p77
I16
tp78
a(I205
I1
I0
S'cellular'
p79
I16
tp80
a(I216
I33
I0
S'great'
p81
I16
tp82
a(I235
I14
I0
S'central'
p83
I16
tp84
a(I278
I8
I0
S'great'
p85
I16
tp86
as(S'perfect'
p87
S'size'
p88
tp89
(lp90
(I51
I6
F0.625
S'perfect'
p91
I2
tp92
a(I70
I16
F-0.625
S'glad'
p93
I2
tp94
a(I75
I1
F0.625
S'perfect'
p95
I2
tp96
a(I87
I10
F0.625
S'perfect'
p97
I2
tp98
a(I122
I14
F-0.375
S'wear'
p99
I2
tp100
a(I135
I7
F0.625
S'perfect'
p101
I2
tp102
a(I135
I7
F-0.375
S'simple'
p103
I2
tp104
a(I143
I5
F0.625
S'easy'
p105
I2
tp106
a(I154
I0
F0.625
S'perfect'
p107
I2
tp108
a(I166
I0
F-0.375
S'smaller'
p109
I2
tp110
a(I253
I1
F0.625
S'perfect'
p111
I2
tp112
a(I302
I2
I0
S'great'
p113
I2
tp114
a(I302
I2
F-0.5
S'regular'
p115
I2
tp116
as(S'camera'
p117
tp118
(lp119
(I4
I10
F1.0
S'good'
p120
I1
tp121
a(I4
I11
F1.0
S'good'
p122
I1
tp123
a(I9
I3
F0.625
S'decent'
p124
I1
tp125
a(I73
I9
F1.0
S'good'
p126
I1
tp127
a(I75
I29
F1.0
S'good'
p128
I1
tp129
a(I80
I16
F-0.25
S'disappointed'
p130
I1
tp131
a(I88
I2
I0
S'exclusive'
p132
I1
tp133
a(I107
I53
I0
S'rear'
p134
I1
tp135
a(I120
I25
F1.0
S'good'
p136
I1
tp137
a(I128
I41
I0
S'such'
p138
I1
tp139
a(I160
I8
F1.0
S'good'
p140
I1
tp141
a(I160
I8
F1.0
S'best'
p142
I1
tp143
a(I176
I0
F1.0
S'good'
p144
I1
tp145
a(I184
I15
F0.875
S'nice'
p146
I1
tp147
a(I184
I15
F0.875
S'nice'
p148
I1
tp149
a(I189
I12
F1.0
S'better'
p150
I1
tp151
a(I199
I16
I0
S'external'
p152
I1
tp153
a(I206
I1
F0.5
S'clear'
p154
I1
tp155
a(I207
I10
F1.0
S'good'
p156
I1
tp157
a(I208
I8
F1.0
S'best'
p158
I1
tp159
a(I208
I8
F0.5
S'clear'
p160
I1
tp161
a(I219
I36
F-0.625
S'other'
p162
I1
tp163
a(I219
I39
F1.0
S'good'
p164
I1
tp165
a(I219
I40
F-0.75
S'bright'
p166
I1
tp167
a(I259
I15
F0.25
S'powerful'
p168
I1
tp169
a(I260
I9
F1.0
S'good'
p170
I1
tp171
a(I273
I8
F1.0
S'good'
p172
I1
tp173
a(I273
I8
F0.625
S'easy'
p174
I1
tp175
a(I277
I44
F1.0
S'good'
p176
I1
tp177
a(I277
I44
I0
S'very'
p178
I1
tp179
a(I277
I44
F0.625
S'easy'
p180
I1
tp181
as(S'iphone'
p182
tp183
(lp184
(I15
I17
F0.625
S'easier'
p185
I1
tp186
a(I26
I27
F0.25
S'unlocked'
p187
I1
tp188
a(I26
I27
F-0.25
S'direct'
p189
I1
tp190
a(I42
I1
F-0.375
S'smaller'
p191
I1
tp192
a(I54
I24
I0
S'old'
p193
I1
tp194
a(I82
I3
F0.625
S'kind'
p195
I1
tp196
a(I82
I3
F0.5
S'whole'
p197
I1
tp198
a(I91
I1
I0
S'faster'
p199
I1
tp200
a(I106
I26
I0
S'old'
p201
I1
tp202
a(I122
I11
F0.25
S'larger'
p203
I1
tp204
a(I128
I10
F-0.625
S'lighter'
p205
I1
tp206
a(I135
I4
F-0.5
S'sure'
p207
I1
tp208
a(I135
I4
F0.125
S'first'
p209
I1
tp210
a(I148
I22
F1.0
S'good'
p211
I1
tp212
a(I151
I12
I0
S'old'
p213
I1
tp214
a(I184
I17
I0
S'faster'
p215
I1
tp216
a(I184
I17
F-0.375
S'smoother'
p217
I1
tp218
a(I189
I3
F-0.25
S'cheaper'
p219
I1
tp220
a(I189
I14
I0
S'own'
p221
I1
tp222
a(I199
I13
F0.5
S'rid'
p223
I1
tp224
a(I262
I2
I-100
S'old-skool'
p225
I1
tp226
as(S'straight'
p227
S'talk'
p228
tp229
(lp230
(I49
I59
F0.625
S'straight'
p231
I0
tp232
a(I49
I59
F-0.125
S'super'
p233
I0
tp234
a(I49
I59
F0.625
S'easy'
p235
I0
tp236
a(I189
I7
F0.625
S'straight'
p237
I0
tp238
a(I197
I0
F0.625
S'straight'
p239
I0
tp240
as(S'a'
p241
S'high'
p242
S'end'
p243
tp244
(lp245
(I19
I9
I0
S'high'
p246
I0
tp247
a(I89
I66
I0
S'high'
p248
I0
tp249
a(I226
I1
I0
S'high'
p250
I0
tp251
a(I240
I20
I0
S'high'
p252
I0
tp253
a(I262
I1
I0
S'high'
p254
I0
tp255
a(I265
I107
I0
S'high'
p256
I0
tp257
a(I284
I1
I0
S'high'
p258
I0
tp259
as(g241
S'great'
p260
S'product'
p261
tp262
(lp263
(I68
I6
I0
S'great'
p264
I9
tp265
a(I98
I24
I0
S'general'
p266
I9
tp267
a(I98
I24
I0
S'great'
p268
I9
tp269
a(I102
I8
I0
S'great'
p270
I9
tp271
a(I105
I4
F-0.75
S'sad'
p272
I9
tp273
a(I105
I4
I0
S'great'
p274
I9
tp275
a(I146
I22
I0
S'great'
p276
I9
tp277
a(I146
I27
I0
S'great'
p278
I9
tp279
a(I210
I27
I0
S'great'
p280
I9
tp281
a(I222
I8
I0
S'great'
p282
I9
tp283
a(I246
I2
I0
S'great'
p284
I9
tp285
a(I68
I6
I0
g264
I15
tp286
a(I98
I24
I0
g266
I15
tp287
a(I98
I24
I0
g268
I15
tp288
a(I102
I8
I0
g270
I15
tp289
a(I105
I4
F-0.75
g272
I15
tp290
a(I105
I4
I0
g274
I15
tp291
a(I146
I22
I0
g276
I15
tp292
a(I146
I27
I0
g278
I15
tp293
a(I210
I27
I0
g280
I15
tp294
a(I222
I8
I0
g282
I15
tp295
a(I246
I2
I0
g284
I15
tp296
as(S'samsung'
p297
S'galaxy'
p298
S's3'
p299
tp300
(lp301
(I199
I14
F0.125
S'first'
p302
I0
tp303
a(I265
I35
I0
S'big'
p304
I0
tp305
a(I277
I12
F-0.5
S'regular'
p306
I0
tp307
a(I33
I26
I0
S'many'
p308
I0
tp309
a(I73
I20
F0.25
S'original'
p310
I0
tp311
a(I199
I14
F0.125
g302
I0
tp312
a(I255
I0
F0.875
S'happy'
p313
I0
tp314
a(I265
I48
F0.25
S'original'
p315
I0
tp316
a(I277
I12
F-0.5
g306
I0
tp317
a(I77
I0
I0
S'same'
p318
I0
tp319
a(I77
I0
F-0.375
S'smaller'
p320
I0
tp321
a(I170
I10
I0
S'third'
p322
I0
tp323
a(I185
I18
F-0.375
S'small'
p324
I0
tp325
a(I219
I17
F0.25
S'original'
p326
I0
tp327
a(I240
I38
F-0.5
S'regular'
p328
I0
tp329
a(I258
I11
F0.25
S'bigger'
p330
I0
tp331
a(I265
I35
I0
g304
I0
tp332
a(I265
I46
F-0.625
S'unlike'
p333
I0
tp334
a(I292
I19
F-0.5
S'regular'
p335
I0
tp336
a(I292
I21
F0.625
S'superior'
p337
I0
tp338
a(I292
I24
F-0.375
S'smaller'
p339
I0
tp340
a(I292
I24
F0.75
S'worth'
p341
I0
tp342
a(I3
I10
F0.375
S'complete'
p343
I0
tp344
a(I3
I10
F0.625
S'easy'
p345
I0
tp346
a(I3
I27
F0.125
S'first'
p347
I0
tp348
a(I19
I15
F-0.5
S'regular'
p349
I0
tp350
a(I42
I17
F-0.5
S'regular'
p351
I0
tp352
a(I76
I8
F0.375
S'new'
p353
I0
tp354
a(I77
I0
I0
g318
I0
tp355
a(I85
I7
F0.25
S'original'
p356
I0
tp357
a(I128
I17
F-0.5
S'regular'
p358
I0
tp359
a(I128
I35
F-0.5
S'regular'
p360
I0
tp361
a(I134
I0
I0
S'next'
p362
I0
tp363
a(I144
I0
F0.375
S'new'
p364
I0
tp365
a(I170
I10
I0
g322
I0
tp366
a(I174
I4
I0
S'normal'
p367
I0
tp368
a(I202
I0
F-0.5
S'regular'
p369
I0
tp370
a(I206
I7
I0
S'downloaded'
p371
I0
tp372
a(I240
I5
F0.25
S'bigger'
p373
I0
tp374
a(I240
I6
F0.25
S'bigger'
p375
I0
tp376
a(I258
I11
F0.25
g330
I0
tp377
a(I266
I12
F0.25
S'original'
p378
I0
tp379
a(I276
I12
F1.0
S'best'
p380
I0
tp381
a(I282
I0
F0.5
S'touch'
p382
I0
tp383
a(I282
I0
F0.25
S'responsive'
p384
I0
tp385
a(I292
I19
F-0.5
g335
I0
tp386
a(I292
I24
F-0.375
g339
I0
tp387
a(I303
I13
F1.0
S'good'
p388
I0
tp389
a(I303
I13
F0.25
S'responsive'
p390
I0
tp391
as(S'samsung'
p392
S'galaxy'
p393
S's'
p394
tp395
(lp396
(I33
I26
I0
g308
I0
tp397
a(I73
I20
F0.25
g310
I0
tp398
a(I199
I14
F0.125
g302
I0
tp399
a(I255
I0
F0.875
g313
I0
tp400
a(I265
I48
F0.25
g315
I0
tp401
a(I277
I12
F-0.5
g306
I0
tp402
as(S'time'
p403
S'to'
p404
S'time'
p405
tp406
(lp407
(I212
I33
I0
S'next'
p408
I1
tp409
a(I277
I1
I0
S'same'
p410
I1
tp411
a(I280
I9
F0.5
S'second'
p412
I1
tp413
a(I304
I38
F-0.75
S'short'
p414
I1
tp415
a(I307
I10
F0.5
S'second'
p416
I1
tp417
as(g241
S'great'
p418
S'price'
p419
tp420
(lp421
(I4
I6
I0
S'great'
p422
I9
tp423
a(I72
I3
I0
S'great'
p424
I9
tp425
a(I106
I5
F0.5
S'reasonable'
p426
I9
tp427
a(I146
I34
I0
S'great'
p428
I9
tp429
a(I151
I0
F0.5
S'reasonable'
p430
I9
tp431
a(I152
I6
F1.0
g35
I9
tp432
a(I165
I12
I0
S'great'
p433
I9
tp434
a(I180
I1
I0
S'great'
p435
I9
tp436
a(I200
I15
F-0.25
S'low'
p437
I9
tp438
a(I260
I16
I0
S'great'
p439
I9
tp440
a(I271
I0
I0
S'great'
p441
I9
tp442
a(I280
I5
F-0.25
S'low'
p443
I9
tp444
a(I299
I14
I0
S'great'
p445
I9
tp446
a(I299
I33
F1.0
g45
I9
tp447
as(S'sd'
p448
S'card'
p449
tp450
(lp451
(I33
I11
F0.625
S'adventurous'
p452
I0
tp453
a(I89
I53
F0.5
S'personal'
p454
I0
tp455
a(I185
I11
I0
S'large'
p456
I0
tp457
a(I226
I1
I0
S'external'
p458
I0
tp459
a(I265
I94
F0.5
S'personal'
p460
I0
tp461
as(S'seller'
p462
tp463
(lp464
(I8
I4
F0.625
S'fair'
p465
I19
tp466
a(I19
I13
F0.625
S'kind'
p467
I19
tp468
a(I139
I0
F0.375
S'new'
p469
I19
tp470
a(I144
I5
I0
S'third'
p471
I19
tp472
a(I157
I8
I0
S'least'
p473
I19
tp474
a(I185
I0
I0
S'earlier'
p475
I19
tp476
a(I247
I12
I0
S'particular'
p477
I19
tp478
a(I303
I10
I0
S'least'
p479
I19
tp480
a(I305
I67
F0.875
S'happy'
p481
I19
tp482
a(I305
I68
F0.25
S'helpful'
p483
I19
tp484
as(S'android'
p485
tp486
(lp487
(I14
I1
F-0.75
S'bright'
p488
I0
tp489
a(I49
I31
F0.125
S'first'
p490
I0
tp491
a(I54
I17
F0.125
S'first'
p492
I0
tp493
a(I77
I30
F0.875
S'nice'
p494
I0
tp495
a(I77
I30
F-0.75
S'little'
p496
I0
tp497
a(I85
I1
I0
S'basic'
p498
I0
tp499
a(I106
I45
F0.125
S'first'
p500
I0
tp501
a(I179
I0
F0.125
S'first'
p502
I0
tp503
a(I201
I0
F1.0
S'good'
p504
I0
tp505
a(I206
I14
F0.125
S'first'
p506
I0
tp507
a(I212
I30
F1.0
S'good'
p508
I0
tp509
a(I304
I21
F0.25
S'familiar'
p510
I0
tp511
a(I305
I7
F0.125
S'native'
p512
I0
tp513
as(S'regular'
p514
S'sim'
p515
S'card'
p516
tp517
(lp518
(I89
I30
F1.0
S'good'
p519
I0
tp520
a(I89
I30
F-0.5
S'regular'
p521
I0
tp522
a(I183
I15
F-0.5
S'regular'
p523
I0
tp524
a(I191
I4
F0.75
S'fit'
p525
I0
tp526
a(I209
I4
F-0.5
S'regular'
p527
I0
tp528
a(I265
I71
F1.0
S'good'
p529
I0
tp530
a(I265
I71
F-0.5
S'regular'
p531
I0
tp532
a(I305
I22
F-0.5
S'regular'
p533
I0
tp534
as(S'amazon'
p535
tp536
(lp537
(I49
I50
F-0.5
S'sure'
p538
I13
tp539
a(I80
I11
F0.5
S'accommodative'
p540
I13
tp541
a(I88
I6
F0.625
S'interested'
p542
I13
tp543
a(I120
I23
F-0.375
S'top'
p544
I13
tp545
a(I120
I27
F-0.25
S'cheaper'
p546
I13
tp547
a(I157
I8
I0
S'most'
p548
I13
tp549
a(I157
I8
F0.375
S'prime'
p550
I13
tp551
a(I194
I4
F-0.625
S'sorry'
p552
I13
tp553
a(I208
I17
I0
S'standard'
p554
I13
tp555
a(I278
I7
I0
S'great'
p556
I13
tp557
as(S't'
p558
S'sim'
p559
S'card'
p560
tp561
(lp562
(I1
I6
I0
S'quick'
p563
I0
tp564
a(I15
I43
F0.375
S'new'
p565
I0
tp566
a(I31
I0
I0
S'different'
p567
I0
tp568
a(I77
I54
F0.5
S'clear'
p569
I0
tp570
a(I80
I12
F0.125
S'able'
p571
I0
tp572
a(I89
I28
I0
S'standard'
p573
I0
tp574
a(I89
I30
F1.0
g519
I0
tp575
a(I89
I30
F-0.5
g521
I0
tp576
a(I106
I26
I0
S'same'
p577
I0
tp578
a(I115
I9
I0
S'old'
p579
I0
tp580
a(I126
I2
I0
S'local'
p581
I0
tp582
a(I140
I5
F-0.5
S'regular'
p583
I0
tp584
a(I151
I1
F-0.25
S'ready'
p585
I0
tp586
a(I151
I1
F-0.5
S'international'
p587
I0
tp588
a(I151
I6
I0
S'italian'
p589
I0
tp590
a(I183
I15
F-0.5
g523
I0
tp591
a(I191
I4
F0.75
g525
I0
tp592
a(I205
I20
I0
S'great'
p593
I0
tp594
a(I205
I20
I0
S'argentinian'
p595
I0
tp596
a(I209
I4
F-0.5
g527
I0
tp597
a(I265
I69
I0
S'standard'
p598
I0
tp599
a(I265
I71
F1.0
g529
I0
tp600
a(I265
I71
F-0.5
g531
I0
tp601
a(I299
I19
I0
S'standard'
p602
I0
tp603
a(I305
I22
F-0.5
g533
I0
tp604
a(I1
I6
I0
g563
I0
tp605
a(I15
I43
F0.375
g565
I0
tp606
a(I31
I0
I0
g567
I0
tp607
a(I77
I54
F0.5
g569
I0
tp608
a(I80
I12
F0.125
g571
I0
tp609
a(I89
I28
I0
g573
I0
tp610
a(I89
I30
F1.0
g519
I0
tp611
a(I89
I30
F-0.5
g521
I0
tp612
a(I106
I26
I0
g577
I0
tp613
a(I115
I9
I0
g579
I0
tp614
a(I126
I2
I0
g581
I0
tp615
a(I151
I1
F-0.25
g585
I0
tp616
a(I151
I1
F-0.5
g587
I0
tp617
a(I151
I6
I0
g589
I0
tp618
a(I183
I15
F-0.5
g523
I0
tp619
a(I191
I4
F0.75
g525
I0
tp620
a(I205
I20
I0
g593
I0
tp621
a(I205
I20
I0
g595
I0
tp622
a(I209
I4
F-0.5
g527
I0
tp623
a(I265
I69
I0
g598
I0
tp624
a(I265
I71
F1.0
g529
I0
tp625
a(I265
I71
F-0.5
g531
I0
tp626
a(I299
I19
I0
g602
I0
tp627
a(I305
I22
F-0.5
g533
I0
tp628
as(S'smart'
p629
tp630
(lp631
(I24
I3
F-0.25
S'modern'
p632
I10
tp633
a(I26
I0
F0.125
S'first'
p634
I10
tp635
a(I54
I29
F0.625
S'perfect'
p636
I10
tp637
a(I70
I5
I0
S'old'
p638
I10
tp639
a(I73
I9
F0.25
S'powerful'
p640
I10
tp641
a(I73
I24
F1.0
S'good'
p642
I10
tp643
a(I86
I22
F-0.375
S'small'
p644
I10
tp645
a(I86
I22
F-0.625
S'light'
p646
I10
tp647
a(I107
I6
F0.125
S'first'
p648
I10
tp649
a(I111
I1
F-0.625
S'other'
p650
I10
tp651
a(I118
I10
F0.5
S'true'
p652
I10
tp653
a(I146
I4
F0.125
S'first'
p654
I10
tp655
a(I151
I4
F0.375
S'new'
p656
I10
tp657
a(I177
I0
F1.0
S'best'
p658
I10
tp659
a(I204
I0
F0.5
S'primary'
p660
I10
tp661
a(I209
I8
F0.625
S'superior'
p662
I10
tp663
a(I230
I0
F1.0
S'best'
p664
I10
tp665
a(I242
I15
I0
S'needed'
p666
I10
tp667
a(I242
I15
F-0.375
S'small'
p668
I10
tp669
a(I242
I15
I0
S'basic'
p670
I10
tp671
a(I245
I2
F0.125
S'first'
p672
I10
tp673
a(I247
I4
F0.125
S'first'
p674
I10
tp675
a(I261
I1
F0.125
S'first'
p676
I10
tp677
a(I265
I15
F1.0
S'good'
p678
I10
tp679
a(I305
I56
F0.125
S'proficient'
p680
I10
tp681
a(I305
I56
F0.375
S'new'
p682
I10
tp683
as(S'and'
p684
S'battery'
p685
S'life'
p686
tp687
(lp688
(I36
I2
I0
S'great'
p689
I1
tp690
a(I88
I5
F1.0
S'good'
p691
I1
tp692
a(I89
I40
F1.0
S'best'
p693
I1
tp694
a(I107
I11
F0.625
S'fair'
p695
I1
tp696
a(I115
I48
F1.0
S'good'
p697
I1
tp698
a(I146
I20
F-0.5
S'poor'
p699
I1
tp700
a(I148
I12
F0.125
S'impressive'
p701
I1
tp702
a(I148
I14
F-0.75
S'short'
p703
I1
tp704
a(I159
I5
I0
S'great'
p705
I1
tp706
a(I165
I4
F-0.875
S'awful'
p707
I1
tp708
a(I265
I81
F1.0
S'best'
p709
I1
tp710
a(I277
I11
F1.0
S'good'
p711
I1
tp712
a(I304
I22
F0.5
S'satisfactory'
p713
I1
tp714
a(I36
I2
I0
g689
I1
tp715
a(I68
I18
F0.625
S'acceptable'
p716
I1
tp717
a(I74
I11
F0.375
S'extra'
p718
I1
tp719
a(I88
I5
F1.0
g691
I1
tp720
a(I89
I40
F1.0
g693
I1
tp721
a(I105
I25
F-0.75
S'short'
p722
I1
tp723
a(I106
I36
F-0.5
S'less'
p724
I1
tp725
a(I107
I11
F0.625
g695
I1
tp726
a(I115
I48
F1.0
g697
I1
tp727
a(I124
I2
F1.0
S'good'
p728
I1
tp729
a(I127
I5
I0
S'great'
p730
I1
tp731
a(I146
I20
F-0.5
g699
I1
tp732
a(I148
I12
F0.125
g701
I1
tp733
a(I148
I13
F-0.75
S'short'
p734
I1
tp735
a(I148
I13
F0.625
S'productive'
p736
I1
tp737
a(I148
I14
F-0.75
g703
I1
tp738
a(I159
I5
I0
g705
I1
tp739
a(I165
I4
F-0.875
g707
I1
tp740
a(I168
I12
F-0.5
S'less'
p741
I1
tp742
a(I182
I7
I0
S'sensitive'
p743
I1
tp744
a(I182
I7
F0.25
S'larger'
p745
I1
tp746
a(I265
I81
F1.0
g709
I1
tp747
a(I276
I5
F1.0
S'good'
p748
I1
tp749
a(I277
I11
F1.0
g711
I1
tp750
a(I302
I31
F0.125
S'last'
p751
I1
tp752
a(I304
I22
F0.5
g713
I1
tp753
a(I88
I5
F1.0
g691
I19
tp754
a(I105
I25
F-0.75
g722
I19
tp755
a(I106
I36
F-0.5
g724
I19
tp756
a(I107
I11
F0.625
g695
I19
tp757
a(I107
I30
F0.625
S'easy'
p758
I19
tp759
a(I115
I48
F1.0
g697
I19
tp760
a(I124
I2
F1.0
g728
I19
tp761
a(I127
I5
I0
g730
I19
tp762
a(I146
I20
F-0.5
g699
I19
tp763
a(I148
I12
F0.125
g701
I19
tp764
a(I148
I13
F0.625
g736
I19
tp765
a(I165
I4
F-0.875
g707
I19
tp766
a(I168
I12
F-0.5
g741
I19
tp767
a(I211
I12
F0.5
S'personal'
p768
I19
tp769
a(I212
I12
F0.625
S'easier'
p770
I19
tp771
a(I253
I18
F0.625
S'easier'
p772
I19
tp773
a(I276
I5
F1.0
g748
I19
tp774
a(I277
I11
F1.0
g711
I19
tp775
a(I302
I31
F0.125
g751
I19
tp776
a(I304
I22
F0.5
g713
I19
tp777
a(I3
I62
F0.375
S'new'
p778
I15
tp779
a(I12
I2
F0.125
S'last'
p780
I15
tp781
a(I15
I27
F-0.625
S'bad'
p782
I15
tp783
a(I15
I27
F0.375
S'new'
p784
I15
tp785
a(I15
I29
I0
S'external'
p786
I15
tp787
a(I31
I7
F0.5
S'second'
p788
I15
tp789
a(I31
I16
F-0.25
S'low'
p790
I15
tp791
a(I31
I21
F0.375
S'new'
p792
I15
tp793
a(I35
I0
F0.25
S'original'
p794
I15
tp795
a(I36
I1
F0.375
S'new'
p796
I15
tp797
a(I36
I2
I0
g689
I15
tp798
a(I42
I21
F0.125
S'first'
p799
I15
tp800
a(I49
I17
F0.375
S'new'
p801
I15
tp802
a(I56
I0
F0.125
S'last'
p803
I15
tp804
a(I60
I7
I0
S'fast'
p805
I15
tp806
a(I68
I18
F0.625
g716
I15
tp807
a(I74
I11
F0.375
g718
I15
tp808
a(I77
I53
F0.375
S'forcing'
p809
I15
tp810
a(I80
I34
F0.125
S'last'
p811
I15
tp812
a(I86
I14
F0.375
S'new'
p813
I15
tp814
a(I89
I40
F1.0
g693
I15
tp815
a(I89
I92
F0.25
S'original'
p816
I15
tp817
a(I103
I27
F0.25
S'original'
p818
I15
tp819
a(I105
I7
F0.375
S'new'
p820
I15
tp821
a(I107
I25
F1.0
S'good'
p822
I15
tp823
a(I125
I1
I0
S'full'
p824
I15
tp825
a(I146
I16
F0.625
S'replaceable'
p826
I15
tp827
a(I148
I13
F-0.75
g734
I15
tp828
a(I148
I14
F-0.75
g703
I15
tp829
a(I151
I24
I0
S'quick'
p830
I15
tp831
a(I151
I38
I0
S'critical'
p832
I15
tp833
a(I151
I38
F-0.25
S'low'
p834
I15
tp835
a(I151
I38
F-0.25
S'plugged'
p836
I15
tp837
a(I151
I40
F0.375
S'new'
p838
I15
tp839
a(I159
I0
F0.125
S'last'
p840
I15
tp841
a(I159
I5
I0
g705
I15
tp842
a(I167
I5
F0.375
S'new'
p843
I15
tp844
a(I170
I6
I0
S'more'
p845
I15
tp846
a(I170
I7
F0.125
S'last'
p847
I15
tp848
a(I171
I1
F0.125
S'last'
p849
I15
tp850
a(I171
I1
F-0.5
S'long'
p851
I15
tp852
a(I178
I9
F0.125
S'last'
p853
I15
tp854
a(I182
I7
I0
g743
I15
tp855
a(I182
I7
F0.25
g745
I15
tp856
a(I209
I24
F-0.25
S'lower'
p857
I15
tp858
a(I210
I2
I0
S'chinese'
p859
I15
tp860
a(I216
I14
F0.25
S'portable'
p861
I15
tp862
a(I219
I69
F0.125
S'last'
p863
I15
tp864
a(I236
I4
F0.375
S'new'
p865
I15
tp866
a(I243
I0
F0.25
S'original'
p867
I15
tp868
a(I249
I6
F0.25
S'original'
p869
I15
tp870
a(I249
I6
F-0.625
S'bad'
p871
I15
tp872
a(I265
I0
F0.375
S'new'
p873
I15
tp874
a(I265
I81
F1.0
g709
I15
tp875
a(I265
I125
I0
S'more'
p876
I15
tp877
a(I265
I125
F0.375
S'extra'
p878
I15
tp879
a(I267
I9
F-0.75
S'dead'
p880
I15
tp881
a(I267
I10
F0.375
S'new'
p882
I15
tp883
a(I299
I30
F0.375
S'extended'
p884
I15
tp885
a(I304
I44
F0.125
S'last'
p886
I15
tp887
a(I307
I4
I0
S'large'
p888
I15
tp889
a(I307
I4
I0
S'external'
p890
I15
tp891
a(I308
I6
F0.375
S'new'
p892
I15
tp893
a(I311
I3
F0.375
S'new'
p894
I15
tp895
as(S'for'
p896
S'samsung'
p897
S'galaxy'
p898
tp899
(lp900
(I199
I14
F0.125
g302
I0
tp901
a(I265
I48
F0.25
g315
I0
tp902
a(I277
I12
F-0.5
g306
I0
tp903
as(S'venezuela'
p904
S'and'
p905
S'works'
p906
tp907
(lp908
(I6
I3
F1.0
S'good'
p909
I0
tp910
a(I200
I15
I0
S'great'
p911
I0
tp912
a(I6
I3
F1.0
g909
I0
tp913
a(I141
I7
F-0.75
S'little'
p914
I0
tp915
a(I186
I39
F0.625
S'easy'
p916
I0
tp917
as(S'language'
p918
tp919
(lp920
(I15
I41
F0.5
S'obvious'
p921
I3
tp922
a(I19
I19
F-0.5
S'international'
p923
I3
tp924
a(I19
I19
F-0.375
S'manual'
p925
I3
tp926
a(I26
I19
I0
S'french'
p927
I3
tp928
a(I32
I0
F0.125
S'first'
p929
I3
tp930
a(I45
I5
F-0.125
S'foreign'
p931
I3
tp932
a(I45
I5
F0.625
S'polish'
p933
I3
tp934
a(I74
I2
F-0.375
S'simple'
p935
I3
tp936
a(I80
I10
F0.625
S'easy'
p937
I3
tp938
a(I87
I7
I0
S'german'
p939
I3
tp940
a(I89
I9
I0
S'english'
p941
I3
tp942
a(I106
I38
I0
S'german'
p943
I3
tp944
a(I119
I1
F0.25
S'original'
p945
I3
tp946
a(I128
I26
F-0.125
S'foreign'
p947
I3
tp948
a(I129
I3
F-0.75
S'difficult'
p949
I3
tp950
a(I148
I41
F0.125
S'native'
p951
I3
tp952
a(I157
I6
I0
S'different'
p953
I3
tp954
a(I167
I8
I0
S'russian'
p955
I3
tp956
a(I167
I8
F-0.75
S'impossible'
p957
I3
tp958
a(I210
I14
F-0.625
S'other'
p959
I3
tp960
a(I210
I14
F-0.125
S'foreign'
p961
I3
tp962
a(I292
I4
I0
S'french'
p963
I3
tp964
a(I304
I20
I0
S'french'
p965
I3
tp966
a(I304
I20
F-0.375
S'manual'
p967
I3
tp968
a(I305
I29
F0.25
S'main'
p969
I3
tp970
as(S'able'
p971
S'to'
p972
S'use'
p973
tp974
(lp975
(I146
I26
I0
S'standard'
p976
I12
tp977
as(S'data'
p978
tp979
(lp980
(I9
I7
I0
S'mobile'
p981
I13
tp982
a(I70
I33
I0
S'mobile'
p983
I13
tp984
a(I70
I33
F0.375
S'available'
p985
I13
tp986
a(I77
I43
I0
S'mobile'
p987
I13
tp988
a(I89
I34
I0
S'fast'
p989
I13
tp990
a(I126
I3
F1.0
S'better'
p991
I13
tp992
a(I143
I8
F0.625
S'easy'
p993
I13
tp994
a(I151
I25
I0
S'mobile'
p995
I13
tp996
a(I208
I5
F0.875
S'lucky'
p997
I13
tp998
a(I216
I34
I0
S'cable'
p999
I13
tp1000
a(I265
I75
I0
S'fast'
p1001
I13
tp1002
as(S'value'
p1003
S'for'
p1004
S'money'
p1005
tp1006
(lp1007
(I7
I3
I0
S'great'
p1008
I0
tp1009
a(I174
I4
F1.0
S'good'
p1010
I0
tp1011
a(I205
I3
I0
S'great'
p1012
I0
tp1013
a(I245
I7
F1.0
S'good'
p1014
I0
tp1015
a(I292
I26
F1.0
S'best'
p1016
I0
tp1017
as(g241
S'new'
p1018
S'battery'
p1019
tp1020
(lp1021
(I3
I62
F0.375
g778
I1
tp1022
a(I15
I27
F-0.625
g782
I1
tp1023
a(I15
I27
F0.375
g784
I1
tp1024
a(I31
I21
F0.375
g792
I1
tp1025
a(I36
I1
F0.375
g796
I1
tp1026
a(I49
I17
F0.375
g801
I1
tp1027
a(I86
I14
F0.375
g813
I1
tp1028
a(I105
I7
F0.375
g820
I1
tp1029
a(I151
I40
F0.375
g838
I1
tp1030
a(I167
I5
F0.375
g843
I1
tp1031
a(I236
I4
F0.375
g865
I1
tp1032
a(I249
I6
F0.25
g869
I1
tp1033
a(I249
I6
F-0.625
g871
I1
tp1034
a(I265
I0
F0.375
g873
I1
tp1035
a(I267
I10
F0.375
g882
I1
tp1036
a(I308
I6
F0.375
g892
I1
tp1037
a(I311
I3
F0.375
g894
I1
tp1038
as(S'very'
p1039
S'good'
p1040
S'product'
p1041
tp1042
(lp1043
(I3
I51
F1.0
S'good'
p1044
I1
tp1045
a(I180
I0
F1.0
S'good'
p1046
I1
tp1047
a(I183
I22
F1.0
S'good'
p1048
I1
tp1049
a(I288
I0
F1.0
S'good'
p1050
I1
tp1051
a(I304
I30
F1.0
S'good'
p1052
I1
tp1053
as(S'english'
p1054
tp1055
(lp1056
(I98
I10
F-0.375
S'manual'
p1057
I3
tp1058
a(I98
I10
F0.375
S'available'
p1059
I3
tp1060
a(I186
I37
F-0.625
S'bad'
p1061
I3
tp1062
a(I206
I7
F-0.375
S'manual'
p1063
I3
tp1064
a(I299
I20
F-0.625
S'bad'
p1065
I3
tp1066
as(g558
S'mobile'
p1067
S'sim'
p1068
tp1069
(lp1070
(I120
I4
I0
S'great'
p1071
I0
tp1072
a(I199
I15
F0.375
S'new'
p1073
I0
tp1074
a(I245
I7
I0
S'great'
p1075
I0
tp1076
a(I245
I7
F0.625
S'easy'
p1077
I0
tp1078
as(S'wifi'
p1079
tp1080
(lp1081
(I77
I52
F1.0
S'better'
p1082
I0
tp1083
a(I146
I36
F-0.5
S'long'
p1084
I0
tp1085
a(I146
I36
I0
S'telephony'
p1086
I0
tp1087
a(I146
I36
I0
S'signal'
p1088
I0
tp1089
a(I163
I3
I0
S'more'
p1090
I0
tp1091
a(I219
I4
F0.125
S'capable'
p1092
I0
tp1093
a(I219
I45
F1.0
S'good'
p1094
I0
tp1095
as(S'apps'
p1096
tp1097
(lp1098
(I1
I6
I0
S'many'
p1099
I0
tp1100
a(I6
I4
F-0.5
S'certain'
p1101
I0
tp1102
a(I26
I28
F0.375
S'available'
p1103
I0
tp1104
a(I33
I4
I0
S'few'
p1105
I0
tp1106
a(I33
I4
I0
S'many'
p1107
I0
tp1108
a(I33
I8
I0
S'big'
p1109
I0
tp1110
a(I33
I15
F0.125
S'able'
p1111
I0
tp1112
a(I54
I25
F-0.625
S'aneroid'
p1113
I0
tp1114
a(I54
I25
I0
S'many'
p1115
I0
tp1116
a(I54
I25
F1.0
S'good'
p1117
I0
tp1118
a(I54
I25
F-0.625
S'free'
p1119
I0
tp1120
a(I70
I19
I0
S'android'
p1121
I0
tp1122
a(I77
I48
F0.125
S'able'
p1123
I0
tp1124
a(I89
I47
I0
S'downloaded'
p1125
I0
tp1126
a(I89
I56
I0
S'few'
p1127
I0
tp1128
a(I89
I57
I0
S'more'
p1129
I0
tp1130
a(I89
I57
I0
S'later'
p1131
I0
tp1132
a(I104
I5
F0.375
S'available'
p1133
I0
tp1134
a(I118
I15
I0
S'great'
p1135
I0
tp1136
a(I118
I16
F0.625
S'easy'
p1137
I0
tp1138
a(I127
I12
I0
S'many'
p1139
I0
tp1140
a(I127
I12
F-0.625
S'other'
p1141
I0
tp1142
a(I140
I12
F0.875
S'nice'
p1143
I0
tp1144
a(I146
I39
F0.25
S'helpful'
p1145
I0
tp1146
a(I151
I20
I0
S'many'
p1147
I0
tp1148
a(I154
I0
I0
S'android'
p1149
I0
tp1150
a(I159
I22
I0
S'great'
p1151
I0
tp1152
a(I199
I18
I0
S'least'
p1153
I0
tp1154
a(I216
I6
I0
S'many'
p1155
I0
tp1156
a(I226
I3
F-0.375
S'smaller'
p1157
I0
tp1158
a(I242
I16
I0
S'more'
p1159
I0
tp1160
a(I265
I22
I0
S'great'
p1161
I0
tp1162
a(I265
I88
I0
S'downloaded'
p1163
I0
tp1164
a(I265
I97
I0
S'few'
p1165
I0
tp1166
a(I265
I98
I0
S'more'
p1167
I0
tp1168
a(I265
I98
I0
S'later'
p1169
I0
tp1170
a(I266
I19
I0
S'different'
p1171
I0
tp1172
a(I302
I25
F0.625
S'interested'
p1173
I0
tp1174
a(I302
I25
F-0.625
S'other'
p1175
I0
tp1176
a(I304
I57
F0.625
S'easy'
p1177
I0
tp1178
a(I305
I7
F-0.125
S'complex'
p1179
I0
tp1180
a(I305
I10
F-0.25
S'google'
p1181
I0
tp1182
a(I305
I59
F0.375
S'new'
p1183
I0
tp1184
a(I307
I1
F-0.625
S'other'
p1185
I0
tp1186
as(S'internal'
p1187
S'memory'
p1188
tp1189
(lp1190
(I9
I12
I0
S'internal'
p1191
I0
tp1192
a(I73
I21
I0
S'more'
p1193
I0
tp1194
a(I73
I21
I0
S'internal'
p1195
I0
tp1196
a(I81
I43
F0.25
S'larger'
p1197
I0
tp1198
a(I81
I43
I0
S'internal'
p1199
I0
tp1200
a(I105
I18
I0
S'internal'
p1201
I0
tp1202
a(I151
I26
I0
S'internal'
p1203
I0
tp1204
a(I165
I10
I0
S'internal'
p1205
I0
tp1206
a(I199
I14
I0
S'internal'
p1207
I0
tp1208
a(I199
I20
F-0.5
S'sure'
p1209
I0
tp1210
a(I199
I20
I0
S'internal'
p1211
I0
tp1212
a(I199
I20
F0.375
S'available'
p1213
I0
tp1214
a(I202
I1
I0
S'internal'
p1215
I0
tp1216
a(I238
I2
I0
S'internal'
p1217
I0
tp1218
a(I9
I12
I0
g1191
I5
tp1219
a(I33
I8
I0
S'full'
p1220
I5
tp1221
a(I73
I21
I0
g1193
I5
tp1222
a(I73
I21
I0
g1195
I5
tp1223
a(I80
I19
I0
S'gigabyte'
p1224
I5
tp1225
a(I81
I43
F0.25
g1197
I5
tp1226
a(I81
I43
I0
g1199
I5
tp1227
a(I82
I10
F0.375
S'much'
p1228
I5
tp1229
a(I82
I13
I0
S'least'
p1230
I5
tp1231
a(I82
I13
F-0.25
S'cheaper'
p1232
I5
tp1233
a(I82
I13
I0
S'more'
p1234
I5
tp1235
a(I82
I13
I0
S'more'
p1236
I5
tp1237
a(I104
I7
I0
S'big'
p1238
I5
tp1239
a(I105
I18
I0
g1201
I5
tp1240
a(I122
I32
F0.375
S'extra'
p1241
I5
tp1242
a(I151
I26
I0
g1203
I5
tp1243
a(I152
I19
I0
S'old'
p1244
I5
tp1245
a(I165
I10
I0
g1205
I5
tp1246
a(I199
I14
I0
g1207
I5
tp1247
a(I199
I20
F-0.5
g1209
I5
tp1248
a(I199
I20
I0
g1211
I5
tp1249
a(I199
I20
F0.375
g1213
I5
tp1250
a(I202
I1
I0
g1215
I5
tp1251
a(I205
I13
I0
S'external'
p1252
I5
tp1253
a(I238
I2
I0
g1217
I5
tp1254
a(I254
I3
F-0.375
S'small'
p1255
I5
tp1256
as(S'galaxy'
p1257
S's3'
p1258
S'mini'
p1259
tp1260
(lp1261
(I122
I10
I0
S'full'
p1262
I0
tp1263
a(I170
I10
I0
g322
I0
tp1264
a(I185
I18
F-0.375
g324
I0
tp1265
a(I185
I18
I0
S'large'
p1266
I0
tp1267
a(I265
I46
F-0.625
g333
I0
tp1268
a(I292
I21
F0.625
g337
I0
tp1269
a(I292
I21
F0.375
S'reliable'
p1270
I0
tp1271
as(S'samsung'
p1272
S's3'
p1273
S'mini'
p1274
tp1275
(lp1276
(I199
I14
F0.125
g302
I0
tp1277
a(I70
I35
F0.875
S'happy'
p1278
I0
tp1279
a(I81
I30
F0.125
S'popular'
p1280
I0
tp1281
a(I89
I28
I0
S'full'
p1282
I0
tp1283
a(I89
I28
I0
S'sized'
p1284
I0
tp1285
a(I89
I29
F1.0
S'good'
p1286
I0
tp1287
a(I118
I23
F0.875
S'nice'
p1288
I0
tp1289
a(I122
I10
I0
g1262
I0
tp1290
a(I151
I4
F-0.625
S'glad'
p1291
I0
tp1292
a(I151
I57
F-0.75
S'likely'
p1293
I0
tp1294
a(I185
I18
F-0.375
g324
I0
tp1295
a(I185
I18
I0
g1266
I0
tp1296
a(I199
I18
F0.25
S'original'
p1297
I0
tp1298
a(I256
I8
F0.375
S'new'
p1299
I0
tp1300
a(I265
I45
F0.25
S'original'
p1301
I0
tp1302
a(I265
I46
F-0.625
g333
I0
tp1303
a(I265
I67
F0.5
S'possible'
p1304
I0
tp1305
a(I265
I69
I0
S'full'
p1306
I0
tp1307
a(I265
I69
I0
S'sized'
p1308
I0
tp1309
a(I265
I70
F1.0
S'good'
p1310
I0
tp1311
a(I278
I19
I0
S'more'
p1312
I0
tp1313
a(I292
I21
F0.625
g337
I0
tp1314
a(I292
I21
F0.375
g1270
I0
tp1315
a(I3
I59
F-0.625
S'other'
p1316
I7
tp1317
a(I28
I0
F0.375
S'new'
p1318
I7
tp1319
a(I29
I18
F0.25
S'original'
p1320
I7
tp1321
a(I33
I26
I0
g308
I7
tp1322
a(I36
I8
I0
S'great'
p1323
I7
tp1324
a(I42
I4
F0.375
S'much'
p1325
I7
tp1326
a(I49
I18
F0.125
S'first'
p1327
I7
tp1328
a(I54
I5
I0
S'particular'
p1329
I7
tp1330
a(I70
I29
F-0.375
S'manual'
p1331
I7
tp1332
a(I73
I19
I0
S'different'
p1333
I7
tp1334
a(I73
I20
F0.25
g310
I7
tp1335
a(I81
I10
F0.5
S'known'
p1336
I7
tp1337
a(I89
I18
F-0.625
S'bad'
p1338
I7
tp1339
a(I106
I5
I0
S'great'
p1340
I7
tp1341
a(I127
I6
I-100
S'acceptable.-'
p1342
I7
tp1343
a(I159
I14
F0.25
S'original'
p1344
I7
tp1345
a(I159
I16
F0.25
S'original'
p1346
I7
tp1347
a(I169
I5
I0
S'great'
p1348
I7
tp1349
a(I199
I14
F0.125
g302
I7
tp1350
a(I212
I6
I0
S'reconsider'
p1351
I7
tp1352
a(I235
I14
F0.25
S'original'
p1353
I7
tp1354
a(I240
I36
I0
S'great'
p1355
I7
tp1356
a(I240
I36
F1.0
S'best'
p1357
I7
tp1358
a(I244
I0
F0.625
S'easy'
p1359
I7
tp1360
a(I252
I1
F-0.75
S'unable'
p1361
I7
tp1362
a(I255
I0
F0.875
g313
I7
tp1363
a(I265
I48
F0.25
g315
I7
tp1364
a(I277
I12
F-0.5
g306
I7
tp1365
a(I281
I6
I0
S'unnecessary'
p1366
I7
tp1367
a(I292
I9
F0.25
S'larger'
p1368
I7
tp1369
a(I302
I8
F0.25
S'original'
p1370
I7
tp1371
a(I302
I24
F0.25
S'bigger'
p1372
I7
tp1373
a(I304
I9
F0.5
S'second'
p1374
I7
tp1375
a(I305
I7
F1.0
S'better'
p1376
I7
tp1377
a(I305
I7
F0.125
S'native'
p1378
I7
tp1379
a(I305
I10
F0.125
S'native'
p1380
I7
tp1381
a(I305
I11
F0.125
S'native'
p1382
I7
tp1383
a(I307
I5
I0
S'user'
p1384
I7
tp1385
a(I307
I6
F0.375
S'available'
p1386
I7
tp1387
a(I307
I6
I0
S'website'
p1388
I7
tp1389
a(I89
I29
F1.0
g1286
I13
tp1390
a(I89
I35
F-0.625
S'free'
p1391
I13
tp1392
a(I114
I0
I0
S'great'
p1393
I13
tp1394
a(I118
I23
F0.875
g1288
I13
tp1395
a(I122
I10
I0
g1262
I13
tp1396
a(I128
I19
F-0.5
S'regular'
p1397
I13
tp1398
a(I129
I9
F1.0
S'best'
p1399
I13
tp1400
a(I151
I4
F-0.625
g1291
I13
tp1401
a(I167
I8
I0
S'many'
p1402
I13
tp1403
a(I185
I14
F0.625
S'perfect'
p1404
I13
tp1405
a(I185
I15
I0
S'more'
p1406
I13
tp1407
a(I185
I15
I0
S'adequate'
p1408
I13
tp1409
a(I185
I16
F0.625
S'noticeable'
p1410
I13
tp1411
a(I185
I18
I0
g1266
I13
tp1412
a(I265
I48
I0
S'chinese'
p1413
I13
tp1414
a(I265
I70
F1.0
g1310
I13
tp1415
a(I265
I76
F-0.625
S'free'
p1416
I13
tp1417
a(I278
I19
I0
g1312
I13
tp1418
a(I292
I21
F0.375
g1270
I13
tp1419
a(I304
I16
F1.0
S'good'
p1420
I13
tp1421
as.