(dp0
(S'battery'
p1
S'life'
p2
tp3
(lp4
(I3
I18
F1.0
S'good'
p5
I1
tp6
a(I3
I18
F-0.375
S'small'
p7
I1
tp8
a(I3
I18
I0
S'lightweight'
p9
I1
tp10
a(I5
I99
F0.5
S'comparable'
p11
I1
tp12
a(I5
I111
F0.125
S'last'
p13
I1
tp14
a(I5
I111
F-0.5
S'long'
p15
I1
tp16
a(I13
I8
F1.0
S'good'
p17
I1
tp18
a(I13
I30
I0
S'great'
p19
I1
tp20
a(I18
I34
F-0.5
S'long'
p21
I1
tp22
a(I18
I34
I0
S'quick'
p23
I1
tp24
a(I20
I0
F1.0
S'good'
p25
I1
tp26
a(I20
I3
F1.0
S'good'
p27
I1
tp28
a(I20
I3
I0
S'entire'
p29
I1
tp30
a(I20
I3
F0.75
S'due'
p31
I1
tp32
a(I22
I103
F-0.5
S'poor'
p33
I1
tp34
a(I23
I8
F1.0
S'good'
p35
I1
tp36
a(I3
I18
F-0.375
g7
I19
tp37
a(I3
I18
I0
g9
I19
tp38
a(I5
I111
F0.125
g13
I19
tp39
a(I5
I111
F-0.5
g15
I19
tp40
a(I13
I8
F1.0
g17
I19
tp41
a(I18
I34
I0
g23
I19
tp42
a(I22
I103
F-0.5
g33
I19
tp43
a(I23
I8
F1.0
g35
I19
tp44
a(I3
I18
F1.0
g5
I15
tp45
a(I5
I54
F0.125
S'last'
p46
I15
tp47
a(I5
I99
F0.5
g11
I15
tp48
a(I13
I30
I0
g19
I15
tp49
a(I18
I34
F-0.5
g21
I15
tp50
a(I20
I0
F1.0
g25
I15
tp51
a(I20
I3
F1.0
g27
I15
tp52
a(I20
I3
I0
g29
I15
tp53
a(I20
I3
F0.75
g31
I15
tp54
a(I22
I31
I0
S'quick'
p55
I15
tp56
a(I30
I9
F1.0
S'good'
p57
I15
tp58
as(S'a'
p59
S'data'
p60
S'plan'
p61
tp62
(lp63
(I5
I82
I0
S'monthly'
p64
I0
tp65
a(I13
I52
F-0.125
S'rip-off'
p66
I0
tp67
a(I21
I4
F0.875
S'happy'
p68
I0
tp69
a(I40
I19
I0
S'monthly'
p70
I0
tp71
a(I5
I82
I0
g64
I0
tp72
a(I13
I52
F-0.125
g66
I0
tp73
a(I21
I4
F0.875
g68
I0
tp74
a(I40
I19
I0
g70
I0
tp75
a(I0
I1
F-0.5
S'sure'
p76
I13
tp77
a(I0
I1
F0.5
S'clear'
p78
I13
tp79
a(I6
I15
F-0.625
S'free'
p80
I13
tp81
a(I11
I12
I0
S'mobile'
p82
I13
tp83
a(I11
I14
F-0.5
S'heavy'
p84
I13
tp85
a(I11
I14
F-0.125
S'slow'
p86
I13
tp87
a(I13
I19
I0
S'monthly'
p88
I13
tp89
a(I13
I52
F-0.125
g66
I13
tp90
a(I20
I7
F0.375
S'extra'
p91
I13
tp92
a(I21
I4
F0.875
g68
I13
tp93
a(I22
I41
F0.125
S'first'
p94
I13
tp95
a(I22
I80
I0
S'monthly'
p96
I13
tp97
a(I22
I80
F-0.5
S'unlimited'
p98
I13
tp99
a(I36
I29
F0.375
S'enable'
p100
I13
tp101
a(I36
I33
F-0.25
S'higher'
p102
I13
tp103
a(I40
I19
I0
g70
I13
tp104
as(S'texting'
p105
tp106
(lp107
(I18
I14
F0.625
S'easy'
p108
I0
tp109
a(I18
I19
F-0.5
S'heavy'
p110
I0
tp111
a(I23
I30
F-0.75
S'little'
p112
I0
tp113
as(S'text'
p114
tp115
(lp116
(I5
I63
I0
S'basic'
p117
I18
tp118
a(I15
I8
F-0.5
S'call'
p119
I18
tp120
a(I42
I11
I0
S'such'
p121
I18
tp122
as(S'service'
p123
tp124
(lp125
(I5
I14
F-0.875
S'trouble'
p126
I16
tp127
a(I5
I14
I0
S'monthly'
p128
I16
tp129
a(I11
I5
F1.0
S'good'
p130
I16
tp131
a(I16
I2
I0
S'great'
p132
I16
tp133
a(I39
I28
F1.0
S'good'
p134
I16
tp135
as(S'gophone'
p136
tp137
(lp138
(I2
I20
F-0.25
S'lower'
p139
I0
tp140
a(I5
I98
F0.5
S'expensive'
p141
I0
tp142
a(I5
I98
F-0.625
S'other'
p143
I0
tp144
a(I18
I25
F1.0
S'better'
p145
I0
tp146
as(S'camera'
p147
tp148
(lp149
(I4
I25
F-0.625
S'average'
p150
I1
tp151
a(I5
I97
F0.375
S'much'
p152
I1
tp153
a(I5
I97
I0
S'great'
p154
I1
tp155
a(I10
I6
F1.0
S'better'
p156
I1
tp157
a(I11
I60
F1.0
S'good'
p158
I1
tp159
a(I15
I16
F-0.625
S'average'
p160
I1
tp161
a(I22
I46
F0.625
S'perfect'
p162
I1
tp163
a(I26
I9
F0.375
S'new'
p164
I1
tp165
a(I26
I19
F0.75
S'beautiful'
p166
I1
tp167
as(S'works'
p168
S'just'
p169
S'fine'
p170
tp171
(lp172
(I1
I21
F-0.5
S'longer'
p173
I4
tp174
as(S'iphone'
p175
tp176
(lp177
(I4
I57
I0
S'unfair'
p178
I1
tp179
a(I5
I77
F-0.5
S'heavier'
p180
I1
tp181
a(I5
I89
F0.375
S'new'
p182
I1
tp183
a(I21
I9
F-0.125
S'complicated'
p184
I1
tp185
a(I26
I39
I0
S'next'
p186
I1
tp187
a(I27
I25
I0
S'android'
p188
I1
tp189
a(I38
I35
F-0.875
S'hard'
p190
I1
tp191
as(S'high'
p192
S'end'
p193
tp194
(lp195
(I4
I55
F-0.625
S'other'
p196
I0
tp197
a(I4
I58
I0
S'high'
p198
I0
tp199
a(I4
I58
I0
S'high'
p200
I0
tp201
as(S'internet'
p202
tp203
(lp204
(I22
I32
F0.375
S'much'
p205
I6
tp206
a(I25
I4
I0
S'latest'
p207
I6
tp208
a(I25
I4
F0.25
S'favorite'
p209
I6
tp210
as(S'good'
p211
S'price'
p212
tp213
(lp214
(I4
I20
F-0.25
S'low'
p215
I14
tp216
a(I6
I56
F0.5
S'reasonable'
p217
I14
tp218
a(I23
I12
F0.625
S'easy'
p219
I14
tp220
a(I23
I12
F1.0
S'good'
p221
I14
tp222
a(I32
I0
F1.0
S'good'
p223
I14
tp224
a(I34
I2
F1.0
S'good'
p225
I14
tp226
a(I34
I2
I0
S'more'
p227
I14
tp228
a(I39
I44
F1.0
S'good'
p229
I14
tp230
as(S'button'
p231
tp232
(lp233
(I5
I32
I-100
S'vain'
p234
I19
tp235
a(I42
I9
F-0.75
S'wrong'
p236
I19
tp237
as(S'operating'
p238
S'system'
p239
tp240
(lp241
(I18
I68
I0
S'android'
p242
I2
tp243
a(I18
I68
F0.5
S'advanced'
p244
I2
tp245
as(g59
S'great'
p246
S'price'
p247
tp248
(lp249
(I6
I31
F0.5
S'reasonable'
p250
I9
tp251
a(I6
I87
I0
S'great'
p252
I9
tp253
a(I11
I107
I0
S'great'
p254
I9
tp255
a(I13
I34
I0
S'great'
p256
I9
tp257
a(I13
I34
F0.625
S'easy'
p258
I9
tp259
a(I14
I23
I0
S'great'
p260
I9
tp261
a(I22
I5
I0
S'great'
p262
I9
tp263
a(I22
I18
I0
S'great'
p264
I9
tp265
a(I22
I33
I0
S'great'
p266
I9
tp267
a(I34
I0
F0.625
S'easy'
p268
I9
tp269
a(I34
I2
F1.0
g225
I9
tp270
a(I34
I2
I0
g227
I9
tp271
a(I35
I13
I0
S'great'
p272
I9
tp273
a(I37
I25
I0
S'great'
p274
I9
tp275
a(I39
I21
I0
S'great'
p276
I9
tp277
a(I40
I13
I0
S'great'
p278
I9
tp279
a(I40
I13
F-0.75
S'wrong'
p280
I9
tp281
a(I40
I20
I0
S'great'
p282
I9
tp283
a(I6
I31
F0.5
g250
I19
tp284
a(I6
I87
I0
g252
I19
tp285
a(I11
I107
I0
g254
I19
tp286
a(I13
I34
I0
g256
I19
tp287
a(I13
I34
F0.625
g258
I19
tp288
a(I14
I23
I0
g260
I19
tp289
a(I22
I5
I0
g262
I19
tp290
a(I22
I18
I0
g264
I19
tp291
a(I22
I33
I0
g266
I19
tp292
a(I34
I0
F0.625
g268
I19
tp293
a(I34
I2
F1.0
g225
I19
tp294
a(I34
I2
I0
g227
I19
tp295
a(I35
I13
I0
g272
I19
tp296
a(I37
I25
I0
g274
I19
tp297
a(I39
I21
I0
g276
I19
tp298
a(I40
I13
I0
g278
I19
tp299
a(I40
I13
F-0.75
g280
I19
tp300
a(I40
I20
I0
g282
I19
tp301
as(S'sd'
p302
S'card'
p303
tp304
(lp305
(I6
I39
F0.375
S'new'
p306
I0
tp307
a(I24
I11
F0.5
S'upgraded'
p308
I0
tp309
a(I26
I44
I0
S'external'
p310
I0
tp311
as(S'contract'
p312
tp313
(lp314
(I16
I12
F0.125
S'able'
p315
I0
tp316
a(I22
I22
F-0.5
S'long'
p317
I0
tp318
a(I22
I22
F0.5
S'expensive'
p319
I0
tp320
a(I40
I1
I0
S'two-year'
p321
I0
tp322
as(S'android'
p323
tp324
(lp325
(I4
I17
F1.0
S'good'
p326
I0
tp327
a(I5
I1
F0.125
S'first'
p328
I0
tp329
a(I11
I93
F0.125
S'first'
p330
I0
tp331
a(I13
I18
F1.0
S'good'
p332
I0
tp333
a(I18
I28
I0
S'many'
p334
I0
tp335
a(I22
I106
F0.125
S'first'
p336
I0
tp337
a(I22
I106
F0.625
S'easy'
p338
I0
tp339
a(I26
I0
F-0.125
S'opposite'
p340
I0
tp341
a(I30
I7
F0.125
S'first'
p342
I0
tp343
a(I30
I7
I0
S'different'
p344
I0
tp345
a(I36
I9
F-0.25
S'inexpensive'
p346
I0
tp347
a(I36
I14
I0
S'great'
p348
I0
tp349
as(S'amazon'
p350
tp351
(lp352
(I5
I76
F-0.625
S'free'
p353
I13
tp354
a(I7
I20
I0
S'arrive'
p355
I13
tp356
a(I11
I110
I0
S'most'
p357
I13
tp358
a(I11
I110
F-0.125
S'mine'
p359
I13
tp360
as(S'smart'
p361
tp362
(lp363
(I17
I3
F-0.625
S'bad'
p364
I10
tp365
a(I17
I3
F0.125
S'first'
p366
I10
tp367
a(I22
I11
I0
S'more'
p368
I10
tp369
a(I22
I18
F0.125
S'first'
p370
I10
tp371
a(I22
I20
F0.875
S'nice'
p372
I10
tp373
a(I22
I20
F-0.25
S'inexpensive'
p374
I10
tp375
a(I22
I31
F-0.625
S'other'
p376
I10
tp377
a(I23
I33
F0.125
S'first'
p378
I10
tp379
a(I26
I59
F0.875
S'music'
p380
I10
tp381
a(I26
I59
F-0.625
S'other'
p382
I10
tp383
a(I27
I15
F0.125
S'first'
p384
I10
tp385
a(I30
I24
F0.125
S'first'
p386
I10
tp387
a(I38
I36
F0.125
S'practical'
p388
I10
tp389
a(I39
I24
I0
S'great'
p390
I10
tp391
a(I39
I24
F-0.75
S'little'
p392
I10
tp393
a(I42
I16
F0.125
S'first'
p394
I10
tp395
as(S'straight'
p396
S'talk'
p397
S'sim'
p398
tp399
(lp400
(I2
I4
F0.5
S'compatible'
p401
I0
tp402
a(I2
I52
F0.625
S'straight'
p403
I0
tp404
a(I35
I11
F0.625
S'straight'
p405
I0
tp406
a(I36
I42
F0.625
S'straight'
p407
I0
tp408
a(I2
I4
F0.5
g401
I0
tp409
a(I2
I52
F0.625
g403
I0
tp410
a(I35
I11
F0.625
g405
I0
tp411
a(I36
I42
F0.625
g407
I0
tp412
a(I36
I43
F0.625
S'straight'
p413
I0
tp414
a(I2
I52
F0.625
g403
I13
tp415
a(I21
I6
F-0.5
S'unlimited'
p416
I13
tp417
a(I35
I11
F0.625
g405
I13
tp418
a(I36
I42
F0.625
g407
I13
tp419
a(I36
I43
F0.625
g413
I13
tp420
as(S'samsung'
p421
S'galaxy'
p422
tp423
(lp424
(I23
I61
I0
S'old'
p425
I0
tp426
as(S'calls'
p427
tp428
(lp429
(I2
I2
F0.5
S'clear'
p430
I0
tp431
a(I2
I3
F0.125
S'able'
p432
I0
tp433
a(I18
I24
F0.5
S'clear'
p434
I0
tp435
a(I22
I70
I0
S'many'
p436
I0
tp437
a(I23
I0
F0.5
S'clear'
p438
I0
tp439
a(I23
I40
I0
S'text'
p440
I0
tp441
as(S'old'
p442
S'sim'
p443
S'card'
p444
tp445
(lp446
(I3
I11
I0
S'old'
p447
I0
tp448
a(I4
I51
I0
S'old'
p449
I0
tp450
a(I6
I59
I0
S'old'
p451
I0
tp452
a(I24
I19
F0.625
S'necessary'
p453
I0
tp454
a(I24
I19
I0
S'old'
p455
I0
tp456
a(I40
I5
I0
S'old'
p457
I0
tp458
a(I40
I5
F-0.5
S'regular'
p459
I0
tp460
a(I2
I5
F-0.667
S'incompatible'
p461
I0
tp462
a(I3
I8
F0.375
S'new'
p463
I0
tp464
a(I3
I11
I0
g447
I0
tp465
a(I4
I51
I0
g449
I0
tp466
a(I6
I30
I0
S'overseas'
p467
I0
tp468
a(I6
I59
I0
g451
I0
tp469
a(I24
I19
F0.625
g453
I0
tp470
a(I24
I19
I0
g455
I0
tp471
a(I27
I22
I0
S'own'
p472
I0
tp473
a(I27
I23
F0.375
S'new'
p474
I0
tp475
a(I40
I5
I0
g457
I0
tp476
a(I40
I5
F-0.5
g459
I0
tp477
a(I42
I20
F1.0
S'good'
p478
I0
tp479
as(g59
S'month'
p480
S'plan'
p481
tp482
(lp483
(I5
I2
I0
S'standard'
p484
I0
tp485
a(I5
I2
I0
S'monthly'
p486
I0
tp487
a(I5
I82
I0
g64
I0
tp488
a(I5
I85
F1.0
S'good'
p489
I0
tp490
a(I15
I18
F0.625
S'perfect'
p491
I0
tp492
a(I15
I18
F-0.625
S'other'
p493
I0
tp494
a(I31
I16
F-0.375
S'top'
p495
I0
tp496
as(S'smartphone'
p497
tp498
(lp499
(I4
I20
I0
S'high'
p500
I0
tp501
a(I4
I20
F-0.25
S'low'
p502
I0
tp503
a(I4
I20
F1.0
S'good'
p504
I0
tp505
a(I4
I57
F-0.625
S'other'
p506
I0
tp507
a(I5
I20
F0.125
S'first'
p508
I0
tp509
a(I10
I2
I0
S'economical'
p510
I0
tp511
a(I15
I7
F0.125
S'first'
p512
I0
tp513
a(I15
I7
F0.125
S'impressive'
p514
I0
tp515
a(I15
I23
F0.375
S'new'
p516
I0
tp517
a(I23
I37
F1.0
S'best'
p518
I0
tp519
a(I37
I7
F1.0
S'best'
p520
I0
tp521
a(I40
I0
F0.125
S'solid'
p522
I0
tp523
a(I40
I0
F-0.25
S'inexpensive'
p524
I0
tp525
a(I40
I4
I0
S'basic'
p526
I0
tp527
a(I40
I11
F0.125
S'solid'
p528
I0
tp529
a(I40
I11
I0
S'basic'
p530
I0
tp531
a(I40
I19
F1.0
S'good'
p532
I0
tp533
as(g59
S'sim'
p534
S'card'
p535
tp536
(lp537
(I2
I5
F-0.667
g461
I0
tp538
a(I3
I8
F0.375
g463
I0
tp539
a(I3
I11
I0
g447
I0
tp540
a(I4
I51
I0
g449
I0
tp541
a(I6
I30
I0
g467
I0
tp542
a(I6
I59
I0
g451
I0
tp543
a(I24
I19
F0.625
g453
I0
tp544
a(I24
I19
I0
g455
I0
tp545
a(I27
I22
I0
g472
I0
tp546
a(I27
I23
F0.375
g474
I0
tp547
a(I40
I5
I0
g457
I0
tp548
a(I40
I5
F-0.5
g459
I0
tp549
a(I42
I20
F1.0
g478
I0
tp550
as(S'wifi'
p551
tp552
(lp553
(I6
I61
I0
S'great'
p554
I0
tp555
a(I6
I86
F0.125
S'able'
p556
I0
tp557
a(I18
I61
F-0.625
S'free'
p558
I0
tp559
a(I31
I11
F0.375
S'available'
p560
I0
tp561
a(I35
I3
F1.0
S'good'
p562
I0
tp563
a(I36
I18
F1.0
S'good'
p564
I0
tp565
as(S'exact'
p566
S'same'
p567
tp568
(lp569
(I1
I21
I0
S'exact'
p570
I2
tp571
a(I13
I26
I0
S'exact'
p572
I2
tp573
a(I27
I16
I0
S'exact'
p574
I2
tp575
a(I36
I27
I0
S'exact'
p576
I2
tp577
as(S'apps'
p578
tp579
(lp580
(I0
I1
F-0.625
S'other'
p581
I0
tp582
a(I1
I7
I0
S'most'
p583
I0
tp584
a(I3
I12
I0
S'many'
p585
I0
tp586
a(I4
I7
F0.25
S'powerful'
p587
I0
tp588
a(I5
I29
F-0.625
S'other'
p589
I0
tp590
a(I5
I79
I0
S'great'
p591
I0
tp592
a(I5
I88
F0.625
S'easy'
p593
I0
tp594
a(I6
I4
I0
S'cool'
p595
I0
tp596
a(I6
I43
I0
S'many'
p597
I0
tp598
a(I6
I46
F-0.5
S'sure'
p599
I0
tp600
a(I11
I79
F-0.625
S'other'
p601
I0
tp602
a(I11
I83
F-0.5
S'open'
p603
I0
tp604
a(I18
I16
I0
S'many'
p605
I0
tp606
a(I18
I28
F0.375
S'available'
p607
I0
tp608
a(I18
I70
F0.25
S'responsive'
p609
I0
tp610
a(I21
I7
F0.375
S'new'
p611
I0
tp612
a(I23
I16
F0.625
S'easy'
p613
I0
tp614
a(I23
I16
F0.625
S'easy'
p615
I0
tp616
a(I23
I36
F-0.5
S'sudden'
p617
I0
tp618
a(I26
I37
I0
S'most'
p619
I0
tp620
as(S'live'
p621
S'wallpapers'
p622
tp623
(lp624
(I5
I62
F0.125
S'able'
p625
I0
tp626
a(I5
I62
F0.5
S'live'
p627
I0
tp628
as(S'fusion'
p629
tp630
(lp631
(I5
I46
I0
S'most'
p632
I0
tp633
a(I14
I21
F1.0
S'good'
p634
I0
tp635
a(I23
I4
F0.625
S'perfect'
p636
I0
tp637
a(I30
I4
F0.5
S'back'
p638
I0
tp639
a(I36
I27
F-0.625
S'other'
p640
I0
tp641
a(I39
I4
I0
S'old'
p642
I0
tp643
as(S'touch'
p644
S'screen'
p645
tp646
(lp647
(I4
I36
F0.5
S'touch'
p648
I2
tp649
a(I6
I13
F0.125
S'first'
p650
I2
tp651
a(I15
I27
I0
S'fast'
p652
I2
tp653
a(I15
I27
F0.875
S'nice'
p654
I2
tp655
a(I18
I47
F0.5
S'touch'
p656
I2
tp657
a(I20
I0
F0.25
S'responsive'
p658
I2
tp659
as.