(dp0
(S'android'
p1
tp2
(lp3
(I6
I73
F0.875
S'happy'
p4
I0
tp5
a(I8
I14
F0.125
S'first'
p6
I0
tp7
a(I8
I14
F0.875
S'nice'
p8
I0
tp9
as(S'straight'
p10
S'talk'
p11
tp12
(lp13
(I1
I33
F0.625
S'straight'
p14
I0
tp15
a(I2
I27
F0.5
S'satisfactory'
p16
I0
tp17
a(I2
I48
F-0.625
S'free'
p18
I0
tp19
a(I2
I48
F0.625
S'straight'
p20
I0
tp21
a(I2
I48
I0
S'website'
p22
I0
tp23
a(I6
I65
F1.0
S'best'
p24
I0
tp25
a(I9
I75
F-0.25
S'direct'
p26
I0
tp27
a(I11
I13
F-0.625
S'sorry'
p28
I0
tp29
a(I1
I33
F0.625
g14
I13
tp30
a(I2
I27
F0.5
g16
I13
tp31
a(I2
I48
F-0.625
g18
I13
tp32
a(I2
I48
F0.625
g20
I13
tp33
a(I2
I48
I0
g22
I13
tp34
a(I11
I13
F-0.625
g28
I13
tp35
a(I6
I65
F1.0
g24
I17
tp36
a(I9
I75
F-0.25
g26
I17
tp37
as(S'battery'
p38
S'life'
p39
tp40
(lp41
(I2
I4
F0.125
S'last'
p42
I1
tp43
a(I4
I9
F-0.75
S'shortest'
p44
I1
tp45
a(I5
I23
I0
S'full'
p46
I1
tp47
a(I5
I25
F0.125
S'able'
p48
I1
tp49
a(I6
I25
F-0.25
S'low'
p50
I1
tp51
a(I9
I112
F0.125
S'last'
p52
I1
tp53
a(I2
I4
F0.125
g42
I19
tp54
a(I5
I25
F0.125
g48
I19
tp55
a(I6
I25
F-0.25
g50
I19
tp56
a(I9
I112
F0.125
g52
I19
tp57
a(I3
I4
I0
S'quick'
p58
I15
tp59
a(I3
I15
I0
S'faster'
p60
I15
tp61
a(I4
I9
F-0.75
g44
I15
tp62
a(I4
I10
I0
S'hot'
p63
I15
tp64
a(I4
I10
F0.5
S'touch'
p65
I15
tp66
a(I4
I10
I0
S'full'
p67
I15
tp68
a(I4
I14
I0
S'hot'
p69
I15
tp70
a(I4
I14
F0.125
S'last'
p71
I15
tp72
a(I4
I14
F-0.5
S'long'
p73
I15
tp74
a(I5
I23
I0
g46
I15
tp75
a(I6
I60
F-0.625
S'bad'
p76
I15
tp77
as(S'few'
p78
S'minutes'
p79
tp80
(lp81
(I6
I22
I0
S'few'
p82
I3
tp83
a(I9
I102
I0
S'few'
p84
I3
tp85
a(I10
I1
I0
S'few'
p86
I3
tp87
as(S'customer'
p88
S'service'
p89
tp90
(lp91
(I11
I9
F-0.625
S'sorry'
p92
I3
tp93
a(I3
I34
I0
S'normal'
p94
I16
tp95
a(I3
I34
F-0.5
S'unlimited'
p96
I16
tp97
a(I11
I9
F-0.625
g92
I16
tp98
as(S'sim'
p99
S'card'
p100
tp101
(lp102
(I11
I11
F0.375
S'new'
p103
I0
tp104
as(S'network'
p105
tp106
(lp107
(I6
I114
I0
S'bandwidth'
p108
I0
tp109
as(S'future'
p110
S'phones'
p111
tp112
(lp113
(I8
I5
F-0.125
S'future'
p114
I0
tp115
a(I8
I11
F-0.125
S'future'
p116
I0
tp117
a(I8
I11
F-0.125
S'future'
p118
I0
tp119
as(S'apps'
p120
tp121
(lp122
(I1
I24
I0
S'more'
p123
I0
tp124
a(I9
I17
I0
S'most'
p125
I0
tp126
a(I9
I28
F-0.625
S'other'
p127
I0
tp128
as(S'few'
p129
S'days'
p130
tp131
(lp132
(I6
I98
I0
S'few'
p133
I10
tp134
a(I6
I102
I0
S'few'
p135
I10
tp136
a(I9
I14
I0
S'few'
p137
I10
tp138
as(S'touch'
p139
S'screen'
p140
tp141
(lp142
(I3
I6
F0.625
S'perfect'
p143
I2
tp144
a(I3
I6
F0.5
S'touch'
p145
I2
tp146
as.