(dp0
(S'tracphone'
p1
tp2
(lp3
(I1
I40
I0
S'old'
p4
I0
tp5
a(I1
I49
I0
S'same'
p6
I0
tp7
as(S'battery'
p8
S'life'
p9
tp10
(lp11
(I2
I44
I0
S'incredible'
p12
I1
tp13
a(I2
I44
I0
g12
I19
tp14
a(I9
I31
F1.0
S'good'
p15
I19
tp16
a(I9
I27
I0
S'full'
p17
I15
tp18
as(S'email'
p19
tp20
(lp21
(I10
I77
F0.875
S'happy'
p22
I5
tp23
as(S'triple'
p24
S'minutes'
p25
tp26
(lp27
(I4
I24
I0
S'great'
p28
I0
tp29
a(I10
I8
I0
S'great'
p30
I0
tp31
a(I10
I54
F-0.25
S'triple'
p32
I0
tp33
a(I11
I3
F0.375
S'extra'
p34
I0
tp35
a(I10
I8
I0
g30
I1
tp36
as(S'camera'
p37
tp38
(lp39
(I4
I5
F-0.5
S'weak'
p40
I1
tp41
as(S'operating'
p42
S'system'
p43
tp44
(lp45
(I5
I40
I0
S'shy'
p46
I2
tp47
as(S'message'
p48
tp49
(lp50
(I5
I55
F0.25
S'helpful'
p51
I1
tp52
as(S'internet'
p53
tp54
(lp55
(I4
I0
F0.5
S'desirable'
p56
I6
tp57
a(I9
I2
I0
S'more'
p58
I6
tp59
as(S'spam'
p60
S'calls'
p61
tp62
(lp63
(I12
I27
F0.125
S'able'
p64
I0
tp65
a(I10
I82
F-0.375
S'unexpected'
p66
I0
tp67
a(I11
I19
I0
S'local'
p68
I0
tp69
as(S'tracfone'
p70
tp71
(lp72
(I1
I75
F1.0
S'better'
p73
I0
tp74
a(I1
I104
I0
S'website'
p75
I0
tp76
a(I2
I15
I0
S'older'
p77
I0
tp78
a(I2
I31
F0.125
S'first'
p79
I0
tp80
a(I5
I9
F0.125
S'first'
p81
I0
tp82
a(I9
I80
F0.625
S'easy'
p83
I0
tp84
a(I9
I100
F0.875
S'nice'
p85
I0
tp86
a(I10
I6
F-0.625
S'glad'
p87
I0
tp88
a(I10
I12
F0.125
S'typical'
p89
I0
tp90
a(I11
I1
I0
S'great'
p91
I0
tp92
a(I11
I3
F-0.25
S'google'
p93
I0
tp94
a(I12
I7
F0.125
S'first'
p95
I0
tp96
a(I12
I7
F0.125
S'last'
p97
I0
tp98
a(I12
I31
F-0.625
S'bad'
p99
I0
tp100
as(S'whole'
p101
S'minute'
p102
tp103
(lp104
(I9
I98
F0.5
S'whole'
p105
I0
tp106
a(I9
I99
F0.5
S'whole'
p107
I0
tp108
a(I9
I99
I0
S'more'
p109
I0
tp110
a(I9
I105
F0.5
S'whole'
p111
I0
tp112
a(I9
I106
F0.5
S'whole'
p113
I0
tp114
a(I9
I106
I0
S'more'
p115
I0
tp116
as(S'upgrade'
p117
tp118
(lp119
(I10
I10
F0.375
S'significant'
p120
I3
tp121
a(I10
I57
F0.875
S'nice'
p122
I3
tp123
as(S'smart'
p124
tp125
(lp126
(I9
I40
I0
S'close'
p127
I10
tp128
a(I12
I65
F0.375
S'similar'
p129
I10
tp130
as(S'browser'
p131
tp132
(lp133
(I10
I7
F0.375
S'available'
p134
I0
tp135
as(S'media'
p136
S'player'
p137
tp138
(lp139
(I5
I45
I0
S'great'
p140
I0
tp141
as(S'air'
p142
S'time'
p143
tp144
(lp145
(I12
I33
F-0.125
S'air'
p146
I0
tp147
as(S'protective'
p148
S'case'
p149
tp150
(lp151
(I5
I16
F0.125
S'protective'
p152
I0
tp153
a(I11
I11
F0.125
S'protective'
p154
I0
tp155
a(I12
I13
F0.125
S'protective'
p156
I0
tp157
as(S'customer'
p158
S'service'
p159
tp160
(lp161
(I2
I17
I0
S'different'
p162
I3
tp163
a(I5
I33
F-0.875
S'worst'
p164
I3
tp165
a(I1
I49
I0
S'same'
p166
I16
tp167
a(I2
I17
I0
g162
I16
tp168
a(I5
I33
F-0.875
g164
I16
tp169
a(I11
I18
F0.375
S'available'
p170
I16
tp171
a(I12
I61
F0.5
S'reasonable'
p172
I16
tp173
as(S'wifi'
p174
tp175
(lp176
(I5
I62
F0.625
S'convenient'
p177
I0
tp178
a(I10
I43
F0.5
S'personal'
p179
I0
tp180
as(S'mp3'
p181
S'player'
p182
tp183
(lp184
(I5
I60
F1.0
S'good'
p185
I1
tp186
a(I9
I51
F-0.625
S'other'
p187
I1
tp188
a(I1
I60
F0.875
S'music'
p189
I6
tp190
a(I9
I51
F-0.625
g187
I6
tp191
as(S'touch'
p192
S'screen'
p193
tp194
(lp195
(I1
I0
F0.5
S'touch'
p196
I2
tp197
a(I1
I0
I0
S'sensitive'
p198
I2
tp199
a(I2
I43
F0.25
S'responsive'
p200
I2
tp201
a(I5
I0
I0
S'sensitive'
p202
I2
tp203
a(I9
I26
I0
S'great'
p204
I2
tp205
a(I9
I59
F0.25
S'larger'
p206
I2
tp207
a(I9
I59
I0
S'more'
p208
I2
tp209
a(I9
I59
F0.25
S'responsive'
p210
I2
tp211
a(I12
I0
I0
S'normal'
p212
I2
tp213
as.