(dp0
(S'android'
p1
tp2
(lp3
(I0
I0
F-0.625
S'other'
p4
I0
tp5
a(I10
I20
F0.375
S'new'
p6
I0
tp7
a(I21
I6
F1.0
S'good'
p8
I0
tp9
a(I21
I6
F0.125
S'first'
p10
I0
tp11
a(I26
I4
F0.5
S'second'
p12
I0
tp13
a(I32
I7
I0
S'latest'
p14
I0
tp15
a(I34
I15
F0.125
S'native'
p16
I0
tp17
as(S'battery'
p18
tp19
(lp20
(I12
I5
F1.0
S'better'
p21
I15
tp22
a(I31
I20
I0
S'anymore'
p23
I15
tp24
a(I31
I24
F1.0
S'good'
p25
I15
tp26
a(I39
I3
F-0.5
S'long'
p27
I15
tp28
as(S'duos'
p29
tp30
(lp31
(I34
I16
F1.0
S'better'
p32
I0
tp33
as(S'internet'
p34
tp35
(lp36
(I14
I3
F-0.125
S'slow'
p37
I6
tp38
as(S'sim'
p39
S'card'
p40
tp41
(lp42
(I18
I18
I0
S'great'
p43
I0
tp44
a(I18
I18
F0.625
S'easy'
p45
I0
tp46
a(I30
I1
F0.5
S'second'
p47
I0
tp48
a(I30
I1
F0.5
S'primary'
p49
I0
tp50
a(I39
I3
I0
S'active'
p51
I0
tp52
a(I39
I3
F-0.25
S'cheaper'
p53
I0
tp54
a(I41
I6
I0
S'hungarian'
p55
I0
tp56
as(S'a'
p57
S'dual'
p58
S'sim'
p59
tp60
(lp61
(I10
I5
F-0.375
S'simple'
p62
I0
tp63
a(I10
I7
F1.0
S'best'
p64
I0
tp65
a(I10
I17
F1.0
S'best'
p66
I0
tp67
a(I18
I18
I0
g43
I0
tp68
a(I18
I18
F0.625
g45
I0
tp69
a(I19
I5
I0
S'android'
p70
I0
tp71
a(I19
I10
I0
S'active'
p72
I0
tp73
a(I10
I5
F-0.375
g62
I0
tp74
a(I10
I7
F1.0
g64
I0
tp75
a(I10
I17
F1.0
g66
I0
tp76
a(I18
I18
I0
g43
I0
tp77
a(I18
I18
F0.625
g45
I0
tp78
a(I19
I5
I0
g70
I0
tp79
a(I19
I10
I0
g72
I0
tp80
as(S'galaxy'
p81
tp82
(lp83
(I14
I14
I0
S'instructive'
p84
I0
tp85
a(I26
I25
F-0.625
S'other'
p86
I0
tp87
as(S'two'
p88
S'sim'
p89
tp90
(lp91
(I19
I10
I0
g72
I0
tp92
as(S'apps'
p93
tp94
(lp95
(I5
I31
I0
S'many'
p96
I0
tp97
a(I5
I45
F-0.125
S'slow'
p98
I0
tp99
a(I5
I45
F-0.5
S'open'
p100
I0
tp101
a(I5
I45
I0
S'many'
p102
I0
tp103
a(I10
I4
F-0.125
S'slow'
p104
I0
tp105
a(I10
I4
I0
S'few'
p106
I0
tp107
a(I38
I2
F-0.625
S'other'
p108
I0
tp109
a(I39
I3
I0
S'multiple'
p110
I0
tp111
a(I40
I2
F0.875
S'important'
p112
I0
tp113
a(I40
I3
I0
S'many'
p114
I0
tp115
as(S'samsung'
p116
tp117
(lp118
(I5
I19
F-0.5
S'complaint'
p119
I7
tp120
a(I5
I20
F0.125
S'last'
p121
I7
tp122
a(I31
I25
F0.375
S'new'
p123
I7
tp124
a(I34
I1
I0
S'different'
p125
I7
tp126
a(I34
I32
I0
S'plastic'
p127
I7
tp128
a(I34
I32
F-0.25
S'white'
p129
I7
tp130
a(I34
I32
I0
S'plastic'
p131
I7
tp132
a(I41
I3
F0.625
S'partial'
p133
I7
tp134
as(S'camera'
p135
tp136
(lp137
(I10
I5
F1.0
S'good'
p138
I1
tp139
a(I31
I28
F1.0
S'good'
p140
I1
tp141
as(S'sim'
p142
S'cards'
p143
tp144
(lp145
(I3
I1
F0.875
S'important'
p146
I0
tp147
a(I41
I6
I0
g55
I0
tp148
a(I3
I1
F0.875
g146
I15
tp149
as.