(dp0
(S'quad'
p1
S'core'
p2
S'processor'
p3
tp4
(lp5
(I95
I0
I0
S'quad'
p6
tp7
a(I147
I52
I0
S'quad'
p8
tp9
a(I154
I3
I0
S'fast'
p10
tp11
a(I296
I7
F0.25
S'responsive'
p12
tp13
as(S'usb'
p14
S'cable'
p15
tp16
(lp17
(I202
I9
F0.875
S'important'
p18
tp19
a(I202
I16
F0.375
S'extra'
p20
tp21
a(I202
I16
I0
S'cable'
p22
tp23
as(S'right'
p24
tp25
(lp26
(I47
I3
I0
S'slim'
p27
tp28
a(I266
I1
F-0.375
S'top'
p29
tp30
as(S'nice'
p31
tp32
(lp33
(I142
I2
F0.625
S'easy'
p34
tp35
a(I147
I30
I0
S'big'
p36
tp37
as(S'quad'
p38
S'core'
p39
tp40
(lp41
(I95
I0
I0
g6
tp42
a(I147
I52
I0
g8
tp43
a(I223
I0
F1.0
S'best'
p44
tp45
as(S'version'
p46
tp47
(lp48
(I19
I6
I0
S'android'
p49
tp50
a(I19
I6
I0
S'latest'
p51
tp52
a(I46
I4
F0.25
S'unlocked'
p53
tp54
a(I68
I1
I0
S'latest'
p55
tp56
a(I68
I1
I0
S'android'
p57
tp58
a(I71
I23
I0
S'latest'
p59
tp60
a(I71
I23
I0
S'android'
p61
tp62
a(I90
I0
I0
S'fast'
p63
tp64
a(I90
I0
I0
S'only'
p65
tp66
a(I141
I1
I0
S'more'
p67
tp68
a(I141
I1
F-0.25
S'stripped'
p69
tp70
a(I147
I19
F-0.625
S'other'
p71
tp72
a(I156
I39
F-0.25
S'google'
p73
tp74
a(I158
I2
I0
S'android'
p75
tp76
a(I158
I2
I0
S'latest'
p77
tp78
a(I174
I0
I0
S'latest'
p79
tp80
a(I202
I7
I0
S'more'
p81
tp82
a(I221
I3
I0
S'android'
p83
tp84
a(I221
I3
I0
S'cool'
p85
tp86
a(I236
I2
I0
S'latest'
p87
tp88
a(I257
I0
I0
S'latest'
p89
tp90
a(I257
I0
I0
S'android'
p91
tp92
a(I276
I3
I0
S'latest'
p93
tp94
a(I276
I3
I0
S'android'
p95
tp96
as(S'operating'
p97
S'system'
p98
tp99
(lp100
(I66
I0
I0
S'android'
p101
tp102
a(I141
I0
I0
S'android'
p103
tp104
a(I193
I0
F0.25
S'familiar'
p105
tp106
a(I254
I4
F-0.5
S'sure'
p107
tp108
a(I254
I16
I0
S'android'
p109
tp110
a(I254
I20
F-0.25
S'google'
p111
tp112
as(S'quality'
p113
tp114
(lp115
(I16
I9
F0.625
S'perfect'
p116
tp117
a(I16
I10
F1.0
S'good'
p118
tp119
a(I41
I1
F-0.125
S'overall'
p120
tp121
a(I45
I2
I0
S'great'
p122
tp123
a(I119
I29
I0
S'high'
p124
tp125
a(I133
I8
I0
S'high'
p126
tp127
a(I139
I1
F1.0
S'good'
p128
tp129
a(I141
I8
F-0.5
S'heavy'
p130
tp131
a(I155
I2
F0.625
S'easy'
p132
tp133
a(I155
I2
F1.0
S'good'
p134
tp135
a(I162
I9
F1.0
S'best'
p136
tp137
a(I162
I9
F-0.875
S'worst'
p138
tp139
a(I187
I0
I0
S'more'
p140
tp141
a(I243
I2
F1.0
S'good'
p142
tp143
a(I254
I15
I0
S'same'
p144
tp145
a(I254
I52
F-0.5
S'poor'
p146
tp147
a(I254
I55
F-0.25
S'higher'
p148
tp149
as(S'from'
p150
S'play'
p151
S'store'
p152
tp153
(lp154
(I3
I2
F-0.25
S'direct'
p155
tp156
a(I3
I2
F-0.25
S'google'
p157
tp158
a(I77
I3
F0.125
S'first'
p159
tp160
a(I165
I1
F0.625
S'straight'
p161
tp162
a(I165
I1
F-0.25
S'google'
p163
tp164
as(S'photo'
p165
S'sphere'
p166
tp167
(lp168
(I115
I15
I0
S'unbelievable'
p169
tp170
as(S'sd'
p171
S'card'
p172
tp173
(lp174
(I147
I4
I0
S'gig'
p175
tp176
as(S'contract'
p177
tp178
(lp179
(I3
I0
F0.375
S'screw'
p180
tp181
a(I71
I2
F0.75
S'due'
p182
tp183
as(S'weeks'
p184
tp185
(lp186
(I19
I1
I0
S'few'
p187
tp188
a(I324
I0
F0.125
S'first'
p189
tp190
a(I324
I0
I0
S'few'
p191
tp192
as(S'case'
p193
tp194
(lp195
(I16
I5
I0
S'more'
p196
tp197
a(I16
I5
F-0.75
S'likely'
p198
tp199
a(I45
I3
F0.125
S'protective'
p200
tp201
a(I71
I106
I0
S'only'
p202
tp203
a(I82
I0
F-0.875
S'hard'
p204
tp205
a(I134
I2
F-0.875
S'hard'
p206
tp207
as(S'instant'
p208
S'videos'
p209
tp210
(lp211
(I119
I29
F0.375
S'prime'
p212
tp213
a(I119
I30
I0
S'instant'
p214
tp215
as(S'store'
p216
tp217
(lp218
(I49
I0
F-0.5
S'less'
p219
tp220
a(I49
I0
F-0.375
S'crazy'
p221
tp222
a(I119
I5
F-0.25
S'abundant'
p223
tp224
a(I141
I5
I0
S'great'
p225
tp226
as(S'stock'
p227
S'android'
p228
tp229
(lp230
(I236
I6
I0
S'android'
p231
tp232
as(S'software'
p233
tp234
(lp235
(I29
I1
F-0.125
S'bean'
p236
tp237
a(I147
I15
F-0.5
S'weak'
p238
tp239
a(I288
I0
I0
S'great'
p240
tp241
a(I289
I0
F0.375
S'much'
p242
tp243
as(S'microsd'
p244
S'slot'
p245
tp246
(lp247
(I16
I6
I0
S'more'
p248
tp249
as(S'a'
p250
S'screen'
p251
S'protector'
p252
tp253
(lp254
(I147
I57
F-0.5
S'sure'
p255
tp256
as(S'pure'
p257
S'android'
p258
S'experience'
p259
tp260
(lp261
(I71
I22
I0
S'android'
p262
tp263
as(S'easy'
p264
S'to'
p265
S'use'
p266
tp267
(lp268
(I10
I1
F0.625
S'easy'
p269
tp270
as(S'smartphone'
p271
tp272
(lp273
(I5
I0
I0
S'great'
p274
tp275
a(I16
I11
I0
S'more'
p276
tp277
a(I29
I0
F0.125
S'usual'
p278
tp279
a(I33
I0
F0.625
S'sexy'
p280
tp281
a(I44
I3
I0
S'great'
p282
tp283
a(I64
I3
F1.0
S'best'
p284
tp285
a(I71
I4
F-0.875
S'worst'
p286
tp287
a(I100
I0
F1.0
S'best'
p288
tp289
a(I118
I0
F1.0
S'best'
p290
tp291
a(I138
I0
F0.875
S'nice'
p292
tp293
a(I159
I0
F0.125
S'first'
p294
tp295
a(I176
I1
F0.375
S'complete'
p296
tp297
a(I208
I0
I0
S'android'
p298
tp299
a(I229
I0
F1.0
S'good'
p300
tp301
a(I251
I2
F1.0
S'good'
p302
tp303
a(I263
I0
F1.0
S'good'
p304
tp305
a(I263
I0
F-0.625
S'light'
p306
tp307
a(I263
I0
F-0.75
S'comfortable'
p308
tp309
a(I284
I0
I0
S'android'
p310
tp311
as(S'card'
p312
tp313
(lp314
(I225
I3
F0.625
S'kind'
p315
tp316
a(I312
I0
F-0.375
S'small'
p317
tp318
as(S'great'
p319
S'battery'
p320
S'life'
p321
tp322
(lp323
(I62
I4
F-0.625
S'bad'
p324
tp325
a(I62
I4
I0
S'great'
p326
tp327
a(I69
I0
F0.875
S'nice'
p328
tp329
a(I69
I0
I0
S'great'
p330
tp331
a(I76
I0
I0
S'fast'
p332
tp333
a(I76
I0
I0
S'great'
p334
tp335
a(I89
I1
F1.0
S'good'
p336
tp337
a(I104
I7
I0
S'great'
p338
tp339
a(I202
I11
I0
S'great'
p340
tp341
a(I202
I11
F-0.875
S'awful'
p342
tp343
a(I247
I0
I0
S'adequate'
p344
tp345
a(I289
I0
F1.0
S'good'
p346
tp347
a(I306
I1
I0
S'great'
p348
tp349
as(S'cost'
p350
tp351
(lp352
(I27
I0
F0.75
S'beautiful'
p353
tp354
a(I27
I0
F-0.625
S'light'
p355
tp356
a(I119
I22
F-0.25
S'higher'
p357
tp358
a(I119
I24
I0
S'total'
p359
tp360
a(I159
I2
F0.25
S'powerful'
p361
tp362
a(I159
I2
F0.25
S'effective'
p363
tp364
a(I180
I0
F0.75
S'beautiful'
p365
tp366
a(I180
I0
F-0.625
S'light'
p367
tp368
a(I184
I4
F-0.25
S'cheapest'
p369
tp370
a(I312
I0
F-0.25
S'lower'
p371
tp372
as(S'fast'
p373
tp374
(lp375
(I26
I0
F-0.5
S'open'
p376
tp377
a(I29
I6
F-0.125
S'super'
p378
tp379
a(I64
I1
I0
S'real'
p380
tp381
as(S'couple'
p382
S'of'
p383
S'weeks'
p384
tp385
(lp386
(I133
I1
F-0.25
S'past'
p387
tp388
a(I296
I8
F0.125
S'first'
p389
tp390
as(S'every'
p391
tp392
(lp393
(I103
I2
F0.375
S'extra'
p394
tp395
a(I103
I2
F-0.125
S'mine'
p396
tp397
a(I103
I2
F0.75
S'worth'
p398
tp399
as(S'problem'
p400
tp401
(lp402
(I10
I1
I0
S'android'
p403
tp404
a(I43
I3
F0.25
S'unlocked'
p405
tp406
a(I47
I1
I0
S'next'
p407
tp408
a(I47
I1
I0
S'few'
p409
tp410
a(I65
I6
F-0.125
S'persistent'
p411
tp412
a(I71
I56
I0
S'android'
p413
tp414
a(I71
I96
I0
S'earlier'
p415
tp416
a(I94
I5
F-0.375
S'serious'
p417
tp418
a(I121
I2
F0.125
S'last'
p419
tp420
a(I121
I2
I0
S'website'
p421
tp422
a(I125
I1
I0
S'only'
p423
tp424
a(I143
I3
I0
S'same'
p425
tp426
a(I156
I15
I0
S'big'
p427
tp428
a(I168
I4
I0
S'common'
p429
tp430
a(I202
I7
I0
S'common'
p431
tp432
a(I262
I2
I0
S'only'
p433
tp434
a(I313
I8
F-0.25
S'google'
p435
tp436
as(S'android'
p437
S'experience'
p438
tp439
(lp440
(I19
I0
I0
S'android'
p441
tp442
a(I71
I22
I0
g262
tp443
a(I71
I67
I0
S'android'
p444
tp445
a(I119
I5
F1.0
S'best'
p446
tp447
a(I202
I19
F0.5
S'personal'
p448
tp449
as(S'hspa'
p450
tp451
(lp452
(I3
I12
F-0.75
S'sad'
p453
tp454
a(I214
I16
F1.0
S'good'
p455
tp456
as(g250
S'micro'
p457
S'sim'
p458
tp459
(lp460
(I105
I18
I0
S'traditional'
p461
tp462
a(I105
I18
F-0.375
S'smaller'
p463
tp464
as(S'price'
p465
tp466
(lp467
(I10
I1
F0.875
S'nice'
p468
tp469
a(I10
I1
F-0.625
S'other'
p470
tp471
a(I16
I17
I0
S'phenomenal'
p472
tp473
a(I37
I0
F1.0
S'good'
p474
tp475
a(I42
I0
F-0.25
S'cheaper'
p476
tp477
a(I45
I1
I0
S'same'
p478
tp479
a(I47
I2
F-0.25
S'google'
p480
tp481
a(I63
I0
F-0.25
S'low'
p482
tp483
a(I71
I79
F-0.25
S'higher'
p484
tp485
a(I75
I0
F1.0
S'good'
p486
tp487
a(I86
I2
F0.75
S'worth'
p488
tp489
a(I90
I1
I0
S'great'
p490
tp491
a(I119
I14
I0
S'standard'
p492
tp493
a(I119
I18
I0
S'total'
p494
tp495
a(I124
I12
I0
S'very'
p496
tp497
a(I124
I12
F0.5
S'reasonable'
p498
tp499
a(I133
I1
F-0.625
S'other'
p500
tp501
a(I153
I0
F1.0
S'good'
p502
tp503
a(I156
I1
I0
S'great'
p504
tp505
a(I181
I0
F1.0
S'good'
p506
tp507
a(I182
I27
F1.0
S'best'
p508
tp509
a(I202
I3
I0
S'same'
p510
tp511
a(I216
I2
F-0.25
S'higher'
p512
tp513
a(I240
I0
I0
S'great'
p514
tp515
a(I244
I0
F0.375
S'much'
p516
tp517
a(I244
I0
F-0.25
S'lower'
p518
tp519
a(I244
I1
I0
S'more'
p520
tp521
a(I245
I1
F-0.25
S'low'
p522
tp523
a(I256
I0
I0
S'same'
p524
tp525
a(I256
I0
F1.0
S'good'
p526
tp527
a(I263
I3
I0
S'high'
p528
tp529
a(I263
I3
F0.875
S'happy'
p530
tp531
a(I266
I1
F1.0
S'good'
p532
tp533
a(I269
I3
F1.0
S'best'
p534
tp535
a(I276
I6
I0
S'same'
p536
tp537
a(I278
I1
F-0.25
S'low'
p538
tp539
a(I285
I7
F-0.25
S'low'
p540
tp541
a(I305
I0
F0.75
S'worth'
p542
tp543
as(S'service'
p544
tp545
(lp546
(I46
I29
F0.375
S'available'
p547
tp548
a(I112
I7
F-0.25
S'google'
p549
tp550
a(I147
I62
I0
S'prompt'
p551
tp552
a(I190
I2
F-0.75
S'short'
p553
tp554
a(I303
I3
F0.125
S'first'
p555
tp556
as(S'custom'
p557
S'roms'
p558
tp559
(lp560
(I104
I7
F0.625
S'adventurous'
p561
tp562
as(S'back'
p563
tp564
(lp565
(I147
I79
F0.5
S'clear'
p566
tp567
a(I159
I9
F0.625
S'easy'
p568
tp569
a(I183
I2
I0
S'unreasonable'
p570
tp571
as(S'memory'
p572
tp573
(lp574
(I46
I20
F0.375
S'extra'
p575
tp576
a(I46
I20
F0.375
S'extra'
p577
tp578
a(I59
I2
I0
S'external'
p579
tp580
a(I120
I1
F-0.75
S'short'
p581
tp582
as(S'product'
p583
tp584
(lp585
(I0
I0
F0.375
S'available'
p586
tp587
a(I79
I2
F-0.25
S'google'
p588
tp589
a(I79
I5
F0.375
S'much'
p590
tp591
a(I79
I7
F0.375
S'reliable'
p592
tp593
a(I94
I6
F0.75
S'worth'
p594
tp595
a(I105
I16
F0.125
S'fellow'
p596
tp597
a(I105
I16
F-0.25
S'google'
p598
tp599
a(I176
I2
F1.0
S'good'
p600
tp601
a(I214
I8
F1.0
S'best'
p602
tp603
a(I231
I4
I0
S'great'
p604
tp605
a(I272
I1
I0
S'great'
p606
tp607
a(I279
I0
F1.0
S'good'
p608
tp609
a(I292
I0
I0
S'next'
p610
tp611
as(S'google'
p612
tp613
(lp614
(I81
I1
F0.375
S'available'
p615
tp616
a(I147
I8
F0.375
S'new'
p617
tp618
a(I174
I0
F-0.25
S'd'
p619
tp620
a(I202
I21
F-0.625
S'other'
p621
tp622
a(I227
I1
F-0.875
S'hard'
p623
tp624
as(S'from'
p625
S'google'
p626
S'play'
p627
tp628
(lp629
(I0
I1
F-0.25
S'google'
p630
tp631
a(I1
I2
F-0.25
S'google'
p632
tp633
a(I3
I2
F-0.25
g155
tp634
a(I3
I2
F-0.25
g157
tp635
a(I33
I0
F-0.25
S'google'
p636
tp637
a(I113
I1
F-0.25
S'google'
p638
tp639
a(I165
I1
F0.625
g161
tp640
a(I165
I1
F-0.25
g163
tp641
a(I248
I0
F-0.25
S'google'
p642
tp643
a(I318
I1
F-0.25
S'google'
p644
tp645
as(S'glass'
p646
tp647
(lp648
(I32
I6
I0
S'cool'
p649
tp650
a(I71
I90
I0
S'great'
p651
tp652
a(I141
I2
F1.0
S'best'
p653
tp654
a(I141
I3
F-0.25
S'google'
p655
tp656
a(I159
I9
F0.625
S'easy'
p657
tp658
as(S'design'
p659
tp660
(lp661
(I9
I0
I0
S'great'
p662
tp663
a(I26
I2
F-0.625
S'bad'
p664
tp665
a(I29
I1
F0.875
S'nice'
p666
tp667
a(I104
I3
F0.375
S'new'
p668
tp669
a(I133
I8
F0.75
S'beautiful'
p670
tp671
a(I225
I3
F1.0
S'best'
p672
tp673
a(I245
I1
F1.0
S'good'
p674
tp675
a(I254
I43
F-0.375
S'serious'
p676
tp677
a(I300
I0
F1.0
S'good'
p678
tp679
a(I323
I0
F0.25
S'powerful'
p680
tp681
a(I323
I0
I0
S'great'
p682
tp683
as(g250
S'long'
p684
S'time'
p685
tp686
(lp687
(I0
I0
F-0.25
S'google'
p688
tp689
a(I0
I0
F-0.5
S'long'
p690
tp691
a(I0
I0
F0.75
S'due'
p692
tp693
a(I32
I0
F-0.5
S'long'
p694
tp695
a(I65
I4
F-0.5
S'long'
p696
tp697
a(I71
I102
F-0.5
S'longer'
p698
tp699
a(I72
I5
F-0.5
S'long'
p700
tp701
as(S'android'
p702
tp703
(lp704
(I9
I1
F-0.625
S'clean'
p705
tp706
a(I20
I0
F1.0
S'best'
p707
tp708
a(I31
I0
F1.0
S'best'
p709
tp710
a(I32
I3
F0.125
S'first'
p711
tp712
a(I70
I0
I0
S'great'
p713
tp714
a(I97
I0
F1.0
S'best'
p715
tp716
a(I105
I8
I0
S'basic'
p717
tp718
a(I119
I5
F1.0
g446
tp719
a(I128
I0
F1.0
S'best'
p720
tp721
a(I139
I0
F0.125
S'first'
p722
tp723
a(I159
I0
F0.125
S'first'
p724
tp725
a(I160
I0
F0.25
S'original'
p726
tp727
a(I168
I13
F0.125
S'first'
p728
tp729
a(I207
I0
F0.125
S'last'
p730
tp731
a(I211
I0
I0
S'fourth'
p732
tp733
a(I246
I2
F1.0
S'best'
p734
tp735
a(I254
I22
F1.0
S'best'
p736
tp737
a(I311
I0
F-0.25
S'google'
p738
tp739
as(S'nexus'
p740
tp741
(lp742
(I2
I9
F0.125
S'capable'
p743
tp744
a(I16
I8
F1.0
S'best'
p745
tp746
a(I36
I3
F1.0
S'better'
p747
tp748
a(I46
I18
F-0.25
S'cheapest'
p749
tp750
a(I48
I0
I0
S'great'
p751
tp752
a(I71
I15
F-0.25
S'google'
p753
tp754
a(I71
I26
I0
S'close'
p755
tp756
a(I79
I3
I0
S'least'
p757
tp758
a(I79
I3
F0.875
S'happy'
p759
tp760
a(I80
I0
F1.0
S'good'
p761
tp762
a(I99
I1
I0
S'same'
p763
tp764
a(I129
I0
F-0.25
S'direct'
p765
tp766
a(I129
I0
F-0.25
S'google'
p767
tp768
a(I147
I3
F0.375
S'new'
p769
tp770
a(I154
I1
F0.25
S'familiar'
p771
tp772
a(I174
I0
F-0.25
g619
tp773
a(I202
I9
I0
S'great'
p774
tp775
a(I202
I9
I0
S'cable'
p776
tp777
a(I202
I9
F-0.75
S'short'
p778
tp779
a(I214
I17
I0
S'nexus'
p780
tp781
a(I214
I25
I0
S'next'
p782
tp783
a(I231
I1
I0
S'few'
p784
tp785
a(I233
I2
F-0.25
S'google'
p786
tp787
a(I234
I0
F-0.125
S'overall'
p788
tp789
a(I236
I6
I0
S'galaxy'
p790
tp791
a(I236
I8
F0.875
S'happy'
p792
tp793
a(I247
I2
I0
S'most'
p794
tp795
a(I254
I7
I0
S'arrival'
p796
tp797
a(I256
I0
I0
S'same'
p798
tp799
a(I313
I0
I0
S'old'
p800
tp801
a(I317
I3
F0.875
S'happy'
p802
tp803
as(S'thing'
p804
tp805
(lp806
(I1
I9
I0
S'closest'
p807
tp808
a(I1
I9
F0.625
S'easiest'
p809
tp810
a(I3
I12
I0
S'only'
p811
tp812
a(I3
I15
I0
S'great'
p813
tp814
a(I26
I1
I0
S'only'
p815
tp816
a(I32
I10
I0
S'only'
p817
tp818
a(I39
I2
F-0.625
S'bad'
p819
tp820
a(I41
I3
F0.5
S'flat'
p821
tp822
a(I41
I3
F-0.625
S'bad'
p823
tp824
a(I62
I4
F0.125
S'first'
p825
tp826
a(I71
I24
I0
S'only'
p827
tp828
a(I71
I24
I0
S'apple'
p829
tp830
a(I105
I12
I0
S'only'
p831
tp832
a(I119
I2
I0
S'only'
p833
tp834
a(I119
I20
F-0.625
S'other'
p835
tp836
a(I147
I57
F0.875
S'nice'
p837
tp838
a(I147
I57
F0.375
S'much'
p839
tp840
a(I159
I1
F0.25
S'powerful'
p841
tp842
a(I185
I3
I0
S'only'
p843
tp844
a(I188
I0
F-0.75
S'wrong'
p845
tp846
a(I194
I4
F-0.875
S'negative'
p847
tp848
a(I196
I0
I0
S'only'
p849
tp850
a(I233
I0
F-0.625
S'other'
p851
tp852
a(I256
I0
F0.625
S'positive'
p853
tp854
a(I285
I0
F0.5
S'adore'
p855
tp856
a(I293
I1
I0
S'only'
p857
tp858
a(I293
I1
F-0.625
S'bad'
p859
tp860
a(I320
I0
F1.0
S'good'
p861
tp862
as(S'google'
p863
S'and'
p864
S'lg'
p865
tp866
(lp867
(I12
I0
F-0.25
S'google'
p868
tp869
a(I29
I0
I0
S'great'
p870
tp871
a(I132
I1
F-0.625
S'other'
p872
tp873
a(I254
I40
F-0.25
S'google'
p874
tp875
as(S'on'
p876
S'google'
p877
S'play'
p878
tp879
(lp880
(I3
I2
F-0.25
g155
tp881
a(I3
I2
F-0.25
g157
tp882
a(I33
I0
F-0.25
g636
tp883
a(I113
I1
F-0.25
g638
tp884
a(I119
I29
F-0.25
S'google'
p885
tp886
a(I119
I29
F-0.25
S'cheaper'
p887
tp888
a(I165
I1
F0.625
g161
tp889
a(I165
I1
F-0.25
g163
tp890
a(I202
I21
F-0.25
S'google'
p891
tp892
a(I202
I21
F-0.625
g621
tp893
a(I322
I8
F-0.25
S'google'
p894
tp895
as(S'size'
p896
tp897
(lp898
(I24
I0
F0.875
S'nice'
p899
tp900
a(I44
I2
F1.0
S'good'
p901
tp902
a(I58
I2
I0
S'big'
p903
tp904
a(I90
I0
F1.0
S'good'
p905
tp906
a(I90
I0
I0
S'same'
p907
tp908
a(I202
I2
F0.625
S'perfect'
p909
tp910
a(I250
I2
F-0.75
S'comfortable'
p911
tp912
a(I254
I59
F-0.625
S'average'
p913
tp914
a(I319
I0
F1.0
S'good'
p915
tp916
a(I319
I0
F1.0
S'good'
p917
tp918
as(S'direct'
p919
S'from'
p920
S'google'
p921
tp922
(lp923
(I67
I1
F-0.25
S'google'
p924
tp925
as(S'work'
p926
tp927
(lp928
(I156
I33
F0.875
S'lucky'
p929
tp930
a(I162
I4
F0.75
S'beautiful'
p931
tp932
as(S'core'
p933
S'processor'
p934
tp935
(lp936
(I95
I0
I0
g6
tp937
a(I147
I52
I0
g8
tp938
a(I154
I3
I0
g10
tp939
a(I296
I7
F0.25
g12
tp940
as(S'battery'
p941
S'life'
p942
tp943
(lp944
(I62
I4
F-0.625
g324
tp945
a(I62
I4
I0
g326
tp946
a(I69
I0
F0.875
g328
tp947
a(I69
I0
I0
g330
tp948
a(I76
I0
I0
g332
tp949
a(I76
I0
I0
g334
tp950
a(I89
I1
F1.0
g336
tp951
a(I104
I7
I0
g338
tp952
a(I159
I8
F-0.25
S'low'
p953
tp954
a(I202
I11
I0
g340
tp955
a(I202
I11
F-0.875
g342
tp956
a(I235
I23
F-0.375
S'near'
p957
tp958
a(I236
I8
F-0.375
S'double'
p959
tp960
a(I247
I0
I0
g344
tp961
a(I289
I0
F1.0
g346
tp962
a(I306
I1
I0
g348
tp963
as(S'pure'
p964
S'android'
p965
tp966
(lp967
(I64
I0
F0.125
S'first'
p968
tp969
a(I311
I0
F-0.25
g738
tp970
as(S'made'
p971
tp972
(lp973
(I275
I2
F-0.25
S'google'
p974
tp975
as(S'looks'
p976
tp977
(lp978
(I92
I0
I0
S'great'
p979
tp980
a(I133
I2
F0.25
S'objective'
p981
tp982
a(I156
I3
F0.5
S'elegant'
p983
tp984
a(I170
I0
F0.375
S'new'
p985
tp986
a(I312
I0
I0
S'great'
p987
tp988
as(S'problems'
p989
tp990
(lp991
(I183
I7
F0.375
S'similar'
p992
tp993
a(I215
I2
I0
S'signal'
p994
tp995
a(I254
I68
F0.25
S'biggest'
p996
tp997
as(S'on/off'
p998
S'button'
p999
tp1000
(lp1001
(I61
I3
F0.875
S'nice'
p1002
tp1003
as(S'speed'
p1004
tp1005
(lp1006
(I41
I8
F-0.125
S'slow'
p1007
tp1008
a(I53
I16
F0.375
S'available'
p1009
tp1010
a(I105
I1
I0
S'dial'
p1011
tp1012
a(I105
I1
I0
S'dial'
p1013
tp1014
a(I125
I0
I0
S'high'
p1015
tp1016
a(I127
I1
I0
S'great'
p1017
tp1018
a(I139
I1
F-0.625
S'bad'
p1019
tp1020
a(I162
I7
F0.125
S'spectacular'
p1021
tp1022
a(I239
I0
I0
S'great'
p1023
tp1024
as(S'life'
p1025
tp1026
(lp1027
(I62
I4
F-0.625
g324
tp1028
a(I62
I4
I0
g326
tp1029
a(I69
I0
I0
g330
tp1030
a(I202
I11
I0
g340
tp1031
a(I202
I11
F-0.875
g342
tp1032
a(I214
I6
I0
S'own'
p1033
tp1034
a(I214
I20
I0
S'real'
p1035
tp1036
a(I235
I23
F-0.375
g957
tp1037
a(I289
I0
F1.0
g346
tp1038
as(S'third'
p1039
S'party'
p1040
tp1041
(lp1042
(I62
I3
I0
S'third'
p1043
tp1044
a(I182
I7
I0
S'third'
p1045
tp1046
a(I225
I8
I0
S'third'
p1047
tp1048
a(I316
I1
I0
S'third'
p1049
tp1050
as(S'feel'
p1051
tp1052
(lp1053
(I71
I115
F-0.625
S'free'
p1054
tp1055
a(I156
I3
I0
S'android'
p1056
tp1057
a(I168
I0
F1.0
S'good'
p1058
tp1059
a(I168
I0
F0.5
S'drive'
p1060
tp1061
a(I260
I0
F0.75
S'beautiful'
p1062
tp1063
a(I326
I1
I0
S'big'
p1064
tp1065
as(S'samsung'
p1066
S'galaxy'
p1067
tp1068
(lp1069
(I111
I5
I0
S'old'
p1070
tp1071
a(I150
I0
I0
S'old'
p1072
tp1073
as(S'update'
p1074
tp1075
(lp1076
(I207
I0
I0
S'fast'
p1077
tp1078
a(I259
I19
I0
S'android'
p1079
tp1080
a(I267
I0
I0
S'next'
p1081
tp1082
a(I317
I1
F-0.25
S'google'
p1083
tp1084
as(S'time'
p1085
tp1086
(lp1087
(I0
I0
F-0.25
g688
tp1088
a(I0
I0
F-0.5
g690
tp1089
a(I0
I0
F0.75
g692
tp1090
a(I32
I0
F-0.5
g694
tp1091
a(I51
I5
F0.125
S'first'
p1092
tp1093
a(I65
I4
F-0.5
g696
tp1094
a(I71
I60
I0
S'same'
p1095
tp1096
a(I71
I84
F-0.875
S'harder'
p1097
tp1098
a(I71
I85
F0.375
S'much'
p1099
tp1100
a(I71
I102
F-0.5
g698
tp1101
a(I72
I5
F-0.5
g700
tp1102
a(I119
I34
I0
S'more'
p1103
tp1104
a(I149
I1
I0
S'next'
p1105
tp1106
a(I168
I10
F0.5
S'whole'
p1107
tp1108
a(I204
I2
F0.125
S'first'
p1109
tp1110
a(I204
I2
F-0.75
S'comfortable'
p1111
tp1112
a(I204
I2
F-0.25
S'ready'
p1113
tp1114
a(I267
I0
F0.125
S'first'
p1115
tp1116
a(I285
I3
F-0.875
S'hard'
p1117
tp1118
a(I287
I1
F0.125
S'first'
p1119
tp1120
a(I296
I14
I0
S'most'
p1121
tp1122
as(S'find'
p1123
tp1124
(lp1125
(I168
I4
I0
S'online'
p1126
tp1127
as(S'experience'
p1128
tp1129
(lp1130
(I19
I0
I0
g441
tp1131
a(I32
I10
F-0.375
S'crazy'
p1132
tp1133
a(I71
I22
I0
g262
tp1134
a(I71
I67
I0
g444
tp1135
a(I72
I7
F-0.25
S'google'
p1136
tp1137
a(I94
I0
F-0.625
S'bad'
p1138
tp1139
a(I94
I0
F-0.625
S'bad'
p1140
tp1141
a(I119
I13
F1.0
S'best'
p1142
tp1143
a(I124
I2
F0.5
S'personal'
p1144
tp1145
a(I141
I11
F0.625
S'pleasant'
p1146
tp1147
a(I180
I1
F1.0
S'good'
p1148
tp1149
a(I196
I0
F1.0
S'good'
p1150
tp1151
a(I202
I19
F0.5
g448
tp1152
a(I214
I11
I0
S'own'
p1153
tp1154
a(I214
I16
F0.5
S'personal'
p1155
tp1156
a(I287
I1
F0.875
S'happy'
p1157
tp1158
a(I313
I4
F-0.625
S'sorry'
p1159
tp1160
a(I313
I4
F0.5
S'personal'
p1161
tp1162
as(S'support'
p1163
tp1164
(lp1165
(I224
I2
F-0.25
S'google'
p1166
tp1167
a(I224
I11
F-0.25
S'google'
p1168
tp1169
a(I295
I2
F0.5
S'technical'
p1170
tp1171
a(I316
I2
I0
S'great'
p1172
tp1173
as(S'play'
p1174
S'store'
p1175
tp1176
(lp1177
(I3
I2
F-0.25
g155
tp1178
a(I3
I2
F-0.25
g157
tp1179
a(I49
I0
F-0.5
g219
tp1180
a(I49
I0
F-0.375
g221
tp1181
a(I77
I3
F0.125
g159
tp1182
a(I119
I5
F-0.25
g223
tp1183
a(I141
I5
I0
g225
tp1184
a(I165
I1
F0.625
g161
tp1185
a(I165
I1
F-0.25
g163
tp1186
a(I202
I21
F-0.25
g891
tp1187
a(I259
I0
F-0.25
S'google'
p1188
tp1189
as(S'google'
p1190
S'play'
p1191
tp1192
(lp1193
(I0
I1
F-0.25
g630
tp1194
a(I1
I2
F-0.25
g632
tp1195
a(I3
I2
F-0.25
g155
tp1196
a(I3
I2
F-0.25
g157
tp1197
a(I33
I0
F-0.25
g636
tp1198
a(I113
I1
F-0.25
g638
tp1199
a(I119
I29
F-0.25
g885
tp1200
a(I119
I29
F-0.25
g887
tp1201
a(I165
I1
F0.625
g161
tp1202
a(I165
I1
F-0.25
g163
tp1203
a(I202
I21
F-0.25
g891
tp1204
a(I202
I21
F-0.625
g621
tp1205
a(I248
I0
F-0.25
g642
tp1206
a(I259
I0
F-0.25
g1188
tp1207
a(I318
I1
F-0.25
g644
tp1208
a(I322
I8
F-0.25
g894
tp1209
as(S'galaxy'
p1210
S'nexus'
p1211
tp1212
(lp1213
(I236
I6
I0
g790
tp1214
a(I236
I7
F-0.125
S'slow'
p1215
tp1216
a(I236
I8
F0.875
g792
tp1217
as(S'screen'
p1218
tp1219
(lp1220
(I3
I21
F-0.75
S'tough'
p1221
tp1222
a(I19
I2
F0.25
S'bigger'
p1223
tp1224
a(I36
I2
I0
S'sensitive'
p1225
tp1226
a(I38
I0
I0
S'great'
p1227
tp1228
a(I48
I0
I0
S'fluid'
p1229
tp1230
a(I48
I0
F0.875
S'nice'
p1231
tp1232
a(I62
I0
F0.25
S'bigger'
p1233
tp1234
a(I67
I1
I0
S'fast'
p1235
tp1236
a(I67
I1
F0.625
S'perfect'
p1237
tp1238
a(I71
I25
F0.75
S'beautiful'
p1239
tp1240
a(I71
I65
F0.25
S'bigger'
p1241
tp1242
a(I72
I3
F-0.125
S'inoperative'
p1243
tp1244
a(I82
I0
F0.875
S'nice'
p1245
tp1246
a(I120
I3
I0
S'fast'
p1247
tp1248
a(I120
I3
F1.0
S'good'
p1249
tp1250
a(I136
I1
I0
S'big'
p1251
tp1252
a(I140
I2
I0
S'great'
p1253
tp1254
a(I140
I2
I0
S'large'
p1255
tp1256
a(I143
I5
F-0.375
S'black'
p1257
tp1258
a(I147
I38
I0
S'large'
p1259
tp1260
a(I147
I39
F0.25
S'larger'
p1261
tp1262
a(I154
I3
I0
S'large'
p1263
tp1264
a(I156
I12
I0
S'great'
p1265
tp1266
a(I156
I16
I0
S'large'
p1267
tp1268
a(I159
I1
F0.25
S'bigger'
p1269
tp1270
a(I184
I1
F0.5
S'whole'
p1271
tp1272
a(I184
I4
F0.375
S'much'
p1273
tp1274
a(I194
I1
I0
S'great'
p1275
tp1276
a(I199
I4
F1.0
S'good'
p1277
tp1278
a(I202
I2
I0
S'general'
p1279
tp1280
a(I202
I4
F0.25
S'responsive'
p1281
tp1282
a(I215
I2
F0.5
S'clear'
p1283
tp1284
a(I215
I2
F-0.75
S'tough'
p1285
tp1286
a(I218
I2
F-0.75
S'bright'
p1287
tp1288
a(I220
I9
F0.625
S'easy'
p1289
tp1290
a(I238
I1
I0
S'great'
p1291
tp1292
a(I238
I1
I0
S'fast'
p1293
tp1294
a(I239
I0
I0
S'great'
p1295
tp1296
a(I246
I1
I0
S'user'
p1297
tp1298
a(I246
I1
F-0.125
S'overall'
p1299
tp1300
a(I246
I1
F0.75
S'beautiful'
p1301
tp1302
a(I247
I0
I0
S'great'
p1303
tp1304
a(I250
I2
F1.0
S'good'
p1305
tp1306
a(I254
I60
I0
S'large'
p1307
tp1308
a(I254
I60
F1.0
S'good'
p1309
tp1310
a(I259
I10
F0.25
S'bigger'
p1311
tp1312
a(I264
I0
I0
S'great'
p1313
tp1314
a(I281
I5
F-0.375
S'black'
p1315
tp1316
a(I282
I1
F0.25
S'bigger'
p1317
tp1318
a(I282
I1
F0.125
S'impressive'
p1319
tp1320
a(I291
I2
I0
S'quick'
p1321
tp1322
a(I291
I2
I0
S'great'
p1323
tp1324
a(I296
I9
F0.25
S'unlocked'
p1325
tp1326
a(I296
I13
F0.5
S'careful'
p1327
tp1328
a(I301
I10
F0.375
S'extra'
p1329
tp1330
a(I310
I1
I0
S'own'
p1331
tp1332
as(S'efficient'
p1333
S'distributor'
p1334
tp1335
(lp1336
(I233
I4
I0
S'efficient'
p1337
tp1338
a(I233
I4
I0
S'e-mail'
p1339
tp1340
a(I233
I5
I0
S'efficient'
p1341
tp1342
a(I233
I6
I0
S'efficient'
p1343
tp1344
a(I233
I6
F0.125
S'amazon'
p1345
tp1346
a(I233
I6
I0
S'efficient'
p1347
tp1348
as(S'everything'
p1349
tp1350
(lp1351
(I213
I1
F0.875
S'happy'
p1352
tp1353
as(S'samsung'
p1354
tp1355
(lp1356
(I111
I5
I0
g1070
tp1357
a(I150
I0
I0
g1072
tp1358
a(I235
I2
I0
S'android'
p1359
tp1360
as(S'camera'
p1361
tp1362
(lp1363
(I15
I1
F1.0
S'good'
p1364
tp1365
a(I23
I2
I0
S'great'
p1366
tp1367
a(I23
I2
I0
S'most'
p1368
tp1369
a(I24
I0
F0.75
S'beautiful'
p1370
tp1371
a(I24
I0
I0
S'mobile'
p1372
tp1373
a(I24
I0
I0
S'great'
p1374
tp1375
a(I25
I2
I0
S'more'
p1376
tp1377
a(I41
I7
I0
S'passable'
p1378
tp1379
a(I90
I1
F1.0
S'good'
p1380
tp1381
a(I101
I2
I0
S'android'
p1382
tp1383
a(I119
I3
I0
S'close'
p1384
tp1385
a(I125
I0
F1.0
S'good'
p1386
tp1387
a(I147
I24
F-0.625
S'other'
p1388
tp1389
a(I159
I7
F-0.625
S'bad'
p1390
tp1391
a(I197
I0
F0.125
S'booth'
p1392
tp1393
a(I199
I6
I0
S'most'
p1394
tp1395
a(I202
I7
I0
S'great'
p1396
tp1397
a(I214
I16
I0
S'great'
p1398
tp1399
a(I317
I2
F1.0
S'good'
p1400
tp1401
a(I319
I0
F1.0
S'good'
p1402
tp1403
a(I322
I5
F1.0
S'good'
p1404
tp1405
as(S'using'
p1406
tp1407
(lp1408
(I159
I3
F0.5
S'whole'
p1409
tp1410
a(I159
I3
F0.375
S'new'
p1411
tp1412
as(S'mobile'
p1413
tp1414
(lp1415
(I202
I12
F-0.5
S'heavy'
p1416
tp1417
a(I202
I21
I0
S'android'
p1418
tp1419
a(I216
I1
F0.375
S'new'
p1420
tp1421
as(S'galaxy'
p1422
tp1423
(lp1424
(I201
I3
F1.0
S'good'
p1425
tp1426
a(I236
I7
F-0.125
g1215
tp1427
a(I254
I16
F0.25
S'larger'
p1428
tp1429
a(I258
I1
I0
S'old'
p1430
tp1431
a(I322
I7
I0
S'different'
p1432
tp1433
as(S'lack'
p1434
S'of'
p1435
S'lte'
p1436
tp1437
(lp1438
(I67
I4
I0
S'more'
p1439
tp1440
a(I67
I4
I0
S'more'
p1441
tp1442
as(S'google'
p1443
S'play'
p1444
S'store'
p1445
tp1446
(lp1447
(I3
I2
F-0.25
g155
tp1448
a(I3
I2
F-0.25
g157
tp1449
a(I119
I5
F-0.25
g223
tp1450
a(I141
I5
I0
g225
tp1451
a(I165
I1
F0.625
g161
tp1452
a(I165
I1
F-0.25
g163
tp1453
a(I202
I21
F-0.25
g891
tp1454
a(I202
I21
F-0.625
g621
tp1455
a(I259
I0
F-0.25
g1188
tp1456
as(S'htc'
p1457
S'one'
p1458
S'x'
p1459
tp1460
(lp1461
(I29
I4
I0
S'old'
p1462
tp1463
a(I146
I0
I0
S'most'
p1464
tp1465
a(I201
I3
F-0.125
S'bean'
p1466
tp1467
as(S'people'
p1468
tp1469
(lp1470
(I6
I1
I0
S'many'
p1471
tp1472
a(I45
I3
I0
S'most'
p1473
tp1474
a(I47
I3
F-0.375
S'double'
p1475
tp1476
a(I49
I1
F0.375
S'enable'
p1477
tp1478
a(I71
I18
I0
S'many'
p1479
tp1480
a(I71
I21
I0
S'same'
p1481
tp1482
a(I71
I71
I0
S'most'
p1483
tp1484
a(I79
I4
I0
S'few'
p1485
tp1486
a(I79
I4
F-0.625
S'other'
p1487
tp1488
a(I91
I11
I0
S'most'
p1489
tp1490
a(I115
I19
F-0.375
S'serious'
p1491
tp1492
a(I182
I20
I0
S'most'
p1493
tp1494
a(I182
I23
I0
S'most'
p1495
tp1496
a(I182
I23
I0
S'many'
p1497
tp1498
a(I183
I2
F0.25
S'helpful'
p1499
tp1500
a(I214
I7
I0
S'more'
p1501
tp1502
a(I220
I7
I0
S'more'
p1503
tp1504
a(I220
I7
I0
S'forth'
p1505
tp1506
a(I222
I3
I0
S'many'
p1507
tp1508
a(I313
I6
F0.5
S'reasonable'
p1509
tp1510
as(S'battery'
p1511
tp1512
(lp1513
(I16
I13
I0
S'serviceable'
p1514
tp1515
a(I46
I26
F0.625
S'replaceable'
p1516
tp1517
a(I48
I1
F0.125
S'last'
p1518
tp1519
a(I69
I0
F0.875
g328
tp1520
a(I70
I0
F-0.5
S'poor'
p1521
tp1522
a(I70
I0
F-0.75
S'worse'
p1523
tp1524
a(I76
I0
I0
g332
tp1525
a(I76
I0
I0
g334
tp1526
a(I89
I0
F0.625
S'removable'
p1527
tp1528
a(I89
I1
F1.0
g336
tp1529
a(I91
I5
F-0.25
S'white'
p1530
tp1531
a(I104
I1
F-0.375
S'small'
p1532
tp1533
a(I104
I1
F-0.25
S'google'
p1534
tp1535
a(I104
I2
F1.0
S'best'
p1536
tp1537
a(I104
I7
I0
g338
tp1538
a(I130
I0
F1.0
S'better'
p1539
tp1540
a(I136
I1
F1.0
S'good'
p1541
tp1542
a(I147
I71
F-0.625
S'bad'
p1543
tp1544
a(I147
I71
I0
S'external'
p1545
tp1546
a(I156
I33
F-0.75
S'difficult'
p1547
tp1548
a(I159
I8
F-0.25
g953
tp1549
a(I178
I3
F0.625
S'removable'
p1550
tp1551
a(I182
I16
I0
S'internal'
p1552
tp1553
a(I218
I5
F-0.75
S'dead'
p1554
tp1555
a(I218
I13
F-0.625
S'other'
p1556
tp1557
a(I222
I1
F0.5
S'second'
p1558
tp1559
a(I222
I1
F0.125
S'solid'
p1560
tp1561
a(I222
I1
F-0.375
S'red'
p1562
tp1563
a(I222
I1
F0.375
S'new'
p1564
tp1565
a(I236
I8
F-0.375
g959
tp1566
a(I238
I3
F-0.75
S'dead'
p1567
tp1568
a(I247
I0
I0
g344
tp1569
a(I256
I0
F-0.5
S'poor'
p1570
tp1571
a(I256
I0
F0.125
S'last'
p1572
tp1573
a(I258
I11
I0
S'signal'
p1574
tp1575
a(I260
I1
F0.25
S'powerful'
p1576
tp1577
a(I277
I1
F0.625
S'easy'
p1578
tp1579
a(I288
I0
I0
S'big'
p1580
tp1581
a(I291
I1
F0.125
S'last'
p1582
tp1583
a(I306
I1
I0
g348
tp1584
a(I317
I2
F0.5
S'flat'
p1585
tp1586
a(I326
I3
F-0.625
S'bad'
p1587
tp1588
as(S'works'
p1589
tp1590
(lp1591
(I97
I2
I0
S'most'
p1592
tp1593
a(I141
I11
F-0.125
S'bean'
p1594
tp1595
a(I191
I0
F-0.375
S'smooth'
p1596
tp1597
a(I195
I1
F0.375
S'new'
p1598
tp1599
a(I205
I0
F1.0
S'good'
p1600
tp1601
a(I205
I0
I0
S'great'
p1602
tp1603
as(S'processor'
p1604
tp1605
(lp1606
(I16
I5
I0
S'fastest'
p1607
tp1608
a(I154
I3
I0
g10
tp1609
a(I156
I24
I0
S'great'
p1610
tp1611
a(I215
I2
F-0.5
S'heavy'
p1612
tp1613
a(I232
I0
I0
S'same'
p1614
tp1615
a(I256
I0
F-0.625
S'other'
p1616
tp1617
a(I296
I7
F0.25
g12
tp1618
as(S'apps'
p1619
tp1620
(lp1621
(I4
I2
I0
S'great'
p1622
tp1623
a(I46
I1
F-0.25
S'google'
p1624
tp1625
a(I46
I18
F0.375
S'available'
p1626
tp1627
a(I71
I83
F0.75
S'receive'
p1628
tp1629
a(I92
I0
F-0.25
S'google'
p1630
tp1631
a(I104
I6
F-0.625
S'other'
p1632
tp1633
a(I202
I4
F-0.625
S'other'
p1634
tp1635
a(I211
I1
F1.0
S'good'
p1636
tp1637
a(I218
I2
F-0.625
S'free'
p1638
tp1639
a(I218
I2
I0
S'unbelievable'
p1640
tp1641
a(I218
I7
I0
S'many'
p1642
tp1643
a(I254
I33
I0
S'many'
p1644
tp1645
a(I254
I49
I0
S'many'
p1646
tp1647
a(I254
I50
F-0.5
S'poor'
p1648
tp1649
a(I254
I51
I0
S'different'
p1650
tp1651
a(I254
I52
I0
S'many'
p1652
tp1653
a(I254
I56
I0
S'many'
p1654
tp1655
a(I271
I2
F0.125
S'able'
p1656
tp1657
as(g250
S'big'
p1658
S'deal'
p1659
tp1660
(lp1661
(I3
I13
I0
S'big'
p1662
tp1663
a(I41
I11
I0
S'big'
p1664
tp1665
a(I71
I39
I0
S'big'
p1666
tp1667
a(I71
I59
I0
S'big'
p1668
tp1669
a(I71
I59
F-0.75
S'difficult'
p1670
tp1671
as(S'device'
p1672
tp1673
(lp1674
(I1
I8
I0
S'great'
p1675
tp1676
a(I18
I0
F0.75
S'beautiful'
p1677
tp1678
a(I32
I5
F0.75
S'beautiful'
p1679
tp1680
a(I32
I14
I0
S'great'
p1681
tp1682
a(I38
I0
I0
S'great'
p1683
tp1684
a(I120
I0
F0.5
S'true'
p1685
tp1686
a(I141
I1
I0
S'android'
p1687
tp1688
a(I156
I16
I0
S'big'
p1689
tp1690
a(I156
I35
I0
S'only'
p1691
tp1692
a(I162
I11
I0
S'such'
p1693
tp1694
a(I191
I0
I0
S'later'
p1695
tp1696
a(I202
I7
F0.875
S'music'
p1697
tp1698
a(I214
I11
F-0.5
S'show-off'
p1699
tp1700
a(I282
I2
F0.875
S'happy'
p1701
tp1702
as(S'call'
p1703
tp1704
(lp1705
(I168
I2
F0.125
S'first'
p1706
tp1707
a(I182
I7
F0.5
S'possible'
p1708
tp1709
as(S'galaxy'
p1710
S's3'
p1711
tp1712
(lp1713
(I201
I3
F1.0
g1425
tp1714
as(S'light'
p1715
tp1716
(lp1717
(I16
I13
F-0.625
S'lightest'
p1718
tp1719
a(I16
I13
F-0.25
S'thinnest'
p1720
tp1721
a(I16
I13
I0
S'most'
p1722
tp1723
a(I16
I13
F-0.25
S'thin'
p1724
tp1725
a(I41
I8
F-0.25
S'low'
p1726
tp1727
a(I124
I2
F-0.75
S'bright'
p1728
tp1729
a(I147
I25
F1.0
S'good'
p1730
tp1731
a(I159
I4
F-0.25
S'thin'
p1732
tp1733
as(S'google'
p1734
S'nexus'
p1735
tp1736
(lp1737
(I16
I8
F1.0
g745
tp1738
a(I71
I15
F-0.25
g753
tp1739
a(I79
I3
I0
g757
tp1740
a(I79
I3
F0.875
g759
tp1741
a(I129
I0
F-0.25
g765
tp1742
a(I129
I0
F-0.25
g767
tp1743
a(I147
I3
F0.375
g769
tp1744
a(I174
I0
F-0.25
g619
tp1745
a(I174
I0
F-0.25
g619
tp1746
a(I231
I1
I0
g784
tp1747
a(I233
I2
F-0.25
g786
tp1748
a(I236
I6
I0
g790
tp1749
a(I236
I8
F0.875
g792
tp1750
a(I256
I0
I0
g798
tp1751
as(S'play'
p1752
tp1753
(lp1754
(I0
I1
F-0.25
g630
tp1755
a(I1
I2
F-0.25
g632
tp1756
a(I3
I2
F-0.25
g155
tp1757
a(I3
I2
F-0.25
g157
tp1758
a(I33
I0
F-0.25
g636
tp1759
a(I77
I3
F0.125
g159
tp1760
a(I113
I1
F-0.25
g638
tp1761
a(I119
I29
F-0.25
g885
tp1762
a(I119
I29
F-0.25
g887
tp1763
a(I165
I1
F0.625
g161
tp1764
a(I165
I1
F-0.25
g163
tp1765
a(I202
I21
F-0.25
g891
tp1766
a(I248
I0
F-0.25
g642
tp1767
a(I259
I0
F-0.25
g1188
tp1768
a(I318
I1
F-0.25
g644
tp1769
a(I322
I8
F-0.25
g894
tp1770
as(S'days'
p1771
tp1772
(lp1773
(I91
I14
F-0.5
S'less'
p1774
tp1775
a(I139
I0
I0
S'few'
p1776
tp1777
a(I147
I73
I0
S'few'
p1778
tp1779
a(I147
I73
I0
S'later'
p1780
tp1781
a(I178
I3
I0
S'few'
p1782
tp1783
a(I224
I1
F0.125
S'first'
p1784
tp1785
a(I224
I6
I0
S'least'
p1786
tp1787
a(I236
I7
I0
S'few'
p1788
tp1789
a(I254
I28
I0
S'full'
p1790
tp1791
a(I259
I17
I0
S'great'
p1792
tp1793
a(I309
I6
F0.125
S'first'
p1794
tp1795
a(I309
I6
F-0.5
S'less'
p1796
tp1797
a(I325
I0
I0
S'few'
p1798
tp1799
as.