(dp0
(S'screen'
p1
S'size'
p2
tp3
(lp4
(I1
I2
I0
S'big'
p5
tp6
a(I10
I1
F0.375
S'significant'
p7
tp8
a(I35
I2
F-0.875
S'bother'
p9
tp10
a(I135
I20
I0
S'full'
p11
tp12
a(I154
I2
F0.625
S'easy'
p13
tp14
as(S'problem'
p15
tp16
(lp17
(I6
I12
F-0.25
S'thin'
p18
tp19
a(I88
I3
F-0.375
S'small'
p20
tp21
as(S'perfect'
p22
tp23
(lp24
(I67
I3
F-0.5
S'afraid'
p25
tp26
a(I67
I3
I0
S'big'
p27
tp28
as(S'battery'
p29
S'life'
p30
tp31
(lp32
(I10
I6
F0.125
S'enough'
p33
tp34
a(I10
I6
F0.125
S'last'
p35
tp36
a(I12
I1
I0
S'great'
p37
tp38
a(I27
I1
I0
S'great'
p39
tp40
a(I43
I1
F-0.375
S'near'
p41
tp42
a(I43
I1
I0
S'sprint'
p43
tp44
a(I48
I0
F1.0
S'best'
p45
tp46
a(I82
I3
F-0.625
S'free'
p47
tp48
a(I82
I3
F1.0
S'good'
p49
tp50
a(I91
I0
I0
S'great'
p51
tp52
a(I127
I1
I0
S'great'
p53
tp54
a(I133
I9
F1.0
S'good'
p55
tp56
a(I140
I0
I0
S'great'
p57
tp58
a(I140
I0
F0.125
S'solid'
p59
tp60
a(I143
I9
F1.0
S'good'
p61
tp62
a(I146
I1
F0.375
S'extra'
p63
tp64
a(I149
I3
F0.375
S'extra'
p65
tp66
a(I149
I3
F-0.5
S'long'
p67
tp68
a(I154
I10
I0
S'great'
p69
tp70
a(I155
I1
I0
S'great'
p71
tp72
as(S'purchase'
p73
tp74
(lp75
(I21
I19
F0.875
S'happy'
p76
tp77
a(I29
I3
F0.5
S'absolute'
p78
tp79
a(I29
I4
F-0.375
S'double'
p80
tp81
a(I96
I3
F0.875
S'happy'
p82
tp83
a(I105
I0
I0
S'great'
p84
tp85
a(I153
I22
F0.875
S'happy'
p86
tp87
a(I153
I22
F0.375
S'new'
p88
tp89
as(S'android'
p90
tp91
(lp92
(I143
I1
I0
S'standard'
p93
tp94
as(S'tablet'
p95
tp96
(lp97
(I68
I6
F-0.375
S'small'
p98
tp99
a(I72
I2
F-0.5
S'actual'
p100
tp101
a(I73
I2
F1.0
S'best'
p102
tp103
a(I134
I4
F0.375
S'much'
p104
tp105
as(S'good'
p106
tp107
(lp108
(I147
I4
F1.0
S'good'
p109
tp110
a(I147
I4
I0
S'sprint'
p111
tp112
as(S'youtube'
p113
S'videos'
p114
tp115
(lp116
(I76
I5
F0.5
S'touch'
p117
tp118
a(I76
I5
F0.25
S'responsive'
p119
tp120
as(S'happy'
p121
tp122
(lp123
(I107
I6
F-0.25
S'esp'
p124
tp125
as(S'price'
p126
tp127
(lp128
(I6
I4
I0
S'great'
p129
tp130
a(I14
I3
I0
S'great'
p131
tp132
a(I28
I1
I0
S'such'
p133
tp134
a(I28
I1
F-0.25
S'low'
p135
tp136
a(I40
I0
F1.0
S'best'
p137
tp138
a(I61
I2
F-0.625
S'bad'
p139
tp140
a(I103
I0
I0
S'great'
p141
tp142
a(I103
I0
I0
S'fast'
p143
tp144
a(I125
I7
F-0.25
S'cheaper'
p145
tp146
a(I153
I8
F-0.25
S'low'
p147
tp148
a(I162
I3
F-0.875
S'negative'
p149
tp150
a(I171
I0
I0
S'great'
p151
tp152
as(S'service'
p153
tp154
(lp155
(I9
I4
F1.0
S'better'
p156
tp157
a(I43
I0
I0
S'activate'
p158
tp159
a(I43
I4
F-0.875
S'awful'
p160
tp161
a(I146
I2
F1.0
S'good'
p162
tp163
a(I146
I3
F0.5
S'so-so'
p164
tp165
as(S'everything'
p166
tp167
(lp168
(I104
I16
F-0.375
S'small'
p169
tp170
a(I153
I20
F-0.625
S'other'
p171
tp172
as(S'samsung'
p173
tp174
(lp175
(I25
I2
F-0.625
S'glad'
p176
tp177
a(I32
I6
F-0.25
S'past'
p178
tp179
a(I32
I7
F0.125
S'able'
p180
tp181
as(S'voice'
p182
tp183
(lp184
(I48
I5
F-0.25
S'google'
p185
tp186
a(I48
I6
F0.625
S'easy'
p187
tp188
a(I154
I3
F0.25
S'read'
p189
tp190
as(S'camera'
p191
tp192
(lp193
(I6
I8
I0
S'great'
p194
tp195
a(I6
I11
I0
S'fast'
p196
tp197
a(I6
I11
I0
S'great'
p198
tp199
a(I8
I3
F1.0
S'good'
p200
tp201
a(I17
I0
I0
S'great'
p202
tp203
a(I142
I1
F1.0
S'best'
p204
tp205
as(S'n'
p206
S'pocket'
p207
tp208
(lp209
(I49
I0
F0.625
S'easy'
p210
tp211
a(I49
I0
F0.75
S'fit'
p212
tp213
a(I135
I14
I0
S'more'
p214
tp215
a(I154
I6
I0
S'big'
p216
tp217
as(S'years'
p218
tp219
(lp220
(I125
I7
I0
S'many'
p221
tp222
as(S'sprint'
p223
tp224
(lp225
(I36
I0
F-0.25
S'cheaper'
p226
tp227
a(I72
I3
F0.125
S'usual'
p228
tp229
a(I130
I0
F-0.5
S'less'
p230
tp231
as(S'htc'
p232
S'evo'
p233
tp234
(lp235
(I104
I2
I0
S'few'
p236
tp237
as(S'quad'
p238
S'core'
p239
S'processor'
p240
tp241
(lp242
(I46
I3
I0
S'fast'
p243
tp244
a(I133
I2
F0.5
S'second'
p245
tp246
as(S'blue'
p247
S'tooth'
p248
tp249
(lp250
(I8
I10
I0
S'blue'
p251
tp252
a(I154
I7
I0
S'blue'
p253
tp254
a(I154
I7
I0
S'blue'
p255
tp256
as(S'apps'
p257
tp258
(lp259
(I11
I56
F-0.625
S'free'
p260
tp261
a(I31
I4
I0
S'great'
p262
tp263
a(I68
I5
F-0.5
S'power'
p264
tp265
a(I68
I5
F-0.25
S'intensive'
p266
tp267
a(I72
I2
I0
S'few'
p268
tp269
a(I73
I7
I0
S'many'
p270
tp271
a(I109
I3
I0
S'more'
p272
tp273
a(I120
I2
F-0.125
S'future'
p274
tp275
a(I153
I16
F0.75
S'precise'
p276
tp277
a(I154
I3
I0
S'few'
p278
tp279
a(I154
I3
F0.125
S'able'
p280
tp281
a(I163
I3
I0
S'great'
p282
tp283
as(S'life'
p284
tp285
(lp286
(I1
I0
F0.5
S'personal'
p287
tp288
a(I10
I6
F0.125
g35
tp289
a(I12
I1
I0
g37
tp290
a(I27
I1
I0
g39
tp291
a(I43
I1
F-0.375
g41
tp292
a(I43
I1
I0
g43
tp293
a(I133
I9
F1.0
g55
tp294
a(I140
I0
F0.125
g59
tp295
a(I143
I9
F1.0
g61
tp296
a(I154
I10
I0
g69
tp297
a(I155
I1
I0
g71
tp298
as(S'voice'
p299
S'mail'
p300
tp301
(lp302
(I48
I5
F-0.25
g185
tp303
a(I48
I6
F0.625
g187
tp304
as(S'everyone'
p305
tp306
(lp307
(I54
I0
I0
S'big'
p308
tp309
as(S'galaxy'
p310
tp311
(lp312
(I48
I0
F-0.875
S'inferior'
p313
tp314
a(I77
I10
F0.25
S'original'
p315
tp316
a(I135
I46
F-0.75
S'wrong'
p317
tp318
as(S'features'
p319
tp320
(lp321
(I0
I1
I0
S'many'
p322
tp323
a(I0
I1
F-0.625
S'other'
p324
tp325
a(I6
I6
I0
S'basic'
p326
tp327
a(I17
I2
F0.875
S'nice'
p328
tp329
a(I26
I3
I0
S'great'
p330
tp331
a(I39
I2
F-0.5
S'sure'
p332
tp333
a(I72
I2
F0.375
S'much'
p334
tp335
a(I78
I2
I0
S'many'
p336
tp337
a(I104
I15
F0.375
S'extra'
p338
tp339
a(I129
I2
I0
S'many'
p340
tp341
a(I133
I5
I0
S'standard'
p342
tp343
a(I133
I5
F-0.125
S'front'
p344
tp345
a(I149
I2
I0
S'more'
p346
tp347
a(I161
I10
I0
S'many'
p348
tp349
a(I164
I0
I0
S'great'
p350
tp351
as(S'pocket'
p352
tp353
(lp354
(I49
I0
F0.625
g210
tp355
a(I49
I0
F0.75
g212
tp356
a(I135
I14
I0
g214
tp357
a(I154
I6
I0
g216
tp358
as(S'verizon'
p359
tp360
(lp361
(I21
I4
F-0.25
S'cheaper'
p362
tp363
a(I147
I4
F0.5
S'expensive'
p364
tp365
as(S'people'
p366
tp367
(lp368
(I68
I7
I0
S'funny'
p369
tp370
a(I68
I12
F0.5
S'polite'
p371
tp372
a(I68
I12
F0.25
S'helpful'
p373
tp374
a(I82
I3
F-0.5
S'certain'
p375
tp376
a(I94
I3
I0
S'most'
p377
tp378
a(I135
I27
I0
S'few'
p379
tp380
as(S'devices'
p381
tp382
(lp383
(I5
I0
I0
S'cellular'
p384
tp385
a(I11
I4
I0
S'android'
p386
tp387
a(I135
I29
F0.125
S'capable'
p388
tp389
a(I161
I6
I0
S'many'
p390
tp391
as(S'galaxy'
p392
S'note'
p393
tp394
(lp395
(I77
I10
F0.25
g315
tp396
a(I135
I46
F-0.75
g317
tp397
as(S'weeks'
p398
tp399
(lp400
(I0
I1
F0.625
S'easy'
p401
tp402
a(I0
I1
I0
S'few'
p403
tp404
a(I0
I1
F-0.5
S'sure'
p405
tp406
a(I106
I0
I0
S'few'
p407
tp408
a(I106
I0
F0.875
S'happy'
p409
tp410
a(I119
I0
I0
S'few'
p411
tp412
a(I120
I3
I0
S'few'
p413
tp414
as(S'case'
p415
tp416
(lp417
(I8
I6
F-0.375
S'serious'
p418
tp419
as(S'works'
p420
tp421
(lp422
(I36
I1
I0
S'great'
p423
tp424
a(I77
I5
I0
S'paramedic'
p425
tp426
a(I97
I0
I0
S'great'
p427
tp428
as(S'hands'
p429
tp430
(lp431
(I10
I3
F0.25
S'larger'
p432
tp433
a(I10
I4
F-0.375
S'small'
p434
tp435
a(I22
I4
I0
S'large'
p436
tp437
a(I82
I4
I0
S'large'
p438
tp439
a(I96
I0
I0
S'big'
p440
tp441
a(I104
I6
F-0.375
S'small'
p442
tp443
a(I104
I8
F-0.375
S'smallest'
p444
tp445
a(I136
I6
I0
S'large'
p446
tp447
a(I159
I3
I0
S'big'
p448
tp449
a(I161
I3
F0.25
S'biggest'
p450
tp451
a(I166
I1
I0
S'big'
p452
tp453
a(I166
I1
F0.75
S'ideal'
p454
tp455
a(I169
I4
I0
S'big'
p456
tp457
as(S'display'
p458
tp459
(lp460
(I46
I1
I0
S'great'
p461
tp462
a(I46
I1
F-0.75
S'bright'
p463
tp464
a(I46
I1
I0
S'large'
p465
tp466
a(I58
I6
F-0.125
S'super'
p467
tp468
a(I58
I6
F0.5
S'clear'
p469
tp470
a(I153
I11
F0.25
S'responsive'
p471
tp472
a(I157
I0
I0
S'great'
p473
tp474
as(S'battery'
p475
tp476
(lp477
(I10
I6
F0.125
g33
tp478
a(I46
I1
F0.625
S'changeable'
p479
tp480
a(I48
I0
F1.0
g45
tp481
a(I71
I1
F0.125
S'last'
p482
tp483
a(I72
I2
F-0.25
S'thin'
p484
tp485
a(I72
I2
I0
S'large'
p486
tp487
a(I82
I3
F-0.625
g47
tp488
a(I82
I3
F1.0
g49
tp489
a(I90
I0
F-0.625
S'other'
p490
tp491
a(I91
I0
I0
g51
tp492
a(I127
I1
I0
g53
tp493
a(I135
I39
F0.625
S'removable'
p494
tp495
a(I140
I0
I0
g57
tp496
a(I146
I1
F0.375
g63
tp497
a(I149
I3
F0.375
g65
tp498
a(I149
I3
F-0.5
g67
tp499
a(I149
I4
F0.125
S'last'
p500
tp501
as(S'have'
p502
S'big'
p503
S'hands'
p504
tp505
(lp506
(I96
I0
I0
g440
tp507
a(I159
I3
I0
g448
tp508
a(I166
I1
I0
g452
tp509
a(I166
I1
F0.75
g454
tp510
a(I169
I4
I0
g456
tp511
as(S'store'
p512
tp513
(lp514
(I169
I1
I0
S'more'
p515
tp516
as(S'big'
p517
S'screen'
p518
tp519
(lp520
(I1
I2
I0
g5
tp521
a(I6
I4
I0
S'big'
p522
tp523
a(I46
I3
F0.25
S'bigger'
p524
tp525
a(I64
I4
F0.25
S'bigger'
p526
tp527
a(I66
I0
I0
S'big'
p528
tp529
a(I66
I0
F0.625
S'perfect'
p530
tp531
a(I68
I5
I0
S'big'
p532
tp533
a(I68
I5
F0.25
S'helpful'
p534
tp535
a(I92
I1
I0
S'big'
p536
tp537
a(I92
I3
I0
S'big'
p538
tp539
a(I92
I9
F0.25
S'bigger'
p540
tp541
a(I135
I29
F0.25
S'bigger'
p542
tp543
a(I135
I29
I0
S'full'
p544
tp545
a(I138
I0
I0
S'big'
p546
tp547
a(I143
I4
I0
S'big'
p548
tp549
a(I160
I5
F0.25
S'bigger'
p550
tp551
a(I165
I0
I0
S'big'
p552
tp553
as(S'samsung'
p554
S'galaxy'
p555
tp556
(lp557
(I48
I0
F-0.875
g313
tp558
as(S'note'
p559
tp560
(lp561
(I5
I3
F1.0
S'good'
p562
tp563
a(I6
I3
F0.5
S'second'
p564
tp565
a(I6
I14
F0.375
S'new'
p566
tp567
a(I8
I2
F0.125
S'first'
p568
tp569
a(I11
I40
I0
S'fluid'
p570
tp571
a(I22
I1
I0
S'curious'
p572
tp573
a(I22
I8
F0.375
S'content'
p574
tp575
a(I92
I9
F1.0
S'better'
p576
tp577
a(I141
I1
F0.625
S'interested'
p578
tp579
as(S'anything'
p580
tp581
(lp582
(I8
I4
F1.0
S'good'
p583
tp584
a(I12
I2
F1.0
S'better'
p585
tp586
a(I77
I1
F-0.375
S'small'
p587
tp588
as(S'thing'
p589
tp590
(lp591
(I11
I46
F0.25
S'main'
p592
tp593
a(I11
I46
I0
S'pen'
p594
tp595
a(I16
I6
F-0.875
S'worst'
p596
tp597
a(I18
I0
I0
S'next'
p598
tp599
a(I18
I0
I0
S'big'
p600
tp601
a(I77
I15
I0
S'only'
p602
tp603
a(I81
I2
I0
S'big'
p604
tp605
a(I110
I0
I0
S'most'
p606
tp607
a(I116
I4
I0
S'only'
p608
tp609
a(I116
I4
F-0.875
S'negative'
p610
tp611
a(I134
I1
I0
S'more'
p612
tp613
a(I146
I0
I0
S'only'
p614
tp615
a(I162
I0
I0
S'great'
p616
tp617
as(S'watching'
p618
S'movies'
p619
tp620
(lp621
(I152
I2
F0.875
S'music'
p622
tp623
as(S'update'
p624
tp625
(lp626
(I77
I7
I0
S'android'
p627
tp628
a(I100
I0
I0
S'android'
p629
tp630
as(S'device'
p631
tp632
(lp633
(I22
I7
F0.875
S'happy'
p634
tp635
a(I38
I1
F0.875
S'happier'
p636
tp637
a(I41
I2
F0.625
S'necessary'
p638
tp639
a(I43
I3
I0
S'great'
p640
tp641
a(I43
I4
I0
S'incredible'
p642
tp643
a(I62
I3
F0.625
S'easier'
p644
tp645
a(I72
I2
F0.625
S'easy'
p646
tp647
a(I77
I7
F0.125
S'first'
p648
tp649
a(I77
I12
F0.125
S'first'
p650
tp651
a(I104
I15
I0
S'next'
p652
tp653
a(I104
I17
F0.75
S'wonder'
p654
tp655
a(I104
I17
I0
S'such'
p656
tp657
a(I104
I17
F-0.375
S'small'
p658
tp659
a(I104
I18
F1.0
S'best'
p660
tp661
a(I120
I2
I0
S'great'
p662
tp663
a(I135
I6
I0
S'next'
p664
tp665
a(I135
I36
F0.25
S'powerful'
p666
tp667
a(I140
I0
F1.0
S'good'
p668
tp669
a(I161
I9
I0
S'big'
p670
tp671
a(I161
I9
F0.75
S'beautiful'
p672
tp673
as(S'quad'
p674
S'core'
p675
tp676
(lp677
(I21
I10
I0
S'quad'
p678
tp679
a(I46
I3
I0
g243
tp680
a(I133
I2
F0.5
g245
tp681
as(S'call'
p682
tp683
(lp684
(I93
I0
I0
S'great'
p685
tp686
as(S'still'
p687
tp688
(lp689
(I159
I2
F0.5
S'functional'
p690
tp691
as(S'screen'
p692
tp693
(lp694
(I1
I2
I0
g5
tp695
a(I6
I3
F0.75
S'beautiful'
p696
tp697
a(I6
I4
I0
g522
tp698
a(I6
I10
F0.75
S'beautiful'
p699
tp700
a(I10
I1
F0.375
g7
tp701
a(I11
I18
F-0.375
S'disable'
p702
tp703
a(I15
I1
F0.25
S'larger'
p704
tp705
a(I41
I1
I0
S'large'
p706
tp707
a(I46
I3
F0.25
g524
tp708
a(I46
I9
F-0.375
S'smaller'
p709
tp710
a(I48
I0
I0
S'most'
p711
tp712
a(I48
I0
F0.875
S'attractive'
p713
tp714
a(I48
I0
F0.625
S'thoughtful'
p715
tp716
a(I51
I0
F0.25
S'larger'
p717
tp718
a(I51
I0
F0.125
S'capable'
p719
tp720
a(I56
I3
I0
S'great'
p721
tp722
a(I64
I4
F0.25
g526
tp723
a(I66
I0
I0
g528
tp724
a(I66
I0
F0.625
g530
tp725
a(I68
I5
I0
g532
tp726
a(I68
I5
F0.25
g534
tp727
a(I72
I3
I0
S'few'
p728
tp729
a(I72
I3
F0.625
S'accessible'
p730
tp731
a(I77
I6
F0.75
S'beautiful'
p732
tp733
a(I78
I3
I0
S'faster'
p734
tp735
a(I78
I3
F0.25
S'larger'
p736
tp737
a(I86
I2
I0
S'large'
p738
tp739
a(I91
I0
I0
S'great'
p740
tp741
a(I92
I1
I0
g536
tp742
a(I92
I3
I0
g538
tp743
a(I92
I9
F0.25
g540
tp744
a(I111
I0
I0
S'large'
p745
tp746
a(I125
I0
F0.625
S'perfect'
p747
tp748
a(I135
I20
I0
g11
tp749
a(I135
I22
I0
S'real'
p750
tp751
a(I135
I29
F0.25
g542
tp752
a(I135
I29
I0
g544
tp753
a(I138
I0
I0
g546
tp754
a(I140
I3
I0
S'large'
p755
tp756
a(I143
I4
I0
g548
tp757
a(I149
I0
I0
S'large'
p758
tp759
a(I150
I0
I0
S'large'
p760
tp761
a(I152
I3
I0
S'large'
p762
tp763
a(I154
I2
F0.625
g13
tp764
a(I160
I5
F0.25
g550
tp765
a(I165
I0
I0
g552
tp766
as(S'time'
p767
tp768
(lp769
(I5
I2
F0.125
S'first'
p770
tp771
a(I77
I9
I0
S'same'
p772
tp773
a(I78
I0
F-0.125
S'former'
p774
tp775
a(I78
I0
F-0.5
S'long'
p776
tp777
a(I107
I11
F-0.75
S'dead'
p778
tp779
a(I107
I11
F-0.5
S'long'
p780
tp781
a(I107
I11
F0.25
S'bigger'
p782
tp783
a(I131
I1
F-0.5
S'long'
p784
tp785
a(I135
I8
I0
S'same'
p786
tp787
a(I135
I11
I0
S'same'
p788
tp789
a(I135
I16
F0.125
S'first'
p790
tp791
a(I144
I2
F-0.125
S'super'
p792
tp793
as(S'quality'
p794
tp795
(lp796
(I34
I1
F1.0
S'good'
p797
tp798
a(I68
I7
F0.5
S'clear'
p799
tp800
a(I107
I8
F0.5
S'clear'
p801
tp802
a(I127
I2
I0
S'great'
p803
tp804
a(I127
I3
F1.0
S'good'
p805
tp806
a(I132
I3
F1.0
S'good'
p807
tp808
a(I154
I3
F0.25
S'professional'
p809
tp810
as(S'stylus'
p811
tp812
(lp813
(I56
I1
I0
S'workflow'
p814
tp815
a(I56
I3
I0
S'more'
p816
tp817
a(I56
I3
F-0.625
S'natural'
p818
tp819
a(I90
I1
F0.875
S'happy'
p820
tp821
as(S'love'
p822
tp823
(lp824
(I35
I1
I0
S'january'
p825
tp826
as(S'size'
p827
tp828
(lp829
(I6
I12
F0.375
S'enable'
p830
tp831
a(I10
I3
I0
S'large'
p832
tp833
a(I10
I3
F0.625
S'easier'
p834
tp835
a(I11
I6
I0
S'big'
p836
tp837
a(I11
I6
F1.0
S'good'
p838
tp839
a(I22
I3
F-0.125
S'overall'
p840
tp841
a(I35
I2
F-0.875
g9
tp842
a(I42
I4
I0
S'more'
p843
tp844
a(I104
I6
F-0.75
S'uneasy'
p845
tp846
a(I123
I3
I0
S'great'
p847
tp848
a(I123
I3
F0.875
S'nice'
p849
tp850
a(I161
I1
I0
S'most'
p851
tp852
a(I161
I1
I0
S'big'
p853
tp854
a(I161
I4
F-0.625
S'other'
p855
tp856
as(S'customer'
p857
S'service'
p858
tp859
(lp860
(I68
I13
F0.25
S'helpful'
p861
tp862
a(I125
I8
F0.5
S'willing'
p863
tp864
as(S'going'
p865
tp866
(lp867
(I32
I7
I0
S'deductible'
p868
tp869
as(S'great'
p870
S'battery'
p871
S'life'
p872
tp873
(lp874
(I12
I1
I0
g37
tp875
a(I27
I1
I0
g39
tp876
a(I91
I0
I0
g51
tp877
a(I127
I1
I0
g53
tp878
a(I133
I9
F1.0
g55
tp879
a(I140
I0
I0
g57
tp880
a(I140
I0
F0.125
g59
tp881
a(I154
I10
I0
g69
tp882
a(I155
I1
I0
g71
tp883
as(S'work'
p884
tp885
(lp886
(I70
I0
F1.0
S'good'
p887
tp888
as(S's'
p889
S'pen'
p890
tp891
(lp892
(I8
I2
F-0.75
S'uncomfortable'
p893
tp894
a(I46
I10
I0
S'cool'
p895
tp896
a(I68
I6
I0
S'great'
p897
tp898
a(I153
I16
F-0.5
S'actual'
p899
tp900
as(S'days'
p901
tp902
(lp903
(I2
I1
F-0.625
S'moderate'
p904
tp905
a(I41
I2
I0
S'few'
p906
tp907
a(I77
I1
I0
S'more'
p908
tp909
a(I77
I1
I0
S'few'
p910
tp911
a(I118
I6
I0
S'few'
p912
tp913
a(I120
I0
I0
S'few'
p914
tp915
a(I138
I2
I0
S'few'
p916
tp917
as(S'computer'
p918
tp919
(lp920
(I11
I43
I0
S'unbelievable'
p921
tp922
a(I65
I5
I0
S'old'
p923
tp924
as(S'fast'
p925
tp926
(lp927
(I71
I2
F-0.125
S'super'
p928
tp929
a(I127
I0
I0
S'great'
p930
tp931
a(I136
I10
F0.25
S'responsive'
p932
tp933
as(S'every'
p934
tp935
(lp936
(I10
I9
F0.75
S'worth'
p937
tp938
as.