(dp0
(S'of'
p1
S'nternal'
p2
S'storage'
p3
tp4
(lp5
(I22
I1
I0
S'internal'
p6
tp7
a(I56
I4
F-0.75
S'little'
p8
tp9
a(I56
I4
I0
S'internal'
p10
tp11
a(I56
I4
F0.375
S'forcing'
p12
tp13
a(I57
I96
I0
S'internal'
p14
tp15
a(I81
I3
I0
S'internal'
p16
tp17
a(I83
I13
F0.875
S'music'
p18
tp19
a(I120
I0
I0
S'internal'
p20
tp21
a(I227
I3
I0
S'internal'
p22
tp23
a(I233
I2
I0
S'internal'
p24
tp25
a(I233
I2
F-0.875
S'hard'
p26
tp27
a(I233
I2
F0.5
S'drive'
p28
tp29
a(I233
I2
I0
S'internal'
p30
tp31
a(I233
I2
F-0.375
S'small'
p32
tp33
a(I233
I2
I0
S'internal'
p34
tp35
a(I233
I4
I0
S'internal'
p36
tp37
a(I233
I4
I0
S'internal'
p38
tp39
a(I268
I12
F-0.25
S'low'
p40
tp41
a(I268
I12
I0
S'internal'
p42
tp43
as(S'nice'
p44
tp45
(lp46
(I50
I4
F-0.625
S'generous'
p47
tp48
a(I69
I1
I0
S'large'
p49
tp50
a(I82
I15
I0
S'few'
p51
tp52
as(S'call'
p53
S'quality'
p54
tp55
(lp56
(I13
I8
F1.0
S'good'
p57
tp58
a(I29
I3
I0
S'great'
p59
tp60
a(I29
I3
F1.0
S'good'
p61
tp62
a(I40
I4
F1.0
S'good'
p63
tp64
a(I56
I3
F0.125
S'impressive'
p65
tp66
a(I123
I2
F0.625
S'easy'
p67
tp68
a(I125
I2
F0.25
S'sharp'
p69
tp70
a(I199
I9
F0.875
S'nice'
p71
tp72
as(S'quad'
p73
S'core'
p74
tp75
(lp76
(I211
I2
I0
S'quad'
p77
tp78
as(S'operating'
p79
S'system'
p80
tp81
(lp82
(I200
I66
I0
S'android'
p83
tp84
as(S'high'
p85
S'end'
p86
tp87
(lp88
(I38
I7
I0
S'high'
p89
tp90
a(I86
I18
F-0.25
S'higher'
p91
tp92
a(I106
I3
I0
S'high'
p93
tp94
a(I106
I6
I0
S'high'
p95
tp96
a(I154
I1
I0
S'high'
p97
tp98
a(I166
I19
I0
S'high'
p99
tp100
a(I168
I8
I0
S'high'
p101
tp102
a(I168
I18
I0
S'high'
p103
tp104
a(I172
I5
I0
S'high'
p105
tp106
a(I188
I7
I0
S'high'
p107
tp108
a(I219
I1
I0
S'high'
p109
tp110
a(I262
I0
I0
S'high'
p111
tp112
as(S'to'
p113
S'r'
p114
S'sd'
p115
tp116
(lp117
(I13
I6
F0.25
S'bigger'
p118
tp119
a(I13
I6
F0.25
S'bigger'
p120
tp121
a(I29
I1
I0
S'external'
p122
tp123
a(I29
I8
F0.375
S'much'
p124
tp125
a(I29
I8
F0.5
S'possible'
p126
tp127
a(I33
I3
I0
S'external'
p128
tp129
a(I45
I1
I0
S'external'
p130
tp131
a(I66
I1
I0
S'external'
p132
tp133
a(I68
I13
I0
S'external'
p134
tp135
a(I87
I13
F0.875
S'music'
p136
tp137
a(I125
I2
F-0.25
S'higher'
p138
tp139
a(I170
I0
I0
S'external'
p140
tp141
a(I185
I0
I0
S'external'
p142
tp143
a(I190
I0
I0
S'external'
p144
tp145
a(I198
I6
F0.375
S'available'
p146
tp147
a(I211
I17
I0
S'external'
p148
tp149
a(I211
I18
I0
S'external'
p150
tp151
a(I260
I1
I0
S'external'
p152
tp153
as(S'to'
p154
S'sd'
p155
S'card'
p156
tp157
(lp158
(I13
I6
F0.25
g118
tp159
a(I13
I6
F0.25
g120
tp160
a(I29
I8
F0.375
g124
tp161
a(I29
I8
F0.5
g126
tp162
a(I33
I3
I0
g128
tp163
a(I57
I49
I0
S'hot'
p164
tp165
a(I66
I1
I0
g132
tp166
a(I68
I13
I0
g134
tp167
a(I87
I13
F0.875
g136
tp168
a(I125
I2
F-0.25
g138
tp169
a(I170
I0
I0
g140
tp170
a(I172
I2
F-0.625
S'free'
p171
tp172
a(I185
I0
I0
g142
tp173
a(I190
I0
I0
g144
tp174
a(I200
I14
F-0.875
S'hard'
p175
tp176
a(I260
I1
I0
g152
tp177
as(S'sd'
p178
S'card'
p179
tp180
(lp181
(I13
I6
F0.25
g118
tp182
a(I13
I6
F0.25
g120
tp183
a(I29
I8
F0.375
g124
tp184
a(I29
I8
F0.5
g126
tp185
a(I33
I3
I0
g128
tp186
a(I57
I49
I0
g164
tp187
a(I66
I1
I0
g132
tp188
a(I68
I13
I0
g134
tp189
a(I87
I13
F0.875
g136
tp190
a(I108
I2
I0
S'sd'
p191
tp192
a(I125
I2
F-0.25
g138
tp193
a(I162
I11
I0
S'sd'
p194
tp195
a(I170
I0
I0
g140
tp196
a(I172
I2
F-0.625
g171
tp197
a(I185
I0
I0
g142
tp198
a(I190
I0
I0
g144
tp199
a(I200
I14
F-0.875
g175
tp200
a(I260
I1
I0
g152
tp201
as(S'ts'
p202
S'price'
p203
tp204
(lp205
(I36
I1
I0
S'great'
p206
tp207
a(I49
I1
F0.75
S'worth'
p208
tp209
a(I57
I96
F-0.25
S'low'
p210
tp211
a(I243
I0
F1.0
S'good'
p212
tp213
as(S'case'
p214
tp215
(lp216
(I94
I16
F0.875
S'lucky'
p217
tp218
a(I94
I16
I0
S'special'
p219
tp220
a(I94
I16
I0
S'rubberized'
p221
tp222
a(I104
I5
F-0.5
S'sure'
p223
tp224
a(I104
I5
F1.0
S'good'
p225
tp226
a(I163
I5
F0.125
S'protective'
p227
tp228
as(S'ice'
p229
S'cream'
p230
tp231
(lp232
(I47
I8
F0.875
S'nice'
p233
tp234
a(I47
I8
F0.375
S'new'
p235
tp236
a(I57
I26
I0
S'android'
p237
tp238
as(S'apps'
p239
S'to'
p240
S'sd'
p241
tp242
(lp243
(I33
I3
I0
S'download'
p244
tp245
a(I33
I3
I0
g128
tp246
a(I45
I1
I0
g130
tp247
a(I66
I1
I0
g132
tp248
a(I68
I13
I0
g134
tp249
a(I82
I24
I0
S'many'
p250
tp251
a(I170
I0
I0
g140
tp252
a(I185
I0
I0
g142
tp253
a(I190
I0
F-0.375
S'smaller'
p254
tp255
a(I190
I0
I0
g144
tp256
a(I200
I14
I0
S'such'
p257
tp258
a(I200
I14
I0
S'many'
p259
tp260
a(I211
I17
I0
g148
tp261
a(I227
I5
I0
S'normal'
p262
tp263
a(I237
I16
I0
S'android'
p264
tp265
a(I254
I12
F0.375
S'new'
p266
tp267
a(I260
I1
I0
g152
tp268
a(I260
I1
I0
S'few'
p269
tp270
as(S'excellent'
p271
tp272
(lp273
(I112
I1
I0
S'internal'
p274
tp275
a(I216
I2
F-0.125
S'overall'
p276
tp277
as(S'store'
p278
tp279
(lp280
(I20
I1
I0
S'such'
p281
tp282
a(I20
I1
F-0.5
S'less'
p283
tp284
a(I20
I1
I0
S'local'
p285
tp286
a(I58
I0
F-0.75
S'wrong'
p287
tp288
a(I70
I2
I0
S'many'
p289
tp290
a(I188
I3
I0
S'assistant'
p291
tp292
as(S'external'
p293
S'sd'
p294
tp295
(lp296
(I29
I1
I0
g122
tp297
a(I33
I3
I0
g128
tp298
a(I45
I1
I0
g130
tp299
a(I66
I1
I0
g132
tp300
a(I68
I13
I0
g134
tp301
a(I170
I0
I0
g140
tp302
a(I185
I0
I0
g142
tp303
a(I190
I0
I0
g144
tp304
a(I211
I17
I0
g148
tp305
a(I211
I18
I0
g150
tp306
a(I260
I1
I0
g152
tp307
as(S'anything'
p308
tp309
(lp310
(I43
I1
F1.0
S'good'
p311
tp312
a(I43
I1
F-0.625
S'other'
p313
tp314
a(I82
I9
I0
S'special'
p315
tp316
a(I86
I25
I0
S'hot'
p317
tp318
a(I156
I8
F-0.625
S'other'
p319
tp320
a(I208
I3
F-0.875
S'negative'
p321
tp322
as(S'sim'
p323
S'card'
p324
tp325
(lp326
(I36
I2
F-0.5
S'regular'
p327
tp328
a(I57
I48
I0
S'underneath'
p329
tp330
a(I126
I0
F0.375
S'new'
p331
tp332
a(I162
I3
F-0.5
S'regular'
p333
tp334
a(I162
I3
I0
S'sized'
p335
tp336
as(S'ce'
p337
S'cream'
p338
S'sandwich'
p339
tp340
(lp341
(I30
I0
F-0.125
S'bean'
p342
tp343
a(I47
I8
F0.875
g233
tp344
a(I47
I8
F0.375
g235
tp345
as(S'optimus'
p346
S'l9'
p347
tp348
(lp349
(I57
I6
I0
S'asian'
p350
tp351
a(I166
I17
F0.875
S'music'
p352
tp353
a(I200
I24
I0
S'android'
p354
tp355
as(S'optimus'
p356
tp357
(lp358
(I200
I24
I0
g354
tp359
as(S'smartphone'
p360
tp361
(lp362
(I25
I1
F0.5
S'true'
p363
tp364
a(I50
I0
F1.0
S'best'
p365
tp366
a(I53
I0
F0.125
S'first'
p367
tp368
a(I73
I0
F0.375
S'new'
p369
tp370
a(I73
I14
I0
S'useful'
p371
tp372
a(I76
I0
F0.375
S'new'
p373
tp374
a(I82
I31
I0
S'great'
p375
tp376
a(I162
I1
F-0.375
S'simple'
p377
tp378
a(I181
I1
F1.0
S'good'
p379
tp380
a(I181
I1
F0.375
S'new'
p381
tp382
a(I225
I3
F-0.5
S'less'
p383
tp384
a(I225
I3
F-0.25
S'inexpensive'
p385
tp386
a(I236
I0
I0
S'great'
p387
tp388
as(S'card'
p389
tp390
(lp391
(I57
I48
I0
g329
tp392
a(I57
I49
I0
g164
tp393
a(I108
I2
I0
g191
tp394
a(I162
I11
I0
g194
tp395
a(I172
I2
F-0.625
g171
tp396
a(I200
I14
F-0.875
g175
tp397
a(I200
I64
F-0.875
S'hard'
p398
tp399
a(I254
I2
F0.375
S'extra'
p400
tp401
a(I254
I2
F-0.5
S'less'
p402
tp403
a(I260
I2
I0
S'external'
p404
tp405
a(I260
I3
I0
S'external'
p406
tp407
as(S't'
p408
S'mobile'
p409
S'store'
p410
tp411
(lp412
(I20
I1
I0
g281
tp413
a(I20
I1
F-0.5
g283
tp414
a(I20
I1
I0
g285
tp415
a(I233
I3
F-0.25
S'google'
p416
tp417
as(S'an'
p418
S'sd'
p419
S'card'
p420
tp421
(lp422
(I29
I8
F0.375
g124
tp423
a(I29
I8
F0.5
g126
tp424
a(I33
I3
I0
g128
tp425
a(I57
I49
I0
g164
tp426
a(I66
I1
I0
g132
tp427
a(I68
I13
I0
g134
tp428
a(I87
I13
F0.875
g136
tp429
a(I108
I2
I0
g191
tp430
a(I125
I2
F-0.25
g138
tp431
a(I162
I11
I0
g194
tp432
a(I170
I0
I0
g140
tp433
a(I172
I2
F-0.625
g171
tp434
a(I185
I0
I0
g142
tp435
a(I190
I0
I0
g144
tp436
a(I200
I14
F-0.875
g175
tp437
a(I260
I1
I0
g152
tp438
as(S'wifi'
p439
tp440
(lp441
(I16
I4
F0.125
S'outside'
p442
tp443
a(I16
I5
I0
S'stable'
p444
tp445
a(I16
I5
I0
S'common'
p446
tp447
a(I16
I5
F-0.875
S'negative'
p448
tp449
a(I28
I3
I0
S'net'
p450
tp451
a(I28
I3
I0
S'quick'
p452
tp453
a(I251
I10
F-0.625
S'free'
p454
tp455
as(S'space'
p456
S'for'
p457
S'apps'
p458
tp459
(lp460
(I227
I5
I0
S'more'
p461
tp462
a(I227
I5
I0
g262
tp463
as(S'fast'
p464
tp465
(lp466
(I125
I2
F0.5
S'expensive'
p467
tp468
a(I125
I2
F-0.125
S'super'
p469
tp470
a(I157
I3
I0
S'real'
p471
tp472
a(I185
I0
F1.0
S'good'
p473
tp474
as(S'problem'
p475
tp476
(lp477
(I44
I5
I0
S'big'
p478
tp479
a(I44
I8
F-0.625
S'inevitable'
p480
tp481
a(I58
I0
F0.5
S'technical'
p482
tp483
a(I144
I4
I0
S'only'
p484
tp485
a(I150
I8
I0
S'only'
p486
tp487
a(I167
I2
I0
S'only'
p488
tp489
a(I188
I6
F0.25
S'biggest'
p490
tp491
a(I188
I11
F0.25
S'biggest'
p492
tp493
a(I230
I7
I0
S'exclusive'
p494
tp495
a(I232
I6
F-0.75
S'worse'
p496
tp497
a(I254
I0
F-0.375
S'simple'
p498
tp499
a(I268
I0
I0
S'particular'
p500
tp501
as(S'a'
p502
S'micro'
p503
S'sim'
p504
tp505
(lp506
(I36
I2
F-0.5
g327
tp507
a(I82
I2
F0.125
S'usual'
p508
tp509
a(I163
I3
F-0.5
S'regular'
p510
tp511
a(I188
I3
F0.375
S'new'
p512
tp513
as(S'money'
p514
tp515
(lp516
(I44
I10
F1.0
S'best'
p517
tp518
a(I44
I10
F1.0
S'best'
p519
tp520
a(I64
I0
F1.0
S'good'
p521
tp522
a(I76
I9
F-0.75
S'short'
p523
tp524
a(I86
I0
F1.0
S'best'
p525
tp526
a(I156
I8
F0.375
S'extra'
p527
tp528
a(I168
I18
F0.375
S'extra'
p529
tp530
as(S'price'
p531
tp532
(lp533
(I12
I2
I0
S'great'
p534
tp535
a(I16
I1
I0
S'great'
p536
tp537
a(I17
I1
F1.0
S'best'
p538
tp539
a(I36
I1
I0
g206
tp540
a(I49
I1
F0.75
g208
tp541
a(I54
I2
F1.0
S'good'
p542
tp543
a(I54
I3
F1.0
S'good'
p544
tp545
a(I57
I90
F1.0
S'good'
p546
tp547
a(I57
I96
F-0.25
g210
tp548
a(I80
I1
F-0.25
S'cheaper'
p549
tp550
a(I96
I3
F-0.25
S'higher'
p551
tp552
a(I96
I3
I0
S'great'
p553
tp554
a(I104
I1
I0
S'great'
p555
tp556
a(I105
I0
I0
S'great'
p557
tp558
a(I112
I0
F0.5
S'reasonable'
p559
tp560
a(I115
I7
F1.0
S'good'
p561
tp562
a(I142
I1
I0
S'great'
p563
tp564
a(I184
I1
F-0.375
S'small'
p565
tp566
a(I188
I10
I0
S'great'
p567
tp568
a(I200
I3
I0
S'retail'
p569
tp570
a(I214
I3
I0
S'great'
p571
tp572
a(I227
I14
I0
S'great'
p573
tp574
a(I243
I0
F1.0
g212
tp575
a(I257
I8
F-0.125
S'mine'
p576
tp577
as(g230
S'sandwich'
p578
tp579
(lp580
(I30
I0
F-0.125
g342
tp581
a(I47
I8
F0.875
g233
tp582
a(I47
I8
F0.375
g235
tp583
as(S'need'
p584
tp585
(lp586
(I57
I86
F1.0
S'good'
p587
tp588
a(I57
I86
I0
S'most'
p589
tp590
as(S'gorilla'
p591
S'glass'
p592
tp593
(lp594
(I130
I1
F-0.25
S'thin'
p595
tp596
a(I130
I1
I0
S'quick'
p597
tp598
a(I130
I1
I0
S'net'
p599
tp600
a(I211
I23
F-0.375
S'smooth'
p601
tp602
as(S'front'
p603
S'facing'
p604
S'camera'
p605
tp606
(lp607
(I86
I5
F1.0
S'good'
p608
tp609
as(S'memory'
p610
tp611
(lp612
(I8
I2
I0
S'least'
p613
tp614
a(I13
I6
I0
S'internal'
p615
tp616
a(I29
I15
F-0.5
S'less'
p617
tp618
a(I30
I1
I0
S'internal'
p619
tp620
a(I53
I3
F0.375
S'much'
p621
tp622
a(I57
I46
I0
S'internal'
p623
tp624
a(I57
I87
I0
S'external'
p625
tp626
a(I68
I19
I0
S'internal'
p627
tp628
a(I86
I20
I0
S'internal'
p629
tp630
a(I88
I0
I0
S'more'
p631
tp632
a(I106
I4
F-0.25
S'lower'
p633
tp634
a(I108
I1
I0
S'internal'
p635
tp636
a(I115
I1
I0
S'internal'
p637
tp638
a(I119
I1
I0
S'internal'
p639
tp640
a(I150
I2
F0.375
S'much'
p641
tp642
a(I158
I2
I0
S'more'
p643
tp644
a(I158
I2
I0
S'internal'
p645
tp646
a(I169
I9
F0.125
S'enough'
p647
tp648
a(I170
I0
I0
S'few'
p649
tp650
a(I170
I0
I0
S'internal'
p651
tp652
a(I170
I1
F0.25
S'larger'
p653
tp654
a(I170
I1
I0
S'internal'
p655
tp656
a(I172
I2
I0
S'internal'
p657
tp658
a(I178
I6
I0
S'full'
p659
tp660
a(I185
I0
F-0.25
S'low'
p661
tp662
a(I185
I0
I0
S'internal'
p663
tp664
a(I190
I0
I0
S'internal'
p665
tp666
a(I190
I0
F1.0
S'good'
p667
tp668
a(I190
I0
F0.75
S'due'
p669
tp670
a(I190
I0
F-0.5
S'sure'
p671
tp672
a(I190
I0
I0
S'more'
p673
tp674
a(I190
I0
I0
S'internal'
p675
tp676
a(I190
I0
F0.375
S'available'
p677
tp678
a(I190
I0
F-0.125
S'minimum'
p679
tp680
a(I190
I0
F0.5
S'recommended'
p681
tp682
a(I194
I2
F-0.375
S'smaller'
p683
tp684
a(I233
I0
I0
S'internal'
p685
tp686
a(I233
I2
I0
S'electronic'
p687
tp688
a(I236
I4
I0
S'internal'
p689
tp690
a(I237
I1
I0
S'internal'
p691
tp692
a(I237
I5
I0
S'internal'
p693
tp694
a(I237
I5
F0.5
S'expensive'
p695
tp696
a(I244
I0
F0.375
S'much'
p697
tp698
a(I244
I0
I0
S'internal'
p699
tp700
a(I254
I1
I0
S'internal'
p701
tp702
a(I254
I10
I0
S'internal'
p703
tp704
a(I260
I1
I0
S'internal'
p705
tp706
a(I260
I1
I0
S'more'
p707
tp708
a(I260
I2
I0
S'internal'
p709
tp710
a(I260
I3
I0
S'internal'
p711
tp712
a(I272
I2
I0
S'local'
p713
tp714
as(S'features'
p715
tp716
(lp717
(I20
I4
I0
S'great'
p718
tp719
a(I44
I7
I0
S'great'
p720
tp721
a(I49
I1
I0
S'great'
p722
tp723
a(I55
I0
F0.875
S'nice'
p724
tp725
a(I70
I0
I0
S'many'
p726
tp727
a(I74
I1
F0.625
S'easy'
p728
tp729
a(I74
I1
F0.625
S'easy'
p730
tp731
a(I74
I1
F1.0
S'good'
p732
tp733
a(I83
I7
F0.25
S'sharp'
p734
tp735
a(I86
I1
I0
S'same'
p736
tp737
a(I106
I3
I0
S'most'
p738
tp739
a(I140
I0
F1.0
S'good'
p740
tp741
a(I148
I0
F0.125
S'enough'
p742
tp743
a(I219
I0
F-0.625
S'other'
p744
tp745
a(I226
I1
I0
S'great'
p746
tp747
a(I226
I1
I0
S'great'
p748
tp749
a(I248
I2
I0
S'most'
p750
tp751
a(I248
I2
I0
S'same'
p752
tp753
a(I268
I11
F1.0
S'best'
p754
tp755
a(I271
I2
I0
S'android'
p756
tp757
as(S'high'
p758
tp759
(lp760
(I83
I7
F0.375
S'extra'
p761
tp762
as(S'micro'
p763
S'sim'
p764
S'card'
p765
tp766
(lp767
(I36
I2
F-0.5
g327
tp768
a(I57
I48
I0
g329
tp769
a(I188
I3
F0.375
g512
tp770
as(S'nternal'
p771
S'storage'
p772
tp773
(lp774
(I8
I2
I0
S'limited'
p775
tp776
a(I8
I2
I0
S'internal'
p777
tp778
a(I22
I1
I0
g6
tp779
a(I24
I9
I0
S'internal'
p780
tp781
a(I56
I4
F-0.75
g8
tp782
a(I56
I4
I0
g10
tp783
a(I56
I4
F0.375
g12
tp784
a(I57
I88
I0
S'internal'
p785
tp786
a(I57
I96
I0
g14
tp787
a(I81
I3
I0
g16
tp788
a(I83
I13
F0.875
g18
tp789
a(I120
I0
I0
g20
tp790
a(I179
I9
I0
S'internal'
p791
tp792
a(I184
I1
I0
S'internal'
p793
tp794
a(I227
I3
I0
g22
tp795
a(I233
I2
I0
g24
tp796
a(I233
I2
F-0.875
g26
tp797
a(I233
I2
F0.5
g28
tp798
a(I233
I2
I0
g30
tp799
a(I233
I2
F-0.375
g32
tp800
a(I233
I2
I0
g34
tp801
a(I233
I4
I0
g36
tp802
a(I233
I4
I0
g38
tp803
a(I268
I12
F-0.25
g40
tp804
a(I268
I12
I0
g42
tp805
as(S'on'
p806
S'sd'
p807
S'card'
p808
tp809
(lp810
(I13
I6
F0.25
g118
tp811
a(I13
I6
F0.25
g120
tp812
a(I33
I3
I0
g128
tp813
a(I57
I49
I0
g164
tp814
a(I66
I1
I0
g132
tp815
a(I108
I2
I0
g191
tp816
a(I125
I2
F-0.25
g138
tp817
a(I162
I11
I0
g194
tp818
a(I170
I0
I0
g140
tp819
a(I172
I2
F-0.625
g171
tp820
a(I185
I0
I0
g142
tp821
a(I190
I0
I0
g144
tp822
a(I200
I14
F-0.875
g175
tp823
a(I260
I1
I0
g152
tp824
as(S'video'
p825
tp826
(lp827
(I57
I50
F-0.625
S'bad'
p828
tp829
a(I57
I63
F1.0
S'good'
p830
tp831
a(I94
I7
F-0.25
S'direct'
p832
tp833
a(I139
I10
F1.0
S'good'
p834
tp835
a(I200
I55
F0.625
S'fair'
p836
tp837
as(S'android'
p838
tp839
(lp840
(I0
I1
F1.0
S'best'
p841
tp842
a(I104
I4
F0.375
S'new'
p843
tp844
a(I125
I2
F0.375
S'newer'
p845
tp846
a(I151
I5
F0.125
S'first'
p847
tp848
a(I185
I0
F-0.125
S'bean'
p849
tp850
a(I212
I1
F0.375
S'newest'
p851
tp852
a(I233
I5
F-0.25
S'google'
p853
tp854
a(I233
I5
I0
S'android'
p855
tp856
as(S'bloatware'
p857
tp858
(lp859
(I48
I2
F-0.375
S'smoother'
p860
tp861
a(I64
I0
I0
S'few'
p862
tp863
a(I64
I0
F-0.875
S'awful'
p864
tp865
as(S'for'
p866
S'ts'
p867
S'price'
p868
tp869
(lp870
(I36
I1
I0
g206
tp871
a(I57
I96
F-0.25
g210
tp872
a(I243
I0
F1.0
g212
tp873
as(S'thing'
p874
tp875
(lp876
(I20
I3
F-0.625
S'other'
p877
tp878
a(I20
I3
F1.0
S'good'
p879
tp880
a(I24
I12
F-0.75
S'stupid'
p881
tp882
a(I33
I1
F-0.75
S'difficult'
p883
tp884
a(I35
I0
F-0.875
S'worst'
p885
tp886
a(I36
I3
F1.0
S'good'
p887
tp888
a(I43
I4
F0.25
S'biggest'
p889
tp890
a(I44
I8
F0.625
S'noticeable'
p891
tp892
a(I73
I4
F-0.625
S'bad'
p893
tp894
a(I81
I2
F0.625
S'major'
p895
tp896
a(I81
I2
F-0.75
S'wrong'
p897
tp898
a(I87
I25
I0
S'only'
p899
tp900
a(I94
I14
F-0.625
S'other'
p901
tp902
a(I123
I4
F-0.875
S'worst'
p903
tp904
a(I143
I4
I0
S'funny'
p905
tp906
a(I159
I13
I0
S'only'
p907
tp908
a(I162
I16
F1.0
S'good'
p909
tp910
a(I168
I15
F0.125
S'solid'
p911
tp912
a(I169
I7
F-0.75
S'worse'
p913
tp914
a(I169
I7
F-0.625
S'bad'
p915
tp916
a(I230
I9
I0
S'only'
p917
tp918
a(I233
I1
I0
S'same'
p919
tp920
a(I256
I0
I0
S'only'
p921
tp922
a(I268
I2
F-0.75
S'uncomfortable'
p923
tp924
as(S'nternal'
p925
S'memory'
p926
tp927
(lp928
(I8
I2
I0
g613
tp929
a(I13
I6
I0
g615
tp930
a(I30
I1
I0
g619
tp931
a(I57
I46
I0
g623
tp932
a(I68
I19
I0
g627
tp933
a(I86
I20
I0
g629
tp934
a(I108
I1
I0
g635
tp935
a(I115
I1
I0
g637
tp936
a(I119
I1
I0
g639
tp937
a(I158
I2
I0
g643
tp938
a(I158
I2
I0
g645
tp939
a(I170
I0
I0
g649
tp940
a(I170
I0
I0
g651
tp941
a(I170
I1
F0.25
g653
tp942
a(I170
I1
I0
g655
tp943
a(I172
I2
I0
g657
tp944
a(I185
I0
F-0.25
g661
tp945
a(I185
I0
I0
g663
tp946
a(I190
I0
I0
g665
tp947
a(I190
I0
F1.0
g667
tp948
a(I190
I0
F0.75
g669
tp949
a(I190
I0
F-0.5
g671
tp950
a(I190
I0
I0
g673
tp951
a(I190
I0
I0
g675
tp952
a(I190
I0
F0.375
g677
tp953
a(I190
I0
F-0.125
g679
tp954
a(I190
I0
F0.5
g681
tp955
a(I233
I0
I0
g685
tp956
a(I233
I2
I0
g687
tp957
a(I236
I4
I0
g689
tp958
a(I237
I1
I0
g691
tp959
a(I237
I5
I0
g693
tp960
a(I237
I5
F0.5
g695
tp961
a(I244
I0
F0.375
g697
tp962
a(I244
I0
I0
g699
tp963
a(I254
I1
I0
g701
tp964
a(I254
I10
I0
g703
tp965
a(I260
I1
I0
g705
tp966
a(I260
I1
I0
g707
tp967
a(I260
I2
I0
g709
tp968
a(I260
I3
I0
g711
tp969
as(S'data'
p970
tp971
(lp972
(I13
I2
I0
S'more'
p973
tp974
a(I32
I3
F0.375
S'extra'
p975
tp976
a(I33
I4
I0
S'external'
p977
tp978
a(I78
I11
I0
S'large'
p979
tp980
a(I166
I8
I0
S'old'
p981
tp982
a(I200
I8
I0
S'least'
p983
tp984
a(I200
I8
F0.5
S'expensive'
p985
tp986
a(I251
I10
I0
S'prepaid'
p987
tp988
a(I268
I7
I0
S'monthly'
p989
tp990
a(I272
I3
F-0.5
S'heavy'
p991
tp992
a(I273
I1
I0
S'more'
p993
tp994
a(I273
I1
F-0.5
S'less'
p995
tp996
as(S'quality'
p997
tp998
(lp999
(I29
I3
F1.0
g61
tp1000
a(I33
I4
I0
S'such'
p1001
tp1002
a(I40
I4
F1.0
g63
tp1003
a(I47
I5
I0
S'same'
p1004
tp1005
a(I47
I5
I0
S'fast'
p1006
tp1007
a(I56
I3
F0.125
g65
tp1008
a(I56
I4
F-0.5
S'poor'
p1009
tp1010
a(I57
I17
I0
S'plastic'
p1011
tp1012
a(I57
I17
I0
S'high'
p1013
tp1014
a(I68
I34
F1.0
S'good'
p1015
tp1016
a(I79
I1
I0
S'graphic'
p1017
tp1018
a(I94
I14
F1.0
S'better'
p1019
tp1020
a(I123
I2
F0.625
g67
tp1021
a(I125
I2
F0.25
g69
tp1022
a(I133
I0
F1.0
S'good'
p1023
tp1024
a(I189
I7
F-0.625
S'indistinguishable'
p1025
tp1026
a(I198
I1
F0.75
S'due'
p1027
tp1028
a(I199
I9
F0.875
g71
tp1029
a(I200
I38
F1.0
S'good'
p1030
tp1031
a(I257
I5
F1.0
S'good'
p1032
tp1033
a(I257
I5
F1.0
S'best'
p1034
tp1035
a(I257
I5
F-0.25
S'low'
p1036
tp1037
a(I257
I5
F-0.625
S'light'
p1038
tp1039
a(I271
I25
I0
S'same'
p1040
tp1041
as(S'work'
p1042
tp1043
(lp1044
(I190
I0
F-0.625
S'light'
p1045
tp1046
as(S'battery'
p1047
S'life'
p1048
tp1049
(lp1050
(I0
I0
I0
S'great'
p1051
tp1052
a(I5
I2
F-0.5
S'weak'
p1053
tp1054
a(I22
I0
I0
S'incredible'
p1055
tp1056
a(I22
I4
I0
S'great'
p1057
tp1058
a(I29
I16
F-0.625
S'other'
p1059
tp1060
a(I29
I16
F-0.5
S'less'
p1061
tp1062
a(I33
I1
F-0.5
S'long'
p1063
tp1064
a(I57
I68
F0.625
S'decent'
p1065
tp1066
a(I66
I0
F1.0
S'good'
p1067
tp1068
a(I66
I0
F1.0
S'good'
p1069
tp1070
a(I73
I6
F-0.25
S'battery'
p1071
tp1072
a(I74
I1
F1.0
S'good'
p1073
tp1074
a(I78
I12
F1.0
S'better'
p1075
tp1076
a(I79
I0
F1.0
S'good'
p1077
tp1078
a(I79
I0
I0
S'more'
p1079
tp1080
a(I88
I1
F0.625
S'easy'
p1081
tp1082
a(I92
I0
F1.0
S'good'
p1083
tp1084
a(I124
I4
F1.0
S'good'
p1085
tp1086
a(I168
I12
F0.125
S'enough'
p1087
tp1088
a(I168
I12
I0
S'normal'
p1089
tp1090
a(I169
I4
F0.25
S'stellar'
p1091
tp1092
a(I171
I3
F0.625
S'easy'
p1093
tp1094
a(I171
I3
F1.0
S'good'
p1095
tp1096
a(I172
I5
F-0.5
S'poor'
p1097
tp1098
a(I178
I2
F1.0
S'good'
p1099
tp1100
a(I182
I3
F0.875
S'happy'
p1101
tp1102
a(I190
I0
F-0.5
S'longest'
p1103
tp1104
a(I190
I0
I0
S'same'
p1105
tp1106
a(I211
I11
I0
S'same'
p1107
tp1108
a(I214
I1
I0
S'user'
p1109
tp1110
a(I214
I1
I0
S'great'
p1111
tp1112
a(I221
I1
F-0.5
S'long'
p1113
tp1114
a(I250
I1
F1.0
S'good'
p1115
tp1116
as(S'root'
p1117
tp1118
(lp1119
(I48
I2
F0.625
S'easy'
p1120
tp1121
a(I165
I1
F-0.75
S'impossible'
p1122
tp1123
a(I211
I16
F0.375
S'available'
p1124
tp1125
a(I227
I3
F-0.5
S'poor'
p1126
tp1127
a(I233
I5
F-0.75
S'impossible'
p1128
tp1129
as(S'back'
p1130
tp1131
(lp1132
(I139
I18
I0
S'plastic'
p1133
tp1134
a(I200
I13
I0
S'plastic'
p1135
tp1136
as(S'life'
p1137
tp1138
(lp1139
(I22
I4
I0
g1057
tp1140
a(I29
I16
F-0.5
g1061
tp1141
a(I66
I0
F1.0
g1069
tp1142
a(I73
I6
F-0.25
g1071
tp1143
a(I79
I0
F1.0
g1077
tp1144
a(I92
I0
F1.0
g1083
tp1145
a(I124
I4
F1.0
g1085
tp1146
a(I168
I12
F0.125
g1087
tp1147
a(I168
I12
I0
g1089
tp1148
a(I171
I3
F1.0
g1095
tp1149
a(I211
I11
I0
g1107
tp1150
as(S'good'
p1151
S'battery'
p1152
S'life'
p1153
tp1154
(lp1155
(I66
I0
F1.0
g1067
tp1156
a(I66
I0
F1.0
g1069
tp1157
a(I74
I1
F1.0
g1073
tp1158
a(I79
I0
F1.0
g1077
tp1159
a(I79
I0
I0
g1079
tp1160
a(I92
I0
F1.0
g1083
tp1161
a(I124
I4
F1.0
g1085
tp1162
a(I168
I12
F0.125
g1087
tp1163
a(I168
I12
I0
g1089
tp1164
a(I171
I3
F0.625
g1093
tp1165
a(I171
I3
F1.0
g1095
tp1166
a(I172
I5
F-0.5
g1097
tp1167
a(I178
I2
F1.0
g1099
tp1168
a(I190
I0
F-0.5
g1103
tp1169
a(I190
I0
I0
g1105
tp1170
a(I221
I1
F-0.5
g1113
tp1171
a(I250
I1
F1.0
g1115
tp1172
as(S'of'
p1173
S'nternal'
p1174
S'memory'
p1175
tp1176
(lp1177
(I57
I46
I0
g623
tp1178
a(I108
I1
I0
g635
tp1179
a(I119
I1
I0
g639
tp1180
a(I170
I1
F0.25
g653
tp1181
a(I170
I1
I0
g655
tp1182
a(I185
I0
F-0.25
g661
tp1183
a(I185
I0
I0
g663
tp1184
a(I190
I0
I0
g665
tp1185
a(I190
I0
F1.0
g667
tp1186
a(I190
I0
F0.75
g669
tp1187
a(I190
I0
F-0.5
g671
tp1188
a(I190
I0
I0
g673
tp1189
a(I190
I0
I0
g675
tp1190
a(I190
I0
F0.375
g677
tp1191
a(I190
I0
F-0.125
g679
tp1192
a(I190
I0
F0.5
g681
tp1193
a(I233
I0
I0
g685
tp1194
a(I233
I2
I0
g687
tp1195
a(I237
I1
I0
g691
tp1196
a(I244
I0
F0.375
g697
tp1197
a(I244
I0
I0
g699
tp1198
a(I254
I10
I0
g703
tp1199
a(I260
I3
I0
g711
tp1200
as(S'music'
p1201
tp1202
(lp1203
(I189
I4
F1.0
S'best'
p1204
tp1205
as(S'lg'
p1206
S'optimus'
p1207
tp1208
(lp1209
(I59
I3
F0.375
S'new'
p1210
tp1211
a(I98
I2
F0.5
S'second'
p1212
tp1213
as(S'plan'
p1214
tp1215
(lp1216
(I57
I5
I0
S'different'
p1217
tp1218
a(I57
I6
F-0.625
S'free'
p1219
tp1220
a(I57
I95
I0
S'monthly'
p1221
tp1222
a(I64
I4
I0
S'great'
p1223
tp1224
a(I64
I4
F0.625
S'right'
p1225
tp1226
a(I68
I36
F-0.5
S'unlimited'
p1227
tp1228
a(I163
I1
I0
S'old'
p1229
tp1230
a(I200
I3
F0.375
S'new'
p1231
tp1232
a(I251
I8
I0
S'prepaid'
p1233
tp1234
as(S'n'
p1235
S'price'
p1236
S'range'
p1237
tp1238
(lp1239
(I17
I1
F1.0
g538
tp1240
a(I227
I14
I0
g573
tp1241
as(S'battery'
p1242
tp1243
(lp1244
(I0
I0
I0
g1051
tp1245
a(I5
I0
F0.125
S'first'
p1246
tp1247
a(I5
I2
F-0.5
g1053
tp1248
a(I9
I7
F-0.625
S'average'
p1249
tp1250
a(I21
I1
I0
S'hot'
p1251
tp1252
a(I22
I0
I0
g1055
tp1253
a(I22
I1
F1.0
S'best'
p1254
tp1255
a(I27
I1
I0
S'great'
p1256
tp1257
a(I27
I1
F-0.625
S'light'
p1258
tp1259
a(I29
I1
F0.625
S'removable'
p1260
tp1261
a(I29
I16
F-0.625
g1059
tp1262
a(I33
I1
F-0.5
g1063
tp1263
a(I34
I0
I0
S'third'
p1264
tp1265
a(I34
I0
F0.125
S'last'
p1266
tp1267
a(I57
I68
F0.625
g1065
tp1268
a(I66
I0
F1.0
g1067
tp1269
a(I74
I1
F1.0
g1073
tp1270
a(I78
I4
F0.625
S'removable'
p1271
tp1272
a(I78
I12
F1.0
g1075
tp1273
a(I79
I0
I0
g1079
tp1274
a(I88
I1
F0.625
g1081
tp1275
a(I110
I0
F-0.5
S'long'
p1276
tp1277
a(I121
I2
I0
S'great'
p1278
tp1279
a(I143
I3
F-0.25
S'low'
p1280
tp1281
a(I166
I9
I0
S'fast'
p1282
tp1283
a(I169
I4
F0.25
g1091
tp1284
a(I171
I3
F0.625
g1093
tp1285
a(I172
I5
F-0.5
g1097
tp1286
a(I173
I1
F-0.625
S'bad'
p1287
tp1288
a(I175
I0
F-0.5
S'weak'
p1289
tp1290
a(I178
I2
F1.0
g1099
tp1291
a(I180
I1
F0.125
S'last'
p1292
tp1293
a(I182
I3
F0.875
g1101
tp1294
a(I185
I0
F0.375
S'extra'
p1295
tp1296
a(I186
I3
F0.625
S'replaceable'
p1297
tp1298
a(I190
I0
F-0.5
g1103
tp1299
a(I190
I0
I0
g1105
tp1300
a(I205
I0
I0
S'fast'
p1301
tp1302
a(I214
I1
I0
g1109
tp1303
a(I214
I1
I0
g1111
tp1304
a(I221
I1
F-0.5
g1113
tp1305
a(I249
I2
F-0.5
S'power'
p1306
tp1307
a(I250
I1
F1.0
g1115
tp1308
a(I261
I0
F0.375
S'available'
p1309
tp1310
a(I271
I14
I0
S'different'
p1311
tp1312
as(S'smart'
p1313
tp1314
(lp1315
(I38
I6
F-0.625
S'light'
p1316
tp1317
a(I38
I6
F-0.625
S'moderate'
p1318
tp1319
a(I39
I0
F-0.125
S'ultimate'
p1320
tp1321
a(I43
I0
F0.125
S'first'
p1322
tp1323
a(I125
I2
I0
S'more'
p1324
tp1325
a(I125
I2
F0.5
S'expensive'
p1326
tp1327
a(I156
I8
I0
S'real'
p1328
tp1329
a(I189
I2
F0.125
S'first'
p1330
tp1331
a(I190
I0
I0
S'most'
p1332
tp1333
a(I194
I2
I0
S'most'
p1334
tp1335
a(I229
I4
F0.125
S'first'
p1336
tp1337
a(I229
I5
F0.375
S'new'
p1338
tp1339
a(I257
I0
F0.125
S'first'
p1340
tp1341
as(S'samsung'
p1342
S'galaxy'
p1343
tp1344
(lp1345
(I122
I1
I0
S'large'
p1346
tp1347
as(S'calls'
p1348
tp1349
(lp1350
(I83
I3
I0
S'crystal'
p1351
tp1352
a(I97
I1
F0.875
S'important'
p1353
tp1354
a(I139
I12
F1.0
S'good'
p1355
tp1356
a(I166
I15
F1.0
S'good'
p1357
tp1358
a(I262
I2
I0
S'internet'
p1359
tp1360
as(S'space'
p1361
tp1362
(lp1363
(I32
I3
F-0.25
S'thin'
p1364
tp1365
a(I32
I3
F-0.625
S'light'
p1366
tp1367
a(I32
I3
F-0.75
S'little'
p1368
tp1369
a(I33
I2
I0
S'most'
p1370
tp1371
a(I33
I3
F-0.375
S'top'
p1372
tp1373
a(I33
I3
F-0.75
S'little'
p1374
tp1375
a(I82
I22
I0
S'internal'
p1376
tp1377
a(I82
I23
I0
S'internal'
p1378
tp1379
a(I178
I5
I0
S'limited'
p1380
tp1381
a(I178
I5
F-0.875
S'unhappy'
p1382
tp1383
a(I178
I5
F-0.375
S'small'
p1384
tp1385
a(I227
I5
I0
g461
tp1386
a(I254
I3
F0.375
S'available'
p1387
tp1388
as(S'update'
p1389
tp1390
(lp1391
(I0
I1
F0.375
S'available'
p1392
tp1393
a(I30
I1
F-0.125
S'bean'
p1394
tp1395
a(I97
I4
F-0.125
S'bean'
p1396
tp1397
a(I108
I2
I0
S'android'
p1398
tp1399
a(I108
I2
F0.375
S'newer'
p1400
tp1401
a(I165
I3
F-0.125
S'bean'
p1402
tp1403
a(I211
I12
I0
S'latest'
p1404
tp1405
a(I253
I0
I0
S'latest'
p1406
tp1407
a(I253
I0
F1.0
S'better'
p1408
tp1409
as(S'quick'
p1410
S'memo'
p1411
tp1412
(lp1413
(I200
I14
I0
S'quick'
p1414
tp1415
a(I200
I15
I0
S'quick'
p1416
tp1417
as(S'external'
p1418
S'sd'
p1419
S'card'
p1420
tp1421
(lp1422
(I33
I3
I0
g128
tp1423
a(I66
I1
I0
g132
tp1424
a(I68
I13
I0
g134
tp1425
a(I170
I0
I0
g140
tp1426
a(I185
I0
I0
g142
tp1427
a(I190
I0
I0
g144
tp1428
a(I260
I1
I0
g152
tp1429
as(S'lg'
p1430
S'optimus'
p1431
S'l9'
p1432
tp1433
(lp1434
(I59
I3
F0.375
g1210
tp1435
as(S'time'
p1436
tp1437
(lp1438
(I24
I7
I0
S'most'
p1439
tp1440
a(I47
I18
I0
S'same'
p1441
tp1442
a(I143
I2
F-0.5
S'actual'
p1443
tp1444
a(I159
I4
F-0.625
S'average'
p1445
tp1446
a(I254
I10
F-0.75
S'short'
p1447
tp1448
a(I259
I0
F-0.875
S'hard'
p1449
tp1450
a(I266
I0
I0
S'great'
p1451
tp1452
a(I271
I16
I0
S'third'
p1453
tp1454
a(I271
I19
F0.5
S'second'
p1455
tp1456
as(S'storage'
p1457
tp1458
(lp1459
(I8
I2
I0
g775
tp1460
a(I8
I2
I0
g777
tp1461
a(I22
I1
I0
g6
tp1462
a(I24
I9
I0
g780
tp1463
a(I56
I4
F-0.75
g8
tp1464
a(I56
I4
I0
g10
tp1465
a(I56
I4
F0.375
g12
tp1466
a(I57
I88
I0
g785
tp1467
a(I57
I96
I0
g14
tp1468
a(I81
I3
I0
g16
tp1469
a(I83
I13
F0.875
g18
tp1470
a(I120
I0
I0
g20
tp1471
a(I179
I9
I0
g791
tp1472
a(I184
I1
I0
g793
tp1473
a(I227
I3
I0
g22
tp1474
a(I233
I2
I0
g24
tp1475
a(I233
I2
F-0.875
g26
tp1476
a(I233
I2
F0.5
g28
tp1477
a(I233
I2
I0
g30
tp1478
a(I233
I2
F-0.375
g32
tp1479
a(I233
I2
I0
g34
tp1480
a(I233
I4
I0
g36
tp1481
a(I233
I4
I0
g38
tp1482
a(I268
I12
F-0.25
g40
tp1483
a(I268
I12
I0
g42
tp1484
as(S'wifi'
p1485
S'calling'
p1486
tp1487
(lp1488
(I16
I4
F0.125
g442
tp1489
a(I16
I5
I0
g444
tp1490
a(I16
I5
I0
g446
tp1491
a(I16
I5
F-0.875
g448
tp1492
as(S'touch'
p1493
S'screen'
p1494
tp1495
(lp1496
(I0
I1
F-0.625
S'light'
p1497
tp1498
a(I0
I1
F-0.625
S'generous'
p1499
tp1500
a(I0
I1
F0.5
S'touch'
p1501
tp1502
a(I37
I2
F0.5
S'touch'
p1503
tp1504
a(I57
I40
F0.25
S'responsive'
p1505
tp1506
a(I106
I7
F-0.625
S'other'
p1507
tp1508
a(I106
I7
F0.5
S'touch'
p1509
tp1510
a(I151
I5
F0.5
S'touch'
p1511
tp1512
a(I193
I3
F-0.125
S'super'
p1513
tp1514
a(I193
I3
F0.625
S'easy'
p1515
tp1516
a(I200
I17
F0.25
S'responsive'
p1517
tp1518
a(I232
I7
F-0.75
S'unresponsive'
p1519
tp1520
a(I232
I7
F0.5
S'touch'
p1521
tp1522
as(S'text'
p1523
tp1524
(lp1525
(I200
I32
I0
S'common'
p1526
tp1527
as(S'nexus'
p1528
S'7'
p1529
S'tablet'
p1530
tp1531
(lp1532
(I50
I2
I0
S'faster'
p1533
tp1534
a(I50
I6
I0
S'earlier'
p1535
tp1536
a(I139
I16
I0
S'faster'
p1537
tp1538
as(S'user'
p1539
tp1540
(lp1541
(I20
I3
F0.5
S'primary'
p1542
tp1543
a(I38
I1
F-0.5
S'heavy'
p1544
tp1545
a(I38
I7
F-0.5
S'heavy'
p1546
tp1547
a(I82
I5
F-0.875
S'hard'
p1548
tp1549
a(I159
I5
F-0.5
S'heavy'
p1550
tp1551
a(I168
I9
F1.0
S'good'
p1552
tp1553
a(I262
I2
I0
S'normal'
p1554
tp1555
as(S'screen'
p1556
tp1557
(lp1558
(I0
I1
F-0.625
g1497
tp1559
a(I0
I1
F-0.625
g1499
tp1560
a(I0
I1
F0.5
g1501
tp1561
a(I9
I1
I0
S'large'
p1562
tp1563
a(I13
I8
F0.875
S'nice'
p1564
tp1565
a(I13
I8
F0.625
S'easy'
p1566
tp1567
a(I20
I4
F1.0
S'good'
p1568
tp1569
a(I26
I6
I0
S'double-check'
p1570
tp1571
a(I26
I6
F-0.5
S'sure'
p1572
tp1573
a(I29
I5
F-0.75
S'unresponsive'
p1574
tp1575
a(I33
I1
I0
S'big'
p1576
tp1577
a(I37
I0
F0.875
S'nice'
p1578
tp1579
a(I37
I2
F0.5
g1503
tp1580
a(I38
I2
I0
S'big'
p1581
tp1582
a(I44
I5
I0
S'big'
p1583
tp1584
a(I44
I7
F-0.75
S'unable'
p1585
tp1586
a(I44
I7
I0
S'entire'
p1587
tp1588
a(I50
I4
I0
S'real'
p1589
tp1590
a(I57
I6
F0.25
S'larger'
p1591
tp1592
a(I57
I38
F0.875
S'nice'
p1593
tp1594
a(I57
I40
F0.25
g1505
tp1595
a(I57
I73
I0
S'large'
p1596
tp1597
a(I83
I2
F0.25
S'larger'
p1598
tp1599
a(I86
I14
F-0.625
S'light'
p1600
tp1601
a(I106
I7
F-0.625
g1507
tp1602
a(I106
I7
F0.5
g1509
tp1603
a(I110
I0
I0
S'big'
p1604
tp1605
a(I114
I14
I0
S'quick'
p1606
tp1607
a(I120
I0
I0
S'automatic'
p1608
tp1609
a(I121
I3
I0
S'big'
p1610
tp1611
a(I123
I2
I0
S'large'
p1612
tp1613
a(I123
I2
I0
S'quick'
p1614
tp1615
a(I151
I5
F0.5
g1511
tp1616
a(I159
I1
I0
S'big'
p1617
tp1618
a(I159
I2
F-0.25
S'thin'
p1619
tp1620
a(I163
I4
I0
S'great'
p1621
tp1622
a(I166
I6
I0
S'great'
p1623
tp1624
a(I172
I0
F1.0
S'good'
p1625
tp1626
a(I176
I1
I0
S'large'
p1627
tp1628
a(I184
I1
I0
S'big'
p1629
tp1630
a(I193
I3
F-0.125
g1513
tp1631
a(I193
I3
F0.625
g1515
tp1632
a(I199
I8
F0.25
S'bigger'
p1633
tp1634
a(I199
I8
F0.125
S'impressive'
p1635
tp1636
a(I200
I22
F-0.375
S'locked'
p1637
tp1638
a(I210
I1
I0
S'large'
p1639
tp1640
a(I215
I0
I0
S'same'
p1641
tp1642
a(I227
I10
F0.5
S'whole'
p1643
tp1644
a(I232
I7
F-0.75
g1519
tp1645
a(I232
I7
F0.5
g1521
tp1646
a(I236
I2
F0.875
S'nice'
p1647
tp1648
a(I243
I2
F-0.75
S'little'
p1649
tp1650
a(I251
I6
F0.875
S'nice'
p1651
tp1652
a(I253
I0
F0.875
S'nice'
p1653
tp1654
a(I253
I0
I0
S'big'
p1655
tp1656
a(I271
I2
I0
S'big'
p1657
tp1658
a(I271
I2
F-0.75
S'bright'
p1659
tp1660
a(I271
I2
F0.125
S'colorful'
p1661
tp1662
as(S'everything'
p1663
tp1664
(lp1665
(I44
I3
I0
S'standard'
p1666
tp1667
a(I46
I0
F-0.625
S'want'
p1668
tp1669
a(I57
I27
F0.125
S'able'
p1670
tp1671
a(I69
I2
F1.0
S'good'
p1672
tp1673
a(I86
I5
I0
S'fast'
p1674
tp1675
a(I211
I10
F1.0
S'good'
p1676
tp1677
as(g114
S'sd'
p1678
S'card'
p1679
tp1680
(lp1681
(I13
I6
F0.25
g118
tp1682
a(I13
I6
F0.25
g120
tp1683
a(I29
I8
F0.375
g124
tp1684
a(I29
I8
F0.5
g126
tp1685
a(I33
I3
I0
g128
tp1686
a(I57
I49
I0
g164
tp1687
a(I66
I1
I0
g132
tp1688
a(I68
I13
I0
g134
tp1689
a(I87
I13
F0.875
g136
tp1690
a(I108
I2
I0
g191
tp1691
a(I125
I2
F-0.25
g138
tp1692
a(I162
I11
I0
g194
tp1693
a(I170
I0
I0
g140
tp1694
a(I172
I2
F-0.625
g171
tp1695
a(I185
I0
I0
g142
tp1696
a(I190
I0
I0
g144
tp1697
a(I200
I14
F-0.875
g175
tp1698
a(I260
I1
I0
g152
tp1699
as(S'samsung'
p1700
tp1701
(lp1702
(I57
I56
I0
S'many'
p1703
tp1704
a(I122
I1
I0
g1346
tp1705
as(S'camera'
p1706
tp1707
(lp1708
(I4
I1
F-0.625
S'bad'
p1709
tp1710
a(I7
I1
F1.0
S'good'
p1711
tp1712
a(I8
I0
I0
S'internal'
p1713
tp1714
a(I8
I1
F1.0
S'good'
p1715
tp1716
a(I12
I4
F1.0
S'good'
p1717
tp1718
a(I13
I7
F0.125
S'impressive'
p1719
tp1720
a(I19
I3
F1.0
S'good'
p1721
tp1722
a(I19
I3
F-0.125
S'overall'
p1723
tp1724
a(I23
I2
I0
S'great'
p1725
tp1726
a(I25
I6
I0
S'real'
p1727
tp1728
a(I44
I7
F0.875
S'nice'
p1729
tp1730
a(I52
I0
F0.625
S'easy'
p1731
tp1732
a(I53
I4
F0.625
S'perfect'
p1733
tp1734
a(I57
I98
F1.0
S'better'
p1735
tp1736
a(I83
I13
I0
S'great'
p1737
tp1738
a(I86
I4
F0.875
S'nice'
p1739
tp1740
a(I86
I5
F1.0
g608
tp1741
a(I86
I10
F0.25
S'professional'
p1742
tp1743
a(I110
I0
F1.0
S'good'
p1744
tp1745
a(I139
I9
F1.0
S'best'
p1746
tp1747
a(I140
I1
F0.5
S'expensive'
p1748
tp1749
a(I171
I1
F1.0
S'good'
p1750
tp1751
a(I171
I1
F0.5
S'clear'
p1752
tp1753
a(I172
I0
F-0.5
S'sure'
p1754
tp1755
a(I179
I9
F1.0
S'good'
p1756
tp1757
a(I200
I22
I0
S'e-mail'
p1758
tp1759
as(S'using'
p1760
tp1761
(lp1762
(I82
I18
F0.625
S'noticeable'
p1763
tp1764
a(I262
I2
I0
S'navigate'
p1765
tp1766
as(S'games'
p1767
tp1768
(lp1769
(I33
I1
F0.875
S'music'
p1770
tp1771
a(I38
I1
I0
S'basic'
p1772
tp1773
a(I53
I4
I0
S'few'
p1774
tp1775
a(I89
I1
I0
S'fast'
p1776
tp1777
a(I170
I2
I0
S'many'
p1778
tp1779
a(I170
I2
I0
S'different'
p1780
tp1781
a(I190
I0
F-0.625
S'light'
p1782
tp1783
a(I190
I0
F0.125
S'last'
p1784
tp1785
a(I200
I24
I0
S'more'
p1786
tp1787
a(I233
I3
F1.0
S'good'
p1788
tp1789
a(I233
I4
F0.375
S'extra'
p1790
tp1791
a(I233
I5
F1.0
S'better'
p1792
tp1793
as(S'mobile'
p1794
tp1795
(lp1796
(I233
I3
F-0.25
g416
tp1797
as(S'galaxy'
p1798
tp1799
(lp1800
(I97
I3
I0
S'fast'
p1801
tp1802
a(I97
I3
I0
S'own'
p1803
tp1804
a(I244
I3
I0
S'more'
p1805
tp1806
as(S'pictures'
p1807
tp1808
(lp1809
(I38
I4
I0
S'great'
p1810
tp1811
a(I57
I51
F0.625
S'decent'
p1812
tp1813
a(I57
I51
F-0.125
S'overall'
p1814
tp1815
a(I107
I1
F0.875
S'music'
p1816
tp1817
a(I139
I9
I0
S'great'
p1818
tp1819
a(I168
I12
F1.0
S'good'
p1820
tp1821
a(I189
I8
I0
S'few'
p1822
tp1823
a(I200
I48
F1.0
S'good'
p1824
tp1825
a(I200
I51
F1.0
S'better'
p1826
tp1827
as(S'works'
p1828
tp1829
(lp1830
(I69
I0
I0
S'great'
p1831
tp1832
a(I187
I4
I0
S'great'
p1833
tp1834
as(g502
S'big'
p1835
S'deal'
p1836
tp1837
(lp1838
(I83
I11
I0
S'big'
p1839
tp1840
a(I110
I0
I0
S'big'
p1841
tp1842
a(I165
I6
I0
S'big'
p1843
tp1844
a(I165
I6
F0.125
S'first'
p1845
tp1846
a(I165
I10
I0
S'such'
p1847
tp1848
a(I165
I10
I0
S'big'
p1849
tp1850
a(I185
I0
I0
S'big'
p1851
tp1852
as(S'better'
p1853
tp1854
(lp1855
(I17
I2
F0.375
S'much'
p1856
tp1857
a(I127
I1
I0
S'more'
p1858
tp1859
a(I127
I1
I0
S'more'
p1860
tp1861
as(S'device'
p1862
tp1863
(lp1864
(I3
I4
I0
S'android'
p1865
tp1866
a(I3
I4
F0.5
S'functional'
p1867
tp1868
a(I20
I0
I0
S'monthly'
p1869
tp1870
a(I20
I0
I0
S'own'
p1871
tp1872
a(I20
I0
I0
S'add-on'
p1873
tp1874
a(I29
I16
I0
S'such'
p1875
tp1876
a(I29
I16
I0
S'sense'
p1877
tp1878
a(I57
I19
F-0.375
S'small'
p1879
tp1880
a(I68
I30
F0.5
S'functional'
p1881
tp1882
a(I73
I5
I0
S'great'
p1883
tp1884
a(I83
I7
F0.5
S'whole'
p1885
tp1886
a(I96
I3
I0
S'great'
p1887
tp1888
a(I165
I9
F0.125
S'last'
p1889
tp1890
a(I168
I6
F-0.375
S'small'
p1891
tp1892
a(I227
I16
F1.0
S'good'
p1893
tp1894
as(S'bells'
p1895
S'and'
p1896
S'whistles'
p1897
tp1898
(lp1899
(I137
I0
I0
S'most'
p1900
tp1901
a(I137
I0
F0.5
S'hi-tech'
p1902
tp1903
a(I159
I3
I0
S'android'
p1904
tp1905
a(I177
I2
I0
S'more'
p1906
tp1907
a(I230
I4
I0
S'faster'
p1908
tp1909
as(S'home'
p1910
tp1911
(lp1912
(I123
I2
I0
S'physical'
p1913
tp1914
a(I179
I5
F0.25
S'original'
p1915
tp1916
a(I251
I10
F-0.625
S'glad'
p1917
tp1918
as(S'call'
p1919
tp1920
(lp1921
(I13
I8
F1.0
g57
tp1922
a(I29
I3
I0
g59
tp1923
as(S'bloat'
p1924
S'ware'
p1925
tp1926
(lp1927
(I114
I6
F-0.75
S'bloat'
p1928
tp1929
a(I123
I3
F-0.75
S'bloat'
p1930
tp1931
a(I156
I6
F-0.75
S'bloat'
p1932
tp1933
a(I233
I3
F0.5
S'rid'
p1934
tp1935
a(I233
I3
F-0.75
S'bloat'
p1936
tp1937
as(S'games'
p1938
S'and'
p1939
S'apps'
p1940
tp1941
(lp1942
(I33
I1
F0.875
g1770
tp1943
a(I190
I0
F-0.625
g1782
tp1944
a(I190
I0
F0.125
g1784
tp1945
a(I190
I0
F-0.375
g254
tp1946
a(I212
I2
F0.375
S'new'
p1947
tp1948
a(I233
I3
F1.0
g1788
tp1949
a(I233
I5
F1.0
g1792
tp1950
as(S'daily'
p1951
S'basis'
p1952
tp1953
(lp1954
(I24
I2
F-0.375
S'daily'
p1955
tp1956
a(I76
I2
F-0.375
S'daily'
p1957
tp1958
a(I129
I2
F-0.375
S'daily'
p1959
tp1960
as(S'light'
p1961
tp1962
(lp1963
(I57
I54
F-0.25
S'low'
p1964
tp1965
as(S'apps'
p1966
tp1967
(lp1968
(I0
I1
I0
S'such'
p1969
tp1970
a(I20
I2
I0
S'add-in'
p1971
tp1972
a(I33
I3
I0
g244
tp1973
a(I43
I4
I0
S'individual'
p1974
tp1975
a(I57
I73
I0
S'bible'
p1976
tp1977
a(I57
I88
F0.375
S'new'
p1978
tp1979
a(I57
I88
F-0.75
S'impossible'
p1980
tp1981
a(I68
I10
F-0.5
S'less'
p1982
tp1983
a(I68
I10
I0
S'most'
p1984
tp1985
a(I70
I2
I0
S'great'
p1986
tp1987
a(I70
I2
F-0.625
S'free'
p1988
tp1989
a(I73
I3
I0
S'useful'
p1990
tp1991
a(I82
I18
I0
S'such'
p1992
tp1993
a(I82
I24
I0
g250
tp1994
a(I86
I21
F-0.5
S'actual'
p1995
tp1996
a(I87
I10
I0
S'android'
p1997
tp1998
a(I87
I12
F0.125
S'enough'
p1999
tp2000
a(I87
I12
I0
S'basic'
p2001
tp2002
a(I93
I1
F1.0
S'best'
p2003
tp2004
a(I96
I8
F0.875
S'music'
p2005
tp2006
a(I108
I3
I0
S'few'
p2007
tp2008
a(I123
I4
I0
S'full'
p2009
tp2010
a(I123
I7
F0.125
S'able'
p2011
tp2012
a(I123
I7
I0
S'more'
p2013
tp2014
a(I139
I6
F-0.5
S'regular'
p2015
tp2016
a(I139
I16
I0
S'faster'
p2017
tp2018
a(I148
I0
I0
S'many'
p2019
tp2020
a(I149
I6
I0
S'many'
p2021
tp2022
a(I149
I6
I0
S'large'
p2023
tp2024
a(I149
I6
F0.25
S'bigger'
p2025
tp2026
a(I157
I3
I0
S'useful'
p2027
tp2028
a(I167
I2
I0
S'junky'
p2029
tp2030
a(I168
I6
I0
S'basic'
p2031
tp2032
a(I172
I4
F-0.125
S'slow'
p2033
tp2034
a(I190
I0
F-0.375
g254
tp2035
a(I193
I3
I0
S'many'
p2036
tp2037
a(I197
I0
I0
S'many'
p2038
tp2039
a(I197
I0
F0.375
S'friendly'
p2040
tp2041
a(I199
I10
F-0.375
S'disable'
p2042
tp2043
a(I200
I14
I0
g257
tp2044
a(I200
I14
I0
g259
tp2045
a(I211
I19
I0
S'internal'
p2046
tp2047
a(I211
I19
F0.375
S'available'
p2048
tp2049
a(I212
I2
F0.375
g1947
tp2050
a(I227
I5
I0
g262
tp2051
a(I237
I16
I0
g264
tp2052
a(I244
I0
F0.5
S'compatible'
p2053
tp2054
a(I244
I0
I0
S'many'
p2055
tp2056
a(I251
I6
I0
S'great'
p2057
tp2058
a(I254
I9
I0
S'most'
p2059
tp2060
a(I254
I12
F0.375
g266
tp2061
a(I257
I6
F-0.75
S'little'
p2062
tp2063
a(I260
I1
I0
g269
tp2064
a(I268
I15
F0.125
S'essential'
p2065
tp2066
as.