(dp0
(S'problem'
p1
tp2
(lp3
(I2
I1
I0
S'only'
p4
tp5
a(I59
I1
F-0.75
S'single'
p6
tp7
a(I82
I1
I0
S'same'
p8
tp9
a(I103
I1
I0
S'only'
p10
tp11
a(I121
I0
I0
S'same'
p12
tp13
a(I187
I0
F-0.375
S'serious'
p14
tp15
a(I187
I2
F-0.625
S'other'
p16
tp17
a(I187
I2
I0
S'big'
p18
tp19
a(I195
I0
I0
S'charged'
p20
tp21
a(I195
I0
F0.875
S'nice'
p22
tp23
a(I269
I0
I0
S'only'
p24
tp25
a(I277
I0
F0.625
S'perfect'
p26
tp27
a(I424
I1
I0
S'only'
p28
tp29
as(S'google'
p30
S'play'
p31
tp32
(lp33
(I107
I0
F-0.25
S'google'
p34
tp35
a(I150
I0
F-0.25
S'google'
p36
tp37
a(I176
I4
F-0.25
S'google'
p38
tp39
a(I191
I2
F-0.25
S'google'
p40
tp41
a(I365
I0
F-0.25
S'google'
p42
tp43
as(S'waist'
p44
S'of'
p45
S'money'
p46
tp47
(lp48
(I268
I3
I0
S'waist'
p49
tp50
as(S'waste'
p51
tp52
(lp53
(I114
I0
F0.375
S'complete'
p54
tp55
a(I127
I2
I0
S'big'
p56
tp57
a(I184
I2
I0
S'big'
p58
tp59
as(S'battery'
p60
S'life'
p61
tp62
(lp63
(I263
I1
F-0.875
S'awful'
p64
tp65
a(I387
I5
F-0.625
S'bad'
p66
tp67
a(I387
I5
F-0.625
S'bad'
p68
tp69
a(I387
I5
F-0.625
S'bad'
p70
tp71
a(I482
I1
I0
S'big'
p72
tp73
as(S'purchase'
p74
tp75
(lp76
(I348
I0
F-0.625
S'bad'
p77
tp78
a(I405
I3
I0
S'full'
p79
tp80
a(I427
I0
F0.875
S'happy'
p81
tp82
a(I474
I2
I0
S'only'
p83
tp84
as(S'weeks'
p85
tp86
(lp87
(I33
I3
F0.125
S'first'
p88
tp89
a(I169
I0
I0
S'later'
p90
tp91
a(I293
I0
I0
S'anymore'
p92
tp93
a(I338
I9
I0
S'least'
p94
tp95
a(I338
I9
I0
S'more'
p96
tp97
a(I388
I0
I0
S'few'
p98
tp99
as(S'play'
p100
tp101
(lp102
(I107
I0
F-0.25
g34
tp103
a(I150
I0
F-0.25
g36
tp104
a(I176
I4
F-0.25
g38
tp105
a(I191
I2
F-0.25
g40
tp106
a(I365
I0
F-0.25
g42
tp107
a(I478
I0
I0
S'goggle'
p108
tp109
as(S'sim'
p110
S'card'
p111
tp112
(lp113
(I101
I0
F-0.5
S'regular'
p114
tp115
a(I170
I0
F1.0
S'good'
p116
tp117
a(I170
I0
F0.125
S'first'
p118
tp119
a(I275
I0
F-0.875
S'hard'
p120
tp121
a(I337
I0
F-0.5
S'international'
p122
tp123
a(I349
I2
F-0.375
S'simple'
p124
tp125
a(I511
I3
F0.5
S'compatible'
p126
tp127
as(S'download'
p128
S'any'
p129
S'apps'
p130
tp131
(lp132
(I162
I0
F-0.625
S'other'
p133
tp134
as(S'something'
p135
tp136
(lp137
(I165
I0
F-0.75
S'wrong'
p138
tp139
a(I170
I2
F-0.25
S'inexpensive'
p140
tp141
a(I170
I2
F0.375
S'worked'
p142
tp143
a(I190
I4
F0.875
S'nice'
p144
tp145
a(I356
I3
I0
S'online'
p146
tp147
a(I446
I6
F-0.75
S'wrong'
p148
tp149
as(S'text'
p150
tp151
(lp152
(I62
I4
I0
S'english'
p153
tp154
a(I554
I6
F0.75
S'ideal'
p155
tp156
as(S't'
p157
S'drops'
p158
S'calls'
p159
tp160
(lp161
(I183
I0
I0
S'most'
p162
tp163
a(I299
I0
F-0.75
S'unreliable'
p164
tp165
as(S'nice'
p166
tp167
(lp168
(I331
I0
I0
S'big'
p169
tp170
as(S'price'
p171
tp172
(lp173
(I0
I0
F-0.25
S'cheaper'
p174
tp175
a(I18
I0
F0.625
S'fair'
p176
tp177
a(I86
I1
F-0.25
S'low'
p178
tp179
a(I131
I0
F-0.25
S'low'
p180
tp181
a(I191
I9
I0
S'great'
p182
tp183
a(I197
I4
F0.75
S'worth'
p184
tp185
a(I265
I0
F0.75
S'worth'
p186
tp187
a(I289
I0
F0.5
S'bought'
p188
tp189
a(I290
I1
F0.25
S'original'
p190
tp191
a(I290
I1
F0.75
S'worth'
p192
tp193
a(I299
I1
F1.0
S'good'
p194
tp195
a(I305
I0
F1.0
S'good'
p196
tp197
a(I464
I0
F0.5
S'reasonable'
p198
tp199
a(I501
I1
F0.75
S'worth'
p200
tp201
a(I505
I0
F-0.25
S'cheapest'
p202
tp203
a(I511
I1
I0
S'great'
p204
tp205
a(I531
I1
F-0.25
S'low'
p206
tp207
a(I541
I4
F1.0
S'good'
p208
tp209
as(S'r'
p210
S'money'
p211
tp212
(lp213
(I110
I3
I0
S'great'
p214
tp215
a(I116
I7
I0
S'fast'
p216
tp217
a(I244
I5
I0
S'more'
p218
tp219
a(I324
I3
F0.75
S'worth'
p220
tp221
a(I341
I1
F0.5
S'beware'
p222
tp223
a(I480
I2
F0.75
S'worth'
p224
tp225
as(S'two'
p226
S'batteries'
p227
tp228
(lp229
(I116
I5
F0.25
S'suppose'
p230
tp231
a(I437
I0
F1.0
S'good'
p232
tp233
as(S'service'
p234
tp235
(lp236
(I8
I1
F1.0
S'good'
p237
tp238
a(I90
I0
F1.0
S'good'
p239
tp240
a(I127
I1
I0
S'mobile'
p241
tp242
a(I182
I3
I0
S'great'
p243
tp244
a(I275
I0
F-0.875
S'hard'
p245
tp246
a(I295
I2
F0.5
S'controlled'
p247
tp248
a(I364
I0
F-0.5
S'poor'
p249
tp250
a(I365
I5
F0.625
S'eager'
p251
tp252
a(I404
I1
F0.5
S'established'
p253
tp254
a(I450
I0
F1.0
S'good'
p255
tp256
as(S'everything'
p257
tp258
(lp259
(I328
I1
I0
S'great'
p260
tp261
a(I350
I0
F-0.75
S'little'
p262
tp263
a(I412
I1
I0
S'chinese'
p264
tp265
as(S'problems'
p266
tp267
(lp268
(I6
I0
F0.75
S'worth'
p269
tp270
a(I126
I2
F0.75
S'give'
p271
tp272
a(I167
I3
I0
S'same'
p273
tp274
a(I176
I4
F0.625
S'perfect'
p275
tp276
a(I214
I3
F0.875
S'nice'
p277
tp278
a(I250
I1
I0
S'more'
p279
tp280
a(I296
I0
I0
S'many'
p281
tp282
a(I369
I4
I0
S'many'
p283
tp284
as(S'samsung'
p285
tp286
(lp287
(I258
I1
I0
S'same'
p288
tp289
as(S'back'
p290
tp291
(lp292
(I58
I0
F1.0
S'good'
p293
tp294
a(I143
I0
I0
S'android'
p295
tp296
as(S'return'
p297
tp298
(lp299
(I428
I4
I0
S'least'
p300
tp301
a(I509
I0
F-0.625
S'free'
p302
tp303
as(S'camera'
p304
tp305
(lp306
(I175
I0
F0.5
S'clear'
p307
tp308
a(I243
I3
F-0.5
S'complaint'
p309
tp310
a(I281
I2
F-0.625
S'bad'
p311
tp312
a(I344
I1
I0
S'wider'
p313
tp314
a(I349
I5
F0.5
S'touch'
p315
tp316
a(I552
I1
F-0.125
S'slow'
p317
tp318
a(I552
I1
F1.0
S'good'
p319
tp320
as(S'piece'
p321
S'of'
p322
S'crap'
p323
tp324
(lp325
(I292
I0
F-0.125
S'slow'
p326
tp327
as(S'month'
p328
tp329
(lp330
(I83
I0
I0
S'great'
p331
tp332
a(I83
I0
F0.125
S'first'
p333
tp334
a(I306
I1
F0.5
S'whole'
p335
tp336
a(I371
I1
I0
S'more'
p337
tp338
a(I480
I2
F0.125
S'last'
p339
tp340
as(S'week'
p341
tp342
(lp343
(I35
I3
I0
S'next'
p344
tp345
a(I48
I0
F0.125
S'first'
p346
tp347
a(I359
I1
I0
S'later'
p348
tp349
a(I396
I0
I0
S'later'
p350
tp351
a(I419
I0
F0.375
S'new'
p352
tp353
as(S'high'
p354
S'tech'
p355
tp356
(lp357
(I554
I0
I0
S'high'
p358
tp359
a(I554
I0
I0
S'high'
p360
tp361
a(I554
I7
I0
S'high'
p362
tp363
as(S'receive'
p364
S'picture'
p365
S'messages'
p366
tp367
(lp368
(I46
I0
F0.75
S'receive'
p369
tp370
as(S'quality'
p371
tp372
(lp373
(I18
I1
F1.0
S'good'
p374
tp375
a(I33
I1
F-0.5
S'poor'
p376
tp377
a(I62
I4
F0.875
S'nice'
p378
tp379
a(I73
I2
F-0.5
S'poor'
p380
tp381
a(I128
I2
F-0.625
S'bad'
p382
tp383
a(I137
I1
I0
S'great'
p384
tp385
a(I161
I8
I0
S'rubbish'
p386
tp387
a(I167
I2
F-0.5
S'poor'
p388
tp389
a(I185
I0
F-0.5
S'poor'
p390
tp391
a(I196
I0
F-0.5
S'poor'
p392
tp393
a(I442
I0
F-0.625
S'bad'
p394
tp395
a(I447
I1
F-0.5
S'poor'
p396
tp397
a(I468
I0
F-0.625
S'bad'
p398
tp399
a(I473
I0
F1.0
S'good'
p400
tp401
a(I492
I0
F1.0
S'good'
p402
tp403
a(I510
I0
F-0.5
S'poor'
p404
tp405
a(I510
I0
I0
S'old'
p406
tp407
a(I510
I0
F0.5
S'true'
p408
tp409
a(I532
I0
F-0.25
S'low'
p410
tp411
a(I540
I0
F-0.125
S'slow'
p412
tp413
as(S'memory'
p414
tp415
(lp416
(I98
I2
I0
S'full'
p417
tp418
a(I100
I0
I0
S'internal'
p419
tp420
a(I104
I5
I0
S'internal'
p421
tp422
a(I105
I3
I0
S'internal'
p423
tp424
a(I105
I5
F-0.25
S'low'
p425
tp426
a(I108
I8
I0
S'internal'
p427
tp428
a(I121
I0
F-0.25
S'low'
p429
tp430
a(I237
I1
F-0.125
S'slow'
p431
tp432
a(I237
I1
F-0.5
S'less'
p433
tp434
a(I237
I1
I0
S'internal'
p435
tp436
a(I247
I0
F-0.25
S'low'
p437
tp438
a(I247
I0
F-0.25
S'low'
p439
tp440
a(I285
I3
F-0.75
S'little'
p441
tp442
a(I296
I2
F0.375
S'much'
p443
tp444
a(I356
I3
F-0.25
S'low'
p445
tp446
a(I356
I3
F-0.75
S'unable'
p447
tp448
a(I363
I0
I0
S'different'
p449
tp450
a(I380
I0
I0
S'internal'
p451
tp452
a(I457
I0
F0.25
S'larger'
p453
tp454
a(I467
I0
I0
S'internal'
p455
tp456
a(I467
I0
F-0.25
S'low'
p457
tp458
a(I495
I1
I0
S'full'
p459
tp460
a(I495
I2
I0
S'full'
p461
tp462
a(I533
I0
I0
S'internal'
p463
tp464
as(S'product'
p465
tp466
(lp467
(I24
I1
F-0.25
S'disappointing'
p468
tp469
a(I107
I0
F1.0
S'good'
p470
tp471
a(I206
I0
F-0.125
S'overall'
p472
tp473
a(I206
I0
F-0.625
S'bad'
p474
tp475
a(I211
I0
F0.125
S'able'
p476
tp477
a(I211
I0
F0.75
S'receive'
p478
tp479
a(I211
I0
F0.375
S'new'
p480
tp481
a(I232
I0
F-0.625
S'bad'
p482
tp483
a(I446
I0
F-0.125
S'defected'
p484
tp485
a(I446
I8
F0.875
S'happy'
p486
tp487
a(I531
I1
F1.0
S'good'
p488
tp489
as(S'galaxy'
p490
tp491
(lp492
(I178
I0
F-0.125
S'slow'
p493
tp494
a(I265
I0
F-0.625
S'bad'
p495
tp496
a(I432
I2
F0.5
S'careful'
p497
tp498
a(I550
I1
I0
S'real'
p499
tp500
as(S'pictures'
p501
tp502
(lp503
(I144
I1
F-0.625
S'unclear'
p504
tp505
a(I223
I0
F0.75
S'receive'
p506
tp507
a(I328
I1
F0.5
S'clear'
p508
tp509
a(I549
I0
F-0.375
S'black'
p510
tp511
as(S's4'
p512
S'mini'
p513
tp514
(lp515
(I62
I3
I0
S'android'
p516
tp517
a(I62
I3
F-0.5
S'actual'
p518
tp519
as(S'wan'
p520
S'na'
p521
tp522
(lp523
(I496
I2
F-0.375
S'wan'
p524
tp525
as(S'or'
p526
S'receive'
p527
S'picture'
p528
tp529
(lp530
(I46
I0
F0.75
g369
tp531
as(S'messages'
p532
tp533
(lp534
(I227
I4
I0
S'internet'
p535
tp536
a(I385
I1
I0
S'text'
p537
tp538
a(I446
I6
I0
S'text'
p539
tp540
a(I446
I6
I0
S'text'
p541
tp542
a(I466
I1
I0
S'pic'
p543
tp544
a(I543
I2
I0
S'pic'
p545
tp546
as(S'sucks'
p547
tp548
(lp549
(I66
I7
F-0.625
S'bad'
p550
tp551
a(I88
I0
F0.375
S'much'
p552
tp553
a(I193
I0
F-0.375
S'static'
p554
tp555
a(I389
I0
F-0.625
S'bad'
p556
tp557
a(I506
I1
I0
S'big'
p558
tp559
as(S'people'
p560
tp561
(lp562
(I11
I0
I0
S'hear'
p563
tp564
a(I52
I0
F1.0
S'good'
p565
tp566
a(I94
I2
I0
S'most'
p567
tp568
a(I104
I6
F-0.625
S'other'
p569
tp570
a(I116
I7
F-0.75
S'hate'
p571
tp572
a(I217
I1
F-0.75
S'difficult'
p573
tp574
a(I238
I2
I0
S'same'
p575
tp576
a(I531
I1
F-0.625
S'want'
p577
tp578
as(S'batteries'
p579
tp580
(lp581
(I116
I5
F0.25
g230
tp582
a(I426
I0
F-0.5
S'weak'
p583
tp584
a(I437
I0
F1.0
g232
tp585
as(S'sd'
p586
S'card'
p587
tp588
(lp589
(I108
I8
F0.125
S'able'
p590
tp591
a(I247
I0
I0
S'sd'
p592
tp593
a(I543
I2
I0
S'sd'
p594
tp595
as(S'call'
p596
tp597
(lp598
(I167
I1
F0.75
S'receive'
p599
tp600
a(I229
I0
F-0.875
S'hard'
p601
tp602
a(I251
I2
F0.875
S'lucky'
p603
tp604
a(I251
I2
F0.125
S'able'
p605
tp606
a(I329
I3
F-0.625
S'other'
p607
tp608
a(I414
I0
I0
S'hear'
p609
tp610
a(I421
I1
F-0.25
S'low'
p611
tp612
a(I446
I5
I0
S'hear'
p613
tp614
a(I524
I1
F0.125
S'last'
p615
tp616
as(S'download'
p617
tp618
(lp619
(I457
I0
F-0.125
S'cant'
p620
tp621
a(I460
I0
F-0.125
S'cant'
p622
tp623
as(S'seller'
p624
tp625
(lp626
(I67
I2
I0
S'site'
p627
tp628
a(I232
I0
F-0.625
S'bad'
p629
tp630
a(I401
I1
I0
S'great'
p631
tp632
a(I430
I0
F0.375
S'honest'
p633
tp634
a(I503
I2
F-0.125
S'slow'
p635
tp636
a(I503
I2
F-0.375
S'top'
p637
tp638
as(S'android'
p639
tp640
(lp641
(I7
I0
F-0.375
S'simple'
p642
tp643
a(I58
I0
I0
S'android'
p644
tp645
a(I58
I0
F0.125
S'first'
p646
tp647
a(I129
I5
F1.0
S'good'
p648
tp649
a(I242
I7
I0
S'standard'
p650
tp651
a(I243
I5
F-0.125
S'overall'
p652
tp653
a(I243
I5
I0
S'great'
p654
tp655
a(I276
I2
F1.0
S'better'
p656
tp657
a(I276
I2
I0
S'prepaid'
p658
tp659
a(I503
I1
I0
S'real'
p660
tp661
as(S'case'
p662
tp663
(lp664
(I14
I2
F0.625
S'find'
p665
tp666
a(I89
I1
I0
S'wish'
p667
tp668
a(I89
I1
F1.0
S'good'
p669
tp670
a(I89
I1
I0
S'android'
p671
tp672
a(I158
I2
I0
S'big'
p673
tp674
a(I191
I2
F-0.25
S'd'
p675
tp676
a(I309
I1
F0.125
S'protective'
p677
tp678
a(I367
I2
I0
S'only'
p679
tp680
a(I367
I2
F0.375
S'available'
p681
tp682
as(S'works'
p683
tp684
(lp685
(I50
I0
I0
S'great'
p686
tp687
a(I198
I1
I0
S'more'
p688
tp689
as(S'great'
p690
tp691
(lp692
(I338
I1
I0
S'same'
p693
tp694
a(I378
I6
I0
S'same'
p695
tp696
as(S'storage'
p697
S'space'
p698
tp699
(lp700
(I139
I0
F-0.75
S'little'
p701
tp702
a(I182
I2
F-0.375
S'small'
p703
tp704
a(I487
I1
I0
S'minimal'
p705
tp706
as(S'battery'
p707
tp708
(lp709
(I72
I0
F1.0
S'good'
p710
tp711
a(I74
I0
F-0.75
S'worse'
p712
tp713
a(I80
I0
F0.125
S'last'
p714
tp715
a(I188
I4
F-0.5
S'long'
p716
tp717
a(I293
I1
F0.375
S'extra'
p718
tp719
a(I294
I0
F-0.75
S'dead'
p720
tp721
a(I320
I0
F0.125
S'last'
p722
tp723
a(I349
I5
F0.125
S'downside'
p724
tp725
a(I370
I0
F-0.375
S'static'
p726
tp727
a(I373
I1
F0.625
S'replaceable'
p728
tp729
a(I424
I2
F0.375
S'new'
p730
tp731
a(I482
I1
I0
g72
tp732
a(I515
I1
F-0.5
S'long'
p733
tp734
a(I546
I1
I0
S'only'
p735
tp736
a(I546
I2
F0.375
S'new'
p737
tp738
as(S'money'
p739
tp740
(lp741
(I110
I3
I0
g214
tp742
a(I116
I7
I0
g216
tp743
a(I137
I3
F-0.75
S'sad'
p744
tp745
a(I244
I5
I0
g218
tp746
a(I268
I3
I0
g49
tp747
a(I324
I3
F0.75
g220
tp748
a(I341
I1
F0.5
g222
tp749
a(I480
I2
F0.75
g224
tp750
as(S'hold'
p751
S'a'
p752
S'charge'
p753
tp754
(lp755
(I202
I1
F1.0
S'good'
p756
tp757
a(I458
I1
F-0.5
S'long'
p758
tp759
a(I458
I1
F1.0
S'good'
p760
tp761
a(I547
I0
I0
S'more'
p762
tp763
as(S'waste'
p764
g210
S'money'
p765
tp766
(lp767
(I114
I0
F0.375
g54
tp768
a(I127
I2
I0
g56
tp769
as(S'straight'
p770
S'talk'
p771
tp772
(lp773
(I124
I3
F0.625
S'straight'
p774
tp775
a(I124
I3
F0.625
S'easy'
p776
tp777
a(I297
I0
F0.625
S'straight'
p778
tp779
a(I441
I0
F0.625
S'straight'
p780
tp781
a(I462
I0
F0.625
S'straight'
p782
tp783
as(S'calls'
p784
tp785
(lp786
(I108
I6
I0
S'own'
p787
tp788
a(I138
I5
F0.5
S'clear'
p789
tp790
a(I183
I0
I0
g162
tp791
a(I193
I0
F-0.875
S'hard'
p792
tp793
a(I346
I1
F-0.125
S'slow'
p794
tp795
a(I368
I0
F0.75
S'due'
p796
tp797
a(I381
I1
F-0.125
S'cant'
p798
tp799
a(I381
I1
F0.75
S'receive'
p800
tp801
a(I392
I0
F0.75
S'receive'
p802
tp803
a(I441
I2
F0.75
S'due'
p804
tp805
a(I554
I6
F0.75
S'receive'
p806
tp807
as(S'thing'
p808
tp809
(lp810
(I33
I14
I0
S'same'
p811
tp812
a(I67
I3
F-0.875
S'worst'
p813
tp814
a(I87
I2
I0
S'only'
p815
tp816
a(I129
I6
F0.875
S'nice'
p817
tp818
a(I131
I1
I0
S'only'
p819
tp820
a(I136
I0
F-0.875
S'worst'
p821
tp822
a(I161
I9
I0
S'only'
p823
tp824
a(I261
I0
I0
S'only'
p825
tp826
a(I301
I2
F0.25
S'original'
p827
tp828
a(I325
I0
F1.0
S'good'
p829
tp830
a(I327
I0
I0
S'own'
p831
tp832
a(I369
I0
F0.125
S'first'
p833
tp834
a(I369
I0
F1.0
S'good'
p835
tp836
a(I374
I7
F-0.375
S'smaller'
p837
tp838
a(I473
I7
I0
S'only'
p839
tp840
a(I473
I7
F1.0
S'good'
p841
tp842
a(I495
I3
I0
S'most'
p843
tp844
a(I517
I0
I0
S'same'
p845
tp846
a(I551
I0
I0
S'only'
p847
tp848
as(S'cheap'
p849
tp850
(lp851
(I87
I1
F0.875
S'nice'
p852
tp853
a(I200
I0
I0
S'such'
p854
tp855
a(I301
I0
F0.875
S'happy'
p856
tp857
a(I302
I1
I0
S'sensitive'
p858
tp859
a(I348
I1
I0
S'plastic'
p860
tp861
a(I496
I1
F0.875
S'nice'
p862
tp863
as(S'make'
p864
g752
S'call'
p865
tp866
(lp867
(I167
I1
F0.75
g599
tp868
a(I251
I2
F0.875
g603
tp869
a(I251
I2
F0.125
g605
tp870
a(I414
I0
I0
g609
tp871
as(S'charge'
p872
tp873
(lp874
(I37
I0
F0.125
S'last'
p875
tp876
a(I37
I0
F-0.5
S'long'
p877
tp878
a(I76
I2
I0
S'fast'
p879
tp880
a(I196
I1
I0
S'hot'
p881
tp882
a(I202
I1
F1.0
g756
tp883
a(I458
I1
F-0.5
g758
tp884
a(I458
I1
F1.0
g760
tp885
a(I547
I0
I0
g762
tp886
as(S'waste'
p887
S'of'
p888
S'money'
p889
tp890
(lp891
(I114
I0
F0.375
g54
tp892
a(I127
I2
I0
g56
tp893
a(I184
I2
I0
g58
tp894
as(S'text'
p895
S'messages'
p896
tp897
(lp898
(I385
I1
I0
g537
tp899
a(I446
I6
I0
g539
tp900
a(I446
I6
I0
g541
tp901
as(S'galaxy'
p902
S'siii'
p903
tp904
(lp905
(I161
I7
I0
S'galaxy'
p906
tp907
a(I338
I0
I0
S'galaxy'
p908
tp909
as(S'with'
p910
S'two'
p911
S'batteries'
p912
tp913
(lp914
(I437
I0
F1.0
g232
tp915
as(S'happy'
p916
tp917
(lp918
(I333
I0
F0.875
S'happy'
p919
tp920
as(S'cant'
p921
tp922
(lp923
(I431
I1
F-0.875
S'awful'
p924
tp925
a(I478
I0
I0
S'technician'
p926
tp927
a(I519
I0
F0.75
S'receive'
p928
tp929
as(S'picture'
p930
tp931
(lp932
(I37
I0
F-0.5
S'open'
p933
tp934
a(I46
I0
F0.75
g369
tp935
a(I63
I0
F-0.75
S'unable'
p936
tp937
a(I63
I0
F0.75
S'receive'
p938
tp939
a(I438
I0
F0.5
S'clear'
p940
tp941
as(S'company'
p942
tp943
(lp944
(I54
I2
F0.25
S'original'
p945
tp946
a(I133
I2
F-0.75
S'stupider'
p947
tp948
a(I189
I0
I0
S'cooperative'
p949
tp950
a(I524
I4
F-0.5
S'actual'
p951
tp952
a(I541
I2
I0
S'e-mail'
p953
tp954
as(S'time'
p955
tp956
(lp957
(I2
I1
F0.75
S'receive'
p958
tp959
a(I90
I2
F0.125
S'first'
p960
tp961
a(I116
I6
F-0.875
S'hard'
p962
tp963
a(I124
I7
F-0.875
S'hard'
p964
tp965
a(I131
I2
I0
S'most'
p966
tp967
a(I131
I2
F-0.375
S'static'
p968
tp969
a(I144
I2
F-0.125
S'slow'
p970
tp971
a(I194
I0
I0
S'android'
p972
tp973
a(I219
I0
F0.125
S'first'
p974
tp975
a(I248
I0
I0
S'next'
p976
tp977
a(I282
I0
F0.5
S'patient'
p978
tp979
a(I283
I0
F-0.125
S'slow'
p980
tp981
a(I397
I8
F0.125
S'first'
p982
tp983
a(I399
I1
F-0.75
S'unable'
p984
tp985
a(I436
I1
I0
S'faster'
p986
tp987
a(I446
I2
F0.125
S'first'
p988
tp989
a(I453
I0
F-0.875
S'hard'
p990
tp991
a(I459
I0
F0.375
S'available'
p992
tp993
a(I472
I5
F-0.125
S'overall'
p994
tp995
a(I472
I5
F-0.75
S'dead'
p996
tp997
a(I472
I5
F-0.125
S'slow'
p998
tp999
a(I491
I3
F-0.875
S'hard'
p1000
tp1001
a(I506
I4
I0
S'big'
p1002
tp1003
a(I541
I7
F0.5
S'careful'
p1004
tp1005
a(I541
I7
I0
S'next'
p1006
tp1007
as(S'hate'
p1008
tp1009
(lp1010
(I457
I1
F-0.75
S'hate'
p1011
tp1012
as(S'card'
p1013
tp1014
(lp1015
(I108
I8
F0.125
g590
tp1016
a(I247
I0
I0
g592
tp1017
a(I275
I0
F-0.875
g120
tp1018
a(I543
I2
I0
g594
tp1019
as(S'charger'
p1020
tp1021
(lp1022
(I154
I0
F-0.625
S'bad'
p1023
tp1024
a(I266
I5
F0.375
S'extra'
p1025
tp1026
a(I417
I0
F0.125
S'first'
p1027
tp1028
a(I452
I0
I0
S'cable'
p1029
tp1030
as(g752
S'sim'
p1031
S'card'
p1032
tp1033
(lp1034
(I101
I0
F-0.5
g114
tp1035
a(I170
I0
F1.0
g116
tp1036
a(I170
I0
F0.125
g118
tp1037
a(I275
I0
F-0.875
g120
tp1038
a(I337
I0
F-0.5
g122
tp1039
a(I349
I2
F-0.375
g124
tp1040
a(I511
I3
F0.5
g126
tp1041
as(S'screen'
p1042
tp1043
(lp1044
(I83
I1
F-0.875
S'hard'
p1045
tp1046
a(I198
I0
I0
S'third'
p1047
tp1048
a(I240
I0
F0.5
S'whole'
p1049
tp1050
a(I390
I0
F-0.375
S'black'
p1051
tp1052
a(I393
I0
F0.5
S'touch'
p1053
tp1054
a(I393
I0
F-0.125
S'slow'
p1055
tp1056
a(I399
I2
F-0.25
S'white'
p1057
tp1058
a(I399
I2
F-0.75
S'unable'
p1059
tp1060
a(I399
I2
I0
S'anymore'
p1061
tp1062
a(I436
I2
F-0.25
S'white'
p1063
tp1064
a(I512
I2
F-0.25
S'white'
p1065
tp1066
as(S'recommend'
p1067
tp1068
(lp1069
(I442
I2
I0
S'dare'
p1070
tp1071
as(S'an'
p1072
S'sd'
p1073
S'card'
p1074
tp1075
(lp1076
(I247
I0
I0
g592
tp1077
a(I543
I2
I0
g594
tp1078
as(S'work'
p1079
tp1080
(lp1081
(I82
I0
F-0.625
S'other'
p1082
tp1083
a(I314
I1
I0
S'wont'
p1084
tp1085
as(g157
S'mobile'
p1086
tp1087
(lp1088
(I227
I3
I0
S'most'
p1089
tp1090
a(I227
I3
I0
S'mobile'
p1091
tp1092
as(S'working'
p1093
tp1094
(lp1095
(I301
I2
F0.875
S'happy'
p1096
tp1097
a(I301
I2
F0.875
S'nice'
p1098
tp1099
a(I432
I0
F1.0
S'good'
p1100
tp1101
a(I432
I1
I0
S'great'
p1102
tp1103
as(S'apps'
p1104
tp1105
(lp1106
(I1
I3
I0
S'download'
p1107
tp1108
a(I18
I1
I0
S'more'
p1109
tp1110
a(I62
I2
F0.125
S'able'
p1111
tp1112
a(I124
I4
F-0.875
S'trouble'
p1113
tp1114
a(I124
I7
F0.75
S'due'
p1115
tp1116
a(I162
I0
F-0.625
g133
tp1117
a(I192
I0
F-0.5
S'open'
p1118
tp1119
a(I203
I3
F-0.625
S'other'
p1120
tp1121
a(I203
I3
F-0.875
S'load'
p1122
tp1123
a(I208
I0
I0
S'chinese'
p1124
tp1125
a(I237
I1
I0
S'more'
p1126
tp1127
a(I285
I3
I0
S'most'
p1128
tp1129
a(I285
I3
F0.5
S'compatible'
p1130
tp1131
a(I369
I2
I0
S'close'
p1132
tp1133
a(I374
I13
I0
S'android'
p1134
tp1135
a(I434
I2
F-0.75
S'sad'
p1136
tp1137
a(I456
I3
F0.875
S'happy'
p1138
tp1139
a(I463
I2
I0
S'download'
p1140
tp1141
a(I491
I1
I0
S'weird'
p1142
tp1143
as(S'days'
p1144
tp1145
(lp1146
(I33
I10
I0
S'more'
p1147
tp1148
a(I66
I0
F0.375
S'new'
p1149
tp1150
a(I66
I0
F0.375
S'prime'
p1151
tp1152
a(I194
I3
F0.375
S'extra'
p1153
tp1154
a(I251
I3
I0
S'few'
p1155
tp1156
a(I311
I1
I0
S'few'
p1157
tp1158
a(I372
I4
F1.0
S'good'
p1159
tp1160
a(I372
I4
I0
S'few'
p1161
tp1162
a(I460
I0
I0
S'few'
p1163
tp1164
a(I550
I0
F-0.75
S'wrong'
p1165
tp1166
as(S'anyone'
p1167
tp1168
(lp1169
(I507
I0
F-0.75
S'sad'
p1170
tp1171
as(S'send'
p1172
tp1173
(lp1174
(I46
I0
F-0.5
S'sure'
p1175
tp1176
as(S'anything'
p1177
tp1178
(lp1179
(I121
I0
F-0.375
S'manual'
p1180
tp1181
a(I124
I5
F0.375
S'new'
p1182
tp1183
a(I278
I0
F-0.875
S'load'
p1184
tp1185
a(I378
I3
F-0.375
S'manual'
p1186
tp1187
as.