(dp0
(S'battery'
p1
S'life'
p2
tp3
(lp4
(I1
I17
I0
S'great'
p5
I1
tp6
a(I1
I30
F1.0
S'best'
p7
I1
tp8
a(I2
I40
F0.125
S'far'
p9
I1
tp10
a(I2
I65
I0
S'great'
p11
I1
tp12
a(I2
I130
F1.0
S'good'
p13
I1
tp14
a(I5
I47
F1.0
S'good'
p15
I1
tp16
a(I6
I50
F-0.625
S'average'
p17
I1
tp18
a(I8
I55
I0
S'great'
p19
I1
tp20
a(I9
I113
F0.25
S'larger'
p21
I1
tp22
a(I9
I131
F0.5
S'reasonable'
p23
I1
tp24
a(I11
I30
F0.125
S'solid'
p25
I1
tp26
a(I1
I17
I0
g5
I19
tp27
a(I1
I19
I0
S'great'
p28
I19
tp29
a(I2
I40
F0.125
g9
I19
tp30
a(I2
I130
F1.0
g13
I19
tp31
a(I5
I47
F1.0
g15
I19
tp32
a(I6
I50
F-0.625
g17
I19
tp33
a(I8
I55
I0
g19
I19
tp34
a(I1
I16
I0
S'topic'
p35
I15
tp36
a(I1
I21
F1.0
S'good'
p37
I15
tp38
a(I1
I30
F1.0
g7
I15
tp39
a(I2
I46
F0.625
S'removable'
p40
I15
tp41
a(I2
I65
I0
g11
I15
tp42
a(I4
I5
F0.75
S'beautiful'
p43
I15
tp44
a(I5
I17
F0.625
S'removable'
p45
I15
tp46
a(I7
I74
F0.125
S'solid'
p47
I15
tp48
a(I7
I75
F-0.25
S'lowest'
p49
I15
tp50
a(I9
I43
F0.125
S'able'
p51
I15
tp52
a(I9
I113
F0.25
g21
I15
tp53
a(I9
I114
F0.125
S'last'
p54
I15
tp55
a(I9
I131
F0.5
g23
I15
tp56
a(I10
I4
I0
S'full'
p57
I15
tp58
a(I11
I30
F0.125
g25
I15
tp59
a(I11
I44
F0.625
S'replaceable'
p60
I15
tp61
as(S'quad'
p62
S'core'
p63
S'processor'
p64
tp65
(lp66
(I5
I128
I0
S'incredible'
p67
I0
tp68
a(I11
I39
F0.125
S'able'
p69
I0
tp70
a(I14
I5
I0
S'fast'
p71
I0
tp72
a(I0
I11
F-0.625
S'other'
p73
I0
tp74
a(I1
I12
I0
S'faster'
p75
I0
tp76
a(I2
I12
I0
S'quad'
p77
I0
tp78
a(I2
I44
I0
S'quad'
p79
I0
tp80
a(I2
I83
I0
S'faster'
p81
I0
tp82
a(I9
I97
F0.125
S'first'
p83
I0
tp84
a(I5
I128
I0
g67
I0
tp85
a(I11
I39
F0.125
g69
I0
tp86
a(I14
I5
I0
g71
I0
tp87
a(I0
I11
F-0.625
g73
I0
tp88
a(I1
I12
I0
g75
I0
tp89
a(I9
I97
F0.125
g83
I0
tp90
a(I3
I1
I0
S'faster'
p91
I1
tp92
a(I5
I64
I0
S'unbelievable'
p93
I1
tp94
a(I5
I128
I0
g67
I1
tp95
a(I11
I39
F0.125
g69
I1
tp96
a(I14
I5
I0
g71
I1
tp97
a(I2
I12
I0
g77
I3
tp98
a(I2
I44
I0
g79
I3
tp99
a(I2
I83
I0
g81
I3
tp100
as(S'text'
p101
tp102
(lp103
(I9
I109
F0.25
S'sharp'
p104
I18
tp105
a(I9
I109
F-0.375
S'small'
p106
I18
tp107
a(I9
I109
F0.625
S'easy'
p108
I18
tp109
a(I9
I135
F1.0
S'best'
p110
I18
tp111
as(S'high'
p112
S'quality'
p113
tp114
(lp115
(I2
I91
I0
S'high'
p116
I12
tp117
a(I5
I32
I0
S'high'
p118
I12
tp119
a(I5
I93
I0
S'high'
p120
I12
tp121
a(I10
I33
I0
S'high'
p122
I12
tp123
a(I11
I5
I0
S'more'
p124
I12
tp125
a(I11
I5
I0
S'high'
p126
I12
tp127
a(I11
I5
I0
S'high'
p128
I12
tp129
a(I11
I6
I0
S'high'
p130
I12
tp131
as(S'shutter'
p132
S'sound'
p133
tp134
(lp135
(I13
I39
F-0.75
S'impossible'
p136
I0
tp137
as(S'brightness'
p138
tp139
(lp140
(I1
I24
I0
S'automatic'
p141
I0
tp142
a(I1
I24
F0.375
S'passive'
p143
I0
tp144
a(I9
I40
F0.125
S'able'
p145
I0
tp146
as(S'flat'
p147
S'sides'
p148
tp149
(lp150
(I5
I80
F0.5
S'flat'
p151
I0
tp152
a(I5
I84
F0.5
S'flat'
p153
I0
tp154
a(I5
I94
I0
S'earlier'
p155
I0
tp156
a(I5
I94
F0.5
S'flat'
p157
I0
tp158
as(S'camera'
p159
tp160
(lp161
(I5
I51
F1.0
S'good'
p162
I1
tp163
a(I7
I11
F1.0
S'better'
p164
I1
tp165
a(I7
I11
I0
S'real'
p166
I1
tp167
a(I7
I63
F0.875
S'nice'
p168
I1
tp169
a(I8
I7
F0.875
S'nice'
p170
I1
tp171
a(I8
I52
F-0.625
S'other'
p172
I1
tp173
a(I9
I19
I0
S'great'
p174
I1
tp175
a(I9
I54
F-0.625
S'unlike'
p176
I1
tp177
a(I9
I85
F-0.625
S'bad'
p178
I1
tp179
a(I9
I87
I0
S'great'
p180
I1
tp181
a(I10
I30
F0.625
S'acceptable'
p182
I1
tp183
a(I10
I32
F-0.75
S'dark'
p184
I1
tp185
a(I14
I20
F0.125
S'capable'
p186
I1
tp187
as(S'sprint'
p188
tp189
(lp190
(I5
I64
I0
S'prior'
p191
I0
tp192
a(I9
I78
I0
S'gal'
p193
I0
tp194
a(I9
I117
I0
S'more'
p195
I0
tp196
as(S'iphone'
p197
tp198
(lp199
(I7
I44
F0.25
S'original'
p200
I1
tp201
a(I7
I44
F1.0
S'good'
p202
I1
tp203
a(I8
I54
F0.75
S'due'
p204
I1
tp205
a(I9
I148
F-0.25
S'past'
p206
I1
tp207
as(S'speed'
p208
tp209
(lp210
(I2
I12
I0
S'normal'
p211
I9
tp212
a(I10
I1
I0
S'phenomenal'
p213
I9
tp214
as(S'memory'
p215
tp216
(lp217
(I6
I17
I0
S'internal'
p218
I5
tp219
a(I8
I46
I0
S'internal'
p220
I5
tp221
a(I13
I58
I0
S'more'
p222
I5
tp223
a(I13
I58
I0
S'internal'
p224
I5
tp225
as(S'build'
p226
S'quality'
p227
tp228
(lp229
(I0
I2
F1.0
S'good'
p230
I2
tp231
a(I1
I11
F1.0
S'better'
p232
I2
tp233
a(I13
I58
F0.375
S'much'
p234
I2
tp235
a(I13
I58
I0
S'great'
p236
I2
tp237
as(S'button'
p238
tp239
(lp240
(I5
I111
F0.125
S'key'
p241
I19
tp242
as(S'glass'
p243
tp244
(lp245
(I1
I6
I0
S'plastic'
p246
I9
tp247
a(I1
I6
I0
S'plastic'
p248
I9
tp249
a(I5
I121
F-0.375
S'smooth'
p250
I9
tp251
a(I9
I90
I0
S'sturdy'
p252
I9
tp253
a(I9
I94
F0.5
S'strong'
p254
I9
tp255
as(S'sd'
p256
S'card'
p257
tp258
(lp259
(I0
I24
I0
S'great'
p260
I0
tp261
a(I0
I24
F0.875
S'music'
p262
I0
tp263
as(S'android'
p264
tp265
(lp266
(I6
I39
F0.125
S'last'
p267
I0
tp268
a(I9
I47
F-0.625
S'conventional'
p269
I0
tp270
a(I9
I123
F0.125
S'first'
p271
I0
tp272
as(S'card'
p273
S'slot'
p274
tp275
(lp276
(I11
I44
I0
S'notable'
p277
I0
tp278
a(I11
I44
I0
g277
I6
tp279
as(S'calls'
p280
tp281
(lp282
(I5
I43
I0
S'many'
p283
I0
tp284
a(I9
I43
F0.375
S'available'
p285
I0
tp286
a(I9
I43
F0.875
S'important'
p287
I0
tp288
a(I9
I59
F0.25
S'routine'
p289
I0
tp290
as(S'a'
p291
S'quad'
p292
S'core'
p293
tp294
(lp295
(I0
I11
F-0.625
g73
I0
tp296
a(I1
I12
I0
g75
I0
tp297
a(I2
I12
I0
g77
I0
tp298
a(I2
I44
I0
g79
I0
tp299
a(I2
I83
I0
g81
I0
tp300
a(I9
I97
F0.125
g83
I0
tp301
as(S'butter'
p302
S'smooth'
p303
tp304
(lp305
(I7
I60
F-0.75
S'little'
p306
I0
tp307
a(I7
I36
F-0.125
S'super'
p308
I16
tp309
a(I7
I60
F-0.75
g306
I16
tp310
as(S'optimus'
p311
S'g'
p312
tp313
(lp314
(I0
I5
F0.5
S'upgraded'
p315
I0
tp316
a(I0
I22
I0
S'old'
p317
I0
tp318
a(I1
I18
I0
S'close'
p319
I0
tp320
a(I1
I18
F0.5
S'matching'
p321
I0
tp322
a(I2
I50
F-0.625
S'quieter'
p323
I0
tp324
a(I2
I122
I0
S'great'
p325
I0
tp326
a(I5
I63
I0
S'more'
p327
I0
tp328
a(I6
I24
F-0.625
S'free'
p329
I0
tp330
a(I7
I47
F0.75
S'fit'
p331
I0
tp332
a(I7
I90
F0.125
S'first'
p333
I0
tp334
a(I9
I46
I0
S'fast'
p335
I0
tp336
a(I13
I12
F0.125
S'last'
p337
I0
tp338
a(I14
I15
F0.875
S'nice'
p339
I0
tp340
a(I0
I5
F0.5
g315
I0
tp341
a(I0
I22
I0
g317
I0
tp342
a(I2
I50
F-0.625
g323
I0
tp343
a(I2
I122
I0
g325
I0
tp344
a(I5
I63
I0
g327
I0
tp345
a(I7
I90
F0.125
g333
I0
tp346
a(I14
I15
F0.875
g339
I0
tp347
as(S'wifi'
p348
tp349
(lp350
(I0
I17
F-0.5
S'weak'
p351
I0
tp352
a(I2
I39
F1.0
S'better'
p353
I0
tp354
as(S'apps'
p355
tp356
(lp357
(I2
I62
F-0.625
S'free'
p358
I0
tp359
a(I9
I99
I0
S'many'
p360
I0
tp361
a(I10
I20
I0
S'multiple'
p362
I0
tp363
as.