(dp0
(S'battery'
p1
S'life'
p2
tp3
(lp4
(I16
I0
F1.0
S'good'
p5
I1
tp6
a(I16
I0
F-0.75
S'short'
p7
I1
tp8
a(I1
I5
F0.375
S'extra'
p9
I15
tp10
a(I6
I7
F0.125
S'last'
p11
I15
tp12
as(S'regular'
p13
S'cell'
p14
tp15
(lp16
(I18
I2
F-0.5
S'regular'
p17
I0
tp18
a(I24
I7
F-0.5
S'regular'
p19
I0
tp20
a(I33
I3
F-0.25
S'inexpensive'
p21
I0
tp22
a(I33
I3
I0
S'basic'
p23
I0
tp24
a(I33
I3
F-0.5
S'regular'
p25
I0
tp26
as(S'text'
p27
tp28
(lp29
(I2
I7
F1.0
S'good'
p30
I18
tp31
as(S'calls'
p32
tp33
(lp34
(I0
I12
F-0.5
S'answer'
p35
I0
tp36
a(I0
I13
I0
S'wish'
p37
I0
tp38
a(I6
I27
F0.625
S'easy'
p39
I0
tp40
a(I33
I26
I0
S'dial'
p41
I0
tp42
a(I34
I5
I0
S'great'
p43
I0
tp44
as(S'200'
p45
S'minutes'
p46
tp47
(lp48
(I24
I101
I0
S'next'
p49
I0
tp50
a(I24
I101
I-100
S'non-used'
p51
I0
tp52
as(S'sim'
p53
S'card'
p54
tp55
(lp56
(I32
I12
I0
S'old'
p57
I0
tp58
as(S'wrist'
p59
tp60
(lp61
(I27
I9
F-0.75
S'little'
p62
I0
tp63
as(S'camera'
p64
tp65
(lp66
(I1
I1
F-0.5
S'poor'
p67
I1
tp68
a(I24
I30
F-0.375
S'top'
p69
I1
tp70
a(I33
I17
F0.625
S'acceptable'
p71
I1
tp72
a(I33
I17
F-0.625
S'other'
p73
I1
tp74
a(I33
I17
F0.375
S'available'
p75
I1
tp76
as(S'touch'
p77
S'screen'
p78
tp79
(lp80
(I33
I52
F0.5
S'touch'
p81
I2
tp82
a(I33
I52
F1.0
S'good'
p83
I2
tp84
as(S'sound'
p85
S'quality'
p86
tp87
(lp88
(I7
I9
F1.0
S'good'
p89
I0
tp90
as.