(dp0
(S'battery'
p1
S'life'
p2
tp3
(lp4
(I5
I96
I0
S'fast'
p5
I1
tp6
a(I5
I96
F1.0
S'good'
p7
I1
tp8
a(I6
I121
F0.625
S'fair'
p9
I1
tp10
a(I23
I20
I0
S'great'
p11
I1
tp12
a(I28
I12
F1.0
S'better'
p13
I1
tp14
a(I34
I66
F0.25
S'stellar'
p15
I1
tp16
a(I5
I96
F1.0
g7
I19
tp17
a(I23
I20
I0
g11
I19
tp18
a(I28
I12
F1.0
g13
I19
tp19
a(I34
I66
F0.25
g15
I19
tp20
a(I5
I96
I0
g5
I15
tp21
a(I6
I121
F0.625
g9
I15
tp22
a(I7
I27
I0
S'few'
p23
I15
tp24
a(I17
I2
I0
S'more'
p25
I15
tp26
a(I20
I19
F0.125
S'last'
p27
I15
tp28
a(I20
I19
F-0.5
S'long'
p29
I15
tp30
a(I21
I1
F-0.875
S'trouble'
p31
I15
tp32
a(I29
I20
F1.0
S'good'
p33
I15
tp34
as(S'camera'
p35
tp36
(lp37
(I4
I0
I0
S'great'
p38
I1
tp39
a(I5
I64
I0
S'great'
p40
I1
tp41
a(I6
I12
F1.0
S'good'
p42
I1
tp43
a(I6
I40
I0
S'great'
p44
I1
tp45
a(I6
I116
F1.0
S'good'
p46
I1
tp47
a(I6
I116
F-0.625
S'other'
p48
I1
tp49
a(I6
I139
F0.625
S'perfect'
p50
I1
tp51
a(I8
I2
F0.875
S'nice'
p52
I1
tp53
a(I8
I2
F0.875
S'nice'
p54
I1
tp55
a(I10
I27
F1.0
S'good'
p56
I1
tp57
a(I10
I27
F1.0
S'good'
p58
I1
tp59
a(I16
I2
F0.625
S'superior'
p60
I1
tp61
a(I19
I3
F0.125
S'spectacular'
p62
I1
tp63
a(I19
I14
F1.0
S'good'
p64
I1
tp65
a(I27
I16
F0.5
S'drive'
p66
I1
tp67
a(I32
I1
F1.0
S'good'
p68
I1
tp69
a(I34
I21
F-0.5
S'less'
p70
I1
tp71
a(I34
I21
F0.25
S'stellar'
p72
I1
tp73
a(I34
I23
I0
S'least'
p74
I1
tp75
a(I36
I31
I0
S'full'
p76
I1
tp77
as(S'operating'
p78
S'system'
p79
tp80
(lp81
(I7
I24
F0.875
S'nice'
p82
I2
tp83
a(I30
I12
F1.0
S'good'
p84
I2
tp85
a(I7
I24
F0.875
g82
I12
tp86
a(I15
I41
I0
S'faster'
p87
I12
tp88
a(I15
I41
I0
S'more'
p89
I12
tp90
a(I30
I10
I0
S'efficient'
p91
I12
tp92
a(I30
I10
F-0.125
S'slow'
p93
I12
tp94
a(I5
I74
I0
S'german'
p95
I2
tp96
a(I5
I74
F-0.375
S'manual'
p97
I2
tp98
a(I30
I12
F1.0
g84
I2
tp99
as(S'live'
p100
S'tiles'
p101
tp102
(lp103
(I6
I32
F0.5
S'live'
p104
I0
tp105
a(I14
I22
F0.5
S'live'
p106
I0
tp107
a(I14
I22
I0
S'cool'
p108
I0
tp109
a(I40
I29
F0.5
S'live'
p110
I0
tp111
a(I40
I49
F0.5
S'live'
p112
I0
tp113
as(S'windows'
p114
tp115
(lp116
(I6
I112
F0.125
S'first'
p117
I0
tp118
a(I6
I126
F-0.5
S'existent'
p119
I0
tp120
a(I14
I0
I0
S'few'
p121
I0
tp122
a(I14
I0
I0
S'different'
p123
I0
tp124
a(I19
I19
F0.375
S'available'
p125
I0
tp126
a(I40
I58
F0.375
S'new'
p127
I0
tp128
as(S'market'
p129
tp130
(lp131
(I6
I85
I0
S'local'
p132
I16
tp133
a(I6
I108
F-0.375
S'black'
p134
I16
tp135
a(I6
I125
F-0.75
S'sad'
p136
I16
tp137
a(I7
I27
F-0.875
S'stinky'
p138
I16
tp139
a(I40
I2
I0
S'european'
p140
I16
tp141
a(I40
I31
F1.0
S'best'
p142
I16
tp143
as(S'apple'
p144
tp145
(lp146
(I20
I7
F0.625
S'easy'
p147
I4
tp148
a(I38
I10
I0
S'latest'
p149
I4
tp150
as(S'factory'
p151
S'unlocked'
p152
tp153
(lp154
(I6
I48
F-0.5
S'international'
p155
I0
tp156
a(I6
I52
F-0.5
S'international'
p157
I0
tp158
a(I6
I57
F-0.5
S'international'
p159
I0
tp160
a(I8
I16
F0.375
S'new'
p161
I0
tp162
a(I11
I1
I0
S'soft'
p163
I0
tp164
a(I11
I1
F-0.625
S'clean'
p165
I0
tp166
a(I11
I1
I0
S'english'
p167
I0
tp168
a(I25
I0
F-0.5
S'sure'
p169
I0
tp170
a(I6
I48
F-0.5
g155
I2
tp171
a(I6
I52
F-0.5
g157
I2
tp172
a(I6
I57
F-0.5
g159
I2
tp173
a(I8
I16
F0.375
g161
I2
tp174
a(I25
I0
F-0.5
g169
I2
tp175
as(S'seller'
p176
tp177
(lp178
(I2
I1
F0.625
S'interested'
p179
I19
tp180
a(I2
I2
F-0.125
S'mine'
p181
I19
tp182
a(I6
I33
F0.375
S'much'
p183
I19
tp184
a(I6
I98
F-0.625
S'other'
p185
I19
tp186
a(I6
I100
F-0.5
S'sure'
p187
I19
tp188
a(I28
I6
I0
S'different'
p189
I19
tp190
a(I33
I7
I0
S'e-mail'
p191
I19
tp192
a(I34
I80
I0
S'wish'
p193
I19
tp194
a(I34
I80
I0
S'least'
p195
I19
tp196
as(S'android'
p197
tp198
(lp199
(I8
I2
F0.5
S'comparable'
p200
I0
tp201
a(I8
I2
F0.875
S'nice'
p202
I0
tp203
a(I36
I23
I0
S'most'
p204
I0
tp205
a(I36
I23
F0.25
S'recent'
p206
I0
tp207
as(S'updates'
p208
tp209
(lp210
(I6
I58
I0
S'latest'
p211
I12
tp212
a(I6
I70
I0
S'next'
p213
I12
tp214
a(I6
I70
F0.375
S'available'
p215
I12
tp216
as(S'card'
p217
S'slot'
p218
tp219
(lp220
(I4
I7
F-0.625
S'other'
p221
I0
tp222
as(S'microsoft'
p223
tp224
(lp225
(I14
I6
F-0.75
S'sad'
p226
I0
tp227
a(I20
I15
F0.875
S'happy'
p228
I0
tp229
as(S'language'
p230
tp231
(lp232
(I6
I37
I0
S'english'
p233
I3
tp234
a(I6
I38
F0.625
S'easy'
p235
I3
tp236
a(I6
I101
I0
S'italian'
p237
I3
tp238
a(I11
I1
I0
S'spanish'
p239
I3
tp240
a(I11
I1
I0
S'spanish'
p241
I3
tp242
a(I34
I71
I0
S'english'
p243
I3
tp244
as(S'sim'
p245
S'card'
p246
tp247
(lp248
(I3
I8
F0.75
S'proper'
p249
I0
tp250
a(I27
I4
I0
S'different'
p251
I0
tp252
a(I29
I16
F-0.75
S'invalid'
p253
I0
tp254
as(S'music'
p255
tp256
(lp257
(I6
I128
F0.125
S'dedicated'
p258
I0
tp259
a(I11
I5
I0
S'descent'
p260
I0
tp261
a(I14
I1
F0.25
S'duplicate'
p262
I0
tp263
a(I14
I1
F-0.5
S'poor'
p264
I0
tp265
a(I14
I3
F0.25
S'duplicate'
p266
I0
tp267
a(I14
I12
I0
S'entire'
p268
I0
tp269
as(S'podcast'
p270
S'files'
p271
tp272
(lp273
(I14
I1
F-0.625
S'unplayable'
p274
I0
tp275
a(I14
I9
F0.625
S'add'
p276
I0
tp277
a(I14
I10
I0
S'podcast'
p278
I0
tp279
as(S'international'
p280
S'version'
p281
tp282
(lp283
(I6
I44
F-0.5
S'international'
p284
I0
tp285
a(I6
I46
F-0.5
S'international'
p286
I0
tp287
a(I6
I73
F-0.5
S'international'
p288
I0
tp289
a(I26
I12
F-0.5
S'international'
p290
I0
tp291
a(I30
I21
I0
S'nervous'
p292
I0
tp293
as(S'customer'
p294
S'service'
p295
tp296
(lp297
(I5
I30
F0.125
S'usual'
p298
I3
tp299
a(I14
I57
F1.0
S'good'
p300
I3
tp301
a(I5
I30
F0.125
g298
I16
tp302
a(I14
I57
F1.0
g300
I16
tp303
as(S'apps'
p304
tp305
(lp306
(I5
I67
F0.375
S'available'
p307
I0
tp308
a(I6
I7
F-0.625
S'other'
p309
I0
tp310
a(I6
I32
I0
S'cool'
p311
I0
tp312
a(I6
I88
I0
S'local'
p313
I0
tp314
a(I6
I126
I0
S'most'
p315
I0
tp316
a(I8
I3
F0.5
S'comparable'
p317
I0
tp318
a(I8
I7
F0.125
S'native'
p319
I0
tp320
a(I13
I7
F-0.625
S'generous'
p321
I0
tp322
a(I13
I7
F-0.625
S'free'
p323
I0
tp324
a(I13
I7
F0.375
S'new'
p325
I0
tp326
a(I13
I17
F-0.625
S'articulate'
p327
I0
tp328
a(I24
I0
F1.0
S'good'
p329
I0
tp330
a(I34
I5
I0
S'exclusive'
p331
I0
tp332
a(I36
I29
F-0.75
S'little'
p333
I0
tp334
a(I39
I0
I0
S'few'
p335
I0
tp336
a(I40
I30
F-0.625
S'other'
p337
I0
tp338
a(I40
I34
I0
S'useful'
p339
I0
tp340
a(I40
I41
I0
S'own'
p341
I0
tp342
as(S'amazon'
p343
tp344
(lp345
(I8
I19
I0
S'reconsider'
p346
I13
tp347
as(S'screen'
p348
S'protector'
p349
tp350
(lp351
(I12
I5
I0
S'entire'
p352
I4
tp353
as(S'a'
p354
S'nokia'
p355
S'lumia'
p356
tp357
(lp358
(I8
I11
I0
S'update'
p359
I0
tp360
a(I11
I1
F0.625
S'add'
p361
I0
tp362
a(I30
I3
F0.375
S'new'
p363
I0
tp364
a(I30
I3
F0.25
S'unlocked'
p365
I0
tp366
a(I8
I11
I0
g359
I0
tp367
a(I11
I1
F0.625
g361
I0
tp368
a(I30
I3
F0.375
g363
I0
tp369
a(I30
I3
F0.25
g365
I0
tp370
a(I4
I11
F1.0
S'best'
p371
I0
tp372
a(I5
I61
F-0.636
S'genuine'
p373
I0
tp374
a(I6
I40
F0.25
S'responsive'
p375
I0
tp376
a(I6
I65
I0
S'inside'
p377
I0
tp378
a(I8
I11
I0
g359
I0
tp379
a(I23
I9
F0.5
S'second'
p380
I0
tp381
a(I26
I15
I0
S'more'
p382
I0
tp383
a(I26
I15
F-0.75
S'likely'
p384
I0
tp385
a(I27
I6
I0
S'old'
p386
I0
tp387
a(I28
I2
F0.125
S'last'
p388
I0
tp389
a(I28
I8
I0
S'unfair'
p390
I0
tp391
a(I30
I3
F0.375
g363
I0
tp392
a(I30
I3
F0.25
g365
I0
tp393
a(I30
I15
F-0.625
S'glad'
p394
I0
tp395
a(I34
I5
F-0.375
S'top'
p396
I0
tp397
a(I38
I20
I0
S'sleek'
p398
I0
tp399
a(I40
I41
I0
S'many'
p400
I0
tp401
a(I40
I63
F0.25
S'original'
p402
I0
tp403
a(I4
I20
I0
S'only'
p404
I0
tp405
a(I4
I20
F-0.625
S'bad'
p406
I0
tp407
a(I11
I1
F0.625
g361
I0
tp408
a(I14
I49
F-0.75
S'incapable'
p409
I0
tp410
a(I18
I19
F1.0
S'best'
p411
I0
tp412
a(I26
I27
F0.25
S'original'
p413
I0
tp414
a(I29
I8
I0
S'normal'
p415
I0
tp416
as(S'design'
p417
S'flaw'
p418
tp419
(lp420
(I14
I53
F0.5
S'obvious'
p421
I3
tp422
as.