(dp0
(S'call'
p1
S'quality'
p2
tp3
(lp4
(I4
I41
F-0.625
S'average'
p5
I0
tp6
a(I4
I41
F0.375
S'loud'
p7
I0
tp8
a(I4
I41
F0.5
S'clear'
p9
I0
tp10
a(I10
I17
F-0.625
S'bad'
p11
I0
tp12
as(S'sound'
p13
S'quality'
p14
tp15
(lp16
(I4
I41
F-0.625
g5
I0
tp17
a(I4
I41
F0.375
g7
I0
tp18
a(I4
I41
F0.5
g9
I0
tp19
a(I6
I0
F0.625
S'interested'
p20
I0
tp21
a(I6
I0
F1.0
S'good'
p22
I0
tp23
as(S'screen'
p24
S'resolution'
p25
tp26
(lp27
(I5
I10
F1.0
S'best'
p28
I0
tp29
a(I6
I5
F-0.5
S'poor'
p30
I0
tp31
a(I15
I0
F1.0
S'good'
p32
I0
tp33
as(S'sim'
p34
S'card'
p35
tp36
(lp37
(I2
I10
F0.5
S'true'
p38
I0
tp39
a(I2
I10
F-0.5
S'regular'
p40
I0
tp41
as.