(dp0
(S'screen'
p1
S'size'
p2
tp3
(lp4
(I4
I170
I0
S'big'
p5
I3
tp6
a(I5
I34
F0.625
S'perfect'
p7
I3
tp8
a(I5
I55
I0
S'adequate'
p9
I3
tp10
a(I30
I30
F-0.25
S'thin'
p11
I3
tp12
a(I40
I9
I0
S'same'
p13
I3
tp14
a(I44
I2
F0.875
S'nice'
p15
I3
tp16
a(I44
I2
F-0.875
S'hard'
p17
I3
tp18
as(S'root'
p19
tp20
(lp21
(I5
I86
F0.625
S'easy'
p22
I0
tp23
a(I30
I110
F-0.75
S'impossible'
p24
I0
tp25
a(I39
I25
F0.375
S'available'
p26
I0
tp27
a(I43
I41
F-0.75
S'impossible'
p28
I0
tp29
as(S'a'
p30
S'micro'
p31
S'sim'
p32
tp33
(lp34
(I4
I187
F-0.5
S'regular'
p35
I0
tp36
a(I11
I15
F0.125
S'usual'
p37
I0
tp38
a(I30
I91
F-0.5
S'regular'
p39
I0
tp40
a(I30
I91
I0
S'website'
p41
I0
tp42
a(I33
I21
F0.375
S'new'
p43
I0
tp44
as(S'text'
p45
tp46
(lp47
(I35
I89
F1.0
S'better'
p48
I18
tp49
a(I35
I95
I0
S'common'
p50
I18
tp51
a(I39
I30
F1.0
S'better'
p52
I18
tp53
as(S'call'
p54
S'quality'
p55
tp56
(lp57
(I3
I16
F1.0
S'good'
p58
I0
tp59
a(I4
I116
I0
S'great'
p60
I0
tp61
a(I4
I117
F1.0
S'good'
p62
I0
tp63
a(I5
I4
F1.0
S'good'
p64
I0
tp65
a(I6
I13
F0.125
S'impressive'
p66
I0
tp67
a(I22
I11
F0.625
S'easy'
p68
I0
tp69
a(I22
I28
F0.25
S'sharp'
p70
I0
tp71
a(I35
I46
F0.875
S'nice'
p72
I0
tp73
as(S'nexus'
p74
S'7'
p75
S'tablet'
p76
tp77
(lp78
(I5
I93
I0
S'faster'
p79
I0
tp80
a(I5
I99
I0
S'earlier'
p81
I0
tp82
a(I26
I26
I0
S'faster'
p83
I0
tp84
as(S'front'
p85
S'facing'
p86
S'camera'
p87
tp88
(lp89
(I11
I90
F1.0
S'good'
p90
I0
tp91
a(I1
I13
F-0.625
S'bad'
p92
I1
tp93
a(I2
I1
F1.0
S'good'
p94
I1
tp95
a(I2
I5
F1.0
S'good'
p96
I1
tp97
a(I3
I7
F1.0
S'good'
p98
I1
tp99
a(I3
I15
F0.125
S'impressive'
p100
I1
tp101
a(I4
I23
F1.0
S'good'
p102
I1
tp103
a(I4
I23
F-0.125
S'overall'
p104
I1
tp105
a(I4
I53
I0
S'great'
p106
I1
tp107
a(I4
I78
I0
S'real'
p108
I1
tp109
a(I5
I32
F0.875
S'nice'
p110
I1
tp111
a(I5
I104
F0.625
S'easy'
p112
I1
tp113
a(I6
I4
F0.625
S'perfect'
p114
I1
tp115
a(I6
I138
F1.0
S'better'
p116
I1
tp117
a(I11
I70
F0.625
S'easiest'
p118
I1
tp119
a(I11
I71
I0
S'great'
p120
I1
tp121
a(I11
I89
F0.875
S'nice'
p122
I1
tp123
a(I11
I90
F1.0
g90
I1
tp124
a(I11
I95
F0.25
S'professional'
p125
I1
tp126
a(I19
I18
F1.0
S'good'
p127
I1
tp128
a(I26
I15
F1.0
S'best'
p129
I1
tp130
a(I30
I210
F1.0
S'good'
p131
I1
tp132
a(I30
I210
F0.5
S'clear'
p133
I1
tp134
a(I30
I218
F-0.5
S'sure'
p135
I1
tp136
a(I31
I29
F1.0
S'good'
p137
I1
tp138
a(I35
I23
F1.0
S'best'
p139
I1
tp140
a(I35
I83
I0
S'e-mail'
p141
I1
tp142
as(S'to'
p143
S'sd'
p144
S'card'
p145
tp146
(lp147
(I3
I14
F0.25
S'bigger'
p148
I0
tp149
a(I3
I14
F0.25
S'bigger'
p150
I0
tp151
a(I4
I126
F0.375
S'much'
p152
I0
tp153
a(I4
I126
F0.5
S'possible'
p154
I0
tp155
a(I4
I178
I0
S'external'
p156
I0
tp157
a(I6
I79
I0
S'hot'
p158
I0
tp159
a(I6
I181
I0
S'external'
p160
I0
tp161
a(I6
I200
I0
S'external'
p162
I0
tp163
a(I11
I142
F0.875
S'music'
p164
I0
tp165
a(I21
I12
I0
S'sd'
p166
I0
tp167
a(I22
I28
F-0.25
S'higher'
p168
I0
tp169
a(I30
I220
F-0.625
S'free'
p170
I0
tp171
a(I32
I2
I0
S'external'
p172
I0
tp173
a(I33
I76
I0
S'external'
p174
I0
tp175
a(I35
I74
F-0.875
S'hard'
p176
I0
tp177
a(I50
I6
I0
S'external'
p178
I0
tp179
a(I3
I14
F0.25
g148
I0
tp180
a(I3
I14
F0.25
g150
I0
tp181
a(I4
I126
F0.375
g152
I0
tp182
a(I4
I126
F0.5
g154
I0
tp183
a(I4
I178
I0
g156
I0
tp184
a(I6
I79
I0
g158
I0
tp185
a(I6
I181
I0
g160
I0
tp186
a(I6
I200
I0
g162
I0
tp187
a(I11
I142
F0.875
g164
I0
tp188
a(I21
I12
I0
g166
I0
tp189
a(I22
I28
F-0.25
g168
I0
tp190
a(I30
I220
F-0.625
g170
I0
tp191
a(I32
I2
I0
g172
I0
tp192
a(I33
I76
I0
g174
I0
tp193
a(I35
I74
F-0.875
g176
I0
tp194
a(I50
I6
I0
g178
I0
tp195
as(S'bells'
p196
S'and'
p197
S'whistles'
p198
tp199
(lp200
(I25
I5
F0.5
S'hi-tech'
p201
I0
tp202
a(I31
I9
I0
S'more'
p203
I0
tp204
a(I42
I5
I0
S'faster'
p205
I0
tp206
as(S'micro'
p207
S'sim'
p208
S'card'
p209
tp210
(lp211
(I4
I187
F-0.5
g35
I0
tp212
a(I6
I78
I0
S'underneath'
p213
I0
tp214
a(I33
I21
F0.375
g43
I0
tp215
a(I4
I187
F-0.5
g35
I0
tp216
a(I6
I78
I0
g213
I0
tp217
a(I22
I34
F0.375
S'new'
p218
I0
tp219
a(I30
I68
F-0.5
S'regular'
p220
I0
tp221
a(I30
I68
I0
S'sized'
p222
I0
tp223
as(S'internal'
p224
S'storage'
p225
tp226
(lp227
(I2
I2
I0
S'internal'
p228
I0
tp229
a(I2
I7
I0
S'limited'
p230
I0
tp231
a(I2
I7
I0
S'internal'
p232
I0
tp233
a(I4
I63
I0
S'internal'
p234
I0
tp235
a(I6
I14
F-0.75
S'little'
p236
I0
tp237
a(I6
I14
I0
S'internal'
p238
I0
tp239
a(I6
I14
F0.375
S'forcing'
p240
I0
tp241
a(I6
I125
I0
S'internal'
p242
I0
tp243
a(I6
I136
I0
S'internal'
p244
I0
tp245
a(I11
I7
I0
S'internal'
p246
I0
tp247
a(I21
I12
I0
S'internal'
p248
I0
tp249
a(I31
I29
I0
S'internal'
p250
I0
tp251
a(I31
I45
I0
S'internal'
p252
I0
tp253
a(I43
I25
I0
S'internal'
p254
I0
tp255
a(I43
I25
F-0.875
S'hard'
p256
I0
tp257
a(I43
I25
F0.5
S'drive'
p258
I0
tp259
a(I43
I26
I0
S'internal'
p260
I0
tp261
a(I43
I26
F-0.375
S'small'
p262
I0
tp263
a(I43
I26
I0
S'internal'
p264
I0
tp265
a(I43
I29
I0
S'internal'
p266
I0
tp267
a(I43
I35
I0
S'internal'
p268
I0
tp269
a(I54
I24
F-0.25
S'low'
p270
I0
tp271
a(I54
I24
I0
S'internal'
p272
I0
tp273
a(I2
I2
I0
g228
I1
tp274
a(I2
I7
I0
g230
I1
tp275
a(I2
I7
I0
g232
I1
tp276
a(I4
I63
I0
g234
I1
tp277
a(I6
I14
F-0.75
g236
I1
tp278
a(I6
I14
I0
g238
I1
tp279
a(I6
I14
F0.375
g240
I1
tp280
a(I6
I125
I0
g242
I1
tp281
a(I6
I136
I0
g244
I1
tp282
a(I11
I7
I0
g246
I1
tp283
a(I21
I12
I0
g248
I1
tp284
a(I31
I29
I0
g250
I1
tp285
a(I31
I45
I0
g252
I1
tp286
a(I39
I5
I0
S'external'
p287
I1
tp288
a(I43
I25
I0
g254
I1
tp289
a(I43
I25
F-0.875
g256
I1
tp290
a(I43
I25
F0.5
g258
I1
tp291
a(I43
I26
I0
g260
I1
tp292
a(I43
I26
F-0.375
g262
I1
tp293
a(I43
I26
I0
g264
I1
tp294
a(I43
I29
I0
g266
I1
tp295
a(I43
I35
I0
g268
I1
tp296
a(I54
I24
F-0.25
g270
I1
tp297
a(I54
I24
I0
g272
I1
tp298
as(S'ice'
p299
S'cream'
p300
S'sandwich'
p301
tp302
(lp303
(I5
I59
F0.875
S'nice'
p304
I0
tp305
a(I5
I59
F0.375
S'new'
p306
I0
tp307
as(S'on'
p308
S'sd'
p309
S'card'
p310
tp311
(lp312
(I3
I14
F0.25
g148
I0
tp313
a(I3
I14
F0.25
g150
I0
tp314
a(I4
I178
I0
g156
I0
tp315
a(I6
I181
I0
g160
I0
tp316
a(I21
I12
I0
g166
I0
tp317
a(I22
I28
F-0.25
g168
I0
tp318
a(I30
I220
F-0.625
g170
I0
tp319
a(I32
I2
I0
g172
I0
tp320
a(I33
I76
I0
g174
I0
tp321
a(I35
I74
F-0.875
g176
I0
tp322
a(I50
I6
I0
g178
I0
tp323
as(S'android'
p324
tp325
(lp326
(I0
I3
F1.0
S'best'
p327
I0
tp328
a(I10
I35
I0
S'great'
p329
I0
tp330
a(I18
I4
F0.375
S'new'
p331
I0
tp332
a(I22
I28
F0.375
S'newer'
p333
I0
tp334
a(I28
I6
F0.125
S'first'
p335
I0
tp336
a(I32
I0
F-0.125
S'bean'
p337
I0
tp338
a(I35
I85
I0
S'many'
p339
I0
tp340
a(I39
I43
F0.375
S'newest'
p341
I0
tp342
a(I43
I26
I0
S'many'
p343
I0
tp344
a(I43
I40
I0
S'android'
p345
I0
tp346
as(S'bloatware'
p347
tp348
(lp349
(I4
I163
F0.375
S'loud'
p350
I0
tp351
a(I5
I86
F-0.375
S'smoother'
p352
I0
tp353
a(I6
I169
I0
S'few'
p354
I0
tp355
a(I6
I169
F-0.875
S'awful'
p356
I0
tp357
a(I43
I35
I0
S'next'
p358
I0
tp359
as(S'apps'
p360
S'to'
p361
S'sd'
p362
tp363
(lp364
(I4
I178
I0
S'download'
p365
I0
tp366
a(I4
I178
I0
g156
I0
tp367
a(I5
I40
I0
S'external'
p368
I0
tp369
a(I6
I181
I0
g160
I0
tp370
a(I6
I200
I0
g162
I0
tp371
a(I11
I47
I0
S'many'
p372
I0
tp373
a(I30
I202
F-0.75
S'impossible'
p374
I0
tp375
a(I32
I2
I0
g172
I0
tp376
a(I35
I74
I0
S'such'
p377
I0
tp378
a(I35
I74
I0
S'many'
p379
I0
tp380
a(I39
I26
I0
S'external'
p381
I0
tp382
a(I46
I13
F0.375
S'new'
p383
I0
tp384
a(I50
I6
I0
g178
I0
tp385
a(I50
I6
I0
S'few'
p386
I0
tp387
as(S'sd'
p388
S'card'
p389
S'slot'
p390
tp391
(lp392
(I21
I12
I0
g166
I0
tp393
as(S'high'
p394
S'end'
p395
tp396
(lp397
(I4
I209
I0
S'high'
p398
I0
tp399
a(I11
I107
F-0.25
S'higher'
p400
I0
tp401
a(I18
I12
I0
S'high'
p402
I0
tp403
a(I18
I15
I0
S'high'
p404
I0
tp405
a(I29
I1
I0
S'high'
p406
I0
tp407
a(I30
I149
I0
S'high'
p408
I0
tp409
a(I30
I167
I0
S'high'
p410
I0
tp411
a(I30
I178
I0
S'high'
p412
I0
tp413
a(I30
I225
I0
S'high'
p414
I0
tp415
a(I33
I28
I0
S'high'
p416
I0
tp417
a(I41
I11
I0
S'high'
p418
I0
tp419
a(I50
I13
I0
S'high'
p420
I0
tp421
as(S'smart'
p422
tp423
(lp424
(I4
I208
F-0.625
S'light'
p425
I10
tp426
a(I4
I208
F-0.625
S'moderate'
p427
I10
tp428
a(I4
I210
F-0.125
S'ultimate'
p429
I10
tp430
a(I5
I13
F0.125
S'first'
p431
I10
tp432
a(I22
I27
I0
S'more'
p433
I10
tp434
a(I22
I27
F0.5
S'expensive'
p435
I10
tp436
a(I30
I12
I0
S'real'
p437
I10
tp438
a(I33
I38
F0.125
S'first'
p439
I10
tp440
a(I33
I61
I0
S'most'
p441
I10
tp442
a(I34
I11
I0
S'most'
p443
I10
tp444
a(I41
I69
F0.125
S'first'
p445
I10
tp446
a(I41
I70
F0.375
S'new'
p447
I10
tp448
a(I49
I0
F0.125
S'first'
p449
I10
tp450
as(S'good'
p451
S'battery'
p452
S'life'
p453
tp454
(lp455
(I6
I180
F1.0
S'good'
p456
I0
tp457
a(I6
I180
F1.0
S'good'
p458
I0
tp459
a(I8
I34
F1.0
S'good'
p460
I0
tp461
a(I11
I186
F1.0
S'good'
p462
I0
tp463
a(I22
I22
F1.0
S'good'
p464
I0
tp465
a(I30
I171
F0.125
S'enough'
p466
I0
tp467
a(I30
I171
I0
S'normal'
p468
I0
tp469
a(I30
I212
F0.625
S'easy'
p470
I0
tp471
a(I30
I212
F1.0
S'good'
p472
I0
tp473
a(I31
I12
F1.0
S'good'
p474
I0
tp475
a(I33
I61
F-0.5
S'longest'
p476
I0
tp477
a(I45
I15
F1.0
S'good'
p478
I0
tp479
a(I0
I1
I0
S'great'
p480
I1
tp481
a(I1
I19
F-0.5
S'weak'
p482
I1
tp483
a(I4
I49
I0
S'great'
p484
I1
tp485
a(I4
I139
F-0.5
S'less'
p486
I1
tp487
a(I6
I102
F0.625
S'decent'
p488
I1
tp489
a(I6
I180
F1.0
g456
I1
tp490
a(I6
I180
F1.0
g458
I1
tp491
a(I8
I20
F-0.5
S'longer'
p492
I1
tp493
a(I8
I34
F1.0
g460
I1
tp494
a(I10
I18
F1.0
S'better'
p495
I1
tp496
a(I11
I186
F1.0
g462
I1
tp497
a(I22
I22
F1.0
g464
I1
tp498
a(I30
I171
F0.125
g466
I1
tp499
a(I30
I171
I0
g468
I1
tp500
a(I30
I187
F0.25
S'stellar'
p501
I1
tp502
a(I30
I212
F0.625
g470
I1
tp503
a(I30
I212
F1.0
g472
I1
tp504
a(I30
I224
F-0.5
S'poor'
p505
I1
tp506
a(I31
I12
F1.0
g474
I1
tp507
a(I31
I38
F0.875
S'happy'
p508
I1
tp509
a(I33
I61
F-0.5
g476
I1
tp510
a(I39
I20
I0
S'same'
p511
I1
tp512
a(I40
I1
I0
S'user'
p513
I1
tp514
a(I40
I1
I0
S'great'
p515
I1
tp516
a(I41
I16
F-0.5
S'long'
p517
I1
tp518
a(I45
I15
F1.0
g478
I1
tp519
a(I4
I49
I0
g484
I19
tp520
a(I4
I139
F-0.5
g486
I19
tp521
a(I6
I180
F1.0
g458
I19
tp522
a(I11
I186
F1.0
g462
I19
tp523
a(I22
I22
F1.0
g464
I19
tp524
a(I30
I171
F0.125
g466
I19
tp525
a(I30
I171
I0
g468
I19
tp526
a(I30
I212
F1.0
g472
I19
tp527
a(I39
I20
I0
g511
I19
tp528
a(I0
I1
I0
g480
I15
tp529
a(I1
I17
F0.125
S'first'
p530
I15
tp531
a(I1
I19
F-0.5
g482
I15
tp532
a(I2
I16
F-0.625
S'average'
p533
I15
tp534
a(I4
I34
I0
S'hot'
p535
I15
tp536
a(I4
I40
F1.0
S'best'
p537
I15
tp538
a(I4
I93
I0
S'great'
p539
I15
tp540
a(I4
I93
F-0.625
S'light'
p541
I15
tp542
a(I4
I114
F0.625
S'removable'
p543
I15
tp544
a(I4
I182
I0
S'third'
p545
I15
tp546
a(I4
I182
F0.125
S'last'
p547
I15
tp548
a(I6
I102
F0.625
g488
I15
tp549
a(I6
I180
F1.0
g456
I15
tp550
a(I8
I20
F-0.5
g492
I15
tp551
a(I8
I34
F1.0
g460
I15
tp552
a(I10
I4
F0.625
S'removable'
p553
I15
tp554
a(I10
I18
F1.0
g495
I15
tp555
a(I19
I18
F-0.5
S'long'
p556
I15
tp557
a(I22
I2
I0
S'great'
p558
I15
tp559
a(I27
I3
F-0.25
S'low'
p560
I15
tp561
a(I30
I134
I0
S'fast'
p562
I15
tp563
a(I30
I187
F0.25
g501
I15
tp564
a(I30
I212
F0.625
g470
I15
tp565
a(I30
I224
F-0.5
g505
I15
tp566
a(I30
I228
F-0.625
S'bad'
p567
I15
tp568
a(I30
I239
F-0.5
S'weak'
p569
I15
tp570
a(I31
I12
F1.0
g474
I15
tp571
a(I31
I31
F0.125
S'last'
p572
I15
tp573
a(I31
I38
F0.875
g508
I15
tp574
a(I32
I2
F0.375
S'extra'
p575
I15
tp576
a(I33
I4
F0.625
S'replaceable'
p577
I15
tp578
a(I33
I61
F-0.5
g476
I15
tp579
a(I37
I9
I0
S'fast'
p580
I15
tp581
a(I40
I1
I0
g513
I15
tp582
a(I40
I1
I0
g515
I15
tp583
a(I41
I16
F-0.5
g517
I15
tp584
a(I45
I12
F-0.5
S'power'
p585
I15
tp586
a(I45
I15
F1.0
g478
I15
tp587
a(I50
I10
F0.375
S'available'
p588
I15
tp589
a(I54
I57
I0
S'different'
p590
I15
tp591
as(S'samsung'
p592
S'galaxy'
p593
tp594
(lp595
(I22
I7
I0
S'large'
p596
I0
tp597
a(I13
I20
I0
S'fast'
p598
I0
tp599
a(I13
I20
I0
S'own'
p600
I0
tp601
a(I44
I47
I0
S'more'
p602
I0
tp603
as(S'calls'
p604
tp605
(lp606
(I11
I60
I0
S'crystal'
p607
I0
tp608
a(I13
I18
F0.875
S'important'
p609
I0
tp610
a(I30
I142
F1.0
S'good'
p611
I0
tp612
a(I50
I15
I0
S'internet'
p613
I0
tp614
as(S'wifi'
p615
S'calling'
p616
tp617
(lp618
(I4
I9
I0
S'stable'
p619
I0
tp620
a(I4
I9
I0
g619
I0
tp621
a(I4
I99
I0
S'net'
p622
I0
tp623
a(I4
I99
I0
S'quick'
p624
I0
tp625
a(I45
I28
F-0.625
S'free'
p626
I0
tp627
as(S'of'
p628
S'internal'
p629
S'memory'
p630
tp631
(lp632
(I6
I75
I0
S'internal'
p633
I0
tp634
a(I19
I6
I0
S'internal'
p635
I0
tp636
a(I21
I10
I0
S'internal'
p637
I0
tp638
a(I32
I2
F-0.25
S'low'
p639
I0
tp640
a(I32
I2
I0
S'internal'
p641
I0
tp642
a(I33
I66
I0
S'internal'
p643
I0
tp644
a(I43
I25
I0
S'electronic'
p645
I0
tp646
a(I44
I7
I0
S'internal'
p647
I0
tp648
a(I44
I44
F0.375
S'much'
p649
I0
tp650
a(I44
I44
I0
S'internal'
p651
I0
tp652
a(I46
I11
I0
S'internal'
p653
I0
tp654
a(I50
I8
I0
S'internal'
p655
I0
tp656
a(I3
I14
I0
S'internal'
p657
I0
tp658
a(I4
I148
I0
S'internal'
p659
I0
tp660
a(I6
I75
I0
g633
I0
tp661
a(I6
I208
I0
S'internal'
p662
I0
tp663
a(I11
I110
I0
S'internal'
p664
I0
tp665
a(I19
I6
I0
g635
I0
tp666
a(I20
I36
I0
S'internal'
p667
I0
tp668
a(I21
I10
I0
g637
I0
tp669
a(I30
I24
I0
S'more'
p670
I0
tp671
a(I30
I24
I0
S'internal'
p672
I0
tp673
a(I30
I201
I0
S'internal'
p674
I0
tp675
a(I30
I203
F0.25
S'larger'
p676
I0
tp677
a(I30
I203
I0
S'internal'
p678
I0
tp679
a(I30
I220
I0
S'internal'
p680
I0
tp681
a(I32
I2
F-0.25
g639
I0
tp682
a(I32
I2
I0
g641
I0
tp683
a(I33
I66
I0
g643
I0
tp684
a(I43
I25
I0
g645
I0
tp685
a(I44
I4
I0
S'internal'
p686
I0
tp687
a(I44
I7
I0
g647
I0
tp688
a(I44
I11
I0
S'internal'
p689
I0
tp690
a(I44
I11
F0.5
S'expensive'
p691
I0
tp692
a(I44
I44
F0.375
g649
I0
tp693
a(I44
I44
I0
g651
I0
tp694
a(I46
I1
I0
S'internal'
p695
I0
tp696
a(I46
I11
I0
g653
I0
tp697
a(I50
I6
I0
S'internal'
p698
I0
tp699
a(I50
I6
I0
S'more'
p700
I0
tp701
a(I50
I7
I0
S'internal'
p702
I0
tp703
a(I50
I8
I0
g655
I0
tp704
a(I3
I14
I0
g657
I5
tp705
a(I4
I137
F-0.5
S'less'
p706
I5
tp707
a(I4
I148
I0
g659
I5
tp708
a(I6
I3
F0.375
S'much'
p709
I5
tp710
a(I6
I75
I0
g633
I5
tp711
a(I6
I124
I0
S'external'
p712
I5
tp713
a(I6
I208
I0
g662
I5
tp714
a(I11
I110
I0
g664
I5
tp715
a(I11
I167
I0
S'more'
p716
I5
tp717
a(I18
I13
F-0.25
S'lower'
p718
I5
tp719
a(I19
I6
I0
g635
I5
tp720
a(I20
I36
I0
g667
I5
tp721
a(I21
I10
I0
g637
I5
tp722
a(I27
I35
F0.375
S'much'
p723
I5
tp724
a(I30
I24
I0
g670
I5
tp725
a(I30
I24
I0
g672
I5
tp726
a(I30
I193
F0.125
S'enough'
p727
I5
tp728
a(I30
I201
I0
g674
I5
tp729
a(I30
I203
F0.25
g676
I5
tp730
a(I30
I203
I0
g678
I5
tp731
a(I30
I220
I0
g680
I5
tp732
a(I31
I16
I0
S'full'
p733
I5
tp734
a(I32
I2
F-0.25
g639
I5
tp735
a(I32
I2
I0
g641
I5
tp736
a(I33
I66
I0
g643
I5
tp737
a(I33
I68
F1.0
S'good'
p738
I5
tp739
a(I33
I74
F0.75
S'due'
p740
I5
tp741
a(I34
I11
F-0.375
S'smaller'
p742
I5
tp743
a(I35
I20
F0.375
S'available'
p744
I5
tp745
a(I43
I25
I0
g645
I5
tp746
a(I44
I4
I0
g686
I5
tp747
a(I44
I7
I0
g647
I5
tp748
a(I44
I11
I0
g689
I5
tp749
a(I44
I11
F0.5
g691
I5
tp750
a(I44
I44
F0.375
g649
I5
tp751
a(I44
I44
I0
g651
I5
tp752
a(I46
I1
I0
g695
I5
tp753
a(I46
I11
I0
g653
I5
tp754
a(I50
I6
I0
g698
I5
tp755
a(I50
I6
I0
g700
I5
tp756
a(I50
I7
I0
g702
I5
tp757
a(I50
I8
I0
g655
I5
tp758
a(I54
I74
I0
S'local'
p759
I5
tp760
as(S'music'
p761
tp762
(lp763
(I33
I44
F1.0
S'best'
p764
I0
tp765
as(S'external'
p766
S'sd'
p767
S'card'
p768
tp769
(lp770
(I4
I178
I0
g156
I0
tp771
a(I6
I181
I0
g160
I0
tp772
a(I6
I200
I0
g162
I0
tp773
a(I32
I2
I0
g172
I0
tp774
a(I33
I76
I0
g174
I0
tp775
a(I50
I6
I0
g178
I0
tp776
a(I4
I114
I0
S'external'
p777
I0
tp778
a(I4
I178
I0
g156
I0
tp779
a(I5
I40
I0
g368
I0
tp780
a(I6
I181
I0
g160
I0
tp781
a(I6
I200
I0
g162
I0
tp782
a(I32
I2
I0
g172
I0
tp783
a(I33
I76
I0
g174
I0
tp784
a(I39
I26
I0
g381
I0
tp785
a(I39
I27
I0
S'external'
p786
I0
tp787
a(I50
I6
I0
g178
I0
tp788
as(S'lg'
p789
S'optimus'
p790
S'l9'
p791
tp792
(lp793
(I6
I147
F0.375
S'new'
p794
I0
tp795
a(I6
I26
I0
S'asian'
p796
I0
tp797
a(I6
I147
F0.375
g794
I0
tp798
a(I14
I2
F0.5
S'second'
p799
I0
tp800
as(S'data'
p801
tp802
(lp803
(I3
I10
I0
S'more'
p804
I13
tp805
a(I4
I156
F0.375
S'extra'
p806
I13
tp807
a(I4
I181
I0
S'external'
p808
I13
tp809
a(I10
I13
I0
S'large'
p810
I13
tp811
a(I30
I133
I0
S'old'
p812
I13
tp813
a(I35
I61
I0
S'least'
p814
I13
tp815
a(I35
I61
F0.5
S'expensive'
p816
I13
tp817
a(I45
I28
I0
S'prepaid'
p818
I13
tp819
a(I54
I14
I0
S'monthly'
p820
I13
tp821
a(I54
I75
F-0.5
S'heavy'
p822
I13
tp823
a(I54
I84
I0
S'more'
p824
I13
tp825
a(I54
I84
F-0.5
S'less'
p826
I13
tp827
as(S'games'
p828
S'and'
p829
S'apps'
p830
tp831
(lp832
(I4
I170
F0.875
S'music'
p833
I0
tp834
a(I39
I44
F0.375
S'new'
p835
I0
tp836
a(I43
I27
F1.0
S'good'
p837
I0
tp838
a(I4
I170
F0.875
g833
I19
tp839
a(I4
I199
I0
S'basic'
p840
I19
tp841
a(I6
I4
I0
S'few'
p842
I19
tp843
a(I11
I173
I0
S'fast'
p844
I19
tp845
a(I30
I205
I0
S'many'
p846
I19
tp847
a(I30
I205
I0
S'different'
p848
I19
tp849
a(I33
I64
F-0.625
S'light'
p850
I19
tp851
a(I33
I65
I0
S'3d'
p852
I19
tp853
a(I33
I65
F0.125
S'last'
p854
I19
tp855
a(I35
I86
I0
S'more'
p856
I19
tp857
a(I43
I27
F1.0
g837
I19
tp858
a(I43
I29
F0.375
S'extra'
p859
I19
tp860
a(I43
I37
F1.0
S'better'
p861
I19
tp862
as(S'smartphone'
p863
tp864
(lp865
(I4
I72
F0.5
S'true'
p866
I0
tp867
a(I5
I91
F1.0
S'best'
p868
I0
tp869
a(I6
I0
F0.125
S'first'
p870
I0
tp871
a(I9
I1
F0.375
S'new'
p872
I0
tp873
a(I11
I56
I0
S'great'
p874
I0
tp875
a(I30
I66
F-0.375
S'simple'
p876
I0
tp877
a(I31
I34
F1.0
S'good'
p878
I0
tp879
a(I31
I34
F0.375
S'new'
p880
I0
tp881
a(I35
I7
F0.125
S'solid'
p882
I0
tp883
a(I41
I32
F-0.5
S'less'
p884
I0
tp885
a(I41
I32
F-0.25
S'inexpensive'
p886
I0
tp887
a(I44
I0
I0
S'great'
p888
I0
tp889
as(S'micro'
p890
S'sd'
p891
S'card'
p892
tp893
(lp894
(I21
I12
I0
g166
I0
tp895
as(S'internet'
p896
tp897
(lp898
(I4
I18
I0
S'more'
p899
I6
tp900
a(I4
I116
F0.125
S'solid'
p901
I6
tp902
a(I4
I116
F0.375
S'dependable'
p903
I6
tp904
a(I4
I116
I0
S'fast'
p905
I6
tp906
a(I4
I119
I0
S'slower'
p907
I6
tp908
a(I5
I53
I0
S'fast'
p909
I6
tp910
a(I30
I140
F0.5
S'possible'
p911
I6
tp912
a(I33
I2
I0
S'least'
p913
I6
tp914
a(I52
I5
F-0.625
S'free'
p915
I6
tp916
as(S't'
p917
S'mobile'
p918
S'store'
p919
tp920
(lp921
(I4
I27
I0
S'such'
p922
I0
tp923
a(I4
I27
F-0.5
S'less'
p924
I0
tp925
a(I4
I27
I0
S'local'
p926
I0
tp927
as(S'an'
p928
S'sd'
p929
S'card'
p930
tp931
(lp932
(I4
I126
F0.375
g152
I0
tp933
a(I4
I126
F0.5
g154
I0
tp934
a(I4
I178
I0
g156
I0
tp935
a(I6
I79
I0
g158
I0
tp936
a(I6
I181
I0
g160
I0
tp937
a(I6
I200
I0
g162
I0
tp938
a(I11
I142
F0.875
g164
I0
tp939
a(I21
I12
I0
g166
I0
tp940
a(I22
I28
F-0.25
g168
I0
tp941
a(I30
I220
F-0.625
g170
I0
tp942
a(I32
I2
I0
g172
I0
tp943
a(I35
I74
F-0.875
g176
I0
tp944
a(I50
I6
I0
g178
I0
tp945
as(S'space'
p946
S'for'
p947
S'apps'
p948
tp949
(lp950
(I41
I45
I0
S'more'
p951
I0
tp952
a(I0
I2
I0
S'such'
p953
I0
tp954
a(I4
I29
I0
S'add-in'
p955
I0
tp956
a(I4
I178
I0
g365
I0
tp957
a(I5
I20
I0
S'individual'
p958
I0
tp959
a(I6
I109
I0
S'bible'
p960
I0
tp961
a(I6
I125
F0.375
S'new'
p962
I0
tp963
a(I6
I125
F-0.75
S'impossible'
p964
I0
tp965
a(I6
I197
F-0.5
S'less'
p966
I0
tp967
a(I6
I197
I0
S'most'
p968
I0
tp969
a(I7
I5
I0
S'great'
p970
I0
tp971
a(I7
I5
F-0.625
S'free'
p972
I0
tp973
a(I8
I16
I0
S'useful'
p974
I0
tp975
a(I11
I37
I0
S'such'
p976
I0
tp977
a(I11
I47
I0
g372
I0
tp978
a(I11
I111
F-0.5
S'actual'
p979
I0
tp980
a(I11
I141
F0.125
S'enough'
p981
I0
tp982
a(I11
I141
I0
S'basic'
p983
I0
tp984
a(I13
I15
F0.875
S'music'
p985
I0
tp986
a(I19
I8
I0
S'few'
p987
I0
tp988
a(I22
I13
I0
S'full'
p989
I0
tp990
a(I22
I17
F0.125
S'able'
p991
I0
tp992
a(I22
I17
I0
S'more'
p993
I0
tp994
a(I26
I11
F-0.5
S'regular'
p995
I0
tp996
a(I26
I26
I0
S'general'
p997
I0
tp998
a(I26
I26
I0
S'faster'
p999
I0
tp1000
a(I27
I21
I0
S'many'
p1001
I0
tp1002
a(I27
I32
I0
S'many'
p1003
I0
tp1004
a(I27
I32
I0
S'large'
p1005
I0
tp1006
a(I27
I32
F0.25
S'bigger'
p1007
I0
tp1008
a(I30
I16
I0
S'useful'
p1009
I0
tp1010
a(I30
I156
I0
S'junky'
p1011
I0
tp1012
a(I30
I165
I0
S'basic'
p1013
I0
tp1014
a(I30
I200
I0
S'few'
p1015
I0
tp1016
a(I30
I202
F-0.75
g374
I0
tp1017
a(I30
I222
F-0.125
S'slow'
p1018
I0
tp1019
a(I33
I69
F-0.375
S'smaller'
p1020
I0
tp1021
a(I33
I70
I0
S'many'
p1022
I0
tp1023
a(I34
I6
I0
S'many'
p1024
I0
tp1025
a(I35
I4
I0
S'many'
p1026
I0
tp1027
a(I35
I4
F0.375
S'friendly'
p1028
I0
tp1029
a(I35
I47
F-0.375
S'disable'
p1030
I0
tp1031
a(I35
I74
I0
g377
I0
tp1032
a(I35
I74
I0
g379
I0
tp1033
a(I39
I28
I0
S'internal'
p1034
I0
tp1035
a(I39
I28
F0.375
S'available'
p1036
I0
tp1037
a(I39
I44
F0.375
g835
I0
tp1038
a(I41
I46
I0
S'normal'
p1039
I0
tp1040
a(I44
I4
F0.125
S'enough'
p1041
I0
tp1042
a(I44
I4
I0
S'most'
p1043
I0
tp1044
a(I44
I4
I0
S'useful'
p1045
I0
tp1046
a(I44
I44
F0.5
S'compatible'
p1047
I0
tp1048
a(I44
I44
I0
S'many'
p1049
I0
tp1050
a(I45
I24
I0
S'great'
p1051
I0
tp1052
a(I46
I10
I0
S'most'
p1053
I0
tp1054
a(I46
I13
F0.375
g383
I0
tp1055
a(I49
I6
F-0.75
S'little'
p1056
I0
tp1057
a(I50
I6
I0
g386
I0
tp1058
a(I54
I27
F0.125
S'essential'
p1059
I0
tp1060
as(S'touch'
p1061
S'screen'
p1062
tp1063
(lp1064
(I0
I3
F0.5
S'touch'
p1065
I2
tp1066
a(I4
I191
F0.5
S'touch'
p1067
I2
tp1068
a(I6
I69
F0.25
S'responsive'
p1069
I2
tp1070
a(I18
I16
F-0.625
S'other'
p1071
I2
tp1072
a(I18
I16
F0.5
S'touch'
p1073
I2
tp1074
a(I28
I6
F0.5
S'touch'
p1075
I2
tp1076
a(I34
I6
F-0.125
S'super'
p1077
I2
tp1078
a(I34
I6
F0.625
S'easy'
p1079
I2
tp1080
a(I35
I78
F0.25
S'responsive'
p1081
I2
tp1082
a(I43
I10
F-0.75
S'unresponsive'
p1083
I2
tp1084
a(I43
I10
F0.5
S'touch'
p1085
I2
tp1086
as(S'one'
p1087
S'thing'
p1088
tp1089
(lp1090
(I4
I169
F-0.75
S'difficult'
p1091
I2
tp1092
a(I4
I183
F-0.875
S'worst'
p1093
I2
tp1094
a(I4
I188
F1.0
S'good'
p1095
I2
tp1096
a(I5
I18
F0.25
S'biggest'
p1097
I2
tp1098
a(I5
I35
F0.625
S'noticeable'
p1099
I2
tp1100
a(I8
I18
F-0.625
S'bad'
p1101
I2
tp1102
a(I11
I6
F0.625
S'major'
p1103
I2
tp1104
a(I11
I6
F-0.75
S'wrong'
p1105
I2
tp1106
a(I11
I162
I0
S'only'
p1107
I2
tp1108
a(I12
I23
I0
S'only'
p1109
I2
tp1110
a(I12
I23
F-0.625
S'other'
p1111
I2
tp1112
a(I22
I13
F-0.875
S'worst'
p1113
I2
tp1114
a(I30
I174
F0.125
S'solid'
p1115
I2
tp1116
a(I30
I191
F-0.625
S'bad'
p1117
I2
tp1118
a(I42
I13
I0
S'only'
p1119
I2
tp1120
a(I43
I24
I0
S'same'
p1121
I2
tp1122
a(I48
I0
I0
S'only'
p1123
I2
tp1124
a(I54
I8
F-0.75
S'uncomfortable'
p1125
I2
tp1126
as.