(dp0
(S'happy'
p1
S'with'
p2
S'purchase'
p3
tp4
(lp5
(I24
I0
F0.875
S'happy'
p6
I0
tp7
a(I33
I6
F0.875
S'happy'
p8
I0
tp9
a(I47
I6
I0
S'great'
p10
I0
tp11
a(I47
I6
F0.875
S'happy'
p12
I0
tp13
a(I105
I0
F0.875
S'happy'
p14
I0
tp15
a(I342
I10
F0.875
S'happy'
p16
I0
tp17
a(I342
I17
F0.875
S'happy'
p18
I0
tp19
a(I366
I9
F0.875
S'happy'
p20
I0
tp21
a(I370
I10
F0.875
S'happy'
p22
I0
tp23
as(S's'
p24
S'iii'
p25
S'mini'
p26
tp27
(lp28
(I305
I0
F0.75
S'worth'
p29
I0
tp30
a(I305
I0
F0.75
g29
I0
tp31
a(I11
I20
I0
S'full'
p32
I13
tp33
a(I65
I21
I0
S'great'
p34
I13
tp35
a(I67
I9
F0.875
S'lucky'
p36
I13
tp37
a(I67
I9
F0.125
S'enough'
p38
I13
tp39
a(I67
I9
F0.5
S'functional'
p40
I13
tp41
a(I76
I12
F-0.125
S'super'
p42
I13
tp43
a(I76
I12
F0.625
S'easy'
p44
I13
tp45
a(I124
I4
F0.625
S'perfect'
p46
I13
tp47
a(I135
I25
F1.0
S'good'
p48
I13
tp49
a(I135
I31
F-0.625
S'free'
p50
I13
tp51
a(I161
I0
F1.0
S'best'
p52
I13
tp53
a(I161
I4
F-0.5
S'afraid'
p54
I13
tp55
a(I188
I34
F1.0
S'good'
p56
I13
tp57
a(I188
I40
F-0.625
S'free'
p58
I13
tp59
a(I198
I2
F1.0
S'better'
p60
I13
tp61
a(I200
I14
F0.125
S'last'
p62
I13
tp63
a(I227
I98
I0
S'own'
p64
I13
tp65
a(I230
I5
F0.625
S'perfect'
p66
I13
tp67
a(I284
I8
F-0.375
S'simple'
p68
I13
tp69
a(I286
I16
I0
S'different'
p70
I13
tp71
a(I305
I0
F0.75
g29
I13
tp72
a(I342
I20
F0.625
S'perfect'
p73
I13
tp74
as(S'battery'
p75
S'life'
p76
tp77
(lp78
(I12
I14
F-0.5
S'insane'
p79
I1
tp80
a(I26
I3
F0.125
S'impressive'
p81
I1
tp82
a(I26
I4
F-0.75
S'short'
p83
I1
tp84
a(I26
I4
F0.625
S'productive'
p85
I1
tp86
a(I26
I5
F-0.75
S'short'
p87
I1
tp88
a(I135
I36
F1.0
S'best'
p89
I1
tp90
a(I151
I0
F-0.5
S'poor'
p91
I1
tp92
a(I169
I2
F-0.75
S'short'
p93
I1
tp94
a(I188
I45
F1.0
S'best'
p95
I1
tp96
a(I190
I0
F0.125
S'usual'
p97
I1
tp98
a(I190
I0
F-0.625
S'other'
p99
I1
tp100
a(I196
I4
F0.375
S'new'
p101
I1
tp102
a(I197
I18
F1.0
S'best'
p103
I1
tp104
a(I197
I18
F0.125
S'pal'
p105
I1
tp106
a(I197
I18
F0.25
S'bigger'
p107
I1
tp108
a(I217
I25
F1.0
S'good'
p109
I1
tp110
a(I277
I23
F1.0
S'better'
p111
I1
tp112
a(I277
I48
F1.0
S'good'
p113
I1
tp114
a(I285
I12
F-0.5
S'long'
p115
I1
tp116
a(I305
I47
F0.125
S'typical'
p117
I1
tp118
a(I322
I11
I0
S'wish'
p119
I1
tp120
a(I322
I11
F-0.5
S'long'
p121
I1
tp122
a(I322
I11
F-0.25
S'low'
p123
I1
tp124
a(I349
I7
F-0.75
S'short'
p125
I1
tp126
a(I363
I3
F1.0
S'good'
p127
I1
tp128
a(I370
I15
I0
S'great'
p129
I1
tp130
a(I381
I15
F-0.5
S'less'
p131
I1
tp132
a(I388
I103
I0
S'more'
p133
I1
tp134
a(I409
I7
I0
S'wish'
p135
I1
tp136
a(I412
I4
F0.125
S'impressive'
p137
I1
tp138
a(I412
I5
F-0.75
S'short'
p139
I1
tp140
a(I412
I5
F0.625
S'productive'
p141
I1
tp142
a(I12
I14
F-0.5
g79
I19
tp143
a(I26
I3
F0.125
g81
I19
tp144
a(I26
I4
F0.625
g85
I19
tp145
a(I31
I0
F-0.375
S'daily'
p146
I19
tp147
a(I190
I0
F-0.625
g99
I19
tp148
a(I196
I4
F0.375
g101
I19
tp149
a(I217
I25
F1.0
g109
I19
tp150
a(I277
I23
F1.0
g111
I19
tp151
a(I277
I48
F1.0
g113
I19
tp152
a(I305
I47
F0.125
g117
I19
tp153
a(I322
I11
F-0.5
g121
I19
tp154
a(I349
I7
F-0.75
g125
I19
tp155
a(I363
I3
F1.0
g127
I19
tp156
a(I381
I15
F-0.5
g131
I19
tp157
a(I412
I4
F0.125
g137
I19
tp158
a(I412
I5
F0.625
g141
I19
tp159
a(I9
I6
F-0.625
S'bad'
p160
I15
tp161
a(I9
I7
F-0.625
S'bad'
p162
I15
tp163
a(I22
I6
F0.375
S'new'
p164
I15
tp165
a(I26
I4
F-0.75
g83
I15
tp166
a(I26
I5
F-0.75
g87
I15
tp167
a(I37
I0
F-0.75
S'dead'
p168
I15
tp169
a(I40
I1
F0.125
S'last'
p170
I15
tp171
a(I44
I11
F-0.625
S'light'
p172
I15
tp173
a(I44
I11
F1.0
S'good'
p174
I15
tp175
a(I71
I2
I0
S'sized'
p176
I15
tp177
a(I72
I5
F0.125
S'last'
p178
I15
tp179
a(I89
I2
F0.125
S'last'
p180
I15
tp181
a(I89
I2
I0
S'more'
p182
I15
tp183
a(I96
I17
I0
S'old'
p184
I15
tp185
a(I99
I0
F-0.75
S'dead'
p186
I15
tp187
a(I100
I4
F1.0
S'good'
p188
I15
tp189
a(I115
I3
F-0.75
S'sufficient'
p190
I15
tp191
a(I115
I10
F0.625
S'perfect'
p192
I15
tp193
a(I124
I9
F-0.75
S'worse'
p194
I15
tp195
a(I135
I36
F1.0
g89
I15
tp196
a(I135
I82
F-0.75
S'dead'
p197
I15
tp198
a(I137
I9
F0.125
S'last'
p199
I15
tp200
a(I151
I0
F-0.5
g91
I15
tp201
a(I169
I2
F-0.75
g93
I15
tp202
a(I177
I2
I0
S'generic'
p203
I15
tp204
a(I177
I7
F0.375
S'new'
p205
I15
tp206
a(I182
I7
F0.125
S'last'
p207
I15
tp208
a(I188
I45
F1.0
g95
I15
tp209
a(I190
I0
F0.125
g97
I15
tp210
a(I197
I18
F1.0
g103
I15
tp211
a(I197
I18
F0.125
g105
I15
tp212
a(I197
I18
F0.25
g107
I15
tp213
a(I197
I23
F0.125
S'last'
p214
I15
tp215
a(I200
I16
F0.125
S'last'
p216
I15
tp217
a(I200
I17
F-0.25
S'higher'
p218
I15
tp219
a(I202
I22
I0
S'third'
p220
I15
tp221
a(I217
I12
F0.375
S'new'
p222
I15
tp223
a(I236
I3
F0.25
S'original'
p224
I15
tp225
a(I241
I23
F0.125
S'last'
p226
I15
tp227
a(I262
I18
F0.375
S'new'
p228
I15
tp229
a(I268
I0
F-0.625
S'bad'
p230
I15
tp231
a(I275
I0
F-0.625
S'light'
p232
I15
tp233
a(I275
I0
F1.0
S'good'
p234
I15
tp235
a(I283
I30
F0.5
S'incomplete'
p236
I15
tp237
a(I285
I12
F-0.5
g115
I15
tp238
a(I293
I10
I0
S'great'
p239
I15
tp240
a(I299
I4
F0.25
S'powerful'
p241
I15
tp242
a(I309
I4
I0
S'great'
p243
I15
tp244
a(I319
I14
I0
S'later'
p245
I15
tp246
a(I321
I2
F0.375
S'new'
p247
I15
tp248
a(I321
I2
I0
S'generic'
p249
I15
tp250
a(I322
I11
I0
g119
I15
tp251
a(I322
I11
F-0.25
g123
I15
tp252
a(I322
I12
F-0.5
S'poor'
p253
I15
tp254
a(I361
I0
I0
S'quick'
p255
I15
tp256
a(I366
I43
F0.375
S'new'
p257
I15
tp258
a(I370
I15
I0
g129
I15
tp259
a(I375
I1
F-0.5
S'poor'
p260
I15
tp261
a(I375
I8
F-0.625
S'bad'
p262
I15
tp263
a(I375
I9
F-0.625
S'bad'
p264
I15
tp265
a(I375
I9
F-0.375
S'small'
p266
I15
tp267
a(I375
I9
I0
S'fast'
p268
I15
tp269
a(I379
I2
F1.0
S'good'
p270
I15
tp271
a(I388
I0
F0.125
S'first'
p272
I15
tp273
a(I388
I103
I0
g133
I15
tp274
a(I408
I9
I0
S'fast'
p275
I15
tp276
a(I408
I9
F-0.375
S'daily'
p277
I15
tp278
a(I409
I7
I0
g135
I15
tp279
a(I409
I10
F0.25
S'original'
p280
I15
tp281
a(I412
I5
F-0.75
g139
I15
tp282
as(S'cellphone'
p283
tp284
(lp285
(I51
I0
F0.625
S'easy'
p286
I0
tp287
a(I65
I21
F0.625
S'perfect'
p288
I0
tp289
a(I137
I0
I0
S'great'
p290
I0
tp291
a(I158
I3
F1.0
S'best'
p292
I0
tp293
a(I166
I2
I0
S'same'
p294
I0
tp295
a(I169
I5
F1.0
S'best'
p296
I0
tp297
a(I187
I4
I0
S'great'
p298
I0
tp299
a(I200
I0
F0.125
S'spectacular'
p300
I0
tp301
a(I209
I4
F-0.875
S'worst'
p302
I0
tp303
a(I232
I0
I0
S'big'
p304
I0
tp305
a(I232
I0
F-0.375
S'small'
p306
I0
tp307
a(I232
I0
F-0.125
S'super'
p308
I0
tp309
a(I261
I32
F1.0
S'best'
p310
I0
tp311
a(I263
I22
F-0.75
S'sad'
p312
I0
tp313
a(I309
I37
F0.375
S'new'
p314
I0
tp315
a(I309
I37
F0.375
S'new'
p316
I0
tp317
a(I309
I44
I0
S'fast'
p318
I0
tp319
a(I342
I46
I0
S'old'
p320
I0
tp321
a(I351
I3
F0.375
S'new'
p322
I0
tp323
a(I370
I21
I0
S'third'
p324
I0
tp325
a(I379
I40
F0.375
S'new'
p326
I0
tp327
a(I394
I10
F1.0
S'good'
p328
I0
tp329
a(I409
I12
F0.25
S'original'
p330
I0
tp331
as(S'network'
p332
tp333
(lp334
(I72
I5
I0
S'mobile'
p335
I0
tp336
a(I227
I52
F-0.625
S'other'
p337
I0
tp338
a(I227
I52
I0
S'mobile'
p339
I0
tp340
a(I227
I73
I0
S'most'
p341
I0
tp342
a(I227
I97
F0.125
S'native'
p343
I0
tp344
a(I308
I23
F0.5
S'compatible'
p345
I0
tp346
a(I379
I20
I0
S'same'
p347
I0
tp348
a(I379
I21
I0
S'own'
p349
I0
tp350
a(I408
I15
I0
S'own'
p351
I0
tp352
as(S'put'
p353
S'sim'
p354
S'card'
p355
tp356
(lp357
(I171
I0
I0
S'standard'
p358
I0
tp359
a(I217
I37
I0
S'few'
p360
I0
tp361
a(I217
I37
F0.375
S'new'
p362
I0
tp363
a(I241
I1
F0.375
S'new'
p364
I0
tp365
a(I316
I15
F0.5
S'careful'
p366
I0
tp367
a(I68
I12
F-0.5
S'international'
p368
I0
tp369
a(I135
I26
F1.0
S'good'
p370
I0
tp371
a(I135
I26
F-0.5
S'regular'
p372
I0
tp373
a(I171
I0
I0
g358
I0
tp374
a(I177
I10
F-0.625
S'other'
p375
I0
tp376
a(I188
I14
F-0.25
S'ready'
p377
I0
tp378
a(I188
I35
F1.0
S'good'
p379
I0
tp380
a(I188
I35
F-0.5
S'regular'
p381
I0
tp382
a(I190
I17
I0
S'local'
p383
I0
tp384
a(I200
I15
I0
S'standard'
p385
I0
tp386
a(I217
I37
I0
g360
I0
tp387
a(I217
I37
F0.375
g362
I0
tp388
a(I217
I38
I0
S'few'
p389
I0
tp390
a(I217
I38
F0.375
S'extra'
p391
I0
tp392
a(I241
I1
F0.375
g364
I0
tp393
a(I316
I15
F0.5
g366
I0
tp394
a(I319
I5
F0.625
S'easier'
p395
I0
tp396
a(I319
I5
F-0.25
S'cheaper'
p397
I0
tp398
a(I367
I16
F1.0
S'good'
p399
I0
tp400
a(I408
I0
I0
S'european'
p401
I0
tp402
a(I408
I0
I0
S'american'
p403
I0
tp404
a(I408
I3
I0
S'standard'
p405
I0
tp406
as(S'service'
p407
tp408
(lp409
(I116
I5
F-0.125
S'slow'
p410
I16
tp411
a(I166
I3
I0
S'internet'
p412
I16
tp413
a(I178
I27
I0
S'only'
p414
I16
tp415
a(I186
I23
F0.5
S'technical'
p416
I16
tp417
a(I197
I2
F0.125
S'first'
p418
I16
tp419
a(I217
I42
F-0.5
S'poor'
p420
I16
tp421
a(I277
I22
F-0.75
S'little'
p422
I16
tp423
a(I346
I13
I0
S'questionable'
p424
I16
tp425
a(I351
I26
F1.0
S'good'
p426
I16
tp427
a(I398
I25
F0.5
S'technical'
p428
I16
tp429
a(I402
I3
F0.75
S'beautiful'
p430
I16
tp431
a(I402
I3
F0.875
S'nice'
p432
I16
tp433
as(S'camera'
p434
tp435
(lp436
(I4
I0
I0
S'user'
p437
I1
tp438
a(I4
I0
F-0.375
S'small'
p439
I1
tp440
a(I4
I0
F0.875
S'nice'
p441
I1
tp442
a(I17
I2
F0.875
S'nice'
p443
I1
tp444
a(I19
I7
F1.0
S'best'
p445
I1
tp446
a(I102
I8
F-0.5
S'regular'
p447
I1
tp448
a(I151
I6
F1.0
S'good'
p449
I1
tp450
a(I151
I6
F-0.375
S'small'
p451
I1
tp452
a(I179
I12
F1.0
S'good'
p453
I1
tp454
a(I190
I12
I0
S'incredible'
p455
I1
tp456
a(I210
I8
I0
S'great'
p457
I1
tp458
a(I241
I5
F-0.5
S'insane'
p459
I1
tp460
a(I290
I3
F-0.125
S'front'
p461
I1
tp462
a(I342
I15
F1.0
S'good'
p463
I1
tp464
a(I346
I11
I0
S'same'
p465
I1
tp466
a(I379
I38
I0
S'great'
p467
I1
tp468
a(I389
I3
I0
S'great'
p469
I1
tp470
a(I408
I12
F1.0
S'good'
p471
I1
tp472
as(S'auto'
p473
S'focus'
p474
tp475
(lp476
(I305
I39
F-0.125
S'slow'
p477
I0
tp478
a(I305
I40
I0
S'same'
p479
I0
tp480
a(I344
I2
F-0.125
S'slow'
p481
I0
tp482
as(S'iphone'
p483
tp484
(lp485
(I145
I15
F-0.125
S'overall'
p486
I1
tp487
a(I179
I7
F0.125
S'capable'
p488
I1
tp489
a(I179
I10
I0
S'few'
p490
I1
tp491
a(I183
I13
I0
S'faster'
p492
I1
tp493
a(I197
I14
I0
S'own'
p494
I1
tp495
a(I290
I22
I0
S'more'
p496
I1
tp497
a(I290
I23
F-0.625
S'bad'
p498
I1
tp499
a(I290
I23
F-0.625
S'unchanged'
p500
I1
tp501
a(I356
I29
F1.0
S'better'
p502
I1
tp503
a(I375
I2
F0.375
S'new'
p504
I1
tp505
a(I375
I2
I0
S'android'
p506
I1
tp507
a(I394
I4
F0.125
S'last'
p508
I1
tp509
a(I399
I1
I0
S'faster'
p510
I1
tp511
a(I399
I13
F-0.5
S'sure'
p512
I1
tp513
as(S'movistar'
p514
S'in'
p515
S'venezuela'
p516
tp517
(lp518
(I28
I4
I0
S'only'
p519
I0
tp520
a(I219
I7
F1.0
S'good'
p521
I0
tp522
a(I12
I8
I0
S'great'
p523
I0
tp524
a(I28
I4
I0
g519
I0
tp525
a(I147
I0
F0.375
S'new'
p526
I0
tp527
a(I190
I6
I0
S'full'
p528
I0
tp529
a(I302
I6
F1.0
S'good'
p530
I0
tp531
a(I372
I0
F-0.75
S'little'
p532
I0
tp533
as(S'mobile'
p534
tp535
(lp536
(I87
I3
F1.0
S'good'
p537
I0
tp538
a(I98
I42
F1.0
S'good'
p539
I0
tp540
a(I128
I0
I0
S'same'
p541
I0
tp542
as(S'excellent'
p543
S'product'
p544
tp545
(lp546
(I44
I11
I0
S'great'
p547
I8
tp548
a(I57
I8
I0
S'fast'
p549
I8
tp550
a(I57
I8
I0
S'real'
p551
I8
tp552
a(I197
I52
F0.375
S'new'
p553
I8
tp554
a(I224
I3
F1.0
S'better'
p555
I8
tp556
a(I224
I3
F0.625
S'easy'
p557
I8
tp558
a(I290
I24
I0
S'most'
p559
I8
tp560
a(I290
I24
F0.125
S'practical'
p561
I8
tp562
a(I369
I1
I0
S'great'
p563
I8
tp564
as(S'samsung'
p565
S'galaxy'
p566
S's3'
p567
tp568
(lp569
(I196
I3
F-0.5
S'afraid'
p570
I0
tp571
a(I196
I3
I0
S'touchscreen'
p572
I0
tp573
a(I196
I3
F0.625
S'easy'
p574
I0
tp575
a(I362
I3
I0
S'big'
p576
I0
tp577
a(I33
I1
I0
S'wish'
p578
I0
tp579
a(I94
I0
F0.375
S'new'
p580
I0
tp581
a(I131
I3
F-0.625
S'other'
p582
I0
tp583
a(I169
I5
F1.0
S'best'
p584
I0
tp585
a(I196
I3
F-0.5
g570
I0
tp586
a(I196
I3
I0
g572
I0
tp587
a(I206
I0
F0.5
S'beware'
p588
I0
tp589
a(I285
I2
I0
S'real'
p590
I0
tp591
a(I285
I12
I0
S'real'
p592
I0
tp593
a(I285
I13
F-0.75
S'unreliable'
p594
I0
tp595
a(I285
I22
I0
S'more'
p596
I0
tp597
a(I285
I22
I0
S'real'
p598
I0
tp599
a(I317
I4
F-0.5
S'regular'
p600
I0
tp601
a(I317
I4
I0
S'big'
p602
I0
tp603
a(I351
I27
I0
S'third'
p604
I0
tp605
a(I352
I1
F0.875
S'happy'
p606
I0
tp607
a(I352
I1
F0.375
S'new'
p608
I0
tp609
a(I11
I18
F0.25
S'familiar'
p610
I0
tp611
a(I98
I0
F0.375
S'much'
p612
I0
tp613
a(I98
I0
I0
S'normal'
p614
I0
tp615
a(I196
I3
F0.625
g574
I0
tp616
a(I199
I11
F-0.5
S'regular'
p617
I0
tp618
a(I199
I11
I0
S'big'
p619
I0
tp620
a(I220
I2
I0
S'big'
p621
I0
tp622
a(I221
I1
F-0.375
S'small'
p623
I0
tp624
a(I221
I1
F1.0
S'good'
p625
I0
tp626
a(I230
I5
I0
S'big'
p627
I0
tp628
a(I342
I18
I0
S'normal'
p629
I0
tp630
a(I342
I18
I0
S'big'
p631
I0
tp632
a(I357
I0
F0.25
S'bigger'
p633
I0
tp634
a(I362
I3
I0
g576
I0
tp635
a(I389
I21
I0
S'old'
p636
I0
tp637
a(I0
I2
F-0.75
S'wrong'
p638
I7
tp639
a(I10
I4
I0
S'website'
p640
I7
tp641
a(I10
I10
F0.875
S'reputable'
p642
I7
tp643
a(I33
I1
I0
g578
I7
tp644
a(I35
I8
I0
S'same'
p645
I7
tp646
a(I35
I8
F-0.625
S'other'
p647
I7
tp648
a(I59
I0
F1.0
S'best'
p649
I7
tp650
a(I94
I0
F0.375
g580
I7
tp651
a(I131
I3
F-0.625
g582
I7
tp652
a(I135
I85
I0
S'full'
p653
I7
tp654
a(I150
I0
F-0.625
S'other'
p655
I7
tp656
a(I179
I1
F0.75
S'due'
p657
I7
tp658
a(I196
I3
F-0.5
g570
I7
tp659
a(I196
I3
I0
g572
I7
tp660
a(I202
I0
I0
S'real'
p661
I7
tp662
a(I206
I0
F0.5
g588
I7
tp663
a(I224
I1
I0
S'real'
p664
I7
tp665
a(I228
I1
F-0.375
S'smaller'
p666
I7
tp667
a(I255
I15
F-0.625
S'other'
p668
I7
tp669
a(I263
I14
I0
S'generic'
p670
I7
tp671
a(I285
I22
I0
g596
I7
tp672
a(I286
I32
F0.25
S'original'
p673
I7
tp674
a(I289
I6
F0.375
S'new'
p675
I7
tp676
a(I317
I4
I0
g602
I7
tp677
a(I352
I1
F0.875
g606
I7
tp678
a(I352
I1
F0.375
g608
I7
tp679
a(I367
I13
F0.375
S'new'
p680
I7
tp681
a(I370
I18
F-0.375
S'top'
p682
I7
tp683
a(I370
I24
F0.25
S'original'
p684
I7
tp685
a(I388
I76
F0.25
S'original'
p686
I7
tp687
a(I388
I143
F0.25
S'original'
p688
I7
tp689
a(I398
I10
F0.25
S'original'
p690
I7
tp691
a(I11
I1
F-0.5
S'regular'
p692
I0
tp693
a(I11
I18
F0.25
g610
I0
tp694
a(I62
I2
F-0.5
S'regular'
p695
I0
tp696
a(I62
I2
I0
S'big'
p697
I0
tp698
a(I98
I0
F0.375
g612
I0
tp699
a(I98
I0
I0
g614
I0
tp700
a(I131
I5
F-0.5
S'regular'
p701
I0
tp702
a(I169
I5
F1.0
g584
I0
tp703
a(I199
I11
F-0.5
g617
I0
tp704
a(I209
I7
F-0.5
S'regular'
p705
I0
tp706
a(I221
I1
F-0.375
g623
I0
tp707
a(I238
I0
F-0.375
S'smaller'
p708
I0
tp709
a(I285
I2
I0
g590
I0
tp710
a(I285
I8
I0
S'real'
p711
I0
tp712
a(I285
I11
I0
S'real'
p713
I0
tp714
a(I285
I12
I0
g592
I0
tp715
a(I285
I13
F-0.75
g594
I0
tp716
a(I285
I22
I0
g598
I0
tp717
a(I317
I4
F-0.5
g600
I0
tp718
a(I317
I5
I0
S'big'
p719
I0
tp720
a(I328
I13
F0.375
S'new'
p721
I0
tp722
a(I342
I18
I0
g629
I0
tp723
a(I343
I1
I0
S'standard'
p724
I0
tp725
a(I351
I27
I0
g604
I0
tp726
a(I351
I28
I0
S'different'
p727
I0
tp728
a(I357
I0
F0.25
g633
I0
tp729
a(I366
I7
F0.375
S'new'
p730
I0
tp731
a(I389
I21
I0
g636
I0
tp732
as(S'samsung'
p733
S'galaxy'
p734
g24
tp735
(lp736
(I33
I1
I0
g578
I0
tp737
a(I94
I0
F0.375
g580
I0
tp738
a(I131
I3
F-0.625
g582
I0
tp739
a(I169
I5
F1.0
g584
I0
tp740
a(I196
I3
F-0.5
g570
I0
tp741
a(I196
I3
I0
g572
I0
tp742
a(I206
I0
F0.5
g588
I0
tp743
a(I285
I2
I0
g590
I0
tp744
a(I285
I12
I0
g592
I0
tp745
a(I285
I13
F-0.75
g594
I0
tp746
a(I285
I22
I0
g596
I0
tp747
a(I285
I22
I0
g598
I0
tp748
a(I317
I4
F-0.5
g600
I0
tp749
a(I317
I4
I0
g602
I0
tp750
a(I351
I27
I0
g604
I0
tp751
a(I352
I1
F0.875
g606
I0
tp752
a(I352
I1
F0.375
g608
I0
tp753
as(S'restocking'
p754
S'fee'
p755
tp756
(lp757
(I379
I19
F0.125
S'charger'
p758
I0
tp759
as(S'sd'
p760
S'card'
p761
tp762
(lp763
(I135
I49
F0.5
S'personal'
p764
I0
tp765
a(I188
I58
F0.5
S'personal'
p766
I0
tp767
a(I366
I21
I0
S'sd'
p768
I0
tp769
a(I389
I0
F-0.25
S'ready'
p770
I0
tp771
as(S'custom'
p772
S'rom'
p773
tp774
(lp775
(I388
I96
F-0.5
S'sure'
p776
I0
tp777
as(S'seller'
p778
tp779
(lp780
(I102
I5
F0.625
S'kind'
p781
I19
tp782
a(I103
I0
I0
S'great'
p783
I19
tp784
a(I149
I4
I0
S'specific'
p785
I19
tp786
a(I149
I6
F0.125
S'first'
p787
I19
tp788
a(I149
I6
F0.375
S'available'
p789
I19
tp790
a(I184
I0
F-0.625
S'bad'
p791
I19
tp792
a(I190
I4
I0
S'write'
p793
I19
tp794
a(I196
I5
F1.0
S'good'
p795
I19
tp796
a(I197
I42
F-0.625
S'bad'
p797
I19
tp798
a(I309
I1
F1.0
S'good'
p799
I19
tp800
a(I350
I0
F1.0
S'good'
p801
I19
tp802
a(I370
I12
I0
S'fast'
p803
I19
tp804
a(I370
I12
F-0.75
S'had'
p805
I19
tp806
a(I372
I11
F-0.875
S'regret'
p807
I19
tp808
a(I375
I3
I0
S'great'
p809
I19
tp810
a(I388
I81
F-0.75
S'likely'
p811
I19
tp812
as(S'android'
p813
tp814
(lp815
(I39
I11
F0.375
S'new'
p816
I0
tp817
a(I44
I5
F0.375
S'new'
p818
I0
tp819
a(I76
I6
F0.25
S'familiar'
p820
I0
tp821
a(I80
I0
F0.125
S'first'
p822
I0
tp823
a(I122
I1
F0.125
S'first'
p824
I0
tp825
a(I227
I37
I0
S'different'
p826
I0
tp827
a(I228
I6
F0.625
S'easy'
p828
I0
tp829
a(I277
I9
F0.875
S'nice'
p830
I0
tp831
a(I285
I0
F-0.875
S'worst'
p832
I0
tp833
a(I296
I7
F0.375
S'new'
p834
I0
tp835
a(I328
I30
I0
S'old'
p836
I0
tp837
as(S'a'
p838
S'perfect'
p839
S'size'
p840
tp841
(lp842
(I42
I7
F0.625
S'perfect'
p843
I0
tp844
a(I44
I11
F1.0
S'good'
p845
I0
tp846
a(I57
I1
F0.625
S'perfect'
p847
I0
tp848
a(I102
I1
F0.625
S'perfect'
p849
I0
tp850
a(I102
I14
F0.625
S'perfect'
p851
I0
tp852
a(I108
I7
F0.625
S'perfect'
p853
I0
tp854
a(I197
I18
F0.625
S'perfect'
p855
I0
tp856
a(I200
I19
F0.625
S'perfect'
p857
I0
tp858
a(I200
I19
F0.625
S'easy'
p859
I0
tp860
a(I249
I0
F1.0
S'good'
p861
I0
tp862
a(I271
I0
F0.375
S'complete'
p863
I0
tp864
a(I271
I0
F0.625
S'perfect'
p865
I0
tp866
a(I287
I2
F0.625
S'easy'
p867
I0
tp868
a(I320
I4
F0.625
S'perfect'
p869
I0
tp870
a(I328
I15
F0.625
S'perfect'
p871
I0
tp872
a(I351
I12
F0.625
S'easy'
p873
I0
tp874
a(I366
I35
F-0.125
S'overall'
p875
I0
tp876
a(I366
I35
F0.625
S'perfect'
p877
I0
tp878
a(I378
I2
F-0.125
S'overall'
p879
I0
tp880
a(I387
I4
F1.0
S'good'
p881
I0
tp882
a(I402
I1
F0.625
S'perfect'
p883
I0
tp884
a(I42
I7
F0.625
g843
I2
tp885
a(I44
I11
F1.0
g845
I2
tp886
a(I57
I1
F0.625
g847
I2
tp887
a(I102
I1
F0.625
g849
I2
tp888
a(I102
I14
F0.625
g851
I2
tp889
a(I108
I7
F0.625
g853
I2
tp890
a(I197
I18
F0.625
g855
I2
tp891
a(I200
I19
F0.625
g857
I2
tp892
a(I200
I19
F0.625
g859
I2
tp893
a(I249
I0
F1.0
g861
I2
tp894
a(I271
I0
F0.375
g863
I2
tp895
a(I271
I0
F0.625
g865
I2
tp896
a(I287
I2
F0.625
g867
I2
tp897
a(I320
I4
F0.625
g869
I2
tp898
a(I328
I15
F0.625
g871
I2
tp899
a(I351
I12
F0.625
g873
I2
tp900
a(I366
I35
F-0.125
g875
I2
tp901
a(I366
I35
F0.625
g877
I2
tp902
a(I378
I2
F-0.125
g879
I2
tp903
a(I387
I4
F1.0
g881
I2
tp904
a(I402
I1
F0.625
g883
I2
tp905
as(S'smart'
p906
tp907
(lp908
(I17
I0
F0.125
S'first'
p909
I10
tp910
a(I93
I5
I0
S'competitive'
p911
I10
tp912
a(I93
I5
F-0.625
S'other'
p913
I10
tp914
a(I125
I13
F0.125
S'first'
p915
I10
tp916
a(I169
I5
F-0.625
S'other'
p917
I10
tp918
a(I188
I2
I0
S'more'
p919
I10
tp920
a(I188
I2
F0.5
S'expensive'
p921
I10
tp922
a(I188
I3
F-0.375
S'small'
p923
I10
tp924
a(I188
I3
F-0.625
S'light'
p925
I10
tp926
a(I241
I5
F-0.375
S'small'
p927
I10
tp928
a(I277
I45
F0.375
S'new'
p929
I10
tp930
a(I289
I14
F0.125
S'able'
p931
I10
tp932
a(I289
I14
F0.375
S'newer'
p933
I10
tp934
a(I289
I30
I0
S'old'
p935
I10
tp936
a(I299
I3
I0
S'great'
p937
I10
tp938
a(I299
I3
F-0.375
S'small'
p939
I10
tp940
a(I305
I12
I0
S'most'
p941
I10
tp942
a(I409
I8
I0
S'great'
p943
I10
tp944
as(S'calls'
p945
tp946
(lp947
(I65
I10
F-0.25
S'ready'
p948
I0
tp949
a(I84
I13
F0.875
S'important'
p950
I0
tp951
a(I135
I28
F0.5
S'clear'
p952
I0
tp953
a(I188
I37
F0.5
S'clear'
p954
I0
tp955
a(I289
I22
F-0.5
S'sudden'
p956
I0
tp957
a(I317
I12
F0.25
S'responsive'
p958
I0
tp959
a(I317
I12
F0.5
S'clear'
p960
I0
tp961
a(I375
I5
I0
S'later'
p962
I0
tp963
as(S'regular'
p964
S'size'
p965
S'sim'
p966
tp967
(lp968
(I26
I1
F-0.5
S'regular'
p969
I0
tp970
a(I26
I2
I0
S'local'
p971
I0
tp972
a(I26
I2
F-0.5
S'regular'
p973
I0
tp974
a(I339
I2
F-0.5
S'regular'
p975
I0
tp976
a(I339
I2
F0.125
S'able'
p977
I0
tp978
a(I367
I16
F-0.5
S'regular'
p979
I0
tp980
as(S'dual'
p981
S'core'
p982
tp983
(lp984
(I357
I3
F0.875
S'nice'
p985
I0
tp986
as(S'galaxy'
p987
S'siii'
p988
tp989
(lp990
(I208
I0
I0
S'normal'
p991
I0
tp992
a(I285
I2
I0
g590
I0
tp993
a(I285
I8
I0
g711
I0
tp994
a(I285
I11
I0
g713
I0
tp995
a(I285
I12
I0
g592
I0
tp996
a(I285
I22
I0
g598
I0
tp997
a(I366
I7
F0.375
g730
I0
tp998
as(g838
S'samsung'
p999
S'galaxy'
p1000
tp1001
(lp1002
(I33
I1
I0
g578
I0
tp1003
a(I94
I0
F0.375
g580
I0
tp1004
a(I131
I3
F-0.625
g582
I0
tp1005
a(I169
I5
F1.0
g584
I0
tp1006
a(I196
I3
F-0.5
g570
I0
tp1007
a(I196
I3
I0
g572
I0
tp1008
a(I206
I0
F0.5
g588
I0
tp1009
a(I285
I2
I0
g590
I0
tp1010
a(I285
I12
I0
g592
I0
tp1011
a(I285
I13
F-0.75
g594
I0
tp1012
a(I285
I22
I0
g596
I0
tp1013
a(I285
I22
I0
g598
I0
tp1014
a(I317
I4
F-0.5
g600
I0
tp1015
a(I317
I4
I0
g602
I0
tp1016
a(I351
I27
I0
g604
I0
tp1017
a(I352
I1
F0.875
g606
I0
tp1018
a(I352
I1
F0.375
g608
I0
tp1019
as(S'galaxy'
p1020
S's3'
p1021
S'mini'
p1022
tp1023
(lp1024
(I11
I20
I0
g32
I0
tp1025
a(I98
I0
F0.375
g612
I0
tp1026
a(I98
I0
I0
g614
I0
tp1027
a(I230
I5
I0
g627
I0
tp1028
a(I230
I5
F0.625
g66
I0
tp1029
a(I11
I20
I0
g32
I0
tp1030
a(I65
I21
I0
g34
I0
tp1031
a(I68
I7
F-0.5
S'regular'
p1032
I0
tp1033
a(I135
I21
F0.5
S'possible'
p1034
I0
tp1035
a(I135
I25
F1.0
g48
I0
tp1036
a(I135
I84
F0.625
S'perfect'
p1037
I0
tp1038
a(I188
I30
F0.5
S'possible'
p1039
I0
tp1040
a(I188
I34
F1.0
g56
I0
tp1041
a(I198
I2
F1.0
g60
I0
tp1042
a(I200
I14
F0.125
g62
I0
tp1043
a(I227
I98
I0
g64
I0
tp1044
a(I230
I5
I0
g627
I0
tp1045
a(I230
I5
F0.625
g66
I0
tp1046
a(I284
I8
F-0.375
g68
I0
tp1047
a(I286
I16
I0
g70
I0
tp1048
a(I342
I20
F0.625
g73
I0
tp1049
as(S'data'
p1050
tp1051
(lp1052
(I100
I4
I0
S'mobile'
p1053
I13
tp1054
a(I135
I30
I0
S'fast'
p1055
I13
tp1056
a(I188
I39
I0
S'fast'
p1057
I13
tp1058
a(I227
I2
I0
S'mobile'
p1059
I13
tp1060
a(I227
I59
F-0.125
S'slow'
p1061
I13
tp1062
a(I227
I61
F-0.125
S'slow'
p1063
I13
tp1064
a(I319
I7
I0
S'cable'
p1065
I13
tp1066
a(I319
I8
I0
S'cable'
p1067
I13
tp1068
a(I319
I8
F0.875
S'important'
p1069
I13
tp1070
as(S'smartphone'
p1071
tp1072
(lp1073
(I5
I3
I0
S'great'
p1074
I0
tp1075
a(I19
I4
F-0.625
S'average'
p1076
I0
tp1077
a(I45
I15
F-0.375
S'small'
p1078
I0
tp1079
a(I65
I0
F1.0
S'good'
p1080
I0
tp1081
a(I68
I4
I0
S'great'
p1082
I0
tp1083
a(I98
I0
I0
S'great'
p1084
I0
tp1085
a(I117
I3
F0.125
S'first'
p1086
I0
tp1087
a(I123
I11
F-0.125
S'overall'
p1088
I0
tp1089
a(I131
I9
F-0.375
S'simple'
p1090
I0
tp1091
a(I164
I0
I0
S'great'
p1092
I0
tp1093
a(I178
I9
F0.125
S'first'
p1094
I0
tp1095
a(I182
I1
F0.125
S'first'
p1096
I0
tp1097
a(I188
I16
F0.375
S'reliable'
p1098
I0
tp1099
a(I196
I4
I0
S'great'
p1100
I0
tp1101
a(I241
I16
F0.125
S'first'
p1102
I0
tp1103
a(I241
I23
F0.625
S'easy'
p1104
I0
tp1105
a(I282
I9
I0
S'great'
p1106
I0
tp1107
a(I285
I26
I0
S'great'
p1108
I0
tp1109
a(I308
I22
I0
S'great'
p1110
I0
tp1111
a(I313
I2
I0
S'great'
p1112
I0
tp1113
a(I316
I7
I0
S'full'
p1114
I0
tp1115
a(I349
I2
F0.125
S'first'
p1116
I0
tp1117
a(I370
I11
F0.125
S'first'
p1118
I0
tp1119
a(I395
I0
I0
S'great'
p1120
I0
tp1121
a(I398
I5
F0.125
S'first'
p1122
I0
tp1123
as(g838
S'sim'
p1124
S'card'
p1125
tp1126
(lp1127
(I68
I12
F-0.5
g368
I0
tp1128
a(I135
I26
F1.0
g370
I0
tp1129
a(I135
I26
F-0.5
g372
I0
tp1130
a(I171
I0
I0
g358
I0
tp1131
a(I177
I10
F-0.625
g375
I0
tp1132
a(I188
I14
F-0.25
g377
I0
tp1133
a(I188
I35
F1.0
g379
I0
tp1134
a(I188
I35
F-0.5
g381
I0
tp1135
a(I190
I17
I0
g383
I0
tp1136
a(I200
I15
I0
g385
I0
tp1137
a(I217
I37
I0
g360
I0
tp1138
a(I217
I37
F0.375
g362
I0
tp1139
a(I217
I38
I0
g389
I0
tp1140
a(I217
I38
F0.375
g391
I0
tp1141
a(I241
I1
F0.375
g364
I0
tp1142
a(I316
I15
F0.5
g366
I0
tp1143
a(I319
I5
F0.625
g395
I0
tp1144
a(I319
I5
F-0.25
g397
I0
tp1145
a(I367
I16
F1.0
g399
I0
tp1146
a(I408
I0
I0
g401
I0
tp1147
a(I408
I0
I0
g403
I0
tp1148
a(I408
I3
I0
g405
I0
tp1149
as(S'3rd'
p1150
S'party'
p1151
tp1152
(lp1153
(I388
I88
F0.375
S'complete'
p1154
I0
tp1155
as(S'apps'
p1156
tp1157
(lp1158
(I19
I6
I0
S'unnecessary'
p1159
I0
tp1160
a(I32
I2
F0.25
S'familiar'
p1161
I0
tp1162
a(I32
I2
I0
S'more'
p1163
I0
tp1164
a(I32
I2
I0
S'more'
p1165
I0
tp1166
a(I33
I3
F0.875
S'music'
p1167
I0
tp1168
a(I33
I3
F-0.625
S'other'
p1169
I0
tp1170
a(I42
I4
I0
S'active'
p1171
I0
tp1172
a(I59
I1
I0
S'internet'
p1173
I0
tp1174
a(I102
I7
I0
S'most'
p1175
I0
tp1176
a(I102
I7
I0
S'more'
p1177
I0
tp1178
a(I115
I20
I0
S'great'
p1179
I0
tp1180
a(I135
I43
I0
S'downloaded'
p1181
I0
tp1182
a(I135
I52
I0
S'few'
p1183
I0
tp1184
a(I135
I53
I0
S'more'
p1185
I0
tp1186
a(I135
I53
I0
S'later'
p1187
I0
tp1188
a(I151
I4
I0
S'fast'
p1189
I0
tp1190
a(I183
I2
F0.375
S'available'
p1191
I0
tp1192
a(I183
I2
F0.625
S'easy'
p1193
I0
tp1194
a(I188
I52
I0
S'downloaded'
p1195
I0
tp1196
a(I188
I61
I0
S'few'
p1197
I0
tp1198
a(I188
I62
I0
S'more'
p1199
I0
tp1200
a(I188
I62
I0
S'later'
p1201
I0
tp1202
a(I227
I95
I0
S'update'
p1203
I0
tp1204
a(I239
I3
I0
S'many'
p1205
I0
tp1206
a(I241
I23
F-0.375
S'disable'
p1207
I0
tp1208
a(I259
I5
I0
S'social'
p1209
I0
tp1210
a(I263
I9
I0
S'latest'
p1211
I0
tp1212
a(I277
I26
F0.625
S'major'
p1213
I0
tp1214
a(I286
I5
I0
S'same'
p1215
I0
tp1216
a(I290
I2
I0
S'download'
p1217
I0
tp1218
a(I290
I2
I0
S'least'
p1219
I0
tp1220
a(I292
I1
F1.0
S'good'
p1221
I0
tp1222
a(I294
I5
F-0.5
S'open'
p1223
I0
tp1224
a(I366
I38
F-0.625
S'free'
p1225
I0
tp1226
a(I366
I45
F-0.625
S'other'
p1227
I0
tp1228
a(I366
I45
F1.0
S'good'
p1229
I0
tp1230
a(I375
I7
F-0.625
S'other'
p1231
I0
tp1232
a(I375
I7
F-0.5
S'open'
p1233
I0
tp1234
a(I379
I38
F-0.625
S'free'
p1235
I0
tp1236
a(I388
I9
I0
S'great'
p1237
I0
tp1238
a(I388
I43
I0
S'revive'
p1239
I0
tp1240
a(I398
I15
F0.625
S'easy'
p1241
I0
tp1242
a(I398
I15
I0
S'overseas'
p1243
I0
tp1244
a(I406
I3
F1.0
S'best'
p1245
I0
tp1246
as(S'amazon'
p1247
tp1248
(lp1249
(I75
I6
F0.375
S'working'
p1250
I13
tp1251
a(I193
I0
I0
S'great'
p1252
I13
tp1253
a(I261
I24
F0.25
S'helpful'
p1254
I13
tp1255
a(I367
I33
F0.125
S'capable'
p1256
I13
tp1257
a(I388
I11
I0
S'very'
p1258
I13
tp1259
a(I388
I11
I0
S'same'
p1260
I13
tp1261
as(S'internal'
p1262
S'memory'
p1263
tp1264
(lp1265
(I98
I0
F0.375
S'much'
p1266
I0
tp1267
a(I98
I0
I0
S'internal'
p1268
I0
tp1269
a(I145
I10
I0
S'internal'
p1270
I0
tp1271
a(I145
I12
I0
S'internal'
p1272
I0
tp1273
a(I145
I12
I0
S'full'
p1274
I0
tp1275
a(I192
I0
I0
S'internal'
p1276
I0
tp1277
a(I217
I5
I0
S'internal'
p1278
I0
tp1279
a(I314
I0
I0
S'internal'
p1280
I0
tp1281
a(I342
I15
I0
S'internal'
p1282
I0
tp1283
a(I357
I7
I0
S'internal'
p1284
I0
tp1285
a(I370
I5
I0
S'large'
p1286
I0
tp1287
a(I370
I5
I0
S'internal'
p1288
I0
tp1289
a(I388
I102
I0
S'internal'
p1290
I0
tp1291
a(I98
I0
F0.375
g1266
I5
tp1292
a(I98
I0
I0
g1268
I5
tp1293
a(I108
I7
I0
S'great'
p1294
I5
tp1295
a(I124
I12
I0
S'close'
p1296
I5
tp1297
a(I145
I10
I0
g1270
I5
tp1298
a(I145
I12
I0
g1272
I5
tp1299
a(I145
I12
I0
g1274
I5
tp1300
a(I192
I0
I0
g1276
I5
tp1301
a(I217
I5
I0
g1278
I5
tp1302
a(I314
I0
I0
g1280
I5
tp1303
a(I342
I15
I0
g1282
I5
tp1304
a(I356
I27
F0.25
S'responsive'
p1305
I5
tp1306
a(I357
I7
I0
g1284
I5
tp1307
a(I370
I5
I0
g1286
I5
tp1308
a(I370
I5
I0
g1288
I5
tp1309
a(I370
I11
F-0.5
S'less'
p1310
I5
tp1311
a(I388
I102
I0
g1290
I5
tp1312
as.