(dp0
(S'software'
p1
S'update'
p2
tp3
(lp4
(I0
I75
F0.875
S'nice'
p5
I0
tp6
as(S'battery'
p7
S'life'
p8
tp9
(lp10
(I0
I11
F1.0
S'better'
p11
I1
tp12
a(I0
I23
F1.0
S'good'
p13
I1
tp14
a(I0
I27
F1.0
S'good'
p15
I1
tp16
a(I4
I165
F1.0
S'good'
p17
I1
tp18
a(I4
I165
F0.625
S'easy'
p19
I1
tp20
a(I5
I60
F-0.5
S'poor'
p21
I1
tp22
a(I5
I61
F1.0
S'better'
p23
I1
tp24
a(I0
I11
F1.0
g11
I19
tp25
a(I0
I23
F1.0
g13
I19
tp26
a(I0
I27
F1.0
g15
I19
tp27
a(I4
I165
F1.0
g17
I19
tp28
a(I4
I165
F0.625
g19
I19
tp29
a(I2
I69
F0.375
S'new'
p30
I15
tp31
a(I5
I60
F-0.5
g21
I15
tp32
a(I5
I61
F1.0
g23
I15
tp33
a(I5
I71
F0.375
S'new'
p34
I15
tp35
a(I7
I27
F-0.625
S'bad'
p36
I15
tp37
as(S'ring'
p38
S'tones'
p39
tp40
(lp41
(I2
I40
I0
S'personalized'
p42
I0
tp43
a(I2
I40
F0.875
S'music'
p44
I0
tp45
as(S'text'
p46
tp47
(lp48
(I2
I25
I0
S'full'
p49
I18
tp50
as(S'alcatel'
p51
tp52
(lp53
(I2
I72
F-0.625
S'bad'
p54
I0
tp55
a(I5
I16
F0.875
S'happy'
p56
I0
tp57
a(I7
I41
I0
S'website'
p58
I0
tp59
as(S'camera'
p60
tp61
(lp62
(I4
I92
F1.0
S'good'
p63
I1
tp64
a(I4
I102
F0.5
S'functional'
p65
I1
tp66
a(I7
I38
F0.125
S'digital'
p67
I1
tp68
as(S'bluetooth'
p69
tp70
(lp71
(I3
I57
I0
S'real'
p72
I3
tp73
as(S'internet'
p74
tp75
(lp76
(I0
I42
F0.125
S'first'
p77
I6
tp78
as(S'headphone'
p79
S'jack'
p80
tp81
(lp82
(I2
I45
F0.875
S'important'
p83
I0
tp84
a(I2
I47
I0
S'standard'
p85
I0
tp86
a(I6
I19
F-0.375
S'top'
p87
I0
tp88
a(I7
I50
I0
S'normal'
p89
I0
tp90
as(S'night'
p91
S'mode'
p92
tp93
(lp94
(I3
I43
I0
S'same'
p95
I0
tp96
a(I3
I43
F-0.5
S'less'
p97
I0
tp98
as(S'sd'
p99
S'card'
p100
tp101
(lp102
(I2
I39
I0
S'least'
p103
I0
tp104
as(S'qwerty'
p105
S'keyboard'
p106
tp107
(lp108
(I4
I102
F-0.375
S'small'
p109
I0
tp110
a(I6
I34
F1.0
S'good'
p111
I0
tp112
a(I2
I21
F-0.375
S'small'
p113
I2
tp114
a(I2
I21
F-0.75
S'difficult'
p115
I2
tp116
a(I2
I21
I0
S'limited'
p117
I2
tp118
a(I2
I21
F-0.625
S'light'
p119
I2
tp120
a(I4
I102
F-0.375
g109
I2
tp121
a(I5
I38
F-0.25
S'white'
p122
I2
tp123
a(I5
I38
F0.625
S'easier'
p124
I2
tp125
a(I6
I2
I0
S'great'
p126
I2
tp127
a(I6
I2
F-0.375
S'small'
p128
I2
tp129
a(I6
I13
F-0.25
S'white'
p130
I2
tp131
a(I7
I2
F-0.375
S'manual'
p132
I2
tp133
a(I7
I13
F0.625
S'easy'
p134
I2
tp135
a(I7
I105
I0
S'full'
p136
I2
tp137
a(I7
I120
I0
S'full'
p138
I2
tp139
as(S'calls'
p140
tp141
(lp142
(I0
I26
I0
S'great'
p143
I0
tp144
a(I4
I37
F-0.375
S'manual'
p145
I0
tp146
a(I7
I4
I0
S'few'
p147
I0
tp148
a(I7
I59
F0.75
S'receive'
p149
I0
tp150
a(I7
I104
I0
S'great'
p151
I0
tp152
as(S'cant'
p153
S'send'
p154
tp155
(lp156
(I4
I177
F-0.125
S'cant'
p157
I0
tp158
as(S'sim'
p159
S'card'
p160
tp161
(lp162
(I7
I16
F0.375
S'new'
p163
I0
tp164
as(S'personalized'
p165
g38
tp166
(lp167
(I2
I40
I0
g42
I0
tp168
a(I2
I56
I0
S'personalized'
p169
I0
tp170
as(S'data'
p171
tp172
(lp173
(I4
I71
F-0.625
S'free'
p174
I13
tp175
a(I7
I36
F-0.875
S'hard'
p176
I13
tp177
a(I7
I44
F-0.875
S'hard'
p178
I13
tp179
a(I7
I119
F0.625
S'easy'
p180
I13
tp181
as(S'pocket'
p182
tp183
(lp184
(I7
I2
F0.25
S'read'
p185
I17
tp186
a(I7
I29
F0.5
S'carried'
p187
I17
tp188
a(I7
I29
F-0.25
S'turned'
p189
I17
tp190
a(I7
I30
F-0.75
S'dead'
p191
I17
tp192
a(I7
I30
F-0.75
S'wrong'
p193
I17
tp194
as(S'texting'
p195
tp196
(lp197
(I7
I79
I0
S'great'
p198
I0
tp199
a(I7
I120
F0.625
S'easy'
p200
I0
tp201
as(S'mp3'
p202
S'player'
p203
tp204
(lp205
(I0
I26
I0
S'great'
p206
I1
tp207
as(S'sound'
p208
S'quality'
p209
tp210
(lp211
(I3
I76
I0
S'common'
p212
I0
tp213
a(I4
I147
F1.0
S'good'
p214
I0
tp215
a(I1
I9
F-0.25
S'low'
p216
I7
tp217
a(I3
I76
I0
g212
I7
tp218
a(I4
I139
I0
S'great'
p219
I7
tp220
a(I4
I147
F1.0
g214
I7
tp221
as.