(dp0
(S'external'
p1
S'speaker'
p2
tp3
(lp4
(I19
I33
I0
S'external'
p5
I1
tp6
a(I19
I35
I0
S'external'
p7
I1
tp8
a(I19
I37
I0
S'external'
p9
I1
tp10
a(I19
I37
F-0.625
S'useless'
p11
I1
tp12
a(I19
I44
I0
S'external'
p13
I1
tp14
a(I19
I44
F-0.375
S'near'
p15
I1
tp16
a(I34
I15
I0
S'external'
p17
I1
tp18
as(S'service'
p19
S'centre'
p20
tp21
(lp22
(I16
I47
F0.5
S'told'
p23
I0
tp24
a(I16
I47
F0.5
g23
I16
tp25
a(I19
I84
F-0.5
S'sure'
p26
I16
tp27
as(S'battery'
p28
S'life'
p29
tp30
(lp31
(I17
I17
F-0.75
S'short'
p32
I1
tp33
a(I25
I20
I0
S'internal'
p34
I1
tp35
a(I33
I3
F0.625
S'decent'
p36
I1
tp37
a(I34
I37
F-0.625
S'bad'
p38
I1
tp39
a(I34
I64
F0.875
S'attractive'
p40
I1
tp41
a(I25
I20
I0
g34
I19
tp42
a(I33
I3
F0.625
g36
I19
tp43
a(I34
I64
F0.875
g40
I19
tp44
a(I1
I34
F1.0
S'good'
p45
I15
tp46
a(I5
I15
F-0.75
S'dead'
p47
I15
tp48
a(I5
I15
I0
S'full'
p49
I15
tp50
a(I17
I5
I0
S'fast'
p51
I15
tp52
a(I17
I17
F-0.75
g32
I15
tp53
a(I29
I37
F1.0
S'better'
p54
I15
tp55
a(I33
I20
F0.25
S'used'
p56
I15
tp57
a(I34
I37
F-0.625
g38
I15
tp58
as(S'4g'
p59
S'network'
p60
tp61
(lp62
(I1
I0
F0.375
S'available'
p63
I0
tp64
a(I1
I0
F0.375
g63
I0
tp65
as(S'samsung'
p66
tp67
(lp68
(I1
I29
I0
S'special'
p69
I7
tp70
a(I10
I12
F0.875
S'happy'
p71
I7
tp72
as(S'camera'
p73
tp74
(lp75
(I9
I21
I0
S'great'
p76
I1
tp77
a(I9
I21
I0
S'useful'
p78
I1
tp79
a(I9
I21
F1.0
S'best'
p80
I1
tp81
a(I10
I2
I0
S'incredible'
p82
I1
tp83
a(I10
I34
F1.0
S'best'
p84
I1
tp85
a(I19
I89
F1.0
S'good'
p86
I1
tp87
a(I21
I4
I0
S'rear'
p88
I1
tp89
as(S'sony'
p90
tp91
(lp92
(I8
I31
F0.5
S'second'
p93
I5
tp94
a(I12
I5
I0
S'least'
p95
I5
tp96
a(I12
I11
F-0.75
S'single'
p97
I5
tp98
a(I13
I0
F0.125
S'able'
p99
I5
tp100
a(I13
I6
I0
S'local'
p101
I5
tp102
a(I16
I3
I0
S'forth'
p103
I5
tp104
a(I16
I22
F0.125
S'first'
p105
I5
tp106
a(I16
I60
F0.5
S'loyal'
p107
I5
tp108
a(I17
I12
I0
S'old'
p109
I5
tp110
a(I21
I35
F-0.75
S'difficult'
p111
I5
tp112
as(S'repair'
p113
tp114
(lp115
(I25
I29
F0.125
S'able'
p116
I4
tp117
as(S'functions'
p118
tp119
(lp120
(I9
I21
I0
S'fast'
p121
I4
tp122
a(I19
I17
I0
S'japanese'
p123
I4
tp124
a(I19
I19
I0
S'most'
p125
I4
tp126
a(I19
I19
I0
S'critical'
p127
I4
tp128
a(I19
I20
F0.875
S'important'
p129
I4
tp130
a(I19
I21
F0.625
S'add'
p131
I4
tp132
a(I25
I24
F-0.25
S'low'
p133
I4
tp134
a(I25
I24
F-0.625
S'light'
p135
I4
tp136
as(S'android'
p137
tp138
(lp139
(I4
I0
F0.5
S'second'
p140
I0
tp141
a(I9
I21
F0.125
S'last'
p142
I0
tp143
a(I12
I11
I0
S'latest'
p144
I0
tp145
a(I34
I15
I0
S'latest'
p146
I0
tp147
a(I34
I49
I0
S'more'
p148
I0
tp149
as(S'water'
p150
S'resistant'
p151
tp152
(lp153
(I16
I4
I0
S'water'
p154
I0
tp155
a(I16
I44
F-0.5
S'irreparable'
p156
I0
tp157
a(I9
I6
F0.875
S'happy'
p158
I6
tp159
a(I9
I10
F-0.5
S'sure'
p160
I6
tp161
a(I16
I44
F-0.5
g156
I6
tp162
a(I29
I39
F-0.375
S'dust'
p163
I6
tp164
a(I16
I4
I0
g154
I0
tp165
as(S'full'
p166
S'hd'
p167
tp168
(lp169
(I9
I8
I0
S'full'
p170
I0
tp171
as(S'xperia'
p172
S'z'
p173
tp174
(lp175
(I16
I21
I0
S'most'
p176
I0
tp177
a(I9
I19
F0.625
S'easy'
p178
I0
tp179
a(I9
I19
F1.0
S'better'
p180
I0
tp181
a(I16
I21
I0
g176
I0
tp182
a(I19
I51
I0
S'switched'
p183
I0
tp184
as(S'warranty'
p185
tp186
(lp187
(I19
I6
F0.375
S'available'
p188
I2
tp189
as(S'data'
p190
tp191
(lp192
(I16
I61
F0.75
S'due'
p193
I13
tp194
a(I26
I7
F-0.625
S'other'
p195
I13
tp196
a(I29
I28
F1.0
S'best'
p197
I13
tp198
a(I34
I40
F-0.625
S'save'
p199
I13
tp200
as(S'bravia'
p201
S'engine'
p202
tp203
(lp204
(I27
I2
I0
S'activate'
p205
I0
tp206
a(I27
I2
I0
S'mobile'
p207
I0
tp208
as(S'apps'
p209
tp210
(lp211
(I5
I8
I0
S'quick'
p212
I0
tp213
a(I19
I1
I0
S'most'
p214
I0
tp215
a(I29
I32
F-0.625
S'average'
p216
I0
tp217
as(S'waterproof'
p218
tp219
(lp220
(I34
I12
F0.375
S'new'
p221
I0
tp222
as(S'sound'
p223
S'quality'
p224
tp225
(lp226
(I19
I29
F-0.625
S'quiet'
p227
I0
tp228
a(I19
I45
I0
S'external'
p229
I0
tp230
a(I19
I58
I0
S'external'
p231
I0
tp232
a(I19
I58
F-0.5
S'poor'
p233
I0
tp234
as.