(dp0
(S'problem'
p1
tp2
(lp3
(I38
I34
F0.5
S'expensive'
p4
tp5
a(I40
I10
I0
S'big'
p6
tp7
a(I54
I6
F0.75
S'worth'
p8
tp9
a(I72
I2
I0
S'common'
p10
tp11
a(I90
I1
F0.25
S'biggest'
p12
tp13
a(I102
I2
F0.5
S'possible'
p14
tp15
a(I108
I2
I0
S'common'
p16
tp17
as(S'something'
p18
tp19
(lp20
(I2
I0
F0.875
S'important'
p21
tp22
a(I114
I1
F-0.375
S'top'
p23
tp24
a(I114
I1
I0
S'fourth'
p25
tp26
a(I168
I3
F-0.5
S'miss'
p27
tp28
as(S'perfect'
p29
tp30
(lp31
(I85
I0
F0.375
S'new'
p32
tp33
as(S'battery'
p34
S'life'
p35
tp36
(lp37
(I33
I0
I0
S'fast'
p38
tp39
a(I33
I0
F1.0
S'good'
p40
tp41
a(I113
I1
I0
S'great'
p42
tp43
a(I133
I1
F1.0
S'better'
p44
tp45
a(I150
I2
F1.0
S'good'
p46
tp47
a(I157
I1
F-0.75
S'short'
p48
tp49
as(S'purchase'
p50
tp51
(lp52
(I35
I0
F-0.875
S'regret'
p53
tp54
as(S'money'
p55
tp56
(lp57
(I125
I2
F0.375
S'extra'
p58
tp59
a(I134
I6
F-0.875
S'hard'
p60
tp61
a(I160
I1
I0
S'full'
p62
tp63
as(S'seems'
p64
tp65
(lp66
(I90
I2
F-0.125
S'slow'
p67
tp68
as(S'screen'
p69
tp70
(lp71
(I7
I0
F0.375
S'new'
p72
tp73
a(I63
I0
I0
S'entire'
p74
tp75
a(I67
I2
F-0.625
S'keep'
p76
tp77
a(I67
I2
F-0.375
S'simple'
p78
tp79
a(I67
I2
F0.5
S'clear'
p80
tp81
a(I67
I2
F0.125
S'colorful'
p82
tp83
a(I68
I1
F0.625
S'easy'
p84
tp85
a(I69
I18
I0
S'big'
p86
tp87
a(I69
I18
F0.75
S'beautiful'
p88
tp89
a(I70
I1
I0
S'big'
p90
tp91
a(I89
I1
F0.875
S'nice'
p92
tp93
a(I89
I1
I0
S'big'
p94
tp95
a(I90
I1
F1.0
S'good'
p96
tp97
a(I90
I3
F0.5
S'strong'
p98
tp99
a(I143
I0
I0
S'blue'
p100
tp101
a(I161
I4
F0.5
S'live'
p102
tp103
a(I163
I4
F0.25
S'sharp'
p104
tp105
a(I167
I0
F-0.375
S'black'
p106
tp107
as(S'heavy'
p108
S'duty'
p109
tp110
(lp111
(I140
I0
F-0.5
S'heavy'
p112
tp113
a(I168
I7
F-0.5
S'heavy'
p114
tp115
as(S'service'
p116
tp117
(lp118
(I19
I13
F0.125
S'usual'
p119
tp120
a(I72
I3
F1.0
S'good'
p121
tp122
as(S'everything'
p123
tp124
(lp125
(I94
I5
F0.375
S'register'
p126
tp127
a(I113
I4
I0
S'great'
p128
tp129
a(I148
I2
I0
S'arabic'
p130
tp131
as(S'problems'
p132
tp133
(lp134
(I19
I2
F0.625
S'major'
p135
tp136
a(I19
I9
F0.625
S'kind'
p137
tp138
a(I47
I0
F-0.75
S'short'
p139
tp140
a(I47
I0
I0
S'many'
p141
tp142
a(I122
I2
I0
S'great'
p143
tp144
a(I173
I0
F0.125
S'first'
p145
tp146
as(S'back'
p147
tp148
(lp149
(I129
I2
F0.75
S'fit'
p150
tp151
as(S'need'
p152
tp153
(lp154
(I34
I0
I0
S'android'
p155
tp156
as(S'camera'
p157
tp158
(lp159
(I13
I0
I0
S'great'
p160
tp161
a(I25
I2
I0
S'great'
p162
tp163
a(I35
I1
F1.0
S'good'
p164
tp165
a(I38
I6
I0
S'great'
p166
tp167
a(I40
I3
F-0.625
S'other'
p168
tp169
a(I42
I1
F0.625
S'perfect'
p170
tp171
a(I47
I1
F0.875
S'nice'
p172
tp173
a(I47
I1
F0.875
S'nice'
p174
tp175
a(I54
I1
F1.0
S'good'
p176
tp177
a(I54
I1
F1.0
S'good'
p178
tp179
a(I78
I0
F0.625
S'superior'
p180
tp181
a(I89
I1
F0.125
S'spectacular'
p182
tp183
a(I91
I2
F1.0
S'good'
p184
tp185
a(I129
I1
F0.5
S'drive'
p186
tp187
a(I147
I1
F1.0
S'good'
p188
tp189
a(I154
I18
F-0.5
S'less'
p190
tp191
a(I154
I18
F0.25
S'stellar'
p192
tp193
a(I154
I20
I0
S'least'
p194
tp195
a(I164
I0
I0
S'full'
p196
tp197
as(S'life'
p198
tp199
(lp200
(I33
I0
F1.0
g40
tp201
a(I113
I1
I0
g42
tp202
a(I133
I1
F1.0
g44
tp203
as(S'version'
p204
tp205
(lp206
(I20
I5
I0
S'such'
p207
tp208
a(I38
I9
F-0.5
S'international'
p209
tp210
a(I38
I20
F-0.5
S'international'
p211
tp212
a(I121
I3
F-0.5
S'international'
p213
tp214
a(I144
I0
I0
S'nervous'
p215
tp216
a(I163
I2
I0
S'user'
p217
tp218
a(I165
I1
F-0.5
S'international'
p219
tp220
a(I172
I7
F-0.5
S'international'
p221
tp222
as(S'operating'
p223
S'system'
p224
tp225
(lp226
(I46
I10
F0.875
S'nice'
p227
tp228
a(I141
I1
F1.0
S'good'
p229
tp230
as(S'nternational'
p231
S'version'
p232
tp233
(lp234
(I38
I9
F-0.5
g209
tp235
a(I38
I20
F-0.5
g211
tp236
a(I121
I3
F-0.5
g213
tp237
a(I144
I0
I0
g215
tp238
a(I165
I1
F-0.5
g219
tp239
a(I172
I7
F-0.5
g221
tp240
as(S'live'
p241
S'tiles'
p242
tp243
(lp244
(I37
I3
F0.5
S'live'
p245
tp246
a(I69
I17
F0.5
S'live'
p247
tp248
a(I69
I17
I0
S'cool'
p249
tp250
a(I176
I25
F0.5
S'live'
p251
tp252
a(I176
I42
F0.5
S'live'
p253
tp254
as(S'product'
p255
tp256
(lp257
(I8
I0
F0.875
S'happy'
p258
tp259
a(I9
I0
F0.375
S'new'
p260
tp261
a(I18
I1
F-0.5
S'sure'
p262
tp263
a(I44
I3
I0
S'same'
p264
tp265
a(I76
I0
F1.0
S'good'
p266
tp267
a(I84
I3
I0
S'great'
p268
tp269
as(S'lumia'
p270
tp271
(lp272
(I17
I0
I0
S'only'
p273
tp274
a(I17
I0
F-0.625
S'bad'
p275
tp276
a(I57
I1
F0.625
S'add'
p277
tp278
a(I71
I11
F-0.75
S'incapable'
p279
tp280
a(I87
I1
F1.0
S'best'
p281
tp282
a(I123
I3
F0.25
S'original'
p283
tp284
a(I135
I0
I0
S'normal'
p285
tp286
as(S'windows'
p287
tp288
(lp289
(I37
I1
I0
S'great'
p290
tp291
a(I40
I2
F0.125
S'first'
p292
tp293
a(I40
I7
F-0.5
S'existent'
p294
tp295
a(I54
I3
F-0.125
S'overall'
p296
tp297
a(I54
I3
I0
S'android'
p298
tp299
a(I69
I0
I0
S'few'
p300
tp301
a(I69
I0
I0
S'different'
p302
tp303
a(I91
I3
F0.375
S'available'
p304
tp305
a(I178
I0
F0.375
S'new'
p306
tp307
as(S'market'
p308
tp309
(lp310
(I38
I26
I0
S'local'
p311
tp312
a(I39
I6
F-0.375
S'black'
p313
tp314
a(I40
I6
F-0.75
S'sad'
p315
tp316
a(I46
I13
F-0.875
S'stinky'
p317
tp318
a(I176
I2
I0
S'european'
p319
tp320
a(I176
I27
F1.0
S'best'
p321
tp322
as(S'apple'
p323
tp324
(lp325
(I94
I5
F0.625
S'easy'
p326
tp327
a(I172
I2
I0
S'latest'
p328
tp329
as(S'hardware'
p330
tp331
(lp332
(I19
I11
F-0.375
S'unstable'
p333
tp334
a(I46
I11
F1.0
S'good'
p335
tp336
a(I69
I17
I0
S'great'
p337
tp338
a(I91
I1
I0
S'real'
p339
tp340
as(S'people'
p341
tp342
(lp343
(I14
I5
I0
S'general'
p344
tp345
a(I20
I4
F-0.375
S'tile'
p346
tp347
a(I38
I11
F-0.625
S'want'
p348
tp349
a(I47
I5
F-0.75
S'unresponsive'
p350
tp351
a(I47
I5
F-0.625
S'other'
p352
tp353
a(I80
I0
F0.125
S'first'
p354
tp355
a(I134
I6
F1.0
S'good'
p356
tp357
a(I148
I0
F0.75
S'receive'
p358
tp359
a(I168
I2
I0
S'many'
p360
tp361
as(S'work'
p362
tp363
(lp364
(I6
I0
F0.875
S'nice'
p365
tp366
a(I75
I15
I0
S'comprehensive'
p367
tp368
a(I162
I0
F0.875
S'nice'
p369
tp370
a(I162
I0
F0.25
S'refurbished'
p371
tp372
as(S'factory'
p373
tp374
(lp375
(I4
I2
F-0.5
S'international'
p376
tp377
a(I38
I11
F-0.5
S'international'
p378
tp379
a(I38
I14
F-0.5
S'international'
p380
tp381
a(I38
I15
F-0.5
S'international'
p382
tp383
a(I48
I0
F0.375
S'new'
p384
tp385
a(I57
I1
I0
S'soft'
p386
tp387
a(I57
I1
F-0.625
S'clean'
p388
tp389
a(I57
I1
I0
S'english'
p390
tp391
a(I118
I0
F-0.5
S'sure'
p392
tp393
as(S'experience'
p394
tp395
(lp396
(I20
I11
I0
S'great'
p397
tp398
a(I43
I0
F-0.625
S'bad'
p399
tp400
a(I69
I13
F1.0
S'best'
p401
tp402
as(S'change'
p403
tp404
(lp405
(I154
I16
F0.5
S'welcome'
p406
tp407
as(S'seller'
p408
tp409
(lp410
(I4
I0
F0.625
S'interested'
p411
tp412
a(I4
I0
F-0.125
S'mine'
p413
tp414
a(I38
I0
F0.375
S'much'
p415
tp416
a(I38
I35
F-0.5
S'sure'
p417
tp418
a(I132
I2
I0
S'different'
p419
tp420
a(I154
I60
I0
S'least'
p421
tp422
as(S'android'
p423
tp424
(lp425
(I47
I1
F0.5
S'comparable'
p426
tp427
a(I47
I1
F0.875
S'nice'
p428
tp429
as(S'updates'
p430
tp431
(lp432
(I38
I15
I0
S'latest'
p433
tp434
a(I38
I18
I0
S'next'
p435
tp436
a(I38
I18
F0.375
S'available'
p437
tp438
as(S'battery'
p439
tp440
(lp441
(I33
I0
I0
g38
tp442
a(I46
I13
I0
S'few'
p443
tp444
a(I81
I2
I0
S'more'
p445
tp446
a(I96
I0
F0.125
S'last'
p447
tp448
a(I96
I0
F-0.5
S'long'
p449
tp450
a(I102
I0
F-0.875
S'trouble'
p451
tp452
a(I136
I10
F1.0
S'good'
p453
tp454
a(I150
I2
F1.0
g46
tp455
a(I157
I1
F-0.75
g48
tp456
as(S'microsoft'
p457
tp458
(lp459
(I69
I5
F-0.75
S'sad'
p460
tp461
as(S'feel'
p462
tp463
(lp464
(I11
I2
F1.0
S'good'
p465
tp466
as(S'case'
p467
tp468
(lp469
(I154
I49
I0
S'curious'
p470
tp471
a(I176
I22
I0
S'same'
p472
tp473
as(S'software'
p474
tp475
(lp476
(I57
I0
I0
S'italian'
p477
tp478
a(I57
I1
I0
S'update'
p479
tp480
a(I105
I4
I0
S'more'
p481
tp482
as(S'nokia'
p483
tp484
(lp485
(I15
I0
F1.0
S'best'
p486
tp487
a(I24
I5
F-0.636
S'genuine'
p488
tp489
a(I35
I9
I0
S'different'
p490
tp491
a(I38
I15
I0
S'inside'
p492
tp493
a(I47
I8
I0
S'update'
p494
tp495
a(I92
I2
F-0.625
S'other'
p496
tp497
a(I92
I2
I0
S'mobile'
p498
tp499
a(I121
I6
I0
S'more'
p500
tp501
a(I121
I6
F-0.75
S'likely'
p502
tp503
a(I127
I0
I0
S'old'
p504
tp505
a(I131
I0
I0
S'third'
p506
tp507
a(I131
I0
I0
S'forth'
p508
tp509
a(I131
I2
F0.125
S'last'
p510
tp511
a(I132
I4
I0
S'unfair'
p512
tp513
a(I140
I0
F0.375
S'new'
p514
tp515
a(I140
I0
F0.25
S'unlocked'
p516
tp517
a(I142
I0
F-0.625
S'glad'
p518
tp519
a(I172
I11
I0
S'sleek'
p520
tp521
a(I176
I37
I0
S'many'
p522
tp523
a(I179
I1
F0.25
S'original'
p524
tp525
as(S'language'
p526
tp527
(lp528
(I38
I4
I0
S'english'
p529
tp530
a(I38
I5
F0.625
S'easy'
p531
tp532
a(I39
I0
I0
S'italian'
p533
tp534
a(I57
I1
I0
S'spanish'
p535
tp536
a(I57
I1
I0
S'spanish'
p537
tp538
a(I154
I53
I0
S'english'
p539
tp540
as(S'thing'
p541
tp542
(lp543
(I46
I7
F0.125
S'last'
p544
tp545
a(I47
I5
I0
S'same'
p546
tp547
a(I53
I13
I0
S'only'
p548
tp549
a(I63
I0
I0
S'only'
p550
tp551
a(I67
I9
I0
S'same'
p552
tp553
a(I67
I12
F-0.375
S'small'
p554
tp555
a(I67
I13
F-0.375
S'small'
p556
tp557
a(I71
I11
I0
S'basic'
p558
tp559
a(I119
I0
F1.0
S'best'
p560
tp561
a(I143
I2
F1.0
S'good'
p562
tp563
a(I154
I27
F0.125
S'first'
p564
tp565
a(I154
I28
F1.0
S'good'
p566
tp567
a(I154
I36
F0.375
S'similar'
p568
tp569
as(S'sim'
p570
S'card'
p571
tp572
(lp573
(I9
I1
F0.75
S'proper'
p574
tp575
a(I126
I1
I0
S'different'
p576
tp577
a(I136
I6
F-0.75
S'invalid'
p578
tp579
as(S'r'
p580
S'company'
p581
tp582
(lp583
(I94
I4
I0
S'different'
p584
tp585
as(S'device'
p586
tp587
(lp588
(I75
I1
I0
S'mobile'
p589
tp590
a(I75
I26
F0.75
S'beautiful'
p591
tp592
a(I88
I1
I0
S'android'
p593
tp594
a(I103
I2
I0
S'great'
p595
tp596
a(I154
I1
F0.25
S'original'
p597
tp598
a(I154
I48
F0.375
S'newer'
p599
tp600
a(I168
I0
F0.125
S'solid'
p601
tp602
as(S'update'
p603
tp604
(lp605
(I154
I31
F0.125
S'last'
p606
tp607
a(I154
I48
F0.375
S'much'
p608
tp609
as(S'system'
p610
tp611
(lp612
(I46
I10
F0.875
g227
tp613
a(I75
I25
I0
S'faster'
p614
tp615
a(I75
I25
I0
S'more'
p616
tp617
a(I141
I0
I0
S'efficient'
p618
tp619
a(I141
I0
F-0.125
S'slow'
p620
tp621
a(I172
I3
I0
S'android'
p622
tp623
as(S'music'
p624
tp625
(lp626
(I40
I8
F0.125
S'dedicated'
p627
tp628
a(I59
I1
I0
S'descent'
p629
tp630
a(I69
I1
F0.25
S'duplicate'
p631
tp632
a(I69
I1
F-0.5
S'poor'
p633
tp634
a(I69
I2
F0.25
S'duplicate'
p635
tp636
a(I69
I9
I0
S'entire'
p637
tp638
as(S'podcast'
p639
S'files'
p640
tp641
(lp642
(I69
I1
F-0.625
S'unplayable'
p643
tp644
a(I69
I7
F0.625
S'add'
p645
tp646
a(I69
I8
I0
S'podcast'
p647
tp648
as(S'price'
p649
tp650
(lp651
(I44
I3
I0
S'same'
p652
tp653
a(I45
I1
F-0.375
S'conscientious'
p654
tp655
a(I79
I1
F0.625
S'fair'
p656
tp657
a(I82
I1
I0
S'same'
p658
tp659
a(I110
I0
F0.625
S'fair'
p660
tp661
as(S'time'
p662
tp663
(lp664
(I20
I7
I0
S'same'
p665
tp666
a(I29
I2
I0
S'most'
p667
tp668
a(I53
I15
I0
S'most'
p669
tp670
a(I67
I6
F0.125
S'last'
p671
tp672
a(I75
I27
F1.0
S'better'
p673
tp674
a(I92
I0
I0
S'hot'
p675
tp676
a(I97
I8
F0.125
S'first'
p677
tp678
a(I148
I1
F-0.5
S'long'
p679
tp680
a(I164
I2
F0.5
S'second'
p681
tp682
as(S'find'
p683
tp684
(lp685
(I4
I0
I0
S'more'
p686
tp687
as(S'quality'
p688
tp689
(lp690
(I40
I4
I0
S'great'
p691
tp692
a(I75
I26
I0
S'great'
p693
tp694
a(I158
I1
I0
S'high'
p695
tp696
as(S'n'
p697
S'box'
p698
tp699
(lp700
(I9
I2
F0.375
S'new'
p701
tp702
a(I27
I0
F0.375
S'new'
p703
tp704
a(I38
I15
F-0.667
S'incompatible'
p705
tp706
a(I38
I22
I0
S'adapter'
p707
tp708
a(I60
I2
F-0.5
S'complaint'
p709
tp710
a(I60
I2
F0.375
S'new'
p711
tp712
a(I71
I5
F-0.375
S'manual'
p713
tp714
a(I113
I0
F0.375
S'new'
p715
tp716
a(I154
I60
F0.875
S'happy'
p717
tp718
a(I168
I8
F0.125
S'sealed'
p719
tp720
as(S'card'
p721
tp722
(lp723
(I136
I6
F-0.75
g578
tp724
as(S'nokia'
p725
S'lumia'
p726
tp727
(lp728
(I38
I15
I0
g492
tp729
a(I47
I8
I0
g494
tp730
a(I57
I1
F0.625
g277
tp731
a(I92
I2
F-0.625
g496
tp732
a(I92
I2
I0
g498
tp733
a(I140
I0
F0.375
g514
tp734
a(I140
I0
F0.25
g516
tp735
as(S'size'
p736
tp737
(lp738
(I36
I3
F0.875
S'nice'
p739
tp740
a(I79
I0
F0.125
S'weigh'
p741
tp742
a(I95
I1
I0
S'cool'
p743
tp744
a(I154
I2
F-0.375
S'smaller'
p745
tp746
a(I154
I3
F-0.375
S'tile'
p747
tp748
a(I154
I9
F-0.375
S'small'
p749
tp750
a(I154
I9
I0
S'big'
p751
tp752
a(I161
I1
F1.0
S'good'
p753
tp754
as(S'customer'
p755
S'service'
p756
tp757
(lp758
(I19
I13
F0.125
g119
tp759
a(I72
I3
F1.0
g121
tp760
as(S'review'
p761
tp762
(lp763
(I67
I1
F0.75
S'sound'
p764
tp765
a(I67
I14
F-0.625
S'want'
p766
tp767
a(I152
I0
F0.125
S'first'
p768
tp769
as(S'months'
p770
tp771
(lp772
(I19
I0
F0.125
S'first'
p773
tp774
a(I24
I0
F-0.25
S'past'
p775
tp776
a(I34
I4
I0
S'android'
p777
tp778
a(I39
I5
F-0.375
S'happen'
p779
tp780
a(I39
I5
I0
S'few'
p781
tp782
a(I69
I0
I0
S'few'
p783
tp784
a(I99
I1
I0
S'later'
p785
tp786
a(I154
I28
I0
S'update'
p787
tp788
as(S'user'
p789
S'interface'
p790
tp791
(lp792
(I157
I0
I0
S'fast'
p793
tp794
as(S'apps'
p795
tp796
(lp797
(I26
I1
F1.0
S'good'
p798
tp799
a(I26
I1
F0.375
S'available'
p800
tp801
a(I34
I3
F-0.625
S'other'
p802
tp803
a(I37
I3
I0
S'cool'
p804
tp805
a(I38
I28
I0
S'local'
p806
tp807
a(I40
I7
I0
S'most'
p808
tp809
a(I47
I1
F0.5
S'comparable'
p810
tp811
a(I47
I1
I0
S'android'
p812
tp813
a(I47
I4
F0.25
S'original'
p814
tp815
a(I47
I4
F0.125
S'native'
p816
tp817
a(I67
I4
F-0.625
S'free'
p818
tp819
a(I67
I4
F0.375
S'new'
p820
tp821
a(I67
I11
F-0.625
S'articulate'
p822
tp823
a(I117
I0
F1.0
S'good'
p824
tp825
a(I154
I4
I0
S'exclusive'
p826
tp827
a(I163
I7
F-0.75
S'little'
p828
tp829
a(I175
I0
I0
S'few'
p830
tp831
a(I176
I26
F-0.625
S'other'
p832
tp833
a(I176
I30
I0
S'useful'
p834
tp835
a(I176
I37
I0
S'own'
p836
tp837
as(S'screen'
p838
S'protector'
p839
tp840
(lp841
(I63
I0
I0
g74
tp842
as(S'days'
p843
tp844
(lp845
(I33
I0
I0
S'more'
p846
tp847
a(I71
I2
I0
S'later'
p848
tp849
a(I71
I3
F-0.25
S'late'
p850
tp851
a(I134
I0
I0
S'few'
p852
tp853
a(I136
I10
F0.625
S'hold'
p854
tp855
a(I163
I6
F-0.5
S'certain'
p856
tp857
as(S'a'
p858
S'nokia'
p859
S'lumia'
p860
tp861
(lp862
(I38
I15
I0
g492
tp863
a(I47
I8
I0
g494
tp864
a(I57
I1
F0.625
g277
tp865
a(I92
I2
F-0.625
g496
tp866
a(I92
I2
I0
g498
tp867
a(I140
I0
F0.375
g514
tp868
a(I140
I0
F0.25
g516
tp869
as(S'design'
p870
S'flaw'
p871
tp872
(lp873
(I72
I1
F0.5
S'obvious'
p874
tp875
as(S'mobile'
p876
tp877
(lp878
(I115
I0
F1.0
S'good'
p879
tp880
as(S'operating'
p881
tp882
(lp883
(I27
I2
F-0.375
S'manual'
p884
tp885
a(I141
I1
F1.0
g229
tp886
as.