(dp0
(S'message'
p1
tp2
(lp3
(I4
I49
I0
S'same'
p4
I1
tp5
a(I5
I43
I0
S'text'
p6
I1
tp7
a(I5
I119
F0.125
S'first'
p8
I1
tp9
as(S'keyboard'
p10
tp11
(lp12
(I3
I39
F-0.375
S'small'
p13
I2
tp14
a(I4
I5
F0.625
S'easy'
p15
I2
tp16
a(I4
I70
I0
S'full'
p17
I2
tp18
as(S'text'
p19
tp20
(lp21
(I5
I2
F0.375
S'audible'
p22
I18
tp23
a(I5
I26
I0
S'few'
p24
I18
tp25
as(S'tracfone'
p26
tp27
(lp28
(I5
I124
I0
S'old'
p29
I0
tp30
as(S'service'
p31
tp32
(lp33
(I3
I31
I0
S'real'
p34
I16
tp35
a(I5
I46
I0
S'incredible'
p36
I16
tp37
a(I5
I58
I0
S'real'
p38
I16
tp39
as(S'texting'
p40
tp41
(lp42
(I5
I60
F-0.625
S'free'
p43
I0
tp44
a(I5
I150
I0
S'great'
p45
I0
tp46
as(S'triple'
p47
S'minutes'
p48
tp49
(lp50
(I4
I71
F0.375
S'mean'
p51
I0
tp52
a(I5
I30
F-0.75
S'wrong'
p53
I0
tp54
a(I4
I71
F0.375
g51
I1
tp55
a(I4
I79
F-0.625
S'other'
p56
I1
tp57
a(I5
I30
F-0.75
g53
I1
tp58
as.