(dp0
(S'front'
p1
S'and'
p2
S'back'
p3
tp4
(lp5
(I81
I41
I0
S'plate'
p6
I1
tp7
a(I97
I18
F-0.375
S'smooth'
p8
I1
tp9
as(S'battery'
p10
S'life'
p11
tp12
(lp13
(I0
I14
I0
S'great'
p14
I1
tp15
a(I0
I45
F-0.5
S'poor'
p16
I1
tp17
a(I5
I59
I0
S'great'
p18
I1
tp19
a(I7
I11
I0
S'current'
p20
I1
tp21
a(I7
I67
I0
S'standard'
p22
I1
tp23
a(I20
I6
F1.0
S'better'
p24
I1
tp25
a(I35
I118
F-0.5
S'less'
p26
I1
tp27
a(I35
I118
F0.25
S'stellar'
p28
I1
tp29
a(I41
I4
F-0.75
S'short'
p30
I1
tp31
a(I42
I51
F1.0
S'good'
p32
I1
tp33
a(I42
I51
I0
S'great'
p34
I1
tp35
a(I45
I3
F1.0
S'good'
p36
I1
tp37
a(I55
I40
I0
S'great'
p38
I1
tp39
a(I60
I12
I0
S'great'
p40
I1
tp41
a(I65
I115
I0
S'most'
p42
I1
tp43
a(I69
I23
F1.0
S'good'
p44
I1
tp45
a(I81
I112
F-0.75
S'short'
p46
I1
tp47
a(I82
I54
F0.625
S'manageable'
p48
I1
tp49
a(I82
I72
F-0.5
S'less'
p50
I1
tp51
a(I89
I18
F-0.75
S'short'
p52
I1
tp53
a(I89
I79
F-0.625
S'average'
p54
I1
tp55
a(I90
I10
F1.0
S'good'
p56
I1
tp57
a(I90
I49
F-0.375
S'double'
p58
I1
tp59
a(I94
I5
F-0.5
S'poor'
p60
I1
tp61
a(I94
I19
F-0.5
S'long'
p62
I1
tp63
a(I97
I133
F1.0
S'good'
p64
I1
tp65
a(I108
I6
F1.0
S'good'
p66
I1
tp67
a(I108
I44
F1.0
S'good'
p68
I1
tp69
a(I110
I15
I0
S'hot'
p70
I1
tp71
a(I113
I173
F-0.875
S'negative'
p72
I1
tp73
a(I113
I173
F-0.625
S'light'
p74
I1
tp75
a(I113
I173
F-0.5
S'poor'
p76
I1
tp77
a(I113
I229
F1.0
S'good'
p78
I1
tp79
a(I114
I7
F-0.625
S'average'
p80
I1
tp81
a(I121
I31
F-0.375
S'near'
p82
I1
tp83
a(I126
I72
F1.0
S'good'
p84
I1
tp85
a(I0
I14
I0
g14
I19
tp86
a(I5
I59
I0
g18
I19
tp87
a(I7
I67
I0
g22
I19
tp88
a(I20
I114
I0
S'such'
p89
I19
tp90
a(I32
I22
I0
S'real'
p91
I19
tp92
a(I35
I118
F-0.5
g26
I19
tp93
a(I35
I118
F0.25
g28
I19
tp94
a(I42
I51
F1.0
g32
I19
tp95
a(I42
I51
I0
g34
I19
tp96
a(I47
I3
F0.625
S'pleasant'
p97
I19
tp98
a(I47
I3
I0
S'mobile'
p99
I19
tp100
a(I49
I122
I0
S'own'
p101
I19
tp102
a(I55
I40
I0
g38
I19
tp103
a(I56
I1
I0
S'ample'
p104
I19
tp105
a(I60
I12
I0
g40
I19
tp106
a(I81
I112
F-0.75
g46
I19
tp107
a(I82
I54
F0.625
g48
I19
tp108
a(I89
I18
F-0.75
g52
I19
tp109
a(I89
I79
F-0.625
g54
I19
tp110
a(I90
I10
F1.0
g56
I19
tp111
a(I94
I5
F-0.5
g60
I19
tp112
a(I108
I6
F1.0
g66
I19
tp113
a(I108
I44
F1.0
g68
I19
tp114
a(I113
I197
F0.625
S'easy'
p115
I19
tp116
a(I113
I229
F1.0
g78
I19
tp117
a(I121
I31
F-0.375
g82
I19
tp118
a(I126
I72
F1.0
g84
I19
tp119
a(I0
I42
F0.25
S'bigger'
p120
I15
tp121
a(I0
I45
F-0.5
g16
I15
tp122
a(I0
I107
F0.5
S'strong'
p123
I15
tp124
a(I0
I107
F0.125
S'last'
p125
I15
tp126
a(I7
I11
I0
g20
I15
tp127
a(I7
I116
F0.125
S'last'
p128
I15
tp129
a(I8
I45
F-0.25
S'google'
p130
I15
tp131
a(I18
I38
F0.125
S'last'
p132
I15
tp133
a(I18
I39
F-0.625
S'fresh'
p134
I15
tp135
a(I19
I41
F-0.25
S'low'
p136
I15
tp137
a(I19
I41
F-0.25
S'low'
p138
I15
tp139
a(I20
I6
F1.0
g24
I15
tp140
a(I20
I34
F0.625
S'removable'
p141
I15
tp142
a(I20
I36
F0.625
S'removable'
p143
I15
tp144
a(I20
I36
F0.875
S'nice'
p145
I15
tp146
a(I24
I4
F0.625
S'removable'
p147
I15
tp148
a(I24
I6
F0.125
S'last'
p149
I15
tp150
a(I29
I2
F0.125
S'last'
p151
I15
tp152
a(I29
I3
F0.125
S'last'
p153
I15
tp154
a(I29
I24
F0.125
S'last'
p155
I15
tp156
a(I35
I17
F1.0
S'good'
p157
I15
tp158
a(I35
I73
F0.625
S'removable'
p159
I15
tp160
a(I35
I89
I0
S'fast'
p161
I15
tp162
a(I38
I20
F-0.625
S'average'
p163
I15
tp164
a(I38
I55
F-0.75
S'dead'
p165
I15
tp166
a(I41
I4
F-0.75
g30
I15
tp167
a(I41
I25
F1.0
S'good'
p168
I15
tp169
a(I45
I3
F1.0
g36
I15
tp170
a(I49
I20
F0.125
S'first'
p171
I15
tp172
a(I52
I15
F0.5
S'second'
p173
I15
tp174
a(I52
I15
F0.125
S'last'
p175
I15
tp176
a(I64
I3
F-0.625
S'average'
p177
I15
tp178
a(I65
I115
I0
g42
I15
tp179
a(I65
I117
F0.625
S'replaceable'
p180
I15
tp181
a(I65
I117
F0.625
S'easy'
p182
I15
tp183
a(I66
I1
F-0.5
S'heavy'
p184
I15
tp185
a(I66
I1
F0.125
S'last'
p186
I15
tp187
a(I66
I1
F-0.5
S'long'
p188
I15
tp189
a(I66
I1
I0
S'fast'
p190
I15
tp191
a(I66
I13
F-0.625
S'free'
p192
I15
tp193
a(I69
I23
F1.0
g44
I15
tp194
a(I78
I12
F0.625
S'easier'
p195
I15
tp196
a(I81
I41
F0.125
S'sealed'
p197
I15
tp198
a(I82
I13
F0.125
S'last'
p199
I15
tp200
a(I82
I55
I0
S'more'
p201
I15
tp202
a(I82
I72
F-0.5
g50
I15
tp203
a(I84
I11
F-0.5
S'weak'
p204
I15
tp205
a(I89
I48
F0.625
S'removable'
p206
I15
tp207
a(I90
I26
F0.125
S'last'
p208
I15
tp209
a(I90
I26
F-0.5
S'long'
p210
I15
tp211
a(I90
I49
F-0.375
g58
I15
tp212
a(I94
I19
F-0.5
g62
I15
tp213
a(I97
I90
I0
S'fast'
p214
I15
tp215
a(I97
I133
F1.0
g64
I15
tp216
a(I108
I47
I0
S'fast'
p217
I15
tp218
a(I110
I15
I0
g70
I15
tp219
a(I113
I4
F1.0
S'good'
p220
I15
tp221
a(I113
I147
F-0.625
S'glad'
p222
I15
tp223
a(I113
I173
F-0.875
g72
I15
tp224
a(I113
I173
F-0.625
g74
I15
tp225
a(I113
I173
F-0.5
g76
I15
tp226
a(I114
I7
F-0.625
g80
I15
tp227
a(I126
I8
F1.0
S'good'
p228
I15
tp229
a(I126
I74
F0.125
S'last'
p230
I15
tp231
a(I127
I34
F0.625
S'replaceable'
p232
I15
tp233
a(I130
I0
F1.0
S'better'
p234
I15
tp235
as(S'quad'
p236
S'core'
p237
S'processor'
p238
tp239
(lp240
(I0
I94
I0
S'quad'
p241
I0
tp242
a(I49
I112
F0.25
S'powerful'
p243
I0
tp244
a(I113
I177
I0
S'great'
p245
I0
tp246
a(I0
I94
I0
g241
I0
tp247
a(I43
I42
I0
S'quad'
p248
I0
tp249
a(I49
I112
F0.25
g243
I0
tp250
a(I81
I17
I0
S'only'
p251
I0
tp252
as(S'android'
p253
S'os'
p254
tp255
(lp256
(I8
I9
F0.375
S'incomparable'
p257
I0
tp258
a(I8
I25
F0.125
S'first'
p259
I0
tp260
a(I8
I25
I0
S'latest'
p261
I0
tp262
a(I23
I4
F1.0
S'best'
p263
I0
tp264
a(I23
I4
I0
S'most'
p265
I0
tp266
a(I23
I4
F0.5
S'elegant'
p267
I0
tp268
a(I24
I1
F0.875
S'nice'
p269
I0
tp270
a(I29
I34
I0
S'latest'
p271
I0
tp272
a(I29
I34
I0
S'android'
p273
I0
tp274
a(I34
I13
I0
S'android'
p275
I0
tp276
a(I35
I7
I0
S'current'
p277
I0
tp278
a(I38
I24
F0.875
S'nice'
p279
I0
tp280
a(I41
I16
I0
S'economical'
p281
I0
tp282
a(I41
I18
F0.375
S'available'
p283
I0
tp284
a(I41
I18
F-0.625
S'other'
p285
I0
tp286
a(I41
I18
I0
S'mobile'
p287
I0
tp288
a(I41
I18
I0
S'faster'
p289
I0
tp290
a(I41
I18
F-0.625
S'other'
p291
I0
tp292
a(I49
I113
F-0.625
S'clean'
p293
I0
tp294
a(I49
I113
I0
S'android'
p295
I0
tp296
a(I64
I9
I0
S'latest'
p297
I0
tp298
a(I64
I9
I0
S'android'
p299
I0
tp300
a(I65
I7
I0
S'current'
p301
I0
tp302
a(I65
I7
I0
S'more'
p303
I0
tp304
a(I65
I41
F1.0
S'best'
p305
I0
tp306
a(I65
I43
I0
S'many'
p307
I0
tp308
a(I65
I118
F-0.625
S'other'
p309
I0
tp310
a(I73
I33
F-0.75
S'wrong'
p311
I0
tp312
a(I77
I12
F1.0
S'best'
p313
I0
tp314
a(I82
I46
I0
S'more'
p315
I0
tp316
a(I82
I46
F-0.625
S'other'
p317
I0
tp318
a(I82
I93
F0.5
S'possible'
p319
I0
tp320
a(I97
I97
F1.0
S'best'
p321
I0
tp322
a(I113
I248
F0.375
S'new'
p323
I0
tp324
a(I114
I0
I0
S'latest'
p325
I0
tp326
a(I121
I8
I0
S'same'
p327
I0
tp328
a(I129
I2
F1.0
S'good'
p329
I0
tp330
as(S'a'
p331
S'screen'
p332
S'protector'
p333
tp334
(lp335
(I90
I7
F1.0
S'good'
p336
I1
tp337
a(I126
I55
F0.125
S'able'
p338
I1
tp339
as(S'service'
p340
tp341
(lp342
(I0
I7
F-0.875
S'awful'
p343
I16
tp344
a(I20
I2
F0.375
S'available'
p345
I16
tp346
a(I20
I197
I0
S'great'
p347
I16
tp348
a(I26
I1
F-0.625
S'secure'
p349
I16
tp350
a(I30
I4
F-0.25
S'google'
p351
I16
tp352
a(I35
I67
F0.375
S'available'
p353
I16
tp354
a(I93
I12
F-0.625
S'other'
p355
I16
tp356
a(I126
I41
I0
S'cellular'
p357
I16
tp358
as(S'camera'
p359
tp360
(lp361
(I0
I114
F0.5
S'elegant'
p362
I1
tp363
a(I0
I114
F0.625
S'easy'
p364
I1
tp365
a(I0
I114
F-0.625
S'average'
p366
I1
tp367
a(I0
I116
F-0.75
S'worse'
p368
I1
tp369
a(I0
I117
I0
S'great'
p370
I1
tp371
a(I1
I21
F1.0
S'good'
p372
I1
tp373
a(I1
I24
F1.0
S'good'
p374
I1
tp375
a(I12
I27
F1.0
S'good'
p376
I1
tp377
a(I19
I27
F1.0
S'good'
p378
I1
tp379
a(I19
I27
F-0.625
S'bad'
p380
I1
tp381
a(I20
I136
F0.125
S'impressive'
p382
I1
tp383
a(I27
I14
F0.625
S'easy'
p384
I1
tp385
a(I29
I31
I0
S'great'
p386
I1
tp387
a(I35
I18
F1.0
S'best'
p388
I1
tp389
a(I45
I3
F-0.875
S'worst'
p390
I1
tp391
a(I49
I92
F0.5
S'obvious'
p392
I1
tp393
a(I49
I109
F0.25
S'used'
p394
I1
tp395
a(I49
I136
I0
S'great'
p396
I1
tp397
a(I49
I136
F1.0
S'good'
p398
I1
tp399
a(I52
I16
I0
S'great'
p400
I1
tp401
a(I69
I23
I0
S'great'
p402
I1
tp403
a(I73
I16
F0.25
S'biggest'
p404
I1
tp405
a(I73
I16
F-0.875
S'negative'
p406
I1
tp407
a(I73
I22
I0
S'harsh'
p408
I1
tp409
a(I73
I47
I0
S'normal'
p410
I1
tp411
a(I77
I4
F1.0
S'better'
p412
I1
tp413
a(I81
I24
F1.0
S'best'
p414
I1
tp415
a(I81
I57
F1.0
S'best'
p416
I1
tp417
a(I93
I21
F1.0
S'good'
p418
I1
tp419
a(I94
I8
F-0.625
S'bad'
p420
I1
tp421
a(I97
I5
F1.0
S'good'
p422
I1
tp423
a(I97
I35
F0.375
S'new'
p424
I1
tp425
a(I97
I45
I0
S'great'
p426
I1
tp427
a(I98
I27
F-0.375
S'manual'
p428
I1
tp429
a(I98
I27
I0
S'online'
p430
I1
tp431
a(I106
I2
F1.0
S'good'
p432
I1
tp433
a(I108
I18
F-0.625
S'other'
p434
I1
tp435
a(I108
I18
I0
S'great'
p436
I1
tp437
a(I111
I0
F1.0
S'good'
p438
I1
tp439
a(I111
I35
F0.875
S'important'
p440
I1
tp441
a(I113
I8
I0
S'close'
p442
I1
tp443
a(I113
I58
I0
S'blue'
p444
I1
tp445
a(I118
I130
F1.0
S'good'
p446
I1
tp447
a(I119
I2
F1.0
S'best'
p448
I1
tp449
a(I121
I38
F1.0
S'good'
p450
I1
tp451
a(I121
I38
F0.125
S'able'
p452
I1
tp453
a(I121
I106
F1.0
S'good'
p454
I1
tp455
a(I129
I2
F1.0
S'good'
p456
I1
tp457
a(I129
I32
F1.0
S'good'
p458
I1
tp459
as(S'gorilla'
p460
S'glass'
p461
tp462
(lp463
(I23
I1
F0.5
S'strong'
p464
I0
tp465
a(I113
I180
I0
S'sturdy'
p466
I0
tp467
a(I7
I50
I0
S'rear'
p468
I9
tp469
a(I7
I50
I0
S'own'
p470
I9
tp471
a(I8
I34
F0.5
S'stylish'
p472
I9
tp473
a(I20
I59
F0.375
S'much'
p474
I9
tp475
a(I23
I1
F0.5
g464
I9
tp476
a(I55
I74
F-0.25
S'thin'
p477
I9
tp478
a(I55
I82
F-0.5
S'cracked'
p479
I9
tp480
a(I55
I83
I0
S'same'
p481
I9
tp482
a(I59
I6
I0
S'slippy'
p483
I9
tp484
a(I84
I20
I0
S'rear'
p485
I9
tp486
a(I92
I22
I0
S'slippery'
p487
I9
tp488
a(I93
I7
I0
S'cosmetic'
p489
I9
tp490
a(I97
I96
I-100
S'fagile'
p491
I9
tp492
a(I113
I180
I0
g466
I9
tp493
a(I113
I242
I0
S'sturdy'
p494
I9
tp495
a(I118
I45
F0.556
S'delicate'
p496
I9
tp497
a(I121
I98
I0
S'great'
p498
I9
tp499
a(I127
I5
F-0.375
S'paranoid'
p500
I9
tp501
as(S'iphone'
p502
tp503
(lp504
(I8
I3
I0
S'forth'
p505
I1
tp506
a(I8
I4
F-0.25
S'thin'
p507
I1
tp508
a(I26
I16
F1.0
S'better'
p509
I1
tp510
a(I26
I18
F0.625
S'easier'
p511
I1
tp512
a(I29
I32
F1.0
S'good'
p513
I1
tp514
a(I29
I33
F0.5
S'compatible'
p515
I1
tp516
a(I29
I36
F0.375
S'newest'
p517
I1
tp518
a(I35
I143
F0.25
S'original'
p519
I1
tp520
a(I38
I19
F0.375
S'much'
p521
I1
tp522
a(I49
I21
F1.0
S'good'
p523
I1
tp524
a(I49
I23
F1.0
S'good'
p525
I1
tp526
a(I49
I43
F-0.5
S'regular'
p527
I1
tp528
a(I49
I133
F0.375
S'sold'
p529
I1
tp530
a(I49
I133
I0
S'same'
p531
I1
tp532
a(I50
I19
F-0.125
S'super'
p533
I1
tp534
a(I81
I72
F0.375
S'similar'
p535
I1
tp536
a(I94
I14
F1.0
S'good'
p537
I1
tp538
a(I101
I15
F0.5
S'expensive'
p539
I1
tp540
a(I113
I75
F0.25
S'toy'
p541
I1
tp542
a(I113
I80
F0.25
S'larger'
p543
I1
tp544
a(I113
I80
F-0.375
S'smaller'
p545
I1
tp546
a(I113
I100
F0.375
S'new'
p547
I1
tp548
a(I113
I253
F0.375
S'new'
p549
I1
tp550
a(I113
I253
F0.375
S'new'
p551
I1
tp552
a(I113
I266
F0.375
S'similar'
p553
I1
tp554
a(I117
I2
I0
S'old'
p555
I1
tp556
a(I124
I8
I0
S'fast'
p557
I1
tp558
a(I124
I13
F-0.625
S'other'
p559
I1
tp560
a(I129
I2
F0.5
S'comparable'
p561
I1
tp562
as(S'build'
p563
S'quality'
p564
tp565
(lp566
(I1
I24
I0
S'great'
p567
I2
tp568
a(I41
I15
F1.0
S'better'
p569
I2
tp570
a(I81
I71
F0.125
S'solid'
p571
I2
tp572
a(I92
I21
F1.0
S'best'
p573
I2
tp574
a(I111
I0
I0
S'great'
p575
I2
tp576
a(I113
I242
I0
S'high'
p577
I2
tp578
a(I126
I4
F1.0
S'good'
p579
I2
tp580
a(I126
I36
F0.375
S'following'
p581
I2
tp582
as(S'mobile'
p583
tp584
(lp585
(I21
I0
F1.0
S'good'
p586
I0
tp587
a(I81
I0
F1.0
S'better'
p588
I0
tp589
a(I89
I53
I0
S'great'
p590
I0
tp591
a(I129
I36
F0.125
S'impressive'
p592
I0
tp593
as(S'sd'
p594
S'card'
p595
S'slot'
p596
tp597
(lp598
(I83
I18
F0.375
S'available'
p599
I0
tp600
a(I118
I140
F0.875
S'nice'
p601
I0
tp602
a(I118
I140
F0.875
g601
I0
tp603
as(g331
S'samsung'
p604
S'galaxy'
p605
tp606
(lp607
(I18
I15
F0.625
S'relieved'
p608
I0
tp609
a(I20
I117
F0.25
S'original'
p610
I0
tp611
a(I49
I0
I0
S'more'
p612
I0
tp613
a(I49
I112
I0
S'earlier'
p614
I0
tp615
a(I49
I112
F-0.125
S'slow'
p616
I0
tp617
a(I64
I15
I0
S'old'
p618
I0
tp619
a(I113
I82
F0.25
S'larger'
p620
I0
tp621
as(S'google'
p622
S'play'
p623
S'store'
p624
tp625
(lp626
(I0
I64
I0
S'site'
p627
I0
tp628
a(I7
I49
F1.0
S'best'
p629
I0
tp630
a(I42
I62
F-0.25
S'google'
p631
I0
tp632
a(I90
I5
F-0.625
S'bad'
p633
I0
tp634
a(I113
I10
F-0.25
S'abundant'
p635
I0
tp636
a(I119
I12
F-0.25
S'google'
p637
I0
tp638
a(I121
I44
F-0.125
S'mine'
p639
I0
tp640
a(I125
I14
F-0.125
S'slow'
p641
I0
tp642
a(I0
I64
I0
g627
I0
tp643
a(I42
I62
F-0.25
g631
I0
tp644
a(I113
I10
F-0.25
g635
I0
tp645
a(I119
I12
F-0.25
g637
I0
tp646
a(I125
I14
F-0.125
g641
I0
tp647
as(S'smooth'
p648
tp649
(lp650
(I49
I14
F-0.125
S'super'
p651
I16
tp652
a(I127
I25
F0.875
S'nice'
p653
I16
tp654
a(I129
I20
F-0.125
S'super'
p655
I16
tp656
a(I129
I20
I0
S'slippery'
p657
I16
tp658
as(S'micro'
p659
S'sim'
p660
S'card'
p661
tp662
(lp663
(I0
I124
F-0.5
S'regular'
p664
I0
tp665
a(I12
I37
F-0.5
S'regular'
p666
I0
tp667
a(I0
I124
F-0.5
g664
I0
tp668
a(I12
I37
F-0.5
g666
I0
tp669
a(I24
I8
F-0.75
S'difficult'
p670
I0
tp671
a(I35
I82
I0
S'same'
p672
I0
tp673
a(I56
I3
I0
S'local'
p674
I0
tp675
a(I76
I9
F-0.625
S'other'
p676
I0
tp677
a(I121
I42
I0
S'local'
p678
I0
tp679
as(g331
S'long'
p680
S'time'
p681
tp682
(lp683
(I3
I5
F-0.5
S'long'
p684
I12
tp685
a(I25
I25
F-0.5
S'long'
p686
I12
tp687
a(I44
I0
F-0.5
S'long'
p688
I12
tp689
a(I45
I3
F-0.5
S'long'
p690
I12
tp691
a(I46
I18
F-0.5
S'long'
p692
I12
tp693
a(I82
I30
F-0.5
S'long'
p694
I12
tp695
a(I82
I117
F0.625
S'concrete'
p696
I12
tp697
a(I82
I117
F-0.5
S'long'
p698
I12
tp699
a(I92
I29
F-0.5
S'long'
p700
I12
tp701
a(I92
I48
F-0.5
S'long'
p702
I12
tp703
a(I101
I26
F-0.5
S'long'
p704
I12
tp705
as(S'updates'
p706
tp707
(lp708
(I0
I63
I0
S'least'
p709
I12
tp710
a(I7
I68
F0.75
S'receive'
p711
I12
tp712
a(I15
I23
I0
S'automatic'
p713
I12
tp714
a(I18
I3
F-0.25
S'google'
p715
I12
tp716
a(I18
I3
I0
S'android'
p717
I12
tp718
a(I18
I3
I0
S'faster'
p719
I12
tp720
a(I20
I31
I0
S'latest'
p721
I12
tp722
a(I67
I29
F0.125
S'first'
p723
I12
tp724
a(I67
I29
I0
S'latest'
p725
I12
tp726
a(I73
I55
F-0.25
S'google'
p727
I12
tp728
a(I82
I43
I0
S'latest'
p729
I12
tp730
a(I113
I264
F0.25
S'biggest'
p731
I12
tp732
a(I127
I18
F0.375
S'newest'
p733
I12
tp734
a(I131
I4
F0.375
S'new'
p735
I12
tp736
as(S'get'
p737
g331
S'case'
p738
tp739
(lp740
(I20
I169
F0.875
S'important'
p741
I0
tp742
a(I26
I24
F0.125
S'protective'
p743
I0
tp744
a(I35
I155
F1.0
S'good'
p745
I0
tp746
a(I82
I123
F0.875
S'nice'
p747
I0
tp748
as(S'samsung'
p749
S'galaxy'
p750
S's3'
p751
tp752
(lp753
(I49
I112
I0
g614
I0
tp754
a(I49
I112
F-0.125
g616
I0
tp755
a(I119
I14
F-0.75
S'dead'
p756
I0
tp757
a(I18
I15
F0.625
g608
I0
tp758
a(I20
I117
F0.25
g610
I0
tp759
a(I49
I0
I0
g612
I0
tp760
a(I49
I112
I0
g614
I0
tp761
a(I49
I112
F-0.125
g616
I0
tp762
a(I64
I15
I0
g618
I0
tp763
a(I113
I82
F0.25
g620
I0
tp764
a(I7
I44
F0.5
S'expensive'
p765
I7
tp766
a(I18
I15
F0.625
g608
I7
tp767
a(I27
I35
F0.375
S'available'
p768
I7
tp769
a(I43
I9
F0.125
S'rugged'
p770
I7
tp771
a(I49
I0
I0
g612
I7
tp772
a(I64
I15
I0
g618
I7
tp773
a(I64
I19
I0
S'old'
p774
I7
tp775
a(I81
I40
F-0.625
S'bad'
p776
I7
tp777
a(I82
I45
F-0.375
S'smoother'
p778
I7
tp779
a(I113
I82
F0.25
g620
I7
tp780
a(I121
I25
F-0.75
S'painful'
p781
I7
tp782
a(I20
I117
F0.25
g610
I0
tp783
a(I20
I259
F0.375
S'available'
p784
I0
tp785
a(I29
I53
F0.25
S'original'
p786
I0
tp787
a(I29
I70
I0
S'old'
p788
I0
tp789
a(I35
I32
F0.5
S'upgraded'
p790
I0
tp791
a(I39
I2
F-0.625
S'unlike'
p792
I0
tp793
a(I49
I112
I0
g614
I0
tp794
a(I49
I112
F-0.125
g616
I0
tp795
a(I65
I31
F0.25
S'larger'
p796
I0
tp797
a(I118
I28
I0
S'more'
p798
I0
tp799
a(I118
I124
F1.0
S'good'
p800
I0
tp801
as(S'stock'
p802
S'android'
p803
tp804
(lp805
(I18
I43
F0.125
S'last'
p806
I0
tp807
a(I36
I3
I0
S'android'
p808
I0
tp809
a(I82
I46
F-0.625
g317
I0
tp810
a(I90
I46
I0
S'android'
p811
I0
tp812
as(S'galaxy'
p813
S'nexus'
p814
tp815
(lp816
(I20
I259
F0.375
g784
I0
tp817
a(I29
I53
F0.25
g786
I0
tp818
a(I29
I53
I0
S'next'
p819
I0
tp820
a(I35
I32
F0.5
g790
I0
tp821
a(I81
I100
F-0.75
S'wrong'
p822
I0
tp823
a(I90
I47
F-0.125
S'slow'
p824
I0
tp825
a(I111
I2
I0
S'old'
p826
I0
tp827
a(I111
I19
F0.75
S'worth'
p828
I0
tp829
a(I126
I22
F-0.625
S'other'
p830
I0
tp831
as(S'to'
p832
S'google'
p833
S'play'
p834
tp835
(lp836
(I7
I49
F1.0
g629
I0
tp837
a(I26
I11
F-0.25
S'google'
p838
I0
tp839
a(I31
I1
F-0.25
S'google'
p840
I0
tp841
a(I32
I0
F-0.25
S'google'
p842
I0
tp843
a(I42
I41
F-0.125
S'mine'
p844
I0
tp845
a(I42
I62
F-0.25
g631
I0
tp846
a(I90
I5
F-0.625
g633
I0
tp847
a(I113
I0
F-0.25
S'google'
p848
I0
tp849
a(I119
I12
F-0.25
g637
I0
tp850
a(I121
I44
F-0.125
g639
I0
tp851
a(I125
I14
F-0.125
g641
I0
tp852
a(I4
I9
F-0.25
S'google'
p853
I0
tp854
a(I7
I49
F1.0
g629
I0
tp855
a(I26
I11
F-0.25
g838
I0
tp856
a(I29
I8
F-0.125
S'mine'
p857
I0
tp858
a(I29
I8
F-0.25
S'google'
p859
I0
tp860
a(I31
I1
F-0.25
g840
I0
tp861
a(I32
I0
F-0.25
g842
I0
tp862
a(I35
I33
F-0.25
S'google'
p863
I0
tp864
a(I42
I41
F-0.125
g844
I0
tp865
a(I42
I62
F-0.25
g631
I0
tp866
a(I47
I7
F-0.25
S'google'
p867
I0
tp868
a(I80
I6
F-0.25
S'google'
p869
I0
tp870
a(I81
I5
F0.125
S'first'
p871
I0
tp872
a(I90
I5
F-0.625
g633
I0
tp873
a(I99
I6
F-0.25
S'google'
p874
I0
tp875
a(I108
I27
F-0.125
S'mine'
p876
I0
tp877
a(I108
I27
F-0.25
S'google'
p878
I0
tp879
a(I113
I0
F-0.25
g848
I0
tp880
a(I113
I1
F-0.25
S'google'
p881
I0
tp882
a(I113
I3
F-0.25
S'google'
p883
I0
tp884
a(I113
I3
F0.375
S'significant'
p885
I0
tp886
a(I113
I37
F-0.25
S'google'
p887
I0
tp888
a(I113
I37
F-0.25
S'cheaper'
p889
I0
tp890
a(I119
I12
F-0.25
g637
I0
tp891
a(I121
I44
F-0.125
g639
I0
tp892
a(I125
I14
F-0.125
g641
I0
tp893
a(I126
I72
F-0.25
S'google'
p894
I0
tp895
a(I0
I73
F-0.25
S'cheaper'
p896
I4
tp897
a(I7
I30
F-0.125
S'overall'
p898
I4
tp899
a(I7
I34
F-0.25
S'direct'
p900
I4
tp901
a(I7
I49
F1.0
g629
I4
tp902
a(I18
I29
I0
S'unbelievable'
p903
I4
tp904
a(I19
I36
F0.125
S'able'
p905
I4
tp906
a(I32
I11
F0.125
S'able'
p907
I4
tp908
a(I32
I12
F-0.625
S'other'
p909
I4
tp910
a(I39
I24
F-0.625
S'other'
p911
I4
tp912
a(I42
I41
F-0.125
g844
I4
tp913
a(I43
I24
F-0.25
S'cheaper'
p914
I4
tp915
a(I43
I58
F-0.625
S'sorry'
p916
I4
tp917
a(I52
I13
F1.0
S'best'
p918
I4
tp919
a(I54
I7
I0
S'site'
p920
I4
tp921
a(I56
I6
F0.125
S'first'
p922
I4
tp923
a(I63
I1
F0.625
S'straight'
p924
I4
tp925
a(I81
I5
F0.125
g871
I4
tp926
a(I90
I5
F-0.625
g633
I4
tp927
a(I90
I19
F1.0
S'best'
p928
I4
tp929
a(I90
I34
I0
S'faster'
p930
I4
tp931
a(I116
I26
F-0.5
S'separate'
p932
I4
tp933
a(I116
I29
F-0.5
S'sure'
p934
I4
tp935
a(I117
I14
F0.375
S'available'
p936
I4
tp937
a(I118
I13
F-0.125
S'mine'
p938
I4
tp939
a(I118
I13
I0
S'more'
p940
I4
tp941
a(I121
I44
F-0.125
g639
I4
tp942
a(I124
I2
I0
S'faster'
p943
I4
tp944
a(I126
I15
F-0.75
S'unable'
p945
I4
tp946
a(I129
I35
F0.5
S'drive'
p947
I4
tp948
as(S'best'
p949
S'android'
p950
tp951
(lp952
(I4
I0
F1.0
S'best'
p953
I0
tp954
a(I5
I1
F1.0
S'best'
p955
I0
tp956
a(I5
I50
F1.0
S'best'
p957
I0
tp958
a(I18
I44
F1.0
S'best'
p959
I0
tp960
a(I20
I113
F-0.125
S'overall'
p961
I0
tp962
a(I20
I113
F1.0
S'best'
p963
I0
tp964
a(I23
I4
F1.0
g263
I0
tp965
a(I23
I4
I0
g265
I0
tp966
a(I23
I4
F0.5
g267
I0
tp967
a(I35
I148
F1.0
S'best'
p968
I0
tp969
a(I43
I55
I0
S'different'
p970
I0
tp971
a(I55
I1
F1.0
S'best'
p972
I0
tp973
a(I58
I13
F0.375
S'early'
p974
I0
tp975
a(I65
I41
F1.0
g305
I0
tp976
a(I77
I12
F1.0
g313
I0
tp977
a(I82
I0
F1.0
S'best'
p978
I0
tp979
a(I82
I66
F1.0
S'best'
p980
I0
tp981
a(I82
I102
F1.0
S'best'
p982
I0
tp983
a(I97
I97
F1.0
g321
I0
tp984
a(I106
I3
F1.0
S'best'
p985
I0
tp986
a(I112
I16
F1.0
S'best'
p987
I0
tp988
a(I113
I10
F1.0
S'best'
p989
I0
tp990
a(I115
I3
F1.0
S'best'
p991
I0
tp992
a(I126
I67
F1.0
S'best'
p993
I0
tp994
a(I127
I15
F1.0
S'best'
p995
I0
tp996
a(I129
I2
F1.0
g329
I0
tp997
as(S'on'
p998
S'google'
p999
S'play'
p1000
tp1001
(lp1002
(I7
I49
F1.0
g629
I0
tp1003
a(I26
I11
F-0.25
g838
I0
tp1004
a(I29
I8
F-0.125
g857
I0
tp1005
a(I29
I8
F-0.25
g859
I0
tp1006
a(I32
I0
F-0.25
g842
I0
tp1007
a(I42
I41
F-0.125
g844
I0
tp1008
a(I42
I62
F-0.25
g631
I0
tp1009
a(I47
I7
F-0.25
g867
I0
tp1010
a(I80
I6
F-0.25
g869
I0
tp1011
a(I81
I5
F0.125
g871
I0
tp1012
a(I90
I5
F-0.625
g633
I0
tp1013
a(I99
I6
F-0.25
g874
I0
tp1014
a(I113
I0
F-0.25
g848
I0
tp1015
a(I113
I3
F-0.25
g883
I0
tp1016
a(I113
I3
F0.375
g885
I0
tp1017
a(I113
I37
F-0.25
g887
I0
tp1018
a(I113
I37
F-0.25
g889
I0
tp1019
a(I119
I12
F-0.25
g637
I0
tp1020
a(I121
I44
F-0.125
g639
I0
tp1021
a(I125
I14
F-0.125
g641
I0
tp1022
a(I126
I72
F-0.25
g894
I0
tp1023
as(S'to'
p1024
S'go'
p1025
S'back'
p1026
tp1027
(lp1028
(I113
I51
F0.75
S'beautiful'
p1029
I2
tp1030
a(I129
I32
F-0.375
S'smooth'
p1031
I2
tp1032
as(S'nexus'
p1033
S'4'
p1034
S'bumper'
p1035
tp1036
(lp1037
(I15
I13
F-0.25
S'google'
p1038
I0
tp1039
a(I113
I51
I0
S'slim'
p1040
I0
tp1041
a(I113
I51
F-0.625
S'unnoticeable'
p1042
I0
tp1043
a(I113
I51
F-0.25
S'google'
p1044
I0
tp1045
a(I113
I51
F0.625
S'certified'
p1046
I0
tp1047
a(I113
I52
F-0.25
S'google'
p1048
I0
tp1049
a(I113
I52
F0.375
S'available'
p1050
I0
tp1051
a(I0
I10
F-0.25
S'google'
p1052
I0
tp1053
a(I0
I92
I0
S'large'
p1054
I0
tp1055
a(I3
I11
F0.5
S'willing'
p1056
I0
tp1057
a(I5
I17
F0.375
S'newest'
p1058
I0
tp1059
a(I7
I111
F-0.25
S'google'
p1060
I0
tp1061
a(I7
I134
I0
S'more'
p1062
I0
tp1063
a(I10
I7
F0.5
S'second'
p1064
I0
tp1065
a(I12
I64
F-0.75
S'dead'
p1066
I0
tp1067
a(I19
I51
F0.25
S'read'
p1068
I0
tp1069
a(I19
I51
F-0.625
S'other'
p1070
I0
tp1071
a(I20
I59
F0.625
S'easy'
p1072
I0
tp1073
a(I25
I3
F0.5
S'rid'
p1074
I0
tp1075
a(I26
I4
F-0.25
S'google'
p1076
I0
tp1077
a(I26
I4
F-0.25
S'google'
p1078
I0
tp1079
a(I26
I17
I0
S'great'
p1080
I0
tp1081
a(I27
I3
F0.375
S'new'
p1082
I0
tp1083
a(I27
I39
I0
S'big'
p1084
I0
tp1085
a(I27
I86
F0.375
S'new'
p1086
I0
tp1087
a(I27
I86
F0.875
S'nice'
p1088
I0
tp1089
a(I29
I53
I0
g819
I0
tp1090
a(I32
I24
F1.0
S'best'
p1091
I0
tp1092
a(I35
I20
F0.375
S'new'
p1093
I0
tp1094
a(I35
I27
F0.5
S'second'
p1095
I0
tp1096
a(I35
I41
I0
S'general'
p1097
I0
tp1098
a(I35
I44
I0
S'general'
p1099
I0
tp1100
a(I35
I93
I0
S'least'
p1101
I0
tp1102
a(I35
I93
F0.875
S'happy'
p1103
I0
tp1104
a(I35
I141
F0.875
S'benefit'
p1105
I0
tp1106
a(I35
I145
F0.375
S'available'
p1107
I0
tp1108
a(I35
I147
F0.375
S'new'
p1109
I0
tp1110
a(I39
I9
I0
S'faster'
p1111
I0
tp1112
a(I42
I55
I0
S'cable'
p1113
I0
tp1114
a(I43
I26
I0
S'faster'
p1115
I0
tp1116
a(I45
I4
F0.375
S'newer'
p1117
I0
tp1118
a(I46
I9
F-0.5
S'worthless'
p1119
I0
tp1120
a(I49
I111
F0.875
S'happy'
p1121
I0
tp1122
a(I49
I138
I0
S'nexus'
p1123
I0
tp1124
a(I49
I154
I0
S'next'
p1125
I0
tp1126
a(I50
I18
F-0.25
S'cheaper'
p1127
I0
tp1128
a(I50
I18
I0
S'cool'
p1129
I0
tp1130
a(I52
I18
F1.0
S'best'
p1131
I0
tp1132
a(I55
I5
F0.25
S'larger'
p1133
I0
tp1134
a(I55
I5
F-0.25
S'thinner'
p1135
I0
tp1136
a(I65
I18
I0
S'arrival'
p1137
I0
tp1138
a(I65
I97
F-0.125
S'slow'
p1139
I0
tp1140
a(I79
I6
I0
S'next'
p1141
I0
tp1142
a(I80
I20
F0.75
S'receive'
p1143
I0
tp1144
a(I81
I60
F0.25
S'original'
p1145
I0
tp1146
a(I81
I64
F0.25
S'original'
p1147
I0
tp1148
a(I81
I75
F-0.25
S'thin'
p1149
I0
tp1150
a(I81
I100
F-0.75
g822
I0
tp1151
a(I82
I7
F0.625
S'perfect'
p1152
I0
tp1153
a(I82
I91
F-0.125
S'overall'
p1154
I0
tp1155
a(I89
I85
I0
S'great'
p1156
I0
tp1157
a(I90
I47
F-0.125
g824
I0
tp1158
a(I90
I52
F0.875
S'happy'
p1159
I0
tp1160
a(I97
I105
F0.375
S'new'
p1161
I0
tp1162
a(I98
I12
I0
S'next'
p1163
I0
tp1164
a(I101
I28
F-0.875
S'hard'
p1165
I0
tp1166
a(I110
I4
F-0.5
S'less'
p1167
I0
tp1168
a(I110
I11
F0.125
S'first'
p1169
I0
tp1170
a(I111
I2
I0
g826
I0
tp1171
a(I111
I15
F0.375
S'new'
p1172
I0
tp1173
a(I111
I19
F0.75
g828
I0
tp1174
a(I113
I51
I0
g1040
I0
tp1175
a(I113
I51
F-0.625
g1042
I0
tp1176
a(I113
I51
F-0.25
g1044
I0
tp1177
a(I113
I51
F0.625
g1046
I0
tp1178
a(I113
I52
F-0.25
g1048
I0
tp1179
a(I113
I66
I0
S'such'
p1180
I0
tp1181
a(I113
I110
F1.0
S'good'
p1182
I0
tp1183
a(I113
I135
I0
S'more'
p1184
I0
tp1185
a(I113
I138
I0
S'full'
p1186
I0
tp1187
a(I113
I138
I0
S'full'
p1188
I0
tp1189
a(I113
I138
I0
S'more'
p1190
I0
tp1191
a(I113
I138
I0
S'empty'
p1192
I0
tp1193
a(I113
I253
I0
S'exclusive'
p1194
I0
tp1195
a(I113
I258
F-0.75
S'sad'
p1196
I0
tp1197
a(I113
I258
F-0.25
S'past'
p1198
I0
tp1199
a(I113
I265
I0
S'fundamental'
p1200
I0
tp1201
a(I113
I266
F-0.375
S'avoid'
p1202
I0
tp1203
a(I113
I273
I0
S'third'
p1204
I0
tp1205
a(I113
I273
I0
S'android'
p1206
I0
tp1207
a(I113
I273
F0.125
S'first'
p1208
I0
tp1209
a(I113
I273
F1.0
S'best'
p1210
I0
tp1211
a(I113
I273
F-0.125
S'overall'
p1212
I0
tp1213
a(I118
I70
F-0.625
S'other'
p1214
I0
tp1215
a(I118
I87
I0
S'different'
p1216
I0
tp1217
a(I118
I87
F0.25
S'original'
p1218
I0
tp1219
a(I120
I0
F0.875
S'nice'
p1220
I0
tp1221
a(I124
I6
F-0.125
S'overall'
p1222
I0
tp1223
a(I124
I8
F-0.375
S'simple'
p1224
I0
tp1225
a(I126
I22
F-0.625
g830
I0
tp1226
a(I129
I0
I0
S'third'
p1227
I0
tp1228
a(I130
I3
F0.5
S'second'
p1229
I0
tp1230
as(S'pure'
p1231
S'android'
p1232
S'experience'
p1233
tp1234
(lp1235
(I82
I0
F1.0
g978
I0
tp1236
a(I111
I28
F1.0
S'best'
p1237
I0
tp1238
a(I115
I3
F1.0
g991
I0
tp1239
a(I42
I11
I0
S'latest'
p1240
I0
tp1241
a(I82
I0
F1.0
g978
I0
tp1242
a(I112
I3
F-0.25
S'thin'
p1243
I0
tp1244
a(I112
I3
F0.75
S'beautiful'
p1245
I0
tp1246
a(I115
I3
F1.0
g991
I0
tp1247
a(I128
I1
F1.0
S'better'
p1248
I0
tp1249
a(I20
I43
F-0.625
S'clean'
p1250
I0
tp1251
a(I35
I148
F1.0
g968
I0
tp1252
a(I65
I81
F0.125
S'capable'
p1253
I0
tp1254
a(I81
I47
I0
S'android'
p1255
I0
tp1256
a(I82
I0
F1.0
g978
I0
tp1257
a(I82
I93
F0.5
g319
I0
tp1258
a(I82
I102
F1.0
g982
I0
tp1259
a(I111
I28
F1.0
g1237
I0
tp1260
a(I113
I10
F1.0
g989
I0
tp1261
a(I115
I3
F1.0
g991
I0
tp1262
a(I115
I4
I0
S'great'
p1263
I0
tp1264
as(S'in'
p1265
S'google'
p1266
S'play'
p1267
tp1268
(lp1269
(I7
I49
F1.0
g629
I0
tp1270
a(I26
I11
F-0.25
g838
I0
tp1271
a(I29
I8
F-0.125
g857
I0
tp1272
a(I29
I8
F-0.25
g859
I0
tp1273
a(I31
I1
F-0.25
g840
I0
tp1274
a(I32
I0
F-0.25
g842
I0
tp1275
a(I42
I41
F-0.125
g844
I0
tp1276
a(I42
I62
F-0.25
g631
I0
tp1277
a(I47
I7
F-0.25
g867
I0
tp1278
a(I81
I5
F0.125
g871
I0
tp1279
a(I90
I5
F-0.625
g633
I0
tp1280
a(I99
I6
F-0.25
g874
I0
tp1281
a(I108
I27
F-0.125
g876
I0
tp1282
a(I108
I27
F-0.25
g878
I0
tp1283
a(I113
I0
F-0.25
g848
I0
tp1284
a(I113
I1
F-0.25
g881
I0
tp1285
a(I113
I3
F-0.25
g883
I0
tp1286
a(I113
I3
F0.375
g885
I0
tp1287
a(I119
I12
F-0.25
g637
I0
tp1288
a(I121
I44
F-0.125
g639
I0
tp1289
a(I125
I14
F-0.125
g641
I0
tp1290
a(I126
I72
F-0.25
g894
I0
tp1291
as(S'smartphone'
p1292
tp1293
(lp1294
(I0
I22
F-0.625
S'other'
p1295
I0
tp1296
a(I0
I22
F0.125
S'typical'
p1297
I0
tp1298
a(I12
I40
F0.125
S'first'
p1299
I0
tp1300
a(I15
I38
F1.0
S'best'
p1301
I0
tp1302
a(I19
I9
F0.125
S'first'
p1303
I0
tp1304
a(I26
I4
I0
S'next'
p1305
I0
tp1306
a(I26
I43
I0
S'fastest'
p1307
I0
tp1308
a(I29
I39
F0.875
S'nice'
p1309
I0
tp1310
a(I35
I1
F1.0
S'good'
p1311
I0
tp1312
a(I41
I16
F0.375
S'new'
p1313
I0
tp1314
a(I41
I17
I0
S'latest'
p1315
I0
tp1316
a(I43
I7
F-0.75
S'bloat'
p1317
I0
tp1318
a(I43
I56
F-0.625
S'other'
p1319
I0
tp1320
a(I49
I56
F0.25
S'used'
p1321
I0
tp1322
a(I65
I109
F1.0
S'best'
p1323
I0
tp1324
a(I65
I109
F1.0
S'best'
p1325
I0
tp1326
a(I65
I109
F1.0
S'better'
p1327
I0
tp1328
a(I66
I9
F-0.5
S'less'
p1329
I0
tp1330
a(I66
I9
F0.875
S'nice'
p1331
I0
tp1332
a(I73
I37
I0
S'great'
p1333
I0
tp1334
a(I81
I42
F0.125
S'first'
p1335
I0
tp1336
a(I82
I11
F0.125
S'first'
p1337
I0
tp1338
a(I82
I43
I0
S'general'
p1339
I0
tp1340
a(I82
I61
I0
S'more'
p1341
I0
tp1342
a(I82
I61
F0.5
S'reasonable'
p1343
I0
tp1344
a(I97
I55
I0
S'tinny'
p1345
I0
tp1346
a(I97
I160
F-0.125
S'overall'
p1347
I0
tp1348
a(I118
I29
I0
S'fast'
p1349
I0
tp1350
a(I121
I104
F0.375
S'new'
p1351
I0
tp1352
a(I123
I0
F1.0
S'good'
p1353
I0
tp1354
a(I126
I72
F1.0
S'best'
p1355
I0
tp1356
a(I129
I0
F0.375
S'complete'
p1357
I0
tp1358
a(I129
I0
F0.375
S'extra'
p1359
I0
tp1360
a(I129
I2
F1.0
S'best'
p1361
I0
tp1362
as(S'version'
p1363
S'of'
p1364
S'android'
p1365
tp1366
(lp1367
(I7
I49
I0
S'latest'
p1368
I0
tp1369
a(I26
I44
F0.125
S'last'
p1370
I0
tp1371
a(I26
I44
I0
S'android'
p1372
I0
tp1373
a(I35
I69
I0
S'latest'
p1374
I0
tp1375
a(I35
I110
F0.375
S'newest'
p1376
I0
tp1377
a(I47
I5
I0
S'quick'
p1378
I0
tp1379
a(I47
I5
F0.125
S'last'
p1380
I0
tp1381
a(I47
I5
I0
S'android'
p1382
I0
tp1383
a(I64
I25
I0
S'latest'
p1384
I0
tp1385
a(I72
I7
I0
S'android'
p1386
I0
tp1387
a(I72
I7
F1.0
S'best'
p1388
I0
tp1389
a(I73
I34
I0
S'latest'
p1390
I0
tp1391
a(I82
I4
I0
S'only'
p1392
I0
tp1393
a(I82
I4
I0
S'android'
p1394
I0
tp1395
a(I82
I44
F0.875
S'important'
p1396
I0
tp1397
a(I83
I6
I0
S'latest'
p1398
I0
tp1399
a(I83
I6
I0
S'android'
p1400
I0
tp1401
a(I90
I39
I0
S'latest'
p1402
I0
tp1403
a(I97
I5
F0.375
S'new'
p1404
I0
tp1405
a(I116
I27
F-0.375
S'smoothest'
p1406
I0
tp1407
a(I116
I38
F0.875
S'happy'
p1408
I0
tp1409
a(I116
I38
I0
S'latest'
p1410
I0
tp1411
a(I116
I38
I0
S'android'
p1412
I0
tp1413
a(I126
I15
F0.375
S'newest'
p1414
I0
tp1415
a(I4
I0
F1.0
g953
I0
tp1416
a(I5
I1
F1.0
g955
I0
tp1417
a(I5
I31
F0.125
S'native'
p1418
I0
tp1419
a(I5
I40
F0.125
S'native'
p1420
I0
tp1421
a(I5
I50
F1.0
g957
I0
tp1422
a(I8
I25
F0.125
g259
I0
tp1423
a(I8
I25
I0
g261
I0
tp1424
a(I8
I30
F0.25
S'recent'
p1425
I0
tp1426
a(I17
I5
I0
S'fast'
p1427
I0
tp1428
a(I18
I43
F0.125
g806
I0
tp1429
a(I18
I44
F1.0
g959
I0
tp1430
a(I19
I49
I0
S'current'
p1431
I0
tp1432
a(I20
I22
F0.5
S'hopeful'
p1433
I0
tp1434
a(I20
I32
F0.125
S'first'
p1435
I0
tp1436
a(I20
I43
F-0.625
g1250
I0
tp1437
a(I20
I113
F-0.125
g961
I0
tp1438
a(I20
I113
F1.0
g963
I0
tp1439
a(I20
I202
I-100
S'catch-up'
p1440
I0
tp1441
a(I23
I4
F1.0
g263
I0
tp1442
a(I23
I4
I0
g265
I0
tp1443
a(I23
I4
F0.5
g267
I0
tp1444
a(I29
I39
F-0.625
S'clean'
p1445
I0
tp1446
a(I34
I9
F0.125
S'last'
p1447
I0
tp1448
a(I35
I7
I0
g277
I0
tp1449
a(I35
I148
F1.0
g968
I0
tp1450
a(I38
I7
F0.125
S'first'
p1451
I0
tp1452
a(I41
I16
I0
g281
I0
tp1453
a(I41
I18
I0
g289
I0
tp1454
a(I41
I18
F-0.625
g291
I0
tp1455
a(I42
I11
I0
g1240
I0
tp1456
a(I42
I31
F0.125
S'first'
p1457
I0
tp1458
a(I43
I55
I0
g970
I0
tp1459
a(I54
I25
F0.125
S'first'
p1460
I0
tp1461
a(I55
I1
F1.0
g972
I0
tp1462
a(I58
I13
F0.375
g974
I0
tp1463
a(I64
I0
I0
S'only'
p1464
I0
tp1465
a(I65
I7
I0
g301
I0
tp1466
a(I65
I41
F1.0
g305
I0
tp1467
a(I65
I43
I0
g307
I0
tp1468
a(I65
I81
F0.125
g1253
I0
tp1469
a(I65
I118
F-0.625
g309
I0
tp1470
a(I67
I3
I0
S'latest'
p1471
I0
tp1472
a(I73
I31
F0.375
S'no-brainer'
p1473
I0
tp1474
a(I73
I33
F-0.75
g311
I0
tp1475
a(I77
I12
F1.0
g313
I0
tp1476
a(I81
I10
I0
S'awhile'
p1477
I0
tp1478
a(I82
I0
F1.0
g978
I0
tp1479
a(I82
I44
F0.875
g1396
I0
tp1480
a(I82
I46
F-0.625
g317
I0
tp1481
a(I82
I66
F1.0
g980
I0
tp1482
a(I82
I93
F0.5
g319
I0
tp1483
a(I82
I102
F1.0
g982
I0
tp1484
a(I83
I1
F0.5
S'upgraded'
p1485
I0
tp1486
a(I85
I2
F0.125
S'capable'
p1487
I0
tp1488
a(I94
I13
F0.125
S'first'
p1489
I0
tp1490
a(I97
I5
F0.375
g1404
I0
tp1491
a(I97
I29
F0.125
S'enough'
p1492
I0
tp1493
a(I97
I51
I0
S'more'
p1494
I0
tp1495
a(I97
I97
F1.0
g321
I0
tp1496
a(I103
I5
I0
S'latest'
p1497
I0
tp1498
a(I106
I3
F1.0
g985
I0
tp1499
a(I112
I15
F0.375
S'available'
p1500
I0
tp1501
a(I112
I16
F1.0
g987
I0
tp1502
a(I113
I10
F1.0
g989
I0
tp1503
a(I113
I248
F0.375
g323
I0
tp1504
a(I114
I0
I0
g325
I0
tp1505
a(I115
I3
F1.0
g991
I0
tp1506
a(I116
I23
I0
S'more'
p1507
I0
tp1508
a(I116
I23
I0
S'more'
p1509
I0
tp1510
a(I118
I37
F-0.625
S'other'
p1511
I0
tp1512
a(I118
I63
F-0.75
S'difficult'
p1513
I0
tp1514
a(I118
I63
F-0.625
S'other'
p1515
I0
tp1516
a(I118
I65
I0
S'latest'
p1517
I0
tp1518
a(I118
I66
F-0.625
S'other'
p1519
I0
tp1520
a(I118
I136
F0.125
S'first'
p1521
I0
tp1522
a(I121
I106
F1.0
S'better'
p1523
I0
tp1524
a(I126
I67
F1.0
g993
I0
tp1525
a(I127
I15
F1.0
g995
I0
tp1526
a(I129
I2
F1.0
g329
I0
tp1527
a(I129
I40
F0.875
S'attractive'
p1528
I0
tp1529
as(S'google'
p1530
S'nexus'
p1531
tp1532
(lp1533
(I0
I10
F-0.25
g1052
I0
tp1534
a(I5
I17
F0.375
g1058
I0
tp1535
a(I7
I49
F1.0
g629
I0
tp1536
a(I7
I111
F-0.25
g1060
I0
tp1537
a(I26
I4
F-0.25
g1076
I0
tp1538
a(I26
I4
F-0.25
g1078
I0
tp1539
a(I35
I93
I0
g1101
I0
tp1540
a(I35
I93
F0.875
g1103
I0
tp1541
a(I42
I55
I0
g1113
I0
tp1542
a(I49
I111
F0.875
g1121
I0
tp1543
a(I54
I7
I0
g920
I0
tp1544
a(I97
I105
F0.375
g1161
I0
tp1545
a(I98
I12
I0
g1163
I0
tp1546
a(I113
I51
I0
g1040
I0
tp1547
a(I113
I51
F-0.625
g1042
I0
tp1548
a(I113
I51
F-0.25
g1044
I0
tp1549
a(I113
I51
F0.625
g1046
I0
tp1550
a(I113
I52
F-0.25
g1048
I0
tp1551
a(I113
I258
F-0.75
g1196
I0
tp1552
a(I113
I258
F-0.25
g1198
I0
tp1553
as(S'wifi'
p1554
tp1555
(lp1556
(I0
I22
I0
S'fast'
p1557
I0
tp1558
a(I3
I3
F1.0
S'better'
p1559
I0
tp1560
a(I3
I3
F-0.625
S'free'
p1561
I0
tp1562
a(I3
I4
F-0.625
S'free'
p1563
I0
tp1564
a(I7
I108
F-0.625
S'free'
p1565
I0
tp1566
a(I20
I303
I0
S'local'
p1567
I0
tp1568
a(I65
I96
F-0.375
S'smooth'
p1569
I0
tp1570
a(I113
I122
I0
S'download'
p1571
I0
tp1572
as(S'apps'
p1573
tp1574
(lp1575
(I0
I34
F0.125
S'essential'
p1576
I0
tp1577
a(I7
I121
I0
S'many'
p1578
I0
tp1579
a(I18
I14
F0.375
S'new'
p1580
I0
tp1581
a(I19
I23
F-0.625
S'free'
p1582
I0
tp1583
a(I19
I24
F-0.625
S'other'
p1584
I0
tp1585
a(I20
I223
F0.375
S'newer'
p1586
I0
tp1587
a(I29
I13
F-0.625
S'other'
p1588
I0
tp1589
a(I29
I60
F-0.5
S'open'
p1590
I0
tp1591
a(I35
I114
I0
S'more'
p1592
I0
tp1593
a(I38
I26
I0
S'same'
p1594
I0
tp1595
a(I38
I26
I0
S'android'
p1596
I0
tp1597
a(I38
I26
I0
S'same'
p1598
I0
tp1599
a(I38
I76
F-0.5
S'open'
p1600
I0
tp1601
a(I39
I12
I0
S'many'
p1602
I0
tp1603
a(I43
I3
F-0.25
S'google'
p1604
I0
tp1605
a(I55
I32
F-0.625
S'other'
p1606
I0
tp1607
a(I65
I54
I0
S'many'
p1608
I0
tp1609
a(I65
I73
I0
S'many'
p1610
I0
tp1611
a(I65
I74
F-0.5
S'poor'
p1612
I0
tp1613
a(I65
I75
I0
S'different'
p1614
I0
tp1615
a(I65
I76
I0
S'many'
p1616
I0
tp1617
a(I65
I80
I0
S'many'
p1618
I0
tp1619
a(I76
I3
F-0.25
S'abundant'
p1620
I0
tp1621
a(I81
I18
I0
S'latest'
p1622
I0
tp1623
a(I82
I104
I0
S'close'
p1624
I0
tp1625
a(I89
I26
F-0.625
S'other'
p1626
I0
tp1627
a(I97
I88
I0
S'fast'
p1628
I0
tp1629
a(I97
I88
I0
S'most'
p1630
I0
tp1631
a(I108
I5
I0
S'such'
p1632
I0
tp1633
a(I111
I16
F0.125
S'able'
p1634
I0
tp1635
a(I111
I16
F-0.5
S'open'
p1636
I0
tp1637
a(I111
I16
I0
S'least'
p1638
I0
tp1639
a(I111
I43
F0.125
S'fat'
p1640
I0
tp1641
a(I111
I43
I0
S'next'
p1642
I0
tp1643
a(I113
I121
I0
S'same'
p1644
I0
tp1645
a(I113
I144
F0.375
S'available'
p1646
I0
tp1647
a(I115
I3
I0
S'few'
p1648
I0
tp1649
a(I121
I118
F-0.5
S'open'
p1650
I0
tp1651
a(I124
I13
I0
S'faster'
p1652
I0
tp1653
a(I125
I16
F-0.5
S'open'
p1654
I0
tp1655
as(S'amazon'
p1656
tp1657
(lp1658
(I12
I7
F0.5
S'second'
p1659
I13
tp1660
a(I26
I11
F0.5
S'expensive'
p1661
I13
tp1662
a(I42
I62
F1.0
S'good'
p1663
I13
tp1664
as(S'bang'
p1665
S'for'
p1666
S'buck'
p1667
tp1668
(lp1669
(I38
I35
F0.625
S'bang'
p1670
I0
tp1671
a(I59
I11
F1.0
S'best'
p1672
I0
tp1673
a(I65
I2
F1.0
S'best'
p1674
I0
tp1675
a(I79
I0
F1.0
S'best'
p1676
I0
tp1677
a(I82
I30
F1.0
S'best'
p1678
I0
tp1679
a(I82
I91
F1.0
S'best'
p1680
I0
tp1681
as(S'performance'
p1682
tp1683
(lp1684
(I4
I16
F-0.125
S'overall'
p1685
I2
tp1686
a(I8
I24
I0
S'faster'
p1687
I2
tp1688
a(I8
I24
F0.75
S'due'
p1689
I2
tp1690
a(I29
I51
I0
S'great'
p1691
I2
tp1692
a(I32
I23
F1.0
S'good'
p1693
I2
tp1694
a(I35
I41
F1.0
S'better'
p1695
I2
tp1696
a(I35
I42
I0
S'general'
p1697
I2
tp1698
a(I42
I10
I0
S'fast'
p1699
I2
tp1700
a(I66
I12
F0.625
S'easy'
p1701
I2
tp1702
a(I66
I18
F0.625
S'perfect'
p1703
I2
tp1704
a(I73
I5
I0
S'quick'
p1705
I2
tp1706
a(I73
I47
I0
S'great'
p1707
I2
tp1708
a(I81
I19
I0
S'great'
p1709
I2
tp1710
a(I82
I12
F0.375
S'much'
p1711
I2
tp1712
a(I92
I60
F1.0
S'good'
p1713
I2
tp1714
a(I100
I13
F1.0
S'good'
p1715
I2
tp1716
a(I101
I30
F-0.125
S'overall'
p1717
I2
tp1718
a(I110
I2
F1.0
S'good'
p1719
I2
tp1720
as.