(dp0
(S'model'
p1
tp2
(lp3
(I22
I2
I0
S'same'
p4
tp5
a(I22
I4
I0
S'same'
p6
tp7
a(I149
I0
F0.25
S'bigger'
p8
tp9
a(I228
I0
F-0.5
S'international'
p10
tp11
as(S'perfect'
p12
tp13
(lp14
(I32
I0
I0
S'large'
p15
tp16
a(I32
I0
F-0.375
S'small'
p17
tp18
as(S'battery'
p19
S'life'
p20
tp21
(lp22
(I96
I4
F1.0
S'good'
p23
tp24
a(I227
I2
I0
S'great'
p25
tp26
as(S'cellphone'
p27
tp28
(lp29
(I104
I0
F1.0
S'best'
p30
tp31
a(I137
I0
F1.0
S'good'
p32
tp33
a(I182
I0
F1.0
S'good'
p34
tp35
a(I233
I0
F-0.25
S'grate'
p36
tp37
as(S'problem'
p38
tp39
(lp40
(I56
I6
F-0.75
S'single'
p41
tp42
a(I131
I1
I0
S'only'
p43
tp44
a(I133
I1
I0
S'only'
p45
tp46
a(I145
I2
F0.5
S'told'
p47
tp48
a(I155
I1
I0
S'only'
p49
tp50
a(I235
I0
I0
S'same'
p51
tp52
as(S'great'
p53
S'product'
p54
tp55
(lp56
(I0
I0
I0
S'great'
p57
tp58
a(I0
I0
F-0.375
S'small'
p59
tp60
a(I0
I3
F-0.625
S'other'
p61
tp62
a(I0
I3
I0
S'great'
p63
tp64
a(I12
I0
I0
S'great'
p65
tp66
a(I50
I0
I0
S'great'
p67
tp68
a(I71
I2
I0
S'great'
p69
tp70
a(I150
I0
I0
S'great'
p71
tp72
as(S'better'
p73
tp74
(lp75
(I83
I3
F0.375
S'much'
p76
tp77
as(S'card'
p78
tp79
(lp80
(I200
I0
I0
S'internal'
p81
tp82
a(I222
I1
F0.125
S'able'
p83
tp84
as(S'bought'
p85
tp86
(lp87
(I46
I1
I0
S'later'
p88
tp89
as(S'price'
p90
tp91
(lp92
(I35
I0
F1.0
S'better'
p93
tp94
a(I44
I5
F0.5
S'reasonable'
p95
tp96
a(I95
I1
I0
S'great'
p97
tp98
a(I103
I0
F1.0
S'good'
p99
tp100
a(I150
I0
I0
S'great'
p101
tp102
a(I150
I1
F1.0
S'best'
p103
tp104
a(I150
I1
F0.375
S'new'
p105
tp106
a(I152
I0
F0.5
S'reasonable'
p107
tp108
a(I171
I0
F0.5
S'reasonable'
p109
tp110
as(S'samsung'
p111
S's3'
p112
S'mini'
p113
tp114
(lp115
(I212
I2
F0.625
S'perfect'
p116
tp117
as(S'everything'
p118
tp119
(lp120
(I70
I3
I0
S'great'
p121
tp122
as(S'problems'
p123
tp124
(lp125
(I123
I8
F-0.625
S'other'
p126
tp127
a(I123
I16
F-0.5
S'sure'
p128
tp129
a(I164
I2
F0.5
S'technical'
p130
tp131
as(S'samsung'
p132
tp133
(lp134
(I6
I2
F0.25
S'original'
p135
tp136
a(I20
I1
F-0.75
S'worse'
p137
tp138
a(I70
I2
F-0.625
S'other'
p139
tp140
a(I123
I1
F-0.75
S'unable'
p141
tp142
a(I123
I9
F-0.625
S'other'
p143
tp144
a(I129
I3
F0.125
S'first'
p145
tp146
a(I134
I6
F0.25
S'sharp'
p147
tp148
a(I134
I6
I0
S'faster'
p149
tp150
a(I151
I0
F0.375
S'new'
p151
tp152
a(I153
I1
I0
S'own'
p153
tp154
a(I178
I0
I0
S'many'
p155
tp156
a(I180
I1
I0
S'normal'
p157
tp158
a(I181
I1
F-0.636
S'genuine'
p159
tp160
a(I195
I5
I0
S'standard'
p161
tp162
a(I199
I1
F0.25
S'original'
p163
tp164
as(S'number'
p165
tp166
(lp167
(I22
I13
F0.625
S'correct'
p168
tp169
as(S'camera'
p170
tp171
(lp172
(I18
I1
F-0.75
S'secondary'
p173
tp174
a(I39
I5
F-0.25
S'disappointing'
p175
tp176
a(I39
I5
I0
S'least'
p177
tp178
a(I139
I5
F0.125
S'impressive'
p179
tp180
a(I156
I0
I0
S'great'
p181
tp182
a(I156
I0
I0
S'faster'
p183
tp184
a(I167
I1
F1.0
S'good'
p185
tp186
a(I199
I0
F-0.25
S'low'
p187
tp188
a(I208
I2
F1.0
S'good'
p189
tp190
a(I224
I4
F1.0
S'better'
p191
tp192
as(S'version'
p193
tp194
(lp195
(I4
I0
F-0.5
S'international'
p196
tp197
a(I15
I8
I0
S'great'
p198
tp199
a(I31
I0
F-0.375
S'smaller'
p200
tp201
a(I31
I0
F-0.25
S'giant'
p202
tp203
a(I53
I0
F0.375
S'new'
p204
tp205
a(I53
I0
I0
S'android'
p206
tp207
a(I186
I2
F-0.5
S'international'
p208
tp209
as(S'purchase'
p210
tp211
(lp212
(I126
I1
I0
S'shipment'
p213
tp214
a(I207
I1
F-0.625
S'glad'
p215
tp216
a(I230
I0
F0.875
S'happy'
p217
tp218
as(S'mini'
p219
tp220
(lp221
(I39
I1
I0
S'great'
p222
tp223
a(I39
I4
I0
S'common'
p224
tp225
a(I212
I2
F0.625
g116
tp226
as(S'quality'
p227
tp228
(lp229
(I120
I0
I0
S'great'
p230
tp231
a(I146
I1
F-0.625
S'average'
p232
tp233
a(I171
I0
I0
S'mobile'
p234
tp235
a(I171
I0
F0.875
S'nice'
p236
tp237
a(I171
I0
I0
S'high'
p238
tp239
a(I174
I2
F-0.25
S'lower'
p240
tp241
a(I190
I3
F0.125
S'solid'
p242
tp243
a(I205
I0
F-0.375
S'top'
p244
tp245
as(S'memory'
p246
tp247
(lp248
(I107
I2
I0
S'internal'
p249
tp250
a(I134
I1
I0
S'internal'
p251
tp252
a(I179
I1
F0.375
S'available'
p253
tp254
a(I225
I0
I0
S'internal'
p255
tp256
a(I225
I0
I0
S'total'
p257
tp258
as(S'product'
p259
tp260
(lp261
(I0
I0
I0
g57
tp262
a(I0
I0
F-0.375
g59
tp263
a(I0
I3
F-0.625
g61
tp264
a(I0
I3
I0
g63
tp265
a(I1
I0
I0
S'detailed'
p266
tp267
a(I12
I0
I0
g65
tp268
a(I35
I0
F1.0
S'good'
p269
tp270
a(I50
I0
I0
g67
tp271
a(I71
I2
I0
g69
tp272
a(I118
I0
F0.5
S'buy'
p273
tp274
a(I150
I0
I0
g71
tp275
a(I153
I0
F1.0
S'good'
p276
tp277
a(I166
I3
F0.5
S'true'
p278
tp279
a(I167
I0
I0
S'useful'
p280
tp281
as(S'come'
p282
tp283
(lp284
(I177
I6
I0
S'android'
p285
tp286
as(S'galaxy'
p287
tp288
(lp289
(I25
I0
F0.375
S'new'
p290
tp291
a(I103
I0
F-0.5
S'regular'
p292
tp293
a(I108
I1
I0
S'full'
p294
tp295
a(I108
I1
I0
S'sized'
p296
tp297
a(I190
I6
F0.25
S'original'
p298
tp299
as(S'excellent'
p300
tp301
(lp302
(I77
I1
F-0.5
S'continuous'
p303
tp304
as(S'features'
p305
tp306
(lp307
(I7
I1
I0
S'great'
p308
tp309
a(I125
I1
I0
S'standard'
p310
tp311
a(I215
I0
I0
S'same'
p312
tp313
as(S'next'
p314
S'day'
p315
tp316
(lp317
(I109
I0
I0
S'next'
p318
tp319
a(I164
I3
I0
S'next'
p320
tp321
as(S'model'
p322
S'number'
p323
tp324
(lp325
(I22
I2
I0
g4
tp326
a(I22
I4
I0
g6
tp327
a(I22
I13
F0.625
g168
tp328
as(S'latin'
p329
S'america'
p330
tp331
(lp332
(I76
I3
F0.5
S'functional'
p333
tp334
as(S'few'
p335
S'years'
p336
tp337
(lp338
(I4
I4
I0
S'few'
p339
tp340
a(I15
I3
I0
S'few'
p341
tp342
a(I18
I1
I0
S'few'
p343
tp344
a(I134
I5
I0
S'few'
p345
tp346
as(S'seller'
p347
tp348
(lp349
(I22
I8
I0
S'different'
p350
tp351
a(I22
I8
F-0.75
S'wrong'
p352
tp353
a(I139
I0
F0.5
S'accurate'
p354
tp355
a(I166
I0
F0.625
S'responsible'
p356
tp357
as(S'android'
p358
tp359
(lp360
(I44
I4
F0.125
S'first'
p361
tp362
as(S'works'
p363
tp364
(lp365
(I8
I1
F-0.5
S'international'
p366
tp367
a(I80
I3
I0
S'most'
p368
tp369
a(I119
I1
I0
S'great'
p370
tp371
a(I122
I1
F1.0
S'good'
p372
tp373
a(I138
I0
I0
S'internet'
p374
tp375
a(I147
I0
I0
S'great'
p376
tp377
a(I165
I0
I0
S'great'
p378
tp379
a(I221
I0
F0.375
S'new'
p380
tp381
as(S'venezuela'
p382
tp383
(lp384
(I16
I0
F1.0
S'good'
p385
tp386
as(S's3'
p387
S'mini'
p388
tp389
(lp390
(I39
I1
I0
g222
tp391
a(I39
I4
I0
g224
tp392
a(I188
I0
F0.375
S'new'
p393
tp394
a(I193
I2
I0
S'big'
p395
tp396
a(I212
I2
F0.625
g116
tp397
as(S'battery'
p398
tp399
(lp400
(I14
I0
I0
S'many'
p401
tp402
a(I33
I2
F-0.5
S'poor'
p403
tp404
a(I102
I1
F0.375
S'new'
p405
tp406
a(I162
I0
F0.25
S'original'
p407
tp408
a(I193
I2
F0.125
S'last'
p409
tp410
a(I204
I0
F-0.625
S'bad'
p411
tp412
a(I224
I2
F1.0
S'good'
p413
tp414
a(I224
I2
I0
S'great'
p415
tp416
a(I227
I2
I0
g25
tp417
as(S'came'
p418
tp419
(lp420
(I141
I1
F-0.375
S'manual'
p421
tp422
a(I196
I1
I0
S'mobile'
p423
tp424
as(S'speed'
p425
tp426
(lp427
(I177
I1
I0
S'slower'
p428
tp429
a(I184
I1
F-0.5
S'heavy'
p430
tp431
a(I184
I1
F1.0
S'good'
p432
tp433
as(S'samsung'
p434
S'galaxy'
p435
tp436
(lp437
(I151
I0
F0.375
g151
tp438
as(S'cell'
p439
tp440
(lp441
(I17
I0
F0.875
S'nice'
p442
tp443
a(I17
I0
F0.625
S'convenient'
p444
tp445
a(I67
I1
I0
S'great'
p446
tp447
a(I106
I3
F1.0
S'best'
p448
tp449
a(I145
I4
F0.5
S'compatible'
p450
tp451
as(S'internal'
p452
S'memory'
p453
tp454
(lp455
(I107
I2
I0
g249
tp456
a(I134
I1
I0
g251
tp457
a(I225
I0
I0
g255
tp458
a(I225
I0
I0
g257
tp459
as(S'language'
p460
tp461
(lp462
(I6
I0
I0
S'chinese'
p463
tp464
a(I6
I0
F-0.75
S'impossible'
p465
tp466
a(I6
I0
I0
S'spanish'
p467
tp468
a(I62
I0
F-0.125
S'foreign'
p469
tp470
a(I141
I1
I0
S'english'
p471
tp472
a(I184
I2
F0.625
S'easy'
p473
tp474
as(S'sim'
p475
S'card'
p476
tp477
(lp478
(I22
I7
I0
S'standard'
p479
tp480
a(I145
I1
F0.5
S'compatible'
p481
tp482
a(I197
I3
F-0.5
S'regular'
p483
tp484
as(S'device'
p485
tp486
(lp487
(I88
I2
F0.375
S'new'
p488
tp489
as(S'low'
p490
S'cost'
p491
tp492
(lp493
(I3
I0
F-0.25
S'low'
p494
tp495
a(I57
I0
F-0.25
S'low'
p496
tp497
a(I57
I3
F-0.25
S'low'
p498
tp499
as(S'easy'
p500
tp501
(lp502
(I49
I0
F0.625
S'easy'
p503
tp504
as(S'screen'
p505
tp506
(lp507
(I71
I0
F0.875
S'nice'
p508
tp509
a(I80
I4
I0
S'great'
p510
tp511
a(I80
I4
F0.5
S'touch'
p512
tp513
a(I80
I4
I0
S'same'
p514
tp515
a(I146
I0
F0.5
S'touch'
p516
tp517
a(I149
I1
I0
S'big'
p518
tp519
a(I152
I1
F-0.375
S'small'
p520
tp521
a(I152
I1
F-0.625
S'other'
p522
tp523
a(I227
I2
F-0.75
S'bright'
p524
tp525
as(S'time'
p526
tp527
(lp528
(I0
I2
F-0.625
S'average'
p529
tp530
a(I4
I2
F0.125
S'first'
p531
tp532
a(I29
I0
F1.0
S'good'
p533
tp534
a(I33
I2
F-0.5
S'long'
p535
tp536
a(I114
I0
F0.375
S'new'
p537
tp538
a(I143
I3
F-0.5
S'long'
p539
tp540
a(I182
I1
F-0.375
S'small'
p541
tp542
a(I182
I1
F0.125
S'practical'
p543
tp544
a(I184
I1
I0
S'big'
p545
tp546
a(I184
I9
I0
S'same'
p547
tp548
a(I217
I0
I0
S'local'
p549
tp550
as(S'galaxy'
p551
S's3'
p552
S'mini'
p553
tp554
(lp555
(I25
I0
F0.375
g290
tp556
as(S'data'
p557
tp558
(lp559
(I73
I1
I0
S'different'
p560
tp561
as(S'smartphone'
p562
tp563
(lp564
(I28
I4
F0.5
S'willing'
p565
tp566
a(I163
I0
F-0.75
S'difficult'
p567
tp568
a(I205
I0
F1.0
S'good'
p569
tp570
a(I207
I0
I0
S'great'
p571
tp572
as(S'galaxy'
p573
S's3'
p574
tp575
(lp576
(I25
I0
F0.375
g290
tp577
as(S'charger'
p578
tp579
(lp580
(I26
I1
I0
S'european'
p581
tp582
a(I26
I1
I0
S'normal'
p583
tp584
a(I190
I4
F-0.375
S'daily'
p585
tp586
a(I192
I0
F-0.5
S'separate'
p587
tp588
as(S'size'
p589
tp590
(lp591
(I12
I1
I0
S'same'
p592
tp593
a(I21
I1
F0.125
S'appropriate'
p594
tp595
a(I21
I1
F1.0
S'good'
p596
tp597
a(I22
I10
F-0.75
S'wrong'
p598
tp599
a(I31
I2
F0.375
S'much'
p600
tp601
a(I31
I2
F0.625
S'manageable'
p602
tp603
a(I47
I2
I0
S'great'
p604
tp605
a(I123
I0
F0.875
S'nice'
p606
tp607
a(I128
I5
F0.875
S'nice'
p608
tp609
a(I128
I5
I0
S'big'
p610
tp611
a(I176
I0
F0.75
S'due'
p612
tp613
a(I180
I1
F0.75
S'due'
p614
tp615
a(I180
I3
I0
S'full'
p616
tp617
a(I190
I7
I0
S'same'
p618
tp619
a(I197
I3
I0
S'full'
p620
tp621
a(I215
I0
I0
S'great'
p622
tp623
as(S'looking'
p624
tp625
(lp626
(I83
I1
I0
S'great'
p627
tp628
a(I83
I1
I0
S'fast'
p629
tp630
a(I98
I1
F0.25
S'professional'
p631
tp632
as(S's'
p633
S'iii'
p634
tp635
(lp636
(I94
I0
I0
S'same'
p637
tp638
a(I108
I2
I0
S'full'
p639
tp640
a(I108
I2
I0
S'sized'
p641
tp642
as(S'nternal'
p643
S'memory'
p644
tp645
(lp646
(I107
I2
I0
g249
tp647
a(I134
I1
I0
g251
tp648
a(I225
I0
I0
g255
tp649
a(I225
I0
I0
g257
tp650
as(S'every'
p651
tp652
(lp653
(I41
I0
F0.75
S'worth'
p654
tp655
as.