(dp0
(S'battery'
p1
S'life'
p2
tp3
(lp4
(I34
I4
F1.0
S'good'
p5
I1
tp6
a(I70
I2
I0
S'great'
p7
I1
tp8
a(I5
I4
I0
S'many'
p9
I15
tp10
a(I10
I2
F-0.5
S'poor'
p11
I15
tp12
a(I36
I4
F0.375
S'new'
p13
I15
tp14
a(I51
I0
F0.25
S'original'
p15
I15
tp16
a(I58
I3
F0.125
S'last'
p17
I15
tp18
a(I62
I6
F-0.625
S'bad'
p19
I15
tp20
a(I69
I17
F1.0
S'good'
p21
I15
tp22
a(I69
I17
I0
S'great'
p23
I15
tp24
a(I70
I2
I0
g7
I15
tp25
as(S'cellphone'
p26
tp27
(lp28
(I37
I0
F1.0
S'best'
p29
I0
tp30
a(I47
I0
F1.0
S'good'
p31
I0
tp32
a(I56
I11
F1.0
S'good'
p33
I0
tp34
a(I70
I23
F-0.25
S'grate'
p35
I0
tp36
as(S'great'
p37
S'product'
p38
tp39
(lp40
(I0
I0
I0
S'great'
p41
I15
tp42
a(I0
I0
F-0.375
S'small'
p43
I15
tp44
a(I0
I3
F-0.625
S'other'
p45
I15
tp46
a(I0
I3
I0
S'great'
p47
I15
tp48
a(I5
I0
I0
S'great'
p49
I15
tp50
a(I49
I4
I0
S'great'
p51
I15
tp52
as(S'samsung'
p53
S's3'
p54
S'mini'
p55
tp56
(lp57
(I55
I14
F-0.625
S'other'
p58
I0
tp59
a(I65
I2
F0.625
S'perfect'
p60
I0
tp61
a(I55
I14
F-0.625
g58
I0
tp62
a(I13
I5
I0
S'great'
p63
I0
tp64
a(I13
I8
I0
S'common'
p65
I0
tp66
a(I57
I28
F0.375
S'new'
p67
I0
tp68
a(I58
I2
I0
S'big'
p69
I0
tp70
a(I65
I2
F0.625
g60
I0
tp71
a(I3
I14
F0.25
S'original'
p72
I7
tp73
a(I24
I4
F-0.625
S'other'
p74
I7
tp75
a(I40
I13
F-0.75
S'sad'
p76
I7
tp77
a(I43
I5
F-0.75
S'unable'
p78
I7
tp79
a(I43
I15
F-0.625
S'other'
p80
I7
tp81
a(I44
I18
F0.125
S'first'
p82
I7
tp83
a(I45
I6
F0.25
S'sharp'
p84
I7
tp85
a(I45
I6
I0
S'faster'
p86
I7
tp87
a(I48
I19
F-0.375
S'manual'
p88
I7
tp89
a(I49
I7
F0.375
S'new'
p90
I7
tp91
a(I50
I5
I0
S'own'
p92
I7
tp93
a(I55
I14
F-0.625
g58
I7
tp94
a(I55
I22
I0
S'many'
p95
I7
tp96
a(I56
I4
I0
S'normal'
p97
I7
tp98
a(I56
I8
F-0.636
S'genuine'
p99
I7
tp100
a(I57
I10
F0.625
S'aware'
p101
I7
tp102
a(I60
I5
I0
S'standard'
p103
I7
tp104
a(I61
I12
F0.25
S'original'
p105
I7
tp106
a(I66
I8
I0
S'large'
p107
I7
tp108
a(I13
I5
I0
g63
I13
tp109
a(I13
I8
I0
g65
I13
tp110
a(I65
I2
F0.625
g60
I13
tp111
as(S'camera'
p112
tp113
(lp114
(I6
I2
F-0.75
S'secondary'
p115
I1
tp116
a(I13
I9
F-0.25
S'disappointing'
p117
I1
tp118
a(I13
I9
I0
S'least'
p119
I1
tp120
a(I48
I5
F0.125
S'impressive'
p121
I1
tp122
a(I50
I14
I0
S'great'
p123
I1
tp124
a(I50
I14
I0
S'faster'
p125
I1
tp126
a(I52
I8
F1.0
S'good'
p127
I1
tp128
a(I61
I11
F-0.25
S'low'
p129
I1
tp130
a(I63
I12
F1.0
S'good'
p131
I1
tp132
a(I69
I19
F1.0
S'better'
p133
I1
tp134
as(S'speed'
p135
tp136
(lp137
(I55
I3
I0
S'slower'
p138
I9
tp139
a(I57
I1
F-0.5
S'heavy'
p140
I9
tp141
a(I57
I1
F1.0
S'good'
p142
I9
tp143
as(S'internet'
p144
tp145
(lp146
(I16
I4
F1.0
S'good'
p147
I6
tp148
a(I48
I23
F-0.375
S'manual'
p149
I6
tp150
as(S'model'
p151
S'number'
p152
tp153
(lp154
(I7
I4
I0
S'same'
p155
I1
tp156
a(I7
I6
I0
S'same'
p157
I1
tp158
a(I7
I18
F0.625
S'correct'
p159
I1
tp160
as(S'seller'
p161
tp162
(lp163
(I7
I11
I0
S'different'
p164
I19
tp165
a(I7
I12
F-0.75
S'wrong'
p166
I19
tp167
a(I48
I0
F0.5
S'accurate'
p168
I19
tp169
a(I52
I0
F0.625
S'responsible'
p170
I19
tp171
as(S'android'
p172
tp173
(lp174
(I15
I6
F0.125
S'first'
p175
I0
tp176
as(S'venezuela'
p177
tp178
(lp179
(I5
I19
F1.0
S'good'
p180
I0
tp181
as(S'samsung'
p182
S'galaxy'
p183
tp184
(lp185
(I40
I13
F-0.75
g76
I0
tp186
a(I49
I7
F0.375
g90
I0
tp187
as(S'language'
p188
tp189
(lp190
(I3
I12
I0
S'chinese'
p191
I3
tp192
a(I3
I12
I0
S'spanish'
p193
I3
tp194
a(I22
I22
F-0.125
S'foreign'
p195
I3
tp196
a(I57
I3
F0.625
S'easy'
p197
I3
tp198
as(S'sim'
p199
S'card'
p200
tp201
(lp202
(I7
I9
I0
S'standard'
p203
I0
tp204
a(I48
I33
F0.5
S'compatible'
p205
I0
tp206
a(I61
I3
F-0.5
S'regular'
p207
I0
tp208
as(S'data'
p209
tp210
(lp211
(I24
I16
I0
S'different'
p212
I13
tp213
as(S'galaxy'
p214
S's3'
p215
S'mini'
p216
tp217
(lp218
(I8
I0
F0.375
S'new'
p219
I0
tp220
a(I8
I0
F0.375
g219
I0
tp221
a(I8
I0
F0.375
g219
I0
tp222
a(I36
I8
F-0.5
S'regular'
p223
I0
tp224
a(I39
I1
I0
S'full'
p225
I0
tp226
a(I39
I1
I0
S'sized'
p227
I0
tp228
a(I57
I39
F0.25
S'original'
p229
I0
tp230
as(S'smartphone'
p231
tp232
(lp233
(I8
I15
F0.5
S'willing'
p234
I0
tp235
a(I51
I2
F-0.75
S'difficult'
p236
I0
tp237
a(I57
I18
F0.875
S'happy'
p238
I0
tp239
a(I57
I18
F0.375
S'new'
p240
I0
tp241
a(I63
I0
F1.0
S'good'
p242
I0
tp243
a(I63
I5
I0
S'great'
p244
I0
tp245
as(S'internal'
p246
S'memory'
p247
tp248
(lp249
(I38
I11
I0
S'internal'
p250
I0
tp251
a(I45
I1
I0
S'internal'
p252
I0
tp253
a(I69
I21
I0
S'total'
p254
I0
tp255
a(I38
I11
I0
g250
I5
tp256
a(I45
I1
I0
g252
I5
tp257
a(I56
I1
F0.375
S'available'
p258
I5
tp259
a(I69
I21
I0
g254
I5
tp260
as.