(dp0
(S'net10'
p1
tp2
(lp3
(I12
I8
F0.375
S'available'
p4
I0
tp5
as(S'battery'
p6
S'life'
p7
tp8
(lp9
(I1
I44
F0.5
S'variable'
p10
I1
tp11
a(I5
I21
F-0.5
S'long'
p12
I1
tp13
a(I12
I32
F1.0
S'good'
p14
I1
tp15
as(S'talk'
p16
S'text'
p17
tp18
(lp19
(I3
I62
F0.625
S'straight'
p20
I0
tp21
a(I10
I61
F-0.5
S'miss'
p22
I18
tp23
a(I10
I88
F-0.75
S'little'
p24
I18
tp25
a(I3
I62
F0.625
g20
I13
tp26
a(I3
I72
I0
S'appear'
p27
I13
tp28
a(I3
I72
F0.625
S'straight'
p29
I13
tp30
a(I3
I73
F0.625
S'straight'
p31
I13
tp32
a(I6
I44
F0.625
S'straight'
p33
I13
tp34
as(S'unauthorized'
p35
S'uses'
p36
tp37
(lp38
(I3
I63
F-0.5
S'certain'
p39
I0
tp40
a(I3
I63
F-0.875
S'unauthorized'
p41
I0
tp42
a(I3
I64
F-0.875
S'unauthorized'
p43
I0
tp44
a(I3
I65
F-0.875
S'unauthorized'
p45
I0
tp46
a(I3
I66
F-0.875
S'unauthorized'
p47
I0
tp48
as(S'service'
p49
tp50
(lp51
(I3
I8
F1.0
S'better'
p52
I16
tp53
a(I3
I31
F-0.25
S'cheaper'
p54
I16
tp55
a(I3
I54
F-0.5
S'less'
p56
I16
tp57
a(I3
I71
F-0.5
S'unlimited'
p58
I16
tp59
a(I3
I71
I0
S'different'
p60
I16
tp61
a(I9
I15
I0
S'net'
p62
I16
tp63
a(I10
I6
F0.375
S'much'
p64
I16
tp65
a(I13
I1
I0
S'great'
p66
I16
tp67
a(I13
I1
I0
S'net'
p68
I16
tp69
a(I15
I2
I0
S'net'
p70
I16
tp71
a(I16
I3
I0
S'great'
p72
I16
tp73
as(S'camera'
p74
tp75
(lp76
(I1
I48
F0.625
S'decent'
p77
I1
tp78
a(I1
I74
F1.0
S'good'
p79
I1
tp80
a(I6
I31
F0.625
S'decent'
p81
I1
tp82
a(I6
I93
F0.625
S'decent'
p83
I1
tp84
a(I12
I29
F1.0
S'better'
p85
I1
tp86
as(S'straight'
p87
S'talk'
p88
tp89
(lp90
(I3
I62
F0.625
g20
I0
tp91
a(I3
I72
I0
g27
I0
tp92
a(I3
I72
F0.625
g29
I0
tp93
a(I3
I73
F0.625
g31
I0
tp94
a(I6
I44
F0.625
g33
I0
tp95
as(S'internet'
p96
S'browsing'
p97
tp98
(lp99
(I1
I39
I0
S'internet'
p100
I0
tp101
a(I1
I42
F-0.625
S'light'
p102
I0
tp103
a(I1
I42
F-0.625
g102
I6
tp104
a(I3
I13
F-0.125
S'slow'
p105
I6
tp106
a(I5
I21
F0.625
S'easy'
p107
I6
tp108
as(S'signal'
p109
tp110
(lp111
(I1
I43
F1.0
S'good'
p112
I1
tp113
a(I6
I24
F1.0
S'good'
p114
I1
tp115
a(I6
I47
F1.0
S'good'
p116
I1
tp117
as(S'system'
p118
tp119
(lp120
(I3
I34
F0.125
S'able'
p121
I12
tp122
as(S'android'
p123
tp124
(lp125
(I3
I115
F0.125
S'first'
p126
I0
tp127
a(I6
I42
F0.625
S'right'
p128
I0
tp129
a(I12
I39
I0
S'great'
p130
I0
tp131
as(S'lg'
p132
S'optimus'
p133
S'extreme'
p134
tp135
(lp136
(I10
I7
F0.375
S'new'
p137
I0
tp138
a(I10
I7
F0.375
g137
I0
tp139
a(I12
I9
I0
S'third'
p140
I0
tp141
as(S'smart'
p142
tp143
(lp144
(I1
I39
F0.125
S'first'
p145
I10
tp146
a(I1
I42
F0.125
S'first'
p147
I10
tp148
a(I1
I48
F0.5
S'expensive'
p149
I10
tp150
a(I6
I65
F0.125
S'first'
p151
I10
tp152
a(I9
I3
F1.0
S'good'
p153
I10
tp154
a(I10
I31
F0.125
S'solid'
p155
I10
tp156
as(S'network'
p157
tp158
(lp159
(I12
I23
F0.5
S'strong'
p160
I0
tp161
as(S'calls'
p162
tp163
(lp164
(I3
I71
I0
S'individual'
p165
I0
tp166
a(I6
I12
F-0.25
S'dropped'
p167
I0
tp168
as(S'sd'
p169
S'card'
p170
tp171
(lp172
(I1
I52
F-0.625
S'free'
p173
I0
tp174
a(I1
I52
I0
S'sd'
p175
I0
tp176
as(S'much'
p177
S'better'
p178
tp179
(lp180
(I3
I6
F0.375
S'much'
p181
I9
tp182
as(S'memory'
p183
tp184
(lp185
(I1
I52
F-0.5
S'less'
p186
I5
tp187
a(I6
I17
F1.0
S'good'
p188
I5
tp189
a(I10
I7
I0
S'more'
p190
I5
tp191
a(I10
I68
I0
S'least'
p192
I5
tp193
as(S'apps'
p194
tp195
(lp196
(I0
I2
I0
S'standard'
p197
I0
tp198
a(I1
I42
I0
S'basic'
p199
I0
tp200
a(I1
I76
I0
S'more'
p201
I0
tp202
a(I3
I33
F0.375
S'available'
p203
I0
tp204
a(I6
I38
I0
S'many'
p205
I0
tp206
a(I6
I111
F1.0
S'good'
p207
I0
tp208
a(I6
I111
F0.625
S'easy'
p209
I0
tp210
a(I10
I21
F-0.75
S'unresponsive'
p211
I0
tp212
a(I10
I81
F-0.375
S'crash'
p213
I0
tp214
a(I12
I18
I0
S'useful'
p215
I0
tp216
as(S'touch'
p217
S'screen'
p218
tp219
(lp220
(I1
I26
F-0.5
S'sure'
p221
I2
tp222
a(I1
I26
F0.5
S'touch'
p223
I2
tp224
a(I1
I26
F0.625
S'kind'
p225
I2
tp226
a(I1
I30
F0.5
S'touch'
p227
I2
tp228
a(I3
I36
F0.875
S'nice'
p229
I2
tp230
a(I3
I123
F-0.75
S'unresponsive'
p231
I2
tp232
a(I11
I1
I0
S'big'
p233
I2
tp234
as(S'data'
p235
S'usage'
p236
tp237
(lp238
(I3
I14
I0
S'slower'
p239
I0
tp240
a(I3
I72
I0
S'terminate'
p241
I0
tp242
a(I3
I72
F-0.625
S'other'
p243
I0
tp244
a(I3
I14
I0
g239
I1
tp245
a(I3
I70
F-0.625
S'harmful'
p246
I1
tp247
a(I3
I72
F-0.625
g243
I1
tp248
a(I3
I12
I0
S'fast'
p249
I13
tp250
a(I3
I64
I0
S'automatic'
p251
I13
tp252
a(I3
I72
I0
g241
I13
tp253
as.