(dp0
(S'galaxy'
p1
S's3'
p2
S'mini'
p3
tp4
(lp5
(I8
I7
F-0.25
S'white'
p6
I0
tp7
a(I20
I39
I0
S'fast'
p8
I0
tp9
a(I20
I42
F0.25
S'original'
p10
I0
tp11
a(I23
I16
I0
S'identical'
p12
I0
tp13
a(I23
I16
F0.25
S'original'
p14
I0
tp15
a(I40
I0
F0.25
S'original'
p16
I0
tp17
a(I8
I7
F-0.25
g6
I0
tp18
a(I15
I2
I0
S'more'
p19
I0
tp20
a(I20
I39
I0
g8
I0
tp21
a(I23
I16
I0
g12
I0
tp22
a(I8
I4
I0
S'normal'
p23
I0
tp24
a(I8
I4
I0
S'sized'
p25
I0
tp26
a(I20
I42
F0.25
g10
I0
tp27
a(I23
I16
F0.25
g14
I0
tp28
a(I40
I0
F0.25
g16
I0
tp29
a(I6
I4
F0.25
S'original'
p30
I13
tp31
a(I8
I7
F-0.25
g6
I13
tp32
a(I15
I2
I0
g19
I13
tp33
a(I20
I39
I0
g8
I13
tp34
a(I23
I16
I0
g12
I13
tp35
a(I23
I17
F0.25
S'original'
p36
I13
tp37
a(I20
I42
F0.25
g10
I0
tp38
a(I23
I16
F0.25
g14
I0
tp39
a(I40
I0
F0.25
g16
I0
tp40
as(S'battery'
p41
tp42
(lp43
(I9
I3
F0.125
S'last'
p44
I15
tp45
a(I20
I24
F-0.625
S'bad'
p46
I15
tp47
a(I27
I8
F1.0
S'good'
p48
I15
tp49
a(I48
I2
I0
S'quick'
p50
I15
tp51
as(S'samsung'
p52
S'galaxy'
p53
tp54
(lp55
(I34
I1
F-0.75
S'sad'
p56
I0
tp57
a(I34
I1
F-0.75
g56
I7
tp58
a(I44
I19
F-0.375
S'authorized'
p59
I7
tp60
a(I45
I15
I0
S'old'
p61
I7
tp62
a(I45
I20
I0
S'many'
p63
I7
tp64
a(I45
I20
I0
S'different'
p65
I7
tp66
as(S'camera'
p67
tp68
(lp69
(I23
I15
F0.125
S'solid'
p70
I1
tp71
a(I25
I1
F1.0
S'best'
p72
I1
tp73
a(I25
I1
F-0.25
S'low'
p74
I1
tp75
a(I25
I1
F-0.625
S'light'
p76
I1
tp77
as.