(dp0
(S'perfect'
p1
tp2
(lp3
(I18
I0
F0.75
S'fit'
p4
tp5
a(I759
I1
F0.625
S'easy'
p6
tp7
a(I1075
I0
F1.0
S'good'
p8
tp9
as(S'purchase'
p10
tp11
(lp12
(I58
I0
F0.875
S'happy'
p13
tp14
a(I84
I1
F0.875
S'happy'
p15
tp16
a(I119
I3
I0
S'great'
p17
tp18
a(I119
I3
F0.875
S'happy'
p19
tp20
a(I130
I0
F0.125
S'first'
p21
tp22
a(I222
I0
F0.875
S'happy'
p23
tp24
a(I249
I0
F0.875
S'happy'
p25
tp26
a(I256
I0
F1.0
S'best'
p27
tp28
a(I304
I0
I0
S'unfair'
p29
tp30
a(I499
I5
F-0.25
S'disappointed'
p31
tp32
a(I517
I0
F-0.25
S'disappointed'
p33
tp34
a(I837
I1
I0
S'great'
p35
tp36
a(I900
I2
F0.5
S'expensive'
p37
tp38
a(I924
I0
I0
S'great'
p39
tp40
a(I931
I3
F0.875
S'happy'
p41
tp42
a(I933
I0
F0.875
S'happy'
p43
tp44
a(I1002
I3
F0.875
S'happy'
p45
tp46
a(I1023
I7
F0.875
S'happy'
p47
tp48
as(S'nice'
p49
tp50
(lp51
(I237
I0
F0.625
S'easy'
p52
tp53
a(I437
I2
I0
S'few'
p54
tp55
a(I541
I0
F-0.375
S'simple'
p56
tp57
a(I1090
I0
F-0.25
S'modern'
p58
tp59
as(S'samsung'
p60
S's3'
p61
S'mini'
p62
tp63
(lp64
(I293
I7
F0.375
S'new'
p65
tp66
as(S'version'
p67
tp68
(lp69
(I69
I1
F0.375
S'available'
p70
tp71
a(I87
I0
F-0.5
S'international'
p72
tp73
a(I87
I0
F0.875
S'important'
p74
tp75
a(I115
I1
I0
S'european'
p76
tp77
a(I143
I1
F0.375
S'available'
p78
tp79
a(I163
I12
I0
S'english'
p80
tp81
a(I187
I0
F-0.5
S'international'
p82
tp83
a(I189
I8
F0.25
S'bigger'
p84
tp85
a(I215
I1
F-0.5
S'international'
p86
tp87
a(I264
I0
I0
S'normal'
p88
tp89
a(I289
I2
F-0.5
S'international'
p90
tp91
a(I308
I1
F-0.5
S'international'
p92
tp93
a(I308
I1
F-0.5
S'unavailable'
p94
tp95
a(I387
I0
I0
S'large'
p96
tp97
a(I402
I0
I0
S'asian'
p98
tp99
a(I402
I0
I0
S'european'
p100
tp101
a(I406
I2
I0
S'great'
p102
tp103
a(I453
I0
F-0.5
S'international'
p104
tp105
a(I507
I0
F-0.5
S'international'
p106
tp107
a(I536
I0
F-0.375
S'smaller'
p108
tp109
a(I537
I0
F-0.375
S'black'
p110
tp111
a(I537
I2
F-0.25
S'white'
p112
tp113
a(I593
I0
F-0.5
S'regular'
p114
tp115
a(I620
I3
I0
S'english'
p116
tp117
a(I664
I0
I0
S'android'
p118
tp119
a(I780
I0
I0
S'spanish'
p120
tp121
a(I819
I0
F-0.125
S'bean'
p122
tp123
a(I847
I0
I0
S'asian'
p124
tp125
a(I939
I0
F-0.375
S'smaller'
p126
tp127
a(I994
I0
I0
S'european'
p128
tp129
a(I1001
I1
I0
S'european'
p130
tp131
a(I1067
I1
F-0.375
S'black'
p132
tp133
a(I1081
I1
F-0.5
S'international'
p134
tp135
a(I1099
I0
F-0.5
S'international'
p136
tp137
as(S'cellphone'
p138
tp139
(lp140
(I126
I0
I0
S'great'
p141
tp142
a(I126
I0
F0.625
S'easy'
p143
tp144
a(I162
I0
F0.625
S'perfect'
p145
tp146
a(I328
I0
I0
S'great'
p147
tp148
a(I375
I0
F1.0
S'best'
p149
tp150
a(I388
I2
I0
S'same'
p151
tp152
a(I394
I0
F1.0
S'best'
p153
tp154
a(I417
I0
I0
S'great'
p155
tp156
a(I441
I0
F1.0
S'good'
p157
tp158
a(I454
I0
I0
S'great'
p159
tp160
a(I512
I0
F0.125
S'spectacular'
p161
tp162
a(I538
I1
F-0.875
S'worst'
p163
tp164
a(I590
I0
I0
S'big'
p165
tp166
a(I590
I0
F-0.375
S'small'
p167
tp168
a(I590
I0
F-0.125
S'super'
p169
tp170
a(I666
I0
F1.0
S'best'
p171
tp172
a(I678
I0
F-0.75
S'sad'
p173
tp174
a(I840
I0
F0.375
S'new'
p175
tp176
a(I840
I0
F0.375
S'new'
p177
tp178
a(I843
I0
I0
S'fast'
p179
tp180
a(I938
I0
I0
S'old'
p181
tp182
a(I958
I0
F0.375
S'new'
p183
tp184
a(I1027
I0
I0
S'third'
p185
tp186
a(I1027
I3
F0.25
S'original'
p187
tp188
a(I1047
I2
F0.375
S'new'
p189
tp190
a(I1079
I0
F1.0
S'good'
p191
tp192
a(I1124
I0
F0.125
S'first'
p193
tp194
as(S'quality'
p195
tp196
(lp197
(I13
I0
F1.0
S'better'
p198
tp199
a(I20
I5
F-0.625
S'bad'
p200
tp201
a(I155
I7
F-0.125
S'overall'
p202
tp203
a(I155
I7
F-0.625
S'bad'
p204
tp205
a(I439
I5
I0
S'high'
p206
tp207
a(I468
I3
I0
S'great'
p208
tp209
a(I612
I3
I0
S'such'
p210
tp211
a(I612
I3
F-0.25
S'low'
p212
tp213
a(I647
I0
F-0.25
S'disappointed'
p214
tp215
a(I649
I1
F1.0
S'good'
p216
tp217
a(I751
I11
F1.0
S'good'
p218
tp219
a(I751
I20
I0
S'same'
p220
tp221
a(I751
I20
F-0.25
S'low'
p222
tp223
a(I782
I3
I0
S'full'
p224
tp225
a(I821
I1
F-0.25
S'low'
p226
tp227
a(I920
I0
F-0.25
S'low'
p228
tp229
a(I1015
I3
I0
S'high'
p230
tp231
a(I1021
I0
F1.0
S'good'
p232
tp233
a(I1029
I0
F1.0
S'good'
p234
tp235
a(I1045
I1
F-0.375
S'top'
p236
tp237
a(I1067
I6
F-0.5
S'poor'
p238
tp239
as(S'a'
p240
S'samsung'
p241
S'galaxy'
p242
tp243
(lp244
(I83
I1
I0
S'wish'
p245
tp246
a(I220
I0
F0.375
S'new'
p247
tp248
a(I311
I2
F-0.625
S'other'
p249
tp250
a(I394
I0
F1.0
S'best'
p251
tp252
a(I490
I3
F-0.5
S'afraid'
p253
tp254
a(I490
I3
I0
S'touchscreen'
p255
tp256
a(I532
I0
F0.5
S'beware'
p257
tp258
a(I751
I2
I0
S'real'
p259
tp260
a(I751
I11
I0
S'real'
p261
tp262
a(I751
I12
F-0.75
S'unreliable'
p263
tp264
a(I751
I20
I0
S'real'
p265
tp266
a(I862
I0
F-0.5
S'regular'
p267
tp268
a(I862
I0
I0
S'big'
p269
tp270
a(I967
I0
I0
S'third'
p271
tp272
a(I968
I1
F0.875
S'happy'
p273
tp274
a(I968
I1
F0.375
S'new'
p275
tp276
as(S'samsung'
p277
S'galaxy'
p278
S's'
p279
tp280
(lp281
(I83
I1
I0
g245
tp282
a(I220
I0
F0.375
g247
tp283
a(I311
I2
F-0.625
g249
tp284
a(I394
I0
F1.0
g251
tp285
a(I490
I3
F-0.5
g253
tp286
a(I490
I3
I0
g255
tp287
a(I532
I0
F0.5
g257
tp288
a(I751
I2
I0
g259
tp289
a(I751
I11
I0
g261
tp290
a(I751
I12
F-0.75
g263
tp291
a(I751
I20
I0
g265
tp292
a(I862
I0
F-0.5
g267
tp293
a(I862
I0
I0
g269
tp294
a(I967
I0
I0
g271
tp295
a(I968
I1
F0.875
g273
tp296
a(I968
I1
F0.375
g275
tp297
as(S'sd'
p298
S'card'
p299
tp300
(lp301
(I324
I24
I0
S'external'
p302
tp303
a(I324
I25
I0
S'internal'
p304
tp305
a(I324
I29
I0
S'sd'
p306
tp307
a(I324
I29
F0.5
S'personal'
p308
tp309
a(I324
I31
I0
S'external'
p310
tp311
a(I459
I22
I0
S'external'
p312
tp313
a(I459
I23
I0
S'internal'
p314
tp315
a(I459
I27
I0
S'sd'
p316
tp317
a(I459
I27
F0.5
S'personal'
p318
tp319
a(I459
I29
I0
S'external'
p320
tp321
a(I1005
I1
I0
S'sd'
p322
tp323
a(I1067
I48
I0
S'internal'
p324
tp325
a(I1069
I0
F-0.25
S'ready'
p326
tp327
as(S'venezuela'
p328
tp329
(lp330
(I36
I1
I0
S'great'
p331
tp332
a(I67
I0
I0
S'only'
p333
tp334
a(I352
I0
F0.375
S'new'
p335
tp336
a(I809
I2
F1.0
S'good'
p337
tp338
a(I1030
I0
F-0.75
S'little'
p339
tp340
as(S'excellent'
p341
tp342
(lp343
(I127
I0
F0.875
S'happy'
p344
tp345
a(I248
I3
I0
S'internal'
p346
tp347
a(I290
I0
F0.875
S'nice'
p348
tp349
a(I578
I0
F1.0
S'better'
p350
tp351
a(I683
I0
F-0.25
S'white'
p352
tp353
a(I696
I0
I0
S'android'
p354
tp355
a(I696
I0
F0.875
S'happy'
p356
tp357
a(I717
I0
F-0.25
S'white'
p358
tp359
a(I736
I0
I0
S'rapid'
p360
tp361
a(I749
I0
I0
S'plastic'
p362
tp363
a(I776
I0
I0
S'most'
p364
tp365
a(I1053
I0
F0.875
S'happy'
p366
tp367
as(S'turn'
p368
tp369
(lp370
(I813
I5
F0.125
S'first'
p371
tp372
as(S'sim'
p373
S'card'
p374
tp375
(lp376
(I170
I2
F-0.5
S'international'
p377
tp378
a(I324
I9
F1.0
S'good'
p379
tp380
a(I324
I10
F1.0
S'good'
p381
tp382
a(I324
I10
F-0.5
S'regular'
p383
tp384
a(I396
I0
I0
S'standard'
p385
tp386
a(I408
I2
F-0.625
S'other'
p387
tp388
a(I457
I7
F-0.25
S'ready'
p389
tp390
a(I459
I7
F1.0
S'good'
p391
tp392
a(I459
I8
F1.0
S'good'
p393
tp394
a(I459
I8
F-0.5
S'regular'
p395
tp396
a(I468
I2
I0
S'local'
p397
tp398
a(I514
I0
I0
S'standard'
p399
tp400
a(I555
I1
I0
S'few'
p401
tp402
a(I555
I1
F0.375
S'new'
p403
tp404
a(I555
I2
I0
S'few'
p405
tp406
a(I555
I2
F0.375
S'extra'
p407
tp408
a(I614
I1
F0.375
S'new'
p409
tp410
a(I740
I5
I0
S'standard'
p411
tp412
a(I857
I2
F0.5
S'careful'
p413
tp414
a(I869
I4
F0.625
S'easier'
p415
tp416
a(I869
I4
F-0.25
S'cheaper'
p417
tp418
a(I1119
I0
I0
S'european'
p419
tp420
a(I1119
I0
I0
S'american'
p421
tp422
a(I1119
I3
I0
S'standard'
p423
tp424
as(S'charge'
p425
tp426
(lp427
(I202
I3
F0.125
S'first'
p428
tp429
a(I202
I3
I0
S'full'
p430
tp431
a(I202
I5
I0
S'full'
p432
tp433
a(I324
I22
F-0.75
S'single'
p434
tp435
a(I459
I20
F-0.75
S'single'
p436
tp437
a(I511
I2
I0
S'full'
p438
tp439
a(I750
I2
I0
S'full'
p440
tp441
a(I898
I0
I0
S'full'
p442
tp443
a(I898
I4
I0
S'initial'
p444
tp445
a(I973
I2
I0
S'full'
p446
tp447
a(I1067
I16
I0
S'full'
p448
tp449
a(I1129
I4
I0
S'fast'
p450
tp451
a(I1129
I4
F-0.5
S'long'
p452
tp453
as(S'arrived'
p454
S'on'
p455
S'time'
p456
tp457
(lp458
(I592
I0
F1.0
S'good'
p459
tp460
a(I834
I2
I0
S'french'
p461
tp462
as(S'easy'
p463
S'to'
p464
S'use'
p465
tp466
(lp467
(I1122
I2
F0.625
S'easy'
p468
tp469
as(S'smartphone'
p470
tp471
(lp472
(I14
I0
I0
S'great'
p473
tp474
a(I47
I0
I0
S'android'
p475
tp476
a(I48
I3
F-0.625
S'average'
p477
tp478
a(I111
I10
F-0.375
S'small'
p479
tp480
a(I169
I0
I0
S'great'
p481
tp482
a(I233
I0
I0
S'great'
p483
tp484
a(I280
I0
F0.125
S'first'
p485
tp486
a(I290
I2
F-0.125
S'overall'
p487
tp488
a(I312
I4
F-0.375
S'simple'
p489
tp490
a(I371
I0
I0
S'android'
p491
tp492
a(I371
I0
F-0.25
S'white'
p493
tp494
a(I371
I0
I0
S'android'
p495
tp496
a(I371
I0
I0
S'pebble'
p497
tp498
a(I371
I0
I0
S'blue'
p499
tp500
a(I385
I0
I0
S'great'
p501
tp502
a(I413
I0
F0.125
S'first'
p503
tp504
a(I428
I0
I0
S'android'
p505
tp506
a(I428
I0
F-0.25
S'white'
p507
tp508
a(I431
I0
F0.125
S'first'
p509
tp510
a(I458
I0
F0.375
S'reliable'
p511
tp512
a(I482
I1
I0
S'android'
p513
tp514
a(I491
I0
I0
S'great'
p515
tp516
a(I620
I0
F0.125
S'first'
p517
tp518
a(I620
I5
F0.625
S'easy'
p519
tp520
a(I683
I0
I0
S'android'
p521
tp522
a(I717
I0
I0
S'android'
p523
tp524
a(I738
I1
I0
S'great'
p525
tp526
a(I751
I0
F-0.875
S'worst'
p527
tp528
a(I751
I0
I0
S'android'
p529
tp530
a(I752
I0
I0
S'great'
p531
tp532
a(I828
I0
I0
S'great'
p533
tp534
a(I848
I1
I0
S'great'
p535
tp536
a(I855
I3
I0
S'full'
p537
tp538
a(I856
I0
I0
S'great'
p539
tp540
a(I952
I0
F0.125
S'first'
p541
tp542
a(I1023
I8
F0.125
S'first'
p543
tp544
a(I1080
I0
I0
S'great'
p545
tp546
a(I1085
I3
F0.125
S'first'
p547
tp548
as(S'card'
p549
tp550
(lp551
(I324
I29
I0
g306
tp552
a(I457
I7
F-0.25
g389
tp553
a(I459
I27
I0
g316
tp554
a(I857
I2
F0.5
g413
tp555
a(I1005
I1
I0
g322
tp556
a(I1067
I48
I0
g324
tp557
a(I1069
I0
F-0.25
g326
tp558
as(S'love'
p559
tp560
(lp561
(I143
I8
F-0.75
S'short'
p562
tp563
as(S'n'
p564
S'u'
p565
g279
tp566
(lp567
(I878
I2
F-0.625
S'liar'
p568
tp569
as(S'regular'
p570
S'size'
p571
S'sim'
p572
tp573
(lp574
(I62
I1
F-0.5
S'regular'
p575
tp576
a(I62
I2
I0
S'local'
p577
tp578
a(I62
I2
F-0.5
S'regular'
p579
tp580
a(I324
I7
I0
S'standard'
p581
tp582
a(I324
I7
F-0.5
S'regular'
p583
tp584
a(I459
I5
I0
S'standard'
p585
tp586
a(I459
I5
F-0.5
S'regular'
p587
tp588
a(I514
I0
I0
g399
tp589
a(I514
I0
F0.25
S'bigger'
p590
tp591
a(I922
I2
F-0.5
S'regular'
p592
tp593
a(I922
I2
F0.125
S'able'
p594
tp595
a(I1012
I3
F-0.5
S'regular'
p596
tp597
as(S'fast'
p598
tp599
(lp600
(I115
I6
I0
S'great'
p601
tp602
a(I268
I0
F-0.125
S'super'
p603
tp604
a(I546
I0
F0.75
S'beautiful'
p605
tp606
a(I653
I3
F-0.125
S'super'
p607
tp608
a(I938
I0
I0
S'very'
p609
tp610
a(I963
I0
F1.0
S'good'
p611
tp612
as(S'problem'
p613
tp614
(lp615
(I25
I8
I0
S'only'
p616
tp617
a(I54
I7
I0
S'shipment'
p618
tp619
a(I274
I0
F-0.375
S'small'
p620
tp621
a(I333
I3
F-0.75
S'little'
p622
tp623
a(I351
I4
I0
S'user'
p624
tp625
a(I399
I1
F-0.375
S'serious'
p626
tp627
a(I440
I0
F-0.5
S'did'
p628
tp629
a(I470
I1
I0
S'only'
p630
tp631
a(I499
I4
F-0.5
S'sure'
p632
tp633
a(I541
I0
I0
S'same'
p634
tp635
a(I628
I6
F-0.75
S'single'
p636
tp637
a(I756
I8
I0
S'common'
p638
tp639
a(I770
I6
I0
S'real'
p640
tp641
a(I781
I1
I0
S'user'
p642
tp643
a(I781
I1
I0
S'big'
p644
tp645
a(I791
I0
I0
S'only'
p646
tp647
a(I902
I6
I0
S'final'
p648
tp649
a(I1054
I1
F0.125
S'first'
p650
tp651
a(I1054
I3
F0.5
S'second'
p652
tp653
as(g279
S'ii'
p654
S'mini'
p655
tp656
(lp657
(I499
I5
F-0.625
S'bad'
p658
tp659
a(I813
I0
F0.75
S'worth'
p660
tp661
as(S'good'
p662
tp663
(lp664
(I657
I1
F1.0
S'good'
p665
tp666
as(S'money'
p667
tp668
(lp669
(I112
I2
F0.375
S'much'
p670
tp671
a(I282
I1
F0.75
S'worth'
p672
tp673
a(I302
I5
F0.125
S'amazon'
p674
tp675
a(I356
I20
F0.375
S'extra'
p676
tp677
a(I474
I0
F0.75
S'worth'
p678
tp679
a(I514
I0
F-0.25
S'cheaper'
p680
tp681
a(I514
I0
F0.375
S'available'
p682
tp683
a(I556
I2
I0
S'more'
p684
tp685
a(I716
I7
F-0.5
S'sure'
p686
tp687
a(I923
I1
I0
S'more'
p688
tp689
a(I957
I0
F0.75
S'worth'
p690
tp691
as(S'happy'
p692
tp693
(lp694
(I252
I8
F-0.125
S'super'
p695
tp696
a(I310
I0
I0
S'full'
p697
tp698
a(I932
I1
F1.0
S'good'
p699
tp700
a(I1088
I0
F-0.125
S'super'
p701
tp702
as(S'price'
p703
tp704
(lp705
(I2
I0
F1.0
S'good'
p706
tp707
a(I4
I1
F1.0
S'good'
p708
tp709
a(I22
I0
I0
S'great'
p710
tp711
a(I55
I2
F1.0
S'good'
p712
tp713
a(I227
I1
F0.375
S'new'
p714
tp715
a(I227
I1
I0
S'inclusive'
p716
tp717
a(I245
I2
F1.0
S'good'
p718
tp719
a(I248
I3
I0
S'great'
p720
tp721
a(I256
I1
F1.0
S'good'
p722
tp723
a(I336
I1
I0
S'economic'
p724
tp725
a(I356
I2
I0
S'same'
p726
tp727
a(I385
I0
I0
S'great'
p728
tp729
a(I393
I0
F0.5
S'reasonable'
p730
tp731
a(I393
I0
F0.875
S'nice'
p732
tp733
a(I458
I4
F1.0
S'good'
p734
tp735
a(I564
I3
F-0.5
S'actual'
p736
tp737
a(I583
I0
F1.0
S'good'
p738
tp739
a(I583
I0
F-0.25
S'low'
p740
tp741
a(I593
I2
I0
S'great'
p742
tp743
a(I610
I0
F1.0
S'good'
p744
tp745
a(I630
I1
F0.5
S'reasonable'
p746
tp747
a(I648
I2
I0
S'great'
p748
tp749
a(I667
I3
I0
S'great'
p750
tp751
a(I672
I1
F1.0
S'good'
p752
tp753
a(I690
I0
F0.625
S'accessible'
p754
tp755
a(I704
I1
F1.0
S'good'
p756
tp757
a(I740
I13
F0.375
S'steep'
p758
tp759
a(I751
I21
I0
S'high'
p760
tp761
a(I751
I22
I0
S'high'
p762
tp763
a(I835
I0
F1.0
S'good'
p764
tp765
a(I835
I0
F-0.25
S'cheap'
p766
tp767
a(I876
I0
F1.0
S'good'
p768
tp769
a(I906
I5
F0.25
S'original'
p770
tp771
a(I908
I0
F-0.25
S'higher'
p772
tp773
a(I927
I0
F1.0
S'good'
p774
tp775
a(I980
I1
F0.625
S'perfect'
p776
tp777
a(I1010
I2
F0.625
S'fair'
p778
tp779
a(I1015
I0
I0
S'great'
p780
tp781
a(I1025
I0
I0
S'great'
p782
tp783
a(I1029
I0
F-0.25
S'low'
p784
tp785
a(I1043
I9
I0
S'full'
p786
tp787
a(I1085
I4
I0
S'great'
p788
tp789
a(I1089
I0
I0
S'competitive'
p790
tp791
a(I1094
I2
F0.5
S'reasonable'
p792
tp793
a(I1116
I0
F1.0
S'best'
p794
tp795
as(S'service'
p796
tp797
(lp798
(I31
I5
F-0.25
S'google'
p799
tp800
a(I276
I1
F-0.125
S'slow'
p801
tp802
a(I388
I2
I0
S'internet'
p803
tp804
a(I416
I1
I0
S'only'
p805
tp806
a(I452
I2
F0.5
S'technical'
p807
tp808
a(I492
I1
F0.125
S'first'
p809
tp810
a(I556
I3
F-0.5
S'poor'
p811
tp812
a(I716
I4
F-0.75
S'little'
p813
tp814
a(I833
I2
F0.5
S'technical'
p815
tp816
a(I945
I10
I0
S'questionable'
p817
tp818
a(I967
I0
F1.0
S'good'
p819
tp820
a(I1093
I0
F0.5
S'technical'
p821
tp822
a(I1103
I0
F0.75
S'beautiful'
p823
tp824
a(I1103
I0
F0.875
S'nice'
p825
tp826
as(g564
S'us'
p827
tp828
(lp829
(I1067
I35
F0.125
S'fellow'
p830
tp831
as(g240
S'little'
p832
S'bit'
p833
tp834
(lp835
(I536
I1
F-0.375
S'smaller'
p836
tp837
a(I835
I1
F-0.25
S'low'
p838
tp839
as(S'recommend'
p840
tp841
(lp842
(I130
I1
F0.625
S'safe'
p843
tp844
a(I130
I1
I0
S'efficient'
p845
tp846
a(I625
I0
F1.0
S'better'
p847
tp848
a(I969
I0
F0.875
S'nice'
p849
tp850
a(I969
I0
F0.5
S'functional'
p851
tp852
as(S'product'
p853
tp854
(lp855
(I20
I2
F-0.625
S'bad'
p856
tp857
a(I39
I0
F1.0
S'good'
p858
tp859
a(I71
I0
F1.0
S'good'
p860
tp861
a(I97
I1
F1.0
S'good'
p862
tp863
a(I110
I0
I0
S'great'
p864
tp865
a(I120
I0
F0.5
S'satisfied'
p866
tp867
a(I141
I0
I0
S'fast'
p868
tp869
a(I178
I0
F0.25
S'original'
p870
tp871
a(I214
I3
F-0.625
S'bad'
p872
tp873
a(I216
I0
I0
S'great'
p874
tp875
a(I272
I0
F0.5
S'careful'
p876
tp877
a(I335
I0
F1.0
S'good'
p878
tp879
a(I335
I0
F1.0
S'good'
p880
tp881
a(I356
I1
F0.5
S'technical'
p882
tp883
a(I375
I0
F0.875
S'nice'
p884
tp885
a(I425
I0
F-0.5
S'heavy'
p886
tp887
a(I434
I0
I0
S'great'
p888
tp889
a(I448
I0
F1.0
S'good'
p890
tp891
a(I502
I0
F0.375
S'new'
p892
tp893
a(I508
I0
F1.0
S'good'
p894
tp895
a(I529
I0
I0
S'great'
p896
tp897
a(I578
I0
F0.625
S'easy'
p898
tp899
a(I582
I0
I0
S'full'
p900
tp901
a(I582
I10
F0.375
S'new'
p902
tp903
a(I582
I48
F0.125
S'capable'
p904
tp905
a(I612
I0
F1.0
S'good'
p906
tp907
a(I644
I1
F0.875
S'nice'
p908
tp909
a(I662
I0
F0.75
S'receive'
p910
tp911
a(I662
I0
F0.375
S'new'
p912
tp913
a(I662
I0
F0.25
S'used'
p914
tp915
a(I664
I1
F1.0
S'good'
p916
tp917
a(I697
I1
I0
S'same'
p918
tp919
a(I707
I0
I0
S'great'
p920
tp921
a(I718
I2
F-0.625
S'other'
p922
tp923
a(I735
I1
I0
S'great'
p924
tp925
a(I760
I2
F0.875
S'happy'
p926
tp927
a(I776
I0
F0.125
S'practical'
p928
tp929
a(I843
I0
F1.0
S'good'
p930
tp931
a(I843
I0
F1.0
S'good'
p932
tp933
a(I861
I0
F-0.375
S'small'
p934
tp935
a(I864
I0
F0.875
S'happy'
p936
tp937
a(I870
I1
F1.0
S'good'
p938
tp939
a(I877
I0
F1.0
S'good'
p940
tp941
a(I886
I2
F0.75
S'receive'
p942
tp943
a(I890
I2
F-0.625
S'bad'
p944
tp945
a(I906
I4
F0.375
S'new'
p946
tp947
a(I906
I4
F0.25
S'original'
p948
tp949
a(I911
I0
F1.0
S'good'
p950
tp951
a(I917
I3
I0
S'great'
p952
tp953
a(I920
I0
I0
S'such'
p954
tp955
a(I925
I2
I0
S'great'
p956
tp957
a(I1001
I1
F0.5
S'clear'
p958
tp959
a(I1007
I0
I0
S'great'
p960
tp961
a(I1021
I0
I0
S'great'
p962
tp963
a(I1059
I0
F1.0
S'good'
p964
tp965
a(I1059
I0
F0.125
S'practical'
p966
tp967
a(I1059
I0
F1.0
S'good'
p968
tp969
a(I1067
I35
I0
S'most'
p970
tp971
a(I1086
I0
F1.0
S'good'
p972
tp973
a(I1086
I0
F0.125
S'practical'
p974
tp975
a(I1121
I0
F-0.625
S'other'
p976
tp977
a(I1121
I0
F-0.375
S'small'
p978
tp979
a(I1121
I0
I0
S'slim'
p980
tp981
a(I1128
I5
I0
S'great'
p982
tp983
as(S'right'
p984
tp985
(lp986
(I25
I11
F-0.375
S'manual'
p987
tp988
a(I110
I0
F-0.75
S'comfortable'
p989
tp990
a(I636
I0
F-0.75
S'comfortable'
p991
tp992
as(S'excellent'
p993
S'product'
p994
tp995
(lp996
(I110
I0
I0
g864
tp997
a(I141
I0
I0
g868
tp998
a(I502
I0
F0.375
g892
tp999
a(I578
I0
F1.0
g350
tp1000
a(I578
I0
F0.625
g898
tp1001
a(I776
I0
I0
g364
tp1002
a(I776
I0
F0.125
g928
tp1003
a(I1021
I0
I0
g962
tp1004
as(S'return'
p1005
tp1006
(lp1007
(I725
I1
F0.875
S'agree'
p1008
tp1009
a(I827
I2
F0.5
S'told'
p1010
tp1011
a(I918
I1
F-0.125
S'cant'
p1012
tp1013
a(I958
I0
F0.5
S'live'
p1014
tp1015
a(I1043
I8
I0
S'standard'
p1016
tp1017
as(S'features'
p1018
tp1019
(lp1020
(I40
I0
F0.625
S'easy'
p1021
tp1022
a(I76
I4
F0.375
S'reliable'
p1023
tp1024
a(I166
I5
I0
S'cool'
p1025
tp1026
a(I169
I2
F-0.625
S'other'
p1027
tp1028
a(I269
I0
I0
S'great'
p1029
tp1030
a(I296
I1
F-0.5
S'sure'
p1031
tp1032
a(I324
I0
I0
S'many'
p1033
tp1034
a(I324
I49
F0.875
S'important'
p1035
tp1036
a(I338
I0
I0
S'many'
p1037
tp1038
a(I369
I0
F0.5
S'technical'
p1039
tp1040
a(I431
I3
I0
S'cool'
p1041
tp1042
a(I459
I47
F0.875
S'important'
p1043
tp1044
a(I584
I3
I0
S'great'
p1045
tp1046
a(I591
I2
F-0.625
S'other'
p1047
tp1048
a(I591
I2
I0
S'android'
p1049
tp1050
a(I620
I1
F0.875
S'important'
p1051
tp1052
a(I620
I1
F-0.375
S'small'
p1053
tp1054
a(I620
I11
F-0.375
S'fancier'
p1055
tp1056
a(I754
I1
I0
S'many'
p1057
tp1058
a(I782
I3
F-0.75
S'little'
p1059
tp1060
a(I785
I1
I0
S'great'
p1061
tp1062
a(I786
I0
I0
S'many'
p1063
tp1064
a(I788
I5
I0
S'great'
p1065
tp1066
a(I788
I16
I0
S'notable'
p1067
tp1068
a(I849
I0
I0
S'many'
p1069
tp1070
a(I849
I2
F1.0
S'better'
p1071
tp1072
a(I896
I2
I0
S'many'
p1073
tp1074
a(I952
I1
F0.125
S'first'
p1075
tp1076
a(I961
I0
I0
S'many'
p1077
tp1078
a(I1024
I0
F-0.375
S'small'
p1079
tp1080
a(I1028
I0
F0.625
S'necessary'
p1081
tp1082
a(I1045
I1
I0
S'great'
p1083
tp1084
a(I1067
I73
I0
S'android'
p1085
tp1086
a(I1106
I1
I0
S'many'
p1087
tp1088
a(I1106
I1
I0
S'great'
p1089
tp1090
as(S'restocking'
p1091
S'fee'
p1092
tp1093
(lp1094
(I1043
I13
F0.125
S'charger'
p1095
tp1096
as(S'android'
p1097
tp1098
(lp1099
(I100
I0
F0.375
S'new'
p1100
tp1101
a(I108
I5
F0.375
S'new'
p1102
tp1103
a(I196
I0
F0.125
S'first'
p1104
tp1105
a(I286
I1
F0.125
S'first'
p1106
tp1107
a(I545
I1
F1.0
S'good'
p1108
tp1109
a(I796
I1
F0.375
S'new'
p1110
tp1111
a(I898
I5
I0
S'old'
p1112
tp1113
as(S's3'
p1114
S'mini'
p1115
tp1116
(lp1117
(I31
I3
I0
S'android'
p1118
tp1119
a(I31
I5
I0
S'full'
p1120
tp1121
a(I162
I0
I0
S'great'
p1122
tp1123
a(I169
I3
F-0.5
S'regular'
p1124
tp1125
a(I324
I6
F0.5
S'possible'
p1126
tp1127
a(I324
I9
F1.0
S'good'
p1128
tp1129
a(I326
I0
F0.625
S'perfect'
p1130
tp1131
a(I459
I4
F0.5
S'possible'
p1132
tp1133
a(I459
I7
F1.0
S'good'
p1134
tp1135
a(I514
I0
F0.125
S'last'
p1136
tp1137
a(I514
I0
F-0.5
S'regular'
p1138
tp1139
a(I582
I67
I0
S'own'
p1140
tp1141
a(I588
I2
I0
S'big'
p1142
tp1143
a(I588
I2
F0.625
S'perfect'
p1144
tp1145
a(I749
I1
F-0.375
S'simple'
p1146
tp1147
a(I755
I0
I0
S'different'
p1148
tp1149
a(I933
I3
F0.625
S'perfect'
p1150
tp1151
as(S'order'
p1152
tp1153
(lp1154
(I72
I2
I0
S'exact'
p1155
tp1156
a(I248
I3
F1.0
S'good'
p1157
tp1158
a(I818
I0
F0.375
S'new'
p1159
tp1160
a(I1043
I12
F-0.75
S'wrong'
p1161
tp1162
as(S'network'
p1163
tp1164
(lp1165
(I179
I3
I0
S'mobile'
p1166
tp1167
a(I582
I34
F-0.625
S'other'
p1168
tp1169
a(I582
I34
I0
S'mobile'
p1170
tp1171
a(I582
I50
I0
S'most'
p1172
tp1173
a(I582
I66
F0.125
S'native'
p1174
tp1175
a(I828
I1
F0.5
S'compatible'
p1176
tp1177
a(I1043
I13
I0
S'same'
p1178
tp1179
a(I1043
I14
I0
S'own'
p1180
tp1181
a(I1119
I11
I0
S'own'
p1182
tp1183
as(S'thing'
p1184
tp1185
(lp1186
(I25
I11
I0
S'only'
p1187
tp1188
a(I111
I6
F0.375
S'new'
p1189
tp1190
a(I288
I0
I0
S'only'
p1191
tp1192
a(I324
I31
F1.0
S'good'
p1193
tp1194
a(I388
I2
F-0.625
S'other'
p1195
tp1196
a(I441
I1
F-0.625
S'bad'
p1197
tp1198
a(I459
I29
F1.0
S'good'
p1199
tp1200
a(I471
I2
I0
S'same'
p1201
tp1202
a(I480
I0
F1.0
S'good'
p1203
tp1204
a(I514
I0
I0
S'only'
p1205
tp1206
a(I514
I0
F-0.875
S'negative'
p1207
tp1208
a(I552
I0
F0.125
S'first'
p1209
tp1210
a(I646
I4
F0.125
S'first'
p1211
tp1212
a(I665
I2
F0.125
S'first'
p1213
tp1214
a(I718
I1
I0
S'only'
p1215
tp1216
a(I718
I1
F-0.875
S'negative'
p1217
tp1218
a(I740
I4
F0.125
S'first'
p1219
tp1220
a(I774
I1
I0
S'big'
p1221
tp1222
a(I782
I1
F-0.75
S'little'
p1223
tp1224
a(I788
I7
F0.125
S'first'
p1225
tp1226
a(I817
I8
I0
S'same'
p1227
tp1228
a(I836
I0
F1.0
S'best'
p1229
tp1230
a(I867
I1
I0
S'same'
p1231
tp1232
a(I941
I2
I0
S'only'
p1233
tp1234
a(I955
I0
I0
S'only'
p1235
tp1236
a(I1086
I1
I0
S'only'
p1237
tp1238
as(S'data'
p1239
tp1240
(lp1241
(I161
I5
F-0.25
S'h'
p1242
tp1243
a(I241
I4
I0
S'mobile'
p1244
tp1245
a(I324
I14
I0
S'fast'
p1246
tp1247
a(I459
I12
I0
S'fast'
p1248
tp1249
a(I582
I1
I0
S'mobile'
p1250
tp1251
a(I582
I39
F-0.125
S'slow'
p1252
tp1253
a(I582
I41
F-0.125
S'slow'
p1254
tp1255
a(I870
I0
I0
S'cable'
p1256
tp1257
a(I870
I1
I0
S'cable'
p1258
tp1259
as(g240
S'sim'
p1260
S'card'
p1261
tp1262
(lp1263
(I170
I2
F-0.5
g377
tp1264
a(I324
I9
F1.0
g379
tp1265
a(I324
I10
F1.0
g381
tp1266
a(I324
I10
F-0.5
g383
tp1267
a(I396
I0
I0
g385
tp1268
a(I408
I2
F-0.625
g387
tp1269
a(I457
I7
F-0.25
g389
tp1270
a(I459
I7
F1.0
g391
tp1271
a(I459
I8
F1.0
g393
tp1272
a(I459
I8
F-0.5
g395
tp1273
a(I468
I2
I0
g397
tp1274
a(I514
I0
I0
g399
tp1275
a(I555
I1
I0
g401
tp1276
a(I555
I1
F0.375
g403
tp1277
a(I555
I2
I0
g405
tp1278
a(I555
I2
F0.375
g407
tp1279
a(I614
I1
F0.375
g409
tp1280
a(I740
I5
I0
g411
tp1281
a(I857
I2
F0.5
g413
tp1282
a(I869
I4
F0.625
g415
tp1283
a(I869
I4
F-0.25
g417
tp1284
a(I1119
I0
I0
g419
tp1285
a(I1119
I0
I0
g421
tp1286
a(I1119
I3
I0
g423
tp1287
as(S'size'
p1288
tp1289
(lp1290
(I3
I0
I0
S'great'
p1291
tp1292
a(I62
I1
F-0.5
g575
tp1293
a(I62
I2
I0
g577
tp1294
a(I62
I2
F-0.5
g579
tp1295
a(I104
I1
F0.625
S'perfect'
p1296
tp1297
a(I110
I0
F1.0
S'good'
p1298
tp1299
a(I111
I3
F0.5
S'reasonable'
p1300
tp1301
a(I111
I4
I0
S'closer'
p1302
tp1303
a(I111
I4
I0
S'older'
p1304
tp1305
a(I136
I1
F0.75
S'ideal'
p1306
tp1307
a(I148
I0
F1.0
S'good'
p1308
tp1309
a(I151
I1
F1.0
S'good'
p1310
tp1311
a(I163
I3
I0
S'full'
p1312
tp1313
a(I163
I3
I0
S'big'
p1314
tp1315
a(I166
I4
I0
S'full'
p1316
tp1317
a(I244
I1
F0.625
S'perfect'
p1318
tp1319
a(I245
I1
F0.625
S'perfect'
p1320
tp1321
a(I259
I0
F0.625
S'perfect'
p1322
tp1323
a(I311
I0
I0
S'great'
p1324
tp1325
a(I311
I0
F0.5
S'comparable'
p1326
tp1327
a(I317
I1
F1.0
S'good'
p1328
tp1329
a(I324
I7
I0
g581
tp1330
a(I324
I7
F-0.5
g583
tp1331
a(I349
I0
F1.0
S'good'
p1332
tp1333
a(I356
I4
F-0.375
S'small'
p1334
tp1335
a(I356
I9
I0
S'full'
p1336
tp1337
a(I378
I0
F1.0
S'good'
p1338
tp1339
a(I381
I0
I0
S'same'
p1340
tp1341
a(I393
I1
F0.375
S'similar'
p1342
tp1343
a(I423
I0
F-0.375
S'smaller'
p1344
tp1345
a(I440
I0
F-0.375
S'small'
p1346
tp1347
a(I454
I0
I0
S'same'
p1348
tp1349
a(I458
I2
F0.875
S'nice'
p1350
tp1351
a(I459
I5
I0
g585
tp1352
a(I459
I5
F-0.5
g587
tp1353
a(I497
I0
F0.625
S'perfect'
p1354
tp1355
a(I504
I0
I0
S'great'
p1356
tp1357
a(I514
I0
F0.25
g590
tp1358
a(I515
I0
F0.625
S'perfect'
p1359
tp1360
a(I515
I0
F0.625
S'easy'
p1361
tp1362
a(I549
I1
F0.625
S'easy'
p1363
tp1364
a(I549
I1
F0.875
S'nice'
p1365
tp1366
a(I556
I4
F1.0
S'good'
p1367
tp1368
a(I564
I2
F-0.5
S'regular'
p1369
tp1370
a(I586
I0
F0.625
S'right'
p1371
tp1372
a(I588
I0
I0
S'same'
p1373
tp1374
a(I607
I1
I0
S'same'
p1375
tp1376
a(I636
I0
F1.0
S'good'
p1377
tp1378
a(I696
I0
F0.375
S'complete'
p1379
tp1380
a(I696
I0
F0.625
S'perfect'
p1381
tp1382
a(I726
I0
F1.0
S'good'
p1383
tp1384
a(I751
I21
I0
S'full'
p1385
tp1386
a(I753
I3
F0.125
S'typical'
p1387
tp1388
a(I771
I2
I0
S'same'
p1389
tp1390
a(I818
I6
F0.875
S'nice'
p1391
tp1392
a(I826
I1
F-0.375
S'smaller'
p1393
tp1394
a(I839
I11
I0
S'exact'
p1395
tp1396
a(I843
I0
I0
S'big'
p1397
tp1398
a(I843
I0
F-0.375
S'small'
p1399
tp1400
a(I849
I2
I0
S'great'
p1401
tp1402
a(I860
I0
F-0.375
S'smaller'
p1403
tp1404
a(I876
I0
F0.625
S'perfect'
p1405
tp1406
a(I895
I4
F0.625
S'perfect'
p1407
tp1408
a(I922
I2
F-0.5
g592
tp1409
a(I957
I0
I0
S'big'
p1410
tp1411
a(I962
I0
F0.625
S'easy'
p1412
tp1413
a(I1008
I2
F-0.125
S'overall'
p1414
tp1415
a(I1008
I2
F0.625
S'perfect'
p1416
tp1417
a(I1008
I6
F-0.375
S'smaller'
p1418
tp1419
a(I1012
I3
F-0.5
g596
tp1420
a(I1020
I0
F0.625
S'manageable'
p1421
tp1422
a(I1023
I3
F0.125
S'appropriate'
p1423
tp1424
a(I1041
I1
F-0.125
S'overall'
p1425
tp1426
a(I1064
I2
F1.0
S'good'
p1427
tp1428
a(I1069
I0
I0
S'fast'
p1429
tp1430
a(I1102
I1
F0.625
S'perfect'
p1431
tp1432
a(I1106
I1
F1.0
S'good'
p1433
tp1434
a(I1106
I1
I0
S'most'
p1435
tp1436
as(S'work'
p1437
tp1438
(lp1439
(I266
I0
F1.0
S'good'
p1440
tp1441
a(I1047
I1
F0.375
S'friendly'
p1442
tp1443
as(S'battery'
p1444
S'life'
p1445
tp1446
(lp1447
(I37
I5
F-0.5
S'insane'
p1448
tp1449
a(I62
I3
F0.125
S'impressive'
p1450
tp1451
a(I62
I4
F-0.75
S'short'
p1452
tp1453
a(I62
I4
F0.625
S'productive'
p1454
tp1455
a(I62
I5
F-0.75
S'short'
p1456
tp1457
a(I324
I20
F1.0
S'best'
p1458
tp1459
a(I361
I0
F-0.5
S'poor'
p1460
tp1461
a(I393
I1
F-0.75
S'short'
p1462
tp1463
a(I459
I18
F1.0
S'best'
p1464
tp1465
a(I463
I0
F0.125
S'usual'
p1466
tp1467
a(I463
I0
F-0.625
S'other'
p1468
tp1469
a(I491
I0
F0.375
S'new'
p1470
tp1471
a(I497
I0
F1.0
S'best'
p1472
tp1473
a(I497
I0
F0.125
S'pal'
p1474
tp1475
a(I497
I0
F0.25
S'bigger'
p1476
tp1477
a(I511
I3
F0.5
S'clear'
p1478
tp1479
a(I511
I3
F1.0
S'better'
p1480
tp1481
a(I716
I5
F1.0
S'better'
p1482
tp1483
a(I719
I7
F1.0
S'good'
p1484
tp1485
a(I751
I11
F-0.5
S'long'
p1486
tp1487
a(I820
I4
F0.125
S'typical'
p1488
tp1489
a(I882
I1
F-0.5
S'long'
p1490
tp1491
a(I882
I1
F-0.25
S'low'
p1492
tp1493
a(I882
I1
F-0.5
S'poor'
p1494
tp1495
a(I952
I5
F-0.75
S'short'
p1496
tp1497
a(I994
I3
F1.0
S'good'
p1498
tp1499
a(I1024
I1
I0
S'great'
p1500
tp1501
a(I1051
I10
F-0.5
S'less'
p1502
tp1503
a(I1067
I17
F0.5
S'clear'
p1504
tp1505
a(I1067
I17
F1.0
S'better'
p1506
tp1507
a(I1067
I48
I0
S'more'
p1508
tp1509
a(I1067
I63
F0.375
S'similar'
p1510
tp1511
a(I1122
I4
I0
S'wish'
p1512
tp1513
a(I1134
I1
F0.125
S'impressive'
p1514
tp1515
a(I1134
I2
F-0.75
S'short'
p1516
tp1517
a(I1134
I2
F0.625
S'productive'
p1518
tp1519
as(S'happy'
p1520
S'with'
p1521
S'purchase'
p1522
tp1523
(lp1524
(I58
I0
F0.875
g13
tp1525
a(I84
I1
F0.875
g15
tp1526
a(I119
I3
I0
g17
tp1527
a(I119
I3
F0.875
g19
tp1528
a(I249
I0
F0.875
g25
tp1529
a(I931
I3
F0.875
g41
tp1530
a(I933
I0
F0.875
g43
tp1531
a(I1002
I3
F0.875
g45
tp1532
a(I1023
I7
F0.875
g47
tp1533
as(S'came'
p1534
tp1535
(lp1536
(I162
I0
F-0.125
S'mine'
p1537
tp1538
a(I324
I39
I0
S'android'
p1539
tp1540
a(I459
I37
I0
S'android'
p1541
tp1542
a(I1045
I1
F-0.375
S'manual'
p1543
tp1544
a(I1119
I1
I0
S'french'
p1545
tp1546
as(S'perfect'
p1547
S'size'
p1548
tp1549
(lp1550
(I104
I1
F0.625
g1296
tp1551
a(I110
I0
F1.0
g1298
tp1552
a(I244
I1
F0.625
g1318
tp1553
a(I245
I1
F0.625
g1320
tp1554
a(I259
I0
F0.625
g1322
tp1555
a(I440
I0
F-0.375
g1346
tp1556
a(I497
I0
F0.625
g1354
tp1557
a(I515
I0
F0.625
g1359
tp1558
a(I515
I0
F0.625
g1361
tp1559
a(I636
I0
F1.0
g1377
tp1560
a(I696
I0
F0.375
g1379
tp1561
a(I696
I0
F0.625
g1381
tp1562
a(I759
I1
F0.625
g6
tp1563
a(I876
I0
F0.625
g1405
tp1564
a(I895
I4
F0.625
g1407
tp1565
a(I962
I0
F0.625
g1412
tp1566
a(I1008
I2
F-0.125
g1414
tp1567
a(I1008
I2
F0.625
g1416
tp1568
a(I1041
I1
F-0.125
g1425
tp1569
a(I1064
I2
F1.0
g1427
tp1570
a(I1069
I0
I0
g1429
tp1571
a(I1102
I1
F0.625
g1431
tp1572
as(S'problems'
p1573
tp1574
(lp1575
(I0
I2
F-0.75
S'wrong'
p1576
tp1577
a(I0
I2
I0
S'many'
p1578
tp1579
a(I123
I0
F-0.125
S'present'
p1580
tp1581
a(I283
I3
I0
S'only'
p1582
tp1583
a(I446
I0
F0.375
S'new'
p1584
tp1585
a(I458
I1
F0.625
S'major'
p1586
tp1587
a(I640
I0
I0
S'many'
p1588
tp1589
a(I719
I0
F-0.625
S'other'
p1590
tp1591
a(I791
I1
F0.125
S'above'
p1592
tp1593
a(I794
I0
I0
S'many'
p1594
tp1595
a(I794
I1
I0
S'same'
p1596
tp1597
a(I902
I5
I0
S'more'
p1598
tp1599
as(S'back'
p1600
tp1601
(lp1602
(I597
I0
F0.25
S'original'
p1603
tp1604
as(S'auto'
p1605
S'focus'
p1606
tp1607
(lp1608
(I819
I2
F-0.125
S'slow'
p1609
tp1610
a(I819
I3
I0
S'same'
p1611
tp1612
a(I941
I2
F-0.125
S'slow'
p1613
tp1614
as(S'mini'
p1615
tp1616
(lp1617
(I31
I3
I0
g1118
tp1618
a(I31
I5
I0
g1120
tp1619
a(I162
I0
I0
g1122
tp1620
a(I166
I3
F0.875
S'lucky'
p1621
tp1622
a(I166
I3
F0.125
S'enough'
p1623
tp1624
a(I166
I3
F0.5
S'functional'
p1625
tp1626
a(I189
I6
F-0.125
S'super'
p1627
tp1628
a(I189
I6
F0.625
S'easy'
p1629
tp1630
a(I293
I2
F0.625
S'perfect'
p1631
tp1632
a(I324
I9
F1.0
g1128
tp1633
a(I324
I15
F-0.625
S'free'
p1634
tp1635
a(I379
I0
F1.0
S'best'
p1636
tp1637
a(I381
I0
F-0.5
S'afraid'
p1638
tp1639
a(I459
I7
F1.0
g1134
tp1640
a(I459
I13
F-0.625
S'free'
p1641
tp1642
a(I499
I5
F-0.625
g658
tp1643
a(I514
I0
F0.125
g1136
tp1644
a(I582
I67
I0
g1140
tp1645
a(I588
I2
F0.625
g1144
tp1646
a(I749
I1
F-0.375
g1146
tp1647
a(I755
I0
I0
g1148
tp1648
a(I813
I0
F0.75
g660
tp1649
a(I933
I3
F0.625
g1150
tp1650
as(S'fine'
p1651
tp1652
(lp1653
(I111
I6
I0
S'carrier'
p1654
tp1655
a(I295
I2
I0
S'lag'
p1656
tp1657
a(I528
I1
I0
S'great'
p1658
tp1659
a(I528
I1
I0
S'spanish'
p1660
tp1661
as(S'life'
p1662
tp1663
(lp1664
(I37
I5
F-0.5
g1448
tp1665
a(I62
I3
F0.125
g1450
tp1666
a(I62
I4
F0.625
g1454
tp1667
a(I72
I0
F-0.375
S'daily'
p1668
tp1669
a(I463
I0
F-0.625
g1468
tp1670
a(I491
I0
F0.375
g1470
tp1671
a(I511
I3
F0.5
g1478
tp1672
a(I511
I3
F1.0
g1480
tp1673
a(I716
I5
F1.0
g1482
tp1674
a(I719
I7
F1.0
g1484
tp1675
a(I820
I4
F0.125
g1488
tp1676
a(I882
I1
F-0.5
g1490
tp1677
a(I952
I5
F-0.75
g1496
tp1678
a(I994
I3
F1.0
g1498
tp1679
a(I1051
I10
F-0.5
g1502
tp1680
a(I1067
I17
F0.5
g1504
tp1681
a(I1067
I17
F1.0
g1506
tp1682
a(I1067
I63
F0.375
g1510
tp1683
a(I1134
I1
F0.125
g1514
tp1684
a(I1134
I2
F0.625
g1518
tp1685
as(S'best'
p1686
tp1687
(lp1688
(I594
I0
F0.375
S'new'
p1689
tp1690
as(S'live'
p1691
g564
S'venezuela'
p1692
tp1693
(lp1694
(I1030
I0
F-0.75
g339
tp1695
as(S'dual'
p1696
S'core'
p1697
tp1698
(lp1699
(I983
I1
F0.875
S'nice'
p1700
tp1701
as(S'seller'
p1702
tp1703
(lp1704
(I1
I3
F-0.75
S'stupid'
p1705
tp1706
a(I244
I5
F0.625
S'kind'
p1707
tp1708
a(I247
I0
I0
S'great'
p1709
tp1710
a(I356
I0
I0
S'specific'
p1711
tp1712
a(I356
I2
F0.125
S'first'
p1713
tp1714
a(I356
I2
F0.375
S'available'
p1715
tp1716
a(I445
I0
F-0.625
S'bad'
p1717
tp1718
a(I464
I3
I0
S'write'
p1719
tp1720
a(I491
I1
F1.0
S'good'
p1721
tp1722
a(I837
I1
F1.0
S'good'
p1723
tp1724
a(I946
I3
F0.625
S'trust'
p1725
tp1726
a(I956
I0
F1.0
S'good'
p1727
tp1728
a(I1023
I9
I0
S'fast'
p1729
tp1730
a(I1023
I9
F-0.75
S'had'
p1731
tp1732
a(I1031
I9
I0
S'mobile'
p1733
tp1734
a(I1031
I9
F1.0
S'best'
p1735
tp1736
a(I1031
I10
F-0.875
S'regret'
p1737
tp1738
a(I1035
I1
I0
S'great'
p1739
tp1740
a(I1067
I35
F-0.75
S'likely'
p1741
tp1742
a(I1067
I37
F0.125
S'key'
p1743
tp1744
as(S'samsung'
p1745
S'galaxy'
p1746
S's3'
p1747
tp1748
(lp1749
(I490
I3
F-0.5
g253
tp1750
a(I490
I3
I0
g255
tp1751
a(I490
I3
F0.625
S'easy'
p1752
tp1753
a(I992
I0
I0
S'big'
p1754
tp1755
as(S'great'
p1756
tp1757
(lp1758
(I268
I0
F0.75
S'beautiful'
p1759
tp1760
as(S'battery'
p1761
tp1762
(lp1763
(I20
I3
F-0.625
S'bad'
p1764
tp1765
a(I20
I4
F-0.625
S'bad'
p1766
tp1767
a(I31
I3
I0
S'standard'
p1768
tp1769
a(I54
I6
F0.375
S'new'
p1770
tp1771
a(I62
I4
F-0.75
g1452
tp1772
a(I62
I5
F-0.75
g1456
tp1773
a(I93
I0
F-0.75
S'dead'
p1774
tp1775
a(I101
I1
F0.125
S'last'
p1776
tp1777
a(I110
I0
F-0.625
S'light'
p1778
tp1779
a(I110
I0
F1.0
S'good'
p1780
tp1781
a(I177
I1
I0
S'sized'
p1782
tp1783
a(I179
I3
F0.125
S'last'
p1784
tp1785
a(I209
I2
F0.125
S'last'
p1786
tp1787
a(I209
I2
I0
S'more'
p1788
tp1789
a(I227
I1
I0
S'old'
p1790
tp1791
a(I239
I0
F-0.75
S'dead'
p1792
tp1793
a(I241
I4
F1.0
S'good'
p1794
tp1795
a(I269
I3
F-0.75
S'sufficient'
p1796
tp1797
a(I271
I0
F0.625
S'perfect'
p1798
tp1799
a(I293
I6
F-0.75
S'worse'
p1800
tp1801
a(I324
I20
F1.0
g1458
tp1802
a(I325
I4
F-0.75
S'dead'
p1803
tp1804
a(I331
I0
F0.125
S'last'
p1805
tp1806
a(I361
I0
F-0.5
g1460
tp1807
a(I393
I1
F-0.75
g1462
tp1808
a(I406
I1
I0
S'generic'
p1809
tp1810
a(I407
I2
F0.375
S'new'
p1811
tp1812
a(I423
I2
F1.0
S'good'
p1813
tp1814
a(I432
I2
F0.125
S'last'
p1815
tp1816
a(I459
I18
F1.0
g1464
tp1817
a(I463
I0
F0.125
g1466
tp1818
a(I497
I0
F1.0
g1472
tp1819
a(I497
I0
F0.125
g1474
tp1820
a(I497
I0
F0.25
g1476
tp1821
a(I498
I2
F0.125
S'last'
p1822
tp1823
a(I514
I0
F0.125
S'last'
p1824
tp1825
a(I514
I0
F-0.25
S'higher'
p1826
tp1827
a(I552
I2
F0.375
S'new'
p1828
tp1829
a(I602
I0
F0.25
S'original'
p1830
tp1831
a(I620
I5
F0.125
S'last'
p1832
tp1833
a(I671
I0
F0.375
S'new'
p1834
tp1835
a(I685
I0
F-0.625
S'bad'
p1836
tp1837
a(I707
I0
F-0.625
S'light'
p1838
tp1839
a(I707
I0
F1.0
S'good'
p1840
tp1841
a(I744
I0
F0.5
S'incomplete'
p1842
tp1843
a(I751
I11
F-0.5
g1486
tp1844
a(I782
I2
I0
S'great'
p1845
tp1846
a(I803
I0
F0.25
S'powerful'
p1847
tp1848
a(I837
I3
I0
S'great'
p1849
tp1850
a(I872
I0
I0
S'later'
p1851
tp1852
a(I878
I0
F0.375
S'new'
p1853
tp1854
a(I878
I0
I0
S'generic'
p1855
tp1856
a(I882
I1
F-0.25
g1492
tp1857
a(I882
I1
F-0.5
g1494
tp1858
a(I989
I0
I0
S'quick'
p1859
tp1860
a(I1008
I5
F0.375
S'new'
p1861
tp1862
a(I1024
I1
I0
g1500
tp1863
a(I1034
I0
F-0.5
S'poor'
p1864
tp1865
a(I1035
I5
F-0.625
S'bad'
p1866
tp1867
a(I1035
I6
F-0.625
S'bad'
p1868
tp1869
a(I1042
I0
F1.0
S'good'
p1870
tp1871
a(I1065
I0
F0.125
S'first'
p1872
tp1873
a(I1067
I48
I0
g1508
tp1874
a(I1119
I8
I0
S'fast'
p1875
tp1876
a(I1119
I8
F-0.375
S'daily'
p1877
tp1878
a(I1122
I4
I0
g1512
tp1879
a(I1124
I0
F0.25
S'original'
p1880
tp1881
a(I1134
I2
F-0.75
g1516
tp1882
as(S'smart'
p1883
tp1884
(lp1885
(I44
I0
F0.125
S'first'
p1886
tp1887
a(I219
I1
I0
S'competitive'
p1888
tp1889
a(I219
I1
F-0.625
S'other'
p1890
tp1891
a(I300
I0
F0.125
S'first'
p1892
tp1893
a(I394
I0
F-0.625
S'other'
p1894
tp1895
a(I455
I2
I0
S'more'
p1896
tp1897
a(I455
I2
F0.5
S'expensive'
p1898
tp1899
a(I455
I2
F-0.375
S'small'
p1900
tp1901
a(I455
I2
F-0.625
S'light'
p1902
tp1903
a(I615
I0
F-0.375
S'small'
p1904
tp1905
a(I719
I6
F0.375
S'new'
p1906
tp1907
a(I770
I2
F0.125
S'able'
p1908
tp1909
a(I770
I2
F0.375
S'newer'
p1910
tp1911
a(I770
I13
I0
S'old'
p1912
tp1913
a(I802
I0
I0
S'great'
p1914
tp1915
a(I802
I0
F-0.375
S'small'
p1916
tp1917
a(I814
I2
I0
S'most'
p1918
tp1919
a(I1122
I5
I0
S'great'
p1920
tp1921
as(S'thank'
p1922
tp1923
(lp1924
(I118
I0
F0.875
S'happy'
p1925
tp1926
a(I360
I0
I0
S'efficient'
p1927
tp1928
a(I594
I0
F0.875
S'happy'
p1929
tp1930
a(I594
I0
F0.875
S'happy'
p1931
tp1932
as(S'cell'
p1933
tp1934
(lp1935
(I20
I1
F1.0
S'good'
p1936
tp1937
a(I20
I1
F1.0
S'good'
p1938
tp1939
a(I30
I1
F-0.625
S'other'
p1940
tp1941
a(I430
I0
F0.875
S'happy'
p1942
tp1943
a(I549
I0
I0
S'more'
p1944
tp1945
a(I549
I0
I0
S'fast'
p1946
tp1947
a(I556
I2
I0
S'large'
p1948
tp1949
a(I584
I0
F0.375
S'new'
p1950
tp1951
a(I644
I0
F1.0
S'good'
p1952
tp1953
a(I690
I0
F1.0
S'best'
p1954
tp1955
a(I700
I0
F0.375
S'new'
p1956
tp1957
a(I706
I0
F1.0
S'good'
p1958
tp1959
a(I874
I0
F1.0
S'best'
p1960
tp1961
a(I906
I1
I0
S'generic'
p1962
tp1963
a(I971
I0
F0.125
S'charger'
p1964
tp1965
a(I971
I0
F-0.625
S'bad'
p1966
tp1967
a(I1034
I0
F1.0
S'good'
p1968
tp1969
a(I1034
I0
F-0.625
S'light'
p1970
tp1971
a(I1106
I3
F0.25
S'unlocked'
p1972
tp1973
a(I1107
I0
I0
S'great'
p1974
tp1975
a(I1121
I0
F1.0
S'best'
p1976
tp1977
as(S'calls'
p1978
tp1979
(lp1980
(I202
I7
F0.875
S'important'
p1981
tp1982
a(I324
I12
F0.5
S'clear'
p1983
tp1984
a(I459
I10
F0.5
S'clear'
p1985
tp1986
a(I770
I7
F-0.5
S'sudden'
p1987
tp1988
a(I865
I2
F0.25
S'responsive'
p1989
tp1990
a(I865
I2
F0.5
S'clear'
p1991
tp1992
a(I1035
I2
I0
S'later'
p1993
tp1994
as(S'works'
p1995
S'great'
p1996
tp1997
(lp1998
(I208
I1
I0
S'great'
p1999
tp2000
a(I212
I3
I0
S'great'
p2001
tp2002
as(S'able'
p2003
S'to'
p2004
S'use'
p2005
tp2006
(lp2007
(I514
I0
F-0.625
S'average'
p2008
tp2009
a(I1067
I59
F-0.375
S'daily'
p2010
tp2011
as(S'unlocked'
p2012
S'android'
p2013
S'smartphone'
p2014
tp2015
(lp2016
(I47
I0
I0
g475
tp2017
a(I371
I0
I0
g491
tp2018
a(I371
I0
F-0.25
g493
tp2019
a(I371
I0
I0
g495
tp2020
a(I371
I0
I0
g497
tp2021
a(I371
I0
I0
g499
tp2022
a(I428
I0
I0
g505
tp2023
a(I428
I0
F-0.25
g507
tp2024
a(I482
I1
I0
g513
tp2025
a(I683
I0
I0
g521
tp2026
a(I717
I0
I0
g523
tp2027
as(S'screen'
p2028
tp2029
(lp2030
(I62
I2
F0.75
S'beautiful'
p2031
tp2032
a(I72
I2
F0.125
S'last'
p2033
tp2034
a(I104
I1
F0.75
S'beautiful'
p2035
tp2036
a(I112
I2
F0.125
S'protective'
p2037
tp2038
a(I177
I1
F0.25
S'powerful'
p2039
tp2040
a(I177
I1
F1.0
S'good'
p2041
tp2042
a(I223
I3
F0.5
S'clear'
p2043
tp2044
a(I223
I3
I0
S'sensitive'
p2045
tp2046
a(I244
I1
F0.75
S'beautiful'
p2047
tp2048
a(I290
I1
F1.0
S'good'
p2049
tp2050
a(I290
I1
F0.625
S'easy'
p2051
tp2052
a(I294
I1
F0.625
S'easy'
p2053
tp2054
a(I294
I1
I0
S'sensitive'
p2055
tp2056
a(I324
I15
I0
S'fast'
p2057
tp2058
a(I332
I0
I0
S'big'
p2059
tp2060
a(I343
I0
I0
S'large'
p2061
tp2062
a(I344
I0
F1.0
S'good'
p2063
tp2064
a(I355
I0
F0.25
S'sharp'
p2065
tp2066
a(I383
I1
F-0.75
S'bright'
p2067
tp2068
a(I383
I1
F0.75
S'beautiful'
p2069
tp2070
a(I413
I9
F-0.375
S'small'
p2071
tp2072
a(I420
I3
F0.5
S'comparable'
p2073
tp2074
a(I420
I3
F-0.75
S'bright'
p2075
tp2076
a(I425
I0
F0.625
S'easy'
p2077
tp2078
a(I425
I0
I0
S'sensitive'
p2079
tp2080
a(I439
I1
F0.25
S'larger'
p2081
tp2082
a(I459
I13
I0
S'fast'
p2083
tp2084
a(I468
I3
F-0.375
S'smaller'
p2085
tp2086
a(I468
I3
I0
S'own'
p2087
tp2088
a(I472
I0
F0.25
S'sharp'
p2089
tp2090
a(I513
I6
F0.25
S'responsive'
p2091
tp2092
a(I536
I2
I0
S'big'
p2093
tp2094
a(I715
I3
F-0.375
S'black'
p2095
tp2096
a(I750
I3
F0.5
S'clear'
p2097
tp2098
a(I775
I11
I0
S'close'
p2099
tp2100
a(I788
I6
F0.25
S'professional'
p2101
tp2102
a(I788
I6
F0.5
S'clearest'
p2103
tp2104
a(I788
I7
F0.5
S'clear'
p2105
tp2106
a(I788
I7
I0
S'detailed'
p2107
tp2108
a(I799
I0
F-0.375
S'black'
p2109
tp2110
a(I804
I1
I0
S'big'
p2111
tp2112
a(I804
I1
I0
S'big'
p2113
tp2114
a(I914
I1
F0.875
S'nice'
p2115
tp2116
a(I939
I1
F-0.375
S'smaller'
p2117
tp2118
a(I941
I1
I0
S'fast'
p2119
tp2120
a(I954
I2
F-0.75
S'dead'
p2121
tp2122
a(I1034
I0
I0
S'wide'
p2123
tp2124
a(I1034
I0
F1.0
S'good'
p2125
tp2126
a(I1041
I1
F0.625
S'finish'
p2127
tp2128
a(I1041
I1
F0.625
S'perfect'
p2129
tp2130
a(I1044
I1
F0.875
S'nice'
p2131
tp2132
a(I1045
I1
F0.5
S'touch'
p2133
tp2134
a(I1059
I0
F1.0
S'good'
p2135
tp2136
a(I1069
I0
I0
S'great'
p2137
tp2138
a(I1102
I1
F0.75
S'beautiful'
p2139
tp2140
a(I1134
I0
F0.75
S'beautiful'
p2141
tp2142
as(S'time'
p2143
tp2144
(lp2145
(I11
I3
F1.0
S'good'
p2146
tp2147
a(I76
I4
F0.375
S'early'
p2148
tp2149
a(I87
I0
F0.125
S'first'
p2150
tp2151
a(I150
I0
F-0.5
S'long'
p2152
tp2153
a(I163
I3
F-0.875
S'hard'
p2154
tp2155
a(I191
I1
F-0.5
S'long'
p2156
tp2157
a(I217
I1
F0.5
S'second'
p2158
tp2159
a(I230
I1
F-0.625
S'other'
p2160
tp2161
a(I252
I0
F0.125
S'first'
p2162
tp2163
a(I333
I2
F-0.625
S'glad'
p2164
tp2165
a(I396
I2
F0.625
S'easy'
p2166
tp2167
a(I396
I2
F0.125
S'first'
p2168
tp2169
a(I471
I2
F0.125
S'first'
p2170
tp2171
a(I471
I2
F-0.375
S'happen'
p2172
tp2173
a(I502
I0
I0
S'more'
p2174
tp2175
a(I539
I0
F-0.75
S'short'
p2176
tp2177
a(I539
I0
I0
S'great'
p2178
tp2179
a(I552
I5
I0
S'blue'
p2180
tp2181
a(I577
I1
I0
S'dial'
p2182
tp2183
a(I592
I0
F1.0
g459
tp2184
a(I616
I1
F0.875
S'happy'
p2185
tp2186
a(I620
I1
F-0.5
S'long'
p2187
tp2188
a(I716
I5
I0
S'same'
p2189
tp2190
a(I716
I7
F0.75
S'worth'
p2191
tp2192
a(I747
I1
F0.125
S'first'
p2193
tp2194
a(I777
I0
F-0.625
S'bad'
p2195
tp2196
a(I834
I2
I0
g461
tp2197
a(I839
I0
F0.125
S'first'
p2198
tp2199
a(I857
I3
F-0.5
S'long'
p2200
tp2201
a(I865
I3
F-0.125
S'overall'
p2202
tp2203
a(I892
I0
F0.125
S'first'
p2204
tp2205
a(I934
I4
I0
S'closer'
p2206
tp2207
a(I934
I4
I0
S'next'
p2208
tp2209
a(I937
I0
F0.25
S'original'
p2210
tp2211
a(I958
I0
F0.125
S'first'
p2212
tp2213
a(I991
I0
I0
S'same'
p2214
tp2215
a(I1008
I3
I0
S'same'
p2216
tp2217
a(I1011
I1
F0.125
S'first'
p2218
tp2219
a(I1011
I1
I0
S'great'
p2220
tp2221
a(I1027
I3
I0
S'third'
p2222
tp2223
a(I1041
I1
F1.0
S'good'
p2224
tp2225
a(I1065
I1
I0
S'most'
p2226
tp2227
a(I1122
I0
I0
S'more'
p2228
tp2229
as(S'galaxy'
p2230
S's3'
p2231
S'mini'
p2232
tp2233
(lp2234
(I31
I3
I0
g1118
tp2235
a(I31
I3
F0.25
S'familiar'
p2236
tp2237
a(I31
I5
I0
g1120
tp2238
a(I233
I0
F0.375
S'much'
p2239
tp2240
a(I233
I0
I0
S'normal'
p2241
tp2242
a(I588
I2
I0
g1142
tp2243
a(I588
I2
F0.625
g1144
tp2244
as(g564
S'venezuela'
p2245
tp2246
(lp2247
(I36
I1
I0
g331
tp2248
a(I67
I0
I0
g333
tp2249
a(I352
I0
F0.375
g335
tp2250
a(I809
I2
F1.0
g337
tp2251
a(I1030
I0
F-0.75
g339
tp2252
as(S'just'
p2253
S'right'
p2254
S'size'
p2255
tp2256
(lp2257
(I62
I2
I0
g577
tp2258
a(I62
I2
F-0.5
g579
tp2259
a(I514
I0
F0.25
g590
tp2260
as(S'months'
p2261
tp2262
(lp2263
(I0
I1
I0
S'few'
p2264
tp2265
a(I197
I1
F0.125
S'first'
p2266
tp2267
a(I209
I0
F1.0
S'good'
p2268
tp2269
a(I209
I2
I0
S'later'
p2270
tp2271
a(I340
I0
I0
S'few'
p2272
tp2273
a(I451
I0
I0
S'great'
p2274
tp2275
a(I451
I0
F-0.5
S'sudden'
p2276
tp2277
a(I451
I0
F-0.75
S'unresponsive'
p2278
tp2279
a(I544
I2
I0
S'few'
p2280
tp2281
a(I725
I1
F-0.5
S'less'
p2282
tp2283
a(I751
I21
I0
S'more'
p2284
tp2285
a(I770
I10
F-0.5
S'sudden'
p2286
tp2287
a(I888
I0
I0
S'great'
p2288
tp2289
a(I888
I0
F0.375
S'working'
p2290
tp2291
a(I888
I0
F0.375
S'new'
p2292
tp2293
a(I978
I1
I0
S'great'
p2294
tp2295
a(I1035
I1
I0
S'later'
p2296
tp2297
as(S'nternal'
p2298
S'memory'
p2299
tp2300
(lp2301
(I31
I3
I0
S'internal'
p2302
tp2303
a(I233
I0
F0.375
S'much'
p2304
tp2305
a(I233
I0
I0
S'internal'
p2306
tp2307
a(I324
I25
I0
S'internal'
p2308
tp2309
a(I348
I3
I0
S'internal'
p2310
tp2311
a(I348
I5
I0
S'internal'
p2312
tp2313
a(I348
I5
I0
S'full'
p2314
tp2315
a(I459
I23
I0
S'internal'
p2316
tp2317
a(I477
I0
I0
S'internal'
p2318
tp2319
a(I511
I7
F-0.25
S'direct'
p2320
tp2321
a(I511
I7
F-0.625
S'free'
p2322
tp2323
a(I511
I7
I0
S'internal'
p2324
tp2325
a(I552
I0
I0
S'internal'
p2326
tp2327
a(I850
I0
I0
S'internal'
p2328
tp2329
a(I932
I1
I0
S'internal'
p2330
tp2331
a(I983
I5
I0
S'internal'
p2332
tp2333
a(I1023
I2
I0
S'large'
p2334
tp2335
a(I1023
I2
I0
S'internal'
p2336
tp2337
a(I1067
I21
F-0.5
S'actual'
p2338
tp2339
a(I1067
I21
F-0.625
S'free'
p2340
tp2341
a(I1067
I21
I0
S'internal'
p2342
tp2343
as(S'working'
p2344
tp2345
(lp2346
(I359
I3
F1.0
S'good'
p2347
tp2348
a(I912
I0
F1.0
S'good'
p2349
tp2350
as(S'galaxy'
p2351
S's3'
p2352
tp2353
(lp2354
(I31
I3
F0.25
g2236
tp2355
a(I62
I3
I0
S'galaxy'
p2356
tp2357
a(I233
I0
F0.375
g2239
tp2358
a(I233
I0
I0
g2241
tp2359
a(I490
I3
F-0.5
g253
tp2360
a(I490
I3
I0
g255
tp2361
a(I490
I3
F0.625
g1752
tp2362
a(I510
I2
F-0.5
S'regular'
p2363
tp2364
a(I510
I2
I0
S'big'
p2365
tp2366
a(I564
I2
I0
S'big'
p2367
tp2368
a(I567
I0
F-0.375
S'small'
p2369
tp2370
a(I567
I0
F1.0
S'good'
p2371
tp2372
a(I588
I2
I0
g1142
tp2373
a(I933
I1
I0
S'normal'
p2374
tp2375
a(I933
I1
I0
S'big'
p2376
tp2377
a(I982
I0
F0.25
S'bigger'
p2378
tp2379
a(I992
I0
I0
g1754
tp2380
a(I1073
I0
I0
S'old'
p2381
tp2382
a(I1134
I1
I0
S'galaxy'
p2383
tp2384
as(S'wife'
p2385
tp2386
(lp2387
(I115
I2
F0.875
S'happy'
p2388
tp2389
a(I335
I0
F0.875
S'happy'
p2390
tp2391
a(I364
I0
F0.875
S'happy'
p2392
tp2393
a(I455
I1
F-0.375
S'small'
p2394
tp2395
a(I455
I1
F-0.625
S'light'
p2396
tp2397
a(I637
I0
F0.625
S'right'
p2398
tp2399
a(I724
I1
I0
S'more'
p2400
tp2401
a(I730
I0
F0.875
S'happy'
p2402
tp2403
a(I852
I0
F-0.375
S'simple'
p2404
tp2405
a(I905
I0
I0
S'fast'
p2406
tp2407
a(I905
I0
I0
S'android'
p2408
tp2409
a(I1006
I0
F0.875
S'happy'
p2410
tp2411
as(S'everything'
p2412
tp2413
(lp2414
(I65
I0
F-0.625
S'light'
p2415
tp2416
a(I65
I0
F0.875
S'nice'
p2417
tp2418
a(I65
I0
I0
S'great'
p2419
tp2420
a(I248
I0
F0.875
S'attractive'
p2421
tp2422
a(I274
I2
I0
S'great'
p2423
tp2424
a(I328
I0
F0.625
S'easy'
p2425
tp2426
a(I328
I0
I0
S'least'
p2427
tp2428
a(I342
I3
F-0.625
S'other'
p2429
tp2430
a(I342
I3
F0.375
S'new'
p2431
tp2432
a(I343
I0
F-0.25
S'cheap'
p2433
tp2434
a(I435
I2
I0
S'compact'
p2435
tp2436
a(I602
I1
F0.625
S'perfect'
p2437
tp2438
a(I680
I0
I0
S'great'
p2439
tp2440
a(I748
I4
I0
S'fast'
p2441
tp2442
a(I839
I9
I0
S'great'
p2443
tp2444
a(I879
I3
I0
S'great'
p2445
tp2446
a(I1000
I2
I0
S'great'
p2447
tp2448
a(I1002
I2
F0.125
S'practical'
p2449
tp2450
a(I1063
I0
F1.0
S'good'
p2451
tp2452
a(I1071
I3
I0
S'same'
p2453
tp2454
as(S'samsung'
p2455
tp2456
(lp2457
(I25
I10
F0.875
S'reputable'
p2458
tp2459
a(I83
I1
I0
g245
tp2460
a(I91
I1
I0
S'same'
p2461
tp2462
a(I91
I1
F-0.625
S'other'
p2463
tp2464
a(I220
I0
F0.375
g247
tp2465
a(I293
I7
F0.375
g65
tp2466
a(I311
I2
F-0.625
g249
tp2467
a(I326
I1
I0
S'full'
p2468
tp2469
a(I359
I0
F-0.625
S'other'
p2470
tp2471
a(I518
I0
I0
S'real'
p2472
tp2473
a(I532
I0
F0.5
g257
tp2474
a(I577
I0
I0
S'real'
p2475
tp2476
a(I647
I4
F-0.625
S'other'
p2477
tp2478
a(I757
I0
F0.25
S'original'
p2479
tp2480
a(I768
I2
F0.375
S'new'
p2481
tp2482
a(I862
I0
I0
g269
tp2483
a(I890
I4
F0.5
S'technical'
p2484
tp2485
a(I968
I1
F0.875
g273
tp2486
a(I968
I1
F0.375
g275
tp2487
a(I1012
I0
F0.375
S'new'
p2488
tp2489
a(I1067
I33
F0.25
S'original'
p2490
tp2491
a(I1067
I66
F0.25
S'original'
p2492
tp2493
a(I1087
I1
F0.25
S'original'
p2494
tp2495
as(S'camera'
p2496
tp2497
(lp2498
(I13
I0
I0
S'user'
p2499
tp2500
a(I13
I0
F-0.375
S'small'
p2501
tp2502
a(I13
I0
F0.875
S'nice'
p2503
tp2504
a(I44
I2
F0.875
S'nice'
p2505
tp2506
a(I48
I6
F1.0
S'best'
p2507
tp2508
a(I244
I8
F-0.5
S'regular'
p2509
tp2510
a(I344
I1
F-0.125
S'bean'
p2511
tp2512
a(I362
I0
F1.0
S'good'
p2513
tp2514
a(I362
I0
F-0.375
S'small'
p2515
tp2516
a(I421
I0
F1.0
S'good'
p2517
tp2518
a(I467
I0
I0
S'incredible'
p2519
tp2520
a(I499
I2
F0.375
S'new'
p2521
tp2522
a(I501
I2
I0
S'great'
p2523
tp2524
a(I543
I0
I0
S'great'
p2525
tp2526
a(I615
I0
F-0.5
S'insane'
p2527
tp2528
a(I774
I3
F-0.125
S'front'
p2529
tp2530
a(I945
I8
I0
S'same'
p2531
tp2532
a(I1047
I0
I0
S'great'
p2533
tp2534
a(I1069
I0
I0
S'great'
p2535
tp2536
a(I1098
I1
F1.0
S'good'
p2537
tp2538
a(I1119
I10
F1.0
S'good'
p2539
tp2540
as(S'using'
p2541
tp2542
(lp2543
(I88
I1
F0.25
S'familiar'
p2544
tp2545
a(I582
I42
F0.625
S'interested'
p2546
tp2547
as(g240
S'great'
p2548
S'smartphone'
p2549
tp2550
(lp2551
(I14
I0
I0
g473
tp2552
a(I169
I0
I0
g481
tp2553
a(I233
I0
I0
g483
tp2554
a(I280
I0
F0.125
g485
tp2555
a(I385
I0
I0
g501
tp2556
a(I491
I0
I0
g515
tp2557
a(I738
I1
I0
g525
tp2558
a(I752
I0
I0
g531
tp2559
a(I828
I0
I0
g533
tp2560
a(I848
I1
I0
g535
tp2561
a(I856
I0
I0
g539
tp2562
a(I1080
I0
I0
g545
tp2563
as(S'mobile'
p2564
tp2565
(lp2566
(I207
I0
F1.0
S'good'
p2567
tp2568
a(I237
I0
F1.0
S'good'
p2569
tp2570
a(I306
I0
I0
S'same'
p2571
tp2572
as(S'galaxy'
p2573
tp2574
(lp2575
(I28
I1
F-0.5
S'regular'
p2576
tp2577
a(I31
I3
F0.25
g2236
tp2578
a(I149
I1
F-0.5
S'regular'
p2579
tp2580
a(I149
I1
I0
S'big'
p2581
tp2582
a(I233
I0
F0.375
g2239
tp2583
a(I233
I0
I0
g2241
tp2584
a(I312
I0
F-0.5
S'regular'
p2585
tp2586
a(I394
I0
F1.0
g251
tp2587
a(I490
I3
F-0.5
g253
tp2588
a(I490
I3
I0
g255
tp2589
a(I510
I2
F-0.5
g2363
tp2590
a(I539
I2
F-0.5
S'regular'
p2591
tp2592
a(I567
I0
F-0.375
g2369
tp2593
a(I607
I0
F-0.375
S'smaller'
p2594
tp2595
a(I607
I0
I0
S'more'
p2596
tp2597
a(I751
I2
I0
g259
tp2598
a(I751
I8
I0
S'real'
p2599
tp2600
a(I751
I10
I0
S'real'
p2601
tp2602
a(I751
I11
I0
g261
tp2603
a(I751
I12
F-0.75
g263
tp2604
a(I751
I20
I0
g265
tp2605
a(I862
I0
F-0.5
g267
tp2606
a(I863
I0
I0
S'big'
p2607
tp2608
a(I895
I2
F0.375
S'new'
p2609
tp2610
a(I933
I1
I0
g2374
tp2611
a(I939
I1
I0
S'standard'
p2612
tp2613
a(I967
I0
I0
g271
tp2614
a(I982
I0
F0.25
g2378
tp2615
a(I1002
I1
F0.375
S'new'
p2616
tp2617
a(I1073
I0
I0
g2381
tp2618
as(S'custom'
p2619
S'rom'
p2620
tp2621
(lp2622
(I1067
I45
F-0.5
S'sure'
p2623
tp2624
as(S'latin'
p2625
S'america'
p2626
tp2627
(lp2628
(I453
I0
I0
S'least'
p2629
tp2630
a(I582
I51
I0
S'most'
p2631
tp2632
as(S'works'
p2633
tp2634
(lp2635
(I66
I0
I0
S'android'
p2636
tp2637
a(I67
I0
F1.0
S'good'
p2638
tp2639
a(I208
I1
I0
g1999
tp2640
a(I212
I3
I0
g2001
tp2641
a(I311
I2
I0
S'many'
p2642
tp2643
a(I617
I0
F0.375
S'similar'
p2644
tp2645
a(I677
I0
I0
S'mobile'
p2646
tp2647
a(I856
I2
F0.75
S'beautiful'
p2648
tp2649
a(I856
I2
F1.0
S'good'
p2650
tp2651
a(I982
I0
I0
S'same'
p2652
tp2653
a(I1036
I0
F-0.375
S'small'
p2654
tp2655
a(I1036
I0
I0
S'fast'
p2656
tp2657
a(I1036
I0
F0.625
S'easy'
p2658
tp2659
as(S'to'
p2660
S'change'
p2661
S'language'
p2662
tp2663
(lp2664
(I9
I0
F-0.125
S'foreign'
p2665
tp2666
a(I163
I12
F0.125
S'able'
p2667
tp2668
a(I192
I0
I0
S'spanish'
p2669
tp2670
a(I620
I2
I0
S'different'
p2671
tp2672
as(S'better'
p2673
tp2674
(lp2675
(I1077
I0
F0.375
S'much'
p2676
tp2677
as(S'device'
p2678
tp2679
(lp2680
(I52
I0
F0.875
S'nice'
p2681
tp2682
a(I95
I0
F1.0
S'good'
p2683
tp2684
a(I129
I0
F1.0
S'good'
p2685
tp2686
a(I179
I4
F0.875
S'nice'
p2687
tp2688
a(I201
I0
F1.0
S'good'
p2689
tp2690
a(I261
I0
I0
S'next'
p2691
tp2692
a(I261
I2
F-0.625
S'other'
p2693
tp2694
a(I306
I0
F1.0
S'good'
p2695
tp2696
a(I324
I36
I0
S'android'
p2697
tp2698
a(I332
I0
I0
S'great'
p2699
tp2700
a(I337
I0
F0.25
S'unlocked'
p2701
tp2702
a(I419
I2
F-0.25
S'battery'
p2703
tp2704
a(I459
I34
I0
S'android'
p2705
tp2706
a(I483
I0
F-0.375
S'smaller'
p2707
tp2708
a(I582
I68
I0
S'mobile'
p2709
tp2710
a(I588
I4
F-0.625
S'free'
p2711
tp2712
a(I668
I0
F1.0
S'good'
p2713
tp2714
a(I889
I0
F1.0
S'best'
p2715
tp2716
a(I917
I2
I0
S'great'
p2717
tp2718
a(I939
I1
I0
S'user'
p2719
tp2720
as(S'real'
p2721
S'galaxy'
p2722
S'siii'
p2723
tp2724
(lp2725
(I751
I2
I0
g259
tp2726
a(I751
I8
I0
g2599
tp2727
a(I751
I10
I0
g2601
tp2728
a(I751
I11
I0
g261
tp2729
a(I751
I20
I0
g265
tp2730
as(S'samsung'
p2731
S'galaxy'
p2732
tp2733
(lp2734
(I83
I1
I0
g245
tp2735
a(I220
I0
F0.375
g247
tp2736
a(I311
I2
F-0.625
g249
tp2737
a(I394
I0
F1.0
g251
tp2738
a(I490
I3
F-0.5
g253
tp2739
a(I490
I3
I0
g255
tp2740
a(I532
I0
F0.5
g257
tp2741
a(I751
I2
I0
g259
tp2742
a(I751
I11
I0
g261
tp2743
a(I751
I12
F-0.75
g263
tp2744
a(I751
I20
I0
g265
tp2745
a(I862
I0
F-0.5
g267
tp2746
a(I862
I0
I0
g269
tp2747
a(I967
I0
I0
g271
tp2748
a(I968
I1
F0.875
g273
tp2749
a(I968
I1
F0.375
g275
tp2750
as(S'charger'
p2751
tp2752
(lp2753
(I15
I0
I0
S'european'
p2754
tp2755
a(I15
I1
F0.375
S'extra'
p2756
tp2757
a(I32
I1
I0
S'adapter'
p2758
tp2759
a(I81
I0
I0
S'romanian'
p2760
tp2761
a(I123
I1
F-0.125
S'slow'
p2762
tp2763
a(I155
I6
I0
S'generic'
p2764
tp2765
a(I189
I4
I0
S'european'
p2766
tp2767
a(I305
I0
I0
S'mobile'
p2768
tp2769
a(I342
I0
I0
S'european'
p2770
tp2771
a(I373
I0
F0.5
S'incomplete'
p2772
tp2773
a(I447
I1
I0
S'european'
p2774
tp2775
a(I452
I2
F-0.625
S'bad'
p2776
tp2777
a(I491
I1
I0
S'european'
p2778
tp2779
a(I491
I1
I0
S'asian'
p2780
tp2781
a(I552
I1
F-0.25
S'plugged'
p2782
tp2783
a(I689
I0
F0.25
S'original'
p2784
tp2785
a(I756
I6
I0
S'external'
p2786
tp2787
a(I775
I3
F-0.75
S'stupid'
p2788
tp2789
a(I890
I3
F0.25
S'original'
p2790
tp2791
a(I917
I4
I0
S'european'
p2792
tp2793
a(I931
I3
I0
S'european'
p2794
tp2795
a(I1119
I2
F-0.5
S'actual'
p2796
tp2797
a(I1119
I2
I0
S'american'
p2798
tp2799
as(S'ii'
p2800
S'mini'
p2801
tp2802
(lp2803
(I499
I5
F-0.625
g658
tp2804
a(I813
I0
F0.75
g660
tp2805
as(S'memory'
p2806
tp2807
(lp2808
(I31
I3
I0
g2302
tp2809
a(I233
I0
F0.375
g2304
tp2810
a(I233
I0
I0
g2306
tp2811
a(I259
I0
I0
S'great'
p2812
tp2813
a(I293
I9
I0
S'close'
p2814
tp2815
a(I324
I25
I0
g2308
tp2816
a(I348
I3
I0
g2310
tp2817
a(I348
I5
I0
g2312
tp2818
a(I348
I5
I0
g2314
tp2819
a(I459
I23
I0
g2316
tp2820
a(I477
I0
I0
g2318
tp2821
a(I511
I7
F-0.25
g2320
tp2822
a(I511
I7
F-0.625
g2322
tp2823
a(I511
I7
I0
g2324
tp2824
a(I552
I0
I0
g2326
tp2825
a(I850
I0
I0
g2328
tp2826
a(I932
I1
I0
g2330
tp2827
a(I979
I2
F0.25
S'responsive'
p2828
tp2829
a(I983
I5
I0
g2332
tp2830
a(I1023
I2
I0
g2334
tp2831
a(I1023
I2
I0
g2336
tp2832
a(I1067
I21
F-0.5
g2338
tp2833
a(I1067
I21
F-0.625
g2340
tp2834
a(I1067
I21
I0
g2342
tp2835
as(S'3rd'
p2836
S'party'
p2837
tp2838
(lp2839
(I1067
I40
F0.375
S'complete'
p2840
tp2841
as(S'looking'
p2842
tp2843
(lp2844
(I202
I0
I0
S'great'
p2845
tp2846
a(I608
I0
F0.875
S'nice'
p2847
tp2848
a(I1038
I2
I0
S'great'
p2849
tp2850
as(S'apps'
p2851
tp2852
(lp2853
(I42
I1
I0
S'great'
p2854
tp2855
a(I48
I5
I0
S'unnecessary'
p2856
tp2857
a(I74
I0
I0
S'more'
p2858
tp2859
a(I74
I0
I0
S'more'
p2860
tp2861
a(I83
I3
F0.875
S'music'
p2862
tp2863
a(I83
I3
F-0.625
S'other'
p2864
tp2865
a(I103
I4
I0
S'active'
p2866
tp2867
a(I144
I1
I0
S'internet'
p2868
tp2869
a(I244
I7
I0
S'most'
p2870
tp2871
a(I244
I7
I0
S'more'
p2872
tp2873
a(I274
I2
I0
S'great'
p2874
tp2875
a(I324
I26
I0
S'downloaded'
p2876
tp2877
a(I324
I32
I0
S'few'
p2878
tp2879
a(I324
I32
I0
S'more'
p2880
tp2881
a(I324
I32
I0
S'later'
p2882
tp2883
a(I361
I4
I0
S'fast'
p2884
tp2885
a(I417
I3
I0
S'great'
p2886
tp2887
a(I437
I2
F0.375
S'available'
p2888
tp2889
a(I437
I2
F0.625
S'easy'
p2890
tp2891
a(I459
I24
I0
S'downloaded'
p2892
tp2893
a(I459
I30
I0
S'few'
p2894
tp2895
a(I459
I30
I0
S'more'
p2896
tp2897
a(I459
I30
I0
S'later'
p2898
tp2899
a(I501
I3
I0
S'great'
p2900
tp2901
a(I582
I65
I0
S'update'
p2902
tp2903
a(I610
I3
I0
S'many'
p2904
tp2905
a(I620
I5
F-0.375
S'disable'
p2906
tp2907
a(I661
I0
I0
S'social'
p2908
tp2909
a(I674
I1
F1.0
S'good'
p2910
tp2911
a(I674
I1
F0.125
S'able'
p2912
tp2913
a(I674
I1
I0
S'latest'
p2914
tp2915
a(I716
I8
F0.625
S'major'
p2916
tp2917
a(I753
I5
I0
S'same'
p2918
tp2919
a(I774
I2
I0
S'download'
p2920
tp2921
a(I774
I2
I0
S'least'
p2922
tp2923
a(I779
I1
F1.0
S'good'
p2924
tp2925
a(I1008
I3
F-0.625
S'free'
p2926
tp2927
a(I1008
I3
I0
S'android'
p2928
tp2929
a(I1035
I4
F-0.625
S'other'
p2930
tp2931
a(I1035
I4
F-0.5
S'open'
p2932
tp2933
a(I1047
I0
F-0.625
S'free'
p2934
tp2935
a(I1066
I5
I0
S'great'
p2936
tp2937
a(I1067
I22
I0
S'revive'
p2938
tp2939
a(I1090
I1
F1.0
S'good'
p2940
tp2941
a(I1090
I1
F0.625
S'easy'
p2942
tp2943
a(I1090
I1
I0
S'overseas'
p2944
tp2945
a(I1116
I0
I0
S'ergonomic'
p2946
tp2947
a(I1116
I0
F1.0
S'best'
p2948
tp2949
as(S'days'
p2950
tp2951
(lp2952
(I31
I2
F0.125
S'first'
p2953
tp2954
a(I62
I3
I0
S'close'
p2955
tp2956
a(I241
I2
I0
S'initial'
p2957
tp2958
a(I260
I0
F-0.5
S'less'
p2959
tp2960
a(I324
I44
F0.125
S'first'
p2961
tp2962
a(I459
I42
F0.125
S'first'
p2963
tp2964
a(I525
I0
I0
S'few'
p2965
tp2966
a(I590
I1
F0.375
S'new'
p2967
tp2968
a(I699
I2
I0
S'few'
p2969
tp2970
a(I721
I0
I0
S'few'
p2971
tp2972
a(I827
I12
I0
S'later'
p2973
tp2974
a(I926
I0
I0
S'great'
p2975
tp2976
a(I928
I0
I0
S'few'
p2977
tp2978
a(I954
I3
F-0.25
S'past'
p2979
tp2980
a(I1134
I1
I0
S'close'
p2981
tp2982
as(g564
S'good'
p2983
S'condition'
p2984
tp2985
(lp2986
(I8
I0
F1.0
S'good'
p2987
tp2988
a(I208
I1
F1.0
S'good'
p2989
tp2990
a(I214
I0
F1.0
S'good'
p2991
tp2992
a(I250
I0
F1.0
S'good'
p2993
tp2994
a(I562
I1
F1.0
S'good'
p2995
tp2996
a(I608
I1
F1.0
S'good'
p2997
tp2998
a(I951
I0
I0
S'great'
p2999
tp3000
a(I1021
I1
F1.0
S'good'
p3001
tp3002
a(I1033
I0
F1.0
S'good'
p3003
tp3004
a(I1049
I0
F1.0
S'good'
p3005
tp3006
as.