(dp0
(S'seller'
p1
tp2
(lp3
(I0
I22
F1.0
S'good'
p4
I19
tp5
a(I64
I0
F0.75
S'consider'
p6
I19
tp7
as(S'good'
p8
S'product'
p9
tp10
(lp11
(I4
I0
F-0.25
S'white'
p12
I13
tp13
a(I22
I0
I0
S'supplier'
p14
I13
tp15
a(I22
I0
F1.0
S'good'
p16
I13
tp17
a(I25
I0
F1.0
S'good'
p18
I13
tp19
a(I50
I20
F0.875
S'happy'
p20
I13
tp21
a(I67
I0
F1.0
S'good'
p22
I13
tp23
a(I77
I2
F0.375
S'new'
p24
I13
tp25
a(I88
I5
F1.0
S'good'
p26
I13
tp27
as(S'battery'
p28
S'life'
p29
tp30
(lp31
(I78
I10
I0
S'great'
p32
I1
tp33
a(I95
I11
I0
S'great'
p34
I1
tp35
a(I0
I6
F0.125
S'last'
p36
I15
tp37
a(I30
I21
F0.375
S'new'
p38
I15
tp39
a(I33
I6
I0
S'old'
p40
I15
tp41
a(I37
I9
F0.125
S'first'
p42
I15
tp43
a(I49
I32
I0
S'fast'
p44
I15
tp45
a(I55
I0
F-0.25
S'low'
p46
I15
tp47
a(I55
I0
I0
S'full'
p48
I15
tp49
a(I63
I6
F0.375
S'new'
p50
I15
tp51
a(I64
I2
F0.375
S'new'
p52
I15
tp53
a(I78
I10
I0
g32
I15
tp54
a(I98
I12
F0.125
S'last'
p55
I15
tp56
a(I98
I24
F0.375
S'new'
p57
I15
tp58
as(S'cellphone'
p59
tp60
(lp61
(I77
I2
I0
S'great'
p62
I0
tp63
a(I88
I6
I0
S'great'
p64
I0
tp65
as(S'venezuela'
p66
tp67
(lp68
(I28
I1
I0
S'different'
p69
I0
tp70
a(I31
I8
F0.625
S'easy'
p71
I0
tp72
a(I91
I2
F0.5
S'expensive'
p73
I0
tp74
a(I91
I2
F-0.5
S'weak'
p75
I0
tp76
as(S's3'
p77
S'mini'
p78
tp79
(lp80
(I0
I5
I0
S'big'
p81
I0
tp82
a(I2
I0
F-0.375
S'smaller'
p83
I0
tp84
a(I2
I0
I0
S'real'
p85
I0
tp86
a(I4
I0
F0.5
S'second'
p87
I0
tp88
a(I92
I4
I0
S'big'
p89
I13
tp90
a(I92
I4
F0.625
S'perfect'
p91
I13
tp92
as(S'good'
p93
S'price'
p94
tp95
(lp96
(I3
I1
F1.0
S'good'
p97
I14
tp98
a(I7
I0
F1.0
S'good'
p99
I14
tp100
a(I26
I3
F1.0
S'good'
p101
I14
tp102
a(I40
I0
F1.0
S'best'
p103
I14
tp104
a(I40
I0
F1.0
S'good'
p105
I14
tp106
a(I48
I2
F-0.25
S'low'
p107
I14
tp108
as(S'thanks'
p109
tp110
(lp111
(I16
I0
I0
S'more'
p112
I12
tp113
a(I37
I5
F0.625
S'perfect'
p114
I12
tp115
a(I76
I0
I0
S'many'
p116
I12
tp117
as(S'excellent'
p118
S'product'
p119
tp120
(lp121
(I4
I0
F-0.25
g12
I8
tp122
a(I12
I3
I0
S'more'
p123
I8
tp124
a(I18
I8
F-0.625
S'bad'
p125
I8
tp126
a(I21
I0
F0.875
S'happy'
p127
I8
tp128
as(S'network'
p129
tp130
(lp131
(I33
I8
F-0.5
S'international'
p132
I0
tp133
as(S'sim'
p134
S'card'
p135
tp136
(lp137
(I13
I2
F0.5
S'second'
p138
I0
tp139
a(I78
I13
I0
S'normal'
p140
I0
tp141
as(S'apps'
p142
tp143
(lp144
(I9
I2
I0
S'great'
p145
I0
tp146
a(I9
I2
F0.625
S'easy'
p147
I0
tp148
a(I37
I16
I0
S'more'
p149
I0
tp150
a(I37
I16
F0.25
S'ate'
p151
I0
tp152
a(I78
I10
F0.375
S'available'
p153
I0
tp154
as(S'samsung'
p155
tp156
(lp157
(I13
I2
F-0.375
S'authorized'
p158
I7
tp159
a(I83
I7
F-0.625
S'other'
p160
I7
tp161
a(I98
I5
F0.25
S'original'
p162
I7
tp163
as(S'perfect'
p164
S'condition'
p165
tp166
(lp167
(I50
I20
F1.0
S'good'
p168
I3
tp169
a(I50
I20
F0.625
S'perfect'
p170
I3
tp171
as(S'camera'
p172
tp173
(lp174
(I19
I5
I0
S'great'
p175
I1
tp176
a(I36
I1
I0
S'great'
p177
I1
tp178
a(I51
I2
F0.625
S'easy'
p179
I1
tp180
a(I58
I0
I0
S'android'
p181
I1
tp182
a(I60
I1
I0
S'great'
p183
I1
tp184
a(I92
I2
F1.0
S'good'
p185
I1
tp186
a(I97
I0
I0
S'great'
p187
I1
tp188
as(S'galaxy'
p189
S's'
p190
S'iii'
p191
tp192
(lp193
(I81
I2
F-0.5
S'international'
p194
I0
tp195
a(I38
I3
F-0.5
S'weaker'
p196
I0
tp197
as.