(dp0
(S'quad'
p1
S'core'
p2
S'processor'
p3
tp4
(lp5
(I9
I11
I0
S'quad'
p6
tp7
a(I243
I0
F0.25
S'powerful'
p8
tp9
a(I508
I5
I0
S'great'
p10
tp11
as(S'google'
p12
tp13
(lp14
(I1
I0
F-0.25
S'google'
p15
tp16
a(I32
I25
F-0.25
S'direct'
p17
tp18
a(I35
I2
F1.0
S'best'
p19
tp20
a(I85
I5
I0
S'unbelievable'
p21
tp22
a(I181
I0
F0.875
S'benefit'
p23
tp24
a(I216
I10
F0.125
S'charger'
p25
tp26
a(I226
I3
F-0.625
S'sorry'
p27
tp28
a(I255
I0
F1.0
S'best'
p29
tp30
a(I274
I2
F0.125
S'first'
p31
tp32
a(I347
I0
F0.875
S'happy'
p33
tp34
a(I347
I0
F0.375
S'new'
p35
tp36
a(I354
I3
F0.125
S'first'
p37
tp38
a(I397
I3
F-0.625
S'bad'
p39
tp40
a(I399
I0
F1.0
S'best'
p41
tp42
a(I556
I0
F-0.125
S'mine'
p43
tp44
a(I593
I4
F0.5
S'drive'
p45
tp46
as(S'from'
p47
S'google'
p48
S'play'
p49
tp50
(lp51
(I19
I0
F-0.25
S'google'
p52
tp53
a(I57
I9
F-0.25
S'google'
p54
tp55
a(I129
I5
F-0.25
S'google'
p56
tp57
a(I130
I17
F-0.25
S'google'
p58
tp59
a(I165
I0
F-0.25
S'google'
p60
tp61
a(I200
I4
F-0.25
S'google'
p62
tp63
a(I264
I0
F-0.25
S'google'
p64
tp65
a(I298
I1
F-0.25
S'google'
p66
tp67
a(I365
I0
F-0.25
S'google'
p68
tp69
a(I402
I0
F-0.25
S'google'
p70
tp71
a(I433
I0
F-0.25
S'google'
p72
tp73
a(I501
I0
F-0.25
S'google'
p74
tp75
a(I506
I30
F-0.25
S'google'
p76
tp77
a(I508
I0
F-0.25
S'google'
p78
tp79
a(I510
I0
F-0.25
S'google'
p80
tp81
a(I510
I21
F-0.25
S'google'
p82
tp83
a(I556
I0
F-0.125
g43
tp84
a(I572
I0
F-0.125
S'slow'
p85
tp86
a(I593
I2
F-0.25
S'google'
p87
tp88
as(S'version'
p89
tp90
(lp91
(I35
I2
I0
S'latest'
p92
tp93
a(I35
I2
I0
S'android'
p94
tp95
a(I54
I0
I0
S'jan'
p96
tp97
a(I54
I0
F-0.25
S'google'
p98
tp99
a(I64
I3
F0.25
S'original'
p100
tp101
a(I104
I84
I0
S'full'
p102
tp103
a(I104
I189
F-0.375
S'modified'
p104
tp105
a(I104
I189
F0.375
S'available'
p106
tp107
a(I112
I6
F1.0
S'best'
p108
tp109
a(I131
I2
F0.125
S'last'
p110
tp111
a(I131
I2
I0
S'android'
p112
tp113
a(I174
I0
I0
S'latest'
p114
tp115
a(I174
I0
I0
S'android'
p116
tp117
a(I179
I7
F0.375
S'newest'
p118
tp119
a(I181
I0
I0
S'next'
p120
tp121
a(I196
I1
I0
S'older'
p122
tp123
a(I225
I2
I0
S'latest'
p124
tp125
a(I225
I2
F-0.125
S'bean'
p126
tp127
a(I235
I1
I0
S'quick'
p128
tp129
a(I235
I1
F0.125
S'last'
p130
tp131
a(I235
I1
I0
S'android'
p132
tp133
a(I289
I1
F-0.25
S'white'
p134
tp135
a(I289
I1
F0.625
S'perfect'
p136
tp137
a(I297
I0
I0
S'latest'
p138
tp139
a(I311
I0
I0
S'android'
p140
tp141
a(I326
I7
I0
S'android'
p142
tp143
a(I326
I7
F1.0
S'best'
p144
tp145
a(I330
I1
I0
S'latest'
p146
tp147
a(I330
I1
I0
S'android'
p148
tp149
a(I336
I0
F-0.5
S'international'
p150
tp151
a(I354
I5
I0
S'android'
p152
tp153
a(I362
I2
I0
S'only'
p154
tp155
a(I365
I12
I0
S'android'
p156
tp157
a(I370
I2
I0
S'latest'
p158
tp159
a(I370
I2
I0
S'android'
p160
tp161
a(I380
I2
F0.125
S'last'
p162
tp163
a(I402
I5
I0
S'latest'
p164
tp165
a(I515
I0
I0
S'latest'
p166
tp167
a(I515
I0
I0
S'android'
p168
tp169
a(I522
I15
F-0.375
S'smoothest'
p170
tp171
a(I522
I15
I0
S'android'
p172
tp173
a(I523
I1
F0.875
S'happy'
p174
tp175
a(I523
I1
I0
S'latest'
p176
tp177
a(I523
I1
I0
S'android'
p178
tp179
a(I530
I2
F-0.25
S'white'
p180
tp181
a(I531
I6
I0
S'android'
p182
tp183
a(I556
I18
F-0.125
S'bean'
p184
tp185
a(I575
I0
I0
S'android'
p186
tp187
a(I575
I7
F0.375
S'newest'
p188
tp189
as(S'quality'
p190
tp191
(lp192
(I45
I1
F-0.625
S'bad'
p193
tp194
a(I50
I1
F1.0
S'good'
p195
tp196
a(I54
I8
I0
S'high'
p197
tp198
a(I59
I3
F-0.25
S'higher'
p199
tp200
a(I68
I0
I0
S'high'
p201
tp202
a(I72
I0
F-0.5
S'poor'
p203
tp204
a(I92
I8
F1.0
S'better'
p205
tp206
a(I104
I107
F0.5
S'slick'
p207
tp208
a(I141
I19
I0
S'pic'
p209
tp210
a(I164
I1
F1.0
S'better'
p211
tp212
a(I164
I1
I0
S'high'
p213
tp214
a(I205
I1
F0.25
S'powerful'
p215
tp216
a(I212
I2
F-0.25
S'low'
p217
tp218
a(I223
I0
F1.0
S'good'
p219
tp220
a(I269
I26
F1.0
S'good'
p221
tp222
a(I279
I0
F1.0
S'good'
p223
tp224
a(I300
I15
I0
S'same'
p225
tp226
a(I300
I52
F-0.5
S'poor'
p227
tp228
a(I300
I55
F-0.25
S'higher'
p229
tp230
a(I316
I0
F1.0
S'good'
p231
tp232
a(I316
I0
F-0.25
S'thin'
p233
tp234
a(I329
I9
F0.5
S'clear'
p235
tp236
a(I357
I0
I0
S'build'
p237
tp238
a(I357
I0
F-0.125
S'overall'
p239
tp240
a(I357
I0
F0.125
S'solid'
p241
tp242
a(I379
I1
I0
S'great'
p243
tp244
a(I395
I16
I0
S'great'
p245
tp246
a(I415
I2
I0
S'incredible'
p247
tp248
a(I445
I2
F1.0
S'better'
p249
tp250
a(I463
I1
I0
S'great'
p251
tp252
a(I501
I33
I0
S'high'
p253
tp254
a(I509
I13
F1.0
S'good'
p255
tp256
a(I509
I14
F1.0
S'good'
p257
tp258
a(I530
I1
I0
S'great'
p259
tp260
a(I534
I13
F0.625
S'easy'
p261
tp262
a(I534
I27
F-0.625
S'bad'
p263
tp264
a(I541
I0
F1.0
S'good'
p265
tp266
a(I553
I2
F-0.5
S'poor'
p267
tp268
a(I568
I0
I0
S'graphic'
p269
tp270
a(I572
I0
I0
S'lame'
p271
tp272
a(I572
I0
F0.625
S'perfect'
p273
tp274
a(I574
I0
F1.0
S'good'
p275
tp276
a(I576
I2
F-0.5
S'poor'
p277
tp278
a(I577
I7
F1.0
S'good'
p279
tp280
as(S'features'
p281
tp282
(lp283
(I4
I0
I0
S'great'
p284
tp285
a(I9
I14
I0
S'more'
p286
tp287
a(I9
I14
I0
S'few'
p288
tp289
a(I32
I13
F0.125
S'able'
p290
tp291
a(I32
I22
I0
S'fewer'
p292
tp293
a(I63
I1
I0
S'great'
p294
tp295
a(I85
I2
F0.375
S'much'
p296
tp297
a(I119
I2
F1.0
S'better'
p298
tp299
a(I201
I1
I0
S'many'
p300
tp301
a(I201
I1
F0.375
S'new'
p302
tp303
a(I232
I0
F0.375
S'interesting'
p304
tp305
a(I256
I7
I0
S'many'
p306
tp307
a(I256
I7
I0
S'great'
p308
tp309
a(I294
I0
F0.5
S'comparable'
p310
tp311
a(I300
I32
I0
S'unnecessary'
p312
tp313
a(I354
I3
F0.25
S'biggest'
p314
tp315
a(I354
I19
F-0.25
S'intensive'
p316
tp317
a(I365
I10
I0
S'own'
p318
tp319
a(I365
I10
I0
S'own'
p320
tp321
a(I430
I20
I0
S'many'
p322
tp323
a(I430
I20
I0
S'high'
p324
tp325
a(I437
I5
F0.125
S'enough'
p326
tp327
a(I508
I0
I0
S'many'
p328
tp329
a(I513
I5
F0.375
S'new'
p330
tp331
a(I513
I7
F0.375
S'new'
p332
tp333
a(I513
I7
F0.375
S'new'
p334
tp335
a(I513
I17
F0.375
S'new'
p336
tp337
a(I513
I19
F0.375
S'new'
p338
tp339
a(I599
I2
I0
S'useful'
p340
tp341
as(S'sd'
p342
S'card'
p343
tp344
(lp345
(I542
I3
I0
S'sd'
p346
tp347
as(S'experience'
p348
tp349
(lp350
(I51
I1
F1.0
S'good'
p351
tp352
a(I112
I10
F0.875
S'happy'
p353
tp354
a(I130
I12
F-0.25
S'google'
p355
tp356
a(I141
I23
F0.375
S'much'
p357
tp358
a(I146
I17
I0
S'initial'
p359
tp360
a(I166
I1
F1.0
S'better'
p361
tp362
a(I216
I1
I0
S'android'
p363
tp364
a(I245
I11
I0
S'own'
p365
tp366
a(I245
I16
F0.5
S'personal'
p367
tp368
a(I269
I29
F0.375
S'following'
p369
tp370
a(I355
I0
I0
S'android'
p371
tp372
a(I365
I48
F0.5
S'possible'
p373
tp374
a(I365
I48
I0
S'android'
p375
tp376
a(I366
I3
I0
S'android'
p377
tp378
a(I370
I1
F1.0
S'better'
p379
tp380
a(I395
I2
F1.0
S'better'
p381
tp382
a(I405
I0
F1.0
S'best'
p383
tp384
a(I427
I7
F-0.875
S'worst'
p385
tp386
a(I491
I3
F1.0
S'best'
p387
tp388
a(I501
I17
F1.0
S'best'
p389
tp390
a(I517
I0
I0
S'great'
p391
tp392
a(I555
I1
I0
S'great'
p393
tp394
a(I593
I0
I0
S'android'
p395
tp396
as(S'case'
p397
tp398
(lp399
(I46
I9
F0.5
S'clear'
p400
tp401
a(I46
I9
I0
S'plastic'
p402
tp403
a(I70
I3
F0.5
S'careful'
p404
tp405
a(I104
I106
F0.875
S'important'
p406
tp407
a(I112
I4
F1.0
S'good'
p408
tp409
a(I130
I9
F0.125
S'protective'
p410
tp411
a(I141
I9
F0.125
S'first'
p412
tp413
a(I141
I9
F1.0
S'good'
p414
tp415
a(I161
I3
F-0.875
S'hard'
p416
tp417
a(I161
I3
F-0.25
S'white'
p418
tp419
a(I179
I17
F1.0
S'good'
p420
tp421
a(I184
I3
F1.0
S'good'
p422
tp423
a(I184
I6
F0.375
S'new'
p424
tp425
a(I262
I2
F0.5
S'strong'
p426
tp427
a(I269
I31
F0.5
S'second'
p428
tp429
a(I269
I33
F-0.5
S'sure'
p430
tp431
a(I315
I10
F0.5
S'personal'
p432
tp433
a(I352
I1
I0
S'slippery'
p434
tp435
a(I355
I3
F0.625
S'finish'
p436
tp437
a(I365
I18
F0.125
S'protective'
p438
tp439
a(I367
I8
F-0.25
S'thin'
p440
tp441
a(I367
I12
F0.875
S'nice'
p442
tp443
a(I479
I18
F-0.875
S'worst'
p444
tp445
a(I484
I0
F-0.5
S'sure'
p446
tp447
a(I501
I41
F0.125
S'protective'
p448
tp449
a(I501
I41
F0.625
S'necessary'
p450
tp451
a(I509
I6
F1.0
S'good'
p452
tp453
a(I515
I1
I0
S'eagle'
p454
tp455
a(I515
I1
F-0.75
S'tough'
p456
tp457
a(I534
I7
F0.875
S'nice'
p458
tp459
a(I592
I7
F0.375
S'no-brainer'
p460
tp461
as(S'ever'
p462
tp463
(lp464
(I334
I1
I0
S'android'
p465
tp466
as(S'excellent'
p467
tp468
(lp469
(I68
I1
F-0.125
S'bean'
p470
tp471
a(I463
I1
F-0.625
S'light'
p472
tp473
a(I469
I2
F-0.25
S'thin'
p474
tp475
a(I479
I7
F0.625
S'necessary'
p476
tp477
a(I494
I0
F1.0
S'best'
p478
tp479
as(S'store'
p480
tp481
(lp482
(I6
I1
I0
S'site'
p483
tp484
a(I57
I20
F0.25
S'helpful'
p485
tp486
a(I296
I0
F-0.25
S'google'
p487
tp488
a(I365
I21
F-0.625
S'free'
p489
tp490
a(I501
I9
F-0.25
S'abundant'
p491
tp492
a(I537
I2
F-0.25
S'google'
p493
tp494
as(S'to'
p495
S'google'
p496
S'play'
p497
tp498
(lp499
(I57
I8
F-0.25
S'google'
p500
tp501
a(I57
I9
F-0.25
g54
tp502
a(I121
I0
F-0.25
S'google'
p503
tp504
a(I129
I5
F-0.25
g56
tp505
a(I130
I15
F-0.25
S'google'
p506
tp507
a(I130
I17
F-0.25
g58
tp508
a(I151
I1
F-0.25
S'google'
p509
tp510
a(I152
I0
F-0.25
S'google'
p511
tp512
a(I165
I0
F-0.25
g60
tp513
a(I216
I0
F-0.125
S'mine'
p514
tp515
a(I216
I0
F-0.25
S'google'
p516
tp517
a(I217
I2
F-0.25
S'google'
p518
tp519
a(I235
I2
F-0.25
S'google'
p520
tp521
a(I298
I1
F-0.25
g66
tp522
a(I354
I3
F0.125
g37
tp523
a(I397
I3
F-0.625
g39
tp524
a(I397
I3
F-0.25
S'google'
p525
tp526
a(I402
I0
F-0.25
g70
tp527
a(I427
I6
F-0.25
S'google'
p528
tp529
a(I433
I0
F-0.25
g72
tp530
a(I479
I1
F-0.125
S'mine'
p531
tp532
a(I479
I1
F-0.25
S'google'
p533
tp534
a(I501
I0
F-0.25
g74
tp535
a(I506
I30
F-0.25
g76
tp536
a(I510
I0
F-0.25
g80
tp537
a(I510
I21
F-0.25
g82
tp538
a(I548
I1
F-0.25
S'google'
p539
tp540
a(I556
I0
F-0.125
g43
tp541
a(I572
I0
F-0.125
g85
tp542
a(I593
I2
F-0.25
g87
tp543
as(S'sim'
p544
S'card'
p545
tp546
(lp547
(I10
I1
F-0.5
S'regular'
p548
tp549
a(I117
I4
F-0.75
S'difficult'
p550
tp551
a(I176
I1
I0
S'same'
p552
tp553
a(I274
I0
I0
S'local'
p554
tp555
a(I339
I2
F-0.625
S'other'
p556
tp557
a(I555
I7
I0
S'local'
p558
tp559
as(S'a'
p560
S'screen'
p561
S'protector'
p562
tp563
(lp564
(I397
I4
F1.0
S'good'
p565
tp566
a(I406
I5
F-0.25
S'google'
p567
tp568
a(I572
I0
F-0.625
S'bad'
p569
tp570
a(I572
I0
F-0.625
S'free'
p571
tp572
a(I577
I19
F0.125
S'able'
p573
tp574
as(S'nexus'
p575
S'4'
p576
S'bumper'
p577
tp578
(lp579
(I72
I3
F-0.25
S'google'
p580
tp581
a(I329
I2
F-0.25
S'google'
p582
tp583
a(I501
I44
I0
S'slim'
p584
tp585
a(I501
I44
F-0.625
S'unnoticeable'
p586
tp587
a(I501
I44
F-0.25
S'google'
p588
tp589
a(I501
I44
F0.625
S'certified'
p590
tp591
a(I501
I45
F-0.25
S'google'
p592
tp593
a(I501
I45
F0.375
S'available'
p594
tp595
as(S'pure'
p596
S'android'
p597
S'experience'
p598
tp599
(lp600
(I130
I12
F-0.25
g355
tp601
a(I361
I0
F1.0
S'best'
p602
tp603
a(I366
I3
I0
g377
tp604
a(I366
I3
F1.0
S'best'
p605
tp606
a(I491
I3
F1.0
g387
tp607
a(I517
I0
F1.0
S'best'
p608
tp609
a(I517
I0
I0
g391
tp610
as(S'easy'
p611
S'to'
p612
S'use'
p613
tp614
(lp615
(I231
I0
F-0.625
S'other'
p616
tp617
a(I231
I0
F-0.5
S'heavy'
p618
tp619
as(S'smartphone'
p620
tp621
(lp622
(I3
I3
F-0.625
S'other'
p623
tp624
a(I3
I3
F0.125
S'typical'
p625
tp626
a(I57
I22
F0.125
S'first'
p627
tp628
a(I76
I0
F1.0
S'best'
p629
tp630
a(I92
I0
F0.125
S'first'
p631
tp632
a(I129
I0
I0
S'next'
p633
tp634
a(I131
I1
I0
S'fastest'
p635
tp636
a(I142
I0
F0.875
S'nice'
p637
tp638
a(I160
I1
F1.0
S'good'
p639
tp640
a(I205
I1
I0
S'android'
p641
tp642
a(I205
I1
F0.375
S'new'
p643
tp644
a(I219
I0
I0
S'android'
p645
tp646
a(I220
I1
F-0.75
S'bloat'
p647
tp648
a(I226
I1
F-0.625
S'other'
p649
tp650
a(I242
I2
F0.25
S'used'
p651
tp652
a(I301
I0
F1.0
S'best'
p653
tp654
a(I301
I0
F1.0
S'best'
p655
tp656
a(I301
I0
F1.0
S'better'
p657
tp658
a(I310
I0
F0.875
S'nice'
p659
tp660
a(I331
I1
I0
S'great'
p661
tp662
a(I354
I23
F0.125
S'first'
p663
tp664
a(I361
I0
F-0.375
S'top'
p665
tp666
a(I364
I0
F0.125
S'first'
p667
tp668
a(I365
I11
I0
S'general'
p669
tp670
a(I365
I12
F0.875
S'important'
p671
tp672
a(I365
I12
I0
S'android'
p673
tp674
a(I365
I14
I0
S'android'
p675
tp676
a(I365
I26
I0
S'more'
p677
tp678
a(I365
I26
F0.5
S'reasonable'
p679
tp680
a(I425
I40
I0
S'tinny'
p681
tp682
a(I532
I0
I0
S'fast'
p683
tp684
a(I563
I1
F0.375
S'new'
p685
tp686
a(I568
I0
F1.0
S'good'
p687
tp688
a(I581
I0
F1.0
S'best'
p689
tp690
a(I590
I0
F0.375
S'complete'
p691
tp692
a(I590
I0
F0.375
S'extra'
p693
tp694
a(I591
I0
F1.0
S'best'
p695
tp696
as(S'card'
p697
tp698
(lp699
(I10
I1
F-0.5
g548
tp700
a(I117
I4
F-0.75
g550
tp701
a(I542
I3
I0
g346
tp702
as(S'wifi'
p703
tp704
(lp705
(I3
I3
I0
S'fast'
p706
tp707
a(I16
I3
F1.0
S'better'
p708
tp709
a(I16
I3
F-0.625
S'free'
p710
tp711
a(I16
I3
F-0.625
S'free'
p712
tp713
a(I39
I13
F-0.625
S'free'
p714
tp715
a(I106
I5
I0
S'local'
p716
tp717
a(I300
I67
F-0.375
S'smooth'
p718
tp719
a(I506
I15
I0
S'download'
p720
tp721
as(S'fast'
p722
tp723
(lp724
(I39
I15
F-0.125
S'super'
p725
tp726
a(I58
I1
F0.75
S'beautiful'
p727
tp728
a(I135
I3
I0
S'very'
p729
tp730
a(I177
I0
I0
S'great'
p731
tp732
a(I258
I1
I0
S'very'
p733
tp734
a(I269
I22
F-0.375
S'crazy'
p735
tp736
a(I333
I2
F-0.125
S'super'
p737
tp738
a(I351
I0
F-0.125
S'super'
p739
tp740
a(I351
I0
F0.75
S'beautiful'
p741
tp742
a(I351
I0
F1.0
S'better'
p743
tp744
a(I357
I10
F-0.125
S'super'
p745
tp746
a(I427
I12
F0.125
S'plenty'
p747
tp748
a(I497
I1
F-0.125
S'super'
p749
tp750
a(I515
I0
F0.5
S'strong'
p751
tp752
a(I556
I3
F0.375
S'prime'
p753
tp754
as(S'performance'
p755
tp756
(lp757
(I20
I1
F1.0
S'good'
p758
tp759
a(I20
I1
F-0.125
S'overall'
p760
tp761
a(I46
I4
F0.75
S'due'
p762
tp763
a(I145
I2
F0.75
S'beautiful'
p764
tp765
a(I145
I2
I0
S'great'
p766
tp767
a(I153
I1
F1.0
S'good'
p768
tp769
a(I166
I1
F1.0
S'better'
p770
tp771
a(I166
I1
I0
S'general'
p772
tp773
a(I311
I0
F1.0
S'good'
p774
tp775
a(I311
I0
F0.625
S'easy'
p776
tp777
a(I313
I1
F0.625
S'perfect'
p778
tp779
a(I332
I4
I0
S'great'
p780
tp781
a(I354
I11
I0
S'great'
p782
tp783
a(I364
I1
F0.375
S'much'
p784
tp785
a(I380
I2
F1.0
S'good'
p786
tp787
a(I412
I1
F1.0
S'good'
p788
tp789
a(I444
I0
F1.0
S'good'
p790
tp791
a(I451
I3
F-0.125
S'overall'
p792
tp793
a(I481
I2
F1.0
S'good'
p794
tp795
as(S'quad'
p796
S'core'
p797
tp798
(lp799
(I9
I11
I0
g6
tp800
a(I225
I2
I0
S'quad'
p801
tp802
a(I243
I0
F0.25
g8
tp803
a(I354
I10
I0
S'only'
p804
tp805
as(S'problem'
p806
tp807
(lp808
(I31
I0
I0
S'many'
p809
tp810
a(I49
I2
I0
S'only'
p811
tp812
a(I68
I3
I0
S'common'
p813
tp814
a(I70
I3
I0
S'only'
p815
tp816
a(I98
I3
I0
S'same'
p817
tp818
a(I134
I24
F0.625
S'major'
p819
tp820
a(I157
I3
I0
S'same'
p821
tp822
a(I211
I3
F-0.75
S'stupid'
p823
tp824
a(I211
I3
I0
S'only'
p825
tp826
a(I270
I4
F-0.625
S'bad'
p827
tp828
a(I295
I2
I0
S'only'
p829
tp830
a(I302
I8
F-0.25
S'google'
p831
tp832
a(I378
I1
F0.5
S'second'
p833
tp834
a(I379
I2
I0
S'only'
p835
tp836
a(I450
I2
I0
S'common'
p837
tp838
a(I478
I2
I0
S'only'
p839
tp840
a(I479
I8
I0
S'website'
p841
tp842
a(I479
I15
I0
S'wherever'
p843
tp844
a(I483
I1
I0
S'same'
p845
tp846
a(I483
I1
F-0.25
S'google'
p847
tp848
a(I510
I3
I0
S'same'
p849
tp850
a(I514
I3
I0
S'same'
p851
tp852
a(I576
I6
I0
S'cosmetic'
p853
tp854
as(S'android'
p855
S'experience'
p856
tp857
(lp858
(I85
I3
I0
S'real'
p859
tp860
a(I103
I14
F-0.625
S'clean'
p861
tp862
a(I130
I12
F-0.25
g355
tp863
a(I183
I1
F1.0
S'best'
p864
tp865
a(I216
I1
I0
g363
tp866
a(I355
I0
I0
g371
tp867
a(I361
I0
F1.0
g602
tp868
a(I365
I48
F0.5
g373
tp869
a(I365
I48
I0
g375
tp870
a(I366
I3
I0
g377
tp871
a(I366
I3
F1.0
g605
tp872
a(I405
I0
F1.0
g383
tp873
a(I491
I3
F1.0
g387
tp874
a(I501
I9
F1.0
S'best'
p875
tp876
a(I517
I0
F1.0
g608
tp877
a(I517
I0
I0
g391
tp878
a(I593
I0
I0
g395
tp879
as(S'n'
p880
S'opinion'
p881
tp882
(lp883
(I146
I3
F0.625
S'safe'
p884
tp885
a(I365
I1
I0
S'least'
p886
tp887
a(I365
I26
I0
S'least'
p888
tp889
a(I386
I3
I0
S'more'
p890
tp891
a(I497
I6
I0
S'own'
p892
tp893
as(S'price'
p894
tp895
(lp896
(I1
I2
F-0.5
S'actual'
p897
tp898
a(I3
I0
I0
S'incredible'
p899
tp900
a(I3
I0
F-0.25
S'google'
p901
tp902
a(I3
I4
F-0.25
S'google'
p903
tp904
a(I5
I0
F1.0
S'better'
p905
tp906
a(I32
I22
F-0.25
S'lower'
p907
tp908
a(I56
I6
F0.875
S'happy'
p909
tp910
a(I58
I1
I0
S'such'
p911
tp912
a(I90
I1
F1.0
S'good'
p913
tp914
a(I101
I4
F-0.625
S'bad'
p915
tp916
a(I101
I4
F-0.25
S'low'
p917
tp918
a(I104
I206
F-0.25
S'cheapest'
p919
tp920
a(I108
I1
I0
S'soft'
p921
tp922
a(I110
I0
F1.0
S'best'
p923
tp924
a(I113
I0
F0.875
S'happy'
p925
tp926
a(I123
I3
F1.0
S'best'
p927
tp928
a(I130
I11
I0
S'close'
p929
tp930
a(I132
I0
F0.5
S'reasonable'
p931
tp932
a(I135
I6
I0
S'great'
p933
tp934
a(I141
I5
I0
S'many'
p935
tp936
a(I144
I1
F0.75
S'worth'
p937
tp938
a(I151
I1
F-0.25
S'higher'
p939
tp940
a(I165
I5
F-0.25
S'google'
p941
tp942
a(I179
I15
F0.875
S'nice'
p943
tp944
a(I179
I15
F-0.25
S'low'
p945
tp946
a(I186
I1
F0.5
S'reasonable'
p947
tp948
a(I189
I1
F0.5
S'expensive'
p949
tp950
a(I198
I1
F1.0
S'good'
p951
tp952
a(I217
I2
F1.0
S'better'
p953
tp954
a(I235
I2
F1.0
S'good'
p955
tp956
a(I235
I2
F-0.25
S'cheaper'
p957
tp958
a(I243
I0
F-0.25
S'higher'
p959
tp960
a(I243
I0
F0.375
S'available'
p961
tp962
a(I243
I0
F-0.25
S'google'
p963
tp964
a(I248
I4
F-0.5
S'actual'
p965
tp966
a(I260
I0
F0.5
S'expensive'
p967
tp968
a(I261
I1
I0
S'great'
p969
tp970
a(I265
I0
I0
S'full'
p971
tp972
a(I271
I8
I0
S'such'
p973
tp974
a(I271
I8
F-0.25
S'low'
p975
tp976
a(I273
I1
F-0.25
S'google'
p977
tp978
a(I275
I1
F0.375
S'new'
p979
tp980
a(I282
I0
I0
S'same'
p981
tp982
a(I283
I2
F1.0
S'good'
p983
tp984
a(I286
I11
F-0.25
S'google'
p985
tp986
a(I289
I0
I0
S'great'
p987
tp988
a(I291
I0
F1.0
S'good'
p989
tp990
a(I292
I1
F0.625
S'straight'
p991
tp992
a(I292
I1
F-0.25
S'google'
p993
tp994
a(I309
I3
F-0.625
S'glad'
p995
tp996
a(I309
I3
I0
S'full'
p997
tp998
a(I309
I3
F-0.5
S'less'
p999
tp1000
a(I314
I0
I0
S'competitive'
p1001
tp1002
a(I315
I15
I0
S'same'
p1003
tp1004
a(I315
I15
F1.0
S'better'
p1005
tp1006
a(I340
I2
F-0.375
S'small'
p1007
tp1008
a(I353
I0
F1.0
S'better'
p1009
tp1010
a(I358
I0
F1.0
S'best'
p1011
tp1012
a(I359
I0
F1.0
S'good'
p1013
tp1014
a(I379
I1
I0
S'great'
p1015
tp1016
a(I399
I2
F1.0
S'good'
p1017
tp1018
a(I412
I2
F-0.25
S'low'
p1019
tp1020
a(I416
I0
F1.0
S'good'
p1021
tp1022
a(I416
I0
F-0.5
S'heavy'
p1023
tp1024
a(I421
I0
I0
S'many'
p1025
tp1026
a(I428
I0
F0.875
S'nice'
p1027
tp1028
a(I432
I4
F1.0
S'good'
p1029
tp1030
a(I440
I0
I0
S'high'
p1031
tp1032
a(I446
I1
I0
S'astronomical'
p1033
tp1034
a(I449
I3
F0.5
S'reasonable'
p1035
tp1036
a(I480
I1
I0
S'great'
p1037
tp1038
a(I492
I4
F-0.875
S'hard'
p1039
tp1040
a(I501
I18
I0
S'standard'
p1041
tp1042
a(I501
I22
I0
S'total'
p1043
tp1044
a(I513
I10
F1.0
S'good'
p1045
tp1046
a(I520
I0
I0
S'great'
p1047
tp1048
a(I524
I4
I0
S'real'
p1049
tp1050
a(I526
I1
F-0.25
S'google'
p1051
tp1052
a(I526
I1
F0.375
S'available'
p1053
tp1054
a(I535
I0
I0
S'great'
p1055
tp1056
a(I537
I2
I0
S'great'
p1057
tp1058
a(I543
I5
F0.75
S'worth'
p1059
tp1060
a(I583
I9
F-0.375
S'small'
p1061
tp1062
a(I592
I0
F-0.25
S'low'
p1063
tp1064
a(I593
I1
F-0.25
S'low'
p1065
tp1066
as(S'service'
p1067
tp1068
(lp1069
(I0
I5
F-0.875
S'awful'
p1070
tp1071
a(I100
I1
F0.375
S'available'
p1072
tp1073
a(I104
I131
I0
S'great'
p1074
tp1075
a(I128
I1
F-0.625
S'secure'
p1076
tp1077
a(I129
I7
I0
S'great'
p1078
tp1079
a(I130
I21
I0
S'later'
p1080
tp1081
a(I148
I3
F-0.25
S'google'
p1082
tp1083
a(I172
I2
F0.375
S'available'
p1084
tp1085
a(I180
I5
I0
S'great'
p1086
tp1087
a(I413
I12
F-0.625
S'other'
p1088
tp1089
a(I577
I10
I0
S'cellular'
p1090
tp1091
as(S'need'
p1092
tp1093
(lp1094
(I390
I5
I0
S'latest'
p1095
tp1096
as(S'gorilla'
p1097
S'glass'
p1098
tp1099
(lp1100
(I110
I1
F0.5
S'strong'
p1101
tp1102
a(I508
I8
I0
S'sturdy'
p1103
tp1104
as(g560
S'little'
p1105
S'bit'
p1106
tp1107
(lp1108
(I9
I17
I0
S'cool'
p1109
tp1110
a(I9
I17
F-0.75
S'little'
p1111
tp1112
a(I104
I97
F0.625
S'correct'
p1113
tp1114
a(I146
I13
F-0.75
S'difficult'
p1115
tp1116
a(I236
I0
F-0.25
S'low'
p1117
tp1118
a(I269
I9
F-0.75
S'cold'
p1119
tp1120
a(I269
I9
F1.0
S'good'
p1121
tp1122
a(I269
I9
F0.125
S'outside'
p1123
tp1124
as(S'recommend'
p1125
tp1126
(lp1127
(I364
I4
F-0.625
S'want'
p1128
tp1129
as(S'product'
p1130
tp1131
(lp1132
(I26
I0
F-0.625
S'other'
p1133
tp1134
a(I44
I2
F0.375
S'proud'
p1135
tp1136
a(I65
I2
F1.0
S'best'
p1137
tp1138
a(I77
I0
F-0.25
S'google'
p1139
tp1140
a(I78
I0
F-0.625
S'bad'
p1141
tp1142
a(I99
I0
F0.875
S'nice'
p1143
tp1144
a(I113
I0
I0
S'great'
p1145
tp1146
a(I175
I0
I0
S'great'
p1147
tp1148
a(I178
I2
F-0.25
S'google'
p1149
tp1150
a(I178
I5
F0.375
S'much'
p1151
tp1152
a(I178
I7
F0.375
S'reliable'
p1153
tp1154
a(I195
I1
F0.625
S'perfect'
p1155
tp1156
a(I210
I0
F1.0
S'good'
p1157
tp1158
a(I213
I0
F1.0
S'good'
p1159
tp1160
a(I228
I0
I0
S'quick'
p1161
tp1162
a(I242
I37
F-0.25
S'google'
p1163
tp1164
a(I242
I37
F0.125
S'first'
p1165
tp1166
a(I245
I8
F1.0
S'best'
p1167
tp1168
a(I279
I0
I0
S'only'
p1169
tp1170
a(I279
I0
F-0.875
S'negative'
p1171
tp1172
a(I347
I0
F1.0
S'good'
p1173
tp1174
a(I380
I0
F1.0
S'good'
p1175
tp1176
a(I409
I0
F-0.25
S'google'
p1177
tp1178
a(I446
I0
F0.375
S'available'
p1179
tp1180
a(I446
I0
F-0.25
S'google'
p1181
tp1182
a(I447
I2
I0
S'great'
p1183
tp1184
a(I475
I1
I0
S'great'
p1185
tp1186
a(I548
I5
I0
S'more'
p1187
tp1188
as(S'build'
p1189
S'quality'
p1190
tp1191
(lp1192
(I14
I0
I0
S'great'
p1193
tp1194
a(I205
I1
F0.25
g215
tp1195
a(I205
I1
F1.0
S'better'
p1196
tp1197
a(I357
I0
I0
g237
tp1198
a(I357
I0
F-0.125
g239
tp1199
a(I357
I0
F0.125
g241
tp1200
a(I407
I7
F1.0
S'best'
p1201
tp1202
a(I487
I0
I0
S'great'
p1203
tp1204
a(I512
I0
I0
S'high'
p1205
tp1206
a(I541
I0
F1.0
g265
tp1207
a(I574
I0
F1.0
g275
tp1208
a(I577
I6
F0.375
S'following'
p1209
tp1210
as(S'right'
p1211
tp1212
(lp1213
(I282
I0
F0.375
S'available'
p1214
tp1215
as(S'things'
p1216
tp1217
(lp1218
(I16
I5
I0
S'weird'
p1219
tp1220
a(I26
I9
I0
S'such'
p1221
tp1222
a(I32
I18
F0.625
S'easier'
p1223
tp1224
a(I45
I0
F0.125
S'first'
p1225
tp1226
a(I45
I0
F1.0
S'good'
p1227
tp1228
a(I56
I1
I0
S'different'
p1229
tp1230
a(I103
I3
F0.625
S'aware'
p1231
tp1232
a(I103
I7
I0
S'big'
p1233
tp1234
a(I104
I113
F-0.625
S'other'
p1235
tp1236
a(I134
I28
I0
S'such'
p1237
tp1238
a(I134
I33
F0.875
S'happy'
p1239
tp1240
a(I134
I43
I0
S'many'
p1241
tp1242
a(I143
I0
I0
S'more'
p1243
tp1244
a(I146
I5
F-0.625
S'other'
p1245
tp1246
a(I146
I8
I0
S'most'
p1247
tp1248
a(I183
I3
I0
S'great'
p1249
tp1250
a(I216
I0
I0
S'many'
p1251
tp1252
a(I231
I0
F1.0
S'good'
p1253
tp1254
a(I231
I0
F-0.625
S'bad'
p1255
tp1256
a(I242
I32
F-0.625
S'other'
p1257
tp1258
a(I242
I33
I0
S'different'
p1259
tp1260
a(I269
I5
F-0.5
S'certain'
p1261
tp1262
a(I300
I16
F0.25
S'biggest'
p1263
tp1264
a(I356
I8
F-0.375
S'simple'
p1265
tp1266
a(I356
I8
I0
S'net'
p1267
tp1268
a(I365
I33
F0.125
S'able'
p1269
tp1270
a(I371
I3
I0
S'many'
p1271
tp1272
a(I395
I2
F-0.375
S'small'
p1273
tp1274
a(I417
I0
F-0.25
S'disappointed'
p1275
tp1276
a(I417
I0
I0
S'many'
p1277
tp1278
a(I499
I5
F-0.625
S'other'
p1279
tp1280
a(I501
I55
F0.875
S'nice'
p1281
tp1282
a(I506
I35
I0
S'only'
p1283
tp1284
a(I522
I14
F-0.75
S'little'
p1285
tp1286
a(I522
I14
F-0.5
S'separate'
p1287
tp1288
a(I541
I0
F1.0
S'good'
p1289
tp1290
a(I554
I5
I0
S'many'
p1291
tp1292
a(I569
I4
F0.625
S'logical'
p1293
tp1294
a(I593
I2
F1.0
S'good'
p1295
tp1296
as(g560
S'samsung'
p1297
S'galaxy'
p1298
tp1299
(lp1300
(I23
I6
F-0.25
S'google'
p1301
tp1302
a(I104
I59
F0.25
S'original'
p1303
tp1304
a(I237
I0
I0
S'more'
p1305
tp1306
a(I295
I3
I0
S'old'
p1307
tp1308
a(I502
I8
F0.25
S'larger'
p1309
tp1310
as(S'power'
p1311
tp1312
(lp1313
(I119
I0
I0
S'more'
p1314
tp1315
a(I124
I0
I0
S'same'
p1316
tp1317
a(I216
I10
I0
S'high'
p1318
tp1319
a(I277
I13
I0
S'more'
p1320
tp1321
a(I300
I65
F-0.25
S'google'
p1322
tp1323
a(I336
I3
I0
S'tech'
p1324
tp1325
a(I336
I3
F0.125
S'able'
p1326
tp1327
a(I365
I32
F-0.5
S'certain'
p1328
tp1329
a(I369
I0
F0.125
S'first'
p1330
tp1331
a(I510
I16
F0.125
S'first'
p1332
tp1333
as(S'glass'
p1334
tp1335
(lp1336
(I36
I1
I0
S'rear'
p1337
tp1338
a(I36
I1
I0
S'own'
p1339
tp1340
a(I46
I8
F0.5
S'stylish'
p1341
tp1342
a(I104
I13
F0.375
S'much'
p1343
tp1344
a(I110
I1
F0.5
g1101
tp1345
a(I271
I3
F-0.25
S'thin'
p1346
tp1347
a(I271
I10
F-0.5
S'cracked'
p1348
tp1349
a(I271
I11
I0
S'same'
p1350
tp1351
a(I284
I0
I0
S'slippy'
p1352
tp1353
a(I379
I2
I0
S'rear'
p1354
tp1355
a(I407
I8
I0
S'slippery'
p1356
tp1357
a(I413
I7
I0
S'cosmetic'
p1358
tp1359
a(I508
I8
I0
g1103
tp1360
a(I512
I0
I0
S'sturdy'
p1361
tp1362
a(I534
I7
F0.556
S'delicate'
p1363
tp1364
a(I561
I4
I0
S'great'
p1365
tp1366
a(I583
I5
F-0.375
S'paranoid'
p1367
tp1368
as(S'micro'
p1369
S'sim'
p1370
S'card'
p1371
tp1372
(lp1373
(I10
I1
F-0.5
g548
tp1374
as(g560
S'long'
p1375
S'time'
p1376
tp1377
(lp1378
(I16
I4
F-0.5
S'long'
p1379
tp1380
a(I124
I1
F-0.5
S'long'
p1381
tp1382
a(I130
I21
F-0.5
S'long'
p1383
tp1384
a(I229
I0
F-0.5
S'long'
p1385
tp1386
a(I231
I0
F-0.5
S'long'
p1387
tp1388
a(I233
I11
F-0.5
S'long'
p1389
tp1390
a(I365
I1
F-0.5
S'long'
p1391
tp1392
a(I367
I7
F0.625
S'concrete'
p1393
tp1394
a(I367
I7
F-0.5
S'long'
p1395
tp1396
a(I407
I14
F-0.5
S'long'
p1397
tp1398
as(S'android'
p1399
tp1400
(lp1401
(I17
I0
F1.0
S'best'
p1402
tp1403
a(I20
I0
F1.0
S'best'
p1404
tp1405
a(I23
I0
F1.0
S'best'
p1406
tp1407
a(I26
I1
F0.125
S'native'
p1408
tp1409
a(I26
I10
F0.125
S'native'
p1410
tp1411
a(I27
I0
F1.0
S'best'
p1412
tp1413
a(I45
I0
F-0.25
S'google'
p1414
tp1415
a(I65
I2
F-0.25
S'google'
p1416
tp1417
a(I85
I3
I0
g859
tp1418
a(I85
I13
F0.125
S'last'
p1419
tp1420
a(I86
I0
F1.0
S'best'
p1421
tp1422
a(I98
I1
I0
S'current'
p1423
tp1424
a(I103
I6
F0.125
S'first'
p1425
tp1426
a(I103
I14
F-0.625
g861
tp1427
a(I104
I55
F-0.125
S'overall'
p1428
tp1429
a(I104
I55
F1.0
S'best'
p1430
tp1431
a(I111
I2
F1.0
S'best'
p1432
tp1433
a(I111
I2
I0
S'most'
p1434
tp1435
a(I111
I2
F0.5
S'elegant'
p1436
tp1437
a(I142
I0
F-0.625
S'clean'
p1438
tp1439
a(I157
I5
F0.125
S'last'
p1440
tp1441
a(I161
I2
I0
S'current'
p1442
tp1443
a(I183
I1
F1.0
g864
tp1444
a(I192
I0
F0.125
S'first'
p1445
tp1446
a(I205
I1
F0.25
S'powerful'
p1447
tp1448
a(I205
I1
I0
S'economical'
p1449
tp1450
a(I212
I1
F0.125
S'first'
p1451
tp1452
a(I266
I0
F0.125
S'first'
p1453
tp1454
a(I269
I0
F1.0
S'best'
p1455
tp1456
a(I280
I1
F0.375
S'early'
p1457
tp1458
a(I293
I0
I0
S'only'
p1459
tp1460
a(I299
I6
I0
S'current'
p1461
tp1462
a(I300
I22
F1.0
S'best'
p1463
tp1464
a(I342
I0
F-0.25
S'google'
p1465
tp1466
a(I342
I0
F1.0
S'best'
p1467
tp1468
a(I361
I0
F1.0
g602
tp1469
a(I366
I3
F1.0
g605
tp1470
a(I418
I0
F0.125
S'first'
p1471
tp1472
a(I424
I1
F0.375
S'new'
p1473
tp1474
a(I426
I0
F1.0
S'best'
p1475
tp1476
a(I466
I0
F1.0
S'best'
p1477
tp1478
a(I497
I6
F1.0
S'best'
p1479
tp1480
a(I501
I9
F1.0
g875
tp1481
a(I513
I3
F0.375
S'new'
p1482
tp1483
a(I515
I1
F-0.125
S'bean'
p1484
tp1485
a(I517
I0
F1.0
g608
tp1486
a(I535
I0
F1.0
S'best'
p1487
tp1488
a(I542
I0
F0.125
S'first'
p1489
tp1490
a(I564
I0
F1.0
S'better'
p1491
tp1492
a(I579
I0
F1.0
S'best'
p1493
tp1494
a(I584
I0
F1.0
S'best'
p1495
tp1496
a(I591
I0
F1.0
S'good'
p1497
tp1498
a(I595
I0
F0.875
S'attractive'
p1499
tp1500
as(S'updates'
p1501
tp1502
(lp1503
(I6
I1
I0
S'least'
p1504
tp1505
a(I37
I3
F0.75
S'receive'
p1506
tp1507
a(I46
I4
F0.125
S'first'
p1508
tp1509
a(I46
I4
I0
S'latest'
p1510
tp1511
a(I46
I4
I0
S'android'
p1512
tp1513
a(I73
I4
I0
S'automatic'
p1514
tp1515
a(I82
I1
F-0.25
S'google'
p1516
tp1517
a(I82
I1
I0
S'android'
p1518
tp1519
a(I82
I1
I0
S'faster'
p1520
tp1521
a(I103
I5
I0
S'latest'
p1522
tp1523
a(I104
I146
F0.125
S'first'
p1524
tp1525
a(I205
I1
I0
S'android'
p1526
tp1527
a(I205
I1
I0
S'faster'
p1528
tp1529
a(I244
I0
F-0.25
S'google'
p1530
tp1531
a(I315
I1
I0
S'latest'
p1532
tp1533
a(I315
I1
I0
S'android'
p1534
tp1535
a(I315
I18
F0.125
S'first'
p1536
tp1537
a(I315
I18
I0
S'latest'
p1538
tp1539
a(I333
I3
F-0.25
S'google'
p1540
tp1541
a(I357
I20
F-0.25
S'google'
p1542
tp1543
a(I365
I9
I0
S'android'
p1544
tp1545
a(I365
I11
I0
S'latest'
p1546
tp1547
a(I397
I0
I0
S'finest'
p1548
tp1549
a(I455
I1
I0
S'latest'
p1550
tp1551
a(I455
I1
I0
S'android'
p1552
tp1553
a(I497
I5
I0
S'android'
p1554
tp1555
a(I497
I5
F0.375
S'available'
p1556
tp1557
a(I513
I17
F0.25
S'biggest'
p1558
tp1559
a(I534
I22
I0
S'latest'
p1560
tp1561
a(I534
I22
I0
S'android'
p1562
tp1563
a(I599
I3
F0.375
S'new'
p1564
tp1565
as(S'to'
p1566
S'go'
p1567
S'back'
p1568
tp1569
(lp1570
(I501
I44
F0.75
S'beautiful'
p1571
tp1572
a(I593
I2
F-0.375
S'smooth'
p1573
tp1574
as(S'directly'
p1575
S'from'
p1576
S'google'
p1577
tp1578
(lp1579
(I556
I0
F-0.125
g43
tp1580
as(S'get'
p1581
g560
S'case'
p1582
tp1583
(lp1584
(I104
I106
F0.875
g406
tp1585
a(I130
I9
F0.125
g410
tp1586
a(I184
I3
F1.0
g422
tp1587
a(I269
I33
F-0.5
g430
tp1588
a(I367
I12
F0.875
g442
tp1589
a(I509
I6
F1.0
g452
tp1590
as(S'sd'
p1591
S'card'
p1592
S'slot'
p1593
tp1594
(lp1595
(I372
I3
F0.375
S'available'
p1596
tp1597
a(I542
I3
I0
g346
tp1598
as(S'nexus'
p1599
tp1600
(lp1601
(I16
I8
F0.5
S'willing'
p1602
tp1603
a(I23
I14
F0.375
S'newest'
p1604
tp1605
a(I39
I14
F-0.25
S'google'
p1606
tp1607
a(I40
I1
I0
S'more'
p1608
tp1609
a(I43
I0
F-0.25
S'google'
p1610
tp1611
a(I51
I0
F0.5
S'second'
p1612
tp1613
a(I60
I5
F-0.75
S'dead'
p1614
tp1615
a(I85
I3
I0
S'android'
p1616
tp1617
a(I98
I3
F0.25
S'read'
p1618
tp1619
a(I98
I3
F-0.625
S'other'
p1620
tp1621
a(I104
I13
F0.625
S'easy'
p1622
tp1623
a(I119
I1
F0.5
S'rid'
p1624
tp1625
a(I129
I0
F-0.25
S'google'
p1626
tp1627
a(I129
I0
F-0.25
S'google'
p1628
tp1629
a(I130
I3
I0
S'great'
p1630
tp1631
a(I133
I0
F0.375
S'new'
p1632
tp1633
a(I134
I21
I0
S'big'
p1634
tp1635
a(I136
I1
F0.375
S'new'
p1636
tp1637
a(I136
I1
F0.875
S'nice'
p1638
tp1639
a(I143
I0
F0.5
S'second'
p1640
tp1641
a(I146
I0
I0
S'next'
p1642
tp1643
a(I154
I0
F1.0
S'best'
p1644
tp1645
a(I163
I0
F0.375
S'new'
p1646
tp1647
a(I166
I1
I0
S'general'
p1648
tp1649
a(I178
I3
I0
S'least'
p1650
tp1651
a(I178
I3
F0.875
S'happy'
p1652
tp1653
a(I181
I0
F1.0
S'better'
p1654
tp1655
a(I182
I2
F0.375
S'available'
p1656
tp1657
a(I183
I0
F0.375
S'new'
p1658
tp1659
a(I184
I11
F-0.375
S'black'
p1660
tp1661
a(I184
I11
F-0.25
S'white'
p1662
tp1663
a(I184
I11
F-0.375
S'black'
p1664
tp1665
a(I216
I10
I0
S'cable'
p1666
tp1667
a(I224
I3
I0
S'faster'
p1668
tp1669
a(I239
I0
F-0.25
S'google'
p1670
tp1671
a(I242
I3
F-0.25
S'google'
p1672
tp1673
a(I243
I0
F0.875
S'happy'
p1674
tp1675
a(I245
I17
I0
S'nexus'
p1676
tp1677
a(I245
I25
I0
S'next'
p1678
tp1679
a(I247
I0
F-0.25
S'cheaper'
p1680
tp1681
a(I247
I0
I0
S'cool'
p1682
tp1683
a(I255
I4
F1.0
S'best'
p1684
tp1685
a(I269
I1
F0.25
S'larger'
p1686
tp1687
a(I300
I7
I0
S'arrival'
p1688
tp1689
a(I345
I4
I0
S'next'
p1690
tp1691
a(I352
I0
F0.75
S'receive'
p1692
tp1693
a(I356
I1
F0.25
S'original'
p1694
tp1695
a(I356
I3
F0.25
S'original'
p1696
tp1697
a(I357
I4
F-0.25
S'thin'
p1698
tp1699
a(I357
I7
F-0.125
S'bean'
p1700
tp1701
a(I357
I20
F-0.75
S'wrong'
p1702
tp1703
a(I363
I2
F0.625
S'perfect'
p1704
tp1705
a(I364
I2
F-0.75
S'little'
p1706
tp1707
a(I391
I3
F-0.25
S'google'
p1708
tp1709
a(I395
I17
I0
S'great'
p1710
tp1711
a(I402
I9
I0
S'galaxy'
p1712
tp1713
a(I402
I11
F0.875
S'happy'
p1714
tp1715
a(I403
I0
I0
S'quick'
p1716
tp1717
a(I419
I0
F0.25
S'unlocked'
p1718
tp1719
a(I419
I5
F0.875
S'happy'
p1720
tp1721
a(I427
I6
F0.375
S'new'
p1722
tp1723
a(I433
I1
I0
S'next'
p1724
tp1725
a(I451
I2
F-0.875
S'hard'
p1726
tp1727
a(I483
I0
F-0.5
S'less'
p1728
tp1729
a(I485
I0
F0.125
S'first'
p1730
tp1731
a(I488
I0
I0
S'old'
p1732
tp1733
a(I490
I2
F0.375
S'new'
p1734
tp1735
a(I491
I0
F0.75
S'worth'
p1736
tp1737
a(I501
I44
I0
g584
tp1738
a(I501
I44
F-0.625
g586
tp1739
a(I501
I44
F-0.25
g588
tp1740
a(I501
I44
F0.625
g590
tp1741
a(I501
I45
F-0.25
g592
tp1742
a(I501
I56
I0
S'such'
p1743
tp1744
a(I506
I6
F1.0
S'good'
p1745
tp1746
a(I506
I24
I0
S'more'
p1747
tp1748
a(I506
I26
I0
S'full'
p1749
tp1750
a(I506
I26
I0
S'full'
p1751
tp1752
a(I506
I37
F-0.25
S'google'
p1753
tp1754
a(I513
I18
I0
S'fundamental'
p1755
tp1756
a(I513
I19
F-0.375
S'avoid'
p1757
tp1758
a(I514
I2
I0
S'third'
p1759
tp1760
a(I514
I2
I0
S'android'
p1761
tp1762
a(I514
I2
F0.125
S'first'
p1763
tp1764
a(I514
I2
F1.0
S'best'
p1765
tp1766
a(I514
I2
F-0.125
S'overall'
p1767
tp1768
a(I534
I25
F-0.625
S'other'
p1769
tp1770
a(I536
I6
I0
S'different'
p1771
tp1772
a(I536
I6
F0.25
S'original'
p1773
tp1774
a(I550
I0
F0.875
S'nice'
p1775
tp1776
a(I569
I3
F-0.125
S'overall'
p1777
tp1778
a(I569
I5
F-0.375
S'simple'
p1779
tp1780
a(I590
I0
I0
S'third'
p1781
tp1782
a(I597
I1
F0.5
S'second'
p1783
tp1784
as(S'thing'
p1785
tp1786
(lp1787
(I9
I6
I0
S'wide'
p1788
tp1789
a(I9
I6
F0.5
S'tall'
p1790
tp1791
a(I83
I1
I0
S'table'
p1792
tp1793
a(I104
I30
F0.625
S'easy'
p1794
tp1795
a(I104
I30
F-0.375
S'simple'
p1796
tp1797
a(I104
I62
F-0.625
S'sporadic'
p1798
tp1799
a(I104
I62
F0.625
S'easy'
p1800
tp1801
a(I104
I62
I0
S'least'
p1802
tp1803
a(I104
I97
F-0.75
S'little'
p1804
tp1805
a(I104
I128
F-0.625
S'other'
p1806
tp1807
a(I104
I158
I0
S'own'
p1808
tp1809
a(I104
I158
I0
S'more'
p1810
tp1811
a(I104
I160
I0
S'closest'
p1812
tp1813
a(I104
I160
F0.625
S'aware'
p1814
tp1815
a(I125
I2
I0
S'same'
p1816
tp1817
a(I130
I5
F-0.625
S'other'
p1818
tp1819
a(I134
I41
F-0.375
S'small'
p1820
tp1821
a(I134
I46
F1.0
S'good'
p1822
tp1823
a(I141
I21
F0.125
S'last'
p1824
tp1825
a(I150
I1
F-0.625
S'other'
p1826
tp1827
a(I176
I3
I0
S'same'
p1828
tp1829
a(I176
I3
I0
S'same'
p1830
tp1831
a(I192
I42
I0
S'most'
p1832
tp1833
a(I203
I0
I0
S'only'
p1834
tp1835
a(I203
I0
F-0.625
S'bad'
p1836
tp1837
a(I274
I4
I0
S'great'
p1838
tp1839
a(I332
I3
F0.25
S'main'
p1840
tp1841
a(I345
I9
I0
S'coolest'
p1842
tp1843
a(I355
I5
F-0.875
S'awful'
p1844
tp1845
a(I365
I4
F0.875
S'important'
p1846
tp1847
a(I398
I3
I0
S'curious'
p1848
tp1849
a(I398
I3
I0
S'fast'
p1850
tp1851
a(I404
I9
I0
S'own'
p1852
tp1853
a(I425
I73
I0
S'only'
p1854
tp1855
a(I501
I6
I0
S'only'
p1856
tp1857
a(I501
I24
F-0.625
S'other'
p1858
tp1859
a(I502
I4
I0
S'more'
p1860
tp1861
a(I522
I10
F-0.75
S'stupidest'
p1862
tp1863
a(I522
I21
I0
S'only'
p1864
tp1865
a(I534
I1
F0.125
S'first'
p1866
tp1867
a(I583
I10
I0
S'only'
p1868
tp1869
a(I583
I10
F-0.625
S'other'
p1870
tp1871
as(S'on'
p1872
S'google'
p1873
S'play'
p1874
tp1875
(lp1876
(I57
I9
F-0.25
g54
tp1877
a(I121
I0
F-0.25
g503
tp1878
a(I129
I5
F-0.25
g56
tp1879
a(I130
I15
F-0.25
g506
tp1880
a(I130
I17
F-0.25
g58
tp1881
a(I141
I0
F-0.125
S'mine'
p1882
tp1883
a(I141
I0
F-0.25
S'google'
p1884
tp1885
a(I152
I0
F-0.25
g511
tp1886
a(I152
I14
F-0.25
S'google'
p1887
tp1888
a(I193
I17
F-0.25
S'google'
p1889
tp1890
a(I200
I4
F-0.25
g62
tp1891
a(I216
I0
F-0.125
g514
tp1892
a(I216
I0
F-0.25
g516
tp1893
a(I217
I2
F-0.25
g518
tp1894
a(I235
I2
F-0.25
g520
tp1895
a(I264
I0
F-0.25
g64
tp1896
a(I298
I1
F-0.25
g66
tp1897
a(I350
I0
F-0.25
S'google'
p1898
tp1899
a(I354
I3
F0.125
g37
tp1900
a(I365
I0
F-0.25
g68
tp1901
a(I397
I3
F-0.625
g39
tp1902
a(I397
I3
F-0.25
g525
tp1903
a(I402
I0
F-0.25
g70
tp1904
a(I427
I6
F-0.25
g528
tp1905
a(I433
I0
F-0.25
g72
tp1906
a(I440
I0
F-0.25
S'google'
p1907
tp1908
a(I479
I1
F-0.125
g531
tp1909
a(I479
I1
F-0.25
g533
tp1910
a(I501
I0
F-0.25
g74
tp1911
a(I501
I3
F-0.25
S'google'
p1912
tp1913
a(I501
I3
F0.375
S'significant'
p1914
tp1915
a(I501
I33
F-0.25
S'google'
p1916
tp1917
a(I501
I33
F-0.25
S'cheaper'
p1918
tp1919
a(I506
I30
F-0.25
g76
tp1920
a(I510
I0
F-0.25
g80
tp1921
a(I510
I21
F-0.25
g82
tp1922
a(I548
I1
F-0.25
g539
tp1923
a(I556
I0
F-0.125
g43
tp1924
a(I572
I0
F-0.125
g85
tp1925
a(I582
I0
F-0.25
S'google'
p1926
tp1927
a(I593
I2
F-0.25
g87
tp1928
as(S'make'
p1929
tp1930
(lp1931
(I365
I27
I0
S'aspect'
p1932
tp1933
as(S'work'
p1934
tp1935
(lp1936
(I365
I40
F-0.5
S'less'
p1937
tp1938
a(I365
I40
F0.25
S'portable'
p1939
tp1940
a(I572
I0
F-0.375
S'smooth'
p1941
tp1942
as(S'seems'
p1943
tp1944
(lp1945
(I239
I11
F1.0
S'better'
p1946
tp1947
a(I371
I1
F0.25
S'responsive'
p1948
tp1949
as(S'battery'
p1950
S'life'
p1951
tp1952
(lp1953
(I2
I0
I0
S'great'
p1954
tp1955
a(I3
I18
F-0.5
S'poor'
p1956
tp1957
a(I29
I2
I0
S'great'
p1958
tp1959
a(I32
I10
I0
S'current'
p1960
tp1961
a(I37
I2
I0
S'standard'
p1962
tp1963
a(I54
I11
F0.125
S'able'
p1964
tp1965
a(I63
I5
F1.0
S'good'
p1966
tp1967
a(I100
I3
F1.0
S'better'
p1968
tp1969
a(I179
I11
F-0.5
S'less'
p1970
tp1971
a(I179
I11
F0.25
S'stellar'
p1972
tp1973
a(I204
I1
F-0.75
S'short'
p1974
tp1975
a(I216
I7
F1.0
S'good'
p1976
tp1977
a(I216
I7
I0
S'great'
p1978
tp1979
a(I231
I0
F1.0
S'good'
p1980
tp1981
a(I269
I26
I0
S'great'
p1982
tp1983
a(I286
I7
I0
S'great'
p1984
tp1985
a(I302
I4
I0
S'most'
p1986
tp1987
a(I321
I1
F1.0
S'good'
p1988
tp1989
a(I360
I0
F-0.75
S'short'
p1990
tp1991
a(I365
I19
F0.625
S'manageable'
p1992
tp1993
a(I365
I33
F-0.5
S'less'
p1994
tp1995
a(I388
I11
F-0.75
S'short'
p1996
tp1997
a(I395
I12
F-0.625
S'average'
p1998
tp1999
a(I398
I2
F1.0
S'good'
p2000
tp2001
a(I402
I11
F-0.375
S'double'
p2002
tp2003
a(I417
I3
F-0.5
S'poor'
p2004
tp2005
a(I419
I2
F-0.5
S'long'
p2006
tp2007
a(I428
I1
F1.0
S'good'
p2008
tp2009
a(I472
I0
F1.0
S'good'
p2010
tp2011
a(I479
I11
F1.0
S'good'
p2012
tp2013
a(I486
I2
I0
S'hot'
p2014
tp2015
a(I508
I1
F-0.875
S'negative'
p2016
tp2017
a(I508
I1
F-0.625
S'light'
p2018
tp2019
a(I508
I1
F-0.5
S'poor'
p2020
tp2021
a(I515
I2
F-0.625
S'average'
p2022
tp2023
a(I554
I23
F-0.375
S'near'
p2024
tp2025
a(I582
I0
F1.0
S'good'
p2026
tp2027
as(S'pure'
p2028
S'android'
p2029
tp2030
(lp2031
(I361
I0
F1.0
g602
tp2032
a(I366
I3
F1.0
g605
tp2033
a(I472
I0
I0
S'android'
p2034
tp2035
a(I494
I0
F-0.25
S'thin'
p2036
tp2037
a(I494
I0
F0.75
S'beautiful'
p2038
tp2039
a(I517
I0
F1.0
g608
tp2040
a(I588
I1
F1.0
S'better'
p2041
tp2042
a(I588
I1
F-0.25
S'google'
p2043
tp2044
as(S'looks'
p2045
tp2046
(lp2047
(I139
I1
F0.875
S'nice'
p2048
tp2049
a(I150
I0
I0
S'fast'
p2050
tp2051
a(I150
I0
F0.875
S'nice'
p2052
tp2053
a(I225
I0
F0.75
S'beautiful'
p2054
tp2055
a(I355
I5
F1.0
S'good'
p2056
tp2057
a(I416
I0
F0.625
S'easy'
p2058
tp2059
a(I416
I0
F1.0
S'good'
p2060
tp2061
a(I423
I2
I0
S'great'
p2062
tp2063
a(I425
I13
F1.0
S'good'
p2064
tp2065
a(I425
I34
F1.0
S'good'
p2066
tp2067
a(I510
I15
F1.0
S'good'
p2068
tp2069
a(I513
I15
F-0.25
S'google'
p2070
tp2071
as(S'f'
p2072
S'are'
p2073
S'looking'
p2074
tp2075
(lp2076
(I329
I1
F0.875
S'nice'
p2077
tp2078
as(S'back'
p2079
tp2080
(lp2081
(I103
I3
F0.875
S'nice'
p2082
tp2083
a(I103
I3
F0.625
S'finish'
p2084
tp2085
a(I270
I12
F-0.125
S'mine'
p2086
tp2087
a(I425
I12
I0
S'plastic'
p2088
tp2089
a(I501
I43
F-0.875
S'hard'
p2090
tp2091
a(I501
I44
F0.75
g1571
tp2092
a(I510
I9
F-0.75
S'impossible'
p2093
tp2094
a(I593
I2
F-0.375
g1573
tp2095
as(S'life'
p2096
tp2097
(lp2098
(I2
I0
I0
g1954
tp2099
a(I29
I2
I0
g1958
tp2100
a(I37
I2
I0
g1962
tp2101
a(I54
I11
F0.125
g1964
tp2102
a(I104
I56
I0
S'such'
p2103
tp2104
a(I153
I0
I0
S'real'
p2105
tp2106
a(I179
I11
F-0.5
g1970
tp2107
a(I179
I11
F0.25
g1972
tp2108
a(I216
I7
F1.0
g1976
tp2109
a(I216
I7
I0
g1978
tp2110
a(I234
I2
F0.625
S'pleasant'
p2111
tp2112
a(I234
I2
I0
S'mobile'
p2113
tp2114
a(I245
I6
I0
S'own'
p2115
tp2116
a(I245
I20
I0
S'real'
p2117
tp2118
a(I269
I26
I0
g1982
tp2119
a(I273
I1
I0
S'ample'
p2120
tp2121
a(I286
I7
I0
g1984
tp2122
a(I360
I0
F-0.75
g1990
tp2123
a(I365
I19
F0.625
g1992
tp2124
a(I388
I11
F-0.75
g1996
tp2125
a(I395
I12
F-0.625
g1998
tp2126
a(I398
I2
F1.0
g2000
tp2127
a(I417
I3
F-0.5
g2004
tp2128
a(I472
I0
F1.0
g2010
tp2129
a(I479
I11
F1.0
g2012
tp2130
a(I554
I23
F-0.375
g2024
tp2131
a(I582
I0
F1.0
g2026
tp2132
as(g880
S'google'
p2133
S'play'
p2134
tp2135
(lp2136
(I57
I8
F-0.25
g500
tp2137
a(I57
I9
F-0.25
g54
tp2138
a(I121
I0
F-0.25
g503
tp2139
a(I129
I5
F-0.25
g56
tp2140
a(I130
I15
F-0.25
g506
tp2141
a(I130
I17
F-0.25
g58
tp2142
a(I141
I0
F-0.125
g1882
tp2143
a(I141
I0
F-0.25
g1884
tp2144
a(I151
I1
F-0.25
g509
tp2145
a(I152
I0
F-0.25
g511
tp2146
a(I152
I14
F-0.25
g1887
tp2147
a(I165
I0
F-0.25
g60
tp2148
a(I193
I17
F-0.25
g1889
tp2149
a(I200
I4
F-0.25
g62
tp2150
a(I216
I0
F-0.125
g514
tp2151
a(I216
I0
F-0.25
g516
tp2152
a(I217
I2
F-0.25
g518
tp2153
a(I235
I2
F-0.25
g520
tp2154
a(I264
I0
F-0.25
g64
tp2155
a(I298
I1
F-0.25
g66
tp2156
a(I350
I0
F-0.25
g1898
tp2157
a(I354
I3
F0.125
g37
tp2158
a(I365
I0
F-0.25
g68
tp2159
a(I397
I3
F-0.625
g39
tp2160
a(I397
I3
F-0.25
g525
tp2161
a(I402
I0
F-0.25
g70
tp2162
a(I427
I6
F-0.25
g528
tp2163
a(I433
I0
F-0.25
g72
tp2164
a(I440
I0
F-0.25
g1907
tp2165
a(I479
I1
F-0.125
g531
tp2166
a(I479
I1
F-0.25
g533
tp2167
a(I501
I0
F-0.25
g74
tp2168
a(I501
I1
F-0.25
S'google'
p2169
tp2170
a(I501
I3
F-0.25
g1912
tp2171
a(I501
I3
F0.375
g1914
tp2172
a(I501
I33
F-0.25
g1916
tp2173
a(I501
I33
F-0.25
g1918
tp2174
a(I506
I30
F-0.25
g76
tp2175
a(I508
I0
F-0.25
g78
tp2176
a(I510
I0
F-0.25
g80
tp2177
a(I510
I21
F-0.25
g82
tp2178
a(I548
I1
F-0.25
g539
tp2179
a(I556
I0
F-0.125
g43
tp2180
a(I572
I0
F-0.125
g85
tp2181
a(I582
I0
F-0.25
g1926
tp2182
a(I593
I2
F-0.25
g87
tp2183
as(S'front'
p2184
S'and'
p2185
S'back'
p2186
tp2187
(lp2188
(I354
I23
I0
S'plate'
p2189
tp2190
a(I425
I9
F-0.375
S'smooth'
p2191
tp2192
as(S'galaxy'
p2193
S's'
p2194
S'ii'
p2195
tp2196
(lp2197
(I531
I10
I0
S'more'
p2198
tp2199
as(S'samsung'
p2200
S'galaxy'
p2201
S's3'
p2202
tp2203
(lp2204
(I255
I1
I0
S'android'
p2205
tp2206
a(I548
I2
F-0.75
S'dead'
p2207
tp2208
as(S'battery'
p2209
tp2210
(lp2211
(I3
I18
F-0.5
g1956
tp2212
a(I9
I18
F0.5
S'strong'
p2213
tp2214
a(I9
I18
F0.125
S'last'
p2215
tp2216
a(I32
I10
I0
g1960
tp2217
a(I39
I16
F0.125
S'last'
p2218
tp2219
a(I47
I0
F-0.25
S'google'
p2220
tp2221
a(I63
I5
F1.0
g1966
tp2222
a(I85
I10
F0.125
S'last'
p2223
tp2224
a(I85
I11
F-0.625
S'fresh'
p2225
tp2226
a(I97
I1
F-0.25
S'low'
p2227
tp2228
a(I97
I1
F-0.25
S'low'
p2229
tp2230
a(I100
I3
F1.0
g1968
tp2231
a(I103
I7
F0.625
S'removable'
p2232
tp2233
a(I103
I9
F0.625
S'removable'
p2234
tp2235
a(I103
I9
F0.875
S'nice'
p2236
tp2237
a(I117
I1
F0.625
S'removable'
p2238
tp2239
a(I117
I3
F0.125
S'last'
p2240
tp2241
a(I139
I1
F0.125
S'last'
p2242
tp2243
a(I139
I2
F0.125
S'last'
p2244
tp2245
a(I141
I13
F0.125
S'last'
p2246
tp2247
a(I162
I4
F1.0
S'good'
p2248
tp2249
a(I174
I2
F0.625
S'removable'
p2250
tp2251
a(I177
I1
I0
S'fast'
p2252
tp2253
a(I192
I11
F-0.625
S'average'
p2254
tp2255
a(I192
I35
F-0.75
S'dead'
p2256
tp2257
a(I204
I1
F-0.75
g1974
tp2258
a(I206
I0
F1.0
S'good'
p2259
tp2260
a(I231
I0
F1.0
g1980
tp2261
a(I239
I11
F0.125
S'first'
p2262
tp2263
a(I249
I2
F1.0
S'good'
p2264
tp2265
a(I255
I2
F0.5
S'second'
p2266
tp2267
a(I255
I2
F0.125
S'last'
p2268
tp2269
a(I293
I1
F-0.625
S'average'
p2270
tp2271
a(I302
I4
I0
g1986
tp2272
a(I302
I6
F0.625
S'replaceable'
p2273
tp2274
a(I302
I6
F0.625
S'easy'
p2275
tp2276
a(I307
I1
F-0.5
S'heavy'
p2277
tp2278
a(I307
I1
F0.125
S'last'
p2279
tp2280
a(I307
I1
F-0.5
S'long'
p2281
tp2282
a(I311
I0
F-0.625
S'free'
p2283
tp2284
a(I321
I1
F1.0
g1988
tp2285
a(I344
I0
F0.625
S'easier'
p2286
tp2287
a(I354
I23
F0.125
S'sealed'
p2288
tp2289
a(I355
I0
F0.125
S'downside'
p2290
tp2291
a(I364
I2
F0.125
S'last'
p2292
tp2293
a(I365
I20
I0
S'more'
p2294
tp2295
a(I365
I33
F-0.5
g1994
tp2296
a(I378
I0
F-0.375
S'serious'
p2297
tp2298
a(I378
I0
F-0.5
S'weak'
p2299
tp2300
a(I391
I2
F0.625
S'removable'
p2301
tp2302
a(I402
I11
F-0.375
g2002
tp2303
a(I407
I13
F0.5
S'odd'
p2304
tp2305
a(I419
I2
F-0.5
g2006
tp2306
a(I425
I69
I0
S'fast'
p2307
tp2308
a(I428
I1
F1.0
g2008
tp2309
a(I479
I14
I0
S'fast'
p2310
tp2311
a(I486
I2
I0
g2014
tp2312
a(I501
I3
F1.0
S'good'
p2313
tp2314
a(I506
I33
F-0.625
S'glad'
p2315
tp2316
a(I508
I1
F-0.875
g2016
tp2317
a(I508
I1
F-0.625
g2018
tp2318
a(I508
I1
F-0.5
g2020
tp2319
a(I515
I2
F-0.625
g2022
tp2320
a(I575
I2
F1.0
S'good'
p2321
tp2322
a(I582
I1
F0.125
S'last'
p2323
tp2324
a(I586
I6
F0.625
S'replaceable'
p2325
tp2326
a(I596
I0
F1.0
S'better'
p2327
tp2328
as(S'galaxy'
p2329
S'nexus'
p2330
tp2331
(lp2332
(I104
I185
F0.375
S'available'
p2333
tp2334
a(I119
I1
F0.5
g1624
tp2335
a(I146
I0
F0.25
S'original'
p2336
tp2337
a(I146
I0
I0
g1642
tp2338
a(I243
I0
F0.875
g1674
tp2339
a(I357
I20
F-0.75
g1702
tp2340
a(I402
I9
I0
g1712
tp2341
a(I402
I10
F-0.125
S'slow'
p2342
tp2343
a(I402
I11
F0.875
g1714
tp2344
a(I425
I61
F1.0
S'better'
p2345
tp2346
a(I488
I0
I0
g1732
tp2347
a(I491
I0
F0.75
g1736
tp2348
a(I576
I2
F-0.625
S'other'
p2349
tp2350
as(S'samsung'
p2351
S'galaxy'
p2352
tp2353
(lp2354
(I23
I6
F-0.25
g1301
tp2355
a(I104
I59
F0.25
g1303
tp2356
a(I237
I0
I0
g1305
tp2357
a(I295
I3
I0
g1307
tp2358
a(I502
I8
F0.25
g1309
tp2359
as(S'looking'
p2360
tp2361
(lp2362
(I72
I7
F1.0
S'good'
p2363
tp2364
a(I146
I9
F-0.625
S'natural'
p2365
tp2366
a(I286
I4
F0.75
S'beautiful'
p2367
tp2368
a(I329
I1
F0.875
g2077
tp2369
a(I333
I3
F1.0
S'good'
p2370
tp2371
a(I563
I2
F0.25
S'responsive'
p2372
tp2373
a(I563
I2
F1.0
S'good'
p2374
tp2375
a(I582
I1
F1.0
S'good'
p2376
tp2377
as(S'update'
p2378
tp2379
(lp2380
(I23
I6
I0
S'next'
p2381
tp2382
a(I68
I4
F-0.25
S'google'
p2383
tp2384
a(I68
I4
I0
S'next'
p2385
tp2386
a(I68
I4
F-0.125
S'bean'
p2387
tp2388
a(I79
I5
I0
S'fast'
p2389
tp2390
a(I79
I5
I0
S'android'
p2391
tp2392
a(I102
I2
F0.5
S'hopeful'
p2393
tp2394
a(I102
I2
I0
S'android'
p2395
tp2396
a(I104
I147
F-0.375
S'small'
p2397
tp2398
a(I104
I148
F-0.5
S'actual'
p2399
tp2400
a(I146
I21
F0.25
S'recent'
p2401
tp2402
a(I205
I3
F-0.25
S'google'
p2403
tp2404
a(I430
I3
I0
S'android'
p2405
tp2406
a(I430
I3
F-0.375
S'smooth'
p2407
tp2408
a(I503
I2
F-0.25
S'direct'
p2409
tp2410
a(I503
I2
F-0.25
S'google'
p2411
tp2412
a(I575
I5
I0
S'android'
p2413
tp2414
as(S'best'
p2415
S'android'
p2416
tp2417
(lp2418
(I17
I0
F1.0
g1402
tp2419
a(I20
I0
F1.0
g1404
tp2420
a(I23
I0
F1.0
g1406
tp2421
a(I27
I0
F1.0
g1412
tp2422
a(I65
I2
F-0.25
g1416
tp2423
a(I86
I0
F1.0
g1421
tp2424
a(I104
I55
F-0.125
g1428
tp2425
a(I104
I55
F1.0
g1430
tp2426
a(I111
I2
F1.0
g1432
tp2427
a(I111
I2
I0
g1434
tp2428
a(I111
I2
F0.5
g1436
tp2429
a(I183
I1
F1.0
g864
tp2430
a(I269
I0
F1.0
g1455
tp2431
a(I280
I1
F0.375
g1457
tp2432
a(I300
I22
F1.0
g1463
tp2433
a(I342
I0
F-0.25
g1465
tp2434
a(I342
I0
F1.0
g1467
tp2435
a(I361
I0
F1.0
g602
tp2436
a(I366
I3
F1.0
g605
tp2437
a(I426
I0
F1.0
g1475
tp2438
a(I466
I0
F1.0
g1477
tp2439
a(I497
I6
F1.0
g1479
tp2440
a(I501
I9
F1.0
g875
tp2441
a(I517
I0
F1.0
g608
tp2442
a(I535
I0
F1.0
g1487
tp2443
a(I579
I0
F1.0
g1493
tp2444
a(I584
I0
F1.0
g1495
tp2445
a(I591
I0
F1.0
g1497
tp2446
as(S'pretty'
p2447
tp2448
(lp2449
(I104
I151
I0
S'big'
p2450
tp2451
as(S'time'
p2452
tp2453
(lp2454
(I16
I4
F-0.5
g1379
tp2455
a(I30
I3
I0
S'next'
p2456
tp2457
a(I34
I0
I0
S'most'
p2458
tp2459
a(I37
I2
F-0.5
S'sure'
p2460
tp2461
a(I59
I1
F0.125
S'last'
p2462
tp2463
a(I103
I6
F0.125
S'first'
p2464
tp2465
a(I104
I102
I0
S'great'
p2466
tp2467
a(I104
I102
F0.375
S'much'
p2468
tp2469
a(I104
I102
F0.5
S'accurate'
p2470
tp2471
a(I104
I176
I0
S'least'
p2472
tp2473
a(I104
I176
F0.5
S'whole'
p2474
tp2475
a(I104
I213
I0
S'big'
p2476
tp2477
a(I124
I1
F-0.5
g1381
tp2478
a(I130
I21
F-0.5
g1383
tp2479
a(I134
I24
F0.125
S'first'
p2480
tp2481
a(I134
I41
F-0.625
S'inopportune'
p2482
tp2483
a(I141
I4
I0
S'same'
p2484
tp2485
a(I146
I14
I0
S'non-issue'
p2486
tp2487
a(I192
I28
I0
S'same'
p2488
tp2489
a(I192
I31
I0
S'same'
p2490
tp2491
a(I229
I0
F-0.5
g1385
tp2492
a(I231
I0
F-0.5
g1387
tp2493
a(I233
I11
F-0.5
g1389
tp2494
a(I241
I2
F0.125
S'first'
p2495
tp2496
a(I241
I2
F-0.75
S'comfortable'
p2497
tp2498
a(I241
I2
F-0.25
S'ready'
p2499
tp2500
a(I242
I2
F0.125
S'first'
p2501
tp2502
a(I299
I5
F0.125
S'first'
p2503
tp2504
a(I343
I0
F-0.75
S'tough'
p2505
tp2506
a(I365
I1
F-0.5
g1391
tp2507
a(I365
I2
F-0.5
S'relative'
p2508
tp2509
a(I365
I3
I0
S'next'
p2510
tp2511
a(I365
I16
F-0.375
S'wear'
p2512
tp2513
a(I365
I25
I0
S'total'
p2514
tp2515
a(I367
I7
F0.625
g1393
tp2516
a(I367
I7
F-0.5
g1395
tp2517
a(I376
I2
F0.375
S'significant'
p2518
tp2519
a(I398
I6
I0
S'most'
p2520
tp2521
a(I407
I1
F-0.75
S'short'
p2522
tp2523
a(I407
I14
F-0.5
g1397
tp2524
a(I424
I0
F0.125
S'first'
p2525
tp2526
a(I472
I0
F0.5
S'second'
p2527
tp2528
a(I501
I38
I0
S'more'
p2529
tp2530
a(I536
I16
F0.125
S'first'
p2531
tp2532
a(I550
I3
F1.0
S'good'
p2533
tp2534
a(I566
I3
I0
S'same'
p2535
tp2536
a(I572
I0
I0
S'great'
p2537
tp2538
a(I572
I0
F0.625
S'easy'
p2539
tp2540
a(I577
I2
I0
S'same'
p2541
tp2542
as(S'version'
p2543
S'of'
p2544
S'android'
p2545
tp2546
(lp2547
(I35
I2
I0
g92
tp2548
a(I35
I2
I0
g94
tp2549
a(I98
I1
I0
g1423
tp2550
a(I131
I2
F0.125
g110
tp2551
a(I131
I2
I0
g112
tp2552
a(I174
I0
I0
g114
tp2553
a(I174
I0
I0
g116
tp2554
a(I179
I7
F0.375
g118
tp2555
a(I235
I1
I0
g128
tp2556
a(I235
I1
F0.125
g130
tp2557
a(I235
I1
I0
g132
tp2558
a(I297
I0
I0
g138
tp2559
a(I326
I7
I0
g142
tp2560
a(I326
I7
F1.0
g144
tp2561
a(I330
I1
I0
g146
tp2562
a(I330
I1
I0
g148
tp2563
a(I354
I5
I0
g152
tp2564
a(I362
I2
I0
g154
tp2565
a(I365
I12
I0
g156
tp2566
a(I370
I2
I0
g158
tp2567
a(I370
I2
I0
g160
tp2568
a(I402
I5
I0
g164
tp2569
a(I424
I1
F0.375
g1473
tp2570
a(I522
I15
F-0.375
g170
tp2571
a(I522
I15
I0
g172
tp2572
a(I523
I1
F0.875
g174
tp2573
a(I523
I1
I0
g176
tp2574
a(I523
I1
I0
g178
tp2575
a(I531
I6
I0
g182
tp2576
a(I575
I0
I0
g186
tp2577
a(I575
I7
F0.375
g188
tp2578
as(S'always'
p2579
tp2580
(lp2581
(I479
I26
I0
S'cool'
p2582
tp2583
as(S'months'
p2584
tp2585
(lp2586
(I92
I2
F0.5
S'second'
p2587
tp2588
a(I92
I2
F-0.625
S'other'
p2589
tp2590
a(I146
I0
I0
S'few'
p2591
tp2592
a(I208
I4
I0
S'few'
p2593
tp2594
a(I350
I1
I0
S'old'
p2595
tp2596
a(I357
I13
F-0.25
S'past'
p2597
tp2598
a(I365
I11
I0
S'few'
p2599
tp2600
a(I555
I5
I0
S'more'
p2601
tp2602
a(I577
I6
I0
S'later'
p2603
tp2604
as(S'google'
p2605
S'play'
p2606
tp2607
(lp2608
(I19
I0
F-0.25
g52
tp2609
a(I57
I8
F-0.25
g500
tp2610
a(I57
I9
F-0.25
g54
tp2611
a(I121
I0
F-0.25
g503
tp2612
a(I129
I5
F-0.25
g56
tp2613
a(I130
I15
F-0.25
g506
tp2614
a(I130
I17
F-0.25
g58
tp2615
a(I141
I0
F-0.125
g1882
tp2616
a(I141
I0
F-0.25
g1884
tp2617
a(I151
I1
F-0.25
g509
tp2618
a(I152
I0
F-0.25
g511
tp2619
a(I152
I14
F-0.25
g1887
tp2620
a(I165
I0
F-0.25
g60
tp2621
a(I193
I17
F-0.25
g1889
tp2622
a(I200
I4
F-0.25
g62
tp2623
a(I216
I0
F-0.125
g514
tp2624
a(I216
I0
F-0.25
g516
tp2625
a(I217
I2
F-0.25
g518
tp2626
a(I235
I2
F-0.25
g520
tp2627
a(I264
I0
F-0.25
g64
tp2628
a(I298
I1
F-0.25
g66
tp2629
a(I350
I0
F-0.25
g1898
tp2630
a(I354
I3
F0.125
g37
tp2631
a(I365
I0
F-0.25
g68
tp2632
a(I397
I3
F-0.625
g39
tp2633
a(I397
I3
F-0.25
g525
tp2634
a(I402
I0
F-0.25
g70
tp2635
a(I427
I6
F-0.25
g528
tp2636
a(I433
I0
F-0.25
g72
tp2637
a(I440
I0
F-0.25
g1907
tp2638
a(I479
I1
F-0.125
g531
tp2639
a(I479
I1
F-0.25
g533
tp2640
a(I501
I0
F-0.25
g74
tp2641
a(I501
I1
F-0.25
g2169
tp2642
a(I501
I3
F-0.25
g1912
tp2643
a(I501
I3
F0.375
g1914
tp2644
a(I501
I33
F-0.25
g1916
tp2645
a(I501
I33
F-0.25
g1918
tp2646
a(I506
I30
F-0.25
g76
tp2647
a(I508
I0
F-0.25
g78
tp2648
a(I510
I0
F-0.25
g80
tp2649
a(I510
I21
F-0.25
g82
tp2650
a(I548
I1
F-0.25
g539
tp2651
a(I556
I0
F-0.125
g43
tp2652
a(I572
I0
F-0.125
g85
tp2653
a(I582
I0
F-0.25
g1926
tp2654
a(I593
I2
F-0.25
g87
tp2655
as(S"'ve"
p2656
S'been'
p2657
S'using'
p2658
tp2659
(lp2660
(I32
I18
F0.625
S'easy'
p2661
tp2662
as(S'android'
p2663
S'os'
p2664
tp2665
(lp2666
(I3
I5
I0
S'android'
p2667
tp2668
a(I45
I0
F-0.25
g1414
tp2669
a(I45
I0
F0.375
S'incomparable'
p2670
tp2671
a(I82
I1
I0
S'android'
p2672
tp2673
a(I98
I1
I0
g1423
tp2674
a(I111
I2
F1.0
g1432
tp2675
a(I111
I2
I0
g1434
tp2676
a(I111
I2
F0.5
g1436
tp2677
a(I116
I1
F0.875
S'nice'
p2678
tp2679
a(I141
I22
I0
S'latest'
p2680
tp2681
a(I141
I22
I0
S'android'
p2682
tp2683
a(I143
I0
I0
S'android'
p2684
tp2685
a(I159
I0
I0
S'android'
p2686
tp2687
a(I161
I2
I0
g1442
tp2688
a(I183
I4
I0
S'android'
p2689
tp2690
a(I192
I14
F0.875
S'nice'
p2691
tp2692
a(I205
I1
F0.25
g1447
tp2693
a(I205
I1
I0
g1449
tp2694
a(I205
I1
I0
S'latest'
p2695
tp2696
a(I205
I1
F0.375
S'available'
p2697
tp2698
a(I205
I1
F-0.625
S'other'
p2699
tp2700
a(I205
I1
I0
S'mobile'
p2701
tp2702
a(I237
I0
I0
S'android'
p2703
tp2704
a(I241
I3
I0
S'android'
p2705
tp2706
a(I243
I0
F-0.625
S'clean'
p2707
tp2708
a(I243
I0
I0
S'android'
p2709
tp2710
a(I266
I0
F0.125
g1453
tp2711
a(I294
I0
I0
S'latest'
p2712
tp2713
a(I294
I0
I0
S'android'
p2714
tp2715
a(I299
I2
I0
S'android'
p2716
tp2717
a(I299
I6
I0
g1461
tp2718
a(I300
I20
F-0.25
S'google'
p2719
tp2720
a(I300
I22
F1.0
g1463
tp2721
a(I315
I18
I0
S'android'
p2722
tp2723
a(I330
I0
F-0.125
S'blackberry'
p2724
tp2725
a(I330
I0
I0
S'android'
p2726
tp2727
a(I330
I0
F-0.75
S'wrong'
p2728
tp2729
a(I342
I0
F-0.25
g1465
tp2730
a(I342
I0
F1.0
g1467
tp2731
a(I354
I0
F1.0
S'better'
p2732
tp2733
a(I354
I0
I0
S'mobile'
p2734
tp2735
a(I357
I18
I0
S'android'
p2736
tp2737
a(I357
I20
I0
S'android'
p2738
tp2739
a(I365
I14
I0
S'android'
p2740
tp2741
a(I426
I0
F1.0
g1475
tp2742
a(I491
I0
F1.0
S'best'
p2743
tp2744
a(I491
I3
F-0.25
S'google'
p2745
tp2746
a(I513
I3
F0.375
g1482
tp2747
a(I515
I1
F-0.125
g1484
tp2748
a(I530
I0
I0
S'android'
p2749
tp2750
a(I554
I3
I0
S'same'
p2751
tp2752
a(I576
I0
I0
S'android'
p2753
tp2754
a(I591
I0
F1.0
g1497
tp2755
a(I595
I0
F0.875
g1499
tp2756
as(S'screen'
p2757
tp2758
(lp2759
(I3
I12
F0.25
S'bigger'
p2760
tp2761
a(I8
I9
F0.25
S'sharp'
p2762
tp2763
a(I8
I9
F-0.75
S'bright'
p2764
tp2765
a(I9
I6
F-0.5
S'heavy'
p2766
tp2767
a(I9
I6
I0
S'large'
p2768
tp2769
a(I11
I6
F0.5
S'clear'
p2770
tp2771
a(I14
I0
I0
S'great'
p2772
tp2773
a(I39
I8
F0.125
S'visible'
p2774
tp2775
a(I57
I15
F-0.5
S'open'
p2776
tp2777
a(I58
I1
I0
S'great'
p2778
tp2779
a(I58
I1
F0.625
S'easy'
p2780
tp2781
a(I58
I1
I0
S'most'
p2782
tp2783
a(I68
I2
F-0.75
S'off'
p2784
tp2785
a(I68
I2
I0
S'immediate'
p2786
tp2787
a(I70
I1
I0
S'big'
p2788
tp2789
a(I72
I5
F0.5
S'touch'
p2790
tp2791
a(I95
I1
F1.0
S'good'
p2792
tp2793
a(I104
I22
F0.375
S'new'
p2794
tp2795
a(I104
I50
F0.75
S'beautiful'
p2796
tp2797
a(I104
I194
F-0.25
S'google'
p2798
tp2799
a(I104
I212
I0
S'large'
p2800
tp2801
a(I114
I0
F0.5
S'touch'
p2802
tp2803
a(I114
I0
F-0.75
S'unresponsive'
p2804
tp2805
a(I124
I0
I0
S'big'
p2806
tp2807
a(I124
I0
F0.625
S'easy'
p2808
tp2809
a(I130
I0
F0.25
S'bigger'
p2810
tp2811
a(I130
I12
I0
S'large'
p2812
tp2813
a(I139
I1
F-0.75
S'bright'
p2814
tp2815
a(I141
I20
I0
S'great'
p2816
tp2817
a(I141
I20
I0
S'big'
p2818
tp2819
a(I146
I14
I0
S'big'
p2820
tp2821
a(I160
I1
I0
S'great'
p2822
tp2823
a(I162
I2
F0.5
S'clear'
p2824
tp2825
a(I162
I2
F-0.375
S'smooth'
p2826
tp2827
a(I179
I11
F0.75
S'beautiful'
p2828
tp2829
a(I198
I1
F-0.5
S'cracked'
p2830
tp2831
a(I201
I3
I0
S'crystal'
p2832
tp2833
a(I201
I3
F0.5
S'clear'
p2834
tp2835
a(I206
I0
I0
S'great'
p2836
tp2837
a(I239
I5
I0
S'great'
p2838
tp2839
a(I242
I6
I0
S'different'
p2840
tp2841
a(I242
I14
F0.5
S'whole'
p2842
tp2843
a(I249
I2
F0.75
S'beautiful'
p2844
tp2845
a(I255
I3
I0
S'third'
p2846
tp2847
a(I269
I0
I0
S'more'
p2848
tp2849
a(I269
I0
F0.625
S'accessible'
p2850
tp2851
a(I269
I26
F0.75
S'beautiful'
p2852
tp2853
a(I269
I26
I0
S'close'
p2854
tp2855
a(I269
I30
F0.5
S'whole'
p2856
tp2857
a(I283
I0
F0.125
S'spectacular'
p2858
tp2859
a(I285
I0
F-0.75
S'worse'
p2860
tp2861
a(I286
I1
F-0.375
S'fanciest'
p2862
tp2863
a(I295
I1
F0.25
S'sharp'
p2864
tp2865
a(I297
I0
I0
S'wide'
p2866
tp2867
a(I300
I60
I0
S'large'
p2868
tp2869
a(I300
I60
F1.0
S'good'
p2870
tp2871
a(I320
I2
I0
S'big'
p2872
tp2873
a(I321
I1
I0
S'great'
p2874
tp2875
a(I324
I1
I0
S'quick'
p2876
tp2877
a(I325
I3
I0
S'incredible'
p2878
tp2879
a(I329
I6
F0.875
S'nice'
p2880
tp2881
a(I333
I1
I0
S'great'
p2882
tp2883
a(I337
I0
F1.0
S'good'
p2884
tp2885
a(I355
I3
F0.75
S'beautiful'
p2886
tp2887
a(I356
I3
F0.625
S'easier'
p2888
tp2889
a(I361
I0
I0
S'great'
p2890
tp2891
a(I364
I3
F1.0
S'good'
p2892
tp2893
a(I364
I3
F0.5
S'touch'
p2894
tp2895
a(I369
I0
I0
S'incredible'
p2896
tp2897
a(I388
I5
F-0.375
S'black'
p2898
tp2899
a(I395
I6
I0
S'wider'
p2900
tp2901
a(I397
I4
F1.0
g565
tp2902
a(I404
I5
F0.5
S'touch'
p2903
tp2904
a(I404
I5
F-0.75
S'inoperable'
p2905
tp2906
a(I413
I7
F0.5
S'touch'
p2907
tp2908
a(I430
I12
F0.375
S'similar'
p2909
tp2910
a(I430
I15
I0
S'big'
p2911
tp2912
a(I430
I15
F-0.375
S'smaller'
p2913
tp2914
a(I456
I0
F-0.375
S'small'
p2915
tp2916
a(I458
I0
F-0.375
S'top'
p2917
tp2918
a(I458
I2
F-0.375
S'top'
p2919
tp2920
a(I465
I0
F0.625
S'perfect'
p2921
tp2922
a(I471
I2
F-0.375
S'black'
p2923
tp2924
a(I479
I0
F0.25
S'largest'
p2925
tp2926
a(I479
I0
F0.125
S'impressive'
p2927
tp2928
a(I479
I16
I0
S'big'
p2929
tp2930
a(I484
I2
F-0.375
S'black'
p2931
tp2932
a(I487
I0
I0
S'great'
p2933
tp2934
a(I492
I9
I0
S'more'
p2935
tp2936
a(I502
I2
F0.75
S'beautiful'
p2937
tp2938
a(I502
I2
F-0.25
S'google'
p2939
tp2940
a(I507
I5
I0
S'great'
p2941
tp2942
a(I509
I3
F1.0
S'good'
p2943
tp2944
a(I509
I6
I0
S'moulded'
p2945
tp2946
a(I514
I4
F-0.125
S'minimum'
p2947
tp2948
a(I522
I14
F-0.25
S'google'
p2949
tp2950
a(I550
I2
I0
S'big'
p2951
tp2952
a(I550
I2
F0.25
S'sharp'
p2953
tp2954
a(I569
I7
F0.25
S'larger'
p2955
tp2956
a(I572
I0
F-0.625
g569
tp2957
a(I572
I0
F-0.625
g571
tp2958
a(I577
I19
F0.125
g573
tp2959
a(I577
I20
F-0.375
S'black'
p2960
tp2961
a(I582
I0
I0
S'big'
p2962
tp2963
as(S'everything'
p2964
tp2965
(lp2966
(I9
I16
I0
S'robotic'
p2967
tp2968
a(I56
I7
I0
S'great'
p2969
tp2970
a(I73
I1
F0.625
S'easy'
p2971
tp2972
a(I226
I1
F1.0
S'better'
p2973
tp2974
a(I333
I2
F0.625
S'pleasant'
p2975
tp2976
a(I361
I0
F-0.375
S'smooth'
p2977
tp2978
a(I427
I4
I0
S'such'
p2979
tp2980
a(I516
I0
I0
S'android'
p2981
tp2982
a(I530
I0
F-0.375
S'smooth'
p2983
tp2984
a(I570
I2
I0
S'inside'
p2985
tp2986
as(S'samsung'
p2987
tp2988
(lp2989
(I23
I6
F-0.25
g1301
tp2990
a(I34
I0
F0.5
S'expensive'
p2991
tp2992
a(I134
I18
F0.375
S'available'
p2993
tp2994
a(I221
I1
F0.125
S'rugged'
p2995
tp2996
a(I237
I0
I0
g1305
tp2997
a(I295
I3
I0
g1307
tp2998
a(I295
I7
I0
S'old'
p2999
tp3000
a(I354
I22
F-0.625
S'bad'
p3001
tp3002
a(I365
I13
F-0.375
S'smoother'
p3003
tp3004
a(I502
I8
F0.25
g1309
tp3005
a(I554
I2
I0
S'android'
p3006
tp3007
as(S'camera'
p3008
tp3009
(lp3010
(I9
I24
F0.5
S'elegant'
p3011
tp3012
a(I9
I24
F0.625
S'easy'
p3013
tp3014
a(I9
I24
F-0.625
S'average'
p3015
tp3016
a(I9
I26
I0
S'great'
p3017
tp3018
a(I13
I1
F1.0
S'good'
p3019
tp3020
a(I57
I10
F1.0
S'good'
p3021
tp3022
a(I63
I4
F1.0
S'good'
p3023
tp3024
a(I93
I1
F1.0
S'good'
p3025
tp3026
a(I93
I1
F-0.625
S'bad'
p3027
tp3028
a(I104
I73
F0.125
S'impressive'
p3029
tp3030
a(I134
I4
F0.625
S'easy'
p3031
tp3032
a(I141
I19
I0
S'great'
p3033
tp3034
a(I162
I5
F1.0
S'best'
p3035
tp3036
a(I208
I3
I0
S'great'
p3037
tp3038
a(I231
I0
F-0.875
S'worst'
p3039
tp3040
a(I242
I25
F0.5
S'obvious'
p3041
tp3042
a(I242
I38
F0.25
S'used'
p3043
tp3044
a(I245
I16
I0
S'great'
p3045
tp3046
a(I255
I3
I0
S'great'
p3047
tp3048
a(I321
I1
I0
S'great'
p3049
tp3050
a(I329
I16
I0
S'harsh'
p3051
tp3052
a(I329
I25
F0.375
S'no-brainer'
p3053
tp3054
a(I332
I4
I0
S'normal'
p3055
tp3056
a(I340
I3
F1.0
S'better'
p3057
tp3058
a(I354
I14
F1.0
S'best'
p3059
tp3060
a(I355
I5
F1.0
S'best'
p3061
tp3062
a(I416
I0
F1.0
S'good'
p3063
tp3064
a(I417
I5
F-0.625
S'bad'
p3065
tp3066
a(I424
I1
F1.0
S'good'
p3067
tp3068
a(I425
I24
F0.375
S'new'
p3069
tp3070
a(I425
I32
I0
S'great'
p3071
tp3072
a(I436
I5
F-0.375
S'manual'
p3073
tp3074
a(I436
I5
I0
S'online'
p3075
tp3076
a(I465
I0
F1.0
S'good'
p3077
tp3078
a(I476
I1
F-0.625
S'other'
p3079
tp3080
a(I476
I1
I0
S'great'
p3081
tp3082
a(I492
I1
F0.875
S'important'
p3083
tp3084
a(I501
I7
I0
S'close'
p3085
tp3086
a(I501
I50
I0
S'blue'
p3087
tp3088
a(I541
I0
F1.0
S'good'
p3089
tp3090
a(I546
I2
F1.0
S'best'
p3091
tp3092
a(I555
I3
F1.0
S'good'
p3093
tp3094
a(I555
I3
F0.125
S'able'
p3095
tp3096
a(I564
I0
F1.0
S'good'
p3097
tp3098
a(I591
I0
F1.0
S'good'
p3099
tp3100
a(I593
I2
F1.0
S'good'
p3101
tp3102
as(S'using'
p3103
tp3104
(lp3105
(I32
I18
F0.625
g2661
tp3106
a(I47
I0
F-0.625
S'average'
p3107
tp3108
a(I515
I0
F-0.375
S'avoid'
p3109
tp3110
as(S'mobile'
p3111
tp3112
(lp3113
(I108
I0
F1.0
S'good'
p3114
tp3115
a(I392
I0
I0
S'great'
p3116
tp3117
a(I593
I5
F0.125
S'impressive'
p3118
tp3119
as(S'galaxy'
p3120
tp3121
(lp3122
(I104
I59
F0.25
g1303
tp3123
a(I104
I185
F0.375
g2333
tp3124
a(I146
I0
F0.25
g2336
tp3125
a(I146
I9
I0
S'old'
p3126
tp3127
a(I194
I2
F-0.625
S'unlike'
p3128
tp3129
a(I300
I16
F0.25
S'larger'
p3130
tp3131
a(I360
I0
F1.0
S'good'
p3132
tp3133
a(I402
I10
F-0.125
g2342
tp3134
a(I425
I61
F1.0
g2345
tp3135
a(I531
I10
I0
g2198
tp3136
a(I540
I3
F1.0
S'good'
p3137
tp3138
a(I576
I2
F-0.625
g2349
tp3139
as(S'lack'
p3140
S'of'
p3141
S'lte'
p3142
tp3143
(lp3144
(I269
I25
F0.5
S'critique'
p3145
tp3146
a(I391
I2
I0
S'harsher'
p3147
tp3148
as(S'google'
p3149
S'play'
p3150
S'store'
p3151
tp3152
(lp3153
(I6
I1
I0
g483
tp3154
a(I217
I2
F-0.25
g518
tp3155
a(I298
I1
F-0.25
g66
tp3156
a(I397
I3
F-0.625
g39
tp3157
a(I397
I3
F-0.25
g525
tp3158
a(I402
I0
F-0.25
g70
tp3159
a(I427
I6
F-0.25
g528
tp3160
a(I501
I9
F-0.25
g491
tp3161
a(I510
I0
F-0.25
g80
tp3162
a(I510
I21
F-0.25
g82
tp3163
a(I548
I1
F-0.25
g539
tp3164
a(I556
I0
F-0.125
g43
tp3165
a(I572
I0
F-0.125
g85
tp3166
a(I593
I2
F-0.25
g87
tp3167
as(S'htc'
p3168
S'one'
p3169
S'x'
p3170
tp3171
(lp3172
(I64
I0
I0
S'most'
p3173
tp3174
a(I104
I71
I0
S'fastest'
p3175
tp3176
a(I104
I71
F0.375
S'available'
p3177
tp3178
a(I104
I71
I0
S'least'
p3179
tp3180
a(I183
I0
I0
S'old'
p3181
tp3182
a(I522
I14
F0.875
S'nice'
p3183
tp3184
a(I522
I21
I0
S'least'
p3185
tp3186
a(I540
I3
F-0.125
S'bean'
p3187
tp3188
as(S'people'
p3189
tp3190
(lp3191
(I104
I116
I0
S'few'
p3192
tp3193
a(I104
I116
F0.25
S'used'
p3194
tp3195
a(I104
I151
F0.75
S'fortunate'
p3196
tp3197
a(I174
I1
I0
S'few'
p3198
tp3199
a(I178
I4
I0
S'few'
p3200
tp3201
a(I178
I4
F-0.625
S'other'
p3202
tp3203
a(I200
I6
F-0.625
S'other'
p3204
tp3205
a(I242
I7
F-0.375
S'small'
p3206
tp3207
a(I245
I7
I0
S'more'
p3208
tp3209
a(I269
I12
I0
S'few'
p3210
tp3211
a(I270
I0
F0.375
S'much'
p3212
tp3213
a(I270
I0
F0.375
S'much'
p3214
tp3215
a(I277
I10
I0
S'many'
p3216
tp3217
a(I340
I3
I0
S'perspective'
p3218
tp3219
a(I340
I3
I0
S'most'
p3220
tp3221
a(I343
I4
F-0.625
S'other'
p3222
tp3223
a(I365
I41
F0.125
S'able'
p3224
tp3225
a(I432
I5
F1.0
S'good'
p3226
tp3227
a(I445
I2
I0
S'few'
p3228
tp3229
a(I502
I13
I0
S'most'
p3230
tp3231
a(I576
I7
I0
S'many'
p3232
tp3233
as(S'play'
p3234
S'store'
p3235
tp3236
(lp3237
(I6
I1
I0
g483
tp3238
a(I217
I2
F-0.25
g518
tp3239
a(I298
I1
F-0.25
g66
tp3240
a(I397
I3
F-0.25
g525
tp3241
a(I402
I0
F-0.25
g70
tp3242
a(I427
I6
F-0.25
g528
tp3243
a(I501
I9
F-0.25
g491
tp3244
a(I510
I0
F-0.25
g80
tp3245
a(I510
I21
F-0.25
g82
tp3246
a(I548
I1
F-0.25
g539
tp3247
a(I572
I0
F-0.125
g85
tp3248
a(I593
I2
F-0.25
g87
tp3249
as(S'works'
p3250
tp3251
(lp3252
(I39
I21
I0
S'own'
p3253
tp3254
a(I104
I137
I0
S'least'
p3255
tp3256
a(I104
I137
I0
S'cooler'
p3257
tp3258
a(I138
I0
F1.0
S'good'
p3259
tp3260
a(I138
I0
F0.375
S'new'
p3261
tp3262
a(I236
I0
I0
S'great'
p3263
tp3264
a(I242
I20
I0
S'same'
p3265
tp3266
a(I256
I12
I0
S'great'
p3267
tp3268
a(I270
I9
F-0.5
S'sure'
p3269
tp3270
a(I278
I4
F0.375
S'new'
p3271
tp3272
a(I401
I0
F0.125
S'last'
p3273
tp3274
a(I455
I0
I0
S'great'
p3275
tp3276
a(I515
I0
F-0.25
S'cheaper'
p3277
tp3278
as(S'apps'
p3279
tp3280
(lp3281
(I3
I10
F0.125
S'essential'
p3282
tp3283
a(I39
I17
I0
S'many'
p3284
tp3285
a(I85
I0
F0.375
S'new'
p3286
tp3287
a(I92
I9
F-0.625
S'free'
p3288
tp3289
a(I92
I10
F-0.625
S'other'
p3290
tp3291
a(I104
I152
F0.375
S'newer'
p3292
tp3293
a(I141
I4
F-0.625
S'other'
p3294
tp3295
a(I179
I10
I0
S'more'
p3296
tp3297
a(I192
I15
I0
S'same'
p3298
tp3299
a(I192
I15
I0
S'android'
p3300
tp3301
a(I192
I15
I0
S'same'
p3302
tp3303
a(I193
I2
F-0.5
S'open'
p3304
tp3305
a(I197
I0
I0
S'many'
p3306
tp3307
a(I200
I6
F-0.625
S'other'
p3308
tp3309
a(I219
I1
F-0.25
S'google'
p3310
tp3311
a(I269
I20
F-0.625
S'other'
p3312
tp3313
a(I300
I33
I0
S'many'
p3314
tp3315
a(I300
I49
I0
S'many'
p3316
tp3317
a(I300
I50
F-0.5
S'poor'
p3318
tp3319
a(I300
I51
I0
S'different'
p3320
tp3321
a(I300
I52
I0
S'many'
p3322
tp3323
a(I300
I56
I0
S'many'
p3324
tp3325
a(I338
I3
F-0.25
S'abundant'
p3326
tp3327
a(I354
I11
I0
S'latest'
p3328
tp3329
a(I388
I17
F-0.625
S'other'
p3330
tp3331
a(I425
I67
I0
S'fast'
p3332
tp3333
a(I425
I67
I0
S'most'
p3334
tp3335
a(I472
I0
I0
S'such'
p3336
tp3337
a(I490
I3
F0.125
S'able'
p3338
tp3339
a(I490
I3
F-0.5
S'open'
p3340
tp3341
a(I490
I3
I0
S'least'
p3342
tp3343
a(I492
I7
F0.125
S'fat'
p3344
tp3345
a(I506
I14
I0
S'same'
p3346
tp3347
a(I506
I30
F0.375
S'available'
p3348
tp3349
a(I517
I0
I0
S'few'
p3350
tp3351
a(I566
I3
F-0.5
S'open'
p3352
tp3353
a(I569
I10
I0
S'faster'
p3354
tp3355
a(I572
I0
F-0.5
S'open'
p3356
tp3357
as(S'2gb'
p3358
S'of'
p3359
S'ram'
p3360
tp3361
(lp3362
(I23
I10
F-0.75
S'wrong'
p3363
tp3364
a(I361
I0
F0.75
S'due'
p3365
tp3366
as(S'better'
p3367
tp3368
(lp3369
(I57
I10
F0.375
S'much'
p3370
tp3371
a(I89
I0
F0.375
S'much'
p3372
tp3373
a(I196
I1
F0.375
S'much'
p3374
tp3375
a(I224
I8
F0.375
S'much'
p3376
tp3377
a(I231
I0
F0.375
S'much'
p3378
tp3379
a(I256
I9
F-0.125
S'mine'
p3380
tp3381
a(I305
I0
F0.375
S'much'
p3382
tp3383
a(I504
I2
F0.375
S'much'
p3384
tp3385
as(S'device'
p3386
tp3387
(lp3388
(I11
I3
I0
S'great'
p3389
tp3390
a(I14
I0
F0.75
S'beautiful'
p3391
tp3392
a(I43
I0
F0.5
S'personal'
p3393
tp3394
a(I54
I12
F-0.25
S'google'
p3395
tp3396
a(I54
I13
F-0.625
S'other'
p3397
tp3398
a(I67
I0
F1.0
S'good'
p3399
tp3400
a(I104
I74
F0.25
S'stellar'
p3401
tp3402
a(I104
I74
I0
S'optical'
p3403
tp3404
a(I111
I1
I0
S'android'
p3405
tp3406
a(I133
I1
I0
S'many'
p3407
tp3408
a(I133
I1
F0.25
S'responsive'
p3409
tp3410
a(I146
I3
I0
S'physical'
p3411
tp3412
a(I146
I15
F0.25
S'bigger'
p3413
tp3414
a(I150
I1
F-0.625
S'frail'
p3415
tp3416
a(I157
I3
I0
S'third'
p3417
tp3418
a(I164
I0
F0.5
S'second'
p3419
tp3420
a(I205
I3
F-0.25
S'google'
p3421
tp3422
a(I205
I3
F-0.625
S'other'
p3423
tp3424
a(I219
I2
I0
S'great'
p3425
tp3426
a(I225
I2
F0.5
S'recommend'
p3427
tp3428
a(I245
I11
F-0.5
S'show-off'
p3429
tp3430
a(I287
I0
F0.625
S'easy'
p3431
tp3432
a(I306
I3
F0.875
S'nice'
p3433
tp3434
a(I345
I7
F1.0
S'good'
p3435
tp3436
a(I345
I7
F0.5
S'functional'
p3437
tp3438
a(I355
I0
F0.125
S'last'
p3439
tp3440
a(I355
I0
I0
S'least'
p3441
tp3442
a(I357
I3
F0.5
S'elegant'
p3443
tp3444
a(I357
I13
I0
S'mobile'
p3445
tp3446
a(I357
I22
F1.0
S'good'
p3447
tp3448
a(I365
I49
F-0.625
S'free'
p3449
tp3450
a(I378
I0
F0.875
S'nice'
p3451
tp3452
a(I378
I0
I0
S'fast'
p3453
tp3454
a(I420
I0
F0.125
S'practical'
p3455
tp3456
a(I425
I3
I0
S'more'
p3457
tp3458
a(I437
I5
F0.875
S'nice'
p3459
tp3460
a(I437
I5
I0
S'more'
p3461
tp3462
a(I457
I1
I0
S'fast'
p3463
tp3464
a(I457
I1
F0.625
S'easy'
p3465
tp3466
a(I479
I3
I0
S'android'
p3467
tp3468
a(I479
I3
I0
S'more'
p3469
tp3470
a(I479
I16
F0.375
S'available'
p3471
tp3472
a(I482
I0
F0.875
S'nice'
p3473
tp3474
a(I482
I0
I0
S'mobile'
p3475
tp3476
a(I487
I0
F0.75
S'beautiful'
p3477
tp3478
a(I510
I0
I0
S'most'
p3479
tp3480
a(I510
I0
F-0.25
S'cheaper'
p3481
tp3482
a(I510
I7
F0.5
S'whole'
p3483
tp3484
a(I510
I7
F0.375
S'available'
p3485
tp3486
a(I514
I4
I0
S'great'
p3487
tp3488
a(I550
I0
F0.5
S'elegant'
p3489
tp3490
a(I550
I0
F0.25
S'powerful'
p3491
tp3492
a(I556
I5
F1.0
S'better'
p3493
tp3494
a(I567
I0
I0
S'useful'
p3495
tp3496
a(I599
I0
I0
S'cool'
p3497
tp3498
as(S'google'
p3499
S'nexus'
p3500
tp3501
(lp3502
(I1
I0
F-0.25
g15
tp3503
a(I23
I14
F0.375
g1604
tp3504
a(I35
I2
F1.0
g19
tp3505
a(I39
I14
F-0.25
g1606
tp3506
a(I43
I0
F-0.25
g1610
tp3507
a(I85
I3
I0
g1616
tp3508
a(I129
I0
F-0.25
g1626
tp3509
a(I129
I0
F-0.25
g1628
tp3510
a(I143
I0
F0.5
g1640
tp3511
a(I178
I3
I0
g1650
tp3512
a(I178
I3
F0.875
g1652
tp3513
a(I181
I0
F1.0
g1654
tp3514
a(I181
I0
F0.875
g23
tp3515
a(I216
I10
F0.125
g25
tp3516
a(I216
I10
I0
g1666
tp3517
a(I239
I0
F-0.25
g1670
tp3518
a(I242
I3
F-0.25
g1672
tp3519
a(I243
I0
F0.875
g1674
tp3520
a(I345
I4
I0
g1690
tp3521
a(I347
I0
F0.875
g33
tp3522
a(I347
I0
F0.375
g35
tp3523
a(I357
I20
F-0.75
g1702
tp3524
a(I391
I3
F-0.25
g1708
tp3525
a(I402
I9
I0
g1712
tp3526
a(I402
I11
F0.875
g1714
tp3527
a(I403
I0
I0
g1716
tp3528
a(I419
I0
F0.25
g1718
tp3529
a(I419
I5
F0.875
g1720
tp3530
a(I427
I6
F0.375
g1722
tp3531
a(I433
I1
I0
g1724
tp3532
a(I491
I0
F0.75
g1736
tp3533
a(I501
I44
I0
g584
tp3534
a(I501
I44
F-0.625
g586
tp3535
a(I501
I44
F-0.25
g588
tp3536
a(I501
I44
F0.625
g590
tp3537
a(I501
I45
F-0.25
g592
tp3538
a(I506
I37
F-0.25
g1753
tp3539
as(S'play'
p3540
tp3541
(lp3542
(I19
I0
F-0.25
g52
tp3543
a(I57
I8
F-0.25
g500
tp3544
a(I57
I9
F-0.25
g54
tp3545
a(I121
I0
F-0.25
g503
tp3546
a(I129
I5
F-0.25
g56
tp3547
a(I130
I15
F-0.25
g506
tp3548
a(I130
I17
F-0.25
g58
tp3549
a(I141
I0
F-0.125
g1882
tp3550
a(I141
I0
F-0.25
g1884
tp3551
a(I151
I1
F-0.25
g509
tp3552
a(I152
I0
F-0.25
g511
tp3553
a(I152
I14
F-0.25
g1887
tp3554
a(I165
I0
F-0.25
g60
tp3555
a(I193
I17
F-0.25
g1889
tp3556
a(I200
I4
F-0.25
g62
tp3557
a(I216
I0
F-0.125
g514
tp3558
a(I216
I0
F-0.25
g516
tp3559
a(I217
I2
F-0.25
g518
tp3560
a(I235
I2
F-0.25
g520
tp3561
a(I264
I0
F-0.25
g64
tp3562
a(I298
I1
F-0.25
g66
tp3563
a(I350
I0
F-0.25
g1898
tp3564
a(I365
I0
F-0.25
g68
tp3565
a(I397
I3
F-0.25
g525
tp3566
a(I402
I0
F-0.25
g70
tp3567
a(I427
I6
F-0.25
g528
tp3568
a(I433
I0
F-0.25
g72
tp3569
a(I440
I0
F-0.25
g1907
tp3570
a(I479
I1
F-0.125
g531
tp3571
a(I479
I1
F-0.25
g533
tp3572
a(I501
I0
F-0.25
g74
tp3573
a(I501
I1
F-0.25
g2169
tp3574
a(I501
I3
F-0.25
g1912
tp3575
a(I501
I3
F0.375
g1914
tp3576
a(I501
I33
F-0.25
g1916
tp3577
a(I501
I33
F-0.25
g1918
tp3578
a(I506
I30
F-0.25
g76
tp3579
a(I508
I0
F-0.25
g78
tp3580
a(I510
I0
F-0.25
g80
tp3581
a(I510
I21
F-0.25
g82
tp3582
a(I548
I1
F-0.25
g539
tp3583
a(I568
I0
I0
S'high'
p3584
tp3585
a(I572
I0
F-0.125
g85
tp3586
a(I582
I0
F-0.25
g1926
tp3587
a(I593
I2
F-0.25
g87
tp3588
as(S'days'
p3589
tp3590
(lp3591
(I32
I26
F0.125
S'first'
p3592
tp3593
a(I57
I25
F-0.625
S'unusual'
p3594
tp3595
a(I104
I88
F-0.75
S'wrong'
p3596
tp3597
a(I104
I167
I0
S'few'
p3598
tp3599
a(I106
I0
I0
S'few'
p3600
tp3601
a(I203
I0
F0.375
S'extra'
p3602
tp3603
a(I255
I4
F-0.125
S'mine'
p3604
tp3605
a(I300
I28
I0
S'full'
p3606
tp3607
a(I354
I23
I0
S'few'
p3608
tp3609
a(I398
I1
F-0.125
S'mine'
p3610
tp3611
a(I398
I1
F-0.25
S'google'
p3612
tp3613
a(I402
I10
I0
S'few'
p3614
tp3615
a(I501
I40
I0
S'few'
p3616
tp3617
a(I510
I21
I0
S'more'
p3618
tp3619
a(I599
I2
I0
S'few'
p3620
tp3621
as(S'nexus'
p3622
g576
S'has'
p3623
tp3624
(lp3625
(I166
I1
I0
g1648
tp3626
a(I181
I0
F1.0
g1654
tp3627
a(I243
I0
F0.875
g1674
tp3628
a(I356
I1
F0.25
g1694
tp3629
a(I402
I11
F0.875
g1714
tp3630
a(I403
I0
I0
g1716
tp3631
a(I419
I0
F0.25
g1718
tp3632
a(I419
I5
F0.875
g1720
tp3633
a(I491
I0
F0.75
g1736
tp3634
a(I501
I53
F-0.25
S'google'
p3635
tp3636
a(I506
I37
F-0.25
g1753
tp3637
as(S'bang'
p3638
S'for'
p3639
S'buck'
p3640
tp3641
(lp3642
(I192
I18
F0.625
S'bang'
p3643
tp3644
a(I285
I0
F1.0
S'best'
p3645
tp3646
a(I299
I2
F1.0
S'best'
p3647
tp3648
a(I345
I0
F1.0
S'best'
p3649
tp3650
a(I365
I1
F1.0
S'best'
p3651
tp3652
a(I365
I46
F1.0
S'best'
p3653
tp3654
as.