(dp0
(S'android'
p1
tp2
(lp3
(I2
I55
F0.625
S'fair'
p4
I0
tp5
a(I2
I140
F0.125
S'typical'
p6
I0
tp7
a(I15
I1
F-0.75
S'little'
p8
I0
tp9
a(I15
I1
F-0.125
S'slow'
p10
I0
tp11
as(S'xperia'
p12
S'e'
p13
tp14
(lp15
(I15
I22
F-0.125
S'bean'
p16
I0
tp17
a(I15
I22
F-0.125
g16
I0
tp18
as(S'focus'
p19
S'camera'
p20
tp21
(lp22
(I6
I3
F-0.625
S'useless'
p23
I0
tp24
a(I2
I106
F0.5
S'functional'
p25
I1
tp26
a(I2
I115
F1.0
S'best'
p27
I1
tp28
a(I6
I3
F-0.625
g23
I1
tp29
a(I9
I31
F-0.5
S'regular'
p30
I1
tp31
a(I11
I19
F-0.125
S'front'
p32
I1
tp33
as(S'service'
p34
S'providers'
p35
tp36
(lp37
(I14
I3
I0
S'different'
p38
I0
tp39
a(I0
I9
F0.125
S'able'
p40
I16
tp41
a(I14
I3
I0
g38
I16
tp42
as(S'battery'
p43
S'life'
p44
tp45
(lp46
(I6
I2
F-0.125
S'slow'
p47
I1
tp48
a(I6
I2
F-0.375
S'small'
p49
I1
tp50
a(I6
I2
I0
S'lightweight'
p51
I1
tp52
a(I10
I5
F0.625
S'positive'
p53
I1
tp54
a(I10
I5
I0
S'slim'
p55
I1
tp56
a(I10
I5
F-0.375
S'simple'
p57
I1
tp58
a(I10
I5
F0.375
S'reliable'
p59
I1
tp60
a(I10
I5
F1.0
S'good'
p61
I1
tp62
a(I10
I5
I0
S'android'
p63
I1
tp64
a(I15
I4
F1.0
S'better'
p65
I1
tp66
a(I15
I8
I0
S'great'
p67
I1
tp68
a(I2
I110
F-0.25
S'low'
p69
I15
tp70
a(I3
I7
F0.125
S'last'
p71
I15
tp72
a(I3
I7
F-0.5
S'long'
p73
I15
tp74
a(I10
I5
F0.625
g53
I15
tp75
a(I10
I5
I0
g55
I15
tp76
a(I10
I5
F-0.375
g57
I15
tp77
a(I10
I5
F0.375
g59
I15
tp78
a(I10
I5
F1.0
g61
I15
tp79
a(I15
I8
I0
g67
I15
tp80
as(S'apps'
p81
tp82
(lp83
(I2
I116
F-0.5
S'heavy'
p84
I0
tp85
a(I11
I79
I0
S'few'
p86
I0
tp87
a(I11
I93
I0
S'many'
p88
I0
tp89
a(I11
I93
I0
S'useful'
p90
I0
tp91
a(I15
I26
I0
S'few'
p92
I0
tp93
a(I18
I7
I0
S'few'
p94
I0
tp95
a(I18
I9
I0
S'android'
p96
I0
tp97
as(S'storage'
p98
S'space'
p99
tp100
(lp101
(I18
I5
F0.375
S'available'
p102
I0
tp103
as(S'dual'
p104
S'sim'
p105
S'card'
p106
tp107
(lp108
(I9
I9
I0
S'local'
p109
I0
tp110
a(I2
I57
F-0.25
S'inexpensive'
p111
I0
tp112
a(I2
I98
F-0.75
S'difficult'
p113
I0
tp114
a(I3
I10
I0
S'normal'
p115
I0
tp116
a(I9
I9
I0
g109
I0
tp117
a(I0
I27
F-0.375
S'small'
p118
I0
tp119
a(I2
I92
F-0.375
S'small'
p120
I0
tp121
a(I4
I0
I0
S'different'
p122
I0
tp123
a(I9
I9
I0
g109
I0
tp124
as(S'customer'
p125
S'service'
p126
tp127
(lp128
(I9
I30
F-0.625
S'unprofessional'
p129
I3
tp130
a(I9
I30
F-0.5
S'poor'
p131
I3
tp132
as(S'internal'
p133
S'memory'
p134
tp135
(lp136
(I2
I150
I0
S'internal'
p137
I0
tp138
a(I11
I4
I0
S'internal'
p139
I0
tp140
a(I11
I77
I0
S'internal'
p141
I0
tp142
as(S'sim'
p143
S'cards'
p144
tp145
(lp146
(I2
I57
F-0.25
g111
I0
tp147
as(S'sony'
p148
tp149
(lp150
(I2
I142
F0.5
S'expensive'
p151
I5
tp152
as.