(dp0
(S'nice'
p1
tp2
(lp3
(I45
I82
F-0.625
S'free'
p4
tp5
as(S'call'
p6
S'quality'
p7
tp8
(lp9
(I22
I3
I0
S'great'
p10
tp11
a(I91
I20
F0.125
S'solid'
p12
tp13
a(I97
I1
F-0.375
S'top'
p14
tp15
a(I108
I77
F1.0
S'good'
p16
tp17
a(I177
I43
I0
S'high'
p18
tp19
as(S'operating'
p20
S'system'
p21
tp22
(lp23
(I30
I2
I0
S'great'
p24
tp25
a(I38
I2
I0
S'great'
p26
tp27
a(I137
I0
F0.375
S'new'
p28
tp29
a(I137
I17
I0
S'latest'
p30
tp31
a(I156
I21
F1.0
S'better'
p32
tp33
a(I172
I0
F-0.75
S'little'
p34
tp35
a(I172
I0
F-0.25
S'late'
p36
tp37
a(I183
I0
I0
S'minimal'
p38
tp39
a(I217
I2
F1.0
S'best'
p40
tp41
as(S'live'
p42
S'tiles'
p43
tp44
(lp45
(I21
I10
F0.5
S'live'
p46
tp47
a(I44
I8
F0.5
S'live'
p48
tp49
a(I49
I12
F0.5
S'live'
p50
tp51
a(I52
I24
F0.5
S'live'
p52
tp53
a(I65
I8
F0.5
S'live'
p54
tp55
a(I65
I8
F-0.375
S'simple'
p56
tp57
a(I80
I2
F0.5
S'live'
p58
tp59
a(I81
I9
F0.5
S'live'
p60
tp61
a(I82
I16
F0.5
S'live'
p62
tp63
a(I92
I11
F0.5
S'live'
p64
tp65
a(I92
I19
F0.5
S'live'
p66
tp67
a(I108
I41
F0.625
S'easy'
p68
tp69
a(I108
I41
F0.5
S'live'
p70
tp71
a(I108
I41
I0
S'great'
p72
tp73
a(I115
I17
F0.5
S'live'
p74
tp75
a(I115
I18
F0.5
S'live'
p76
tp77
a(I118
I14
F0.5
S'live'
p78
tp79
a(I119
I22
F0.5
S'live'
p80
tp81
a(I124
I7
F0.5
S'live'
p82
tp83
a(I124
I7
I0
S'cool'
p84
tp85
a(I135
I0
F0.5
S'live'
p86
tp87
a(I136
I6
F0.5
S'live'
p88
tp89
a(I138
I14
F0.5
S'live'
p90
tp91
a(I138
I14
I0
S'great'
p92
tp93
a(I138
I55
F0.5
S'live'
p94
tp95
a(I156
I3
F0.5
S'live'
p96
tp97
a(I166
I6
F0.5
S'live'
p98
tp99
a(I170
I4
F0.5
S'live'
p100
tp101
a(I172
I0
F0.5
S'live'
p102
tp103
a(I174
I4
F0.5
S'live'
p104
tp105
a(I180
I0
F0.5
S'live'
p106
tp107
a(I194
I4
F0.5
S'live'
p108
tp109
a(I199
I2
F0.5
S'live'
p110
tp111
a(I199
I3
F0.5
S'live'
p112
tp113
a(I210
I7
F0.5
S'live'
p114
tp115
a(I211
I0
F0.5
S'live'
p116
tp117
a(I216
I0
F0.5
S'live'
p118
tp119
a(I221
I6
F0.5
S'live'
p120
tp121
a(I221
I6
I0
S'cool'
p122
tp123
a(I221
I6
F1.0
S'better'
p124
tp125
a(I224
I2
F0.5
S'live'
p126
tp127
a(I231
I0
I0
S'useful'
p128
tp129
a(I232
I20
F0.5
S'live'
p130
tp131
a(I234
I3
F0.5
S'live'
p132
tp133
a(I238
I12
F0.5
S'live'
p134
tp135
a(I238
I12
F-0.5
S'less'
p136
tp137
a(I242
I9
F0.5
S'live'
p138
tp139
a(I243
I3
F0.5
S'live'
p140
tp141
a(I243
I3
I0
S'quick'
p142
tp143
a(I243
I3
F-0.375
S'simple'
p144
tp145
a(I268
I16
F0.5
S'live'
p146
tp147
a(I272
I9
F0.5
S'live'
p148
tp149
a(I272
I12
F0.5
S'live'
p150
tp151
a(I272
I19
F0.5
S'live'
p152
tp153
as(S'tiles'
p154
tp155
(lp156
(I21
I10
F0.5
g46
tp157
a(I44
I8
F0.5
g48
tp158
a(I49
I12
F0.5
g50
tp159
a(I52
I24
F0.5
g52
tp160
a(I65
I8
F0.5
g54
tp161
a(I65
I8
F-0.375
g56
tp162
a(I80
I2
F0.5
g58
tp163
a(I81
I9
F0.5
g60
tp164
a(I82
I16
F0.5
g62
tp165
a(I92
I11
F0.5
g64
tp166
a(I92
I19
F0.5
g66
tp167
a(I108
I41
F0.625
g68
tp168
a(I108
I41
F0.5
g70
tp169
a(I108
I41
I0
g72
tp170
a(I115
I17
F0.5
g74
tp171
a(I115
I18
F0.5
g76
tp172
a(I116
I207
F-0.375
S'smaller'
p173
tp174
a(I116
I209
I0
S'big'
p175
tp176
a(I118
I14
F0.5
g78
tp177
a(I119
I22
F0.5
g80
tp178
a(I124
I7
F0.5
g82
tp179
a(I124
I7
I0
g84
tp180
a(I135
I0
F0.5
g86
tp181
a(I136
I6
F0.5
g88
tp182
a(I138
I14
F0.5
g90
tp183
a(I138
I14
I0
g92
tp184
a(I138
I55
F0.5
g94
tp185
a(I142
I3
F0.75
S'beautiful'
p186
tp187
a(I142
I3
F-0.375
S'simple'
p188
tp189
a(I154
I16
F-0.875
S'hard'
p190
tp191
a(I156
I3
F0.5
g96
tp192
a(I166
I6
F0.5
g98
tp193
a(I170
I4
F0.5
g100
tp194
a(I172
I0
F0.5
g102
tp195
a(I174
I4
F0.5
g104
tp196
a(I180
I0
F0.5
g106
tp197
a(I194
I4
F0.5
g108
tp198
a(I199
I2
F0.5
g110
tp199
a(I199
I3
F0.5
g112
tp200
a(I210
I7
F0.5
g114
tp201
a(I211
I0
F0.5
g116
tp202
a(I216
I0
F0.5
g118
tp203
a(I221
I6
F0.5
g120
tp204
a(I221
I6
I0
g122
tp205
a(I221
I6
F1.0
g124
tp206
a(I224
I2
F0.5
g126
tp207
a(I231
I0
I0
g128
tp208
a(I232
I20
F0.5
g130
tp209
a(I234
I3
F0.5
g132
tp210
a(I238
I12
F0.5
g134
tp211
a(I238
I12
F-0.5
g136
tp212
a(I242
I9
F0.5
g138
tp213
a(I243
I3
F0.5
g140
tp214
a(I243
I3
I0
g142
tp215
a(I243
I3
F-0.375
g144
tp216
a(I268
I16
F0.5
g146
tp217
a(I272
I9
F0.5
g148
tp218
a(I272
I12
F0.5
g150
tp219
a(I272
I19
F0.5
g152
tp220
as(S'features'
p221
tp222
(lp223
(I0
I3
F0.625
S'easy'
p224
tp225
a(I0
I3
I0
S'full'
p226
tp227
a(I9
I3
I0
S'only'
p228
tp229
a(I11
I1
F-0.625
S'other'
p230
tp231
a(I21
I15
F0.375
S'new'
p232
tp233
a(I21
I29
I0
S'buggy'
p234
tp235
a(I21
I38
I0
S'specific'
p236
tp237
a(I21
I39
I0
S'few'
p238
tp239
a(I33
I6
F-0.5
S'longer'
p240
tp241
a(I33
I6
I0
S'wider'
p242
tp243
a(I51
I1
I0
S'many'
p244
tp245
a(I66
I54
I0
S'great'
p246
tp247
a(I88
I0
I0
S'same'
p248
tp249
a(I88
I0
F0.625
S'easy'
p250
tp251
a(I103
I9
I0
S'same'
p252
tp253
a(I116
I78
I0
S'many'
p254
tp255
a(I116
I83
F1.0
S'good'
p256
tp257
a(I116
I118
I0
S'few'
p258
tp259
a(I131
I7
F0.625
S'easy'
p260
tp261
a(I138
I1
F-0.5
S'certain'
p262
tp263
a(I138
I29
F-0.375
S'small'
p264
tp265
a(I138
I48
I0
S'such'
p266
tp267
a(I138
I70
I0
S'such'
p268
tp269
a(I138
I77
F0.875
S'nice'
p270
tp271
a(I138
I77
I0
S'such'
p272
tp273
a(I154
I11
I0
S'few'
p274
tp275
a(I154
I11
I0
S'such'
p276
tp277
a(I167
I49
I0
S'creative'
p278
tp279
a(I167
I49
F0.375
S'new'
p280
tp281
a(I170
I10
I0
S'cool'
p282
tp283
a(I184
I0
F0.875
S'important'
p284
tp285
a(I191
I0
I0
S'same'
p286
tp287
a(I206
I1
I0
S'rich'
p288
tp289
a(I209
I21
I0
S'few'
p290
tp291
a(I209
I21
F0.25
S'favorite'
p292
tp293
a(I211
I1
I0
S'many'
p294
tp295
a(I224
I4
F1.0
S'better'
p296
tp297
a(I225
I10
F1.0
S'good'
p298
tp299
a(I227
I1
F0.375
S'new'
p300
tp301
a(I264
I1
I0
S'great'
p302
tp303
a(I268
I16
F0.625
S'necessary'
p304
tp305
a(I268
I16
F-0.125
S'present'
p306
tp307
as(S'experience'
p308
tp309
(lp310
(I21
I24
F1.0
S'best'
p311
tp312
a(I21
I33
F0.375
S'similar'
p313
tp314
a(I21
I34
I0
S'current'
p315
tp316
a(I22
I4
I0
S'android'
p317
tp318
a(I56
I6
I0
S'initial'
p319
tp320
a(I99
I1
F0.375
S'new'
p321
tp322
a(I116
I118
F0.625
S'superior'
p323
tp324
a(I116
I172
F-0.625
S'bad'
p325
tp326
a(I125
I34
F0.625
S'pleasant'
p327
tp328
a(I129
I22
F1.0
S'better'
p329
tp330
a(I131
I6
I0
S'great'
p331
tp332
a(I137
I3
F-0.375
S'smooth'
p333
tp334
a(I169
I52
F0.625
S'positive'
p335
tp336
a(I183
I3
F1.0
S'good'
p337
tp338
a(I213
I10
F-0.5
S'actual'
p339
tp340
a(I221
I8
F-0.75
S'painless'
p341
tp342
a(I225
I2
F-0.625
S'unpleasant'
p343
tp344
a(I226
I65
I0
S'extensive'
p345
tp346
a(I276
I3
F0.625
S'easy'
p347
tp348
as(S'app'
p349
S'store'
p350
tp351
(lp352
(I43
I6
F0.375
S'available'
p353
tp354
a(I66
I7
F0.125
S'able'
p355
tp356
a(I91
I8
F-0.375
S'small'
p357
tp358
a(I121
I2
F0.875
S'nice'
p359
tp360
a(I167
I33
I0
S'own'
p361
tp362
a(I192
I5
F0.5
S'comparable'
p363
tp364
a(I192
I5
I0
S'apple'
p365
tp366
a(I250
I3
F-0.5
S'less'
p367
tp368
a(I256
I3
I0
S'android'
p369
tp370
as(S'a'
p371
S'soft'
p372
S'reset'
p373
tp374
(lp375
(I31
I8
I0
S'soft'
p376
tp377
a(I169
I0
F-0.875
S'hard'
p378
tp379
a(I169
I22
I0
S'soft'
p380
tp381
a(I169
I31
I0
S'soft'
p382
tp383
a(I169
I44
I0
S'soft'
p384
tp385
a(I169
I52
I0
S'soft'
p386
tp387
a(I190
I15
I0
S'soft'
p388
tp389
as(S'learning'
p390
S'curve'
p391
tp392
(lp393
(I214
I3
F0.75
S'worth'
p394
tp395
as(S'store'
p396
tp397
(lp398
(I21
I30
F-0.5
S'sure'
p399
tp400
a(I43
I6
F0.375
g353
tp401
a(I66
I7
F0.125
g355
tp402
a(I91
I8
F-0.375
g357
tp403
a(I91
I16
I0
S'great'
p404
tp405
a(I104
I10
F-0.5
S'sure'
p406
tp407
a(I160
I7
I0
S'great'
p408
tp409
a(I185
I2
F-0.375
S'daily'
p410
tp411
a(I185
I2
F0.125
S'able'
p412
tp413
a(I192
I5
F0.5
g363
tp414
a(I192
I5
I0
g365
tp415
a(I250
I3
F-0.5
g367
tp416
a(I256
I3
I0
g369
tp417
as(S'software'
p418
tp419
(lp420
(I108
I18
I0
S'upload'
p421
tp422
a(I116
I89
F-0.625
S'other'
p423
tp424
a(I167
I28
I0
S'own'
p425
tp426
a(I167
I28
I0
S'special'
p427
tp428
a(I167
I60
I0
S'hardware'
p429
tp430
a(I222
I10
F1.0
S'best'
p431
tp432
a(I257
I1
I0
S'quick'
p433
tp434
a(I257
I1
I0
S'fluid'
p435
tp436
a(I257
I1
F-0.25
S'modern'
p437
tp438
as(S'android'
p439
S'and'
p440
S'os'
p441
tp442
(lp443
(I7
I0
F0.5
S'slick'
p444
tp445
a(I7
I0
F0.25
S'responsive'
p446
tp447
a(I56
I16
F0.5
S'comparable'
p448
tp449
a(I66
I54
I0
S'many'
p450
tp451
a(I91
I8
F-0.5
S'open'
p452
tp453
a(I138
I81
I0
S'great'
p454
tp455
a(I169
I52
F0.125
S'first'
p456
tp457
a(I242
I16
I0
S'faster'
p458
tp459
a(I242
I16
F0.5
S'smarter'
p460
tp461
a(I242
I16
I0
S'android'
p462
tp463
a(I245
I4
I0
S'android'
p464
tp465
a(I250
I3
F1.0
S'best'
p466
tp467
a(I250
I3
F0.375
S'much'
p468
tp469
a(I250
I3
F0.25
S'powerful'
p470
tp471
as(S'nokia'
p472
tp473
(lp474
(I14
I2
I0
S'great'
p475
tp476
a(I21
I41
F0.25
S'responsive'
p477
tp478
a(I45
I65
I0
S'old'
p479
tp480
a(I45
I86
F-0.125
S'former'
p481
tp482
a(I52
I6
I0
S'great'
p483
tp484
a(I56
I16
F0.5
S'drive'
p485
tp486
a(I56
I17
F-0.625
S'free'
p487
tp488
a(I66
I17
F1.0
S'best'
p489
tp490
a(I66
I61
I0
S'big'
p491
tp492
a(I74
I1
F0.5
S'drive'
p493
tp494
a(I74
I2
F0.5
S'drive'
p495
tp496
a(I84
I0
F1.0
S'good'
p497
tp498
a(I93
I0
I0
S'old'
p499
tp500
a(I93
I5
F0.5
S'drive'
p501
tp502
a(I105
I0
F0.875
S'music'
p503
tp504
a(I105
I0
I0
S'exclusive'
p505
tp506
a(I108
I54
I0
S'great'
p507
tp508
a(I109
I3
I0
S'tech'
p509
tp510
a(I116
I117
F0.5
S'drive'
p511
tp512
a(I116
I157
F-0.5
S'heavier'
p513
tp514
a(I116
I171
I0
S'hot'
p515
tp516
a(I117
I6
F0.5
S'live'
p517
tp518
a(I117
I6
F0.5
S'drive'
p519
tp520
a(I125
I46
F0.5
S'drive'
p521
tp522
a(I134
I2
F0.5
S'drive'
p523
tp524
a(I137
I3
F0.125
S'able'
p525
tp526
a(I138
I6
I0
S'standard'
p527
tp528
a(I138
I87
F0.25
S'suppose'
p529
tp530
a(I139
I2
F0.5
S'drive'
p531
tp532
a(I140
I0
F0.125
S'last'
p533
tp534
a(I140
I0
I0
S'old'
p535
tp536
a(I147
I2
F1.0
S'good'
p537
tp538
a(I147
I3
F0.375
S'new'
p539
tp540
a(I148
I3
I0
S'great'
p541
tp542
a(I167
I32
F-0.625
S'other'
p543
tp544
a(I169
I14
F0.5
S'drive'
p545
tp546
a(I169
I14
I0
S'unbelievable'
p547
tp548
a(I169
I17
I0
S'later'
p549
tp550
a(I169
I69
I0
S'third'
p551
tp552
a(I174
I4
I0
S'great'
p553
tp554
a(I174
I4
F0.875
S'music'
p555
tp556
a(I184
I14
F0.875
S'music'
p557
tp558
a(I195
I6
F1.0
S'good'
p559
tp560
a(I206
I31
F-0.375
S'black'
p561
tp562
a(I214
I1
I0
S'great'
p563
tp564
a(I217
I1
I0
S'old'
p565
tp566
a(I217
I5
F0.5
S'drive'
p567
tp568
a(I219
I5
F-0.875
S'hard'
p569
tp570
a(I219
I10
I0
S'many'
p571
tp572
a(I221
I0
F-0.375
S'buzz'
p573
tp574
a(I226
I36
F-0.5
S'long'
p575
tp576
a(I226
I146
F-0.5
S'sure'
p577
tp578
a(I226
I146
I0
S'most'
p579
tp580
a(I241
I0
F0.875
S'happy'
p581
tp582
a(I241
I9
I0
S'many'
p583
tp584
a(I254
I11
F0.5
S'true'
p585
tp586
a(I264
I11
F1.0
S'good'
p587
tp588
a(I264
I11
I0
S'android'
p589
tp590
a(I267
I18
F0.375
S'much'
p591
tp592
a(I268
I5
F0.5
S'drive'
p593
tp594
a(I275
I2
I0
S'forth'
p595
tp596
a(I276
I0
F0.375
S'new'
p597
tp598
a(I276
I11
F-0.625
S'other'
p599
tp600
as(S'home'
p601
S'screen'
p602
tp603
(lp604
(I59
I2
F0.875
S'happy'
p605
tp606
a(I59
I2
F1.0
S'good'
p607
tp608
a(I124
I7
F0.125
S'able'
p609
tp610
a(I172
I0
I0
S'great'
p611
tp612
as(S'os'
p613
S'and'
p614
S'android'
p615
tp616
(lp617
(I7
I0
F0.5
g444
tp618
a(I7
I0
F0.25
g446
tp619
a(I56
I16
F0.5
g448
tp620
a(I66
I54
I0
g450
tp621
a(I91
I8
F-0.5
g452
tp622
a(I138
I81
I0
g454
tp623
a(I169
I52
F0.125
g456
tp624
a(I242
I16
I0
g458
tp625
a(I242
I16
F0.5
g460
tp626
a(I242
I16
I0
g462
tp627
a(I245
I4
I0
g464
tp628
a(I250
I3
F1.0
g466
tp629
a(I250
I3
F0.375
g468
tp630
a(I250
I3
F0.25
g470
tp631
as(S'free'
p632
S'wireless'
p633
S'charger'
p634
tp635
(lp636
(I33
I36
F-0.625
S'free'
p637
tp638
a(I68
I5
F0.375
S'extra'
p639
tp640
a(I68
I5
F-0.625
S'free'
p641
tp642
a(I124
I20
F-0.625
S'free'
p643
tp644
a(I125
I38
F-0.625
S'free'
p645
tp646
a(I154
I13
F-0.625
S'free'
p647
tp648
as(S'n'
p649
S'low'
p650
S'light'
p651
tp652
(lp653
(I0
I29
F-0.25
S'low'
p654
tp655
a(I0
I30
F-0.25
S'low'
p656
tp657
a(I27
I0
F-0.25
S'low'
p658
tp659
a(I82
I5
F-0.25
S'low'
p660
tp661
a(I82
I8
F1.0
S'best'
p662
tp663
a(I82
I8
F-0.25
S'low'
p664
tp665
a(I103
I15
I0
S'great'
p666
tp667
a(I103
I15
F-0.25
S'low'
p668
tp669
a(I116
I141
F-0.25
S'low'
p670
tp671
a(I219
I5
I0
S'great'
p672
tp673
a(I219
I5
F-0.25
S'low'
p674
tp675
as(S'nokia'
p676
S'lumia'
p677
tp678
(lp679
(I14
I2
I0
g475
tp680
a(I17
I0
I0
S'fast'
p681
tp682
a(I17
I0
F0.625
S'easy'
p683
tp684
a(I17
I0
F0.75
S'beautiful'
p685
tp686
a(I17
I0
F0.5
S'strong'
p687
tp688
a(I45
I20
F-0.875
S'regret'
p689
tp690
a(I45
I86
F-0.125
g481
tp691
a(I46
I18
F0.375
S'newer'
p692
tp693
a(I56
I17
F-0.625
g487
tp694
a(I56
I17
F0.5
S'recommended'
p695
tp696
a(I80
I2
F1.0
S'good'
p697
tp698
a(I82
I7
F1.0
S'best'
p699
tp700
a(I93
I0
I0
g499
tp701
a(I125
I46
F0.5
g521
tp702
a(I137
I3
F0.125
g525
tp703
a(I138
I87
F0.25
g529
tp704
a(I147
I3
F0.375
g539
tp705
a(I147
I3
F0.625
S'sexy'
p706
tp707
a(I153
I0
F-0.625
S'glad'
p708
tp709
a(I154
I4
F0.875
S'attractive'
p710
tp711
a(I167
I50
F0.375
S'available'
p712
tp713
a(I221
I0
F-0.375
g573
tp714
a(I267
I18
F0.375
g591
tp715
a(I270
I0
F0.375
S'new'
p716
tp717
as(S'wireless'
p718
tp719
(lp720
(I1
I8
F0.875
S'nice'
p721
tp722
a(I33
I36
F-0.625
g637
tp723
a(I68
I5
F0.375
g639
tp724
a(I68
I5
F-0.625
g641
tp725
a(I119
I18
F-0.5
S'sure'
p726
tp727
a(I124
I20
F-0.625
g643
tp728
a(I125
I38
F-0.625
g645
tp729
a(I148
I8
F0.25
S'sweet'
p730
tp731
a(I154
I13
F-0.625
g647
tp732
a(I165
I16
F-0.625
S'free'
p733
tp734
a(I166
I16
F-0.625
S'other'
p735
tp736
a(I166
I17
I0
S'awhile'
p737
tp738
a(I166
I17
F0.875
S'music'
p739
tp740
a(I198
I2
F-0.625
S'bad'
p741
tp742
a(I219
I4
F0.125
S'first'
p743
tp744
as(S'hardware'
p745
S'and'
p746
S'software'
p747
tp748
(lp749
(I141
I4
F0.625
S'superior'
p750
tp751
a(I167
I60
I0
g429
tp752
a(I257
I1
I0
S'great'
p753
tp754
a(I257
I1
I0
g433
tp755
a(I257
I1
I0
g435
tp756
a(I257
I1
F-0.25
g437
tp757
as(S'fast'
p758
tp759
(lp760
(I60
I0
I0
S'hot'
p761
tp762
a(I64
I6
F-0.125
S'super'
p763
tp764
a(I116
I122
F-0.625
S'quite'
p765
tp766
a(I128
I1
F1.0
S'good'
p767
tp768
a(I228
I3
F0.25
S'responsive'
p769
tp770
as(S'facebook'
p771
tp772
(lp773
(I66
I52
I0
S'many'
p774
tp775
a(I115
I22
F0.25
S'recent'
p776
tp777
a(I116
I4
I0
S'more'
p778
tp779
a(I156
I15
F0.25
S'original'
p780
tp781
a(I172
I0
F0.5
S'drive'
p782
tp783
as(S'problem'
p784
tp785
(lp786
(I31
I13
I0
S'real'
p787
tp788
a(I68
I7
I0
S'least'
p789
tp790
a(I68
I7
F0.625
S'major'
p791
tp792
a(I68
I9
F-0.375
S'small'
p793
tp794
a(I68
I9
F0.625
S'easy'
p795
tp796
a(I116
I141
F0.25
S'bigger'
p797
tp798
a(I118
I18
I0
S'only'
p799
tp800
a(I123
I1
I0
S'third'
p801
tp802
a(I138
I44
F0.25
S'main'
p803
tp804
a(I167
I46
I0
S'such'
p805
tp806
a(I190
I6
F0.25
S'biggest'
p807
tp808
a(I237
I0
F-0.75
S'single'
p809
tp810
a(I239
I1
F0.25
S'biggest'
p811
tp812
a(I248
I1
F-0.125
S'persistent'
p813
tp814
as(S'good'
p815
tp816
(lp817
(I195
I0
I0
S'high'
p818
tp819
a(I276
I21
F0.125
S'enough'
p820
tp821
as(S'camera'
p822
S'and'
p823
S'video'
p824
tp825
(lp826
(I12
I1
F0.5
S'clear'
p827
tp828
a(I51
I1
F0.875
S'nice'
p829
tp830
a(I52
I8
F0.5
S'live'
p831
tp832
a(I167
I5
F0.75
S'beautiful'
p833
tp834
a(I172
I0
I0
S'great'
p835
tp836
a(I172
I0
F0.75
S'due'
p837
tp838
a(I174
I6
F0.125
S'last'
p839
tp840
a(I174
I6
I0
S'least'
p841
tp842
a(I240
I0
I0
S'incredible'
p843
tp844
a(I250
I5
F1.0
S'best'
p845
tp846
a(I250
I5
F1.0
S'best'
p847
tp848
a(I263
I2
F0.125
S'first'
p849
tp850
as(S'maps'
p851
tp852
(lp853
(I21
I11
F-0.125
S'overall'
p854
tp855
a(I21
I11
F0.375
S'new'
p856
tp857
a(I109
I8
I0
S'apple'
p858
tp859
a(I110
I25
F-0.25
S'google'
p860
tp861
a(I113
I4
F-0.625
S'free'
p862
tp863
a(I113
I4
F1.0
S'best'
p864
tp865
a(I116
I4
F0.125
S'first'
p866
tp867
a(I116
I4
F0.125
S'impressive'
p868
tp869
a(I116
I84
F-0.875
S'hard'
p870
tp871
a(I116
I105
F-0.25
S'google'
p872
tp873
a(I116
I112
F0.5
S'functional'
p874
tp875
a(I116
I112
F-0.75
S'off-line'
p876
tp877
a(I116
I115
I0
S'downloaded'
p878
tp879
a(I118
I13
I0
S'apple'
p880
tp881
a(I185
I16
F0.125
S'native'
p882
tp883
a(I210
I11
F1.0
S'good'
p884
tp885
a(I210
I11
F-0.25
S'google'
p886
tp887
a(I222
I5
F0.5
S'drive'
p888
tp889
a(I222
I5
F-0.75
S'plain'
p890
tp891
a(I235
I2
I0
S'great'
p892
tp893
a(I250
I5
F-0.25
S'google'
p894
tp895
a(I256
I5
I0
S'great'
p896
tp897
a(I270
I1
I0
S'same'
p898
tp899
as(S'angry'
p900
S'birds'
p901
tp902
(lp903
(I33
I35
I0
S'angry'
p904
tp905
a(I119
I24
I0
S'angry'
p906
tp907
a(I184
I16
I0
S'angry'
p908
tp909
a(I239
I2
F-0.625
S'other'
p910
tp911
as(S'need'
p912
tp913
(lp914
(I12
I1
I0
S'stable'
p915
tp916
a(I24
I13
I0
S'real'
p917
tp918
a(I66
I11
F0.5
S'careful'
p919
tp920
a(I116
I103
I0
S'particular'
p921
tp922
a(I125
I42
F-0.75
S'fumble'
p923
tp924
a(I250
I5
F1.0
S'good'
p925
tp926
as(g371
S'little'
p927
S'bit'
p928
tp929
(lp930
(I120
I1
I0
S'large'
p931
tp932
as(S'lumia'
p933
tp934
(lp935
(I0
I21
F0.625
S'notice'
p936
tp937
a(I10
I1
I0
S'arrival'
p938
tp939
a(I13
I4
I0
S'blue'
p940
tp941
a(I15
I3
F0.5
S'tall'
p942
tp943
a(I15
I4
I0
S'next'
p944
tp945
a(I15
I9
F0.875
S'happy'
p946
tp947
a(I17
I0
I0
g681
tp948
a(I17
I0
F0.625
g683
tp949
a(I17
I0
F0.75
g685
tp950
a(I17
I0
F0.5
g687
tp951
a(I21
I2
F1.0
S'better'
p952
tp953
a(I23
I0
F0.875
S'lucky'
p954
tp955
a(I45
I20
F-0.875
g689
tp956
a(I45
I39
F0.375
S'much'
p957
tp958
a(I45
I43
F1.0
S'good'
p959
tp960
a(I45
I54
F0.875
S'music'
p961
tp962
a(I46
I18
F0.375
g692
tp963
a(I50
I4
F-0.375
S'black'
p964
tp965
a(I56
I17
F0.5
g695
tp966
a(I64
I8
F-0.5
S'less'
p967
tp968
a(I64
I8
F0.5
S'second'
p969
tp970
a(I78
I0
F-0.25
S'yellow'
p971
tp972
a(I80
I2
F1.0
g697
tp973
a(I82
I0
F1.0
S'best'
p974
tp975
a(I82
I7
F1.0
g699
tp976
a(I82
I24
F-0.5
S'heavy'
p977
tp978
a(I82
I28
I0
S'same'
p979
tp980
a(I103
I0
F0.375
S'new'
p981
tp982
a(I116
I124
F0.5
S'greater'
p983
tp984
a(I147
I3
F0.625
g706
tp985
a(I153
I0
F-0.625
g708
tp986
a(I154
I4
F0.875
g710
tp987
a(I156
I29
F0.375
S'much'
p988
tp989
a(I167
I50
F0.375
g712
tp990
a(I168
I1
F-0.75
S'wrong'
p991
tp992
a(I199
I23
F-0.375
S'crash'
p993
tp994
a(I202
I0
F0.75
S'beautiful'
p995
tp996
a(I205
I0
F-0.125
S'overall'
p997
tp998
a(I207
I0
F0.375
S'new'
p999
tp1000
a(I209
I26
F0.375
S'new'
p1001
tp1002
a(I232
I14
F-0.75
S'impossible'
p1003
tp1004
a(I236
I6
F1.0
S'better'
p1005
tp1006
a(I246
I3
I0
S'most'
p1007
tp1008
a(I250
I6
F1.0
S'good'
p1009
tp1010
a(I260
I0
F-0.375
S'black'
p1011
tp1012
a(I270
I0
F0.375
g716
tp1013
as(S'things'
p1014
tp1015
(lp1016
(I21
I30
I0
S'most'
p1017
tp1018
a(I45
I5
I0
S'many'
p1019
tp1020
a(I45
I5
I0
S'proprietary'
p1021
tp1022
a(I46
I0
F0.125
S'enough'
p1023
tp1024
a(I46
I0
F1.0
S'good'
p1025
tp1026
a(I52
I20
I0
S'few'
p1027
tp1028
a(I78
I21
I0
S'many'
p1029
tp1030
a(I78
I21
F-0.625
S'other'
p1031
tp1032
a(I78
I21
F-0.75
S'little'
p1033
tp1034
a(I91
I6
F1.0
S'good'
p1035
tp1036
a(I92
I19
I0
S'few'
p1037
tp1038
a(I116
I66
I0
S'most'
p1039
tp1040
a(I116
I66
F0.125
S'essential'
p1041
tp1042
a(I116
I100
F0.875
S'important'
p1043
tp1044
a(I116
I185
F-0.375
S'small'
p1045
tp1046
a(I116
I253
I0
S'basic'
p1047
tp1048
a(I116
I253
F-0.375
S'simple'
p1049
tp1050
a(I118
I2
F1.0
S'best'
p1051
tp1052
a(I125
I1
I0
S'many'
p1053
tp1054
a(I125
I1
F1.0
S'good'
p1055
tp1056
a(I129
I30
F0.5
S'functional'
p1057
tp1058
a(I134
I0
F1.0
S'best'
p1059
tp1060
a(I138
I35
I0
S'few'
p1061
tp1062
a(I138
I68
I0
S'most'
p1063
tp1064
a(I148
I5
F-0.625
S'other'
p1065
tp1066
a(I149
I1
F-0.5
S'certain'
p1067
tp1068
a(I206
I2
F0.125
S'first'
p1069
tp1070
a(I235
I0
F0.125
S'first'
p1071
tp1072
a(I264
I1
I0
S'few'
p1073
tp1074
a(I264
I1
I0
S'basic'
p1075
tp1076
a(I270
I0
I0
S'cool'
p1077
tp1078
as(S'apple'
p1079
tp1080
(lp1081
(I33
I6
F0.5
S'obvious'
p1082
tp1083
a(I91
I8
F0.375
S'new'
p1084
tp1085
a(I111
I0
F-0.75
S'sick'
p1086
tp1087
a(I116
I94
I0
S'fast'
p1088
tp1089
a(I141
I8
I0
S'big'
p1090
tp1091
a(I171
I9
F1.0
S'better'
p1092
tp1093
a(I246
I3
F0.375
S'new'
p1094
tp1095
a(I272
I7
F-0.75
S'sick'
p1096
tp1097
a(I272
I9
I0
S'android'
p1098
tp1099
a(I272
I9
I0
S'user'
p1100
tp1101
a(I272
I9
F0.375
S'friendly'
p1102
tp1103
as(S'hardware'
p1104
tp1105
(lp1106
(I21
I12
F-0.625
S'other'
p1107
tp1108
a(I42
I0
F0.625
S'superior'
p1109
tp1110
a(I43
I18
F0.75
S'beautiful'
p1111
tp1112
a(I46
I9
F0.125
S'impressive'
p1113
tp1114
a(I56
I6
F-0.5
S'heavy'
p1115
tp1116
a(I75
I0
F-0.25
S'modern'
p1117
tp1118
a(I141
I4
F0.625
g750
tp1119
a(I149
I6
F0.125
S'solid'
p1120
tp1121
a(I175
I1
F0.5
S'touch'
p1122
tp1123
a(I175
I1
I0
S'great'
p1124
tp1125
a(I185
I31
F0.875
S'nice'
p1126
tp1127
a(I211
I3
I0
S'many'
p1128
tp1129
a(I213
I10
F0.75
S'beautiful'
p1130
tp1131
a(I214
I4
I0
S'great'
p1132
tp1133
a(I214
I4
I0
S'fast'
p1134
tp1135
a(I221
I3
F-0.75
S'likely'
p1136
tp1137
a(I221
I3
F0.125
S'last'
p1138
tp1139
a(I222
I5
F-0.375
S'top'
p1140
tp1141
a(I223
I1
F1.0
S'best'
p1142
tp1143
a(I229
I1
F0.625
S'perfect'
p1144
tp1145
a(I257
I1
I0
g753
tp1146
as(S'photos'
p1147
tp1148
(lp1149
(I23
I6
F-0.25
S'low'
p1150
tp1151
a(I23
I6
F-0.625
S'light'
p1152
tp1153
a(I45
I64
F-0.75
S'sufficient'
p1154
tp1155
a(I47
I2
F-0.625
S'average'
p1156
tp1157
a(I47
I2
F1.0
S'best'
p1158
tp1159
a(I80
I2
F-0.625
S'light'
p1160
tp1161
a(I108
I22
I0
S'great'
p1162
tp1163
a(I108
I40
F0.25
S'favorite'
p1164
tp1165
a(I115
I8
I0
S'handy'
p1166
tp1167
a(I136
I4
F0.625
S'easier'
p1168
tp1169
a(I138
I4
I0
S'soft'
p1170
tp1171
a(I149
I4
F0.125
S'colorful'
p1172
tp1173
a(I165
I8
I0
S'such'
p1174
tp1175
a(I185
I27
F-0.75
S'dark'
p1176
tp1177
a(I232
I7
F-0.25
S'low'
p1178
tp1179
a(I247
I9
I0
S'many'
p1180
tp1181
a(I247
I14
I0
S'daytime'
p1182
tp1183
as(S'video'
p1184
tp1185
(lp1186
(I12
I1
F0.5
g827
tp1187
a(I43
I9
I0
S'great'
p1188
tp1189
a(I43
I9
F-0.25
S'low'
p1190
tp1191
a(I43
I9
F-0.625
S'light'
p1192
tp1193
a(I45
I95
F0.875
S'music'
p1194
tp1195
a(I52
I8
F0.5
g831
tp1196
a(I167
I5
F0.75
g833
tp1197
a(I167
I31
F-0.75
S'short'
p1198
tp1199
a(I172
I0
I0
g835
tp1200
a(I172
I0
F0.75
g837
tp1201
a(I270
I0
F-0.75
S'short'
p1202
tp1203
as(S'size'
p1204
S'and'
p1205
S'weight'
p1206
tp1207
(lp1208
(I38
I5
I0
S'many'
p1209
tp1210
a(I124
I15
F0.375
S'significant'
p1211
tp1212
as(S'android'
p1213
tp1214
(lp1215
(I35
I4
F-0.125
S'former'
p1216
tp1217
a(I56
I16
F0.5
g448
tp1218
a(I169
I52
F0.125
g456
tp1219
a(I213
I13
F-0.125
S'former'
p1220
tp1221
as(S'exit'
p1222
S'numbers'
p1223
tp1224
(lp1225
(I167
I55
I0
S'interstate'
p1226
tp1227
as(S'microsoft'
p1228
tp1229
(lp1230
(I21
I20
F0.5
S'rid'
p1231
tp1232
a(I32
I2
F0.875
S'important'
p1233
tp1234
a(I82
I12
F-0.625
S'free'
p1235
tp1236
a(I210
I41
F-0.25
S'past'
p1237
tp1238
a(I217
I25
F0.5
S'strong'
p1239
tp1240
a(I241
I31
I0
S'many'
p1241
tp1242
a(I242
I6
F0.5
S'drive'
p1243
tp1244
a(I272
I6
I0
S'particular'
p1245
tp1246
as(g371
S'third'
p1247
S'party'
p1248
tp1249
(lp1250
(I115
I38
I0
S'third'
p1251
tp1252
a(I185
I22
I0
S'third'
p1253
tp1254
a(I221
I26
I0
S'third'
p1255
tp1256
a(I238
I8
I0
S'third'
p1257
tp1258
a(I256
I8
I0
S'third'
p1259
tp1260
as(S'to'
p1261
S'home'
p1262
S'screen'
p1263
tp1264
(lp1265
(I124
I7
F0.125
g609
tp1266
a(I172
I0
I0
g611
tp1267
as(S'thing'
p1268
tp1269
(lp1270
(I0
I10
I0
S'only'
p1271
tp1272
a(I15
I5
F0.5
S'possible'
p1273
tp1274
a(I15
I5
F-0.625
S'bad'
p1275
tp1276
a(I21
I22
F1.0
S'good'
p1277
tp1278
a(I43
I4
F0.25
S'favorite'
p1279
tp1280
a(I43
I11
I0
S'only'
p1281
tp1282
a(I50
I6
F1.0
S'good'
p1283
tp1284
a(I50
I11
F1.0
S'best'
p1285
tp1286
a(I76
I2
F0.25
S'favorite'
p1287
tp1288
a(I92
I7
I0
S'same'
p1289
tp1290
a(I93
I8
F-0.375
S'black'
p1291
tp1292
a(I104
I10
I0
S'same'
p1293
tp1294
a(I113
I8
F0.125
S'solid'
p1295
tp1296
a(I115
I16
I0
S'great'
p1297
tp1298
a(I116
I65
F0.625
S'major'
p1299
tp1300
a(I116
I122
F0.5
S'whole'
p1301
tp1302
a(I116
I145
F1.0
S'good'
p1303
tp1304
a(I116
I164
F0.5
S'whole'
p1305
tp1306
a(I116
I192
I0
S'subjective'
p1307
tp1308
a(I116
I196
F0.375
S'much'
p1309
tp1310
a(I116
I250
I0
S'such'
p1311
tp1312
a(I116
I250
F-0.375
S'simple'
p1313
tp1314
a(I118
I4
F0.25
S'biggest'
p1315
tp1316
a(I124
I35
F0.875
S'nice'
p1317
tp1318
a(I126
I13
F0.25
S'main'
p1319
tp1320
a(I129
I33
I0
S'most'
p1321
tp1322
a(I133
I1
F-0.75
S'comfortable'
p1323
tp1324
a(I138
I53
I0
S'same'
p1325
tp1326
a(I148
I8
I0
S'more'
p1327
tp1328
a(I149
I14
I0
S'only'
p1329
tp1330
a(I154
I2
F0.125
S'first'
p1331
tp1332
a(I165
I2
F1.0
S'best'
p1333
tp1334
a(I174
I3
I0
S'great'
p1335
tp1336
a(I192
I6
F0.875
S'important'
p1337
tp1338
a(I192
I6
F0.375
S'new'
p1339
tp1340
a(I192
I6
F-0.625
S'other'
p1341
tp1342
a(I199
I28
I0
S'only'
p1343
tp1344
a(I207
I3
F0.625
S'kind'
p1345
tp1346
a(I207
I3
I0
S'same'
p1347
tp1348
a(I225
I6
F0.125
S'first'
p1349
tp1350
a(I230
I1
F0.75
S'beautiful'
p1351
tp1352
a(I230
I1
F-0.375
S'simple'
p1353
tp1354
as(S'data'
p1355
tp1356
(lp1357
(I20
I4
I0
S'more'
p1358
tp1359
a(I20
I4
I0
S'polymorphic'
p1360
tp1361
a(I45
I71
F0.5
S'personal'
p1362
tp1363
a(I45
I74
F0.5
S'personal'
p1364
tp1365
a(I81
I1
F-0.5
S'inexplicable'
p1366
tp1367
a(I81
I7
F-0.625
S'other'
p1368
tp1369
a(I81
I17
F-0.5
S'less'
p1370
tp1371
a(I110
I26
I0
S'more'
p1372
tp1373
a(I115
I17
I0
S'real-time'
p1374
tp1375
a(I116
I43
I0
S'cellular'
p1376
tp1377
a(I123
I1
F0.375
S'allow'
p1378
tp1379
a(I172
I0
I0
S'cellular'
p1380
tp1381
as(g649
S'fact'
p1382
tp1383
(lp1384
(I92
I19
F0.5
S'desirable'
p1385
tp1386
a(I167
I19
F0.625
S'notice'
p1387
tp1388
a(I167
I19
F-0.625
S'other'
p1389
tp1390
a(I167
I37
F-0.625
S'bad'
p1391
tp1392
as(S'quality'
p1393
tp1394
(lp1395
(I20
I2
I0
S'high'
p1396
tp1397
a(I21
I5
F1.0
S'good'
p1398
tp1399
a(I21
I5
I0
S'high'
p1400
tp1401
a(I22
I3
I0
g10
tp1402
a(I22
I8
I0
S'great'
p1403
tp1404
a(I24
I5
I0
S'general'
p1405
tp1406
a(I24
I5
I0
S'high'
p1407
tp1408
a(I25
I1
I0
S'fast'
p1409
tp1410
a(I25
I4
F0.125
S'solid'
p1411
tp1412
a(I33
I14
I0
S'high'
p1413
tp1414
a(I33
I15
I0
S'full'
p1415
tp1416
a(I33
I15
I0
S'high'
p1417
tp1418
a(I45
I97
F0.125
S'solid'
p1419
tp1420
a(I45
I97
I0
S'high'
p1421
tp1422
a(I46
I12
I0
S'sturdier'
p1423
tp1424
a(I64
I2
F1.0
S'good'
p1425
tp1426
a(I70
I0
I0
S'great'
p1427
tp1428
a(I82
I32
F-0.5
S'poor'
p1429
tp1430
a(I91
I20
F0.125
g12
tp1431
a(I92
I7
I0
S'great'
p1432
tp1433
a(I103
I5
F-0.5
S'poorer'
p1434
tp1435
a(I108
I77
F1.0
g16
tp1436
a(I138
I3
I0
S'great'
p1437
tp1438
a(I174
I4
I0
S'great'
p1439
tp1440
a(I177
I43
I0
g18
tp1441
a(I178
I1
F-0.25
S'higher'
p1442
tp1443
a(I185
I9
F-0.25
S'disappointing'
p1444
tp1445
a(I219
I6
F0.5
S'clearer'
p1446
tp1447
a(I220
I0
F-0.125
S'overall'
p1448
tp1449
a(I231
I10
F0.125
S'solid'
p1450
tp1451
a(I252
I5
F-0.875
S'inferior'
p1452
tp1453
a(I256
I3
F-0.25
S'higher'
p1454
tp1455
a(I263
I0
I0
S'high'
p1456
tp1457
a(I276
I25
I0
S'high'
p1458
tp1459
as(S'transport'
p1460
S'schedules'
p1461
tp1462
(lp1463
(I232
I19
F-0.125
S'public'
p1464
tp1465
a(I232
I22
F-0.125
S'public'
p1466
tp1467
as(S'work'
p1468
tp1469
(lp1470
(I16
I1
I0
S'more'
p1471
tp1472
a(I50
I13
F0.875
S'important'
p1473
tp1474
a(I116
I72
F-0.375
S'serious'
p1475
tp1476
a(I125
I35
I0
S'entire'
p1477
tp1478
a(I184
I9
F0.125
S'plenty'
p1479
tp1480
a(I191
I11
F0.125
S'able'
p1481
tp1482
a(I276
I1
I0
S'e-mail'
p1483
tp1484
as(S'by'
p1485
S'turn'
p1486
S'navigation'
p1487
tp1488
(lp1489
(I21
I11
I0
S'great'
p1490
tp1491
a(I177
I2
F0.375
S'audible'
p1492
tp1493
a(I194
I28
I0
S'great'
p1494
tp1495
as(S'battery'
p1496
S'life'
p1497
tp1498
(lp1499
(I1
I8
F1.0
S'good'
p1500
tp1501
a(I37
I3
F1.0
S'good'
p1502
tp1503
a(I41
I4
F1.0
S'good'
p1504
tp1505
a(I41
I4
I0
S'incredible'
p1506
tp1507
a(I46
I11
F-0.5
S'longer'
p1508
tp1509
a(I52
I24
I0
S'great'
p1510
tp1511
a(I73
I1
F-0.75
S'short'
p1512
tp1513
a(I79
I0
F-0.5
S'longer'
p1514
tp1515
a(I81
I1
F-0.5
S'poor'
p1516
tp1517
a(I81
I21
I0
S'large'
p1518
tp1519
a(I81
I21
F-0.375
S'unacceptable'
p1520
tp1521
a(I84
I15
F1.0
S'better'
p1522
tp1523
a(I100
I1
F1.0
S'good'
p1524
tp1525
a(I108
I24
F1.0
S'good'
p1526
tp1527
a(I116
I172
F1.0
S'good'
p1528
tp1529
a(I118
I18
F0.125
S'last'
p1530
tp1531
a(I123
I0
F-0.625
S'bad'
p1532
tp1533
a(I125
I34
F1.0
S'better'
p1534
tp1535
a(I138
I60
F-0.5
S'long'
p1536
tp1537
a(I148
I4
F1.0
S'good'
p1538
tp1539
a(I150
I1
I0
S'great'
p1540
tp1541
a(I156
I19
F-0.875
S'worst'
p1542
tp1543
a(I165
I5
F1.0
S'good'
p1544
tp1545
a(I167
I38
F-0.5
S'poor'
p1546
tp1547
a(I171
I9
F0.5
S'reasonable'
p1548
tp1549
a(I177
I11
F1.0
S'good'
p1550
tp1551
a(I177
I12
I0
S'adequate'
p1552
tp1553
a(I195
I11
F-0.625
S'bad'
p1554
tp1555
a(I202
I3
F0.125
S'first'
p1556
tp1557
a(I203
I0
I0
S'great'
p1558
tp1559
a(I210
I7
F1.0
S'better'
p1560
tp1561
a(I214
I0
F-0.25
S'battery'
p1562
tp1563
a(I214
I0
F-0.625
S'bad'
p1564
tp1565
a(I215
I24
F-0.75
S'unreliable'
p1566
tp1567
a(I217
I4
I0
S'initial'
p1568
tp1569
a(I221
I29
F-0.625
S'other'
p1570
tp1571
a(I254
I1
F-0.5
S'poor'
p1572
tp1573
a(I261
I4
F-0.5
S'less'
p1574
tp1575
as(S'back'
p1576
tp1577
(lp1578
(I82
I20
F-0.25
S'thin'
p1579
tp1580
a(I118
I17
I0
S'finger'
p1581
tp1582
a(I185
I7
F-0.75
S'kicked'
p1583
tp1584
a(I247
I9
F-0.25
S'white'
p1585
tp1586
as(S'pdf'
p1587
S'reader'
p1588
tp1589
(lp1590
(I116
I181
I0
S'own'
p1591
tp1592
a(I116
I182
F1.0
S'better'
p1593
tp1594
as(S'life'
p1595
tp1596
(lp1597
(I1
I8
F1.0
g1500
tp1598
a(I37
I3
F1.0
g1502
tp1599
a(I41
I4
I0
g1506
tp1600
a(I46
I11
F-0.5
g1508
tp1601
a(I62
I3
I0
S'real'
p1602
tp1603
a(I78
I5
F0.625
S'easier'
p1604
tp1605
a(I79
I0
F-0.5
g1514
tp1606
a(I84
I15
F1.0
g1522
tp1607
a(I108
I24
F1.0
g1526
tp1608
a(I116
I172
F1.0
g1528
tp1609
a(I118
I18
F0.125
g1530
tp1610
a(I123
I0
F-0.625
g1532
tp1611
a(I148
I4
F1.0
g1538
tp1612
a(I156
I19
F-0.875
g1542
tp1613
a(I165
I5
F1.0
g1544
tp1614
a(I167
I10
I0
S'real'
p1615
tp1616
a(I171
I6
F0.625
S'necessary'
p1617
tp1618
a(I171
I6
F-0.375
S'daily'
p1619
tp1620
a(I171
I9
F0.5
g1548
tp1621
a(I177
I11
F1.0
g1550
tp1622
a(I202
I3
F0.125
g1556
tp1623
a(I209
I20
F0.375
S'busy'
p1624
tp1625
a(I214
I0
F-0.25
g1562
tp1626
a(I214
I0
F-0.625
g1564
tp1627
a(I221
I29
F-0.625
g1570
tp1628
a(I261
I4
F-0.5
g1574
tp1629
a(I276
I2
F0.5
S'personal'
p1630
tp1631
a(I276
I24
F0.5
S'personal'
p1632
tp1633
as(S'dual'
p1634
S'core'
p1635
tp1636
(lp1637
(I26
I2
F-0.375
S'smooth'
p1638
tp1639
a(I137
I3
I0
S'fast'
p1640
tp1641
as(S'call'
p1642
tp1643
(lp1644
(I9
I2
F-0.875
S'hard'
p1645
tp1646
a(I42
I0
F0.5
S'optimistic'
p1647
tp1648
a(I97
I1
F-0.375
g14
tp1649
a(I104
I5
F-0.75
S'impossible'
p1650
tp1651
a(I216
I5
F-0.25
S'hang'
p1652
tp1653
a(I226
I116
I0
S'few'
p1654
tp1655
as(S'user'
p1656
tp1657
(lp1658
(I14
I4
F-0.5
S'heavy'
p1659
tp1660
a(I22
I4
I0
S'more'
p1661
tp1662
a(I22
I4
I0
S'richer'
p1663
tp1664
a(I32
I11
F-0.5
S'poor'
p1665
tp1666
a(I45
I76
I0
S'sky'
p1667
tp1668
a(I45
I76
F0.5
S'drive'
p1669
tp1670
a(I45
I77
F0.625
S'aware'
p1671
tp1672
a(I45
I97
I0
S'many'
p1673
tp1674
a(I92
I10
I0
S'graphical'
p1675
tp1676
a(I111
I0
F0.125
S'last'
p1677
tp1678
a(I116
I70
F1.0
S'best'
p1679
tp1680
a(I116
I70
F0.625
S'productive'
p1681
tp1682
a(I116
I100
F0.5
S'greater'
p1683
tp1684
a(I116
I109
F0.875
S'suited'
p1685
tp1686
a(I116
I116
F1.0
S'better'
p1687
tp1688
a(I116
I118
F-0.125
S'overall'
p1689
tp1690
a(I116
I249
F0.75
S'constant'
p1691
tp1692
a(I132
I0
F0.875
S'happy'
p1693
tp1694
a(I132
I9
F0.375
S'complete'
p1695
tp1696
a(I138
I1
F-0.5
S'heavy'
p1697
tp1698
a(I221
I0
I0
S'android'
p1699
tp1700
a(I267
I15
F-0.125
S'complex'
p1701
tp1702
as(S'nokia'
p1703
S'maps'
p1704
tp1705
(lp1706
(I109
I8
I0
g858
tp1707
a(I113
I4
F-0.625
g862
tp1708
a(I113
I4
F1.0
g864
tp1709
a(I116
I4
F0.125
g866
tp1710
a(I116
I4
F0.125
g868
tp1711
a(I148
I3
I0
g541
tp1712
a(I222
I5
F0.5
g888
tp1713
a(I222
I5
F-0.75
g890
tp1714
a(I235
I2
I0
g892
tp1715
a(I250
I5
F-0.25
g894
tp1716
a(I256
I5
I0
g896
tp1717
a(I270
I1
I0
g898
tp1718
as(S'samsung'
p1719
S'galaxy'
p1720
S's3'
p1721
tp1722
(lp1723
(I242
I12
F0.125
S'last'
p1724
tp1725
as(S'great'
p1726
tp1727
(lp1728
(I163
I3
I0
S'great'
p1729
tp1730
as(S'battery'
p1731
tp1732
(lp1733
(I19
I3
F0.375
S'alive'
p1734
tp1735
a(I31
I11
F0.625
S'decent'
p1736
tp1737
a(I31
I14
I0
S'hot'
p1738
tp1739
a(I41
I4
F1.0
g1504
tp1740
a(I49
I6
F-0.25
S'low'
p1741
tp1742
a(I52
I24
I0
g1510
tp1743
a(I60
I0
I0
S'special'
p1744
tp1745
a(I73
I1
F-0.75
g1512
tp1746
a(I81
I1
F-0.5
g1516
tp1747
a(I81
I21
I0
g1518
tp1748
a(I81
I21
F-0.375
g1520
tp1749
a(I100
I1
F1.0
g1524
tp1750
a(I108
I28
F-0.625
S'bad'
p1751
tp1752
a(I119
I37
F-0.25
S'low'
p1753
tp1754
a(I125
I34
F1.0
g1534
tp1755
a(I138
I33
F-0.5
S'sure'
p1756
tp1757
a(I138
I60
F-0.5
g1536
tp1758
a(I150
I1
I0
g1540
tp1759
a(I158
I0
F0.125
S'last'
p1760
tp1761
a(I167
I36
F0.125
S'first'
p1762
tp1763
a(I167
I37
F-0.75
S'likely'
p1764
tp1765
a(I167
I38
F-0.5
g1546
tp1766
a(I167
I41
F-0.75
S'sufficient'
p1767
tp1768
a(I169
I17
F-0.25
S'low'
p1769
tp1770
a(I169
I18
F-0.25
S'low'
p1771
tp1772
a(I169
I19
F-0.25
S'low'
p1773
tp1774
a(I169
I19
I0
S'therefore'
p1775
tp1776
a(I169
I60
I0
S'internal'
p1777
tp1778
a(I177
I2
F0.5
S'willing'
p1779
tp1780
a(I177
I12
I0
g1552
tp1781
a(I185
I18
I0
S'faster'
p1782
tp1783
a(I190
I16
F-0.75
S'unreliable'
p1784
tp1785
a(I194
I27
F0.625
S'aware'
p1786
tp1787
a(I194
I27
I0
S'deplete'
p1788
tp1789
a(I195
I11
F-0.625
g1554
tp1790
a(I199
I17
F0.875
S'happy'
p1791
tp1792
a(I199
I17
I0
S'update'
p1793
tp1794
a(I199
I17
F-0.375
S'avoid'
p1795
tp1796
a(I199
I17
I0
S'faster'
p1797
tp1798
a(I199
I17
F0.125
S'usual'
p1799
tp1800
a(I203
I0
I0
g1558
tp1801
a(I210
I7
F1.0
g1560
tp1802
a(I215
I24
F-0.75
g1566
tp1803
a(I217
I4
I0
g1568
tp1804
a(I217
I6
F0.125
S'further'
p1805
tp1806
a(I252
I9
I0
S'more'
p1807
tp1808
a(I254
I1
F-0.5
g1572
tp1809
a(I273
I0
F0.125
S'last'
p1810
tp1811
as(S'augmented'
p1812
S'reality'
p1813
tp1814
(lp1815
(I232
I15
I0
S'augmented'
p1816
tp1817
as(S'awesome'
p1818
tp1819
(lp1820
(I65
I4
F-0.75
S'bright'
p1821
tp1822
as(g371
S'screen'
p1823
S'protector'
p1824
tp1825
(lp1826
(I93
I18
I0
S'plastic'
p1827
tp1828
a(I272
I23
F0.5
S'touch'
p1829
tp1830
as(S'e'
p1831
S'mail'
p1832
tp1833
(lp1834
(I116
I25
F0.5
S'live'
p1835
tp1836
a(I171
I8
F1.0
S'best'
p1837
tp1838
as(S'update'
p1839
tp1840
(lp1841
(I21
I40
I0
S'next'
p1842
tp1843
a(I21
I40
I0
S'big'
p1844
tp1845
a(I55
I1
F-0.375
S'simple'
p1846
tp1847
a(I119
I41
F0.125
S'last'
p1848
tp1849
a(I138
I70
I0
S'later'
p1850
tp1851
a(I139
I2
F0.375
S'new'
p1852
tp1853
a(I139
I2
F0.375
S'much'
p1854
tp1855
a(I157
I0
F0.125
S'last'
p1856
tp1857
a(I167
I7
F0.125
S'last'
p1858
tp1859
a(I169
I0
I0
S'wish'
p1860
tp1861
a(I192
I5
F0.5
S'live'
p1862
tp1863
a(I217
I6
I0
S'latest'
p1864
tp1865
a(I224
I2
F-0.625
S'fresh'
p1866
tp1867
as(S'time'
p1868
tp1869
(lp1870
(I0
I10
F-0.5
S'sure'
p1871
tp1872
a(I7
I2
F0.125
S'first'
p1873
tp1874
a(I10
I2
F-0.5
S'long'
p1875
tp1876
a(I10
I2
F-0.5
S'long'
p1877
tp1878
a(I15
I2
I0
S'great'
p1879
tp1880
a(I21
I32
F0.75
S'due'
p1881
tp1882
a(I31
I8
F0.125
S'first'
p1883
tp1884
a(I31
I9
F0.5
S'second'
p1885
tp1886
a(I33
I0
F-0.5
S'long'
p1887
tp1888
a(I37
I1
I0
S'real'
p1889
tp1890
a(I44
I9
I0
S'real'
p1891
tp1892
a(I45
I33
I0
S'such'
p1893
tp1894
a(I45
I33
F0.625
S'easy'
p1895
tp1896
a(I82
I4
F-0.25
S'hang'
p1897
tp1898
a(I84
I6
F0.125
S'first'
p1899
tp1900
a(I90
I2
F-0.5
S'long'
p1901
tp1902
a(I91
I0
F0.125
S'first'
p1903
tp1904
a(I95
I2
F-0.25
S'google'
p1905
tp1906
a(I101
I2
F-0.5
S'long'
p1907
tp1908
a(I105
I3
F-0.625
S'clean'
p1909
tp1910
a(I108
I27
F-0.25
S'low'
p1911
tp1912
a(I110
I35
F0.375
S'prime'
p1913
tp1914
a(I110
I37
I0
S'more'
p1915
tp1916
a(I119
I26
F0.125
S'first'
p1917
tp1918
a(I119
I44
F0.125
S'last'
p1919
tp1920
a(I125
I13
F0.125
S'first'
p1921
tp1922
a(I129
I26
F0.375
S'forcing'
p1923
tp1924
a(I139
I1
F1.0
S'better'
p1925
tp1926
a(I156
I20
F0.25
S'matured'
p1927
tp1928
a(I156
I20
F0.375
S'mean'
p1929
tp1930
a(I167
I5
F-0.625
S'glorious'
p1931
tp1932
a(I167
I28
F0.125
S'last'
p1933
tp1934
a(I169
I0
I0
S'same'
p1935
tp1936
a(I169
I0
I0
S'same'
p1937
tp1938
a(I169
I0
I0
S'least'
p1939
tp1940
a(I169
I40
I0
S'fourth'
p1941
tp1942
a(I171
I1
I0
S'same'
p1943
tp1944
a(I171
I8
F-0.5
S'longer'
p1945
tp1946
a(I177
I19
I0
S'same'
p1947
tp1948
a(I204
I12
I0
S'more'
p1949
tp1950
a(I204
I18
I0
S'more'
p1951
tp1952
a(I226
I21
F0.125
S'first'
p1953
tp1954
a(I226
I72
I0
S'accomplish'
p1955
tp1956
a(I233
I6
I0
S'same'
p1957
tp1958
a(I247
I10
I0
S'more'
p1959
tp1960
a(I255
I4
F-0.5
S'certain'
p1961
tp1962
as(S'find'
p1963
tp1964
(lp1965
(I20
I5
F-0.75
S'likely'
p1966
tp1967
as(S'sim'
p1968
S'cards'
p1969
tp1970
(lp1971
(I45
I10
I0
S'local'
p1972
tp1973
as(S'weight'
p1974
tp1975
(lp1976
(I23
I13
F-0.5
S'heavy'
p1977
tp1978
a(I23
I13
F0.625
S'noticeable'
p1979
tp1980
a(I25
I4
F0.375
S'extra'
p1981
tp1982
a(I75
I3
F0.375
S'extra'
p1983
tp1984
a(I124
I15
F0.375
g1211
tp1985
a(I138
I11
I0
S'more'
p1986
tp1987
a(I138
I11
F-0.75
S'comfortable'
p1988
tp1989
a(I163
I1
F1.0
S'good'
p1990
tp1991
a(I174
I6
I0
S'same'
p1992
tp1993
a(I191
I0
I0
S'few'
p1994
tp1995
a(I191
I3
F1.0
S'good'
p1996
tp1997
a(I211
I8
F-0.75
S'neutral'
p1998
tp1999
a(I211
I8
F0.625
S'positive'
p2000
tp2001
a(I236
I3
F0.625
S'noticeable'
p2002
tp2003
a(I241
I15
F0.75
S'due'
p2004
tp2005
as(S'charging'
p2006
tp2007
(lp2008
(I24
I10
F0.25
S'inductive'
p2009
tp2010
a(I24
I12
F0.25
S'inductive'
p2011
tp2012
a(I45
I49
I0
S'standard'
p2013
tp2014
a(I142
I3
I0
S'wireless'
p2015
tp2016
a(I174
I5
I0
S'wireless'
p2017
tp2018
as(S'rich'
p2019
S'recording'
p2020
tp2021
(lp2022
(I107
I0
I0
S'rich'
p2023
tp2024
a(I116
I18
I0
S'rich'
p2025
tp2026
a(I232
I4
I0
S'rich'
p2027
tp2028
as(S'screen'
p2029
tp2030
(lp2031
(I0
I16
F1.0
S'best'
p2032
tp2033
a(I5
I2
F0.5
S'clear'
p2034
tp2035
a(I17
I5
I0
S'lcd'
p2036
tp2037
a(I20
I12
I0
S'big'
p2038
tp2039
a(I20
I12
I0
S'full'
p2040
tp2041
a(I23
I1
F0.125
S'first'
p2042
tp2043
a(I24
I13
F0.625
S'easy'
p2044
tp2045
a(I33
I7
F0.875
S'nice'
p2046
tp2047
a(I38
I6
F0.25
S'larger'
p2048
tp2049
a(I47
I4
F-0.875
S'inferior'
p2050
tp2051
a(I49
I3
I0
S'sensitive'
p2052
tp2053
a(I59
I2
F1.0
g607
tp2054
a(I60
I3
F-0.75
S'brighter'
p2055
tp2056
a(I66
I17
F0.25
S'bigger'
p2057
tp2058
a(I72
I0
I0
S'great'
p2059
tp2060
a(I78
I2
F0.125
S'first'
p2061
tp2062
a(I80
I2
I0
S'sensitive'
p2063
tp2064
a(I81
I19
F0.875
S'nice'
p2065
tp2066
a(I81
I19
F0.75
S'beautiful'
p2067
tp2068
a(I82
I3
F0.25
S'bigger'
p2069
tp2070
a(I82
I5
F-0.375
S'black'
p2071
tp2072
a(I82
I13
I0
S'sensitive'
p2073
tp2074
a(I82
I13
F-0.125
S'glove'
p2075
tp2076
a(I82
I16
F0.75
S'beautiful'
p2077
tp2078
a(I91
I3
F1.0
S'best'
p2079
tp2080
a(I93
I18
I0
g1827
tp2081
a(I103
I4
I0
S'great'
p2082
tp2083
a(I104
I1
F-0.375
S'black'
p2084
tp2085
a(I105
I0
F0.75
S'beautiful'
p2086
tp2087
a(I108
I21
F0.75
S'beautiful'
p2088
tp2089
a(I113
I2
F1.0
S'best'
p2090
tp2091
a(I115
I4
F0.625
S'easy'
p2092
tp2093
a(I115
I12
F0.5
S'flat'
p2094
tp2095
a(I115
I17
F0.25
S'main'
p2096
tp2097
a(I116
I4
F1.0
S'best'
p2098
tp2099
a(I116
I214
F-0.75
S'stupid'
p2100
tp2101
a(I116
I244
F0.5
S'touch'
p2102
tp2103
a(I121
I0
F-0.75
S'bright'
p2104
tp2105
a(I123
I3
F-0.625
S'green'
p2106
tp2107
a(I124
I13
F-0.375
S'smaller'
p2108
tp2109
a(I124
I32
F-0.625
S'inactive'
p2110
tp2111
a(I129
I7
F1.0
S'good'
p2112
tp2113
a(I134
I2
I0
S'great'
p2114
tp2115
a(I138
I7
F-0.75
S'bright'
p2116
tp2117
a(I138
I82
F-0.375
S'black'
p2118
tp2119
a(I148
I1
I0
S'big'
p2120
tp2121
a(I156
I20
I0
S'large'
p2122
tp2123
a(I156
I20
F-0.25
S'thin'
p2124
tp2125
a(I156
I22
I0
S'large'
p2126
tp2127
a(I159
I3
F1.0
S'best'
p2128
tp2129
a(I166
I19
F0.875
S'nice'
p2130
tp2131
a(I167
I24
F0.625
S'wary'
p2132
tp2133
a(I167
I28
I0
S'more'
p2134
tp2135
a(I169
I11
F0.75
S'beautiful'
p2136
tp2137
a(I170
I3
F0.75
S'beautiful'
p2138
tp2139
a(I172
I0
I0
g611
tp2140
a(I174
I3
F1.0
S'good'
p2141
tp2142
a(I174
I4
F0.75
S'beautiful'
p2143
tp2144
a(I174
I4
I0
S'finger'
p2145
tp2146
a(I176
I6
F0.25
S'larger'
p2147
tp2148
a(I183
I2
F0.5
S'whole'
p2149
tp2150
a(I185
I3
I0
S'big'
p2151
tp2152
a(I185
I3
F0.25
S'sharp'
p2153
tp2154
a(I185
I14
I0
S'joint'
p2155
tp2156
a(I187
I4
F0.25
S'sharp'
p2157
tp2158
a(I192
I5
I0
S'great'
p2159
tp2160
a(I192
I5
I0
S'big'
p2161
tp2162
a(I199
I10
I0
S'large'
p2163
tp2164
a(I199
I11
I0
S'large'
p2165
tp2166
a(I199
I12
I0
S'large'
p2167
tp2168
a(I202
I9
I0
S'own'
p2169
tp2170
a(I203
I0
I0
S'big'
p2171
tp2172
a(I206
I11
F1.0
S'better'
p2173
tp2174
a(I207
I1
I0
S'incredible'
p2175
tp2176
a(I209
I12
F1.0
S'best'
p2177
tp2178
a(I210
I14
F0.75
S'beautiful'
p2179
tp2180
a(I211
I8
F-0.625
S'light'
p2181
tp2182
a(I211
I8
F1.0
S'best'
p2183
tp2184
a(I216
I5
F0.125
S'able'
p2185
tp2186
a(I216
I5
F-0.375
S'dust'
p2187
tp2188
a(I217
I4
I0
S'real'
p2189
tp2190
a(I217
I4
F1.0
S'best'
p2191
tp2192
a(I219
I7
F0.125
S'impressive'
p2193
tp2194
a(I224
I15
F0.75
S'beautiful'
p2195
tp2196
a(I228
I3
F0.75
S'beautiful'
p2197
tp2198
a(I238
I1
I0
S'great'
p2199
tp2200
a(I249
I3
F0.125
S'last'
p2201
tp2202
a(I249
I3
I0
S'least'
p2203
tp2204
a(I267
I4
F0.875
S'nice'
p2205
tp2206
a(I269
I6
F0.5
S'clear'
p2207
tp2208
a(I269
I6
F0.75
S'beautiful'
p2209
tp2210
a(I272
I20
F0.25
S'responsive'
p2211
tp2212
a(I272
I20
F-0.75
S'stupid'
p2213
tp2214
a(I272
I20
I0
S'sensitive'
p2215
tp2216
a(I272
I23
F0.5
g1829
tp2217
a(I273
I1
I0
S'big'
p2218
tp2219
a(I273
I1
F0.5
S'clear'
p2220
tp2221
as(S'nokia'
p2222
S'city'
p2223
S'lens'
p2224
tp2225
(lp2226
(I56
I16
F0.5
g485
tp2227
a(I91
I24
I0
S'cool'
p2228
tp2229
a(I105
I0
F0.875
g503
tp2230
a(I105
I0
I0
g505
tp2231
a(I134
I2
F0.5
g523
tp2232
a(I139
I2
F0.5
g531
tp2233
a(I169
I14
F0.5
g545
tp2234
a(I169
I14
I0
g547
tp2235
a(I174
I4
I0
g553
tp2236
a(I174
I4
F0.875
g555
tp2237
a(I226
I112
F0.5
S'drive'
p2238
tp2239
as(S'light'
p2240
tp2241
(lp2242
(I0
I29
F-0.25
g654
tp2243
a(I0
I30
F-0.25
g656
tp2244
a(I27
I0
F-0.25
g658
tp2245
a(I62
I6
F-0.25
S'low'
p2246
tp2247
a(I82
I5
F-0.25
g660
tp2248
a(I82
I8
F1.0
g662
tp2249
a(I82
I8
F-0.25
g664
tp2250
a(I103
I15
I0
g666
tp2251
a(I103
I15
F-0.25
g668
tp2252
a(I116
I141
F-0.25
g670
tp2253
a(I156
I20
F-0.375
S'small'
p2254
tp2255
a(I156
I20
F-0.25
S'thin'
p2256
tp2257
a(I219
I5
I0
g672
tp2258
a(I219
I5
F-0.25
g674
tp2259
as(S'everything'
p2260
tp2261
(lp2262
(I0
I26
I0
S'close'
p2263
tp2264
a(I3
I1
F0.625
S'perfect'
p2265
tp2266
a(I3
I2
F-0.625
S'other'
p2267
tp2268
a(I30
I2
I0
S'great'
p2269
tp2270
a(I66
I38
F-0.5
S'sure'
p2271
tp2272
a(I87
I0
I0
S'quick'
p2273
tp2274
a(I118
I3
F0.5
S'clear'
p2275
tp2276
a(I185
I29
I0
S'many'
p2277
tp2278
a(I186
I0
F1.0
S'good'
p2279
tp2280
a(I192
I8
F-0.625
S'bad'
p2281
tp2282
a(I210
I44
F1.0
S'better'
p2283
tp2284
a(I232
I1
F0.75
S'beautiful'
p2285
tp2286
a(I236
I0
F-0.625
S'bad'
p2287
tp2288
as(S'samsung'
p2289
tp2290
(lp2291
(I0
I0
F0.125
S'last'
p2292
tp2293
a(I46
I13
F-0.625
S'lighter'
p2294
tp2295
a(I66
I38
F0.125
S'first'
p2296
tp2297
a(I272
I23
F0.125
S'last'
p2298
tp2299
as(S'camera'
p2300
tp2301
(lp2302
(I0
I28
F1.0
S'best'
p2303
tp2304
a(I10
I12
F1.0
S'best'
p2305
tp2306
a(I19
I2
I0
S'great'
p2307
tp2308
a(I19
I2
F0.875
S'nice'
p2309
tp2310
a(I23
I7
F-0.625
S'other'
p2311
tp2312
a(I24
I5
I0
S'great'
p2313
tp2314
a(I24
I6
F-0.625
S'other'
p2315
tp2316
a(I25
I1
I0
S'great'
p2317
tp2318
a(I33
I9
F0.625
S'finish'
p2319
tp2320
a(I43
I8
F1.0
S'best'
p2321
tp2322
a(I45
I13
I0
S'physical'
p2323
tp2324
a(I45
I14
F-0.25
S'ready'
p2325
tp2326
a(I46
I11
F0.875
S'nice'
p2327
tp2328
a(I46
I19
F1.0
S'best'
p2329
tp2330
a(I47
I8
F1.0
S'best'
p2331
tp2332
a(I50
I5
F0.5
S'stylish'
p2333
tp2334
a(I50
I5
I0
S'fast'
p2335
tp2336
a(I50
I5
F0.5
S'strong'
p2337
tp2338
a(I51
I1
F0.875
g829
tp2339
a(I54
I0
I0
S'great'
p2340
tp2341
a(I66
I25
F1.0
S'good'
p2342
tp2343
a(I69
I4
F0.125
S'spectacular'
p2344
tp2345
a(I79
I0
F0.625
S'easy'
p2346
tp2347
a(I82
I8
I0
S'mobile'
p2348
tp2349
a(I91
I14
I0
S'great'
p2350
tp2351
a(I98
I1
F1.0
S'best'
p2352
tp2353
a(I99
I1
F1.0
S'good'
p2354
tp2355
a(I100
I3
F1.0
S'good'
p2356
tp2357
a(I106
I3
I0
S'great'
p2358
tp2359
a(I108
I12
I0
S'great'
p2360
tp2361
a(I118
I9
I0
S'great'
p2362
tp2363
a(I119
I10
F1.0
S'good'
p2364
tp2365
a(I125
I7
I0
S'pic'
p2366
tp2367
a(I129
I9
F1.0
S'best'
p2368
tp2369
a(I137
I17
I0
S'great'
p2370
tp2371
a(I139
I1
I0
S'great'
p2372
tp2373
a(I146
I5
F0.5
S'touch'
p2374
tp2375
a(I149
I1
F0.5
S'so-so'
p2376
tp2377
a(I149
I3
I0
S'great'
p2378
tp2379
a(I154
I6
F1.0
S'good'
p2380
tp2381
a(I161
I5
I0
S'phenomenal'
p2382
tp2383
a(I167
I8
I0
S'unbelievable'
p2384
tp2385
a(I174
I6
F0.125
g839
tp2386
a(I174
I6
I0
g841
tp2387
a(I177
I39
I0
S'great'
p2388
tp2389
a(I180
I0
I0
S'great'
p2390
tp2391
a(I190
I27
F0.125
S'solid'
p2392
tp2393
a(I202
I1
F-0.75
S'bright'
p2394
tp2395
a(I209
I16
F1.0
S'best'
p2396
tp2397
a(I216
I6
F0.125
S'able'
p2398
tp2399
a(I235
I3
I0
S'great'
p2400
tp2401
a(I240
I0
I0
g843
tp2402
a(I250
I5
F1.0
g845
tp2403
a(I250
I5
F1.0
g847
tp2404
a(I256
I11
I0
S'incredible'
p2405
tp2406
a(I257
I1
I0
S'great'
p2407
tp2408
a(I257
I1
F-0.5
S'heavy'
p2409
tp2410
a(I260
I18
F-0.5
S'less'
p2411
tp2412
a(I260
I18
F0.25
S'stellar'
p2413
tp2414
a(I260
I20
I0
S'least'
p2415
tp2416
a(I262
I1
I0
S'useful'
p2417
tp2418
a(I262
I1
F1.0
S'good'
p2419
tp2420
a(I263
I2
F0.125
g849
tp2421
a(I273
I2
F1.0
S'good'
p2422
tp2423
a(I276
I17
F1.0
S'good'
p2424
tp2425
as(S'using'
p2426
tp2427
(lp2428
(I138
I54
I0
S'hot'
p2429
tp2430
a(I154
I7
F0.625
S'easy'
p2431
tp2432
a(I169
I25
F0.25
S'familiar'
p2433
tp2434
as(S'take'
p2435
tp2436
(lp2437
(I270
I0
F1.0
S'good'
p2438
tp2439
a(I270
I3
I0
S'pic'
p2440
tp2441
as(S'windows'
p2442
tp2443
(lp2444
(I7
I0
F0.125
S'first'
p2445
tp2446
a(I10
I7
I0
S'great'
p2447
tp2448
a(I14
I7
F1.0
S'good'
p2449
tp2450
a(I21
I0
I0
S'big'
p2451
tp2452
a(I21
I3
F0.125
S'first'
p2453
tp2454
a(I21
I4
F1.0
S'good'
p2455
tp2456
a(I21
I27
I0
S'entire'
p2457
tp2458
a(I43
I3
I0
S'mobile'
p2459
tp2460
a(I43
I3
F-0.25
S'past'
p2461
tp2462
a(I45
I62
F0.5
S'drive'
p2463
tp2464
a(I56
I16
F-0.625
S'other'
p2465
tp2466
a(I58
I1
F1.0
S'best'
p2467
tp2468
a(I62
I3
I0
S'few'
p2469
tp2470
a(I62
I3
I0
S'useful'
p2471
tp2472
a(I66
I28
F0.75
S'due'
p2473
tp2474
a(I66
I46
F1.0
S'good'
p2475
tp2476
a(I66
I52
F0.625
S'easy'
p2477
tp2478
a(I66
I61
F0.625
S'easier'
p2479
tp2480
a(I73
I0
F0.25
S'familiar'
p2481
tp2482
a(I76
I1
F0.375
S'new'
p2483
tp2484
a(I93
I0
F-0.375
S'simple'
p2485
tp2486
a(I100
I5
F0.125
S'solid'
p2487
tp2488
a(I108
I64
F0.5
S'touch'
p2489
tp2490
a(I116
I229
F0.375
S'much'
p2491
tp2492
a(I118
I21
F0.375
S'new'
p2493
tp2494
a(I120
I1
F0.25
S'are'
p2495
tp2496
a(I124
I0
F0.5
S'slick'
p2497
tp2498
a(I126
I12
F-0.625
S'other'
p2499
tp2500
a(I129
I18
F0.125
S'tablet'
p2501
tp2502
a(I129
I22
F0.375
S'honest'
p2503
tp2504
a(I131
I9
F0.375
S'new'
p2505
tp2506
a(I138
I15
F-0.125
S'overall'
p2507
tp2508
a(I140
I0
F0.375
S'honest'
p2509
tp2510
a(I141
I12
F1.0
S'good'
p2511
tp2512
a(I143
I0
I0
S'mobile'
p2513
tp2514
a(I143
I0
F0.125
S'first'
p2515
tp2516
a(I148
I6
I0
S'desktop'
p2517
tp2518
a(I154
I9
I0
S'most'
p2519
tp2520
a(I156
I30
F-0.25
S'thinner'
p2521
tp2522
a(I156
I30
F-0.625
S'lighter'
p2523
tp2524
a(I169
I6
F0.5
S'second'
p2525
tp2526
a(I177
I45
F0.125
S'usual'
p2527
tp2528
a(I177
I58
F0.375
S'available'
p2529
tp2530
a(I185
I12
F0.5
S'told'
p2531
tp2532
a(I185
I24
F0.625
S'polish'
p2533
tp2534
a(I210
I0
I0
S'next'
p2535
tp2536
a(I210
I2
F1.0
S'best'
p2537
tp2538
a(I211
I18
F-0.625
S'other'
p2539
tp2540
a(I211
I18
F0.5
S'whole'
p2541
tp2542
a(I214
I1
F-0.625
S'other'
p2543
tp2544
a(I216
I0
F0.375
S'new'
p2545
tp2546
a(I221
I19
I0
S'indispensable'
p2547
tp2548
a(I222
I17
F0.75
S'beautiful'
p2549
tp2550
a(I233
I4
F-0.625
S'other'
p2551
tp2552
a(I233
I8
I0
S'most'
p2553
tp2554
a(I241
I31
I0
S'great'
p2555
tp2556
a(I242
I5
I0
S'fast'
p2557
tp2558
a(I242
I9
F-0.625
S'other'
p2559
tp2560
a(I256
I3
I0
S'faster'
p2561
tp2562
a(I276
I18
I0
S'id'
p2563
tp2564
as(S'pictures'
p2565
tp2566
(lp2567
(I15
I4
F1.0
S'good'
p2568
tp2569
a(I45
I16
I0
S'great'
p2570
tp2571
a(I45
I48
F0.875
S'happy'
p2572
tp2573
a(I80
I2
F0.25
S'sharper'
p2574
tp2575
a(I116
I146
F1.0
S'better'
p2576
tp2577
a(I124
I8
F1.0
S'good'
p2578
tp2579
a(I137
I12
I0
S'great'
p2580
tp2581
a(I140
I0
F0.625
S'superior'
p2582
tp2583
a(I142
I0
I0
S'great'
p2584
tp2585
a(I142
I1
F0.75
S'beautiful'
p2586
tp2587
a(I150
I2
I0
S'incredible'
p2588
tp2589
a(I154
I5
F-0.375
S'static'
p2590
tp2591
a(I199
I4
F0.5
S'clear'
p2592
tp2593
a(I199
I4
I0
S'most'
p2594
tp2595
a(I200
I1
F0.75
S'beautiful'
p2596
tp2597
a(I204
I16
F0.125
S'outside'
p2598
tp2599
a(I207
I2
F0.75
S'beautiful'
p2600
tp2601
a(I214
I5
F1.0
S'better'
p2602
tp2603
a(I217
I8
I0
S'more'
p2604
tp2605
a(I217
I9
F-0.5
S'regular'
p2606
tp2607
a(I224
I8
F-0.25
S'low'
p2608
tp2609
as(S'dynamic'
p2610
S'range'
p2611
tp2612
(lp2613
(I116
I147
F0.375
S'dynamic'
p2614
tp2615
a(I116
I148
F0.375
S'dynamic'
p2616
tp2617
a(I116
I151
F0.375
S'dynamic'
p2618
tp2619
a(I116
I152
F0.375
S'dynamic'
p2620
tp2621
as(S'people'
p2622
tp2623
(lp2624
(I2
I3
I0
S'many'
p2625
tp2626
a(I2
I13
I0
S'many'
p2627
tp2628
a(I21
I20
F-0.625
S'bad'
p2629
tp2630
a(I30
I6
I0
S'write'
p2631
tp2632
a(I43
I14
F-0.625
S'other'
p2633
tp2634
a(I45
I69
I0
S'many'
p2635
tp2636
a(I52
I12
I0
S'most'
p2637
tp2638
a(I66
I4
I0
S'many'
p2639
tp2640
a(I66
I8
I0
S'many'
p2641
tp2642
a(I82
I1
F-0.625
S'other'
p2643
tp2644
a(I82
I2
F-0.625
S'other'
p2645
tp2646
a(I95
I2
I0
S'multiple'
p2647
tp2648
a(I108
I38
F0.5
S'willing'
p2649
tp2650
a(I108
I38
I0
S'most'
p2651
tp2652
a(I110
I31
I0
S'many'
p2653
tp2654
a(I116
I0
I0
S'normal'
p2655
tp2656
a(I116
I148
F-0.875
S'reject'
p2657
tp2658
a(I116
I178
I0
S'most'
p2659
tp2660
a(I120
I1
F-0.5
S'heavy'
p2661
tp2662
a(I124
I1
I0
S'many'
p2663
tp2664
a(I131
I9
I0
S'more'
p2665
tp2666
a(I135
I0
F-0.5
S'heavy'
p2667
tp2668
a(I135
I0
F-0.625
S'other'
p2669
tp2670
a(I148
I5
I0
S'most'
p2671
tp2672
a(I171
I4
I0
S'many'
p2673
tp2674
a(I174
I3
I0
S'many'
p2675
tp2676
a(I174
I6
F-0.5
S'separate'
p2677
tp2678
a(I184
I24
I0
S'android'
p2679
tp2680
a(I217
I10
I0
S'individual'
p2681
tp2682
a(I221
I5
I0
S'most'
p2683
tp2684
a(I241
I30
I0
S'store'
p2685
tp2686
a(I250
I5
I0
S'few'
p2687
tp2688
a(I268
I15
I0
S'same'
p2689
tp2690
a(I274
I2
I0
S'least'
p2691
tp2692
as(S'street'
p2693
S'names'
p2694
tp2695
(lp2696
(I108
I52
I0
S'wish'
p2697
tp2698
as(S'feel'
p2699
tp2700
(lp2701
(I1
I0
F0.125
S'solid'
p2702
tp2703
a(I10
I4
I0
S'great'
p2704
tp2705
a(I15
I6
I0
S'slippery'
p2706
tp2707
a(I24
I24
F0.125
S'solid'
p2708
tp2709
a(I99
I5
F0.375
S'new'
p2710
tp2711
a(I102
I6
F-0.125
S'slow'
p2712
tp2713
a(I120
I2
I0
S'substantial'
p2714
tp2715
a(I120
I2
F0.125
S'solid'
p2716
tp2717
a(I124
I17
F1.0
S'good'
p2718
tp2719
a(I125
I46
F0.5
S'strong'
p2720
tp2721
a(I138
I13
I0
S'general'
p2722
tp2723
a(I165
I13
F0.125
S'solid'
p2724
tp2725
a(I217
I4
I0
S'different'
p2726
tp2727
as(S'works'
p2728
tp2729
(lp2730
(I64
I4
I0
S'great'
p2731
tp2732
a(I68
I2
I0
S'great'
p2733
tp2734
a(I90
I2
I0
S'great'
p2735
tp2736
a(I115
I32
I0
S'great'
p2737
tp2738
a(I177
I49
F1.0
S'good'
p2739
tp2740
a(I206
I23
F-0.625
S'free'
p2741
tp2742
a(I233
I6
F0.625
S'easier'
p2743
tp2744
a(I235
I1
I0
S'great'
p2745
tp2746
a(I261
I3
F-0.25
S'low'
p2747
tp2748
a(I261
I3
F-0.625
S'light'
p2749
tp2750
a(I276
I15
I0
S'great'
p2751
tp2752
as(S'think'
p2753
tp2754
(lp2755
(I84
I1
F1.0
S'best'
p2756
tp2757
as(S'wireless'
p2758
S'charging'
p2759
tp2760
(lp2761
(I1
I8
F0.875
g721
tp2762
a(I119
I18
F-0.5
g726
tp2763
a(I125
I38
F-0.625
g645
tp2764
a(I142
I3
I0
g2015
tp2765
a(I148
I8
F0.25
g730
tp2766
a(I165
I16
F-0.625
g733
tp2767
a(I174
I5
I0
g2017
tp2768
a(I198
I2
F-0.625
g741
tp2769
a(I219
I4
F0.125
g743
tp2770
as(S'better'
p2771
tp2772
(lp2773
(I218
I0
F0.375
S'much'
p2774
tp2775
a(I263
I4
F0.375
S'much'
p2776
tp2777
as(S'nokia'
p2778
S'music'
p2779
tp2780
(lp2781
(I12
I4
F-0.625
S'free'
p2782
tp2783
a(I45
I33
F-0.625
S'free'
p2784
tp2785
a(I105
I0
F0.875
g503
tp2786
a(I105
I0
I0
g505
tp2787
a(I108
I54
I0
g507
tp2788
a(I169
I14
F0.5
g545
tp2789
a(I169
I14
I0
g547
tp2790
a(I174
I4
I0
g553
tp2791
a(I174
I4
F0.875
g555
tp2792
a(I184
I14
F0.875
g557
tp2793
a(I231
I5
I0
S'cool'
p2794
tp2795
a(I240
I5
I0
S'great'
p2796
tp2797
a(I250
I5
F-0.625
S'other'
p2798
tp2799
a(I270
I0
F-0.625
S'free'
p2800
tp2801
a(I270
I0
F0.375
S'new'
p2802
tp2803
as(S'device'
p2804
tp2805
(lp2806
(I45
I56
F0.875
S'music'
p2807
tp2808
a(I84
I0
F0.125
S'solid'
p2809
tp2810
a(I102
I7
I0
S'fastest'
p2811
tp2812
a(I119
I13
F0.875
S'important'
p2813
tp2814
a(I119
I13
F0.875
S'attractive'
p2815
tp2816
a(I124
I17
F-0.625
S'other'
p2817
tp2818
a(I124
I17
F0.5
S'drive'
p2819
tp2820
a(I124
I26
F-0.625
S'free'
p2821
tp2822
a(I133
I7
F-0.125
S'overall'
p2823
tp2824
a(I133
I7
F0.125
S'impressive'
p2825
tp2826
a(I134
I2
F-0.625
S'other'
p2827
tp2828
a(I159
I5
F0.75
S'beautiful'
p2829
tp2830
a(I167
I2
F-0.625
S'other'
p2831
tp2832
a(I167
I26
I0
S'android'
p2833
tp2834
a(I167
I30
F-0.625
S'other'
p2835
tp2836
a(I178
I0
F0.125
S'spectacular'
p2837
tp2838
a(I181
I5
F0.5
S'possible'
p2839
tp2840
a(I185
I29
F0.625
S'easy'
p2841
tp2842
a(I192
I8
I0
S'real'
p2843
tp2844
a(I200
I0
I0
S'mobile'
p2845
tp2846
a(I211
I8
F0.125
S'solid'
p2847
tp2848
a(I213
I10
I0
S'cellular'
p2849
tp2850
a(I217
I26
F-0.625
S'fresh'
p2851
tp2852
a(I225
I9
F0.125
S'plenty'
p2853
tp2854
a(I226
I91
I0
S'more'
p2855
tp2856
a(I233
I3
I0
S'android'
p2857
tp2858
a(I233
I7
I0
S'only'
p2859
tp2860
a(I233
I7
I0
S'electronic'
p2861
tp2862
a(I270
I1
F-0.375
S'simple'
p2863
tp2864
a(I270
I3
F-0.625
S'other'
p2865
tp2866
a(I274
I2
F0.75
S'give'
p2867
tp2868
as(S'days'
p2869
tp2870
(lp2871
(I0
I2
F0.125
S'first'
p2872
tp2873
a(I0
I2
I0
S'few'
p2874
tp2875
a(I22
I4
I0
S'few'
p2876
tp2877
a(I66
I31
F0.125
S'first'
p2878
tp2879
a(I66
I31
I0
S'few'
p2880
tp2881
a(I68
I5
I0
S'most'
p2882
tp2883
a(I78
I14
F0.125
S'last'
p2884
tp2885
a(I78
I14
I0
S'few'
p2886
tp2887
a(I123
I13
F-0.25
S'past'
p2888
tp2889
a(I123
I13
I0
S'few'
p2890
tp2891
a(I190
I18
F-0.625
S'other'
p2892
tp2893
a(I194
I0
F-0.5
S'sure'
p2894
tp2895
a(I195
I12
F0.125
S'solid'
p2896
tp2897
a(I206
I0
I0
S'few'
p2898
tp2899
a(I221
I0
I0
S'few'
p2900
tp2901
a(I221
I0
I0
S'later'
p2902
tp2903
a(I221
I9
I0
S'few'
p2904
tp2905
a(I224
I13
I0
S'few'
p2906
tp2907
a(I226
I2
F-0.25
S'past'
p2908
tp2909
a(I226
I12
F-0.25
S'past'
p2910
tp2911
a(I226
I156
F-0.25
S'past'
p2912
tp2913
a(I226
I156
I0
S'next'
p2914
tp2915
a(I264
I0
I0
S'few'
p2916
tp2917
a(I266
I5
F-0.25
S'past'
p2918
tp2919
as(S'home'
p2920
tp2921
(lp2922
(I12
I7
F0.625
S'straight'
p2923
tp2924
a(I59
I2
F0.875
g605
tp2925
a(I116
I48
F0.125
S'able'
p2926
tp2927
a(I124
I7
F0.125
g609
tp2928
as(S'music'
p2929
tp2930
(lp2931
(I12
I4
F-0.625
g2782
tp2932
a(I20
I10
F-0.5
S'unimpressive'
p2933
tp2934
a(I20
I10
F0.125
S'native'
p2935
tp2936
a(I45
I33
F-0.625
g2784
tp2937
a(I184
I15
F0.375
S'similar'
p2938
tp2939
a(I209
I18
F0.875
S'music'
p2940
tp2941
a(I217
I13
F0.375
S'new'
p2942
tp2943
a(I231
I5
I0
g2794
tp2944
a(I240
I5
I0
g2796
tp2945
a(I250
I5
F-0.625
g2798
tp2946
a(I270
I0
F-0.625
g2800
tp2947
a(I270
I0
F0.375
g2802
tp2948
a(I276
I7
F-0.625
S'free'
p2949
tp2950
as(S'low'
p2951
S'light'
p2952
tp2953
(lp2954
(I0
I29
F-0.25
g654
tp2955
a(I0
I30
F-0.25
g656
tp2956
a(I27
I0
F-0.25
g658
tp2957
a(I62
I6
F-0.25
g2246
tp2958
a(I82
I5
F-0.25
g660
tp2959
a(I82
I8
F1.0
g662
tp2960
a(I82
I8
F-0.25
g664
tp2961
a(I103
I15
I0
g666
tp2962
a(I103
I15
F-0.25
g668
tp2963
a(I116
I141
F-0.25
g670
tp2964
a(I219
I5
I0
g672
tp2965
a(I219
I5
F-0.25
g674
tp2966
as(S'much'
p2967
S'better'
p2968
tp2969
(lp2970
(I218
I0
F0.375
g2774
tp2971
a(I263
I4
F0.375
g2776
tp2972
as(S'galaxy'
p2973
S's3'
p2974
tp2975
(lp2976
(I53
I4
I0
S'galaxy'
p2977
tp2978
a(I57
I5
I0
S'galaxy'
p2979
tp2980
a(I69
I11
I0
S'galaxy'
p2981
tp2982
a(I210
I24
F-0.5
S'less'
p2983
tp2984
a(I242
I12
F0.125
g1724
tp2985
as(S'turn'
p2986
S'by'
p2987
S'turn'
p2988
tp2989
(lp2990
(I21
I11
I0
g1490
tp2991
a(I177
I2
F0.375
g1492
tp2992
a(I194
I28
I0
g1494
tp2993
a(I270
I1
F-0.625
S'free'
p2994
tp2995
as(S'office'
p2996
tp2997
(lp2998
(I116
I76
I0
S'traditional'
p2999
tp3000
a(I116
I78
I0
S'full'
p3001
tp3002
a(I116
I78
F0.5
S'compatible'
p3003
tp3004
a(I116
I78
F0.875
S'important'
p3005
tp3006
a(I133
I6
F-0.5
S'heavy'
p3007
tp3008
a(I262
I1
F0.25
S'responsive'
p3009
tp3010
as(S'apps'
p3011
tp3012
(lp3013
(I1
I6
I0
S'many'
p3014
tp3015
a(I1
I6
I0
S'android'
p3016
tp3017
a(I2
I6
F1.0
S'good'
p3018
tp3019
a(I6
I6
F0.375
S'available'
p3020
tp3021
a(I10
I8
F1.0
S'best'
p3022
tp3023
a(I12
I7
F-0.625
S'free'
p3024
tp3025
a(I14
I6
F-0.625
S'other'
p3026
tp3027
a(I14
I7
F0.375
S'available'
p3028
tp3029
a(I15
I4
F0.375
S'available'
p3030
tp3031
a(I19
I2
F0.875
S'nice'
p3032
tp3033
a(I20
I9
I0
S'different'
p3034
tp3035
a(I21
I11
F0.5
S'drive'
p3036
tp3037
a(I21
I19
I0
S'android'
p3038
tp3039
a(I21
I33
F0.375
S'much'
p3040
tp3041
a(I21
I36
I0
S'more'
p3042
tp3043
a(I24
I14
I0
S'earlier'
p3044
tp3045
a(I24
I14
I0
S'unnecessary'
p3046
tp3047
a(I24
I18
F0.375
S'available'
p3048
tp3049
a(I24
I18
F0.875
S'happy'
p3050
tp3051
a(I25
I7
F-0.5
S'less'
p3052
tp3053
a(I26
I4
I0
S'own'
p3054
tp3055
a(I26
I6
I0
S'more'
p3056
tp3057
a(I28
I5
I0
S'more'
p3058
tp3059
a(I30
I3
I0
S'few'
p3060
tp3061
a(I33
I18
F0.125
S'key'
p3062
tp3063
a(I33
I18
F0.5
S'functional'
p3064
tp3065
a(I33
I30
F0.125
S'key'
p3066
tp3067
a(I33
I34
I0
S'most'
p3068
tp3069
a(I33
I34
I0
S'big'
p3070
tp3071
a(I37
I1
F0.375
S'new'
p3072
tp3073
a(I37
I1
F-0.375
S'daily'
p3074
tp3075
a(I40
I4
F0.375
S'available'
p3076
tp3077
a(I43
I6
I0
S'specific'
p3078
tp3079
a(I43
I7
F0.125
S'popular'
p3080
tp3081
a(I43
I7
F0.25
S'are'
p3082
tp3083
a(I45
I59
F0.625
S'major'
p3084
tp3085
a(I46
I2
F0.375
S'available'
p3086
tp3087
a(I48
I0
F0.25
S'favorite'
p3088
tp3089
a(I49
I9
I0
S'real'
p3090
tp3091
a(I50
I7
F0.125
S'able'
p3092
tp3093
a(I50
I15
I0
S'many'
p3094
tp3095
a(I50
I15
F0.375
S'new'
p3096
tp3097
a(I65
I5
F0.625
S'major'
p3098
tp3099
a(I66
I51
I0
S'most'
p3100
tp3101
a(I66
I51
F1.0
S'good'
p3102
tp3103
a(I66
I54
I0
S'exclusive'
p3104
tp3105
a(I67
I1
I0
S'most'
p3106
tp3107
a(I67
I1
I0
S'few'
p3108
tp3109
a(I67
I1
F-0.625
S'free'
p3110
tp3111
a(I78
I12
F0.625
S'easy'
p3112
tp3113
a(I78
I12
I0
S'most'
p3114
tp3115
a(I78
I21
F0.125
S'first'
p3116
tp3117
a(I82
I31
F0.375
S'content'
p3118
tp3119
a(I82
I31
F0.375
S'new'
p3120
tp3121
a(I86
I2
F1.0
S'best'
p3122
tp3123
a(I91
I8
I0
S'many'
p3124
tp3125
a(I91
I8
F0.125
S'popular'
p3126
tp3127
a(I91
I11
I0
S'most'
p3128
tp3129
a(I91
I14
F0.5
S'functional'
p3130
tp3131
a(I91
I15
F0.5
S'accurate'
p3132
tp3133
a(I102
I6
I0
S'faster'
p3134
tp3135
a(I103
I12
F-0.5
S'sure'
p3136
tp3137
a(I105
I0
F-0.5
S'worry'
p3138
tp3139
a(I105
I0
F1.0
S'better'
p3140
tp3141
a(I108
I46
I0
S'more'
p3142
tp3143
a(I108
I48
I0
S'same'
p3144
tp3145
a(I108
I53
I0
S'great'
p3146
tp3147
a(I108
I93
I0
S'great'
p3148
tp3149
a(I108
I93
I0
S'useful'
p3150
tp3151
a(I108
I93
F0.625
S'easy'
p3152
tp3153
a(I110
I19
I0
S'many'
p3154
tp3155
a(I116
I76
F-0.625
S'other'
p3156
tp3157
a(I116
I104
F-0.5
S'separate'
p3158
tp3159
a(I116
I177
I0
S'great'
p3160
tp3161
a(I116
I178
I0
S'few'
p3162
tp3163
a(I116
I179
I0
S'few'
p3164
tp3165
a(I116
I179
I0
S'useful'
p3166
tp3167
a(I116
I180
F1.0
S'good'
p3168
tp3169
a(I116
I187
F-0.5
S'less'
p3170
tp3171
a(I116
I187
I0
S'useful'
p3172
tp3173
a(I116
I200
F-0.5
S'less'
p3174
tp3175
a(I118
I22
I0
S'great'
p3176
tp3177
a(I120
I1
F-0.375
S'smaller'
p3178
tp3179
a(I121
I3
F-0.625
S'free'
p3180
tp3181
a(I122
I0
F-0.375
S'smooth'
p3182
tp3183
a(I124
I23
F0.375
S'available'
p3184
tp3185
a(I128
I1
I0
S'useful'
p3186
tp3187
a(I129
I15
I0
S'great'
p3188
tp3189
a(I133
I5
F0.875
S'important'
p3190
tp3191
a(I135
I0
F0.125
S'enough'
p3192
tp3193
a(I137
I6
F0.375
S'new'
p3194
tp3195
a(I138
I18
F0.25
S'main'
p3196
tp3197
a(I138
I57
F-0.5
S'certain'
p3198
tp3199
a(I138
I68
F0.625
S'find'
p3200
tp3201
a(I138
I68
F-0.625
S'other'
p3202
tp3203
a(I138
I80
F-0.375
S'void'
p3204
tp3205
a(I144
I5
F-0.5
S'poor'
p3206
tp3207
a(I146
I3
I0
S'more'
p3208
tp3209
a(I146
I3
F0.375
S'available'
p3210
tp3211
a(I146
I4
F-0.625
S'free'
p3212
tp3213
a(I148
I5
I0
S'many'
p3214
tp3215
a(I149
I2
F0.25
S'favorite'
p3216
tp3217
a(I161
I1
F0.625
S'find'
p3218
tp3219
a(I161
I2
F0.25
S'favorite'
p3220
tp3221
a(I162
I0
I0
S'few'
p3222
tp3223
a(I162
I0
F0.375
S'available'
p3224
tp3225
a(I163
I2
I0
S'most'
p3226
tp3227
a(I167
I27
I0
S'standard'
p3228
tp3229
a(I167
I32
I0
S'many'
p3230
tp3231
a(I167
I34
I0
S'october'
p3232
tp3233
a(I167
I36
F0.125
S'last'
p3234
tp3235
a(I167
I44
I0
S'many'
p3236
tp3237
a(I167
I45
F-0.625
S'other'
p3238
tp3239
a(I167
I45
F0.375
S'similar'
p3240
tp3241
a(I167
I57
F-0.875
S'hard'
p3242
tp3243
a(I171
I6
I0
S'many'
p3244
tp3245
a(I171
I6
F0.375
S'available'
p3246
tp3247
a(I174
I6
I0
S'many'
p3248
tp3249
a(I174
I6
F0.375
S'available'
p3250
tp3251
a(I185
I15
F-0.875
S'awful'
p3252
tp3253
a(I185
I24
F-0.625
S'other'
p3254
tp3255
a(I185
I24
F-0.375
S'top'
p3256
tp3257
a(I190
I6
F0.375
S'available'
p3258
tp3259
a(I190
I26
I0
S'great'
p3260
tp3261
a(I192
I5
F-0.25
S'low'
p3262
tp3263
a(I194
I6
F0.5
S'odd'
p3264
tp3265
a(I195
I6
I0
S'add-on'
p3266
tp3267
a(I199
I3
I0
S'more'
p3268
tp3269
a(I199
I13
I0
S'different'
p3270
tp3271
a(I199
I14
I0
S'useful'
p3272
tp3273
a(I199
I14
F-0.625
S'free'
p3274
tp3275
a(I199
I22
I0
S'many'
p3276
tp3277
a(I199
I30
I0
S'more'
p3278
tp3279
a(I202
I8
F-0.625
S'other'
p3280
tp3281
a(I209
I5
I0
S'few'
p3282
tp3283
a(I210
I49
I0
S'different'
p3284
tp3285
a(I210
I50
F0.375
S'confident'
p3286
tp3287
a(I211
I13
F-0.5
S'certain'
p3288
tp3289
a(I211
I13
F0.375
S'available'
p3290
tp3291
a(I211
I15
F0.5
S'comparable'
p3292
tp3293
a(I215
I3
F-0.375
S'crazy'
p3294
tp3295
a(I215
I3
I0
S'few'
p3296
tp3297
a(I216
I0
I0
S'social'
p3298
tp3299
a(I216
I0
I0
S'cool'
p3300
tp3301
a(I216
I0
F-0.5
S'sure'
p3302
tp3303
a(I216
I0
I0
S'more'
p3304
tp3305
a(I219
I10
F0.625
S'easy'
p3306
tp3307
a(I219
I10
I0
S'stable'
p3308
tp3309
a(I221
I24
I0
S'many'
p3310
tp3311
a(I222
I3
F-0.625
S'free'
p3312
tp3313
a(I224
I4
F0.375
S'similar'
p3314
tp3315
a(I224
I5
F-0.5
S'less'
p3316
tp3317
a(I224
I5
F-0.125
S'overall'
p3318
tp3319
a(I224
I5
F0.375
S'available'
p3320
tp3321
a(I226
I111
I0
S'few'
p3322
tp3323
a(I226
I111
I0
S'more'
p3324
tp3325
a(I232
I26
I0
S'internal'
p3326
tp3327
a(I235
I6
I0
S'few'
p3328
tp3329
a(I235
I6
I0
S'such'
p3330
tp3331
a(I235
I7
I0
S'such'
p3332
tp3333
a(I235
I8
I0
S'more'
p3334
tp3335
a(I237
I3
F0.375
S'much'
p3336
tp3337
a(I238
I3
F0.125
S'first'
p3338
tp3339
a(I241
I19
F0.375
S'available'
p3340
tp3341
a(I241
I21
I0
S'most'
p3342
tp3343
a(I241
I21
F-0.625
S'free'
p3344
tp3345
a(I241
I21
F0.625
S'decent'
p3346
tp3347
a(I242
I9
I0
S'exclusive'
p3348
tp3349
a(I243
I4
I0
S'few'
p3350
tp3351
a(I243
I4
F0.375
S'new'
p3352
tp3353
a(I250
I3
F0.625
S'necessary'
p3354
tp3355
a(I251
I0
I0
S'few'
p3356
tp3357
a(I251
I0
F1.0
S'good'
p3358
tp3359
a(I256
I3
I0
S'stable'
p3360
tp3361
a(I256
I3
F0.625
S'easy'
p3362
tp3363
a(I256
I3
I0
S'android'
p3364
tp3365
a(I256
I7
I0
S'common'
p3366
tp3367
a(I260
I4
I0
S'exclusive'
p3368
tp3369
a(I264
I1
F-0.25
S'google'
p3370
tp3371
a(I267
I11
F-0.75
S'difficult'
p3372
tp3373
a(I268
I1
F0.375
S'available'
p3374
tp3375
as(S'feels'
p3376
tp3377
(lp3378
(I66
I11
F1.0
S'good'
p3379
tp3380
a(I75
I5
I0
S'faster'
p3381
tp3382
a(I115
I14
F0.125
S'solid'
p3383
tp3384
a(I138
I8
F-0.375
S'black'
p3385
tp3386
a(I138
I8
I0
S'great'
p3387
tp3388
a(I165
I9
I0
S'blast'
p3389
tp3390
a(I165
I9
F-0.25
S'past'
p3391
tp3392
a(I165
I9
F0.625
S'easy'
p3393
tp3394
a(I207
I3
I0
S'great'
p3395
tp3396
as(S'public'
p3397
S'transportation'
p3398
tp3399
(lp3400
(I111
I0
F-0.125
S'public'
p3401
tp3402
a(I116
I120
F-0.125
S'public'
p3403
tp3404
a(I222
I5
F-0.125
S'public'
p3405
tp3406
as(S'build'
p3407
S'quality'
p3408
tp3409
(lp3410
(I21
I5
F1.0
g1398
tp3411
a(I21
I5
I0
g1400
tp3412
a(I22
I8
I0
g1403
tp3413
a(I30
I2
I0
S'great'
p3414
tp3415
a(I35
I8
F0.5
S'obvious'
p3416
tp3417
a(I46
I12
I0
g1423
tp3418
a(I92
I7
F0.5
S'true'
p3419
tp3420
a(I92
I7
I0
g1432
tp3421
a(I138
I6
F-0.125
S'overall'
p3422
tp3423
a(I172
I0
F0.125
S'solid'
p3424
tp3425
a(I231
I10
F0.125
g1450
tp3426
a(I250
I1
I0
S'great'
p3427
tp3428
a(I263
I0
I0
g1456
tp3429
as.