(dp0
(S'screen'
p1
S'size'
p2
tp3
(lp4
(I3
I35
F0.25
S'larger'
p5
I3
tp6
a(I3
I124
I0
S'large'
p7
I3
tp8
a(I3
I255
F0.625
S'perfect'
p9
I3
tp10
a(I5
I34
F-0.375
S'small'
p11
I3
tp12
a(I9
I97
F-0.375
S'double'
p13
I3
tp14
a(I11
I4
F0.625
S'easy'
p15
I3
tp16
as(S'pixel'
p17
S'density'
p18
tp19
(lp20
(I3
I62
F-0.25
S'higher'
p21
I0
tp22
as(S'battery'
p23
S'life'
p24
tp25
(lp26
(I3
I287
F1.0
S'good'
p27
I1
tp28
a(I3
I301
I-100
S'2battery'
p29
I1
tp30
a(I6
I11
F-0.625
S'average'
p31
I1
tp32
a(I7
I4
F1.0
S'good'
p33
I1
tp34
a(I7
I113
F0.375
S'early'
p35
I1
tp36
a(I11
I16
F-0.875
S'awful'
p37
I1
tp38
a(I12
I15
I0
S'unbelievable'
p39
I1
tp40
a(I14
I42
F0.625
S'acceptable'
p41
I1
tp42
a(I3
I287
F1.0
g27
I19
tp43
a(I6
I11
F-0.625
g31
I19
tp44
a(I7
I4
F1.0
g33
I19
tp45
a(I7
I113
F0.375
g35
I19
tp46
a(I11
I16
F-0.875
g37
I19
tp47
a(I12
I15
I0
g39
I19
tp48
a(I14
I42
F0.625
g41
I19
tp49
a(I3
I53
F-0.75
S'single'
p50
I15
tp51
a(I3
I54
F0.125
S'impressive'
p52
I15
tp53
a(I3
I137
I0
S'efficient'
p54
I15
tp55
a(I9
I51
F0.125
S'last'
p56
I15
tp57
a(I9
I51
F0.375
S'new'
p58
I15
tp59
a(I10
I4
I0
S'great'
p60
I15
tp61
as(S'email'
p62
S'client'
p63
tp64
(lp65
(I9
I108
I0
S'wish'
p66
I0
tp67
a(I9
I108
F0.125
S'native'
p68
I0
tp69
a(I9
I131
F0.125
S'native'
p70
I0
tp71
as(S'tablet'
p72
tp73
(lp74
(I3
I175
I0
S'big'
p75
I14
tp76
a(I3
I175
F-0.375
S'small'
p77
I14
tp78
a(I3
I255
F-0.375
S'small'
p79
I14
tp80
as(S'otter'
p81
S'box'
p82
tp83
(lp84
(I3
I125
I0
S'normal'
p85
I0
tp86
as(S'bluetooth'
p87
tp88
(lp89
(I14
I30
F1.0
S'best'
p90
I3
tp91
as(S'iphone'
p92
tp93
(lp94
(I6
I17
F0.25
S'toy'
p95
I1
tp96
a(I7
I118
F0.5
S'upgraded'
p97
I1
tp98
a(I9
I17
I0
S'hear'
p99
I1
tp100
a(I13
I29
F0.5
S'comparable'
p101
I1
tp102
a(I13
I31
F1.0
S'better'
p103
I1
tp104
as(S'native'
p105
g62
tp106
(lp107
(I9
I108
I0
g66
I0
tp108
a(I9
I108
F0.125
g68
I0
tp109
a(I9
I110
F0.125
S'native'
p110
I0
tp111
a(I9
I131
F0.125
g70
I0
tp112
as(S'apps'
p113
tp114
(lp115
(I3
I59
I0
S'many'
p116
I0
tp117
a(I3
I59
I0
S'many'
p118
I0
tp119
a(I3
I60
F0.625
S'major'
p120
I0
tp121
a(I3
I60
F0.375
S'available'
p122
I0
tp123
a(I3
I94
F-0.625
S'other'
p124
I0
tp125
a(I3
I94
F0.5
S'compatible'
p126
I0
tp127
a(I3
I181
I0
S'more'
p128
I0
tp129
a(I9
I129
F-0.625
S'other'
p130
I0
tp131
a(I9
I132
F-0.625
S'other'
p132
I0
tp133
a(I9
I132
F0.25
S'used'
p134
I0
tp135
a(I15
I3
I0
S'many'
p136
I0
tp137
as(S'camera'
p138
tp139
(lp140
(I3
I90
I0
S'great'
p141
I1
tp142
a(I9
I83
F0.875
S'nice'
p143
I1
tp144
a(I9
I85
F0.125
S'native'
p145
I1
tp146
a(I9
I90
F1.0
S'best'
p147
I1
tp148
a(I10
I6
I0
S'cool'
p149
I1
tp150
a(I13
I31
F0.5
S'comparable'
p151
I1
tp152
as(S'droid'
p153
tp154
(lp155
(I3
I126
I0
S'old'
p156
I0
tp157
a(I9
I80
F0.25
S'original'
p158
I0
tp159
a(I14
I3
F0.125
S'first'
p160
I0
tp161
as(S'stylus'
p162
tp163
(lp164
(I3
I42
I0
S'sensitive'
p165
I7
tp166
a(I7
I92
F1.0
S'good'
p167
I7
tp168
a(I15
I9
I0
S'few'
p169
I7
tp170
as(S'galaxy'
p171
S'note'
p172
tp173
(lp174
(I9
I74
I0
S'latest'
p175
I0
tp176
a(I9
I74
F-0.625
S'glad'
p177
I0
tp178
a(I9
I74
I0
g175
I0
tp179
a(I13
I8
F1.0
S'best'
p180
I0
tp181
as(S'android'
p182
tp183
(lp184
(I3
I44
F-0.625
S'other'
p185
I0
tp186
a(I3
I58
F-0.25
S'modern'
p187
I0
tp188
a(I5
I36
I0
S'many'
p189
I0
tp190
a(I14
I23
F1.0
S'best'
p191
I0
tp192
as(S'hands'
p193
tp194
(lp195
(I3
I155
F0.25
S'larger'
p196
I15
tp197
a(I7
I85
F-0.375
S'small'
p198
I15
tp199
a(I8
I15
F-0.375
S'small'
p200
I15
tp201
a(I8
I17
F-0.375
S'smallest'
p202
I15
tp203
a(I12
I7
F-0.375
S'small'
p204
I15
tp205
as(S'smart'
p206
tp207
(lp208
(I7
I129
F-0.625
S'other'
p209
I10
tp210
a(I8
I48
F1.0
S'best'
p211
I10
tp212
as(S'few'
p213
S'days'
p214
tp215
(lp216
(I3
I259
I0
S'few'
p217
I10
tp218
a(I7
I24
F-0.125
S'mine'
p219
I10
tp220
a(I9
I13
I0
S'few'
p221
I10
tp222
a(I15
I0
I0
S'few'
p223
I10
tp224
as(S'razr'
p225
tp226
(lp227
(I14
I1
F1.0
S'better'
p228
I0
tp229
as(S'super'
p230
S'fast'
p231
tp232
(lp233
(I3
I262
F-0.125
S'super'
p234
I0
tp235
a(I13
I26
F-0.125
S'super'
p236
I0
tp237
as(S's'
p238
S'pen'
p239
tp240
(lp241
(I3
I219
F0.625
S'convenient'
p242
I0
tp243
a(I15
I2
F-0.625
S'other'
p244
I0
tp245
as.