(dp0
(S'screen'
p1
S'size'
p2
tp3
(lp4
(I11
I2
I0
S'great'
p5
I3
tp6
a(I14
I36
I0
S'big'
p7
I3
tp8
a(I15
I6
I0
S'petite'
p9
I3
tp10
a(I16
I34
I0
S'great'
p11
I3
tp12
as(S'samsung'
p13
S'galaxy'
p14
S'note'
p15
tp16
(lp17
(I14
I14
I0
S'general'
p18
I0
tp19
a(I14
I32
F0.375
S'new'
p20
I0
tp21
a(I20
I34
I0
S'marble'
p22
I0
tp23
a(I20
I34
F-0.25
S'white'
p24
I0
tp25
a(I14
I14
I0
g18
I0
tp26
a(I14
I32
F0.375
g20
I0
tp27
a(I20
I34
I0
g22
I0
tp28
a(I20
I34
F-0.25
g24
I0
tp29
a(I14
I14
I0
g18
I0
tp30
a(I14
I32
F0.375
g20
I0
tp31
a(I20
I34
I0
g22
I7
tp32
a(I20
I34
F-0.25
g24
I7
tp33
a(I2
I32
F1.0
S'better'
p34
I0
tp35
a(I14
I14
I0
g18
I0
tp36
a(I14
I32
F0.375
g20
I0
tp37
a(I19
I63
F0.25
S'original'
p38
I0
tp39
as(S'functions'
p40
tp41
(lp42
(I4
I31
F-0.625
S'other'
p43
I4
tp44
a(I6
I2
F0.625
S'easy'
p45
I4
tp46
a(I15
I19
F-0.625
S'other'
p47
I4
tp48
a(I15
I21
I0
S'great'
p49
I4
tp50
a(I15
I22
I0
S'same'
p51
I4
tp52
a(I15
I22
I0
S'pen'
p53
I4
tp54
a(I24
I1
I0
S'many'
p55
I4
tp56
as(S'price'
p57
S'tag'
p58
tp59
(lp60
(I5
I122
I0
S'initial'
p61
I4
tp62
a(I5
I122
F-0.5
S'stumble'
p63
I4
tp64
as(S'tablet'
p65
tp66
(lp67
(I2
I16
F-0.375
S'small'
p68
I14
tp69
a(I20
I78
I0
S'many'
p70
I14
tp71
as(S'size'
p72
S'great'
p73
tp74
(lp75
(I3
I1
I0
S'great'
p76
I0
tp77
a(I11
I2
I0
g5
I0
tp78
a(I19
I1
F-0.125
S'super'
p79
I0
tp80
a(I19
I1
I0
S'fast'
p81
I0
tp82
a(I19
I1
I0
S'great'
p83
I0
tp84
as(S'camera'
p85
tp86
(lp87
(I2
I12
F1.0
S'good'
p88
I1
tp89
a(I5
I24
F1.0
S'better'
p90
I1
tp91
a(I16
I34
I0
S'great'
p92
I1
tp93
a(I16
I34
I0
S'great'
p94
I1
tp95
a(I19
I65
F1.0
S'better'
p96
I1
tp97
a(I20
I9
F1.0
S'good'
p98
I1
tp99
a(I20
I22
F0.625
S'perfect'
p100
I1
tp101
as(S'sprint'
p102
tp103
(lp104
(I18
I0
I0
S'local'
p105
I0
tp106
as(S'htc'
p107
S'evo'
p108
tp109
(lp110
(I5
I0
F0.125
S'enough'
p111
I0
tp112
a(I13
I14
I0
S'old'
p113
I0
tp114
as(S'playing'
p115
S'games'
p116
tp117
(lp118
(I5
I1
I0
S'net'
p119
I1
tp120
a(I5
I16
I0
S'great'
p121
I1
tp122
as(S'stylus'
p123
tp124
(lp125
(I14
I26
I0
S'great'
p126
I7
tp127
a(I20
I101
I0
S'different'
p128
I7
tp129
as(S'top'
p130
S'of'
p131
S'line'
p132
tp133
(lp134
(I1
I4
F-0.375
S'top'
p135
I0
tp136
a(I7
I52
F-0.375
S'top'
p137
I0
tp138
as(S'large'
p139
S'screen'
p140
tp141
(lp142
(I5
I78
I0
S'large'
p143
I3
tp144
a(I5
I78
I0
S'big'
p145
I3
tp146
a(I5
I80
I0
S'large'
p147
I3
tp148
a(I5
I100
F0.25
S'larger'
p149
I3
tp150
a(I7
I3
F0.25
S'larger'
p151
I3
tp152
a(I7
I5
I0
S'large'
p153
I3
tp154
a(I7
I9
F0.25
S'larger'
p155
I3
tp156
a(I19
I15
I0
S'large'
p157
I3
tp158
a(I19
I60
I0
S'large'
p159
I3
tp160
a(I20
I59
I0
S'large'
p161
I3
tp162
as(S'hands'
p163
tp164
(lp165
(I2
I16
F-0.375
S'small'
p166
I15
tp167
a(I11
I21
I0
S'big'
p168
I15
tp169
a(I22
I5
F-0.375
S'small'
p170
I15
tp171
as(S'white'
p172
S'noise'
p173
tp174
(lp175
(I5
I138
F-0.25
S'white'
p176
I0
tp177
as(S'iphone'
p178
tp179
(lp180
(I5
I62
I0
S'great'
p181
I1
tp182
a(I10
I2
F-0.125
S'former'
p183
I1
tp184
a(I11
I6
I0
S'most'
p185
I1
tp186
as(S'big'
p187
S'screen'
p188
tp189
(lp190
(I2
I26
I0
S'big'
p191
I1
tp192
a(I5
I78
I0
g143
I1
tp193
a(I5
I78
I0
g145
I1
tp194
a(I7
I64
I0
S'big'
p195
I1
tp196
a(I13
I14
I0
S'big'
p197
I1
tp198
a(I14
I25
I0
S'big'
p199
I1
tp200
a(I14
I25
I0
S'big'
p201
I1
tp202
a(I14
I32
I0
S'big'
p203
I1
tp204
a(I14
I32
F1.0
S'better'
p205
I1
tp206
a(I14
I36
I0
g7
I1
tp207
a(I19
I40
F0.25
S'bigger'
p208
I1
tp209
a(I19
I55
F0.25
S'bigger'
p210
I1
tp211
as(S'data'
p212
tp213
(lp214
(I5
I21
I0
S'signal'
p215
I13
tp216
a(I10
I6
F-0.5
S'sure'
p217
I13
tp218
as(S'great'
p219
S'battery'
p220
S'life'
p221
tp222
(lp223
(I3
I1
F-0.25
S'battery'
p224
I0
tp225
a(I5
I125
I0
S'great'
p226
I0
tp227
a(I11
I2
I0
S'great'
p228
I0
tp229
a(I14
I28
I0
S'great'
p230
I0
tp231
a(I15
I5
I0
S'great'
p232
I0
tp233
a(I3
I1
F-0.25
g224
I1
tp234
a(I5
I1
I0
S'phenomenal'
p235
I1
tp236
a(I5
I125
I0
g226
I1
tp237
a(I11
I2
I0
g228
I1
tp238
a(I14
I28
I0
g230
I1
tp239
a(I15
I5
I0
g232
I1
tp240
a(I3
I1
F-0.25
g224
I19
tp241
a(I5
I1
I0
g235
I19
tp242
a(I7
I30
F-0.375
S'simple'
p243
I19
tp244
a(I11
I2
I0
g228
I19
tp245
a(I19
I88
F0.25
S'lived'
p246
I19
tp247
a(I5
I125
I0
g226
I15
tp248
a(I14
I28
I0
g230
I15
tp249
a(I15
I5
I0
g232
I15
tp250
a(I19
I87
F0.625
S'straight'
p251
I15
tp252
a(I20
I63
I0
S'large'
p253
I15
tp254
as(S'super'
p255
S'fast'
p256
tp257
(lp258
(I5
I80
F-0.125
S'super'
p259
I0
tp260
as(S's'
p261
S'pen'
p262
tp263
(lp264
(I11
I15
F0.375
S'much'
p265
I0
tp266
as(S'amazon'
p267
tp268
(lp269
(I5
I44
F-0.25
S'cheapest'
p270
I13
tp271
a(I15
I4
F0.375
S'much'
p272
I13
tp273
as.