(dp0
(S'battery'
p1
S'life'
p2
tp3
(lp4
(I1
I10
F1.0
S'good'
p5
I1
tp6
a(I6
I240
F1.0
S'good'
p7
I1
tp8
a(I8
I11
F1.0
S'good'
p9
I1
tp10
a(I8
I173
F-0.5
S'longer'
p11
I1
tp12
a(I8
I280
I0
S'great'
p13
I1
tp14
a(I10
I12
F-0.75
S'short'
p15
I1
tp16
a(I10
I87
F-0.5
S'longer'
p17
I1
tp18
a(I10
I121
I0
S'large'
p19
I1
tp20
a(I10
I121
F-0.375
S'unacceptable'
p21
I1
tp22
a(I10
I214
F1.0
S'better'
p23
I1
tp24
a(I12
I12
F1.0
S'good'
p25
I1
tp26
a(I13
I32
F1.0
S'good'
p27
I1
tp28
a(I14
I287
F1.0
S'good'
p29
I1
tp30
a(I14
I441
F0.125
S'last'
p31
I1
tp32
a(I14
I534
F-0.625
S'bad'
p33
I1
tp34
a(I14
I649
F1.0
S'better'
p35
I1
tp36
a(I17
I73
F-0.5
S'long'
p37
I1
tp38
a(I18
I18
F1.0
S'good'
p39
I1
tp40
a(I18
I140
F-0.875
S'worst'
p41
I1
tp42
a(I18
I231
F1.0
S'good'
p43
I1
tp44
a(I18
I314
F-0.5
S'poor'
p45
I1
tp46
a(I19
I31
F0.5
S'reasonable'
p47
I1
tp48
a(I20
I26
F1.0
S'good'
p49
I1
tp50
a(I20
I27
I0
S'adequate'
p51
I1
tp52
a(I22
I247
F-0.625
S'bad'
p53
I1
tp54
a(I22
I343
F0.125
S'first'
p55
I1
tp56
a(I22
I354
I0
S'great'
p57
I1
tp58
a(I23
I96
F1.0
S'better'
p59
I1
tp60
a(I23
I210
F-0.25
S'battery'
p61
I1
tp62
a(I23
I210
F-0.625
S'bad'
p63
I1
tp64
a(I23
I247
F-0.75
S'unreliable'
p65
I1
tp66
a(I24
I17
I0
S'initial'
p67
I1
tp68
a(I28
I1
F-0.5
S'poor'
p69
I1
tp70
a(I29
I40
F-0.5
S'less'
p71
I1
tp72
a(I1
I10
F1.0
g5
I19
tp73
a(I6
I240
F1.0
g7
I19
tp74
a(I8
I173
F-0.5
g11
I19
tp75
a(I9
I31
I0
S'real'
p76
I19
tp77
a(I10
I55
F0.625
S'easier'
p78
I19
tp79
a(I10
I87
F-0.5
g17
I19
tp80
a(I10
I214
F1.0
g23
I19
tp81
a(I13
I32
F1.0
g27
I19
tp82
a(I14
I287
F1.0
g29
I19
tp83
a(I14
I441
F0.125
g31
I19
tp84
a(I14
I534
F-0.625
g33
I19
tp85
a(I18
I18
F1.0
g39
I19
tp86
a(I18
I140
F-0.875
g41
I19
tp87
a(I18
I231
F1.0
g43
I19
tp88
a(I18
I279
I0
S'real'
p89
I19
tp90
a(I19
I26
F0.625
S'necessary'
p91
I19
tp92
a(I19
I26
F-0.375
S'daily'
p93
I19
tp94
a(I19
I31
F0.5
g47
I19
tp95
a(I20
I26
F1.0
g49
I19
tp96
a(I22
I343
F0.125
g55
I19
tp97
a(I23
I78
F0.375
S'busy'
p98
I19
tp99
a(I23
I210
F-0.25
g61
I19
tp100
a(I23
I210
F-0.625
g63
I19
tp101
a(I25
I358
F0.625
S'easier'
p102
I19
tp103
a(I29
I40
F-0.5
g71
I19
tp104
a(I31
I10
F0.5
S'personal'
p105
I19
tp106
a(I31
I34
F0.5
S'personal'
p107
I19
tp108
a(I5
I65
F0.375
S'alive'
p109
I15
tp110
a(I6
I37
I0
S'chew'
p111
I15
tp112
a(I6
I125
F0.625
S'decent'
p113
I15
tp114
a(I6
I129
I0
S'hot'
p115
I15
tp116
a(I8
I11
F1.0
g9
I15
tp117
a(I8
I214
F-0.25
S'low'
p118
I15
tp119
a(I8
I280
I0
g13
I15
tp120
a(I9
I9
I0
S'special'
p121
I15
tp122
a(I10
I12
F-0.75
g15
I15
tp123
a(I10
I121
I0
g19
I15
tp124
a(I10
I121
F-0.375
g21
I15
tp125
a(I12
I12
F1.0
g25
I15
tp126
a(I13
I36
F-0.625
S'bad'
p127
I15
tp128
a(I14
I499
F-0.25
S'low'
p129
I15
tp130
a(I14
I649
F1.0
g35
I15
tp131
a(I17
I40
F-0.5
S'sure'
p132
I15
tp133
a(I17
I73
F-0.5
g37
I15
tp134
a(I18
I178
F0.125
S'last'
p135
I15
tp136
a(I18
I312
F0.125
S'first'
p137
I15
tp138
a(I18
I313
F-0.75
S'likely'
p139
I15
tp140
a(I18
I314
F-0.5
g45
I15
tp141
a(I18
I317
F-0.75
S'sufficient'
p142
I15
tp143
a(I18
I373
F-0.25
S'low'
p144
I15
tp145
a(I18
I374
F-0.25
S'low'
p146
I15
tp147
a(I18
I376
F-0.25
S'low'
p148
I15
tp149
a(I18
I376
I0
S'therefore'
p150
I15
tp151
a(I18
I424
I0
S'internal'
p152
I15
tp153
a(I20
I12
F0.5
S'willing'
p154
I15
tp155
a(I20
I27
I0
g51
I15
tp156
a(I22
I63
I0
S'faster'
p157
I15
tp158
a(I22
I130
F-0.75
S'unreliable'
p159
I15
tp160
a(I22
I224
F0.625
S'aware'
p161
I15
tp162
a(I22
I224
I0
S'deplete'
p163
I15
tp164
a(I22
I247
F-0.625
g53
I15
tp165
a(I22
I310
I0
S'faster'
p166
I15
tp167
a(I22
I310
F0.125
S'usual'
p168
I15
tp169
a(I22
I354
I0
g57
I15
tp170
a(I23
I96
F1.0
g59
I15
tp171
a(I23
I247
F-0.75
g65
I15
tp172
a(I24
I17
I0
g67
I15
tp173
a(I24
I21
F0.125
S'further'
p174
I15
tp175
a(I27
I120
I0
S'more'
p176
I15
tp177
a(I28
I1
F-0.5
g69
I15
tp178
a(I30
I52
F0.125
S'last'
p179
I15
tp180
as(S'camera'
p181
S'and'
p182
S'video'
p183
tp184
(lp185
(I4
I1
F0.5
S'clear'
p186
I0
tp187
a(I8
I250
F0.875
S'nice'
p188
I0
tp189
a(I8
I263
F0.5
S'live'
p190
I0
tp191
a(I11
I20
I0
S'great'
p192
I0
tp193
a(I18
I273
F0.75
S'beautiful'
p194
I0
tp195
a(I19
I64
F0.125
S'last'
p196
I0
tp197
a(I19
I64
I0
S'least'
p198
I0
tp199
a(I19
I64
F-0.5
S'separate'
p200
I0
tp201
a(I29
I57
F0.125
S'first'
p202
I0
tp203
a(I0
I29
F1.0
S'best'
p204
I1
tp205
a(I3
I12
F1.0
S'best'
p206
I1
tp207
a(I5
I64
I0
S'great'
p208
I1
tp209
a(I5
I64
F0.875
S'nice'
p210
I1
tp211
a(I6
I7
F-0.625
S'other'
p212
I1
tp213
a(I6
I26
F-0.625
S'other'
p214
I1
tp215
a(I6
I55
I0
S'great'
p216
I1
tp217
a(I6
I158
F0.625
S'finish'
p218
I1
tp219
a(I8
I26
F1.0
S'best'
p220
I1
tp221
a(I8
I70
I0
S'physical'
p222
I1
tp223
a(I8
I71
F-0.25
S'ready'
p224
I1
tp225
a(I8
I173
F0.875
S'nice'
p226
I1
tp227
a(I8
I183
F1.0
S'best'
p228
I1
tp229
a(I8
I197
F1.0
S'best'
p230
I1
tp231
a(I8
I234
F0.5
S'stylish'
p232
I1
tp233
a(I8
I234
I0
S'fast'
p234
I1
tp235
a(I8
I234
F0.5
S'strong'
p236
I1
tp237
a(I8
I250
F0.875
g188
I1
tp238
a(I8
I292
I0
S'great'
p239
I1
tp240
a(I9
I96
F-0.625
S'glad'
p241
I1
tp242
a(I9
I173
F0.125
S'spectacular'
p243
I1
tp244
a(I11
I20
I0
g192
I1
tp245
a(I11
I38
I0
S'great'
p246
I1
tp247
a(I12
I1
F1.0
S'best'
p248
I1
tp249
a(I12
I5
F1.0
S'good'
p250
I1
tp251
a(I12
I14
F1.0
S'good'
p252
I1
tp253
a(I13
I15
I0
S'great'
p254
I1
tp255
a(I14
I425
I0
S'great'
p256
I1
tp257
a(I14
I462
F1.0
S'good'
p258
I1
tp259
a(I14
I616
I0
S'pic'
p260
I1
tp261
a(I14
I707
F1.0
S'best'
p262
I1
tp263
a(I16
I62
I0
S'great'
p264
I1
tp265
a(I17
I111
I0
S'great'
p266
I1
tp267
a(I18
I5
F0.5
S'touch'
p268
I1
tp269
a(I18
I28
F0.5
S'so-so'
p270
I1
tp271
a(I18
I85
F1.0
S'good'
p272
I1
tp273
a(I18
I276
I0
S'unbelievable'
p274
I1
tp275
a(I19
I64
F0.125
g196
I1
tp276
a(I19
I64
I0
g198
I1
tp277
a(I19
I64
F-0.5
g200
I1
tp278
a(I20
I60
I0
S'great'
p279
I1
tp280
a(I20
I98
I0
S'great'
p281
I1
tp282
a(I22
I143
F0.125
S'solid'
p283
I1
tp284
a(I22
I339
F-0.75
S'bright'
p285
I1
tp286
a(I23
I71
F1.0
S'best'
p287
I1
tp288
a(I23
I117
I0
S'later'
p289
I1
tp290
a(I24
I8
F0.125
S'able'
p291
I1
tp292
a(I25
I91
I0
S'great'
p293
I1
tp294
a(I25
I392
I0
S'great'
p295
I1
tp296
a(I26
I2
F1.0
S'best'
p297
I1
tp298
a(I27
I90
F1.0
S'best'
p299
I1
tp300
a(I28
I37
I0
S'incredible'
p301
I1
tp302
a(I28
I43
I0
S'great'
p303
I1
tp304
a(I28
I43
F-0.5
S'heavy'
p305
I1
tp306
a(I29
I21
F-0.5
S'less'
p307
I1
tp308
a(I29
I21
F0.25
S'stellar'
p309
I1
tp310
a(I29
I23
I0
S'least'
p311
I1
tp312
a(I29
I51
F1.0
S'good'
p313
I1
tp314
a(I29
I57
F0.125
g202
I1
tp315
a(I30
I54
F1.0
S'good'
p316
I1
tp317
a(I31
I25
F1.0
S'good'
p318
I1
tp319
as(S'a'
p320
S'screen'
p321
S'protector'
p322
tp323
(lp324
(I11
I111
I0
S'plastic'
p325
I1
tp326
a(I30
I41
F0.5
S'touch'
p327
I1
tp328
as(S'call'
p329
S'quality'
p330
tp331
(lp332
(I5
I161
I0
S'great'
p333
I0
tp334
a(I11
I44
F0.125
S'solid'
p335
I0
tp336
a(I11
I136
F-0.375
S'top'
p337
I0
tp338
a(I11
I136
I0
S'great'
p339
I0
tp340
a(I13
I97
F1.0
S'good'
p341
I0
tp342
a(I20
I64
I0
S'high'
p343
I0
tp344
as(S'in'
p345
S'low'
p346
S'light'
p347
tp348
(lp349
(I0
I31
F-0.25
S'low'
p350
I0
tp351
a(I10
I134
F-0.25
S'low'
p352
I0
tp353
a(I10
I135
F-0.25
S'low'
p354
I0
tp355
a(I12
I61
I0
S'great'
p356
I0
tp357
a(I12
I61
F-0.25
S'low'
p358
I0
tp359
a(I0
I31
F-0.25
g350
I0
tp360
a(I6
I74
F0.75
S'beautiful'
p361
I0
tp362
a(I6
I74
F-0.25
S'low'
p363
I0
tp364
a(I9
I34
I0
S'photography'
p365
I0
tp366
a(I9
I34
I0
S'great'
p367
I0
tp368
a(I10
I134
F-0.25
g352
I0
tp369
a(I10
I135
F-0.25
g354
I0
tp370
a(I10
I145
F1.0
S'best'
p371
I0
tp372
a(I10
I145
F-0.25
S'low'
p373
I0
tp374
a(I12
I61
I0
g356
I0
tp375
a(I12
I61
F-0.25
g358
I0
tp376
a(I14
I246
F-0.25
S'low'
p377
I0
tp378
a(I24
I59
I0
S'great'
p379
I0
tp380
a(I24
I59
F-0.25
S'low'
p381
I0
tp382
as(S'by'
p383
S'turn'
p384
S'navigation'
p385
tp386
(lp387
(I5
I108
I0
S'great'
p388
I0
tp389
a(I20
I11
F0.375
S'audible'
p390
I0
tp391
a(I22
I226
I0
S'great'
p392
I0
tp393
as(S'give'
p394
g320
S'try'
p395
tp396
(lp397
(I1
I31
F0.75
S'give'
p398
I0
tp399
a(I23
I159
F0.75
S'give'
p400
I0
tp401
as(S'samsung'
p402
tp403
(lp404
(I0
I0
F0.125
S'last'
p405
I7
tp406
a(I5
I20
I0
S'least'
p407
I7
tp408
a(I8
I175
F-0.625
S'lighter'
p409
I7
tp410
a(I9
I114
F0.125
S'first'
p411
I7
tp412
a(I30
I41
F0.125
S'last'
p413
I7
tp414
as(S'angry'
p415
S'birds'
p416
tp417
(lp418
(I22
I24
I0
S'angry'
p419
I0
tp420
a(I25
I435
F-0.625
S'other'
p421
I0
tp422
as(S'operating'
p423
S'system'
p424
tp425
(lp426
(I6
I105
I0
S'great'
p427
I2
tp428
a(I7
I3
I0
S'great'
p429
I2
tp430
a(I16
I32
F0.375
S'new'
p431
I2
tp432
a(I16
I62
I0
S'latest'
p433
I2
tp434
a(I18
I145
F1.0
S'better'
p435
I2
tp436
a(I19
I45
F-0.75
S'little'
p437
I2
tp438
a(I19
I45
F-0.25
S'late'
p439
I2
tp440
a(I21
I17
I0
S'minimal'
p441
I2
tp442
a(I24
I13
F1.0
S'best'
p443
I2
tp444
as(S'live'
p445
S'tiles'
p446
tp447
(lp448
(I5
I106
F0.5
S'live'
p449
I0
tp450
a(I8
I52
F0.5
S'live'
p451
I0
tp452
a(I8
I220
F0.5
S'live'
p453
I0
tp454
a(I8
I280
F0.5
S'live'
p455
I0
tp456
a(I9
I63
F0.5
S'live'
p457
I0
tp458
a(I9
I63
F-0.375
S'simple'
p459
I0
tp460
a(I10
I92
F0.5
S'live'
p461
I0
tp462
a(I10
I107
F0.5
S'live'
p463
I0
tp464
a(I10
I157
F0.5
S'live'
p465
I0
tp466
a(I11
I70
F0.5
S'live'
p467
I0
tp468
a(I13
I55
F0.5
S'live'
p469
I0
tp470
a(I13
I55
I0
S'great'
p471
I0
tp472
a(I14
I21
F0.5
S'live'
p473
I0
tp474
a(I14
I22
F0.5
S'live'
p475
I0
tp476
a(I14
I433
F0.5
S'live'
p477
I0
tp478
a(I14
I478
F0.5
S'live'
p479
I0
tp480
a(I14
I568
F0.5
S'live'
p481
I0
tp482
a(I14
I568
I0
S'cool'
p483
I0
tp484
a(I14
I568
F0.5
S'slick'
p485
I0
tp486
a(I16
I18
F0.5
S'live'
p487
I0
tp488
a(I16
I26
F0.5
S'live'
p489
I0
tp490
a(I17
I19
F0.5
S'live'
p491
I0
tp492
a(I17
I19
I0
S'great'
p493
I0
tp494
a(I17
I66
F0.5
S'live'
p495
I0
tp496
a(I18
I109
F0.5
S'live'
p497
I0
tp498
a(I18
I109
F0.875
S'nice'
p499
I0
tp500
a(I18
I251
F0.5
S'live'
p501
I0
tp502
a(I19
I4
F0.5
S'live'
p503
I0
tp504
a(I19
I45
F0.5
S'live'
p505
I0
tp506
a(I19
I46
F0.5
S'live'
p507
I0
tp508
a(I19
I62
F0.5
S'live'
p509
I0
tp510
a(I20
I98
F0.5
S'live'
p511
I0
tp512
a(I22
I198
F0.5
S'live'
p513
I0
tp514
a(I22
I289
F0.5
S'live'
p515
I0
tp516
a(I22
I290
F0.5
S'live'
p517
I0
tp518
a(I23
I95
F0.5
S'live'
p519
I0
tp520
a(I23
I163
F0.5
S'live'
p521
I0
tp522
a(I24
I0
F0.5
S'live'
p523
I0
tp524
a(I25
I12
F0.5
S'live'
p525
I0
tp526
a(I25
I12
I0
S'cool'
p527
I0
tp528
a(I25
I12
F1.0
S'better'
p529
I0
tp530
a(I25
I83
F0.5
S'live'
p531
I0
tp532
a(I25
I317
I0
S'useful'
p533
I0
tp534
a(I25
I360
F0.5
S'live'
p535
I0
tp536
a(I25
I385
F0.5
S'live'
p537
I0
tp538
a(I25
I432
F0.5
S'live'
p539
I0
tp540
a(I25
I432
F-0.5
S'less'
p541
I0
tp542
a(I26
I59
F0.5
S'live'
p543
I0
tp544
a(I26
I75
F0.5
S'live'
p545
I0
tp546
a(I26
I75
I0
S'quick'
p547
I0
tp548
a(I26
I75
F-0.375
S'simple'
p549
I0
tp550
a(I29
I138
F0.5
S'live'
p551
I0
tp552
a(I30
I30
F0.5
S'live'
p553
I0
tp554
a(I30
I37
F0.5
S'live'
p555
I0
tp556
a(I5
I106
F0.5
g449
I0
tp557
a(I8
I52
F0.5
g451
I0
tp558
a(I8
I220
F0.5
g453
I0
tp559
a(I8
I280
F0.5
g455
I0
tp560
a(I9
I63
F0.5
g457
I0
tp561
a(I9
I63
F-0.375
g459
I0
tp562
a(I10
I92
F0.5
g461
I0
tp563
a(I10
I107
F0.5
g463
I0
tp564
a(I10
I157
F0.5
g465
I0
tp565
a(I11
I70
F0.5
g467
I0
tp566
a(I13
I55
F0.5
g469
I0
tp567
a(I13
I55
I0
g471
I0
tp568
a(I14
I21
F0.5
g473
I0
tp569
a(I14
I22
F0.5
g475
I0
tp570
a(I14
I332
F-0.375
S'smaller'
p571
I0
tp572
a(I14
I334
I0
S'big'
p573
I0
tp574
a(I14
I433
F0.5
g477
I0
tp575
a(I14
I478
F0.5
g479
I0
tp576
a(I14
I568
F0.5
g481
I0
tp577
a(I14
I568
I0
g483
I0
tp578
a(I14
I568
F0.5
g485
I0
tp579
a(I16
I18
F0.5
g487
I0
tp580
a(I16
I26
F0.5
g489
I0
tp581
a(I17
I19
F0.5
g491
I0
tp582
a(I17
I19
I0
g493
I0
tp583
a(I17
I66
F0.5
g495
I0
tp584
a(I18
I98
F-0.875
S'hard'
p585
I0
tp586
a(I18
I109
F0.5
g497
I0
tp587
a(I18
I109
F0.875
g499
I0
tp588
a(I18
I251
F0.5
g501
I0
tp589
a(I19
I4
F0.5
g503
I0
tp590
a(I19
I45
F0.5
g505
I0
tp591
a(I19
I46
F0.5
g507
I0
tp592
a(I19
I62
F0.5
g509
I0
tp593
a(I20
I98
F0.5
g511
I0
tp594
a(I22
I198
F0.5
g513
I0
tp595
a(I22
I289
F0.5
g515
I0
tp596
a(I22
I290
F0.5
g517
I0
tp597
a(I23
I95
F0.5
g519
I0
tp598
a(I23
I163
F0.5
g521
I0
tp599
a(I24
I0
F0.5
g523
I0
tp600
a(I25
I12
F0.5
g525
I0
tp601
a(I25
I12
I0
g527
I0
tp602
a(I25
I12
F1.0
g529
I0
tp603
a(I25
I83
F0.5
g531
I0
tp604
a(I25
I317
I0
g533
I0
tp605
a(I25
I360
F0.5
g535
I0
tp606
a(I25
I385
F0.5
g537
I0
tp607
a(I25
I432
F0.5
g539
I0
tp608
a(I25
I432
F-0.5
g541
I0
tp609
a(I26
I59
F0.5
g543
I0
tp610
a(I26
I75
F0.5
g545
I0
tp611
a(I26
I75
I0
g547
I0
tp612
a(I26
I75
F-0.375
g549
I0
tp613
a(I29
I138
F0.5
g551
I0
tp614
a(I30
I30
F0.5
g553
I0
tp615
a(I30
I37
F0.5
g555
I0
tp616
as(S'windows'
p617
tp618
(lp619
(I2
I28
F0.125
S'first'
p620
I0
tp621
a(I3
I7
I0
S'great'
p622
I0
tp623
a(I5
I17
F1.0
S'good'
p624
I0
tp625
a(I5
I92
I0
S'big'
p626
I0
tp627
a(I5
I96
F0.125
S'first'
p628
I0
tp629
a(I5
I132
I0
S'entire'
p630
I0
tp631
a(I8
I121
F0.5
S'drive'
p632
I0
tp633
a(I8
I316
F-0.375
S'black'
p634
I0
tp635
a(I8
I333
I0
S'only'
p636
I0
tp637
a(I8
I333
F-0.625
S'other'
p638
I0
tp639
a(I8
I347
F1.0
S'best'
p640
I0
tp641
a(I9
I9
F0.125
S'solid'
p642
I0
tp643
a(I9
I31
I0
S'few'
p644
I0
tp645
a(I9
I31
I0
S'useful'
p646
I0
tp647
a(I9
I102
F0.75
S'due'
p648
I0
tp649
a(I9
I125
F1.0
S'good'
p650
I0
tp651
a(I9
I133
F0.625
S'easy'
p652
I0
tp653
a(I9
I146
F0.625
S'easier'
p654
I0
tp655
a(I10
I11
F0.25
S'familiar'
p656
I0
tp657
a(I10
I41
F0.375
S'new'
p658
I0
tp659
a(I13
I83
F0.5
S'touch'
p660
I0
tp661
a(I14
I358
F0.375
S'much'
p662
I0
tp663
a(I14
I445
F0.375
S'new'
p664
I0
tp665
a(I14
I519
F0.25
S'are'
p666
I0
tp667
a(I14
I560
F0.5
S'slick'
p668
I0
tp669
a(I14
I683
F-0.625
S'other'
p670
I0
tp671
a(I14
I719
I0
S'great'
p672
I0
tp673
a(I14
I720
F0.125
S'tablet'
p674
I0
tp675
a(I14
I724
F0.375
S'honest'
p676
I0
tp677
a(I14
I761
F0.375
S'new'
p678
I0
tp679
a(I16
I32
F-0.25
S'cheaper'
p680
I0
tp681
a(I17
I20
F-0.125
S'overall'
p682
I0
tp683
a(I17
I119
F0.375
S'honest'
p684
I0
tp685
a(I17
I136
F1.0
S'good'
p686
I0
tp687
a(I17
I143
I0
S'mobile'
p688
I0
tp689
a(I17
I144
F0.125
S'first'
p690
I0
tp691
a(I18
I22
I0
S'desktop'
p692
I0
tp693
a(I18
I160
F-0.25
S'thinner'
p694
I0
tp695
a(I18
I160
F-0.625
S'lighter'
p696
I0
tp697
a(I18
I358
F0.5
S'second'
p698
I0
tp699
a(I20
I68
F0.125
S'usual'
p700
I0
tp701
a(I20
I86
F0.375
S'available'
p702
I0
tp703
a(I22
I56
F0.5
S'told'
p704
I0
tp705
a(I22
I72
F0.625
S'polish'
p706
I0
tp707
a(I23
I86
I0
S'next'
p708
I0
tp709
a(I23
I183
F-0.625
S'other'
p710
I0
tp711
a(I23
I211
F-0.625
S'other'
p712
I0
tp713
a(I24
I0
F0.375
S'new'
p714
I0
tp715
a(I25
I29
I0
S'indispensable'
p716
I0
tp717
a(I25
I73
F0.75
S'beautiful'
p718
I0
tp719
a(I25
I114
F1.0
S'best'
p720
I0
tp721
a(I25
I114
F1.0
S'best'
p722
I0
tp723
a(I25
I377
F-0.625
S'other'
p724
I0
tp725
a(I25
I381
I0
S'most'
p726
I0
tp727
a(I26
I45
I0
S'great'
p728
I0
tp729
a(I26
I53
I0
S'fast'
p730
I0
tp731
a(I26
I59
F-0.625
S'other'
p732
I0
tp733
a(I30
I27
F0.5
S'live'
p734
I0
tp735
as(S'dynamic'
p736
S'range'
p737
tp738
(lp739
(I14
I253
F0.375
S'dynamic'
p740
I0
tp741
a(I14
I254
F0.375
S'dynamic'
p742
I0
tp743
a(I14
I257
F0.375
S'dynamic'
p744
I0
tp745
a(I14
I259
F0.375
S'dynamic'
p746
I0
tp747
as(S'apple'
p748
tp749
(lp750
(I6
I154
F0.5
S'obvious'
p751
I4
tp752
a(I11
I32
F0.375
S'new'
p753
I4
tp754
a(I13
I125
I0
S'more'
p755
I4
tp756
a(I13
I181
F-0.75
S'sick'
p757
I4
tp758
a(I14
I186
I0
S'fast'
p759
I4
tp760
a(I17
I130
I0
S'big'
p761
I4
tp762
a(I19
I30
F1.0
S'better'
p763
I4
tp764
a(I22
I175
F0.5
S'comparable'
p765
I4
tp766
a(I27
I14
F0.375
S'new'
p767
I4
tp768
a(I30
I25
F-0.75
S'sick'
p769
I4
tp770
a(I30
I27
I0
S'user'
p771
I4
tp772
a(I30
I27
F0.375
S'friendly'
p773
I4
tp774
as(S'better'
p775
S'than'
p776
S'iphone'
p777
tp778
(lp779
(I11
I111
I0
S'most'
p780
I0
tp781
a(I12
I87
F1.0
S'better'
p782
I0
tp783
a(I24
I31
F1.0
S'better'
p784
I0
tp785
a(I25
I51
F0.625
S'easy'
p786
I0
tp787
a(I29
I63
F0.375
S'much'
p788
I0
tp789
a(I2
I43
F0.125
S'first'
p790
I1
tp791
a(I5
I11
I0
S'old'
p792
I1
tp793
a(I5
I16
I0
S'old'
p794
I1
tp795
a(I5
I25
F0.875
S'happy'
p796
I1
tp797
a(I5
I25
F0.75
S'due'
p798
I1
tp799
a(I6
I24
F-0.5
S'sure'
p800
I1
tp801
a(I6
I45
F0.125
S'last'
p802
I1
tp803
a(I6
I106
F-0.75
S'sick'
p804
I1
tp805
a(I6
I106
F0.25
S'tired'
p806
I1
tp807
a(I6
I108
F0.375
S'new'
p808
I1
tp809
a(I8
I305
I0
S'old'
p810
I1
tp811
a(I8
I318
F-0.75
S'impossible'
p812
I1
tp813
a(I8
I319
I0
S'same'
p814
I1
tp815
a(I9
I3
F0.875
S'nice'
p816
I1
tp817
a(I9
I60
F0.125
S'able'
p818
I1
tp819
a(I9
I76
F0.75
S'beautiful'
p820
I1
tp821
a(I9
I81
F1.0
S'good'
p822
I1
tp823
a(I9
I81
F0.625
S'easier'
p824
I1
tp825
a(I9
I148
F0.125
S'first'
p826
I1
tp827
a(I10
I31
I-100
S'f/2'
p828
I1
tp829
a(I10
I53
I0
S'old'
p830
I1
tp831
a(I11
I71
F1.0
S'better'
p832
I1
tp833
a(I11
I83
F0.25
S'original'
p834
I1
tp835
a(I11
I111
I0
g780
I1
tp836
a(I12
I87
F1.0
g782
I1
tp837
a(I13
I129
I0
S'faster'
p838
I1
tp839
a(I13
I183
F0.75
S'consider'
p840
I1
tp841
a(I14
I281
I-100
S'youthful'
p842
I1
tp843
a(I14
I281
F0.556
S'delicate'
p844
I1
tp845
a(I14
I446
I0
S'android'
p846
I1
tp847
a(I18
I10
I0
S'own'
p848
I1
tp849
a(I18
I153
F-0.25
S'thin'
p850
I1
tp851
a(I18
I153
F-0.625
S'light'
p852
I1
tp853
a(I19
I35
F0.375
S'honest'
p854
I1
tp855
a(I19
I59
I0
S'many'
p856
I1
tp857
a(I21
I18
I0
S'android'
p858
I1
tp859
a(I22
I95
F-0.5
S'longer'
p860
I1
tp861
a(I22
I115
F0.25
S'tired'
p862
I1
tp863
a(I22
I115
I0
S'old'
p864
I1
tp865
a(I23
I168
F0.25
S'used'
p866
I1
tp867
a(I23
I169
F0.375
S'new'
p868
I1
tp869
a(I23
I169
F-0.375
S'tumble'
p870
I1
tp871
a(I23
I170
I0
S'old'
p872
I1
tp873
a(I23
I212
F-0.125
S'former'
p874
I1
tp875
a(I23
I217
I0
S'later'
p876
I1
tp877
a(I23
I217
F0.375
S'available'
p878
I1
tp879
a(I23
I217
I0
S'earlier'
p880
I1
tp881
a(I24
I31
F1.0
g784
I1
tp882
a(I25
I51
F0.625
g786
I1
tp883
a(I25
I269
F0.5
S'buy'
p884
I1
tp885
a(I25
I376
F0.5
S'comparable'
p886
I1
tp887
a(I26
I85
I0
S'old'
p888
I1
tp889
a(I27
I12
I0
S'many'
p890
I1
tp891
a(I27
I116
F0.25
S'familiar'
p892
I1
tp893
a(I28
I18
F1.0
S'good'
p894
I1
tp895
a(I29
I44
I0
S'few'
p896
I1
tp897
a(I29
I112
F0.375
S'friendly'
p898
I1
tp899
as(S'dual'
p900
S'core'
p901
tp902
(lp903
(I6
I65
F-0.375
S'smooth'
p904
I0
tp905
a(I16
I39
I0
S'fast'
p906
I0
tp907
as(S'nokia'
p908
S'apps'
p909
tp910
(lp911
(I4
I9
F-0.625
S'free'
p912
I0
tp913
a(I5
I23
F0.375
S'available'
p914
I0
tp915
a(I5
I64
F0.875
S'nice'
p916
I0
tp917
a(I5
I80
I0
S'different'
p918
I0
tp919
a(I5
I150
I0
S'more'
p920
I0
tp921
a(I5
I150
I0
S'more'
p922
I0
tp923
a(I5
I156
F0.25
S'responsive'
p924
I0
tp925
a(I6
I68
I0
S'own'
p926
I0
tp927
a(I6
I233
F0.375
S'new'
p928
I0
tp929
a(I6
I233
F-0.375
S'daily'
p930
I0
tp931
a(I9
I138
I0
S'exclusive'
p932
I0
tp933
a(I11
I21
F-0.625
S'free'
p934
I0
tp935
a(I11
I39
F0.5
S'accurate'
p936
I0
tp937
a(I12
I37
I0
S'faster'
p938
I0
tp939
a(I12
I86
F-0.5
S'worry'
p940
I0
tp941
a(I12
I86
F1.0
S'better'
p942
I0
tp943
a(I12
I86
I0
S'exclusive'
p944
I0
tp945
a(I13
I70
I0
S'great'
p946
I0
tp947
a(I13
I71
I0
S'great'
p948
I0
tp949
a(I14
I199
F-0.5
S'separate'
p950
I0
tp951
a(I14
I297
F1.0
S'good'
p952
I0
tp953
a(I14
I297
I0
S'critical'
p954
I0
tp955
a(I14
I715
I0
S'great'
p956
I0
tp957
a(I18
I4
F-0.625
S'free'
p958
I0
tp959
a(I19
I62
I0
S'great'
p960
I0
tp961
a(I22
I142
I0
S'great'
p962
I0
tp963
a(I22
I175
F-0.25
S'low'
p964
I0
tp965
a(I22
I242
I0
S'add-on'
p966
I0
tp967
a(I22
I242
F1.0
S'good'
p968
I0
tp969
a(I23
I211
I0
S'great'
p970
I0
tp971
a(I24
I65
I0
S'many'
p972
I0
tp973
a(I24
I65
F0.625
S'easy'
p974
I0
tp975
a(I24
I65
I0
S'stable'
p976
I0
tp977
a(I26
I59
I0
S'exclusive'
p978
I0
tp979
a(I29
I5
F-0.375
S'top'
p980
I0
tp981
a(I29
I5
I0
S'exclusive'
p982
I0
tp983
a(I1
I7
I0
S'many'
p984
I0
tp985
a(I1
I20
F1.0
S'good'
p986
I0
tp987
a(I2
I21
F0.375
S'available'
p988
I0
tp989
a(I3
I8
F1.0
S'best'
p990
I0
tp991
a(I4
I9
F-0.625
g912
I0
tp992
a(I5
I16
F-0.625
S'other'
p993
I0
tp994
a(I5
I17
F0.375
S'available'
p995
I0
tp996
a(I5
I23
F0.375
g914
I0
tp997
a(I5
I26
F0.375
S'available'
p998
I0
tp999
a(I5
I80
I0
g918
I0
tp1000
a(I5
I108
F0.5
S'drive'
p1001
I0
tp1002
a(I5
I150
I0
g920
I0
tp1003
a(I6
I41
I0
S'earlier'
p1004
I0
tp1005
a(I6
I41
I0
S'unnecessary'
p1006
I0
tp1007
a(I6
I45
F0.375
S'available'
p1008
I0
tp1009
a(I6
I45
F0.875
S'happy'
p1010
I0
tp1011
a(I6
I68
I0
g926
I0
tp1012
a(I6
I70
I0
S'more'
p1013
I0
tp1014
a(I6
I89
I0
S'more'
p1015
I0
tp1016
a(I6
I106
I0
S'few'
p1017
I0
tp1018
a(I6
I188
F0.125
S'key'
p1019
I0
tp1020
a(I6
I192
I0
S'most'
p1021
I0
tp1022
a(I6
I192
I0
S'big'
p1023
I0
tp1024
a(I6
I233
F0.375
g928
I0
tp1025
a(I6
I233
F-0.375
g930
I0
tp1026
a(I8
I4
F0.375
S'available'
p1027
I0
tp1028
a(I8
I23
I0
S'specific'
p1029
I0
tp1030
a(I8
I24
F0.125
S'popular'
p1031
I0
tp1032
a(I8
I24
F0.25
S'are'
p1033
I0
tp1034
a(I8
I118
F0.625
S'major'
p1035
I0
tp1036
a(I8
I164
F0.375
S'available'
p1037
I0
tp1038
a(I8
I204
F0.25
S'favorite'
p1039
I0
tp1040
a(I8
I217
I0
S'real'
p1041
I0
tp1042
a(I8
I236
F0.125
S'able'
p1043
I0
tp1044
a(I8
I245
I0
S'many'
p1045
I0
tp1046
a(I8
I245
F0.375
S'new'
p1047
I0
tp1048
a(I9
I60
F0.625
S'major'
p1049
I0
tp1050
a(I9
I131
I0
S'most'
p1051
I0
tp1052
a(I9
I131
F1.0
S'good'
p1053
I0
tp1054
a(I9
I138
I0
g932
I0
tp1055
a(I9
I151
I0
S'most'
p1056
I0
tp1057
a(I9
I151
I0
S'few'
p1058
I0
tp1059
a(I9
I151
F-0.625
S'free'
p1060
I0
tp1061
a(I10
I64
F0.625
S'easy'
p1062
I0
tp1063
a(I10
I64
I0
S'most'
p1064
I0
tp1065
a(I10
I80
F0.125
S'first'
p1066
I0
tp1067
a(I10
I184
F0.375
S'content'
p1068
I0
tp1069
a(I10
I186
F0.375
S'new'
p1070
I0
tp1071
a(I11
I2
F1.0
S'best'
p1072
I0
tp1073
a(I11
I32
I0
S'many'
p1074
I0
tp1075
a(I11
I32
F0.125
S'popular'
p1076
I0
tp1077
a(I11
I35
I0
S'most'
p1078
I0
tp1079
a(I11
I38
F0.5
S'functional'
p1080
I0
tp1081
a(I11
I39
F0.5
g936
I0
tp1082
a(I12
I37
I0
g938
I0
tp1083
a(I12
I57
F-0.5
S'sure'
p1084
I0
tp1085
a(I12
I86
F-0.5
g940
I0
tp1086
a(I12
I86
F1.0
g942
I0
tp1087
a(I13
I62
I0
S'more'
p1088
I0
tp1089
a(I13
I64
I0
S'same'
p1090
I0
tp1091
a(I13
I70
I0
g946
I0
tp1092
a(I13
I116
I0
S'great'
p1093
I0
tp1094
a(I13
I116
I0
S'useful'
p1095
I0
tp1096
a(I13
I116
F0.625
S'easy'
p1097
I0
tp1098
a(I13
I157
I0
S'many'
p1099
I0
tp1100
a(I14
I164
F-0.625
S'other'
p1101
I0
tp1102
a(I14
I199
F-0.5
g950
I0
tp1103
a(I14
I294
I0
S'great'
p1104
I0
tp1105
a(I14
I295
I0
S'few'
p1106
I0
tp1107
a(I14
I296
I0
S'few'
p1108
I0
tp1109
a(I14
I296
I0
S'useful'
p1110
I0
tp1111
a(I14
I297
F1.0
g952
I0
tp1112
a(I14
I297
I0
g954
I0
tp1113
a(I14
I306
F-0.5
S'less'
p1114
I0
tp1115
a(I14
I306
I0
S'useful'
p1116
I0
tp1117
a(I14
I323
F-0.5
S'less'
p1118
I0
tp1119
a(I14
I446
I0
S'great'
p1120
I0
tp1121
a(I14
I519
F-0.375
S'smaller'
p1122
I0
tp1123
a(I14
I532
F-0.375
S'smooth'
p1124
I0
tp1125
a(I14
I589
F0.375
S'available'
p1126
I0
tp1127
a(I14
I694
I0
S'useful'
p1128
I0
tp1129
a(I14
I715
I0
g956
I0
tp1130
a(I16
I5
F0.875
S'important'
p1131
I0
tp1132
a(I16
I19
F0.125
S'enough'
p1133
I0
tp1134
a(I16
I45
F0.375
S'new'
p1135
I0
tp1136
a(I17
I24
F0.25
S'main'
p1137
I0
tp1138
a(I17
I68
F-0.5
S'certain'
p1139
I0
tp1140
a(I17
I81
F0.625
S'find'
p1141
I0
tp1142
a(I17
I81
F-0.625
S'other'
p1143
I0
tp1144
a(I17
I97
F-0.375
S'void'
p1145
I0
tp1146
a(I18
I3
I0
S'more'
p1147
I0
tp1148
a(I18
I3
F0.375
S'available'
p1149
I0
tp1150
a(I18
I4
F-0.625
g958
I0
tp1151
a(I18
I20
I0
S'many'
p1152
I0
tp1153
a(I18
I30
F0.25
S'favorite'
p1154
I0
tp1155
a(I18
I139
F-0.75
S'short'
p1156
I0
tp1157
a(I18
I205
F0.625
S'find'
p1158
I0
tp1159
a(I18
I206
F0.25
S'favorite'
p1160
I0
tp1161
a(I18
I217
I0
S'few'
p1162
I0
tp1163
a(I18
I217
F0.375
S'available'
p1164
I0
tp1165
a(I18
I222
I0
S'most'
p1166
I0
tp1167
a(I18
I299
I0
S'standard'
p1168
I0
tp1169
a(I18
I307
I0
S'many'
p1170
I0
tp1171
a(I18
I322
I0
S'many'
p1172
I0
tp1173
a(I18
I323
F-0.625
S'other'
p1174
I0
tp1175
a(I18
I323
F0.375
S'similar'
p1176
I0
tp1177
a(I18
I337
F-0.875
S'hard'
p1178
I0
tp1179
a(I19
I26
I0
S'many'
p1180
I0
tp1181
a(I19
I26
F0.375
S'available'
p1182
I0
tp1183
a(I19
I66
I0
S'many'
p1184
I0
tp1185
a(I19
I66
F0.375
S'available'
p1186
I0
tp1187
a(I22
I60
F-0.875
S'awful'
p1188
I0
tp1189
a(I22
I72
F-0.625
S'other'
p1190
I0
tp1191
a(I22
I72
F-0.375
S'top'
p1192
I0
tp1193
a(I22
I116
F0.375
S'available'
p1194
I0
tp1195
a(I22
I142
I0
g962
I0
tp1196
a(I22
I175
F-0.25
g964
I0
tp1197
a(I22
I200
F0.5
S'odd'
p1198
I0
tp1199
a(I22
I242
I0
g966
I0
tp1200
a(I22
I290
I0
S'more'
p1201
I0
tp1202
a(I22
I305
I0
S'different'
p1203
I0
tp1204
a(I22
I306
I0
S'useful'
p1205
I0
tp1206
a(I22
I306
F-0.625
S'free'
p1207
I0
tp1208
a(I22
I316
I0
S'many'
p1209
I0
tp1210
a(I22
I351
F-0.625
S'other'
p1211
I0
tp1212
a(I23
I58
I0
S'few'
p1213
I0
tp1214
a(I23
I145
I0
S'different'
p1215
I0
tp1216
a(I23
I146
F0.375
S'confident'
p1217
I0
tp1218
a(I23
I179
F-0.5
S'certain'
p1219
I0
tp1220
a(I23
I179
F0.375
S'available'
p1221
I0
tp1222
a(I23
I181
F0.5
S'comparable'
p1223
I0
tp1224
a(I23
I222
F-0.375
S'crazy'
p1225
I0
tp1226
a(I23
I222
I0
S'few'
p1227
I0
tp1228
a(I24
I0
I0
S'social'
p1229
I0
tp1230
a(I24
I0
I0
S'cool'
p1231
I0
tp1232
a(I24
I0
F-0.5
S'sure'
p1233
I0
tp1234
a(I24
I0
I0
S'more'
p1235
I0
tp1236
a(I24
I65
F0.625
g974
I0
tp1237
a(I24
I65
I0
g976
I0
tp1238
a(I25
I35
I0
S'many'
p1239
I0
tp1240
a(I25
I42
F-0.625
S'other'
p1241
I0
tp1242
a(I25
I53
F-0.625
S'free'
p1243
I0
tp1244
a(I25
I86
F0.375
S'similar'
p1245
I0
tp1246
a(I25
I88
F-0.5
S'less'
p1247
I0
tp1248
a(I25
I88
F-0.125
S'overall'
p1249
I0
tp1250
a(I25
I88
F0.375
S'available'
p1251
I0
tp1252
a(I25
I244
I0
S'more'
p1253
I0
tp1254
a(I25
I367
I0
S'internal'
p1255
I0
tp1256
a(I25
I395
I0
S'few'
p1257
I0
tp1258
a(I25
I395
I0
S'such'
p1259
I0
tp1260
a(I25
I396
I0
S'such'
p1261
I0
tp1262
a(I25
I397
I0
S'more'
p1263
I0
tp1264
a(I25
I412
F0.375
S'much'
p1265
I0
tp1266
a(I26
I30
F0.375
S'available'
p1267
I0
tp1268
a(I26
I32
I0
S'most'
p1269
I0
tp1270
a(I26
I32
F-0.625
S'free'
p1271
I0
tp1272
a(I26
I32
F0.625
S'decent'
p1273
I0
tp1274
a(I26
I59
I0
g978
I0
tp1275
a(I26
I76
F0.375
S'new'
p1276
I0
tp1277
a(I27
I59
F0.625
S'necessary'
p1278
I0
tp1279
a(I27
I60
I0
S'such'
p1280
I0
tp1281
a(I27
I104
F1.0
S'good'
p1282
I0
tp1283
a(I28
I33
I0
S'common'
p1284
I0
tp1285
a(I29
I5
I0
g982
I0
tp1286
a(I29
I50
F-0.625
S'other'
p1287
I0
tp1288
a(I29
I50
I0
S'useful'
p1289
I0
tp1290
a(I29
I65
F-0.25
S'google'
p1291
I0
tp1292
a(I29
I104
F-0.75
S'difficult'
p1293
I0
tp1294
a(I29
I120
F0.375
S'available'
p1295
I0
tp1296
as(S'sim'
p1297
S'cards'
p1298
tp1299
(lp1300
(I8
I66
I0
S'local'
p1301
I0
tp1302
as(S'on'
p1303
S'home'
p1304
S'screen'
p1305
tp1306
(lp1307
(I9
I3
F0.875
S'happy'
p1308
I0
tp1309
a(I9
I3
F1.0
S'good'
p1310
I0
tp1311
as(S'size'
p1312
S'and'
p1313
S'weight'
p1314
tp1315
(lp1316
(I7
I6
I0
S'many'
p1317
I0
tp1318
a(I14
I578
F0.375
S'significant'
p1319
I0
tp1320
as(S'android'
p1321
tp1322
(lp1323
(I5
I20
F0.25
S'tired'
p1324
I0
tp1325
a(I6
I212
F-0.125
S'former'
p1326
I0
tp1327
a(I8
I268
I0
S'great'
p1328
I0
tp1329
a(I8
I334
F0.5
S'comparable'
p1330
I0
tp1331
a(I8
I346
F-0.5
S'sure'
p1332
I0
tp1333
a(I9
I121
I0
S'close'
p1334
I0
tp1335
a(I11
I93
I0
S'more'
p1336
I0
tp1337
a(I14
I697
F0.125
S'consecutive'
p1338
I0
tp1339
a(I18
I118
I0
S'same'
p1340
I0
tp1341
a(I18
I144
F1.0
S'better'
p1342
I0
tp1343
a(I18
I414
F0.125
S'first'
p1344
I0
tp1345
a(I22
I38
F-0.375
S'robust'
p1346
I0
tp1347
a(I23
I208
F-0.125
S'former'
p1348
I0
tp1349
a(I25
I18
F1.0
S'better'
p1350
I0
tp1351
a(I25
I435
F-0.625
S'free'
p1352
I0
tp1353
a(I27
I7
F0.375
S'much'
p1354
I0
tp1355
a(I27
I7
F-0.125
S'complicated'
p1356
I0
tp1357
a(I28
I26
I0
S'stable'
p1358
I0
tp1359
a(I28
I26
F0.625
S'easy'
p1360
I0
tp1361
a(I28
I27
I0
S'most'
p1362
I0
tp1363
a(I30
I14
F0.375
S'available'
p1364
I0
tp1365
as(S'app'
p1366
S'store'
p1367
tp1368
(lp1369
(I8
I23
F0.375
S'available'
p1370
I0
tp1371
a(I9
I75
F0.125
S'able'
p1372
I0
tp1373
a(I11
I32
F-0.375
S'small'
p1374
I0
tp1375
a(I14
I526
F0.875
S'nice'
p1376
I0
tp1377
a(I18
I308
I0
S'own'
p1378
I0
tp1379
a(I27
I59
F-0.5
S'less'
p1380
I0
tp1381
as(S'e'
p1382
S'mail'
p1383
tp1384
(lp1385
(I19
I29
F1.0
S'best'
p1386
I2
tp1387
as(g320
S'soft'
p1388
S'reset'
p1389
tp1390
(lp1391
(I6
I122
I0
S'soft'
p1392
I0
tp1393
a(I18
I380
I0
S'soft'
p1394
I0
tp1395
a(I18
I391
I0
S'soft'
p1396
I0
tp1397
a(I18
I405
I0
S'soft'
p1398
I0
tp1399
a(I18
I415
I0
S'soft'
p1400
I0
tp1401
a(I22
I128
I0
S'soft'
p1402
I0
tp1403
as(S'exit'
p1404
S'numbers'
p1405
tp1406
(lp1407
(I18
I334
I0
S'interstate'
p1408
I0
tp1409
as(S'learning'
p1410
S'curve'
p1411
tp1412
(lp1413
(I23
I213
F0.75
S'worth'
p1414
I2
tp1415
as(S'microsoft'
p1416
tp1417
(lp1418
(I5
I123
F0.5
S'rid'
p1419
I0
tp1420
a(I6
I135
F0.875
S'important'
p1421
I0
tp1422
a(I8
I169
F0.375
S'early'
p1423
I0
tp1424
a(I22
I117
I0
S'least'
p1425
I0
tp1426
a(I23
I136
F-0.25
S'past'
p1427
I0
tp1428
a(I24
I46
F0.5
S'strong'
p1429
I0
tp1430
as(S'wireless'
p1431
S'charging'
p1432
tp1433
(lp1434
(I1
I10
F0.875
S'nice'
p1435
I0
tp1436
a(I14
I474
F-0.5
S'sure'
p1437
I0
tp1438
a(I14
I654
F-0.625
S'free'
p1439
I0
tp1440
a(I17
I140
I0
S'wireless'
p1441
I0
tp1442
a(I17
I140
I0
S'automatic'
p1443
I0
tp1444
a(I18
I24
F0.25
S'sweet'
p1445
I0
tp1446
a(I18
I242
F-0.625
S'free'
p1447
I0
tp1448
a(I22
I268
F-0.625
S'bad'
p1449
I0
tp1450
a(I24
I58
F0.125
S'first'
p1451
I0
tp1452
a(I6
I34
F0.25
S'inductive'
p1453
I12
tp1454
a(I6
I36
F0.25
S'inductive'
p1455
I12
tp1456
a(I17
I140
I0
g1441
I12
tp1457
a(I17
I140
I0
g1443
I12
tp1458
as(S'augmented'
p1459
S'reality'
p1460
tp1461
(lp1462
(I25
I353
I0
S'augmented'
p1463
I0
tp1464
as(g320
S'third'
p1465
S'party'
p1466
tp1467
(lp1468
(I14
I46
I0
S'third'
p1469
I0
tp1470
a(I22
I70
I0
S'third'
p1471
I0
tp1472
a(I25
I39
I0
S'third'
p1473
I0
tp1474
a(I25
I427
I0
S'third'
p1475
I0
tp1476
a(I28
I34
I0
S'third'
p1477
I0
tp1478
as(S'to'
p1479
S'home'
p1480
S'screen'
p1481
tp1482
(lp1483
(I14
I568
F0.125
S'able'
p1484
I0
tp1485
a(I9
I3
F0.875
g1308
I0
tp1486
a(I9
I3
F1.0
g1310
I0
tp1487
a(I14
I568
F0.125
g1484
I0
tp1488
as(S'feels'
p1489
tp1490
(lp1491
(I10
I26
I0
S'faster'
p1492
I14
tp1493
a(I14
I16
F0.125
S'solid'
p1494
I14
tp1495
a(I17
I12
F-0.375
S'black'
p1496
I14
tp1497
a(I17
I12
I0
S'great'
p1498
I14
tp1499
a(I18
I235
I0
S'blast'
p1500
I14
tp1501
a(I18
I235
F-0.25
S'past'
p1502
I14
tp1503
a(I18
I235
F0.625
S'easy'
p1504
I14
tp1505
a(I23
I38
I0
S'great'
p1506
I14
tp1507
as(S'nokia'
p1508
S'music'
p1509
tp1510
(lp1511
(I4
I4
F-0.625
S'free'
p1512
I0
tp1513
a(I8
I90
F-0.625
S'free'
p1514
I0
tp1515
a(I12
I86
I0
g944
I0
tp1516
a(I13
I71
I0
g948
I0
tp1517
a(I19
I62
I0
g960
I0
tp1518
a(I25
I322
I0
S'cool'
p1519
I0
tp1520
a(I25
I444
I0
S'great'
p1521
I0
tp1522
a(I29
I5
F-0.375
g980
I0
tp1523
a(I30
I9
F0.375
S'new'
p1524
I0
tp1525
a(I4
I4
F-0.625
g1512
I0
tp1526
a(I5
I83
F-0.5
S'unimpressive'
p1527
I0
tp1528
a(I5
I83
F0.125
S'native'
p1529
I0
tp1530
a(I8
I90
F-0.625
g1514
I0
tp1531
a(I23
I75
F0.875
S'music'
p1532
I0
tp1533
a(I24
I30
F0.375
S'new'
p1534
I0
tp1535
a(I25
I322
I0
g1519
I0
tp1536
a(I25
I444
I0
g1521
I0
tp1537
a(I27
I75
F-0.625
S'other'
p1538
I0
tp1539
a(I30
I9
F0.375
g1524
I0
tp1540
a(I31
I15
F-0.625
S'free'
p1541
I0
tp1542
as(S'nokia'
p1543
S'city'
p1544
S'lens'
p1545
tp1546
(lp1547
(I11
I48
I0
S'cool'
p1548
I0
tp1549
a(I12
I86
I0
g944
I0
tp1550
a(I19
I62
I0
g960
I0
tp1551
a(I22
I87
F0.5
S'drive'
p1552
I0
tp1553
a(I25
I245
F0.25
S'used'
p1554
I0
tp1555
a(I25
I245
F0.5
S'drive'
p1556
I0
tp1557
a(I11
I48
I0
g1548
I0
tp1558
a(I5
I12
I0
S'great'
p1559
I0
tp1560
a(I5
I64
F0.875
g916
I0
tp1561
a(I5
I150
I0
g922
I0
tp1562
a(I5
I156
F0.25
g924
I0
tp1563
a(I8
I125
I0
S'old'
p1564
I0
tp1565
a(I8
I146
F-0.125
S'former'
p1566
I0
tp1567
a(I8
I261
I0
S'great'
p1568
I0
tp1569
a(I8
I337
F-0.125
S'overall'
p1570
I0
tp1571
a(I9
I87
F1.0
S'best'
p1572
I0
tp1573
a(I9
I147
I0
S'big'
p1574
I0
tp1575
a(I10
I16
F0.5
S'drive'
p1576
I0
tp1577
a(I10
I17
F0.5
S'drive'
p1578
I0
tp1579
a(I10
I196
F1.0
S'good'
p1580
I0
tp1581
a(I11
I21
F-0.625
g934
I0
tp1582
a(I11
I89
I0
S'old'
p1583
I0
tp1584
a(I12
I86
I0
g944
I0
tp1585
a(I13
I71
I0
g948
I0
tp1586
a(I13
I120
I0
S'tech'
p1587
I0
tp1588
a(I14
I238
F0.75
S'due'
p1589
I0
tp1590
a(I14
I266
F-0.5
S'heavier'
p1591
I0
tp1592
a(I14
I285
I0
S'hot'
p1593
I0
tp1594
a(I16
I38
F0.125
S'able'
p1595
I0
tp1596
a(I17
I10
I0
S'standard'
p1597
I0
tp1598
a(I17
I89
F-0.5
S'sure'
p1599
I0
tp1600
a(I17
I119
F0.125
S'last'
p1601
I0
tp1602
a(I17
I119
I0
S'old'
p1603
I0
tp1604
a(I18
I9
F1.0
S'good'
p1605
I0
tp1606
a(I18
I10
F0.375
S'new'
p1607
I0
tp1608
a(I18
I306
F-0.625
S'other'
p1609
I0
tp1610
a(I18
I373
I0
S'later'
p1611
I0
tp1612
a(I18
I436
I0
S'third'
p1613
I0
tp1614
a(I19
I62
I0
g960
I0
tp1615
a(I22
I87
F0.5
g1552
I0
tp1616
a(I22
I242
F1.0
g968
I0
tp1617
a(I23
I32
F-0.375
S'black'
p1618
I0
tp1619
a(I23
I211
I0
g970
I0
tp1620
a(I24
I11
I0
S'old'
p1621
I0
tp1622
a(I24
I59
F-0.875
S'hard'
p1623
I0
tp1624
a(I24
I65
I0
g972
I0
tp1625
a(I25
I2
F-0.375
S'buzz'
p1626
I0
tp1627
a(I25
I245
F0.25
g1554
I0
tp1628
a(I25
I245
F0.5
g1556
I0
tp1629
a(I25
I281
F-0.5
S'sure'
p1630
I0
tp1631
a(I25
I281
I0
S'most'
p1632
I0
tp1633
a(I26
I0
F0.875
S'happy'
p1634
I0
tp1635
a(I26
I14
I0
S'many'
p1636
I0
tp1637
a(I28
I13
F0.5
S'true'
p1638
I0
tp1639
a(I29
I5
F-0.375
g980
I0
tp1640
a(I29
I76
F1.0
S'good'
p1641
I0
tp1642
a(I29
I116
F0.375
S'much'
p1643
I0
tp1644
a(I31
I3
I0
S'forth'
p1645
I0
tp1646
a(I31
I8
F0.375
S'new'
p1647
I0
tp1648
a(I31
I19
F-0.625
S'other'
p1649
I0
tp1650
as(S'hardware'
p1651
S'and'
p1652
S'software'
p1653
tp1654
(lp1655
(I17
I125
F0.625
S'superior'
p1656
I1
tp1657
a(I18
I340
I0
S'hardware'
p1658
I1
tp1659
a(I28
I43
I0
S'quick'
p1660
I1
tp1661
a(I28
I43
I0
S'fluid'
p1662
I1
tp1663
as(S'data'
p1664
tp1665
(lp1666
(I5
I73
I0
S'more'
p1667
I13
tp1668
a(I5
I73
I0
S'polymorphic'
p1669
I13
tp1670
a(I8
I131
F0.5
S'personal'
p1671
I13
tp1672
a(I8
I134
F0.5
S'personal'
p1673
I13
tp1674
a(I10
I99
F-0.5
S'inexplicable'
p1675
I13
tp1676
a(I10
I105
F-0.625
S'other'
p1677
I13
tp1678
a(I10
I115
F-0.5
S'less'
p1679
I13
tp1680
a(I13
I166
I0
S'more'
p1681
I13
tp1682
a(I14
I21
I0
S'real-time'
p1683
I13
tp1684
a(I14
I120
I0
S'cellular'
p1685
I13
tp1686
a(I14
I539
F0.375
S'allow'
p1687
I13
tp1688
as(S'much'
p1689
S'better'
p1690
tp1691
(lp1692
(I24
I50
F0.375
S'much'
p1693
I9
tp1694
a(I29
I63
F0.375
g788
I9
tp1695
as(S'free'
p1696
S'wireless'
p1697
S'charger'
p1698
tp1699
(lp1700
(I6
I194
F-0.625
S'free'
p1701
I0
tp1702
a(I9
I160
F0.375
S'extra'
p1703
I0
tp1704
a(I9
I160
F-0.625
S'free'
p1705
I0
tp1706
a(I14
I585
F-0.625
S'free'
p1707
I0
tp1708
a(I14
I654
F-0.625
g1439
I0
tp1709
a(I18
I94
F-0.625
S'free'
p1710
I0
tp1711
a(I1
I10
F0.875
g1435
I0
tp1712
a(I6
I194
F-0.625
g1701
I0
tp1713
a(I9
I160
F0.375
g1703
I0
tp1714
a(I9
I160
F-0.625
g1705
I0
tp1715
a(I14
I474
F-0.5
g1437
I0
tp1716
a(I14
I585
F-0.625
g1707
I0
tp1717
a(I14
I654
F-0.625
g1439
I0
tp1718
a(I18
I24
F0.25
g1445
I0
tp1719
a(I18
I94
F-0.625
g1710
I0
tp1720
a(I18
I242
F-0.625
g1447
I0
tp1721
a(I18
I262
F-0.625
S'other'
p1722
I0
tp1723
a(I18
I263
I0
S'awhile'
p1724
I0
tp1725
a(I22
I268
F-0.625
g1449
I0
tp1726
a(I24
I58
F0.125
g1451
I0
tp1727
as(S'transport'
p1728
S'schedules'
p1729
tp1730
(lp1731
(I25
I358
F-0.125
S'public'
p1732
I0
tp1733
a(I25
I362
F-0.125
S'public'
p1734
I0
tp1735
as(S'galaxy'
p1736
S's3'
p1737
tp1738
(lp1739
(I8
I289
I0
S'galaxy'
p1740
I0
tp1741
a(I8
I343
I0
S'galaxy'
p1742
I0
tp1743
a(I23
I115
F-0.5
S'less'
p1744
I0
tp1745
a(I26
I62
F0.125
S'last'
p1746
I0
tp1747
as(S'turn'
p1748
S'by'
p1749
S'turn'
p1750
tp1751
(lp1752
(I5
I108
I0
g388
I0
tp1753
a(I20
I11
F0.375
g390
I0
tp1754
a(I22
I226
I0
g392
I0
tp1755
as(S'nokia'
p1756
S'lumia'
p1757
tp1758
(lp1759
(I5
I12
I0
g1559
I0
tp1760
a(I8
I77
F-0.875
S'regret'
p1761
I0
tp1762
a(I8
I182
F0.375
S'newer'
p1763
I0
tp1764
a(I8
I337
F-0.125
g1570
I0
tp1765
a(I8
I337
F0.5
S'recommended'
p1766
I0
tp1767
a(I10
I94
F1.0
S'good'
p1768
I0
tp1769
a(I10
I140
F1.0
S'best'
p1770
I0
tp1771
a(I16
I38
F0.125
g1595
I0
tp1772
a(I18
I73
F-0.625
S'glad'
p1773
I0
tp1774
a(I18
I82
F0.875
S'attractive'
p1775
I0
tp1776
a(I25
I2
F-0.375
g1626
I0
tp1777
a(I29
I116
F0.375
g1643
I0
tp1778
a(I30
I9
F0.375
S'new'
p1779
I0
tp1780
a(I0
I22
F0.625
S'notice'
p1781
I0
tp1782
a(I3
I1
I0
S'arrival'
p1783
I0
tp1784
a(I5
I6
I0
S'blue'
p1785
I0
tp1786
a(I5
I25
F0.5
S'tall'
p1787
I0
tp1788
a(I5
I27
I0
S'next'
p1789
I0
tp1790
a(I5
I94
F1.0
S'better'
p1791
I0
tp1792
a(I8
I77
F-0.875
g1761
I0
tp1793
a(I8
I96
F0.375
S'much'
p1794
I0
tp1795
a(I8
I100
F1.0
S'good'
p1796
I0
tp1797
a(I8
I112
F0.875
S'music'
p1798
I0
tp1799
a(I8
I182
F0.375
g1763
I0
tp1800
a(I8
I232
F-0.375
S'black'
p1801
I0
tp1802
a(I8
I337
F0.5
g1766
I0
tp1803
a(I9
I54
F-0.5
S'less'
p1804
I0
tp1805
a(I9
I54
F0.5
S'second'
p1806
I0
tp1807
a(I10
I50
F-0.25
S'yellow'
p1808
I0
tp1809
a(I10
I94
F1.0
g1768
I0
tp1810
a(I10
I126
F1.0
S'best'
p1811
I0
tp1812
a(I10
I140
F1.0
g1770
I0
tp1813
a(I10
I172
F-0.5
S'heavy'
p1814
I0
tp1815
a(I10
I177
I0
S'same'
p1816
I0
tp1817
a(I12
I43
F0.375
S'new'
p1818
I0
tp1819
a(I14
I80
I0
S'such'
p1820
I0
tp1821
a(I18
I73
F-0.625
g1773
I0
tp1822
a(I18
I82
F0.875
g1775
I0
tp1823
a(I18
I159
F0.375
S'much'
p1824
I0
tp1825
a(I18
I345
F-0.75
S'wrong'
p1826
I0
tp1827
a(I21
I13
F0.5
S'upgraded'
p1828
I0
tp1829
a(I22
I317
F-0.375
S'crash'
p1830
I0
tp1831
a(I22
I337
F-0.25
S'epic'
p1832
I0
tp1833
a(I22
I395
F-0.125
S'overall'
p1834
I0
tp1835
a(I23
I35
F0.375
S'new'
p1836
I0
tp1837
a(I23
I85
F0.375
S'new'
p1838
I0
tp1839
a(I25
I72
F0.875
S'attractive'
p1840
I0
tp1841
a(I25
I350
F-0.75
S'impossible'
p1842
I0
tp1843
a(I27
I14
I0
S'most'
p1844
I0
tp1845
a(I27
I100
F1.0
S'good'
p1846
I0
tp1847
a(I30
I9
F0.375
g1779
I0
tp1848
as(S'nokia'
p1849
S'maps'
p1850
tp1851
(lp1852
(I13
I196
F-0.625
S'free'
p1853
I0
tp1854
a(I13
I196
F1.0
S'best'
p1855
I0
tp1856
a(I14
I66
F0.125
S'first'
p1857
I0
tp1858
a(I14
I66
F0.125
S'impressive'
p1859
I0
tp1860
a(I22
I87
F0.5
g1552
I0
tp1861
a(I25
I57
F-0.75
S'plain'
p1862
I0
tp1863
a(I30
I10
I0
S'same'
p1864
I0
tp1865
a(I5
I78
F-0.5
S'sure'
p1866
I5
tp1867
a(I5
I108
F-0.125
S'overall'
p1868
I5
tp1869
a(I5
I108
F0.375
S'new'
p1870
I5
tp1871
a(I13
I196
F-0.625
g1853
I5
tp1872
a(I13
I196
F1.0
g1855
I5
tp1873
a(I14
I66
F0.125
g1857
I5
tp1874
a(I14
I66
F0.125
g1859
I5
tp1875
a(I14
I176
F-0.875
S'hard'
p1876
I5
tp1877
a(I14
I208
F0.5
S'functional'
p1878
I5
tp1879
a(I14
I208
F-0.75
S'off-line'
p1880
I5
tp1881
a(I14
I431
I0
S'phenomenal'
p1882
I5
tp1883
a(I22
I61
F0.125
S'native'
p1884
I5
tp1885
a(I23
I100
F1.0
S'good'
p1886
I5
tp1887
a(I23
I100
F-0.25
S'google'
p1888
I5
tp1889
a(I25
I57
F-0.75
g1862
I5
tp1890
a(I30
I10
I0
g1864
I5
tp1891
as(S'office'
p1892
tp1893
(lp1894
(I14
I164
I0
S'traditional'
p1895
I15
tp1896
a(I14
I166
I0
S'full'
p1897
I15
tp1898
a(I14
I166
F0.5
S'compatible'
p1899
I15
tp1900
a(I14
I166
F0.875
S'important'
p1901
I15
tp1902
a(I16
I6
F-0.5
S'heavy'
p1903
I15
tp1904
as(S'public'
p1905
S'transportation'
p1906
tp1907
(lp1908
(I13
I181
F-0.125
S'public'
p1909
I0
tp1910
a(I14
I218
F-0.125
S'public'
p1911
I0
tp1912
a(I25
I57
F-0.125
S'public'
p1913
I0
tp1914
as(S'street'
p1915
S'names'
p1916
tp1917
(lp1918
(I13
I68
I0
S'wish'
p1919
I1
tp1920
as(S'build'
p1921
S'quality'
p1922
tp1923
(lp1924
(I5
I99
F1.0
S'good'
p1925
I2
tp1926
a(I5
I99
I0
S'high'
p1927
I2
tp1928
a(I5
I166
I0
S'great'
p1929
I2
tp1930
a(I6
I105
I0
S'great'
p1931
I2
tp1932
a(I6
I218
F0.5
S'obvious'
p1933
I2
tp1934
a(I8
I174
I0
S'sturdier'
p1935
I2
tp1936
a(I11
I63
F0.5
S'true'
p1937
I2
tp1938
a(I11
I63
I0
S'great'
p1939
I2
tp1940
a(I17
I10
F-0.125
S'overall'
p1941
I2
tp1942
a(I25
I329
F0.125
S'solid'
p1943
I2
tp1944
a(I27
I47
I0
S'great'
p1945
I2
tp1946
as(S'facebook'
p1947
tp1948
(lp1949
(I6
I49
F0.875
S'nice'
p1950
I0
tp1951
a(I9
I134
I0
S'many'
p1952
I0
tp1953
a(I14
I26
F0.25
S'recent'
p1954
I0
tp1955
a(I18
I132
F0.25
S'original'
p1956
I0
tp1957
a(I24
I27
I0
S'upload'
p1958
I0
tp1959
as.