(dp0
(S'e.'
p1
S'g.'
p2
tp3
(lp4
(I24
I3
I0
S'tech'
p5
I0
tp6
a(I24
I22
F1.0
S'best'
p7
I0
tp8
as(S'tracfone'
p9
S'service'
p10
tp11
(lp12
(I9
I3
I0
S'old'
p13
I0
tp14
a(I13
I8
F1.0
S'good'
p15
I0
tp16
a(I24
I34
F-0.625
S'free'
p17
I0
tp18
a(I24
I36
F1.0
S'best'
p19
I0
tp20
a(I25
I1
I0
S'old'
p21
I0
tp22
a(I25
I1
F-0.375
S'simple'
p23
I0
tp24
a(I3
I128
I0
S'site'
p25
I0
tp26
a(I3
I142
F0.375
S'new'
p27
I0
tp28
a(I4
I0
I0
S'current'
p29
I0
tp30
a(I9
I3
I0
g13
I0
tp31
a(I9
I8
F-0.625
S'other'
p32
I0
tp33
a(I14
I13
I0
S'old'
p34
I0
tp35
a(I17
I7
F0.25
S'biggest'
p36
I0
tp37
a(I24
I20
F0.125
S'able'
p38
I0
tp39
a(I24
I34
F-0.625
g17
I0
tp40
a(I25
I1
I0
g21
I0
tp41
a(I25
I1
F-0.375
g23
I0
tp42
as(S'monthly'
p43
S'bill'
p44
tp45
(lp46
(I16
I124
I0
S'monthly'
p47
I0
tp48
as(S'a'
p49
S'great'
p50
S'deal'
p51
tp52
(lp53
(I0
I44
I0
S'great'
p54
I9
tp55
a(I3
I144
I0
S'great'
p56
I9
tp57
a(I7
I34
I0
S'great'
p58
I9
tp59
a(I7
I34
I0
S'great'
p60
I9
tp61
a(I18
I6
I0
S'great'
p62
I9
tp63
a(I25
I0
I0
S'great'
p64
I9
tp65
a(I25
I2
I0
S'great'
p66
I9
tp67
a(I25
I34
I0
S'great'
p68
I9
tp69
a(I25
I58
I0
S'great'
p70
I9
tp71
a(I0
I44
I0
g54
I10
tp72
a(I3
I144
I0
g56
I10
tp73
a(I7
I34
I0
g58
I10
tp74
a(I7
I34
I0
g60
I10
tp75
a(I18
I6
I0
g62
I10
tp76
a(I25
I0
I0
g64
I10
tp77
a(I25
I2
I0
g66
I10
tp78
a(I25
I34
I0
g68
I10
tp79
a(I25
I58
I0
g70
I10
tp80
as(S'activation'
p81
tp82
(lp83
(I3
I18
F0.625
S'successful'
p84
I0
tp85
a(I5
I51
F0.875
S'happy'
p86
I0
tp87
a(I24
I16
F-0.25
S'past'
p88
I0
tp89
as(S'200'
p90
S'minutes'
p91
tp92
(lp93
(I19
I13
F-0.25
S'triple'
p94
I0
tp95
a(I24
I45
F0.375
S'extra'
p96
I0
tp97
as(S'triple'
p98
S'minutes'
p99
tp100
(lp101
(I19
I13
F-0.25
g94
I0
tp102
a(I24
I45
F0.375
g96
I0
tp103
as(S'plus'
p104
tp105
(lp106
(I6
I2
F0.75
S'definite'
p107
I16
tp108
a(I17
I10
I0
S'big'
p109
I16
tp110
as(S'one'
p111
S'year'
p112
tp113
(lp114
(I3
I8
I0
S'old'
p115
I2
tp116
a(I5
I49
I0
S'included'
p117
I2
tp118
a(I8
I5
F0.75
S'worth'
p119
I2
tp120
a(I20
I3
I0
S'old'
p121
I2
tp122
as(S'transfer'
p123
tp124
(lp125
(I3
I136
F0.5
S'true'
p126
I1
tp127
as(S'minutes'
p128
S'and'
p129
S'service'
p130
tp131
(lp132
(I0
I72
F-0.375
S'double'
p133
I0
tp134
a(I13
I1
I0
S'more'
p135
I0
tp136
a(I14
I8
I0
S'such'
p137
I0
tp138
a(I19
I0
I0
S'later'
p139
I0
tp140
a(I20
I9
F0.875
S'happy'
p141
I0
tp142
a(I0
I2
F0.125
S'able'
p143
I16
tp144
a(I5
I47
F1.0
S'good'
p145
I16
tp146
a(I11
I4
I0
S'most'
p147
I16
tp148
a(I13
I8
F1.0
g15
I16
tp149
a(I20
I9
F0.875
g141
I16
tp150
a(I21
I1
F1.0
S'good'
p151
I16
tp152
a(I24
I19
F1.0
S'good'
p153
I16
tp154
a(I24
I36
F1.0
g19
I16
tp155
as(S'new'
p156
S'sim'
p157
S'card'
p158
tp159
(lp160
(I3
I127
F0.375
S'new'
p161
I0
tp162
a(I9
I3
F0.375
S'new'
p163
I0
tp164
a(I9
I5
F0.375
S'new'
p165
I0
tp166
a(I23
I2
F0.375
S'new'
p167
I0
tp168
a(I3
I127
F0.375
g161
I0
tp169
a(I9
I3
F0.375
g163
I0
tp170
a(I9
I5
F0.375
g165
I0
tp171
a(I23
I2
F0.375
g167
I0
tp172
a(I3
I127
F0.375
g161
I0
tp173
a(I9
I3
F0.375
g163
I0
tp174
a(I9
I5
F0.375
g165
I0
tp175
a(I23
I2
F0.375
g167
I0
tp176
as(S'service'
p177
S'time'
p178
tp179
(lp180
(I11
I4
I0
g147
I0
tp181
a(I25
I2
F-0.625
S'want'
p182
I0
tp183
as(S'calls'
p184
tp185
(lp186
(I0
I45
I0
S'local'
p187
I0
tp188
a(I0
I51
F-0.5
S'long'
p189
I0
tp190
a(I0
I61
F-0.5
S'international'
p191
I0
tp192
a(I0
I62
I0
S'overseas'
p193
I0
tp194
a(I0
I64
F-0.5
S'international'
p195
I0
tp196
a(I1
I8
F0.375
S'mean'
p197
I0
tp198
a(I3
I123
I0
S'overseas'
p199
I0
tp200
a(I14
I9
I0
S'few'
p201
I0
tp202
a(I15
I16
F-0.125
S'overall'
p203
I0
tp204
a(I16
I7
F0.125
S'able'
p205
I0
tp206
as(S'year'
p207
S'service'
p208
tp209
(lp210
(I13
I8
F1.0
g15
I0
tp211
as(S'rollover'
p212
S'minutes'
p213
tp214
(lp215
(I25
I5
I0
S'old'
p216
I0
tp217
a(I25
I14
I0
S'old'
p218
I0
tp219
as(S'other'
p220
S'things'
p221
tp222
(lp223
(I15
I16
F-0.625
S'other'
p224
I3
tp225
a(I15
I16
F-0.75
S'difficult'
p226
I3
tp227
a(I16
I67
F-0.625
S'other'
p228
I3
tp229
a(I16
I67
F0.125
S'equal'
p230
I3
tp231
a(I16
I94
F-0.625
S'other'
p232
I3
tp233
a(I17
I13
F0.5
S'true'
p234
I3
tp235
a(I17
I13
I0
S'many'
p236
I3
tp237
a(I17
I13
F-0.625
S'other'
p238
I3
tp239
as(S'1'
p240
S'year'
p241
tp242
(lp243
(I3
I8
I0
g115
I10
tp244
a(I5
I49
I0
g117
I10
tp245
a(I16
I26
I0
S'old'
p246
I10
tp247
as(S'customer'
p248
S'service'
p249
tp250
(lp251
(I16
I8
I0
S'different'
p252
I3
tp253
a(I16
I11
F1.0
S'good'
p254
I3
tp255
a(I16
I15
F-0.75
S'wrong'
p256
I3
tp257
a(I16
I37
F-0.75
S'short'
p258
I3
tp259
a(I24
I19
F1.0
g153
I3
tp260
a(I24
I36
F1.0
g19
I3
tp261
a(I16
I8
I0
g252
I11
tp262
a(I16
I11
F1.0
g254
I11
tp263
a(I16
I15
F-0.75
g256
I11
tp264
a(I16
I37
F-0.75
g258
I11
tp265
as(S'good'
p266
S'deal'
p267
tp268
(lp269
(I3
I128
F1.0
S'good'
p270
I6
tp271
a(I15
I21
F-0.125
S'overall'
p272
I6
tp273
a(I15
I21
F1.0
S'good'
p274
I6
tp275
a(I16
I111
F1.0
S'good'
p276
I6
tp277
a(I20
I2
F1.0
S'good'
p278
I6
tp279
a(I24
I30
F1.0
S'good'
p280
I6
tp281
as(S'touch'
p282
S'screen'
p283
tp284
(lp285
(I3
I12
F0.5
S'touch'
p286
I2
tp287
a(I5
I32
F0.5
S'touch'
p288
I2
tp289
a(I8
I6
F0.5
S'touch'
p290
I2
tp291
a(I8
I6
F-0.625
S'free'
p292
I2
tp293
a(I11
I15
F0.5
S'touch'
p294
I2
tp295
a(I11
I15
I0
S'sensitive'
p296
I2
tp297
a(I16
I0
F0.5
S'touch'
p298
I2
tp299
a(I16
I0
F0.625
S'easy'
p300
I2
tp301
a(I16
I65
I0
S'capacitive'
p302
I2
tp303
a(I16
I72
F0.5
S'touch'
p304
I2
tp305
a(I21
I7
F0.5
S'touch'
p306
I2
tp307
a(I22
I0
F0.5
S'touch'
p308
I2
tp309
a(I22
I0
F0.125
S'able'
p310
I2
tp311
a(I25
I37
F0.5
S'touch'
p312
I2
tp313
as.