(dp0
(S'galaxy'
p1
S's3'
p2
tp3
(lp4
(I23
I3
F-0.375
S'smaller'
p5
I0
tp6
as(S'waste'
p7
S'of'
p8
S'money'
p9
tp10
(lp11
(I8
I1
I0
S'big'
p12
I4
tp13
a(I14
I1
F0.75
S'worth'
p14
I12
tp15
as(S'new'
p16
S'phone'
p17
tp18
(lp19
(I0
I0
I0
S'full'
p20
I0
tp21
a(I0
I0
F0.375
S'new'
p22
I0
tp23
a(I13
I9
F0.375
S'new'
p24
I0
tp25
a(I22
I0
F0.375
S'new'
p26
I0
tp27
as(S'touch'
p28
S'screen'
p29
tp30
(lp31
(I2
I0
F0.5
S'touch'
p32
I2
tp33
a(I11
I1
F0.5
S'touch'
p34
I2
tp35
a(I11
I2
F-0.25
S'inexpensive'
p36
I2
tp37
a(I11
I2
F0.5
S'touch'
p38
I2
tp39
as.