(dp0
(S'external'
p1
S'sd'
p2
S'card'
p3
tp4
(lp5
(I0
I57
I0
S'external'
p6
I0
tp7
a(I0
I61
I0
S'external'
p8
I0
tp9
a(I0
I62
I0
S'external'
p10
I0
tp11
a(I3
I31
I0
S'external'
p12
I0
tp13
a(I3
I31
I0
S'external'
p14
I0
tp15
a(I0
I57
I0
g6
I0
tp16
a(I0
I61
I0
g8
I0
tp17
a(I0
I62
I0
g10
I0
tp18
a(I3
I31
I0
g12
I0
tp19
a(I3
I31
I0
g14
I0
tp20
a(I4
I16
F-0.625
S'useless'
p21
I0
tp22
a(I5
I52
I0
S'big'
p23
I0
tp24
a(I5
I52
F0.875
S'music'
p25
I0
tp26
as(S'large'
p27
S'screen'
p28
tp29
(lp30
(I0
I55
F0.875
S'nice'
p31
I3
tp32
a(I0
I55
I0
S'large'
p33
I3
tp34
a(I4
I14
I0
S'large'
p35
I3
tp36
a(I4
I17
I0
S'large'
p37
I3
tp38
a(I5
I22
F0.25
S'larger'
p39
I3
tp40
a(I5
I96
I0
S'large'
p41
I3
tp42
a(I5
I106
I0
S'large'
p43
I3
tp44
as(S'apps'
p45
S'to'
p46
S'sd'
p47
tp48
(lp49
(I0
I59
I0
S'external'
p50
I0
tp51
a(I3
I156
I0
S'many'
p52
I0
tp53
a(I4
I16
F-0.625
g21
I0
tp54
a(I1
I8
F0.375
S'new'
p55
I0
tp56
a(I1
I12
F-0.375
S'smooth'
p57
I0
tp58
a(I1
I12
F-0.5
S'open'
p59
I0
tp60
a(I1
I12
I0
S'close'
p61
I0
tp62
a(I3
I100
F-0.625
S'other'
p63
I0
tp64
a(I3
I156
I0
g52
I0
tp65
a(I3
I185
I0
S'many'
p66
I0
tp67
a(I5
I25
I0
S'many'
p68
I0
tp69
a(I5
I37
I0
S'few'
p70
I0
tp71
a(I5
I53
I0
S'downloaded'
p72
I0
tp73
a(I5
I73
F0.25
S'favorite'
p74
I0
tp75
as(S'android'
p76
tp77
(lp78
(I5
I81
I0
S'latest'
p79
I0
tp80
a(I5
I89
I0
S'basic'
p81
I0
tp82
a(I5
I127
F0.125
S'first'
p83
I0
tp84
as(S'mobile'
p85
tp86
(lp87
(I0
I73
I-100
S'com/share2earngreat'
p88
I0
tp89
a(I1
I4
F0.75
S'constant'
p90
I0
tp91
as(S'much'
p92
S'better'
p93
tp94
(lp95
(I0
I27
F0.375
S'much'
p96
I9
tp97
a(I5
I46
F0.375
S'much'
p98
I9
tp99
a(I5
I100
F0.375
S'much'
p100
I9
tp101
a(I5
I100
I0
S'older'
p102
I9
tp103
as(S'wifi'
p104
tp105
(lp106
(I4
I14
F0.875
S'nice'
p107
I0
tp108
a(I5
I47
I0
S'sensitive'
p109
I0
tp110
a(I5
I141
I0
S'great'
p111
I0
tp112
as(S'samsung'
p113
tp114
(lp115
(I0
I44
F1.0
S'better'
p116
I7
tp117
a(I5
I39
I0
S'faster'
p118
I7
tp119
a(I5
I39
F-0.375
S'smoother'
p120
I7
tp121
a(I5
I39
I0
S'old'
p122
I7
tp123
a(I5
I94
F0.625
S'easy'
p124
I7
tp125
a(I5
I94
I0
S'old'
p126
I7
tp127
as(S'internal'
p128
S'memory'
p129
tp130
(lp131
(I0
I11
I0
S'internal'
p132
I0
tp133
a(I3
I27
I0
S'internal'
p134
I0
tp135
a(I3
I55
I0
S'internal'
p136
I0
tp137
a(I5
I36
I0
S'internal'
p138
I0
tp139
a(I5
I36
I0
S'external'
p140
I0
tp141
a(I0
I11
I0
g132
I5
tp142
a(I3
I27
I0
g134
I5
tp143
a(I3
I55
I0
g136
I5
tp144
a(I4
I16
F-0.5
S'less'
p145
I5
tp146
a(I5
I36
I0
g138
I5
tp147
a(I5
I36
I0
g140
I5
tp148
as(S'camera'
p149
tp150
(lp151
(I0
I62
F0.125
S'native'
p152
I1
tp153
a(I3
I38
F-0.625
S'bad'
p154
I1
tp155
a(I3
I141
I0
S'whiskey'
p156
I1
tp157
as(S'battery'
p158
S'life'
p159
tp160
(lp161
(I5
I56
F1.0
S'good'
p162
I1
tp163
a(I5
I89
F0.625
S'acceptable'
p164
I1
tp165
a(I5
I56
F1.0
g162
I19
tp166
a(I5
I89
F0.625
g164
I19
tp167
a(I1
I13
F0.125
S'last'
p168
I15
tp169
a(I1
I13
F-0.5
S'long'
p170
I15
tp171
a(I3
I17
F0.875
S'happier'
p172
I15
tp173
a(I3
I17
F-0.875
S'unhappy'
p174
I15
tp175
a(I3
I151
I0
S'fast'
p176
I15
tp177
a(I3
I151
F0.125
S'last'
p178
I15
tp179
a(I5
I97
F0.125
S'last'
p180
I15
tp181
as.