(dp0
(S'galaxy'
p1
S'victory'
p2
tp3
(lp4
(I10
I3
F0.875
S'happy'
p5
I0
tp6
a(I13
I9
F0.375
S'new'
p7
I0
tp8
a(I13
I70
F0.375
S'much'
p9
I0
tp10
a(I13
I70
F0.375
g9
I0
tp11
a(I13
I127
F1.0
S'good'
p12
I0
tp13
a(I17
I66
F-0.125
S'slow'
p14
I0
tp15
as(S'memory'
p16
S'card'
p17
tp18
(lp19
(I9
I99
F0.5
S'greater'
p20
I0
tp21
a(I17
I48
I0
S'internal'
p22
I0
tp23
a(I26
I30
F-0.25
S'low'
p24
I0
tp25
a(I32
I30
I0
S'external'
p26
I0
tp27
a(I38
I10
I0
S'internal'
p28
I0
tp29
a(I3
I2
F-0.625
S'free'
p30
I5
tp31
a(I9
I60
I0
S'different'
p32
I5
tp33
a(I9
I65
I0
S'total'
p34
I5
tp35
a(I9
I99
F0.5
g20
I5
tp36
a(I16
I33
I0
S'internal'
p37
I5
tp38
a(I17
I7
I0
S'internal'
p39
I5
tp40
a(I17
I7
I0
S'only'
p41
I5
tp42
a(I17
I46
I0
S'internal'
p43
I5
tp44
a(I17
I48
I0
g22
I5
tp45
a(I17
I49
I0
S'full'
p46
I5
tp47
a(I21
I28
I0
S'external'
p48
I5
tp49
a(I26
I30
F-0.25
g24
I5
tp50
a(I32
I3
F-0.75
S'little'
p51
I5
tp52
a(I32
I3
I0
S'physical'
p53
I5
tp54
a(I32
I30
I0
g26
I5
tp55
a(I32
I67
I0
S'internal'
p56
I5
tp57
a(I32
I77
F0.375
S'much'
p58
I5
tp59
a(I38
I10
I0
g28
I5
tp60
a(I39
I33
F-0.625
S'other'
p61
I5
tp62
a(I39
I33
I0
S'internal'
p63
I5
tp64
a(I40
I15
I0
S'internal'
p65
I5
tp66
as(S'tech'
p67
S'support'
p68
tp69
(lp70
(I13
I87
I0
S'tech'
p71
I1
tp72
a(I39
I33
I0
S'mobile'
p73
I1
tp74
as(S'call'
p75
S'quality'
p76
tp77
(lp78
(I9
I119
I0
S'great'
p79
I0
tp80
a(I13
I42
F-0.625
S'bad'
p81
I0
tp82
a(I13
I132
F1.0
S'good'
p83
I0
tp84
a(I16
I6
F1.0
S'good'
p85
I0
tp86
a(I16
I25
F1.0
S'good'
p87
I0
tp88
a(I36
I92
F-0.5
S'call'
p89
I0
tp90
a(I40
I49
F0.5
S'flat'
p91
I0
tp92
as(S'service'
p93
tp94
(lp95
(I4
I7
I0
S'same'
p96
I16
tp97
a(I5
I27
I0
S'cellular'
p98
I16
tp99
a(I21
I21
F1.0
S'good'
p100
I16
tp101
a(I21
I57
F1.0
S'good'
p102
I16
tp103
a(I22
I55
I0
S'great'
p104
I16
tp105
a(I26
I13
F1.0
S'good'
p106
I16
tp107
a(I32
I12
F0.625
S'easy'
p108
I16
tp109
a(I32
I24
F-0.625
S'other'
p110
I16
tp111
a(I39
I23
F0.625
S'easy'
p112
I16
tp113
a(I39
I25
F1.0
S'best'
p114
I16
tp115
as(S'coverage'
p116
tp117
(lp118
(I5
I20
F0.375
S'complete'
p119
I0
tp120
a(I5
I22
I0
S'full'
p121
I0
tp122
a(I13
I18
F-0.75
S'unreliable'
p123
I0
tp124
a(I21
I57
F0.75
S'worth'
p125
I0
tp126
a(I32
I60
F0.25
S'broad'
p127
I0
tp128
a(I32
I62
F1.0
S'good'
p129
I0
tp130
as(S'great'
p131
S'deal'
p132
tp133
(lp134
(I11
I10
I0
S'great'
p135
I10
tp136
a(I11
I53
I0
S'great'
p137
I10
tp138
a(I19
I25
I0
S'great'
p139
I10
tp140
a(I32
I62
I0
S'great'
p141
I10
tp142
as(S'front'
p143
S'facing'
p144
S'camera'
p145
tp146
(lp147
(I9
I34
F0.25
S'sharper'
p148
I0
tp149
a(I14
I9
I0
S'great'
p150
I0
tp151
a(I14
I9
I0
S'rear'
p152
I0
tp153
a(I14
I9
F0.875
S'nice'
p154
I0
tp155
a(I14
I9
I0
g152
I0
tp156
a(I36
I54
F-0.5
S'regular'
p157
I0
tp158
a(I9
I34
F0.25
g148
I0
tp159
a(I14
I9
I0
g150
I0
tp160
a(I14
I9
I0
g152
I0
tp161
a(I14
I9
F0.875
g154
I0
tp162
a(I22
I92
I0
S'rear'
p163
I0
tp164
a(I9
I34
F0.25
g148
I1
tp165
a(I11
I21
I0
S'great'
p166
I1
tp167
a(I13
I38
I0
S'great'
p168
I1
tp169
a(I13
I39
I0
S'more'
p170
I1
tp171
a(I13
I39
I0
S'great'
p172
I1
tp173
a(I13
I39
I0
S'serviceable'
p174
I1
tp175
a(I13
I41
I0
S'great'
p176
I1
tp177
a(I14
I9
I0
g150
I1
tp178
a(I14
I9
F0.875
g154
I1
tp179
a(I17
I66
F0.625
S'decent'
p180
I1
tp181
a(I22
I47
I0
S'real'
p182
I1
tp183
a(I22
I48
F1.0
S'good'
p184
I1
tp185
a(I22
I86
I0
S'stable'
p186
I1
tp187
a(I23
I9
I0
S'great'
p188
I1
tp189
a(I24
I10
F-0.125
S'front'
p190
I1
tp191
a(I32
I51
F1.0
S'good'
p192
I1
tp193
a(I37
I2
I0
S'detailed'
p194
I1
tp195
a(I37
I2
F0.25
S'stellar'
p196
I1
tp197
as(S'samsung'
p198
S'galaxy'
p199
tp200
(lp201
(I32
I37
F0.5
S'upgraded'
p202
I0
tp203
a(I9
I143
F-0.875
S'load'
p204
I7
tp205
a(I9
I143
I0
S'own'
p206
I7
tp207
a(I14
I5
I0
S'many'
p208
I7
tp209
a(I14
I53
F0.5
S'second'
p210
I7
tp211
a(I32
I37
F0.5
g202
I7
tp212
a(I34
I34
I0
S'such'
p213
I7
tp214
a(I40
I13
I0
S'own'
p215
I7
tp216
a(I4
I9
I0
S'old'
p217
I0
tp218
a(I10
I3
F0.875
g5
I0
tp219
a(I13
I9
F0.375
g7
I0
tp220
a(I13
I60
I0
S'thick'
p221
I0
tp222
a(I13
I80
F-0.375
S'smaller'
p223
I0
tp224
a(I26
I16
I0
S'notable'
p225
I0
tp226
a(I26
I16
F0.5
S'expensive'
p227
I0
tp228
a(I36
I42
I0
S'same'
p229
I0
tp230
as(S'social'
p231
S'media'
p232
tp233
(lp234
(I17
I49
I0
S'social'
p235
I0
tp236
a(I19
I2
I0
S'social'
p237
I0
tp238
a(I36
I12
F-0.625
S'other'
p239
I0
tp240
a(I36
I12
I0
S'social'
p241
I0
tp242
as(S'on'
p243
S'sd'
p244
S'card'
p245
tp246
(lp247
(I3
I25
I0
S'internal'
p248
I0
tp249
a(I9
I14
I0
S'big'
p250
I0
tp251
a(I9
I56
F0.625
S'accessible'
p252
I0
tp253
a(I11
I18
I0
S'external'
p254
I0
tp255
a(I12
I2
I0
S'sd'
p256
I0
tp257
a(I32
I76
I0
S'external'
p258
I0
tp259
a(I32
I76
F0.125
S'able'
p260
I0
tp261
a(I40
I14
I0
S'big'
p262
I0
tp263
a(I3
I25
I0
g248
I0
tp264
a(I9
I14
I0
g250
I0
tp265
a(I9
I56
F0.625
g252
I0
tp266
a(I11
I18
I0
g254
I0
tp267
a(I12
I2
I0
g256
I0
tp268
a(I32
I76
I0
g258
I0
tp269
a(I32
I76
F0.125
g260
I0
tp270
a(I40
I14
I0
g262
I0
tp271
as(S'lg'
p272
S'optimus'
p273
tp274
(lp275
(I9
I147
F0.25
S'elite'
p276
I0
tp277
a(I19
I10
F1.0
S'better'
p278
I0
tp279
a(I36
I67
F0.25
S'elite'
p280
I0
tp281
a(I3
I19
I0
S'old'
p282
I0
tp283
a(I9
I95
F-0.75
S'little'
p284
I0
tp285
a(I9
I99
I0
S'old'
p286
I0
tp287
as(S'android'
p288
tp289
(lp290
(I11
I58
I0
S'great'
p291
I0
tp292
a(I11
I58
F0.375
S'new'
p293
I0
tp294
a(I26
I7
F-0.25
S'modern'
p295
I0
tp296
a(I32
I74
F-0.5
S'sure'
p297
I0
tp298
a(I39
I29
F1.0
S'good'
p299
I0
tp300
as(S'takes'
p301
tp302
(lp303
(I22
I2
F-0.5
S'complaint'
p304
I19
tp305
as(S'apps'
p306
S'to'
p307
S'sd'
p308
tp309
(lp310
(I3
I25
I0
g248
I0
tp311
a(I38
I10
I0
S'own'
p312
I0
tp313
a(I1
I24
I0
S'many'
p314
I0
tp315
a(I9
I96
F-0.625
S'free'
p316
I0
tp317
a(I11
I19
I0
S'few'
p318
I0
tp319
a(I17
I16
F0.25
S'favorite'
p320
I0
tp321
a(I17
I53
I0
S'many'
p322
I0
tp323
a(I21
I2
I0
S'many'
p324
I0
tp325
a(I21
I2
F-0.25
S'google'
p326
I0
tp327
a(I21
I2
F0.625
S'removable'
p328
I0
tp329
a(I22
I24
I0
S'few'
p330
I0
tp331
a(I22
I28
F-0.125
S'slow'
p332
I0
tp333
a(I22
I87
I0
S'faster'
p334
I0
tp335
a(I25
I0
F-0.125
S'cant'
p336
I0
tp337
a(I27
I5
F-0.75
S'short'
p338
I0
tp339
a(I27
I5
I0
S'few'
p340
I0
tp341
a(I27
I5
F0.5
S'drive'
p342
I0
tp343
a(I32
I50
I0
S'faster'
p344
I0
tp345
a(I34
I7
I0
S'own'
p346
I0
tp347
a(I36
I12
F-0.625
S'other'
p348
I0
tp349
a(I36
I27
I0
S'quick'
p350
I0
tp351
a(I36
I69
F0.375
S'much'
p352
I0
tp353
a(I38
I10
I0
g312
I0
tp354
a(I40
I15
F-0.375
S'crazy'
p355
I0
tp356
as(S'storage'
p357
S'space'
p358
tp359
(lp360
(I9
I125
I0
S'internal'
p361
I0
tp362
a(I19
I21
I0
S'adequate'
p363
I0
tp364
a(I22
I18
I0
S'internal'
p365
I0
tp366
a(I36
I44
F-0.875
S'negative'
p367
I0
tp368
a(I38
I11
I0
S'valuable'
p369
I0
tp370
a(I38
I11
I0
S'external'
p371
I0
tp372
a(I9
I125
I0
g361
I1
tp373
a(I14
I35
I0
S'internal'
p374
I1
tp375
a(I14
I36
I0
S'internal'
p376
I1
tp377
a(I14
I37
I0
S'internal'
p378
I1
tp379
a(I16
I32
I0
S'external'
p380
I1
tp381
a(I22
I18
I0
g365
I1
tp382
a(I36
I44
F-0.875
g367
I1
tp383
a(I38
I11
I0
g369
I1
tp384
a(I38
I11
I0
g371
I1
tp385
as(S'upgrade'
p386
tp387
(lp388
(I3
I18
F0.75
S'worth'
p389
I3
tp390
a(I11
I57
I0
S'great'
p391
I3
tp392
a(I13
I70
I0
S'great'
p393
I3
tp394
a(I36
I39
F0.875
S'nice'
p395
I3
tp396
a(I40
I7
I0
S'big'
p397
I3
tp398
as(S'network'
p399
tp400
(lp401
(I13
I100
F-0.625
S'other'
p402
I0
tp403
a(I16
I42
F-0.875
S'worst'
p404
I0
tp405
a(I16
I43
F1.0
S'best'
p406
I0
tp407
a(I23
I22
F1.0
S'better'
p408
I0
tp409
a(I36
I83
I0
S'such'
p410
I0
tp411
as(S'calls'
p412
tp413
(lp414
(I8
I21
F-0.5
S'sure'
p415
I0
tp416
a(I11
I26
F1.0
S'good'
p417
I0
tp418
a(I38
I3
I0
S'basic'
p419
I0
tp420
a(I40
I49
F-0.25
S'amazed'
p421
I0
tp422
a(I40
I49
F0.5
S'clear'
p423
I0
tp424
as(S'on'
p425
S'virgin'
p426
S'mobile'
p427
tp428
(lp429
(I2
I12
I0
S'later'
p430
I0
tp431
a(I5
I0
I0
S'mobile'
p432
I0
tp433
a(I10
I8
F0.375
S'reliable'
p434
I0
tp435
a(I11
I1
F-0.625
S'other'
p436
I0
tp437
a(I16
I42
F0.125
S'first'
p438
I0
tp439
a(I22
I59
F0.875
S'nice'
p440
I0
tp441
a(I22
I59
F0.125
S'last'
p442
I0
tp443
a(I24
I0
F1.0
S'best'
p444
I0
tp445
a(I32
I1
I0
S'great'
p446
I0
tp447
a(I39
I17
F0.625
S'easy'
p448
I0
tp449
a(I2
I12
I0
g430
I0
tp450
a(I5
I0
I0
g432
I0
tp451
a(I10
I8
F0.375
g434
I0
tp452
a(I11
I1
F-0.625
g436
I0
tp453
a(I13
I141
F0.125
S'last'
p454
I0
tp455
a(I16
I42
F0.125
g438
I0
tp456
a(I22
I15
F-0.5
S'less'
p457
I0
tp458
a(I22
I59
F0.875
g440
I0
tp459
a(I22
I59
F0.125
g442
I0
tp460
a(I24
I0
F1.0
g444
I0
tp461
a(I32
I1
I0
g446
I0
tp462
a(I36
I77
F-0.125
S'overall'
p463
I0
tp464
a(I39
I17
F0.625
g448
I0
tp465
a(I5
I0
I0
g432
I0
tp466
a(I10
I8
F0.375
g434
I0
tp467
a(I11
I1
F-0.625
g436
I0
tp468
a(I13
I141
F0.125
g454
I0
tp469
a(I15
I19
I0
S'website'
p470
I0
tp471
a(I16
I42
F0.125
g438
I0
tp472
a(I19
I1
F1.0
S'good'
p473
I0
tp474
a(I22
I59
F0.875
g440
I0
tp475
a(I22
I59
F0.125
g442
I0
tp476
a(I31
I5
F-0.625
S'other'
p477
I0
tp478
a(I36
I77
F-0.125
g463
I0
tp479
a(I2
I12
I0
g430
I0
tp480
a(I22
I15
F-0.5
g457
I0
tp481
a(I24
I0
F1.0
g444
I0
tp482
a(I32
I1
I0
g446
I0
tp483
a(I39
I17
F0.625
g448
I0
tp484
as(S'music'
p485
tp486
(lp487
(I6
I10
F-0.75
S'single'
p488
I0
tp489
a(I6
I10
I0
S'song'
p490
I0
tp491
a(I6
I18
I0
S'own'
p492
I0
tp493
a(I40
I39
F0.125
S'first'
p494
I0
tp495
as(S'much'
p496
S'better'
p497
tp498
(lp499
(I4
I27
F0.375
S'much'
p500
I9
tp501
a(I10
I28
F0.375
S'much'
p502
I9
tp503
a(I13
I18
F0.375
S'much'
p504
I9
tp505
a(I36
I1
F0.375
S'much'
p506
I9
tp507
as(S'micro'
p508
S'sd'
p509
S'card'
p510
tp511
(lp512
(I3
I25
I0
g248
I0
tp513
a(I3
I25
I0
S'external'
p514
I0
tp515
a(I9
I56
F0.625
g252
I0
tp516
as(S'great'
p517
S'battery'
p518
S'life'
p519
tp520
(lp521
(I3
I13
F-0.125
S'complex'
p522
I0
tp523
a(I3
I13
I0
S'great'
p524
I0
tp525
a(I6
I1
I0
S'great'
p526
I0
tp527
a(I11
I38
I0
S'great'
p528
I0
tp529
a(I19
I21
I0
S'great'
p530
I0
tp531
a(I22
I87
I0
S'great'
p532
I0
tp533
a(I23
I22
F-0.375
S'manual'
p534
I0
tp535
a(I32
I47
I0
S'great'
p536
I0
tp537
a(I36
I60
I0
S'great'
p538
I0
tp539
a(I3
I13
F-0.125
g522
I0
tp540
a(I5
I10
I0
S'great'
p541
I0
tp542
a(I6
I1
I0
g526
I0
tp543
a(I13
I91
I0
S'great'
p544
I0
tp545
a(I19
I21
I0
g530
I0
tp546
a(I22
I87
I0
g532
I0
tp547
a(I23
I22
F-0.375
g534
I0
tp548
a(I32
I47
I0
g536
I0
tp549
a(I38
I8
F0.625
S'removable'
p550
I0
tp551
a(I1
I3
F-0.625
S'bad'
p552
I1
tp553
a(I3
I13
F-0.125
g522
I1
tp554
a(I3
I13
I0
g524
I1
tp555
a(I4
I30
F1.0
S'better'
p556
I1
tp557
a(I5
I4
F-0.875
S'awful'
p558
I1
tp559
a(I6
I1
I0
g526
I1
tp560
a(I6
I5
I0
S'most'
p561
I1
tp562
a(I6
I29
F1.0
S'good'
p563
I1
tp564
a(I6
I29
I0
S'faster'
p565
I1
tp566
a(I9
I4
F-0.5
S'long'
p567
I1
tp568
a(I10
I5
F1.0
S'best'
p569
I1
tp570
a(I11
I38
I0
g528
I1
tp571
a(I13
I112
F-0.5
S'longer'
p572
I1
tp573
a(I17
I27
F0.125
S'equal'
p574
I1
tp575
a(I17
I66
F1.0
S'good'
p576
I1
tp577
a(I17
I66
F0.125
S'last'
p578
I1
tp579
a(I17
I66
I0
S'same'
p580
I1
tp581
a(I17
I66
F-0.375
S'smoother'
p582
I1
tp583
a(I17
I66
I0
S'faster'
p584
I1
tp585
a(I19
I21
I0
g530
I1
tp586
a(I22
I87
I0
g532
I1
tp587
a(I23
I22
F-0.375
g534
I1
tp588
a(I32
I47
I0
g536
I1
tp589
a(I34
I3
F1.0
S'best'
p590
I1
tp591
a(I34
I34
F-0.5
S'long'
p592
I1
tp593
a(I36
I20
F0.25
S'stellar'
p594
I1
tp595
a(I36
I60
I0
g538
I1
tp596
a(I36
I92
F1.0
S'good'
p597
I1
tp598
a(I40
I6
F1.0
S'good'
p599
I1
tp600
a(I40
I68
F1.0
S'good'
p601
I1
tp602
a(I1
I3
F-0.625
g552
I19
tp603
a(I3
I13
I0
g524
I19
tp604
a(I5
I4
F-0.875
g558
I19
tp605
a(I6
I5
I0
g561
I19
tp606
a(I6
I29
F1.0
g563
I19
tp607
a(I6
I29
I0
g565
I19
tp608
a(I10
I5
F1.0
g569
I19
tp609
a(I11
I38
I0
g528
I19
tp610
a(I17
I66
F1.0
g576
I19
tp611
a(I34
I3
F1.0
g590
I19
tp612
a(I34
I34
F-0.5
g592
I19
tp613
a(I36
I20
F0.25
g594
I19
tp614
a(I36
I60
I0
g538
I19
tp615
a(I40
I6
F1.0
g599
I19
tp616
a(I40
I68
F1.0
g601
I19
tp617
a(I3
I13
F-0.125
g522
I15
tp618
a(I4
I30
F1.0
g556
I15
tp619
a(I5
I10
I0
g541
I15
tp620
a(I5
I12
F0.5
S'accurate'
p621
I15
tp622
a(I6
I1
I0
g526
I15
tp623
a(I9
I4
F-0.5
g567
I15
tp624
a(I9
I82
F-0.375
S'daily'
p625
I15
tp626
a(I13
I91
I0
g544
I15
tp627
a(I13
I112
F-0.5
g572
I15
tp628
a(I16
I52
F-0.375
S'smaller'
p629
I15
tp630
a(I17
I27
F0.125
g574
I15
tp631
a(I17
I66
F0.125
g578
I15
tp632
a(I17
I66
I0
g580
I15
tp633
a(I17
I66
F-0.375
g582
I15
tp634
a(I17
I66
I0
g584
I15
tp635
a(I19
I21
I0
g530
I15
tp636
a(I22
I2
I0
S'least'
p637
I15
tp638
a(I22
I87
I0
g532
I15
tp639
a(I23
I22
F-0.375
g534
I15
tp640
a(I32
I8
F0.5
S'second'
p641
I15
tp642
a(I32
I8
F0.125
S'last'
p643
I15
tp644
a(I32
I8
F-0.5
S'long'
p645
I15
tp646
a(I32
I11
F0.375
S'new'
p647
I15
tp648
a(I32
I47
I0
g536
I15
tp649
a(I32
I54
F0.125
S'last'
p650
I15
tp651
a(I36
I92
F1.0
g597
I15
tp652
a(I38
I8
F0.625
g550
I15
tp653
a(I39
I14
F1.0
S'good'
p654
I15
tp655
as(S'exact'
p656
S'same'
p657
tp658
(lp659
(I1
I9
I0
S'exact'
p660
I2
tp661
a(I6
I7
I0
S'exact'
p662
I2
tp663
a(I6
I7
I0
S'exact'
p664
I2
tp665
a(I13
I112
I0
S'exact'
p666
I2
tp667
a(I17
I0
I0
S'exact'
p668
I2
tp669
a(I17
I18
I0
S'exact'
p670
I2
tp671
a(I17
I20
I0
S'exact'
p672
I2
tp673
as(S'a'
p674
S'great'
p675
S'camera'
p676
tp677
(lp678
(I11
I21
I0
g166
I0
tp679
a(I13
I38
I0
g168
I0
tp680
a(I13
I39
I0
g170
I0
tp681
a(I13
I39
I0
g172
I0
tp682
a(I13
I39
I0
g174
I0
tp683
a(I13
I41
I0
g176
I0
tp684
a(I14
I9
I0
g150
I0
tp685
a(I14
I9
F0.875
g154
I0
tp686
a(I23
I9
I0
g188
I0
tp687
as(S'amazon'
p688
tp689
(lp690
(I1
I11
I0
S'more'
p691
I13
tp692
a(I9
I98
I0
S'more'
p693
I13
tp694
a(I9
I98
F0.375
S'confident'
p695
I13
tp696
as(S'internal'
p697
S'memory'
p698
tp699
(lp700
(I16
I33
I0
g37
I0
tp701
a(I17
I7
I0
g39
I0
tp702
a(I17
I7
I0
g41
I0
tp703
a(I17
I46
I0
g43
I0
tp704
a(I17
I48
I0
g22
I0
tp705
a(I26
I30
F-0.25
g24
I0
tp706
a(I32
I67
I0
g56
I0
tp707
a(I38
I10
I0
g28
I0
tp708
a(I39
I33
F-0.625
g61
I0
tp709
a(I39
I33
I0
g63
I0
tp710
a(I40
I15
I0
g65
I0
tp711
as.