(dp0
(S'android'
p1
tp2
(lp3
(I6
I38
F0.125
S'last'
p4
I0
tp5
a(I7
I0
F0.125
S'first'
p6
I0
tp7
as(S'files'
p8
tp9
(lp10
(I2
I52
F-0.125
S'mine'
p11
I0
tp12
a(I2
I52
F0.875
S'music'
p13
I0
tp14
a(I2
I53
F0.5
S'personal'
p15
I0
tp16
a(I2
I53
F0.875
S'music'
p17
I0
tp18
a(I2
I53
F-0.625
S'other'
p19
I0
tp20
a(I2
I62
F0.5
S'personal'
p21
I0
tp22
a(I2
I64
F0.375
S'much'
p23
I0
tp24
as(S'sim'
p25
S'card'
p26
tp27
(lp28
(I2
I33
F1.0
S'good'
p29
I0
tp30
a(I2
I33
F-0.5
S'regular'
p31
I0
tp32
as(S'battery'
p33
tp34
(lp35
(I2
I48
F1.0
S'best'
p36
I15
tp37
a(I6
I2
F0.375
S'new'
p38
I15
tp39
a(I7
I6
F0.5
S'compatible'
p40
I15
tp41
a(I10
I13
F0.125
S'last'
p42
I15
tp43
a(I12
I20
F-0.125
S'slow'
p44
I15
tp45
a(I12
I22
F0.25
S'largest'
p46
I15
tp47
as(S'galaxy'
p48
S'grand'
p49
tp50
(lp51
(I7
I3
F0.5
S'clear'
p52
I0
tp53
a(I7
I3
I0
S'many'
p54
I0
tp55
a(I2
I12
F-0.25
S'cheaper'
p56
I0
tp57
a(I7
I3
F0.5
g52
I0
tp58
a(I7
I3
I0
g54
I0
tp59
as(S'notification'
p60
S'light'
p61
tp62
(lp63
(I6
I26
I0
S'basic'
p64
I0
tp65
as(S'wifi'
p66
tp67
(lp68
(I2
I71
F0.5
S'stronger'
p69
I0
tp70
a(I2
I76
F0.25
S'larger'
p71
I0
tp72
a(I12
I19
F-0.5
S'open'
p73
I0
tp74
as(S'apps'
p75
tp76
(lp77
(I2
I55
I0
S'downloaded'
p78
I0
tp79
a(I2
I63
I0
S'few'
p80
I0
tp81
a(I2
I64
I0
S'more'
p82
I0
tp83
a(I2
I64
I0
S'later'
p84
I0
tp85
a(I12
I26
I0
S'more'
p86
I0
tp87
a(I12
I35
F0.625
S'easy'
p88
I0
tp89
a(I12
I39
I0
S'many'
p90
I0
tp91
as(S'samsung'
p92
tp93
(lp94
(I1
I6
F-0.625
S'other'
p95
I7
tp96
a(I6
I44
F0.5
S'second'
p97
I7
tp98
a(I6
I44
F0.125
S'first'
p99
I7
tp100
a(I10
I7
F0.125
S'first'
p101
I7
tp102
a(I10
I18
F-0.625
S'bad'
p103
I7
tp104
as.