(dp0
(S'iphone'
p1
tp2
(lp3
(I16
I8
F1.0
S'good'
p4
I1
tp5
as(S'battery'
p6
S'life'
p7
tp8
(lp9
(I1
I15
F0.625
S'easy'
p10
I1
tp11
a(I3
I32
F1.0
S'good'
p12
I1
tp13
a(I5
I33
I0
S'great'
p14
I1
tp15
a(I7
I10
I0
S'great'
p16
I1
tp17
a(I11
I12
F-0.25
S'potential'
p18
I1
tp19
a(I11
I12
F0.375
S'extended'
p20
I1
tp21
a(I15
I18
F0.125
S'last'
p22
I1
tp23
a(I1
I15
F0.625
g10
I19
tp24
a(I5
I33
I0
g14
I19
tp25
a(I7
I10
I0
g16
I19
tp26
a(I11
I12
F-0.25
g18
I19
tp27
a(I3
I32
F1.0
g12
I15
tp28
a(I11
I12
F0.375
g20
I15
tp29
a(I11
I17
F-0.25
S'low'
p30
I15
tp31
a(I11
I22
F0.375
S'extended'
p32
I15
tp33
a(I11
I22
F0.375
S'extended'
p34
I15
tp35
a(I11
I24
I0
S'substantial'
p36
I15
tp37
a(I15
I18
F0.125
g22
I15
tp38
as(S'galaxy'
p39
S's2'
p40
tp41
(lp42
(I14
I32
F-0.625
S'glad'
p43
I0
tp44
as(S'text'
p45
tp46
(lp47
(I10
I0
I0
S'pic'
p48
I18
tp49
a(I14
I98
F0.75
S'receive'
p50
I18
tp51
a(I16
I139
I0
S'great'
p52
I18
tp53
as(S'call'
p54
S'quality'
p55
tp56
(lp57
(I9
I17
F-0.625
S'bad'
p58
I0
tp59
a(I16
I139
I0
S'same'
p60
I0
tp61
as(S'on'
p62
S'boost'
p63
S'mobile'
p64
tp65
(lp66
(I5
I26
I0
S'such'
p67
I0
tp68
a(I14
I26
F1.0
S'best'
p69
I0
tp70
a(I15
I0
I0
S'mobile'
p71
I0
tp72
a(I15
I8
F-0.25
S'cheaper'
p73
I0
tp74
a(I15
I11
F-0.5
S'actual'
p75
I0
tp76
a(I15
I21
I0
S'mobile'
p77
I0
tp78
a(I16
I104
I0
S'mobile'
p79
I0
tp80
a(I16
I140
F1.0
S'best'
p81
I0
tp82
a(I5
I26
I0
g67
I0
tp83
a(I7
I8
I0
S'mobile'
p84
I0
tp85
a(I14
I26
F1.0
g69
I0
tp86
a(I15
I0
I0
g71
I0
tp87
a(I15
I8
F-0.25
g73
I0
tp88
a(I15
I11
F-0.5
g75
I0
tp89
a(I15
I21
I0
g77
I0
tp90
a(I16
I104
I0
g79
I0
tp91
a(I16
I140
F1.0
g81
I0
tp92
a(I5
I26
I0
g67
I0
tp93
a(I15
I8
F-0.25
g73
I0
tp94
a(I1
I5
I0
S'great'
p95
I0
tp96
a(I3
I20
F0.625
S'beat'
p97
I0
tp98
a(I7
I8
I0
g84
I0
tp99
a(I11
I29
I0
S'cool'
p100
I0
tp101
a(I14
I26
F1.0
g69
I0
tp102
a(I15
I0
I0
g71
I0
tp103
a(I15
I11
F-0.5
g75
I0
tp104
a(I15
I21
I0
g77
I0
tp105
a(I16
I104
I0
g79
I0
tp106
a(I16
I109
F0.25
S'larger'
p107
I0
tp108
a(I16
I140
F1.0
g81
I0
tp109
as(S'service'
p110
tp111
(lp112
(I3
I21
I0
S'great'
p113
I16
tp114
a(I9
I15
I0
S'great'
p115
I16
tp116
a(I15
I21
F0.625
S'decent'
p117
I16
tp118
a(I17
I13
F0.125
S'first'
p119
I16
tp120
as(S'apps'
p121
tp122
(lp123
(I2
I9
I0
S'many'
p124
I0
tp125
a(I3
I33
F0.875
S'music'
p126
I0
tp127
as(S'amazon'
p128
tp129
(lp130
(I3
I14
I0
S'more'
p131
I13
tp132
a(I3
I14
F0.625
S'easy'
p133
I13
tp134
a(I3
I14
I0
S'great'
p135
I13
tp136
a(I3
I26
F0.75
S'thought'
p137
I13
tp138
a(I14
I47
I0
S'wish'
p139
I13
tp140
as(S'camera'
p141
tp142
(lp143
(I1
I41
F1.0
S'better'
p144
I1
tp145
a(I16
I63
F1.0
S'best'
p146
I1
tp147
a(I16
I63
I0
S'pic'
p148
I1
tp149
a(I16
I63
F1.0
S'best'
p150
I1
tp151
a(I16
I63
F0.5
S'possible'
p152
I1
tp153
a(I16
I63
F-0.625
S'light'
p154
I1
tp155
a(I16
I63
F-0.75
S'dark'
p156
I1
tp157
as.