(dp0
(S'samsung'
p1
tp2
(lp3
(I22
I1
F0.125
S'typical'
p4
I7
tp5
a(I22
I21
F0.125
S'usual'
p6
I7
tp7
as(S'orange'
p8
tp9
(lp10
(I21
I2
I0
S'french'
p11
I5
tp12
a(I21
I2
I0
S'mobile'
p13
I5
tp14
a(I22
I1
F0.625
S'cover'
p15
I5
tp16
a(I25
I12
I0
S'same'
p17
I5
tp18
as(S'camera'
p19
tp20
(lp21
(I8
I11
I0
S'many'
p22
I1
tp23
a(I21
I26
I0
S'great'
p24
I1
tp25
as(S'way'
p26
S'better'
p27
tp28
(lp29
(I7
I5
F-0.25
S'white'
p30
I0
tp31
a(I7
I5
I0
S'blue'
p32
I0
tp33
as.