(dp0
(S'samsung'
p1
tp2
(lp3
(I5
I7
I0
S'many'
p4
I7
tp5
a(I15
I5
F0.875
S'nice'
p6
I7
tp7
a(I23
I9
F0.5
S'upgraded'
p8
I7
tp9
a(I23
I10
F0.25
S'original'
p10
I7
tp11
as(S'galaxy'
p12
S's3'
p13
S'mini'
p14
tp15
(lp16
(I23
I7
F-0.625
S'light'
p17
I0
tp18
a(I23
I7
F-0.625
g17
I0
tp19
a(I0
I0
I0
S'big'
p20
I0
tp21
a(I0
I0
I0
g20
I0
tp22
a(I41
I4
I0
S'old'
p23
I0
tp24
as.