(dp0
(S'files'
p1
tp2
(lp3
(I1
I38
F-0.125
S'mine'
p4
I0
tp5
a(I1
I38
F0.875
S'music'
p6
I0
tp7
a(I1
I39
F0.5
S'personal'
p8
I0
tp9
a(I1
I39
F0.875
S'music'
p10
I0
tp11
a(I1
I39
F-0.625
S'other'
p12
I0
tp13
a(I1
I48
F0.5
S'personal'
p14
I0
tp15
a(I1
I50
F0.375
S'much'
p16
I0
tp17
as(S'apps'
p18
tp19
(lp20
(I0
I15
F-0.5
S'heavier'
p21
I0
tp22
a(I1
I41
I0
S'downloaded'
p23
I0
tp24
a(I1
I49
I0
S'few'
p25
I0
tp26
a(I1
I50
I0
S'more'
p27
I0
tp28
a(I1
I50
I0
S'later'
p29
I0
tp30
as(S'memory'
p31
tp32
(lp33
(I16
I2
F0.375
S'available'
p34
I5
tp35
as(S'battery'
p36
tp37
(lp38
(I1
I34
F1.0
S'best'
p39
I15
tp40
a(I1
I88
F0.375
S'new'
p41
I15
tp42
a(I4
I3
F1.0
S'good'
p43
I15
tp44
a(I16
I19
I0
S'great'
p45
I15
tp46
a(I17
I6
F1.0
S'good'
p47
I15
tp48
a(I18
I10
F0.125
S'last'
p49
I15
tp50
as(S'wifi'
p51
tp52
(lp53
(I1
I56
F0.5
S'stronger'
p54
I0
tp55
a(I1
I61
F0.25
S'larger'
p56
I0
tp57
as(S'samsung'
p58
S'galaxy'
p59
S'grand'
p60
tp61
(lp62
(I14
I15
F-0.75
S'hate'
p63
I0
tp64
a(I14
I16
I0
S'latest'
p65
I0
tp66
a(I15
I29
F0.125
S'first'
p67
I0
tp68
a(I12
I0
F1.0
S'good'
p69
I0
tp70
a(I14
I15
F-0.75
g63
I0
tp71
a(I14
I16
I0
g65
I0
tp72
a(I15
I29
F0.125
g67
I0
tp73
a(I14
I16
I0
g65
I0
tp74
a(I0
I19
F0.625
S'aware'
p75
I7
tp76
a(I0
I19
F0.375
S'new'
p77
I7
tp78
a(I13
I20
I0
S'latest'
p79
I7
tp80
a(I14
I15
F-0.75
g63
I7
tp81
a(I15
I29
F0.125
g67
I7
tp82
a(I10
I0
F0.375
S'new'
p83
I0
tp84
a(I12
I0
F1.0
g69
I0
tp85
a(I14
I16
I0
g65
I0
tp86
as(S'sim'
p87
S'card'
p88
tp89
(lp90
(I1
I19
F1.0
S'good'
p91
I0
tp92
a(I1
I19
F-0.5
S'regular'
p93
I0
tp94
a(I14
I5
F-0.375
S'simple'
p95
I0
tp96
a(I14
I5
I0
S'mobile'
p97
I0
tp98
as(S'dual'
p99
S'sim'
p100
tp101
(lp102
(I11
I8
I0
S'great'
p103
I0
tp104
a(I16
I22
F1.0
S'best'
p105
I0
tp106
a(I20
I8
F0.5
S'personal'
p107
I0
tp108
as.