(dp0
(S'signal'
p1
S'reception'
p2
tp3
(lp4
(I10
I2
F-0.5
S'poor'
p5
I0
tp6
a(I10
I3
I0
S'signal'
p7
I0
tp8
as(S'htc'
p9
S'one'
p10
S'm7'
p11
tp12
(lp13
(I6
I8
I0
S'general'
p14
I0
tp15
a(I14
I36
F0.375
S'new'
p16
I0
tp17
as(S'international'
p18
S'version'
p19
tp20
(lp21
(I1
I5
F-0.5
S'international'
p22
I0
tp23
a(I14
I7
F-0.5
S'international'
p24
I0
tp25
a(I16
I22
F-0.5
S'international'
p26
I0
tp27
as.