(dp0
(S'back'
p1
S'cover'
p2
tp3
(lp4
(I9
I39
I0
S'sturdy'
p5
I2
tp6
a(I9
I39
I0
S'plastic'
p7
I2
tp8
as(S'battery'
p9
S'life'
p10
tp11
(lp12
(I4
I0
F1.0
S'good'
p13
I1
tp14
a(I6
I0
F1.0
S'good'
p15
I1
tp16
a(I6
I0
F0.125
S'able'
p17
I1
tp18
a(I6
I36
F0.125
S'solid'
p19
I1
tp20
a(I6
I36
I0
S'great'
p21
I1
tp22
a(I10
I223
F0.375
S'enable'
p23
I1
tp24
a(I10
I261
F-0.875
S'awful'
p25
I1
tp26
a(I10
I261
F0.625
S'removable'
p27
I1
tp28
a(I4
I0
F1.0
g13
I19
tp29
a(I6
I0
F0.125
g17
I19
tp30
a(I6
I36
I0
g21
I19
tp31
a(I10
I261
F-0.875
g25
I19
tp32
a(I0
I4
I0
S'great'
p33
I15
tp34
a(I2
I40
F0.625
S'replaceable'
p35
I15
tp36
a(I6
I0
F1.0
g15
I15
tp37
a(I6
I36
F0.125
g19
I15
tp38
a(I6
I37
F0.625
S'removable'
p39
I15
tp40
a(I6
I38
F1.0
S'good'
p41
I15
tp42
a(I6
I114
F1.0
S'good'
p43
I15
tp44
a(I8
I13
F0.125
S'last'
p45
I15
tp46
a(I8
I16
F-0.5
S'weak'
p47
I15
tp48
a(I10
I149
I0
S'full'
p49
I15
tp50
a(I10
I219
F-0.5
S'less'
p51
I15
tp52
a(I10
I223
F0.375
g23
I15
tp53
a(I10
I261
F0.625
g27
I15
tp54
a(I10
I262
F0.375
S'extra'
p55
I15
tp56
as(S'maps'
p57
tp58
(lp59
(I10
I98
F1.0
S'good'
p60
I5
tp61
a(I10
I198
I0
S'internet'
p62
I5
tp63
a(I10
I198
F0.875
S'music'
p64
I5
tp65
as(S'camera'
p66
tp67
(lp68
(I0
I13
F0.875
S'nice'
p69
I1
tp70
a(I0
I18
I0
S'great'
p71
I1
tp72
a(I4
I0
F1.0
S'good'
p73
I1
tp74
a(I5
I36
F1.0
S'good'
p75
I1
tp76
a(I6
I41
F1.0
S'better'
p77
I1
tp78
a(I6
I85
F0.5
S'strong'
p79
I1
tp80
a(I9
I25
I0
S'rear'
p81
I1
tp82
a(I9
I40
F-0.5
S'sure'
p83
I1
tp84
a(I9
I40
F-0.5
S'long'
p85
I1
tp86
a(I10
I101
F-0.125
S'front'
p87
I1
tp88
as(S'operating'
p89
S'system'
p90
tp91
(lp92
(I11
I11
F0.375
S'reliable'
p93
I2
tp94
a(I10
I87
F1.0
S'good'
p95
I12
tp96
a(I10
I119
F1.0
S'good'
p97
I12
tp98
a(I10
I218
F0.5
S'whole'
p99
I12
tp100
a(I10
I220
I0
S'earlier'
p101
I12
tp102
a(I10
I220
F0.5
S'whole'
p103
I12
tp104
a(I11
I11
F0.375
g93
I12
tp105
as(S'internet'
p106
tp107
(lp108
(I10
I221
F0.875
S'music'
p109
I6
tp110
a(I10
I283
I0
S'quick'
p111
I6
tp112
as(S'windows'
p113
tp114
(lp115
(I0
I66
F0.625
S'easy'
p116
I0
tp117
a(I5
I29
F0.625
S'interested'
p118
I0
tp119
a(I8
I9
F0.375
S'new'
p120
I0
tp121
a(I9
I10
F0.375
S'available'
p122
I0
tp123
a(I10
I233
F1.0
S'good'
p124
I0
tp125
a(I11
I5
F0.5
S'stylish'
p126
I0
tp127
a(I11
I5
F0.125
S'practical'
p128
I0
tp129
as(S'applications'
p130
tp131
(lp132
(I8
I5
I0
S'install'
p133
I3
tp134
a(I10
I50
F0.125
S'able'
p135
I3
tp136
a(I10
I170
F0.125
S'native'
p137
I3
tp138
a(I10
I216
I0
S'internet'
p139
I3
tp140
as(S'many'
p141
S'apps'
p142
tp143
(lp144
(I9
I9
I0
S'many'
p145
I0
tp146
a(I10
I6
I0
S'many'
p147
I0
tp148
a(I10
I6
F-0.5
S'open'
p149
I0
tp150
a(I10
I91
I0
S'many'
p151
I0
tp152
a(I10
I231
I0
S'many'
p153
I0
tp154
a(I10
I232
F0.5
S'true'
p155
I0
tp156
a(I10
I232
I0
S'many'
p157
I0
tp158
a(I10
I232
F0.125
S'essential'
p159
I0
tp160
a(I10
I232
F-0.5
S'regular'
p161
I0
tp162
a(I10
I277
F1.0
S'good'
p163
I0
tp164
a(I11
I12
I0
S'many'
p165
I0
tp166
a(I11
I12
I0
S'android'
p167
I0
tp168
a(I11
I12
I0
S'many'
p169
I0
tp170
a(I11
I12
F0.375
S'much'
p171
I0
tp172
a(I0
I64
I0
S'useful'
p173
I0
tp174
a(I2
I24
F-0.5
S'certain'
p175
I0
tp176
a(I6
I18
I0
S'own'
p177
I0
tp178
a(I6
I18
I0
S'useful'
p179
I0
tp180
a(I6
I36
F0.125
S'solid'
p181
I0
tp182
a(I6
I79
I0
S'more'
p183
I0
tp184
a(I6
I84
I0
S'great'
p185
I0
tp186
a(I9
I9
I0
g145
I0
tp187
a(I10
I6
I0
g147
I0
tp188
a(I10
I6
F-0.5
g149
I0
tp189
a(I10
I32
F-0.625
S'free'
p190
I0
tp191
a(I10
I91
I0
g151
I0
tp192
a(I10
I119
I0
S'laptop'
p193
I0
tp194
a(I10
I123
I0
S'specific'
p195
I0
tp196
a(I10
I231
I0
g153
I0
tp197
a(I10
I232
F0.5
g155
I0
tp198
a(I10
I232
I0
g157
I0
tp199
a(I10
I232
F0.125
g159
I0
tp200
a(I10
I232
F-0.5
g161
I0
tp201
a(I10
I237
I-100
S'im/messaging'
p202
I0
tp203
a(I10
I258
F0.375
S'available'
p204
I0
tp205
a(I10
I259
F0.875
S'lucky'
p206
I0
tp207
a(I10
I262
I0
S'basic'
p208
I0
tp209
a(I10
I262
F0.375
S'available'
p210
I0
tp211
a(I10
I262
F0.375
S'worked'
p212
I0
tp213
a(I10
I277
F1.0
g163
I0
tp214
a(I10
I286
I0
S'common'
p215
I0
tp216
a(I11
I12
I0
g165
I0
tp217
a(I11
I12
I0
g167
I0
tp218
a(I11
I12
I0
g169
I0
tp219
a(I11
I12
F0.375
g171
I0
tp220
as(S'android'
p221
tp222
(lp223
(I5
I33
F0.375
S'available'
p224
I0
tp225
a(I10
I151
I0
S'old'
p226
I0
tp227
as(S'sound'
p228
tp229
(lp230
(I5
I36
F1.0
S'good'
p231
I7
tp232
a(I10
I187
F1.0
S'good'
p233
I7
tp234
a(I10
I283
I0
S'great'
p235
I7
tp236
as(S'sim'
p237
S'card'
p238
tp239
(lp240
(I10
I68
I0
S'chinese'
p241
I0
tp242
a(I10
I69
F0.125
S'first'
p243
I0
tp244
a(I10
I69
I0
S'english'
p245
I0
tp246
as(S'music'
p247
tp248
(lp249
(I5
I16
F0.25
S'intelligent'
p250
I0
tp251
a(I6
I80
I0
S'hear'
p252
I0
tp253
as(S'data'
p254
tp255
(lp256
(I6
I20
F1.0
S'good'
p257
I13
tp258
a(I8
I2
I0
S'cable'
p259
I13
tp260
a(I10
I9
F-0.125
S'slow'
p261
I13
tp262
a(I10
I11
F-0.5
S'heavy'
p263
I13
tp264
as(S'smartphone'
p265
tp266
(lp267
(I0
I21
F-0.5
S'heavy'
p268
I0
tp269
a(I0
I48
F1.0
S'good'
p270
I0
tp271
a(I5
I23
I0
S'great'
p272
I0
tp273
a(I6
I70
I0
S'touchscreen'
p274
I0
tp275
a(I6
I113
F1.0
S'good'
p276
I0
tp277
a(I10
I62
F0.125
S'first'
p278
I0
tp279
as(S'nokia'
p280
S'lumia'
p281
tp282
(lp283
(I2
I67
F0.25
S'bigger'
p284
I0
tp285
a(I5
I36
I0
S'many'
p286
I0
tp287
a(I5
I36
F0.375
S'new'
p288
I0
tp289
a(I5
I36
F-0.625
S'glad'
p290
I0
tp291
a(I6
I31
I0
S'fourth'
p292
I0
tp293
a(I6
I61
F0.25
S'used'
p294
I0
tp295
a(I6
I61
I0
S'different'
p296
I0
tp297
a(I10
I277
F-0.625
S'other'
p298
I0
tp299
a(I10
I282
I0
S'big'
p300
I0
tp301
a(I2
I67
F0.25
g284
I0
tp302
a(I5
I19
F0.125
S'typical'
p303
I0
tp304
a(I5
I36
I0
g286
I0
tp305
a(I5
I36
F-0.625
g290
I0
tp306
a(I6
I31
I0
g292
I0
tp307
a(I6
I61
F0.25
g294
I0
tp308
a(I6
I85
F-0.625
S'other'
p309
I0
tp310
a(I9
I1
I0
S'old'
p311
I0
tp312
a(I9
I2
F0.5
S'drive'
p313
I0
tp314
a(I9
I73
I0
S'great'
p315
I0
tp316
a(I10
I22
F-0.5
S'sure'
p317
I0
tp318
a(I10
I125
I0
S'specific'
p319
I0
tp320
a(I10
I147
I0
S'useful'
p321
I0
tp322
a(I10
I170
F0.375
S'complete'
p323
I0
tp324
a(I10
I170
F0.5
S'accurate'
p325
I0
tp326
a(I10
I253
F0.125
S'native'
p327
I0
tp328
a(I10
I277
F-0.625
g298
I0
tp329
a(I11
I10
I0
S'big'
p330
I0
tp331
a(I5
I36
F0.375
g288
I0
tp332
a(I6
I61
I0
g296
I0
tp333
a(I10
I279
F0.5
S'whole'
p334
I0
tp335
a(I10
I282
I0
g300
I0
tp336
as.