(dp0
(S'android'
p1
tp2
(lp3
(I2
I14
F0.125
S'first'
p4
I0
tp5
a(I2
I14
F0.5
S'stylish'
p6
I0
tp7
a(I9
I0
F1.0
S'best'
p8
I0
tp9
a(I14
I9
F0.125
S'first'
p10
I0
tp11
a(I14
I30
I0
S'same'
p12
I0
tp13
a(I18
I25
F1.0
S'best'
p14
I0
tp15
a(I23
I0
F0.25
S'unlocked'
p16
I0
tp17
a(I30
I10
F0.25
S'familiar'
p18
I0
tp19
a(I35
I0
F0.875
S'nice'
p20
I0
tp21
as(S'memory'
p22
tp23
(lp24
(I10
I3
F0.5
S'expensive'
p25
I5
tp26
as(S'sony'
p27
S'xperia'
p28
tp29
(lp30
(I8
I4
F0.625
S'sexy'
p31
I0
tp32
a(I9
I18
F0.125
S'practical'
p33
I0
tp34
a(I8
I4
F0.625
g31
I0
tp35
a(I9
I18
F0.125
g33
I0
tp36
a(I10
I5
I0
S'standard'
p37
I5
tp38
a(I14
I16
F0.375
S'newest'
p39
I5
tp40
a(I15
I9
F1.0
S'better'
p41
I5
tp42
a(I34
I0
I0
S'real'
p43
I5
tp44
as(S'battery'
p45
tp46
(lp47
(I9
I4
I0
S'great'
p48
I15
tp49
a(I30
I10
F0.625
S'changeable'
p50
I15
tp51
as(S'smart'
p52
tp53
(lp54
(I7
I3
F0.5
S'expensive'
p55
I10
tp56
a(I14
I2
F1.0
S'good'
p57
I10
tp58
a(I14
I3
I0
S'great'
p59
I10
tp60
a(I27
I2
F-0.625
S'bad'
p61
I10
tp62
as(S'apps'
p63
tp64
(lp65
(I14
I40
F-0.75
S'difficult'
p66
I0
tp67
a(I14
I47
I0
S'large'
p68
I0
tp69
a(I14
I47
I0
S'such'
p70
I0
tp71
a(I14
I47
F-0.625
S'other'
p72
I0
tp73
a(I17
I5
I0
S'latest'
p74
I0
tp75
a(I18
I4
I0
S'many'
p76
I0
tp77
a(I25
I2
F-0.125
S'slow'
p78
I0
tp79
as(S'camera'
p80
tp81
(lp82
(I4
I5
F0.375
S'flash'
p83
I1
tp84
a(I14
I26
I-100
S'low-grade'
p85
I1
tp86
a(I18
I12
F1.0
S'better'
p87
I1
tp88
a(I24
I8
I0
S'rear'
p89
I1
tp90
a(I26
I6
F1.0
S'good'
p91
I1
tp92
a(I27
I7
I0
S'big'
p93
I1
tp94
a(I32
I2
I0
S'great'
p95
I1
tp96
as(S'touch'
p97
S'screen'
p98
tp99
(lp100
(I28
I0
F0.5
S'touch'
p101
I2
tp102
a(I28
I0
I0
S'sensitive'
p103
I2
tp104
as.