(dp0
(S'android'
p1
tp2
(lp3
(I12
I9
F0.5
S'willing'
p4
I0
tp5
as(S'app'
p6
S'store'
p7
tp8
(lp9
(I6
I57
F-0.5
S'poor'
p10
I0
tp11
as(S'battery'
p12
S'life'
p13
tp14
(lp15
(I2
I32
F-0.25
S'low'
p16
I1
tp17
a(I6
I59
F1.0
S'good'
p18
I1
tp19
a(I11
I60
F-0.625
S'bad'
p20
I1
tp21
a(I11
I60
F-0.125
S'mine'
p22
I1
tp23
a(I13
I10
F-0.625
S'average'
p24
I1
tp25
a(I21
I13
I0
S'great'
p26
I1
tp27
a(I2
I32
F-0.25
g16
I19
tp28
a(I6
I59
F1.0
g18
I19
tp29
a(I6
I81
F0.625
S'easier'
p30
I19
tp31
a(I11
I60
F-0.625
g20
I19
tp32
a(I11
I60
F-0.125
g22
I19
tp33
a(I17
I4
F0.625
S'easier'
p34
I19
tp35
a(I17
I4
F-0.125
S'overall'
p36
I19
tp37
a(I20
I79
F0.5
S'whole'
p38
I19
tp39
a(I21
I13
I0
g26
I19
tp40
a(I11
I9
F0.125
S'last'
p41
I15
tp42
a(I11
I36
F0.125
S'last'
p43
I15
tp44
a(I11
I54
F-0.25
S'thin'
p45
I15
tp46
a(I13
I10
F-0.625
g24
I15
tp47
a(I19
I55
F0.625
S'removable'
p48
I15
tp49
a(I20
I33
F-0.75
S'little'
p50
I15
tp51
as(S'windows'
p52
tp53
(lp54
(I11
I2
F0.375
S'new'
p55
I0
tp56
a(I12
I18
F0.625
S'perfect'
p57
I0
tp58
a(I15
I8
I0
S'update'
p59
I0
tp60
a(I18
I4
F0.375
S'new'
p61
I0
tp62
a(I19
I0
F0.125
S'first'
p63
I0
tp64
a(I20
I82
F-0.625
S'other'
p65
I0
tp66
as(S'apps'
p67
tp68
(lp69
(I2
I18
I0
S'close'
p70
I0
tp71
a(I3
I2
F0.375
S'available'
p72
I0
tp73
a(I11
I21
I0
S'many'
p74
I0
tp75
a(I11
I21
I0
S'useful'
p76
I0
tp77
a(I18
I4
I0
S'more'
p78
I0
tp79
a(I19
I1
I0
S'more'
p80
I0
tp81
a(I19
I31
F0.375
S'available'
p82
I0
tp83
a(I19
I35
I0
S'standard'
p84
I0
tp85
a(I19
I49
F-0.125
S'super'
p86
I0
tp87
a(I20
I10
F0.875
S'nice'
p88
I0
tp89
as(S'sd'
p90
S'card'
p91
tp92
(lp93
(I11
I59
F-0.375
S'simple'
p94
I0
tp95
as(S'a'
p96
S'nokia'
p97
S'lumia'
p98
tp99
(lp100
(I17
I4
I0
S'exclusive'
p101
I0
tp102
a(I17
I4
I0
g101
I0
tp103
a(I2
I22
F1.0
S'best'
p104
I0
tp105
a(I3
I12
I0
S'penny-pinched'
p106
I0
tp107
a(I6
I60
I0
S'latest'
p108
I0
tp109
a(I7
I6
F0.25
S'original'
p110
I0
tp111
a(I17
I4
I0
g101
I0
tp112
a(I19
I78
I0
S'least'
p113
I0
tp114
a(I20
I11
I0
S'english'
p115
I0
tp116
a(I14
I14
F0.125
S'first'
p117
I0
tp118
a(I18
I0
F-0.5
S'less'
p119
I0
tp120
as(S'camera'
p121
tp122
(lp123
(I7
I3
F1.0
S'good'
p124
I1
tp125
a(I11
I25
F1.0
S'good'
p126
I1
tp127
a(I11
I45
F1.0
S'good'
p128
I1
tp129
a(I11
I54
I0
S'great'
p130
I1
tp131
a(I14
I15
I0
S'great'
p132
I1
tp133
a(I15
I30
I0
S'great'
p134
I1
tp135
a(I19
I45
I0
S'incredible'
p136
I1
tp137
a(I19
I45
F-0.25
S'low'
p138
I1
tp139
a(I19
I45
F-0.625
S'light'
p140
I1
tp141
a(I19
I46
F0.375
S'interesting'
p142
I1
tp143
a(I20
I93
F0.875
S'happy'
p144
I1
tp145
a(I20
I93
I0
S'stable'
p146
I1
tp147
a(I20
I94
I0
S'stable'
p148
I1
tp149
as(S'music'
p150
tp151
(lp152
(I11
I40
F-0.625
S'free'
p153
I0
tp154
a(I17
I5
I0
S'few'
p155
I0
tp156
a(I17
I8
F0.375
S'similar'
p157
I0
tp158
as.