(dp0
(S'international'
p1
S'version'
p2
S'white'
p3
tp4
(lp5
(I38
I0
F-0.5
S'international'
p6
I0
tp7
as(S'battery'
p8
S'life'
p9
tp10
(lp11
(I3
I59
F-0.75
S'short'
p12
I1
tp13
a(I14
I13
F-0.75
S'short'
p14
I1
tp15
a(I20
I4
F-0.75
S'difficult'
p16
I1
tp17
a(I20
I15
I0
S'normal'
p18
I1
tp19
a(I29
I4
F0.625
S'superior'
p20
I1
tp21
a(I29
I6
I0
S'such'
p22
I1
tp23
a(I29
I6
I0
S'great'
p24
I1
tp25
a(I46
I29
F1.0
S'good'
p26
I1
tp27
a(I88
I31
F-0.75
S'short'
p28
I1
tp29
a(I14
I13
F-0.75
g14
I19
tp30
a(I20
I15
I0
g18
I19
tp31
a(I29
I4
F0.625
g20
I19
tp32
a(I43
I4
F0.625
S'easier'
p33
I19
tp34
a(I43
I4
F-0.75
S'comfortable'
p35
I19
tp36
a(I46
I29
F1.0
g26
I19
tp37
a(I57
I33
F-0.375
S'simple'
p38
I19
tp39
a(I3
I59
F-0.75
g12
I15
tp40
a(I6
I38
F0.375
S'new'
p41
I15
tp42
a(I8
I11
F0.125
S'last'
p43
I15
tp44
a(I11
I8
F0.375
S'alive'
p45
I15
tp46
a(I12
I1
F0.375
S'extra'
p47
I15
tp48
a(I17
I15
F0.625
S'removable'
p49
I15
tp50
a(I20
I4
F-0.75
g16
I15
tp51
a(I29
I6
I0
g22
I15
tp52
a(I29
I6
I0
g24
I15
tp53
a(I40
I1
F0.375
S'extra'
p54
I15
tp55
a(I46
I33
I0
S'old'
p56
I15
tp57
a(I46
I114
F-0.625
S'other'
p58
I15
tp59
a(I46
I114
F0.875
S'happy'
p60
I15
tp61
a(I48
I0
F0.125
S'last'
p62
I15
tp63
a(I53
I7
F0.125
S'last'
p64
I15
tp65
a(I53
I7
F0.375
S'much'
p66
I15
tp67
a(I55
I2
F1.0
S'best'
p68
I15
tp69
a(I65
I12
F0.625
S'removable'
p70
I15
tp71
a(I65
I14
F0.375
S'extra'
p72
I15
tp73
a(I80
I0
F1.0
S'good'
p74
I15
tp75
a(I80
I0
I0
S'fast'
p76
I15
tp77
a(I86
I28
F0.375
S'extra'
p78
I15
tp79
a(I88
I31
F-0.75
g28
I15
tp80
a(I90
I6
F-0.875
S'negative'
p81
I15
tp82
a(I90
I32
F-0.625
S'bad'
p83
I15
tp84
a(I90
I32
F-0.625
S'other'
p85
I15
tp86
a(I96
I14
F0.625
S'removable'
p87
I15
tp88
as(S'apple'
p89
tp90
(lp91
(I20
I2
F0.5
S'expensive'
p92
I4
tp93
a(I96
I10
F-0.625
S'other'
p94
I4
tp95
a(I96
I16
I0
S'restrictive'
p96
I4
tp97
as(S'fake'
p98
tp99
(lp100
(I81
I6
F0.25
S'original'
p101
I0
tp102
as(S'gon'
p103
S'na'
p104
tp105
(lp106
(I86
I35
F0.75
S'give'
p107
I1
tp108
as(S'quad'
p109
S'core'
p110
tp111
(lp112
(I18
I4
I0
S'slowest'
p113
I0
tp114
a(I18
I4
F-0.125
S'slow'
p115
I0
tp116
as(S'camera'
p117
tp118
(lp119
(I1
I23
I0
S'therefore'
p120
I1
tp121
a(I3
I62
F0.5
S'touch'
p122
I1
tp123
a(I15
I0
F0.625
S'easy'
p124
I1
tp125
a(I17
I16
I0
S'useful'
p126
I1
tp127
a(I19
I4
F0.5
S'came'
p128
I1
tp129
a(I20
I13
F1.0
S'good'
p130
I1
tp131
a(I20
I13
I0
S'great'
p132
I1
tp133
a(I43
I3
F0.5
S'touch'
p134
I1
tp135
a(I46
I25
F-0.125
S'overall'
p136
I1
tp137
a(I55
I2
F1.0
S'best'
p138
I1
tp139
a(I57
I23
F0.5
S'primary'
p140
I1
tp141
a(I66
I23
I0
S'more'
p142
I1
tp143
a(I66
I23
F0.25
S'powerful'
p144
I1
tp145
a(I73
I4
I0
S'great'
p146
I1
tp147
a(I74
I0
F1.0
S'best'
p148
I1
tp149
a(I85
I3
I0
S'many'
p150
I1
tp151
a(I88
I9
F0.25
S'used'
p152
I1
tp153
a(I91
I8
I0
S'great'
p154
I1
tp155
a(I96
I9
I0
S'quick'
p156
I1
tp157
as(S'operating'
p158
S'system'
p159
tp160
(lp161
(I3
I56
F0.375
S'friendlier'
p162
I2
tp163
a(I96
I11
F-0.125
S'overall'
p164
I2
tp165
as(S'volume'
p166
S'buttons'
p167
tp168
(lp169
(I46
I99
F-0.625
S'other'
p170
I0
tp171
as(S'dont'
p172
tp173
(lp174
(I6
I43
F0.625
S'easy'
p175
I16
tp176
as(S'better'
p177
S'than'
p178
S'iphone'
p179
tp180
(lp181
(I15
I0
F-0.25
S'cheaper'
p182
I0
tp183
a(I21
I18
F1.0
S'better'
p184
I0
tp185
a(I43
I4
F1.0
S'better'
p186
I0
tp187
a(I54
I11
F0.375
S'much'
p188
I0
tp189
a(I75
I18
I0
S'faster'
p190
I0
tp191
a(I3
I3
F0.5
S'loyal'
p192
I1
tp193
a(I10
I27
F0.375
S'new'
p194
I1
tp195
a(I11
I2
F0.75
S'worth'
p196
I1
tp197
a(I15
I0
F-0.25
g182
I1
tp198
a(I21
I18
F1.0
g184
I1
tp199
a(I23
I10
I0
S'own'
p200
I1
tp201
a(I43
I4
F1.0
g186
I1
tp202
a(I46
I22
F0.125
S'able'
p203
I1
tp204
a(I46
I22
F-0.375
S'small'
p205
I1
tp206
a(I46
I41
F0.375
S'new'
p207
I1
tp208
a(I46
I47
F0.25
S'helpful'
p209
I1
tp210
a(I75
I18
I0
g190
I1
tp211
a(I85
I13
F-0.5
S'show-off'
p212
I1
tp213
a(I90
I16
I0
S'least'
p214
I1
tp215
as(S'seller'
p216
tp217
(lp218
(I38
I1
F1.0
S'good'
p219
I19
tp220
a(I43
I5
F1.0
S'good'
p221
I19
tp222
a(I49
I0
F-0.625
S'bad'
p223
I19
tp224
a(I87
I8
F0.625
S'responsible'
p225
I19
tp226
as(S'android'
p227
tp228
(lp229
(I32
I24
F1.0
S'good'
p230
I0
tp231
a(I46
I53
F0.375
S'new'
p232
I0
tp233
a(I49
I9
F0.25
S'responsive'
p234
I0
tp235
a(I73
I2
F0.125
S'first'
p236
I0
tp237
as(S'air'
p238
S'view'
p239
tp240
(lp241
(I20
I25
F-0.125
S'air'
p242
I0
tp243
as(S'sim'
p244
S'card'
p245
tp246
(lp247
(I6
I26
F0.5
S'told'
p248
I0
tp249
a(I58
I5
I0
S'american'
p250
I0
tp251
a(I82
I6
F0.375
S'new'
p252
I0
tp253
as(S'samsung'
p254
S'galaxy'
p255
S's4'
p256
tp257
(lp258
(I19
I1
F0.875
S'lucky'
p259
I0
tp260
a(I22
I2
I0
S'real'
p261
I0
tp262
a(I22
I2
F1.0
S'good'
p263
I0
tp264
a(I31
I3
F1.0
S'good'
p265
I0
tp266
a(I32
I29
F-0.5
S'regular'
p267
I0
tp268
a(I32
I29
F-0.375
S'simple'
p269
I0
tp270
a(I54
I11
I0
S'more'
p271
I0
tp272
a(I54
I11
I0
S'human'
p273
I0
tp274
a(I19
I1
F0.875
g259
I0
tp275
a(I21
I24
I0
S'own'
p276
I0
tp277
a(I21
I24
F-0.625
S'other'
p278
I0
tp279
a(I22
I2
I0
g261
I0
tp280
a(I22
I2
F1.0
g263
I0
tp281
a(I23
I13
I0
S'latest'
p282
I0
tp283
a(I31
I3
F1.0
g265
I0
tp284
a(I32
I29
F-0.5
g267
I0
tp285
a(I54
I11
I0
g271
I0
tp286
a(I54
I11
I0
g273
I0
tp287
a(I73
I6
F0.375
S'much'
p288
I0
tp289
a(I73
I6
I0
S'more'
p290
I0
tp291
a(I90
I32
F0.25
S'unlocked'
p292
I0
tp293
a(I19
I1
F0.875
g259
I0
tp294
a(I22
I2
I0
g261
I0
tp295
a(I32
I29
F-0.375
g269
I0
tp296
a(I8
I0
I0
S'real'
p297
I0
tp298
a(I10
I2
F0.25
S'familiar'
p299
I0
tp300
a(I17
I17
I0
S'more'
p301
I0
tp302
a(I21
I3
I0
S'most'
p303
I0
tp304
a(I22
I2
F1.0
g263
I0
tp305
a(I29
I0
I0
S'own'
p306
I0
tp307
a(I31
I3
F1.0
g265
I0
tp308
a(I32
I29
F-0.5
g267
I0
tp309
a(I32
I29
F-0.375
g269
I0
tp310
a(I54
I11
I0
g271
I0
tp311
a(I54
I11
I0
g273
I0
tp312
a(I65
I0
F0.25
S'sharp'
p313
I0
tp314
a(I71
I20
F1.0
S'better'
p315
I0
tp316
a(I88
I0
F0.125
S'last'
p317
I0
tp318
a(I96
I13
I0
S'real'
p319
I0
tp320
a(I3
I18
F-0.875
S'bother'
p321
I7
tp322
a(I3
I48
F-0.5
S'poor'
p323
I7
tp324
a(I3
I48
I0
S'more'
p325
I7
tp326
a(I9
I2
I0
S'great'
p327
I7
tp328
a(I16
I5
F1.0
S'best'
p329
I7
tp330
a(I19
I1
F0.875
g259
I7
tp331
a(I20
I2
F-0.5
S'less'
p332
I7
tp333
a(I20
I2
F0.5
S'expensive'
p334
I7
tp335
a(I21
I24
I0
g276
I7
tp336
a(I21
I24
F-0.625
g278
I7
tp337
a(I22
I2
I0
g261
I7
tp338
a(I29
I7
F0.375
S'new'
p339
I7
tp340
a(I31
I12
I0
S'special'
p341
I7
tp342
a(I62
I0
I0
S'great'
p343
I7
tp344
a(I72
I10
I0
S'crystal'
p345
I7
tp346
a(I72
I10
F0.5
S'clear'
p347
I7
tp348
a(I76
I16
F-0.375
S'top'
p349
I7
tp350
a(I80
I4
F0.875
S'happy'
p351
I7
tp352
a(I85
I20
F1.0
S'good'
p353
I7
tp354
a(I85
I20
I0
S'fast'
p355
I7
tp356
a(I90
I32
F0.25
g292
I7
tp357
a(I8
I0
I0
g297
I0
tp358
a(I10
I2
F0.25
g299
I0
tp359
a(I21
I3
I0
g303
I0
tp360
a(I32
I29
F-0.375
g269
I0
tp361
as(S'much'
p362
S'better'
p363
tp364
(lp365
(I20
I23
F0.375
S'much'
p366
I9
tp367
a(I29
I3
F0.375
S'much'
p368
I9
tp369
a(I54
I11
F0.375
g188
I9
tp370
as(S'unlocked'
p371
S'international'
p372
S'version'
p373
tp374
(lp375
(I0
I4
F0.25
S'unlocked'
p376
I0
tp377
a(I10
I19
F-0.5
S'international'
p378
I0
tp379
a(I10
I19
F0.375
S'mean'
p380
I0
tp381
a(I10
I19
F0.25
S'unlocked'
p382
I0
tp383
a(I10
I19
F-0.125
S'slow'
p384
I0
tp385
a(I38
I0
F-0.5
g6
I0
tp386
a(I53
I1
F-0.5
S'international'
p387
I0
tp388
a(I53
I1
F-0.75
S'unable'
p389
I0
tp390
a(I58
I5
F-0.5
S'international'
p391
I0
tp392
a(I67
I0
F-0.5
S'international'
p393
I0
tp394
a(I0
I4
F0.25
g376
I0
tp395
a(I5
I0
F-0.5
S'international'
p396
I0
tp397
a(I10
I19
F-0.5
g378
I0
tp398
a(I10
I19
F0.375
g380
I0
tp399
a(I10
I19
F0.25
g382
I0
tp400
a(I10
I19
F-0.125
g384
I0
tp401
a(I38
I0
F-0.5
g6
I0
tp402
a(I42
I3
F-0.5
S'international'
p403
I0
tp404
a(I49
I1
F-0.5
S'international'
p405
I0
tp406
a(I51
I3
F-0.5
S'international'
p407
I0
tp408
a(I53
I1
F-0.5
g387
I0
tp409
a(I53
I1
F-0.75
g389
I0
tp410
a(I58
I5
F-0.5
g391
I0
tp411
a(I67
I0
F-0.5
g393
I0
tp412
a(I68
I12
F-0.5
S'international'
p413
I0
tp414
a(I75
I0
F-0.5
S'international'
p415
I0
tp416
a(I0
I4
F0.25
g376
I0
tp417
as(S'apps'
p418
tp419
(lp420
(I8
I10
F0.875
S'nice'
p421
I0
tp422
a(I12
I2
I0
S'chinese'
p423
I0
tp424
a(I20
I24
F0.125
S'able'
p425
I0
tp426
a(I25
I18
I0
S'big'
p427
I0
tp428
a(I29
I12
F-0.75
S'unable'
p429
I0
tp430
a(I46
I94
I0
S'more'
p431
I0
tp432
a(I49
I16
I0
S'latest'
p433
I0
tp434
a(I84
I0
I0
S'full'
p435
I0
tp436
a(I88
I2
I0
S'more'
p437
I0
tp438
a(I96
I14
I0
S'least'
p439
I0
tp440
a(I96
I14
F-0.375
S'daily'
p441
I0
tp442
as(S'amazon'
p443
tp444
(lp445
(I76
I7
I-100
S"'fulfilled"
p446
I13
tp447
a(I89
I4
I-100
S'from/through'
p448
I13
tp449
a(I96
I17
F0.125
S'able'
p450
I13
tp451
as(S'service'
p452
tp453
(lp454
(I32
I39
F-0.5
S'poor'
p455
I16
tp456
a(I46
I1
I0
S'costumer'
p457
I16
tp458
a(I46
I1
F-0.5
S'poor'
p459
I16
tp460
a(I58
I1
I0
S'most'
p461
I16
tp462
as.