(dp0
(S'seller'
p1
tp2
(lp3
(I3
I0
F0.625
S'kind'
p4
I19
tp5
as(S'samsung'
p6
S'galaxy'
p7
S'note'
p8
tp9
(lp10
(I6
I44
I0
S'same'
p11
I0
tp12
a(I6
I44
I0
g11
I0
tp13
a(I6
I22
I0
S'fast'
p14
I0
tp15
a(I8
I4
F0.375
S'new'
p16
I0
tp17
a(I9
I34
I0
S'commonly'
p18
I0
tp19
a(I9
I34
F0.375
S'available'
p20
I0
tp21
a(I6
I44
I0
g11
I7
tp22
a(I9
I18
F0.25
S'original'
p23
I7
tp24
a(I9
I18
F0.25
S'original'
p25
I7
tp26
a(I9
I24
F-0.75
S'bright'
p27
I7
tp28
a(I9
I24
F0.25
S'original'
p29
I7
tp30
a(I0
I41
I0
S'real'
p31
I0
tp32
a(I6
I22
I0
g14
I0
tp33
a(I8
I6
I0
S'fast'
p34
I0
tp35
a(I8
I6
I0
S'faster'
p36
I0
tp37
a(I9
I34
I0
g18
I0
tp38
a(I9
I34
F0.375
g20
I0
tp39
as(S'front'
p40
S'camera'
p41
tp42
(lp43
(I4
I17
F0.75
S'fit'
p44
I0
tp45
a(I8
I8
F-0.75
S'minor'
p46
I0
tp47
a(I4
I17
F0.75
g44
I14
tp48
a(I0
I22
F0.25
S'sharp'
p49
I1
tp50
a(I0
I22
I0
S'fast'
p51
I1
tp52
a(I1
I1
F-0.5
S'poor'
p53
I1
tp54
a(I4
I12
F1.0
S'good'
p55
I1
tp56
a(I8
I8
F-0.75
g46
I1
tp57
a(I9
I20
I0
S'slower'
p58
I1
tp59
a(I9
I20
I0
S'real'
p60
I1
tp61
a(I9
I46
F1.0
S'good'
p62
I1
tp63
as(S'battery'
p64
S'life'
p65
tp66
(lp67
(I4
I8
F1.0
S'good'
p68
I1
tp69
a(I16
I1
F-0.25
S'low'
p70
I1
tp71
a(I23
I16
I0
S'great'
p72
I1
tp73
a(I0
I34
I0
S'fast'
p74
I15
tp75
a(I2
I18
I0
S'big'
p76
I15
tp77
a(I4
I19
F0.5
S'second'
p78
I15
tp79
a(I5
I2
I0
S'different'
p80
I15
tp81
a(I15
I41
F0.125
S'last'
p82
I15
tp83
a(I16
I1
F-0.25
g70
I15
tp84
a(I17
I8
I0
S'stated'
p85
I15
tp86
a(I17
I8
I0
S'fast'
p87
I15
tp88
a(I17
I41
F-0.375
S'conserve'
p89
I15
tp90
a(I17
I44
F0.375
S'extra'
p91
I15
tp92
a(I17
I45
I0
S'fast'
p93
I15
tp94
as(S'back'
p95
S'camera'
p96
tp97
(lp98
(I4
I12
F1.0
g55
I0
tp99
as(S'wifi'
p100
tp101
(lp102
(I9
I43
I0
S'sensitive'
p103
I0
tp104
a(I16
I22
F-0.5
S'sure'
p105
I0
tp106
as(S'apps'
p107
tp108
(lp109
(I0
I21
F1.0
S'good'
p110
I0
tp111
a(I15
I16
F0.625
S'easy'
p112
I0
tp113
a(I17
I41
F-0.5
S'unwanted'
p114
I0
tp115
as(S'dont'
p116
tp117
(lp118
(I9
I7
F-0.125
S'present'
p119
I16
tp120
as.