(dp0
(S'blackberry'
p1
S'z10'
p2
tp3
(lp4
(I12
I0
F-0.125
S'blackberry'
p5
tp6
a(I27
I4
I0
S'different'
p7
tp8
a(I31
I3
F0.625
S'perfect'
p9
tp10
a(I31
I3
F-0.125
S'single-handed'
p11
tp12
a(I31
I3
F-0.625
S'other'
p13
tp14
a(I31
I6
I0
S'more'
p15
tp16
a(I60
I0
F-0.875
S'worst'
p17
tp18
a(I80
I0
I0
S'old'
p19
tp20
a(I99
I1
F0.875
S'happy'
p21
tp22
a(I108
I37
I0
S'older'
p23
tp24
a(I108
I37
F0.375
S'new'
p25
tp26
a(I111
I4
I0
S'earlier'
p27
tp28
a(I119
I1
F-0.125
S'private'
p29
tp30
a(I119
I17
I0
S'many'
p31
tp32
a(I119
I19
I0
S'website'
p33
tp34
a(I119
I20
I0
S'many'
p35
tp36
a(I119
I23
F-0.5
S'less'
p37
tp38
a(I142
I0
F-0.125
S'blackberry'
p39
tp40
a(I157
I35
I0
S'different'
p41
tp42
a(I170
I0
I0
S'old'
p43
tp44
a(I175
I2
F1.0
S'best'
p45
tp46
a(I216
I0
F0.375
S'new'
p47
tp48
a(I255
I4
F0.375
S'available'
p49
tp50
a(I262
I0
F0.375
S'new'
p51
tp52
a(I317
I8
F-0.125
S'blackberry'
p53
tp54
a(I362
I0
F0.125
S'first'
p55
tp56
a(I362
I0
F0.125
S'first'
p57
tp58
a(I373
I0
F1.0
S'good'
p59
tp60
a(I383
I2
I0
S'fastest'
p61
tp62
a(I403
I0
I0
S'old'
p63
tp64
a(I405
I7
F-0.25
S'late'
p65
tp66
a(I418
I0
F-0.125
S'blackberry'
p67
tp68
as(S'problem'
p69
tp70
(lp71
(I34
I32
F0.875
S'happy'
p72
tp73
a(I73
I0
I0
S'only'
p74
tp75
a(I154
I3
I0
S'same'
p76
tp77
a(I154
I8
I0
S'common'
p78
tp79
a(I203
I5
I0
S'same'
p80
tp81
a(I220
I0
F0.625
S'major'
p82
tp83
a(I243
I1
I0
S'more'
p84
tp85
a(I400
I20
F0.125
S'first'
p86
tp87
as(S'day'
p88
S'to'
p89
S'day'
p90
tp91
(lp92
(I87
I0
I0
S'same'
p93
tp94
a(I99
I2
F-0.25
S'formal'
p95
tp96
a(I168
I3
F0.75
S'due'
p97
tp98
a(I228
I5
F0.375
S'busy'
p99
tp100
a(I228
I24
I0
S'most'
p101
tp102
a(I388
I4
F0.375
S'honest'
p103
tp104
a(I388
I4
I0
S'more'
p105
tp106
a(I418
I6
F-0.5
S'sure'
p107
tp108
as(S'love'
p109
tp110
(lp111
(I164
I15
F0.625
S'safe'
p112
tp113
a(I284
I4
F0.125
S'first'
p114
tp115
as(S'battery'
p116
S'life'
p117
tp118
(lp119
(I7
I0
F0.125
S'last'
p120
tp121
a(I19
I8
F1.0
S'good'
p122
tp123
a(I43
I3
I0
S'great'
p124
tp125
a(I60
I0
F-0.5
S'poor'
p126
tp127
a(I60
I0
F-0.875
S'worst'
p128
tp129
a(I64
I4
F-0.625
S'average'
p130
tp131
a(I64
I4
F0.375
S'new'
p132
tp133
a(I154
I36
F0.625
S'superior'
p134
tp135
a(I190
I4
F1.0
S'good'
p136
tp137
a(I228
I5
F0.625
S'fair'
p138
tp139
a(I228
I5
F0.625
S'replaceable'
p140
tp141
a(I228
I21
F-0.125
S'blackberry'
p142
tp143
a(I251
I3
F0.5
S'grateful'
p144
tp145
a(I298
I1
F-0.75
S'short'
p146
tp147
a(I303
I6
F0.25
S'bigger'
p148
tp149
a(I321
I8
F-0.375
S'serious'
p150
tp151
a(I321
I20
I0
S'great'
p152
tp153
a(I344
I3
F-0.5
S'poor'
p154
tp155
a(I369
I12
F-0.5
S'poor'
p156
tp157
a(I389
I1
F1.0
S'good'
p158
tp159
a(I411
I10
F0.875
S'happy'
p160
tp161
a(I411
I15
I0
S'incredible'
p162
tp163
as(S'1900'
p164
S'mhzblackberry'
p165
S'z10'
p166
tp167
(lp168
(I142
I0
F-0.125
g39
tp169
as(S'model'
p170
tp171
(lp172
(I72
I2
F0.625
S'easy'
p173
tp174
a(I72
I2
I0
S'older'
p175
tp176
a(I111
I4
I0
S'same'
p177
tp178
a(I111
I6
F0.5
S'second'
p179
tp180
a(I111
I6
I0
S'same'
p181
tp182
a(I135
I2
F0.5
S'model'
p183
tp184
a(I142
I0
I0
S'specific'
p185
tp186
a(I183
I2
I0
S'latest'
p187
tp188
a(I183
I4
I0
S'earliest'
p189
tp190
a(I183
I4
I0
S'latest'
p191
tp192
a(I285
I3
I0
S'different'
p193
tp194
a(I289
I0
F-0.5
S'sure'
p195
tp196
a(I289
I0
I0
S'exact'
p197
tp198
a(I381
I1
F0.5
S'careful'
p199
tp200
a(I384
I6
F1.0
S'best'
p201
tp202
a(I411
I1
F0.375
S'new'
p203
tp204
as(S'keyboard'
p205
tp206
(lp207
(I4
I7
F0.25
S'responsive'
p208
tp209
a(I48
I18
I0
S'physical'
p210
tp211
a(I74
I4
I0
S'most'
p212
tp213
a(I89
I1
F1.0
S'best'
p214
tp215
a(I92
I1
I0
S'fast'
p216
tp217
a(I92
I1
F0.25
S'responsive'
p218
tp219
a(I105
I2
I0
S'full'
p220
tp221
a(I128
I1
I0
S'incredible'
p222
tp223
a(I154
I30
F-0.875
S'hard'
p224
tp225
a(I157
I17
F1.0
S'good'
p226
tp227
a(I168
I8
I0
S'phenomenal'
p228
tp229
a(I191
I6
F1.0
S'best'
p230
tp231
a(I196
I1
F0.625
S'easier'
p232
tp233
a(I226
I5
F0.625
S'perfect'
p234
tp235
a(I226
I5
I0
S'different'
p236
tp237
a(I228
I21
I0
S'updated'
p238
tp239
a(I239
I0
I0
S'physical'
p240
tp241
a(I272
I2
I0
S'faster'
p242
tp243
a(I272
I2
I0
S'physical'
p244
tp245
a(I284
I4
F-0.5
S'actual'
p246
tp247
a(I303
I3
F-0.125
S'hesitate'
p248
tp249
a(I303
I6
I0
S'physical'
p250
tp251
a(I308
I1
I0
S'physical'
p252
tp253
a(I321
I6
I0
S'android'
p254
tp255
a(I333
I54
F-0.375
S'top'
p256
tp257
a(I334
I4
F0.5
S'accurate'
p258
tp259
a(I355
I0
F1.0
S'best'
p260
tp261
a(I358
I2
F1.0
S'best'
p262
tp263
a(I389
I1
I0
S'incredible'
p264
tp265
a(I395
I4
I0
S'unbelievable'
p266
tp267
as(S'right'
p268
tp269
(lp270
(I108
I17
F1.0
S'best'
p271
tp272
a(I123
I47
F-0.375
S'crazy'
p273
tp274
a(I129
I58
F-0.25
S'lower'
p275
tp276
as(S'email'
p277
tp278
(lp279
(I34
I24
I0
S'corporate'
p280
tp281
a(I98
I2
F-0.5
S'sure'
p282
tp283
a(I108
I40
F-0.5
S'certain'
p284
tp285
a(I108
I42
F0.125
S'able'
p286
tp287
a(I108
I42
I0
S'archive'
p288
tp289
a(I177
I2
I0
S'more'
p290
tp291
a(I356
I1
I0
S'granular'
p292
tp293
a(I362
I10
F0.375
S'new'
p294
tp295
a(I367
I0
F1.0
S'best'
p296
tp297
a(I367
I0
I0
S'mobile'
p298
tp299
a(I389
I1
I0
S'corporate'
p300
tp301
as(S'sim'
p302
S'card'
p303
tp304
(lp305
(I38
I2
F-0.375
S'smaller'
p306
tp307
a(I176
I6
F0.25
S'original'
p308
tp309
as(S'make'
p310
S'r'
p311
S'life'
p312
tp313
(lp314
(I48
I34
F0.625
S'easier'
p315
tp316
a(I168
I7
F0.625
S'easier'
p317
tp318
a(I168
I7
I0
S'more'
p319
tp320
a(I369
I12
F-0.5
g156
tp321
a(I413
I4
F0.625
S'easier'
p322
tp323
a(I421
I3
F0.625
S'easier'
p324
tp325
as(S'came'
p326
tp327
(lp328
(I179
I0
I0
S'signal'
p329
tp330
as(S'android'
p331
S'apps'
p332
tp333
(lp334
(I20
I2
I0
S'android'
p335
tp336
a(I34
I10
I0
S'android'
p337
tp338
a(I34
I13
I0
S'android'
p339
tp340
a(I34
I14
I0
S'many'
p341
tp342
a(I34
I14
F0.125
S'popular'
p343
tp344
a(I100
I0
F-0.875
S'load'
p345
tp346
a(I100
I0
I0
S'most'
p347
tp348
a(I100
I0
I0
S'android'
p349
tp350
a(I119
I8
I0
S'few'
p351
tp352
a(I119
I8
F1.0
S'good'
p353
tp354
a(I119
I8
I0
S'most'
p355
tp356
a(I119
I8
F-0.25
S'google'
p357
tp358
a(I119
I14
F0.125
S'popular'
p359
tp360
a(I119
I20
I0
S'android'
p361
tp362
a(I119
I24
F0.125
S'popular'
p363
tp364
a(I119
I24
F0.375
S'available'
p365
tp366
a(I145
I1
I0
S'most'
p367
tp368
a(I157
I43
I0
S'android'
p369
tp370
a(I157
I44
I0
S'android'
p371
tp372
a(I174
I2
I0
S'android'
p373
tp374
a(I174
I2
I0
S'most'
p375
tp376
a(I174
I15
I0
S'android'
p377
tp378
a(I174
I15
F0.125
S'equal'
p379
tp380
a(I228
I21
F0.25
S'used'
p381
tp382
a(I264
I0
F-0.625
S'other'
p383
tp384
a(I264
I0
F-0.625
S'free'
p385
tp386
a(I264
I0
I0
S'few'
p387
tp388
a(I283
I8
I0
S'android'
p389
tp390
a(I335
I2
I0
S'android'
p391
tp392
a(I362
I13
I0
S'most'
p393
tp394
a(I362
I13
I0
S'android'
p395
tp396
a(I369
I18
F0.375
S'available'
p397
tp398
a(I369
I18
F0.125
S'last'
p399
tp400
a(I380
I37
I0
S'android'
p401
tp402
a(I388
I2
I0
S'most'
p403
tp404
a(I388
I4
I0
S'few'
p405
tp406
a(I388
I4
I0
S'many'
p407
tp408
a(I388
I4
F0.125
S'essential'
p409
tp410
a(I401
I1
F1.0
S'good'
p411
tp412
a(I418
I14
F0.375
S'similar'
p413
tp414
a(I418
I14
I0
S'android'
p415
tp416
a(I418
I15
I0
S'android'
p417
tp418
as(S'screen'
p419
tp420
(lp421
(I6
I0
F0.25
S'sharp'
p422
tp423
a(I6
I0
F0.625
S'easy'
p424
tp425
a(I10
I0
F0.875
S'happy'
p426
tp427
a(I10
I0
F0.5
S'touch'
p428
tp429
a(I25
I6
F0.25
S'larger'
p430
tp431
a(I28
I1
I0
S'wide'
p432
tp433
a(I45
I5
F-0.375
S'black'
p434
tp435
a(I45
I5
F-0.375
S'black'
p436
tp437
a(I71
I0
F0.25
S'larger'
p438
tp439
a(I75
I0
F0.5
S'touch'
p440
tp441
a(I95
I2
F1.0
S'best'
p442
tp443
a(I105
I0
F0.5
S'touch'
p444
tp445
a(I105
I6
F0.25
S'larger'
p446
tp447
a(I121
I0
I0
S'wide'
p448
tp449
a(I157
I5
F0.5
S'touch'
p450
tp451
a(I164
I3
F1.0
S'best'
p452
tp453
a(I174
I11
I0
S'great'
p454
tp455
a(I196
I0
F0.25
S'larger'
p456
tp457
a(I209
I10
F0.5
S'second'
p458
tp459
a(I217
I0
F0.625
S'easy'
p460
tp461
a(I254
I4
F1.0
S'best'
p462
tp463
a(I261
I0
F0.625
S'easy'
p464
tp465
a(I261
I0
I0
S'big'
p466
tp467
a(I275
I5
F-0.125
S'slow'
p468
tp469
a(I275
I6
F0.5
S'touch'
p470
tp471
a(I290
I0
I0
S'most'
p472
tp473
a(I290
I0
F0.25
S'responsive'
p474
tp475
a(I348
I4
F0.25
S'consistent'
p476
tp477
a(I356
I5
I0
S'normal'
p478
tp479
a(I394
I0
F0.5
S'touch'
p480
tp481
a(I394
I0
F0.5
S'touch'
p482
tp483
a(I406
I2
F0.25
S'larger'
p484
tp485
a(I406
I2
F0.875
S'nice'
p486
tp487
as(S'working'
p488
tp489
(lp490
(I58
I1
F1.0
S'good'
p491
tp492
as(S'everything'
p493
tp494
(lp495
(I2
I1
F0.625
S'perfect'
p496
tp497
a(I29
I5
I0
S'user'
p498
tp499
a(I111
I7
F0.375
S'available'
p500
tp501
a(I125
I0
F0.125
S'first'
p502
tp503
a(I148
I0
F0.5
S'true'
p504
tp505
a(I157
I33
I0
S'android'
p506
tp507
a(I157
I33
I0
S'many'
p508
tp509
a(I157
I33
F-0.625
S'free'
p510
tp511
a(I334
I2
F0.625
S'convenient'
p512
tp513
a(I369
I19
F0.875
S'music'
p514
tp515
a(I369
I19
I0
S'more'
p516
tp517
as(S'stl100'
p518
S'1'
p519
S'model'
p520
tp521
(lp522
(I135
I2
F0.5
g183
tp523
a(I142
I0
I0
g185
tp524
as(S'samsung'
p525
tp526
(lp527
(I4
I0
I0
S'few'
p528
tp529
a(I367
I0
F0.375
S'available'
p530
tp531
as(S'back'
p532
tp533
(lp534
(I108
I20
F0.625
S'removable'
p535
tp536
as(S'touch'
p537
tp538
(lp539
(I34
I7
I0
S'common'
p540
tp541
a(I34
I8
F1.0
S'best'
p542
tp543
a(I128
I1
F1.0
S'best'
p544
tp545
a(I143
I3
F-0.625
S'other'
p546
tp547
a(I202
I4
F0.125
S'first'
p548
tp549
a(I297
I1
I0
S'nervous'
p550
tp551
a(I309
I1
F1.0
S'best'
p552
tp553
a(I350
I0
F0.25
S'responsive'
p554
tp555
as(S'camera'
p556
tp557
(lp558
(I26
I13
I0
S'incredible'
p559
tp560
a(I38
I3
I0
S'great'
p561
tp562
a(I40
I0
F1.0
S'good'
p563
tp564
a(I138
I0
F-0.75
S'secondary'
p565
tp566
a(I159
I1
F-0.125
S'slow'
p567
tp568
a(I199
I0
I0
S'quick'
p569
tp570
a(I206
I3
F0.125
S'solid'
p571
tp572
a(I215
I2
I0
S'most'
p573
tp574
a(I218
I4
I0
S'normal'
p575
tp576
a(I233
I1
F0.875
S'nice'
p577
tp578
a(I255
I0
F1.0
S'good'
p579
tp580
a(I255
I5
F1.0
S'good'
p581
tp582
a(I255
I5
F1.0
S'good'
p583
tp584
a(I315
I4
I0
S'great'
p585
tp586
a(I334
I3
F1.0
S'good'
p587
tp588
a(I418
I28
I0
S'standard'
p589
tp590
as(S'bb10'
p591
S'operating'
p592
S'system'
p593
tp594
(lp595
(I127
I0
I0
S'android'
p596
tp597
a(I418
I0
F0.375
S'new'
p598
tp599
a(I418
I0
F-0.625
S'other'
p600
tp601
a(I418
I0
I0
S'online'
p602
tp603
a(I421
I3
F0.5
S'second'
p604
tp605
a(I421
I3
F1.0
S'best'
p606
tp607
a(I421
I3
F0.375
S'available'
p608
tp609
as(S'operating'
p610
S'system'
p611
tp612
(lp613
(I27
I4
I0
S'different'
p614
tp615
a(I111
I4
I0
S'different'
p616
tp617
a(I119
I12
F0.125
S'last'
p618
tp619
a(I119
I13
F0.375
S'new'
p620
tp621
a(I119
I14
F0.375
S'new'
p622
tp623
a(I119
I26
F0.375
S'new'
p624
tp625
a(I119
I27
F0.375
S'new'
p626
tp627
a(I127
I0
I0
g596
tp628
a(I127
I1
F-0.25
S'higher'
p629
tp630
a(I148
I0
F0.375
S'new'
p631
tp632
a(I216
I3
F0.5
S'told'
p633
tp634
a(I411
I3
I0
S'android'
p635
tp636
a(I411
I19
F0.25
S'powerful'
p637
tp638
a(I418
I0
F-0.625
g600
tp639
a(I418
I0
I0
g602
tp640
a(I421
I3
F1.0
g606
tp641
a(I421
I3
F0.375
g608
tp642
as(S'apps'
p643
tp644
(lp645
(I7
I0
F-0.5
S'unwanted'
p646
tp647
a(I20
I2
I0
g335
tp648
a(I29
I5
F0.375
S'available'
p649
tp650
a(I34
I10
I0
g337
tp651
a(I34
I13
I0
g339
tp652
a(I34
I14
I0
g341
tp653
a(I48
I16
F-0.625
S'other'
p654
tp655
a(I66
I3
F-0.125
S'blackberry'
p656
tp657
a(I74
I6
F-0.125
S'alternative'
p658
tp659
a(I95
I1
I0
S'most'
p660
tp661
a(I95
I1
F0.875
S'important'
p662
tp663
a(I100
I0
F-0.875
g345
tp664
a(I100
I0
I0
g347
tp665
a(I100
I0
I0
g349
tp666
a(I119
I8
I0
g351
tp667
a(I119
I8
F1.0
g353
tp668
a(I119
I8
I0
g355
tp669
a(I119
I8
F-0.25
g357
tp670
a(I119
I9
F0.125
S'popular'
p671
tp672
a(I119
I9
I0
S'few'
p673
tp674
a(I119
I14
F0.125
g359
tp675
a(I119
I20
I0
g361
tp676
a(I119
I24
F0.125
g363
tp677
a(I119
I24
F0.375
g365
tp678
a(I119
I26
I0
S'close'
p679
tp680
a(I119
I29
F1.0
S'good'
p681
tp682
a(I120
I1
F0.375
S'much'
p683
tp684
a(I123
I13
F1.0
S'good'
p685
tp686
a(I123
I13
F0.125
S'native'
p687
tp688
a(I123
I14
F-0.375
S'crazy'
p689
tp690
a(I129
I168
F-0.625
S'other'
p691
tp692
a(I136
I1
F-0.625
S'other'
p693
tp694
a(I139
I0
I0
S'more'
p695
tp696
a(I143
I3
I0
S'common'
p697
tp698
a(I143
I3
F0.875
S'important'
p699
tp700
a(I143
I3
F0.375
S'available'
p701
tp702
a(I145
I0
I0
S'many'
p703
tp704
a(I145
I0
I0
S'useful'
p705
tp706
a(I145
I0
F0.125
S'native'
p707
tp708
a(I145
I1
I0
g367
tp709
a(I154
I45
F0.25
S'read'
p710
tp711
a(I157
I32
F1.0
S'good'
p712
tp713
a(I157
I35
F-0.625
S'other'
p714
tp715
a(I157
I43
I0
g369
tp716
a(I157
I44
I0
g371
tp717
a(I160
I0
I0
S'more'
p718
tp719
a(I164
I2
I0
S'most'
p720
tp721
a(I164
I2
F0.875
S'important'
p722
tp723
a(I168
I3
I0
S'integrated'
p724
tp725
a(I174
I2
I0
g373
tp726
a(I174
I2
I0
g375
tp727
a(I174
I15
I0
g377
tp728
a(I174
I15
F0.125
g379
tp729
a(I175
I2
F1.0
S'best'
p730
tp731
a(I180
I6
F1.0
S'best'
p732
tp733
a(I191
I15
F-0.5
S'less'
p734
tp735
a(I191
I15
I0
S'only'
p736
tp737
a(I191
I18
F0.375
S'available'
p738
tp739
a(I202
I2
I0
S'many'
p740
tp741
a(I209
I2
I0
S'different'
p742
tp743
a(I209
I5
F0.875
S'nice'
p744
tp745
a(I218
I1
F-0.5
S'open'
p746
tp747
a(I226
I8
F0.375
S'new'
p748
tp749
a(I226
I9
F0.25
S'routine'
p750
tp751
a(I228
I11
I0
S'few'
p752
tp753
a(I228
I11
F1.0
S'good'
p754
tp755
a(I228
I16
F1.0
S'good'
p756
tp757
a(I228
I21
F0.25
g381
tp758
a(I255
I5
I0
S'most'
p759
tp760
a(I255
I5
F0.125
S'popular'
p761
tp762
a(I264
I0
F-0.625
g383
tp763
a(I264
I0
F-0.625
g385
tp764
a(I264
I0
I0
g387
tp765
a(I283
I8
I0
g389
tp766
a(I295
I1
I0
S'many'
p767
tp768
a(I296
I1
I0
S'fewer'
p769
tp770
a(I296
I1
F0.375
S'available'
p771
tp772
a(I303
I7
I0
S'many'
p773
tp774
a(I309
I4
F1.0
S'good'
p775
tp776
a(I309
I10
I0
S'more'
p777
tp778
a(I309
I10
I0
S'exclusive'
p779
tp780
a(I312
I2
F1.0
S'better'
p781
tp782
a(I312
I2
I0
S'more'
p783
tp784
a(I315
I11
F0.375
S'available'
p785
tp786
a(I315
I12
F0.375
S'available'
p787
tp788
a(I315
I13
F0.375
S'available'
p789
tp790
a(I333
I16
I0
S'many'
p791
tp792
a(I333
I20
I0
S'many'
p793
tp794
a(I333
I20
I0
S'many'
p795
tp796
a(I333
I21
I0
S'most'
p797
tp798
a(I333
I38
I0
S'many'
p799
tp800
a(I333
I38
F-0.125
S'shrugged'
p801
tp802
a(I333
I43
I0
S'many'
p803
tp804
a(I335
I2
I0
g391
tp805
a(I361
I2
I0
S'more'
p806
tp807
a(I362
I11
F-0.875
S'awful'
p808
tp809
a(I362
I13
I0
g393
tp810
a(I362
I13
I0
g395
tp811
a(I369
I18
F0.375
g397
tp812
a(I380
I37
I0
g401
tp813
a(I388
I2
I0
g403
tp814
a(I388
I4
I0
g405
tp815
a(I388
I4
I0
g407
tp816
a(I388
I4
F0.125
g409
tp817
a(I401
I1
F1.0
g411
tp818
a(I404
I12
I0
S'more'
p819
tp820
a(I404
I12
F0.125
S'enough'
p821
tp822
a(I404
I12
I0
S'useful'
p823
tp824
a(I418
I14
F0.375
g413
tp825
a(I418
I14
I0
g415
tp826
a(I418
I15
I0
g417
tp827
a(I418
I17
F0.125
S'essential'
p828
tp829
a(I418
I48
I0
S'closing'
p830
tp831
a(I419
I1
I0
S'more'
p832
tp833
as(S'need'
p834
tp835
(lp836
(I122
I0
F0.5
S'possible'
p837
tp838
as(S'mhz'
p839
S'quad'
p840
S'band'
p841
tp842
(lp843
(I142
I0
F-0.75
S'single'
p844
tp845
as(S'quality'
p846
tp847
(lp848
(I19
I8
I0
S'great'
p849
tp850
a(I31
I11
F0.5
S'personal'
p851
tp852
a(I31
I11
F1.0
S'good'
p853
tp854
a(I86
I0
I0
S'great'
p855
tp856
a(I108
I11
I0
S'plastic'
p857
tp858
a(I129
I163
I0
S'close'
p859
tp860
a(I186
I13
F1.0
S'good'
p861
tp862
a(I202
I9
I0
S'great'
p863
tp864
a(I212
I0
F1.0
S'good'
p865
tp866
a(I228
I21
F-0.25
S'higher'
p867
tp868
a(I283
I16
I0
S'crystal'
p869
tp870
a(I283
I16
F0.5
S'clear'
p871
tp872
a(I302
I1
F-0.5
S'poor'
p873
tp874
a(I303
I7
I0
S'more'
p875
tp876
a(I309
I9
I0
S'more'
p877
tp878
a(I309
I9
I0
S'high'
p879
tp880
a(I367
I0
F-0.25
S'higher'
p881
tp882
a(I372
I1
F1.0
S'good'
p883
tp884
a(I380
I14
F0.625
S'eager'
p885
tp886
a(I388
I0
F1.0
S'good'
p887
tp888
as(S'product'
p889
tp890
(lp891
(I14
I1
I0
S'great'
p892
tp893
a(I169
I0
F1.0
S'good'
p894
tp895
a(I171
I3
I0
S'great'
p896
tp897
a(I175
I0
I0
S'mobile'
p898
tp899
a(I186
I0
I0
S'such'
p900
tp901
a(I186
I0
F1.0
S'good'
p902
tp903
a(I247
I0
F1.0
S'good'
p904
tp905
a(I274
I0
F1.0
S'good'
p906
tp907
a(I306
I0
F1.0
S'good'
p908
tp909
a(I314
I0
F0.5
S'clear'
p910
tp911
a(I363
I0
F0.125
S'first'
p912
tp913
a(I379
I10
I0
S'write'
p914
tp915
a(I414
I10
F0.375
S'new'
p916
tp917
as(S'mobile'
p918
tp919
(lp920
(I34
I1
F0.375
S'new'
p921
tp922
a(I40
I0
F1.0
S'good'
p923
tp924
a(I56
I0
I0
S'great'
p925
tp926
a(I123
I37
F0.125
S'first'
p927
tp928
a(I350
I0
I0
S'useful'
p929
tp930
as(S'bb10'
p931
tp932
(lp933
(I34
I7
I0
S'many'
p934
tp935
a(I34
I15
F0.125
S'native'
p936
tp937
a(I34
I22
F0.25
S'familiar'
p938
tp939
a(I34
I37
F0.75
S'worth'
p940
tp941
a(I34
I37
F0.375
S'new'
p942
tp943
a(I135
I9
F0.875
S'happy'
p944
tp945
a(I332
I0
F-0.25
S'disappointing'
p946
tp947
a(I332
I2
F0.375
S'new'
p948
tp949
a(I418
I0
F0.375
g598
tp950
a(I421
I3
F0.5
g604
tp951
as(S'apple'
p952
tp953
(lp954
(I60
I0
F-0.625
S'want'
p955
tp956
a(I154
I16
I0
S'earlier'
p957
tp958
a(I297
I7
F-0.5
S'sure'
p959
tp960
a(I380
I11
F0.125
S'first'
p961
tp962
a(I404
I13
I0
S'android'
p963
tp964
as(S'things'
p965
tp966
(lp967
(I14
I4
I0
S'such'
p968
tp969
a(I24
I1
I0
S'different'
p970
tp971
a(I34
I2
I0
S'many'
p972
tp973
a(I108
I27
I0
S'few'
p974
tp975
a(I129
I26
F0.625
S'easy'
p976
tp977
a(I129
I104
F1.0
S'best'
p978
tp979
a(I148
I0
I0
S'many'
p980
tp981
a(I154
I21
F-0.375
S'small'
p982
tp983
a(I157
I28
F0.375
S'new'
p984
tp985
a(I157
I28
F1.0
S'good'
p986
tp987
a(I168
I1
F1.0
S'better'
p988
tp989
a(I168
I1
I0
S'more'
p990
tp991
a(I168
I1
I0
S'more'
p992
tp993
a(I321
I20
F0.875
S'important'
p994
tp995
a(I325
I0
I0
S'android'
p996
tp997
a(I325
I0
I0
S'few'
p998
tp999
a(I328
I0
F0.375
S'new'
p1000
tp1001
a(I333
I4
F0.625
S'positive'
p1002
tp1003
a(I333
I53
I0
S'many'
p1004
tp1005
a(I362
I5
F1.0
S'best'
p1006
tp1007
a(I379
I0
F0.75
S'beautiful'
p1008
tp1009
a(I380
I38
F-0.75
S'little'
p1010
tp1011
a(I411
I2
I0
S'great'
p1012
tp1013
a(I411
I2
I0
S'android'
p1014
tp1015
as(S'of'
p1016
S'blackberry'
p1017
S'z10'
p1018
tp1019
(lp1020
(I31
I3
F0.625
g9
tp1021
a(I31
I3
F-0.125
g11
tp1022
a(I31
I3
F-0.625
g13
tp1023
a(I31
I6
I0
g15
tp1024
a(I60
I0
F-0.875
g17
tp1025
a(I111
I4
I0
g27
tp1026
a(I119
I19
I0
g33
tp1027
a(I119
I20
I0
g35
tp1028
a(I119
I23
F-0.5
g37
tp1029
a(I157
I35
I0
g41
tp1030
a(I170
I0
I0
g43
tp1031
a(I255
I4
F0.375
g49
tp1032
a(I262
I0
F0.375
g51
tp1033
a(I317
I8
F-0.125
g53
tp1034
a(I362
I0
F0.125
g55
tp1035
a(I362
I0
F0.125
g57
tp1036
a(I403
I0
I0
g63
tp1037
a(I418
I0
F-0.125
g67
tp1038
as(S'features'
p1039
tp1040
(lp1041
(I57
I1
I0
S'handy'
p1042
tp1043
a(I57
I1
F-0.375
S'simple'
p1044
tp1045
a(I63
I1
I0
S'same'
p1046
tp1047
a(I63
I8
F0.375
S'new'
p1048
tp1049
a(I82
I1
F-0.625
S'other'
p1050
tp1051
a(I82
I1
I0
S'great'
p1052
tp1053
a(I86
I0
F0.375
S'new'
p1054
tp1055
a(I101
I1
F0.625
S'sophisticated'
p1056
tp1057
a(I108
I41
F0.5
S'strongest'
p1058
tp1059
a(I120
I2
F1.0
S'good'
p1060
tp1061
a(I136
I0
I0
S'great'
p1062
tp1063
a(I196
I1
F-0.625
S'other'
p1064
tp1065
a(I249
I3
I0
S'great'
p1066
tp1067
a(I309
I6
F0.375
S'new'
p1068
tp1069
a(I321
I8
I0
S'more'
p1070
tp1071
a(I362
I16
I0
S'great'
p1072
tp1073
a(I362
I17
I0
S'few'
p1074
tp1075
a(I380
I12
I0
S'own'
p1076
tp1077
a(I380
I13
F-0.625
S'other'
p1078
tp1079
a(I388
I0
F0.875
S'nice'
p1080
tp1081
as(S'touch'
p1082
S'screen'
p1083
S'keyboard'
p1084
tp1085
(lp1086
(I10
I0
F0.875
g426
tp1087
a(I10
I0
F0.5
g428
tp1088
a(I89
I1
F1.0
g214
tp1089
a(I128
I1
I0
g222
tp1090
a(I128
I1
F1.0
g544
tp1091
a(I143
I3
F-0.625
g546
tp1092
a(I239
I0
I0
g240
tp1093
a(I297
I1
I0
g550
tp1094
a(I308
I1
I0
g252
tp1095
a(I309
I1
F1.0
g552
tp1096
a(I334
I4
F0.5
g258
tp1097
a(I358
I2
F1.0
g262
tp1098
a(I394
I0
F0.5
g480
tp1099
a(I394
I0
F0.5
g482
tp1100
as(S'well'
p1101
tp1102
(lp1103
(I143
I4
F-0.25
S'late'
p1104
tp1105
a(I143
I4
I0
S'very'
p1106
tp1107
as(S'people'
p1108
tp1109
(lp1110
(I5
I1
I0
S'rim'
p1111
tp1112
a(I84
I15
F0.375
S'busy'
p1113
tp1114
a(I101
I1
F0.125
S'enough'
p1115
tp1116
a(I101
I1
I0
S'most'
p1117
tp1118
a(I164
I16
I0
S'rim'
p1119
tp1120
a(I183
I0
F0.25
S'read'
p1121
tp1122
a(I297
I2
F-0.625
S'other'
p1123
tp1124
a(I332
I2
I0
S'beet'
p1125
tp1126
a(I340
I1
F0.375
S'busy'
p1127
tp1128
a(I362
I2
I0
S'many'
p1129
tp1130
a(I380
I5
F-0.75
S'stupid'
p1131
tp1132
a(I380
I12
I0
S'later'
p1133
tp1134
a(I405
I8
I0
S'many'
p1135
tp1136
a(I411
I5
F0.375
S'much'
p1137
tp1138
as(S'look'
p1139
S'and'
p1140
S'feel'
p1141
tp1142
(lp1143
(I108
I9
I0
S'subjective'
p1144
tp1145
a(I411
I2
I0
S'same'
p1146
tp1147
as(S'feature'
p1148
tp1149
(lp1150
(I26
I2
F1.0
S'best'
p1151
tp1152
a(I108
I19
I0
S'such'
p1153
tp1154
a(I108
I24
F0.875
S'important'
p1155
tp1156
a(I108
I39
F0.5
S'strongest'
p1157
tp1158
a(I119
I11
I0
S'same'
p1159
tp1160
a(I129
I5
F0.875
S'important'
p1161
tp1162
a(I150
I4
F1.0
S'better'
p1163
tp1164
a(I150
I4
F0.375
S'much'
p1165
tp1166
a(I191
I12
F1.0
S'best'
p1167
tp1168
a(I228
I14
I0
S'incredible'
p1169
tp1170
a(I278
I0
F0.375
S'new'
p1171
tp1172
a(I309
I7
F0.25
S'favorite'
p1173
tp1174
a(I309
I7
F0.375
S'new'
p1175
tp1176
a(I315
I10
F0.375
S'new'
p1177
tp1178
a(I362
I3
I0
S'great'
p1179
tp1180
a(I380
I41
F-0.5
S'open'
p1181
tp1182
a(I380
I41
I0
S'android'
p1183
tp1184
as(S'seller'
p1185
tp1186
(lp1187
(I111
I9
I0
S'specific'
p1188
tp1189
a(I112
I0
F0.875
S'happy'
p1190
tp1191
a(I410
I13
I0
S'great'
p1192
tp1193
as(S'android'
p1194
tp1195
(lp1196
(I34
I4
I0
S'wholesale'
p1197
tp1198
a(I34
I14
F0.125
g343
tp1199
a(I108
I17
F0.375
S'newer'
p1200
tp1201
a(I108
I17
F0.375
S'new'
p1202
tp1203
a(I119
I31
F-0.25
S'google'
p1204
tp1205
a(I369
I18
F0.125
g399
tp1206
as(S'user'
p1207
tp1208
(lp1209
(I0
I0
F0.375
S'new'
p1210
tp1211
a(I23
I1
F0.625
S'replaceable'
p1212
tp1213
a(I26
I14
F-0.5
S'heavy'
p1214
tp1215
a(I31
I6
F-0.125
S'overall'
p1216
tp1217
a(I119
I14
I0
S'current'
p1218
tp1219
a(I129
I5
F-0.5
S'actual'
p1220
tp1221
a(I135
I7
F0.625
S'replaceable'
p1222
tp1223
a(I136
I0
I0
S'own'
p1224
tp1225
a(I226
I20
F0.25
S'familiar'
p1226
tp1227
a(I228
I24
I0
S'corporate'
p1228
tp1229
a(I275
I12
I0
S'quick'
p1230
tp1231
a(I303
I16
I0
S'graphical'
p1232
tp1233
a(I321
I1
I0
S'android'
p1234
tp1235
a(I333
I5
F0.375
S'new'
p1236
tp1237
a(I333
I15
I0
S'such'
p1238
tp1239
a(I333
I29
I0
S'large'
p1240
tp1241
a(I350
I3
F1.0
S'good'
p1242
tp1243
a(I400
I2
I0
S'android'
p1244
tp1245
as(S'works'
p1246
tp1247
(lp1248
(I89
I4
I0
S'great'
p1249
tp1250
a(I89
I4
F0.5
S'recommended'
p1251
tp1252
a(I358
I5
I0
S'great'
p1253
tp1254
a(I358
I5
F0.5
S'recommended'
p1255
tp1256
as(S'time'
p1257
S'to'
p1258
S'get'
p1259
tp1260
(lp1261
(I93
I2
F-0.5
S'sure'
p1262
tp1263
a(I93
I2
F0.125
S'first'
p1264
tp1265
a(I121
I0
I0
S'big'
p1266
tp1267
a(I121
I0
F0.5
S'warm'
p1268
tp1269
a(I206
I2
I0
S'real'
p1270
tp1271
a(I232
I0
F-0.875
S'hard'
p1272
tp1273
a(I303
I7
F0.25
S'familiar'
p1274
tp1275
as(S'ever'
p1276
tp1277
(lp1278
(I123
I24
F0.625
S'interested'
p1279
tp1280
as(S'excellent'
p1281
tp1282
(lp1283
(I29
I6
F0.875
S'happy'
p1284
tp1285
as(S'battery'
p1286
tp1287
(lp1288
(I7
I0
F0.125
g120
tp1289
a(I23
I2
F0.25
S'larger'
p1290
tp1291
a(I45
I6
I0
S'fast'
p1292
tp1293
a(I45
I9
F0.375
S'new'
p1294
tp1295
a(I59
I0
I0
S'earlier'
p1296
tp1297
a(I60
I0
F-0.5
g126
tp1298
a(I64
I4
F0.375
g132
tp1299
a(I94
I1
F0.125
S'last'
p1300
tp1301
a(I119
I10
F1.0
S'good'
p1302
tp1303
a(I121
I0
F0.375
S'new'
p1304
tp1305
a(I144
I1
F0.25
S'bigger'
p1306
tp1307
a(I145
I1
F-0.625
S'bad'
p1308
tp1309
a(I157
I7
I0
S'wish'
p1310
tp1311
a(I157
I8
I0
S'plastic'
p1312
tp1313
a(I191
I9
F0.125
S'last'
p1314
tp1315
a(I218
I5
F1.0
S'good'
p1316
tp1317
a(I226
I14
F0.375
S'extended'
p1318
tp1319
a(I228
I0
F0.625
S'removable'
p1320
tp1321
a(I228
I5
F0.625
g138
tp1322
a(I228
I5
F0.625
g140
tp1323
a(I228
I6
F-0.125
S'slow'
p1324
tp1325
a(I254
I5
F0.625
S'replaceable'
p1326
tp1327
a(I282
I2
F0.125
S'last'
p1328
tp1329
a(I298
I1
F-0.75
g146
tp1330
a(I321
I8
F-0.375
g150
tp1331
a(I321
I20
I0
g152
tp1332
a(I334
I1
F0.125
S'last'
p1333
tp1334
a(I389
I1
F1.0
g158
tp1335
a(I411
I15
I0
g162
tp1336
as(S'n'
p1337
S'one'
p1338
S'place'
p1339
tp1340
(lp1341
(I123
I42
F-0.125
S'public'
p1342
tp1343
a(I193
I4
I0
S'consolidated'
p1344
tp1345
as(S'blackberry'
p1346
S'z10'
p1347
S'stl100'
p1348
tp1349
(lp1350
(I142
I0
F-0.125
g39
tp1351
a(I403
I0
I0
g63
tp1352
as(S'software'
p1353
tp1354
(lp1355
(I34
I36
I0
S'mobile'
p1356
tp1357
a(I41
I1
F0.125
S'mighty'
p1358
tp1359
a(I42
I0
F0.125
S'impressive'
p1360
tp1361
a(I62
I0
I0
S'same'
p1362
tp1363
a(I101
I2
F-0.75
S'have'
p1364
tp1365
a(I126
I0
I0
S'chinese'
p1366
tp1367
a(I140
I0
F-0.75
S'little'
p1368
tp1369
a(I154
I29
I0
S'latest'
p1370
tp1371
a(I186
I8
F0.375
S'new'
p1372
tp1373
a(I204
I1
I0
S'update'
p1374
tp1375
a(I216
I2
F0.5
S'told'
p1376
tp1377
a(I243
I1
I0
S'latest'
p1378
tp1379
a(I380
I14
F1.0
S'best'
p1380
tp1381
a(I380
I26
F0.875
S'important'
p1382
tp1383
a(I380
I26
I0
S'more'
p1384
tp1385
as(S'android'
p1386
S'and'
p1387
S'os'
p1388
tp1389
(lp1390
(I34
I4
I0
g1197
tp1391
a(I119
I31
F-0.25
g1204
tp1392
a(I264
I0
I0
S'android'
p1393
tp1394
a(I283
I8
F0.125
S'able'
p1395
tp1396
a(I380
I12
I0
S'own'
p1397
tp1398
a(I380
I12
I0
S'android'
p1399
tp1400
a(I380
I12
F-0.625
S'free'
p1401
tp1402
a(I380
I27
I0
S'own'
p1403
tp1404
a(I388
I2
F0.375
S'new'
p1405
tp1406
a(I389
I1
I0
S'close'
p1407
tp1408
a(I389
I1
F0.375
S'new'
p1409
tp1410
as(S'network'
p1411
tp1412
(lp1413
(I26
I15
I0
S'social'
p1414
tp1415
a(I31
I9
I0
S'social'
p1416
tp1417
a(I111
I4
F0.5
S'functional'
p1418
tp1419
a(I129
I54
I0
S'mobile'
p1420
tp1421
a(I252
I0
I0
S'mobile'
p1422
tp1423
a(I285
I2
F0.5
S'possible'
p1424
tp1425
as(S'better'
p1426
tp1427
(lp1428
(I48
I14
F0.375
S'much'
p1429
tp1430
a(I48
I49
I0
S'more'
p1431
tp1432
a(I48
I49
I0
S'efficient'
p1433
tp1434
as(S'mhzblackberry'
p1435
S'z10'
p1436
S'stl100'
p1437
tp1438
(lp1439
(I142
I0
F-0.125
g39
tp1440
as(S'lack'
p1441
S'of'
p1442
S'apps'
p1443
tp1444
(lp1445
(I34
I14
I0
g341
tp1446
a(I64
I5
I0
S'current'
p1447
tp1448
a(I119
I8
I0
g351
tp1449
a(I119
I8
F1.0
g353
tp1450
a(I119
I8
I0
g355
tp1451
a(I119
I8
F-0.25
g357
tp1452
a(I119
I9
F0.125
g671
tp1453
a(I119
I9
I0
g673
tp1454
a(I119
I14
F0.125
g359
tp1455
a(I119
I20
I0
g361
tp1456
a(I157
I35
F-0.625
g714
tp1457
a(I174
I13
I0
S'current'
p1458
tp1459
a(I228
I11
I0
g752
tp1460
a(I228
I11
F1.0
g754
tp1461
a(I228
I21
F0.25
g381
tp1462
a(I367
I1
F-0.5
S'poor'
p1463
tp1464
a(I367
I1
F0.125
S'downside'
p1465
tp1466
a(I388
I2
I0
g403
tp1467
a(I388
I4
I0
g405
tp1468
a(I388
I4
I0
g407
tp1469
a(I388
I4
F0.125
g409
tp1470
a(I418
I15
I0
g417
tp1471
a(I418
I17
F0.125
g828
tp1472
as(S'new'
p1473
S'blackberry'
p1474
tp1475
(lp1476
(I27
I1
F0.375
S'newer'
p1477
tp1478
a(I34
I17
F0.375
S'new'
p1479
tp1480
a(I44
I3
F0.375
S'new'
p1481
tp1482
a(I108
I37
I0
g23
tp1483
a(I119
I8
F0.375
S'new'
p1484
tp1485
a(I119
I9
F0.375
S'new'
p1486
tp1487
a(I119
I14
F0.375
S'new'
p1488
tp1489
a(I119
I14
I0
S'different'
p1490
tp1491
a(I119
I14
I0
S'old'
p1492
tp1493
a(I119
I15
F0.375
S'new'
p1494
tp1495
a(I119
I16
F0.375
S'new'
p1496
tp1497
a(I119
I16
F0.25
S'read'
p1498
tp1499
a(I119
I21
F0.375
S'new'
p1500
tp1501
a(I216
I0
F0.375
g47
tp1502
a(I262
I0
F0.375
g51
tp1503
a(I263
I0
F-0.375
S'pull'
p1504
tp1505
a(I316
I1
F0.375
S'new'
p1506
tp1507
a(I316
I6
F0.375
S'new'
p1508
tp1509
a(I316
I6
F0.375
S'new'
p1510
tp1511
a(I363
I0
I0
S'old'
p1512
tp1513
a(I418
I1
F-0.125
S'former'
p1514
tp1515
a(I421
I10
F0.375
S'new'
p1516
tp1517
as(S'however'
p1518
tp1519
(lp1520
(I238
I0
F0.375
S'new'
p1521
tp1522
as(S'device'
p1523
tp1524
(lp1525
(I0
I9
F0.625
S'easy'
p1526
tp1527
a(I64
I2
F0.25
S'responsive'
p1528
tp1529
a(I64
I2
F0.5
S'accurate'
p1530
tp1531
a(I94
I0
I0
S'fast'
p1532
tp1533
a(I95
I2
I0
S'mobile'
p1534
tp1535
a(I101
I2
F-0.375
S'top'
p1536
tp1537
a(I108
I40
I0
S'more'
p1538
tp1539
a(I119
I29
I0
S'navigational'
p1540
tp1541
a(I164
I3
I0
S'mobile'
p1542
tp1543
a(I174
I5
I0
S'great'
p1544
tp1545
a(I197
I1
I0
S'great'
p1546
tp1547
a(I228
I10
I0
S'awhile'
p1548
tp1549
a(I228
I21
F-0.625
S'secure'
p1550
tp1551
a(I228
I24
F0.375
S'new'
p1552
tp1553
a(I239
I0
F0.125
S'first'
p1554
tp1555
a(I249
I4
F1.0
S'best'
p1556
tp1557
a(I251
I0
F-0.375
S'unacceptable'
p1558
tp1559
a(I291
I2
F-0.125
S'refreshed'
p1560
tp1561
a(I294
I1
I0
S'fast'
p1562
tp1563
a(I303
I0
F0.5
S'bought'
p1564
tp1565
a(I319
I2
F-0.625
S'bad'
p1566
tp1567
a(I327
I1
I0
S'incredible'
p1568
tp1569
a(I352
I3
F0.125
S'able'
p1570
tp1571
a(I359
I6
F-0.625
S'other'
p1572
tp1573
a(I390
I3
F0.25
S'powerful'
p1574
tp1575
a(I400
I0
F0.375
S'new'
p1576
tp1577
a(I418
I51
F0.375
S'new'
p1578
tp1579
as(S'virtual'
p1580
S'keyboard'
p1581
tp1582
(lp1583
(I89
I1
F1.0
g214
tp1584
a(I196
I1
F0.625
g232
tp1585
a(I303
I3
F-0.125
g248
tp1586
a(I355
I0
F1.0
g260
tp1587
a(I358
I2
F1.0
g262
tp1588
as(S'system'
p1589
tp1590
(lp1591
(I111
I4
I0
g616
tp1592
a(I119
I12
F0.125
g618
tp1593
a(I127
I1
F-0.25
g629
tp1594
a(I135
I3
I0
S'android'
p1595
tp1596
a(I216
I3
F0.5
g633
tp1597
a(I418
I0
F-0.625
g600
tp1598
a(I418
I0
I0
g602
tp1599
a(I421
I3
F1.0
g606
tp1600
a(I421
I3
F0.375
g608
tp1601
as(S'bought'
p1602
S'a'
p1603
S'z10'
p1604
tp1605
(lp1606
(I150
I0
F-0.25
S'direct'
p1607
tp1608
a(I150
I0
I0
S'rim'
p1609
tp1610
a(I362
I0
F0.125
g55
tp1611
as(S'call'
p1612
tp1613
(lp1614
(I64
I1
F-0.25
S'dropped'
p1615
tp1616
a(I82
I5
F-0.75
S'uncomfortable'
p1617
tp1618
a(I232
I7
F0.125
S'last'
p1619
tp1620
a(I238
I0
F0.125
S'able'
p1621
tp1622
as(S'browser'
p1623
tp1624
(lp1625
(I71
I1
I0
S'quick'
p1626
tp1627
a(I150
I10
I0
S'great'
p1628
tp1629
a(I168
I6
F0.625
S'necessary'
p1630
tp1631
a(I193
I3
I0
S'fastest'
p1632
tp1633
a(I232
I9
F0.125
S'able'
p1634
tp1635
a(I268
I1
I0
S'great'
p1636
tp1637
a(I333
I54
I0
S'quick'
p1638
tp1639
a(I333
I54
F-0.375
S'smooth'
p1640
tp1641
a(I390
I2
F-0.625
S'earth'
p1642
tp1643
as(S'blackberry'
p1644
tp1645
(lp1646
(I2
I4
F-0.125
S'overall'
p1647
tp1648
a(I12
I0
F-0.125
g5
tp1649
a(I27
I1
F0.375
g1477
tp1650
a(I27
I4
I0
g7
tp1651
a(I34
I17
F0.375
g1479
tp1652
a(I34
I22
I0
S'different'
p1653
tp1654
a(I35
I9
F0.625
S'kind'
p1655
tp1656
a(I35
I10
I0
S'specific'
p1657
tp1658
a(I44
I3
F0.375
g1481
tp1659
a(I51
I1
F-0.625
S'other'
p1660
tp1661
a(I56
I2
I0
S'apple'
p1662
tp1663
a(I60
I0
F-0.875
g17
tp1664
a(I68
I0
F-0.125
S'future'
p1665
tp1666
a(I71
I2
F0.125
S'popular'
p1667
tp1668
a(I77
I1
F0.125
S'impressive'
p1669
tp1670
a(I80
I0
I0
g19
tp1671
a(I99
I1
F0.875
g21
tp1672
a(I101
I0
I0
S'faithful'
p1673
tp1674
a(I105
I0
F0.5
S'bold'
p1675
tp1676
a(I108
I33
I0
S'older'
p1677
tp1678
a(I108
I37
I0
g23
tp1679
a(I111
I4
I0
g27
tp1680
a(I116
I0
I0
S'old'
p1681
tp1682
a(I119
I1
F-0.125
g29
tp1683
a(I119
I4
I0
S'many'
p1684
tp1685
a(I119
I8
F0.375
g1484
tp1686
a(I119
I9
F0.375
g1486
tp1687
a(I119
I14
F0.375
g1488
tp1688
a(I119
I14
I0
g1490
tp1689
a(I119
I14
I0
g1492
tp1690
a(I119
I15
F0.375
g1494
tp1691
a(I119
I16
F0.375
g1496
tp1692
a(I119
I16
F0.25
g1498
tp1693
a(I119
I20
I0
g35
tp1694
a(I119
I21
F0.375
g1500
tp1695
a(I119
I29
F0.375
S'available'
p1696
tp1697
a(I159
I4
I0
S'android'
p1698
tp1699
a(I170
I0
I0
g43
tp1700
a(I175
I2
F1.0
g45
tp1701
a(I216
I0
F0.375
g47
tp1702
a(I218
I5
F-0.5
S'heavy'
p1703
tp1704
a(I218
I5
F0.75
S'give'
p1705
tp1706
a(I226
I19
F1.0
S'good'
p1707
tp1708
a(I226
I19
I0
S'old'
p1709
tp1710
a(I226
I19
I0
S'great'
p1711
tp1712
a(I226
I20
F0.375
S'seasoned'
p1713
tp1714
a(I228
I7
F-0.25
S'past'
p1715
tp1716
a(I228
I12
I0
S'old'
p1717
tp1718
a(I228
I14
F1.0
S'better'
p1719
tp1720
a(I228
I23
I0
S'few'
p1721
tp1722
a(I232
I3
F0.5
S'compatible'
p1723
tp1724
a(I248
I1
F1.0
S'best'
p1725
tp1726
a(I255
I4
F0.375
g49
tp1727
a(I262
I0
F0.375
g51
tp1728
a(I263
I0
F-0.375
g1504
tp1729
a(I284
I0
F0.5
S'loyal'
p1730
tp1731
a(I296
I0
F0.375
S'reliable'
p1732
tp1733
a(I296
I0
I0
S'fast'
p1734
tp1735
a(I306
I0
I0
S'great'
p1736
tp1737
a(I316
I1
F0.375
g1506
tp1738
a(I316
I6
F0.375
g1508
tp1739
a(I316
I6
F0.375
g1510
tp1740
a(I319
I3
I0
S'wish'
p1741
tp1742
a(I321
I2
I0
S'old'
p1743
tp1744
a(I321
I2
I0
S'old'
p1745
tp1746
a(I325
I1
I0
S'most'
p1747
tp1748
a(I329
I0
F1.0
S'best'
p1749
tp1750
a(I333
I36
F0.125
S'native'
p1751
tp1752
a(I352
I4
I0
S'old'
p1753
tp1754
a(I362
I0
F0.125
g57
tp1755
a(I362
I5
F0.125
S'first'
p1756
tp1757
a(I363
I0
I0
g1512
tp1758
a(I366
I1
F-0.125
S'super'
p1759
tp1760
a(I366
I1
I0
S'fast'
p1761
tp1762
a(I366
I1
I0
S'user'
p1763
tp1764
a(I366
I1
F-0.625
S'other'
p1765
tp1766
a(I369
I26
F0.25
S'original'
p1767
tp1768
a(I380
I31
F0.375
S'much'
p1769
tp1770
a(I380
I50
F1.0
S'best'
p1771
tp1772
a(I388
I4
F0.125
S'first'
p1773
tp1774
a(I400
I24
I0
S'specific'
p1775
tp1776
a(I403
I0
I0
g63
tp1777
a(I405
I7
F-0.25
g65
tp1778
a(I418
I1
F-0.125
g1514
tp1779
a(I421
I10
F0.375
g1516
tp1780
as(S'galaxy'
p1781
tp1782
(lp1783
(I369
I31
F-0.25
S'disappointing'
p1784
tp1785
as(S'lot'
p1786
S'of'
p1787
S'apps'
p1788
tp1789
(lp1790
(I119
I21
I0
S'most'
p1791
tp1792
a(I119
I21
F-0.75
S'likely'
p1793
tp1794
a(I119
I26
I0
g679
tp1795
a(I309
I4
F1.0
g775
tp1796
as(S'company'
p1797
tp1798
(lp1799
(I11
I0
I0
S'indicate'
p1800
tp1801
a(I84
I15
I0
S'wish'
p1802
tp1803
a(I98
I9
F-0.625
S'other'
p1804
tp1805
a(I119
I15
F0.5
S'strong'
p1806
tp1807
a(I119
I15
I0
S'big'
p1808
tp1809
a(I119
I15
F0.5
S'hi-tech'
p1810
tp1811
a(I236
I2
F-0.625
S'bankrupt'
p1812
tp1813
a(I277
I0
F-0.75
S'impossible'
p1814
tp1815
a(I277
I0
F-0.625
S'other'
p1816
tp1817
a(I277
I0
I0
S'mobile'
p1818
tp1819
a(I398
I2
F-0.125
S'blackberry'
p1820
tp1821
a(I398
I2
F1.0
S'good'
p1822
tp1823
as(S'time'
p1824
tp1825
(lp1826
(I19
I2
F0.125
S'first'
p1827
tp1828
a(I26
I11
I0
S'same'
p1829
tp1830
a(I30
I2
I0
S'next'
p1831
tp1832
a(I45
I3
F-0.5
S'long'
p1833
tp1834
a(I59
I0
F0.125
S'first'
p1835
tp1836
a(I74
I2
F0.125
S'first'
p1837
tp1838
a(I93
I2
F-0.5
g1262
tp1839
a(I93
I2
F0.125
g1264
tp1840
a(I106
I0
F-0.5
S'long'
p1841
tp1842
a(I108
I2
I0
S'weird'
p1843
tp1844
a(I108
I2
F0.125
S'first'
p1845
tp1846
a(I121
I0
I0
g1266
tp1847
a(I121
I0
F0.5
g1268
tp1848
a(I136
I0
F-0.5
S'long'
p1849
tp1850
a(I140
I0
F0.125
S'first'
p1851
tp1852
a(I154
I46
F-0.5
S'certain'
p1853
tp1854
a(I202
I5
F-0.875
S'trouble'
p1855
tp1856
a(I206
I2
I0
g1270
tp1857
a(I232
I0
F-0.875
g1272
tp1858
a(I283
I12
I0
S'same'
p1859
tp1860
a(I303
I7
F0.25
g1274
tp1861
a(I333
I5
F-0.5
S'long'
p1862
tp1863
a(I333
I39
F-0.875
S'hard'
p1864
tp1865
a(I334
I1
F-0.5
S'long'
p1866
tp1867
a(I352
I7
I0
S'same'
p1868
tp1869
a(I369
I28
F0.125
S'last'
p1870
tp1871
a(I369
I28
F0.5
S'second'
p1872
tp1873
a(I374
I0
F0.125
S'first'
p1874
tp1875
a(I418
I51
I0
S'more'
p1876
tp1877
a(I418
I51
F0.625
S'productive'
p1878
tp1879
as(S'smartphone'
p1880
tp1881
(lp1882
(I74
I6
F0.25
S'used'
p1883
tp1884
a(I119
I0
F0.375
S'new'
p1885
tp1886
a(I119
I6
F0.625
S'major'
p1887
tp1888
a(I119
I11
F0.5
S'compare'
p1889
tp1890
a(I119
I11
F-0.625
S'other'
p1891
tp1892
a(I119
I12
F-0.625
S'other'
p1893
tp1894
a(I119
I12
F0.375
S'new'
p1895
tp1896
a(I119
I14
F0.375
S'much'
p1897
tp1898
a(I119
I14
F0.125
S'popular'
p1899
tp1900
a(I119
I30
F0.5
S'expensive'
p1901
tp1902
a(I119
I31
F-0.625
S'other'
p1903
tp1904
a(I134
I0
I0
S'great'
p1905
tp1906
a(I154
I2
F0.125
S'first'
p1907
tp1908
a(I158
I0
F-0.5
S'regular'
p1909
tp1910
a(I180
I0
I0
S'only'
p1911
tp1912
a(I193
I8
F0.875
S'happy'
p1913
tp1914
a(I253
I0
F1.0
S'best'
p1915
tp1916
a(I421
I1
F1.0
S'best'
p1917
tp1918
as(S'awesome'
p1919
tp1920
(lp1921
(I193
I3
I0
S'more'
p1922
tp1923
as(S'fast'
p1924
tp1925
(lp1926
(I7
I0
F0.375
S'much'
p1927
tp1928
a(I7
I0
F1.0
S'better'
p1929
tp1930
a(I191
I1
F-0.125
S'super'
p1931
tp1932
a(I200
I0
F-0.125
S'super'
p1933
tp1934
a(I228
I7
I0
S'useful'
p1935
tp1936
a(I300
I0
F-0.125
S'super'
p1937
tp1938
a(I379
I8
F-0.125
S'super'
p1939
tp1940
a(I395
I3
I0
S'cool'
p1941
tp1942
as(S'support'
p1943
tp1944
(lp1945
(I71
I2
F0.5
S'technical'
p1946
tp1947
a(I71
I5
F-0.625
S'other'
p1948
tp1949
a(I119
I9
F-0.25
S'anemic'
p1950
tp1951
a(I157
I34
I0
S'least'
p1952
tp1953
a(I238
I1
I0
S'tech'
p1954
tp1955
a(I405
I3
F-0.875
S'awful'
p1956
tp1957
as(S'work'
p1958
tp1959
(lp1960
(I0
I6
I0
S'full'
p1961
tp1962
a(I31
I10
F0.5
S'personal'
p1963
tp1964
a(I43
I3
I0
S'full'
p1965
tp1966
a(I129
I69
F-0.625
S'other'
p1967
tp1968
a(I168
I4
I0
S'full'
p1969
tp1970
a(I191
I13
F0.5
S'personal'
p1971
tp1972
a(I285
I8
F0.625
S'easy'
p1973
tp1974
a(I325
I0
I0
S'android'
p1975
tp1976
a(I379
I3
F-0.375
S'simple'
p1977
tp1978
a(I400
I25
F0.5
S'personal'
p1979
tp1980
as(S'life'
p1981
tp1982
(lp1983
(I19
I8
F1.0
g122
tp1984
a(I43
I3
I0
g124
tp1985
a(I48
I34
F0.625
g315
tp1986
a(I60
I0
F-0.875
g128
tp1987
a(I64
I4
F-0.625
g130
tp1988
a(I123
I0
F-0.125
S'blackberry'
p1989
tp1990
a(I154
I36
F0.625
g134
tp1991
a(I168
I7
F0.625
g317
tp1992
a(I168
I7
I0
g319
tp1993
a(I190
I4
F1.0
g136
tp1994
a(I228
I21
F-0.125
g142
tp1995
a(I251
I3
F0.5
g144
tp1996
a(I303
I6
F0.25
g148
tp1997
a(I344
I3
F-0.5
g154
tp1998
a(I369
I12
F-0.5
g156
tp1999
a(I411
I10
F0.875
g160
tp2000
a(I413
I4
F0.625
g322
tp2001
a(I421
I3
F0.625
g324
tp2002
as(S'good'
p2003
tp2004
(lp2005
(I149
I0
F0.5
S'strong'
p2006
tp2007
a(I149
I0
I0
S'quick'
p2008
tp2009
as(S'days'
p2010
tp2011
(lp2012
(I45
I10
I0
S'few'
p2013
tp2014
a(I74
I1
I0
S'android'
p2015
tp2016
a(I74
I1
F0.375
S'early'
p2017
tp2018
a(I74
I2
I0
S'few'
p2019
tp2020
a(I108
I16
I0
S'old'
p2021
tp2022
a(I108
I20
F-0.25
S'modern'
p2023
tp2024
a(I129
I173
F-0.5
S'long'
p2025
tp2026
a(I316
I0
I0
S'later'
p2027
tp2028
a(I355
I0
I0
S'few'
p2029
tp2030
a(I362
I2
F0.125
S'first'
p2031
tp2032
a(I369
I13
F0.625
S'straight'
p2033
tp2034
a(I380
I11
I0
S'great'
p2035
tp2036
a(I382
I0
I0
S'many'
p2037
tp2038
a(I412
I3
I0
S'few'
p2039
tp2040
as(S'touch'
p2041
S'screen'
p2042
tp2043
(lp2044
(I10
I0
F0.875
g426
tp2045
a(I10
I0
F0.5
g428
tp2046
a(I75
I0
F0.5
g440
tp2047
a(I105
I0
F0.5
g444
tp2048
a(I128
I1
F1.0
g544
tp2049
a(I143
I3
F-0.625
g546
tp2050
a(I157
I5
F0.5
g450
tp2051
a(I202
I4
F0.125
g548
tp2052
a(I275
I5
F-0.125
g468
tp2053
a(I275
I6
F0.5
g470
tp2054
a(I297
I1
I0
g550
tp2055
a(I309
I1
F1.0
g552
tp2056
a(I348
I4
F0.25
g476
tp2057
a(I394
I0
F0.5
g480
tp2058
a(I394
I0
F0.5
g482
tp2059
as(S'take'
p2060
S'some'
p2061
S'time'
p2062
tp2063
(lp2064
(I206
I2
I0
g1270
tp2065
as(S'new'
p2066
S'operating'
p2067
S'system'
p2068
tp2069
(lp2070
(I119
I12
F0.125
g618
tp2071
a(I119
I13
F0.375
g620
tp2072
a(I119
I14
F0.375
g622
tp2073
a(I119
I26
F0.375
g624
tp2074
a(I119
I27
F0.375
g626
tp2075
a(I148
I0
F0.375
g631
tp2076
a(I418
I0
F-0.625
g600
tp2077
a(I418
I0
I0
g602
tp2078
as.