(dp0
(S'service'
p1
tp2
(lp3
(I3
I25
F0.5
S'true'
p4
I16
tp5
a(I9
I30
I0
S'wish'
p6
I16
tp7
a(I9
I30
I0
S'different'
p8
I16
tp9
a(I19
I30
F1.0
S'better'
p10
I16
tp11
a(I19
I30
I0
S'faster'
p12
I16
tp13
as(S'android'
p14
tp15
(lp16
(I9
I9
I0
S'old'
p17
I0
tp18
a(I17
I75
F-0.25
S'past'
p19
I0
tp20
as(S'metro'
p21
S'pcs'
p22
tp23
(lp24
(I3
I10
I0
S'such'
p25
I0
tp26
a(I19
I1
F0.375
S'much'
p27
I0
tp28
a(I3
I10
I0
g25
I1
tp29
a(I15
I37
I0
S'website'
p30
I1
tp31
a(I18
I7
F-0.625
S'other'
p32
I1
tp33
a(I19
I66
I0
S'current'
p34
I1
tp35
as(S'rebate'
p36
S'period'
p37
tp38
(lp39
(I12
I2
I0
S'rebate'
p40
I0
tp41
a(I12
I2
I0
S'rebate'
p42
I0
tp43
a(I12
I3
I0
S'most'
p44
I0
tp45
a(I12
I3
F-0.625
S'other'
p46
I0
tp47
a(I19
I54
F-0.625
S'glad'
p48
I0
tp49
as(S'battery'
p50
S'life'
p51
tp52
(lp53
(I0
I7
F-0.25
S'battery'
p54
I1
tp55
a(I1
I23
F1.0
S'good'
p56
I1
tp57
a(I17
I10
F1.0
S'good'
p58
I1
tp59
a(I17
I35
F0.125
S'impressive'
p60
I1
tp61
a(I18
I24
F-0.5
S'longer'
p62
I1
tp63
a(I18
I45
I0
S'most'
p64
I1
tp65
a(I19
I8
F-0.625
S'other'
p66
I1
tp67
a(I19
I8
F1.0
S'good'
p68
I1
tp69
a(I19
I79
F-0.25
S'battery'
p70
I1
tp71
a(I0
I7
F-0.25
g54
I19
tp72
a(I1
I23
F1.0
g56
I19
tp73
a(I17
I10
F1.0
g58
I19
tp74
a(I17
I35
F0.125
g60
I19
tp75
a(I18
I45
I0
g64
I19
tp76
a(I19
I79
F-0.25
g70
I19
tp77
a(I1
I1
F0.625
S'removable'
p78
I15
tp79
a(I1
I13
F-0.5
S'sudden'
p80
I15
tp81
a(I2
I24
F0.25
S'bigger'
p82
I15
tp83
a(I16
I11
I0
S'own'
p84
I15
tp85
a(I18
I24
F-0.5
g62
I15
tp86
a(I18
I27
F0.25
S'bigger'
p87
I15
tp88
a(I18
I27
F1.0
S'better'
p89
I15
tp90
a(I19
I8
F-0.625
g66
I15
tp91
a(I19
I8
F1.0
g68
I15
tp92
a(I19
I44
F0.625
S'easy'
p93
I15
tp94
a(I19
I44
F-0.25
S'inexpensive'
p95
I15
tp96
as(S'lg'
p97
S'motion'
p98
tp99
(lp100
(I3
I6
F0.375
S'new'
p101
I0
tp102
a(I19
I48
F-0.625
S'lighter'
p103
I0
tp104
as(S'galaxy'
p105
S's3'
p106
tp107
(lp108
(I2
I16
F0.375
S'no-brainer'
p109
I0
tp110
a(I2
I16
F1.0
S'good'
p111
I0
tp112
a(I9
I23
I0
S'faster'
p113
I0
tp114
a(I17
I43
I0
S'least'
p115
I0
tp116
a(I2
I16
F0.375
g109
I0
tp117
a(I2
I16
F1.0
g111
I0
tp118
a(I9
I23
I0
g113
I0
tp119
as(S'big'
p120
S'screen'
p121
tp122
(lp123
(I2
I30
F0.375
S'similar'
p124
I1
tp125
a(I3
I2
F0.25
S'bigger'
p126
I1
tp127
a(I3
I6
F0.25
S'bigger'
p128
I1
tp129
a(I9
I25
F0.25
S'bigger'
p130
I1
tp131
a(I10
I0
F0.875
S'nice'
p132
I1
tp133
a(I10
I0
I0
S'big'
p134
I1
tp135
a(I17
I37
I0
S'big'
p136
I1
tp137
a(I18
I27
F0.25
S'bigger'
p138
I1
tp139
a(I19
I22
F0.25
S'bigger'
p140
I1
tp141
a(I19
I22
F1.0
S'better'
p142
I1
tp143
a(I19
I64
I0
S'large'
p144
I1
tp145
a(I20
I13
I0
S'big'
p146
I1
tp147
a(I20
I13
F0.625
S'easier'
p148
I1
tp149
as(S'at'
p150
S'half'
p151
S'price'
p152
tp153
(lp154
(I9
I23
F-0.5
S'less'
p155
I1
tp156
a(I17
I63
I0
S'great'
p157
I1
tp158
a(I19
I9
I0
S'least'
p159
I1
tp160
a(I9
I23
F-0.5
g155
I2
tp161
a(I17
I63
I0
g157
I2
tp162
a(I19
I9
I0
g159
I2
tp163
as(S'calls'
p164
tp165
(lp166
(I3
I4
I0
S'few'
p167
I0
tp168
as(S'esteem'
p169
tp170
(lp171
(I5
I6
I0
S'old'
p172
I1
tp173
as(S'sd'
p174
S'card'
p175
tp176
(lp177
(I17
I52
I0
S'sd'
p178
I0
tp179
a(I19
I37
I0
S'more'
p180
I0
tp181
a(I20
I25
F0.375
S'new'
p182
I0
tp183
as(S'camera'
p184
tp185
(lp186
(I0
I0
F0.875
S'nice'
p187
I1
tp188
a(I0
I0
F1.0
S'good'
p189
I1
tp190
a(I1
I4
F0.875
S'nice'
p191
I1
tp192
a(I2
I13
I0
S'rear'
p193
I1
tp194
a(I5
I7
F0.125
S'solid'
p195
I1
tp196
a(I9
I8
I0
S'cool'
p197
I1
tp198
a(I14
I1
F1.0
S'good'
p199
I1
tp200
a(I15
I26
I0
S'sturdy'
p201
I1
tp202
a(I16
I2
I0
S'great'
p203
I1
tp204
a(I17
I40
I0
S'pedestrian'
p205
I1
tp206
a(I17
I43
F0.875
S'worthy'
p207
I1
tp208
a(I19
I6
I0
S'wish'
p209
I1
tp210
a(I19
I6
F1.0
S'better'
p211
I1
tp212
as(S'spirit'
p213
tp214
(lp215
(I17
I23
F0.5
S'eligible'
p216
I0
tp217
a(I17
I28
F0.375
S'new'
p218
I0
tp219
a(I17
I28
F0.125
S'able'
p220
I0
tp221
a(I17
I70
F1.0
S'good'
p222
I0
tp223
a(I19
I22
I0
S'more'
p224
I0
tp225
as.