(dp0
(S'times'
p1
tp2
(lp3
(I20
I2
I0
S'many'
p4
tp5
a(I79
I24
I0
S'few'
p6
tp7
a(I82
I4
I0
S'least'
p8
tp9
a(I91
I4
I0
S'few'
p10
tp11
a(I91
I4
F0.625
S'easy'
p12
tp13
a(I97
I5
I0
S'more'
p14
tp15
a(I97
I8
I0
S'many'
p16
tp17
a(I115
I2
I0
S'many'
p18
tp19
a(I125
I4
I0
S'many'
p20
tp21
a(I134
I10
I0
S'many'
p22
tp23
a(I144
I0
I0
S'many'
p24
tp25
a(I156
I8
F0.75
S'due'
p26
tp27
a(I192
I5
I0
S'few'
p28
tp29
a(I200
I1
I0
S'least'
p30
tp31
a(I208
I5
I0
S'many'
p32
tp33
as(S'problem'
p34
tp35
(lp36
(I47
I71
I0
S'many'
p37
tp38
a(I79
I15
F0.25
S'biggest'
p39
tp40
a(I88
I33
I0
S'same'
p41
tp42
a(I99
I5
I0
S'only'
p43
tp44
a(I122
I2
I0
S'big'
p45
tp46
as(S'virgin'
p47
S'mobile'
p48
tp49
(lp50
(I4
I0
F0.5
S'technical'
p51
tp52
a(I44
I0
F0.375
S'available'
p53
tp54
a(I88
I30
F0.5
S'expensive'
p55
tp56
a(I88
I32
F0.75
S'due'
p57
tp58
a(I133
I1
I0
S'mobile'
p59
tp60
a(I133
I1
I0
S'website'
p61
tp62
as(S'take'
p63
S'battery'
p64
tp65
(lp66
(I104
I0
F-0.5
S'poor'
p67
tp68
as(S'battery'
p69
S'life'
p70
tp71
(lp72
(I3
I3
F1.0
S'better'
p73
tp74
a(I35
I0
F-0.5
S'poor'
p75
tp76
a(I74
I0
I0
S'ect'
p77
tp78
a(I81
I8
I0
S'great'
p79
tp80
a(I104
I0
F-0.5
g67
tp81
a(I132
I3
F1.0
S'good'
p82
tp83
a(I142
I6
I0
S'great'
p84
tp85
a(I160
I8
F1.0
S'good'
p86
tp87
a(I204
I0
F1.0
S'good'
p88
tp89
as(S'weeks'
p90
tp91
(lp92
(I17
I0
F0.875
S'nice'
p93
tp94
a(I17
I0
F0.125
S'first'
p95
tp96
a(I17
I0
I0
S'few'
p97
tp98
a(I41
I5
F0.125
S'first'
p99
tp100
a(I41
I5
I0
S'few'
p101
tp102
a(I156
I6
I0
S'later'
p103
tp104
a(I202
I5
I0
S'few'
p105
tp106
a(I202
I5
I0
S'later'
p107
tp108
a(I202
I5
F1.0
S'best'
p109
tp110
as(S'year'
p111
tp112
(lp113
(I65
I7
I0
S'old'
p114
tp115
a(I94
I0
F-0.125
S'mine'
p116
tp117
a(I94
I0
F-0.5
S'less'
p118
tp119
a(I106
I0
I0
S'old'
p120
tp121
a(I134
I0
I0
S'old'
p122
tp123
a(I141
I0
I0
S'old'
p124
tp125
a(I141
I2
I0
S'old'
p126
tp127
a(I172
I16
F0.125
S'last'
p128
tp129
a(I194
I0
I0
S'old'
p130
tp131
a(I198
I0
I0
S'old'
p132
tp133
as(S'little'
p134
tp135
(lp136
(I39
I2
F1.0
S'good'
p137
tp138
as(S'something'
p139
tp140
(lp141
(I47
I56
I0
S'more'
p142
tp143
a(I122
I1
F-0.5
S'sure'
p144
tp145
a(I125
I10
F-0.5
S'less'
p146
tp147
a(I125
I10
F0.5
S'dramatic'
p148
tp149
a(I125
I10
F-0.625
S'bad'
p150
tp151
a(I171
I32
F-0.75
S'wrong'
p152
tp153
a(I172
I5
F-0.25
S'inexpensive'
p154
tp155
as(S'money'
p156
tp157
(lp158
(I29
I5
I0
S'more'
p159
tp160
a(I182
I0
F-0.625
S'bad'
p161
tp162
a(I183
I9
F0.875
S'happy'
p163
tp164
a(I203
I0
F0.75
S'worth'
p165
tp166
as(S'optimus'
p167
S'elite'
p168
tp169
(lp170
(I44
I10
F1.0
S'good'
p171
tp172
a(I44
I15
F0.375
S'newest'
p173
tp174
a(I44
I15
F-0.25
S'google'
p175
tp176
as(S'nice'
p177
tp178
(lp179
(I76
I0
I0
S'very'
p180
tp181
as(S'screen'
p182
tp183
(lp184
(I13
I2
F0.25
S'responsive'
p185
tp186
a(I13
I2
F-0.75
S'hate'
p187
tp188
a(I13
I2
F-0.625
S'average'
p189
tp190
a(I13
I2
F0.5
S'touch'
p191
tp192
a(I17
I4
F-0.375
S'black'
p193
tp194
a(I24
I3
F0.5
S'touch'
p195
tp196
a(I40
I1
F0.25
S'main'
p197
tp198
a(I54
I0
F-0.375
S'small'
p199
tp200
a(I65
I1
F0.5
S'touch'
p201
tp202
a(I65
I7
F0.5
S'touch'
p203
tp204
a(I79
I7
I0
S'sensitive'
p205
tp206
a(I79
I7
F0.5
S'touch'
p207
tp208
a(I88
I5
I0
S'plastic'
p209
tp210
a(I109
I4
F-0.375
S'black'
p211
tp212
a(I112
I14
I0
S'entire'
p213
tp214
a(I126
I4
F0.25
S'responsive'
p215
tp216
a(I132
I4
F-0.75
S'difficult'
p217
tp218
a(I132
I4
F0.125
S'first'
p219
tp220
a(I132
I8
F0.5
S'touch'
p221
tp222
a(I132
I9
F0.25
S'original'
p223
tp224
a(I132
I10
F-0.5
S'long'
p225
tp226
a(I133
I3
F0.25
S'responsive'
p227
tp228
a(I146
I0
F0.5
S'touch'
p229
tp230
a(I172
I28
I0
S'large'
p231
tp232
a(I172
I28
F-0.375
S'small'
p233
tp234
a(I172
I30
I0
S'kindle'
p235
tp236
a(I172
I30
F-0.375
S'small'
p237
tp238
as(S'reset'
p239
tp240
(lp241
(I88
I20
I0
S'full'
p242
tp243
a(I106
I7
F-0.875
S'hard'
p244
tp245
as(S'how'
p246
S'many'
p247
S'times'
p248
tp249
(lp250
(I20
I2
I0
g4
tp251
a(I115
I2
I0
g18
tp252
a(I134
I10
I0
g22
tp253
a(I208
I5
I0
g32
tp254
as(S'service'
p255
tp256
(lp257
(I88
I25
F0.125
S'able'
p258
tp259
a(I107
I3
F-0.5
S'existent'
p260
tp261
a(I112
I22
I0
S'same'
p262
tp263
as(S'virgin'
p264
tp265
(lp266
(I4
I0
F0.5
g51
tp267
a(I44
I0
F0.375
g53
tp268
a(I88
I30
F0.5
g55
tp269
a(I88
I32
F0.75
g57
tp270
a(I133
I1
I0
g59
tp271
a(I133
I1
I0
g61
tp272
a(I172
I35
F0.375
S'new'
p273
tp274
as(S'ice'
p275
S'cream'
p276
tp277
(lp278
(I153
I3
F-0.75
S'little'
p279
tp280
as(S'back'
p281
tp282
(lp283
(I34
I4
F-0.625
S'light'
p284
tp285
a(I34
I4
F0.375
S'interesting'
p286
tp287
as(S'touch'
p288
tp289
(lp290
(I69
I21
F1.0
S'good'
p291
tp292
as(S'camera'
p293
tp294
(lp295
(I89
I2
F1.0
S'best'
p296
tp297
a(I89
I2
F1.0
S'good'
p298
tp299
a(I134
I1
F-0.875
S'inferior'
p300
tp301
a(I164
I1
F0.625
S'acceptable'
p302
tp303
a(I185
I1
F-0.5
S'poor'
p304
tp305
a(I188
I1
F0.875
S'nice'
p306
tp307
as(S'angry'
p308
S'birds'
p309
tp310
(lp311
(I73
I1
I0
S'angry'
p312
tp313
a(I133
I6
I0
S'such'
p314
tp315
a(I133
I6
I0
S'angry'
p316
tp317
a(I172
I26
F0.375
S'newest'
p318
tp319
a(I172
I26
F-0.625
S'other'
p320
tp321
as(S'games'
p322
tp323
(lp324
(I23
I1
F0.125
S'popular'
p325
tp326
a(I47
I22
I0
S'accelerated'
p327
tp328
a(I47
I37
I0
S'few'
p329
tp330
a(I47
I37
F0.25
S'largest'
p331
tp332
a(I47
I84
I0
S'large'
p333
tp334
a(I81
I3
F-0.25
S'intensive'
p335
tp336
a(I81
I3
I0
S'such'
p337
tp338
a(I148
I1
F1.0
S'good'
p339
tp340
a(I156
I0
I0
S'ran'
p341
tp342
as(S'month'
p343
tp344
(lp345
(I12
I2
F0.125
S'first'
p346
tp347
a(I13
I0
F-0.5
S'less'
p348
tp349
a(I39
I7
F0.5
S'whole'
p350
tp351
a(I40
I0
I0
S'third'
p352
tp353
a(I88
I21
I0
S'next'
p354
tp355
a(I147
I1
F0.125
S'first'
p356
tp357
a(I170
I0
F-0.5
S'less'
p358
tp359
a(I206
I0
F0.125
S'last'
p360
tp361
as(S'htc'
p362
S'evo'
p363
tp364
(lp365
(I109
I9
F-0.5
S'regular'
p366
tp367
as(S'a'
p368
S'touch'
p369
S'screen'
p370
tp371
(lp372
(I13
I2
F0.25
g185
tp373
a(I13
I2
F-0.75
g187
tp374
a(I13
I2
F-0.625
g189
tp375
a(I13
I2
F0.5
g191
tp376
a(I24
I3
F0.5
g195
tp377
a(I65
I1
F0.5
g201
tp378
a(I65
I7
F0.5
g203
tp379
a(I69
I21
F1.0
g291
tp380
a(I79
I7
I0
g205
tp381
a(I79
I7
F0.5
g207
tp382
a(I132
I4
F-0.75
g217
tp383
a(I132
I4
F0.125
g219
tp384
a(I132
I8
F0.5
g221
tp385
a(I146
I0
F0.5
g229
tp386
as(S'quality'
p387
tp388
(lp389
(I43
I0
F1.0
S'good'
p390
tp391
a(I44
I4
F-0.25
S'low'
p392
tp393
a(I110
I3
F-0.25
S'low'
p394
tp395
a(I133
I11
I0
S'great'
p396
tp397
a(I133
I14
I0
S'great'
p398
tp399
a(I172
I0
I0
S'great'
p400
tp401
a(I189
I6
F-0.25
S'low'
p402
tp403
a(I211
I4
F1.0
S'good'
p404
tp405
as(S'memory'
p406
tp407
(lp408
(I47
I37
F-0.375
S'serious'
p409
tp410
a(I47
I71
F0.75
S'due'
p411
tp412
a(I54
I1
I0
S'internal'
p413
tp414
a(I89
I2
I0
S'limited'
p415
tp416
a(I134
I1
F0.375
S'available'
p417
tp418
as(S'life'
p419
tp420
(lp421
(I3
I3
F1.0
g73
tp422
a(I14
I0
F-0.875
S'worst'
p423
tp424
a(I35
I0
F-0.5
g75
tp425
a(I39
I3
F-0.75
S'wrong'
p426
tp427
a(I81
I8
I0
g79
tp428
a(I132
I3
F1.0
g82
tp429
a(I142
I6
I0
g84
tp430
a(I160
I8
F1.0
g86
tp431
as(S'minutes'
p432
tp433
(lp434
(I47
I8
I0
S'few'
p435
tp436
a(I47
I60
F0.125
S'checker'
p437
tp438
a(I91
I6
I0
S'more'
p439
tp440
a(I91
I6
F0.375
S'content'
p441
tp442
a(I110
I2
I0
S'few'
p443
tp444
a(I156
I1
I0
S'few'
p445
tp446
a(I198
I9
F-0.5
S'less'
p447
tp448
as(S'to'
p449
S'sd'
p450
S'card'
p451
tp452
(lp453
(I112
I20
F-0.5
S'sure'
p454
tp455
as(S'pictures'
p456
tp457
(lp458
(I12
I2
F0.75
S'receive'
p459
tp460
a(I44
I5
F1.0
S'better'
p461
tp462
a(I133
I8
F1.0
S'good'
p463
tp464
a(I133
I8
F1.0
S'good'
p465
tp466
a(I135
I1
F-0.125
S'delete'
p467
tp468
a(I153
I1
I0
S'adequate'
p469
tp470
a(I162
I9
F0.125
S'able'
p471
tp472
a(I183
I2
F1.0
S'good'
p473
tp474
a(I211
I3
I0
S'great'
p475
tp476
as(S'times'
p477
g368
S'day'
p478
tp479
(lp480
(I17
I2
F0.125
S'first'
p481
tp482
a(I79
I24
I0
g6
tp483
a(I128
I4
I0
S'more'
p484
tp485
a(I144
I0
I0
g24
tp486
a(I200
I1
I0
g30
tp487
as(S'galaxy'
p488
tp489
(lp490
(I172
I10
F0.375
S'new'
p491
tp492
as(S'restart'
p493
tp494
(lp495
(I208
I4
F-0.875
S'hard'
p496
tp497
as(S'freezes'
p498
tp499
(lp500
(I190
I0
F-0.125
S'slow'
p501
tp502
as(S'people'
p503
tp504
(lp505
(I6
I9
F0.875
S'rude'
p506
tp507
a(I30
I1
F-0.625
S'other'
p508
tp509
a(I79
I5
I0
S'specific'
p510
tp511
a(I112
I19
F-0.625
S'other'
p512
tp513
a(I156
I5
F0.25
S'read'
p514
tp515
as(S'months'
p516
tp517
(lp518
(I40
I0
F-0.625
S'other'
p519
tp520
a(I41
I9
F0.125
S'toast'
p521
tp522
a(I47
I48
I0
S'full'
p523
tp524
a(I52
I3
F-0.875
S'awful'
p525
tp526
a(I79
I28
I0
S'few'
p527
tp528
a(I103
I0
I0
S'few'
p529
tp530
a(I110
I1
I0
S'great'
p531
tp532
a(I110
I1
F0.125
S'first'
p533
tp534
a(I115
I1
I0
S'great'
p535
tp536
a(I128
I4
I0
S'later'
p537
tp538
a(I156
I0
I0
S'few'
p539
tp540
a(I157
I1
F-0.5
S'less'
p541
tp542
a(I157
I1
I0
S'later'
p543
tp544
a(I157
I4
F-0.75
S'dead'
p545
tp546
a(I165
I0
F-0.25
S'past'
p547
tp548
a(I165
I0
F0.5
S'second'
p549
tp550
a(I183
I6
F-0.125
S'mine'
p551
tp552
a(I202
I1
I0
S'few'
p553
tp554
as(S'sd'
p555
S'card'
p556
tp557
(lp558
(I112
I20
F-0.5
g454
tp559
a(I196
I2
I0
S'sd'
p560
tp561
as(S'music'
p562
tp563
(lp564
(I23
I1
F-0.25
S'google'
p565
tp566
as(S'radio'
p567
S'shack'
p568
tp569
(lp570
(I121
I0
I0
S'local'
p571
tp572
as(g368
S'long'
p573
S'time'
p574
tp575
(lp576
(I22
I12
F-0.5
S'long'
p577
tp578
a(I27
I7
F-0.5
S'long'
p579
tp580
a(I88
I26
F0.5
S'second'
p581
tp582
a(I155
I0
F-0.5
S'long'
p583
tp584
a(I156
I12
F-0.5
S'long'
p585
tp586
as(S'android'
p587
tp588
(lp589
(I0
I0
F0.375
S'new'
p590
tp591
a(I0
I1
F0.125
S'first'
p592
tp593
a(I0
I1
F0.875
S'happier'
p594
tp595
a(I3
I0
F0.25
S'portable'
p596
tp597
a(I19
I0
I0
S'next'
p598
tp599
a(I59
I0
I0
S'basic'
p600
tp601
a(I115
I8
F0.125
S'first'
p602
tp603
a(I117
I0
I0
S'great'
p604
tp605
a(I129
I1
F0.125
S'first'
p606
tp607
a(I172
I5
I0
S'comprehensive'
p608
tp609
a(I174
I0
I0
S'mobile'
p610
tp611
as(S'plan'
p612
tp613
(lp614
(I152
I2
I0
S'monthly'
p615
tp616
a(I152
I2
F-0.25
S'low'
p617
tp618
a(I155
I0
I0
S'great'
p619
tp620
a(I155
I0
F0.625
S'easy'
p621
tp622
as(S'elite'
p623
tp624
(lp625
(I44
I10
F1.0
g171
tp626
as(S'works'
p627
tp628
(lp629
(I69
I17
I0
S'great'
p630
tp631
a(I150
I0
I0
S'great'
p632
tp633
a(I172
I18
I0
S'great'
p634
tp635
a(I172
I18
I0
S'great'
p636
tp637
a(I172
I18
I0
S'great'
p638
tp639
as(S'to'
p640
S'take'
p641
S'battery'
p642
tp643
(lp644
(I104
I0
F-0.5
g67
tp645
as(S'ever'
p646
tp647
(lp648
(I47
I44
F0.125
S'solid'
p649
tp650
as(S'high'
p651
S'end'
p652
tp653
(lp654
(I79
I8
I0
S'high'
p655
tp656
a(I172
I34
I0
S'high'
p657
tp658
a(I194
I2
I0
S'high'
p659
tp660
as(S'battery'
p661
tp662
(lp663
(I25
I0
I0
S'fast'
p664
tp665
a(I40
I1
F-0.5
S'weak'
p666
tp667
a(I56
I2
I0
S'great'
p668
tp669
a(I74
I0
I0
g77
tp670
a(I77
I3
F0.125
S'last'
p671
tp672
a(I77
I3
F-0.5
S'long'
p673
tp674
a(I102
I4
I0
S'hot'
p675
tp676
a(I104
I0
F-0.5
g67
tp677
a(I112
I31
I0
S'such'
p678
tp679
a(I138
I0
F0.125
S'last'
p680
tp681
a(I153
I6
F-0.5
S'certain'
p682
tp683
a(I155
I0
F0.125
S'last'
p684
tp685
a(I171
I7
F-0.75
S'dead'
p686
tp687
a(I183
I3
F-0.25
S'low'
p688
tp689
a(I204
I0
F1.0
g88
tp690
as(S'slow'
p691
tp692
(lp693
(I70
I1
F-0.75
S'little'
p694
tp695
as(S'with'
p696
S'virgin'
p697
S'mobile'
p698
tp699
(lp700
(I4
I0
F0.5
g51
tp701
a(I44
I0
F0.375
g53
tp702
as(S'takes'
p703
tp704
(lp705
(I69
I25
F0.625
S'easy'
p706
tp707
as(S'better'
p708
tp709
(lp710
(I19
I0
F0.125
S'first'
p711
tp712
a(I211
I4
F0.375
S'much'
p713
tp714
as(S'calls'
p715
tp716
(lp717
(I12
I1
F-0.5
S'answer'
p718
tp719
a(I34
I5
F0.875
S'important'
p720
tp721
a(I35
I0
F-0.625
S'bad'
p722
tp723
a(I126
I6
F-0.625
S'bad'
p724
tp725
a(I172
I5
I0
S'few'
p726
tp727
a(I172
I5
F-0.75
S'short'
p728
tp729
as(S'thing'
p730
tp731
(lp732
(I13
I1
I0
S'only'
p733
tp734
a(I34
I4
F1.0
S'good'
p735
tp736
a(I37
I2
F1.0
S'good'
p737
tp738
a(I47
I8
F-0.5
S'poor'
p739
tp740
a(I47
I54
I0
S'only'
p741
tp742
a(I47
I54
F-0.625
S'other'
p743
tp744
a(I49
I1
I0
S'great'
p745
tp746
a(I54
I1
F0.125
S'last'
p747
tp748
a(I54
I1
F-0.75
S'care'
p749
tp750
a(I65
I2
F0.125
S'first'
p751
tp752
a(I75
I2
I0
S'more'
p753
tp754
a(I79
I1
F-0.375
S'fanciest'
p755
tp756
a(I79
I1
F0.375
S'newest'
p757
tp758
a(I82
I9
F1.0
S'best'
p759
tp760
a(I119
I1
F1.0
S'good'
p761
tp762
a(I158
I5
F-0.75
S'little'
p763
tp764
a(I162
I6
F1.0
S'best'
p765
tp766
a(I173
I0
I0
S'only'
p767
tp768
a(I179
I0
I0
S'only'
p769
tp770
a(I179
I0
F1.0
S'good'
p771
tp772
a(I186
I1
I0
S'same'
p773
tp774
a(I208
I3
F0.25
S'biggest'
p775
tp776
as(S'cheap'
p777
tp778
(lp779
(I141
I1
I0
S'android'
p780
tp781
a(I185
I0
F-0.125
S'super'
p782
tp783
as(S'play'
p784
tp785
(lp786
(I23
I3
F0.875
S'music'
p787
tp788
a(I52
I6
F-0.25
S'google'
p789
tp790
a(I73
I4
F-0.25
S'google'
p791
tp792
a(I73
I4
F0.625
S'perfect'
p793
tp794
a(I215
I0
F-0.25
S'google'
p795
tp796
as(S'device'
p797
tp798
(lp799
(I34
I0
I0
S'android'
p800
tp801
a(I37
I0
F-0.375
S'small'
p802
tp803
a(I174
I2
I0
S'real'
p804
tp805
a(I182
I1
I0
S'quick'
p806
tp807
a(I182
I1
I0
S'quick'
p808
tp809
a(I182
I1
F-0.625
S'other'
p810
tp811
as(S'work'
p812
tp813
(lp814
(I111
I0
F-0.5
S'regular'
p815
tp816
as(S'call'
p817
tp818
(lp819
(I6
I2
F-0.25
S'dropped'
p820
tp821
a(I6
I2
F-0.5
S'worthless'
p822
tp823
a(I81
I11
F0.75
S'receive'
p824
tp825
a(I91
I5
F0.625
S'easy'
p826
tp827
a(I91
I5
F-0.375
S'simple'
p828
tp829
a(I94
I1
F-0.5
S'poor'
p830
tp831
a(I110
I2
F-0.5
S'unavailable'
p832
tp833
a(I139
I4
F-0.125
S'slow'
p834
tp835
as(S'call'
p836
S'quality'
p837
tp838
(lp839
(I94
I1
F-0.5
g830
tp840
a(I172
I0
I0
g400
tp841
a(I211
I4
F1.0
g404
tp842
as(S'pretty'
p843
tp844
(lp845
(I13
I0
F-0.5
S'long'
p846
tp847
as(S'price'
p848
tp849
(lp850
(I10
I0
F1.0
S'good'
p851
tp852
a(I53
I0
I0
S'great'
p853
tp854
a(I59
I3
F0.625
S'acceptable'
p855
tp856
a(I73
I0
I0
S'great'
p857
tp858
a(I79
I10
F0.75
S'worth'
p859
tp860
a(I131
I3
I0
S'great'
p861
tp862
a(I158
I10
I0
S'great'
p863
tp864
a(I208
I2
F-0.25
S'lower'
p865
tp866
a(I213
I2
F0.375
S'much'
p867
tp868
as(S'time'
p869
tp870
(lp871
(I6
I11
I0
S'most'
p872
tp873
a(I18
I1
F-0.125
S'slow'
p874
tp875
a(I22
I12
F-0.5
g577
tp876
a(I26
I0
I0
S'big'
p877
tp878
a(I27
I6
F-0.5
S'sure'
p879
tp880
a(I27
I7
F-0.5
g579
tp881
a(I47
I28
F-0.375
S'black'
p882
tp883
a(I47
I88
F-0.875
S'hard'
p884
tp885
a(I49
I1
F-0.75
S'short'
p886
tp887
a(I59
I2
F0.25
S'responsive'
p888
tp889
a(I83
I1
I0
S'next'
p890
tp891
a(I88
I26
F0.5
g581
tp892
a(I107
I3
F0.125
S'first'
p893
tp894
a(I111
I3
I0
S'same'
p895
tp896
a(I139
I3
I0
S'few'
p897
tp898
a(I155
I0
F-0.5
g583
tp899
a(I156
I12
F-0.5
g585
tp900
a(I171
I21
I0
S'next'
p901
tp902
a(I171
I25
F0.5
S'second'
p903
tp904
a(I196
I6
I0
S'same'
p905
tp906
a(I198
I3
F0.125
S'first'
p907
tp908
a(I202
I8
I0
S'more'
p909
tp910
a(I216
I0
F-0.75
S'short'
p911
tp912
as(S'optimus'
p913
tp914
(lp915
(I44
I15
F0.375
g173
tp916
a(I44
I15
F-0.25
g175
tp917
a(I134
I12
I0
S'old'
p918
tp919
a(I153
I3
I0
S'old'
p920
tp921
as(S'event'
p922
tp923
(lp924
(I44
I9
F-0.75
S'plain'
p925
tp926
a(I44
I9
F-0.625
S'bad'
p927
tp928
a(I44
I14
F0.25
S'sharper'
p929
tp930
a(I109
I1
F0.125
S'first'
p931
tp932
a(I109
I8
F0.625
S'superior'
p933
tp934
a(I142
I7
F0.5
S'true'
p935
tp936
a(I183
I1
F1.0
S'good'
p937
tp938
a(I211
I0
F-0.25
S'late'
p939
tp940
a(I211
I0
I0
S'february'
p941
tp942
as(S'kyocera'
p943
S'event'
p944
tp945
(lp946
(I44
I9
F-0.75
g925
tp947
a(I44
I9
F-0.625
g927
tp948
a(I44
I14
F0.25
g929
tp949
a(I211
I0
F-0.25
g939
tp950
a(I211
I0
I0
g941
tp951
as(S'card'
p952
tp953
(lp954
(I112
I20
F-0.5
g454
tp955
a(I196
I2
I0
g560
tp956
as(S'fast'
p957
tp958
(lp959
(I21
I0
F0.25
S'responsive'
p960
tp961
as(S'start'
p962
tp963
(lp964
(I79
I24
F0.875
S'music'
p965
tp966
a(I202
I8
F-0.25
S'past'
p967
tp968
as(S'hours'
p969
tp970
(lp971
(I6
I7
I0
S'next'
p972
tp973
a(I84
I1
F-0.75
S'dead'
p974
tp975
a(I88
I20
I0
S'few'
p976
tp977
a(I91
I5
F0.125
S'enough'
p978
tp979
a(I198
I2
F0.875
S'lucky'
p980
tp981
a(I206
I4
I0
S'later'
p982
tp983
as(S'wifi'
p984
tp985
(lp986
(I3
I0
F0.125
S'capable'
p987
tp988
a(I47
I4
F-0.375
S'crazy'
p989
tp990
as(S'apps'
p991
tp992
(lp993
(I3
I0
I0
S'few'
p994
tp995
a(I3
I2
I0
S'few'
p996
tp997
a(I13
I1
I0
S'many'
p998
tp999
a(I26
I0
F1.0
S'better'
p1000
tp1001
a(I29
I1
F0.25
S'favorite'
p1002
tp1003
a(I33
I2
I0
S'many'
p1004
tp1005
a(I40
I1
F-0.375
S'small'
p1006
tp1007
a(I46
I2
F-0.5
S'certain'
p1008
tp1009
a(I47
I34
I0
S'few'
p1010
tp1011
a(I47
I36
I0
S'few'
p1012
tp1013
a(I47
I36
F-0.5
S'less'
p1014
tp1015
a(I47
I56
F-0.625
S'other'
p1016
tp1017
a(I47
I85
I0
S'android'
p1018
tp1019
a(I51
I0
I0
S'many'
p1020
tp1021
a(I82
I5
I0
S'most'
p1022
tp1023
a(I82
I5
I0
S'angry'
p1024
tp1025
a(I112
I31
F0.125
S'able'
p1026
tp1027
a(I117
I1
I0
S'many'
p1028
tp1029
a(I132
I20
I0
S'big'
p1030
tp1031
a(I132
I21
I0
S'big'
p1032
tp1033
a(I132
I21
I0
S'useful'
p1034
tp1035
a(I136
I1
F0.125
S'able'
p1036
tp1037
a(I146
I1
I0
S'many'
p1038
tp1039
a(I146
I1
I0
S'useful'
p1040
tp1041
a(I155
I0
F1.0
S'love'
p1042
tp1043
a(I172
I7
F-0.5
S'certain'
p1044
tp1045
a(I172
I33
F0.625
S'convenient'
p1046
tp1047
a(I177
I5
F-0.625
S'other'
p1048
tp1049
a(I188
I2
F-0.5
S'open'
p1050
tp1051
a(I188
I2
F-0.125
S'slow'
p1052
tp1053
a(I195
I0
I0
S'cool'
p1054
tp1055
a(I215
I0
F0.625
S'easy'
p1056
tp1057
as(S'operating'
p1058
S'system'
p1059
tp1060
(lp1061
(I29
I1
I0
S'many'
p1062
tp1063
a(I213
I1
I0
S'android'
p1064
tp1065
as(S'days'
p1066
tp1067
(lp1068
(I11
I2
F0.125
S'first'
p1069
tp1070
a(I11
I2
I0
S'few'
p1071
tp1072
a(I24
I4
I0
S'few'
p1073
tp1074
a(I33
I5
I0
S'few'
p1075
tp1076
a(I44
I0
I0
S'few'
p1077
tp1078
a(I47
I30
I0
S'few'
p1079
tp1080
a(I88
I20
I0
S'few'
p1081
tp1082
a(I128
I1
I0
S'great'
p1083
tp1084
a(I128
I1
F0.125
S'first'
p1085
tp1086
a(I128
I1
I0
S'few'
p1087
tp1088
a(I128
I1
F-0.125
S'slow'
p1089
tp1090
a(I153
I6
I0
S'few'
p1091
tp1092
a(I157
I0
I0
S'least'
p1093
tp1094
a(I209
I1
I0
S'later'
p1095
tp1096
as(S'kyocera'
p1097
tp1098
(lp1099
(I52
I5
F-0.75
S'worse'
p1100
tp1101
a(I75
I4
I0
S'entire'
p1102
tp1103
as(S'touch'
p1104
S'screen'
p1105
tp1106
(lp1107
(I13
I2
F0.25
g185
tp1108
a(I13
I2
F-0.75
g187
tp1109
a(I13
I2
F-0.625
g189
tp1110
a(I13
I2
F0.5
g191
tp1111
a(I24
I3
F0.5
g195
tp1112
a(I65
I1
F0.5
g201
tp1113
a(I65
I7
F0.5
g203
tp1114
a(I69
I21
F1.0
g291
tp1115
a(I79
I7
I0
g205
tp1116
a(I79
I7
F0.5
g207
tp1117
a(I132
I4
F-0.75
g217
tp1118
a(I132
I4
F0.125
g219
tp1119
a(I132
I8
F0.5
g221
tp1120
a(I133
I3
F0.25
g227
tp1121
a(I146
I0
F0.5
g229
tp1122
as(S'text'
p1123
tp1124
(lp1125
(I44
I15
I0
S'typographic'
p1126
tp1127
a(I50
I0
F-0.625
S'free'
p1128
tp1129
a(I69
I5
F0.5
S'touch'
p1130
tp1131
a(I69
I7
F0.5
S'touch'
p1132
tp1133
as(S'data'
p1134
tp1135
(lp1136
(I47
I80
F-0.5
S'try'
p1137
tp1138
a(I47
I80
I0
S'internal'
p1139
tp1140
a(I172
I21
I0
S'mobile'
p1141
tp1142
as.