(dp0
(S'home'
p1
S'screen'
p2
tp3
(lp4
(I5
I16
I0
S'different'
p5
I0
tp6
as(S'android'
p7
tp8
(lp9
(I5
I45
F1.0
S'better'
p10
I0
tp11
as(S'amazon'
p12
tp13
(lp14
(I11
I6
I0
S'website'
p15
I13
tp16
as(S'battery'
p17
S'life'
p18
tp19
(lp20
(I24
I28
F-0.5
S'poor'
p21
I1
tp22
a(I25
I4
F1.0
S'good'
p23
I1
tp24
a(I5
I27
F-0.5
S'separate'
p25
I15
tp26
a(I5
I46
F0.125
S'last'
p27
I15
tp28
a(I24
I28
F-0.5
g21
I15
tp29
as(S'cellphone'
p30
tp31
(lp32
(I0
I6
F0.75
S'beautiful'
p33
I0
tp34
a(I14
I22
I0
S'fast'
p35
I0
tp36
a(I23
I8
F1.0
S'good'
p37
I0
tp38
as(S'price'
p39
S'tag'
p40
tp41
(lp42
(I22
I48
F0.875
S'nice'
p43
I4
tp44
a(I22
I48
F0.375
S'similar'
p45
I4
tp46
as(S'sim'
p47
S'card'
p48
tp49
(lp50
(I17
I3
I0
S'charged'
p51
I0
tp52
a(I22
I41
F0.125
S'able'
p53
I0
tp54
as(S'smartphone'
p55
tp56
(lp57
(I0
I5
I0
S'fast'
p58
I0
tp59
a(I5
I46
I0
S'great'
p60
I0
tp61
a(I11
I0
F-0.25
S'cheapest'
p62
I0
tp63
a(I11
I0
F0.5
S'expensive'
p64
I0
tp65
a(I23
I3
I0
S'android'
p66
I0
tp67
a(I25
I0
F0.125
S'first'
p68
I0
tp69
as(S'excellent'
p70
S'product'
p71
tp72
(lp73
(I3
I0
F0.625
S'easy'
p74
I8
tp75
a(I3
I0
F0.625
S'perfect'
p76
I8
tp77
a(I13
I45
I0
S'great'
p78
I8
tp79
as(S'connect'
p80
S'to'
p81
S'internet'
p82
tp83
(lp84
(I13
I12
I0
S'slower'
p85
I0
tp86
a(I13
I8
I0
S'general'
p87
I6
tp88
a(I13
I12
I0
g85
I6
tp89
a(I25
I18
I0
S'cable'
p90
I6
tp91
as(S'call'
p92
S'quality'
p93
tp94
(lp95
(I24
I4
I0
S'great'
p96
I0
tp97
as(S'huawei'
p98
tp99
(lp100
(I13
I8
I0
S'website'
p101
I0
tp102
a(I24
I36
F0.25
S'original'
p103
I0
tp104
a(I26
I8
I0
S'website'
p105
I0
tp106
as(S'apps'
p107
tp108
(lp109
(I0
I4
I0
S'few'
p110
I0
tp111
a(I0
I4
I0
S'chinese'
p112
I0
tp113
a(I0
I4
F0.625
S'easy'
p114
I0
tp115
a(I14
I5
I0
S'many'
p116
I0
tp117
a(I22
I20
F-0.5
S'open'
p118
I0
tp119
a(I24
I7
I0
S'many'
p120
I0
tp121
a(I24
I7
I0
S'full'
p122
I0
tp123
a(I24
I8
F-0.625
S'other'
p124
I0
tp125
a(I24
I15
F-0.375
S'unstable'
p126
I0
tp127
a(I25
I8
F0.5
S'clear'
p128
I0
tp129
a(I25
I8
F-0.75
S'bright'
p130
I0
tp131
a(I25
I23
F-0.625
S'other'
p132
I0
tp133
a(I26
I25
I0
S'chinese'
p134
I0
tp135
as(S'internal'
p136
S'memory'
p137
tp138
(lp139
(I7
I3
I0
S'internal'
p140
I0
tp141
a(I10
I5
F-0.625
S'bad'
p142
I0
tp143
a(I10
I5
I0
S'internal'
p144
I0
tp145
a(I10
I8
I0
S'internal'
p146
I0
tp147
a(I18
I0
I0
S'internal'
p148
I0
tp149
a(I5
I42
F1.0
S'better'
p150
I5
tp151
a(I7
I3
I0
g140
I5
tp152
a(I10
I5
F-0.625
g142
I5
tp153
a(I10
I5
I0
g144
I5
tp154
a(I10
I8
I0
g146
I5
tp155
a(I18
I0
I0
g148
I5
tp156
a(I18
I1
F-0.625
S'other'
p157
I5
tp158
a(I26
I21
F-0.375
S'small'
p159
I5
tp160
as(S'camera'
p161
tp162
(lp163
(I0
I18
F1.0
S'good'
p164
I1
tp165
a(I5
I37
F-0.5
S'poor'
p166
I1
tp167
a(I14
I3
I0
S'great'
p168
I1
tp169
a(I14
I22
F1.0
S'best'
p170
I1
tp171
a(I17
I10
F0.375
S'flash'
p172
I1
tp173
a(I20
I2
F0.875
S'nice'
p174
I1
tp175
a(I24
I25
F0.25
S'stellar'
p176
I1
tp177
a(I26
I14
F-0.25
S'disappointing'
p178
I1
tp179
a(I26
I14
I0
S'useful'
p180
I1
tp181
a(I26
I14
F0.375
S'available'
p182
I1
tp183
as.