(dp0
(S'life'
p1
tp2
(lp3
(I45
I6
F0.875
S'nice'
p4
tp5
a(I171
I4
F0.625
S'correct'
p6
tp7
a(I242
I1
I0
S'hot'
p8
tp9
a(I295
I0
I0
S'real'
p10
tp11
a(I331
I2
I0
S'more'
p12
tp13
a(I331
I2
F0.125
S'able'
p14
tp15
a(I356
I0
F0.625
S'easier'
p16
tp17
a(I381
I2
I0
S'same'
p18
tp19
a(I388
I3
I0
S'real'
p20
tp21
a(I388
I3
F-0.125
S'bean'
p22
tp23
as(S'problem'
p24
tp25
(lp26
(I41
I4
I0
S'same'
p27
tp28
a(I108
I1
I0
S'common'
p29
tp30
a(I110
I0
I0
S'only'
p31
tp32
a(I142
I0
I0
S'only'
p33
tp34
a(I174
I0
I0
S'same'
p35
tp36
a(I202
I1
I0
S'big'
p37
tp38
a(I226
I2
F0.25
S'main'
p39
tp40
a(I226
I3
I0
S'specific'
p41
tp42
a(I382
I0
I0
S'only'
p43
tp44
as(S'something'
p45
tp46
(lp47
(I16
I2
F0.5
S'touch'
p48
tp49
a(I51
I1
F-0.75
S'wrong'
p50
tp51
a(I138
I1
I0
S'different'
p52
tp53
a(I227
I41
F0.375
S'new'
p54
tp55
a(I306
I4
F-0.75
S'wrong'
p56
tp57
a(I388
I30
I0
S'most'
p58
tp59
a(I388
I49
I0
S'apple'
p60
tp61
as(S'battery'
p62
S'life'
p63
tp64
(lp65
(I45
I6
F0.875
g4
tp66
a(I57
I4
F-0.75
S'short'
p67
tp68
a(I86
I0
I0
S'great'
p69
tp70
a(I171
I4
F0.625
g6
tp71
a(I177
I11
F-0.75
S'short'
p72
tp73
a(I194
I1
F-0.25
S'lower'
p74
tp75
a(I226
I3
F-0.75
S'short'
p76
tp77
a(I242
I1
I0
g8
tp78
a(I295
I0
I0
g10
tp79
a(I331
I2
I0
g12
tp80
a(I331
I2
F0.125
g14
tp81
a(I381
I2
F0.5
S'second'
p82
tp83
a(I381
I2
I0
g18
tp84
as(S'quad'
p85
S'core'
p86
S'processor'
p87
tp88
(lp89
(I162
I3
F0.25
S'powerful'
p90
tp91
a(I185
I12
F0.375
S'available'
p92
tp93
as(S'apple'
p94
tp95
(lp96
(I138
I2
F0.75
S'worth'
p97
tp98
a(I284
I0
F0.5
S'loyal'
p99
tp100
a(I284
I0
F-0.625
S'sorry'
p101
tp102
a(I284
I0
I0
S'polygamous'
p103
tp104
a(I322
I5
I0
S'least'
p105
tp106
as(S'made'
p107
tp108
(lp109
(I196
I0
I0
S'hot'
p110
tp111
a(I196
I0
I0
S'plastic'
p112
tp113
as(S'text'
p114
tp115
(lp116
(I103
I13
I0
S'android'
p117
tp118
a(I339
I14
F-0.5
S'long'
p119
tp120
as(S'card'
p121
tp122
(lp123
(I160
I19
F-0.375
S'pull'
p124
tp125
a(I331
I12
F-0.5
S'sure'
p126
tp127
a(I331
I12
I0
S'quick'
p128
tp129
as(S'screen'
p130
tp131
(lp132
(I2
I1
F1.0
S'good'
p133
tp134
a(I3
I17
F0.5
S'touch'
p135
tp136
a(I10
I0
F0.625
S'easy'
p137
tp138
a(I11
I3
F0.5
S'touch'
p139
tp140
a(I16
I4
F-0.375
S'smaller'
p141
tp142
a(I18
I3
I0
S'great'
p143
tp144
a(I25
I0
F0.75
S'worth'
p145
tp146
a(I28
I3
F0.5
S'touch'
p147
tp148
a(I39
I1
F-0.375
S'smaller'
p149
tp150
a(I45
I6
I0
S'large'
p151
tp152
a(I45
I6
F0.125
S'enough'
p153
tp154
a(I50
I0
F-0.375
S'small'
p155
tp156
a(I54
I0
I0
S'big'
p157
tp158
a(I54
I0
I0
S'quick'
p159
tp160
a(I64
I1
F0.875
S'nice'
p161
tp162
a(I66
I18
I0
S'mind'
p163
tp164
a(I72
I0
F-0.375
S'small'
p165
tp166
a(I88
I1
F-0.375
S'black'
p167
tp168
a(I91
I11
I0
S'same'
p169
tp170
a(I91
I11
F0.375
S'similar'
p171
tp172
a(I91
I14
F0.25
S'bigger'
p173
tp174
a(I91
I15
F0.25
S'bigger'
p175
tp176
a(I104
I1
I0
S'great'
p177
tp178
a(I111
I0
I0
S'wide'
p179
tp180
a(I111
I0
F-0.625
S'light'
p181
tp182
a(I119
I4
F0.25
S'bigger'
p183
tp184
a(I126
I0
F0.5
S'touch'
p185
tp186
a(I160
I15
I0
S'large'
p187
tp188
a(I171
I9
I0
S'large'
p189
tp190
a(I183
I4
I0
S'large'
p191
tp192
a(I183
I4
F-0.75
S'bright'
p193
tp194
a(I183
I6
F0.5
S'whole'
p195
tp196
a(I184
I0
F-0.75
S'dead'
p197
tp198
a(I185
I6
F0.5
S'clear'
p199
tp200
a(I212
I0
I0
S'big'
p201
tp202
a(I216
I4
F0.25
S'larger'
p203
tp204
a(I216
I108
I0
S'great'
p205
tp206
a(I227
I11
F-0.75
S'bright'
p207
tp208
a(I227
I11
F0.25
S'sharp'
p209
tp210
a(I227
I11
F0.5
S'possible'
p211
tp212
a(I241
I4
F-0.375
S'small'
p213
tp214
a(I241
I10
I0
S'thick'
p215
tp216
a(I253
I0
I0
S'android'
p217
tp218
a(I258
I0
I0
S'incredible'
p219
tp220
a(I271
I2
I0
S'sensitive'
p221
tp222
a(I302
I2
I0
S'big'
p223
tp224
a(I302
I2
F0.75
S'beautiful'
p225
tp226
a(I302
I2
F0.5
S'gamble'
p227
tp228
a(I302
I4
I0
S'external'
p229
tp230
a(I313
I6
F0.5
S'rid'
p231
tp232
a(I325
I13
I0
S'more'
p233
tp234
a(I325
I13
F-0.375
S'smaller'
p235
tp236
a(I328
I2
F0.25
S'larger'
p237
tp238
a(I331
I14
F0.875
S'nice'
p239
tp240
a(I331
I14
F1.0
S'best'
p241
tp242
a(I339
I11
I0
S'full'
p243
tp244
a(I352
I1
F0.875
S'nice'
p245
tp246
a(I357
I13
I0
S'same'
p247
tp248
a(I365
I7
F0.625
S'easy'
p249
tp250
a(I366
I0
I0
S'large'
p251
tp252
a(I379
I0
F0.75
S'beautiful'
p253
tp254
a(I388
I7
I0
S'slower'
p255
tp256
a(I407
I1
I0
S'big'
p257
tp258
as(S'service'
p259
tp260
(lp261
(I105
I0
F0.375
S'extra'
p262
tp263
a(I172
I5
I0
S'monthly'
p264
tp265
a(I172
I6
I0
S'monthly'
p266
tp267
a(I194
I5
I0
S'same'
p268
tp269
a(I203
I1
I0
S'local'
p270
tp271
a(I246
I0
F-0.125
S'overall'
p272
tp273
a(I254
I4
I0
S'mobile'
p274
tp275
a(I313
I8
F-0.5
S'poor'
p276
tp277
a(I318
I5
I0
S'cellular'
p278
tp279
a(I318
I13
I0
S'cellular'
p280
tp281
a(I403
I2
F-0.375
S'authorized'
p282
tp283
as(S'everything'
p284
tp285
(lp286
(I63
I1
I0
S'fast'
p287
tp288
a(I227
I7
F0.625
S'easy'
p289
tp290
a(I227
I7
F-0.5
S'open'
p291
tp292
a(I227
I7
F0.625
S'logical'
p293
tp294
as(S'problems'
p295
tp296
(lp297
(I26
I28
I0
S'real'
p298
tp299
a(I54
I1
F-0.375
S'small'
p300
tp301
a(I241
I13
F0.375
S'new'
p302
tp303
a(I302
I27
I0
S'internal'
p304
tp305
a(I302
I27
F-0.625
S'free'
p306
tp307
a(I358
I1
F0.75
S'due'
p308
tp309
a(I384
I2
F-0.625
S'other'
p310
tp311
a(I389
I0
F0.625
S'perfect'
p312
tp313
as(S'samsung'
p314
tp315
(lp316
(I51
I1
F-0.375
S'authorized'
p317
tp318
a(I51
I1
I0
S'real'
p319
tp320
a(I51
I1
F0.375
S'new'
p321
tp322
a(I85
I1
F0.5
S'technical'
p323
tp324
a(I88
I0
F-0.625
S'other'
p325
tp326
a(I99
I0
F0.125
S'further'
p327
tp328
a(I112
I0
F1.0
S'best'
p329
tp330
a(I195
I0
F0.25
S'original'
p331
tp332
a(I239
I2
I0
S'standard'
p333
tp334
a(I256
I2
F1.0
S'best'
p335
tp336
a(I266
I4
F0.125
S'able'
p337
tp338
a(I280
I0
I0
S'entire'
p339
tp340
a(I349
I0
F0.5
S'loyal'
p341
tp342
a(I365
I3
F0.375
S'newer'
p343
tp344
a(I402
I2
I0
S'older'
p345
tp346
a(I408
I11
I0
S'older'
p347
tp348
as(S'works'
p349
tp350
(lp351
(I6
I3
F0.375
S'new'
p352
tp353
a(I16
I1
F0.875
S'nice'
p354
tp355
a(I20
I0
F1.0
S'good'
p356
tp357
a(I21
I1
F-0.5
S'unavailable'
p358
tp359
a(I153
I2
I0
S'great'
p360
tp361
a(I163
I4
F0.125
S'usual'
p362
tp363
a(I285
I0
I0
S'great'
p364
tp365
a(I296
I0
I0
S'great'
p366
tp367
a(I339
I7
I0
S'great'
p368
tp369
as(S'back'
p370
tp371
(lp372
(I45
I6
F-0.375
S'black'
p373
tp374
a(I138
I23
F0.375
S'new'
p375
tp376
as(S'a'
p377
S'great'
p378
S'product'
p379
tp380
(lp381
(I89
I32
I0
S'great'
p382
tp383
a(I101
I0
I0
S'great'
p384
tp385
a(I234
I0
I0
S'great'
p386
tp387
a(I353
I8
F0.125
S'technophile'
p388
tp389
a(I353
I8
I0
S'great'
p390
tp391
a(I376
I0
F-0.125
S'overall'
p392
tp393
a(I376
I0
I0
S'great'
p394
tp395
a(I406
I0
I0
S'great'
p396
tp397
as(S'camera'
p398
tp399
(lp400
(I26
I1
F1.0
S'good'
p401
tp402
a(I26
I6
I0
S'most'
p403
tp404
a(I29
I0
F0.5
S'accurate'
p405
tp406
a(I33
I2
F0.125
S'usual'
p407
tp408
a(I75
I0
F0.125
S'first'
p409
tp410
a(I100
I1
F-0.75
S'stupid'
p411
tp412
a(I119
I19
I0
S'useful'
p413
tp414
a(I153
I2
F0.625
S'perfect'
p415
tp416
a(I171
I9
F0.25
S'sharp'
p417
tp418
a(I179
I0
F1.0
S'good'
p419
tp420
a(I195
I0
I0
S'same'
p421
tp422
a(I197
I0
I0
S'great'
p423
tp424
a(I209
I1
F1.0
S'good'
p425
tp426
a(I216
I3
I0
S'great'
p427
tp428
a(I216
I108
I0
S'great'
p429
tp430
a(I227
I31
F0.625
S'easy'
p431
tp432
a(I227
I31
I0
S'different'
p433
tp434
a(I323
I0
F0.625
S'perfect'
p435
tp436
a(I339
I4
I0
S'more'
p437
tp438
a(I339
I11
F0.25
S'used'
p439
tp440
a(I357
I26
I0
S'latest'
p441
tp442
a(I357
I26
F-0.375
S'top'
p443
tp444
a(I357
I26
F1.0
S'good'
p445
tp446
a(I357
I26
F0.375
S'available'
p447
tp448
a(I360
I0
F-0.125
S'mine'
p449
tp450
as(S'with'
p451
S'one'
p452
S'hand'
p453
tp454
(lp455
(I3
I20
F0.625
S'easy'
p456
tp457
a(I3
I20
I0
S'same'
p458
tp459
a(I45
I6
F1.0
S'better'
p460
tp461
a(I227
I35
F-0.625
S'pinch'
p462
tp463
a(I270
I13
F-0.75
S'single'
p464
tp465
as(S'version'
p466
tp467
(lp468
(I113
I7
I0
S'android'
p469
tp470
a(I121
I1
F-0.5
S'international'
p471
tp472
a(I162
I6
I0
S'least'
p473
tp474
a(I162
I6
F0.25
S'unlocked'
p475
tp476
a(I165
I1
F-0.5
S'international'
p477
tp478
a(I167
I1
F-0.5
S'international'
p479
tp480
a(I173
I0
F-0.5
S'international'
p481
tp482
a(I183
I11
F-0.25
S'google'
p483
tp484
a(I223
I2
I0
S'more'
p485
tp486
a(I255
I1
I0
S'real'
p487
tp488
a(I257
I15
F-0.5
S'international'
p489
tp490
a(I257
I17
F-0.5
S'international'
p491
tp492
a(I261
I3
F-0.5
S'international'
p493
tp494
a(I261
I4
F-0.5
S'international'
p495
tp496
a(I276
I0
F-0.5
S'international'
p497
tp498
a(I289
I0
F-0.5
S'international'
p499
tp500
a(I303
I0
F-0.5
S'international'
p501
tp502
a(I306
I1
F-0.5
S'international'
p503
tp504
a(I331
I14
F-0.375
S'black'
p505
tp506
a(I341
I0
F-0.5
S'international'
p507
tp508
a(I384
I1
F-0.25
S'cheaper'
p509
tp510
a(I384
I1
I0
S'older'
p511
tp512
as(S'seller'
p513
tp514
(lp515
(I146
I3
F0.25
S'unlocked'
p516
tp517
a(I201
I3
F0.375
S'new'
p518
tp519
a(I380
I4
F-0.375
S'unacceptable'
p520
tp521
as(S'nternational'
p522
S'version'
p523
tp524
(lp525
(I121
I1
F-0.5
g471
tp526
a(I162
I6
I0
g473
tp527
a(I162
I6
F0.25
g475
tp528
a(I165
I1
F-0.5
g477
tp529
a(I167
I1
F-0.5
g479
tp530
a(I173
I0
F-0.5
g481
tp531
a(I257
I15
F-0.5
g489
tp532
a(I257
I17
F-0.5
g491
tp533
a(I261
I3
F-0.5
g493
tp534
a(I261
I4
F-0.5
g495
tp535
a(I276
I0
F-0.5
g497
tp536
a(I289
I0
F-0.5
g499
tp537
a(I303
I0
F-0.5
g501
tp538
a(I306
I1
F-0.5
g503
tp539
a(I341
I0
F-0.5
g507
tp540
as(S'quality'
p541
tp542
(lp543
(I2
I8
F1.0
S'good'
p544
tp545
a(I3
I14
F1.0
S'better'
p546
tp547
a(I3
I43
I0
S'useful'
p548
tp549
a(I11
I1
F-0.25
S'highest'
p550
tp551
a(I16
I1
F0.875
S'nice'
p552
tp553
a(I88
I0
I0
S'different'
p554
tp555
a(I89
I20
F1.0
S'good'
p556
tp557
a(I91
I18
F1.0
S'best'
p558
tp559
a(I134
I10
F1.0
S'good'
p560
tp561
a(I138
I22
I0
S'same'
p562
tp563
a(I178
I0
F1.0
S'good'
p564
tp565
a(I185
I47
F1.0
S'good'
p566
tp567
a(I194
I6
F0.125
S'solid'
p568
tp569
a(I214
I0
F0.125
S'impressive'
p570
tp571
a(I235
I12
I0
S'same'
p572
tp573
a(I235
I20
F-0.25
S'highest'
p574
tp575
a(I297
I1
F1.0
S'good'
p576
tp577
a(I313
I10
F-0.5
S'poor'
p578
tp579
a(I330
I3
F1.0
S'best'
p580
tp581
a(I351
I1
F1.0
S'good'
p582
tp583
a(I357
I16
I0
S'high'
p584
tp585
a(I387
I2
F1.0
S'good'
p586
tp587
as(S'product'
p588
tp589
(lp590
(I26
I9
F0.5
S'whole'
p591
tp592
a(I34
I0
I0
S'more'
p593
tp594
a(I82
I0
I0
S'arabic'
p595
tp596
a(I82
I0
I0
S'english'
p597
tp598
a(I89
I10
F-0.75
S'wrong'
p599
tp600
a(I89
I32
I0
g382
tp601
a(I101
I0
I0
g384
tp602
a(I113
I4
F-0.625
S'other'
p603
tp604
a(I121
I0
F0.5
S'compatible'
p605
tp606
a(I123
I0
F0.5
S'possible'
p607
tp608
a(I185
I54
I0
S'closing'
p609
tp610
a(I185
I54
F0.25
S'stellar'
p611
tp612
a(I207
I0
F1.0
S'good'
p613
tp614
a(I234
I0
I0
g386
tp615
a(I252
I0
F0.875
S'happy'
p616
tp617
a(I273
I2
I0
S'current'
p618
tp619
a(I273
I2
F-0.25
S'higher'
p620
tp621
a(I303
I2
F0.5
S'clear'
p622
tp623
a(I353
I8
F0.125
g388
tp624
a(I353
I8
I0
g390
tp625
a(I376
I0
F-0.125
g392
tp626
a(I376
I0
I0
g394
tp627
a(I380
I0
F0.125
S'first'
p628
tp629
a(I395
I0
F-0.5
S'sure'
p630
tp631
a(I395
I0
F-0.636
S'genuine'
p632
tp633
a(I406
I0
I0
g396
tp634
as(S'mobile'
p635
tp636
(lp637
(I128
I0
I0
S'great'
p638
tp639
as(S'galaxy'
p640
tp641
(lp642
(I3
I2
F0.125
S'popular'
p643
tp644
a(I61
I0
F1.0
S'good'
p645
tp646
a(I62
I1
I0
S'such'
p647
tp648
a(I86
I0
F0.375
S'new'
p649
tp650
a(I89
I32
F0.125
S'first'
p651
tp652
a(I89
I33
F0.125
S'first'
p653
tp654
a(I162
I1
I0
S'galaxy'
p655
tp656
a(I203
I1
F0.125
S'first'
p657
tp658
a(I270
I1
I0
S'fastest'
p659
tp660
a(I284
I0
F0.375
S'new'
p661
tp662
a(I328
I4
F0.375
S'new'
p663
tp664
a(I328
I8
F0.25
S'familiar'
p665
tp666
a(I342
I1
F0.25
S'original'
p667
tp668
as(S'things'
p669
tp670
(lp671
(I45
I7
F-0.75
S'little'
p672
tp673
a(I72
I1
I0
S'different'
p674
tp675
a(I88
I1
I0
S'different'
p676
tp677
a(I89
I16
F1.0
S'good'
p678
tp679
a(I89
I16
I0
S'fast'
p680
tp681
a(I89
I16
F1.0
S'better'
p682
tp683
a(I93
I1
I0
S'many'
p684
tp685
a(I103
I12
F-0.375
S'simple'
p686
tp687
a(I103
I12
I0
S'android'
p688
tp689
a(I134
I6
I0
S'cool'
p690
tp691
a(I160
I11
F-0.625
S'other'
p692
tp693
a(I160
I22
I0
S'different'
p694
tp695
a(I227
I43
I0
S'few'
p696
tp697
a(I234
I4
I0
S'few'
p698
tp699
a(I235
I80
F0.875
S'important'
p700
tp701
a(I257
I19
F0.125
S'last'
p702
tp703
a(I315
I5
F-0.5
S'limitless'
p704
tp705
a(I331
I18
I0
S'cool'
p706
tp707
a(I336
I0
F1.0
S'good'
p708
tp709
a(I381
I8
F0.875
S'important'
p710
tp711
a(I387
I1
F-0.75
S'little'
p712
tp713
a(I388
I23
F-0.5
S'certain'
p714
tp715
a(I408
I15
F-0.625
S'other'
p716
tp717
a(I408
I15
I0
S'few'
p718
tp719
as(S'of'
p720
S'samsung'
p721
S'galaxy'
p722
tp723
(lp724
(I88
I0
F-0.625
g325
tp725
a(I89
I32
F0.125
g651
tp726
as(S'using'
p727
tp728
(lp729
(I370
I18
I0
S'local'
p730
tp731
as(S'features'
p732
tp733
(lp734
(I3
I30
I0
S'standard'
p735
tp736
a(I3
I30
I0
S'many'
p737
tp738
a(I3
I32
I0
S'many'
p739
tp740
a(I3
I32
I0
S'futuristic'
p741
tp742
a(I3
I32
I0
S'such'
p743
tp744
a(I17
I0
F1.0
S'good'
p745
tp746
a(I91
I2
F0.125
S'first'
p747
tp748
a(I91
I10
I0
S'basic'
p749
tp750
a(I119
I10
F-0.625
S'other'
p751
tp752
a(I134
I3
F-0.625
S'other'
p753
tp754
a(I134
I10
I0
S'many'
p755
tp756
a(I134
I10
F-0.625
S'other'
p757
tp758
a(I149
I0
F0.375
S'new'
p759
tp760
a(I162
I6
F0.375
S'new'
p761
tp762
a(I162
I6
F0.375
S'new'
p763
tp764
a(I162
I6
I0
S'cool'
p765
tp766
a(I171
I0
I0
S'cool'
p767
tp768
a(I171
I0
F-0.125
S'air'
p769
tp770
a(I183
I10
I0
S'cool'
p771
tp772
a(I183
I11
F0.375
S'extra'
p773
tp774
a(I188
I1
I0
S'most'
p775
tp776
a(I203
I1
F0.125
S'able'
p777
tp778
a(I223
I0
F1.0
S'best'
p779
tp780
a(I223
I0
I0
S'many'
p781
tp782
a(I235
I24
F0.5
S'added'
p783
tp784
a(I235
I40
F0.375
S'new'
p785
tp786
a(I235
I40
F0.375
S'available'
p787
tp788
a(I235
I44
I0
S'futuristic'
p789
tp790
a(I235
I48
F0.25
S'helpful'
p791
tp792
a(I235
I73
I0
S'many'
p793
tp794
a(I235
I81
F0.875
S'happy'
p795
tp796
a(I241
I1
I0
S'cool'
p797
tp798
a(I241
I3
I0
S'useful'
p799
tp800
a(I249
I0
I0
S'special'
p801
tp802
a(I259
I0
F0.375
S'new'
p803
tp804
a(I259
I0
I0
S'cool'
p805
tp806
a(I270
I8
I0
S'great'
p807
tp808
a(I277
I2
I0
S'many'
p809
tp810
a(I328
I8
I0
S'great'
p811
tp812
a(I331
I16
I0
S'many'
p813
tp814
a(I366
I0
F-0.25
S'modern'
p815
tp816
a(I367
I3
I0
S'many'
p817
tp818
a(I375
I7
I0
S'more'
p819
tp820
a(I376
I0
I0
S'many'
p821
tp822
a(I381
I9
F0.375
S'much'
p823
tp824
a(I388
I32
F-0.125
S'bean'
p825
tp826
a(I388
I42
F-0.5
S'less'
p827
tp828
a(I388
I42
I0
S'notable'
p829
tp830
a(I388
I50
F0.375
S'available'
p831
tp832
a(I407
I2
I0
S'great'
p833
tp834
as(S'power'
p835
tp836
(lp837
(I216
I85
F-0.5
S'vibrate'
p838
tp839
a(I241
I1
F1.0
S'good'
p840
tp841
a(I388
I7
F0.75
S'give'
p842
tp843
as(S'htc'
p844
S'one'
p845
S'x'
p846
tp847
(lp848
(I45
I1
F0.75
S'due'
p849
tp850
a(I272
I1
F-0.375
S'crazy'
p851
tp852
as(S'people'
p853
tp854
(lp855
(I14
I4
F-0.5
S'sure'
p856
tp857
a(I166
I5
I0
S'many'
p858
tp859
a(I183
I23
F0.5
S'bash'
p860
tp861
a(I216
I93
I0
S'real'
p862
tp863
a(I227
I13
I0
S'many'
p864
tp865
a(I267
I0
F0.5
S'careful'
p866
tp867
a(I302
I9
I0
S'most'
p868
tp869
a(I349
I0
I0
S'many'
p870
tp871
a(I349
I0
F-0.625
S'other'
p872
tp873
a(I388
I6
F1.0
S'better'
p874
tp875
a(I388
I50
I0
S'most'
p876
tp877
as(S'feature'
p878
tp879
(lp880
(I3
I37
F0.375
S'new'
p881
tp882
a(I3
I39
I0
S'unnecessary'
p883
tp884
a(I11
I6
F0.375
S'available'
p885
tp886
a(I86
I0
I0
S'great'
p887
tp888
a(I91
I6
F-0.75
S'likely'
p889
tp890
a(I119
I17
F0.375
S'available'
p891
tp892
a(I149
I1
I0
S'basic'
p893
tp894
a(I185
I22
I0
S'incredible'
p895
tp896
a(I185
I22
F0.25
S'favorite'
p897
tp898
a(I185
I29
F0.375
S'interesting'
p899
tp900
as(S'pros'
p901
S'and'
p902
S'cons'
p903
tp904
(lp905
(I207
I1
I0
S'own'
p906
tp907
a(I216
I0
I0
S'initial'
p908
tp909
a(I216
I124
I0
S'great'
p910
tp911
a(I216
I124
F0.125
S'first'
p912
tp913
a(I369
I0
F0.375
S'much'
p914
tp915
as(S'found'
p916
tp917
(lp918
(I78
I0
F0.375
S'new'
p919
tp920
as(S'2'
p921
S'year'
p922
S'contract'
p923
tp924
(lp925
(I163
I0
I0
S'current'
p926
tp927
a(I254
I3
F0.25
S'tired'
p928
tp929
a(I408
I4
I0
S'full'
p930
tp931
as(g377
S'long'
p932
S'time'
p933
tp934
(lp935
(I18
I2
F-0.5
S'long'
p936
tp937
a(I51
I0
F-0.5
S'long'
p938
tp939
a(I66
I14
F-0.5
S'long'
p940
tp941
a(I71
I2
F-0.5
S'long'
p942
tp943
a(I72
I0
F-0.5
S'long'
p944
tp945
a(I89
I35
F-0.5
S'long'
p946
tp947
a(I160
I21
F-0.5
S'long'
p948
tp949
a(I241
I6
F-0.5
S'long'
p950
tp951
as(S'android'
p952
tp953
(lp954
(I91
I10
I0
S'traditional'
p955
tp956
a(I100
I8
F0.125
S'first'
p957
tp958
a(I185
I55
F-0.125
S'bean'
p959
tp960
a(I235
I85
F1.0
S'best'
p961
tp962
a(I301
I0
F0.375
S'similar'
p963
tp964
a(I322
I4
I0
S'different'
p965
tp966
as(S'sd'
p967
S'card'
p968
tp969
(lp970
(I331
I12
F-0.5
g126
tp971
a(I331
I12
I0
g128
tp972
as(S'case'
p973
tp974
(lp975
(I2
I2
F1.0
S'better'
p976
tp977
a(I2
I2
F-0.75
S'worse'
p978
tp979
a(I2
I2
F1.0
S'better'
p980
tp981
a(I94
I3
F0.125
S'protective'
p982
tp983
a(I194
I6
F0.5
S'recommend'
p984
tp985
a(I224
I1
F0.375
S'much'
p986
tp987
a(I235
I55
F0.375
S'similar'
p988
tp989
a(I237
I0
F0.125
S'protective'
p990
tp991
a(I261
I7
F0.125
S'able'
p992
tp993
a(I261
I7
F0.125
S'further'
p994
tp995
a(I284
I0
F0.875
S'nice'
p996
tp997
a(I284
I0
F0.5
S'strong'
p998
tp999
a(I347
I1
F0.5
S'clear'
p1000
tp1001
a(I347
I1
F0.875
S'nice'
p1002
tp1003
a(I347
I2
F0.5
S'functional'
p1004
tp1005
as(S'galaxy'
p1006
S's4'
p1007
tp1008
(lp1009
(I3
I1
F0.5
S'primary'
p1010
tp1011
a(I3
I5
F-0.25
S'thin'
p1012
tp1013
a(I61
I0
F1.0
g645
tp1014
a(I86
I0
F0.375
g649
tp1015
a(I119
I1
F0.625
S'easy'
p1016
tp1017
a(I143
I0
F-0.125
S'mine'
p1018
tp1019
a(I245
I1
F0.375
S'much'
p1020
tp1021
a(I251
I1
F-0.625
S'quiet'
p1022
tp1023
a(I254
I13
F-0.5
S'international'
p1024
tp1025
a(I254
I24
I0
S'close'
p1026
tp1027
a(I270
I1
I0
g659
tp1028
a(I284
I0
F0.375
g661
tp1029
a(I324
I0
I0
S'galaxy'
p1030
tp1031
a(I328
I8
F0.25
g665
tp1032
a(I331
I16
F0.25
S'sharper'
p1033
tp1034
as(S'excellent'
p1035
tp1036
(lp1037
(I109
I0
I0
S'android'
p1038
tp1039
a(I185
I55
F-0.25
S'google'
p1040
tp1041
as(S'think'
p1042
tp1043
(lp1044
(I25
I0
F-0.625
S'other'
p1045
tp1046
a(I80
I0
I0
S'many'
p1047
tp1048
as(S'battery'
p1049
tp1050
(lp1051
(I18
I2
I0
S'great'
p1052
tp1053
a(I22
I0
F-0.5
S'long'
p1054
tp1055
a(I33
I2
F-0.125
S'slow'
p1056
tp1057
a(I35
I6
F-0.75
S'dead'
p1058
tp1059
a(I35
I6
F1.0
S'better'
p1060
tp1061
a(I57
I4
F-0.75
g67
tp1062
a(I64
I1
F1.0
S'good'
p1063
tp1064
a(I77
I0
I0
S'plastic'
p1065
tp1066
a(I86
I0
I0
g69
tp1067
a(I93
I1
F-0.625
S'suck'
p1068
tp1069
a(I93
I3
F0.375
S'new'
p1070
tp1071
a(I102
I0
I0
S'faster'
p1072
tp1073
a(I119
I4
F0.25
S'larger'
p1074
tp1075
a(I130
I1
I0
S'empty'
p1076
tp1077
a(I132
I2
F0.125
S'last'
p1078
tp1079
a(I168
I10
F-0.25
S'plug'
p1080
tp1081
a(I168
I11
F0.375
S'new'
p1082
tp1083
a(I171
I3
F-0.5
S'inadequate'
p1084
tp1085
a(I171
I7
F0.625
S'changeable'
p1086
tp1087
a(I177
I11
F-0.75
g72
tp1088
a(I194
I1
F-0.25
g74
tp1089
a(I226
I3
F-0.75
g76
tp1090
a(I235
I60
F-0.75
S'difficult'
p1091
tp1092
a(I235
I65
F0.5
S'primary'
p1093
tp1094
a(I241
I1
F0.125
S'last'
p1095
tp1096
a(I241
I13
F0.625
S'replaceable'
p1097
tp1098
a(I251
I0
F0.125
S'last'
p1099
tp1100
a(I262
I0
F0.125
S'last'
p1101
tp1102
a(I306
I5
F0.125
S'last'
p1103
tp1104
a(I306
I5
I0
S'more'
p1105
tp1106
a(I326
I0
I0
S'very'
p1107
tp1108
a(I326
I0
F1.0
S'good'
p1109
tp1110
a(I331
I4
I0
S'quick'
p1111
tp1112
a(I331
I4
F0.375
S'extra'
p1113
tp1114
a(I375
I5
F0.375
S'new'
p1115
tp1116
a(I381
I1
F-0.625
S'bad'
p1117
tp1118
a(I381
I2
F0.5
g82
tp1119
a(I383
I1
I0
S'full'
p1120
tp1121
a(I386
I0
F0.25
S'larger'
p1122
tp1123
a(I386
I5
F0.25
S'bigger'
p1124
tp1125
as(S'2gb'
p1126
S'of'
p1127
S'ram'
p1128
tp1129
(lp1130
(I3
I25
I0
S'english'
p1131
tp1132
a(I11
I4
F-0.375
S'double'
p1133
tp1134
a(I138
I10
I0
S'great'
p1135
tp1136
a(I386
I3
I0
S'phenomenal'
p1137
tp1138
as(g377
S'third'
p1139
S'party'
p1140
tp1141
(lp1142
(I119
I13
I0
S'third'
p1143
tp1144
a(I146
I2
I0
S'third'
p1145
tp1146
a(I168
I7
I0
S'third'
p1147
tp1148
a(I168
I7
I0
S'third'
p1149
tp1150
a(I257
I5
I0
S'third'
p1151
tp1152
as(S'smart'
p1153
tp1154
(lp1155
(I26
I1
F0.125
S'first'
p1156
tp1157
a(I40
I0
F-0.625
S'other'
p1158
tp1159
a(I104
I0
I0
S'great'
p1160
tp1161
a(I211
I0
F1.0
S'best'
p1162
tp1163
a(I235
I2
I0
S'many'
p1164
tp1165
a(I255
I0
F0.125
S'first'
p1166
tp1167
a(I287
I0
F1.0
S'best'
p1168
tp1169
a(I357
I29
F-0.625
S'other'
p1170
tp1171
a(I369
I0
F0.125
S'first'
p1172
tp1173
as(S'software'
p1174
tp1175
(lp1176
(I26
I28
F-0.375
S'unstable'
p1177
tp1178
a(I46
I0
I0
S'included'
p1179
tp1180
a(I102
I0
I0
S'same'
p1181
tp1182
a(I176
I0
F1.0
S'good'
p1183
tp1184
a(I216
I63
I0
S'own'
p1185
tp1186
a(I216
I64
I0
S'old'
p1187
tp1188
a(I235
I18
F-0.125
S'future'
p1189
tp1190
a(I235
I72
I0
S'own'
p1191
tp1192
a(I245
I1
F1.0
S'good'
p1193
tp1194
a(I349
I2
I0
S'close'
p1195
tp1196
as(S'samsung'
p1197
S'galaxy'
p1198
tp1199
(lp1200
(I3
I2
F0.125
g643
tp1201
a(I61
I0
F1.0
g645
tp1202
a(I88
I0
F-0.625
g325
tp1203
a(I89
I32
F0.125
g651
tp1204
a(I365
I3
F0.375
g343
tp1205
a(I402
I2
I0
g345
tp1206
as(S'better'
p1207
tp1208
(lp1209
(I134
I5
F0.375
S'much'
p1210
tp1211
a(I182
I1
F0.375
S'much'
p1212
tp1213
a(I274
I1
F0.375
S'much'
p1214
tp1215
a(I318
I15
F0.375
S'much'
p1216
tp1217
a(I323
I0
F0.375
S'much'
p1218
tp1219
as(S'with'
p1220
S'galaxy'
p1221
S's4'
p1222
tp1223
(lp1224
(I3
I5
F-0.25
g1012
tp1225
a(I143
I0
F-0.125
g1018
tp1226
a(I245
I1
F0.375
g1020
tp1227
a(I251
I1
F-0.625
g1022
tp1228
a(I254
I13
F-0.5
g1024
tp1229
a(I254
I24
I0
g1026
tp1230
a(I284
I0
F0.375
g661
tp1231
a(I328
I8
F0.25
g665
tp1232
as(S'thing'
p1233
tp1234
(lp1235
(I27
I2
F0.625
S'easy'
p1236
tp1237
a(I35
I6
F1.0
S'good'
p1238
tp1239
a(I42
I1
I0
S'same'
p1240
tp1241
a(I100
I4
I0
S'same'
p1242
tp1243
a(I138
I24
F-0.375
S'small'
p1244
tp1245
a(I138
I24
I0
S'big'
p1246
tp1247
a(I160
I13
I0
S'more'
p1248
tp1249
a(I161
I1
I0
S'real'
p1250
tp1251
a(I168
I15
F-0.75
S'stupid'
p1252
tp1253
a(I202
I1
F-0.875
S'worst'
p1254
tp1255
a(I227
I44
F0.875
S'nice'
p1256
tp1257
a(I235
I5
F1.0
S'good'
p1258
tp1259
a(I241
I8
F-0.75
S'little'
p1260
tp1261
a(I241
I11
I0
S'big'
p1262
tp1263
a(I331
I6
F-0.625
S'other'
p1264
tp1265
a(I331
I6
F0.875
S'nice'
p1266
tp1267
a(I333
I1
I0
S'only'
p1268
tp1269
a(I408
I0
F0.125
S'first'
p1270
tp1271
a(I408
I1
F0.5
S'second'
p1272
tp1273
as(S'sim'
p1274
S'card'
p1275
tp1276
(lp1277
(I227
I8
F-0.375
S'manual'
p1278
tp1279
a(I316
I0
F-0.375
S'smaller'
p1280
tp1281
as(S'micro'
p1282
S'sd'
p1283
S'card'
p1284
tp1285
(lp1286
(I331
I12
F-0.5
g126
tp1287
a(I331
I12
I0
g128
tp1288
as(S'device'
p1289
tp1290
(lp1291
(I1
I0
I0
S'great'
p1292
tp1293
a(I3
I26
F0.125
S'able'
p1294
tp1295
a(I3
I27
F0.125
S'able'
p1296
tp1297
a(I4
I0
F0.75
S'beautiful'
p1298
tp1299
a(I76
I4
I0
S'great'
p1300
tp1301
a(I89
I1
I0
S'tamper'
p1302
tp1303
a(I89
I1
I0
S'great'
p1304
tp1305
a(I89
I23
I0
S'more'
p1306
tp1307
a(I89
I23
I0
S'valuable'
p1308
tp1309
a(I89
I40
I0
S'more'
p1310
tp1311
a(I89
I40
I0
S'useful'
p1312
tp1313
a(I130
I1
I0
S'own'
p1314
tp1315
a(I130
I1
F0.875
S'nice'
p1316
tp1317
a(I158
I1
F0.625
S'productive'
p1318
tp1319
a(I216
I108
I0
S'same'
p1320
tp1321
a(I222
I0
I0
S'great'
p1322
tp1323
a(I222
I0
F-0.625
S'sometime'
p1324
tp1325
a(I227
I21
I0
S'pen'
p1326
tp1327
a(I227
I21
F0.875
S'attractive'
p1328
tp1329
a(I227
I42
I0
S'android'
p1330
tp1331
a(I247
I0
F0.25
S'powerful'
p1332
tp1333
a(I247
I0
F0.5
S'desirable'
p1334
tp1335
a(I292
I4
F-0.625
S'other'
p1336
tp1337
a(I292
I4
F1.0
S'good'
p1338
tp1339
a(I326
I0
F1.0
S'good'
p1340
tp1341
a(I326
I0
F1.0
S'good'
p1342
tp1343
as(S'support'
p1344
tp1345
(lp1346
(I216
I59
F-0.875
S'awful'
p1347
tp1348
as(S'samsung'
p1349
S'galaxy'
p1350
S's4'
p1351
tp1352
(lp1353
(I3
I5
F-0.25
g1012
tp1354
a(I61
I0
F1.0
g645
tp1355
a(I88
I0
F-0.625
g325
tp1356
a(I143
I0
F-0.125
g1018
tp1357
a(I251
I1
F-0.625
g1022
tp1358
a(I254
I13
F-0.5
g1024
tp1359
a(I254
I24
I0
g1026
tp1360
as(S'quad'
p1361
S'core'
p1362
tp1363
(lp1364
(I386
I1
I0
S'quad'
p1365
tp1366
as(S'hand'
p1367
tp1368
(lp1369
(I3
I15
F-0.625
S'other'
p1370
tp1371
a(I3
I20
F0.625
g456
tp1372
a(I3
I20
I0
g458
tp1373
a(I16
I1
F0.875
S'nice'
p1374
tp1375
a(I45
I6
F1.0
g460
tp1376
a(I107
I0
F0.5
S'second'
p1377
tp1378
a(I107
I1
F0.5
S'second'
p1379
tp1380
a(I183
I6
I0
S'large'
p1381
tp1382
a(I227
I35
F-0.625
g462
tp1383
a(I270
I13
F-0.75
g464
tp1384
as(S'warranty'
p1385
tp1386
(lp1387
(I85
I1
F-0.5
S'international'
p1388
tp1389
a(I168
I15
F0.5
S'whole'
p1390
tp1391
a(I226
I0
F-0.5
S'international'
p1392
tp1393
a(I261
I4
F-0.5
S'international'
p1394
tp1395
as(S'able'
p1396
S'to'
p1397
S'use'
p1398
tp1399
(lp1400
(I331
I2
F-0.5
S'regular'
p1401
tp1402
a(I387
I2
F-0.625
S'moderate'
p1403
tp1404
as(S'price'
p1405
tp1406
(lp1407
(I1
I1
F0.75
S'worth'
p1408
tp1409
a(I21
I7
I0
S'full'
p1410
tp1411
a(I30
I0
F0.625
S'fair'
p1412
tp1413
a(I46
I0
I0
S'same'
p1414
tp1415
a(I167
I1
I0
S'different'
p1416
tp1417
a(I167
I1
I0
S'retail'
p1418
tp1419
a(I191
I2
F-0.5
S'sure'
p1420
tp1421
a(I191
I2
F-0.5
S'less'
p1422
tp1423
a(I241
I14
I0
S'same'
p1424
tp1425
a(I254
I24
I0
S'full'
p1426
tp1427
a(I257
I11
I0
S'retail'
p1428
tp1429
a(I291
I7
F1.0
S'good'
p1430
tp1431
a(I346
I2
I0
S'same'
p1432
tp1433
a(I353
I0
F0.375
S'much'
p1434
tp1435
as(S'time'
p1436
tp1437
(lp1438
(I17
I0
I0
S'same'
p1439
tp1440
a(I18
I2
F-0.5
g936
tp1441
a(I35
I6
I0
S'least'
p1442
tp1443
a(I38
I0
F0.125
S'first'
p1444
tp1445
a(I40
I0
I0
S'big'
p1446
tp1447
a(I41
I5
F0.125
S'first'
p1448
tp1449
a(I51
I0
F-0.5
g938
tp1450
a(I64
I10
F1.0
S'good'
p1451
tp1452
a(I66
I14
F-0.5
g940
tp1453
a(I71
I2
F-0.5
g942
tp1454
a(I72
I0
F-0.5
g944
tp1455
a(I89
I35
F-0.5
g946
tp1456
a(I91
I19
I0
S'same'
p1457
tp1458
a(I103
I3
F-0.875
S'inferior'
p1459
tp1460
a(I103
I8
I0
S'ample'
p1461
tp1462
a(I122
I0
F0.375
S'complete'
p1463
tp1464
a(I134
I12
I0
S'more'
p1465
tp1466
a(I134
I12
I0
S'more'
p1467
tp1468
a(I160
I21
F-0.5
g948
tp1469
a(I185
I1
I0
S'same'
p1470
tp1471
a(I221
I1
I0
S'android'
p1472
tp1473
a(I227
I9
F0.125
S'first'
p1474
tp1475
a(I227
I26
F0.125
S'first'
p1476
tp1477
a(I235
I84
F0.125
S'first'
p1478
tp1479
a(I241
I6
F-0.5
g950
tp1480
a(I260
I0
F-0.875
S'hard'
p1481
tp1482
a(I325
I2
I0
S'only'
p1483
tp1484
a(I343
I2
I0
S'full'
p1485
tp1486
a(I384
I2
F0.125
S'first'
p1487
tp1488
a(I384
I8
I0
S'next'
p1489
tp1490
a(I388
I6
F-0.75
S'wrong'
p1491
tp1492
a(I388
I24
I0
S'same'
p1493
tp1494
a(I388
I33
I0
S'same'
p1495
tp1496
a(I388
I49
F0.125
S'first'
p1497
tp1498
a(I388
I49
F0.375
S'available'
p1499
tp1500
a(I400
I3
F-0.875
S'hard'
p1501
tp1502
as(S'smartphone'
p1503
tp1504
(lp1505
(I3
I0
I0
S'latest'
p1506
tp1507
a(I3
I27
F-0.625
S'other'
p1508
tp1509
a(I3
I55
I0
S'next'
p1510
tp1511
a(I57
I6
F-0.375
S'simple'
p1512
tp1513
a(I57
I6
I0
S'least'
p1514
tp1515
a(I70
I1
F1.0
S'good'
p1516
tp1517
a(I117
I0
F1.0
S'good'
p1518
tp1519
a(I156
I0
F1.0
S'best'
p1520
tp1521
a(I204
I0
F1.0
S'good'
p1522
tp1523
a(I227
I2
F-0.375
S'top'
p1524
tp1525
a(I227
I54
F0.125
S'first'
p1526
tp1527
a(I227
I54
I0
S'real'
p1528
tp1529
a(I235
I83
F-0.25
S'modern'
p1530
tp1531
a(I235
I86
F1.0
S'best'
p1532
tp1533
a(I238
I1
F0.25
S'bigger'
p1534
tp1535
a(I238
I1
I0
S'faster'
p1536
tp1537
a(I270
I0
I0
S'old'
p1538
tp1539
a(I336
I0
F1.0
S'good'
p1540
tp1541
a(I336
I0
I0
S'full'
p1542
tp1543
a(I343
I0
F0.25
S'favorite'
p1544
tp1545
a(I370
I1
I0
S'fourth'
p1546
tp1547
as(S'galaxy'
p1548
S's3'
p1549
tp1550
(lp1551
(I3
I2
F0.125
g643
tp1552
a(I86
I0
F0.375
g649
tp1553
a(I86
I0
I0
S'faster'
p1554
tp1555
a(I388
I3
F-0.875
S'worst'
p1556
tp1557
as(S'much'
p1558
S'better'
p1559
tp1560
(lp1561
(I134
I5
F0.375
g1210
tp1562
a(I182
I1
F0.375
g1212
tp1563
a(I274
I1
F0.375
g1214
tp1564
a(I318
I15
F0.375
g1216
tp1565
a(I323
I0
F0.375
g1218
tp1566
as(S'n'
p1567
S'usa'
p1568
tp1569
(lp1570
(I254
I25
I0
S'most'
p1571
tp1572
a(I257
I18
I0
S'state'
p1573
tp1574
as(S'samsung'
p1575
S'galaxy'
p1576
S's'
p1577
tp1578
(lp1579
(I3
I2
F0.125
g643
tp1580
a(I3
I3
I0
S'next'
p1581
tp1582
a(I61
I0
F1.0
g645
tp1583
a(I88
I0
F-0.625
g325
tp1584
a(I89
I32
F0.125
g651
tp1585
a(I365
I3
F0.375
g343
tp1586
a(I402
I2
I0
g345
tp1587
as(S'work'
p1588
tp1589
(lp1590
(I241
I10
F0.25
S'helpful'
p1591
tp1592
as(S'apps'
p1593
tp1594
(lp1595
(I3
I29
F0.25
S'favorite'
p1596
tp1597
a(I64
I10
I0
S'earlier'
p1598
tp1599
a(I89
I7
I0
S'english'
p1600
tp1601
a(I89
I7
I0
S'spanish'
p1602
tp1603
a(I100
I2
F0.125
S'native'
p1604
tp1605
a(I103
I16
I0
S'great'
p1606
tp1607
a(I132
I0
F-0.625
S'other'
p1608
tp1609
a(I138
I17
F-0.375
S'unstable'
p1610
tp1611
a(I160
I24
F-0.625
S'other'
p1612
tp1613
a(I177
I9
I0
S'such'
p1614
tp1615
a(I216
I88
I0
S'forth'
p1616
tp1617
a(I236
I0
I0
S'many'
p1618
tp1619
a(I248
I0
F0.375
S'interesting'
p1620
tp1621
a(I325
I7
F0.125
S'able'
p1622
tp1623
a(I325
I9
F0.125
S'able'
p1624
tp1625
a(I331
I7
F0.125
S'able'
p1626
tp1627
a(I370
I3
F-0.25
S'google'
p1628
tp1629
a(I370
I5
F0.375
S'available'
p1630
tp1631
a(I388
I4
F0.125
S'able'
p1632
tp1633
a(I388
I12
F-0.25
S'google'
p1634
tp1635
a(I388
I21
F1.0
S'better'
p1636
tp1637
a(I388
I31
F-0.125
S'handful'
p1638
tp1639
as(S'days'
p1640
tp1641
(lp1642
(I21
I2
I0
S'few'
p1643
tp1644
a(I105
I0
F0.75
S'due'
p1645
tp1646
a(I233
I2
I0
S'few'
p1647
tp1648
a(I381
I4
I0
S'most'
p1649
tp1650
as(S'super'
p1651
S'oled'
p1652
S'screen'
p1653
tp1654
(lp1655
(I400
I2
I0
S'great'
p1656
tp1657
as(S'fast'
p1658
tp1659
(lp1660
(I59
I1
F0.75
S'receive'
p1661
tp1662
a(I59
I1
F0.375
S'new'
p1663
tp1664
a(I59
I1
F0.375
S'reliable'
p1665
tp1666
a(I138
I11
F-0.125
S'super'
p1667
tp1668
a(I233
I0
I0
S'incredible'
p1669
tp1670
as(S'on'
p1671
S'galaxy'
p1672
S's4'
p1673
tp1674
(lp1675
(I3
I1
F0.5
g1010
tp1676
a(I3
I5
F-0.25
g1012
tp1677
a(I61
I0
F1.0
g645
tp1678
a(I86
I0
F0.375
g649
tp1679
a(I119
I1
F0.625
g1016
tp1680
a(I143
I0
F-0.125
g1018
tp1681
a(I245
I1
F0.375
g1020
tp1682
a(I251
I1
F-0.625
g1022
tp1683
a(I254
I13
F-0.5
g1024
tp1684
a(I254
I24
I0
g1026
tp1685
a(I270
I1
I0
g659
tp1686
a(I284
I0
F0.375
g661
tp1687
a(I324
I0
I0
g1030
tp1688
a(I331
I16
F0.25
g1033
tp1689
as.