(dp0
(S'problem'
p1
tp2
(lp3
(I244
I2
F0.375
S'significant'
p4
tp5
a(I245
I0
I0
S'only'
p6
tp7
a(I276
I0
I0
S'only'
p8
tp9
as(S'something'
p10
tp11
(lp12
(I63
I6
F0.125
S'able'
p13
tp14
a(I132
I59
F-0.375
S'simple'
p15
tp16
a(I298
I0
F0.375
S'appreciate'
p17
tp18
as(S'battery'
p19
S'life'
p20
tp21
(lp22
(I11
I5
F-0.75
S'short'
p23
tp24
a(I45
I0
F0.375
S'alive'
p25
tp26
a(I50
I0
F-0.75
S'short'
p27
tp28
a(I65
I1
F-0.75
S'difficult'
p29
tp30
a(I65
I3
I0
S'normal'
p31
tp32
a(I94
I2
F0.625
S'superior'
p33
tp34
a(I94
I4
I0
S'such'
p35
tp36
a(I94
I4
I0
S'great'
p37
tp38
a(I132
I16
F0.25
S'recent'
p39
tp40
a(I132
I16
F1.0
S'good'
p41
tp42
a(I219
I2
I0
S'great'
p43
tp44
a(I269
I25
F-0.75
S'short'
p45
tp46
as(S'android'
p47
tp48
(lp49
(I102
I2
F1.0
S'good'
p50
tp51
a(I207
I2
F0.125
S'first'
p52
tp53
as(S'fake'
p54
tp55
(lp56
(I241
I0
F0.25
S'original'
p57
tp58
as(S'made'
p59
tp60
(lp61
(I177
I3
I0
S'plastic'
p62
tp63
a(I223
I0
I0
S'chinese'
p64
tp65
as(S'fact'
p66
tp67
(lp68
(I7
I14
F-0.875
S'bother'
p69
tp70
a(I7
I18
I0
S'internal'
p71
tp72
a(I94
I3
F0.375
S'appreciate'
p73
tp74
as(S'money'
p75
tp76
(lp77
(I114
I2
F1.0
S'best'
p78
tp79
a(I265
I0
F-0.5
S'international'
p80
tp81
a(I265
I0
I0
S'national'
p82
tp83
a(I265
I0
I0
S'more'
p84
tp85
as(S'buying'
p86
tp87
(lp88
(I76
I2
F0.75
S'worth'
p89
tp90
as(S'screen'
p91
tp92
(lp93
(I7
I2
I0
S'big'
p94
tp95
a(I7
I2
F0.75
S'beautiful'
p96
tp97
a(I7
I2
F0.5
S'gamble'
p98
tp99
a(I7
I4
I0
S'external'
p100
tp101
a(I29
I2
I0
S'plastic'
p102
tp103
a(I49
I3
I0
S'big'
p104
tp105
a(I65
I3
F-0.625
S'other'
p106
tp107
a(I69
I1
F0.75
S'beautiful'
p108
tp109
a(I70
I1
I0
S'big'
p110
tp111
a(I75
I1
I0
S'big'
p112
tp113
a(I82
I0
F0.5
S'touch'
p114
tp115
a(I94
I1
F0.75
S'definite'
p116
tp117
a(I95
I0
F-0.75
S'wrong'
p118
tp119
a(I100
I0
I0
S'big'
p120
tp121
a(I123
I1
I0
S'big'
p122
tp123
a(I127
I0
F0.5
S'careful'
p124
tp125
a(I132
I3
F0.25
S'sharp'
p126
tp127
a(I132
I6
I0
S'large'
p128
tp129
a(I132
I9
F0.5
S'live'
p130
tp131
a(I132
I9
I0
S'such'
p132
tp133
a(I132
I9
F-0.375
S'small'
p134
tp135
a(I132
I11
I0
S'large'
p136
tp137
a(I132
I68
F0.25
S'bigger'
p138
tp139
a(I149
I2
F0.5
S'clear'
p140
tp141
a(I157
I1
F1.0
S'best'
p142
tp143
a(I161
I0
I0
S'entire'
p144
tp145
a(I210
I1
F0.625
S'perfect'
p146
tp147
a(I210
I1
I0
S'big'
p148
tp149
a(I210
I1
F-0.375
S'small'
p150
tp151
a(I220
I0
F-0.375
S'black'
p152
tp153
a(I220
I2
I0
S'internal'
p154
tp155
a(I220
I4
I0
S'internal'
p156
tp157
a(I225
I2
I0
S'great'
p158
tp159
a(I225
I2
F-0.5
S'heavy'
p160
tp161
a(I253
I2
I0
S'big'
p162
tp163
a(I253
I2
F0.5
S'clear'
p164
tp165
a(I256
I2
I0
S'wide'
p166
tp167
a(I264
I2
I0
S'big'
p168
tp169
a(I269
I19
I0
S'great'
p170
tp171
a(I273
I1
F-0.375
S'smaller'
p172
tp173
a(I275
I1
I0
S'big'
p174
tp175
a(I275
I1
F1.0
S'best'
p176
tp177
a(I290
I0
F0.625
S'easier'
p178
tp179
a(I300
I12
F0.25
S'larger'
p180
tp181
a(I300
I12
I0
S'more'
p182
tp183
as(S'look'
p184
tp185
(lp186
(I59
I10
F-0.25
S'cheaper'
p187
tp188
a(I69
I1
F-0.75
S'likely'
p189
tp190
as(S'gon'
p191
S'na'
p192
tp193
(lp194
(I260
I9
F0.75
S'give'
p195
tp196
as(S'service'
p197
tp198
(lp199
(I20
I1
I0
S'postal'
p200
tp201
a(I51
I0
I0
S'great'
p202
tp203
a(I106
I1
F-0.5
S'poor'
p204
tp205
a(I130
I1
I0
S'costumer'
p206
tp207
a(I130
I1
F-0.5
S'poor'
p208
tp209
a(I166
I1
I0
S'most'
p210
tp211
a(I298
I0
F1.0
S'good'
p212
tp213
as(S'everything'
p214
tp215
(lp216
(I120
I0
F1.0
S'good'
p217
tp218
a(I146
I1
F0.375
S'strange'
p219
tp220
a(I164
I4
F-0.625
S'glad'
p221
tp222
as(S'features'
p223
tp224
(lp225
(I59
I8
F0.375
S'extra'
p226
tp227
a(I59
I8
F0.625
S'add'
p228
tp229
a(I113
I0
I0
S'different'
p230
tp231
a(I132
I1
I0
S'many'
p232
tp233
a(I132
I64
I0
S'many'
p234
tp235
a(I132
I64
I0
S'android'
p236
tp237
a(I132
I81
I0
S'cool'
p238
tp239
a(I140
I1
F0.375
S'new'
p240
tp241
a(I140
I1
F1.0
S'good'
p242
tp243
a(I168
I0
F1.0
S'best'
p244
tp245
a(I168
I0
F0.375
S'new'
p246
tp247
a(I168
I0
F-0.25
S'modern'
p248
tp249
a(I184
I1
I0
S'great'
p250
tp251
a(I184
I1
I0
S'many'
p252
tp253
a(I200
I3
I0
S'more'
p254
tp255
a(I294
I2
F0.375
S'new'
p256
tp257
a(I294
I2
I0
S'such'
p258
tp259
a(I300
I17
F1.0
S'best'
p260
tp261
as(S'samsung'
p262
tp263
(lp264
(I9
I5
F-0.5
S'poor'
p265
tp266
a(I31
I0
I0
S'great'
p267
tp268
a(I54
I1
F1.0
S'best'
p269
tp270
a(I63
I1
F0.875
S'lucky'
p271
tp272
a(I69
I18
I0
S'own'
p273
tp274
a(I69
I18
F-0.625
S'other'
p275
tp276
a(I71
I0
I0
S'real'
p277
tp278
a(I94
I5
F0.375
S'new'
p279
tp280
a(I100
I1
I0
S'special'
p281
tp282
a(I174
I0
I0
S'great'
p283
tp284
a(I206
I0
I0
S'crystal'
p285
tp286
a(I206
I0
F0.5
S'clear'
p287
tp288
a(I225
I1
F-0.375
S'top'
p289
tp290
a(I252
I0
F1.0
S'good'
p291
tp292
a(I252
I0
I0
S'fast'
p293
tp294
a(I273
I0
F0.25
S'original'
p295
tp296
a(I285
I0
F0.25
S'unlocked'
p297
tp298
as(S'galaxy'
p299
S's4'
p300
tp301
(lp302
(I26
I0
I0
S'real'
p303
tp304
a(I59
I8
I0
S'more'
p305
tp306
a(I69
I0
I0
S'most'
p307
tp308
a(I104
I1
F-0.5
S'regular'
p309
tp310
a(I104
I1
F-0.375
S'simple'
p311
tp312
a(I154
I11
I0
S'more'
p313
tp314
a(I154
I11
I0
S'human'
p315
tp316
a(I177
I0
F0.25
S'sharp'
p317
tp318
a(I184
I9
I0
S'plastic'
p319
tp320
a(I201
I0
F1.0
S'better'
p321
tp322
a(I269
I0
F0.125
S'last'
p323
tp324
a(I300
I12
I0
S'real'
p325
tp326
as(S'back'
p327
tp328
(lp329
(I55
I0
F0.625
S'easy'
p330
tp331
as(S'nternational'
p332
S'version'
p333
tp334
(lp335
(I0
I4
F0.25
S'unlocked'
p336
tp337
a(I0
I4
F-0.5
S'international'
p338
tp339
a(I15
I0
F-0.5
S'international'
p340
tp341
a(I38
I2
F-0.5
S'international'
p342
tp343
a(I38
I2
F0.375
S'mean'
p344
tp345
a(I38
I2
F0.25
S'unlocked'
p346
tp347
a(I38
I2
F-0.125
S'slow'
p348
tp349
a(I85
I0
F-0.5
S'international'
p350
tp351
a(I113
I0
F-0.5
S'international'
p352
tp353
a(I113
I0
F-0.5
S'international'
p354
tp355
a(I114
I0
F-0.5
S'international'
p356
tp357
a(I114
I2
F-0.5
S'international'
p358
tp359
a(I122
I0
F-0.5
S'international'
p360
tp361
a(I136
I0
F-0.5
S'international'
p362
tp363
a(I139
I1
F-0.5
S'international'
p364
tp365
a(I147
I0
F-0.5
S'international'
p366
tp367
a(I151
I0
F-0.5
S'international'
p368
tp369
a(I151
I0
F-0.75
S'unable'
p370
tp371
a(I154
I1
F-0.5
S'international'
p372
tp373
a(I167
I1
F-0.5
S'international'
p374
tp375
a(I186
I0
F-0.5
S'international'
p376
tp377
a(I194
I0
F-0.5
S'international'
p378
tp379
a(I217
I0
F-0.5
S'international'
p380
tp381
as(S'camera'
p382
tp383
(lp384
(I5
I8
I0
S'therefore'
p385
tp386
a(I13
I0
F0.5
S'touch'
p387
tp388
a(I52
I0
F0.625
S'easy'
p389
tp390
a(I59
I7
I0
S'useful'
p391
tp392
a(I63
I4
F0.5
S'came'
p393
tp394
a(I65
I3
F1.0
S'good'
p395
tp396
a(I123
I2
F0.5
S'touch'
p397
tp398
a(I132
I13
F-0.125
S'overall'
p399
tp400
a(I163
I0
F0.5
S'primary'
p401
tp402
a(I184
I5
I0
S'more'
p403
tp404
a(I184
I5
F0.25
S'powerful'
p405
tp406
a(I207
I2
I0
S'great'
p407
tp408
a(I212
I0
F1.0
S'best'
p409
tp410
a(I249
I2
I0
S'many'
p411
tp412
a(I288
I0
I0
S'great'
p413
tp414
a(I300
I8
I0
S'quick'
p415
tp416
as(S'life'
p417
tp418
(lp419
(I50
I0
F-0.75
g27
tp420
a(I65
I3
I0
g31
tp421
a(I94
I2
F0.625
g33
tp422
a(I123
I3
F0.625
S'easier'
p423
tp424
a(I123
I3
F-0.75
S'comfortable'
p425
tp426
a(I132
I16
F0.25
g39
tp427
a(I132
I16
F1.0
g41
tp428
a(I165
I1
F-0.375
S'simple'
p429
tp430
as(S'version'
p431
tp432
(lp433
(I0
I4
F0.25
g336
tp434
a(I0
I4
F-0.5
g338
tp435
a(I15
I0
F-0.5
g340
tp436
a(I27
I1
I0
S'least'
p437
tp438
a(I27
I6
I0
S'fourth'
p439
tp440
a(I38
I2
F-0.5
g342
tp441
a(I38
I2
F0.375
g344
tp442
a(I38
I2
F0.25
g346
tp443
a(I38
I2
F-0.125
g348
tp444
a(I85
I0
F-0.5
g350
tp445
a(I113
I0
F-0.5
g352
tp446
a(I113
I0
F-0.5
g354
tp447
a(I114
I0
F-0.5
g356
tp448
a(I114
I2
F-0.5
g358
tp449
a(I122
I0
F-0.5
g360
tp450
a(I132
I34
F-0.625
S'clean'
p451
tp452
a(I132
I34
I0
S'android'
p453
tp454
a(I136
I0
F-0.5
g362
tp455
a(I139
I1
F-0.5
g364
tp456
a(I147
I0
F-0.5
g366
tp457
a(I151
I0
F-0.5
g368
tp458
a(I151
I0
F-0.75
g370
tp459
a(I154
I1
F-0.5
g372
tp460
a(I167
I1
F-0.5
g374
tp461
a(I179
I2
I0
S'different'
p462
tp463
a(I186
I0
F-0.5
g376
tp464
a(I194
I0
F-0.5
g378
tp465
a(I217
I0
F-0.5
g380
tp466
a(I217
I1
I0
S'faster'
p467
tp468
a(I217
I1
F0.125
S'typical'
p469
tp470
as(S'take'
p471
tp472
(lp473
(I132
I41
I0
S'useful'
p474
tp475
as(S'operating'
p476
S'system'
p477
tp478
(lp479
(I11
I3
F0.375
S'friendlier'
p480
tp481
a(I94
I9
I0
S'android'
p482
tp483
a(I300
I10
F-0.125
S'overall'
p484
tp485
as(S'review'
p486
tp487
(lp488
(I132
I1
F0.375
S'complete'
p489
tp490
a(I132
I1
I0
S'detailed'
p491
tp492
a(I244
I2
F1.0
S'good'
p493
tp494
a(I248
I0
F1.0
S'better'
p495
tp496
a(I248
I0
F1.0
S'better'
p497
tp498
as(S'unlocked'
p499
S'nternational'
p500
S'version'
p501
tp502
(lp503
(I0
I4
F0.25
g336
tp504
a(I0
I4
F-0.5
g338
tp505
a(I38
I2
F-0.5
g342
tp506
a(I38
I2
F0.375
g344
tp507
a(I38
I2
F0.25
g346
tp508
a(I38
I2
F-0.125
g348
tp509
a(I85
I0
F-0.5
g350
tp510
a(I113
I0
F-0.5
g352
tp511
a(I113
I0
F-0.5
g354
tp512
a(I114
I0
F-0.5
g356
tp513
a(I114
I2
F-0.5
g358
tp514
a(I136
I0
F-0.5
g362
tp515
a(I151
I0
F-0.5
g368
tp516
a(I151
I0
F-0.75
g370
tp517
a(I167
I1
F-0.5
g374
tp518
a(I186
I0
F-0.5
g376
tp519
as(S'volume'
p520
S'buttons'
p521
tp522
(lp523
(I132
I78
F-0.625
S'other'
p524
tp525
as(S'samsung'
p526
S's4'
p527
tp528
(lp529
(I63
I1
F0.875
g271
tp530
a(I69
I18
I0
g273
tp531
a(I69
I18
F-0.625
g275
tp532
a(I71
I0
I0
g277
tp533
a(I77
I3
I0
S'latest'
p534
tp535
a(I104
I1
F-0.5
g309
tp536
a(I154
I11
I0
g313
tp537
a(I154
I11
I0
g315
tp538
a(I207
I3
F0.375
S'much'
p539
tp540
a(I207
I3
I0
S'more'
p541
tp542
a(I273
I0
F0.25
g295
tp543
a(I285
I0
F0.25
g297
tp544
as(S'quality'
p545
tp546
(lp547
(I53
I3
F1.0
S'better'
p548
tp549
a(I64
I1
F0.5
S'expensive'
p550
tp551
a(I64
I1
F0.5
S'expensive'
p552
tp553
a(I81
I3
F1.0
S'good'
p554
tp555
a(I101
I0
F1.0
S'good'
p556
tp557
a(I118
I1
F-0.625
S'bad'
p558
tp559
a(I129
I0
I0
S'high'
p560
tp561
a(I177
I4
F1.0
S'good'
p562
tp563
a(I202
I4
I0
S'great'
p564
tp565
a(I221
I2
F1.0
S'good'
p566
tp567
a(I270
I0
I0
S'useful'
p568
tp569
a(I270
I0
F1.0
S'good'
p570
tp571
as(S'product'
p572
tp573
(lp574
(I2
I0
F-0.75
S'wrong'
p575
tp576
a(I37
I0
F-0.636
S'genuine'
p577
tp578
a(I41
I0
I0
S'same'
p579
tp580
a(I57
I0
F0.25
S'original'
p581
tp582
a(I126
I0
I0
S'great'
p583
tp584
a(I212
I0
I0
S'great'
p585
tp586
a(I216
I0
I0
S'great'
p587
tp588
a(I247
I0
I0
S'great'
p589
tp590
a(I247
I0
F0.625
S'easy'
p591
tp592
a(I257
I0
F0.25
S'original'
p593
tp594
a(I263
I0
I0
S'great'
p595
tp596
a(I264
I4
F1.0
S'good'
p597
tp598
as(S'galaxy'
p599
tp600
(lp601
(I26
I0
I0
g303
tp602
a(I69
I0
I0
g307
tp603
a(I104
I1
F-0.375
g311
tp604
as(S'things'
p605
tp606
(lp607
(I18
I0
I0
S'few'
p608
tp609
a(I19
I1
F0.375
S'new'
p610
tp611
a(I120
I1
I0
S'many'
p612
tp613
a(I132
I3
F-0.75
S'minor'
p614
tp615
a(I132
I43
F0.5
S'drive'
p616
tp617
a(I184
I0
F0.125
S'impressive'
p618
tp619
a(I205
I2
I0
S'many'
p620
tp621
a(I269
I1
F0.125
S'first'
p622
tp623
as(S'dont'
p624
tp625
(lp626
(I24
I0
F0.625
S'easy'
p627
tp628
as(S'people'
p629
tp630
(lp631
(I7
I9
I0
S'most'
p632
tp633
a(I53
I1
I0
S'common'
p634
tp635
a(I53
I1
F0.125
S'first'
p636
tp637
a(I114
I1
F-0.625
S'other'
p638
tp639
a(I132
I80
I0
S'most'
p640
tp641
a(I132
I80
I0
S'such'
p642
tp643
a(I260
I10
F0.875
S'music'
p644
tp645
as(S'work'
p646
tp647
(lp648
(I87
I3
F-0.75
S'difficult'
p649
tp650
a(I195
I3
I0
S'great'
p651
tp652
as(S'apple'
p653
tp654
(lp655
(I300
I9
F-0.625
S'other'
p656
tp657
as(S'video'
p658
tp659
(lp660
(I69
I3
I0
S'great'
p661
tp662
as(S'seller'
p663
tp664
(lp665
(I113
I1
F1.0
S'good'
p666
tp667
a(I124
I0
F1.0
S'good'
p668
tp669
a(I139
I0
F-0.625
S'bad'
p670
tp671
a(I180
I0
I0
S'great'
p672
tp673
a(I223
I1
F0.25
S'read'
p674
tp675
a(I262
I1
F0.625
S'responsible'
p676
tp677
as(S'month'
p678
tp679
(lp680
(I16
I1
I0
S'next'
p681
tp682
as(S'case'
p683
tp684
(lp685
(I18
I1
I0
S'same'
p686
tp687
a(I177
I3
F0.875
S'nice'
p688
tp689
a(I189
I2
F0.125
S'protective'
p690
tp691
as(S'works'
p692
tp693
(lp694
(I1
I0
F0.125
S'practical'
p695
tp696
as(S'pictures'
p697
tp698
(lp699
(I61
I4
F0.875
S'music'
p700
tp701
a(I94
I7
F0.875
S'music'
p702
tp703
a(I132
I14
F0.625
S'easier'
p704
tp705
a(I132
I14
I0
S'great'
p706
tp707
a(I151
I0
F0.625
S'easy'
p708
tp709
a(I151
I0
I0
S'great'
p710
tp711
a(I228
I0
I0
S'incredible'
p712
tp713
a(I269
I7
F0.25
S'sharp'
p714
tp715
a(I269
I7
F0.5
S'clear'
p716
tp717
as(S'display'
p718
tp719
(lp720
(I61
I1
F0.875
S'nice'
p721
tp722
a(I132
I3
I0
S'large'
p723
tp724
a(I249
I1
F0.375
S'much'
p725
tp726
as(S'battery'
p727
tp728
(lp729
(I11
I5
F-0.75
g23
tp730
a(I22
I1
F0.375
S'new'
p731
tp732
a(I27
I4
F0.125
S'last'
p733
tp734
a(I45
I0
F0.375
g25
tp735
a(I47
I1
F0.375
S'extra'
p736
tp737
a(I65
I1
F-0.75
g29
tp738
a(I94
I4
I0
g35
tp739
a(I94
I4
I0
g37
tp740
a(I116
I0
F0.375
S'extra'
p741
tp742
a(I132
I20
I0
S'old'
p743
tp744
a(I133
I3
F0.875
S'happy'
p745
tp746
a(I138
I0
F0.125
S'last'
p747
tp748
a(I152
I4
F0.125
S'last'
p749
tp750
a(I152
I4
F0.375
S'much'
p751
tp752
a(I154
I5
I0
S'fast'
p753
tp754
a(I157
I1
F1.0
S'best'
p755
tp756
a(I177
I3
F0.625
S'removable'
p757
tp758
a(I177
I4
F0.625
S'removable'
p759
tp760
a(I177
I4
F0.375
S'extra'
p761
tp762
a(I219
I2
I0
g43
tp763
a(I232
I0
F1.0
S'good'
p764
tp765
a(I232
I0
I0
S'fast'
p766
tp767
a(I260
I8
F0.375
S'extra'
p768
tp769
a(I269
I25
F-0.75
g45
tp770
a(I281
I2
F-0.875
S'negative'
p771
tp772
a(I285
I0
F-0.625
S'bad'
p773
tp774
a(I285
I0
F-0.625
S'other'
p775
tp776
a(I300
I13
F0.625
S'removable'
p777
tp778
as(S'air'
p779
S'view'
p780
tp781
(lp782
(I66
I3
F-0.125
S'air'
p783
tp784
a(I69
I7
F-0.125
S'air'
p785
tp786
as(S'store'
p787
tp788
(lp789
(I154
I0
I0
S'local'
p790
tp791
as(S'software'
p792
tp793
(lp794
(I94
I6
I0
S'most'
p795
tp796
a(I94
I6
F0.375
S'new'
p797
tp798
a(I132
I70
I0
S'least'
p799
tp800
a(I132
I70
F-0.625
S'free'
p801
tp802
a(I239
I1
I0
S'entire'
p803
tp804
as(S'samsung'
p805
S'galaxy'
p806
tp807
(lp808
(I63
I1
F0.875
g271
tp809
a(I71
I0
I0
g277
tp810
a(I104
I1
F-0.375
g311
tp811
as(S's'
p812
S'v'
p813
S's4'
p814
tp815
(lp816
(I3
I0
F1.0
S'good'
p817
tp818
a(I13
I0
F0.875
S'happy'
p819
tp820
a(I18
I2
I0
S'plastic'
p821
tp822
a(I59
I8
I0
g305
tp823
a(I77
I3
I0
g534
tp824
a(I94
I12
F-0.125
S'overall'
p825
tp826
a(I94
I12
F0.875
S'happy'
p827
tp828
a(I104
I1
F-0.5
g309
tp829
a(I154
I11
I0
g313
tp830
a(I154
I11
I0
g315
tp831
a(I177
I0
F0.25
g317
tp832
a(I184
I9
I0
g319
tp833
a(I207
I3
F0.375
g539
tp834
a(I207
I3
I0
g541
tp835
a(I207
I6
F0.875
S'happy'
p836
tp837
a(I244
I6
F0.375
S'new'
p838
tp839
a(I283
I11
F0.75
S'give'
p840
tp841
a(I294
I7
F-0.625
S'other'
p842
tp843
a(I300
I12
I0
g325
tp844
a(I300
I13
I0
S'such'
p845
tp846
as(S'thing'
p847
tp848
(lp849
(I6
I0
F1.0
S'best'
p850
tp851
a(I38
I7
I0
S'only'
p852
tp853
a(I38
I7
F1.0
S'good'
p854
tp855
a(I58
I0
I0
S'more'
p856
tp857
a(I101
I3
I0
S'more'
p858
tp859
a(I132
I3
F0.625
S'major'
p860
tp861
a(I132
I20
F1.0
S'good'
p862
tp863
a(I181
I0
I0
S'only'
p864
tp865
a(I199
I11
I0
S'only'
p866
tp867
a(I283
I7
I0
S'only'
p868
tp869
as(S'sim'
p870
S'card'
p871
tp872
(lp873
(I20
I3
F0.5
S'told'
p874
tp875
a(I167
I1
I0
S'american'
p876
tp877
a(I177
I4
I0
S'sd'
p878
tp879
a(I244
I4
F0.375
S'new'
p880
tp881
as(S'n'
p882
S'r'
p883
S'hand'
p884
tp885
(lp886
(I59
I10
F-0.75
S'comfortable'
p887
tp888
as(S'update'
p889
tp890
(lp891
(I66
I2
F0.375
S'new'
p892
tp893
as(S'device'
p894
tp895
(lp896
(I27
I6
F0.625
S'easy'
p897
tp898
a(I27
I6
F-0.75
S'care'
p899
tp900
a(I30
I0
F0.875
S'nice'
p901
tp902
a(I30
I1
I0
S'plastic'
p903
tp904
a(I59
I1
I0
S'android'
p905
tp906
a(I59
I1
F-0.125
S'bean'
p907
tp908
a(I74
I2
F0.375
S'friendly'
p909
tp910
a(I94
I4
I0
S'android'
p911
tp912
a(I101
I0
F-0.5
S'open'
p913
tp914
a(I106
I1
F0.25
S'hyped'
p915
tp916
a(I195
I0
I0
S'full'
p917
tp918
a(I195
I0
F-0.25
S'potential'
p919
tp920
a(I233
I0
I0
S'specific'
p921
tp922
a(I233
I1
F0.875
S'happy'
p923
tp924
a(I233
I3
F0.875
S'happy'
p925
tp926
a(I249
I2
I0
S'many'
p927
tp928
a(I249
I2
F-0.625
S'other'
p929
tp930
as(S'samsung'
p931
S'galaxy'
p932
S's4'
p933
tp934
(lp935
(I63
I1
F0.875
g271
tp936
a(I71
I0
I0
g277
tp937
a(I104
I1
F-0.5
g309
tp938
a(I104
I1
F-0.375
g311
tp939
a(I154
I11
I0
g313
tp940
a(I154
I11
I0
g315
tp941
as(S'better'
p942
tp943
(lp944
(I66
I1
F0.375
S'much'
p945
tp946
a(I94
I1
F0.375
S'much'
p947
tp948
a(I105
I3
I0
S'great'
p949
tp950
a(I154
I11
F0.375
S'much'
p951
tp952
as(S'time'
p953
tp954
(lp955
(I20
I7
F0.125
S'first'
p956
tp957
a(I40
I1
F-0.5
S'long'
p958
tp959
a(I58
I0
F0.125
S'first'
p960
tp961
a(I69
I4
I0
S'update'
p962
tp963
a(I96
I0
F1.0
S'best'
p964
tp965
a(I154
I10
F0.625
S'acceptable'
p966
tp967
a(I162
I3
I0
S'more'
p968
tp969
a(I190
I0
F0.375
S'new'
p970
tp971
a(I208
I0
I0
S'great'
p972
tp973
a(I254
I0
F0.125
S'first'
p974
tp975
a(I283
I9
F0.125
S'first'
p976
tp977
as(S'card'
p978
tp979
(lp980
(I20
I3
F0.5
g874
tp981
a(I177
I4
I0
g878
tp982
as(S'much'
p983
S'better'
p984
tp985
(lp986
(I66
I1
F0.375
g945
tp987
a(I94
I1
F0.375
g947
tp988
a(I154
I11
F0.375
g951
tp989
as(S'samsung'
p990
S'galaxy'
p991
g812
tp992
(lp993
(I63
I1
F0.875
g271
tp994
a(I71
I0
I0
g277
tp995
a(I104
I1
F-0.375
g311
tp996
as(S'months'
p997
tp998
(lp999
(I32
I0
I0
S'few'
p1000
tp1001
a(I64
I0
F-0.5
S'less'
p1002
tp1003
a(I182
I0
I0
S'few'
p1004
tp1005
as(S'apps'
p1006
tp1007
(lp1008
(I27
I3
F0.875
S'nice'
p1009
tp1010
a(I47
I2
I0
S'chinese'
p1011
tp1012
a(I66
I2
F0.125
S'able'
p1013
tp1014
a(I86
I0
I0
S'big'
p1015
tp1016
a(I94
I9
F-0.75
S'unable'
p1017
tp1018
a(I132
I29
I0
S'many'
p1019
tp1020
a(I132
I29
F-0.625
S'free'
p1021
tp1022
a(I132
I73
I0
S'more'
p1023
tp1024
a(I144
I0
I0
S'latest'
p1025
tp1026
a(I213
I2
I0
S'great'
p1027
tp1028
a(I269
I2
I0
S'more'
p1029
tp1030
a(I300
I13
I0
S'least'
p1031
tp1032
a(I300
I13
F-0.375
S'daily'
p1033
tp1034
as(S'days'
p1035
tp1036
(lp1037
(I187
I7
I0
S'few'
p1038
tp1039
a(I218
I1
I0
S'few'
p1040
tp1041
a(I261
I1
I0
S'few'
p1042
tp1043
as(S'fast'
p1044
tp1045
(lp1046
(I4
I3
F0.625
S'easy'
p1047
tp1048
a(I4
I3
F0.375
S'reliable'
p1049
tp1050
as(S'quad'
p1051
S'core'
p1052
tp1053
(lp1054
(I61
I4
I0
S'slowest'
p1055
tp1056
a(I61
I4
F-0.125
S'slow'
p1057
tp1058
as.