(dp0
(S'virgin'
p1
S'mobile'
p2
tp3
(lp4
(I12
I61
F-0.875
S'unhappy'
p5
I0
tp6
a(I12
I109
I0
S'website'
p7
I0
tp8
a(I12
I109
F0.75
S'due'
p9
I0
tp10
a(I12
I61
F-0.875
g5
I0
tp11
a(I12
I109
I0
g7
I0
tp12
a(I12
I109
F0.75
g9
I0
tp13
as(S'no'
p14
S'problems'
p15
tp16
(lp17
(I12
I149
F0.625
S'easy'
p18
I17
tp19
as(S'battery'
p20
S'life'
p21
tp22
(lp23
(I12
I110
F-0.5
S'long'
p24
I1
tp25
a(I13
I20
F1.0
S'good'
p26
I1
tp27
as(S'internet'
p28
tp29
(lp30
(I12
I112
I-100
S'hours.-'
p31
I6
tp32
a(I12
I112
F-0.125
S'slow'
p33
I6
tp34
a(I12
I129
I0
S'limited'
p35
I6
tp36
a(I12
I165
F0.375
S'much'
p37
I6
tp38
as(S'only'
p39
S'thing'
p40
tp41
(lp42
(I4
I10
I0
S'only'
p43
I13
tp44
a(I12
I90
I0
S'only'
p45
I13
tp46
a(I12
I110
I0
S'only'
p47
I13
tp48
as(S'customer'
p49
S'service'
p50
tp51
(lp52
(I3
I1
I0
S'most'
p53
I3
tp54
a(I4
I2
F1.0
S'good'
p55
I16
tp56
a(I8
I7
F1.0
S'good'
p57
I16
tp58
a(I12
I65
F1.0
S'good'
p59
I16
tp60
as(S'dropped'
p61
S'calls'
p62
tp63
(lp64
(I12
I154
I0
S'great'
p65
I0
tp66
a(I12
I154
F-0.25
S'dropped'
p67
I0
tp68
a(I13
I14
F-0.25
S'dropped'
p69
I0
tp70
a(I12
I92
F-0.75
S'impossible'
p71
I0
tp72
a(I12
I154
I0
g65
I0
tp73
a(I12
I154
F-0.25
g67
I0
tp74
a(I13
I14
F-0.25
g69
I0
tp75
as(S'minute2minute'
p76
S'plan'
p77
tp78
(lp79
(I14
I3
F0.375
S'new'
p80
I0
tp81
as(S'assurance'
p82
S'wireless'
p83
tp84
(lp85
(I12
I75
F0.5
S'upgraded'
p86
I0
tp87
a(I12
I75
I0
S'basic'
p88
I0
tp89
as.