(dp0
(S'model'
p1
tp2
(lp3
(I68
I2
I0
S'particular'
p4
tp5
a(I149
I0
I0
S'earlier'
p6
tp7
a(I167
I2
I0
S'particular'
p8
tp9
a(I167
I2
F0.625
S'easy'
p10
tp11
a(I169
I1
I0
S'latest'
p12
tp13
a(I230
I3
F-0.375
S'black'
p14
tp15
a(I267
I2
F0.375
S'new'
p16
tp17
as(S'keyboard'
p18
tp19
(lp20
(I7
I13
F0.375
S'available'
p21
tp22
a(I55
I13
F0.25
S'bigger'
p23
tp24
a(I175
I5
F0.375
S'available'
p25
tp26
a(I190
I1
F0.625
S'easier'
p27
tp28
a(I270
I52
I0
S'microscopic'
p29
tp30
a(I305
I2
F-0.5
S'regular'
p31
tp32
a(I306
I7
I0
S'great'
p33
tp34
a(I322
I4
I0
S'more'
p35
tp36
a(I322
I4
F0.625
S'logical'
p37
tp38
as(S'tech'
p39
S'support'
p40
tp41
(lp42
(I247
I5
I0
S'tech'
p43
tp44
as(S'triple'
p45
S'minutes'
p46
tp47
(lp48
(I69
I3
F-0.25
S'triple'
p49
tp50
a(I69
I3
F-0.375
S'double'
p51
tp52
a(I70
I2
F-0.25
S'triple'
p53
tp54
a(I95
I3
F-0.25
S'triple'
p55
tp56
a(I140
I2
F-0.636
S'genuine'
p57
tp58
a(I140
I2
F-0.25
S'triple'
p59
tp60
a(I174
I7
F-0.375
S'double'
p61
tp62
a(I174
I7
F-0.5
S'regular'
p63
tp64
a(I174
I9
I0
S'old'
p65
tp66
a(I174
I9
F0.375
S'new'
p67
tp68
a(I196
I5
F0.625
S'perfect'
p69
tp70
a(I242
I5
F-0.75
S'stupid'
p71
tp72
a(I260
I1
F-0.25
S'triple'
p73
tp74
a(I288
I2
F1.0
S'best'
p75
tp76
a(I311
I5
F-0.25
S'triple'
p77
tp78
a(I318
I1
I0
S'great'
p79
tp80
a(I325
I6
F-0.5
S'sure'
p81
tp82
as(S'touch'
p83
tp84
(lp85
(I158
I0
F0.25
S'responsive'
p86
tp87
a(I158
I0
I0
S'capacitive'
p88
tp89
a(I168
I0
F0.125
S'first'
p90
tp91
a(I194
I0
F0.875
S'nice'
p92
tp93
a(I198
I0
F0.25
S'responsive'
p94
tp95
a(I218
I3
F0.625
S'easy'
p96
tp97
a(I218
I3
F0.125
S'digital'
p98
tp99
a(I220
I0
F-0.25
S'inexpensive'
p100
tp101
as(S'qwerty'
p102
S'keyboard'
p103
tp104
(lp105
(I7
I13
F0.375
g21
tp106
a(I47
I7
F0.375
S'available'
p107
tp108
a(I175
I5
F0.375
g25
tp109
as(S'quality'
p110
tp111
(lp112
(I48
I4
F1.0
S'good'
p113
tp114
a(I142
I1
F1.0
S'better'
p115
tp116
a(I161
I2
F1.0
S'good'
p117
tp118
a(I220
I5
I0
S'high'
p119
tp120
a(I225
I0
I0
S'great'
p121
tp122
a(I251
I4
F1.0
S'good'
p123
tp124
a(I269
I0
I0
S'great'
p125
tp126
a(I269
I0
F0.625
S'easy'
p127
tp128
a(I269
I0
F0.625
S'easy'
p129
tp130
a(I311
I7
F1.0
S'good'
p131
tp132
as(S'sd'
p133
S'card'
p134
tp135
(lp136
(I32
I1
I0
S'big'
p137
tp138
a(I32
I1
I0
S'sd'
p139
tp140
as(S'sim'
p141
S'cards'
p142
tp143
(lp144
(I100
I6
F0.125
S'first'
p145
tp146
a(I100
I6
F0.375
S'new'
p147
tp148
a(I308
I7
I0
S'later'
p149
tp150
as(S'customer'
p151
tp152
(lp153
(I64
I2
F-0.5
S'poor'
p154
tp155
a(I100
I22
I0
S'many'
p156
tp157
a(I137
I2
I0
S'great'
p158
tp159
a(I235
I3
F-0.5
S'poor'
p160
tp161
a(I235
I6
F-0.5
S'poor'
p162
tp163
as(S'triple'
p164
tp165
(lp166
(I196
I5
F0.625
g69
tp167
a(I318
I1
I0
g79
tp168
a(I325
I6
F-0.5
g81
tp169
as(S'well'
p170
tp171
(lp172
(I202
I0
I0
S'real'
p173
tp174
as(S'dial'
p175
S'pad'
p176
tp177
(lp178
(I273
I3
I0
S'dial'
p179
tp180
a(I322
I6
I0
S'dial'
p181
tp182
a(I322
I6
I0
S'dial'
p183
tp184
as(S'new'
p185
S'sim'
p186
S'card'
p187
tp188
(lp189
(I100
I1
F0.375
S'new'
p190
tp191
a(I100
I6
F0.125
g145
tp192
a(I100
I6
F0.375
g147
tp193
a(I166
I10
F0.375
S'new'
p194
tp195
a(I187
I4
F0.5
S'told'
p196
tp197
a(I187
I5
F0.375
S'new'
p198
tp199
a(I187
I9
F0.375
S'new'
p200
tp201
as(S'sim'
p202
S'card'
p203
tp204
(lp205
(I60
I1
F0.875
S'music'
p206
tp207
a(I100
I1
F0.375
g190
tp208
a(I100
I6
F0.125
g145
tp209
a(I100
I6
F0.375
g147
tp210
a(I166
I10
F0.375
g194
tp211
a(I187
I4
F0.5
g196
tp212
a(I187
I5
F0.375
g198
tp213
a(I187
I9
F0.375
g200
tp214
as(S'with'
p215
S'triple'
p216
S'minutes'
p217
tp218
(lp219
(I69
I3
F-0.25
g49
tp220
a(I69
I3
F-0.375
g51
tp221
a(I70
I2
F-0.25
g53
tp222
a(I95
I3
F-0.25
g55
tp223
a(I196
I5
F0.625
g69
tp224
a(I260
I1
F-0.25
g73
tp225
a(I311
I5
F-0.25
g77
tp226
as(S'family'
p227
S'value'
p228
S'plan'
p229
tp230
(lp231
(I44
I3
F-0.75
S'secondary'
p232
tp233
as(S'land'
p234
S'line'
p235
tp236
(lp237
(I52
I0
I0
S'internet'
p238
tp239
a(I127
I1
F0.875
S'nice'
p240
tp241
a(I226
I7
I0
S'old'
p242
tp243
as(S'love'
p244
tp245
(lp246
(I299
I0
F0.625
S'easy'
p247
tp248
a(I320
I0
F-0.375
S'simple'
p249
tp250
as(S'customer'
p251
S'service'
p252
tp253
(lp254
(I112
I1
F0.875
S'happy'
p255
tp256
a(I137
I2
I0
g158
tp257
a(I143
I10
I0
S'great'
p258
tp259
a(I235
I3
F-0.5
g160
tp260
a(I317
I1
F0.875
S'happy'
p261
tp262
a(I317
I1
F0.25
S'helpful'
p263
tp264
as(S'wifi'
p265
tp266
(lp267
(I7
I13
F-0.625
S'other'
p268
tp269
a(I7
I13
I0
S'stable'
p270
tp271
a(I47
I11
F-0.125
S'public'
p272
tp273
a(I55
I5
F-0.875
S'trouble'
p274
tp275
a(I103
I2
F-0.625
S'free'
p276
tp277
a(I104
I5
F0.625
S'easy'
p278
tp279
a(I104
I5
F0.625
S'easy'
p280
tp281
a(I108
I2
F0.625
S'easy'
p282
tp283
a(I120
I1
F0.5
S'functional'
p284
tp285
a(I135
I6
I0
S'e-mail'
p286
tp287
a(I135
I6
F-0.125
S'public'
p288
tp289
a(I172
I0
I0
S'connect'
p290
tp291
a(I188
I5
I0
S'great'
p292
tp293
a(I268
I1
F0.125
S'capable'
p294
tp295
a(I270
I55
F0.125
S'first'
p296
tp297
a(I318
I5
F-0.125
S'slow'
p298
tp299
as(S'operating'
p300
S'system'
p301
tp302
(lp303
(I131
I3
I0
S'proprietary'
p304
tp305
as(S'built'
p306
S'n'
p307
S'browser'
p308
tp309
(lp310
(I47
I8
F0.5
S'second'
p311
tp312
as(S'every'
p313
tp314
(lp315
(I87
I1
F-0.625
S'glad'
p316
tp317
a(I87
I1
F0.75
S'worth'
p318
tp319
as(S'problem'
p320
tp321
(lp322
(I131
I2
I0
S'only'
p323
tp324
a(I135
I4
I0
S'same'
p325
tp326
a(I166
I9
F0.5
S'told'
p327
tp328
a(I180
I3
I0
S'particular'
p329
tp330
a(I226
I10
I0
S'great'
p331
tp332
a(I308
I1
I0
S'same'
p333
tp334
as(S'opera'
p335
S'mini'
p336
tp337
(lp338
(I47
I8
F0.5
S'suggest'
p339
tp340
a(I296
I10
F-0.75
S'cry'
p341
tp342
as(S'email'
p343
tp344
(lp345
(I55
I8
F-0.125
S'present'
p346
tp347
as(S'text'
p348
tp349
(lp350
(I10
I5
F1.0
S'good'
p351
tp352
a(I47
I7
F-0.625
S'other'
p353
tp354
a(I129
I2
F0.625
S'easy'
p355
tp356
a(I129
I4
F0.25
S'sent'
p357
tp358
a(I186
I2
F0.625
S'easy'
p359
tp360
a(I212
I3
F-0.5
S'regular'
p361
tp362
a(I296
I3
I0
S'full'
p363
tp364
a(I300
I3
F-0.5
S'unlimited'
p365
tp366
as(S'card'
p367
tp368
(lp369
(I32
I1
I0
g137
tp370
a(I32
I1
I0
g139
tp371
a(I187
I10
F0.375
S'new'
p372
tp373
a(I260
I1
F-0.5
S'less'
p374
tp375
as(S'happy'
p376
tp377
(lp378
(I53
I1
I0
S'real'
p379
tp380
as(S'price'
p381
tp382
(lp383
(I75
I0
I0
S'great'
p384
tp385
a(I77
I0
F0.375
S'much'
p386
tp387
a(I77
I0
I0
S'more'
p388
tp389
a(I91
I1
F1.0
S'good'
p390
tp391
a(I93
I0
I0
S'big'
p392
tp393
a(I108
I5
I0
S'great'
p394
tp395
a(I123
I7
F-0.125
S'overall'
p396
tp397
a(I123
I7
F1.0
S'good'
p398
tp399
a(I127
I3
I0
S'great'
p400
tp401
a(I158
I1
F-0.25
S'low'
p402
tp403
a(I161
I1
F1.0
S'good'
p404
tp405
a(I168
I1
F1.0
S'good'
p406
tp407
a(I171
I0
I0
S'great'
p408
tp409
a(I188
I1
I0
S'close'
p410
tp411
a(I188
I1
F-0.25
S'lowest'
p412
tp413
a(I188
I1
F1.0
S'best'
p414
tp415
a(I188
I4
F0.125
S'able'
p416
tp417
a(I195
I3
F1.0
S'good'
p418
tp419
a(I203
I6
F0.875
S'happy'
p420
tp421
a(I213
I0
F1.0
S'good'
p422
tp423
a(I224
I12
F1.0
S'best'
p424
tp425
a(I230
I2
F1.0
S'better'
p426
tp427
a(I236
I0
F1.0
S'good'
p428
tp429
a(I243
I2
F1.0
S'good'
p430
tp431
a(I286
I3
I0
S'same'
p432
tp433
a(I287
I0
I0
S'great'
p434
tp435
a(I315
I3
I0
S'great'
p436
tp437
as(S'service'
p438
tp439
(lp440
(I1
I3
I0
S'great'
p441
tp442
a(I45
I1
F-0.625
S'free'
p443
tp444
a(I67
I6
I0
S'net'
p445
tp446
a(I67
I6
F1.0
S'good'
p447
tp448
a(I112
I1
F0.875
g255
tp449
a(I128
I2
F1.0
S'best'
p450
tp451
a(I132
I1
F1.0
S'good'
p452
tp453
a(I143
I10
I0
g258
tp454
a(I185
I1
I0
S'great'
p455
tp456
a(I185
I4
I0
S'old'
p457
tp458
a(I185
I4
F0.375
S'new'
p459
tp460
a(I217
I1
I0
S'great'
p461
tp462
a(I255
I0
I0
S'great'
p463
tp464
a(I265
I5
I0
S'different'
p465
tp466
a(I317
I1
F0.875
g261
tp467
a(I317
I1
F0.25
g263
tp468
as(S'getting'
p469
tp470
(lp471
(I188
I2
F-0.875
S'trouble'
p472
tp473
as(S'number'
p474
tp475
(lp476
(I69
I1
I0
S'old'
p477
tp478
a(I112
I2
I0
S'website'
p479
tp480
a(I114
I5
F0.625
S'easier'
p481
tp482
a(I166
I5
I0
S'old'
p483
tp484
a(I167
I7
I0
S'old'
p485
tp486
a(I187
I1
I0
S'current'
p487
tp488
a(I226
I7
I0
S'old'
p489
tp490
a(I264
I1
F0.375
S'new'
p491
tp492
a(I280
I0
I0
S'old'
p493
tp494
a(I280
I3
F0.125
S'first'
p495
tp496
a(I280
I3
I0
S'dial'
p497
tp498
a(I280
I6
I0
S'serial'
p499
tp500
a(I291
I2
I0
S'serial'
p501
tp502
a(I305
I2
I0
S'faster'
p503
tp504
a(I306
I7
I0
S'standard'
p505
tp506
a(I325
I4
I0
S'old'
p507
tp508
as(S'triple'
p509
S'minutes'
p510
S'make'
p511
tp512
(lp513
(I288
I2
F1.0
g75
tp514
a(I325
I6
F-0.5
g81
tp515
as(S'tracfone'
p516
tp517
(lp518
(I12
I14
I0
S'earlier'
p519
tp520
a(I47
I13
F1.0
S'good'
p521
tp522
a(I47
I13
I0
S'old'
p523
tp524
a(I47
I18
F-0.625
S'other'
p525
tp526
a(I47
I18
I0
S'standard'
p527
tp528
a(I47
I25
I0
S'old'
p529
tp530
a(I57
I0
F1.0
S'best'
p531
tp532
a(I58
I2
I0
S'third'
p533
tp534
a(I62
I0
F-0.5
S'less'
p535
tp536
a(I66
I0
F0.875
S'nice'
p537
tp538
a(I68
I2
F-0.625
S'glad'
p539
tp540
a(I68
I25
F-0.25
S'inexpensive'
p541
tp542
a(I69
I2
F-0.625
S'bad'
p543
tp544
a(I78
I1
F0.625
S'easy'
p545
tp546
a(I80
I3
I0
S'website'
p547
tp548
a(I92
I0
F0.875
S'happy'
p549
tp550
a(I92
I0
F0.25
S'original'
p551
tp552
a(I92
I0
F0.125
S'able'
p553
tp554
a(I92
I0
F0.875
S'happy'
p555
tp556
a(I100
I26
F0.625
S'easier'
p557
tp558
a(I107
I0
F0.875
S'happy'
p559
tp560
a(I107
I1
F1.0
S'better'
p561
tp562
a(I107
I1
F0.125
S'typical'
p563
tp564
a(I107
I1
F0.375
S'similar'
p565
tp566
a(I118
I0
I0
S'current'
p567
tp568
a(I118
I8
I0
S'current'
p569
tp570
a(I118
I11
F0.875
S'attractive'
p571
tp572
a(I120
I1
I0
S'only'
p573
tp574
a(I121
I0
F0.125
S'first'
p575
tp576
a(I136
I1
F0.875
S'happier'
p577
tp578
a(I143
I7
F-0.5
S'sure'
p579
tp580
a(I153
I0
F1.0
S'good'
p581
tp582
a(I166
I4
I0
S'old'
p583
tp584
a(I174
I0
F-0.75
S'comfortable'
p585
tp586
a(I195
I1
F1.0
S'best'
p587
tp588
a(I205
I0
I0
S'old'
p589
tp590
a(I214
I0
F1.0
S'best'
p591
tp592
a(I219
I1
I0
S'old'
p593
tp594
a(I225
I2
F0.5
S'technical'
p595
tp596
a(I225
I3
F0.375
S'new'
p597
tp598
a(I225
I3
F0.5
S'technical'
p599
tp600
a(I225
I7
F0.5
S'technical'
p601
tp602
a(I225
I9
I0
S'current'
p603
tp604
a(I225
I10
F-0.375
S'simple'
p605
tp606
a(I225
I10
F0.5
S'possible'
p607
tp608
a(I225
I10
F0.5
S'technical'
p609
tp610
a(I230
I0
F0.375
S'available'
p611
tp612
a(I230
I0
I0
S'website'
p613
tp614
a(I230
I5
I0
S'website'
p615
tp616
a(I231
I1
F-0.25
S'cheaper'
p617
tp618
a(I233
I0
F0.375
S'new'
p619
tp620
a(I235
I0
I0
S'basic'
p621
tp622
a(I243
I4
F0.125
S'first'
p623
tp624
a(I243
I4
F-0.25
S'white'
p625
tp626
a(I250
I4
I0
S'older'
p627
tp628
a(I265
I2
F0.125
S'able'
p629
tp630
a(I270
I2
F-0.5
S'sure'
p631
tp632
a(I276
I4
I0
S'old'
p633
tp634
a(I286
I0
I0
S'old'
p635
tp636
a(I304
I0
I0
S'old'
p637
tp638
a(I307
I0
I0
S'cheapskate'
p639
tp640
a(I316
I0
F-0.875
S'worst'
p641
tp642
a(I322
I7
F0.875
S'nice'
p643
tp644
as(S'features'
p645
tp646
(lp647
(I11
I2
F0.875
S'nice'
p648
tp649
a(I22
I1
I0
S'more'
p650
tp651
a(I22
I1
F-0.125
S'overall'
p652
tp653
a(I118
I9
I0
S'many'
p654
tp655
a(I135
I5
F0.875
S'nice'
p656
tp657
a(I135
I7
F0.75
S'worth'
p658
tp659
a(I163
I2
I0
S'great'
p660
tp661
a(I169
I1
I0
S'great'
p662
tp663
a(I169
I1
I0
S'special'
p664
tp665
a(I176
I0
I0
S'useful'
p666
tp667
a(I195
I2
F-0.25
S'white'
p668
tp669
a(I195
I2
F0.875
S'nice'
p670
tp671
a(I195
I2
I0
S'great'
p672
tp673
a(I195
I4
I0
S'many'
p674
tp675
a(I195
I4
F0.875
S'attractive'
p676
tp677
a(I196
I2
F0.875
S'nice'
p678
tp679
a(I196
I2
I0
S'few'
p680
tp681
a(I218
I1
F0.375
S'extra'
p682
tp683
a(I229
I0
F0.625
S'easy'
p684
tp685
a(I248
I0
I0
S'current'
p686
tp687
a(I251
I3
F0.875
S'nice'
p688
tp689
a(I256
I2
F1.0
S'better'
p690
tp691
a(I271
I0
I0
S'more'
p692
tp693
a(I311
I5
I0
S'many'
p694
tp695
a(I311
I5
F-0.25
S'higher'
p696
tp697
a(I318
I4
F0.625
S'easy'
p698
tp699
a(I322
I6
I0
S'many'
p700
tp701
a(I322
I6
I0
S'own'
p702
tp703
as(S'years'
p704
tp705
(lp706
(I104
I0
I0
S'many'
p707
tp708
a(I212
I5
I0
S'old'
p709
tp710
a(I230
I0
F0.875
S'happy'
p711
tp712
a(I263
I3
F1.0
S'best'
p713
tp714
a(I270
I52
F0.25
S'familiar'
p715
tp716
as(g307
S'a'
p717
S'pinch'
p718
tp719
(lp720
(I36
I3
F-0.125
S'super'
p721
tp722
as(S'android'
p723
tp724
(lp725
(I170
I1
F0.5
S'true'
p726
tp727
as(S'upgrade'
p728
tp729
(lp730
(I13
I2
F-0.625
S'other'
p731
tp732
a(I26
I1
I0
S'great'
p733
tp734
a(I251
I0
F0.875
S'nice'
p735
tp736
a(I311
I0
F0.375
S'newer'
p737
tp738
as(S'thing'
p739
tp740
(lp741
(I30
I3
I0
S'only'
p742
tp743
a(I68
I21
F1.0
S'good'
p744
tp745
a(I99
I1
F1.0
S'best'
p746
tp747
a(I100
I33
F-0.75
S'little'
p748
tp749
a(I102
I5
F1.0
S'good'
p750
tp751
a(I121
I1
F-0.625
S'bad'
p752
tp753
a(I123
I13
I0
S'only'
p754
tp755
a(I185
I7
F1.0
S'good'
p756
tp757
a(I216
I5
F0.25
S'favorite'
p758
tp759
a(I216
I5
F0.125
S'able'
p760
tp761
a(I226
I4
F1.0
S'good'
p762
tp763
a(I226
I4
F-0.75
S'impossible'
p764
tp765
a(I230
I7
F1.0
S'good'
p766
tp767
a(I239
I3
I0
S'only'
p768
tp769
a(I268
I0
F-0.875
S'worst'
p770
tp771
a(I268
I1
F-0.875
S'worst'
p772
tp773
a(I282
I0
I0
S'only'
p774
tp775
a(I300
I5
I0
S'only'
p776
tp777
a(I300
I6
F-0.625
S'other'
p778
tp779
a(I304
I5
I0
S'such'
p780
tp781
a(I308
I6
F1.0
S'better'
p782
tp783
a(I309
I2
F0.875
S'happy'
p784
tp785
a(I309
I2
F0.5
S'whole'
p786
tp787
as(S'ticket'
p788
S'system'
p789
tp790
(lp791
(I100
I38
F0.5
S'strong'
p792
tp793
as(S'micro'
p794
S'sd'
p795
S'card'
p796
tp797
(lp798
(I232
I10
I0
S'included'
p799
tp800
as(S'work'
p801
tp802
(lp803
(I40
I2
F0.125
S'further'
p804
tp805
as(g717
S'new'
p806
S'sim'
p807
tp808
(lp809
(I100
I1
F0.375
g190
tp810
a(I100
I6
F0.125
g145
tp811
a(I100
I6
F0.375
g147
tp812
a(I166
I10
F0.375
g194
tp813
a(I187
I4
F0.5
g196
tp814
a(I187
I5
F0.375
g198
tp815
a(I187
I9
F0.375
g200
tp816
as(S'battery'
p817
S'life'
p818
tp819
(lp820
(I10
I4
I0
S'great'
p821
tp822
a(I37
I2
F1.0
S'good'
p823
tp824
a(I141
I4
I0
S'great'
p825
tp826
a(I238
I5
I0
S'great'
p827
tp828
a(I270
I50
I0
S'e-mail'
p829
tp830
as(S'minutes'
p831
tp832
(lp833
(I9
I0
I0
S'e-mail'
p834
tp835
a(I9
I0
I0
S'valuable'
p836
tp837
a(I47
I5
I0
S'old'
p838
tp839
a(I47
I17
F0.625
S'easy'
p840
tp841
a(I55
I8
F0.375
S'worked'
p842
tp843
a(I55
I8
I0
S'great'
p844
tp845
a(I69
I3
F-0.25
g49
tp846
a(I69
I3
F-0.375
g51
tp847
a(I70
I2
F-0.25
g53
tp848
a(I95
I3
F-0.25
g55
tp849
a(I97
I1
F-0.625
S'bad'
p850
tp851
a(I100
I29
I0
S'least'
p852
tp853
a(I140
I2
F-0.636
g57
tp854
a(I140
I2
F-0.25
g59
tp855
a(I174
I7
F-0.375
g61
tp856
a(I174
I7
F-0.5
g63
tp857
a(I174
I9
I0
g65
tp858
a(I174
I9
F0.375
g67
tp859
a(I223
I1
F-0.25
S'low'
p860
tp861
a(I224
I11
F0.125
S'last'
p862
tp863
a(I242
I5
F-0.75
g71
tp864
a(I243
I0
F-0.375
S'double'
p865
tp866
a(I260
I1
F-0.25
g73
tp867
a(I269
I1
I0
S'current'
p868
tp869
a(I270
I2
F-0.625
S'free'
p870
tp871
a(I270
I25
I0
S'more'
p872
tp873
a(I276
I3
I0
S'net'
p874
tp875
a(I288
I2
F1.0
g75
tp876
a(I304
I1
I0
S'few'
p877
tp878
a(I304
I1
I0
S'later'
p879
tp880
a(I307
I5
F-0.375
S'double'
p881
tp882
a(I308
I8
F1.0
S'better'
p883
tp884
a(I311
I5
F-0.25
g77
tp885
a(I312
I1
I0
S'prepaid'
p886
tp887
as(g717
S'great'
p888
S'deal'
p889
tp890
(lp891
(I52
I0
I0
S'great'
p892
tp893
a(I106
I1
I0
S'great'
p894
tp895
a(I124
I2
I0
S'great'
p896
tp897
a(I158
I2
I0
S'great'
p898
tp899
a(I169
I4
I0
S'great'
p900
tp901
a(I169
I6
I0
S'great'
p902
tp903
a(I255
I0
I0
S'great'
p904
tp905
a(I260
I2
I0
S'great'
p906
tp907
a(I297
I0
I0
S'great'
p908
tp909
as(S'r'
p910
S'e'
p911
S'mail'
p912
tp913
(lp914
(I9
I0
F-0.5
S'unwanted'
p915
tp916
as(S'back'
p917
tp918
(lp919
(I194
I3
F1.0
S'good'
p920
tp921
a(I310
I2
F0.5
S'pat'
p922
tp923
a(I315
I2
I0
S'great'
p924
tp925
as(S'life'
p926
tp927
(lp928
(I141
I4
I0
g825
tp929
a(I230
I14
F0.875
S'nice'
p930
tp931
a(I238
I5
I0
g827
tp932
a(I270
I50
I0
g829
tp933
as(S'best'
p934
tp935
(lp936
(I200
I1
I0
S'next'
p937
tp938
as(S'transfer'
p939
tp940
(lp941
(I20
I8
F0.625
S'easy'
p942
tp943
a(I60
I1
F0.625
S'easy'
p944
tp945
a(I78
I1
I0
S'old'
p946
tp947
a(I78
I1
F0.375
S'new'
p948
tp949
a(I146
I1
F0.625
S'easy'
p950
tp951
as(S'minutes'
p952
S'for'
p953
S'life'
p954
tp955
(lp956
(I69
I3
F-0.25
g49
tp957
a(I69
I3
F-0.375
g51
tp958
a(I230
I14
F0.875
g930
tp959
a(I243
I0
F-0.375
g865
tp960
as(S'tracfone'
p961
S'customer'
p962
S'service'
p963
tp964
(lp965
(I78
I1
F0.625
g545
tp966
a(I112
I1
F0.875
g255
tp967
a(I137
I2
I0
g158
tp968
a(I143
I10
I0
g258
tp969
a(I219
I1
I0
g593
tp970
a(I235
I3
F-0.5
g160
tp971
as(S'call'
p972
tp973
(lp974
(I268
I3
F0.5
S'second'
p975
tp976
a(I306
I2
F0.75
S'receive'
p977
tp978
a(I308
I5
F-0.5
S'answer'
p979
tp980
a(I316
I2
F-0.25
S'hang'
p981
tp982
as(S'get'
p983
S'triple'
p984
S'minutes'
p985
tp986
(lp987
(I325
I6
F-0.5
g81
tp988
as(S'minutes'
p989
S'and'
p990
S'service'
p991
tp992
(lp993
(I47
I5
I0
g838
tp994
a(I255
I0
I0
g463
tp995
as(S'white'
p996
tp997
(lp998
(I108
I4
F-0.75
S'little'
p999
tp1000
a(I321
I6
F-0.375
S'black'
p1001
tp1002
as(S'plan'
p1003
tp1004
(lp1005
(I28
I3
I0
S'more'
p1006
tp1007
a(I130
I1
I0
S'monthly'
p1008
tp1009
a(I300
I2
I0
S'monthly'
p1010
tp1011
as(S'battery'
p1012
tp1013
(lp1014
(I10
I4
I0
g821
tp1015
a(I37
I2
F1.0
g823
tp1016
a(I68
I20
F-0.25
S'low'
p1017
tp1018
a(I71
I0
F0.125
S'last'
p1019
tp1020
a(I71
I1
F-0.5
S'sure'
p1021
tp1022
a(I270
I36
F0.625
S'easy'
p1023
tp1024
as(S'smart'
p1025
tp1026
(lp1027
(I24
I0
I0
S'close'
p1028
tp1029
a(I30
I1
I0
S'android'
p1030
tp1031
a(I92
I0
I0
S'close'
p1032
tp1033
a(I138
I1
F0.125
S'typical'
p1034
tp1035
a(I151
I1
F0.25
S'bigger'
p1036
tp1037
a(I170
I2
F0.75
S'glorified'
p1038
tp1039
a(I170
I2
I0
S'basic'
p1040
tp1041
a(I296
I15
I0
S'sprint'
p1042
tp1043
a(I303
I1
F0.375
S'similar'
p1044
tp1045
as(S'looking'
p1046
tp1047
(lp1048
(I10
I3
F0.875
S'nice'
p1049
tp1050
a(I103
I0
F0.625
S'easy'
p1051
tp1052
a(I270
I9
I0
S'very'
p1053
tp1054
a(I270
I9
F0.125
S'solid'
p1055
tp1056
a(I270
I9
F0.875
S'nice'
p1057
tp1058
a(I270
I48
I0
S'weird'
p1059
tp1060
a(I322
I0
F1.0
S'good'
p1061
tp1062
as(g911
S'mail'
p1063
tp1064
(lp1065
(I9
I0
F-0.5
g915
tp1066
as(S'money'
p1067
tp1068
(lp1069
(I17
I5
I0
S'great'
p1070
tp1071
a(I28
I3
F-0.5
S'less'
p1072
tp1073
a(I65
I0
F1.0
S'good'
p1074
tp1075
a(I127
I3
I0
S'anymore'
p1076
tp1077
a(I273
I6
F0.375
S'much'
p1078
tp1079
a(I279
I3
I0
S'big'
p1080
tp1081
as(S'micro'
p1082
S'sd'
p1083
tp1084
(lp1085
(I232
I10
I0
g799
tp1086
as(S'time'
p1087
tp1088
(lp1089
(I4
I3
I0
S'android'
p1090
tp1091
a(I4
I3
F-0.25
S'past'
p1092
tp1093
a(I7
I14
F-0.625
S'other'
p1094
tp1095
a(I47
I20
F-0.875
S'hard'
p1096
tp1097
a(I64
I1
I0
S'net'
p1098
tp1099
a(I64
I1
F0.5
S'expensive'
p1100
tp1101
a(I64
I1
F-0.625
S'useless'
p1102
tp1103
a(I92
I0
I0
S'old'
p1104
tp1105
a(I95
I2
I0
S'incredible'
p1106
tp1107
a(I100
I13
I0
S'more'
p1108
tp1109
a(I102
I6
I0
S'third'
p1110
tp1111
a(I118
I6
F-0.75
S'short'
p1112
tp1113
a(I118
I13
F0.125
S'first'
p1114
tp1115
a(I124
I1
F-0.5
S'long'
p1116
tp1117
a(I134
I1
F-0.5
S'long'
p1118
tp1119
a(I149
I1
I0
S'same'
p1120
tp1121
a(I156
I0
F-0.875
S'hard'
p1122
tp1123
a(I177
I1
F-0.375
S'manual'
p1124
tp1125
a(I177
I1
F1.0
S'better'
p1126
tp1127
a(I177
I1
F1.0
S'better'
p1128
tp1129
a(I220
I1
I0
S'next'
p1130
tp1131
a(I223
I1
F-0.5
S'long'
p1132
tp1133
a(I230
I10
F-0.75
S'short'
p1134
tp1135
a(I230
I10
I0
S'later'
p1136
tp1137
a(I230
I10
F0.375
S'new'
p1138
tp1139
a(I235
I4
F0.125
S'last'
p1140
tp1141
a(I270
I21
F-0.75
S'single'
p1142
tp1143
a(I286
I1
F0.75
S'worth'
p1144
tp1145
as(S'always'
p1146
tp1147
(lp1148
(I167
I8
I0
S'big'
p1149
tp1150
a(I167
I8
F0.5
S'willing'
p1151
tp1152
as(S'deal'
p1153
tp1154
(lp1155
(I38
I3
F1.0
S'best'
p1156
tp1157
a(I52
I0
I0
g892
tp1158
a(I86
I3
F1.0
S'good'
p1159
tp1160
a(I106
I1
I0
g894
tp1161
a(I124
I2
I0
g896
tp1162
a(I140
I5
I0
S'big'
p1163
tp1164
a(I140
I6
F1.0
S'better'
p1165
tp1166
a(I158
I2
I0
g898
tp1167
a(I169
I4
I0
g900
tp1168
a(I169
I6
I0
g902
tp1169
a(I224
I6
F1.0
S'best'
p1170
tp1171
a(I226
I9
F0.5
S'whole'
p1172
tp1173
a(I255
I0
I0
g904
tp1174
a(I260
I2
I0
g906
tp1175
a(I297
I0
I0
g908
tp1176
a(I300
I5
I0
S'big'
p1177
tp1178
as(S'mp3'
p1179
S'player'
p1180
tp1181
(lp1182
(I307
I6
F0.875
S'music'
p1183
tp1184
as(S'flip'
p1185
tp1186
(lp1187
(I24
I0
I0
S'old'
p1188
tp1189
a(I75
I1
I0
S'old'
p1190
tp1191
a(I78
I0
I0
S'old'
p1192
tp1193
a(I112
I0
F-0.5
S'afraid'
p1194
tp1195
a(I116
I1
I0
S'prehistoric'
p1196
tp1197
a(I118
I4
I0
S'great'
p1198
tp1199
a(I203
I2
I0
S'old'
p1200
tp1201
a(I240
I4
F-0.375
S'fancier'
p1202
tp1203
a(I240
I4
F-0.375
S'simple'
p1204
tp1205
a(I311
I0
I0
S'old'
p1206
tp1207
as(S'touch'
p1208
S'screen'
p1209
tp1210
(lp1211
(I50
I0
F0.25
S'bigger'
p1212
tp1213
a(I68
I8
F0.25
S'responsive'
p1214
tp1215
a(I104
I4
F0.5
S'touch'
p1216
tp1217
a(I158
I0
F0.25
g86
tp1218
a(I158
I0
I0
g88
tp1219
a(I160
I2
F0.5
S'touch'
p1220
tp1221
a(I168
I0
F0.125
g90
tp1222
a(I186
I2
F0.375
S'reliable'
p1223
tp1224
a(I194
I0
F0.875
g92
tp1225
a(I198
I0
F0.25
g94
tp1226
a(I216
I3
F0.5
S'touch'
p1227
tp1228
a(I218
I3
F0.625
g96
tp1229
a(I218
I3
F0.125
g98
tp1230
a(I220
I0
F-0.25
g100
tp1231
a(I220
I3
F0.625
S'easy'
p1232
tp1233
a(I223
I0
F0.5
S'touch'
p1234
tp1235
a(I226
I1
I0
S'old'
p1236
tp1237
a(I226
I1
F0.625
S'easy'
p1238
tp1239
a(I226
I1
I0
S'great'
p1240
tp1241
a(I229
I0
F0.875
S'nice'
p1242
tp1243
a(I260
I0
F0.5
S'touch'
p1244
tp1245
a(I270
I65
F0.5
S'touch'
p1246
tp1247
a(I303
I1
F-0.75
S'tat'
p1248
tp1249
a(I303
I1
F0.5
S'touch'
p1250
tp1251
a(I305
I1
F0.5
S'touch'
p1252
tp1253
a(I321
I0
F0.5
S'touch'
p1254
tp1255
a(I321
I0
I0
S'large'
p1256
tp1257
as(S'year'
p1258
tp1259
(lp1260
(I20
I3
I0
S'old'
p1261
tp1262
a(I31
I0
I0
S'old'
p1263
tp1264
a(I49
I2
I0
S'old'
p1265
tp1266
a(I68
I26
F0.5
S'whole'
p1267
tp1268
a(I82
I1
I0
S'old'
p1269
tp1270
a(I127
I3
F0.5
S'whole'
p1271
tp1272
a(I144
I1
I0
S'old'
p1273
tp1274
a(I180
I4
I0
S'full'
p1275
tp1276
a(I181
I0
I0
S'old'
p1277
tp1278
a(I201
I0
I0
S'old'
p1279
tp1280
a(I216
I1
I0
S'old'
p1281
tp1282
a(I224
I11
F0.5
S'whole'
p1283
tp1284
a(I240
I0
I0
S'old'
p1285
tp1286
a(I280
I0
F1.0
S'good'
p1287
tp1288
a(I296
I10
I0
S'old'
p1289
tp1290
as(S'little'
p1291
tp1292
(lp1293
(I36
I0
F1.0
S'good'
p1294
tp1295
a(I255
I0
F1.0
S'good'
p1296
tp1297
as(S'screen'
p1298
tp1299
(lp1300
(I0
I0
F0.25
S'larger'
p1301
tp1302
a(I2
I1
F0.375
S'much'
p1303
tp1304
a(I2
I1
I0
S'sensitive'
p1305
tp1306
a(I2
I3
F-0.625
S'light'
p1307
tp1308
a(I12
I7
F-0.125
S'slow'
p1309
tp1310
a(I47
I12
I0
S'current'
p1311
tp1312
a(I50
I0
F0.25
g1212
tp1313
a(I52
I1
F0.625
S'easy'
p1314
tp1315
a(I52
I1
F0.5
S'clear'
p1316
tp1317
a(I68
I8
F0.25
g1214
tp1318
a(I85
I1
F-0.75
S'bright'
p1319
tp1320
a(I104
I4
F0.5
g1216
tp1321
a(I118
I1
F0.625
S'easy'
p1322
tp1323
a(I118
I1
F0.25
S'larger'
p1324
tp1325
a(I118
I3
I0
S'own'
p1326
tp1327
a(I129
I1
F0.875
S'nice'
p1328
tp1329
a(I129
I1
I0
S'big'
p1330
tp1331
a(I131
I1
F0.625
S'easy'
p1332
tp1333
a(I131
I1
I0
S'great'
p1334
tp1335
a(I141
I1
F0.25
S'larger'
p1336
tp1337
a(I160
I2
F0.5
g1220
tp1338
a(I186
I2
F0.375
g1223
tp1339
a(I212
I4
F0.375
S'much'
p1340
tp1341
a(I212
I4
F-0.125
S'slow'
p1342
tp1343
a(I216
I3
F0.5
g1227
tp1344
a(I220
I3
F0.625
g1232
tp1345
a(I223
I0
F0.5
g1234
tp1346
a(I226
I1
I0
g1236
tp1347
a(I226
I1
F0.625
g1238
tp1348
a(I226
I1
I0
g1240
tp1349
a(I229
I0
F0.875
g1242
tp1350
a(I230
I6
I0
S'final'
p1351
tp1352
a(I232
I5
I0
S'plastic'
p1353
tp1354
a(I235
I9
F-0.375
S'small'
p1355
tp1356
a(I235
I9
I0
S'numeric'
p1357
tp1358
a(I243
I1
F0.25
S'larger'
p1359
tp1360
a(I260
I0
F0.5
g1244
tp1361
a(I270
I30
F0.25
S'larger'
p1362
tp1363
a(I270
I40
I0
S'info'
p1364
tp1365
a(I270
I65
F0.5
g1246
tp1366
a(I273
I3
F-0.375
S'black'
p1367
tp1368
a(I298
I2
F0.25
S'bigger'
p1369
tp1370
a(I303
I1
F-0.75
g1248
tp1371
a(I303
I1
F0.5
g1250
tp1372
a(I305
I1
F0.5
g1252
tp1373
a(I321
I0
F0.5
g1254
tp1374
a(I321
I0
I0
g1256
tp1375
as(S'everything'
p1376
tp1377
(lp1378
(I75
I2
F1.0
S'good'
p1379
tp1380
a(I78
I6
F0.625
S'easy'
p1381
tp1382
a(I239
I0
F0.125
S'able'
p1383
tp1384
a(I246
I0
I0
S'great'
p1385
tp1386
a(I317
I0
F0.375
S'available'
p1387
tp1388
as(S'tracfone'
p1389
S'technical'
p1390
S'support'
p1391
tp1392
(lp1393
(I225
I2
F0.5
g595
tp1394
a(I225
I3
F0.375
g597
tp1395
a(I225
I3
F0.5
g599
tp1396
a(I225
I7
F0.5
g601
tp1397
a(I225
I10
F-0.375
g605
tp1398
a(I225
I10
F0.5
g607
tp1399
a(I225
I10
F0.5
g609
tp1400
as(S'camera'
p1401
tp1402
(lp1403
(I10
I6
F-0.5
S'poor'
p1404
tp1405
a(I16
I3
F-0.625
S'bad'
p1406
tp1407
a(I123
I4
F1.0
S'good'
p1408
tp1409
a(I173
I2
F0.625
S'easy'
p1410
tp1411
a(I175
I4
I0
S'great'
p1412
tp1413
a(I195
I5
F1.0
S'good'
p1414
tp1415
a(I212
I6
F0.625
S'decent'
p1416
tp1417
a(I212
I6
F0.875
S'nice'
p1418
tp1419
a(I217
I1
F0.875
S'nice'
p1420
tp1421
a(I235
I12
F1.0
S'good'
p1422
tp1423
a(I311
I7
F0.875
S'nice'
p1424
tp1425
as(S'using'
p1426
tp1427
(lp1428
(I41
I0
F0.875
S'music'
p1429
tp1430
as(S'plus'
p1431
tp1432
(lp1433
(I69
I2
I0
S'big'
p1434
tp1435
a(I121
I3
I0
S'big'
p1436
tp1437
a(I188
I0
I0
S'big'
p1438
tp1439
a(I303
I2
F0.625
S'major'
p1440
tp1441
as(S'great'
p1442
S'deal'
p1443
tp1444
(lp1445
(I52
I0
I0
g892
tp1446
a(I106
I1
I0
g894
tp1447
a(I124
I2
I0
g896
tp1448
a(I158
I2
I0
g898
tp1449
a(I169
I4
I0
g900
tp1450
a(I169
I6
I0
g902
tp1451
a(I255
I0
I0
g904
tp1452
a(I260
I2
I0
g906
tp1453
a(I297
I0
I0
g908
tp1454
as(S'month'
p1455
tp1456
(lp1457
(I79
I3
F0.125
S'last'
p1458
tp1459
a(I152
I1
I0
S'more'
p1460
tp1461
a(I235
I3
I0
S'later'
p1462
tp1463
a(I313
I2
I0
S'close'
p1464
tp1465
as(S'feature'
p1466
tp1467
(lp1468
(I12
I11
F-0.625
S'other'
p1469
tp1470
a(I28
I3
F1.0
S'good'
p1471
tp1472
a(I33
I4
I0
S'e-mail'
p1473
tp1474
a(I64
I1
F0.375
S'extra'
p1475
tp1476
a(I120
I5
F-0.125
S'overall'
p1477
tp1478
a(I120
I5
F0.875
S'nice'
p1479
tp1480
a(I222
I2
I0
S'only'
p1481
tp1482
a(I270
I63
F0.875
S'nice'
p1483
tp1484
a(I270
I63
F0.625
S'safe'
p1485
tp1486
a(I280
I2
F0.375
S'loud'
p1487
tp1488
a(I308
I5
F-0.75
S'stupid'
p1489
tp1490
as(S'family'
p1491
S'value'
p1492
tp1493
(lp1494
(I44
I3
F-0.75
g232
tp1495
as(S'works'
p1496
tp1497
(lp1498
(I47
I26
I0
S'great'
p1499
tp1500
a(I146
I0
I0
S'great'
p1501
tp1502
a(I259
I5
F0.125
S'able'
p1503
tp1504
a(I289
I0
F0.625
S'easy'
p1505
tp1506
as(S'apps'
p1507
tp1508
(lp1509
(I121
I7
F0.625
S'major'
p1510
tp1511
a(I121
I7
I0
S'most'
p1512
tp1513
a(I131
I3
I0
S'few'
p1514
tp1515
a(I175
I3
I0
S'useful'
p1516
tp1517
a(I175
I3
I0
S'such'
p1518
tp1519
a(I175
I6
I0
S'such'
p1520
tp1521
a(I227
I2
I0
S'few'
p1522
tp1523
as(S'browser'
p1524
tp1525
(lp1526
(I47
I8
F0.5
g311
tp1527
a(I47
I9
I0
S'standard'
p1528
tp1529
a(I47
I23
F0.875
S'happy'
p1530
tp1531
a(I47
I23
I0
S'standard'
p1532
tp1533
a(I90
I2
I0
S'great'
p1534
tp1535
a(I175
I4
F-0.125
S'slow'
p1536
tp1537
a(I270
I13
I0
S'numerical'
p1538
tp1539
a(I270
I48
I0
S'mobile'
p1540
tp1541
a(I305
I6
I0
S'useful'
p1542
tp1543
as(S'better'
p1544
tp1545
(lp1546
(I33
I2
F0.375
S'much'
p1547
tp1548
a(I114
I4
F0.375
S'much'
p1549
tp1550
a(I176
I4
F0.125
S'first'
p1551
tp1552
as(S'and'
p1553
S'service'
p1554
S'time'
p1555
tp1556
(lp1557
(I100
I13
I0
g1108
tp1558
a(I134
I1
F-0.5
g1118
tp1559
a(I230
I10
F-0.75
g1134
tp1560
a(I230
I10
I0
g1136
tp1561
a(I230
I10
F0.375
g1138
tp1562
a(I255
I0
I0
g463
tp1563
as(S'home'
p1564
tp1565
(lp1566
(I7
I3
I0
S'most'
p1567
tp1568
a(I107
I2
F0.375
S'much'
p1569
tp1570
a(I107
I2
F0.625
S'easier'
p1571
tp1572
a(I135
I6
F-0.625
S'somewhere'
p1573
tp1574
as(S'music'
p1575
tp1576
(lp1577
(I13
I3
F0.25
S'favorite'
p1578
tp1579
as(S'one'
p1580
S'for'
p1581
S'wife'
p1582
tp1583
(lp1584
(I164
I1
F-0.375
S'black'
p1585
tp1586
a(I164
I1
F0.125
S'first'
p1587
tp1588
a(I164
I1
F0.5
S'second'
p1589
tp1590
a(I326
I0
F-0.125
S'mine'
p1591
tp1592
as(S'much'
p1593
S'better'
p1594
tp1595
(lp1596
(I33
I2
F0.375
g1547
tp1597
a(I114
I4
F0.375
g1549
tp1598
as(S'cell'
p1599
tp1600
(lp1601
(I11
I1
I0
S'old'
p1602
tp1603
a(I104
I3
I0
S'big'
p1604
tp1605
a(I162
I0
I0
S'many'
p1606
tp1607
a(I225
I12
F0.875
S'happy'
p1608
tp1609
a(I225
I12
F-0.25
S'inexpensive'
p1610
tp1611
a(I229
I0
I0
S'own'
p1612
tp1613
a(I255
I0
F1.0
S'good'
p1614
tp1615
a(I255
I0
I0
S'android'
p1616
tp1617
a(I255
I0
I0
S'old'
p1618
tp1619
a(I262
I2
I0
S'high'
p1620
tp1621
a(I270
I4
I0
S'few'
p1622
tp1623
a(I270
I28
I0
S'tinny'
p1624
tp1625
a(I270
I28
F-0.5
S'regular'
p1626
tp1627
a(I308
I1
I0
S'more'
p1628
tp1629
as(S'texting'
p1630
tp1631
(lp1632
(I123
I12
F-0.625
S'light'
p1633
tp1634
a(I311
I2
I0
S'great'
p1635
tp1636
as(S'days'
p1637
tp1638
(lp1639
(I20
I8
I0
S'few'
p1640
tp1641
a(I20
I8
I0
S'later'
p1642
tp1643
a(I56
I1
F1.0
S'better'
p1644
tp1645
a(I166
I6
I0
S'few'
p1646
tp1647
a(I224
I15
I0
S'next'
p1648
tp1649
a(I225
I9
F-0.25
S'past'
p1650
tp1651
a(I230
I5
I0
S'later'
p1652
tp1653
a(I280
I1
I0
S'few'
p1654
tp1655
as(S'mail'
p1656
tp1657
(lp1658
(I9
I0
F-0.5
g915
tp1659
as(S'calls'
p1660
tp1661
(lp1662
(I11
I11
F0.75
S'receive'
p1663
tp1664
a(I64
I5
I0
S'more'
p1665
tp1666
a(I111
I1
F1.0
S'best'
p1667
tp1668
a(I127
I2
F0.75
S'receive'
p1669
tp1670
a(I127
I2
F-0.5
S'actual'
p1671
tp1672
a(I213
I1
F0.5
S'clear'
p1673
tp1674
a(I215
I3
F-0.5
S'less'
p1675
tp1676
a(I265
I0
F-0.5
S'international'
p1677
tp1678
a(I293
I2
F-0.25
S'dropped'
p1679
tp1680
a(I312
I2
I0
S'social'
p1681
tp1682
as.