(dp0
(S'battery'
p1
S'life'
p2
tp3
(lp4
(I25
I44
F1.0
S'good'
p5
I1
tp6
a(I8
I3
I0
S'full'
p7
I15
tp8
a(I14
I0
I0
S'such'
p9
I15
tp10
as(S'samsung'
p11
S'galaxy'
p12
S's4'
p13
tp14
(lp15
(I2
I40
F-0.125
S'future'
p16
I0
tp17
a(I10
I4
F0.375
S'new'
p18
I0
tp19
a(I10
I4
F1.0
S'better'
p20
I0
tp21
a(I26
I0
F0.375
S'new'
p22
I0
tp23
a(I2
I40
F-0.125
g16
I0
tp24
a(I10
I4
F0.375
g18
I0
tp25
a(I10
I4
F1.0
g20
I0
tp26
a(I15
I4
I0
S'real'
p27
I0
tp28
a(I17
I0
F-0.5
S'international'
p29
I0
tp30
a(I24
I0
I0
S'plastic'
p31
I0
tp32
a(I24
I0
F0.5
S'whole'
p33
I0
tp34
a(I2
I8
F-0.125
S'defected'
p35
I0
tp36
a(I26
I0
F0.375
g22
I0
tp37
a(I2
I40
F-0.125
g16
I7
tp38
a(I10
I4
F0.375
g18
I7
tp39
a(I10
I4
F1.0
g20
I7
tp40
a(I15
I4
I0
g27
I7
tp41
a(I17
I0
F-0.5
g29
I7
tp42
a(I21
I0
F0.375
S'new'
p43
I7
tp44
a(I24
I0
I0
g31
I7
tp45
a(I2
I8
F-0.125
g35
I0
tp46
a(I18
I20
F1.0
S'better'
p47
I0
tp48
a(I24
I0
F0.5
g33
I0
tp49
as.