(dp0
(S'android'
p1
tp2
(lp3
(I1
I5
I0
S'great'
p4
I0
tp5
a(I19
I0
F-0.625
S'glad'
p6
I0
tp7
a(I19
I0
F-0.25
S'white'
p8
I0
tp9
a(I23
I19
F0.625
S'easy'
p10
I0
tp11
a(I28
I11
F1.0
S'best'
p12
I0
tp13
a(I29
I106
F0.5
S'willing'
p14
I0
tp15
a(I34
I2
F0.125
S'solid'
p16
I0
tp17
a(I34
I2
I0
S'stable'
p18
I0
tp19
as(S'iphone'
p20
tp21
(lp22
(I0
I9
F-0.375
S'simple'
p23
I1
tp24
a(I1
I3
F-0.75
S'single'
p25
I1
tp26
a(I10
I9
I0
S'fanatic'
p27
I1
tp28
a(I23
I10
I0
S'forth'
p29
I1
tp30
a(I23
I10
F-0.625
S'glad'
p31
I1
tp32
a(I29
I88
I0
S'faster'
p33
I1
tp34
as(S'love'
p35
S'love'
p36
tp37
(lp38
(I28
I8
F1.0
S'love'
p39
I2
tp40
as(S'galaxy'
p41
S's4'
p42
tp43
(lp44
(I1
I55
F0.875
S'happy'
p45
I0
tp46
a(I21
I29
F-0.625
S'free'
p47
I0
tp48
a(I28
I34
I0
S'great'
p49
I0
tp50
a(I1
I55
F0.875
g45
I0
tp51
a(I6
I0
F0.5
S'second'
p52
I0
tp53
a(I20
I1
F0.375
S'new'
p54
I0
tp55
a(I20
I1
I0
S'mile'
p56
I0
tp57
as(S'battery'
p58
S'life'
p59
tp60
(lp61
(I4
I2
F-0.25
S'low'
p62
I1
tp63
a(I7
I17
F0.625
S'decent'
p64
I1
tp65
a(I8
I53
I0
S'more'
p66
I1
tp67
a(I8
I53
F0.625
S'acceptable'
p68
I1
tp69
a(I9
I11
I0
S'great'
p70
I1
tp71
a(I9
I11
I0
S'faster'
p72
I1
tp73
a(I11
I5
I0
S'great'
p74
I1
tp75
a(I12
I45
F-0.5
S'long'
p76
I1
tp77
a(I21
I19
I0
S'great'
p78
I1
tp79
a(I27
I20
I0
S'great'
p80
I1
tp81
a(I28
I52
I0
S'great'
p82
I1
tp83
a(I29
I15
F1.0
S'best'
p84
I1
tp85
a(I4
I2
F-0.25
g62
I19
tp86
a(I8
I53
I0
g66
I19
tp87
a(I8
I53
F0.625
g68
I19
tp88
a(I9
I11
I0
g70
I19
tp89
a(I11
I5
I0
g74
I19
tp90
a(I33
I6
F0.625
S'easier'
p91
I19
tp92
a(I7
I17
F0.625
g64
I15
tp93
a(I8
I23
F0.125
S'last'
p94
I15
tp95
a(I8
I23
F-0.5
S'long'
p96
I15
tp97
a(I9
I11
I0
g72
I15
tp98
a(I12
I45
F-0.5
g76
I15
tp99
a(I21
I19
I0
g78
I15
tp100
a(I24
I1
F1.0
S'better'
p101
I15
tp102
a(I26
I14
I0
S'quick'
p103
I15
tp104
a(I27
I20
I0
g80
I15
tp105
a(I28
I52
I0
g82
I15
tp106
a(I29
I15
F1.0
g84
I15
tp107
as(S'sprint'
p108
tp109
(lp110
(I21
I13
I0
S'local'
p111
I0
tp112
a(I22
I7
F0.75
S'due'
p113
I0
tp114
as(S'much'
p115
S'better'
p116
tp117
(lp118
(I30
I2
F0.375
S'much'
p119
I9
tp120
as(S'upgrade'
p121
tp122
(lp123
(I22
I13
F1.0
S'good'
p124
I3
tp125
a(I22
I13
F0.875
S'nice'
p126
I3
tp127
a(I23
I1
F0.75
S'due'
p128
I3
tp129
a(I25
I4
F0.5
S'rid'
p130
I3
tp131
a(I31
I6
F0.375
S'available'
p132
I3
tp133
as(S'penny'
p134
tp135
(lp136
(I12
I2
F-0.25
S'ready'
p137
I3
tp138
a(I15
I1
F0.75
S'worth'
p139
I3
tp140
a(I22
I2
F1.0
S'best'
p141
I3
tp142
a(I22
I4
F1.0
S'best'
p143
I3
tp144
a(I31
I13
F0.125
S'able'
p145
I3
tp146
as(S'super'
p147
S'fast'
p148
tp149
(lp150
(I10
I1
F-0.125
S'super'
p151
I0
tp152
a(I10
I1
F0.625
S'easy'
p153
I0
tp154
a(I13
I1
F-0.125
S'super'
p155
I0
tp156
a(I23
I18
F-0.125
S'super'
p157
I0
tp158
a(I23
I18
I0
S'cool'
p159
I0
tp160
as(S'apps'
p161
tp162
(lp163
(I5
I53
F-0.5
S'open'
p164
I0
tp165
a(I8
I20
I0
S'many'
p166
I0
tp167
a(I8
I20
F-0.5
S'open'
p168
I0
tp169
a(I24
I9
F0.375
S'busy'
p170
I0
tp171
a(I29
I21
I0
S'useful'
p172
I0
tp173
a(I29
I98
F-0.5
S'separate'
p174
I0
tp175
as(S'samsung'
p176
tp177
(lp178
(I5
I8
F-0.75
S'bloat'
p179
I7
tp180
a(I5
I41
F0.5
S'odd'
p181
I7
tp182
a(I19
I4
F0.625
S'easy'
p183
I7
tp184
a(I19
I4
I0
S'stated'
p185
I7
tp186
a(I20
I9
I0
S'great'
p187
I7
tp188
a(I25
I3
I0
S'angry'
p189
I7
tp190
a(I26
I27
I0
S'faithful'
p191
I7
tp192
a(I28
I40
F0.125
S'first'
p193
I7
tp194
as(S'amazon'
p195
tp196
(lp197
(I1
I21
F-0.625
S'other'
p198
I13
tp199
a(I8
I18
I0
S'efficient'
p200
I13
tp201
a(I9
I29
F1.0
S'best'
p202
I13
tp203
a(I12
I33
I0
S'site'
p204
I13
tp205
a(I21
I4
F-0.25
S'cheaper'
p206
I13
tp207
a(I21
I16
I0
S'website'
p208
I13
tp209
a(I25
I21
F0.125
S'usual'
p210
I13
tp211
a(I26
I20
F-0.125
S'overall'
p212
I13
tp213
a(I26
I20
F0.5
S'satisfied'
p214
I13
tp215
as(S'camera'
p216
tp217
(lp218
(I1
I4
F0.125
S'impressive'
p219
I1
tp220
a(I1
I11
I0
S'great'
p221
I1
tp222
a(I7
I1
F1.0
S'better'
p223
I1
tp224
a(I7
I1
I0
S'faster'
p225
I1
tp226
a(I15
I37
F0.5
S'clear'
p227
I1
tp228
a(I21
I27
F1.0
S'good'
p229
I1
tp230
a(I26
I6
F-0.5
S'long'
p231
I1
tp232
as(S'thanks'
p233
tp234
(lp235
(I12
I59
F1.0
S'best'
p236
I12
tp237
as.