(dp0
(S'a'
p1
S'new'
p2
S'sim'
p3
tp4
(lp5
(I15
I3
F0.375
S'new'
p6
I0
tp7
a(I15
I11
F0.375
S'new'
p8
I0
tp9
a(I23
I37
F0.375
S'new'
p10
I0
tp11
a(I24
I20
F0.5
S'told'
p12
I0
tp13
a(I24
I21
F0.375
S'new'
p14
I0
tp15
a(I24
I25
F0.375
S'new'
p16
I0
tp17
as(S'ticket'
p18
S'system'
p19
tp20
(lp21
(I15
I46
F0.5
S'strong'
p22
I0
tp23
as(S'android'
p24
tp25
(lp26
(I23
I62
F0.5
S'true'
p27
I0
tp28
a(I36
I13
I0
S'real'
p29
I0
tp30
as(S'email'
p31
tp32
(lp33
(I8
I80
F-0.125
S'present'
p34
I5
tp35
as(g1
S'great'
p36
S'deal'
p37
tp38
(lp39
(I16
I30
I0
S'great'
p40
I9
tp41
a(I18
I18
I0
S'great'
p42
I9
tp43
a(I23
I4
I0
S'great'
p44
I9
tp45
a(I23
I58
I0
S'great'
p46
I9
tp47
a(I23
I60
I0
S'great'
p48
I9
tp49
a(I32
I29
I0
S'great'
p50
I9
tp51
a(I34
I17
I0
S'great'
p52
I9
tp53
a(I39
I31
I0
S'great'
p54
I9
tp55
a(I16
I30
I0
g40
I10
tp56
a(I18
I18
I0
g42
I10
tp57
a(I23
I4
I0
g44
I10
tp58
a(I23
I58
I0
g46
I10
tp59
a(I23
I60
I0
g48
I10
tp60
a(I32
I29
I0
g50
I10
tp61
a(I34
I17
I0
g52
I10
tp62
a(I39
I31
I0
g54
I10
tp63
as(S'texting'
p64
tp65
(lp66
(I18
I12
F-0.625
S'light'
p67
I0
tp68
a(I41
I52
I0
S'great'
p69
I0
tp70
as(S'dial'
p71
S'pad'
p72
tp73
(lp74
(I34
I151
I0
S'dial'
p75
I0
tp76
a(I42
I16
I0
S'dial'
p77
I0
tp78
a(I42
I16
I0
S'dial'
p79
I0
tp80
as(S'text'
p81
tp82
(lp83
(I1
I55
F1.0
S'good'
p84
I18
tp85
a(I8
I12
F-0.625
S'other'
p86
I18
tp87
a(I19
I21
F0.625
S'easy'
p88
I18
tp89
a(I19
I23
F0.25
S'sent'
p90
I18
tp91
a(I24
I15
F0.625
S'easy'
p92
I18
tp93
a(I29
I5
F-0.5
S'regular'
p94
I18
tp95
a(I39
I6
I0
S'full'
p96
I18
tp97
a(I40
I9
F-0.5
S'unlimited'
p98
I18
tp99
as(S'tech'
p100
S'support'
p101
tp102
(lp103
(I32
I7
I0
S'tech'
p104
I1
tp105
as(S'minutes'
p106
S'for'
p107
S'life'
p108
tp109
(lp110
(I31
I18
F0.875
S'nice'
p111
I0
tp112
a(I31
I103
F-0.375
S'double'
p113
I0
tp114
a(I19
I93
I0
S'great'
p115
I19
tp116
a(I31
I18
F0.875
g111
I19
tp117
a(I31
I70
I0
S'great'
p118
I19
tp119
as(S'camera'
p120
tp121
(lp122
(I1
I56
F-0.5
S'poor'
p123
I1
tp124
a(I1
I117
F-0.625
S'bad'
p125
I1
tp126
a(I18
I4
F1.0
S'good'
p127
I1
tp128
a(I23
I72
F0.625
S'easy'
p129
I1
tp130
a(I23
I92
I0
S'great'
p131
I1
tp132
a(I25
I19
F1.0
S'good'
p133
I1
tp134
a(I29
I8
F0.625
S'decent'
p135
I1
tp136
a(I29
I8
F0.875
S'nice'
p137
I1
tp138
a(I29
I30
F0.875
S'nice'
p139
I1
tp140
a(I31
I55
F1.0
S'good'
p141
I1
tp142
a(I41
I57
F0.875
S'nice'
p143
I1
tp144
as(S'plus'
p145
tp146
(lp147
(I10
I65
I0
S'big'
p148
I16
tp149
a(I17
I54
I0
S'big'
p150
I16
tp151
a(I23
I49
I0
S'big'
p152
I16
tp153
a(I40
I30
F0.625
S'major'
p154
I16
tp155
as(S'qwerty'
p156
S'keyboard'
p157
tp158
(lp159
(I1
I41
F0.375
S'available'
p160
I0
tp161
a(I8
I12
F0.375
S'available'
p162
I0
tp163
a(I23
I93
F0.375
S'available'
p164
I0
tp165
a(I1
I41
F0.375
g160
I2
tp166
a(I8
I90
F0.25
S'bigger'
p167
I2
tp168
a(I23
I93
F0.375
g164
I2
tp169
a(I24
I43
F0.625
S'easier'
p170
I2
tp171
a(I41
I2
F-0.5
S'regular'
p172
I2
tp173
a(I41
I17
I0
S'great'
p174
I2
tp175
a(I42
I14
I0
S'more'
p176
I2
tp177
a(I42
I14
F0.625
S'logical'
p178
I2
tp179
as(S'iphone'
p180
tp181
(lp182
(I1
I8
I0
S'real'
p183
I1
tp184
as(S'battery'
p185
S'life'
p186
tp187
(lp188
(I19
I93
I0
g115
I1
tp189
a(I31
I70
I0
g118
I1
tp190
a(I10
I49
F-0.25
S'low'
p191
I15
tp192
a(I10
I72
F0.125
S'last'
p193
I15
tp194
a(I10
I73
F-0.5
S'sure'
p195
I15
tp196
a(I34
I100
F0.625
S'easy'
p197
I15
tp198
as(S'internet'
p199
tp200
(lp201
(I8
I75
F-0.5
S'regular'
p202
I6
tp203
a(I18
I3
I0
S'faster'
p204
I6
tp205
a(I37
I35
F-0.125
S'slow'
p206
I6
tp207
a(I40
I19
F-0.125
S'slow'
p208
I6
tp209
a(I40
I26
F0.875
S'happy'
p210
I6
tp211
as(S'transfer'
p212
tp213
(lp214
(I3
I9
F0.625
S'easy'
p215
I1
tp216
a(I8
I114
F0.625
S'easy'
p217
I1
tp218
a(I12
I5
I0
S'old'
p219
I1
tp220
a(I12
I5
F0.375
S'new'
p221
I1
tp222
as(S'opera'
p223
S'mini'
p224
tp225
(lp226
(I8
I13
F0.5
S'suggest'
p227
I0
tp228
a(I39
I13
F-0.75
S'cry'
p229
I0
tp230
a(I40
I18
I0
S'downloaded'
p231
I0
tp232
as(S'operating'
p233
S'system'
p234
tp235
(lp236
(I19
I45
I0
S'proprietary'
p237
I2
tp238
as(S'tracfone'
p239
S'customer'
p240
S'service'
p241
tp242
(lp243
(I12
I5
F0.625
S'easy'
p244
I0
tp245
a(I16
I52
F0.875
S'happy'
p246
I0
tp247
a(I19
I73
I0
S'great'
p248
I0
tp249
a(I19
I109
I0
S'great'
p250
I0
tp251
a(I29
I36
I0
S'old'
p252
I0
tp253
a(I31
I46
F-0.5
S'poor'
p254
I0
tp255
a(I10
I3
F-0.5
S'poor'
p256
I0
tp257
a(I12
I5
F0.625
g244
I0
tp258
a(I19
I73
I0
g248
I0
tp259
a(I29
I36
I0
g252
I0
tp260
a(I31
I46
F-0.5
g254
I0
tp261
a(I31
I49
F-0.5
S'poor'
p262
I0
tp263
a(I16
I52
F0.875
g246
I3
tp264
a(I19
I73
I0
g248
I3
tp265
a(I19
I109
I0
g250
I3
tp266
a(I31
I46
F-0.5
g254
I3
tp267
a(I41
I90
F0.25
S'helpful'
p268
I3
tp269
a(I1
I87
I0
S'earlier'
p270
I0
tp271
a(I8
I20
F1.0
S'good'
p272
I0
tp273
a(I8
I20
I0
S'old'
p274
I0
tp275
a(I8
I27
F-0.625
S'other'
p276
I0
tp277
a(I8
I27
I0
S'standard'
p278
I0
tp279
a(I8
I39
I0
S'old'
p280
I0
tp281
a(I8
I103
F1.0
S'best'
p282
I0
tp283
a(I8
I109
I0
S'third'
p284
I0
tp285
a(I10
I29
F-0.625
S'glad'
p286
I0
tp287
a(I10
I54
F-0.25
S'inexpensive'
p288
I0
tp289
a(I10
I65
F-0.625
S'bad'
p290
I0
tp291
a(I12
I5
F0.625
g244
I0
tp292
a(I12
I33
F-0.25
S'white'
p293
I0
tp294
a(I12
I35
I0
S'website'
p295
I0
tp296
a(I14
I14
F0.25
S'original'
p297
I0
tp298
a(I14
I14
F0.125
S'able'
p299
I0
tp300
a(I15
I33
F0.625
S'easier'
p301
I0
tp302
a(I16
I31
F0.875
S'happy'
p303
I0
tp304
a(I16
I33
F1.0
S'better'
p305
I0
tp306
a(I16
I33
F0.125
S'typical'
p307
I0
tp308
a(I16
I33
F0.375
S'similar'
p309
I0
tp310
a(I17
I14
I0
S'current'
p311
I0
tp312
a(I17
I23
I0
S'current'
p313
I0
tp314
a(I17
I43
I0
S'only'
p315
I0
tp316
a(I19
I106
F-0.5
S'sure'
p317
I0
tp318
a(I22
I0
F1.0
S'good'
p319
I0
tp320
a(I23
I31
I0
S'old'
p321
I0
tp322
a(I23
I73
F-0.75
S'comfortable'
p323
I0
tp324
a(I25
I15
F1.0
S'best'
p325
I0
tp326
a(I26
I26
I0
S'old'
p327
I0
tp328
a(I29
I14
F1.0
S'best'
p329
I0
tp330
a(I29
I36
I0
g252
I0
tp331
a(I30
I30
F0.375
S'new'
p332
I0
tp333
a(I30
I36
I0
S'current'
p334
I0
tp335
a(I30
I37
F-0.375
S'simple'
p336
I0
tp337
a(I30
I37
F0.5
S'possible'
p338
I0
tp339
a(I31
I0
F0.375
S'available'
p340
I0
tp341
a(I31
I0
I0
S'website'
p342
I0
tp343
a(I31
I6
I0
S'website'
p344
I0
tp345
a(I31
I22
F-0.25
S'cheaper'
p346
I0
tp347
a(I31
I37
F0.375
S'new'
p348
I0
tp349
a(I31
I43
I0
S'basic'
p350
I0
tp351
a(I31
I107
F0.125
S'first'
p352
I0
tp353
a(I31
I107
F-0.25
S'white'
p354
I0
tp355
a(I32
I28
I0
S'older'
p356
I0
tp357
a(I34
I39
F0.125
S'able'
p358
I0
tp359
a(I34
I60
F-0.5
S'sure'
p360
I0
tp361
a(I35
I7
I0
S'old'
p362
I0
tp363
a(I37
I13
I0
S'old'
p364
I0
tp365
a(I40
I32
I0
S'old'
p366
I0
tp367
a(I41
I20
I0
S'cheapskate'
p368
I0
tp369
a(I41
I78
F-0.875
S'worst'
p370
I0
tp371
a(I42
I20
F0.875
S'nice'
p372
I0
tp373
a(I1
I3
I0
S'great'
p374
I16
tp375
a(I7
I12
F-0.625
S'free'
p376
I16
tp377
a(I10
I25
F1.0
S'good'
p378
I16
tp379
a(I16
I52
F0.875
g246
I16
tp380
a(I19
I16
F1.0
S'best'
p381
I16
tp382
a(I19
I47
F1.0
S'good'
p383
I16
tp384
a(I19
I109
I0
g250
I16
tp385
a(I24
I6
I0
S'old'
p386
I16
tp387
a(I24
I6
F0.375
S'new'
p388
I16
tp389
a(I29
I30
I0
S'great'
p390
I16
tp391
a(I33
I0
I0
S'great'
p392
I16
tp393
a(I34
I42
I0
S'different'
p394
I16
tp395
a(I41
I90
F0.25
g268
I16
tp396
a(I10
I3
F-0.5
g256
I11
tp397
a(I15
I29
I0
S'many'
p398
I11
tp399
a(I19
I73
I0
g248
I11
tp400
a(I31
I46
F-0.5
g254
I11
tp401
a(I31
I49
F-0.5
g262
I11
tp402
as(S'minutes'
p403
S'and'
p404
S'service'
p405
tp406
(lp407
(I8
I9
I0
S'old'
p408
I0
tp409
a(I33
I0
I0
g392
I0
tp410
as(S'white'
p411
tp412
(lp413
(I16
I40
F-0.75
S'little'
p414
I9
tp415
a(I42
I7
F-0.375
S'black'
p416
I9
tp417
as(S'built'
p418
S'in'
p419
S'browser'
p420
tp421
(lp422
(I8
I13
F0.5
S'second'
p423
I0
tp424
a(I8
I13
F0.5
g423
I0
tp425
a(I8
I14
I0
S'standard'
p426
I0
tp427
a(I8
I35
F0.875
S'happy'
p428
I0
tp429
a(I8
I35
I0
S'standard'
p430
I0
tp431
a(I14
I7
I0
S'great'
p432
I0
tp433
a(I23
I92
F-0.125
S'slow'
p434
I0
tp435
a(I34
I73
I0
S'numerical'
p436
I0
tp437
a(I34
I114
I0
S'mobile'
p438
I0
tp439
a(I37
I15
I0
S'basic'
p440
I0
tp441
a(I41
I6
I0
S'useful'
p442
I0
tp443
as(S'upgrade'
p444
tp445
(lp446
(I1
I94
F-0.625
S'other'
p447
I3
tp448
a(I32
I31
F0.875
S'nice'
p449
I3
tp450
a(I41
I50
F0.375
S'newer'
p451
I3
tp452
as(S'smart'
p453
tp454
(lp455
(I3
I35
I0
S'close'
p456
I10
tp457
a(I14
I13
I0
S'close'
p458
I10
tp459
a(I14
I13
F0.875
S'happy'
p460
I10
tp461
a(I17
I63
I0
S'most'
p462
I10
tp463
a(I19
I76
F0.125
S'typical'
p464
I10
tp465
a(I21
I10
F0.25
S'bigger'
p466
I10
tp467
a(I23
I63
F0.75
S'glorified'
p468
I10
tp469
a(I23
I63
I0
S'basic'
p470
I10
tp471
a(I40
I29
F0.375
S'similar'
p472
I10
tp473
as(S'e'
p474
S'mail'
p475
tp476
(lp477
(I1
I48
F-0.5
S'unwanted'
p478
I2
tp479
a(I1
I48
F-0.5
g478
I13
tp480
as(S'calls'
p481
tp482
(lp483
(I1
I72
F0.75
S'receive'
p484
I0
tp485
a(I10
I6
I0
S'more'
p486
I0
tp487
a(I16
I49
F1.0
S'best'
p488
I0
tp489
a(I19
I11
F0.75
S'receive'
p490
I0
tp491
a(I19
I11
F-0.5
S'actual'
p492
I0
tp493
a(I29
I10
F0.5
S'clear'
p494
I0
tp495
a(I29
I21
F-0.5
S'less'
p496
I0
tp497
a(I34
I37
F-0.5
S'international'
p498
I0
tp499
a(I38
I16
F-0.25
S'dropped'
p500
I0
tp501
a(I41
I61
I0
S'social'
p502
I0
tp503
as(S'and'
p504
S'service'
p505
S'time'
p506
tp507
(lp508
(I15
I18
I0
S'more'
p509
I0
tp510
a(I19
I51
F-0.5
S'long'
p511
I0
tp512
a(I31
I12
F-0.75
S'short'
p513
I0
tp514
a(I31
I12
I0
S'later'
p515
I0
tp516
a(I33
I0
I0
g392
I0
tp517
as(S'mp3'
p518
S'player'
p519
tp520
(lp521
(I41
I26
F0.875
S'music'
p522
I1
tp523
as(S'land'
p524
S'line'
p525
tp526
(lp527
(I8
I62
I0
S'internet'
p528
I0
tp529
a(I19
I10
F0.875
S'nice'
p530
I0
tp531
a(I30
I48
I0
S'old'
p532
I0
tp533
as(S'music'
p534
tp535
(lp536
(I1
I102
F0.25
S'favorite'
p537
I0
tp538
as(S'new'
p539
S'sim'
p540
S'card'
p541
tp542
(lp543
(I15
I3
F0.375
g6
I0
tp544
a(I15
I11
F0.375
g8
I0
tp545
a(I23
I37
F0.375
g10
I0
tp546
a(I24
I20
F0.5
g12
I0
tp547
a(I24
I21
F0.375
g14
I0
tp548
a(I24
I25
F0.375
g16
I0
tp549
a(I8
I114
F0.875
S'music'
p550
I0
tp551
a(I15
I3
F0.375
g6
I0
tp552
a(I15
I11
F0.375
g8
I0
tp553
a(I23
I37
F0.375
g10
I0
tp554
a(I24
I20
F0.5
g12
I0
tp555
a(I24
I21
F0.375
g14
I0
tp556
a(I24
I25
F0.375
g16
I0
tp557
as(S'with'
p558
S'triple'
p559
S'minutes'
p560
tp561
(lp562
(I10
I71
F-0.25
S'triple'
p563
I0
tp564
a(I14
I30
F-0.25
S'triple'
p565
I0
tp566
a(I25
I27
F0.625
S'perfect'
p567
I0
tp568
a(I31
I119
F-0.25
S'triple'
p569
I0
tp570
a(I34
I16
F-0.25
S'triple'
p571
I0
tp572
a(I41
I55
F-0.25
S'triple'
p573
I0
tp574
a(I10
I71
F-0.25
g563
I0
tp575
a(I14
I30
F-0.25
g565
I0
tp576
a(I19
I85
F-0.636
S'genuine'
p577
I0
tp578
a(I19
I85
F-0.25
S'triple'
p579
I0
tp580
a(I23
I81
F-0.375
S'double'
p581
I0
tp582
a(I23
I81
F-0.5
S'regular'
p583
I0
tp584
a(I23
I83
I0
S'old'
p585
I0
tp586
a(I23
I83
F0.375
S'new'
p587
I0
tp588
a(I25
I27
F0.625
g567
I0
tp589
a(I31
I97
F-0.75
S'stupid'
p590
I0
tp591
a(I31
I119
F-0.25
g569
I0
tp592
a(I34
I16
F-0.25
g571
I0
tp593
a(I37
I31
F1.0
S'best'
p594
I0
tp595
a(I41
I55
F-0.25
g573
I0
tp596
a(I41
I93
I0
S'great'
p597
I0
tp598
a(I43
I7
F-0.5
S'sure'
p599
I0
tp600
a(I25
I27
F0.625
g567
I1
tp601
a(I37
I31
F1.0
g594
I1
tp602
a(I41
I93
I0
g597
I1
tp603
a(I43
I7
F-0.5
g599
I1
tp604
as(S'triple'
p605
S'minutes'
p606
S'make'
p607
tp608
(lp609
(I37
I31
F1.0
g594
I0
tp610
a(I43
I7
F-0.5
g599
I0
tp611
as(S'much'
p612
S'better'
p613
tp614
(lp615
(I6
I2
F0.375
S'much'
p616
I9
tp617
a(I17
I4
F0.375
S'much'
p618
I9
tp619
as(S'one'
p620
S'for'
p621
S'wife'
p622
tp623
(lp624
(I23
I21
F-0.375
S'black'
p625
I0
tp626
a(I23
I21
F0.125
S'first'
p627
I0
tp628
a(I23
I21
F0.5
S'second'
p629
I0
tp630
a(I43
I8
F-0.125
S'mine'
p631
I0
tp632
as(S'family'
p633
S'value'
p634
S'plan'
p635
tp636
(lp637
(I7
I10
F-0.75
S'secondary'
p638
I0
tp639
a(I7
I10
F-0.75
g638
I0
tp640
as(S'micro'
p641
S'sd'
p642
S'card'
p643
tp644
(lp645
(I31
I34
I0
S'included'
p646
I0
tp647
a(I5
I17
I0
S'big'
p648
I0
tp649
a(I31
I34
I0
g646
I0
tp650
as(S'sim'
p651
S'cards'
p652
tp653
(lp654
(I15
I11
F0.375
g8
I0
tp655
a(I41
I40
I0
S'later'
p656
I0
tp657
as(S'wifi'
p658
tp659
(lp660
(I1
I40
F-0.625
S'other'
p661
I0
tp662
a(I8
I16
F-0.125
S'public'
p663
I0
tp664
a(I8
I77
F-0.875
S'trouble'
p665
I0
tp666
a(I12
I39
F-0.5
S'poor'
p667
I0
tp668
a(I14
I30
F0.375
S'available'
p669
I0
tp670
a(I16
I14
F-0.625
S'free'
p671
I0
tp672
a(I16
I21
F0.625
S'easy'
p673
I0
tp674
a(I16
I21
F0.625
S'easy'
p675
I0
tp676
a(I16
I38
F0.625
S'easy'
p677
I0
tp678
a(I17
I45
F0.5
S'functional'
p679
I0
tp680
a(I19
I59
I0
S'e-mail'
p681
I0
tp682
a(I19
I59
F-0.125
S'public'
p683
I0
tp684
a(I23
I68
I0
S'connect'
p685
I0
tp686
a(I34
I50
F0.125
S'capable'
p687
I0
tp688
a(I34
I125
F0.125
S'first'
p689
I0
tp690
a(I41
I97
F-0.125
S'slow'
p691
I0
tp692
as(S'apps'
p693
tp694
(lp695
(I17
I64
F0.625
S'major'
p696
I0
tp697
a(I17
I64
I0
S'most'
p698
I0
tp699
a(I19
I45
I0
S'few'
p700
I0
tp701
a(I23
I91
I0
S'useful'
p702
I0
tp703
a(I23
I91
I0
S'such'
p704
I0
tp705
a(I23
I94
I0
S'such'
p706
I0
tp707
a(I30
I58
I0
S'few'
p708
I0
tp709
as(S'amazon'
p710
tp711
(lp712
(I16
I0
I0
S'only'
p713
I13
tp714
a(I16
I10
F1.0
S'good'
p715
I13
tp716
a(I24
I30
F0.125
S'usual'
p717
I13
tp718
a(I29
I41
F-0.125
S'mine'
p719
I13
tp720
a(I29
I44
F-0.25
S'cheapest'
p721
I13
tp722
as(S'flip'
p723
tp724
(lp725
(I3
I35
I0
S'old'
p726
I4
tp727
a(I11
I1
I0
S'old'
p728
I4
tp729
a(I12
I4
I0
S'old'
p730
I4
tp731
a(I16
I51
F-0.5
S'afraid'
p732
I4
tp733
a(I17
I11
I0
S'prehistoric'
p734
I4
tp735
a(I17
I18
I0
S'great'
p736
I4
tp737
a(I26
I18
I0
S'old'
p738
I4
tp739
a(I31
I88
F-0.375
S'fancier'
p740
I4
tp741
a(I31
I88
F-0.375
S'simple'
p742
I4
tp743
a(I41
I50
I0
S'old'
p744
I4
tp745
as(S'touch'
p746
S'screen'
p747
tp748
(lp749
(I6
I18
F0.5
S'touch'
p750
I2
tp751
a(I8
I57
F0.25
S'bigger'
p752
I2
tp753
a(I10
I36
F0.25
S'responsive'
p754
I2
tp755
a(I16
I20
F0.5
S'touch'
p756
I2
tp757
a(I23
I2
F0.25
S'responsive'
p758
I2
tp759
a(I23
I2
I0
S'capacitive'
p760
I2
tp761
a(I23
I10
F0.5
S'touch'
p762
I2
tp763
a(I23
I52
F0.125
S'first'
p764
I2
tp765
a(I24
I15
F0.375
S'reliable'
p766
I2
tp767
a(I25
I10
F0.875
S'nice'
p768
I2
tp769
a(I25
I33
F0.25
S'responsive'
p770
I2
tp771
a(I29
I26
F0.5
S'touch'
p772
I2
tp773
a(I29
I34
F0.125
S'digital'
p774
I2
tp775
a(I29
I40
F-0.25
S'inexpensive'
p776
I2
tp777
a(I29
I43
F0.625
S'easy'
p778
I2
tp779
a(I30
I3
F0.5
S'touch'
p780
I2
tp781
a(I30
I42
I0
S'old'
p782
I2
tp783
a(I30
I42
F0.625
S'easy'
p784
I2
tp785
a(I30
I42
I0
S'great'
p786
I2
tp787
a(I30
I65
F0.875
S'nice'
p788
I2
tp789
a(I34
I13
F0.5
S'touch'
p790
I2
tp791
a(I34
I14
F0.5
S'touch'
p792
I2
tp793
a(I34
I140
F0.5
S'touch'
p794
I2
tp795
a(I38
I14
F0.5
S'touch'
p796
I2
tp797
a(I40
I29
F-0.75
S'tat'
p798
I2
tp799
a(I40
I29
F0.5
S'touch'
p800
I2
tp801
a(I41
I1
F0.5
S'touch'
p802
I2
tp803
a(I42
I1
F0.5
S'touch'
p804
I2
tp805
a(I42
I1
I0
S'large'
p806
I2
tp807
as.