(dp0
(S'something'
p1
tp2
(lp3
(I9
I19
I0
S'android'
p4
tp5
a(I9
I19
I0
S'great'
p6
tp7
a(I51
I19
F0.375
S'reflective'
p8
tp9
a(I55
I0
F-0.625
S'other'
p10
tp11
a(I83
I34
I0
S'rich'
p12
tp13
a(I115
I0
F0.375
S'new'
p14
tp15
a(I131
I3
F-0.625
S'fresh'
p16
tp17
a(I143
I4
I0
S'least'
p18
tp19
a(I169
I1
F-0.25
S'ready'
p20
tp21
as(S'right'
p22
tp23
(lp24
(I14
I13
F0.25
S'sweet'
p25
tp26
a(I20
I10
I0
S'great'
p27
tp28
a(I67
I4
F1.0
S'best'
p29
tp30
a(I131
I23
I0
S'individual'
p31
tp32
a(I151
I48
F0.375
S'upper'
p33
tp34
as(S'facing'
p35
S'speakers'
p36
tp37
(lp38
(I37
I20
I0
S'great'
p39
tp40
a(I82
I9
F-0.125
S'front'
p41
tp42
a(I83
I31
F-0.125
S'front'
p43
tp44
a(I102
I0
I0
S'full'
p45
tp46
a(I131
I9
F0.625
S'decent'
p47
tp48
a(I139
I16
F0.625
S'easy'
p49
tp50
as(S'n'
p51
S'r'
p52
S'hand'
p53
tp54
(lp55
(I11
I3
F-0.625
S'other'
p56
tp57
a(I35
I5
I0
S'different'
p58
tp59
a(I70
I2
I0
S'substantial'
p60
tp61
a(I70
I2
F-0.5
S'heavy'
p62
tp63
a(I84
I25
I0
S'same'
p64
tp65
a(I138
I26
I0
S'different'
p66
tp67
a(I138
I67
F-0.875
S'hard'
p68
tp69
a(I139
I21
F-0.625
S'other'
p70
tp71
a(I141
I3
I0
S'large'
p72
tp73
a(I146
I1
I0
S'large'
p74
tp75
a(I146
I1
I0
S'female'
p76
tp77
a(I151
I6
F0.125
S'solid'
p78
tp79
a(I157
I2
F-0.375
S'small'
p80
tp81
a(I172
I23
F0.125
S'able'
p82
tp83
as(S'removable'
p84
S'battery'
p85
tp86
(lp87
(I3
I24
F0.625
S'removable'
p88
tp89
a(I4
I20
I0
S'wish'
p90
tp91
a(I4
I20
F0.625
S'removable'
p92
tp93
a(I9
I6
F0.625
S'removable'
p94
tp95
a(I24
I66
F0.625
S'removable'
p96
tp97
a(I24
I69
F0.625
S'removable'
p98
tp99
a(I67
I25
I0
S'faster'
p100
tp101
a(I67
I25
F0.625
S'removable'
p102
tp103
a(I102
I5
F0.625
S'removable'
p104
tp105
a(I147
I2
F0.625
S'removable'
p106
tp107
a(I158
I59
F0.625
S'removable'
p108
tp109
as(S'home'
p110
S'screen'
p111
tp112
(lp113
(I14
I19
I0
S'sensitive'
p114
tp115
a(I24
I17
F0.5
S'whole'
p116
tp117
a(I24
I17
F0.375
S'new'
p118
tp119
a(I28
I1
F0.75
S'beautiful'
p120
tp121
a(I28
I1
I0
S'most'
p122
tp123
a(I54
I20
I0
S'different'
p124
tp125
a(I69
I16
I0
S'different'
p126
tp127
a(I161
I7
F1.0
S'best'
p128
tp129
as(S'quality'
p130
tp131
(lp132
(I2
I2
F1.0
S'good'
p133
tp134
a(I9
I6
I0
S'great'
p135
tp136
a(I16
I0
F1.0
S'good'
p137
tp138
a(I19
I50
I0
S'great'
p139
tp140
a(I23
I7
F1.0
S'good'
p141
tp142
a(I24
I6
I0
S'plastic'
p143
tp144
a(I25
I7
F1.0
S'best'
p145
tp146
a(I25
I7
I0
S'high'
p147
tp148
a(I43
I17
I0
S'great'
p149
tp150
a(I45
I21
F-0.25
S'highest'
p151
tp152
a(I50
I3
I0
S'high'
p153
tp154
a(I51
I1
I0
S'phenomenal'
p155
tp156
a(I54
I2
I0
S'unbelievable'
p157
tp158
a(I54
I8
I0
S'high'
p159
tp160
a(I54
I9
I0
S'high'
p161
tp162
a(I68
I4
F1.0
S'best'
p163
tp164
a(I80
I5
I0
S'high'
p165
tp166
a(I85
I1
F0.625
S'easy'
p167
tp168
a(I85
I1
F0.625
S'extraordinary'
p169
tp170
a(I124
I14
F1.0
S'good'
p171
tp172
a(I132
I5
I0
S'real'
p173
tp174
a(I138
I62
I0
S'great'
p175
tp176
a(I138
I62
I0
S'tinny'
p177
tp178
a(I147
I2
F1.0
S'good'
p179
tp180
a(I151
I36
I0
S'same'
p181
tp182
a(I155
I23
F-0.25
S'lower'
p183
tp184
a(I176
I2
F1.0
S'good'
p185
tp186
as(S'a'
p187
S'replaceable'
p188
S'battery'
p189
tp190
(lp191
(I19
I37
F0.625
S'replaceable'
p192
tp193
a(I19
I37
I0
S'such'
p194
tp195
a(I19
I37
F0.625
S'replaceable'
p196
tp197
a(I19
I49
F0.625
S'replaceable'
p198
tp199
a(I121
I5
F0.625
S'replaceable'
p200
tp201
a(I138
I92
F0.625
S'replaceable'
p202
tp203
a(I138
I92
F0.5
S'second'
p204
tp205
a(I138
I102
F0.625
S'replaceable'
p206
tp207
as(S'features'
p208
tp209
(lp210
(I11
I3
I0
S'great'
p211
tp212
a(I12
I2
F0.25
S'favorite'
p213
tp214
a(I19
I36
I0
S'great'
p215
tp216
a(I39
I0
I0
S'great'
p217
tp218
a(I45
I14
I0
S'useful'
p219
tp220
a(I56
I10
I0
S'useful'
p221
tp222
a(I83
I41
F-0.625
S'other'
p223
tp224
a(I83
I41
F0.375
S'available'
p225
tp226
a(I83
I53
I0
S'android'
p227
tp228
a(I93
I2
I0
S'many'
p229
tp230
a(I129
I24
I0
S'many'
p231
tp232
a(I138
I65
F0.375
S'interesting'
p233
tp234
a(I139
I14
I0
S'great'
p235
tp236
a(I139
I24
F0.375
S'new'
p237
tp238
a(I151
I55
I0
S'coolest'
p239
tp240
a(I152
I4
F-0.625
S'other'
p241
tp242
a(I156
I11
I0
S'cool'
p243
tp244
a(I157
I6
F0.375
S'new'
p245
tp246
a(I157
I8
I0
S'more'
p247
tp248
a(I160
I1
I0
S'great'
p249
tp250
a(I165
I2
F0.125
S'plenty'
p251
tp252
a(I172
I16
F0.875
S'nice'
p253
tp254
as(S'look'
p255
S'and'
p256
S'feel'
p257
tp258
(lp259
(I44
I2
F0.125
S'equal'
p260
tp261
as(S'experience'
p262
tp263
(lp264
(I4
I14
I0
S'traditional'
p265
tp266
a(I4
I14
I0
S'android'
p267
tp268
a(I7
I3
F0.5
S'whole'
p269
tp270
a(I19
I47
I0
S'great'
p271
tp272
a(I24
I8
I0
S'mobile'
p273
tp274
a(I35
I3
F-0.625
S'other'
p275
tp276
a(I35
I3
I0
S'normal'
p277
tp278
a(I37
I17
F0.5
S'elegant'
p279
tp280
a(I38
I17
I0
S'android'
p281
tp282
a(I38
I20
F-0.5
S'intrusive'
p283
tp284
a(I38
I20
I0
S'least'
p285
tp286
a(I54
I22
F0.25
S'consistent'
p287
tp288
a(I55
I0
F1.0
S'good'
p289
tp290
a(I56
I5
F0.5
S'possible'
p291
tp292
a(I56
I5
I0
S'limited'
p293
tp294
a(I56
I6
F-0.625
S'bad'
p295
tp296
a(I56
I24
I0
S'limited'
p297
tp298
a(I69
I14
F0.125
S'first'
p299
tp300
a(I69
I14
F0.5
S'true'
p301
tp302
a(I69
I14
F-0.25
S'google'
p303
tp304
a(I157
I8
I0
S'great'
p305
tp306
as(S'sound'
p307
tp308
(lp309
(I24
I51
F1.0
S'best'
p310
tp311
a(I24
I57
F-0.25
S'anemic'
p312
tp313
a(I28
I1
I0
S'incredible'
p314
tp315
a(I37
I21
F-0.375
S'serious'
p316
tp317
a(I61
I10
I0
S'great'
p318
tp319
a(I84
I13
F1.0
S'best'
p320
tp321
a(I87
I15
F0.25
S'effective'
p322
tp323
a(I90
I0
I0
S'great'
p324
tp325
a(I102
I0
F0.25
S'sharp'
p326
tp327
a(I138
I62
F-0.5
S'weak'
p328
tp329
a(I143
I13
I0
S'great'
p330
tp331
a(I144
I6
I0
S'more'
p332
tp333
a(I156
I34
I0
S'tinny'
p334
tp335
a(I156
I34
F-0.5
S'weak'
p336
tp337
a(I158
I56
I0
S'rich'
p338
tp339
a(I161
I7
F1.0
S'best'
p340
tp341
a(I177
I7
I0
S'incredible'
p342
tp343
as(S'and'
p344
S'battery'
p345
S'life'
p346
tp347
(lp348
(I3
I24
F0.625
g88
tp349
a(I4
I20
F1.0
S'good'
p350
tp351
a(I4
I20
I0
g90
tp352
a(I4
I20
F0.625
g92
tp353
a(I9
I3
I0
S'great'
p354
tp355
a(I42
I3
F1.0
S'good'
p356
tp357
a(I55
I1
I0
S'great'
p358
tp359
a(I71
I1
I0
S'great'
p360
tp361
a(I89
I2
F1.0
S'good'
p362
tp363
a(I114
I21
F-0.5
S'poor'
p364
tp365
a(I123
I3
F1.0
S'good'
p366
tp367
a(I138
I88
F-0.25
S'lowest'
p368
tp369
a(I138
I92
F0.625
g202
tp370
a(I138
I92
F0.5
g204
tp371
a(I172
I24
F0.25
S'bigger'
p372
tp373
a(I172
I24
F1.0
S'good'
p374
tp375
a(I185
I1
F1.0
S'good'
p376
tp377
as(S'stock'
p378
S'android'
p379
tp380
(lp381
(I139
I11
I0
S'fast'
p382
tp383
a(I172
I3
I0
S'close'
p384
tp385
as(S'since'
p386
tp387
(lp388
(I158
I7
F0.125
S'last'
p389
tp390
as(S'software'
p391
tp392
(lp393
(I44
I3
F0.5
S'comparable'
p394
tp395
a(I45
I1
F-0.625
S'bad'
p396
tp397
a(I45
I13
F1.0
S'best'
p398
tp399
a(I56
I6
I0
S'full'
p400
tp401
a(I70
I27
F1.0
S'better'
p402
tp403
a(I83
I54
I0
S'own'
p404
tp405
a(I92
I3
F-0.5
S'certain'
p406
tp407
a(I92
I4
I0
S'useful'
p408
tp409
a(I103
I0
I0
S'great'
p410
tp411
a(I126
I3
I0
S'great'
p412
tp413
a(I126
I3
F0.625
S'easy'
p414
tp415
a(I143
I25
F-0.625
S'other'
p416
tp417
a(I152
I10
I0
S'few'
p418
tp419
a(I152
I13
F0.375
S'new'
p420
tp421
as(g51
S'terms'
p422
tp423
(lp424
(I37
I68
F0.625
S'polish'
p425
tp426
a(I129
I4
I0
S'more'
p427
tp428
a(I129
I4
F0.5
S'elegant'
p429
tp430
as(S'home'
p431
S'and'
p432
S'back'
p433
tp434
(lp435
(I24
I80
F-0.75
S'unresponsive'
p436
tp437
a(I131
I22
I0
S'physical'
p438
tp439
a(I131
I26
F0.125
S'key'
p440
tp441
as(g51
S'low'
p442
S'light'
p443
tp444
(lp445
(I24
I46
F-0.25
S'low'
p446
tp447
a(I25
I8
F0.375
S'allow'
p448
tp449
a(I25
I8
F1.0
S'better'
p450
tp451
a(I25
I8
F-0.25
S'low'
p452
tp453
a(I92
I7
F-0.25
S'low'
p454
tp455
a(I135
I28
I0
S'great'
p456
tp457
a(I135
I28
F-0.25
S'low'
p458
tp459
a(I139
I7
F-0.25
S'low'
p460
tp461
a(I154
I1
F-0.25
S'low'
p462
tp463
a(I163
I13
F-0.25
S'low'
p464
tp465
as(S'love'
p466
tp467
(lp468
(I109
I0
F1.0
S'love'
p469
tp470
a(I131
I2
I0
S'android'
p471
tp472
as(S'fast'
p473
tp474
(lp475
(I118
I0
F1.0
S'good'
p476
tp477
a(I155
I14
F-0.125
S'super'
p478
tp479
a(I179
I2
F-0.375
S'simple'
p480
tp481
as(S'performance'
p482
tp483
(lp484
(I28
I1
I0
S'great'
p485
tp486
a(I37
I40
F0.625
S'superior'
p487
tp488
a(I54
I36
F-0.25
S'google'
p489
tp490
a(I80
I2
F0.375
S'much'
p491
tp492
a(I80
I2
F0.875
S'important'
p493
tp494
a(I92
I4
I0
S'real'
p495
tp496
a(I92
I4
F0.625
S'smoothy'
p497
tp498
a(I92
I4
F0.5
S'comparable'
p499
tp500
a(I92
I9
F0.25
S'powerful'
p501
tp502
a(I123
I1
I0
S'fast'
p503
tp504
a(I184
I1
F0.875
S'happy'
p505
tp506
as(S'sound'
p507
S'quality'
p508
tp509
(lp510
(I9
I6
I0
g135
tp511
a(I24
I51
F1.0
g310
tp512
a(I24
I57
F-0.25
g312
tp513
a(I28
I1
I0
g314
tp514
a(I37
I21
F-0.375
g316
tp515
a(I43
I17
I0
g149
tp516
a(I54
I2
I0
g157
tp517
a(I54
I9
I0
g161
tp518
a(I85
I1
F0.625
g167
tp519
a(I85
I1
F0.625
g169
tp520
a(I138
I62
I0
g175
tp521
a(I138
I62
I0
g177
tp522
a(I138
I62
F-0.5
g328
tp523
a(I143
I13
I0
g330
tp524
a(I144
I6
I0
g332
tp525
a(I151
I36
I0
g181
tp526
a(I158
I56
I0
g338
tp527
a(I176
I2
F1.0
g185
tp528
as(g187
S'long'
p529
S'time'
p530
tp531
(lp532
(I45
I40
F-0.5
S'long'
p533
tp534
a(I56
I32
F-0.5
S'long'
p535
tp536
a(I143
I45
F-0.5
S'long'
p537
tp538
a(I172
I39
F-0.5
S'long'
p539
tp540
as(S'sense'
p541
tp542
(lp543
(I11
I3
F-0.625
S'clean'
p544
tp545
a(I37
I44
I0
S'more'
p546
tp547
a(I37
I50
I0
S'rich'
p548
tp549
a(I38
I18
I0
S'minimal'
p550
tp551
a(I67
I2
F-0.375
S'top'
p552
tp553
a(I67
I2
I0
S'android'
p554
tp555
a(I70
I18
F0.375
S'much'
p556
tp557
a(I133
I3
F-0.625
S'clean'
p558
tp559
a(I138
I37
I0
S'useful'
p560
tp561
a(I139
I10
I0
S'fast'
p562
tp563
a(I139
I13
F0.625
S'notice'
p564
tp565
a(I155
I12
F0.625
S'easy'
p566
tp567
a(I158
I15
F0.625
S'polish'
p568
tp569
a(I158
I15
F-0.125
S'present'
p570
tp571
a(I158
I33
I0
S'more'
p572
tp573
a(I158
I34
I0
S'more'
p574
tp575
as(S'getting'
p576
tp577
(lp578
(I83
I28
F0.5
S'technical'
p579
tp580
as(g187
S'little'
p581
S'bit'
p582
tp583
(lp584
(I176
I0
F-0.75
S'little'
p585
tp586
as(S'build'
p587
S'quality'
p588
tp589
(lp590
(I16
I0
F1.0
g137
tp591
a(I24
I6
I0
S'great'
p592
tp593
a(I24
I6
I0
g143
tp594
a(I24
I68
F1.0
S'better'
p595
tp596
a(I51
I1
I0
g155
tp597
a(I132
I5
I0
g173
tp598
as(S'google'
p599
tp600
(lp601
(I24
I31
I0
S'more'
p602
tp603
a(I45
I36
F-0.625
S'free'
p604
tp605
a(I70
I31
F0.375
S'new'
p606
tp607
as(S'things'
p608
tp609
(lp610
(I14
I7
F-0.75
S'inconvenient'
p611
tp612
a(I14
I7
F-0.625
S'other'
p613
tp614
a(I14
I10
I0
S'many'
p615
tp616
a(I14
I10
I0
S'more'
p617
tp618
a(I29
I3
F-0.25
S'cheaper'
p619
tp620
a(I29
I3
I0
S'solder'
p621
tp622
a(I29
I3
I0
S'more'
p623
tp624
a(I62
I0
F0.375
S'new'
p625
tp626
a(I70
I4
F0.625
S'aware'
p627
tp628
a(I83
I48
I0
S'coolest'
p629
tp630
a(I140
I0
F1.0
S'good'
p631
tp632
a(I152
I2
I0
S'many'
p633
tp634
a(I155
I10
F-0.625
S'other'
p635
tp636
a(I156
I4
F-0.75
S'frivolous'
p637
tp638
a(I165
I0
F1.0
S'good'
p639
tp640
a(I169
I5
I0
S'more'
p641
tp642
a(I169
I7
I0
S'same'
p643
tp644
a(I172
I36
F-0.75
S'worse'
p645
tp646
a(I178
I12
I0
S'more'
p647
tp648
a(I185
I0
F0.125
S'enough'
p649
tp650
a(I185
I0
F1.0
S'good'
p651
tp652
as(S'apple'
p653
tp654
(lp655
(I24
I30
F-0.25
S'google'
p656
tp657
a(I24
I41
F0.375
S'much'
p658
tp659
a(I44
I1
I0
S'more'
p660
tp661
a(I131
I31
I0
S'same'
p662
tp663
a(I131
I31
I0
S'old'
p664
tp665
a(I147
I2
F0.25
S'used'
p666
tp667
a(I154
I3
I0
S'latest'
p668
tp669
a(I169
I16
I0
S'many'
p670
tp671
as(S'power'
p672
tp673
(lp674
(I45
I24
F-0.5
S'long'
p675
tp676
a(I50
I5
F0.5
S'true'
p677
tp678
as(S'photos'
p679
tp680
(lp681
(I3
I20
F1.0
S'good'
p682
tp683
a(I30
I12
F1.0
S'good'
p684
tp685
a(I30
I12
F-0.25
S'low'
p686
tp687
a(I37
I31
I0
S'large'
p688
tp689
a(I37
I51
F0.5
S'flat'
p690
tp691
a(I45
I8
F0.75
S'beautiful'
p692
tp693
a(I57
I18
I0
S'normal'
p694
tp695
a(I57
I18
F-0.625
S'light'
p696
tp697
a(I82
I13
F1.0
S'better'
p698
tp699
a(I129
I21
F1.0
S'good'
p700
tp701
a(I158
I60
F-0.25
S'low'
p702
tp703
as(S'well'
p704
tp705
(lp706
(I150
I0
F-0.25
S'modern'
p707
tp708
as(S'front'
p709
S'facing'
p710
S'speakers'
p711
tp712
(lp713
(I37
I20
I0
g39
tp714
a(I82
I9
F-0.125
g41
tp715
a(I83
I31
F-0.125
g43
tp716
a(I102
I0
I0
g45
tp717
a(I131
I9
F0.625
g47
tp718
a(I139
I16
F0.625
g49
tp719
as(S'design'
p720
tp721
(lp722
(I3
I9
F-0.5
S'beef'
p723
tp724
a(I14
I16
I0
S'physical'
p725
tp726
a(I14
I20
F-0.625
S'other'
p727
tp728
a(I16
I0
I0
S'physical'
p729
tp730
a(I24
I13
F0.625
S'industrial'
p731
tp732
a(I24
I64
I0
S'same'
p733
tp734
a(I28
I1
F0.75
S'beautiful'
p735
tp736
a(I37
I16
F0.625
S'industrial'
p737
tp738
a(I38
I4
F-0.75
S'comfortable'
p739
tp740
a(I38
I11
I0
S'next'
p741
tp742
a(I44
I2
F0.625
S'industrial'
p743
tp744
a(I45
I5
F0.75
S'beautiful'
p745
tp746
a(I56
I5
I0
S'efficient'
p747
tp748
a(I56
I10
F0.75
S'beautiful'
p749
tp750
a(I56
I10
F1.0
S'best'
p751
tp752
a(I68
I2
F0.625
S'sexy'
p753
tp754
a(I68
I2
F0.25
S'sharp'
p755
tp756
a(I156
I28
F0.75
S'beautiful'
p757
tp758
a(I156
I28
I0
S'ergonomic'
p759
tp760
a(I156
I42
F0.125
S'last'
p761
tp762
a(I156
I42
I0
S'least'
p763
tp764
a(I157
I0
F0.125
S'solid'
p765
tp766
a(I157
I0
F0.5
S'stylish'
p767
tp768
a(I157
I0
F-0.25
S'modern'
p769
tp770
a(I157
I0
F1.0
S'good'
p771
tp772
a(I161
I7
F1.0
S'better'
p773
tp774
as(S'need'
p775
S'to'
p776
S'use'
p777
tp778
(lp779
(I37
I62
F-0.5
S'heavy'
p780
tp781
as(S'android'
p782
tp783
(lp784
(I11
I3
F0.125
S'first'
p785
tp786
a(I25
I0
F1.0
S'best'
p787
tp788
a(I61
I0
F-0.75
S'difficult'
p789
tp790
a(I70
I26
F0.125
S'first'
p791
tp792
a(I99
I3
F0.125
S'typical'
p793
tp794
a(I117
I1
F1.0
S'best'
p795
tp796
a(I129
I12
F1.0
S'best'
p797
tp798
a(I138
I37
F0.125
S'typical'
p799
tp800
a(I139
I26
F1.0
S'best'
p801
tp802
a(I141
I4
F0.375
S'new'
p803
tp804
a(I141
I4
F1.0
S'best'
p805
tp806
a(I158
I57
F1.0
S'best'
p807
tp808
a(I167
I1
F0.125
S'first'
p809
tp810
as(S'sd'
p811
S'card'
p812
S'slot'
p813
tp814
(lp815
(I19
I49
F0.625
S'necessary'
p816
tp817
as(S'front'
p818
S'facing'
p819
tp820
(lp821
(I82
I9
F-0.125
g41
tp822
a(I83
I31
F-0.125
g43
tp823
as(S'thing'
p824
tp825
(lp826
(I3
I28
F0.125
S'first'
p827
tp828
a(I4
I4
F0.125
S'first'
p829
tp830
a(I14
I14
F1.0
S'good'
p831
tp832
a(I14
I15
F0.625
S'easy'
p833
tp834
a(I24
I10
F0.125
S'first'
p835
tp836
a(I24
I29
I0
S'only'
p837
tp838
a(I37
I64
I0
S'only'
p839
tp840
a(I37
I68
F-0.75
S'minor'
p841
tp842
a(I37
I68
F-0.125
S'quibble'
p843
tp844
a(I51
I14
I0
S'fast'
p845
tp846
a(I51
I14
F0.125
S'solid'
p847
tp848
a(I56
I33
F-0.625
S'other'
p849
tp850
a(I57
I7
F0.5
S'willing'
p851
tp852
a(I57
I7
F-0.125
S'slow'
p853
tp854
a(I82
I11
F0.125
S'first'
p855
tp856
a(I82
I12
F0.5
S'second'
p857
tp858
a(I88
I3
I0
S'only'
p859
tp860
a(I92
I17
F1.0
S'good'
p861
tp862
a(I98
I2
I0
S'only'
p863
tp864
a(I138
I60
I0
S'only'
p865
tp866
a(I143
I12
F0.125
S'first'
p867
tp868
a(I152
I6
I0
S'more'
p869
tp870
a(I156
I24
F-0.25
S'cheapest'
p871
tp872
a(I164
I4
I0
S'same'
p873
tp874
a(I167
I9
F-0.5
S'certain'
p875
tp876
a(I177
I3
I0
S'only'
p877
tp878
as(S'non'
p879
S'removable'
p880
S'battery'
p881
tp882
(lp883
(I131
I1
F0.625
S'removable'
p884
tp885
as(S'low'
p886
S'light'
p887
S'pictures'
p888
tp889
(lp890
(I70
I7
F1.0
S'better'
p891
tp892
a(I70
I7
F-0.25
S'lower'
p893
tp894
a(I81
I6
I0
S'most'
p895
tp896
a(I83
I37
F1.0
S'better'
p897
tp898
a(I83
I37
F-0.25
S'low'
p899
tp900
a(I89
I2
F1.0
S'good'
p901
tp902
a(I89
I2
F-0.25
S'low'
p903
tp904
a(I89
I2
F-0.625
S'light'
p905
tp906
a(I139
I7
F-0.25
g460
tp907
a(I139
I7
I0
S'great'
p908
tp909
a(I165
I3
F-0.625
S'light'
p910
tp911
a(I165
I3
I0
S'great'
p912
tp913
as(S'point'
p914
S'and'
p915
S'shoot'
p916
tp917
(lp918
(I3
I21
F0.5
S'comparable'
p919
tp920
as(S'htc'
p921
S'one'
p922
tp923
(lp924
(I3
I45
F-0.5
S'sure'
p925
tp926
a(I3
I45
I0
S'android'
p927
tp928
a(I24
I70
F-0.75
S'comfortable'
p929
tp930
a(I26
I7
F0.375
S'new'
p931
tp932
a(I26
I12
I0
S'more'
p933
tp934
a(I26
I12
F0.5
S'reasonable'
p935
tp936
a(I37
I9
F-0.625
S'absent'
p937
tp938
a(I37
I54
F0.375
S'available'
p939
tp940
a(I37
I60
F0.5
S'possible'
p941
tp942
a(I37
I70
I0
S'great'
p943
tp944
a(I38
I0
F0.125
S'first'
p945
tp946
a(I40
I5
F0.125
S'first'
p947
tp948
a(I40
I5
F0.125
S'last'
p949
tp950
a(I43
I7
I0
S'more'
p951
tp952
a(I43
I13
F0.375
S'new'
p953
tp954
a(I65
I0
F1.0
S'best'
p955
tp956
a(I65
I0
I0
S'android'
p957
tp958
a(I65
I0
F0.375
S'new'
p959
tp960
a(I70
I36
F0.875
S'nice'
p961
tp962
a(I73
I0
F0.25
S'unlocked'
p963
tp964
a(I87
I17
F-0.5
S'complaint'
p965
tp966
a(I88
I2
F0.875
S'happy'
p967
tp968
a(I98
I0
F0.75
S'receive'
p969
tp970
a(I101
I0
I0
S'more'
p971
tp972
a(I101
I1
I0
S'most'
p973
tp974
a(I105
I3
F-0.625
S'rough'
p975
tp976
a(I113
I10
I0
S'earlier'
p977
tp978
a(I117
I0
F1.0
S'better'
p979
tp980
a(I122
I0
I0
S'own'
p981
tp982
a(I128
I15
F-0.125
S'super'
p983
tp984
a(I139
I0
I0
S'third'
p985
tp986
a(I142
I3
F0.75
S'beautiful'
p987
tp988
a(I142
I3
F0.5
S'elegant'
p989
tp990
a(I143
I30
I0
S'most'
p991
tp992
a(I146
I2
F0.25
S'original'
p993
tp994
a(I151
I5
I0
S'current'
p995
tp996
a(I152
I9
F-0.625
S'other'
p997
tp998
a(I152
I13
F0.625
S'perfect'
p999
tp1000
a(I155
I1
F-0.875
S'stuck'
p1001
tp1002
a(I155
I8
F0.375
S'new'
p1003
tp1004
a(I160
I4
F0.125
S'first'
p1005
tp1006
a(I167
I7
F0.5
S'second'
p1007
tp1008
a(I170
I0
F0.875
S'happy'
p1009
tp1010
a(I171
I2
I0
S'faster'
p1011
tp1012
a(I171
I2
F0.25
S'bigger'
p1013
tp1014
a(I174
I0
I0
S'android'
p1015
tp1016
a(I174
I0
F0.375
S'went'
p1017
tp1018
a(I178
I0
F0.375
S'new'
p1019
tp1020
a(I187
I0
I0
S'final'
p1021
tp1022
as(S'size'
p1023
tp1024
(lp1025
(I3
I4
F0.5
S'weight'
p1026
tp1027
a(I30
I7
F0.875
S'happy'
p1028
tp1029
a(I37
I37
I0
S'physical'
p1030
tp1031
a(I51
I27
F1.0
S'best'
p1032
tp1033
a(I68
I10
F0.25
S'larger'
p1034
tp1035
a(I68
I10
F0.25
S'larger'
p1036
tp1037
a(I70
I19
F0.75
S'due'
p1038
tp1039
a(I71
I5
F1.0
S'good'
p1040
tp1041
a(I104
I0
F0.25
S'bigger'
p1042
tp1043
a(I136
I0
I0
S'great'
p1044
tp1045
a(I157
I2
F0.625
S'perfect'
p1046
tp1047
as(S'hours'
p1048
tp1049
(lp1050
(I19
I15
F0.125
S'acknowledged'
p1051
tp1052
a(I19
I53
F0.125
S'first'
p1053
tp1054
a(I19
I53
I0
S'few'
p1055
tp1056
a(I19
I55
F0.375
S'similar'
p1057
tp1058
a(I26
I16
I0
S'few'
p1059
tp1060
a(I56
I22
F0.125
S'equal'
p1061
tp1062
a(I106
I1
I0
S'more'
p1063
tp1064
a(I137
I5
I0
S'many'
p1065
tp1066
a(I178
I0
F0.125
S'last'
p1067
tp1068
as(S'blinkfeed'
p1069
tp1070
(lp1071
(I26
I16
F0.5
S'whole'
p1072
tp1073
a(I56
I11
F0.375
S'copy'
p1074
tp1075
a(I83
I41
F0.625
S'controversial'
p1076
tp1077
a(I158
I29
F1.0
S'best'
p1078
tp1079
as(g51
g187
S'case'
p1080
tp1081
(lp1082
(I24
I10
I0
S'more'
p1083
tp1084
a(I51
I6
F1.0
S'better'
p1085
tp1086
a(I139
I4
F-0.75
S'difficult'
p1087
tp1088
a(I142
I2
I0
S'plastic'
p1089
tp1090
a(I155
I6
I0
S'great'
p1091
tp1092
a(I156
I65
F0.5
S'stylish'
p1093
tp1094
a(I156
I65
F-0.625
S'other'
p1095
tp1096
a(I158
I10
F0.625
S'easy'
p1097
tp1098
as(S'case'
p1099
tp1100
(lp1101
(I24
I10
I0
g1083
tp1102
a(I51
I6
F1.0
g1085
tp1103
a(I95
I1
F0.75
S'beautiful'
p1104
tp1105
a(I139
I4
F-0.75
g1087
tp1106
a(I142
I2
I0
g1089
tp1107
a(I155
I6
I0
g1091
tp1108
a(I156
I65
F0.5
g1093
tp1109
a(I156
I65
F-0.625
g1095
tp1110
a(I158
I10
F0.625
g1097
tp1111
as(S'battery'
p1112
S'life'
p1113
tp1114
(lp1115
(I1
I3
F-0.75
S'short'
p1116
tp1117
a(I3
I24
F0.625
g88
tp1118
a(I4
I11
F-0.5
S'poor'
p1119
tp1120
a(I4
I20
F1.0
g350
tp1121
a(I4
I20
I0
g90
tp1122
a(I4
I20
F0.625
g92
tp1123
a(I9
I3
I0
g354
tp1124
a(I20
I6
I0
S'great'
p1125
tp1126
a(I42
I3
F1.0
g356
tp1127
a(I45
I24
F1.0
S'good'
p1128
tp1129
a(I55
I1
I0
g358
tp1130
a(I56
I22
F-0.5
S'continuous'
p1131
tp1132
a(I56
I23
F0.875
S'important'
p1133
tp1134
a(I71
I1
I0
g360
tp1135
a(I89
I2
F1.0
g362
tp1136
a(I102
I4
F1.0
S'good'
p1137
tp1138
a(I114
I21
F-0.5
g364
tp1139
a(I123
I3
F1.0
g366
tp1140
a(I138
I88
F-0.25
g368
tp1141
a(I138
I92
F0.625
g202
tp1142
a(I138
I92
F0.5
g204
tp1143
a(I147
I3
I0
S'great'
p1144
tp1145
a(I151
I63
F1.0
S'good'
p1146
tp1147
a(I158
I51
I0
S'external'
p1148
tp1149
a(I169
I12
F1.0
S'better'
p1150
tp1151
a(I172
I24
F0.25
g372
tp1152
a(I172
I24
F1.0
g374
tp1153
a(I174
I4
F1.0
S'good'
p1154
tp1155
a(I175
I0
F1.0
S'good'
p1156
tp1157
a(I185
I1
F1.0
g376
tp1158
as(S'speakers'
p1159
tp1160
(lp1161
(I13
I3
I0
S'incredible'
p1162
tp1163
a(I19
I18
F-0.125
S'super'
p1164
tp1165
a(I24
I50
F0.375
S'loudest'
p1166
tp1167
a(I25
I2
F1.0
S'best'
p1168
tp1169
a(I25
I3
F-0.625
S'other'
p1170
tp1171
a(I25
I3
I0
S'mobile'
p1172
tp1173
a(I25
I3
F0.5
S'comparable'
p1174
tp1175
a(I37
I20
I0
g39
tp1176
a(I42
I1
I0
S'great'
p1177
tp1178
a(I74
I7
I0
S'external'
p1179
tp1180
a(I80
I10
I0
S'external'
p1181
tp1182
a(I83
I30
I0
S'special'
p1183
tp1184
a(I88
I1
I0
S'great'
p1185
tp1186
a(I102
I0
I0
g45
tp1187
a(I113
I2
F0.5
S'clear'
p1188
tp1189
a(I115
I1
I0
S'great'
p1190
tp1191
a(I124
I2
I0
S'great'
p1192
tp1193
a(I124
I2
F1.0
S'best'
p1194
tp1195
a(I131
I9
F0.625
g47
tp1196
a(I135
I11
F0.5
S'clear'
p1197
tp1198
a(I135
I12
F0.875
S'music'
p1199
tp1200
a(I139
I16
F0.625
g49
tp1201
a(I143
I14
I0
S'own'
p1202
tp1203
a(I152
I14
F1.0
S'good'
p1204
tp1205
a(I156
I37
F-0.375
S'top'
p1206
tp1207
a(I157
I5
I0
S'great'
p1208
tp1209
a(I158
I53
F0.875
S'music'
p1210
tp1211
a(I158
I56
I0
S'such'
p1212
tp1213
a(I175
I0
F1.0
S'good'
p1214
tp1215
as(S'looks'
p1216
tp1217
(lp1218
(I28
I1
I0
S'great'
p1219
tp1220
a(I42
I0
F1.0
S'good'
p1221
tp1222
a(I46
I2
I0
S'sleek'
p1223
tp1224
a(I87
I17
I0
S'great'
p1225
tp1226
a(I104
I1
F0.5
S'clearer'
p1227
tp1228
a(I145
I2
F0.25
S'sharp'
p1229
tp1230
a(I151
I8
F1.0
S'good'
p1231
tp1232
a(I151
I67
F1.0
S'good'
p1233
tp1234
a(I154
I4
F0.75
S'worth'
p1235
tp1236
a(I158
I10
F-0.75
S'short'
p1237
tp1238
a(I158
I10
F0.125
S'impressive'
p1239
tp1240
as(S'back'
p1241
tp1242
(lp1243
(I19
I21
I0
S'plastic'
p1244
tp1245
a(I24
I80
F-0.75
g436
tp1246
a(I139
I2
F-0.75
S'comfortable'
p1247
tp1248
a(I156
I24
I0
S'plastic'
p1249
tp1250
as(S'with'
p1251
S'one'
p1252
S'hand'
p1253
tp1254
(lp1255
(I11
I3
F-0.625
g56
tp1256
a(I70
I2
I0
g60
tp1257
a(I70
I2
F-0.5
g62
tp1258
a(I84
I25
I0
g64
tp1259
a(I139
I21
F-0.625
g70
tp1260
a(I146
I1
I0
g74
tp1261
a(I146
I1
I0
g76
tp1262
a(I151
I6
F0.125
g78
tp1263
a(I172
I23
F0.125
g82
tp1264
as(S'news'
p1265
tp1266
(lp1267
(I13
I5
I0
S'current'
p1268
tp1269
a(I36
I6
I0
S'local'
p1270
tp1271
a(I124
I14
I0
S'great'
p1272
tp1273
a(I128
I4
F0.625
S'convenient'
p1274
tp1275
a(I143
I38
F0.625
S'interested'
p1276
tp1277
a(I151
I62
I0
S'useful'
p1278
tp1279
a(I151
I62
I0
S'such'
p1280
tp1281
a(I155
I10
I0
S'wish'
p1282
tp1283
a(I155
I10
I0
S'real'
p1284
tp1285
a(I172
I12
F0.125
S'enough'
p1286
tp1287
as(g187
S'bigger'
p1288
S'screen'
p1289
tp1290
(lp1291
(I57
I15
F0.25
S'bigger'
p1292
tp1293
a(I70
I26
F0.25
S'bigger'
p1294
tp1295
a(I70
I26
F0.25
S'bigger'
p1296
tp1297
a(I74
I8
F0.25
S'bigger'
p1298
tp1299
a(I106
I14
F0.25
S'bigger'
p1300
tp1301
a(I156
I28
F0.25
S'bigger'
p1302
tp1303
as(S'life'
p1304
tp1305
(lp1306
(I1
I3
F-0.75
g1116
tp1307
a(I4
I20
F1.0
g350
tp1308
a(I9
I3
I0
g354
tp1309
a(I20
I6
I0
g1125
tp1310
a(I38
I39
F1.0
S'good'
p1311
tp1312
a(I38
I39
F-0.625
S'bad'
p1313
tp1314
a(I38
I44
F-0.375
S'daily'
p1315
tp1316
a(I42
I3
F1.0
g356
tp1317
a(I45
I24
F1.0
g1128
tp1318
a(I55
I1
I0
g358
tp1319
a(I56
I23
F0.875
g1133
tp1320
a(I57
I16
I0
S'real'
p1321
tp1322
a(I89
I2
F1.0
g362
tp1323
a(I102
I4
F1.0
g1137
tp1324
a(I151
I63
F1.0
g1146
tp1325
a(I156
I38
F-0.375
S'daily'
p1326
tp1327
a(I169
I12
F1.0
g1150
tp1328
a(I172
I24
F0.25
g372
tp1329
a(I172
I24
F1.0
g374
tp1330
a(I174
I4
F1.0
g1154
tp1331
a(I185
I1
F1.0
g376
tp1332
as(S'beats'
p1333
tp1334
(lp1335
(I83
I29
F0.5
S'whole'
p1336
tp1337
a(I87
I16
I0
S'integrated'
p1338
tp1339
a(I113
I10
F0.375
S'similar'
p1340
tp1341
as(S'user'
p1342
tp1343
(lp1344
(I3
I25
F-0.5
S'heavy'
p1345
tp1346
a(I38
I26
F-0.5
S'heavy'
p1347
tp1348
a(I43
I23
I0
S'critical'
p1349
tp1350
a(I56
I5
F1.0
S'best'
p1351
tp1352
a(I84
I21
F-0.625
S'moderate'
p1353
tp1354
a(I84
I21
F-0.5
S'heavy'
p1355
tp1356
a(I89
I2
F-0.5
S'heavy'
p1357
tp1358
a(I92
I1
F-0.5
S'regular'
p1359
tp1360
a(I92
I11
I0
S'earlier'
p1361
tp1362
a(I92
I20
F-0.625
S'light'
p1363
tp1364
a(I121
I3
F-0.625
S'other'
p1365
tp1366
a(I138
I8
F0.625
S'accessible'
p1367
tp1368
a(I139
I0
I0
S'android'
p1369
tp1370
a(I151
I43
I0
S'android'
p1371
tp1372
a(I173
I1
I0
S'extensive'
p1373
tp1374
a(I173
I1
F-0.625
S'average'
p1375
tp1376
as(g187
S'full'
p1377
S'day'
p1378
tp1379
(lp1380
(I24
I60
F0.5
S'whole'
p1381
tp1382
a(I37
I62
I0
S'full'
p1383
tp1384
a(I74
I6
I0
S'full'
p1385
tp1386
a(I102
I4
I0
S'full'
p1387
tp1388
a(I102
I4
F-0.625
S'moderate'
p1389
tp1390
a(I106
I1
F0.125
S'first'
p1391
tp1392
a(I160
I1
I0
S'full'
p1393
tp1394
a(I167
I6
I0
S'next'
p1395
tp1396
as(S'great'
p1397
tp1398
(lp1399
(I24
I18
I0
S'same'
p1400
tp1401
a(I68
I8
F-0.125
S'overall'
p1402
tp1403
a(I68
I8
I0
S'great'
p1404
tp1405
as(S'display'
p1406
tp1407
(lp1408
(I7
I3
F0.75
S'beautiful'
p1409
tp1410
a(I19
I50
F1.0
S'good'
p1411
tp1412
a(I25
I7
F0.5
S'clear'
p1413
tp1414
a(I25
I7
F0.5
S'accurate'
p1415
tp1416
a(I25
I7
F0.875
S'important'
p1417
tp1418
a(I37
I5
I0
S'absurd'
p1419
tp1420
a(I37
I11
F0.125
S'spectacular'
p1421
tp1422
a(I44
I0
F0.25
S'larger'
p1423
tp1424
a(I85
I1
I0
S'full'
p1425
tp1426
a(I136
I0
I0
S'great'
p1427
tp1428
a(I142
I4
F0.25
S'sharp'
p1429
tp1430
a(I142
I4
F-0.75
S'bright'
p1431
tp1432
a(I173
I0
I0
S'big'
p1433
tp1434
a(I173
I0
F-0.375
S'small'
p1435
tp1436
as(S'feel'
p1437
tp1438
(lp1439
(I39
I0
F0.125
S'solid'
p1440
tp1441
a(I39
I0
F0.625
S'easy'
p1442
tp1443
a(I116
I1
F0.875
S'nice'
p1444
tp1445
a(I124
I19
F-0.625
S'free'
p1446
tp1447
a(I144
I3
I0
S'great'
p1448
tp1449
as(S'low'
p1450
S'light'
p1451
tp1452
(lp1453
(I24
I46
F-0.25
g446
tp1454
a(I25
I8
F0.375
g448
tp1455
a(I25
I8
F1.0
g450
tp1456
a(I25
I8
F-0.25
g452
tp1457
a(I83
I37
F1.0
g897
tp1458
a(I83
I37
F-0.25
g899
tp1459
a(I92
I7
F-0.25
g454
tp1460
a(I135
I28
I0
g456
tp1461
a(I135
I28
F-0.25
g458
tp1462
a(I139
I7
F-0.25
g460
tp1463
a(I154
I1
F-0.25
g462
tp1464
a(I163
I13
F-0.25
g464
tp1465
as(S'samsung'
p1466
S'galaxy'
p1467
tp1468
(lp1469
(I143
I1
F0.25
S'original'
p1470
tp1471
a(I143
I2
I0
S'old'
p1472
tp1473
as(S'update'
p1474
tp1475
(lp1476
(I178
I3
F0.125
S'able'
p1477
tp1478
as(S'front'
p1479
tp1480
(lp1481
(I37
I3
I0
S'latest'
p1482
tp1483
a(I37
I3
I0
S'android'
p1484
tp1485
as(S'one'
p1486
S'x'
p1487
tp1488
(lp1489
(I82
I10
I0
S'many'
p1490
tp1491
as(S'time'
p1492
tp1493
(lp1494
(I3
I26
I0
S'only'
p1495
tp1496
a(I9
I21
F0.125
S'first'
p1497
tp1498
a(I19
I53
I0
S'more'
p1499
tp1500
a(I23
I5
F0.125
S'first'
p1501
tp1502
a(I24
I8
F0.125
S'first'
p1503
tp1504
a(I24
I8
F1.0
S'best'
p1505
tp1506
a(I45
I40
F-0.5
g533
tp1507
a(I54
I31
F0.125
S'first'
p1508
tp1509
a(I56
I17
I0
S'more'
p1510
tp1511
a(I56
I32
F-0.5
g535
tp1512
a(I75
I6
F0.125
S'first'
p1513
tp1514
a(I83
I0
I0
S'adequate'
p1515
tp1516
a(I83
I51
I0
S'next'
p1517
tp1518
a(I92
I25
F0.125
S'first'
p1519
tp1520
a(I128
I7
F0.125
S'first'
p1521
tp1522
a(I128
I8
F0.5
S'second'
p1523
tp1524
a(I138
I13
I0
S'only'
p1525
tp1526
a(I138
I77
I0
S'same'
p1527
tp1528
a(I143
I19
F0.125
S'first'
p1529
tp1530
a(I143
I32
I0
S'only'
p1531
tp1532
a(I143
I45
F-0.5
g537
tp1533
a(I152
I10
F-0.5
S'sure'
p1534
tp1535
a(I155
I26
I0
S'same'
p1536
tp1537
a(I155
I26
I0
S'anymore'
p1538
tp1539
a(I158
I32
F0.125
S'first'
p1540
tp1541
a(I158
I36
F0.125
S'usual'
p1542
tp1543
a(I169
I5
F1.0
S'better'
p1544
tp1545
a(I172
I39
F-0.5
g539
tp1546
a(I176
I0
F0.125
S'first'
p1547
tp1548
a(I178
I1
F1.0
S'good'
p1549
tp1550
as(S'of'
p1551
S'battery'
p1552
S'life'
p1553
tp1554
(lp1555
(I4
I11
F-0.5
g1119
tp1556
a(I9
I3
I0
g354
tp1557
a(I42
I3
F1.0
g356
tp1558
a(I56
I23
F0.875
g1133
tp1559
a(I114
I21
F-0.5
g364
tp1560
a(I123
I3
F1.0
g366
tp1561
a(I138
I88
F-0.25
g368
tp1562
a(I172
I24
F0.25
g372
tp1563
a(I172
I24
F1.0
g374
tp1564
as(g187
S'removable'
p1565
S'battery'
p1566
tp1567
(lp1568
(I3
I24
F0.625
g88
tp1569
a(I4
I20
I0
g90
tp1570
a(I4
I20
F0.625
g92
tp1571
a(I9
I6
F0.625
g94
tp1572
a(I24
I66
F0.625
g96
tp1573
a(I24
I69
F0.625
g98
tp1574
a(I67
I25
I0
g100
tp1575
a(I67
I25
F0.625
g102
tp1576
a(I102
I5
F0.625
g104
tp1577
a(I147
I2
F0.625
g106
tp1578
a(I158
I59
F0.625
g108
tp1579
as(S'on'
p1580
S'top'
p1581
S'left'
p1582
tp1583
(lp1584
(I34
I4
F-0.375
S'top'
p1585
tp1586
a(I37
I66
F-0.375
S'top'
p1587
tp1588
a(I38
I12
F-0.375
S'top'
p1589
tp1590
a(I84
I23
F-0.375
S'top'
p1591
tp1592
a(I131
I23
F-0.375
S'top'
p1593
tp1594
a(I131
I23
F-0.75
S'difficult'
p1595
tp1596
as(S'day'
p1597
S'to'
p1598
S'day'
p1599
tp1600
(lp1601
(I3
I26
F-0.5
S'less'
p1602
tp1603
a(I19
I20
I0
S'useful'
p1604
tp1605
a(I24
I58
I0
S'big'
p1606
tp1607
a(I24
I60
F0.5
g1381
tp1608
a(I37
I62
I0
g1383
tp1609
a(I56
I21
I0
S'normal'
p1610
tp1611
a(I67
I0
I0
S'next'
p1612
tp1613
a(I106
I2
F0.5
S'second'
p1614
tp1615
a(I106
I9
I0
S'fourth'
p1616
tp1617
a(I106
I11
I0
S'fifth'
p1618
tp1619
a(I119
I3
I0
S'next'
p1620
tp1621
a(I123
I3
F-0.25
S'intensive'
p1622
tp1623
a(I124
I3
I0
S'own'
p1624
tp1625
a(I138
I41
F0.125
S'survive'
p1626
tp1627
a(I152
I14
I0
S'close'
p1628
tp1629
a(I174
I4
F-0.5
S'heavier'
p1630
tp1631
as(S'screen'
p1632
tp1633
(lp1634
(I3
I24
I0
S'more'
p1635
tp1636
a(I3
I24
I0
S'large'
p1637
tp1638
a(I11
I3
I0
S'full'
p1639
tp1640
a(I11
I3
I0
S'full'
p1641
tp1642
a(I13
I3
F0.75
S'beautiful'
p1643
tp1644
a(I14
I19
I0
g114
tp1645
a(I14
I20
F0.5
S'touch'
p1646
tp1647
a(I19
I59
F0.875
S'attractive'
p1648
tp1649
a(I20
I5
I0
S'big'
p1650
tp1651
a(I20
I5
F0.75
S'beautiful'
p1652
tp1653
a(I24
I37
F0.5
S'possible'
p1654
tp1655
a(I24
I37
F1.0
S'best'
p1656
tp1657
a(I24
I41
F0.25
S'larger'
p1658
tp1659
a(I24
I41
I0
S'more'
p1660
tp1661
a(I28
I1
F0.75
g120
tp1662
a(I28
I1
I0
g122
tp1663
a(I40
I2
F0.375
S'flexible'
p1664
tp1665
a(I40
I2
F-0.5
S'regular'
p1666
tp1667
a(I54
I20
I0
g124
tp1668
a(I57
I15
F0.25
g1292
tp1669
a(I69
I8
I0
S'great'
p1670
tp1671
a(I70
I2
I0
S'high'
p1672
tp1673
a(I70
I26
F0.25
g1294
tp1674
a(I70
I26
F0.25
g1296
tp1675
a(I74
I4
F0.25
S'sharp'
p1676
tp1677
a(I74
I4
F-0.75
S'bright'
p1678
tp1679
a(I74
I8
F0.25
g1298
tp1680
a(I76
I2
F-0.125
S'overall'
p1681
tp1682
a(I82
I10
F1.0
S'best'
p1683
tp1684
a(I83
I6
F-0.5
S'sure'
p1685
tp1686
a(I83
I6
F0.5
S'touch'
p1687
tp1688
a(I84
I3
F0.25
S'sharp'
p1689
tp1690
a(I88
I1
I0
S'large'
p1691
tp1692
a(I88
I1
F0.75
S'beautiful'
p1693
tp1694
a(I102
I0
I0
S'large'
p1695
tp1696
a(I106
I14
F0.25
g1300
tp1697
a(I113
I2
I0
S'incredible'
p1698
tp1699
a(I113
I20
F-0.75
S'bright'
p1700
tp1701
a(I139
I17
F0.75
S'beautiful'
p1702
tp1703
a(I142
I0
I0
S'big'
p1704
tp1705
a(I143
I7
F-0.5
S'sure'
p1706
tp1707
a(I143
I7
I0
S'such'
p1708
tp1709
a(I143
I7
F0.625
S'easy'
p1710
tp1711
a(I143
I8
I0
S'ample'
p1712
tp1713
a(I144
I8
F1.0
S'best'
p1714
tp1715
a(I147
I0
F0.75
S'beautiful'
p1716
tp1717
a(I151
I16
I0
S'high'
p1718
tp1719
a(I155
I8
I0
S'big'
p1720
tp1721
a(I155
I34
F-0.75
S'bright'
p1722
tp1723
a(I156
I9
F0.875
S'nice'
p1724
tp1725
a(I156
I9
F0.25
S'larger'
p1726
tp1727
a(I156
I11
F0.25
S'larger'
p1728
tp1729
a(I156
I26
F-0.125
S'super'
p1730
tp1731
a(I156
I28
F0.25
g1302
tp1732
a(I156
I31
F0.375
S'available'
p1733
tp1734
a(I157
I4
I0
S'great'
p1735
tp1736
a(I158
I8
F0.875
S'nice'
p1737
tp1738
a(I161
I1
F1.0
S'best'
p1739
tp1740
a(I161
I7
F1.0
g128
tp1741
a(I164
I0
F-0.625
S'bad'
p1742
tp1743
a(I164
I2
F0.5
S'touch'
p1744
tp1745
a(I164
I2
F-0.625
S'seamless'
p1746
tp1747
a(I164
I3
F0.5
S'touch'
p1748
tp1749
a(I164
I3
I0
S'more'
p1750
tp1751
a(I164
I6
F1.0
S'good'
p1752
tp1753
a(I169
I2
F1.0
S'good'
p1754
tp1755
a(I169
I13
F-0.375
S'small'
p1756
tp1757
a(I181
I5
I0
S'quick'
p1758
tp1759
a(I181
I5
F0.75
S'beautiful'
p1760
tp1761
as(S'look'
p1762
tp1763
(lp1764
(I44
I2
F0.125
g260
tp1765
a(I131
I15
I0
S'least'
p1766
tp1767
a(I135
I23
I0
S'close'
p1768
tp1769
a(I155
I11
F0.125
S'able'
p1770
tp1771
as(S'back'
p1772
S'and'
p1773
S'home'
p1774
tp1775
(lp1776
(I24
I80
F-0.75
g436
tp1777
a(I131
I22
I0
g438
tp1778
a(I131
I26
F0.125
g440
tp1779
as(S'light'
p1780
tp1781
(lp1782
(I24
I46
F-0.25
g446
tp1783
a(I25
I8
F0.375
g448
tp1784
a(I25
I8
F1.0
g450
tp1785
a(I25
I8
F-0.25
g452
tp1786
a(I55
I1
F-0.125
S'super'
p1787
tp1788
a(I83
I37
F1.0
g897
tp1789
a(I83
I37
F-0.25
g899
tp1790
a(I92
I7
F-0.25
g454
tp1791
a(I135
I28
I0
g456
tp1792
a(I135
I28
F-0.25
g458
tp1793
a(I139
I7
F-0.25
g460
tp1794
a(I144
I11
F1.0
S'good'
p1795
tp1796
a(I144
I11
F-0.75
S'dark'
p1797
tp1798
a(I144
I11
F-0.75
S'bright'
p1799
tp1800
a(I146
I1
F0.125
S'able'
p1801
tp1802
a(I154
I1
F-0.25
g462
tp1803
a(I163
I13
F-0.25
g464
tp1804
as(S'samsung'
p1805
tp1806
(lp1807
(I37
I43
I0
S'pedestrian'
p1808
tp1809
a(I38
I3
F0.375
S'new'
p1810
tp1811
a(I143
I1
F0.25
g1470
tp1812
a(I156
I25
I0
S'wish'
p1813
tp1814
as(S'camera'
p1815
tp1816
(lp1817
(I0
I0
F1.0
S'good'
p1818
tp1819
a(I3
I24
F-0.625
S'other'
p1820
tp1821
a(I3
I24
F-0.375
S'small'
p1822
tp1823
a(I4
I18
F-0.625
S'average'
p1824
tp1825
a(I8
I2
F-0.625
S'free'
p1826
tp1827
a(I20
I15
F-0.75
S'worse'
p1828
tp1829
a(I24
I6
F1.0
S'best'
p1830
tp1831
a(I25
I9
F0.375
S'new'
p1832
tp1833
a(I30
I12
F0.625
S'decent'
p1834
tp1835
a(I37
I29
I0
S'same'
p1836
tp1837
a(I37
I40
I0
S'more'
p1838
tp1839
a(I37
I59
I0
S'more'
p1840
tp1841
a(I57
I3
F-0.5
S'flimsy'
p1842
tp1843
a(I57
I3
F-0.25
S'thin'
p1844
tp1845
a(I66
I0
F1.0
S'good'
p1846
tp1847
a(I67
I18
F-0.625
S'bad'
p1848
tp1849
a(I67
I18
F1.0
S'best'
p1850
tp1851
a(I69
I13
F1.0
S'good'
p1852
tp1853
a(I70
I2
I0
S'more'
p1854
tp1855
a(I70
I10
F0.5
S'advanced'
p1856
tp1857
a(I70
I14
F-0.125
S'overall'
p1858
tp1859
a(I83
I40
F0.125
S'outside'
p1860
tp1861
a(I84
I16
F1.0
S'good'
p1862
tp1863
a(I84
I16
F1.0
S'better'
p1864
tp1865
a(I88
I3
I0
S'more'
p1866
tp1867
a(I100
I0
I0
S'great'
p1868
tp1869
a(I102
I7
I0
S'useful'
p1870
tp1871
a(I102
I8
F-0.125
S'overall'
p1872
tp1873
a(I102
I8
F-0.5
S'aside'
p1874
tp1875
a(I124
I10
I0
S'great'
p1876
tp1877
a(I128
I1
I0
S'great'
p1878
tp1879
a(I129
I12
F1.0
S'good'
p1880
tp1881
a(I129
I22
F1.0
S'better'
p1882
tp1883
a(I133
I2
I0
S'great'
p1884
tp1885
a(I138
I54
F1.0
S'best'
p1886
tp1887
a(I138
I58
I0
S'great'
p1888
tp1889
a(I139
I6
F1.0
S'best'
p1890
tp1891
a(I143
I25
F0.125
S'able'
p1892
tp1893
a(I146
I2
F1.0
S'better'
p1894
tp1895
a(I147
I2
F0.75
S'due'
p1896
tp1897
a(I151
I26
I0
S'great'
p1898
tp1899
a(I154
I1
F1.0
S'better'
p1900
tp1901
a(I155
I3
F0.375
S'new'
p1902
tp1903
a(I157
I8
I0
S'great'
p1904
tp1905
a(I160
I8
F0.375
S'new'
p1906
tp1907
a(I161
I7
F1.0
S'good'
p1908
tp1909
a(I165
I3
F1.0
S'good'
p1910
tp1911
a(I165
I3
F-0.25
S'low'
p1912
tp1913
a(I169
I11
I0
S'great'
p1914
tp1915
a(I172
I14
F1.0
S'good'
p1916
tp1917
a(I174
I5
I0
S'great'
p1918
tp1919
as(S'galaxy'
p1920
tp1921
(lp1922
(I11
I0
F0.25
S'original'
p1923
tp1924
a(I11
I0
F0.375
S'new'
p1925
tp1926
a(I23
I16
F0.625
S'removable'
p1927
tp1928
a(I38
I15
F-0.375
S'smaller'
p1929
tp1930
a(I135
I21
F-0.75
S'brighter'
p1931
tp1932
a(I138
I4
I0
S'indicated'
p1933
tp1934
a(I143
I2
I0
g1472
tp1935
as(S'pictures'
p1936
tp1937
(lp1938
(I17
I11
F-0.625
S'glad'
p1939
tp1940
a(I33
I0
F1.0
S'good'
p1941
tp1942
a(I57
I17
I0
S'ample'
p1943
tp1944
a(I70
I7
F1.0
g891
tp1945
a(I70
I7
F-0.25
g893
tp1946
a(I81
I6
I0
g895
tp1947
a(I83
I36
F0.5
S'come'
p1948
tp1949
a(I89
I2
F1.0
g901
tp1950
a(I89
I2
F-0.25
g903
tp1951
a(I89
I2
F-0.625
g905
tp1952
a(I124
I12
F-0.5
S'regular'
p1953
tp1954
a(I139
I7
I0
g908
tp1955
a(I143
I25
F1.0
S'good'
p1956
tp1957
a(I151
I19
F1.0
S'better'
p1958
tp1959
a(I151
I23
F0.25
S'larger'
p1960
tp1961
a(I151
I23
I0
S'later'
p1962
tp1963
a(I155
I17
I0
S'many'
p1964
tp1965
a(I155
I23
I0
S'great'
p1966
tp1967
a(I155
I23
F0.875
S'nice'
p1968
tp1969
a(I165
I3
F-0.625
g910
tp1970
a(I165
I3
I0
g912
tp1971
a(I179
I4
F0.5
S'clear'
p1972
tp1973
as(S'htc'
p1974
S'one'
p1975
g1487
tp1976
(lp1977
(I3
I45
F-0.5
g925
tp1978
a(I3
I45
I0
g927
tp1979
a(I24
I70
F-0.75
g929
tp1980
a(I26
I7
F0.375
g931
tp1981
a(I70
I36
F0.875
g961
tp1982
a(I87
I17
F-0.5
g965
tp1983
a(I105
I3
F-0.625
g975
tp1984
a(I122
I0
I0
g981
tp1985
a(I128
I15
F-0.125
g983
tp1986
a(I155
I1
F-0.875
g1001
tp1987
a(I167
I7
F0.5
g1007
tp1988
as(S'people'
p1989
tp1990
(lp1991
(I37
I7
I0
S'most'
p1992
tp1993
a(I57
I17
F0.5
S'willing'
p1994
tp1995
a(I57
I17
I0
S'most'
p1996
tp1997
a(I70
I40
F0.625
S'interested'
p1998
tp1999
a(I101
I0
F0.375
S'techie'
p2000
tp2001
a(I138
I61
I0
S'few'
p2002
tp2003
a(I141
I5
I0
S'android'
p2004
tp2005
a(I151
I8
I0
S'many'
p2006
tp2007
a(I154
I5
I0
S'many'
p2008
tp2009
a(I154
I5
F-0.625
S'other'
p2010
tp2011
a(I155
I21
I0
S'many'
p2012
tp2013
a(I156
I14
I0
S'most'
p2014
tp2015
a(I156
I28
F1.0
S'best'
p2016
tp2017
a(I178
I4
I0
S'many'
p2018
tp2019
as(S'work'
p2020
tp2021
(lp2022
(I106
I2
F0.875
S'music'
p2023
tp2024
a(I172
I35
F-0.125
S'mine'
p2025
tp2026
a(I178
I12
F0.5
S'technical'
p2027
tp2028
as(S'feature'
p2029
tp2030
(lp2031
(I4
I19
I0
S'useful'
p2032
tp2033
a(I19
I26
F0.875
S'nice'
p2034
tp2035
a(I37
I44
F-0.75
S'short'
p2036
tp2037
a(I54
I32
I0
S'cool'
p2038
tp2039
a(I56
I28
I0
S'android'
p2040
tp2041
a(I70
I13
F0.875
S'nice'
p2042
tp2043
a(I124
I11
F1.0
S'good'
p2044
tp2045
a(I138
I47
F0.625
S'controversial'
p2046
tp2047
a(I138
I58
I0
S'great'
p2048
tp2049
a(I151
I63
F0.25
S'favorite'
p2050
tp2051
a(I155
I24
I0
S'cool'
p2052
tp2053
a(I164
I7
F-0.5
S'certain'
p2054
tp2055
as(S'for'
p2056
S'htc'
p2057
S'one'
p2058
tp2059
(lp2060
(I3
I45
F-0.5
g925
tp2061
a(I3
I45
I0
g927
tp2062
a(I24
I70
F-0.75
g929
tp2063
a(I37
I9
F-0.625
g937
tp2064
a(I43
I13
F0.375
g953
tp2065
a(I73
I0
F0.25
g963
tp2066
a(I87
I17
F-0.5
g965
tp2067
a(I101
I0
I0
g971
tp2068
a(I101
I1
I0
g973
tp2069
a(I122
I0
I0
g981
tp2070
a(I139
I0
I0
g985
tp2071
a(I143
I30
I0
g991
tp2072
a(I152
I13
F0.625
g999
tp2073
a(I155
I1
F-0.875
g1001
tp2074
a(I155
I8
F0.375
g1003
tp2075
as(S'battery'
p2076
tp2077
(lp2078
(I3
I24
F0.625
g88
tp2079
a(I4
I11
F-0.5
g1119
tp2080
a(I4
I20
I0
g90
tp2081
a(I4
I20
F0.625
g92
tp2082
a(I9
I6
F0.625
g94
tp2083
a(I19
I25
F1.0
S'good'
p2084
tp2085
a(I19
I37
F0.625
g192
tp2086
a(I19
I37
I0
g194
tp2087
a(I19
I37
F0.625
g196
tp2088
a(I19
I49
F0.625
g198
tp2089
a(I24
I61
F0.125
S'last'
p2090
tp2091
a(I24
I66
F0.625
g96
tp2092
a(I24
I69
F0.625
g98
tp2093
a(I26
I1
F1.0
S'good'
p2094
tp2095
a(I37
I63
F-0.625
S'bad'
p2096
tp2097
a(I56
I22
F-0.5
g1131
tp2098
a(I67
I25
I0
g100
tp2099
a(I67
I25
F0.625
g102
tp2100
a(I71
I1
I0
g360
tp2101
a(I74
I8
I0
S'later'
p2102
tp2103
a(I99
I4
I0
S'adequate'
p2104
tp2105
a(I102
I5
F0.625
g104
tp2106
a(I106
I1
F0.125
S'last'
p2107
tp2108
a(I113
I13
F0.125
S'first'
p2109
tp2110
a(I114
I20
I0
S'auxiliary'
p2111
tp2112
a(I114
I21
F-0.5
g364
tp2113
a(I121
I5
F0.625
g200
tp2114
a(I123
I3
F1.0
g366
tp2115
a(I138
I88
F-0.25
g368
tp2116
a(I138
I90
F0.25
S'portable'
p2117
tp2118
a(I138
I92
F0.625
g202
tp2119
a(I138
I92
F0.5
g204
tp2120
a(I138
I95
F0.25
S'portable'
p2121
tp2122
a(I138
I102
F0.625
g206
tp2123
a(I147
I2
F0.625
g106
tp2124
a(I147
I3
I0
g1144
tp2125
a(I158
I48
F-0.625
S'bad'
p2126
tp2127
a(I158
I48
I0
S'high'
p2128
tp2129
a(I158
I51
I0
g1148
tp2130
a(I158
I59
F0.625
g108
tp2131
a(I175
I0
F1.0
g1156
tp2132
as(S'galaxy'
p2133
S's4'
p2134
tp2135
(lp2136
(I23
I1
I0
S'galaxy'
p2137
tp2138
a(I38
I15
F-0.375
g1929
tp2139
a(I87
I2
F-0.625
S'glad'
p2140
tp2141
a(I135
I21
F-0.75
g1931
tp2142
a(I138
I4
I0
g1933
tp2143
a(I161
I7
I0
S'galaxy'
p2144
tp2145
as(g187
S'big'
p2146
S'deal'
p2147
tp2148
(lp2149
(I37
I41
I0
S'big'
p2150
tp2151
a(I37
I61
I0
S'big'
p2152
tp2153
a(I38
I39
I0
S'big'
p2154
tp2155
a(I70
I20
F0.25
S'biggest'
p2156
tp2157
a(I92
I25
I0
S'big'
p2158
tp2159
as(S'period'
p2160
S'of'
p2161
S'time'
p2162
tp2163
(lp2164
(I155
I40
F0.375
S'extended'
p2165
tp2166
a(I173
I1
F-0.125
S'overall'
p2167
tp2168
a(I173
I1
F0.125
S'above'
p2169
tp2170
as(S'better'
p2171
tp2172
(lp2173
(I4
I20
F0.375
S'much'
p2174
tp2175
a(I51
I40
F0.375
S'much'
p2176
tp2177
a(I54
I15
F0.375
S'much'
p2178
tp2179
a(I67
I3
F0.375
S'much'
p2180
tp2181
a(I113
I7
F0.375
S'much'
p2182
tp2183
a(I155
I13
F1.0
S'good'
p2184
tp2185
a(I155
I13
F0.375
S'much'
p2186
tp2187
a(I163
I24
F-0.125
S'overall'
p2188
tp2189
a(I173
I1
F0.375
S'much'
p2190
tp2191
as(S'never'
p2192
tp2193
(lp2194
(I51
I42
F-0.75
S'likely'
p2195
tp2196
as(S'device'
p2197
tp2198
(lp2199
(I14
I11
I0
S'most'
p2200
tp2201
a(I19
I22
F-0.125
S'overall'
p2202
tp2203
a(I19
I43
I0
S'latest'
p2204
tp2205
a(I19
I48
F0.75
S'beautiful'
p2206
tp2207
a(I25
I2
I0
S'mobile'
p2208
tp2209
a(I25
I5
F0.25
S'favorite'
p2210
tp2211
a(I29
I4
I0
S'electronic'
p2212
tp2213
a(I37
I10
F-0.375
S'smaller'
p2214
tp2215
a(I67
I1
I0
S'real'
p2216
tp2217
a(I70
I27
I0
S'android'
p2218
tp2219
a(I83
I1
I0
S'mobile'
p2220
tp2221
a(I83
I25
F1.0
S'good'
p2222
tp2223
a(I83
I40
F1.0
S'good'
p2224
tp2225
a(I83
I40
F-0.625
S'other'
p2226
tp2227
a(I92
I16
F-0.625
S'absent'
p2228
tp2229
a(I131
I5
F0.375
S'new'
p2230
tp2231
a(I131
I32
I0
S'least'
p2232
tp2233
a(I131
I32
I0
S'android'
p2234
tp2235
a(I131
I34
F1.0
S'good'
p2236
tp2237
a(I138
I5
F0.25
S'unlocked'
p2238
tp2239
a(I138
I90
F-0.5
S'less'
p2240
tp2241
a(I145
I4
F-0.625
S'other'
p2242
tp2243
a(I156
I34
F0.25
S'portable'
p2244
tp2245
a(I178
I5
F1.0
S'good'
p2246
tp2247
as(S'home'
p2248
tp2249
(lp2250
(I24
I17
F0.5
g116
tp2251
a(I24
I17
F0.375
g118
tp2252
a(I69
I16
I0
g126
tp2253
a(I131
I22
I0
g438
tp2254
a(I131
I26
F0.125
g440
tp2255
as(S'music'
p2256
tp2257
(lp2258
(I51
I31
F0.25
S'portable'
p2259
tp2260
a(I57
I10
I0
S'least'
p2261
tp2262
a(I57
I10
F-0.625
S'push'
p2263
tp2264
a(I124
I7
F-0.75
S'bright'
p2265
tp2266
a(I124
I7
F1.0
S'best'
p2267
tp2268
a(I151
I38
F0.25
S'favorite'
p2269
tp2270
as(S'hand'
p2271
tp2272
(lp2273
(I11
I3
F-0.625
g56
tp2274
a(I35
I5
I0
g58
tp2275
a(I70
I2
I0
g60
tp2276
a(I70
I2
F-0.5
g62
tp2277
a(I84
I25
I0
g64
tp2278
a(I138
I26
I0
g66
tp2279
a(I138
I67
F-0.875
g68
tp2280
a(I139
I21
F-0.625
g70
tp2281
a(I141
I3
I0
g72
tp2282
a(I146
I1
I0
g74
tp2283
a(I146
I1
I0
g76
tp2284
a(I151
I6
F0.125
g78
tp2285
a(I157
I2
F-0.375
g80
tp2286
a(I172
I23
F0.125
g82
tp2287
as(S'much'
p2288
S'better'
p2289
tp2290
(lp2291
(I4
I20
F0.375
g2174
tp2292
a(I51
I40
F0.375
g2176
tp2293
a(I54
I15
F0.375
g2178
tp2294
a(I67
I3
F0.375
g2180
tp2295
a(I113
I7
F0.375
g2182
tp2296
a(I155
I13
F1.0
g2184
tp2297
a(I155
I13
F0.375
g2186
tp2298
a(I173
I1
F0.375
g2190
tp2299
as(S'on'
p2300
S'htc'
p2301
S'one'
p2302
tp2303
(lp2304
(I3
I45
F-0.5
g925
tp2305
a(I3
I45
I0
g927
tp2306
a(I24
I70
F-0.75
g929
tp2307
a(I26
I7
F0.375
g931
tp2308
a(I26
I12
I0
g933
tp2309
a(I26
I12
F0.5
g935
tp2310
a(I37
I9
F-0.625
g937
tp2311
a(I37
I54
F0.375
g939
tp2312
a(I37
I60
F0.5
g941
tp2313
a(I37
I70
I0
g943
tp2314
a(I38
I0
F0.125
g945
tp2315
a(I40
I5
F0.125
g947
tp2316
a(I40
I5
F0.125
g949
tp2317
a(I43
I7
I0
g951
tp2318
a(I43
I13
F0.375
g953
tp2319
a(I65
I0
F1.0
g955
tp2320
a(I65
I0
I0
g957
tp2321
a(I65
I0
F0.375
g959
tp2322
a(I70
I36
F0.875
g961
tp2323
a(I73
I0
F0.25
g963
tp2324
a(I87
I17
F-0.5
g965
tp2325
a(I88
I2
F0.875
g967
tp2326
a(I98
I0
F0.75
g969
tp2327
a(I101
I0
I0
g971
tp2328
a(I101
I1
I0
g973
tp2329
a(I105
I3
F-0.625
g975
tp2330
a(I113
I10
I0
g977
tp2331
a(I117
I0
F1.0
g979
tp2332
a(I122
I0
I0
g981
tp2333
a(I128
I15
F-0.125
g983
tp2334
a(I139
I0
I0
g985
tp2335
a(I142
I3
F0.75
g987
tp2336
a(I142
I3
F0.5
g989
tp2337
a(I143
I30
I0
g991
tp2338
a(I146
I2
F0.25
g993
tp2339
a(I151
I5
I0
g995
tp2340
a(I152
I9
F-0.625
g997
tp2341
a(I152
I13
F0.625
g999
tp2342
a(I155
I1
F-0.875
g1001
tp2343
a(I155
I8
F0.375
g1003
tp2344
a(I160
I4
F0.125
g1005
tp2345
a(I167
I7
F0.5
g1007
tp2346
a(I170
I0
F0.875
g1009
tp2347
a(I171
I2
I0
g1011
tp2348
a(I171
I2
F0.25
g1013
tp2349
a(I174
I0
I0
g1015
tp2350
a(I174
I0
F0.375
g1017
tp2351
a(I178
I0
F0.375
g1019
tp2352
a(I187
I0
I0
g1021
tp2353
as(S'low'
p2354
S'light'
p2355
S'performance'
p2356
tp2357
(lp2358
(I25
I8
F0.375
g448
tp2359
a(I25
I8
F1.0
g450
tp2360
a(I25
I8
F-0.25
g452
tp2361
a(I37
I40
F0.625
g487
tp2362
a(I80
I2
F0.375
g491
tp2363
a(I80
I2
F0.875
g493
tp2364
a(I135
I28
I0
g456
tp2365
a(I135
I28
F-0.25
g458
tp2366
as(S'review'
p2367
tp2368
(lp2369
(I14
I11
I0
S'august'
p2370
tp2371
a(I19
I1
F0.25
S'original'
p2372
tp2373
a(I19
I21
F0.125
S'first'
p2374
tp2375
a(I56
I2
F1.0
S'good'
p2376
tp2377
a(I56
I38
F1.0
S'good'
p2378
tp2379
a(I69
I4
I0
S'full'
p2380
tp2381
a(I70
I21
F0.5
S'odd'
p2382
tp2383
a(I77
I0
F-0.375
S'simple'
p2384
tp2385
a(I101
I0
I0
S'real'
p2386
tp2387
a(I121
I0
F0.625
S'necessary'
p2388
tp2389
a(I138
I16
I0
S'entire'
p2390
tp2391
a(I163
I25
F-0.25
S'disappointing'
p2392
tp2393
as(S'apps'
p2394
tp2395
(lp2396
(I25
I11
I0
S'different'
p2397
tp2398
a(I90
I1
F-0.5
S'certain'
p2399
tp2400
a(I92
I21
F0.125
S'last'
p2401
tp2402
a(I139
I13
F-0.625
S'other'
p2403
tp2404
a(I152
I8
F0.25
S'recent'
p2405
tp2406
a(I152
I8
F0.25
S'recent'
p2407
tp2408
a(I155
I31
I0
S'many'
p2409
tp2410
a(I155
I31
F0.25
S'bigger'
p2411
tp2412
a(I156
I52
F-0.625
S'free'
p2413
tp2414
a(I158
I6
I0
S'internal'
p2415
tp2416
a(I158
I32
I0
S'useful'
p2417
tp2418
as(S'feels'
p2419
tp2420
(lp2421
(I28
I1
F1.0
S'good'
p2422
tp2423
a(I37
I14
F0.5
S'whole'
p2424
tp2425
a(I37
I14
F0.125
S'solid'
p2426
tp2427
a(I37
I14
F-0.5
S'heavy'
p2428
tp2429
a(I51
I28
I0
S'large'
p2430
tp2431
a(I51
I47
F0.375
S'tight'
p2432
tp2433
a(I131
I17
I0
S'lightweight'
p2434
tp2435
a(I131
I17
I0
S'plastic'
p2436
tp2437
a(I131
I17
F-0.625
S'light'
p2438
tp2439
a(I138
I31
F0.5
S'expensive'
p2440
tp2441
a(I169
I6
F1.0
S'better'
p2442
tp2443
as(S'days'
p2444
tp2445
(lp2446
(I14
I21
I0
S'few'
p2447
tp2448
a(I17
I1
I0
S'few'
p2449
tp2450
a(I54
I31
I0
S'few'
p2451
tp2452
a(I69
I17
I0
S'more'
p2453
tp2454
a(I74
I3
I0
S'few'
p2455
tp2456
a(I74
I3
F0.25
S'familiar'
p2457
tp2458
a(I105
I3
F-0.125
S'minimum'
p2459
tp2460
a(I105
I3
F0.625
S'kind'
p2461
tp2462
a(I138
I20
I0
S'next'
p2463
tp2464
a(I138
I20
I0
S'few'
p2465
tp2466
a(I139
I24
F-0.625
S'other'
p2467
tp2468
a(I156
I60
I0
S'full'
p2469
tp2470
a(I156
I61
I0
S'few'
p2471
tp2472
a(I156
I62
I0
S'few'
p2473
tp2474
as.