(dp0
(S'looks'
p1
tp2
(lp3
(I1
I1
F0.5
S'stylish'
p4
tp5
a(I47
I2
F0.625
S'easy'
p6
tp7
a(I48
I8
I0
S'great'
p8
tp9
a(I55
I4
F1.0
S'good'
p10
tp11
a(I94
I45
F0.375
S'new'
p12
tp13
a(I166
I27
F1.0
S'good'
p14
tp15
a(I166
I27
F1.0
S'good'
p16
tp17
a(I212
I0
F1.0
S'good'
p18
tp19
as(S'battery'
p20
S'life'
p21
tp22
(lp23
(I21
I1
I0
S'fast'
p24
tp25
a(I46
I20
F-0.125
S'overall'
p26
tp27
a(I55
I2
F1.0
S'good'
p28
tp29
a(I56
I2
F0.625
S'superior'
p30
tp31
a(I83
I4
I0
S'great'
p32
tp33
a(I94
I1
I0
S'more'
p34
tp35
a(I115
I4
F1.0
S'good'
p36
tp37
a(I131
I0
I0
S'great'
p38
tp39
a(I147
I32
F-0.625
S'average'
p40
tp41
a(I147
I32
F-0.5
S'poor'
p42
tp43
a(I147
I51
F-0.75
S'worse'
p44
tp45
a(I162
I4
F1.0
S'good'
p46
tp47
a(I198
I75
F-0.75
S'bright'
p48
tp49
a(I198
I76
F-0.125
S'overall'
p50
tp51
a(I207
I1
I0
S'incredible'
p52
tp53
a(I210
I0
I0
S'great'
p54
tp55
as(S'makes'
p56
tp57
(lp58
(I147
I5
F-0.625
S'other'
p59
tp60
as(S'sense'
p61
tp62
(lp63
(I44
I5
F1.0
S'good'
p64
tp65
a(I69
I2
I0
S'wish'
p66
tp67
a(I121
I9
F0.375
S'new'
p68
tp69
a(I211
I0
F-0.875
S'worst'
p70
tp71
a(I219
I27
I0
S'different'
p72
tp73
as(S'speakers'
p74
tp75
(lp76
(I13
I1
I0
S'great'
p77
tp78
a(I31
I4
F0.875
S'nice'
p79
tp80
a(I46
I5
F1.0
S'good'
p81
tp82
a(I68
I1
F1.0
S'best'
p83
tp84
a(I74
I2
F0.5
S'clear'
p85
tp86
a(I94
I11
I0
S'external'
p87
tp88
a(I98
I10
F0.375
S'extra'
p89
tp90
a(I103
I8
F1.0
S'good'
p91
tp92
a(I103
I10
F0.875
S'music'
p93
tp94
a(I103
I10
I0
S'external'
p95
tp96
a(I112
I1
F1.0
S'best'
p97
tp98
a(I114
I5
F0.375
S'loud'
p99
tp100
a(I136
I7
F0.5
S'satisfied'
p101
tp102
a(I154
I2
F1.0
S'best'
p103
tp104
a(I154
I2
I0
S'external'
p105
tp106
a(I172
I20
F1.0
S'good'
p107
tp108
a(I172
I27
F-0.25
S'matter'
p109
tp110
a(I177
I6
F0.75
S'wonder'
p111
tp112
a(I197
I3
F0.75
S'beautiful'
p113
tp114
a(I206
I6
F0.875
S'nice'
p115
tp116
a(I209
I7
F-0.375
S'top'
p117
tp118
as(S'something'
p119
tp120
(lp121
(I40
I1
F0.375
S'new'
p122
tp123
a(I147
I5
F0.125
S'solid'
p124
tp125
a(I147
I49
F1.0
S'good'
p126
tp127
as(S'happy'
p128
tp129
(lp130
(I130
I3
I0
S'very'
p131
tp132
as(S'screen'
p133
tp134
(lp135
(I2
I5
F0.125
S'solid'
p136
tp137
a(I2
I5
F0.875
S'attractive'
p138
tp139
a(I2
I5
I0
S'fast'
p140
tp141
a(I2
I5
F0.75
S'beautiful'
p142
tp143
a(I2
I6
I0
S'incredible'
p144
tp145
a(I15
I3
I0
S'crystal'
p146
tp147
a(I15
I3
F0.5
S'clear'
p148
tp149
a(I18
I3
F0.5
S'second'
p150
tp151
a(I18
I6
F0.125
S'visible'
p152
tp153
a(I18
I6
F0.5
S'touch'
p154
tp155
a(I18
I7
I0
S'later'
p156
tp157
a(I18
I20
I0
S'faster'
p158
tp159
a(I18
I30
I0
S'next'
p160
tp161
a(I24
I6
I0
S'cool'
p162
tp163
a(I55
I1
F-0.125
S'super'
p164
tp165
a(I55
I1
F0.25
S'sharp'
p166
tp167
a(I61
I10
I0
S'great'
p168
tp169
a(I73
I5
I0
S'different'
p170
tp171
a(I83
I3
F0.75
S'beautiful'
p172
tp173
a(I85
I0
I0
S'faster'
p174
tp175
a(I85
I0
F1.0
S'better'
p176
tp177
a(I93
I14
I0
S'incredible'
p178
tp179
a(I94
I3
F0.125
S'impressive'
p180
tp181
a(I97
I1
I0
S'great'
p182
tp183
a(I128
I23
F-0.375
S'black'
p184
tp185
a(I131
I0
F-0.75
S'bright'
p186
tp187
a(I136
I2
I0
S'active'
p188
tp189
a(I136
I2
F-0.625
S'bad'
p190
tp191
a(I136
I2
F-0.875
S'harder'
p192
tp193
a(I147
I32
F0.25
S'larger'
p194
tp195
a(I158
I21
F0.75
S'beautiful'
p196
tp197
a(I162
I2
I0
S'great'
p198
tp199
a(I168
I5
I0
S'great'
p200
tp201
a(I168
I32
F0.5
S'primary'
p202
tp203
a(I190
I9
I0
S'own'
p204
tp205
a(I190
I12
F1.0
S'good'
p206
tp207
a(I190
I23
F0.25
S'larger'
p208
tp209
a(I203
I24
I0
S'more'
p210
tp211
a(I203
I28
I0
S'incredible'
p212
tp213
a(I209
I13
I0
S'same'
p214
tp215
a(I219
I7
F0.875
S'nice'
p216
tp217
as(S'look'
p218
tp219
(lp220
(I128
I29
F-0.5
S'sure'
p221
tp222
a(I141
I2
I0
S'great'
p223
tp224
a(I151
I2
I0
S'great'
p225
tp226
a(I196
I12
F-0.375
S'serious'
p227
tp228
as(S'call'
p229
S'quality'
p230
tp231
(lp232
(I128
I9
F1.0
S'good'
p233
tp234
a(I147
I7
F-0.125
S'overall'
p235
tp236
as(S'light'
p237
tp238
(lp239
(I5
I1
I0
S'great'
p240
tp241
a(I5
I1
F-0.25
S'low'
p242
tp243
a(I46
I11
F0.375
S'much'
p244
tp245
a(I77
I0
F1.0
S'best'
p246
tp247
a(I77
I0
F-0.75
S'bright'
p248
tp249
a(I93
I15
F-0.25
S'low'
p250
tp251
a(I110
I7
F-0.25
S'low'
p252
tp253
a(I121
I9
F-0.25
S'low'
p254
tp255
a(I172
I9
F-0.125
S'super'
p256
tp257
a(I172
I9
F0.75
S'fit'
p258
tp259
a(I179
I12
F-0.25
S'low'
p260
tp261
a(I198
I17
F1.0
S'better'
p262
tp263
a(I198
I17
F-0.25
S'low'
p264
tp265
a(I198
I22
F-0.25
S'low'
p266
tp267
a(I203
I42
I0
S'phenomenal'
p268
tp269
a(I203
I42
F-0.25
S'low'
p270
tp271
as(S'everything'
p272
tp273
(lp274
(I98
I10
I0
S'most'
p275
tp276
a(I168
I12
F0.875
S'nice'
p277
tp278
a(I175
I0
I0
S'advertized'
p279
tp280
a(I179
I1
F0.625
S'perfect'
p281
tp282
a(I197
I1
I0
S'more'
p283
tp284
a(I198
I28
F0.75
S'ideal'
p285
tp286
a(I198
I28
F-0.625
S'light'
p287
tp288
a(I201
I7
I0
S'normal'
p289
tp290
a(I203
I114
I0
S'same'
p291
tp292
a(I225
I0
F0.625
S'easy'
p293
tp294
a(I225
I0
I0
S'more'
p295
tp296
as(S'samsung'
p297
tp298
(lp299
(I78
I11
F1.0
S'better'
p300
tp301
a(I209
I38
I0
S'same'
p302
tp303
as(S'back'
p304
tp305
(lp306
(I18
I9
F0.5
S'strong'
p307
tp308
a(I147
I44
I0
S'standard'
p309
tp310
a(I219
I2
F0.375
S'much'
p311
tp312
as(S'camera'
p313
tp314
(lp315
(I2
I6
I0
S'great'
p316
tp317
a(I3
I3
I0
S'great'
p318
tp319
a(I16
I11
I0
S'great'
p320
tp321
a(I46
I11
F-0.625
S'other'
p322
tp323
a(I48
I4
I0
S'great'
p324
tp325
a(I58
I0
I0
S'many'
p326
tp327
a(I75
I0
F1.0
S'good'
p328
tp329
a(I78
I11
F1.0
S'best'
p330
tp331
a(I83
I3
I0
S'great'
p332
tp333
a(I93
I15
I0
S'great'
p334
tp335
a(I94
I27
I0
S'few'
p336
tp337
a(I98
I13
F-0.125
S'overall'
p338
tp339
a(I99
I8
F0.125
S'solid'
p340
tp341
a(I99
I9
I0
S'great'
p342
tp343
a(I101
I0
F0.625
S'easy'
p344
tp345
a(I101
I0
I0
S'great'
p346
tp347
a(I103
I23
F0.875
S'nice'
p348
tp349
a(I104
I1
F0.25
S'main'
p350
tp351
a(I107
I2
I0
S'great'
p352
tp353
a(I110
I6
F1.0
S'good'
p354
tp355
a(I114
I6
F1.0
S'good'
p356
tp357
a(I126
I0
F-0.25
S'low'
p358
tp359
a(I126
I0
F-0.625
S'light'
p360
tp361
a(I129
I19
F1.0
S'good'
p362
tp363
a(I129
I19
I0
S'great'
p364
tp365
a(I136
I7
F0.625
S'logical'
p366
tp367
a(I136
I7
F1.0
S'better'
p368
tp369
a(I141
I3
F0.625
S'extraordinary'
p370
tp371
a(I141
I3
F0.625
S'easier'
p372
tp373
a(I147
I12
F1.0
S'good'
p374
tp375
a(I147
I15
I0
S'wish'
p376
tp377
a(I147
I27
I0
S'great'
p378
tp379
a(I147
I27
F-0.125
S'overall'
p380
tp381
a(I147
I32
F1.0
S'best'
p382
tp383
a(I147
I32
F-0.125
S'overall'
p384
tp385
a(I148
I0
I0
S'great'
p386
tp387
a(I158
I11
F1.0
S'good'
p388
tp389
a(I158
I21
F1.0
S'good'
p390
tp391
a(I165
I1
I0
S'great'
p392
tp393
a(I170
I1
F-0.5
S'heavy'
p394
tp395
a(I179
I11
F1.0
S'good'
p396
tp397
a(I190
I9
I0
S'great'
p398
tp399
a(I203
I41
F1.0
S'best'
p400
tp401
a(I203
I45
I0
S'great'
p402
tp403
a(I203
I45
I0
S'wish'
p404
tp405
a(I211
I1
F-0.625
S'bad'
p406
tp407
a(I219
I20
F-0.125
S'ultimate'
p408
tp409
a(I220
I3
F-0.625
S'bad'
p410
tp411
a(I223
I4
F1.0
S'good'
p412
tp413
a(I223
I4
F0.75
S'beautiful'
p414
tp415
as(S'using'
p416
tp417
(lp418
(I46
I11
F0.5
S'gamble'
p419
tp420
as(S'home'
p421
S'screen'
p422
tp423
(lp424
(I61
I14
F-0.5
S'actual'
p425
tp426
a(I73
I5
I0
g170
tp427
a(I103
I16
F0.25
S'main'
p428
tp429
a(I190
I12
F1.0
g206
tp430
as(S'sprint'
p431
tp432
(lp433
(I36
I13
F-0.625
S'other'
p434
tp435
a(I41
I6
I0
S'deal'
p436
tp437
a(I66
I1
I0
S'local'
p438
tp439
a(I128
I40
F-0.5
S'longer'
p440
tp441
a(I128
I40
F0.125
S'able'
p442
tp443
a(I166
I23
F-0.625
S'free'
p444
tp445
a(I172
I50
F-0.25
S'past'
p446
tp447
a(I203
I51
I0
S'standard'
p448
tp449
a(I204
I1
F0.875
S'happier'
p450
tp451
a(I213
I10
F0.5
S'rid'
p452
tp453
a(I225
I1
I0
S'penny'
p454
tp455
as(S'htc'
p456
S'evo'
p457
tp458
(lp459
(I37
I3
F1.0
S'better'
p460
tp461
a(I40
I2
F0.25
S'original'
p462
tp463
a(I73
I0
I0
S'old'
p464
tp465
a(I111
I1
I0
S'android'
p466
tp467
a(I111
I1
F0.125
S'first'
p468
tp469
a(I132
I3
F1.0
S'better'
p470
tp471
as(S'find'
p472
tp473
(lp474
(I198
I46
I0
S'many'
p475
tp476
as(S'htc'
p477
S'sense'
p478
tp479
(lp480
(I93
I15
I0
S'great'
p481
tp482
a(I103
I17
F0.375
S'new'
p483
tp484
a(I118
I1
F0.375
S'new'
p485
tp486
as(S'quality'
p487
tp488
(lp489
(I18
I9
F0.125
S'appropriate'
p490
tp491
a(I18
I36
I0
S'high'
p492
tp493
a(I36
I8
F0.5
S'clear'
p494
tp495
a(I55
I4
I0
S'great'
p496
tp497
a(I59
I6
I0
S'high'
p498
tp499
a(I59
I10
F1.0
S'good'
p500
tp501
a(I93
I14
F-0.25
S'highest'
p502
tp503
a(I93
I14
I0
S'same'
p504
tp505
a(I98
I9
I0
S'great'
p506
tp507
a(I103
I7
I0
S'high'
p508
tp509
a(I103
I26
F0.625
S'okay'
p510
tp511
a(I103
I26
F-0.25
S'disappointing'
p512
tp513
a(I119
I2
F1.0
S'good'
p514
tp515
a(I125
I0
I0
S'phenomenal'
p516
tp517
a(I128
I9
F1.0
g233
tp518
a(I128
I39
F-0.25
S'low'
p519
tp520
a(I144
I2
F1.0
S'good'
p521
tp522
a(I147
I4
I0
S'high'
p523
tp524
a(I147
I7
F-0.125
g235
tp525
a(I158
I5
F1.0
S'sensational'
p526
tp527
a(I192
I12
I0
S'visual'
p528
tp529
a(I206
I10
F0.125
S'first'
p530
tp531
a(I210
I0
I0
S'high'
p532
tp533
a(I215
I0
I0
S'high'
p534
tp535
a(I215
I0
I0
S'plastic'
p536
tp537
a(I219
I5
F-0.25
S'higher'
p538
tp539
a(I227
I2
F0.625
S'superior'
p540
tp541
as(S'recommend'
p542
tp543
(lp544
(I192
I6
I0
S'least'
p545
tp546
as(S'life'
p547
tp548
(lp549
(I55
I2
F1.0
g28
tp550
a(I56
I2
F0.625
g30
tp551
a(I83
I4
I0
g32
tp552
a(I94
I1
I0
g34
tp553
a(I115
I4
F1.0
g36
tp554
a(I131
I0
I0
g38
tp555
a(I135
I1
F1.0
S'better'
p556
tp557
a(I198
I75
F-0.75
g48
tp558
as(S'build'
p559
S'quality'
p560
tp561
(lp562
(I59
I6
I0
g498
tp563
as(S'right'
p564
tp565
(lp566
(I29
I6
F1.0
S'good'
p567
tp568
a(I70
I9
F-0.375
S'top'
p569
tp570
a(I106
I5
I0
S'own'
p571
tp572
a(I106
I5
F-0.125
S'overall'
p573
tp574
as(S'galaxy'
p575
tp576
(lp577
(I16
I7
I0
S'old'
p578
tp579
a(I18
I54
F0.375
S'newest'
p580
tp581
a(I142
I6
I0
S'different'
p582
tp583
a(I181
I0
F1.0
S'better'
p584
tp585
as(S'pictures'
p586
tp587
(lp588
(I0
I0
I0
S'own'
p589
tp590
a(I36
I5
I0
S'fast'
p591
tp592
a(I36
I5
F0.5
S'clear'
p593
tp594
a(I46
I10
F0.875
S'nice'
p595
tp596
a(I58
I0
F0.625
S'superior'
p597
tp598
a(I73
I6
I0
S'unbelievable'
p599
tp600
a(I74
I2
I0
S'great'
p601
tp602
a(I74
I2
I0
S'more'
p603
tp604
a(I94
I35
F0.125
S'able'
p605
tp606
a(I94
I35
I0
S'such'
p607
tp608
a(I98
I11
F0.25
S'sharp'
p609
tp610
a(I100
I1
I0
S'great'
p611
tp612
a(I113
I0
F0.25
S'sharp'
p613
tp614
a(I114
I6
F1.0
S'better'
p615
tp616
a(I127
I2
F1.0
S'good'
p617
tp618
a(I128
I5
F1.0
S'good'
p619
tp620
a(I158
I11
F-0.125
S'overall'
p621
tp622
a(I158
I11
F-0.75
S'dark'
p623
tp624
a(I165
I1
F0.5
S'clear'
p625
tp626
a(I185
I1
F0.875
S'nice'
p627
tp628
a(I190
I9
I0
S'general'
p629
tp630
a(I190
I12
I0
S'great'
p631
tp632
a(I198
I25
F-0.5
S'less'
p633
tp634
a(I198
I39
I0
S'most'
p635
tp636
a(I198
I39
F1.0
S'good'
p637
tp638
a(I198
I39
F0.125
S'enough'
p639
tp640
a(I209
I28
F0.5
S'whole'
p641
tp642
a(I209
I28
I0
S'more'
p643
tp644
as(S'samsung'
p645
S'galaxy'
p646
S's4'
p647
tp648
(lp649
(I206
I5
I0
S'equivalent'
p650
tp651
as(S'features'
p652
tp653
(lp654
(I2
I3
I0
S'many'
p655
tp656
a(I16
I8
I0
S'few'
p657
tp658
a(I22
I1
F0.375
S'new'
p659
tp660
a(I33
I1
F-0.5
S'overload'
p661
tp662
a(I33
I1
F0.375
S'new'
p663
tp664
a(I34
I1
I0
S'many'
p665
tp666
a(I34
I1
I0
S'great'
p667
tp668
a(I44
I8
F-0.5
S'less'
p669
tp670
a(I50
I2
I0
S'many'
p671
tp672
a(I50
I2
F0.875
S'nice'
p673
tp674
a(I52
I3
F0.375
S'new'
p675
tp676
a(I57
I1
F-0.625
S'other'
p677
tp678
a(I66
I6
F0.375
S'prime'
p679
tp680
a(I86
I1
I0
S'many'
p681
tp682
a(I91
I0
F0.125
S'further'
p683
tp684
a(I98
I15
I0
S'few'
p685
tp686
a(I98
I15
F-0.875
S'negative'
p687
tp688
a(I124
I0
I0
S'great'
p689
tp690
a(I124
I0
I0
S'great'
p691
tp692
a(I144
I1
I0
S'great'
p693
tp694
a(I153
I3
F0.875
S'nice'
p695
tp696
a(I168
I15
I0
S'great'
p697
tp698
a(I180
I9
F-0.625
S'other'
p699
tp700
a(I180
I9
I0
S'great'
p701
tp702
a(I201
I0
I0
S'many'
p703
tp704
a(I203
I79
F0.25
S'favorite'
p705
tp706
a(I203
I93
I0
S'useful'
p707
tp708
a(I203
I94
I0
S'many'
p709
tp710
a(I203
I94
I0
S'useful'
p711
tp712
a(I219
I34
F-0.625
S'other'
p713
tp714
as(S'power'
p715
tp716
(lp717
(I16
I8
F0.5
S'true'
p718
tp719
a(I16
I8
I0
S'more'
p720
tp721
a(I102
I1
F0.125
S'enough'
p722
tp723
a(I158
I21
F-0.25
S'low'
p724
tp725
a(I203
I100
I0
S'more'
p726
tp727
a(I203
I100
I0
S'adequate'
p728
tp729
as(S't'
p730
S'much'
p731
S'better'
p732
tp733
(lp734
(I165
I2
F0.375
S'much'
p735
tp736
a(I182
I3
I0
S'large'
p737
tp738
a(I182
I3
F-0.75
S'bright'
p739
tp740
a(I182
I3
F0.375
S'much'
p741
tp742
a(I198
I14
F0.375
S'much'
p743
tp744
as(S'people'
p745
tp746
(lp747
(I70
I8
I0
S'more'
p748
tp749
a(I70
I8
F-0.75
S'likely'
p750
tp751
a(I94
I11
I0
S'many'
p752
tp753
a(I129
I22
I0
S'fast'
p754
tp755
a(I147
I14
I0
S'most'
p756
tp757
a(I147
I40
I0
S'most'
p758
tp759
a(I172
I3
I0
S'most'
p760
tp761
a(I172
I9
I0
S'anymore'
p762
tp763
as(S'beats'
p764
tp765
(lp766
(I92
I1
I0
S'great'
p767
tp768
a(I171
I2
I0
S'integrated'
p769
tp770
a(I198
I47
F0.875
S'nice'
p771
tp772
as(S'feature'
p773
tp774
(lp775
(I18
I47
F0.625
S'major'
p776
tp777
a(I46
I22
I0
S'cool'
p778
tp779
a(I50
I1
F0.875
S'nice'
p780
tp781
a(I64
I6
I0
S'great'
p782
tp783
a(I66
I2
F0.25
S'favorite'
p784
tp785
a(I82
I17
F0.375
S'new'
p786
tp787
a(I82
I26
I0
S'cool'
p788
tp789
a(I94
I11
F0.625
S'major'
p790
tp791
a(I117
I6
F0.375
S'interesting'
p792
tp793
a(I121
I14
I0
S'great'
p794
tp795
a(I140
I7
F-0.125
S'mine'
p796
tp797
a(I175
I4
I0
S'great'
p798
tp799
a(I175
I4
I0
S'quick'
p800
tp801
a(I192
I21
F0.875
S'nice'
p802
tp803
a(I198
I51
I0
S'third'
p804
tp805
a(I224
I0
I0
S'cool'
p806
tp807
as(S'front'
p808
S'facing'
p809
S'speakers'
p810
tp811
(lp812
(I74
I2
F0.5
g85
tp813
a(I114
I5
F0.375
g99
tp814
a(I119
I2
F-0.125
S'front'
p815
tp816
a(I119
I2
F0.5
S'second'
p817
tp818
as(S'design'
p819
tp820
(lp821
(I9
I0
F1.0
S'best'
p822
tp823
a(I110
I3
F0.625
S'industrial'
p824
tp825
a(I147
I46
F-0.5
S'poor'
p826
tp827
a(I166
I4
F0.125
S'impressive'
p828
tp829
a(I168
I33
I0
S'standard'
p830
tp831
a(I168
I33
F-0.25
S'google'
p832
tp833
a(I203
I2
F0.625
S'industrial'
p834
tp835
a(I203
I2
F0.5
S'second'
p836
tp837
as(S'android'
p838
tp839
(lp840
(I7
I0
F1.0
S'best'
p841
tp842
a(I29
I7
F0.5
S'second'
p843
tp844
a(I33
I1
F0.125
S'last'
p845
tp846
a(I50
I0
I0
S'great'
p847
tp848
a(I61
I17
F1.0
S'best'
p849
tp850
a(I65
I1
F0.125
S'first'
p851
tp852
a(I87
I2
F0.125
S'first'
p853
tp854
a(I94
I20
I0
S'generic'
p855
tp856
a(I168
I39
F1.0
S'best'
p857
tp858
a(I205
I0
F1.0
S'best'
p859
tp860
a(I209
I1
F0.125
S'first'
p861
tp862
as(S'sound'
p863
tp864
(lp865
(I16
I12
I0
S'great'
p866
tp867
a(I41
I5
I0
S'incredible'
p868
tp869
a(I46
I7
I0
S'rich'
p870
tp871
a(I46
I7
F0.5
S'clear'
p872
tp873
a(I82
I59
F1.0
S'good'
p874
tp875
a(I82
I59
F0.375
S'loud'
p876
tp877
a(I100
I1
F1.0
S'best'
p878
tp879
a(I119
I2
F1.0
S'good'
p880
tp881
a(I126
I1
I0
S'great'
p882
tp883
a(I132
I0
I0
S'great'
p884
tp885
a(I145
I5
F1.0
S'good'
p886
tp887
a(I147
I15
F0.125
S'solid'
p888
tp889
a(I157
I1
F1.0
S'good'
p890
tp891
a(I158
I7
F0.5
S'clear'
p892
tp893
a(I158
I7
F0.5
S'accurate'
p894
tp895
a(I161
I4
F1.0
S'best'
p896
tp897
a(I166
I17
F0.625
S'decent'
p898
tp899
a(I168
I11
F-0.625
S'clean'
p900
tp901
a(I175
I4
F1.0
S'best'
p902
tp903
a(I186
I2
I0
S'great'
p904
tp905
a(I196
I6
I0
S'rich'
p906
tp907
a(I198
I48
I0
S'more'
p908
tp909
a(I198
I48
I0
S'soul'
p910
tp911
a(I213
I14
I0
S'great'
p912
tp913
as(S'galaxy'
p914
S's4'
p915
tp916
(lp917
(I206
I5
I0
g650
tp918
as(S'feel'
p919
tp920
(lp921
(I16
I13
I0
S'great'
p922
tp923
a(I44
I3
I0
S'flush'
p924
tp925
a(I44
I3
F0.125
S'solid'
p926
tp927
a(I44
I3
F0.125
S'solid'
p928
tp929
a(I46
I34
F-0.625
S'free'
p930
tp931
a(I93
I18
F-0.625
S'free'
p932
tp933
a(I137
I3
I0
S'great'
p934
tp935
a(I137
I3
F0.625
S'easy'
p936
tp937
a(I145
I3
F1.0
S'good'
p938
tp939
a(I213
I1
F-0.25
S'thin'
p940
tp941
a(I219
I5
F0.125
S'solid'
p942
tp943
as(S'beats'
p944
S'audio'
p945
tp946
(lp947
(I92
I1
I0
g767
tp948
a(I198
I47
F0.875
g771
tp949
as(S'and'
p950
S'battery'
p951
S'life'
p952
tp953
(lp954
(I21
I1
I0
g24
tp955
a(I56
I2
F0.625
g30
tp956
a(I83
I4
I0
g32
tp957
a(I94
I1
I0
g34
tp958
a(I115
I4
F1.0
g36
tp959
a(I131
I0
I0
g38
tp960
a(I147
I32
F-0.625
g40
tp961
a(I147
I32
F-0.5
g42
tp962
a(I147
I51
F-0.75
g44
tp963
a(I198
I75
F-0.75
g48
tp964
a(I207
I1
I0
g52
tp965
as(S'software'
p966
tp967
(lp968
(I9
I0
F0.375
S'new'
p969
tp970
a(I85
I2
I0
S'android'
p971
tp972
a(I190
I1
F-0.5
S'sure'
p973
tp974
a(I190
I1
I0
S'stable'
p975
tp976
a(I203
I66
I0
S'very'
p977
tp978
a(I203
I70
F-0.625
S'clean'
p979
tp980
a(I203
I72
I0
S'same'
p981
tp982
a(I223
I4
I0
S'android'
p983
tp984
as(S'low'
p985
S'light'
p986
tp987
(lp988
(I5
I1
I0
g240
tp989
a(I5
I1
F-0.25
g242
tp990
a(I46
I11
F0.375
g244
tp991
a(I77
I0
F1.0
g246
tp992
a(I77
I0
F-0.75
g248
tp993
a(I93
I15
F-0.25
g250
tp994
a(I110
I7
F-0.25
g252
tp995
a(I121
I9
F-0.25
g254
tp996
a(I179
I12
F-0.25
g260
tp997
a(I198
I17
F1.0
g262
tp998
a(I198
I17
F-0.25
g264
tp999
a(I198
I22
F-0.25
g266
tp1000
a(I203
I42
I0
g268
tp1001
a(I203
I42
F-0.25
g270
tp1002
as(S'better'
p1003
tp1004
(lp1005
(I165
I2
F0.375
g735
tp1006
a(I182
I3
I0
g737
tp1007
a(I182
I3
F-0.75
g739
tp1008
a(I182
I3
F0.375
g741
tp1009
a(I198
I14
F0.375
g743
tp1010
as(S'blinkfeed'
p1011
tp1012
(lp1013
(I215
I3
F0.5
S'possible'
p1014
tp1015
a(I216
I1
F0.625
S'add'
p1016
tp1017
as(S'thing'
p1018
tp1019
(lp1020
(I19
I12
F1.0
S'good'
p1021
tp1022
a(I36
I10
I0
S'only'
p1023
tp1024
a(I36
I10
F-0.875
S'negative'
p1025
tp1026
a(I48
I6
I0
S'most'
p1027
tp1028
a(I56
I4
I0
S'only'
p1029
tp1030
a(I67
I1
I0
S'funny'
p1031
tp1032
a(I68
I2
F1.0
S'best'
p1033
tp1034
a(I73
I7
I0
S'only'
p1035
tp1036
a(I98
I10
F0.25
S'favorite'
p1037
tp1038
a(I110
I3
F-0.625
S'bad'
p1039
tp1040
a(I110
I6
F0.125
S'last'
p1041
tp1042
a(I114
I6
I0
S'only'
p1043
tp1044
a(I117
I11
I0
S'big'
p1045
tp1046
a(I128
I11
F-0.625
S'other'
p1047
tp1048
a(I166
I17
F1.0
S'best'
p1049
tp1050
a(I168
I11
F1.0
S'good'
p1051
tp1052
a(I172
I18
I0
S'only'
p1053
tp1054
a(I172
I20
F0.125
S'first'
p1055
tp1056
a(I172
I33
I0
S'same'
p1057
tp1058
a(I192
I22
F1.0
S'good'
p1059
tp1060
a(I198
I64
F1.0
S'good'
p1061
tp1062
a(I201
I5
I0
S'same'
p1063
tp1064
a(I203
I11
F-0.375
S'small'
p1065
tp1066
a(I204
I1
I0
S'only'
p1067
tp1068
a(I209
I26
F1.0
S'good'
p1069
tp1070
a(I225
I1
F1.0
S'best'
p1071
tp1072
as(S'n'
p1073
S'r'
p1074
S'hand'
p1075
tp1076
(lp1077
(I46
I3
I0
S'great'
p1078
tp1079
a(I61
I6
I0
S'great'
p1080
tp1081
a(I184
I1
I0
S'large'
p1082
tp1083
a(I203
I54
F-0.625
S'other'
p1084
tp1085
a(I203
I94
F-0.625
S'other'
p1086
tp1087
a(I219
I3
F-0.625
S'secure'
p1088
tp1089
a(I219
I18
F-0.625
S'other'
p1090
tp1091
as(S'device'
p1092
tp1093
(lp1094
(I82
I20
F-0.125
S'mine'
p1095
tp1096
a(I93
I9
I0
S'own'
p1097
tp1098
a(I94
I14
I0
S'peripheral'
p1099
tp1100
a(I103
I7
I0
S'android'
p1101
tp1102
a(I120
I0
F0.875
S'happy'
p1103
tp1104
a(I172
I3
F0.25
S'main'
p1105
tp1106
a(I172
I3
I0
S'electronic'
p1107
tp1108
a(I187
I0
I0
S'great'
p1109
tp1110
a(I190
I0
I0
S'fast'
p1111
tp1112
a(I198
I76
I0
S'more'
p1113
tp1114
a(I198
I76
F0.5
S'reasonable'
p1115
tp1116
a(I203
I105
F0.75
S'beautiful'
p1117
tp1118
a(I203
I105
F-0.625
S'clean'
p1119
tp1120
a(I204
I0
I0
S'great'
p1121
tp1122
a(I226
I0
F0.25
S'portable'
p1123
tp1124
as(g1073
S'hand'
p1125
tp1126
(lp1127
(I46
I3
I0
g1078
tp1128
a(I61
I6
I0
g1080
tp1129
a(I184
I1
I0
g1082
tp1130
a(I203
I54
F-0.625
g1084
tp1131
a(I203
I94
F-0.625
g1086
tp1132
a(I219
I3
F-0.625
g1088
tp1133
a(I219
I18
F-0.625
g1090
tp1134
as(S'home'
p1135
tp1136
(lp1137
(I18
I10
F0.375
S'new'
p1138
tp1139
a(I61
I14
F-0.5
g425
tp1140
a(I103
I16
F0.25
g428
tp1141
as(S'things'
p1142
tp1143
(lp1144
(I21
I4
I0
S'incredible'
p1145
tp1146
a(I26
I0
I0
S'many'
p1147
tp1148
a(I93
I15
F-0.75
S'little'
p1149
tp1150
a(I94
I21
I0
S'large'
p1151
tp1152
a(I94
I21
F0.625
S'easy'
p1153
tp1154
a(I106
I4
I0
S'sleek'
p1155
tp1156
a(I106
I4
F0.125
S'enough'
p1157
tp1158
a(I106
I4
F1.0
S'good'
p1159
tp1160
a(I117
I6
I0
S'many'
p1161
tp1162
a(I129
I1
I0
S'most'
p1163
tp1164
a(I147
I36
I0
S'same'
p1165
tp1166
a(I168
I9
F0.25
S'read'
p1167
tp1168
a(I168
I16
F0.75
S'shine'
p1169
tp1170
a(I177
I8
F1.0
S'good'
p1171
tp1172
a(I177
I8
F0.5
S'true'
p1173
tp1174
a(I194
I0
I0
S'different'
p1175
tp1176
a(I198
I49
I0
S'tinny'
p1177
tp1178
a(I209
I14
F-0.125
S'minimum'
p1179
tp1180
a(I213
I6
F0.5
S'clear'
p1181
tp1182
a(I213
I13
F0.625
S'positive'
p1183
tp1184
a(I215
I1
I0
S'great'
p1185
tp1186
a(I219
I27
I0
S'many'
p1187
tp1188
a(I219
I28
I0
S'big'
p1189
tp1190
as(S'hand'
p1191
tp1192
(lp1193
(I46
I3
I0
g1078
tp1194
a(I61
I6
I0
g1080
tp1195
a(I184
I1
I0
g1082
tp1196
a(I203
I54
F-0.625
g1084
tp1197
a(I203
I94
F-0.625
g1086
tp1198
a(I219
I3
F-0.625
g1088
tp1199
a(I219
I18
F-0.625
g1090
tp1200
as(S'sd'
p1201
S'card'
p1202
tp1203
(lp1204
(I61
I12
I0
S'external'
p1205
tp1206
a(I219
I6
I0
S'sd'
p1207
tp1208
as(S'front'
p1209
S'facing'
p1210
tp1211
(lp1212
(I119
I2
F-0.125
g815
tp1213
a(I119
I2
F0.5
g817
tp1214
as(S'pretty'
p1215
tp1216
(lp1217
(I85
I2
I0
S'android'
p1218
tp1219
as(S'awesome'
p1220
tp1221
(lp1222
(I55
I0
I0
S'great'
p1223
tp1224
a(I55
I0
I0
S'fast'
p1225
tp1226
a(I70
I11
F-0.125
S'overall'
p1227
tp1228
a(I139
I1
F0.25
S'are'
p1229
tp1230
a(I168
I20
I0
S'great'
p1231
tp1232
as(S'time'
p1233
tp1234
(lp1235
(I18
I26
I0
S'same'
p1236
tp1237
a(I26
I0
I0
S'same'
p1238
tp1239
a(I41
I1
F0.125
S'first'
p1240
tp1241
a(I41
I1
I0
S'android'
p1242
tp1243
a(I41
I1
I0
S'quick'
p1244
tp1245
a(I41
I1
F0.625
S'easy'
p1246
tp1247
a(I41
I1
I0
S'android'
p1248
tp1249
a(I44
I3
F0.875
S'music'
p1250
tp1251
a(I44
I3
F0.125
S'first'
p1252
tp1253
a(I82
I16
F0.125
S'first'
p1254
tp1255
a(I87
I0
F-0.5
S'long'
p1256
tp1257
a(I91
I5
F0.125
S'first'
p1258
tp1259
a(I98
I3
F0.125
S'first'
p1260
tp1261
a(I98
I5
F0.125
S'first'
p1262
tp1263
a(I129
I22
I0
S'same'
p1264
tp1265
a(I177
I8
F0.125
S'first'
p1266
tp1267
a(I177
I8
F1.0
S'good'
p1268
tp1269
a(I198
I91
F0.125
S'first'
p1270
tp1271
a(I198
I93
F0.625
S'wary'
p1272
tp1273
a(I219
I24
F-0.875
S'harder'
p1274
tp1275
a(I219
I24
I0
S'signal'
p1276
tp1277
as(S'battery'
p1278
tp1279
(lp1280
(I21
I1
I0
g24
tp1281
a(I42
I0
F0.625
S'removable'
p1282
tp1283
a(I44
I13
F0.875
S'happy'
p1284
tp1285
a(I46
I20
F-0.125
g26
tp1286
a(I46
I21
F0.375
S'new'
p1287
tp1288
a(I46
I21
F0.625
S'removable'
p1289
tp1290
a(I64
I3
F0.125
S'last'
p1291
tp1292
a(I64
I3
F-0.5
S'long'
p1293
tp1294
a(I88
I1
F1.0
S'good'
p1295
tp1296
a(I106
I9
F0.625
S'removable'
p1297
tp1298
a(I117
I11
F0.625
S'removable'
p1299
tp1300
a(I124
I0
F0.625
S'replaceable'
p1301
tp1302
a(I130
I4
F0.125
S'sealed'
p1303
tp1304
a(I147
I32
F-0.625
g40
tp1305
a(I147
I32
F-0.5
g42
tp1306
a(I147
I35
F0.5
S'bought'
p1307
tp1308
a(I147
I35
I0
S'external'
p1309
tp1310
a(I147
I51
F-0.75
g44
tp1311
a(I152
I4
F0.625
S'replaceable'
p1312
tp1313
a(I158
I3
I0
S'internal'
p1314
tp1315
a(I162
I4
F1.0
g46
tp1316
a(I168
I22
F0.625
S'replaceable'
p1317
tp1318
a(I187
I2
F-0.25
S'lower'
p1319
tp1320
a(I198
I76
F-0.125
g50
tp1321
a(I203
I97
F0.25
S'larger'
p1322
tp1323
a(I207
I1
I0
g52
tp1324
a(I210
I0
I0
g54
tp1325
as(S'data'
p1326
tp1327
(lp1328
(I93
I1
F-0.5
S'less'
p1329
tp1330
a(I103
I11
F1.0
S'good'
p1331
tp1332
a(I158
I16
F-0.375
S'unacceptable'
p1333
tp1334
a(I175
I6
F-0.5
S'poor'
p1335
tp1336
a(I180
I1
F1.0
S'better'
p1337
tp1338
a(I180
I1
I0
S'mobile'
p1339
tp1340
as(g1073
S'low'
p1341
S'light'
p1342
tp1343
(lp1344
(I5
I1
I0
g240
tp1345
a(I5
I1
F-0.25
g242
tp1346
a(I46
I11
F0.375
g244
tp1347
a(I77
I0
F1.0
g246
tp1348
a(I77
I0
F-0.75
g248
tp1349
a(I93
I15
F-0.25
g250
tp1350
a(I110
I7
F-0.25
g252
tp1351
a(I121
I9
F-0.25
g254
tp1352
a(I179
I12
F-0.25
g260
tp1353
a(I198
I17
F1.0
g262
tp1354
a(I198
I17
F-0.25
g264
tp1355
a(I198
I22
F-0.25
g266
tp1356
a(I203
I42
I0
g268
tp1357
a(I203
I42
F-0.25
g270
tp1358
as(S'low'
p1359
S'light'
p1360
S'performance'
p1361
tp1362
(lp1363
(I5
I1
I0
g240
tp1364
a(I5
I1
F-0.25
g242
tp1365
a(I121
I9
F-0.25
g254
tp1366
a(I121
I9
F0.5
S'second'
p1367
tp1368
a(I147
I28
F0.75
S'give'
p1369
tp1370
a(I198
I22
F-0.25
g266
tp1371
a(I203
I42
I0
g268
tp1372
a(I203
I42
F-0.25
g270
tp1373
as(S'much'
p1374
S'better'
p1375
tp1376
(lp1377
(I165
I2
F0.375
g735
tp1378
a(I182
I3
I0
g737
tp1379
a(I182
I3
F-0.75
g739
tp1380
a(I182
I3
F0.375
g741
tp1381
a(I198
I14
F0.375
g743
tp1382
as(S'an'
p1383
S'sd'
p1384
S'card'
p1385
tp1386
(lp1387
(I61
I12
I0
g1205
tp1388
a(I219
I6
I0
g1207
tp1389
as(S'work'
p1390
tp1391
(lp1392
(I110
I4
F1.0
S'good'
p1393
tp1394
as(S'apps'
p1395
tp1396
(lp1397
(I0
I0
F-0.625
S'other'
p1398
tp1399
a(I25
I0
I0
S'great'
p1400
tp1401
a(I25
I0
F-0.125
S'overall'
p1402
tp1403
a(I25
I0
F0.375
S'much'
p1404
tp1405
a(I55
I2
F0.25
S'powerful'
p1406
tp1407
a(I103
I21
F-0.5
S'regular'
p1408
tp1409
a(I166
I10
I0
S'most'
p1410
tp1411
a(I166
I17
F-0.5
S'open'
p1412
tp1413
a(I186
I0
F-0.625
S'free'
p1414
tp1415
a(I190
I6
I0
S'general'
p1416
tp1417
a(I209
I17
F0.875
S'nice'
p1418
tp1419
a(I209
I17
I0
S'most'
p1420
tp1421
a(I213
I4
F-0.625
S'other'
p1422
tp1423
a(I219
I28
F-0.625
S'other'
p1424
tp1425
as(S'feels'
p1426
tp1427
(lp1428
(I16
I7
I0
S'same'
p1429
tp1430
a(I205
I0
I0
S'great'
p1431
tp1432
as(S'fast'
p1433
tp1434
(lp1435
(I2
I6
F-0.375
S'crazy'
p1436
tp1437
a(I108
I1
F-0.125
S'super'
p1438
tp1439
a(I117
I2
F-0.125
S'super'
p1440
tp1441
a(I133
I0
F0.375
S'reliable'
p1442
tp1443
a(I137
I1
F-0.125
S'super'
p1444
tp1445
as(S'performance'
p1446
tp1447
(lp1448
(I104
I0
F-0.125
S'overall'
p1449
tp1450
a(I121
I9
F0.5
g1367
tp1451
a(I147
I28
F0.75
g1369
tp1452
a(I185
I0
F0.25
S'powerful'
p1453
tp1454
a(I198
I64
F0.375
S'significant'
p1455
tp1456
as.