(dp0
(S'problem'
p1
tp2
(lp3
(I101
I1
F-0.75
S'little'
p4
tp5
a(I117
I1
I0
S'same'
p6
tp7
as(S'thanks'
p8
tp9
(lp10
(I221
I0
I0
S'great'
p11
tp12
as(S'and'
p13
S'nokia'
p14
S'apps'
p15
tp16
(lp17
(I151
I3
I0
S'cool'
p18
tp19
a(I217
I5
I0
S'great'
p20
tp21
a(I217
I5
F0.125
S'able'
p22
tp23
as(S'battery'
p24
S'life'
p25
tp26
(lp27
(I30
I0
F-0.5
S'poor'
p28
tp29
a(I140
I1
F0.625
S'acceptable'
p30
tp31
a(I155
I3
F1.0
S'good'
p32
tp33
a(I155
I3
F0.125
S'last'
p34
tp35
a(I161
I0
F1.0
S'good'
p36
tp37
a(I172
I4
I0
S'great'
p38
tp39
a(I182
I1
F-0.5
S'poor'
p40
tp41
as(S'purchase'
p42
tp43
(lp44
(I63
I0
F0.875
S'happy'
p45
tp46
a(I118
I9
F1.0
S'good'
p47
tp48
a(I153
I0
F1.0
S'good'
p49
tp50
a(I208
I0
I0
S'next'
p51
tp52
as(S'email'
p53
tp54
(lp55
(I72
I10
F0.375
S'new'
p56
tp57
as(S'sim'
p58
S'card'
p59
tp60
(lp61
(I100
I1
F0.625
S'easy'
p62
tp63
a(I155
I2
I0
S'old'
p64
tp65
a(I156
I9
F-0.625
S'free'
p66
tp67
a(I171
I2
F-0.75
S'invalid'
p68
tp69
a(I192
I1
F-0.5
S'international'
p70
tp71
a(I213
I2
F-0.75
S'little'
p72
tp73
as(S'money'
p74
tp75
(lp76
(I25
I1
F0.375
S'much'
p77
tp78
a(I205
I3
F-0.75
S'little'
p79
tp80
as(S'screen'
p81
tp82
(lp83
(I15
I6
F-0.75
S'bright'
p84
tp85
a(I15
I6
F0.25
S'sharp'
p86
tp87
a(I39
I3
I0
S'big'
p88
tp89
a(I39
I3
F0.625
S'easier'
p90
tp91
a(I69
I5
F0.875
S'nice'
p92
tp93
a(I105
I0
F0.5
S'touch'
p94
tp95
a(I105
I0
F0.125
S'first'
p96
tp97
a(I119
I9
F0.25
S'main'
p98
tp99
a(I164
I2
F0.25
S'responsive'
p100
tp101
a(I185
I1
F-0.75
S'difficult'
p102
tp103
a(I186
I6
I0
S'entire'
p104
tp105
a(I207
I1
I0
S'great'
p106
tp107
as(S'everything'
p108
tp109
(lp110
(I45
I0
I0
S'great'
p111
tp112
a(I151
I2
F-0.625
S'light'
p113
tp114
a(I225
I0
I0
S'more'
p115
tp116
as(S'samsung'
p117
tp118
(lp119
(I119
I15
I0
S'user'
p120
tp121
a(I162
I4
I0
S'least'
p122
tp123
a(I205
I2
F0.125
S'last'
p124
tp125
as(S'back'
p126
tp127
(lp128
(I33
I4
I0
S'peel'
p129
tp130
as(S'download'
p131
tp132
(lp133
(I93
I8
F-0.625
S'free'
p134
tp135
as(S'camera'
p136
tp137
(lp138
(I35
I0
F0.875
S'nice'
p139
tp140
a(I42
I5
F0.375
S'new'
p141
tp142
a(I93
I9
F-0.125
S'front'
p143
tp144
a(I97
I5
F0.375
S'new'
p145
tp146
a(I99
I3
I0
S'most'
p147
tp148
a(I106
I2
F1.0
S'good'
p149
tp150
a(I118
I5
F1.0
S'good'
p151
tp152
a(I118
I5
F-0.625
S'natural'
p153
tp154
a(I118
I5
F-0.625
S'light'
p155
tp156
a(I151
I3
I0
S'sensitive'
p157
tp158
a(I151
I3
I0
S'great'
p159
tp160
a(I168
I5
F0.375
S'new'
p161
tp162
a(I198
I4
F0.875
S'nice'
p163
tp164
a(I204
I1
F1.0
S'better'
p165
tp166
a(I204
I8
I0
S'great'
p167
tp168
a(I231
I1
I0
S'wish'
p169
tp170
as(S'life'
p171
tp172
(lp173
(I140
I1
F0.625
g30
tp174
a(I172
I4
I0
g38
tp175
a(I182
I1
F-0.5
g40
tp176
as(S'operating'
p177
S'system'
p178
tp179
(lp180
(I40
I0
F-0.125
S'complicated'
p181
tp182
a(I78
I2
F0.375
S'new'
p183
tp184
a(I192
I3
F0.25
S'familiar'
p185
tp186
as(S'a'
p187
S'good'
p188
S'price'
p189
tp190
(lp191
(I42
I6
I0
S'such'
p192
tp193
a(I42
I6
F1.0
S'good'
p194
tp195
a(I84
I0
F-0.25
S'cheaper'
p196
tp197
a(I97
I6
I0
S'such'
p198
tp199
a(I97
I6
F1.0
S'good'
p200
tp201
a(I155
I0
F1.0
S'good'
p202
tp203
a(I167
I0
F1.0
S'good'
p204
tp205
a(I168
I6
I0
S'such'
p206
tp207
a(I168
I6
F1.0
S'good'
p208
tp209
a(I181
I0
I0
S'full'
p210
tp211
a(I182
I1
F1.0
S'good'
p212
tp213
as(S'straight'
p214
S'talk'
p215
tp216
(lp217
(I94
I0
F0.625
S'straight'
p218
tp219
a(I94
I1
F0.625
S'straight'
p220
tp221
a(I144
I1
F0.625
S'straight'
p222
tp223
as(S'front'
p224
S'facing'
p225
S'camera'
p226
tp227
(lp228
(I93
I9
F-0.125
g143
tp229
as(S'quality'
p230
tp231
(lp232
(I84
I0
F1.0
S'good'
p233
tp234
a(I89
I3
F0.625
S'okay'
p235
tp236
a(I90
I0
I0
S'great'
p237
tp238
a(I140
I8
F1.0
S'good'
p239
tp240
a(I162
I2
F1.0
S'best'
p241
tp242
a(I162
I2
I0
S'least'
p243
tp244
a(I179
I31
F1.0
S'better'
p245
tp246
a(I186
I4
F-0.25
S'lower'
p247
tp248
a(I198
I4
F0.875
S'nice'
p249
tp250
a(I207
I1
F1.0
S'good'
p251
tp252
as(S'product'
p253
tp254
(lp255
(I59
I0
F0.125
S'impressive'
p256
tp257
a(I70
I0
I0
S'great'
p258
tp259
a(I74
I4
F0.375
S'new'
p260
tp261
a(I117
I5
F-0.625
S'bad'
p262
tp263
a(I139
I1
F1.0
S'good'
p264
tp265
a(I211
I2
F1.0
S'good'
p266
tp267
a(I222
I1
F1.0
S'good'
p268
tp269
as(S'lumia'
p270
tp271
(lp272
(I14
I1
I0
S'third'
p273
tp274
a(I33
I0
F0.125
S'first'
p275
tp276
a(I33
I0
F-0.625
S'other'
p277
tp278
a(I33
I1
F-0.625
S'other'
p279
tp280
a(I83
I0
F0.25
S'ok'
p281
tp282
a(I121
I0
F0.875
S'happy'
p283
tp284
a(I121
I0
F0.375
S'new'
p285
tp286
a(I122
I5
I0
S'great'
p287
tp288
a(I122
I5
F0.375
S'available'
p289
tp290
as(S'windows'
p291
tp292
(lp293
(I68
I2
F0.125
S'first'
p294
tp295
a(I72
I5
F0.375
S'available'
p296
tp297
a(I78
I2
F-0.5
S'sure'
p298
tp299
a(I85
I1
I0
S'mobile'
p300
tp301
a(I86
I3
F0.375
S'available'
p302
tp303
a(I86
I3
F-0.625
S'free'
p304
tp305
a(I99
I1
F-0.5
S'sure'
p306
tp307
a(I119
I13
F0.625
S'easy'
p308
tp309
a(I134
I0
I0
S'great'
p310
tp311
a(I139
I2
I0
S'old'
p312
tp313
a(I155
I1
F0.625
S'easy'
p314
tp315
a(I181
I0
F-0.625
S'other'
p316
tp317
a(I185
I1
F0.25
S'unlocked'
p318
tp319
a(I199
I3
I0
S'android'
p320
tp321
a(I216
I1
F0.25
S'familiar'
p322
tp323
a(I216
I1
I0
S'mobile'
p324
tp325
as(S'right'
p326
tp327
(lp328
(I33
I5
F-0.375
S'top'
p329
tp330
a(I72
I9
F0.375
S'available'
p331
tp332
a(I200
I1
F0.625
S'accessible'
p333
tp334
as(S'system'
p335
S'languages'
p336
tp337
(lp338
(I42
I12
I0
S'english'
p339
tp340
a(I42
I13
F0.625
S'easy'
p341
tp342
a(I42
I13
F-0.625
S'other'
p343
tp344
a(I97
I12
I0
S'english'
p345
tp346
a(I97
I13
F0.625
S'easy'
p347
tp348
a(I97
I13
F-0.625
S'other'
p349
tp350
a(I168
I12
I0
S'english'
p351
tp352
a(I168
I13
F0.625
S'easy'
p353
tp354
a(I168
I13
F-0.625
S'other'
p355
tp356
as(S'features'
p357
tp358
(lp359
(I86
I1
F0.125
S'first'
p360
tp361
a(I118
I3
F0.25
S'helpful'
p362
tp363
a(I190
I0
F0.625
S'perfect'
p364
tp365
a(I193
I0
I0
S'least'
p366
tp367
a(I193
I0
F-0.5
S'certain'
p368
tp369
as(S'price'
p370
tp371
(lp372
(I42
I6
I0
g192
tp373
a(I42
I6
F1.0
g194
tp374
a(I66
I0
F-0.25
S'cheaper'
p375
tp376
a(I81
I0
F0.75
S'worth'
p377
tp378
a(I84
I0
F-0.25
g196
tp379
a(I97
I6
I0
g198
tp380
a(I97
I6
F1.0
g200
tp381
a(I123
I1
F0.5
S'reasonable'
p382
tp383
a(I132
I0
F1.0
S'better'
p384
tp385
a(I132
I0
I0
S'mobile'
p386
tp387
a(I142
I1
I0
S'great'
p388
tp389
a(I145
I0
F0.5
S'reasonable'
p390
tp391
a(I151
I4
F0.625
S'easy'
p392
tp393
a(I155
I0
F1.0
g202
tp394
a(I167
I0
F1.0
g204
tp395
a(I168
I6
I0
g206
tp396
a(I168
I6
F1.0
g208
tp397
a(I181
I0
I0
g210
tp398
a(I182
I1
F1.0
g212
tp399
a(I213
I3
I0
S'great'
p400
tp401
a(I216
I0
F0.875
S'attractive'
p402
tp403
as(S'wifi'
p404
tp405
(lp406
(I67
I1
I0
S'monthly'
p407
tp408
a(I72
I2
F-0.625
S'free'
p409
tp410
as(S'system'
p411
tp412
(lp413
(I42
I13
F0.625
g341
tp414
a(I42
I13
F-0.625
g343
tp415
a(I97
I13
F0.625
g347
tp416
a(I97
I13
F-0.625
g349
tp417
a(I112
I2
F0.25
S'responsive'
p418
tp419
a(I168
I13
F0.625
g353
tp420
a(I168
I13
F-0.625
g355
tp421
as(S'call'
p422
tp423
(lp424
(I38
I1
F1.0
S'good'
p425
tp426
as(S'microsoft'
p427
tp428
(lp429
(I179
I25
F0.5
S'true'
p430
tp431
as(S'radio'
p432
tp433
(lp434
(I42
I8
I0
S'real'
p435
tp436
a(I42
I8
I0
S'cool'
p437
tp438
a(I97
I8
I0
S'real'
p439
tp440
a(I97
I8
I0
S'cool'
p441
tp442
a(I168
I8
I0
S'real'
p443
tp444
a(I168
I8
I0
S'cool'
p445
tp446
as(S'seller'
p447
tp448
(lp449
(I189
I1
F0.875
S'nice'
p450
tp451
as(S'offline'
p452
tp453
(lp454
(I69
I7
F-0.625
S'free'
p455
tp456
as(S'works'
p457
tp458
(lp459
(I10
I0
F0.625
S'easy'
p460
tp461
a(I44
I0
I0
S'great'
p462
tp463
as(S'music'
p464
tp465
(lp466
(I179
I18
F0.125
S'bundled'
p467
tp468
as(S'battery'
p469
tp470
(lp471
(I30
I0
F-0.5
g28
tp472
a(I42
I7
F0.625
S'replaceable'
p473
tp474
a(I73
I0
F0.875
S'happy'
p475
tp476
a(I97
I7
F0.625
S'replaceable'
p477
tp478
a(I117
I1
F0.125
S'first'
p479
tp480
a(I117
I1
F0.375
S'extra'
p481
tp482
a(I138
I0
F-0.625
S'bad'
p483
tp484
a(I155
I3
F1.0
g32
tp485
a(I155
I3
F0.125
g34
tp486
a(I161
I0
F1.0
g36
tp487
a(I168
I7
F0.625
S'replaceable'
p488
tp489
a(I198
I3
F0.125
S'first'
p490
tp491
a(I217
I1
F0.625
S'replaceable'
p492
tp493
as(S'smart'
p494
tp495
(lp496
(I120
I0
F0.125
S'first'
p497
tp498
a(I162
I2
F0.5
S'expensive'
p499
tp500
a(I182
I0
F0.125
S'first'
p501
tp502
as(S'cell'
p503
tp504
(lp505
(I89
I0
I0
S'retail'
p506
tp507
a(I152
I3
I0
S'local'
p508
tp509
as(S'nokia'
p510
tp511
(lp512
(I15
I11
I0
S'taiwan'
p513
tp514
a(I15
I11
F0.25
S'original'
p515
tp516
a(I72
I8
F-0.625
S'free'
p517
tp518
a(I72
I14
F0.375
S'extra'
p519
tp520
a(I72
I15
F0.875
S'happier'
p521
tp522
a(I105
I0
F0.5
S'second'
p523
tp524
a(I179
I30
F0.25
S'unlocked'
p525
tp526
a(I189
I0
I0
S'own'
p527
tp528
a(I217
I5
I0
g20
tp529
as(S'first'
p530
S'time'
p531
tp532
(lp533
(I78
I2
F0.125
S'first'
p534
tp535
a(I127
I3
F0.125
S'first'
p536
tp537
a(I186
I0
F0.125
S'first'
p538
tp539
as(S'thing'
p540
tp541
(lp542
(I7
I0
I0
S'only'
p543
tp544
a(I9
I0
I0
S'only'
p545
tp546
a(I41
I0
I0
S'only'
p547
tp548
a(I71
I4
F1.0
S'best'
p549
tp550
a(I72
I13
F-0.875
S'negative'
p551
tp552
a(I119
I14
I0
S'next'
p553
tp554
a(I119
I14
I0
S'great'
p555
tp556
a(I155
I2
F1.0
S'good'
p557
tp558
a(I157
I1
I0
S'only'
p559
tp560
a(I157
I1
I0
S'cool'
p561
tp562
a(I171
I1
I0
S'very'
p563
tp564
a(I171
I1
F0.125
S'first'
p565
tp566
a(I198
I7
I0
S'more'
p567
tp568
a(I198
I7
F1.0
S'good'
p569
tp570
a(I201
I1
I0
S'only'
p571
tp572
as(S'cheap'
p573
tp574
(lp575
(I67
I5
F1.0
S'best'
p576
tp577
as(S'device'
p578
tp579
(lp580
(I52
I3
I0
S'great'
p581
tp582
a(I72
I1
I0
S'year-round'
p583
tp584
as(S'sd'
p585
S'card'
p586
tp587
(lp588
(I179
I4
F-0.5
S'sure'
p589
tp590
as(S'maps'
p591
tp592
(lp593
(I161
I1
I0
S'useful'
p594
tp595
as(S'good'
p596
S'price'
p597
tp598
(lp599
(I42
I6
I0
g192
tp600
a(I42
I6
F1.0
g194
tp601
a(I84
I0
F-0.25
g196
tp602
a(I97
I6
I0
g198
tp603
a(I97
I6
F1.0
g200
tp604
a(I155
I0
F1.0
g202
tp605
a(I167
I0
F1.0
g204
tp606
a(I168
I6
I0
g206
tp607
a(I168
I6
F1.0
g208
tp608
a(I181
I0
I0
g210
tp609
a(I182
I1
F1.0
g212
tp610
as(S'data'
p611
tp612
(lp613
(I42
I3
F-0.625
S'lighter'
p614
tp615
a(I97
I3
F-0.625
S'lighter'
p616
tp617
a(I168
I3
F-0.625
S'lighter'
p618
tp619
as(S'time'
p620
tp621
(lp622
(I72
I4
I0
S'most'
p623
tp624
a(I72
I4
F0.5
S'satisfactory'
p625
tp626
a(I72
I12
I0
S'next'
p627
tp628
a(I78
I2
F0.125
g534
tp629
a(I126
I0
F0.5
S'touch'
p630
tp631
a(I127
I3
F0.125
g536
tp632
a(I186
I0
F0.125
g538
tp633
as(S'looking'
p634
tp635
(lp636
(I119
I12
F0.75
S'worth'
p637
tp638
as(S'fine'
p639
tp640
(lp641
(I99
I3
I0
S'great'
p642
tp643
as(S'smartphone'
p644
tp645
(lp646
(I4
I0
I0
S'great'
p647
tp648
a(I4
I0
F0.125
S'solid'
p649
tp650
a(I4
I0
F0.5
S'drive'
p651
tp652
a(I4
I0
F0.625
S'easy'
p653
tp654
a(I25
I0
F1.0
S'best'
p655
tp656
a(I72
I3
F0.125
S'first'
p657
tp658
a(I93
I0
F-0.5
S'less'
p659
tp660
as(S'card'
p661
tp662
(lp663
(I100
I1
F0.625
g62
tp664
a(I171
I2
F-0.75
g68
tp665
a(I179
I4
F-0.5
g589
tp666
as(S'nokia'
p667
S'lumia'
p668
tp669
(lp670
(I72
I15
F0.875
g521
tp671
a(I83
I0
F0.25
g281
tp672
a(I105
I0
F0.5
g523
tp673
a(I122
I5
I0
g287
tp674
a(I122
I5
F0.375
g289
tp675
as(S'touch'
p676
tp677
(lp678
(I222
I0
F1.0
S'good'
p679
tp680
as(S'much'
p681
S'better'
p682
tp683
(lp684
(I91
I0
F0.375
S'much'
p685
tp686
a(I204
I5
F0.375
S'much'
p687
tp688
a(I227
I2
F0.375
S'much'
p689
tp690
as(S'better'
p691
tp692
(lp693
(I91
I0
F0.375
g685
tp694
a(I204
I5
F0.375
g687
tp695
a(I227
I2
F0.375
g689
tp696
as(S'work'
p697
tp698
(lp699
(I44
I0
F0.75
S'beautiful'
p700
tp701
a(I119
I11
I0
S'detective'
p702
tp703
as(S'apps'
p704
tp705
(lp706
(I40
I0
F1.0
S'good'
p707
tp708
a(I42
I4
F0.375
S'new'
p709
tp710
a(I66
I2
F0.625
S'decent'
p711
tp712
a(I66
I2
F-0.5
S'less'
p713
tp714
a(I72
I4
F0.375
S'available'
p715
tp716
a(I86
I3
F0.25
S'favorite'
p717
tp718
a(I86
I6
F-0.75
S'unable'
p719
tp720
a(I97
I4
F0.375
S'new'
p721
tp722
a(I116
I1
I0
S'many'
p723
tp724
a(I116
I1
F-0.625
S'free'
p725
tp726
a(I116
I1
F-0.625
S'free'
p727
tp728
a(I116
I1
F1.0
S'good'
p729
tp730
a(I125
I3
F-0.25
S'direct'
p731
tp732
a(I125
I6
I0
S'many'
p733
tp734
a(I125
I6
F0.375
S'similar'
p735
tp736
a(I134
I2
F0.625
S'easy'
p737
tp738
a(I134
I2
F0.625
S'easy'
p739
tp740
a(I137
I4
I0
S'few'
p741
tp742
a(I151
I3
I0
g18
tp743
a(I153
I1
F1.0
S'good'
p744
tp745
a(I168
I4
F0.375
S'new'
p746
tp747
a(I172
I1
I0
S'full'
p748
tp749
a(I172
I1
F-0.625
S'other'
p750
tp751
a(I172
I1
F0.625
S'easy'
p752
tp753
a(I179
I2
F0.5
S'bought'
p754
tp755
a(I179
I2
I0
S'few'
p756
tp757
a(I179
I25
F0.25
S'powerful'
p758
tp759
a(I191
I2
F0.125
S'popular'
p760
tp761
a(I192
I4
I0
S'such'
p762
tp763
a(I193
I2
F-0.625
S'other'
p764
tp765
a(I204
I7
I0
S'great'
p766
tp767
a(I217
I5
F0.125
g22
tp768
as(S'good'
p769
S'quality'
p770
tp771
(lp772
(I84
I0
F1.0
g233
tp773
a(I89
I3
F0.625
g235
tp774
a(I140
I8
F1.0
g239
tp775
a(I207
I1
F1.0
g251
tp776
as(S'days'
p777
tp778
(lp779
(I37
I1
I0
S'few'
p780
tp781
a(I75
I12
I0
S'few'
p782
tp783
a(I120
I0
F0.125
S'first'
p784
tp785
a(I142
I0
F0.375
S'much'
p786
tp787
a(I150
I7
I0
S'least'
p788
tp789
as(S'fm'
p790
S'radio'
p791
tp792
(lp793
(I42
I8
I0
g435
tp794
a(I42
I8
I0
g437
tp795
a(I97
I8
I0
g439
tp796
a(I97
I8
I0
g441
tp797
a(I168
I8
I0
g443
tp798
a(I168
I8
I0
g445
tp799
as.