(dp0
(S'dual'
p1
S'front'
p2
tp3
(lp4
(I11
I12
I0
S'incredible'
p5
I0
tp6
as(S'battery'
p7
S'life'
p8
tp9
(lp10
(I3
I2
I0
S'most'
p11
I1
tp12
a(I16
I3
F-0.75
S'irreplaceable'
p13
I1
tp14
a(I16
I3
F-0.25
S'low'
p15
I1
tp16
a(I17
I4
F0.875
S'nice'
p17
I1
tp18
a(I18
I61
F1.0
S'better'
p19
I1
tp20
a(I19
I6
F1.0
S'good'
p21
I1
tp22
a(I22
I124
I-100
S'9/10battery'
p23
I1
tp24
a(I24
I51
F-0.375
S'smaller'
p25
I1
tp26
a(I16
I3
F-0.25
g15
I19
tp27
a(I17
I4
F0.875
g17
I19
tp28
a(I19
I6
F1.0
g21
I19
tp29
a(I3
I2
I0
g11
I15
tp30
a(I11
I20
F0.375
S'extra'
p31
I15
tp32
a(I11
I20
F-0.5
S'long'
p33
I15
tp34
a(I11
I50
I0
S'great'
p35
I15
tp36
a(I16
I3
F-0.75
g13
I15
tp37
a(I16
I4
F1.0
S'good'
p38
I15
tp39
a(I16
I41
I0
S'mandatory'
p40
I15
tp41
a(I16
I70
F-0.75
S'irreplaceable'
p42
I15
tp43
a(I18
I61
F1.0
g19
I15
tp44
a(I22
I157
F0.25
S'larger'
p45
I15
tp46
a(I24
I51
F-0.375
g25
I15
tp47
as(S'loud'
p48
tp49
(lp50
(I2
I11
F-0.375
S'crazy'
p51
I10
tp52
a(I18
I76
I0
S'fast'
p53
I10
tp54
a(I18
I76
F0.875
S'nice'
p55
I10
tp56
as(S'sense'
p57
tp58
(lp59
(I5
I12
F0.5
S'stylish'
p60
I8
tp61
a(I5
I12
F-0.625
S'clean'
p62
I8
tp63
a(I5
I12
F0.625
S'easy'
p64
I8
tp65
a(I20
I3
F0.875
S'nice'
p66
I8
tp67
as(S'menu'
p68
S'button'
p69
tp70
(lp71
(I13
I41
F-0.5
S'actual'
p72
I0
tp73
a(I22
I51
F0.625
S'kind'
p74
I19
tp75
as(S'call'
p76
S'quality'
p77
tp78
(lp79
(I10
I9
I0
S'great'
p80
I0
tp81
a(I22
I5
F-0.375
S'top'
p82
I0
tp83
as(S'samsung'
p84
tp85
(lp86
(I4
I7
F0.375
S'new'
p87
I7
tp88
a(I16
I105
F0.5
S'rid'
p89
I7
tp90
a(I18
I30
F0.625
S'superior'
p91
I7
tp92
as(S'camera'
p93
tp94
(lp95
(I2
I15
F0.25
S'weary'
p96
I1
tp97
a(I2
I16
F-0.5
S'ordinary'
p98
I1
tp99
a(I2
I16
F-0.375
S'simple'
p100
I1
tp101
a(I3
I42
F0.625
S'easy'
p102
I1
tp103
a(I5
I18
F0.25
S'sharp'
p104
I1
tp105
a(I5
I19
F1.0
S'best'
p106
I1
tp107
a(I5
I30
F0.5
S'reasonable'
p108
I1
tp109
a(I5
I36
F-0.125
S'overall'
p110
I1
tp111
a(I8
I20
F0.125
S'dedicated'
p112
I1
tp113
a(I8
I36
F1.0
S'good'
p114
I1
tp115
a(I11
I2
I0
S'3d'
p116
I1
tp117
a(I11
I47
F-0.5
S'less'
p118
I1
tp119
a(I13
I21
I0
S'great'
p120
I1
tp121
a(I18
I23
F0.875
S'nice'
p122
I1
tp123
a(I22
I14
I0
S'great'
p124
I1
tp125
a(I22
I86
F1.0
S'best'
p126
I1
tp127
a(I22
I90
I0
S'great'
p128
I1
tp129
a(I22
I90
I0
S'wish'
p130
I1
tp131
a(I22
I92
F1.0
S'good'
p132
I1
tp133
a(I22
I181
I0
S'great'
p134
I1
tp135
a(I24
I57
F1.0
S'good'
p136
I1
tp137
as(S'ultra'
p138
S'pixel'
p139
tp140
(lp141
(I5
I36
F0.625
S'perfect'
p142
I0
tp143
a(I5
I37
I0
S'same'
p144
I0
tp145
a(I6
I1
I0
S'great'
p146
I0
tp147
a(I8
I5
I0
S'great'
p148
I0
tp149
as(S'home'
p150
S'screen'
p151
tp152
(lp153
(I2
I3
F0.125
S'first'
p154
I0
tp155
a(I19
I5
F0.625
S'easy'
p156
I0
tp157
as(S'sprint'
p158
tp159
(lp160
(I1
I97
F0.75
S'cautious'
p161
I0
tp162
a(I3
I38
F0.875
S'happy'
p163
I0
tp164
a(I5
I65
F-0.5
S'longer'
p165
I0
tp166
a(I16
I83
F0.75
S'due'
p167
I0
tp168
a(I16
I140
F-0.5
S'sure'
p169
I0
tp170
a(I22
I98
I0
S'standard'
p171
I0
tp172
a(I22
I196
I0
S'real'
p173
I0
tp174
as(S'iphone'
p175
tp176
(lp177
(I24
I3
F0.125
S'enough'
p178
I1
tp179
a(I24
I51
I0
S'old'
p180
I1
tp181
as(S'memory'
p182
tp183
(lp184
(I16
I12
I0
S'more'
p185
I5
tp186
a(I18
I80
F0.375
S'extra'
p187
I5
tp188
as(S'build'
p189
S'quality'
p190
tp191
(lp192
(I1
I73
F0.5
S'second'
p193
I2
tp194
a(I24
I23
F-0.75
S'short'
p195
I2
tp196
a(I24
I23
I0
S'high'
p197
I2
tp198
as(S'storage'
p199
tp200
(lp201
(I13
I10
F0.875
S'music'
p202
I1
tp203
as(S'amazon'
p204
tp205
(lp206
(I22
I29
F1.0
S'best'
p207
I13
tp208
a(I24
I44
I0
S'same'
p209
I13
tp210
a(I25
I0
F0.125
S'usual'
p211
I13
tp212
a(I25
I6
F0.125
S'able'
p213
I13
tp214
a(I25
I6
F0.375
S'new'
p215
I13
tp216
as(S'stereo'
p217
S'speakers'
p218
tp219
(lp220
(I3
I24
F0.25
S'powerful'
p221
I0
tp222
as(S'beats'
p223
tp224
(lp225
(I5
I23
F0.875
S'music'
p226
I2
tp227
a(I16
I77
F-0.5
S'unimpressive'
p228
I2
tp229
a(I16
I77
F-0.125
S'overall'
p230
I2
tp231
a(I16
I86
F-0.625
S'other'
p232
I2
tp233
a(I18
I54
F1.0
S'better'
p234
I2
tp235
as(S'front'
p236
S'facing'
p237
S'speakers'
p238
tp239
(lp240
(I1
I52
F0.875
S'music'
p241
I0
tp242
a(I19
I3
I0
S'great'
p243
I0
tp244
a(I21
I6
I0
S'standard'
p245
I0
tp246
a(I1
I52
F0.875
g241
I0
tp247
a(I21
I6
I0
g245
I0
tp248
a(I1
I52
F0.875
g241
I2
tp249
a(I2
I11
I0
S'external'
p250
I2
tp251
a(I5
I10
F0.375
S'louder'
p252
I2
tp253
a(I13
I2
F0.375
S'loud'
p254
I2
tp255
a(I14
I19
I0
S'great'
p256
I2
tp257
a(I15
I9
I0
S'great'
p258
I2
tp259
a(I17
I4
I0
S'great'
p260
I2
tp261
a(I20
I9
F-0.125
S'front'
p262
I2
tp263
a(I21
I6
I0
g245
I2
tp264
a(I25
I5
F0.125
S'first'
p265
I2
tp266
a(I25
I5
I0
S'external'
p267
I2
tp268
a(I11
I12
I0
g5
I14
tp269
a(I19
I3
I0
g243
I14
tp270
as(S'android'
p271
tp272
(lp273
(I5
I11
F1.0
S'best'
p274
I0
tp275
a(I5
I56
F1.0
S'best'
p276
I0
tp277
a(I13
I23
I0
S'traditional'
p278
I0
tp279
a(I18
I49
I0
S'integrated'
p280
I0
tp281
a(I22
I193
F-0.5
S'actual'
p282
I0
tp283
a(I24
I30
F0.375
S'new'
p284
I0
tp285
a(I24
I36
F-0.625
S'light'
p286
I0
tp287
a(I24
I59
I0
S'latest'
p288
I0
tp289
as(S'sound'
p290
tp291
(lp292
(I1
I2
I0
S'great'
p293
I7
tp294
a(I1
I107
F1.0
S'good'
p295
I7
tp296
a(I3
I48
I0
S'full'
p297
I7
tp298
a(I5
I71
I0
S'great'
p299
I7
tp300
a(I8
I13
F1.0
S'better'
p301
I7
tp302
a(I8
I26
F0.875
S'nice'
p303
I7
tp304
a(I16
I74
F1.0
S'good'
p305
I7
tp306
a(I16
I121
F0.5
S'clear'
p307
I7
tp308
as(S'audio'
p309
tp310
(lp311
(I1
I1
F1.0
S'best'
p312
I2
tp313
a(I16
I122
I0
S'external'
p314
I2
tp315
a(I24
I31
F1.0
S'best'
p316
I2
tp317
as(S'learning'
p318
S'curve'
p319
tp320
(lp321
(I15
I5
F0.375
S'new'
p322
I2
tp323
a(I18
I70
F-0.375
S'small'
p324
I2
tp325
as(S'upgrade'
p326
tp327
(lp328
(I8
I21
F0.5
S'eligible'
p329
I3
tp330
a(I24
I3
F0.5
S'eligible'
p331
I3
tp332
as(S'low'
p333
S'light'
p334
tp335
(lp336
(I2
I16
F-0.25
S'low'
p337
I0
tp338
a(I22
I87
I0
S'phenomenal'
p339
I0
tp340
a(I22
I87
F-0.25
S'low'
p341
I0
tp342
a(I24
I49
F-0.25
S'low'
p343
I0
tp344
as(S'first'
p345
S'time'
p346
tp347
(lp348
(I1
I45
F0.125
S'first'
p349
I10
tp350
a(I1
I86
F0.125
S'first'
p351
I10
tp352
a(I1
I86
F0.125
S'last'
p353
I10
tp354
a(I5
I37
F0.125
S'first'
p355
I10
tp356
a(I23
I11
F0.125
S'first'
p357
I10
tp358
as(S'sim'
p359
S'card'
p360
tp361
(lp362
(I15
I3
F-0.125
S'foreign'
p363
I0
tp364
as(S'selling'
p365
S'point'
p366
tp367
(lp368
(I15
I7
F0.25
S'biggest'
p369
I0
tp370
a(I16
I77
I0
S'particular'
p371
I0
tp372
a(I18
I46
F-0.625
S'other'
p373
I0
tp374
as(S'music'
p375
tp376
(lp377
(I1
I2
F0.5
S'clear'
p378
I0
tp379
as(S'much'
p380
S'better'
p381
tp382
(lp383
(I16
I87
F0.375
S'much'
p384
I9
tp385
a(I16
I87
F-0.625
S'other'
p386
I9
tp387
a(I23
I1
F0.375
S'much'
p388
I9
tp389
as(S'smartphone'
p390
tp391
(lp392
(I3
I20
F0.125
S'first'
p393
I0
tp394
a(I5
I1
F0.125
S'first'
p395
I0
tp396
a(I14
I3
F1.0
S'best'
p397
I0
tp398
a(I16
I111
F0.125
S'first'
p399
I0
tp400
a(I16
I123
F1.0
S'best'
p401
I0
tp402
a(I16
I150
F0.625
S'perfect'
p403
I0
tp404
a(I22
I92
F1.0
S'best'
p405
I0
tp406
a(I25
I13
F0.125
S'first'
p407
I0
tp408
as(S'customer'
p409
S'service'
p410
tp411
(lp412
(I23
I23
I0
S'great'
p413
I3
tp414
a(I11
I26
I0
S'great'
p415
I16
tp416
as(S'news'
p417
S'articles'
p418
tp419
(lp420
(I8
I9
I0
S'different'
p421
I0
tp422
as(S'apps'
p423
tp424
(lp425
(I1
I35
I0
S'few'
p426
I0
tp427
a(I1
I35
F-0.625
S'other'
p428
I0
tp429
a(I2
I4
F0.25
S'favorite'
p430
I0
tp431
a(I3
I33
I0
S'few'
p432
I0
tp433
a(I3
I33
F-0.625
S'other'
p434
I0
tp435
a(I3
I40
F0.375
S'available'
p436
I0
tp437
a(I8
I10
I0
S'more'
p438
I0
tp439
a(I11
I24
I0
S'great'
p440
I0
tp441
a(I11
I24
F0.625
S'easy'
p442
I0
tp443
a(I13
I26
I0
S'more'
p444
I0
tp445
a(I21
I11
I0
S'large'
p446
I0
tp447
as(S'feels'
p448
tp449
(lp450
(I5
I3
F0.125
S'solid'
p451
I14
tp452
as(S'one'
p453
S'thing'
p454
tp455
(lp456
(I1
I48
I0
S'only'
p457
I2
tp458
a(I11
I19
F1.0
S'best'
p459
I2
tp460
a(I18
I39
F0.125
S'first'
p461
I2
tp462
a(I18
I52
F1.0
S'best'
p463
I2
tp464
a(I21
I12
F-0.625
S'bad'
p465
I2
tp466
a(I22
I16
I0
S'only'
p467
I2
tp468
a(I22
I53
F-0.375
S'small'
p469
I2
tp470
as.