(dp0
(S'xbox'
p1
tp2
(lp3
(I2
I12
F0.25
S'ok'
p4
I0
tp5
a(I20
I19
F-0.625
S'other'
p6
I0
tp7
a(I20
I20
I0
S'many'
p8
I0
tp9
as(S'android'
p10
S'and'
p11
S'ios'
p12
tp13
(lp14
(I17
I3
I0
S'android'
p15
I0
tp16
a(I17
I6
F0.625
S'easier'
p17
I0
tp18
a(I17
I21
I0
S'android'
p19
I0
tp20
a(I18
I19
F0.375
S'available'
p21
I0
tp22
a(I21
I189
I0
S'android'
p23
I0
tp24
a(I2
I0
F0.25
S'responsive'
p25
I0
tp26
a(I2
I0
F-0.75
S'tough'
p27
I0
tp28
a(I4
I41
F-0.875
S'unhappy'
p29
I0
tp30
a(I4
I90
I0
S'automatic'
p31
I0
tp32
a(I11
I34
F0.25
S'original'
p33
I0
tp34
a(I11
I49
F0.375
S'newer'
p35
I0
tp36
a(I11
I122
F-0.625
S'free'
p37
I0
tp38
a(I11
I123
F0.75
S'consider'
p39
I0
tp40
a(I13
I68
F1.0
S'best'
p41
I0
tp42
a(I14
I145
I0
S'more'
p43
I0
tp44
a(I14
I145
F0.625
S'polish'
p45
I0
tp46
a(I14
I145
I0
S'later'
p47
I0
tp48
a(I14
I162
I0
S'nervous'
p49
I0
tp50
a(I14
I162
F0.125
S'first'
p51
I0
tp52
a(I17
I6
F0.625
g17
I0
tp53
a(I17
I79
F1.0
S'best'
p54
I0
tp55
a(I17
I151
F-0.625
S'cleaner'
p56
I0
tp57
a(I18
I19
F0.375
g21
I0
tp58
a(I18
I45
F1.0
S'good'
p59
I0
tp60
a(I19
I5
F0.375
S'available'
p61
I0
tp62
a(I20
I29
F-0.75
S'worse'
p63
I0
tp64
a(I20
I59
I0
S'most'
p65
I0
tp66
a(I20
I100
I0
S'least'
p67
I0
tp68
a(I20
I100
F-0.75
S'single'
p69
I0
tp70
a(I21
I96
F-0.375
S'robust'
p71
I0
tp72
a(I21
I105
F-0.5
S'miss'
p73
I0
tp74
as(S'battery'
p75
S'life'
p76
tp77
(lp78
(I4
I39
F-0.875
S'unhappy'
p79
I1
tp80
a(I4
I39
I0
S'except'
p81
I1
tp82
a(I4
I169
I0
S'fast'
p83
I1
tp84
a(I4
I169
F1.0
S'good'
p85
I1
tp86
a(I8
I3
F1.0
S'better'
p87
I1
tp88
a(I10
I14
F1.0
S'good'
p89
I1
tp90
a(I10
I75
I0
S'great'
p91
I1
tp92
a(I10
I137
I0
S'update'
p93
I1
tp94
a(I11
I23
I0
S'great'
p95
I1
tp96
a(I14
I102
F-0.75
S'worse'
p97
I1
tp98
a(I14
I149
I0
S'closer'
p99
I1
tp100
a(I17
I47
F-0.875
S'unhappy'
p101
I1
tp102
a(I17
I132
I0
S'great'
p103
I1
tp104
a(I17
I160
I0
S'great'
p105
I1
tp106
a(I20
I28
F1.0
S'better'
p107
I1
tp108
a(I20
I164
F0.125
S'solid'
p109
I1
tp110
a(I21
I45
I0
S'quick'
p111
I1
tp112
a(I4
I169
F1.0
g85
I19
tp113
a(I10
I14
F1.0
g89
I19
tp114
a(I10
I137
I0
g93
I19
tp115
a(I11
I23
I0
g95
I19
tp116
a(I14
I102
F-0.75
g97
I19
tp117
a(I14
I149
I0
g99
I19
tp118
a(I17
I132
I0
g103
I19
tp119
a(I17
I160
I0
g105
I19
tp120
a(I20
I164
F0.125
g109
I19
tp121
a(I2
I2
F0.125
S'able'
p122
I15
tp123
a(I4
I39
F-0.875
g79
I15
tp124
a(I4
I39
I0
g81
I15
tp125
a(I4
I97
F0.375
S'extra'
p126
I15
tp127
a(I4
I98
F0.375
S'extra'
p128
I15
tp129
a(I4
I99
I0
S'internal'
p130
I15
tp131
a(I4
I169
I0
g83
I15
tp132
a(I5
I29
F1.0
S'good'
p133
I15
tp134
a(I5
I29
F0.375
S'new'
p135
I15
tp136
a(I5
I122
F0.625
S'removable'
p137
I15
tp138
a(I8
I3
F1.0
g87
I15
tp139
a(I9
I18
F0.625
S'removable'
p140
I15
tp141
a(I10
I75
I0
g91
I15
tp142
a(I11
I103
F0.625
S'removable'
p143
I15
tp144
a(I16
I20
F-0.625
S'fresh'
p145
I15
tp146
a(I17
I47
F-0.875
g101
I15
tp147
a(I18
I73
F0.75
S'constant'
p148
I15
tp149
a(I20
I28
F1.0
g107
I15
tp150
a(I21
I45
I0
g111
I15
tp151
as(S'windows'
p152
S'8'
p153
S'os'
p154
tp155
(lp156
(I5
I126
F-0.25
S'ready'
p157
I0
tp158
a(I9
I70
F0.625
S'easy'
p159
I0
tp160
a(I11
I39
F1.0
S'better'
p161
I0
tp162
a(I17
I147
F0.375
S'available'
p163
I0
tp164
a(I20
I96
F0.625
S'easy'
p165
I0
tp166
a(I4
I154
F-0.125
S'overall'
p167
I0
tp168
a(I4
I154
F0.625
S'responsible'
p169
I0
tp170
a(I5
I126
F-0.25
g157
I0
tp171
a(I9
I70
F0.625
g159
I0
tp172
a(I11
I39
F1.0
g161
I0
tp173
a(I13
I12
F1.0
S'love'
p174
I0
tp175
a(I14
I68
F-0.125
S'overall'
p176
I0
tp177
a(I17
I147
F0.375
g163
I0
tp178
a(I20
I96
F0.625
g165
I0
tp179
a(I20
I127
F-0.75
S'impossible'
p180
I0
tp181
a(I21
I41
I0
S'most'
p182
I0
tp183
a(I4
I179
I0
S'specific'
p184
I0
tp185
a(I5
I126
F-0.25
g157
I0
tp186
a(I9
I70
F0.625
g159
I0
tp187
a(I10
I3
F0.875
S'nice'
p188
I0
tp189
a(I11
I39
F1.0
g161
I0
tp190
a(I11
I108
F-0.625
S'other'
p191
I0
tp192
a(I1
I51
F-0.625
S'other'
p193
I0
tp194
a(I1
I118
F-0.625
S'other'
p195
I0
tp196
a(I2
I3
I0
S'laptop'
p197
I0
tp198
a(I2
I11
F-0.25
S'abash'
p199
I0
tp200
a(I3
I1
F0.875
S'nice'
p201
I0
tp202
a(I3
I1
F0.375
S'new'
p203
I0
tp204
a(I4
I154
F-0.125
g167
I0
tp205
a(I4
I201
F-0.125
S'overall'
p206
I0
tp207
a(I4
I201
F-0.75
S'wrong'
p208
I0
tp209
a(I5
I9
F0.625
S'easy'
p210
I0
tp211
a(I5
I82
I0
S'absurd'
p212
I0
tp213
a(I5
I104
I0
S'contemporary'
p214
I0
tp215
a(I5
I104
F1.0
S'better'
p216
I0
tp217
a(I7
I7
I0
S'nervous'
p218
I0
tp219
a(I10
I20
F0.125
S'first'
p220
I0
tp221
a(I11
I5
F1.0
S'best'
p222
I0
tp223
a(I11
I143
I0
S'mobile'
p224
I0
tp225
a(I13
I11
F0.125
S'first'
p226
I0
tp227
a(I13
I12
F1.0
g174
I0
tp228
a(I13
I64
F-0.125
S'overall'
p229
I0
tp230
a(I14
I57
F-0.625
S'other'
p231
I0
tp232
a(I14
I68
F-0.125
g176
I0
tp233
a(I14
I109
F1.0
S'best'
p234
I0
tp235
a(I17
I37
I0
S'only'
p236
I0
tp237
a(I17
I147
F0.375
g163
I0
tp238
a(I18
I39
F0.25
S'familiar'
p239
I0
tp240
a(I18
I50
F-0.75
S'worse'
p241
I0
tp242
a(I20
I96
F0.625
g165
I0
tp243
a(I20
I127
F-0.75
g180
I0
tp244
a(I20
I159
F0.125
S'first'
p245
I0
tp246
a(I21
I11
F0.25
S'familiar'
p247
I0
tp248
a(I21
I16
F-0.625
S'other'
p249
I0
tp250
a(I21
I38
F0.375
S'available'
p251
I0
tp252
a(I21
I41
I0
g182
I0
tp253
a(I21
I128
F-0.75
S'wrong'
p254
I0
tp255
as(S'high'
p256
S'quality'
p257
tp258
(lp259
(I1
I118
I0
S'high'
p260
I12
tp261
a(I1
I146
I0
S'high'
p262
I12
tp263
a(I5
I40
I0
S'high'
p264
I12
tp265
a(I14
I104
F-0.25
S'higher'
p266
I12
tp267
a(I17
I39
I0
S'high'
p268
I12
tp269
a(I20
I51
I0
S'high'
p270
I12
tp271
a(I21
I8
I0
S'high'
p272
I12
tp273
as(S'call'
p274
S'quality'
p275
tp276
(lp277
(I1
I28
F1.0
S'good'
p278
I0
tp279
a(I4
I148
F1.0
S'good'
p280
I0
tp281
a(I4
I200
F0.5
S'clear'
p282
I0
tp283
a(I4
I200
F0.5
S'clear'
p284
I0
tp285
a(I8
I25
F1.0
S'good'
p286
I0
tp287
a(I11
I61
F1.0
S'good'
p288
I0
tp289
a(I11
I131
F-0.5
S'call'
p290
I0
tp291
a(I11
I131
F0.625
S'superior'
p292
I0
tp293
a(I14
I103
F-0.5
S'poor'
p294
I0
tp295
as(S'external'
p296
S'storage'
p297
tp298
(lp299
(I1
I30
I0
S'least'
p300
I0
tp301
a(I1
I30
I0
S'external'
p302
I0
tp303
a(I1
I30
I0
S'such'
p304
I0
tp305
a(I5
I125
I0
S'external'
p306
I0
tp307
a(I11
I99
I0
S'external'
p308
I0
tp309
as(S'camera'
p310
tp311
(lp312
(I1
I108
I0
S'great'
p313
I1
tp314
a(I2
I10
I0
S'cool'
p315
I1
tp316
a(I4
I4
F1.0
S'best'
p317
I1
tp318
a(I4
I82
I0
S'great'
p319
I1
tp320
a(I4
I166
F1.0
S'best'
p321
I1
tp322
a(I4
I210
F0.875
S'nice'
p323
I1
tp324
a(I4
I215
F0.625
S'easy'
p325
I1
tp326
a(I5
I22
F0.625
S'easy'
p327
I1
tp328
a(I7
I4
F1.0
S'good'
p329
I1
tp330
a(I7
I5
I0
S'fanatic'
p331
I1
tp332
a(I7
I11
F1.0
S'best'
p333
I1
tp334
a(I8
I2
F0.25
S'sharp'
p335
I1
tp336
a(I8
I28
F0.875
S'nice'
p337
I1
tp338
a(I9
I69
F0.25
S'sharp'
p339
I1
tp340
a(I10
I70
F1.0
S'best'
p341
I1
tp342
a(I10
I99
I0
S'great'
p343
I1
tp344
a(I11
I122
I0
S'serviceable'
p345
I1
tp346
a(I11
I132
F1.0
S'good'
p347
I1
tp348
a(I11
I151
I0
S'great'
p349
I1
tp350
a(I13
I71
F0.5
S'absolute'
p351
I1
tp352
a(I13
I71
F1.0
S'best'
p353
I1
tp354
a(I14
I12
I0
S'great'
p355
I1
tp356
a(I17
I17
F1.0
S'best'
p357
I1
tp358
a(I17
I85
F1.0
S'good'
p359
I1
tp360
a(I17
I149
F-0.625
S'other'
p361
I1
tp362
a(I18
I68
F1.0
S'good'
p363
I1
tp364
a(I18
I69
F0.5
S'advanced'
p365
I1
tp366
a(I20
I18
I0
S'great'
p367
I1
tp368
as(S'web'
p369
S'browser'
p370
tp371
(lp372
(I17
I11
I0
S'handy'
p373
I0
tp374
a(I17
I11
F0.375
S'available'
p375
I0
tp376
as(S'games'
p377
tp378
(lp379
(I10
I47
I0
S'many'
p380
I19
tp381
a(I13
I57
I0
S'few'
p382
I19
tp383
a(I13
I57
F0.375
S'available'
p384
I19
tp385
a(I17
I83
I0
S'few'
p386
I19
tp387
a(I20
I20
F0.375
S'available'
p388
I19
tp389
a(I20
I32
I0
S'basic'
p390
I19
tp391
a(I20
I34
I0
S'most'
p392
I19
tp393
a(I20
I34
F-0.625
S'free'
p394
I19
tp395
a(I20
I35
I0
S'more'
p396
I19
tp397
a(I20
I109
I0
S'same'
p398
I19
tp399
a(I20
I109
F0.375
S'available'
p400
I19
tp401
a(I20
I110
I0
S'cool'
p402
I19
tp403
a(I21
I132
F0.625
S'square'
p404
I19
tp405
as(S'operating'
p406
S'system'
p407
tp408
(lp409
(I11
I6
I0
S'android'
p410
I2
tp411
a(I11
I39
F-0.625
S'other'
p412
I2
tp413
a(I11
I135
I0
S'next'
p414
I2
tp415
a(I16
I31
I0
S'fast'
p416
I2
tp417
a(I18
I15
F-0.625
S'other'
p418
I2
tp419
a(I18
I15
I0
S'such'
p420
I2
tp421
as(S'iphone'
p422
tp423
(lp424
(I2
I3
I0
S'switched'
p425
I1
tp426
a(I5
I2
F0.375
S'new'
p427
I1
tp428
a(I5
I31
I0
S'normal'
p429
I1
tp430
a(I6
I6
F0.375
S'available'
p431
I1
tp432
a(I9
I64
I0
S'more'
p433
I1
tp434
a(I10
I5
I0
S'extensive'
p435
I1
tp436
a(I10
I17
I0
S'more'
p437
I1
tp438
a(I10
I60
F0.375
S'newest'
p439
I1
tp440
a(I10
I62
I0
S'later'
p441
I1
tp442
a(I11
I125
I0
S'next'
p443
I1
tp444
a(I13
I24
F-0.5
S'heavier'
p445
I1
tp446
a(I13
I31
F-0.875
S'awful'
p447
I1
tp448
a(I13
I32
F0.25
S'sharper'
p449
I1
tp450
a(I14
I128
I0
S'next'
p451
I1
tp452
a(I19
I1
I0
S'later'
p453
I1
tp454
a(I21
I34
I0
S'most'
p455
I1
tp456
as(S'live'
p457
S'tiles'
p458
tp459
(lp460
(I1
I21
F0.5
S'live'
p461
I0
tp462
a(I1
I90
I0
S'many'
p463
I0
tp464
a(I1
I90
F0.5
S'live'
p465
I0
tp466
a(I1
I107
F0.5
S'live'
p467
I0
tp468
a(I4
I47
F0.5
S'live'
p469
I0
tp470
a(I5
I56
F-0.5
S'unequal'
p471
I0
tp472
a(I7
I2
F0.5
S'live'
p473
I0
tp474
a(I10
I107
F0.5
S'live'
p475
I0
tp476
a(I14
I35
F0.5
S'live'
p477
I0
tp478
a(I14
I78
F0.5
S'live'
p479
I0
tp480
a(I17
I58
F0.5
S'live'
p481
I0
tp482
a(I20
I71
F0.5
S'live'
p483
I0
tp484
a(I21
I96
F0.5
S'live'
p485
I0
tp486
a(I21
I99
I0
S'standard'
p487
I0
tp488
a(I21
I99
F0.5
S'functional'
p489
I0
tp490
a(I21
I99
F0.5
S'live'
p491
I0
tp492
a(I21
I99
I0
S'third'
p493
I0
tp494
a(I1
I21
F0.5
g461
I0
tp495
a(I1
I90
I0
g463
I0
tp496
a(I1
I90
F0.5
g465
I0
tp497
a(I1
I107
F0.5
g467
I0
tp498
a(I4
I47
F0.5
g469
I0
tp499
a(I5
I56
F-0.5
g471
I0
tp500
a(I7
I2
F0.5
g473
I0
tp501
a(I10
I107
F0.5
g475
I0
tp502
a(I14
I35
F0.5
g477
I0
tp503
a(I14
I78
F0.5
g479
I0
tp504
a(I17
I49
F0.625
S'easy'
p505
I0
tp506
a(I17
I58
F0.5
g481
I0
tp507
a(I17
I121
F-0.5
S'sudden'
p508
I0
tp509
a(I17
I121
I0
S'own'
p510
I0
tp511
a(I17
I121
F-0.375
S'black'
p512
I0
tp513
a(I18
I13
I0
S'big'
p514
I0
tp515
a(I18
I13
F-0.375
S'small'
p516
I0
tp517
a(I18
I13
I0
S'many'
p518
I0
tp519
a(I20
I71
F0.5
g483
I0
tp520
a(I21
I96
F0.5
g485
I0
tp521
a(I21
I99
I0
g487
I0
tp522
a(I21
I99
F0.5
g489
I0
tp523
a(I21
I99
F0.5
g491
I0
tp524
a(I21
I99
I0
g493
I0
tp525
as(S'lumia'
p526
tp527
(lp528
(I1
I104
F0.375
S'new'
p529
I0
tp530
a(I1
I129
F1.0
S'good'
p531
I0
tp532
a(I2
I8
F1.0
S'good'
p533
I0
tp534
a(I4
I4
F-0.625
S'other'
p535
I0
tp536
a(I5
I101
F0.75
S'definite'
p537
I0
tp538
a(I9
I56
F0.375
S'similar'
p539
I0
tp540
a(I9
I73
I0
S'old'
p541
I0
tp542
a(I11
I145
F0.875
S'attractive'
p543
I0
tp544
a(I11
I145
F-0.375
S'simple'
p545
I0
tp546
a(I13
I20
F-0.625
S'glad'
p547
I0
tp548
a(I17
I169
F-0.125
S'overall'
p549
I0
tp550
a(I19
I3
F-0.375
S'black'
p551
I0
tp552
a(I20
I126
F0.625
S'aware'
p553
I0
tp554
a(I21
I134
I0
S'standpoint'
p555
I0
tp556
as(S'droid'
p557
tp558
(lp559
(I4
I97
F0.5
S'rid'
p560
I0
tp561
as(S'button'
p562
tp563
(lp564
(I4
I150
F-0.5
S'actual'
p565
I19
tp566
a(I8
I29
I-100
S'volume-down'
p567
I19
tp568
a(I14
I66
F-0.75
S'panic'
p569
I19
tp570
a(I17
I107
F0.625
S'easy'
p571
I19
tp572
as(S'apple'
p573
tp574
(lp575
(I4
I164
I0
S'exclusive'
p576
I4
tp577
a(I10
I60
F-0.5
S'sure'
p578
I4
tp579
a(I13
I21
F0.625
S'fair'
p580
I4
tp581
as(S'verizon'
p582
tp583
(lp584
(I4
I46
I0
S'local'
p585
I0
tp586
a(I4
I162
F0.375
S'available'
p587
I0
tp588
a(I4
I177
F0.375
S'available'
p589
I0
tp590
a(I4
I184
F-0.625
S'other'
p591
I0
tp592
a(I5
I15
F-0.625
S'bad'
p593
I0
tp594
a(I9
I56
I0
S'exclusive'
p595
I0
tp596
a(I13
I2
I0
S'local'
p597
I0
tp598
a(I13
I8
F0.125
S'first'
p599
I0
tp600
a(I14
I82
I0
S'local'
p601
I0
tp602
a(I17
I178
F0.375
S'new'
p603
I0
tp604
as(S'speaker'
p605
tp606
(lp607
(I4
I194
F0.75
S'ear'
p608
I8
tp609
a(I8
I28
F0.375
S'exterior'
p610
I8
tp611
a(I11
I62
F0.5
S'clear'
p612
I8
tp613
a(I14
I27
F1.0
S'good'
p614
I8
tp615
a(I17
I26
F0.5
S'clear'
p616
I8
tp617
as(S'many'
p618
S'apps'
p619
tp620
(lp621
(I1
I33
I0
S'many'
p622
I0
tp623
a(I1
I35
I0
S'many'
p624
I0
tp625
a(I1
I84
I0
S'more'
p626
I0
tp627
a(I1
I84
I0
S'many'
p628
I0
tp629
a(I1
I152
I0
S'many'
p630
I0
tp631
a(I11
I2
I0
S'many'
p632
I0
tp633
a(I11
I26
I0
S'many'
p634
I0
tp635
a(I11
I26
F0.125
S'popular'
p636
I0
tp637
a(I11
I85
I0
S'many'
p638
I0
tp639
a(I13
I73
I0
S'many'
p640
I0
tp641
a(I13
I73
F-0.125
S'overall'
p642
I0
tp643
a(I14
I179
I0
S'many'
p644
I0
tp645
a(I14
I179
F0.125
S'popular'
p646
I0
tp647
a(I20
I122
I0
S'many'
p648
I0
tp649
as(S'a'
p650
S'long'
p651
S'time'
p652
tp653
(lp654
(I5
I103
F-0.5
S'long'
p655
I12
tp656
a(I9
I63
F-0.5
S'long'
p657
I12
tp658
a(I18
I43
F-0.5
S'long'
p659
I12
tp660
a(I18
I94
F-0.5
S'long'
p661
I12
tp662
a(I21
I15
F0.875
S'happy'
p663
I12
tp664
a(I21
I15
F-0.5
S'long'
p665
I12
tp666
as(S'app'
p667
S'store'
p668
tp669
(lp670
(I11
I89
I0
S'more'
p671
I0
tp672
a(I13
I13
I0
S'most'
p673
I0
tp674
a(I13
I13
F0.375
S'available'
p675
I0
tp676
a(I17
I38
I0
S'fanatic'
p677
I0
tp678
a(I18
I19
I0
S'many'
p679
I0
tp680
a(I21
I144
F-0.625
S'free'
p681
I0
tp682
as(S'learning'
p683
S'curve'
p684
tp685
(lp686
(I1
I120
F-0.625
S'bad'
p687
I2
tp688
as(S'microsoft'
p689
tp690
(lp691
(I4
I61
F-0.625
S'other'
p692
I0
tp693
a(I11
I145
F0.625
S'easy'
p694
I0
tp695
a(I14
I22
F1.0
S'better'
p696
I0
tp697
a(I20
I23
I0
S'exclusive'
p698
I0
tp699
a(I20
I41
I0
S'great'
p700
I0
tp701
a(I20
I96
F0.5
S'drive'
p702
I0
tp703
a(I20
I96
F0.875
S'nice'
p704
I0
tp705
a(I20
I152
F0.625
S'responsible'
p706
I0
tp707
as(S'nokia'
p708
tp709
(lp710
(I1
I9
F0.5
S'second'
p711
I0
tp712
a(I1
I86
F0.5
S'true'
p713
I0
tp714
a(I1
I156
I0
S'earlier'
p715
I0
tp716
a(I5
I15
F0.125
S'usual'
p717
I0
tp718
a(I5
I15
I0
S'standard'
p719
I0
tp720
a(I10
I29
I0
S'ancient'
p721
I0
tp722
a(I10
I94
I0
S'exclusive'
p723
I0
tp724
a(I10
I94
I0
S'great'
p725
I0
tp726
a(I10
I131
I0
S'few'
p727
I0
tp728
a(I11
I110
F-0.625
S'other'
p729
I0
tp730
a(I11
I134
F-0.625
S'other'
p731
I0
tp732
a(I11
I134
F0.875
S'happy'
p733
I0
tp734
a(I12
I25
F0.125
S'last'
p735
I0
tp736
a(I14
I70
I0
S'same'
p737
I0
tp738
a(I17
I161
F0.125
S'last'
p739
I0
tp740
a(I18
I39
F0.875
S'happy'
p741
I0
tp742
a(I20
I9
F-0.625
S'free'
p743
I0
tp744
a(I20
I55
F-0.5
S'less'
p745
I0
tp746
a(I20
I62
F0.25
S'favorite'
p747
I0
tp748
a(I20
I62
F-0.625
S'free'
p749
I0
tp750
a(I20
I64
F-0.5
S'sure'
p751
I0
tp752
a(I20
I152
F-0.5
S'sure'
p753
I0
tp754
a(I21
I146
I0
S'general'
p755
I0
tp756
as(S'lack'
p757
S'of'
p758
S'apps'
p759
tp760
(lp761
(I3
I8
I0
S'more'
p762
I0
tp763
a(I13
I66
F0.125
S'solid'
p764
I0
tp765
a(I17
I171
F0.125
S'popular'
p766
I0
tp767
a(I17
I171
I0
S'social'
p768
I0
tp769
a(I17
I171
I0
S'most'
p770
I0
tp771
a(I17
I171
F0.625
S'productive'
p772
I0
tp773
a(I17
I171
F0.375
S'available'
p774
I0
tp775
a(I21
I27
I0
S'esoteric'
p776
I0
tp777
a(I0
I2
F-0.5
S'sure'
p778
I0
tp779
a(I1
I33
I0
g622
I0
tp780
a(I1
I35
I0
g624
I0
tp781
a(I1
I84
I0
g626
I0
tp782
a(I1
I84
I0
g628
I0
tp783
a(I1
I150
I0
S'useful'
p784
I0
tp785
a(I1
I150
I0
S'latest'
p786
I0
tp787
a(I1
I150
I0
S'most'
p788
I0
tp789
a(I1
I150
F0.125
S'popular'
p790
I0
tp791
a(I1
I151
F0.375
S'available'
p792
I0
tp793
a(I1
I152
I0
g630
I0
tp794
a(I1
I160
F0.625
S'major'
p795
I0
tp796
a(I1
I160
F-0.625
S'other'
p797
I0
tp798
a(I2
I2
F0.375
S'available'
p799
I0
tp800
a(I2
I2
F-0.375
S'near'
p801
I0
tp802
a(I3
I8
I0
g762
I0
tp803
a(I4
I7
I0
S'curious'
p804
I0
tp805
a(I4
I16
I0
S'useful'
p806
I0
tp807
a(I4
I16
F-0.125
S'overall'
p808
I0
tp809
a(I4
I16
F0.5
S'functional'
p810
I0
tp811
a(I4
I22
I0
S'more'
p812
I0
tp813
a(I4
I30
F1.0
S'good'
p814
I0
tp815
a(I4
I31
F1.0
S'good'
p816
I0
tp817
a(I5
I31
F0.375
S'available'
p818
I0
tp819
a(I5
I54
I0
S'same'
p820
I0
tp821
a(I5
I75
F-0.625
S'free'
p822
I0
tp823
a(I5
I81
I0
S'own'
p824
I0
tp825
a(I5
I130
F0.375
S'available'
p826
I0
tp827
a(I8
I19
I0
S'most'
p828
I0
tp829
a(I9
I6
F0.625
S'interested'
p830
I0
tp831
a(I10
I11
I0
S'most'
p832
I0
tp833
a(I10
I18
F-0.375
S'smooth'
p834
I0
tp835
a(I10
I48
F-0.5
S'less'
p836
I0
tp837
a(I10
I109
F-0.5
S'open'
p838
I0
tp839
a(I10
I112
F-0.5
S'open'
p840
I0
tp841
a(I10
I113
F0.125
S'able'
p842
I0
tp843
a(I10
I116
I0
S'earlier'
p844
I0
tp845
a(I10
I117
F-0.5
S'certain'
p846
I0
tp847
a(I10
I117
F0.5
S'willing'
p848
I0
tp849
a(I10
I118
F0.25
S'used'
p850
I0
tp851
a(I10
I132
I0
S'store'
p852
I0
tp853
a(I11
I2
I0
g632
I0
tp854
a(I11
I26
I0
g634
I0
tp855
a(I11
I26
F0.125
g636
I0
tp856
a(I11
I53
I0
S'different'
p857
I0
tp858
a(I11
I83
I0
S'more'
p859
I0
tp860
a(I11
I85
I0
g638
I0
tp861
a(I11
I89
I0
S'most'
p862
I0
tp863
a(I11
I89
F-0.375
S'top'
p864
I0
tp865
a(I11
I91
I0
S'most'
p866
I0
tp867
a(I11
I93
I0
S'faster'
p868
I0
tp869
a(I11
I95
F-0.625
S'other'
p870
I0
tp871
a(I11
I108
F-0.5
S'less'
p872
I0
tp873
a(I11
I144
I0
S'different'
p874
I0
tp875
a(I11
I145
F0.875
S'nice'
p876
I0
tp877
a(I11
I172
F1.0
S'good'
p878
I0
tp879
a(I12
I25
F-0.5
S'open'
p880
I0
tp881
a(I12
I25
F-0.625
S'other'
p882
I0
tp883
a(I13
I13
F0.5
S'true'
p884
I0
tp885
a(I13
I49
F0.25
S'favorite'
p886
I0
tp887
a(I13
I49
F0.375
S'available'
p888
I0
tp889
a(I13
I51
I0
S'few'
p890
I0
tp891
a(I13
I51
F0.25
S'favorite'
p892
I0
tp893
a(I13
I66
F0.125
g764
I0
tp894
a(I13
I72
F-0.5
S'sure'
p895
I0
tp896
a(I13
I73
I0
g640
I0
tp897
a(I13
I73
F-0.125
g642
I0
tp898
a(I14
I15
F1.0
S'good'
p899
I0
tp900
a(I14
I27
I0
S'basic'
p901
I0
tp902
a(I14
I64
F0.125
S'able'
p903
I0
tp904
a(I14
I64
F0.125
S'practical'
p905
I0
tp906
a(I14
I153
F1.0
S'good'
p907
I0
tp908
a(I14
I164
F0.125
S'able'
p909
I0
tp910
a(I14
I179
I0
g644
I0
tp911
a(I14
I179
F0.125
g646
I0
tp912
a(I16
I8
F0.375
S'available'
p913
I0
tp914
a(I17
I15
I0
S'cool'
p915
I0
tp916
a(I17
I15
I0
S'useful'
p917
I0
tp918
a(I17
I152
I0
S'most'
p919
I0
tp920
a(I17
I171
F0.125
g766
I0
tp921
a(I17
I171
I0
g768
I0
tp922
a(I17
I171
I0
g770
I0
tp923
a(I17
I171
F0.625
g772
I0
tp924
a(I17
I171
F0.375
g774
I0
tp925
a(I18
I58
F0.875
S'music'
p926
I0
tp927
a(I18
I95
F0.125
S'essential'
p928
I0
tp929
a(I18
I95
F-0.625
S'want'
p930
I0
tp931
a(I18
I99
F0.625
S'easy'
p932
I0
tp933
a(I18
I99
I0
S'limited'
p934
I0
tp935
a(I19
I2
I0
S'fewer'
p936
I0
tp937
a(I19
I2
F-0.625
S'glad'
p938
I0
tp939
a(I19
I5
I0
S'basic'
p940
I0
tp941
a(I20
I8
F1.0
S'best'
p942
I0
tp943
a(I20
I18
F0.125
S'thrive'
p944
I0
tp945
a(I20
I25
F-0.625
S'other'
p946
I0
tp947
a(I20
I40
F0.375
S'available'
p948
I0
tp949
a(I20
I122
I0
g648
I0
tp950
a(I21
I17
F0.375
S'available'
p951
I0
tp952
a(I21
I27
I0
g776
I0
tp953
a(I21
I44
I0
S'most'
p954
I0
tp955
a(I21
I100
I0
S'few'
p956
I0
tp957
a(I21
I100
F-0.625
S'other'
p958
I0
tp959
a(I21
I104
F0.875
S'happy'
p960
I0
tp961
a(I21
I135
I0
S'more'
p962
I0
tp963
a(I21
I136
F-0.5
S'sure'
p964
I0
tp965
as(S'interface'
p966
tp967
(lp968
(I1
I41
F1.0
S'better'
p969
I1
tp970
a(I1
I106
F-0.625
S'clean'
p971
I1
tp972
a(I4
I59
F0.875
S'nice'
p973
I1
tp974
a(I17
I48
F-0.375
S'tile'
p975
I1
tp976
a(I17
I158
F-0.375
S'simple'
p977
I1
tp978
a(I20
I74
F-0.625
S'clean'
p979
I1
tp980
a(I21
I184
F-0.375
S'tiled'
p981
I1
tp982
a(I21
I184
F-0.625
S'fresh'
p983
I1
tp984
a(I21
I184
F0.375
S'new'
p985
I1
tp986
a(I21
I184
F0.625
S'easy'
p987
I1
tp988
a(I21
I184
F0.125
S'practical'
p989
I1
tp990
as(S'music'
p991
tp992
(lp993
(I1
I53
F-0.625
S'free'
p994
I0
tp995
a(I1
I55
F1.0
S'better'
p996
I0
tp997
a(I21
I118
I0
S'great'
p998
I0
tp999
as(S'data'
p1000
tp1001
(lp1002
(I1
I174
F0.375
S'new'
p1003
I13
tp1004
a(I5
I20
I0
S'limited'
p1005
I13
tp1006
a(I5
I113
F0.5
S'clear'
p1007
I13
tp1008
a(I11
I139
F0.5
S'incomplete'
p1009
I13
tp1010
a(I21
I155
I0
S'wish'
p1011
I13
tp1012
as(S'sky'
p1013
S'drive'
p1014
tp1015
(lp1016
(I20
I123
F0.5
S'drive'
p1017
I0
tp1018
a(I20
I123
I0
S'great'
p1019
I0
tp1020
as(S'xenon'
p1021
S'flash'
p1022
tp1023
(lp1024
(I9
I68
F1.0
S'better'
p1025
I0
tp1026
a(I11
I69
F1.0
S'better'
p1027
I0
tp1028
a(I13
I41
F-0.25
S'direct'
p1029
I0
tp1030
as(S'for'
p1031
S'low'
p1032
S'light'
p1033
tp1034
(lp1035
(I9
I68
F-0.25
S'low'
p1036
I0
tp1037
a(I13
I41
F-0.25
S'low'
p1038
I0
tp1039
a(I20
I55
I0
S'great'
p1040
I0
tp1041
a(I20
I55
F1.0
S'best'
p1042
I0
tp1043
a(I20
I55
F-0.25
S'low'
p1044
I0
tp1045
a(I1
I25
F-0.25
S'low'
p1046
I0
tp1047
a(I1
I61
F-0.25
S'low'
p1048
I0
tp1049
a(I9
I68
F-0.25
g1036
I0
tp1050
a(I10
I69
F-0.25
S'low'
p1051
I0
tp1052
a(I13
I41
F-0.25
g1038
I0
tp1053
a(I14
I153
F-0.25
S'low'
p1054
I0
tp1055
a(I14
I155
F-0.25
S'low'
p1056
I0
tp1057
a(I17
I86
F-0.25
S'low'
p1058
I0
tp1059
a(I17
I86
I0
S'high'
p1060
I0
tp1061
a(I17
I86
F1.0
S'good'
p1062
I0
tp1063
a(I20
I55
I0
g1040
I0
tp1064
a(I20
I55
F1.0
g1042
I0
tp1065
a(I20
I55
F-0.25
g1044
I0
tp1066
as(S'top'
p1067
S'notch'
p1068
tp1069
(lp1070
(I10
I131
F-0.375
S'top'
p1071
I1
tp1072
a(I17
I23
F-0.375
S'top'
p1073
I1
tp1074
as(S'hardware'
p1075
S'and'
p1076
S'software'
p1077
tp1078
(lp1079
(I4
I29
F0.875
S'happy'
p1080
I1
tp1081
a(I20
I117
I0
S'great'
p1082
I1
tp1083
as(S'build'
p1084
S'quality'
p1085
tp1086
(lp1087
(I10
I104
I0
S'great'
p1088
I2
tp1089
a(I16
I55
I0
S'great'
p1090
I2
tp1091
a(I18
I0
I0
S'incredible'
p1092
I2
tp1093
a(I21
I174
F-0.5
S'poor'
p1094
I2
tp1095
as.