(dp0
(S'android'
p1
S'and'
p2
S'apple'
p3
tp4
(lp5
(I12
I5
I0
S'many'
p6
I0
tp7
a(I12
I5
I0
S'android'
p8
I0
tp9
a(I1
I30
F-0.125
S'slow'
p10
I4
tp11
a(I9
I72
F-0.5
S'sure'
p12
I4
tp13
a(I12
I5
I0
g6
I4
tp14
a(I12
I5
I0
g8
I4
tp15
a(I13
I43
I0
S'later'
p16
I4
tp17
a(I0
I45
I0
S'old'
p18
I0
tp19
a(I3
I11
I0
S'old'
p20
I0
tp21
a(I3
I54
F1.0
S'better'
p22
I0
tp23
a(I5
I6
F0.25
S'used'
p24
I0
tp25
a(I5
I6
I0
S'old'
p26
I0
tp27
a(I7
I41
F0.625
S'noticeable'
p28
I0
tp29
a(I12
I182
I0
S'efficient'
p30
I0
tp31
a(I12
I276
F0.875
S'nice'
p32
I0
tp33
a(I12
I278
F0.375
S'new'
p34
I0
tp35
as(S'android'
p36
S'devices'
p37
tp38
(lp39
(I7
I41
F0.625
g28
I0
tp40
as(S'battery'
p41
S'life'
p42
tp43
(lp44
(I0
I97
I0
S'more'
p45
I1
tp46
a(I0
I97
F0.625
S'acceptable'
p47
I1
tp48
a(I3
I14
F0.375
S'extended'
p49
I1
tp50
a(I7
I177
F-0.75
S'short'
p51
I1
tp52
a(I9
I87
I0
S'great'
p53
I1
tp54
a(I9
I137
F1.0
S'better'
p55
I1
tp56
a(I9
I155
F0.375
S'much'
p57
I1
tp58
a(I9
I155
F1.0
S'better'
p59
I1
tp60
a(I12
I183
F1.0
S'good'
p61
I1
tp62
a(I13
I103
F-0.5
S'poor'
p63
I1
tp64
a(I13
I130
I0
S'great'
p65
I1
tp66
a(I0
I97
I0
g45
I19
tp67
a(I0
I97
F0.625
g47
I19
tp68
a(I7
I177
F-0.75
g51
I19
tp69
a(I9
I137
F1.0
g55
I19
tp70
a(I12
I31
I0
S'real'
p71
I19
tp72
a(I12
I95
F-0.75
S'short'
p73
I19
tp74
a(I12
I183
F1.0
g61
I19
tp75
a(I13
I130
I0
g65
I19
tp76
a(I3
I14
F0.375
g49
I15
tp77
a(I7
I20
F0.125
S'essential'
p78
I15
tp79
a(I7
I20
F0.25
S'portable'
p80
I15
tp81
a(I9
I87
I0
g53
I15
tp82
a(I9
I155
F0.375
g57
I15
tp83
a(I9
I155
F1.0
g59
I15
tp84
a(I10
I34
I0
S'integrated'
p85
I15
tp86
a(I13
I6
F1.0
S'good'
p87
I15
tp88
a(I13
I16
I0
S'great'
p89
I15
tp90
a(I13
I103
F-0.5
g63
I15
tp91
a(I13
I143
I0
S'more'
p92
I15
tp93
a(I13
I143
F-0.5
S'less'
p94
I15
tp95
as(S'crystal'
p96
S'clear'
p97
tp98
(lp99
(I12
I106
I0
S'such'
p100
I0
tp101
as(S'email'
p102
tp103
(lp104
(I4
I35
I0
S'different'
p105
I5
tp106
a(I5
I6
F0.875
S'music'
p107
I5
tp108
a(I12
I242
F0.375
S'create'
p109
I5
tp110
as(S'micro'
p111
S'sd'
p112
tp113
(lp114
(I0
I58
I0
S'great'
p115
I0
tp116
as(S'wav'
p117
S'files'
p118
tp119
(lp120
(I10
I55
F-0.625
S'other'
p121
I0
tp122
as(S'call'
p123
S'quality'
p124
tp125
(lp126
(I2
I10
F0.5
S'second'
p127
I0
tp128
a(I2
I10
F-0.5
S'poor'
p129
I0
tp130
a(I3
I34
F1.0
S'good'
p131
I0
tp132
a(I7
I3
F-0.5
S'poor'
p133
I0
tp134
a(I7
I128
I0
S'same'
p135
I0
tp136
a(I10
I20
F0.5
S'clear'
p137
I0
tp138
a(I10
I20
F0.625
S'easy'
p139
I0
tp140
a(I10
I33
F-0.125
S'super'
p141
I0
tp142
a(I10
I33
F0.5
S'clear'
p143
I0
tp144
a(I12
I74
I0
S'great'
p145
I0
tp146
a(I12
I259
F1.0
S'good'
p147
I0
tp148
as(S'deal'
p149
S'breaker'
p150
tp151
(lp152
(I13
I113
F-0.375
S'smooth'
p153
I0
tp154
as(S'verizon'
p155
S'store'
p156
tp157
(lp158
(I9
I158
F-0.375
S'double'
p159
I0
tp160
a(I12
I165
F-0.25
S'ready'
p161
I0
tp162
a(I3
I52
F-0.625
S'glad'
p163
I0
tp164
a(I9
I152
F0.375
S'new'
p165
I0
tp166
a(I12
I25
F0.375
S'available'
p167
I0
tp168
a(I12
I122
I0
S'site'
p169
I0
tp170
as(S'camera'
p171
tp172
(lp173
(I1
I3
I0
S'sleek'
p174
I1
tp175
a(I1
I11
F1.0
S'best'
p176
I1
tp177
a(I3
I10
F0.125
S'capable'
p178
I1
tp179
a(I3
I34
F1.0
S'good'
p180
I1
tp181
a(I7
I5
I0
S'incredible'
p182
I1
tp183
a(I8
I2
F1.0
S'good'
p184
I1
tp185
a(I9
I82
F1.0
S'best'
p186
I1
tp187
a(I9
I111
I0
S'great'
p188
I1
tp189
a(I10
I36
F0.125
S'impressive'
p190
I1
tp191
a(I10
I71
F0.875
S'nice'
p192
I1
tp193
a(I10
I83
F1.0
S'best'
p194
I1
tp195
a(I12
I86
I0
S'great'
p196
I1
tp197
a(I12
I106
F0.125
S'digital'
p198
I1
tp199
a(I12
I256
I0
S'fast'
p200
I1
tp201
a(I12
I311
I0
S'great'
p202
I1
tp203
a(I12
I312
I0
S'great'
p204
I1
tp205
a(I13
I6
I0
S'great'
p206
I1
tp207
a(I13
I124
F1.0
S'good'
p208
I1
tp209
a(I13
I128
I0
S'great'
p210
I1
tp211
a(I13
I128
F0.5
S'true'
p212
I1
tp213
as(S'background'
p214
tp215
(lp216
(I1
I35
F-0.375
S'black'
p217
I3
tp218
a(I7
I55
F-0.25
S'white'
p219
I3
tp220
a(I7
I77
F-0.25
S'yellow'
p221
I3
tp222
a(I13
I123
F-0.375
S'black'
p223
I3
tp224
a(I13
I123
F-0.25
S'white'
p225
I3
tp226
as(S'operating'
p227
S'system'
p228
tp229
(lp230
(I6
I1
F-0.625
S'other'
p231
I2
tp232
a(I12
I182
F0.375
S'much'
p233
I2
tp234
a(I12
I213
F-0.625
S'other'
p235
I2
tp236
as(S'iphone'
p237
tp238
(lp239
(I1
I26
F0.375
S'much'
p240
I1
tp241
a(I1
I26
F-0.5
S'miss'
p242
I1
tp243
a(I9
I34
F-0.125
S'former'
p244
I1
tp245
a(I9
I72
F0.375
S'newest'
p246
I1
tp247
a(I9
I74
I0
S'later'
p248
I1
tp249
a(I10
I90
F-0.375
S'small'
p250
I1
tp251
a(I12
I6
F-0.625
S'lighter'
p252
I1
tp253
a(I12
I14
F0.25
S'dimmer'
p254
I1
tp255
a(I12
I47
I0
S'old'
p256
I1
tp257
a(I13
I39
I0
S'old'
p258
I1
tp259
as(S'live'
p260
S'tiles'
p261
tp262
(lp263
(I0
I66
F0.5
S'live'
p264
I0
tp265
a(I0
I66
I0
S'great'
p266
I0
tp267
a(I0
I85
F0.5
S'live'
p268
I0
tp269
a(I0
I130
F0.5
S'live'
p270
I0
tp271
a(I1
I28
F0.5
S'live'
p272
I0
tp273
a(I1
I36
I0
S'useful'
p274
I0
tp275
a(I7
I157
F0.5
S'live'
p276
I0
tp277
a(I9
I36
F0.5
S'live'
p278
I0
tp279
a(I9
I119
F0.5
S'live'
p280
I0
tp281
a(I12
I44
F0.5
S'live'
p282
I0
tp283
a(I12
I86
F0.5
S'live'
p284
I0
tp285
a(I12
I86
I0
S'useful'
p286
I0
tp287
a(I12
I137
F0.5
S'live'
p288
I0
tp289
a(I12
I139
F0.5
S'live'
p290
I0
tp291
a(I12
I230
F0.5
S'live'
p292
I0
tp293
a(I12
I281
F0.5
S'live'
p294
I0
tp295
a(I13
I29
I0
S'great'
p296
I0
tp297
a(I13
I120
F0.5
S'live'
p298
I0
tp299
a(I0
I66
F0.5
g264
I0
tp300
a(I0
I66
I0
g266
I0
tp301
a(I0
I85
F0.5
g268
I0
tp302
a(I0
I86
F0.375
S'much'
p303
I0
tp304
a(I0
I86
I0
S'interactive'
p305
I0
tp306
a(I0
I130
F0.5
g270
I0
tp307
a(I0
I180
I0
S'large'
p308
I0
tp309
a(I1
I28
F0.5
g272
I0
tp310
a(I1
I36
I0
g274
I0
tp311
a(I7
I157
F0.5
g276
I0
tp312
a(I9
I36
F0.5
g278
I0
tp313
a(I9
I119
F0.5
g280
I0
tp314
a(I12
I44
F0.5
g282
I0
tp315
a(I12
I86
F0.5
g284
I0
tp316
a(I12
I86
I0
g286
I0
tp317
a(I12
I137
F0.5
g288
I0
tp318
a(I12
I139
F0.5
g290
I0
tp319
a(I12
I157
F0.125
S'able'
p320
I0
tp321
a(I12
I230
F0.5
g292
I0
tp322
a(I12
I281
F0.5
g294
I0
tp323
a(I12
I321
I0
S'big'
p324
I0
tp325
a(I12
I321
F-0.375
S'small'
p326
I0
tp327
a(I13
I29
I0
g296
I0
tp328
a(I13
I120
F0.5
g298
I0
tp329
as(S'windows'
p330
tp331
(lp332
(I0
I167
I0
S'general'
p333
I0
tp334
a(I5
I4
F-0.125
S'overall'
p335
I0
tp336
a(I6
I1
F0.625
S'easy'
p337
I0
tp338
a(I8
I0
F0.125
S'first'
p339
I0
tp340
a(I9
I163
F0.375
S'new'
p341
I0
tp342
a(I9
I166
F-0.25
S'past'
p343
I0
tp344
a(I9
I166
F0.375
S'available'
p345
I0
tp346
a(I10
I43
I0
S'earlier'
p347
I0
tp348
a(I10
I106
F-0.5
S'sure'
p349
I0
tp350
a(I12
I105
F0.625
S'easy'
p351
I0
tp352
a(I12
I105
F0.25
S'responsive'
p353
I0
tp354
a(I13
I38
F0.875
S'happy'
p355
I0
tp356
as(S'droid'
p357
tp358
(lp359
(I12
I138
F-0.375
S'static'
p360
I0
tp361
a(I12
I177
F0.25
S'recent'
p362
I0
tp363
a(I12
I225
F-0.75
S'dead'
p364
I0
tp365
a(I12
I308
F0.125
S'first'
p366
I0
tp367
a(I14
I2
I0
S'old'
p368
I0
tp369
as(S'charging'
p370
tp371
(lp372
(I7
I177
F-0.125
S'super'
p373
I12
tp374
a(I12
I9
I0
S'basic'
p375
I12
tp376
as(S'social'
p377
S'media'
p378
tp379
(lp380
(I1
I39
I0
S'social'
p381
I0
tp382
a(I1
I53
I0
S'social'
p383
I0
tp384
a(I12
I147
I0
S'social'
p385
I0
tp386
as(S'sd'
p387
S'card'
p388
tp389
(lp390
(I0
I58
I0
g115
I0
tp391
as(S'back'
p392
S'button'
p393
tp394
(lp395
(I4
I8
I-100
S'-back'
p396
I0
tp397
a(I1
I58
I-100
S'standby/on/off'
p398
I19
tp399
a(I7
I22
I0
S'only'
p400
I19
tp401
a(I7
I23
I0
S'sensitive'
p402
I19
tp403
a(I7
I145
F-0.625
S'push'
p404
I19
tp405
as(S'city'
p406
S'lens'
p407
tp408
(lp409
(I7
I149
F0.5
S'drive'
p410
I0
tp411
a(I7
I149
I0
S'great'
p412
I0
tp413
as(S'a'
p414
S'long'
p415
S'time'
p416
tp417
(lp418
(I3
I68
F-0.5
S'long'
p419
I12
tp420
a(I4
I13
F-0.5
S'less'
p421
I12
tp422
a(I10
I0
F-0.5
S'long'
p423
I12
tp424
a(I10
I61
I0
S'such'
p425
I12
tp426
a(I10
I61
F-0.5
S'long'
p427
I12
tp428
a(I12
I160
F-0.5
S'long'
p429
I12
tp430
a(I12
I281
F-0.5
S'long'
p431
I12
tp432
as(S'app'
p433
S'store'
p434
tp435
(lp436
(I0
I47
F-0.125
S'overall'
p437
I0
tp438
a(I4
I5
I0
S'old'
p439
I0
tp440
a(I13
I145
F-0.375
S'daily'
p441
I0
tp442
a(I13
I145
F1.0
S'good'
p443
I0
tp444
as(S'microsoft'
p445
tp446
(lp447
(I12
I23
F0.125
S'able'
p448
I0
tp449
as(S'low'
p450
S'light'
p451
tp452
(lp453
(I0
I92
F-0.25
S'low'
p454
I0
tp455
a(I0
I116
I0
S'real'
p456
I0
tp457
a(I0
I116
F-0.25
S'low'
p458
I0
tp459
a(I9
I81
F-0.25
S'low'
p460
I0
tp461
a(I12
I136
F1.0
S'good'
p462
I0
tp463
a(I12
I136
F-0.25
S'low'
p464
I0
tp465
as(S'music'
p466
tp467
(lp468
(I4
I10
F1.0
S'good'
p469
I0
tp470
a(I10
I77
I0
S'cool'
p471
I0
tp472
as(S'data'
p473
tp474
(lp475
(I3
I36
I0
S'active'
p476
I13
tp477
a(I7
I150
F0.5
S'drive'
p478
I13
tp479
a(I12
I188
F-0.625
S'other'
p480
I13
tp481
as(S'much'
p482
S'better'
p483
tp484
(lp485
(I0
I119
F0.375
S'much'
p486
I9
tp487
a(I9
I67
F0.375
S'much'
p488
I9
tp489
a(I12
I23
F0.375
S'much'
p490
I9
tp491
a(I13
I62
F0.375
S'much'
p492
I9
tp493
a(I13
I89
F0.375
S'much'
p494
I9
tp495
as(S'xenon'
p496
S'flash'
p497
tp498
(lp499
(I0
I17
I0
S'great'
p500
I0
tp501
a(I0
I17
I0
g500
I2
tp502
a(I7
I79
F0.625
S'fair'
p503
I2
tp504
a(I10
I32
I0
S'more'
p505
I2
tp506
a(I12
I29
F1.0
S'good'
p507
I2
tp508
as(S'nokia'
p509
S'lumia'
p510
tp511
(lp512
(I0
I139
F0.875
S'happy'
p513
I0
tp514
a(I9
I35
F0.875
S'happier'
p515
I0
tp516
a(I9
I43
F-0.625
S'glad'
p517
I0
tp518
a(I10
I110
F0.375
S'new'
p519
I0
tp520
a(I12
I205
F0.375
S'new'
p521
I0
tp522
a(I0
I139
F0.875
g513
I0
tp523
a(I4
I14
I0
S'such'
p524
I0
tp525
a(I9
I17
F0.375
S'available'
p526
I0
tp527
a(I9
I43
F-0.625
g517
I0
tp528
a(I9
I106
I0
S'exclusive'
p529
I0
tp530
a(I9
I106
I0
S'great'
p531
I0
tp532
a(I10
I110
F0.375
g519
I0
tp533
a(I12
I172
F-0.125
S'overall'
p534
I0
tp535
a(I12
I205
F0.375
g521
I0
tp536
a(I12
I247
F0.375
S'new'
p537
I0
tp538
a(I12
I248
F0.375
S'new'
p539
I0
tp540
a(I12
I292
F0.875
S'happy'
p541
I0
tp542
a(I12
I316
I0
S'great'
p543
I0
tp544
a(I13
I4
F0.25
S'helpful'
p545
I0
tp546
a(I13
I18
F-0.125
S'ultimate'
p547
I0
tp548
a(I14
I2
F0.375
S'available'
p549
I0
tp550
a(I0
I45
F1.0
S'better'
p551
I0
tp552
a(I0
I169
F0.5
S'second'
p553
I0
tp554
a(I7
I128
F0.125
S'first'
p555
I0
tp556
a(I9
I35
F0.875
g515
I0
tp557
a(I10
I62
F0.875
S'happy'
p558
I0
tp559
a(I10
I70
F0.375
S'available'
p560
I0
tp561
a(I10
I81
F0.375
S'newer'
p562
I0
tp563
as(S'3rd'
p564
S'party'
p565
tp566
(lp567
(I0
I186
I0
S'official'
p568
I0
tp569
a(I10
I5
F1.0
S'better'
p570
I0
tp571
as(S'wireless'
p572
tp573
(lp574
(I0
I117
I0
S'cool'
p575
I0
tp576
a(I10
I31
I0
S'vertical'
p577
I0
tp578
a(I12
I152
F0.375
S'available'
p579
I0
tp580
as(S'apps'
p581
tp582
(lp583
(I0
I79
I0
S'needed'
p584
I0
tp585
a(I0
I121
F-0.5
S'less'
p586
I0
tp587
a(I0
I186
F0.125
S'popular'
p588
I0
tp589
a(I0
I191
F-0.625
S'other'
p590
I0
tp591
a(I1
I39
F-0.5
S'separate'
p592
I0
tp593
a(I1
I55
F1.0
S'good'
p594
I0
tp595
a(I1
I55
I0
S'basic'
p596
I0
tp597
a(I1
I55
F0.125
S'first'
p598
I0
tp599
a(I3
I38
F-0.5
S'less'
p600
I0
tp601
a(I3
I38
F0.375
S'available'
p602
I0
tp603
a(I3
I42
I0
S'more'
p604
I0
tp605
a(I3
I42
F0.375
S'available'
p606
I0
tp607
a(I3
I42
F-0.375
S'daily'
p608
I0
tp609
a(I3
I54
F-0.5
S'less'
p610
I0
tp611
a(I3
I63
I0
S'many'
p612
I0
tp613
a(I3
I64
F-0.5
S'less'
p614
I0
tp615
a(I3
I65
F0.125
S'able'
p616
I0
tp617
a(I4
I9
F0.875
S'music'
p618
I0
tp619
a(I4
I12
I0
S'android'
p620
I0
tp621
a(I4
I13
I0
S'own'
p622
I0
tp623
a(I4
I21
I0
S'few'
p624
I0
tp625
a(I4
I33
F-0.375
S'top'
p626
I0
tp627
a(I5
I17
F0.125
S'popular'
p628
I0
tp629
a(I5
I17
I0
S'official'
p630
I0
tp631
a(I5
I17
F0.5
S'comparable'
p632
I0
tp633
a(I5
I18
F0.25
S'garbage'
p634
I0
tp635
a(I5
I43
I0
S'critical'
p636
I0
tp637
a(I7
I42
I0
S'faster'
p638
I0
tp639
a(I7
I42
F-0.5
S'open'
p640
I0
tp641
a(I7
I46
I0
S'most'
p642
I0
tp643
a(I8
I18
F0.625
S'easy'
p644
I0
tp645
a(I9
I5
I0
S'most'
p646
I0
tp647
a(I9
I21
I0
S'more'
p648
I0
tp649
a(I9
I21
I0
S'more'
p650
I0
tp651
a(I9
I24
F0.375
S'new'
p652
I0
tp653
a(I9
I60
F-0.5
S'less'
p654
I0
tp655
a(I9
I121
F-0.5
S'open'
p656
I0
tp657
a(I9
I124
F-0.5
S'open'
p658
I0
tp659
a(I9
I125
F0.125
S'able'
p660
I0
tp661
a(I9
I128
I0
S'earlier'
p662
I0
tp663
a(I9
I129
F-0.5
S'certain'
p664
I0
tp665
a(I9
I129
F0.5
S'willing'
p666
I0
tp667
a(I9
I130
F0.25
S'used'
p668
I0
tp669
a(I10
I5
F-0.5
S'unavailable'
p670
I0
tp671
a(I10
I85
F-0.5
S'miss'
p672
I0
tp673
a(I10
I118
F0.375
S'available'
p674
I0
tp675
a(I12
I18
I0
S'only'
p676
I0
tp677
a(I12
I19
I0
S'same'
p678
I0
tp679
a(I12
I47
I0
S'fewer'
p680
I0
tp681
a(I12
I47
F0.375
S'available'
p682
I0
tp683
a(I12
I86
I0
S'creative'
p684
I0
tp685
a(I12
I104
F0.375
S'available'
p686
I0
tp687
a(I12
I140
I0
S'most'
p688
I0
tp689
a(I12
I140
F0.875
S'nice'
p690
I0
tp691
a(I12
I199
F-0.625
S'free'
p692
I0
tp693
a(I12
I264
I0
S'most'
p694
I0
tp695
a(I12
I264
F0.25
S'main'
p696
I0
tp697
a(I13
I90
F0.125
S'able'
p698
I0
tp699
a(I13
I93
I0
S'many'
p700
I0
tp701
a(I13
I93
F0.5
S'elegant'
p702
I0
tp703
a(I13
I93
F-0.625
S'free'
p704
I0
tp705
a(I13
I101
I0
S'different'
p706
I0
tp707
a(I13
I144
I0
S'many'
p708
I0
tp709
as(S'amazon'
p710
tp711
(lp712
(I12
I163
I0
S'quick'
p713
I13
tp714
a(I12
I294
F1.0
S'better'
p715
I13
tp716
a(I13
I145
I-100
S'well-ebay'
p717
I13
tp718
a(I13
I145
I-100
S'good-pageonce'
p719
I13
tp720
a(I14
I25
F0.5
S'willing'
p721
I13
tp722
as(S'build'
p723
S'quality'
p724
tp725
(lp726
(I5
I0
F1.0
S'good'
p727
I2
tp728
a(I7
I174
F-0.125
S'overall'
p729
I2
tp730
a(I9
I116
I0
S'great'
p731
I2
tp732
as.