(dp0
(S'seller'
p1
tp2
(lp3
(I0
I15
I0
S'e-mail'
p4
I19
tp5
a(I0
I16
F-0.625
S'unprofessional'
p6
I19
tp7
a(I0
I18
F0.875
S'rude'
p8
I19
tp9
a(I1
I6
F0.625
S'trustful'
p10
I19
tp11
a(I5
I9
I0
S'great'
p12
I19
tp13
a(I5
I9
I0
S'even'
p14
I19
tp15
a(I11
I36
F0.625
S'kind'
p16
I19
tp17
as(S'iphone'
p18
tp19
(lp20
(I1
I11
F0.375
S'new'
p21
I1
tp22
a(I1
I18
F0.875
S'rude'
p23
I1
tp24
a(I3
I0
F-0.25
S'past'
p25
I1
tp26
a(I3
I0
F0.5
S'slick'
p27
I1
tp28
a(I4
I8
F0.875
S'happy'
p29
I1
tp30
a(I9
I0
F0.875
S'happy'
p31
I1
tp32
a(I10
I5
I0
S'local'
p33
I1
tp34
a(I10
I7
F0.375
S'new'
p35
I1
tp36
a(I11
I22
F0.375
S'new'
p37
I1
tp38
a(I11
I33
F0.75
S'worth'
p39
I1
tp40
a(I11
I33
I0
S'dough'
p41
I1
tp42
as.