(dp0
(S'battery'
p1
S'life'
p2
tp3
(lp4
(I12
I15
F1.0
S'good'
p5
I1
tp6
a(I12
I15
I0
S'spanish'
p7
I1
tp8
a(I20
I2
F1.0
S'good'
p9
I1
tp10
a(I37
I7
F0.25
S'responsive'
p11
I1
tp12
as(S'sim'
p13
S'card'
p14
tp15
(lp16
(I8
I6
I0
S'standard'
p17
I0
tp18
a(I25
I0
F1.0
S'good'
p19
I0
tp20
as(S'only'
p21
S'thing'
p22
tp23
(lp24
(I12
I19
I0
S'only'
p25
I13
tp26
a(I28
I4
I0
S'only'
p27
I13
tp28
a(I32
I8
I0
S'only'
p29
I13
tp30
as(S'huawei'
p31
tp32
(lp33
(I19
I0
F0.5
S'bought'
p34
I0
tp35
a(I19
I3
F0.25
S'original'
p36
I0
tp37
a(I19
I6
F0.125
S'first'
p38
I0
tp39
a(I42
I4
F0.875
S'happy'
p40
I0
tp41
as(S'apps'
p42
tp43
(lp44
(I19
I20
I0
S'many'
p45
I0
tp46
a(I19
I20
F-0.5
S'open'
p47
I0
tp48
a(I21
I1
F-0.125
S'slow'
p49
I0
tp50
a(I21
I6
F1.0
S'better'
p51
I0
tp52
a(I23
I0
I0
S'basic'
p53
I0
tp54
a(I23
I2
I0
S'many'
p55
I0
tp56
a(I23
I2
F-0.5
S'open'
p57
I0
tp58
a(I28
I7
F0.125
S'capable'
p59
I0
tp60
a(I32
I1
I0
S'italian'
p61
I0
tp62
a(I32
I2
I0
S'italian'
p63
I0
tp64
a(I32
I11
F-0.75
S'bright'
p65
I0
tp66
a(I36
I0
F0.875
S'important'
p67
I0
tp68
a(I36
I0
I0
S'more'
p69
I0
tp70
a(I36
I0
F0.125
S'further'
p71
I0
tp72
as(S'sd'
p73
S'card'
p74
tp75
(lp76
(I21
I6
F-0.625
S'free'
p77
I0
tp78
as(S'camera'
p79
tp80
(lp81
(I8
I24
F-0.125
S'slow'
p82
I1
tp83
a(I8
I27
F-0.5
S'poor'
p84
I1
tp85
a(I8
I29
F-0.75
S'comfortable'
p86
I1
tp87
a(I8
I29
F1.0
S'good'
p88
I1
tp89
a(I32
I9
I0
S'great'
p90
I1
tp91
a(I38
I1
F-0.625
S'average'
p92
I1
tp93
a(I38
I13
I0
S'real'
p94
I1
tp95
as.