(dp0
(S'problem'
p1
tp2
(lp3
(I6
I0
I0
S'only'
p4
tp5
a(I58
I0
I0
S'same'
p6
tp7
a(I76
I0
I0
S'big'
p8
tp9
a(I118
I3
I0
S'only'
p10
tp11
a(I138
I10
F0.5
S'personal'
p12
tp13
a(I164
I3
I0
S'english'
p14
tp15
a(I201
I3
F-0.5
S'fix'
p16
tp17
a(I205
I7
I0
S'common'
p18
tp19
as(S'nternational'
p20
S'unlocked'
p21
S'version'
p22
tp23
(lp24
(I105
I0
F-0.5
S'international'
p25
tp26
a(I105
I4
F-0.5
S'international'
p27
tp28
a(I152
I32
F-0.5
S'international'
p29
tp30
a(I158
I1
F0.25
S'unlocked'
p31
tp32
a(I158
I1
F-0.5
S'international'
p33
tp34
a(I185
I0
F-0.5
S'international'
p35
tp36
a(I205
I2
F-0.5
S'international'
p37
tp38
as(S'perfect'
p39
tp40
(lp41
(I160
I0
F0.375
S'new'
p42
tp43
a(I160
I0
F0.125
S'sealed'
p44
tp45
as(S'battery'
p46
S'life'
p47
tp48
(lp49
(I10
I2
F-0.5
S'long'
p50
tp51
as(S'cellphone'
p52
tp53
(lp54
(I127
I0
F1.0
S'best'
p55
tp56
a(I156
I0
F0.125
S'god'
p57
tp58
a(I156
I0
I0
S'hot'
p59
tp60
as(S'made'
p61
tp62
(lp63
(I188
I0
I0
S'french'
p64
tp65
as(S'galaxy'
p66
tp67
(lp68
(I82
I40
I0
S'korean'
p69
tp70
a(I99
I1
F-0.625
S'other'
p71
tp72
a(I152
I7
F-0.125
S'overall'
p73
tp74
a(I181
I0
F0.25
S'unlocked'
p75
tp76
a(I218
I3
F0.125
S'first'
p77
tp78
as(S'nice'
p79
tp80
(lp81
(I227
I0
F0.625
S'easy'
p82
tp83
as(S'screen'
p84
tp85
(lp86
(I0
I0
F0.625
S'easy'
p87
tp88
a(I15
I2
I0
S'big'
p89
tp90
a(I15
I2
F0.5
S'clear'
p91
tp92
a(I29
I1
I0
S'big'
p93
tp94
a(I43
I0
F-0.375
S'black'
p95
tp96
a(I43
I0
F-0.375
S'black'
p97
tp98
a(I49
I0
F-0.375
S'black'
p99
tp100
a(I71
I0
I0
S'large'
p101
tp102
a(I71
I0
F-0.75
S'bright'
p103
tp104
a(I92
I0
I0
S'big'
p105
tp106
a(I106
I0
F-0.375
S'black'
p107
tp108
a(I132
I2
I0
S'great'
p109
tp110
a(I132
I2
F-0.625
S'light'
p111
tp112
a(I224
I3
I0
S'big'
p113
tp114
a(I235
I4
F0.625
S'replaceable'
p115
tp116
a(I235
I6
F-0.375
S'black'
p117
tp118
as(S'service'
p119
S'provider'
p120
tp121
(lp122
(I197
I4
I0
S'later'
p123
tp124
a(I197
I4
I0
S'different'
p125
tp126
as(S'service'
p127
tp128
(lp129
(I197
I4
I0
g123
tp130
a(I197
I4
I0
g125
tp131
as(S'everything'
p132
tp133
(lp134
(I66
I0
F1.0
S'good'
p135
tp136
a(I189
I0
I0
S'more'
p137
tp138
as(S'samsung'
p139
tp140
(lp141
(I31
I0
F0.375
S'new'
p142
tp143
a(I75
I0
I0
S'real'
p144
tp145
a(I86
I9
I0
S'most'
p146
tp147
a(I86
I9
F-0.625
S'non'
p148
tp149
a(I116
I0
I0
S'faster'
p150
tp151
a(I174
I0
F0.125
S'first'
p152
tp153
a(I203
I0
F0.25
S'original'
p154
tp155
a(I205
I10
I0
S'local'
p156
tp157
a(I216
I3
I0
S'hear'
p158
tp159
a(I216
I3
F0.875
S'music'
p160
tp161
as(S'galaxy'
p162
S's4'
p163
tp164
(lp165
(I82
I40
I0
g69
tp166
a(I85
I0
I0
S'more'
p167
tp168
a(I99
I1
F-0.625
g71
tp169
a(I152
I7
F-0.125
g73
tp170
a(I181
I0
F0.25
g75
tp171
a(I218
I3
F0.125
g77
tp172
a(I221
I2
F1.0
S'best'
p173
tp174
as(S'back'
p175
tp176
(lp177
(I138
I0
F0.625
S'easy'
p178
tp179
as(S'nternational'
p180
S'version'
p181
tp182
(lp183
(I19
I2
F-0.5
S'international'
p184
tp185
a(I51
I0
F-0.5
S'international'
p186
tp187
a(I105
I0
F-0.5
g25
tp188
a(I105
I4
F-0.5
g27
tp189
a(I124
I4
F-0.5
S'international'
p190
tp191
a(I152
I32
F-0.5
g29
tp192
a(I158
I1
F0.25
g31
tp193
a(I158
I1
F-0.5
g33
tp194
a(I169
I1
F-0.5
S'international'
p195
tp196
a(I185
I0
F-0.5
g35
tp197
a(I205
I2
F-0.5
g37
tp198
as(S'version'
p199
tp200
(lp201
(I19
I2
F-0.5
g184
tp202
a(I51
I0
F-0.5
g186
tp203
a(I90
I0
I0
S'french'
p204
tp205
a(I105
I0
F-0.5
g25
tp206
a(I105
I4
F-0.5
g27
tp207
a(I124
I4
F-0.5
g190
tp208
a(I129
I0
I0
S'european'
p209
tp210
a(I129
I0
I0
S'european'
p211
tp212
a(I152
I32
F-0.5
g29
tp213
a(I158
I1
F0.25
g31
tp214
a(I158
I1
F-0.5
g33
tp215
a(I158
I3
I0
S'european'
p216
tp217
a(I169
I1
F-0.5
g195
tp218
a(I185
I0
F-0.5
g35
tp219
a(I205
I2
F-0.5
g37
tp220
a(I207
I0
I0
S'same'
p221
tp222
a(I207
I0
F-0.375
S'black'
p223
tp224
a(I226
I1
I0
S'vietnamese'
p225
tp226
as(S'french'
p227
tp228
(lp229
(I142
I0
F1.0
S'good'
p230
tp231
a(I185
I1
I0
S'absurd'
p232
tp233
as(S'need'
p234
tp235
(lp236
(I70
I0
I0
S'android'
p237
tp238
as(S'quality'
p239
tp240
(lp241
(I15
I1
I0
S'high'
p242
tp243
a(I86
I1
F-0.625
S'bad'
p244
tp245
a(I86
I7
F-0.625
S'bad'
p246
tp247
a(I135
I0
I0
S'website'
p248
tp249
a(I198
I1
I0
S'great'
p250
tp251
a(I209
I0
F1.0
S'good'
p252
tp253
as(S'product'
p254
tp255
(lp256
(I4
I4
F1.0
S'good'
p257
tp258
a(I87
I2
F1.0
S'better'
p259
tp260
a(I87
I2
I0
S'imported'
p261
tp262
a(I122
I6
F0.5
S'possible'
p263
tp264
a(I122
I7
F0.125
S'able'
p265
tp266
a(I124
I6
F1.0
S'good'
p267
tp268
a(I135
I1
F0.5
S'satisfied'
p269
tp270
a(I135
I1
F0.875
S'happy'
p271
tp272
a(I204
I0
F1.0
S'good'
p273
tp274
a(I205
I14
F0.5
S'expensive'
p275
tp276
a(I207
I1
I0
S'faster'
p277
tp278
a(I207
I1
F1.0
S'good'
p279
tp280
a(I215
I0
F1.0
S'good'
p281
tp282
a(I231
I1
F0.125
S'able'
p283
tp284
a(I233
I0
F1.0
S'good'
p285
tp286
as(S'mobile'
p287
tp288
(lp289
(I17
I0
F-0.5
S'international'
p290
tp291
as(S'n'
p292
S'love'
p293
tp294
(lp295
(I180
I0
F1.0
S'love'
p296
tp297
as(S'a'
p298
S'samsung'
p299
S'galaxy'
p300
tp301
(lp302
(I31
I0
F0.375
g142
tp303
a(I75
I0
I0
g144
tp304
a(I116
I0
I0
g150
tp305
a(I216
I3
I0
g158
tp306
a(I216
I3
F0.875
g160
tp307
as(S'return'
p308
tp309
(lp310
(I160
I7
F0.125
S'first'
p311
tp312
as(S'features'
p313
tp314
(lp315
(I0
I1
I0
S'more'
p316
tp317
a(I94
I0
F0.375
S'new'
p318
tp319
a(I94
I0
F0.375
S'educate'
p320
tp321
a(I126
I5
I0
S'many'
p322
tp323
a(I131
I1
F-0.625
S'other'
p324
tp325
a(I146
I0
I0
S'many'
p326
tp327
a(I146
I0
F0.375
S'available'
p328
tp329
a(I147
I1
I0
S'many'
p330
tp331
a(I151
I0
I0
S'useful'
p332
tp333
a(I152
I21
I0
S'most'
p334
tp335
a(I162
I2
F0.25
S'familiar'
p336
tp337
a(I171
I6
I0
S'many'
p338
tp339
a(I187
I0
I0
S'few'
p340
tp341
as(S'wifi'
p342
tp343
(lp344
(I73
I0
F1.0
S'good'
p345
tp346
a(I182
I2
F-0.75
S'unable'
p347
tp348
as(S'factory'
p349
tp350
(lp351
(I24
I0
F0.5
S'bought'
p352
tp353
a(I105
I0
F-0.25
S'white'
p354
tp355
a(I197
I3
F1.0
S'good'
p356
tp357
as(S'30'
p358
S'days'
p359
tp360
(lp361
(I216
I9
F-0.25
S'past'
p362
tp363
a(I216
I13
F-0.25
S'past'
p364
tp365
as(S'seller'
p366
tp367
(lp368
(I13
I2
I0
S'great'
p369
tp370
a(I182
I5
F-0.75
S'unable'
p371
tp372
a(I182
I7
F-0.75
S'unable'
p373
tp374
a(I199
I0
F0.125
S'able'
p375
tp376
a(I221
I0
F1.0
S'good'
p377
tp378
as(S'works'
p379
tp380
(lp381
(I82
I20
F1.0
S'good'
p382
tp383
a(I103
I0
I0
S'great'
p384
tp385
a(I204
I0
F-0.25
S'rest'
p386
tp387
a(I204
I0
F1.0
S'good'
p388
tp389
a(I232
I2
F1.0
S'good'
p390
tp391
a(I238
I2
F-0.625
S'light'
p392
tp393
as(S'excellent'
p394
tp395
(lp396
(I206
I0
F1.0
S'good'
p397
tp398
as(S'order'
p399
tp400
(lp401
(I33
I0
F0.875
S'happier'
p402
tp403
as(S'battery'
p404
tp405
(lp406
(I8
I0
F0.375
S'new'
p407
tp408
a(I11
I2
F0.375
S'new'
p409
tp410
a(I45
I4
F0.125
S'last'
p411
tp412
a(I86
I29
F0.875
S'important'
p413
tp414
a(I126
I6
F0.125
S'last'
p415
tp416
a(I126
I6
F-0.5
S'long'
p417
tp418
a(I144
I1
I0
S'different'
p419
tp420
a(I144
I1
F0.125
S'last'
p421
tp422
a(I144
I1
F0.375
S'much'
p423
tp424
a(I144
I2
F0.125
S'last'
p425
tp426
a(I144
I2
F0.375
S'much'
p427
tp428
a(I184
I0
F-0.875
S'harder'
p429
tp430
a(I195
I1
F0.375
S'extra'
p431
tp432
a(I205
I3
I0
S'more'
p433
tp434
a(I236
I0
F-0.25
S'google'
p435
tp436
as(S'smart'
p437
tp438
(lp439
(I10
I3
F0.375
S'dependable'
p440
tp441
a(I108
I0
F0.125
S'first'
p442
tp443
a(I116
I0
I0
S'great'
p444
tp445
as(S'software'
p446
tp447
(lp448
(I82
I28
F-0.25
S'higher'
p449
tp450
a(I158
I11
F0.5
S'told'
p451
tp452
a(I204
I0
F0.625
S'pleasant'
p453
tp454
as(S'samsung'
p455
S'galaxy'
p456
tp457
(lp458
(I31
I0
F0.375
g142
tp459
a(I75
I0
I0
g144
tp460
a(I116
I0
I0
g150
tp461
a(I216
I3
I0
g158
tp462
a(I216
I3
F0.875
g160
tp463
as(S'cell'
p464
tp465
(lp466
(I19
I2
I0
S'french'
p467
tp468
a(I64
I0
F0.375
S'new'
p469
tp470
a(I71
I0
F1.0
S'best'
p471
tp472
a(I80
I0
F0.375
S'new'
p473
tp474
a(I107
I3
I0
S'french'
p475
tp476
a(I110
I0
I0
S'french'
p477
tp478
a(I168
I1
F0.375
S'new'
p479
tp480
a(I180
I0
F0.375
S'new'
p481
tp482
a(I210
I0
F0.5
S'elegant'
p483
tp484
as(S'language'
p485
tp486
(lp487
(I19
I2
F-0.125
S'foreign'
p488
tp489
a(I48
I0
I0
S'french'
p490
tp491
a(I48
I0
F-0.375
S'manual'
p492
tp493
a(I105
I3
F-0.625
S'other'
p494
tp495
a(I138
I2
I0
S'slavic'
p496
tp497
a(I138
I4
F-0.25
S'google'
p498
tp499
a(I162
I1
I0
S'english'
p500
tp501
a(I185
I1
F-0.75
S'single'
p502
tp503
a(I185
I1
F-0.375
S'manual'
p504
tp505
a(I185
I2
I0
S'english'
p506
tp507
a(I185
I2
I0
S'local'
p508
tp509
as(S'thing'
p510
tp511
(lp512
(I3
I1
I0
S'only'
p513
tp514
a(I42
I2
I0
S'only'
p515
tp516
a(I116
I0
I0
S'mobile'
p517
tp518
a(I147
I2
I0
S'only'
p519
tp520
a(I154
I1
I0
S'only'
p521
tp522
a(I188
I0
I0
S'only'
p523
tp524
a(I189
I0
I0
S'only'
p525
tp526
a(I189
I0
F-0.875
S'negative'
p527
tp528
as(S'sim'
p529
S'card'
p530
tp531
(lp532
(I77
I2
I0
S'factory'
p533
tp534
a(I82
I42
I0
S'american'
p535
tp536
a(I129
I0
I0
S'european'
p537
tp538
a(I158
I3
I0
S'european'
p539
tp540
a(I181
I0
F-0.75
S'invalid'
p541
tp542
as(S'however'
p543
tp544
(lp545
(I133
I0
F1.0
S'good'
p546
tp547
a(I133
I0
I0
S'rear'
p548
tp549
as(S'device'
p550
tp551
(lp552
(I91
I1
F0.875
S'nice'
p553
tp554
a(I119
I0
F1.0
S'good'
p555
tp556
a(I160
I1
F0.5
S'compatible'
p557
tp558
a(I230
I0
I0
S'french'
p559
tp560
a(I235
I5
I0
S'entire'
p561
tp562
as(S'samsung'
p563
S'galaxy'
p564
S's4'
p565
tp566
(lp567
(I31
I0
F0.375
g142
tp568
a(I75
I0
I0
g144
tp569
a(I85
I0
I0
g167
tp570
as(S'warranty'
p571
tp572
(lp573
(I6
I0
F-0.875
S'worst'
p574
tp575
a(I205
I12
I0
S'national'
p576
tp577
as(S'company'
p578
tp579
(lp580
(I44
I2
I0
S'cellular'
p581
tp582
a(I78
I3
I0
S'french'
p583
tp584
a(I128
I2
I0
S'great'
p585
tp586
a(I160
I3
I0
S'more'
p587
tp588
as(S'time'
p589
tp590
(lp591
(I6
I1
I0
S'next'
p592
tp593
a(I37
I0
F0.125
S'first'
p594
tp595
a(I46
I0
F-0.75
S'short'
p596
tp597
a(I82
I22
F0.5
S'true'
p598
tp599
a(I82
I54
F0.125
S'first'
p600
tp601
a(I138
I24
I0
S'same'
p602
tp603
a(I152
I21
I0
S'most'
p604
tp605
a(I160
I0
F0.125
S'first'
p606
tp607
a(I205
I12
I0
S'next'
p608
tp609
a(I210
I3
F-0.5
S'long'
p610
tp611
as(g292
S'french'
p612
tp613
(lp614
(I142
I0
F1.0
g230
tp615
a(I185
I1
I0
g232
tp616
as(S'camera'
p617
tp618
(lp619
(I96
I0
F0.625
S'perfect'
p620
tp621
a(I109
I1
I0
S'great'
p622
tp623
a(I208
I0
F1.0
S'good'
p624
tp625
a(I235
I5
F-0.625
S'bad'
p626
tp627
as(S'good'
p628
tp629
(lp630
(I83
I0
F0.875
S'happy'
p631
tp632
as(S'card'
p633
tp634
(lp635
(I77
I2
I0
g533
tp636
as(S'charger'
p637
tp638
(lp639
(I52
I1
I0
S'adapter'
p640
tp641
a(I52
I2
F0.25
S'original'
p642
tp643
a(I161
I0
F1.0
S'good'
p644
tp645
a(I167
I0
I0
S'european'
p646
tp647
a(I194
I2
I0
S'weird'
p648
tp649
a(I194
I2
F-0.5
S'international'
p650
tp651
as(S'love'
p652
tp653
(lp654
(I180
I0
F1.0
g296
tp655
as(S'data'
p656
S'plan'
p657
tp658
(lp659
(I86
I3
F-0.5
S'sure'
p660
tp661
a(I160
I2
I0
S'current'
p662
tp663
as(S'unlocked'
p664
S'version'
p665
tp666
(lp667
(I105
I0
F-0.5
g25
tp668
a(I105
I4
F-0.5
g27
tp669
a(I152
I32
F-0.5
g29
tp670
a(I158
I1
F0.25
g31
tp671
a(I158
I1
F-0.5
g33
tp672
a(I185
I0
F-0.5
g35
tp673
a(I205
I2
F-0.5
g37
tp674
as(g292
S'usa'
p675
tp676
(lp677
(I219
I2
F0.5
S'live'
p678
tp679
as(S'months'
p680
tp681
(lp682
(I34
I1
F0.5
S'true'
p683
tp684
a(I205
I6
I0
S'few'
p685
tp686
a(I205
I8
I0
S'few'
p687
tp688
a(I216
I0
F0.375
S'working'
p689
tp690
a(I216
I0
F-0.125
S'mine'
p691
tp692
as(S'apps'
p693
tp694
(lp695
(I82
I39
F-0.5
S'open'
p696
tp697
a(I86
I25
F-0.625
S'other'
p698
tp699
a(I94
I1
I0
S'great'
p700
tp701
a(I107
I3
I0
S'french'
p702
tp703
as(S'perfect'
p704
S'condition'
p705
tp706
(lp707
(I160
I0
F0.375
g42
tp708
a(I160
I0
F0.125
g44
tp709
as(S'days'
p710
tp711
(lp712
(I30
I1
I0
S'many'
p713
tp714
a(I52
I3
F0.25
S'tired'
p715
tp716
a(I52
I3
F-0.75
S'likely'
p717
tp718
a(I216
I9
F-0.25
g362
tp719
a(I216
I13
F-0.25
g364
tp720
as(S'fast'
p721
tp722
(lp723
(I174
I0
F-0.125
S'super'
p724
tp725
as.