(dp0
(S'seller'
p1
tp2
(lp3
(I60
I7
F0.625
S'perfect'
p4
I19
tp5
as(S'android'
p6
tp7
(lp8
(I36
I6
F1.0
S'good'
p9
I0
tp10
as(S'iphone'
p11
tp12
(lp13
(I11
I9
I0
S'old'
p14
I1
tp15
a(I41
I93
F-0.5
S'sure'
p16
I1
tp17
a(I49
I4
I0
S'faster'
p18
I1
tp19
a(I64
I12
F0.625
S'manageable'
p20
I1
tp21
a(I75
I1
I0
S'own'
p22
I1
tp23
a(I75
I2
F0.25
S'bigger'
p24
I1
tp25
a(I76
I25
F-0.5
S'try'
p26
I1
tp27
a(I76
I25
I0
S'many'
p28
I1
tp29
a(I76
I25
F-0.625
S'other'
p30
I1
tp31
as(S'battery'
p32
S'life'
p33
tp34
(lp35
(I16
I6
F1.0
S'good'
p36
I1
tp37
a(I55
I1
F1.0
S'better'
p38
I1
tp39
a(I15
I4
F0.625
S'perfect'
p40
I15
tp41
a(I38
I16
F0.375
S'new'
p42
I15
tp43
a(I40
I5
I0
S'fourth'
p44
I15
tp45
a(I51
I7
F0.625
S'changeable'
p46
I15
tp47
a(I56
I1
F0.125
S'able'
p48
I15
tp49
a(I75
I13
F0.625
S'removable'
p50
I15
tp51
as(S'carrier'
p52
tp53
(lp54
(I41
I8
I0
S'specific'
p55
I1
tp56
a(I41
I15
F-0.625
S'other'
p57
I1
tp58
a(I41
I29
F0.5
S'compatible'
p59
I1
tp60
a(I41
I29
I0
S'latest'
p61
I1
tp62
as(S'networks'
p63
tp64
(lp65
(I18
I2
F0.875
S'happier'
p66
I0
tp67
a(I41
I45
F-0.625
S'other'
p68
I0
tp69
a(I41
I49
F-0.667
S'incompatible'
p70
I0
tp71
a(I41
I50
F-0.5
S'international'
p72
I0
tp73
a(I41
I53
F-0.625
S'other'
p74
I0
tp75
as(S'international'
p76
S'version'
p77
tp78
(lp79
(I3
I5
F-0.5
S'international'
p80
I0
tp81
a(I3
I5
F1.0
S'good'
p82
I0
tp83
a(I3
I5
F0.75
S'due'
p84
I0
tp85
a(I29
I6
F-0.5
S'international'
p86
I0
tp87
as(S'network'
p88
tp89
(lp90
(I23
I4
F0.125
S'protective'
p91
I0
tp92
a(I23
I4
I0
S'plastic'
p93
I0
tp94
a(I23
I4
I0
S'android'
p95
I0
tp96
as(S'excellent'
p97
S'product'
p98
tp99
(lp100
(I23
I14
I0
S'cellular'
p101
I8
tp102
as(S'sim'
p103
S'card'
p104
tp105
(lp106
(I44
I16
F-0.5
S'regular'
p107
I0
tp108
a(I45
I9
F-0.75
S'uneasy'
p109
I0
tp110
a(I45
I9
F0.125
S'able'
p111
I0
tp112
a(I49
I8
F0.375
S'similar'
p113
I0
tp114
a(I49
I9
F0.375
S'new'
p115
I0
tp116
a(I49
I10
F0.375
S'new'
p117
I0
tp118
as(S'language'
p119
tp120
(lp121
(I6
I12
I0
S'asian'
p122
I3
tp123
a(I15
I5
I0
S'english'
p124
I3
tp125
a(I29
I12
I0
S'chinese'
p126
I3
tp127
a(I76
I11
I0
S'french'
p128
I3
tp129
a(I76
I11
I0
S'spanish'
p130
I3
tp131
as(S'apps'
p132
tp133
(lp134
(I16
I6
I0
S'fast'
p135
I0
tp136
a(I22
I0
F-0.625
S'light'
p137
I0
tp138
a(I44
I9
F-0.5
S'sure'
p139
I0
tp140
a(I44
I9
I0
S'unnecessary'
p141
I0
tp142
a(I60
I6
I0
S'latest'
p143
I0
tp144
a(I60
I6
I0
S'useful'
p145
I0
tp146
a(I77
I1
I0
S'great'
p147
I0
tp148
as(S'amazon'
p149
tp150
(lp151
(I53
I11
I0
S'different'
p152
I13
tp153
a(I76
I17
F0.125
S'last'
p154
I13
tp155
as(S'factory'
p156
tp157
(lp158
(I72
I13
F-0.5
S'international'
p159
I2
tp160
as(S'camera'
p161
tp162
(lp163
(I4
I2
F1.0
S'best'
p164
I1
tp165
a(I6
I1
F0.875
S'nice'
p166
I1
tp167
a(I11
I1
I0
S'great'
p168
I1
tp169
a(I11
I2
F-0.5
S'regular'
p170
I1
tp171
a(I13
I15
I0
S'great'
p172
I1
tp173
a(I49
I20
F1.0
S'good'
p174
I1
tp175
a(I50
I5
F0.875
S'nice'
p176
I1
tp177
a(I57
I2
F1.0
S'best'
p178
I1
tp179
a(I72
I4
F0.875
S'nice'
p180
I1
tp181
a(I72
I4
I0
S'mobile'
p182
I1
tp183
as(S'samsung'
p184
S'galaxy'
p185
S's4'
p186
tp187
(lp188
(I20
I0
F0.375
S'much'
p189
I0
tp190
a(I20
I0
F-0.125
S'blackberry'
p191
I0
tp192
a(I34
I0
F0.625
S'easy'
p193
I0
tp194
a(I41
I52
I0
S'close'
p195
I0
tp196
a(I41
I94
F1.0
S'best'
p197
I0
tp198
a(I20
I0
F0.375
g189
I0
tp199
a(I20
I0
F-0.125
g191
I0
tp200
a(I77
I7
F0.375
S'new'
p201
I0
tp202
a(I23
I12
F-0.875
S'worst'
p203
I0
tp204
a(I23
I12
F-0.5
S'less'
p205
I0
tp206
a(I34
I0
F0.625
g193
I0
tp207
a(I41
I52
I0
g195
I0
tp208
a(I41
I94
F1.0
g197
I0
tp209
a(I7
I12
F0.125
S'last'
p210
I7
tp211
a(I20
I0
F0.375
g189
I7
tp212
a(I20
I0
F-0.125
g191
I7
tp213
a(I23
I4
F0.375
S'new'
p214
I7
tp215
a(I51
I4
F0.125
S'first'
p216
I7
tp217
a(I51
I4
F0.125
S'last'
p218
I7
tp219
a(I76
I22
I0
S'more'
p220
I7
tp221
a(I77
I7
F0.375
g201
I7
tp222
a(I23
I12
F-0.875
g203
I0
tp223
a(I76
I5
F0.125
S'first'
p224
I0
tp225
as.