(dp0
(S'battery'
p1
S'life'
p2
tp3
(lp4
(I0
I4
F-0.5
S'long'
p5
I1
tp6
a(I2
I53
F-0.5
S'poor'
p7
I1
tp8
a(I2
I56
F-0.5
S'poor'
p9
I1
tp10
a(I14
I10
F1.0
S'good'
p11
I1
tp12
a(I14
I32
F1.0
S'good'
p13
I1
tp14
a(I21
I47
F0.625
S'acceptable'
p15
I1
tp16
a(I37
I7
F0.875
S'nice'
p17
I1
tp18
a(I14
I32
F1.0
g13
I19
tp19
a(I21
I47
F0.625
g15
I19
tp20
a(I0
I4
F-0.5
g5
I15
tp21
a(I0
I33
F1.0
S'good'
p22
I15
tp23
a(I2
I53
F-0.5
g7
I15
tp24
a(I2
I56
F-0.5
g9
I15
tp25
a(I2
I85
I0
S'faster'
p26
I15
tp27
a(I14
I10
F1.0
g11
I15
tp28
a(I24
I0
F-0.5
S'long'
p29
I15
tp30
a(I37
I7
F0.875
g17
I15
tp31
a(I40
I12
F-0.75
S'little'
p32
I15
tp33
as(S'sony'
p34
S'xperia'
p35
tp36
(lp37
(I14
I0
F0.375
S'new'
p38
I0
tp39
a(I29
I1
F0.375
S'new'
p40
I0
tp41
a(I41
I0
I0
S'fifth'
p42
I0
tp43
a(I21
I61
F1.0
S'best'
p44
I0
tp45
a(I21
I61
F1.0
S'best'
p46
I0
tp47
a(I0
I20
F1.0
S'best'
p48
I5
tp49
a(I2
I29
F0.375
S'new'
p50
I5
tp51
a(I3
I12
F-0.625
S'bad'
p52
I5
tp53
a(I5
I7
F1.0
S'best'
p54
I5
tp55
a(I14
I0
F0.375
g38
I5
tp56
a(I16
I35
F-0.75
S'wrong'
p57
I5
tp58
a(I16
I51
F0.125
S'first'
p59
I5
tp60
a(I21
I72
F-0.625
S'other'
p61
I5
tp62
a(I21
I72
F-0.625
S'other'
p63
I5
tp64
a(I21
I75
I0
S'few'
p65
I5
tp66
a(I21
I75
F-0.625
S'other'
p67
I5
tp68
a(I21
I75
I0
S'proprietary'
p69
I5
tp70
a(I29
I1
F0.375
g40
I5
tp71
a(I29
I3
F0.5
S'technical'
p72
I5
tp73
a(I34
I21
F0.5
S'loyal'
p74
I5
tp75
a(I36
I3
I0
S'blast'
p76
I5
tp77
a(I39
I7
F0.25
S'responsive'
p78
I5
tp79
a(I41
I0
I0
g42
I5
tp80
as(S'camera'
p81
S'great'
p82
tp83
(lp84
(I2
I91
I0
S'incredible'
p85
I0
tp86
a(I16
I22
I0
S'great'
p87
I0
tp88
a(I22
I28
I0
S'great'
p89
I0
tp90
a(I31
I5
I0
S'great'
p91
I0
tp92
a(I33
I2
I0
S'great'
p93
I0
tp94
a(I38
I19
I0
S'great'
p95
I0
tp96
a(I39
I18
I0
S'great'
p97
I0
tp98
a(I0
I36
I0
S'more'
p99
I1
tp100
a(I2
I91
I0
g85
I1
tp101
a(I14
I24
F1.0
S'better'
p102
I1
tp103
a(I16
I22
I0
g87
I1
tp104
a(I21
I24
I0
S'more'
p105
I1
tp106
a(I21
I24
I0
S'adequate'
p107
I1
tp108
a(I22
I28
I0
g89
I1
tp109
a(I31
I5
I0
g91
I1
tp110
a(I31
I13
I0
S'fluid'
p111
I1
tp112
a(I31
I13
F1.0
S'good'
p113
I1
tp114
a(I31
I13
F0.5
S'elegant'
p115
I1
tp116
a(I33
I2
I0
g93
I1
tp117
a(I33
I26
I0
S'rear'
p118
I1
tp119
a(I33
I37
I0
S'most'
p120
I1
tp121
a(I34
I13
F0.5
S'clearer'
p122
I1
tp123
a(I34
I26
I0
S'very'
p124
I1
tp125
a(I34
I26
F1.0
S'good'
p126
I1
tp127
a(I36
I20
I0
S'more'
p128
I1
tp129
a(I36
I20
F1.0
S'better'
p130
I1
tp131
a(I38
I19
I0
g95
I1
tp132
a(I39
I18
I0
g97
I1
tp133
as(S'net'
p134
S'work'
p135
tp136
(lp137
(I39
I3
I0
S'net'
p138
I0
tp139
a(I39
I4
F0.375
S'available'
p140
I0
tp141
as(S'settings'
p142
tp143
(lp144
(I21
I18
F-0.375
S'manual'
p145
I1
tp146
a(I21
I18
F1.0
S'better'
p147
I1
tp148
a(I21
I44
F0.875
S'nice'
p149
I1
tp150
a(I33
I54
I0
S'many'
p151
I1
tp152
a(I33
I54
I0
S'different'
p153
I1
tp154
as(S'iphone'
p155
tp156
(lp157
(I0
I15
F1.0
S'better'
p158
I1
tp159
a(I21
I62
F1.0
S'good'
p160
I1
tp161
as(S'galaxy'
p162
tp163
(lp164
(I14
I30
I0
S'switched'
p165
I0
tp166
a(I14
I47
F0.75
S'beautiful'
p167
I0
tp168
a(I14
I47
F0.125
S'capable'
p169
I0
tp170
as(S'button'
p171
tp172
(lp173
(I21
I48
F0.5
S'second'
p174
I19
tp175
as(S'mobile'
p176
S'data'
p177
tp178
(lp179
(I16
I5
I0
S'mobile'
p180
I0
tp181
a(I21
I44
I0
S'mobile'
p182
I0
tp183
a(I34
I32
I0
S'mobile'
p184
I0
tp185
a(I34
I32
F-0.125
S'traffic'
p186
I0
tp187
a(I34
I32
I0
S'internet'
p188
I0
tp189
a(I36
I15
I0
S'mobile'
p190
I0
tp191
as(S'android'
p192
tp193
(lp194
(I2
I47
F0.75
S'beautiful'
p195
I0
tp196
a(I21
I65
F0.125
S'first'
p197
I0
tp198
a(I21
I75
F-0.625
S'unobtrusive'
p199
I0
tp200
as(S'sound'
p201
tp202
(lp203
(I2
I83
F-0.25
S'low'
p204
I7
tp205
a(I21
I41
F1.0
S'good'
p206
I7
tp207
a(I33
I54
F1.0
S'best'
p208
I7
tp209
as(S'processor'
p210
tp211
(lp212
(I14
I22
I0
S'same'
p213
I1
tp214
a(I18
I5
F1.0
S'good'
p215
I1
tp216
a(I33
I86
F-0.625
S'light'
p217
I1
tp218
as(S'smart'
p219
tp220
(lp221
(I21
I21
F-0.625
S'other'
p222
I10
tp223
as(S'smartphone'
p224
tp225
(lp226
(I0
I22
F0.125
S'first'
p227
I0
tp228
a(I0
I22
F1.0
S'best'
p229
I0
tp230
a(I0
I48
F1.0
S'best'
p231
I0
tp232
a(I2
I11
I0
S'young'
p233
I0
tp234
a(I2
I11
I0
S'older'
p235
I0
tp236
a(I15
I0
F1.0
S'best'
p237
I0
tp238
as(S'water'
p239
tp240
(lp241
(I3
I8
F-0.75
S'little'
p242
I6
tp243
a(I14
I0
F0.125
S'able'
p244
I6
tp245
as(S'apps'
p246
tp247
(lp248
(I16
I20
F-0.125
S'slow'
p249
I0
tp250
a(I16
I44
I0
S'useful'
p251
I0
tp252
a(I21
I75
F-0.375
S'small'
p253
I0
tp254
a(I33
I44
F-0.375
S'small'
p255
I0
tp256
a(I33
I45
F-0.375
S'small'
p257
I0
tp258
as(S'amazon'
p259
tp260
(lp261
(I14
I40
I0
S'such'
p262
I13
tp263
a(I21
I86
F0.5
S'possible'
p264
I13
tp265
a(I41
I0
F0.125
S'last'
p266
I13
tp267
a(I41
I0
I0
S'great'
p268
I13
tp269
as.