(dp0
(S'problem'
p1
tp2
(lp3
(I132
I3
F-0.625
S'other'
p4
tp5
a(I137
I1
I0
S'big'
p6
tp7
a(I137
I1
F0.125
S'first'
p8
tp9
a(I138
I0
I0
S'same'
p10
tp11
a(I152
I0
F-0.375
S'small'
p12
tp13
a(I187
I0
I0
S'only'
p14
tp15
a(I188
I0
F1.0
S'best'
p16
tp17
a(I209
I1
I0
S'only'
p18
tp19
a(I220
I10
F0.125
S'outside'
p20
tp21
as(S'perfect'
p22
tp23
(lp24
(I33
I3
F-0.125
S'overall'
p25
tp26
as(S'battery'
p27
S'life'
p28
tp29
(lp30
(I51
I4
F1.0
S'good'
p31
tp32
a(I162
I1
F1.0
S'better'
p33
tp34
as(S'purchase'
p35
tp36
(lp37
(I77
I4
F-0.625
S'bad'
p38
tp39
as(S'came'
p40
tp41
(lp42
(I98
I0
I0
S'french'
p43
tp44
a(I145
I1
F-0.125
S'mine'
p45
tp46
a(I145
I1
I0
S'android'
p47
tp48
as(S'card'
p49
tp50
(lp51
(I129
I11
F-0.5
S'regular'
p52
tp53
a(I133
I1
F-0.75
S'uneasy'
p54
tp55
as(S'bought'
p56
tp57
(lp58
(I161
I0
F-0.125
S'mine'
p59
tp60
as(S'screen'
p61
tp62
(lp63
(I3
I2
F0.375
S'much'
p64
tp65
a(I3
I2
F-0.5
S'heavy'
p66
tp67
a(I5
I1
F1.0
S'best'
p68
tp69
a(I34
I0
I0
S'big'
p70
tp71
a(I60
I3
F0.75
S'beautiful'
p72
tp73
a(I60
I6
I0
S'big'
p74
tp75
a(I67
I0
F0.875
S'nice'
p76
tp77
a(I72
I4
F0.125
S'usual'
p78
tp79
a(I87
I2
F-0.75
S'damaged'
p80
tp81
a(I98
I0
F0.5
S'touch'
p82
tp83
a(I107
I1
I0
S'big'
p84
tp85
a(I113
I1
F-0.75
S'bright'
p86
tp87
a(I118
I3
F1.0
S'best'
p88
tp89
a(I162
I0
F-0.75
S'bright'
p90
tp91
a(I162
I0
F0.5
S'clear'
p92
tp93
a(I177
I2
F0.125
S'colourful'
p94
tp95
a(I177
I2
F-0.75
S'bright'
p96
tp97
a(I179
I0
I0
S'big'
p98
tp99
a(I184
I0
F-0.25
S'thin'
p100
tp101
a(I184
I0
F-0.625
S'light'
p102
tp103
as(S'everything'
p104
tp105
(lp106
(I118
I4
I0
S'fast'
p107
tp108
a(I173
I0
F0.625
S'perfect'
p109
tp110
a(I179
I4
F0.625
S'perfect'
p111
tp112
as(S'samsung'
p113
tp114
(lp115
(I23
I0
F0.125
S'last'
p116
tp117
a(I65
I0
F0.375
S'much'
p118
tp119
a(I65
I0
F-0.125
S'blackberry'
p120
tp121
a(I72
I4
F0.375
S'new'
p122
tp123
a(I157
I0
F0.125
S'first'
p124
tp125
a(I157
I0
F0.125
S'last'
p126
tp127
a(I218
I0
F0.375
S'new'
p128
tp129
as(S'galaxy'
p130
S's4'
p131
tp132
(lp133
(I32
I4
I0
S'galaxy'
p134
tp135
a(I75
I0
F-0.875
S'worst'
p136
tp137
a(I75
I0
F-0.5
S'less'
p138
tp139
a(I92
I0
F0.625
S'easy'
p140
tp141
a(I110
I14
F-0.5
S'international'
p142
tp143
a(I110
I38
I0
S'close'
p144
tp145
a(I116
I1
I0
S'galaxy'
p146
tp147
a(I121
I2
F1.0
S'best'
p148
tp149
as(S'nternational'
p150
S'version'
p151
tp152
(lp153
(I10
I0
F-0.5
S'international'
p154
tp155
a(I10
I0
F1.0
S'good'
p156
tp157
a(I10
I0
F0.75
S'due'
p158
tp159
a(I80
I0
F-0.5
S'international'
p160
tp161
a(I84
I6
F-0.5
S'international'
p162
tp163
as(S'camera'
p164
tp165
(lp166
(I13
I2
F1.0
S'best'
p167
tp168
a(I15
I1
F0.875
S'nice'
p169
tp170
a(I32
I1
I0
S'great'
p171
tp172
a(I32
I2
F-0.5
S'regular'
p173
tp174
a(I43
I0
I0
S'great'
p175
tp176
a(I152
I0
F1.0
S'good'
p177
tp178
a(I155
I2
F0.875
S'nice'
p179
tp180
a(I165
I2
F1.0
S'best'
p181
tp182
as(S'version'
p183
tp184
(lp185
(I10
I0
F-0.5
g154
tp186
a(I10
I0
F1.0
g156
tp187
a(I10
I0
F0.75
g158
tp188
a(I80
I0
F-0.5
g160
tp189
a(I84
I6
F-0.5
g162
tp190
a(I125
I0
I0
S'european'
p191
tp192
a(I125
I1
F0.625
S'perfect'
p193
tp194
a(I139
I0
I0
S'european'
p195
tp196
as(S'quality'
p197
tp198
(lp199
(I5
I2
F1.0
S'best'
p200
tp201
a(I24
I3
F-0.5
S'poor'
p202
tp203
a(I85
I3
F1.0
S'best'
p204
tp205
a(I103
I3
F-0.625
S'bad'
p206
tp207
a(I142
I0
F1.0
S'good'
p208
tp209
a(I160
I11
I0
S'basic'
p210
tp211
a(I164
I0
F-0.5
S'poor'
p212
tp213
a(I188
I0
F-0.5
S'poor'
p214
tp215
a(I188
I0
F-0.5
S'poor'
p216
tp217
as(S'recommend'
p218
tp219
(lp220
(I66
I0
I0
S'many'
p221
tp222
as(S'product'
p223
tp224
(lp225
(I0
I1
I0
S'great'
p226
tp227
a(I13
I0
I0
S'great'
p228
tp229
a(I41
I0
F0.5
S'told'
p230
tp231
a(I52
I4
I0
S'great'
p232
tp233
a(I76
I0
I0
S'cellular'
p234
tp235
a(I160
I11
I0
S'electronic'
p236
tp237
a(I165
I0
I0
S'great'
p238
tp239
a(I184
I1
F0.75
S'due'
p240
tp241
a(I184
I1
I0
S'very'
p242
tp243
a(I184
I1
F-0.25
S'thin'
p244
tp245
a(I215
I0
F0.875
S'happy'
p246
tp247
as(S'galaxy'
p248
tp249
(lp250
(I75
I0
F-0.875
g136
tp251
a(I207
I0
F0.125
S'first'
p252
tp253
as(S'excellent'
p254
S'product'
p255
tp256
(lp257
(I76
I0
I0
g234
tp258
as(S'features'
p259
tp260
(lp261
(I17
I1
I0
S'useful'
p262
tp263
a(I24
I3
F0.875
S'nice'
p264
tp265
a(I84
I5
I0
S'great'
p266
tp267
a(I155
I0
I0
S'useful'
p268
tp269
a(I155
I2
F-0.375
S'smooth'
p270
tp271
a(I197
I0
I0
S'many'
p272
tp273
as(S'lte'
p274
S'networks'
p275
tp276
(lp277
(I37
I0
F0.5
S'compatible'
p278
tp279
as(S'work'
p280
tp281
(lp282
(I76
I0
F1.0
S'good'
p283
tp284
a(I76
I0
F-0.625
S'light'
p285
tp286
as(S'factory'
p287
tp288
(lp289
(I26
I0
F-0.375
S'black'
p290
tp291
a(I124
I0
F-0.375
S'black'
p292
tp293
a(I124
I0
F-0.5
S'international'
p294
tp295
a(I185
I0
F-0.375
S'black'
p296
tp297
a(I198
I0
F-0.5
S'international'
p298
tp299
as(S'android'
p300
tp301
(lp302
(I98
I0
F1.0
S'good'
p303
tp304
a(I98
I0
I0
S'general'
p305
tp306
as(S'works'
p307
tp308
(lp309
(I12
I0
F-0.5
S'international'
p310
tp311
a(I24
I2
I0
S'great'
p312
tp313
a(I55
I2
I0
S'great'
p314
tp315
a(I79
I0
I0
S'great'
p316
tp317
a(I97
I0
I0
S'great'
p318
tp319
a(I140
I0
F1.0
S'love'
p320
tp321
a(I158
I1
F1.0
S'good'
p322
tp323
as(S'display'
p324
tp325
(lp326
(I103
I4
I0
S'big'
p327
tp328
as(S'battery'
p329
tp330
(lp331
(I47
I0
F0.625
S'perfect'
p332
tp333
a(I106
I1
F0.375
S'new'
p334
tp335
a(I109
I0
I0
S'fourth'
p336
tp337
a(I109
I0
F0.125
S'fat'
p338
tp339
a(I157
I3
F0.625
S'changeable'
p340
tp341
a(I164
I0
F0.125
S'able'
p342
tp343
a(I203
I5
F0.625
S'removable'
p344
tp345
as(S'samsung'
p346
S'galaxy'
p347
tp348
(lp349
(I65
I0
F0.375
g118
tp350
a(I65
I0
F-0.125
g120
tp351
a(I218
I0
F0.375
g128
tp352
as(S'cell'
p353
tp354
(lp355
(I33
I0
F-0.625
S'bad'
p356
tp357
a(I144
I0
F1.0
S'best'
p358
tp359
as(S'language'
p360
tp361
(lp362
(I19
I0
I0
S'asian'
p363
tp364
a(I47
I0
I0
S'english'
p365
tp366
a(I76
I0
I0
S'spanish'
p367
tp368
a(I86
I0
I0
S'chinese'
p369
tp370
a(I137
I3
F-0.5
S'international'
p371
tp372
a(I137
I3
I0
S'spanish'
p373
tp374
a(I210
I1
I0
S'french'
p375
tp376
a(I210
I1
I0
S'spanish'
p377
tp378
as(S'thing'
p379
tp380
(lp381
(I22
I1
I0
S'same'
p382
tp383
a(I111
I0
I0
S'only'
p384
tp385
a(I129
I11
F-0.625
S'other'
p386
tp387
a(I157
I3
F1.0
S'best'
p388
tp389
a(I177
I11
I0
S'next'
p390
tp391
a(I177
I11
I0
S'big'
p392
tp393
a(I179
I3
I0
S'useful'
p394
tp395
a(I179
I3
F0.625
S'easy'
p396
tp397
a(I203
I5
F-0.625
S'bad'
p398
tp399
as(S'sim'
p400
S'card'
p401
tp402
(lp403
(I129
I11
F-0.5
g52
tp404
a(I133
I1
F-0.75
g54
tp405
a(I133
I1
F0.125
S'able'
p406
tp407
a(I151
I0
F0.375
S'similar'
p408
tp409
a(I151
I0
F0.375
S'new'
p410
tp411
a(I151
I0
F0.375
S'new'
p412
tp413
a(I151
I4
I0
S'same'
p414
tp415
as(S'carrier'
p416
tp417
(lp418
(I110
I10
F-0.625
S'other'
p419
tp420
a(I110
I19
F0.5
S'compatible'
p421
tp422
a(I110
I19
I0
S'latest'
p423
tp424
a(I213
I0
I0
S'basic'
p425
tp426
as(S'samsung'
p427
S'galaxy'
p428
S's4'
p429
tp430
(lp431
(I65
I0
F0.375
g118
tp432
a(I65
I0
F-0.125
g120
tp433
a(I92
I0
F0.625
g140
tp434
a(I110
I14
F-0.5
g142
tp435
a(I110
I38
I0
g144
tp436
a(I121
I2
F1.0
g148
tp437
as(S'time'
p438
tp439
(lp440
(I84
I0
F0.5
S'reasonable'
p441
tp442
a(I98
I0
F-0.875
S'hard'
p443
tp444
a(I120
I0
I0
S'third'
p445
tp446
a(I146
I1
F-0.625
S'glad'
p447
tp448
a(I188
I0
I0
S'more'
p449
tp450
a(I188
I0
I0
S'arrive'
p451
tp452
as(S'networks'
p453
tp454
(lp455
(I55
I2
F0.875
S'happier'
p456
tp457
a(I110
I32
F-0.625
S'other'
p458
tp459
a(I110
I36
F-0.667
S'incompatible'
p460
tp461
a(I110
I37
F-0.625
S'other'
p462
tp463
a(I110
I37
F-0.5
S'international'
p464
tp465
a(I110
I39
F-0.625
S'other'
p466
tp467
as(S'network'
p468
tp469
(lp470
(I72
I4
F0.125
S'protective'
p471
tp472
a(I72
I4
I0
S'plastic'
p473
tp474
a(I72
I4
I0
S'android'
p475
tp476
as(S'charger'
p477
tp478
(lp479
(I184
I2
I0
S'korean'
p480
tp481
a(I184
I2
I0
S'standard'
p482
tp483
as(S'n'
p484
S'usa'
p485
tp486
(lp487
(I1
I0
F0.125
S'outside'
p488
tp489
a(I110
I32
I0
S'many'
p490
tp491
a(I110
I39
I0
S'overseas'
p492
tp493
as(S'months'
p494
tp495
(lp496
(I41
I0
I0
S'few'
p497
tp498
as(S'apps'
p499
tp500
(lp501
(I51
I4
I0
S'fast'
p502
tp503
a(I69
I0
F-0.625
S'light'
p504
tp505
a(I73
I0
I0
S'swiss'
p506
tp507
a(I129
I7
F-0.5
S'sure'
p508
tp509
a(I129
I7
I0
S'unnecessary'
p510
tp511
a(I170
I4
I0
S'latest'
p512
tp513
a(I170
I4
I0
S'useful'
p514
tp515
a(I177
I6
F-0.5
S'separate'
p516
tp517
a(I216
I0
I0
S'great'
p518
tp519
as(S'fast'
p520
tp521
(lp522
(I129
I1
F-0.125
S'super'
p523
tp524
a(I162
I0
F-0.125
S'super'
p525
tp526
a(I177
I9
I0
S'very'
p527
tp528
as.