(dp0
(S'voice'
p1
S'control'
p2
tp3
(lp4
(I15
I12
F0.875
S'music'
p5
I0
tp6
a(I29
I90
F0.125
S'native'
p7
I0
tp8
a(I6
I5
F1.0
S'good'
p9
I4
tp10
a(I15
I12
F0.875
g5
I4
tp11
a(I24
I51
F0.5
S'clear'
p12
I4
tp13
a(I29
I90
F0.125
g7
I4
tp14
a(I31
I2
I0
S'dial'
p15
I4
tp16
as(S'mobile'
p17
tp18
(lp19
(I34
I64
F0.125
S'last'
p20
I0
tp21
as(S'battery'
p22
S'life'
p23
tp24
(lp25
(I6
I3
F0.625
S'replaceable'
p26
I1
tp27
a(I26
I3
F-0.5
S'poor'
p28
I1
tp29
a(I29
I13
F-0.625
S'bad'
p30
I1
tp31
a(I40
I52
F-0.75
S'short'
p32
I1
tp33
a(I43
I5
F1.0
S'good'
p34
I1
tp35
a(I43
I5
F1.0
S'best'
p36
I1
tp37
a(I43
I20
I0
S'great'
p38
I1
tp39
a(I47
I21
I0
S'such'
p40
I1
tp41
a(I47
I21
F-0.625
S'bad'
p42
I1
tp43
a(I25
I29
I0
S'real'
p44
I19
tp45
a(I25
I30
F0.5
S'personal'
p46
I19
tp47
a(I26
I3
F-0.5
g28
I19
tp48
a(I29
I13
F-0.625
g30
I19
tp49
a(I40
I52
F-0.75
g32
I19
tp50
a(I43
I5
F1.0
g34
I19
tp51
a(I43
I5
F1.0
g36
I19
tp52
a(I6
I3
F0.625
g26
I15
tp53
a(I6
I135
F0.125
S'first'
p54
I15
tp55
a(I6
I135
I0
S'great'
p56
I15
tp57
a(I12
I20
F0.5
S'second'
p58
I15
tp59
a(I43
I20
I0
g38
I15
tp60
a(I47
I19
I0
S'least'
p61
I15
tp62
a(I47
I21
I0
g40
I15
tp63
a(I47
I21
F-0.625
g42
I15
tp64
as(S'email'
p65
tp66
(lp67
(I0
I1
F-0.625
S'secure'
p68
I5
tp69
a(I6
I101
F0.125
S'able'
p70
I5
tp71
a(I26
I21
F1.0
S'best'
p72
I5
tp73
a(I36
I20
F1.0
S'best'
p74
I5
tp75
a(I39
I17
F0.625
S'major'
p76
I5
tp77
as(S'lack'
p78
S'of'
p79
S'apps'
p80
tp81
(lp82
(I12
I119
I0
S'old'
p83
I0
tp84
a(I39
I3
F-0.625
S'other'
p85
I0
tp86
a(I39
I8
I0
S'most'
p87
I0
tp88
a(I41
I6
F0.375
S'new'
p89
I0
tp90
a(I2
I30
F1.0
S'better'
p91
I0
tp92
a(I6
I64
F1.0
S'good'
p93
I0
tp94
a(I6
I64
F1.0
S'good'
p95
I0
tp96
a(I6
I113
I0
S'many'
p97
I0
tp98
a(I6
I182
F-0.625
S'other'
p99
I0
tp100
a(I6
I182
I0
S'such'
p101
I0
tp102
a(I6
I200
F0.5
S'personal'
p103
I0
tp104
a(I7
I20
I0
S'many'
p105
I0
tp106
a(I9
I4
I0
S'few'
p107
I0
tp108
a(I9
I9
I0
S'many'
p109
I0
tp110
a(I12
I119
I0
g83
I0
tp111
a(I12
I179
I0
S'more'
p112
I0
tp113
a(I14
I3
I0
S'android'
p114
I0
tp115
a(I14
I3
F0.375
S'available'
p116
I0
tp117
a(I22
I30
I0
S'android'
p118
I0
tp119
a(I23
I9
I0
S'great'
p120
I0
tp121
a(I24
I36
I0
S'many'
p122
I0
tp123
a(I24
I36
F0.375
S'available'
p124
I0
tp125
a(I24
I37
F0.375
S'appreciated'
p126
I0
tp127
a(I26
I93
I0
S'many'
p128
I0
tp129
a(I26
I93
I0
S'useful'
p130
I0
tp131
a(I26
I93
F0.375
S'available'
p132
I0
tp133
a(I29
I19
F-0.25
S'google'
p134
I0
tp135
a(I29
I73
I0
S'same'
p136
I0
tp137
a(I37
I4
I0
S'big'
p138
I0
tp139
a(I39
I3
F-0.625
g85
I0
tp140
a(I39
I8
I0
g87
I0
tp141
a(I39
I16
I0
S'latest'
p142
I0
tp143
a(I40
I52
F0.75
S'due'
p144
I0
tp145
a(I40
I52
I0
S'many'
p146
I0
tp147
a(I41
I6
F0.375
g89
I0
tp148
a(I45
I6
F-0.625
S'other'
p149
I0
tp150
a(I45
I6
F0.375
S'available'
p151
I0
tp152
a(I47
I32
I0
S'few'
p153
I0
tp154
as(S'a'
p155
S'3rd'
p156
S'party'
p157
tp158
(lp159
(I12
I20
I0
S'opt'
p160
I0
tp161
a(I12
I20
I0
S'high'
p162
I0
tp163
a(I12
I103
I0
S'great'
p164
I0
tp165
a(I12
I20
I0
g160
I0
tp166
a(I12
I20
I0
g162
I0
tp167
a(I12
I103
I0
g164
I0
tp168
as(S'pattern'
p169
S'lock'
p170
tp171
(lp172
(I12
I96
F0.625
S'easy'
p173
I0
tp174
as(S'bb'
p175
S'q10'
p176
tp177
(lp178
(I0
I3
F0.375
S'new'
p179
I0
tp180
a(I6
I88
F1.0
S'best'
p181
I0
tp182
a(I24
I87
I0
S'current'
p183
I0
tp184
a(I25
I11
F0.875
S'happy'
p185
I0
tp186
a(I25
I38
I0
S'old'
p187
I0
tp188
a(I39
I43
F0.375
S'new'
p189
I0
tp190
a(I39
I43
I0
S'old'
p191
I0
tp192
as(S'speed'
p193
S'dial'
p194
tp195
(lp196
(I12
I108
F0.125
S'key'
p197
I0
tp198
a(I29
I66
F0.5
S'touch'
p199
I0
tp200
a(I29
I74
F0.5
S'touch'
p201
I0
tp202
a(I34
I23
I0
S'dial'
p203
I0
tp204
a(I47
I51
I0
S'dial'
p205
I0
tp206
a(I47
I51
F-0.125
S'slow'
p207
I0
tp208
a(I47
I51
I0
S'dial'
p209
I0
tp210
a(I12
I108
F0.125
g197
I9
tp211
a(I29
I66
F0.5
g199
I9
tp212
a(I29
I74
F0.5
g201
I9
tp213
a(I34
I23
I0
g203
I9
tp214
a(I47
I51
I0
g205
I9
tp215
a(I47
I51
F-0.125
g207
I9
tp216
a(I47
I51
I0
g209
I9
tp217
as(S'call'
p218
S'quality'
p219
tp220
(lp221
(I6
I4
F0.5
S'strong'
p222
I0
tp223
a(I6
I4
I0
S'sturdy'
p224
I0
tp225
a(I6
I5
I0
S'same'
p226
I0
tp227
a(I40
I28
I0
S'high'
p228
I0
tp229
as(S'go'
p230
S'back'
p231
tp232
(lp233
(I12
I131
I0
S'forth'
p234
I5
tp235
as(S'camera'
p236
tp237
(lp238
(I24
I19
F-0.625
S'average'
p239
I1
tp240
a(I25
I3
I0
S'great'
p241
I1
tp242
as(S'qwerty'
p243
S'keyboard'
p244
tp245
(lp246
(I4
I1
F1.0
S'best'
p247
I0
tp248
a(I4
I1
I0
S'physical'
p249
I0
tp250
a(I25
I1
I0
S'physical'
p251
I0
tp252
a(I26
I85
I0
S'physical'
p253
I0
tp254
a(I34
I29
I0
S'dial'
p255
I0
tp256
as(S'calendar'
p257
tp258
(lp259
(I25
I24
F-0.875
S'harder'
p260
I2
tp261
a(I25
I25
F-0.625
S'want'
p262
I2
tp263
a(I47
I57
F-0.125
S'slow'
p264
I2
tp265
as(S'iphone'
p266
tp267
(lp268
(I6
I186
F0.5
S'personal'
p269
I1
tp270
a(I12
I10
F0.25
S'original'
p271
I1
tp272
a(I24
I35
I0
S'current'
p273
I1
tp274
a(I24
I55
I0
S'android'
p275
I1
tp276
a(I29
I13
F0.375
S'new'
p277
I1
tp278
a(I29
I13
F0.5
S'expensive'
p279
I1
tp280
a(I29
I31
I-100
S'speed.-everything'
p281
I1
tp282
a(I29
I55
I0
S'identical'
p283
I1
tp284
a(I29
I77
I0
S'faster'
p285
I1
tp286
a(I32
I0
I0
S'android'
p287
I1
tp288
a(I36
I19
I0
S'many'
p289
I1
tp290
a(I39
I51
F1.0
S'good'
p291
I1
tp292
as(S'old'
p293
S'bb'
p294
tp295
(lp296
(I2
I3
I0
S'old'
p297
I0
tp298
a(I6
I5
I0
S'older'
p299
I0
tp300
a(I6
I5
I0
S'older'
p301
I0
tp302
a(I12
I64
I0
S'old'
p303
I0
tp304
a(I25
I11
F0.875
g185
I0
tp305
a(I25
I38
I0
g187
I0
tp306
a(I37
I6
I0
S'old'
p307
I0
tp308
a(I39
I43
F0.375
g189
I0
tp309
a(I39
I43
I0
g191
I0
tp310
a(I43
I17
F0.625
S'superior'
p311
I0
tp312
a(I43
I17
I0
S'old'
p313
I0
tp314
as(S'typing'
p315
tp316
(lp317
(I6
I4
I0
S'faster'
p318
I3
tp319
a(I29
I56
F0.375
S'much'
p320
I3
tp321
as(g155
S'physical'
p322
S'keyboard'
p323
tp324
(lp325
(I12
I5
I0
S'physical'
p326
I0
tp327
a(I12
I108
I0
S'physical'
p328
I0
tp329
a(I12
I201
I0
S'physical'
p330
I0
tp331
a(I12
I201
F0.5
S'accurate'
p332
I0
tp333
a(I12
I206
I0
S'physical'
p334
I0
tp335
a(I12
I206
I0
S'slim'
p336
I0
tp337
a(I12
I206
F0.875
S'happy'
p338
I0
tp339
a(I20
I3
I0
S'physical'
p340
I0
tp341
a(I22
I25
I0
S'physical'
p342
I0
tp343
a(I25
I11
I0
S'physical'
p344
I0
tp345
a(I25
I11
F0.125
S'essential'
p346
I0
tp347
a(I29
I73
I0
S'physical'
p348
I0
tp349
a(I29
I78
I0
S'physical'
p350
I0
tp351
a(I31
I18
F-0.5
S'sure'
p352
I0
tp353
a(I31
I18
I0
S'physical'
p354
I0
tp355
a(I31
I24
I0
S'physical'
p356
I0
tp357
a(I31
I28
I0
S'physical'
p358
I0
tp359
a(I37
I5
I0
S'physical'
p360
I0
tp361
a(I37
I5
F1.0
S'best'
p362
I0
tp363
a(I39
I2
I0
S'physical'
p364
I0
tp365
a(I40
I61
I0
S'physical'
p366
I0
tp367
a(I12
I5
I0
g326
I0
tp368
a(I12
I108
I0
g328
I0
tp369
a(I12
I201
I0
g330
I0
tp370
a(I12
I201
F0.5
g332
I0
tp371
a(I12
I206
I0
g334
I0
tp372
a(I12
I206
I0
g336
I0
tp373
a(I12
I206
F0.875
g338
I0
tp374
a(I20
I3
I0
g340
I0
tp375
a(I22
I25
I0
g342
I0
tp376
a(I25
I11
I0
g344
I0
tp377
a(I25
I11
F0.125
g346
I0
tp378
a(I29
I73
I0
g348
I0
tp379
a(I29
I78
I0
g350
I0
tp380
a(I31
I18
F-0.5
g352
I0
tp381
a(I31
I18
I0
g354
I0
tp382
a(I31
I24
I0
g356
I0
tp383
a(I31
I28
I0
g358
I0
tp384
a(I37
I5
I0
g360
I0
tp385
a(I37
I5
F1.0
g362
I0
tp386
a(I39
I2
I0
g364
I0
tp387
a(I40
I61
I0
g366
I0
tp388
a(I3
I6
F0.125
S'essential'
p389
I2
tp390
a(I4
I41
F-0.5
S'less'
p391
I2
tp392
a(I6
I40
F1.0
S'good'
p393
I2
tp394
a(I6
I60
I0
S'many'
p395
I2
tp396
a(I6
I70
F-0.375
S'small'
p397
I2
tp398
a(I7
I15
F-0.75
S'comfortable'
p399
I2
tp400
a(I12
I5
I0
g326
I2
tp401
a(I12
I108
I0
g328
I2
tp402
a(I12
I201
I0
g330
I2
tp403
a(I12
I201
F0.5
g332
I2
tp404
a(I12
I206
I0
g334
I2
tp405
a(I12
I206
I0
g336
I2
tp406
a(I12
I206
F0.875
g338
I2
tp407
a(I14
I3
F1.0
S'best'
p408
I2
tp409
a(I20
I3
I0
g340
I2
tp410
a(I22
I25
I0
g342
I2
tp411
a(I22
I38
F-0.25
S'epic'
p412
I2
tp413
a(I24
I10
F1.0
S'best'
p414
I2
tp415
a(I24
I57
F1.0
S'best'
p416
I2
tp417
a(I25
I11
I0
g344
I2
tp418
a(I25
I11
F0.125
g346
I2
tp419
a(I25
I50
F-0.5
S'actual'
p420
I2
tp421
a(I25
I51
F0.375
S'new'
p422
I2
tp423
a(I26
I2
I0
S'fast'
p424
I2
tp425
a(I26
I93
F0.625
S'easy'
p426
I2
tp427
a(I28
I4
F1.0
S'better'
p428
I2
tp429
a(I29
I15
I0
S'great'
p430
I2
tp431
a(I29
I73
I0
g348
I2
tp432
a(I29
I78
I0
g350
I2
tp433
a(I31
I12
I0
S'great'
p434
I2
tp435
a(I31
I18
F-0.5
g352
I2
tp436
a(I31
I18
I0
g354
I2
tp437
a(I31
I24
I0
g356
I2
tp438
a(I31
I28
I0
g358
I2
tp439
a(I34
I13
F1.0
S'better'
p440
I2
tp441
a(I34
I29
I0
g255
I2
tp442
a(I35
I2
F0.375
S'new'
p443
I2
tp444
a(I35
I2
F1.0
S'best'
p445
I2
tp446
a(I36
I18
F0.875
S'important'
p447
I2
tp448
a(I36
I19
I0
S'add-on'
p449
I2
tp450
a(I37
I5
I0
g360
I2
tp451
a(I37
I5
F1.0
g362
I2
tp452
a(I39
I2
I0
g364
I2
tp453
a(I39
I6
I0
S'such'
p454
I2
tp455
a(I40
I61
I0
g366
I2
tp456
a(I47
I30
F-0.875
S'hard'
p457
I2
tp458
as(S'emails'
p459
tp460
(lp461
(I6
I129
I0
S'faster'
p462
I0
tp463
a(I29
I26
F0.875
S'important'
p464
I0
tp465
as(S'common'
p466
S'sense'
p467
tp468
(lp469
(I12
I52
F1.0
S'good'
p470
I0
tp471
a(I12
I52
I0
S'common'
p472
I0
tp473
a(I26
I65
I0
S'common'
p474
I0
tp475
a(I26
I68
F0.125
S'enough'
p476
I0
tp477
a(I26
I68
I0
S'common'
p478
I0
tp479
as(S'universal'
p480
S'search'
p481
tp482
(lp483
(I12
I64
F0.375
S'extended'
p484
I0
tp485
a(I12
I165
F-0.125
S'universal'
p486
I0
tp487
as(S'music'
p488
S'player'
p489
tp490
(lp491
(I12
I98
F0.875
S'music'
p492
I0
tp493
a(I12
I102
F0.875
S'music'
p494
I0
tp495
a(I39
I21
F-0.625
S'bad'
p496
I0
tp497
as(S'business'
p498
tp499
(lp500
(I12
I205
F-0.625
S'other'
p501
I9
tp502
a(I18
I3
F1.0
S'best'
p503
I9
tp504
a(I26
I7
I0
S'such'
p505
I9
tp506
a(I28
I1
F-0.375
S'daily'
p507
I9
tp508
as(S'bold'
p509
tp510
(lp511
(I12
I68
I0
S'old'
p512
I1
tp513
a(I12
I77
F0.125
S'able'
p514
I1
tp515
a(I12
I77
F-0.5
S'vibrate'
p516
I1
tp517
a(I25
I12
I0
S'only'
p518
I1
tp519
a(I25
I12
F-0.875
S'negative'
p520
I1
tp521
a(I29
I70
I0
S'souped'
p522
I1
tp523
as(S'operating'
p524
S'system'
p525
tp526
(lp527
(I9
I4
F0.375
S'new'
p528
I2
tp529
a(I29
I46
I0
S'latest'
p530
I2
tp531
a(I40
I24
F0.375
S'new'
p532
I2
tp533
a(I43
I3
F0.375
S'new'
p534
I2
tp535
a(I2
I4
F0.625
S'easy'
p536
I12
tp537
a(I24
I81
I0
S'more'
p538
I12
tp539
a(I26
I0
F0.125
S'digital'
p540
I12
tp541
a(I26
I8
I0
S'great'
p542
I12
tp543
a(I26
I81
I0
S'full'
p544
I12
tp545
a(I35
I0
F0.375
S'new'
p546
I12
tp547
as(S'type'
p548
S'and'
p549
S'go'
p550
tp551
(lp552
(I39
I44
F0.25
S'bigger'
p553
I0
tp554
a(I39
I44
F0.625
S'easier'
p555
I0
tp556
as(S'track'
p557
S'pads'
p558
tp559
(lp560
(I29
I104
F0.5
S'second'
p561
I0
tp562
as(S'text'
p563
tp564
(lp565
(I4
I20
F-0.75
S'difficult'
p566
I18
tp567
a(I4
I21
F-0.75
S'wrong'
p568
I18
tp569
a(I4
I21
F-0.75
S'difficult'
p570
I18
tp571
a(I12
I148
F0.375
S'new'
p572
I18
tp573
a(I26
I79
F-0.375
S'top'
p574
I18
tp575
a(I26
I79
I0
S'next'
p576
I18
tp577
a(I26
I79
F0.125
S'last'
p578
I18
tp579
as(S'sim'
p580
S'card'
p581
tp582
(lp583
(I3
I3
F0.375
S'new'
p584
I0
tp585
a(I20
I2
I0
S'local'
p586
I0
tp587
as(S'new'
p588
S'os'
p589
tp590
(lp591
(I4
I38
F0.375
S'new'
p592
I0
tp593
a(I6
I182
F-0.625
S'other'
p594
I0
tp595
a(I12
I0
F0.375
S'new'
p596
I0
tp597
a(I12
I119
F0.375
S'new'
p598
I0
tp599
a(I12
I119
F0.375
S'new'
p600
I0
tp601
a(I12
I119
F0.375
S'new'
p602
I0
tp603
a(I12
I129
F0.375
S'new'
p604
I0
tp605
a(I12
I215
F0.375
S'new'
p606
I0
tp607
a(I17
I26
F0.375
S'new'
p608
I0
tp609
a(I26
I112
F0.375
S'new'
p610
I0
tp611
a(I29
I32
F0.375
S'new'
p612
I0
tp613
a(I29
I41
F0.375
S'new'
p614
I0
tp615
a(I29
I42
F0.375
S'new'
p616
I0
tp617
a(I29
I68
F0.375
S'new'
p618
I0
tp619
a(I41
I6
F0.375
S'new'
p620
I0
tp621
as(S'blackberry'
p622
S'user'
p623
tp624
(lp625
(I4
I42
F-0.25
S'desperate'
p626
I0
tp627
a(I13
I7
F0.5
S'returned'
p628
I0
tp629
a(I26
I54
I0
S'traditional'
p630
I0
tp631
a(I40
I32
I0
S'earlier'
p632
I0
tp633
a(I0
I18
F-0.25
S'google'
p634
I1
tp635
a(I4
I24
F-0.125
S'private'
p636
I1
tp637
a(I4
I27
I0
S'many'
p638
I1
tp639
a(I4
I35
I0
S'realistic'
p640
I1
tp641
a(I4
I39
F0.25
S'financial'
p642
I1
tp643
a(I4
I42
F-0.25
g626
I1
tp644
a(I6
I208
F0.875
S'happy'
p645
I1
tp646
a(I13
I7
F0.5
g628
I1
tp647
a(I22
I22
I0
S'different'
p648
I1
tp649
a(I24
I1
I0
S'old'
p650
I1
tp651
a(I26
I54
I0
g630
I1
tp652
a(I26
I60
F-0.125
S'future'
p653
I1
tp654
a(I26
I86
F0.375
S'confident'
p655
I1
tp656
a(I26
I111
I0
S'old'
p657
I1
tp658
a(I29
I39
F0.625
S'aware'
p659
I1
tp660
a(I35
I0
F0.375
S'new'
p661
I1
tp662
a(I40
I32
I0
g632
I1
tp663
a(I40
I69
F0.375
S'new'
p664
I1
tp665
a(I40
I69
F0.625
S'convenient'
p666
I1
tp667
a(I41
I6
F0.375
S'new'
p668
I1
tp669
a(I43
I3
F-0.75
S'unbranded'
p670
I1
tp671
a(I43
I24
F1.0
S'good'
p672
I1
tp673
a(I45
I1
I0
S'old'
p674
I1
tp675
a(I47
I29
F0.5
S'trustworthy'
p676
I1
tp677
a(I47
I29
F0.25
S'familiar'
p678
I1
tp679
a(I47
I61
F1.0
S'good'
p680
I1
tp681
as(S'verizon'
p682
S'logo'
p683
tp684
(lp685
(I23
I1
I0
S'big'
p686
I0
tp687
a(I23
I1
F0.125
S'fat'
p688
I0
tp689
a(I3
I0
F-0.5
S'poor'
p690
I0
tp691
a(I7
I2
I0
S'old'
p692
I0
tp693
a(I23
I1
I0
g686
I0
tp694
a(I23
I1
F0.125
g688
I0
tp695
as(S'black'
p696
S'berry'
p697
tp698
(lp699
(I0
I16
F-0.375
S'black'
p700
I0
tp701
a(I22
I14
F-0.375
S'black'
p702
I0
tp703
as(S'home'
p704
S'screen'
p705
tp706
(lp707
(I12
I130
I0
S'forth'
p708
I0
tp709
as(S'smartphone'
p710
tp711
(lp712
(I4
I22
F0.375
S'new'
p713
I0
tp714
a(I4
I29
F0.625
S'major'
p715
I0
tp716
a(I4
I38
F0.625
S'major'
p717
I0
tp718
a(I4
I48
F-0.25
S'modern'
p719
I0
tp720
a(I4
I49
F0.125
S'impressive'
p721
I0
tp722
a(I4
I53
F-0.625
S'other'
p723
I0
tp724
a(I25
I2
F1.0
S'best'
p725
I0
tp726
a(I29
I0
F1.0
S'best'
p727
I0
tp728
a(I31
I1
I0
S'most'
p729
I0
tp730
a(I43
I20
F0.25
S'powerful'
p731
I0
tp732
as(S'android'
p733
S'apps'
p734
tp735
(lp736
(I14
I3
I0
g114
I0
tp737
a(I14
I3
F0.375
g116
I0
tp738
a(I22
I30
I0
g118
I0
tp739
a(I39
I8
I0
g87
I0
tp740
as(S'users'
p741
tp742
(lp743
(I6
I27
F0.625
S'find'
p744
I3
tp745
a(I31
I27
I0
S'many'
p746
I3
tp747
as(S'top'
p748
S'notch'
p749
tp750
(lp751
(I12
I8
F-0.375
S'top'
p752
I1
tp753
a(I26
I17
F-0.375
S'top'
p754
I1
tp755
a(I43
I19
F-0.375
S'top'
p756
I1
tp757
as(S'blackberry'
p758
S'q10'
p759
tp760
(lp761
(I4
I24
F-0.125
g636
I0
tp762
a(I4
I35
I0
g640
I0
tp763
a(I15
I5
I0
S'mobile'
p764
I0
tp765
a(I26
I54
F0.5
S'obvious'
p766
I0
tp767
a(I26
I54
I0
g630
I0
tp768
a(I29
I39
F0.625
g659
I0
tp769
a(I29
I46
F0.375
S'new'
p770
I0
tp771
a(I40
I32
I0
g632
I0
tp772
a(I41
I9
F1.0
S'better'
p773
I0
tp774
a(I43
I3
F-0.75
g670
I0
tp775
a(I43
I24
F1.0
g672
I0
tp776
as(S'touch'
p777
S'screen'
p778
tp779
(lp780
(I2
I3
F0.5
S'touch'
p781
I2
tp782
a(I4
I8
F0.5
S'touch'
p783
I2
tp784
a(I6
I4
F0.625
S'pleasant'
p785
I2
tp786
a(I6
I207
F1.0
S'good'
p787
I2
tp788
a(I22
I3
F0.5
S'touch'
p789
I2
tp790
a(I24
I9
F-0.375
S'smaller'
p791
I2
tp792
a(I29
I55
F0.5
S'touch'
p793
I2
tp794
a(I29
I56
F0.5
S'touch'
p795
I2
tp796
a(I29
I66
I0
S'more'
p797
I2
tp798
a(I39
I38
I0
S'sensitive'
p799
I2
tp800
a(I40
I64
F0.5
S'touch'
p801
I2
tp802
a(I40
I68
F-0.5
S'sure'
p803
I2
tp804
a(I40
I68
I0
S'full'
p805
I2
tp806
a(I43
I7
F0.5
S'clear'
p807
I2
tp808
a(I47
I38
F0.5
S'touch'
p809
I2
tp810
a(I47
I46
F0.5
S'touch'
p811
I2
tp812
a(I47
I46
F-0.875
S'hard'
p813
I2
tp814
as.