(dp0
(S'sense'
p1
tp2
(lp3
(I19
I2
I0
S'wish'
p4
I8
tp5
a(I26
I13
F0.375
S'new'
p6
I8
tp7
a(I41
I55
F-0.875
S'worst'
p8
I8
tp9
a(I42
I53
I0
S'different'
p10
I8
tp11
as(S'power'
p12
S'button'
p13
tp14
(lp15
(I30
I23
F-0.375
S'top'
p16
I0
tp17
a(I30
I23
F1.0
S'good'
p18
I0
tp19
a(I38
I136
F0.625
S'kind'
p20
I0
tp21
a(I16
I44
I0
S'weird'
p22
I19
tp23
a(I30
I23
F-0.375
g16
I19
tp24
a(I30
I23
F1.0
g18
I19
tp25
a(I38
I136
F0.625
g20
I19
tp26
as(S'micro'
p27
S'sd'
p28
tp29
(lp30
(I29
I71
F-0.75
S'care'
p31
I0
tp32
as(S'call'
p33
S'quality'
p34
tp35
(lp36
(I29
I10
F1.0
S'good'
p37
I0
tp38
a(I32
I25
F-0.125
S'overall'
p39
I0
tp40
as(S'in'
p41
S'low'
p42
S'light'
p43
tp44
(lp45
(I1
I5
I0
S'great'
p46
I0
tp47
a(I1
I5
F-0.25
S'low'
p48
I0
tp49
a(I12
I77
F0.375
S'much'
p50
I0
tp51
a(I25
I90
F-0.25
S'low'
p52
I0
tp53
a(I26
I11
F-0.25
S'low'
p54
I0
tp55
a(I38
I19
F1.0
S'better'
p56
I0
tp57
a(I38
I19
F-0.25
S'low'
p58
I0
tp59
a(I38
I25
F1.0
S'better'
p60
I0
tp61
a(I38
I25
F-0.25
S'low'
p62
I0
tp63
as(S'quad'
p64
S'core'
p65
tp66
(lp67
(I35
I77
F-0.25
S'past'
p68
I0
tp69
as(S'samsung'
p70
tp71
(lp72
(I14
I2
F0.875
S'happy'
p73
I7
tp74
a(I17
I10
I0
S'such'
p75
I7
tp76
a(I18
I6
F0.375
S'new'
p77
I7
tp78
a(I21
I14
F1.0
S'better'
p79
I7
tp80
a(I30
I29
F-0.125
S'overall'
p81
I7
tp82
a(I41
I52
I0
S'same'
p83
I7
tp84
as(S'camera'
p85
tp86
(lp87
(I0
I19
I0
S'great'
p88
I1
tp89
a(I3
I33
I0
S'great'
p90
I1
tp91
a(I12
I77
F-0.625
S'other'
p92
I1
tp93
a(I14
I4
I0
S'great'
p94
I1
tp95
a(I19
I52
F1.0
S'good'
p96
I1
tp97
a(I21
I14
F1.0
S'best'
p98
I1
tp99
a(I23
I78
I0
S'great'
p100
I1
tp101
a(I24
I44
I0
S'great'
p102
I1
tp103
a(I24
I85
I0
S'few'
p104
I1
tp105
a(I24
I136
F-0.125
S'overall'
p106
I1
tp107
a(I24
I151
F0.125
S'solid'
p108
I1
tp109
a(I24
I153
I0
S'great'
p110
I1
tp111
a(I24
I163
I0
S'great'
p112
I1
tp113
a(I25
I26
F0.875
S'nice'
p114
I1
tp115
a(I25
I50
F0.25
S'main'
p116
I1
tp117
a(I25
I89
F1.0
S'good'
p118
I1
tp119
a(I25
I108
F1.0
S'good'
p120
I1
tp121
a(I28
I0
F-0.25
S'low'
p122
I1
tp123
a(I28
I0
F-0.625
S'light'
p124
I1
tp125
a(I29
I77
F1.0
S'good'
p126
I1
tp127
a(I29
I77
I0
S'great'
p128
I1
tp129
a(I30
I29
F0.625
S'logical'
p130
I1
tp131
a(I30
I29
F1.0
S'better'
p132
I1
tp133
a(I31
I18
F0.625
S'extraordinary'
p134
I1
tp135
a(I31
I18
F0.625
S'easier'
p136
I1
tp137
a(I32
I33
I0
S'wish'
p138
I1
tp139
a(I32
I49
I0
S'great'
p140
I1
tp141
a(I32
I49
F-0.125
S'overall'
p142
I1
tp143
a(I32
I54
F1.0
S'best'
p144
I1
tp145
a(I32
I54
F-0.125
S'overall'
p146
I1
tp147
a(I32
I78
I0
S'great'
p148
I1
tp149
a(I34
I19
F1.0
S'good'
p150
I1
tp151
a(I34
I32
F1.0
S'good'
p152
I1
tp153
a(I34
I71
I0
S'great'
p154
I1
tp155
a(I34
I171
F-0.5
S'heavy'
p156
I1
tp157
a(I34
I294
F1.0
S'good'
p158
I1
tp159
a(I35
I88
I0
S'great'
p160
I1
tp161
a(I38
I171
F1.0
S'best'
p162
I1
tp163
a(I38
I175
I0
S'great'
p164
I1
tp165
a(I38
I175
I0
S'wish'
p166
I1
tp167
a(I38
I177
F1.0
S'good'
p168
I1
tp169
a(I41
I56
F-0.625
S'bad'
p170
I1
tp171
a(I41
I72
F0.5
S'clear'
p172
I1
tp173
a(I42
I65
F-0.625
S'bad'
p174
I1
tp175
a(I43
I4
F1.0
S'good'
p176
I1
tp177
a(I43
I4
F0.75
S'beautiful'
p178
I1
tp179
as(S'college'
p180
S'student'
p181
tp182
(lp183
(I24
I20
F0.75
S'due'
p184
I0
tp185
as(S'home'
p186
S'screen'
p187
tp188
(lp189
(I16
I52
F-0.5
S'actual'
p190
I0
tp191
a(I19
I38
I0
S'different'
p192
I0
tp193
a(I25
I19
F0.25
S'main'
p194
I0
tp195
a(I35
I92
F1.0
S'good'
p196
I0
tp197
a(I41
I96
F0.125
S'key'
p198
I0
tp199
as(S'sprint'
p200
tp201
(lp202
(I11
I16
F-0.625
S'other'
p203
I0
tp204
a(I12
I24
I0
S'deal'
p205
I0
tp206
a(I17
I15
I0
S'local'
p207
I0
tp208
a(I29
I47
F-0.5
S'longer'
p209
I0
tp210
a(I29
I47
F0.125
S'able'
p211
I0
tp212
a(I34
I103
F-0.625
S'free'
p213
I0
tp214
a(I34
I239
F-0.25
S'past'
p215
I0
tp216
a(I38
I183
I0
S'standard'
p217
I0
tp218
a(I38
I262
F0.875
S'happier'
p219
I0
tp220
a(I41
I76
I0
S'wish'
p221
I0
tp222
a(I41
I76
F0.5
S'rid'
p223
I0
tp224
a(I43
I13
I0
S'penny'
p225
I0
tp226
as(S'iphone'
p227
tp228
(lp229
(I4
I4
F0.125
S'distant'
p230
I1
tp231
a(I4
I6
F-0.375
S'smaller'
p232
I1
tp233
a(I4
I6
F-0.375
S'smaller'
p234
I1
tp235
a(I4
I32
I0
S'fast'
p236
I1
tp237
a(I16
I15
F0.375
S'much'
p238
I1
tp239
a(I24
I36
I0
S'same'
p240
I1
tp241
a(I24
I69
F-0.75
S'single'
p242
I1
tp243
a(I24
I136
F1.0
S'good'
p244
I1
tp245
a(I25
I9
F0.25
S'larger'
p246
I1
tp247
a(I25
I150
I0
S'own'
p248
I1
tp249
a(I27
I3
F-0.625
S'glad'
p250
I1
tp251
a(I34
I19
F1.0
S'better'
p252
I1
tp253
a(I34
I80
I0
S'most'
p254
I1
tp255
a(I34
I193
I0
S'perspective'
p256
I1
tp257
a(I35
I3
I0
S'great'
p258
I1
tp259
a(I35
I9
I0
S'faster'
p260
I1
tp261
a(I35
I9
F0.375
S'honest'
p262
I1
tp263
a(I35
I47
F0.375
S'similar'
p264
I1
tp265
a(I38
I18
F-0.5
S'sure'
p266
I1
tp267
a(I38
I264
I0
S'mile'
p268
I1
tp269
a(I41
I31
I0
S'old'
p270
I1
tp271
a(I41
I43
I0
S'same'
p272
I1
tp273
as(S'build'
p274
S'quality'
p275
tp276
(lp277
(I16
I24
I0
S'high'
p278
I2
tp279
as(S'social'
p280
S'media'
p281
tp282
(lp283
(I16
I4
I0
S'social'
p284
I0
tp285
a(I24
I77
I0
S'social'
p286
I0
tp287
a(I34
I101
I0
S'social'
p288
I0
tp289
a(I34
I101
F0.625
S'easy'
p290
I0
tp291
a(I34
I152
I0
S'social'
p292
I0
tp293
a(I35
I93
I0
S'social'
p294
I0
tp295
a(I35
I95
I0
S'social'
p296
I0
tp297
a(I42
I5
I0
S'social'
p298
I0
tp299
a(I42
I55
I0
S'social'
p300
I0
tp301
as(S'operating'
p302
S'system'
p303
tp304
(lp305
(I24
I128
F-0.625
S'clean'
p306
I2
tp307
as(S'beats'
p308
tp309
(lp310
(I24
I17
I0
S'great'
p311
I2
tp312
a(I34
I179
I0
S'integrated'
p313
I2
tp314
as(S'front'
p315
S'facing'
p316
S'speakers'
p317
tp318
(lp319
(I19
I47
F0.5
S'clear'
p320
I0
tp321
a(I25
I107
F0.375
S'loud'
p322
I0
tp323
a(I25
I152
F-0.125
S'front'
p324
I0
tp325
a(I25
I152
F0.5
S'second'
p326
I0
tp327
a(I25
I152
F-0.125
g324
I0
tp328
a(I25
I152
F0.5
g326
I0
tp329
a(I19
I47
F0.5
g320
I0
tp330
a(I25
I107
F0.375
g322
I0
tp331
a(I25
I152
F-0.125
g324
I0
tp332
a(I25
I152
F0.5
g326
I0
tp333
a(I3
I4
I0
S'great'
p334
I2
tp335
a(I10
I19
F0.875
S'nice'
p336
I2
tp337
a(I12
I70
F1.0
S'good'
p338
I2
tp339
a(I18
I1
F1.0
S'best'
p340
I2
tp341
a(I19
I47
F0.5
g320
I2
tp342
a(I23
I83
F0.5
S'clear'
p343
I2
tp344
a(I23
I83
F0.375
S'loud'
p345
I2
tp346
a(I24
I68
I0
S'external'
p347
I2
tp348
a(I24
I132
F0.375
S'extra'
p349
I2
tp350
a(I25
I11
F1.0
S'good'
p351
I2
tp352
a(I25
I13
F0.875
S'music'
p353
I2
tp354
a(I25
I13
I0
S'external'
p355
I2
tp356
a(I25
I99
F1.0
S'best'
p357
I2
tp358
a(I25
I107
F0.375
g322
I2
tp359
a(I30
I29
F0.5
S'satisfied'
p360
I2
tp361
a(I33
I26
F1.0
S'best'
p362
I2
tp363
a(I33
I26
I0
S'external'
p364
I2
tp365
a(I34
I208
F1.0
S'good'
p366
I2
tp367
a(I34
I215
F-0.25
S'matter'
p368
I2
tp369
a(I34
I274
F0.75
S'wonder'
p370
I2
tp371
a(I37
I30
F0.75
S'beautiful'
p372
I2
tp373
a(I39
I6
F0.875
S'nice'
p374
I2
tp375
a(I41
I12
F-0.375
S'top'
p376
I2
tp377
as(S'android'
p378
tp379
(lp380
(I2
I0
F1.0
S'best'
p381
I0
tp382
a(I10
I9
F0.5
S'second'
p383
I0
tp384
a(I10
I27
F0.125
S'last'
p385
I0
tp386
a(I14
I12
I0
S'great'
p387
I0
tp388
a(I16
I55
F1.0
S'best'
p389
I0
tp390
a(I17
I9
F0.125
S'first'
p391
I0
tp392
a(I23
I96
F0.125
S'first'
p393
I0
tp394
a(I24
I78
I0
S'generic'
p395
I0
tp396
a(I24
I157
I0
S'latest'
p397
I0
tp398
a(I25
I23
I0
S'fastest'
p399
I0
tp400
a(I32
I68
I0
S'standard'
p401
I0
tp402
a(I34
I42
I0
S'great'
p403
I0
tp404
a(I34
I163
F1.0
S'best'
p405
I0
tp406
a(I38
I263
F1.0
S'best'
p407
I0
tp408
a(I41
I2
F0.125
S'first'
p409
I0
tp410
as(S'sound'
p411
tp412
(lp413
(I12
I23
I0
S'incredible'
p414
I7
tp415
a(I12
I72
I0
S'rich'
p416
I7
tp417
a(I12
I72
F0.5
S'clear'
p418
I7
tp419
a(I23
I70
F1.0
S'good'
p420
I7
tp421
a(I23
I70
F0.375
S'loud'
p422
I7
tp423
a(I24
I162
F1.0
S'best'
p424
I7
tp425
a(I25
I152
F1.0
S'good'
p426
I7
tp427
a(I28
I1
I0
S'great'
p428
I7
tp429
a(I32
I33
F0.125
S'solid'
p430
I7
tp431
a(I34
I1
F1.0
S'good'
p432
I7
tp433
a(I34
I14
F0.5
S'clear'
p434
I7
tp435
a(I34
I14
F0.5
S'accurate'
p436
I7
tp437
a(I34
I95
F0.625
S'decent'
p438
I7
tp439
a(I34
I129
F-0.625
S'clean'
p440
I7
tp441
a(I34
I253
F1.0
S'best'
p442
I7
tp443
a(I34
I293
I0
S'incredible'
p444
I7
tp445
a(I35
I46
I0
S'great'
p446
I7
tp447
a(I37
I13
I0
S'rich'
p448
I7
tp449
a(I38
I53
I0
S'more'
p450
I7
tp451
a(I38
I53
I0
S'soul'
p452
I7
tp453
a(I38
I56
I0
S'subjective'
p454
I7
tp455
as(S'galaxy'
p456
S's4'
p457
tp458
(lp459
(I39
I5
I0
S'equivalent'
p460
I0
tp461
a(I3
I29
I0
S'old'
p462
I0
tp463
a(I31
I25
I0
S'different'
p464
I0
tp465
as(S'zero'
p466
S'gap'
p467
tp468
(lp469
(I29
I18
F0.75
S'due'
p470
I0
tp471
as(S'color'
p472
S'reproduction'
p473
tp474
(lp475
(I32
I26
I0
S'more'
p476
I0
tp477
a(I32
I26
F0.5
S'accurate'
p478
I0
tp479
a(I38
I32
F1.0
S'better'
p480
I0
tp481
as(S'and'
p482
S'battery'
p483
S'life'
p484
tp485
(lp486
(I5
I1
I0
S'fast'
p487
I1
tp488
a(I5
I1
I0
S'great'
p489
I1
tp490
a(I16
I8
F0.625
S'superior'
p491
I1
tp492
a(I23
I79
I0
S'great'
p493
I1
tp494
a(I24
I52
I0
S'more'
p495
I1
tp496
a(I25
I87
F0.5
S'possible'
p497
I1
tp498
a(I25
I115
F1.0
S'good'
p499
I1
tp500
a(I29
I94
I0
S'great'
p501
I1
tp502
a(I32
I54
F-0.625
S'average'
p503
I1
tp504
a(I32
I54
F-0.5
S'poor'
p505
I1
tp506
a(I32
I76
F-0.75
S'worse'
p507
I1
tp508
a(I39
I13
I0
S'incredible'
p509
I1
tp510
a(I5
I1
I0
g487
I1
tp511
a(I5
I1
I0
g489
I1
tp512
a(I12
I87
F-0.125
S'overall'
p513
I1
tp514
a(I16
I3
F1.0
S'good'
p515
I1
tp516
a(I16
I8
F0.625
g491
I1
tp517
a(I16
I50
F-0.625
S'bad'
p518
I1
tp519
a(I23
I79
I0
g493
I1
tp520
a(I24
I52
I0
g495
I1
tp521
a(I25
I87
F0.5
g497
I1
tp522
a(I25
I115
F1.0
g499
I1
tp523
a(I29
I94
I0
g501
I1
tp524
a(I32
I54
F-0.625
g503
I1
tp525
a(I32
I54
F-0.5
g505
I1
tp526
a(I32
I76
F-0.75
g507
I1
tp527
a(I39
I13
I0
g509
I1
tp528
a(I41
I53
I0
S'great'
p529
I1
tp530
a(I5
I1
I0
g489
I19
tp531
a(I16
I3
F1.0
g515
I19
tp532
a(I16
I8
F0.625
g491
I19
tp533
a(I16
I50
F-0.625
g518
I19
tp534
a(I23
I79
I0
g493
I19
tp535
a(I24
I52
I0
g495
I19
tp536
a(I25
I87
F0.5
g497
I19
tp537
a(I25
I115
F1.0
g499
I19
tp538
a(I29
I94
I0
g501
I19
tp539
a(I30
I18
F1.0
S'better'
p540
I19
tp541
a(I5
I1
I0
g487
I15
tp542
a(I12
I27
F0.625
S'removable'
p543
I15
tp544
a(I12
I51
F0.875
S'happy'
p545
I15
tp546
a(I12
I87
F-0.125
g513
I15
tp547
a(I12
I88
F0.375
S'new'
p548
I15
tp549
a(I12
I88
F0.625
S'removable'
p550
I15
tp551
a(I17
I3
F0.125
S'last'
p552
I15
tp553
a(I17
I3
F-0.5
S'long'
p554
I15
tp555
a(I23
I102
F1.0
S'good'
p556
I15
tp557
a(I25
I63
F0.625
S'removable'
p558
I15
tp559
a(I25
I139
F0.625
S'removable'
p560
I15
tp561
a(I27
I0
F0.625
S'replaceable'
p562
I15
tp563
a(I29
I92
F0.125
S'sealed'
p564
I15
tp565
a(I32
I54
F-0.625
g503
I15
tp566
a(I32
I54
F-0.5
g505
I15
tp567
a(I32
I57
F0.5
S'bought'
p568
I15
tp569
a(I32
I57
I0
S'external'
p570
I15
tp571
a(I32
I76
F-0.75
g507
I15
tp572
a(I33
I16
F0.625
S'replaceable'
p573
I15
tp574
a(I34
I8
I0
S'internal'
p575
I15
tp576
a(I34
I141
F0.625
S'replaceable'
p577
I15
tp578
a(I35
I55
F-0.25
S'lower'
p579
I15
tp580
a(I37
I17
I0
S'great'
p581
I15
tp582
a(I38
I242
F0.25
S'larger'
p583
I15
tp584
a(I39
I13
I0
g509
I15
tp585
a(I41
I53
I0
g529
I15
tp586
as(S'amazon'
p587
tp588
(lp589
(I23
I4
I0
S'most'
p590
I13
tp591
a(I29
I46
F0.125
S'able'
p592
I13
tp593
a(I31
I4
I0
S'faster'
p594
I13
tp595
a(I34
I122
I0
S'great'
p596
I13
tp597
a(I34
I259
I-100
S'curtezy'
p598
I13
tp599
a(I39
I11
F0.5
S'second'
p600
I13
tp601
as(S'cloud'
p602
S'storage'
p603
tp604
(lp605
(I34
I146
F-0.625
S'cloud'
p606
I0
tp607
as(S'data'
p608
tp609
(lp610
(I24
I21
F-0.5
S'less'
p611
I13
tp612
a(I34
I26
F-0.375
S'unacceptable'
p613
I13
tp614
a(I34
I255
F-0.5
S'poor'
p615
I13
tp616
a(I34
I301
F1.0
S'better'
p617
I13
tp618
a(I34
I301
I0
S'mobile'
p619
I13
tp620
as(S'much'
p621
S'better'
p622
tp623
(lp624
(I34
I72
F0.375
S'much'
p625
I9
tp626
a(I35
I6
I0
S'large'
p627
I9
tp628
a(I35
I6
F-0.75
S'bright'
p629
I9
tp630
a(I35
I6
F0.375
S'much'
p631
I9
tp632
a(I38
I14
F0.375
S'much'
p633
I9
tp634
as(S'low'
p635
S'light'
p636
S'performance'
p637
tp638
(lp639
(I1
I5
I0
g46
I0
tp640
a(I1
I5
F-0.25
g48
I0
tp641
a(I26
I11
F-0.25
g54
I0
tp642
a(I26
I11
F0.5
S'second'
p643
I0
tp644
a(I32
I50
F0.75
S'give'
p645
I0
tp646
a(I38
I25
F1.0
g60
I0
tp647
a(I38
I25
F-0.25
g62
I0
tp648
a(I38
I172
I0
S'phenomenal'
p649
I0
tp650
a(I38
I172
F-0.25
S'low'
p651
I0
tp652
a(I1
I5
I0
g46
I0
tp653
a(I1
I5
F-0.25
g48
I0
tp654
a(I12
I77
F0.375
g50
I0
tp655
a(I20
I5
F1.0
S'best'
p656
I0
tp657
a(I20
I5
F-0.75
S'bright'
p658
I0
tp659
a(I24
I44
F-0.25
S'low'
p660
I0
tp661
a(I25
I90
F-0.25
g52
I0
tp662
a(I26
I11
F-0.25
g54
I0
tp663
a(I38
I19
F1.0
g56
I0
tp664
a(I38
I19
F-0.25
g58
I0
tp665
a(I38
I25
F1.0
g60
I0
tp666
a(I38
I25
F-0.25
g62
I0
tp667
a(I38
I172
I0
g649
I0
tp668
a(I38
I172
F-0.25
g651
I0
tp669
a(I25
I14
F1.0
S'good'
p670
I2
tp671
a(I25
I48
F-0.125
S'overall'
p672
I2
tp673
a(I26
I11
F0.5
g643
I2
tp674
a(I32
I50
F0.75
g645
I2
tp675
a(I38
I72
F0.375
S'significant'
p676
I2
tp677
as(S'an'
p678
S'sd'
p679
S'card'
p680
tp681
(lp682
(I16
I49
I0
S'external'
p683
I0
tp684
a(I16
I49
I0
g683
I0
tp685
as(S'blinkfeed'
p686
tp687
(lp688
(I41
I91
F0.5
S'possible'
p689
I0
tp690
a(I42
I5
F0.625
S'add'
p691
I0
tp692
a(I42
I58
F-0.625
S'want'
p693
I0
tp694
as(S'apps'
p695
tp696
(lp697
(I0
I0
F-0.625
S'other'
p698
I0
tp699
a(I7
I8
I0
S'great'
p700
I0
tp701
a(I7
I8
F-0.125
S'overall'
p702
I0
tp703
a(I7
I8
F0.375
S'much'
p704
I0
tp705
a(I16
I3
F0.25
S'powerful'
p706
I0
tp707
a(I25
I24
F-0.5
S'regular'
p708
I0
tp709
a(I34
I86
I0
S'most'
p710
I0
tp711
a(I34
I96
F-0.5
S'open'
p712
I0
tp713
a(I35
I44
F-0.625
S'free'
p714
I0
tp715
a(I35
I83
I0
S'general'
p716
I0
tp717
a(I41
I24
F0.875
S'nice'
p718
I0
tp719
a(I41
I24
I0
S'most'
p720
I0
tp721
a(I41
I68
F-0.625
S'other'
p722
I0
tp723
a(I42
I55
F-0.625
S'other'
p724
I0
tp725
as(S'feels'
p726
tp727
(lp728
(I3
I29
I0
S'same'
p729
I14
tp730
a(I38
I263
I0
S'great'
p731
I14
tp732
as(S'pixels'
p733
tp734
(lp735
(I17
I13
F-0.25
S'lower'
p736
I0
tp737
a(I25
I50
F-0.25
S'higher'
p738
I0
tp739
a(I25
I152
F-0.5
S'less'
p740
I0
tp741
a(I29
I21
F-0.75
S'dead'
p742
I0
tp743
a(I29
I22
F-0.75
S'dead'
p744
I0
tp745
a(I29
I43
F-0.75
S'dead'
p746
I0
tp747
a(I30
I32
I0
S'great'
p748
I0
tp749
a(I32
I49
F0.25
S'bigger'
p750
I0
tp751
a(I32
I49
I0
S'more'
p752
I0
tp753
a(I32
I49
F-0.625
S'light'
p754
I0
tp755
a(I38
I24
F0.25
S'bigger'
p756
I0
tp757
a(I38
I24
I0
S'more'
p758
I0
tp759
a(I38
I77
F-0.375
S'small'
p760
I0
tp761
a(I38
I149
I0
S'many'
p762
I0
tp763
as.