(dp0
(S'something'
p1
tp2
(lp3
(I12
I4
F0.375
S'new'
p4
tp5
a(I28
I0
I0
S'big'
p6
tp7
a(I28
I0
F-0.875
S'hard'
p8
tp9
a(I32
I0
F0.625
S'easy'
p10
tp11
a(I54
I2
F1.0
S'better'
p12
tp13
a(I78
I4
F0.5
S'clear'
p14
tp15
a(I141
I4
F-0.75
S'wrong'
p16
tp17
a(I155
I1
F0.5
S'comparable'
p18
tp19
as(S'perfect'
p20
tp21
(lp22
(I179
I4
F0.75
S'beautiful'
p23
tp24
as(S'battery'
p25
S'life'
p26
tp27
(lp28
(I23
I2
F-0.25
S'low'
p29
tp30
a(I41
I2
F0.625
S'decent'
p31
tp32
a(I56
I8
I0
S'more'
p33
tp34
a(I56
I8
F0.625
S'acceptable'
p35
tp36
a(I62
I1
I0
S'great'
p37
tp38
a(I62
I1
I0
S'faster'
p39
tp40
a(I72
I5
I0
S'great'
p41
tp42
a(I81
I1
F-0.5
S'long'
p43
tp44
a(I81
I1
F-0.5
S'long'
p45
tp46
a(I113
I0
I0
S'great'
p47
tp48
a(I156
I8
I0
S'great'
p49
tp50
a(I168
I3
I0
S'great'
p51
tp52
a(I169
I10
F1.0
S'best'
p53
tp54
as(S'purchase'
p55
tp56
(lp57
(I6
I1
F0.875
S'happy'
p58
tp59
as(S't'
p60
S'super'
p61
S'fast'
p62
tp63
(lp64
(I68
I1
F-0.125
S'super'
p65
tp66
a(I68
I1
F0.625
S'easy'
p67
tp68
a(I83
I1
F-0.125
S'super'
p69
tp70
a(I83
I4
F-0.125
S'super'
p71
tp72
a(I129
I1
F-0.125
S'super'
p73
tp74
a(I129
I1
I0
S'cool'
p75
tp76
as(S'thanks'
p77
tp78
(lp79
(I82
I2
F1.0
S'best'
p80
tp81
a(I163
I3
I0
S'great'
p82
tp83
as(S'screen'
p84
tp85
(lp86
(I9
I5
F0.25
S'bigger'
p87
tp88
a(I9
I5
F-0.5
S'longer'
p89
tp90
a(I9
I5
I0
S'wider'
p91
tp92
a(I9
I7
F0.25
S'bigger'
p93
tp94
a(I24
I1
F0.625
S'easy'
p95
tp96
a(I32
I0
I0
S'big'
p97
tp98
a(I34
I1
F0.5
S'clear'
p99
tp100
a(I34
I1
I0
S'large'
p101
tp102
a(I42
I2
F0.25
S'larger'
p103
tp104
a(I54
I0
I0
S'faster'
p105
tp106
a(I54
I0
F1.0
S'better'
p107
tp108
a(I56
I3
I0
S'great'
p109
tp110
a(I59
I3
F0.25
S'larger'
p111
tp112
a(I61
I0
F0.25
S'bigger'
p113
tp114
a(I77
I19
F0.5
S'second'
p115
tp116
a(I88
I7
F0.75
S'beautiful'
p117
tp118
a(I88
I7
I0
S'quick'
p119
tp120
a(I94
I4
I0
S'big'
p121
tp122
a(I98
I1
I0
S'wide'
p123
tp124
a(I113
I0
F0.875
S'nice'
p125
tp126
a(I127
I1
I0
S'thick'
p127
tp128
a(I130
I0
F0.25
S'larger'
p129
tp130
a(I132
I5
I0
S'big'
p131
tp132
a(I132
I6
I0
S'large'
p133
tp134
a(I132
I6
F0.625
S'convenient'
p135
tp136
a(I144
I2
I0
S'large'
p137
tp138
a(I147
I1
I0
S'big'
p139
tp140
a(I150
I1
F0.625
S'perfect'
p141
tp142
a(I163
I2
F0.25
S'bigger'
p143
tp144
a(I169
I26
F1.0
S'better'
p145
tp146
a(I169
I56
F-0.25
S'epic'
p147
tp148
a(I169
I78
I0
S'large'
p149
tp150
a(I169
I78
I0
S'android'
p151
tp152
a(I176
I1
I0
S'fast'
p153
tp154
as(S'penny'
p155
tp156
(lp157
(I76
I2
F-0.25
S'ready'
p158
tp159
a(I86
I1
F0.75
S'worth'
p160
tp161
a(I117
I0
F1.0
S'best'
p162
tp163
a(I117
I1
F1.0
S'best'
p164
tp165
a(I176
I4
F0.125
S'able'
p166
tp167
as(S'things'
p168
tp169
(lp170
(I16
I0
F0.375
S'new'
p171
tp172
a(I25
I3
F0.625
S'easier'
p173
tp174
a(I26
I2
F0.375
S'new'
p175
tp176
a(I72
I5
I0
S'great'
p177
tp178
a(I77
I7
F0.375
S'new'
p179
tp180
a(I90
I1
I0
S'many'
p181
tp182
a(I100
I0
I0
S'different'
p183
tp184
a(I136
I3
F0.875
S'important'
p185
tp186
a(I151
I4
I0
S'many'
p187
tp188
a(I151
I4
F1.0
S'love'
p189
tp190
a(I169
I11
F-0.875
S'nasty'
p191
tp192
a(I169
I70
I0
S'more'
p193
tp194
a(I169
I70
F0.25
S'consistent'
p195
tp196
as(S'everything'
p197
tp198
(lp199
(I5
I2
F0.625
S'easy'
p200
tp201
a(I168
I4
I0
S'great'
p202
tp203
a(I170
I1
F0.375
S'new'
p204
tp205
as(S'samsung'
p206
tp207
(lp208
(I106
I2
I0
S'great'
p209
tp210
a(I151
I2
I0
S'faithful'
p211
tp212
a(I165
I2
F0.125
S'first'
p213
tp214
as(S'need'
p215
tp216
(lp217
(I169
I78
I0
S'compelling'
p218
tp219
as(S'camera'
p220
tp221
(lp222
(I2
I4
F0.125
S'impressive'
p223
tp224
a(I4
I1
I0
S'great'
p225
tp226
a(I37
I1
F1.0
S'better'
p227
tp228
a(I37
I1
I0
S'faster'
p229
tp230
a(I95
I1
F0.5
S'clear'
p231
tp232
a(I114
I5
F1.0
S'good'
p233
tp234
a(I144
I3
F-0.5
S'long'
p235
tp236
as(S'sprint'
p237
tp238
(lp239
(I29
I2
F-0.75
S'bloat'
p240
tp241
a(I112
I0
I0
S'local'
p242
tp243
as(S'htc'
p244
S'evo'
p245
tp246
(lp247
(I33
I18
I0
S'old'
p248
tp249
as(S'quality'
p250
tp251
(lp252
(I2
I0
F0.125
S'equal'
p253
tp254
a(I72
I2
I0
S'great'
p255
tp256
a(I94
I3
I0
S'great'
p257
tp258
a(I95
I1
I0
S'high'
p259
tp260
as(S'life'
p261
tp262
(lp263
(I23
I2
F-0.25
g29
tp264
a(I56
I8
I0
g33
tp265
a(I56
I8
F0.625
g35
tp266
a(I62
I1
I0
g37
tp267
a(I72
I5
I0
g41
tp268
a(I181
I1
F0.625
S'easier'
p269
tp270
as(S'galaxy'
p271
tp272
(lp273
(I12
I1
F0.875
S'happy'
p274
tp275
a(I36
I0
F0.5
S'second'
p276
tp277
a(I104
I1
F0.375
S'new'
p278
tp279
a(I104
I1
I0
S'mile'
p280
tp281
a(I178
I0
I0
S'older'
p282
tp283
as(S'pictures'
p284
tp285
(lp286
(I2
I1
F1.0
S'good'
p287
tp288
a(I3
I1
I0
S'great'
p289
tp290
a(I9
I2
I0
S'great'
p291
tp292
a(I48
I3
F0.75
S'receive'
p293
tp294
a(I79
I4
F0.625
S'perfect'
p295
tp296
a(I124
I0
I0
S'great'
p297
tp298
a(I156
I2
I0
S'great'
p299
tp300
as(S'features'
p301
tp302
(lp303
(I2
I5
F0.375
S'interesting'
p304
tp305
a(I9
I1
I0
S'many'
p306
tp307
a(I9
I9
I0
S'many'
p308
tp309
a(I18
I2
F0.375
S'available'
p310
tp311
a(I19
I1
I0
S'great'
p312
tp313
a(I25
I1
I0
S'great'
p314
tp315
a(I33
I36
F1.0
S'best'
p316
tp317
a(I33
I42
I0
S'many'
p318
tp319
a(I35
I1
I0
S'great'
p320
tp321
a(I39
I2
F1.0
S'good'
p322
tp323
a(I40
I2
F0.375
S'new'
p324
tp325
a(I41
I1
I0
S'many'
p326
tp327
a(I41
I1
F1.0
S'good'
p328
tp329
a(I42
I2
F0.25
S'helpful'
p330
tp331
a(I43
I1
I0
S'useful'
p332
tp333
a(I45
I0
F-0.25
S'matter'
p334
tp335
a(I51
I2
I0
S'great'
p336
tp337
a(I52
I2
F0.875
S'happy'
p338
tp339
a(I66
I0
I0
S'different'
p340
tp341
a(I70
I1
F0.375
S'new'
p342
tp343
a(I101
I3
F0.625
S'easy'
p344
tp345
a(I101
I3
I0
S'stated'
p346
tp347
as(S'people'
p348
tp349
(lp350
(I33
I33
F-0.625
S'other'
p351
tp352
a(I136
I2
I0
S'many'
p353
tp354
a(I159
I5
I0
S'few'
p355
tp356
as(S'feature'
p357
tp358
(lp359
(I20
I2
I0
S'general'
p360
tp361
a(I33
I25
F0.25
S'familiar'
p362
tp363
a(I33
I27
I0
S'useful'
p364
tp365
as(S'super'
p366
S'fast'
p367
tp368
(lp369
(I68
I1
F-0.125
g65
tp370
a(I68
I1
F0.625
g67
tp371
a(I83
I1
F-0.125
g69
tp372
a(I83
I4
F-0.125
g71
tp373
a(I129
I1
F-0.125
g73
tp374
a(I129
I1
I0
g75
tp375
as(S'android'
p376
tp377
(lp378
(I2
I5
I0
S'great'
p379
tp380
a(I101
I0
F-0.625
S'glad'
p381
tp382
a(I101
I0
F-0.25
S'white'
p383
tp384
a(I182
I1
F0.125
S'solid'
p385
tp386
a(I182
I1
I0
S'stable'
p387
tp388
as(S'galaxy'
p389
S's4'
p390
tp391
(lp392
(I12
I1
F0.875
g274
tp393
a(I115
I0
F-0.625
S'free'
p394
tp395
a(I164
I0
I0
S'great'
p396
tp397
as(S'product'
p398
tp399
(lp400
(I84
I0
I0
S'great'
p401
tp402
a(I94
I1
F0.125
S'popular'
p403
tp404
a(I136
I7
F1.0
S'good'
p405
tp406
a(I177
I0
I0
S'more'
p407
tp408
as(S'options'
p409
tp410
(lp411
(I18
I1
I0
S'sprint'
p412
tp413
a(I33
I22
I0
S'more'
p414
tp415
a(I72
I6
I0
S'many'
p416
tp417
a(I136
I4
F0.5
S'expensive'
p418
tp419
a(I136
I4
F0.5
S'willing'
p420
tp421
as(S'battery'
p422
tp423
(lp424
(I41
I2
F0.625
g31
tp425
a(I51
I0
F0.125
S'last'
p426
tp427
a(I51
I0
F-0.5
S'long'
p428
tp429
a(I62
I1
I0
g39
tp430
a(I81
I1
F-0.5
g43
tp431
a(I81
I1
F-0.5
g45
tp432
a(I113
I0
I0
g47
tp433
a(I132
I1
F1.0
S'better'
p434
tp435
a(I147
I3
I0
S'quick'
p436
tp437
a(I156
I8
I0
g49
tp438
a(I168
I3
I0
g51
tp439
a(I169
I10
F1.0
g53
tp440
as(S'upgrade'
p441
tp442
(lp443
(I119
I0
F1.0
S'good'
p444
tp445
a(I119
I0
F0.875
S'nice'
p446
tp447
a(I124
I1
F0.75
S'due'
p448
tp449
a(I136
I1
F0.5
S'rid'
p450
tp451
a(I156
I1
I0
S'big'
p452
tp453
a(I176
I1
F0.375
S'available'
p454
tp455
as(S'samsung'
p456
S'galaxy'
p457
tp458
(lp459
(I36
I0
F0.5
g276
tp460
a(I165
I2
F0.125
g213
tp461
as(S'better'
p462
tp463
(lp464
(I168
I2
I0
S'more'
p465
tp466
a(I172
I2
F0.375
S'much'
p467
tp468
as(S'never'
p469
tp470
(lp471
(I169
I20
F-0.25
S'epic'
p472
tp473
as(S'charge'
p474
tp475
(lp476
(I169
I57
I0
S'full'
p477
tp478
as(S'device'
p479
tp480
(lp481
(I33
I5
F-0.5
S'sure'
p482
tp483
a(I33
I5
F0.375
S'trim'
p484
tp485
as(S'samsung'
p486
S'galaxy'
p487
S's4'
p488
tp489
(lp490
(I164
I0
I0
g396
tp491
a(I165
I2
F0.125
g213
tp492
as(S'hand'
p493
tp494
(lp495
(I169
I23
F1.0
S'better'
p496
tp497
as(S'mode'
p498
tp499
(lp500
(I71
I0
F0.5
S'whole'
p501
tp502
as(S'price'
p503
tp504
(lp505
(I74
I0
F1.0
S'best'
p506
tp507
a(I88
I9
F-0.25
S'higher'
p508
tp509
a(I100
I1
F0.375
S'available'
p510
tp511
a(I118
I0
I0
S'great'
p512
tp513
a(I165
I2
F1.0
S'best'
p514
tp515
a(I165
I2
F1.0
S'better'
p516
tp517
a(I174
I1
I0
S'great'
p518
tp519
a(I179
I7
I0
S'great'
p520
tp521
as(S'time'
p522
tp523
(lp524
(I33
I13
I0
S'song'
p525
tp526
a(I33
I26
I0
S'same'
p527
tp528
a(I89
I2
F0.125
S'first'
p529
tp530
a(I109
I0
I0
S'more'
p531
tp532
a(I109
I0
I0
S'more'
p533
tp534
a(I109
I0
I0
S'more'
p535
tp536
a(I156
I7
I0
S'same'
p537
tp538
a(I169
I12
F-0.625
S'idle'
p539
tp540
a(I170
I5
F-0.5
S'long'
p541
tp542
as(S'good'
p543
tp544
(lp545
(I2
I5
I0
S'great'
p546
tp547
as(S'light'
p548
tp549
(lp550
(I33
I42
F-0.25
S'low'
p551
tp552
as(S'love'
p553
tp554
(lp555
(I158
I5
F1.0
S'love'
p556
tp557
as(S'size'
p558
tp559
(lp560
(I35
I1
I0
S'large'
p561
tp562
a(I56
I3
F-0.25
S'thin'
p563
tp564
a(I56
I3
F-0.625
S'light'
p565
tp566
a(I83
I2
F-0.625
S'average'
p567
tp568
a(I127
I1
I0
S'big'
p569
tp570
a(I127
I1
F0.875
S'nice'
p571
tp572
a(I163
I2
F0.25
S'larger'
p573
tp574
as(S'much'
p575
S'better'
p576
tp577
(lp578
(I172
I2
F0.375
g467
tp579
as(S'deal'
p580
tp581
(lp582
(I9
I7
I0
S'great'
p583
tp584
a(I63
I3
F1.0
S'better'
p585
tp586
a(I64
I0
F1.0
S'better'
p587
tp588
a(I76
I0
F0.125
S'able'
p589
tp590
a(I76
I0
F1.0
S'better'
p591
tp592
a(I76
I5
I0
S'real'
p593
tp594
a(I163
I1
I0
S'such'
p595
tp596
a(I163
I1
I0
S'great'
p597
tp598
a(I163
I1
I0
S'great'
p599
tp600
as(S'apps'
p601
tp602
(lp603
(I33
I26
F-0.5
S'open'
p604
tp605
a(I50
I1
I0
S'many'
p606
tp607
a(I50
I1
F-0.5
S'open'
p608
tp609
a(I134
I0
F0.375
S'busy'
p610
tp611
a(I169
I15
I0
S'useful'
p612
tp613
a(I169
I74
F-0.5
S'separate'
p614
tp615
as(S'fast'
p616
tp617
(lp618
(I68
I1
F-0.125
g65
tp619
a(I68
I1
F0.625
g67
tp620
a(I83
I1
F-0.125
g69
tp621
a(I83
I4
F-0.125
g71
tp622
a(I129
I1
F-0.125
g73
tp623
a(I129
I1
I0
g75
tp624
as.