(dp0
(S'home'
p1
S'button'
p2
tp3
(lp4
(I16
I126
I0
S'physical'
p5
I0
tp6
as(S'day'
p7
S'to'
p8
S'day'
p9
tp10
(lp11
(I0
I50
F-0.5
S'less'
p12
I1
tp13
a(I1
I195
I0
S'useful'
p14
I1
tp15
a(I2
I73
F0.5
S'whole'
p16
I1
tp17
a(I6
I118
I0
S'full'
p18
I1
tp19
a(I6
I481
I0
S'normal'
p20
I1
tp21
a(I9
I0
I0
S'next'
p22
I1
tp23
a(I12
I141
F0.5
S'second'
p24
I1
tp25
a(I12
I148
I0
S'fourth'
p26
I1
tp27
a(I12
I150
I0
S'fifth'
p28
I1
tp29
a(I14
I15
I0
S'next'
p30
I1
tp31
a(I15
I7
F-0.25
S'intensive'
p32
I1
tp33
a(I16
I5
I0
S'own'
p34
I1
tp35
a(I21
I103
I0
S'close'
p36
I1
tp37
a(I22
I120
F-0.5
S'heavier'
p38
I1
tp39
as(S'headphone'
p40
S'jack'
p41
tp42
(lp43
(I6
I312
F-0.375
S'top'
p44
I0
tp45
a(I6
I315
F-0.375
S'top'
p46
I0
tp47
as(S'sense'
p48
tp49
(lp50
(I6
I97
I0
S'more'
p51
I8
tp52
a(I6
I104
I0
S'rich'
p53
I8
tp54
a(I6
I153
I0
S'minimal'
p55
I8
tp56
a(I10
I22
F0.375
S'much'
p57
I8
tp58
a(I16
I161
F-0.625
S'clean'
p59
I8
tp60
a(I18
I149
I0
S'fast'
p61
I8
tp62
a(I18
I154
F0.625
S'notice'
p63
I8
tp64
a(I21
I136
F0.625
S'easy'
p65
I8
tp66
a(I21
I289
F0.625
S'polish'
p67
I8
tp68
a(I21
I289
F-0.125
S'present'
p69
I8
tp70
a(I21
I309
I0
S'more'
p71
I8
tp72
a(I21
I310
I0
S'more'
p73
I8
tp74
as(S'power'
p75
S'button'
p76
tp77
(lp78
(I6
I383
F-0.75
S'inoperable'
p79
I0
tp80
a(I0
I13
F-0.75
S'little'
p81
I19
tp82
a(I1
I115
F-0.375
S'top'
p83
I19
tp84
a(I1
I115
F0.875
S'nice'
p85
I19
tp86
a(I1
I121
I-100
S"recessed-where-i-can't-get-to-it"
p87
I19
tp88
a(I1
I149
F-0.625
S'conventional'
p89
I19
tp90
a(I6
I74
F-0.625
S'push'
p91
I19
tp92
a(I6
I370
I0
S'second-guess'
p93
I19
tp94
a(I6
I383
F-0.75
g79
I19
tp95
a(I10
I23
I0
S'third'
p96
I19
tp97
a(I11
I131
I-100
S'home/back'
p98
I19
tp99
a(I16
I125
F0.5
S'strong'
p100
I19
tp101
a(I16
I125
I-100
S'man.-the'
p102
I19
tp103
a(I16
I125
I0
S'weird'
p104
I19
tp105
a(I21
I66
I0
S'many'
p106
I19
tp107
a(I21
I399
F-0.375
S'top'
p108
I19
tp109
as(S'menu'
p110
S'button'
p111
tp112
(lp113
(I2
I115
I0
S'large'
p114
I0
tp115
a(I2
I115
I-100
S'hand*missing'
p116
I0
tp117
a(I2
I115
I0
S'capacitive'
p118
I0
tp119
a(I15
I7
I0
S'soft'
p120
I0
tp121
a(I21
I66
I0
g106
I0
tp122
as(S'a'
p123
S'full'
p124
S'day'
p125
tp126
(lp127
(I2
I73
F0.5
g16
I0
tp128
a(I6
I118
I0
g18
I0
tp129
a(I11
I11
I0
S'full'
p130
I0
tp131
a(I12
I112
I0
S'full'
p132
I0
tp133
a(I12
I112
F-0.625
S'moderate'
p134
I0
tp135
a(I12
I139
F0.125
S'first'
p136
I0
tp137
a(I21
I363
I0
S'full'
p138
I0
tp139
a(I22
I7
I0
S'next'
p140
I0
tp141
as(S'in'
p142
S'low'
p143
S'light'
p144
tp145
(lp146
(I2
I111
F0.375
S'allow'
p147
I0
tp148
a(I2
I111
F1.0
S'better'
p149
I0
tp150
a(I2
I111
F-0.25
S'low'
p151
I0
tp152
a(I12
I32
F-0.25
S'low'
p153
I0
tp154
a(I18
I145
F-0.25
S'low'
p155
I0
tp156
as(S'camera'
p157
tp158
(lp159
(I0
I1
F0.5
S'touch'
p160
I1
tp161
a(I0
I1
F1.0
S'good'
p162
I1
tp163
a(I0
I47
F-0.625
S'other'
p164
I1
tp165
a(I0
I47
F-0.375
S'small'
p166
I1
tp167
a(I0
I98
F-0.625
S'average'
p168
I1
tp169
a(I1
I13
F-0.625
S'free'
p170
I1
tp171
a(I1
I268
F-0.75
S'worse'
p172
I1
tp173
a(I2
I7
F1.0
S'best'
p174
I1
tp175
a(I2
I112
F0.375
S'new'
p176
I1
tp177
a(I5
I22
F0.625
S'decent'
p178
I1
tp179
a(I6
I80
I0
S'same'
p180
I1
tp181
a(I6
I92
I0
S'more'
p182
I1
tp183
a(I6
I114
I0
S'more'
p184
I1
tp185
a(I6
I425
F0.375
S'address'
p186
I1
tp187
a(I7
I3
F-0.5
S'flimsy'
p188
I1
tp189
a(I7
I3
F-0.25
S'thin'
p190
I1
tp191
a(I9
I0
F1.0
S'good'
p192
I1
tp193
a(I9
I26
F-0.625
S'bad'
p194
I1
tp195
a(I9
I26
F1.0
S'best'
p196
I1
tp197
a(I9
I74
F1.0
S'good'
p198
I1
tp199
a(I10
I3
I0
S'more'
p200
I1
tp201
a(I10
I13
F0.5
S'advanced'
p202
I1
tp203
a(I10
I17
F-0.125
S'overall'
p204
I1
tp205
a(I11
I163
F0.375
S'much'
p206
I1
tp207
a(I11
I169
F0.125
S'outside'
p208
I1
tp209
a(I11
I206
F1.0
S'good'
p210
I1
tp211
a(I11
I206
F1.0
S'better'
p212
I1
tp213
a(I11
I260
I0
S'more'
p214
I1
tp215
a(I12
I97
I0
S'great'
p216
I1
tp217
a(I12
I116
I0
S'useful'
p218
I1
tp219
a(I12
I117
F-0.125
S'overall'
p220
I1
tp221
a(I12
I117
F-0.5
S'aside'
p222
I1
tp223
a(I13
I33
I-100
S'0front'
p224
I1
tp225
a(I16
I16
I0
S'great'
p226
I1
tp227
a(I16
I39
I0
S'great'
p228
I1
tp229
a(I16
I69
F1.0
S'good'
p230
I1
tp231
a(I16
I82
F1.0
S'better'
p232
I1
tp233
a(I16
I159
I0
S'great'
p234
I1
tp235
a(I18
I72
I0
S'most'
p236
I1
tp237
a(I18
I75
F1.0
S'best'
p238
I1
tp239
a(I18
I79
I0
S'great'
p240
I1
tp241
a(I18
I144
F1.0
S'best'
p242
I1
tp243
a(I19
I40
F0.125
S'able'
p244
I1
tp245
a(I19
I99
F1.0
S'better'
p246
I1
tp247
a(I20
I2
F0.75
S'due'
p248
I1
tp249
a(I21
I34
I0
S'great'
p250
I1
tp251
a(I21
I111
F1.0
S'better'
p252
I1
tp253
a(I21
I125
F0.375
S'new'
p254
I1
tp255
a(I21
I266
I0
S'great'
p256
I1
tp257
a(I21
I370
F0.375
S'new'
p258
I1
tp259
a(I21
I382
F1.0
S'good'
p260
I1
tp261
a(I21
I433
F1.0
S'good'
p262
I1
tp263
a(I21
I433
F-0.25
S'low'
p264
I1
tp265
a(I22
I35
I0
S'great'
p266
I1
tp267
a(I22
I68
F1.0
S'good'
p268
I1
tp269
a(I22
I121
I0
S'great'
p270
I1
tp271
as(S'news'
p272
tp273
(lp274
(I1
I104
I0
S'current'
p275
I2
tp276
a(I6
I36
I0
S'local'
p277
I2
tp278
a(I16
I42
F0.625
S'convenient'
p279
I2
tp280
a(I19
I56
F0.625
S'interested'
p281
I2
tp282
a(I21
I79
I0
S'useful'
p283
I2
tp284
a(I21
I79
I0
S'such'
p285
I2
tp286
a(I21
I134
I0
S'wish'
p287
I2
tp288
a(I21
I134
I0
S'real'
p289
I2
tp290
a(I22
I65
F0.125
S'enough'
p291
I2
tp292
as(S'home'
p293
S'screen'
p294
tp295
(lp296
(I1
I137
I0
S'sensitive'
p297
I0
tp298
a(I2
I22
F0.5
S'whole'
p299
I0
tp300
a(I2
I22
F0.375
S'new'
p301
I0
tp302
a(I6
I433
I0
S'different'
p303
I0
tp304
a(I9
I81
I0
S'different'
p305
I0
tp306
as(S'iphone'
p307
tp308
(lp309
(I1
I127
I0
S'old'
p310
I1
tp311
a(I1
I137
I0
S'very'
p312
I1
tp313
a(I1
I137
I0
S'old'
p314
I1
tp315
a(I1
I142
I0
S'latest'
p316
I1
tp317
a(I1
I250
F0.125
S'first'
p318
I1
tp319
a(I1
I286
I0
S'next'
p320
I1
tp321
a(I2
I51
F-0.75
S'impossible'
p322
I1
tp323
a(I6
I38
F0.625
S'easy'
p324
I1
tp325
a(I6
I62
F-0.5
S'heavier'
p326
I1
tp327
a(I6
I129
F1.0
S'good'
p328
I1
tp329
a(I6
I226
I0
S'old'
p330
I1
tp331
a(I6
I248
I0
S'hybrid'
p332
I1
tp333
a(I6
I255
F0.875
S'happy'
p334
I1
tp335
a(I6
I465
F-0.125
S'opposite'
p336
I1
tp337
a(I7
I0
F0.375
S'meant'
p338
I1
tp339
a(I7
I0
F-0.75
S'short'
p340
I1
tp341
a(I7
I36
I0
S'more'
p342
I1
tp343
a(I9
I35
I0
S'least'
p344
I1
tp345
a(I10
I1
I0
S'competitive'
p346
I1
tp347
a(I11
I184
I0
S'nervous'
p348
I1
tp349
a(I12
I78
I0
S'old'
p350
I1
tp351
a(I16
I29
F-0.125
S'former'
p352
I1
tp353
a(I16
I150
I0
S'large'
p354
I1
tp355
a(I18
I178
F0.375
S'new'
p356
I1
tp357
a(I19
I7
I0
S'stable'
p358
I1
tp359
a(I21
I160
I0
S'old'
p360
I1
tp361
a(I21
I160
I0
S'more'
p362
I1
tp363
a(I21
I179
I0
S'few'
p364
I1
tp365
a(I21
I182
I0
S'very'
p366
I1
tp367
a(I21
I182
F0.125
S'first'
p368
I1
tp369
a(I21
I189
F0.125
S'first'
p370
I1
tp371
a(I21
I213
F-0.375
S'smaller'
p372
I1
tp373
a(I21
I229
F0.75
S'beautiful'
p374
I1
tp375
a(I21
I230
I0
S'old'
p376
I1
tp377
a(I21
I382
F1.0
S'good'
p378
I1
tp379
a(I23
I15
I0
S'fluid'
p380
I1
tp381
as(S'non'
p382
S'removable'
p383
S'battery'
p384
tp385
(lp386
(I16
I102
F0.625
S'removable'
p387
I0
tp388
a(I0
I48
F0.625
S'removable'
p389
I0
tp390
a(I0
I102
I0
S'wish'
p391
I0
tp392
a(I0
I102
F0.625
S'removable'
p393
I0
tp394
a(I1
I21
F0.625
S'removable'
p395
I0
tp396
a(I2
I80
F0.625
S'removable'
p397
I0
tp398
a(I2
I84
F0.625
S'removable'
p399
I0
tp400
a(I9
I36
I0
S'faster'
p401
I0
tp402
a(I9
I36
F0.625
S'removable'
p403
I0
tp404
a(I12
I114
F0.625
S'removable'
p405
I0
tp406
a(I20
I3
F0.625
S'removable'
p407
I0
tp408
a(I21
I340
F0.625
S'removable'
p409
I0
tp410
as(S'form'
p411
S'factor'
p412
tp413
(lp414
(I22
I37
F1.0
S'best'
p415
I1
tp416
as(S'ir'
p417
S'blaster'
p418
tp419
(lp420
(I19
I82
I0
S'cool'
p421
I0
tp422
as(S'build'
p423
S'quality'
p424
tp425
(lp426
(I1
I148
F1.0
S'good'
p427
I2
tp428
a(I2
I7
I0
S'great'
p429
I2
tp430
a(I2
I7
I0
S'plastic'
p431
I2
tp432
a(I2
I82
F1.0
S'better'
p433
I2
tp434
a(I6
I327
I0
S'phenomenal'
p435
I2
tp436
a(I16
I150
I0
S'real'
p437
I2
tp438
as(S'buttery'
p439
S'smooth'
p440
tp441
(lp442
(I6
I179
I0
S'buttery'
p443
I0
tp444
as(S'google'
p445
tp446
(lp447
(I1
I118
I-100
S'5-browsing'
p448
I4
tp449
a(I2
I39
I0
S'more'
p450
I4
tp451
a(I6
I293
F-0.625
S'free'
p452
I4
tp453
a(I10
I41
F0.375
S'new'
p454
I4
tp455
as(S'social'
p456
S'media'
p457
tp458
(lp459
(I0
I49
I0
S'social'
p460
I0
tp461
a(I0
I52
I0
S'social'
p462
I0
tp463
a(I0
I56
I0
S'social'
p464
I0
tp465
a(I1
I203
I0
S'social'
p466
I0
tp467
a(I1
I244
I0
S'social'
p468
I0
tp469
a(I21
I79
I0
S'social'
p470
I0
tp471
as(S'apple'
p472
tp473
(lp474
(I2
I38
F-0.25
S'google'
p475
I4
tp476
a(I2
I50
F0.375
S'much'
p477
I4
tp478
a(I6
I249
I0
S'more'
p479
I4
tp480
a(I16
I138
I0
S'same'
p481
I4
tp482
a(I16
I138
I0
S'old'
p483
I4
tp484
a(I16
I156
F0.625
S'polish'
p485
I4
tp486
a(I21
I113
I0
S'latest'
p487
I4
tp488
a(I22
I42
I0
S'many'
p489
I4
tp490
as(S'htc'
p491
S'one'
p492
S'x'
p493
tp494
(lp495
(I2
I86
F-0.75
S'comfortable'
p496
I0
tp497
a(I10
I47
F0.875
S'nice'
p498
I0
tp499
a(I15
I0
I0
S'own'
p500
I0
tp501
a(I16
I53
F-0.125
S'super'
p502
I0
tp503
a(I21
I123
F-0.875
S'stuck'
p504
I0
tp505
a(I22
I9
F0.5
S'second'
p506
I0
tp507
a(I11
I109
I0
S'many'
p508
I0
tp509
as(S'individual'
p510
S'pixels'
p511
tp512
(lp513
(I11
I111
I0
S'individual'
p514
I0
tp515
a(I21
I147
I0
S'individual'
p516
I0
tp517
a(I21
I215
I0
S'individual'
p518
I0
tp519
as(S'beats'
p520
tp521
(lp522
(I11
I157
F0.5
S'whole'
p523
I2
tp524
a(I11
I247
I0
S'integrated'
p525
I2
tp526
a(I11
I247
F0.25
S'bigger'
p527
I2
tp528
a(I13
I48
F0.375
S'similar'
p529
I2
tp530
as(S'front'
p531
S'facing'
p532
S'speakers'
p533
tp534
(lp535
(I6
I69
I0
S'great'
p536
I0
tp537
a(I11
I107
F-0.125
S'front'
p538
I0
tp539
a(I11
I159
F-0.125
S'front'
p540
I0
tp541
a(I12
I108
I0
S'full'
p542
I0
tp543
a(I16
I112
F0.625
S'decent'
p544
I0
tp545
a(I18
I158
F0.625
S'easy'
p546
I0
tp547
a(I11
I107
F-0.125
g538
I0
tp548
a(I11
I159
F-0.125
g540
I0
tp549
a(I6
I69
I0
g536
I0
tp550
a(I11
I107
F-0.125
g538
I0
tp551
a(I11
I159
F-0.125
g540
I0
tp552
a(I12
I108
I0
g542
I0
tp553
a(I16
I112
F0.625
g544
I0
tp554
a(I18
I158
F0.625
g546
I0
tp555
a(I1
I101
I0
S'incredible'
p556
I2
tp557
a(I1
I193
F-0.125
S'super'
p558
I2
tp559
a(I2
I61
F0.375
S'loudest'
p560
I2
tp561
a(I2
I105
F1.0
S'best'
p562
I2
tp563
a(I2
I106
F-0.625
S'other'
p564
I2
tp565
a(I2
I106
I0
S'mobile'
p566
I2
tp567
a(I2
I106
F0.5
S'comparable'
p568
I2
tp569
a(I6
I69
I0
g536
I2
tp570
a(I6
I202
I0
S'great'
p571
I2
tp572
a(I11
I12
I0
S'external'
p573
I2
tp574
a(I11
I77
I0
S'external'
p575
I2
tp576
a(I11
I158
I0
S'special'
p577
I2
tp578
a(I11
I162
I0
S'such'
p579
I2
tp580
a(I11
I162
F-0.375
S'small'
p581
I2
tp582
a(I11
I258
I0
S'great'
p583
I2
tp584
a(I12
I108
I0
g542
I2
tp585
a(I13
I40
F0.5
S'clear'
p586
I2
tp587
a(I13
I89
I0
S'great'
p588
I2
tp589
a(I16
I3
I0
S'backside'
p590
I2
tp591
a(I16
I112
F0.625
g544
I2
tp592
a(I17
I16
F0.5
S'clear'
p593
I2
tp594
a(I17
I17
F0.875
S'music'
p595
I2
tp596
a(I18
I158
F0.625
g546
I2
tp597
a(I19
I25
I0
S'own'
p598
I2
tp599
a(I21
I48
I0
S'great'
p600
I2
tp601
a(I21
I104
F1.0
S'good'
p602
I2
tp603
a(I21
I222
F-0.375
S'top'
p604
I2
tp605
a(I21
I263
I0
S'great'
p606
I2
tp607
a(I21
I336
I0
S'such'
p608
I2
tp609
a(I22
I125
F1.0
S'good'
p610
I2
tp611
as(S'need'
p612
S'to'
p613
S'use'
p614
tp615
(lp616
(I6
I118
F-0.5
S'heavy'
p617
I1
tp618
as(S'galaxy'
p619
S's4'
p620
tp621
(lp622
(I6
I149
F-0.375
S'smaller'
p623
I0
tp624
a(I17
I28
F-0.75
S'brighter'
p625
I0
tp626
a(I18
I5
I0
S'indicated'
p627
I0
tp628
a(I1
I68
F0.25
S'original'
p629
I0
tp630
a(I1
I68
F0.375
S'new'
p631
I0
tp632
a(I1
I304
F0.625
S'removable'
p633
I0
tp634
a(I6
I149
F-0.375
g623
I0
tp635
a(I17
I28
F-0.75
g625
I0
tp636
a(I18
I5
I0
g627
I0
tp637
a(I19
I11
I0
S'old'
p638
I0
tp639
as(S'learning'
p640
S'curve'
p641
tp642
(lp643
(I1
I126
F0.625
S'easy'
p644
I2
tp645
a(I1
I126
I0
S'minimal'
p646
I2
tp647
a(I20
I1
F0.375
S'steep'
p648
I2
tp649
as(S'and'
p650
S'battery'
p651
S'life'
p652
tp653
(lp654
(I0
I48
F0.625
g389
I1
tp655
a(I6
I204
F1.0
S'good'
p656
I1
tp657
a(I6
I454
I0
S'great'
p658
I1
tp659
a(I10
I57
I0
S'great'
p660
I1
tp661
a(I11
I268
F1.0
S'good'
p662
I1
tp663
a(I13
I85
F-0.5
S'poor'
p664
I1
tp665
a(I23
I21
F1.0
S'good'
p666
I1
tp667
as(S'stock'
p668
S'android'
p669
tp670
(lp671
(I22
I54
I0
S'close'
p672
I0
tp673
a(I0
I74
F-0.5
S'sure'
p674
I0
tp675
a(I0
I94
I0
S'traditional'
p676
I0
tp677
a(I1
I39
I0
S'great'
p678
I0
tp679
a(I1
I82
F0.125
S'first'
p680
I0
tp681
a(I1
I124
I0
S'most'
p682
I0
tp683
a(I1
I297
I0
S'standard'
p684
I0
tp685
a(I2
I102
F1.0
S'best'
p686
I0
tp687
a(I2
I103
F-0.625
S'other'
p688
I0
tp689
a(I6
I44
I0
S'latest'
p690
I0
tp691
a(I6
I180
F-0.625
S'other'
p692
I0
tp693
a(I6
I271
F0.375
S'available'
p694
I0
tp695
a(I6
I389
F-0.625
S'other'
p696
I0
tp697
a(I7
I12
F-0.375
S'crazy'
p698
I0
tp699
a(I7
I12
F-0.125
S'overall'
p700
I0
tp701
a(I7
I38
F-0.75
S'difficult'
p702
I0
tp703
a(I9
I5
F-0.375
S'top'
p704
I0
tp705
a(I10
I19
F-0.625
S'clean'
p706
I0
tp707
a(I10
I19
F-0.625
S'other'
p708
I0
tp709
a(I10
I21
F0.375
S'available'
p710
I0
tp711
a(I10
I21
F-0.625
S'other'
p712
I0
tp713
a(I10
I36
F0.125
S'first'
p714
I0
tp715
a(I11
I89
F0.25
S'are'
p716
I0
tp717
a(I11
I89
F-0.75
S'minor'
p718
I0
tp719
a(I11
I146
I0
S'older'
p720
I0
tp721
a(I11
I178
F0.375
S'new'
p722
I0
tp723
a(I12
I93
F0.125
S'typical'
p724
I0
tp725
a(I14
I5
F1.0
S'best'
p726
I0
tp727
a(I16
I70
F1.0
S'best'
p728
I0
tp729
a(I16
I139
I0
S'least'
p730
I0
tp731
a(I18
I45
F0.125
S'typical'
p732
I0
tp733
a(I18
I46
F0.375
S'new'
p734
I0
tp735
a(I18
I170
F1.0
S'best'
p736
I0
tp737
a(I18
I182
F0.375
S'new'
p738
I0
tp739
a(I18
I182
F1.0
S'best'
p740
I0
tp741
a(I21
I183
F0.625
S'interested'
p742
I0
tp743
a(I21
I338
F1.0
S'best'
p744
I0
tp745
a(I22
I1
F0.125
S'first'
p746
I0
tp747
a(I23
I6
F-0.875
S'inferior'
p748
I0
tp749
as(S'period'
p750
S'of'
p751
S'time'
p752
tp753
(lp754
(I21
I176
F0.375
S'extended'
p755
I1
tp756
a(I22
I115
F-0.125
S'overall'
p757
I1
tp758
a(I22
I115
F0.125
S'above'
p759
I1
tp760
as(g123
S'bigger'
p761
S'screen'
p762
tp763
(lp764
(I7
I17
F0.25
S'bigger'
p765
I1
tp766
a(I10
I35
F0.25
S'bigger'
p767
I1
tp768
a(I10
I35
F0.25
S'bigger'
p769
I1
tp770
a(I11
I16
F0.25
S'bigger'
p771
I1
tp772
a(I12
I153
F0.25
S'bigger'
p773
I1
tp774
a(I21
I213
F0.25
S'bigger'
p775
I1
tp776
a(I22
I82
F0.25
S'bigger'
p777
I1
tp778
as(S'low'
p779
S'light'
p780
S'pictures'
p781
tp782
(lp783
(I10
I10
F1.0
S'better'
p784
I0
tp785
a(I10
I10
F-0.25
S'lower'
p786
I0
tp787
a(I11
I87
I0
S'most'
p788
I0
tp789
a(I11
I166
F1.0
S'better'
p790
I0
tp791
a(I11
I166
F-0.25
S'low'
p792
I0
tp793
a(I11
I268
F1.0
S'good'
p794
I0
tp795
a(I11
I268
F-0.25
S'low'
p796
I0
tp797
a(I11
I268
F-0.625
S'light'
p798
I0
tp799
a(I18
I145
F-0.25
g155
I0
tp800
a(I18
I145
I0
S'great'
p801
I0
tp802
a(I21
I433
F-0.625
S'light'
p803
I0
tp804
a(I21
I433
I0
S'great'
p805
I0
tp806
a(I2
I56
F-0.25
S'low'
p807
I0
tp808
a(I2
I111
F0.375
g147
I0
tp809
a(I2
I111
F1.0
g149
I0
tp810
a(I2
I111
F-0.25
g151
I0
tp811
a(I11
I166
F1.0
g790
I0
tp812
a(I11
I166
F-0.25
g792
I0
tp813
a(I12
I32
F-0.25
g153
I0
tp814
a(I17
I36
I0
S'great'
p815
I0
tp816
a(I17
I36
F-0.25
S'low'
p817
I0
tp818
a(I18
I145
F-0.25
g155
I0
tp819
a(I21
I111
F-0.25
S'low'
p820
I0
tp821
a(I21
I404
F-0.25
S'low'
p822
I0
tp823
as(S'music'
p824
tp825
(lp826
(I6
I365
F0.25
S'portable'
p827
I0
tp828
a(I7
I11
I0
S'least'
p829
I0
tp830
a(I7
I11
F-0.625
S'push'
p831
I0
tp832
a(I21
I49
F0.25
S'favorite'
p833
I0
tp834
a(I22
I160
I0
S'great'
p835
I0
tp836
as(S'point'
p837
S'and'
p838
S'shoot'
p839
tp840
(lp841
(I0
I44
F0.5
S'comparable'
p842
I0
tp843
as(S'much'
p844
S'better'
p845
tp846
(lp847
(I0
I101
F0.375
S'much'
p848
I9
tp849
a(I6
I377
F0.375
S'much'
p850
I9
tp851
a(I6
I426
F0.375
S'much'
p852
I9
tp853
a(I9
I6
F0.375
S'much'
p854
I9
tp855
a(I13
I45
F0.375
S'much'
p856
I9
tp857
a(I21
I138
F1.0
S'good'
p858
I9
tp859
a(I21
I138
F0.375
S'much'
p860
I9
tp861
a(I22
I110
F0.375
S'much'
p862
I9
tp863
as(S'of'
p864
S'battery'
p865
S'life'
p866
tp867
(lp868
(I1
I18
I0
S'great'
p869
I0
tp870
a(I6
I204
F1.0
g656
I0
tp871
a(I6
I483
F0.875
S'important'
p872
I0
tp873
a(I13
I85
F-0.5
g664
I0
tp874
a(I18
I114
F-0.25
S'lowest'
p875
I0
tp876
a(I0
I6
F-0.75
S'short'
p877
I1
tp878
a(I0
I48
F0.625
g389
I1
tp879
a(I0
I90
F-0.5
S'poor'
p880
I1
tp881
a(I0
I102
F1.0
S'good'
p882
I1
tp883
a(I0
I102
I0
g391
I1
tp884
a(I0
I102
F0.625
g393
I1
tp885
a(I1
I18
I0
g869
I1
tp886
a(I1
I257
I0
S'great'
p887
I1
tp888
a(I6
I204
F1.0
g656
I1
tp889
a(I6
I281
F1.0
S'good'
p890
I1
tp891
a(I6
I454
I0
g658
I1
tp892
a(I6
I482
F-0.5
S'continuous'
p893
I1
tp894
a(I6
I483
F0.875
g872
I1
tp895
a(I10
I57
I0
g660
I1
tp896
a(I11
I268
F1.0
g662
I1
tp897
a(I12
I112
F1.0
S'good'
p898
I1
tp899
a(I12
I157
F-0.125
S'overall'
p900
I1
tp901
a(I13
I85
F-0.5
g664
I1
tp902
a(I18
I114
F-0.25
g875
I1
tp903
a(I20
I4
I0
S'great'
p904
I1
tp905
a(I21
I80
F1.0
S'good'
p906
I1
tp907
a(I21
I330
I0
S'external'
p908
I1
tp909
a(I22
I36
F1.0
S'better'
p910
I1
tp911
a(I22
I83
F1.0
S'good'
p912
I1
tp913
a(I22
I120
F1.0
S'good'
p914
I1
tp915
a(I22
I125
F1.0
S'good'
p916
I1
tp917
a(I23
I21
F1.0
g666
I1
tp918
a(I0
I6
F-0.75
g877
I19
tp919
a(I0
I102
F1.0
g882
I19
tp920
a(I1
I18
I0
g869
I19
tp921
a(I1
I257
I0
g887
I19
tp922
a(I6
I183
F-0.375
S'daily'
p923
I19
tp924
a(I6
I204
F1.0
g656
I19
tp925
a(I6
I232
F0.625
S'perfect'
p926
I19
tp927
a(I6
I281
F1.0
g890
I19
tp928
a(I6
I454
I0
g658
I19
tp929
a(I6
I483
F0.875
g872
I19
tp930
a(I7
I18
I0
S'real'
p931
I19
tp932
a(I11
I268
F1.0
g662
I19
tp933
a(I12
I112
F1.0
g898
I19
tp934
a(I21
I80
F1.0
g906
I19
tp935
a(I21
I223
F-0.375
S'daily'
p936
I19
tp937
a(I22
I36
F1.0
g910
I19
tp938
a(I22
I83
F1.0
g912
I19
tp939
a(I22
I120
F1.0
g914
I19
tp940
a(I23
I21
F1.0
g666
I19
tp941
a(I0
I48
F0.625
g389
I15
tp942
a(I0
I90
F-0.5
g880
I15
tp943
a(I0
I102
I0
g391
I15
tp944
a(I0
I102
F0.625
g393
I15
tp945
a(I1
I21
F0.625
g395
I15
tp946
a(I1
I202
F1.0
S'good'
p947
I15
tp948
a(I1
I217
F0.625
S'replaceable'
p949
I15
tp950
a(I1
I217
I0
S'such'
p951
I15
tp952
a(I1
I217
F0.625
S'replaceable'
p953
I15
tp954
a(I1
I236
F0.625
S'replaceable'
p955
I15
tp956
a(I2
I74
F0.125
S'last'
p957
I15
tp958
a(I2
I80
F0.625
g397
I15
tp959
a(I2
I84
F0.625
g399
I15
tp960
a(I3
I1
F1.0
S'good'
p961
I15
tp962
a(I6
I119
F-0.625
S'bad'
p963
I15
tp964
a(I6
I482
F-0.5
g893
I15
tp965
a(I9
I8
F1.0
S'best'
p966
I15
tp967
a(I9
I36
I0
g401
I15
tp968
a(I9
I36
F0.625
g403
I15
tp969
a(I10
I57
I0
g660
I15
tp970
a(I11
I16
I0
S'later'
p971
I15
tp972
a(I12
I94
I0
S'adequate'
p973
I15
tp974
a(I12
I114
F0.625
g405
I15
tp975
a(I12
I139
F0.125
S'last'
p976
I15
tp977
a(I12
I157
F-0.125
g900
I15
tp978
a(I13
I51
F0.125
S'first'
p979
I15
tp980
a(I13
I84
I0
S'auxiliary'
p981
I15
tp982
a(I13
I85
F-0.5
g664
I15
tp983
a(I18
I114
F-0.25
g875
I15
tp984
a(I18
I116
F0.25
S'portable'
p985
I15
tp986
a(I18
I119
F0.625
S'replaceable'
p987
I15
tp988
a(I18
I119
F0.5
S'second'
p989
I15
tp990
a(I18
I122
F0.25
S'portable'
p991
I15
tp992
a(I18
I129
F0.625
S'replaceable'
p993
I15
tp994
a(I20
I3
F0.625
g407
I15
tp995
a(I20
I4
I0
g904
I15
tp996
a(I21
I327
F-0.625
S'bad'
p997
I15
tp998
a(I21
I327
I0
S'high'
p999
I15
tp1000
a(I21
I330
I0
g908
I15
tp1001
a(I21
I340
F0.625
g409
I15
tp1002
a(I22
I125
F1.0
g916
I15
tp1003
as(S'home'
p1004
S'and'
p1005
S'back'
p1006
tp1007
(lp1008
(I2
I102
F-0.75
S'unresponsive'
p1009
I0
tp1010
a(I16
I126
I0
g5
I0
tp1011
a(I16
I130
F0.125
S'key'
p1012
I0
tp1013
a(I2
I102
F-0.75
g1009
I0
tp1014
a(I16
I126
I0
g5
I0
tp1015
a(I16
I130
F0.125
g1012
I0
tp1016
as(S'low'
p1017
S'light'
p1018
S'performance'
p1019
tp1020
(lp1021
(I2
I111
F0.375
g147
I0
tp1022
a(I2
I111
F1.0
g149
I0
tp1023
a(I2
I111
F-0.25
g151
I0
tp1024
a(I6
I92
F0.625
S'superior'
p1025
I0
tp1026
a(I11
I68
F0.375
S'much'
p1027
I0
tp1028
a(I11
I68
F0.875
S'important'
p1029
I0
tp1030
a(I17
I36
I0
g815
I0
tp1031
a(I17
I36
F-0.25
g817
I0
tp1032
a(I4
I2
I0
S'great'
p1033
I2
tp1034
a(I5
I4
F-0.5
S'weaker'
p1035
I2
tp1036
a(I6
I92
F0.625
g1025
I2
tp1037
a(I11
I68
F0.375
g1027
I2
tp1038
a(I11
I68
F0.875
g1029
I2
tp1039
a(I12
I27
F0.5
S'comparable'
p1040
I2
tp1041
a(I23
I13
F0.875
S'happy'
p1042
I2
tp1043
as(S'blinkfeed'
p1044
tp1045
(lp1046
(I1
I299
F1.0
S'good'
p1047
I0
tp1048
a(I3
I18
F0.5
S'whole'
p1049
I0
tp1050
a(I5
I20
F-0.625
S'useless'
p1051
I0
tp1052
a(I6
I434
F0.25
S'read'
p1053
I0
tp1054
a(I11
I171
F0.625
S'controversial'
p1055
I0
tp1056
a(I12
I97
F0.875
S'nice'
p1057
I0
tp1058
a(I16
I151
I0
S'useful'
p1059
I0
tp1060
a(I16
I163
F0.875
S'nice'
p1061
I0
tp1062
a(I21
I304
F1.0
S'best'
p1063
I0
tp1064
as(g123
S'removable'
p1065
S'battery'
p1066
tp1067
(lp1068
(I0
I48
F0.625
g389
I0
tp1069
a(I0
I102
I0
g391
I0
tp1070
a(I0
I102
F0.625
g393
I0
tp1071
a(I1
I21
F0.625
g395
I0
tp1072
a(I2
I80
F0.625
g397
I0
tp1073
a(I2
I84
F0.625
g399
I0
tp1074
a(I9
I36
I0
g401
I0
tp1075
a(I9
I36
F0.625
g403
I0
tp1076
a(I12
I114
F0.625
g405
I0
tp1077
a(I20
I3
F0.625
g407
I0
tp1078
a(I21
I340
F0.625
g409
I0
tp1079
as(S'apps'
p1080
tp1081
(lp1082
(I2
I115
I0
S'different'
p1083
I0
tp1084
a(I12
I1
F-0.5
S'certain'
p1085
I0
tp1086
a(I12
I52
F0.125
S'last'
p1087
I0
tp1088
a(I18
I154
F-0.625
S'other'
p1089
I0
tp1090
a(I21
I96
F0.25
S'recent'
p1091
I0
tp1092
a(I21
I96
F0.25
S'recent'
p1093
I0
tp1094
a(I21
I164
I0
S'many'
p1095
I0
tp1096
a(I21
I164
F0.25
S'bigger'
p1097
I0
tp1098
a(I21
I239
F-0.625
S'free'
p1099
I0
tp1100
a(I21
I278
I0
S'internal'
p1101
I0
tp1102
a(I21
I308
I0
S'useful'
p1103
I0
tp1104
as(S'feels'
p1105
tp1106
(lp1107
(I4
I2
F1.0
S'good'
p1108
I14
tp1109
a(I6
I61
F0.5
S'whole'
p1110
I14
tp1111
a(I6
I61
F0.125
S'solid'
p1112
I14
tp1113
a(I6
I61
F-0.5
S'heavy'
p1114
I14
tp1115
a(I6
I361
I0
S'large'
p1116
I14
tp1117
a(I6
I388
F0.375
S'tight'
p1118
I14
tp1119
a(I16
I121
I0
S'lightweight'
p1120
I14
tp1121
a(I16
I121
I0
S'plastic'
p1122
I14
tp1123
a(I16
I121
F-0.625
S'light'
p1124
I14
tp1125
a(I18
I37
F0.5
S'expensive'
p1126
I14
tp1127
a(I22
I28
F1.0
S'better'
p1128
I14
tp1129
as(S'on'
p1130
S'top'
p1131
S'left'
p1132
tp1133
(lp1134
(I6
I14
F-0.375
S'top'
p1135
I0
tp1136
a(I6
I123
F-0.375
S'top'
p1137
I0
tp1138
a(I6
I144
F-0.375
S'top'
p1139
I0
tp1140
a(I11
I213
F-0.375
S'top'
p1141
I0
tp1142
a(I16
I127
F-0.375
S'top'
p1143
I0
tp1144
a(I16
I127
F-0.75
S'difficult'
p1145
I0
tp1146
as(S'sound'
p1147
S'quality'
p1148
tp1149
(lp1150
(I1
I22
I0
S'great'
p1151
I0
tp1152
a(I1
I22
F0.5
S'clear'
p1153
I0
tp1154
a(I2
I63
F1.0
S'best'
p1155
I0
tp1156
a(I2
I69
F-0.25
S'anemic'
p1157
I0
tp1158
a(I6
I70
F-0.375
S'serious'
p1159
I0
tp1160
a(I6
I238
I0
S'great'
p1161
I0
tp1162
a(I6
I408
I0
S'unbelievable'
p1163
I0
tp1164
a(I11
I220
F0.625
S'extraordinary'
p1165
I0
tp1166
a(I17
I22
I0
S'topic'
p1167
I0
tp1168
a(I18
I80
I0
S'next'
p1169
I0
tp1170
a(I18
I84
I0
S'great'
p1171
I0
tp1172
a(I18
I84
I0
S'tinny'
p1173
I0
tp1174
a(I18
I84
F-0.5
S'weak'
p1175
I0
tp1176
a(I19
I24
I0
S'great'
p1177
I0
tp1178
a(I21
I46
I0
S'same'
p1179
I0
tp1180
a(I21
I336
I0
S'rich'
p1181
I0
tp1182
a(I21
I336
I0
S'high'
p1183
I0
tp1184
a(I2
I63
F1.0
g1155
I7
tp1185
a(I2
I69
F-0.25
g1157
I7
tp1186
a(I4
I1
I0
S'incredible'
p1187
I7
tp1188
a(I6
I70
F-0.375
g1159
I7
tp1189
a(I7
I53
I0
S'great'
p1190
I7
tp1191
a(I11
I202
F1.0
S'best'
p1192
I7
tp1193
a(I11
I246
F0.25
S'effective'
p1194
I7
tp1195
a(I12
I108
F0.25
S'sharp'
p1196
I7
tp1197
a(I17
I22
I0
g1167
I7
tp1198
a(I18
I80
I0
g1169
I7
tp1199
a(I18
I84
F-0.5
g1175
I7
tp1200
a(I19
I24
I0
g1177
I7
tp1201
a(I21
I219
I0
S'tinny'
p1202
I7
tp1203
a(I21
I219
F-0.5
S'weak'
p1204
I7
tp1205
a(I21
I336
I0
g1181
I7
tp1206
a(I22
I140
I0
S'incredible'
p1207
I7
tp1208
as.