(dp0
(S'straight'
p1
S'talk'
p2
tp3
(lp4
(I4
I15
F0.5
S'compatible'
p5
I0
tp6
a(I4
I31
F0.625
S'straight'
p7
I0
tp8
as(S'galaxy'
p9
S's4'
p10
tp11
(lp12
(I2
I5
I0
S'great'
p13
I0
tp14
a(I18
I9
I0
S'galaxy'
p15
I0
tp16
a(I18
I17
I0
S'many'
p17
I0
tp18
as(S'sim'
p19
S'card'
p20
tp21
(lp22
(I11
I9
F-0.125
S'complicated'
p23
I0
tp24
as.