(dp0
(S'thanks'
p1
tp2
(lp3
(I68
I0
I0
S'great'
p4
I12
tp5
as(S'battery'
p6
S'life'
p7
tp8
(lp9
(I9
I1
F-0.5
S'poor'
p10
I1
tp11
a(I37
I5
F0.625
S'acceptable'
p12
I1
tp13
a(I39
I3
F1.0
S'good'
p14
I1
tp15
a(I39
I3
F0.125
S'last'
p16
I1
tp17
a(I42
I0
F1.0
S'good'
p18
I1
tp19
a(I46
I11
I0
S'great'
p20
I1
tp21
a(I49
I49
F-0.5
S'poor'
p22
I1
tp23
a(I37
I5
F0.625
g12
I19
tp24
a(I46
I11
I0
g20
I19
tp25
a(I49
I49
F-0.5
g22
I19
tp26
a(I9
I1
F-0.5
g10
I15
tp27
a(I12
I7
F0.625
S'replaceable'
p28
I15
tp29
a(I23
I66
F0.875
S'happy'
p30
I15
tp31
a(I30
I37
F0.625
S'replaceable'
p32
I15
tp33
a(I31
I52
F0.125
S'first'
p34
I15
tp35
a(I31
I52
F0.375
S'extra'
p36
I15
tp37
a(I36
I6
F-0.625
S'bad'
p38
I15
tp39
a(I39
I3
F1.0
g14
I15
tp40
a(I39
I3
F0.125
g16
I15
tp41
a(I42
I0
F1.0
g18
I15
tp42
a(I45
I7
F0.625
S'replaceable'
p43
I15
tp44
a(I65
I10
F0.625
S'replaceable'
p45
I15
tp46
as(S'offline'
p47
tp48
(lp49
(I23
I22
F-0.625
S'free'
p50
I0
tp51
as(S'email'
p52
tp53
(lp54
(I23
I57
F0.375
S'new'
p55
I5
tp56
as(S'sim'
p57
S'card'
p58
tp59
(lp60
(I30
I59
F0.625
S'easy'
p61
I0
tp62
a(I39
I2
I0
S'old'
p63
I0
tp64
a(I39
I16
F-0.625
S'free'
p65
I0
tp66
a(I46
I2
F-0.75
S'invalid'
p67
I0
tp68
a(I52
I6
F-0.5
S'international'
p69
I0
tp70
a(I62
I5
F-0.75
S'little'
p71
I0
tp72
as(S'maps'
p73
tp74
(lp75
(I42
I1
I0
S'useful'
p76
I5
tp77
a(I65
I15
I0
S'great'
p78
I5
tp79
as(S'download'
p80
tp81
(lp82
(I30
I11
F-0.625
S'free'
p83
I1
tp84
as(S'operating'
p85
S'system'
p86
tp87
(lp88
(I10
I17
F-0.125
S'complicated'
p89
I2
tp90
a(I24
I7
F0.375
S'new'
p91
I2
tp92
a(I52
I8
F0.25
S'familiar'
p93
I2
tp94
as(S'a'
p95
S'good'
p96
S'price'
p97
tp98
(lp99
(I0
I5
F0.625
S'fair'
p100
I4
tp101
a(I12
I6
I0
S'such'
p102
I4
tp103
a(I12
I6
F1.0
S'good'
p104
I4
tp105
a(I27
I6
F-0.25
S'cheaper'
p106
I4
tp107
a(I30
I36
I0
S'such'
p108
I4
tp109
a(I30
I36
F1.0
S'good'
p110
I4
tp111
a(I31
I71
F1.0
S'good'
p112
I4
tp113
a(I39
I0
F1.0
S'good'
p114
I4
tp115
a(I44
I7
F1.0
S'good'
p116
I4
tp117
a(I45
I6
I0
S'such'
p118
I4
tp119
a(I45
I6
F1.0
S'good'
p120
I4
tp121
a(I49
I49
F1.0
S'good'
p122
I4
tp123
a(I0
I5
F0.625
g100
I14
tp124
a(I12
I6
I0
g102
I14
tp125
a(I12
I6
F1.0
g104
I14
tp126
a(I27
I6
F-0.25
g106
I14
tp127
a(I30
I29
F1.0
S'good'
p128
I14
tp129
a(I30
I36
I0
g108
I14
tp130
a(I30
I36
F1.0
g110
I14
tp131
a(I31
I71
F1.0
g112
I14
tp132
a(I39
I0
F1.0
g114
I14
tp133
a(I44
I7
F1.0
g116
I14
tp134
a(I45
I6
I0
g118
I14
tp135
a(I45
I6
F1.0
g120
I14
tp136
a(I49
I49
F1.0
g122
I14
tp137
as(S'straight'
p138
S'talk'
p139
tp140
(lp141
(I30
I15
F0.625
S'straight'
p142
I0
tp143
a(I30
I16
F0.625
S'straight'
p144
I0
tp145
a(I37
I24
F0.625
S'straight'
p146
I0
tp147
as(S'front'
p148
S'facing'
p149
S'camera'
p150
tp151
(lp152
(I30
I12
F-0.125
S'front'
p153
I0
tp154
a(I30
I12
F-0.125
g153
I0
tp155
a(I9
I35
F0.875
S'nice'
p156
I1
tp157
a(I12
I5
F0.375
S'new'
p158
I1
tp159
a(I30
I12
F-0.125
g153
I1
tp160
a(I30
I35
F0.375
S'new'
p161
I1
tp162
a(I30
I56
I0
S'most'
p163
I1
tp164
a(I31
I62
F1.0
S'good'
p165
I1
tp166
a(I31
I62
F-0.625
S'natural'
p167
I1
tp168
a(I31
I62
F-0.625
S'light'
p169
I1
tp170
a(I38
I27
I0
S'sensitive'
p171
I1
tp172
a(I38
I27
I0
S'great'
p173
I1
tp174
a(I45
I5
F0.375
S'new'
p175
I1
tp176
a(I50
I4
I0
S'rear'
p177
I1
tp178
a(I54
I8
F0.875
S'nice'
p179
I1
tp180
a(I57
I2
F1.0
S'better'
p181
I1
tp182
a(I57
I9
I0
S'great'
p183
I1
tp184
a(I71
I5
I0
S'wish'
p185
I1
tp186
as(S'internet'
p187
tp188
(lp189
(I30
I52
F-0.625
S'light'
p190
I6
tp191
as(S'windows'
p192
tp193
(lp194
(I23
I51
F0.375
S'available'
p195
I0
tp196
a(I24
I3
I0
S'most'
p197
I0
tp198
a(I27
I11
I0
S'mobile'
p199
I0
tp200
a(I27
I15
F0.375
S'available'
p201
I0
tp202
a(I27
I15
F-0.625
S'free'
p203
I0
tp204
a(I30
I54
F-0.5
S'sure'
p205
I0
tp206
a(I31
I94
F0.625
S'easy'
p207
I0
tp208
a(I37
I2
I0
S'old'
p209
I0
tp210
a(I39
I1
F0.625
S'easy'
p211
I0
tp212
a(I44
I1
F0.25
S'used'
p213
I0
tp214
a(I49
I45
F-0.625
S'other'
p215
I0
tp216
a(I50
I6
F0.25
S'unlocked'
p217
I0
tp218
a(I65
I1
F0.25
S'familiar'
p219
I0
tp220
as(S'system'
p221
S'languages'
p222
tp223
(lp224
(I12
I13
F0.625
S'easy'
p225
I0
tp226
a(I12
I13
F-0.625
S'other'
p227
I0
tp228
a(I30
I43
F0.625
S'easy'
p229
I0
tp230
a(I30
I43
F-0.625
S'other'
p231
I0
tp232
a(I45
I13
F0.625
S'easy'
p233
I0
tp234
a(I45
I13
F-0.625
S'other'
p235
I0
tp236
a(I12
I13
F0.625
g225
I12
tp237
a(I12
I13
F-0.625
g227
I12
tp238
a(I30
I43
F0.625
g229
I12
tp239
a(I30
I43
F-0.625
g231
I12
tp240
a(I31
I37
F0.25
S'responsive'
p241
I12
tp242
a(I45
I13
F0.625
g233
I12
tp243
a(I45
I13
F-0.625
g235
I12
tp244
as(S'radio'
p245
tp246
(lp247
(I12
I8
I0
S'real'
p248
I0
tp249
a(I12
I8
I0
S'cool'
p250
I0
tp251
a(I30
I38
I0
S'real'
p252
I0
tp253
a(I30
I38
I0
S'cool'
p254
I0
tp255
a(I45
I8
I0
S'real'
p256
I0
tp257
a(I45
I8
I0
S'cool'
p258
I0
tp259
as(S'seller'
p260
tp261
(lp262
(I51
I2
F0.875
S'nice'
p263
I19
tp264
as(S'android'
p265
tp266
(lp267
(I12
I3
F0.375
S'available'
p268
I0
tp269
a(I30
I33
F0.375
S'available'
p270
I0
tp271
a(I44
I2
I0
S'switched'
p272
I0
tp273
a(I45
I3
F0.375
S'available'
p274
I0
tp275
as(S'iphone'
p276
tp277
(lp278
(I31
I32
F0.625
S'fair'
p279
I1
tp280
a(I65
I15
F-0.125
S'former'
p281
I1
tp282
as(S'smart'
p283
tp284
(lp285
(I31
I98
F0.125
S'first'
p286
I10
tp287
a(I42
I5
F0.5
S'expensive'
p288
I10
tp289
a(I49
I48
F0.125
S'first'
p290
I10
tp291
as(S'good'
p292
S'quality'
p293
tp294
(lp295
(I21
I0
F1.0
S'good'
p296
I16
tp297
a(I37
I12
F1.0
S'good'
p298
I16
tp299
as(S'first'
p300
S'time'
p301
tp302
(lp303
(I18
I7
F0.125
S'first'
p304
I10
tp305
a(I24
I7
F0.125
S'first'
p306
I10
tp307
a(I33
I3
F0.125
S'first'
p308
I10
tp309
a(I50
I7
F0.125
S'first'
p310
I10
tp311
as(S'amazon'
p312
tp313
(lp314
(I9
I27
I0
S'latest'
p315
I13
tp316
a(I30
I20
F0.5
S'expensive'
p317
I13
tp318
a(I31
I17
F1.0
S'good'
p319
I13
tp320
a(I31
I17
F1.0
S'better'
p321
I13
tp322
a(I35
I0
F-0.375
S'chat'
p323
I13
tp324
a(I38
I35
F0.125
S'usual'
p325
I13
tp326
as(S'music'
p327
tp328
(lp329
(I49
I22
F0.125
S'bundled'
p330
I0
tp331
as(S'data'
p332
tp333
(lp334
(I12
I3
F-0.625
S'lighter'
p335
I13
tp336
a(I30
I33
F-0.625
S'lighter'
p337
I13
tp338
a(I45
I3
F-0.625
S'lighter'
p339
I13
tp340
as(S'much'
p341
S'better'
p342
tp343
(lp344
(I29
I15
F0.375
S'much'
p345
I9
tp346
a(I57
I6
F0.375
S'much'
p347
I9
tp348
a(I70
I8
F0.375
S'much'
p349
I9
tp350
as(S'smartphone'
p351
tp352
(lp353
(I0
I12
I0
S'great'
p354
I0
tp355
a(I0
I12
F0.125
S'solid'
p356
I0
tp357
a(I0
I12
F0.5
S'drive'
p358
I0
tp359
a(I0
I12
F0.625
S'easy'
p360
I0
tp361
a(I8
I5
F1.0
S'best'
p362
I0
tp363
a(I23
I49
F0.125
S'first'
p364
I0
tp365
a(I30
I0
F-0.5
S'less'
p366
I0
tp367
as(S'nokia'
p368
S'lumia'
p369
tp370
(lp371
(I23
I65
F0.875
S'happier'
p372
I0
tp373
a(I31
I4
F0.5
S'second'
p374
I0
tp375
a(I32
I6
I0
S'great'
p376
I0
tp377
a(I32
I6
F0.375
S'available'
p378
I0
tp379
a(I6
I13
F0.25
S'original'
p380
I0
tp381
a(I23
I54
F-0.625
S'free'
p382
I0
tp383
a(I23
I63
F0.375
S'extra'
p384
I0
tp385
a(I23
I65
F0.875
g372
I0
tp386
a(I31
I4
F0.5
g374
I0
tp387
a(I31
I29
I0
S'great'
p388
I0
tp389
a(I49
I39
F-0.125
S'overall'
p390
I0
tp391
a(I49
I40
F0.25
S'unlocked'
p392
I0
tp393
a(I51
I0
I0
S'own'
p394
I0
tp395
a(I6
I1
I0
S'third'
p396
I0
tp397
a(I9
I25
F0.125
S'first'
p398
I0
tp399
a(I9
I25
F-0.625
S'other'
p400
I0
tp401
a(I9
I26
F-0.625
S'other'
p402
I0
tp403
a(I31
I100
F0.875
S'happy'
p404
I0
tp405
a(I31
I100
F0.375
S'new'
p406
I0
tp407
a(I32
I6
I0
g376
I0
tp408
a(I32
I6
F0.375
g378
I0
tp409
as(S'wifi'
p410
tp411
(lp412
(I23
I1
I0
S'monthly'
p413
I0
tp414
a(I23
I47
F-0.625
S'free'
p415
I0
tp416
as(S'apps'
p417
tp418
(lp419
(I10
I17
F1.0
S'good'
p420
I0
tp421
a(I12
I4
F0.375
S'new'
p422
I0
tp423
a(I22
I14
F0.625
S'decent'
p424
I0
tp425
a(I22
I14
F-0.5
S'less'
p426
I0
tp427
a(I23
I50
F0.375
S'available'
p428
I0
tp429
a(I27
I15
F0.25
S'favorite'
p430
I0
tp431
a(I27
I19
F-0.75
S'unable'
p432
I0
tp433
a(I30
I34
F0.375
S'new'
p434
I0
tp435
a(I31
I49
I0
S'many'
p436
I0
tp437
a(I31
I49
F-0.625
S'free'
p438
I0
tp439
a(I31
I49
F-0.625
S'free'
p440
I0
tp441
a(I31
I49
F1.0
S'good'
p442
I0
tp443
a(I32
I16
F-0.25
S'direct'
p444
I0
tp445
a(I32
I21
I0
S'many'
p446
I0
tp447
a(I32
I21
F0.375
S'similar'
p448
I0
tp449
a(I35
I7
F0.625
S'easy'
p450
I0
tp451
a(I36
I4
I0
S'few'
p452
I0
tp453
a(I38
I27
I0
S'cool'
p454
I0
tp455
a(I38
I37
F1.0
S'good'
p456
I0
tp457
a(I45
I4
F0.375
S'new'
p458
I0
tp459
a(I46
I8
I0
S'full'
p460
I0
tp461
a(I46
I8
F-0.625
S'other'
p462
I0
tp463
a(I46
I8
F0.625
S'easy'
p464
I0
tp465
a(I49
I2
F0.5
S'bought'
p466
I0
tp467
a(I49
I2
I0
S'few'
p468
I0
tp469
a(I49
I33
F0.25
S'powerful'
p470
I0
tp471
a(I52
I2
F0.125
S'popular'
p472
I0
tp473
a(I52
I9
I0
S'such'
p474
I0
tp475
a(I52
I13
F-0.625
S'other'
p476
I0
tp477
a(I57
I8
I0
S'great'
p478
I0
tp479
a(I65
I15
F0.125
S'able'
p480
I0
tp481
as.