(dp0
(S'battery'
p1
S'life'
p2
tp3
(lp4
(I0
I37
I0
S'great'
p5
I1
tp6
a(I2
I51
I0
S'big'
p7
I1
tp8
a(I3
I46
I0
S'normal'
p9
I1
tp10
a(I8
I40
I0
S'great'
p11
I1
tp12
a(I8
I100
I0
S'great'
p13
I1
tp14
a(I14
I78
F1.0
S'good'
p15
I1
tp16
a(I19
I20
F-0.75
S'short'
p17
I1
tp18
a(I19
I21
F-0.75
S'short'
p19
I1
tp20
a(I19
I22
F-0.625
S'bad'
p21
I1
tp22
a(I0
I37
I0
g5
I19
tp23
a(I2
I51
I0
g7
I19
tp24
a(I2
I58
F0.625
S'easier'
p25
I19
tp26
a(I8
I40
I0
g11
I19
tp27
a(I9
I17
F0.625
S'easier'
p28
I19
tp29
a(I19
I21
F-0.75
g19
I19
tp30
a(I2
I71
I0
S'great'
p31
I15
tp32
a(I2
I79
F0.625
S'removable'
p33
I15
tp34
a(I3
I46
I0
g9
I15
tp35
a(I4
I49
F0.625
S'replaceable'
p36
I15
tp37
a(I8
I14
F-0.5
S'poor'
p38
I15
tp39
a(I8
I42
F1.0
S'good'
p40
I15
tp41
a(I8
I44
F-0.75
S'little'
p42
I15
tp43
a(I8
I56
F-0.5
S'less'
p44
I15
tp45
a(I8
I80
F-0.75
S'little'
p46
I15
tp47
a(I8
I100
I0
g13
I15
tp48
a(I9
I26
F1.0
S'good'
p49
I15
tp50
a(I14
I78
F1.0
g15
I15
tp51
a(I15
I2
I0
S'stable'
p52
I15
tp53
a(I15
I17
F1.0
S'good'
p54
I15
tp55
a(I18
I1
F0.625
S'removable'
p56
I15
tp57
a(I19
I20
F-0.75
g17
I15
tp58
a(I19
I22
F-0.625
g21
I15
tp59
as(S'text'
p60
tp61
(lp62
(I1
I39
F-0.5
S'sure'
p63
I18
tp64
a(I3
I87
I0
S'few'
p65
I18
tp66
a(I4
I99
I0
S'microscopic'
p67
I18
tp68
a(I4
I101
I0
S'forth'
p69
I18
tp70
as(S'camera'
p71
tp72
(lp73
(I0
I17
F-0.5
S'actual'
p74
I1
tp75
a(I8
I15
I0
S'same'
p76
I1
tp77
a(I8
I75
F0.5
S'primary'
p78
I1
tp79
a(I8
I76
I0
S'great'
p80
I1
tp81
as(S'iphone'
p82
tp83
(lp84
(I2
I9
I0
S'more'
p85
I1
tp86
a(I2
I10
F1.0
S'better'
p87
I1
tp88
a(I2
I12
F1.0
S'best'
p89
I1
tp90
a(I2
I32
F0.875
S'nice'
p91
I1
tp92
a(I3
I23
F0.25
S'responsive'
p93
I1
tp94
a(I4
I24
F0.5
S'comparable'
p95
I1
tp96
a(I4
I52
I0
S'fast'
p97
I1
tp98
a(I4
I78
I0
S'old'
p99
I1
tp100
a(I4
I127
F-0.625
S'unscientific'
p101
I1
tp102
a(I4
I128
F0.25
S'dimmer'
p103
I1
tp104
a(I10
I3
F0.375
S'available'
p105
I1
tp106
a(I10
I70
F-0.875
S'awful'
p107
I1
tp108
a(I14
I91
I0
S'many'
p109
I1
tp110
a(I14
I108
F-0.125
S'former'
p111
I1
tp112
a(I14
I184
F0.375
S'much'
p113
I1
tp114
a(I14
I184
I0
S'user'
p115
I1
tp116
a(I15
I14
F-0.375
S'small'
p117
I1
tp118
a(I17
I12
F-0.375
S'small'
p119
I1
tp120
a(I18
I24
I0
S'own'
p121
I1
tp122
a(I19
I19
I0
S'wish'
p123
I1
tp124
as(S'apps'
p125
tp126
(lp127
(I1
I31
F0.25
S'responsive'
p128
I0
tp129
a(I2
I60
I0
S'tinny'
p130
I0
tp131
a(I3
I94
F0.125
S'able'
p132
I0
tp133
a(I3
I94
F0.125
S'able'
p134
I0
tp135
a(I3
I94
I0
S'proprietary'
p136
I0
tp137
a(I3
I100
I0
S'proprietary'
p138
I0
tp139
a(I4
I50
F1.0
S'good'
p140
I0
tp141
a(I5
I23
I0
S'old'
p142
I0
tp143
a(I5
I32
F0.625
S'easier'
p144
I0
tp145
a(I8
I12
I0
S'same'
p146
I0
tp147
a(I9
I28
F1.0
S'good'
p148
I0
tp149
a(I14
I5
I0
S'own'
p150
I0
tp151
a(I14
I5
F0.25
S'favorite'
p152
I0
tp153
a(I14
I7
F-0.375
S'vary'
p154
I0
tp155
a(I14
I8
I0
S'most'
p156
I0
tp157
a(I14
I85
I0
S'multiple'
p158
I0
tp159
a(I14
I109
F0.875
S'nice'
p160
I0
tp161
as(S'memory'
p162
tp163
(lp164
(I2
I65
I0
S'more'
p165
I5
tp166
a(I9
I8
F0.625
S'find'
p167
I5
tp168
as(S'apple'
p169
tp170
(lp171
(I12
I2
I0
S'apple'
p172
I4
tp173
a(I12
I2
F-0.25
S'thin'
p174
I4
tp175
a(I14
I169
F0.875
S'nice'
p176
I4
tp177
a(I14
I169
F-0.625
S'free'
p178
I4
tp179
as(S'android'
p180
tp181
(lp182
(I1
I52
F-0.375
S'beast'
p183
I0
tp184
a(I8
I69
I0
S'fastest'
p185
I0
tp186
a(I14
I83
F-0.25
S'past'
p187
I0
tp188
a(I19
I5
F1.0
S'better'
p189
I0
tp190
as(S'smart'
p191
tp192
(lp193
(I1
I36
F0.125
S'first'
p194
I10
tp195
a(I13
I0
F0.125
S'first'
p196
I10
tp197
a(I13
I1
F-0.625
S'other'
p198
I10
tp199
as(S'samsung'
p200
S'galaxy'
p201
S's4'
p202
tp203
(lp204
(I19
I2
F1.0
S'better'
p205
I0
tp206
a(I17
I1
F0.375
S'much'
p207
I0
tp208
a(I19
I2
F1.0
g205
I0
tp209
a(I8
I94
F-0.125
S'overall'
p210
I7
tp211
a(I10
I7
F0.375
S'confident'
p212
I7
tp213
a(I10
I31
I0
S'many'
p214
I7
tp215
a(I10
I31
F-0.625
S'other'
p216
I7
tp217
a(I10
I36
I0
S'e-mail'
p218
I7
tp219
a(I10
I38
I0
S'website'
p220
I7
tp221
a(I14
I2
I0
S'many'
p222
I7
tp223
a(I14
I4
F-0.875
S'inferior'
p224
I7
tp225
a(I14
I53
I0
S'only'
p226
I7
tp227
a(I14
I53
F-0.375
S'authorized'
p228
I7
tp229
a(I14
I122
F0.25
S'unlocked'
p230
I7
tp231
a(I14
I164
I0
S'same'
p232
I7
tp233
a(I14
I212
F-0.375
S'pull'
p234
I7
tp235
a(I17
I31
F0.125
S'first'
p236
I7
tp237
a(I7
I5
F0.875
S'happy'
p238
I0
tp239
as(S'warranty'
p240
tp241
(lp242
(I10
I15
F0.75
S'due'
p243
I2
tp244
as(S'touch'
p245
S'wiz'
p246
tp247
(lp248
(I2
I33
I0
S'cool'
p249
I0
tp250
a(I2
I57
F0.5
S'touch'
p251
I0
tp252
a(I2
I58
F0.5
S'touch'
p253
I0
tp254
a(I2
I71
F0.5
S'touch'
p255
I0
tp256
as(S'much'
p257
S'better'
p258
tp259
(lp260
(I4
I137
F0.375
S'much'
p261
I9
tp262
a(I15
I2
F0.375
S'much'
p263
I9
tp264
as(S'micro'
p265
S'sd'
p266
S'card'
p267
tp268
(lp269
(I2
I61
F0.5
S'true'
p270
I0
tp271
as(S'customer'
p272
S'service'
p273
tp274
(lp275
(I10
I13
I0
S'incredible'
p276
I3
tp277
a(I8
I1
I0
S'advocate'
p278
I16
tp279
as(S'videos'
p280
tp281
(lp282
(I8
I81
I0
S'close'
p283
I8
tp284
a(I8
I81
I0
S'full'
p285
I8
tp286
as(S'storage'
p287
tp288
(lp289
(I1
I22
I0
S'internal'
p290
I1
tp291
as.