(dp0
(S'battery'
p1
S'life'
p2
tp3
(lp4
(I7
I21
F0.625
S'acceptable'
p5
I1
tp6
a(I7
I23
F0.625
S'acceptable'
p7
I1
tp8
a(I7
I47
F1.0
S'good'
p9
I1
tp10
a(I10
I10
F-0.5
S'less'
p11
I1
tp12
a(I13
I24
F1.0
S'good'
p13
I1
tp14
a(I18
I25
F0.875
S'important'
p15
I1
tp16
a(I18
I84
F1.0
S'good'
p17
I1
tp18
a(I7
I47
F1.0
g9
I19
tp19
a(I7
I92
F0.625
S'convenient'
p20
I19
tp21
a(I7
I92
F-0.375
S'daily'
p22
I19
tp23
a(I13
I24
F1.0
g13
I19
tp24
a(I18
I25
F0.875
g15
I19
tp25
a(I18
I40
I0
S'real'
p26
I19
tp27
a(I18
I84
F1.0
g17
I19
tp28
a(I7
I21
F0.625
g5
I15
tp29
a(I7
I23
F0.625
g7
I15
tp30
a(I7
I102
F-0.625
S'bad'
p31
I15
tp32
a(I10
I10
F-0.5
g11
I15
tp33
a(I17
I17
F-0.625
S'bad'
p34
I15
tp35
a(I18
I28
F0.625
S'acceptable'
p36
I15
tp37
as(S'faster'
p38
tp39
(lp40
(I18
I69
F0.375
S'much'
p41
I7
tp42
as(S'siri'
p43
tp44
(lp45
(I9
I13
F0.25
S'helpful'
p46
I0
tp47
a(I13
I16
I0
S'coolest'
p48
I0
tp49
a(I13
I82
F0.125
S'able'
p50
I0
tp51
a(I13
I88
I0
S'great'
p52
I0
tp53
a(I14
I61
F0.375
S'available'
p54
I0
tp55
a(I16
I10
I0
S'great'
p56
I0
tp57
as(S'camera'
p58
tp59
(lp60
(I7
I62
I0
S'great'
p61
I1
tp62
a(I7
I62
F1.0
S'good'
p63
I1
tp64
a(I7
I78
F0.375
S'new'
p65
I1
tp66
a(I7
I198
F0.375
S'new'
p67
I1
tp68
a(I9
I20
F0.375
S'much'
p69
I1
tp70
a(I11
I0
I0
S'faster'
p71
I1
tp72
a(I13
I28
I0
S'rear'
p73
I1
tp74
a(I13
I31
F1.0
S'better'
p75
I1
tp76
a(I13
I41
F0.375
S'new'
p77
I1
tp78
a(I13
I46
F0.25
S'professional'
p79
I1
tp80
a(I13
I46
I0
S'fanatic'
p81
I1
tp82
a(I13
I88
F0.875
S'nice'
p83
I1
tp84
a(I18
I13
F-0.5
S'complaint'
p85
I1
tp86
a(I18
I43
F1.0
S'better'
p87
I1
tp88
a(I18
I43
F0.875
S'nice'
p89
I1
tp90
a(I18
I83
I0
S'great'
p91
I1
tp92
a(I18
I93
F0.125
S'capable'
p93
I1
tp94
as(S'iphone'
p95
tp96
(lp97
(I0
I1
F0.125
S'last'
p98
I1
tp99
a(I2
I52
F0.125
S'first'
p100
I1
tp101
a(I2
I62
I0
S'old'
p102
I1
tp103
a(I5
I5
I0
S'great'
p104
I1
tp105
a(I7
I18
I0
S'connect'
p106
I1
tp107
a(I7
I21
I0
S'more'
p108
I1
tp109
a(I7
I35
F0.5
S'true'
p110
I1
tp111
a(I7
I35
F0.75
S'classic'
p112
I1
tp113
a(I7
I101
F0.125
S'first'
p114
I1
tp115
a(I7
I101
F0.375
S'new'
p116
I1
tp117
a(I7
I111
I0
S'more'
p118
I1
tp119
a(I7
I111
F-0.625
S'bad'
p120
I1
tp121
a(I7
I111
F1.0
S'good'
p122
I1
tp123
a(I7
I130
I0
S'useful'
p124
I1
tp125
a(I7
I180
F0.625
S'aware'
p126
I1
tp127
a(I7
I205
I-100
S'ultra-portable'
p128
I1
tp129
a(I7
I243
F0.375
S'new'
p130
I1
tp131
a(I7
I245
I0
S'most'
p132
I1
tp133
a(I7
I249
I0
S'useful'
p134
I1
tp135
a(I7
I253
I0
S'automatic'
p136
I1
tp137
a(I7
I275
F0.375
S'new'
p138
I1
tp139
a(I7
I278
F0.75
S'receive'
p140
I1
tp141
a(I8
I9
F0.25
S'original'
p142
I1
tp143
a(I9
I7
I0
S'such'
p144
I1
tp145
a(I10
I6
I0
S'more'
p146
I1
tp147
a(I10
I9
F-0.625
S'other'
p148
I1
tp149
a(I10
I12
F-0.75
S'likely'
p150
I1
tp151
a(I10
I13
F-0.5
S'vibrate'
p152
I1
tp153
a(I10
I33
I0
S'same'
p154
I1
tp155
a(I10
I33
F-0.5
S'regular'
p156
I1
tp157
a(I13
I14
I0
S'cool'
p158
I1
tp159
a(I13
I45
F-0.625
S'bad'
p160
I1
tp161
a(I13
I52
F-0.625
S'glad'
p162
I1
tp163
a(I13
I55
I0
S'wish'
p164
I1
tp165
a(I13
I58
F0.375
S'new'
p166
I1
tp167
a(I13
I101
F1.0
S'good'
p168
I1
tp169
a(I17
I3
F0.375
S'available'
p170
I1
tp171
a(I17
I3
I0
S'more'
p172
I1
tp173
a(I17
I3
F-0.75
S'difficult'
p174
I1
tp175
a(I17
I24
F0.25
S'used'
p176
I1
tp177
a(I17
I33
I0
S'faster'
p178
I1
tp179
a(I17
I33
I0
S'faster'
p180
I1
tp181
a(I17
I33
F0.875
S'happier'
p182
I1
tp183
a(I17
I33
F0.625
S'easier'
p184
I1
tp185
a(I18
I2
F0.5
S'satisfied'
p186
I1
tp187
a(I18
I18
F0.125
S'able'
p188
I1
tp189
a(I18
I32
I0
S'fourth'
p190
I1
tp191
a(I18
I37
I0
S'curious'
p192
I1
tp193
a(I18
I44
I0
S'faster'
p194
I1
tp195
a(I18
I54
I0
S'useful'
p196
I1
tp197
a(I18
I54
F0.625
S'productive'
p198
I1
tp199
a(I19
I0
I0
S'old'
p200
I1
tp201
as(S'galaxy'
p202
tp203
(lp204
(I17
I33
F0.25
S'bigger'
p205
I0
tp206
as(S'verizon'
p207
tp208
(lp209
(I12
I7
F0.875
S'happy'
p210
I0
tp211
as(S'glass'
p212
tp213
(lp214
(I7
I32
F-0.75
S'likely'
p215
I9
tp216
as(S'iphones'
p217
tp218
(lp219
(I5
I4
F-0.625
S'glorious'
p220
I0
tp221
a(I5
I4
I-100
S'cons-~there'
p222
I0
tp223
a(I5
I21
F1.0
S'good'
p224
I0
tp225
a(I5
I21
I0
S'fast'
p226
I0
tp227
a(I5
I21
F0.625
S'easy'
p228
I0
tp229
a(I5
I21
I0
S'great'
p230
I0
tp231
a(I7
I276
F1.0
S'best'
p232
I0
tp233
a(I8
I10
F0.125
S'first'
p234
I0
tp235
a(I10
I9
F0.375
S'much'
p236
I0
tp237
a(I16
I9
F0.625
S'pride'
p238
I0
tp239
a(I18
I67
F-0.625
S'other'
p240
I0
tp241
as(S'apple'
p242
S'product'
p243
tp244
(lp245
(I2
I52
F-0.625
S'other'
p246
I0
tp247
a(I7
I191
I0
S'fast'
p248
I0
tp249
a(I9
I26
F-0.25
S'disappointing'
p250
I0
tp251
a(I10
I19
F-0.25
S'modern'
p252
I0
tp253
a(I10
I24
F0.125
S'first'
p254
I0
tp255
a(I14
I0
F0.375
S'new'
p256
I0
tp257
a(I14
I39
F0.125
S'first'
p258
I0
tp259
a(I1
I10
I0
S'android'
p260
I4
tp261
a(I2
I52
F-0.625
g246
I4
tp262
a(I2
I55
I0
S'wish'
p263
I4
tp264
a(I2
I55
I0
S'such'
p265
I4
tp266
a(I2
I78
I0
S'old'
p267
I4
tp268
a(I7
I6
F0.375
S'newest'
p269
I4
tp270
a(I7
I191
I0
g248
I4
tp271
a(I8
I7
F-0.75
S'wrong'
p272
I4
tp273
a(I10
I5
F0.375
S'new'
p274
I4
tp275
a(I10
I19
F-0.25
g252
I4
tp276
a(I10
I24
F0.125
g254
I4
tp277
a(I14
I0
F0.375
g256
I4
tp278
a(I14
I33
I0
S'great'
p279
I4
tp280
a(I14
I39
F0.125
g258
I4
tp281
as(S'android'
p282
tp283
(lp284
(I5
I5
F1.0
S'good'
p285
I0
tp286
a(I7
I27
F0.125
S'typical'
p287
I0
tp288
a(I7
I39
F0.25
S'larger'
p289
I0
tp290
a(I7
I99
I0
S'more'
p291
I0
tp292
a(I7
I150
F-0.875
S'hard'
p293
I0
tp294
a(I7
I150
F1.0
S'good'
p295
I0
tp296
a(I7
I150
F-0.75
S'minor'
p297
I0
tp298
a(I7
I153
F-0.625
S'free'
p299
I0
tp300
a(I7
I179
F1.0
S'good'
p301
I0
tp302
a(I14
I27
F0.375
S'new'
p303
I0
tp304
a(I18
I62
F-0.625
S'other'
p305
I0
tp306
a(I18
I75
I0
S'many'
p307
I0
tp308
as(S'upgrade'
p309
tp310
(lp311
(I13
I86
I0
S'next'
p312
I3
tp313
a(I18
I37
F0.375
S'early'
p314
I3
tp315
as(S'voice'
p316
S'recognition'
p317
tp318
(lp319
(I18
I68
F0.5
S'comparable'
p320
I0
tp321
a(I1
I8
F-0.25
S'google'
p322
I4
tp323
a(I18
I68
F0.5
g320
I4
tp324
as(S'sim'
p325
S'card'
p326
tp327
(lp328
(I14
I64
F0.375
S'new'
p329
I0
tp330
as(S'blackberry'
p331
tp332
(lp333
(I2
I18
I0
S'old'
p334
I1
tp335
a(I2
I23
I0
S'more'
p336
I1
tp337
a(I6
I9
F0.875
S'happy'
p338
I1
tp339
a(I16
I5
I0
S'standard'
p340
I1
tp341
a(I18
I72
F-0.5
S'heavy'
p342
I1
tp343
a(I18
I85
I0
S'physical'
p344
I1
tp345
as(S'much'
p346
S'better'
p347
tp348
(lp349
(I6
I9
F0.375
S'much'
p350
I9
tp351
a(I7
I44
F0.375
S'much'
p352
I9
tp353
a(I13
I69
F0.375
S'much'
p354
I9
tp355
as(S'apps'
p356
tp357
(lp358
(I7
I48
I0
S'many'
p359
I0
tp360
a(I7
I153
F1.0
S'best'
p361
I0
tp362
a(I7
I190
I0
S'inconsistent'
p363
I0
tp364
a(I14
I44
F0.375
S'available'
p365
I0
tp366
a(I16
I10
I0
S'great'
p367
I0
tp368
a(I18
I44
I0
S'same'
p369
I0
tp370
as(S'amazon'
p371
tp372
(lp373
(I16
I12
I0
S'assistant'
p374
I13
tp375
as.