(dp0
(S'galaxy'
p1
S'proclaim'
p2
tp3
(lp4
(I3
I0
F0.875
S'happy'
p5
I0
tp6
a(I3
I0
F0.875
g5
I1
tp7
as(S'battery'
p8
S'life'
p9
tp10
(lp11
(I3
I152
F-0.75
S'shorter'
p12
I1
tp13
a(I4
I48
I0
S'great'
p14
I1
tp15
a(I4
I100
F1.0
S'good'
p16
I1
tp17
a(I5
I15
F1.0
S'good'
p18
I1
tp19
a(I1
I59
F1.0
S'good'
p20
I15
tp21
a(I1
I59
F0.125
S'first'
p22
I15
tp23
a(I4
I48
I0
g14
I15
tp24
a(I4
I100
F1.0
g16
I15
tp25
as(S'camera'
p26
tp27
(lp28
(I1
I39
F1.0
S'better'
p29
I1
tp30
a(I2
I94
I0
S'great'
p31
I1
tp32
a(I4
I46
I0
S'basic'
p33
I1
tp34
a(I5
I11
I0
S'great'
p35
I1
tp36
a(I5
I11
I0
S'real'
p37
I1
tp38
as(S'straight'
p39
S'talk'
p40
tp41
(lp42
(I1
I0
F0.125
S'first'
p43
I0
tp44
a(I1
I53
F0.5
S'second'
p45
I0
tp46
a(I1
I69
F0.625
S'straight'
p47
I0
tp48
a(I1
I69
F0.75
S'due'
p49
I0
tp50
a(I2
I0
F0.75
S'due'
p51
I0
tp52
a(I3
I15
F0.5
S'second'
p53
I0
tp54
a(I3
I51
F0.75
S'worth'
p55
I0
tp56
a(I4
I58
F-0.75
S'impossible'
p57
I0
tp58
a(I4
I75
F0.625
S'straight'
p59
I0
tp60
a(I4
I111
F0.625
S'straight'
p61
I0
tp62
a(I1
I69
F0.625
g47
I13
tp63
a(I1
I69
F0.75
g49
I13
tp64
a(I2
I0
F0.75
g51
I13
tp65
a(I4
I58
F-0.75
g57
I13
tp66
a(I4
I75
F0.625
g59
I13
tp67
a(I4
I111
F0.625
g61
I13
tp68
a(I1
I0
F0.125
g43
I17
tp69
a(I1
I53
F0.5
g45
I17
tp70
a(I3
I15
F0.5
g53
I17
tp71
a(I3
I51
F0.75
g55
I17
tp72
as(S'google'
p73
tp74
(lp75
(I0
I13
F0.5
S'rid'
p76
I4
tp77
a(I2
I63
F-0.5
S'sure'
p78
I4
tp79
a(I2
I70
I0
S'more'
p80
I4
tp81
as(S'sd'
p82
S'card'
p83
tp84
(lp85
(I3
I111
F-0.625
S'useless'
p86
I0
tp87
a(I5
I39
F-0.5
S'sure'
p88
I0
tp89
as(S'music'
p90
S'player'
p91
tp92
(lp93
(I3
I110
F0.875
S'music'
p94
I0
tp95
a(I4
I47
F0.875
S'music'
p96
I0
tp97
a(I4
I47
F-0.5
S'poor'
p98
I0
tp99
as(S'android'
p100
tp101
(lp102
(I5
I35
I0
S'promising'
p103
I0
tp104
as(S'ice'
p105
S'cream'
p106
tp107
(lp108
(I3
I143
I0
S'android'
p109
I2
tp110
as(S'text'
p111
S'messages'
p112
tp113
(lp114
(I2
I14
I0
S'instant'
p115
I0
tp116
a(I4
I60
F0.75
S'receive'
p117
I0
tp118
a(I4
I60
F0.75
g117
I18
tp119
as(S'verizon'
p120
S'towers'
p121
tp122
(lp123
(I4
I86
F0.125
S'able'
p124
I0
tp125
a(I3
I53
F-0.625
S'other'
p126
I0
tp127
a(I4
I17
F1.0
S'good'
p128
I0
tp129
a(I4
I17
F-0.5
S'regular'
p130
I0
tp131
a(I4
I86
F0.125
g124
I0
tp132
as(S'walmart'
p133
tp134
(lp135
(I1
I30
I0
S'exclusive'
p136
I5
tp137
a(I1
I94
I0
S'local'
p138
I5
tp139
as(S'centura'
p140
tp141
(lp142
(I1
I68
I0
S'old'
p143
I0
tp144
as(S'customer'
p145
S'service'
p146
tp147
(lp148
(I4
I86
F-0.25
S'cheaper'
p149
I3
tp150
a(I4
I86
F0.625
S'noticeable'
p151
I3
tp152
a(I4
I18
F0.375
S'dependable'
p153
I16
tp154
a(I4
I20
F1.0
S'good'
p155
I16
tp156
a(I4
I86
F-0.25
g149
I16
tp157
a(I4
I86
F0.625
g151
I16
tp158
a(I4
I88
F-0.125
S'slow'
p159
I16
tp160
a(I2
I30
F1.0
S'good'
p161
I11
tp162
a(I2
I40
F0.875
S'happy'
p163
I11
tp164
as(S'wifi'
p165
tp166
(lp167
(I1
I42
F-0.75
S'single'
p168
I0
tp169
a(I4
I11
F-0.5
S'certain'
p170
I0
tp171
as(S'apps'
p172
tp173
(lp174
(I0
I12
I0
S'most'
p175
I0
tp176
a(I1
I28
I0
S'fast'
p177
I0
tp178
a(I1
I37
I0
S'such'
p179
I0
tp180
a(I1
I62
F-0.125
S'slow'
p181
I0
tp182
a(I2
I65
F0.625
S'easy'
p183
I0
tp184
a(I2
I93
I0
S'many'
p185
I0
tp186
a(I3
I89
F0.125
S'able'
p187
I0
tp188
a(I3
I94
I0
S'many'
p189
I0
tp190
a(I3
I104
I0
S'many'
p191
I0
tp192
a(I3
I104
F-0.625
S'other'
p193
I0
tp194
a(I3
I106
F0.5
S'true'
p195
I0
tp196
a(I3
I106
I0
S'such'
p197
I0
tp198
a(I4
I7
F-0.375
S'simplest'
p199
I0
tp200
a(I5
I25
F0.375
S'extra'
p201
I0
tp202
as.