(dp0
(S'home'
p1
S'button'
p2
tp3
(lp4
(I13
I2
I0
S'physical'
p5
I0
tp6
a(I50
I6
I0
S'physical'
p7
I0
tp8
a(I59
I14
I0
S'physical'
p9
I0
tp10
as(S'an'
p11
S'sd'
p12
S'card'
p13
tp14
(lp15
(I6
I0
F-0.625
S'other'
p16
I0
tp17
a(I18
I36
I0
S'standard'
p18
I0
tp19
a(I18
I49
F-0.125
S'present'
p20
I0
tp21
a(I18
I79
I0
S'external'
p22
I0
tp23
a(I22
I11
F-0.75
S'unable'
p24
I0
tp25
a(I22
I63
F0.5
S'bought'
p26
I0
tp27
a(I24
I29
F0.375
S'much'
p28
I0
tp29
a(I35
I14
I0
S'internal'
p30
I0
tp31
a(I41
I52
I0
S'external'
p32
I0
tp33
a(I59
I76
I0
S'external'
p34
I0
tp35
a(I59
I76
I0
S'useful'
p36
I0
tp37
a(I59
I95
I0
S'external'
p38
I0
tp39
a(I59
I170
I0
S'many'
p40
I0
tp41
a(I59
I170
F0.5
S'possible'
p42
I0
tp43
as(S'root'
p44
tp45
(lp46
(I18
I58
F0.625
S'easy'
p47
I0
tp48
a(I35
I82
F0.625
S'easy'
p49
I0
tp50
a(I50
I1
I0
S'quick'
p51
I0
tp52
a(I50
I1
F0.625
S'easy'
p53
I0
tp54
as(S'on'
p55
S'board'
p56
S'memory'
p57
tp58
(lp59
(I18
I49
I0
S'internal'
p60
I0
tp61
a(I26
I19
I0
S'big'
p62
I0
tp63
a(I37
I25
I0
S'external'
p64
I0
tp65
as(S'battery'
p66
S'life'
p67
S'excellent'
p68
tp69
(lp70
(I41
I82
I-100
S'a++++++++++++++++++++excellent'
p71
I0
tp72
a(I56
I17
I0
S'next'
p73
I0
tp74
as(S'call'
p75
S'quality'
p76
tp77
(lp78
(I0
I38
F1.0
S'good'
p79
I0
tp80
a(I0
I42
F-0.5
S'call'
p81
I0
tp82
a(I11
I5
I0
S'great'
p83
I0
tp84
a(I11
I34
F0.625
S'acceptable'
p85
I0
tp86
a(I31
I3
F1.0
S'good'
p87
I0
tp88
a(I37
I14
F1.0
S'best'
p89
I0
tp90
a(I37
I14
F-0.5
S'regular'
p91
I0
tp92
a(I37
I14
F0.25
S'stellar'
p93
I0
tp94
a(I37
I26
F-0.625
S'average'
p95
I0
tp96
a(I38
I2
F0.5
S'clear'
p97
I0
tp98
a(I40
I30
F1.0
S'good'
p99
I0
tp100
a(I58
I59
F0.5
S'clear'
p101
I0
tp102
a(I58
I59
F0.75
S'constant'
p103
I0
tp104
as(S'apps'
p105
S'on'
p106
S'sd'
p107
tp108
(lp109
(I0
I35
F0.125
S'able'
p110
I0
tp111
a(I14
I14
I0
S'many'
p112
I0
tp113
a(I14
I14
F0.375
S'available'
p114
I0
tp115
a(I18
I79
F0.125
S'able'
p116
I0
tp117
a(I18
I79
I0
g22
I0
tp118
a(I22
I47
I0
S'remnant'
p119
I0
tp120
a(I22
I47
I0
S'big'
p121
I0
tp122
a(I25
I0
I0
S'external'
p123
I0
tp124
a(I25
I0
I0
S'internal'
p125
I0
tp126
a(I30
I32
I0
S'basic'
p127
I0
tp128
a(I30
I33
I0
S'most'
p129
I0
tp130
a(I35
I6
I0
S'large'
p131
I0
tp132
a(I37
I33
F-0.75
S'unable'
p133
I0
tp134
a(I38
I6
F-0.75
S'impossible'
p135
I0
tp136
a(I41
I52
I0
g32
I0
tp137
a(I59
I75
I0
S'most'
p138
I0
tp139
a(I59
I95
F0.125
S'able'
p140
I0
tp141
a(I59
I95
F0.25
S'larger'
p142
I0
tp143
a(I59
I95
I0
g38
I0
tp144
a(I59
I95
I0
S'such'
p145
I0
tp146
as(S'lg'
p147
S'optimus'
p148
S'f3'
p149
tp150
(lp151
(I24
I55
I0
S'android'
p152
I0
tp153
a(I43
I2
F-0.625
S'light'
p154
I0
tp155
a(I59
I121
F0.5
S'whole'
p156
I0
tp157
a(I18
I71
F0.125
S'last'
p158
I0
tp159
a(I24
I55
I0
g152
I0
tp160
a(I30
I21
F-0.125
S'former'
p161
I0
tp162
a(I30
I21
F-0.625
S'average'
p163
I0
tp164
a(I59
I121
F0.5
g156
I0
tp165
a(I24
I55
I0
g152
I0
tp166
a(I43
I2
F-0.625
g154
I0
tp167
a(I59
I121
F0.5
g156
I0
tp168
a(I0
I3
F0.25
S'bigger'
p169
I0
tp170
a(I0
I9
I0
S'third'
p171
I0
tp172
a(I0
I9
I0
S'next'
p173
I0
tp174
a(I0
I48
I0
S'old'
p175
I0
tp176
a(I30
I21
F-0.625
g163
I0
tp177
a(I40
I27
I0
S'old'
p178
I0
tp179
a(I53
I17
F0.375
S'new'
p180
I0
tp181
a(I59
I18
I0
S'ancient'
p182
I0
tp183
a(I59
I109
I0
S'third'
p184
I0
tp185
as(S'camera'
p186
tp187
(lp188
(I0
I10
I0
S'great'
p189
I1
tp190
a(I0
I18
F1.0
S'good'
p191
I1
tp192
a(I0
I18
F1.0
S'best'
p193
I1
tp194
a(I0
I18
F1.0
S'good'
p195
I1
tp196
a(I5
I41
I0
S'only'
p197
I1
tp198
a(I5
I41
F-0.875
S'negative'
p199
I1
tp200
a(I32
I20
I0
S'rear'
p201
I1
tp202
a(I35
I92
F-0.125
S'super'
p203
I1
tp204
a(I40
I49
I0
S'great'
p205
I1
tp206
a(I46
I18
I0
S'great'
p207
I1
tp208
a(I53
I20
I0
S'rear'
p209
I1
tp210
a(I58
I14
F-0.5
S'open'
p211
I1
tp212
a(I58
I46
F1.0
S'better'
p213
I1
tp214
a(I59
I64
I0
S'rear'
p215
I1
tp216
a(I59
I65
I0
S'rear'
p217
I1
tp218
a(I59
I65
F1.0
S'best'
p219
I1
tp220
as(S'gorilla'
p221
S'glass'
p222
tp223
(lp224
(I41
I26
I0
S'great'
p225
I0
tp226
as(S'games'
p227
tp228
(lp229
(I5
I20
F0.25
S'bigger'
p230
I19
tp231
a(I5
I44
I0
S'play'
p232
I19
tp233
a(I5
I44
F-0.25
S'intensive'
p234
I19
tp235
a(I9
I2
I0
S'many'
p236
I19
tp237
a(I14
I19
I0
S'many'
p238
I19
tp239
a(I25
I27
I0
S'only'
p240
I19
tp241
a(I29
I43
I0
S'limited'
p242
I19
tp243
a(I35
I88
I0
S'play'
p244
I19
tp245
a(I41
I42
I0
S'fast'
p246
I19
tp247
a(I41
I66
I0
S'large'
p248
I19
tp249
a(I41
I66
F-0.625
S'addictive'
p250
I19
tp251
a(I58
I50
I0
S'many'
p252
I19
tp253
a(I59
I94
I0
S'large'
p254
I19
tp255
as(S'iphone'
p256
tp257
(lp258
(I0
I56
F0.875
S'nice'
p259
I1
tp260
a(I32
I23
F-0.625
S'other'
p261
I1
tp262
a(I44
I39
I0
S'few'
p263
I1
tp264
a(I59
I0
F0.5
S'expensive'
p265
I1
tp266
as(S'optimus'
p267
S'elite'
p268
tp269
(lp270
(I0
I3
F0.25
g169
I0
tp271
a(I59
I109
I0
g184
I0
tp272
a(I13
I15
F0.375
S'similar'
p273
I0
tp274
as(S'to'
p275
S'move'
p276
S'apps'
p277
tp278
(lp279
(I0
I35
F0.125
g110
I0
tp280
a(I5
I55
F-0.5
S'regular'
p281
I0
tp282
a(I37
I33
F-0.75
g133
I0
tp283
a(I38
I6
F-0.75
g135
I0
tp284
a(I41
I43
F-0.625
S'glad'
p285
I0
tp286
a(I41
I43
I0
S'least'
p287
I0
tp288
a(I59
I95
F0.125
g140
I0
tp289
a(I59
I95
F0.25
g142
I0
tp290
a(I59
I95
I0
g145
I0
tp291
a(I0
I35
F0.125
g110
I0
tp292
a(I5
I55
F-0.5
g281
I0
tp293
a(I37
I33
F-0.75
g133
I0
tp294
a(I38
I6
F-0.75
g135
I0
tp295
a(I41
I43
F-0.625
g285
I0
tp296
a(I41
I43
I0
g287
I0
tp297
a(I41
I55
I0
S'few'
p298
I0
tp299
a(I59
I95
F0.125
g140
I0
tp300
a(I59
I95
F0.25
g142
I0
tp301
a(I59
I95
I0
g145
I0
tp302
a(I0
I13
I0
S'basic'
p303
I0
tp304
a(I0
I25
I0
S'more'
p305
I0
tp306
a(I0
I35
F0.125
g110
I0
tp307
a(I5
I7
F0.5
S'rid'
p308
I0
tp309
a(I5
I7
I0
S'such'
p310
I0
tp311
a(I5
I12
I0
S'download'
p312
I0
tp313
a(I5
I12
F0.25
S'favorite'
p314
I0
tp315
a(I5
I16
F0.125
S'able'
p316
I0
tp317
a(I5
I16
F0.375
S'following'
p318
I0
tp319
a(I5
I16
I0
S'current'
p320
I0
tp321
a(I5
I20
F-0.25
S'low'
p322
I0
tp323
a(I5
I44
I0
S'different'
p324
I0
tp325
a(I5
I53
I0
S'own'
p326
I0
tp327
a(I5
I81
F-0.5
S'heavy'
p328
I0
tp329
a(I12
I28
I0
S'few'
p330
I0
tp331
a(I12
I41
I0
S'many'
p332
I0
tp333
a(I12
I41
I0
S'many'
p334
I0
tp335
a(I13
I19
F-0.75
S'impossible'
p336
I0
tp337
a(I14
I14
I0
g112
I0
tp338
a(I14
I14
F0.375
g114
I0
tp339
a(I18
I19
F0.75
S'give'
p340
I0
tp341
a(I18
I20
F0.875
S'music'
p342
I0
tp343
a(I18
I20
I0
S'least'
p344
I0
tp345
a(I18
I38
F-0.25
S'google'
p346
I0
tp347
a(I18
I46
I0
S'such'
p348
I0
tp349
a(I18
I46
F-0.125
S'slow'
p350
I0
tp351
a(I18
I79
F0.125
g116
I0
tp352
a(I18
I82
F-0.5
S'less'
p353
I0
tp354
a(I18
I82
I0
S'third'
p355
I0
tp356
a(I22
I26
I0
S'many'
p357
I0
tp358
a(I22
I28
I0
S'useful'
p359
I0
tp360
a(I22
I47
I0
g119
I0
tp361
a(I22
I47
I0
g121
I0
tp362
a(I23
I1
I0
S'most'
p363
I0
tp364
a(I24
I12
I0
S'many'
p365
I0
tp366
a(I24
I43
I0
S'many'
p367
I0
tp368
a(I24
I43
I0
S'non-issue'
p369
I0
tp370
a(I25
I25
I0
S'few'
p371
I0
tp372
a(I27
I4
I0
S'few'
p373
I0
tp374
a(I29
I30
I0
S'many'
p375
I0
tp376
a(I29
I30
I0
S'unnecessary'
p377
I0
tp378
a(I29
I43
F-0.625
S'other'
p379
I0
tp380
a(I29
I51
F-0.375
S'disable'
p381
I0
tp382
a(I29
I51
F-0.625
S'free'
p383
I0
tp384
a(I30
I7
I0
S'many'
p385
I0
tp386
a(I30
I32
I0
g127
I0
tp387
a(I30
I33
I0
g129
I0
tp388
a(I33
I10
I0
S'most'
p389
I0
tp390
a(I33
I28
F-0.625
S'average'
p391
I0
tp392
a(I33
I28
F-0.5
S'sure'
p393
I0
tp394
a(I33
I28
F-0.5
S'open'
p395
I0
tp396
a(I35
I6
I0
g131
I0
tp397
a(I35
I9
I0
S'very'
p398
I0
tp399
a(I35
I61
I0
S'limited'
p400
I0
tp401
a(I37
I33
F-0.75
g133
I0
tp402
a(I38
I6
F-0.75
g135
I0
tp403
a(I40
I16
I0
S'own'
p404
I0
tp405
a(I40
I52
I0
S'many'
p406
I0
tp407
a(I41
I7
I0
S'few'
p408
I0
tp409
a(I41
I7
I0
S'great'
p410
I0
tp411
a(I41
I8
I0
S'few'
p412
I0
tp413
a(I41
I26
I0
S'large'
p414
I0
tp415
a(I41
I43
F-0.625
g285
I0
tp416
a(I41
I43
I0
g287
I0
tp417
a(I41
I55
I0
g298
I0
tp418
a(I41
I65
I0
S'most'
p419
I0
tp420
a(I44
I49
I0
S'own'
p421
I0
tp422
a(I49
I20
F0.125
S'able'
p423
I0
tp424
a(I49
I20
I0
S'more'
p425
I0
tp426
a(I49
I20
F0.25
S'bigger'
p427
I0
tp428
a(I49
I62
F-0.75
S'unable'
p429
I0
tp430
a(I51
I17
I0
S'few'
p431
I0
tp432
a(I51
I17
F0.25
S'favorite'
p433
I0
tp434
a(I53
I28
I0
S'few'
p435
I0
tp436
a(I53
I28
I0
S'different'
p437
I0
tp438
a(I54
I9
I0
S'many'
p439
I0
tp440
a(I54
I10
I0
S'more'
p441
I0
tp442
a(I54
I10
I0
S'few'
p443
I0
tp444
a(I54
I10
I0
S'basic'
p445
I0
tp446
a(I56
I10
I0
S'many'
p447
I0
tp448
a(I56
I10
I0
S'more'
p449
I0
tp450
a(I58
I2
F-0.25
S'disappointing'
p451
I0
tp452
a(I58
I10
F-0.625
S'other'
p453
I0
tp454
a(I58
I18
F-0.125
S'delete'
p455
I0
tp456
a(I59
I75
I0
g138
I0
tp457
a(I59
I81
I0
S'many'
p458
I0
tp459
a(I59
I82
I0
S'few'
p460
I0
tp461
a(I59
I82
F0.125
S'essential'
p462
I0
tp463
a(I59
I95
F0.125
g140
I0
tp464
a(I59
I95
F0.25
g142
I0
tp465
a(I59
I95
I0
g145
I0
tp466
a(I59
I110
F0.875
S'music'
p467
I0
tp468
a(I59
I115
F-0.125
S'cant'
p469
I0
tp470
as(S'google'
p471
tp472
(lp473
(I11
I20
I0
S'such'
p474
I4
tp475
a(I18
I32
F-0.25
S'disappointing'
p476
I4
tp477
a(I18
I84
I0
S'more'
p478
I4
tp479
a(I35
I74
I0
S'few'
p480
I4
tp481
a(I35
I74
F-0.625
S'other'
p482
I4
tp483
a(I56
I14
F0.625
S'easy'
p484
I4
tp485
as(S'to'
p486
S'sd'
p487
S'card'
p488
tp489
(lp490
(I6
I0
F-0.625
g16
I0
tp491
a(I17
I2
F0.5
S'possible'
p492
I0
tp493
a(I18
I35
F-0.5
S'regular'
p494
I0
tp495
a(I18
I35
F-0.375
S'top'
p496
I0
tp497
a(I18
I36
I0
g18
I0
tp498
a(I18
I49
F-0.125
g20
I0
tp499
a(I18
I79
I0
g22
I0
tp500
a(I22
I11
F-0.75
g24
I0
tp501
a(I22
I63
F0.5
g26
I0
tp502
a(I35
I14
I0
g30
I0
tp503
a(I41
I52
I0
g32
I0
tp504
a(I59
I76
I0
g34
I0
tp505
a(I59
I76
I0
g36
I0
tp506
a(I59
I95
I0
g38
I0
tp507
a(I6
I0
F-0.625
g16
I0
tp508
a(I17
I2
F0.5
g492
I0
tp509
a(I18
I35
F-0.5
g494
I0
tp510
a(I18
I35
F-0.375
g496
I0
tp511
a(I18
I36
I0
g18
I0
tp512
a(I18
I49
F-0.125
g20
I0
tp513
a(I18
I79
I0
g22
I0
tp514
a(I22
I11
F-0.75
g24
I0
tp515
a(I22
I32
I0
S'big'
p516
I0
tp517
a(I22
I52
I0
S'emulate'
p518
I0
tp519
a(I22
I63
F0.5
g26
I0
tp520
a(I24
I29
F0.375
g28
I0
tp521
a(I35
I14
I0
g30
I0
tp522
a(I41
I52
I0
g32
I0
tp523
a(I59
I76
I0
g34
I0
tp524
a(I59
I76
I0
g36
I0
tp525
a(I59
I95
I0
g38
I0
tp526
a(I59
I170
I0
g40
I0
tp527
a(I59
I170
F0.5
g42
I0
tp528
as(S'bells'
p529
S'and'
p530
S'whistles'
p531
tp532
(lp533
(I8
I4
F1.0
S'good'
p534
I0
tp535
a(I18
I77
I0
S'few'
p536
I0
tp537
a(I18
I77
F0.375
S'extra'
p538
I0
tp539
a(I18
I77
F0.875
S'nice'
p540
I0
tp541
as(S'to'
p542
S'memory'
p543
S'card'
p544
tp545
(lp546
(I5
I100
F-0.25
S'low'
p547
I0
tp548
a(I12
I54
I0
S'large'
p549
I0
tp550
a(I18
I34
I0
S'internal'
p551
I0
tp552
a(I18
I34
F0.625
S'removable'
p553
I0
tp554
a(I18
I34
I0
S'internal'
p555
I0
tp556
a(I18
I34
F-0.625
S'other'
p557
I0
tp558
a(I18
I34
I0
S'external'
p559
I0
tp560
a(I18
I34
F0.625
S'removable'
p561
I0
tp562
a(I18
I43
I0
S'internal'
p563
I0
tp564
a(I18
I49
I0
g60
I0
tp565
a(I18
I79
F-0.375
S'small'
p566
I0
tp567
a(I26
I19
I0
g62
I0
tp568
a(I26
I22
F-0.5
S'less'
p569
I0
tp570
a(I37
I25
I0
g64
I0
tp571
a(I41
I2
I0
S'internal'
p572
I0
tp573
a(I41
I52
I0
S'internal'
p574
I0
tp575
a(I43
I35
F0.375
S'extra'
p576
I0
tp577
a(I44
I31
I0
S'external'
p578
I0
tp579
a(I44
I35
I0
S'full'
p580
I0
tp581
a(I44
I35
F-0.25
S'potential'
p582
I0
tp583
a(I44
I35
I0
S'external'
p584
I0
tp585
a(I58
I19
I0
S'internal'
p586
I0
tp587
a(I58
I19
I0
S'external'
p588
I0
tp589
a(I59
I94
I0
S'internal'
p590
I0
tp591
a(I59
I95
I0
S'internal'
p592
I0
tp593
a(I59
I113
F-0.75
S'little'
p594
I0
tp595
a(I59
I113
I0
S'internal'
p596
I0
tp597
a(I59
I146
F-0.25
S'low'
p598
I0
tp599
a(I5
I100
F-0.25
g547
I0
tp600
a(I12
I54
I0
g549
I0
tp601
a(I18
I34
I0
g551
I0
tp602
a(I18
I34
F0.625
g553
I0
tp603
a(I18
I34
I0
g555
I0
tp604
a(I18
I34
F-0.625
g557
I0
tp605
a(I18
I34
I0
g559
I0
tp606
a(I18
I34
F0.625
g561
I0
tp607
a(I18
I43
I0
g563
I0
tp608
a(I18
I49
I0
g60
I0
tp609
a(I18
I79
F-0.375
g566
I0
tp610
a(I21
I8
F-0.5
S'complaint'
p611
I0
tp612
a(I22
I52
I0
S'internal'
p613
I0
tp614
a(I26
I19
I0
g62
I0
tp615
a(I26
I22
F-0.5
g569
I0
tp616
a(I37
I25
I0
g64
I0
tp617
a(I41
I2
I0
g572
I0
tp618
a(I41
I52
I0
g574
I0
tp619
a(I43
I35
F0.375
g576
I0
tp620
a(I44
I31
I0
g578
I0
tp621
a(I44
I35
I0
g580
I0
tp622
a(I44
I35
F-0.25
g582
I0
tp623
a(I44
I35
I0
g584
I0
tp624
a(I53
I0
F-0.5
S'poor'
p625
I0
tp626
a(I58
I19
I0
g586
I0
tp627
a(I58
I19
I0
g588
I0
tp628
a(I59
I94
I0
g590
I0
tp629
a(I59
I95
I0
g592
I0
tp630
a(I59
I113
F-0.75
g594
I0
tp631
a(I59
I113
I0
g596
I0
tp632
a(I59
I146
F-0.25
g598
I0
tp633
a(I0
I25
I0
S'internal'
p634
I5
tp635
a(I4
I8
F0.25
S'main'
p636
I5
tp637
a(I4
I14
I0
S'install'
p638
I5
tp639
a(I5
I0
I0
S'minimal'
p640
I5
tp641
a(I5
I0
I0
S'internal'
p642
I5
tp643
a(I5
I4
I0
S'internal'
p644
I5
tp645
a(I5
I12
I0
S'internal'
p646
I5
tp647
a(I5
I16
F-0.25
S'low'
p648
I5
tp649
a(I5
I16
I0
S'internal'
p650
I5
tp651
a(I5
I18
F-0.25
S'low'
p652
I5
tp653
a(I5
I18
I0
S'internal'
p654
I5
tp655
a(I5
I27
F0.375
S'extra'
p656
I5
tp657
a(I5
I27
I0
S'internal'
p658
I5
tp659
a(I5
I55
I0
S'external'
p660
I5
tp661
a(I5
I100
F-0.25
g547
I5
tp662
a(I11
I22
F0.125
S'able'
p663
I5
tp664
a(I13
I3
F-0.375
S'small'
p665
I5
tp666
a(I13
I3
I0
S'internal'
p667
I5
tp668
a(I13
I19
I0
S'external'
p669
I5
tp670
a(I14
I44
I0
S'internal'
p671
I5
tp672
a(I14
I44
I0
S'more'
p673
I5
tp674
a(I15
I2
I0
S'internal'
p675
I5
tp676
a(I15
I7
I0
S'more'
p677
I5
tp678
a(I15
I7
I0
S'internal'
p679
I5
tp680
a(I16
I4
I0
S'more'
p681
I5
tp682
a(I16
I4
I0
S'internal'
p683
I5
tp684
a(I16
I4
F-0.625
S'other'
p685
I5
tp686
a(I18
I18
I0
S'internal'
p687
I5
tp688
a(I18
I21
I0
S'internal'
p689
I5
tp690
a(I18
I21
F0.375
S'extra'
p691
I5
tp692
a(I18
I34
I0
g551
I5
tp693
a(I18
I34
I0
g555
I5
tp694
a(I18
I34
I0
g559
I5
tp695
a(I18
I34
F0.625
g561
I5
tp696
a(I18
I43
I0
g563
I5
tp697
a(I18
I49
I0
g60
I5
tp698
a(I18
I64
I0
S'more'
p699
I5
tp700
a(I18
I79
F-0.375
g566
I5
tp701
a(I18
I81
I0
S'internal'
p702
I5
tp703
a(I21
I8
F-0.5
g611
I5
tp704
a(I22
I42
I0
S'internal'
p705
I5
tp706
a(I22
I52
I0
g613
I5
tp707
a(I23
I10
I0
S'internal'
p708
I5
tp709
a(I23
I18
I0
S'more'
p710
I5
tp711
a(I23
I18
I0
S'internal'
p712
I5
tp713
a(I24
I2
F-0.889
S'unfortunate'
p714
I5
tp715
a(I24
I19
F-0.625
S'free'
p716
I5
tp717
a(I24
I19
I0
S'fast'
p718
I5
tp719
a(I25
I22
F-0.5
S'less'
p720
I5
tp721
a(I26
I19
I0
g62
I5
tp722
a(I26
I22
F-0.5
g569
I5
tp723
a(I26
I32
F0.125
S'enough'
p724
I5
tp725
a(I29
I28
I0
S'internal'
p726
I5
tp727
a(I33
I9
I0
S'internal'
p728
I5
tp729
a(I35
I70
I0
S'limited'
p730
I5
tp731
a(I37
I25
I0
g64
I5
tp732
a(I37
I34
I0
S'internal'
p733
I5
tp734
a(I41
I2
I0
g572
I5
tp735
a(I41
I52
I0
g574
I5
tp736
a(I43
I35
F0.375
g576
I5
tp737
a(I44
I12
I0
S'internal'
p738
I5
tp739
a(I44
I31
I0
g578
I5
tp740
a(I44
I35
I0
g580
I5
tp741
a(I44
I35
F-0.25
g582
I5
tp742
a(I44
I35
I0
g584
I5
tp743
a(I49
I16
I0
S'internal'
p744
I5
tp745
a(I49
I16
F0.5
S'drive'
p746
I5
tp747
a(I49
I16
I0
S'same'
p748
I5
tp749
a(I49
I16
I0
S'internal'
p750
I5
tp751
a(I49
I64
F0.375
S'available'
p752
I5
tp753
a(I51
I17
F0.75
S'constant'
p754
I5
tp755
a(I51
I17
F-0.25
S'low'
p756
I5
tp757
a(I53
I0
F-0.5
g625
I5
tp758
a(I54
I15
F-0.25
S'low'
p759
I5
tp760
a(I54
I15
F0.375
S'available'
p761
I5
tp762
a(I58
I4
I0
S'internal'
p763
I5
tp764
a(I58
I11
I0
S'full'
p765
I5
tp766
a(I58
I19
I0
g586
I5
tp767
a(I58
I19
I0
g588
I5
tp768
a(I58
I24
F-0.625
S'other'
p769
I5
tp770
a(I58
I28
I0
S'more'
p771
I5
tp772
a(I58
I28
F0.875
S'happy'
p773
I5
tp774
a(I59
I16
I0
S'internal'
p775
I5
tp776
a(I59
I86
I0
S'internal'
p777
I5
tp778
a(I59
I94
I0
g590
I5
tp779
a(I59
I95
I0
g592
I5
tp780
a(I59
I96
I0
S'internal'
p781
I5
tp782
a(I59
I113
F-0.75
g594
I5
tp783
a(I59
I113
I0
g596
I5
tp784
a(I59
I115
I0
S'internal'
p785
I5
tp786
a(I59
I146
F-0.25
g598
I5
tp787
a(I59
I147
I0
S'same'
p788
I5
tp789
a(I59
I147
I0
S'internal'
p790
I5
tp791
a(I59
I158
I0
S'internal'
p792
I5
tp793
as(S'light'
p794
S'weight'
p795
tp796
(lp797
(I7
I4
F-0.625
S'lighter'
p798
I5
tp799
a(I21
I50
F-0.625
S'light'
p800
I5
tp801
a(I24
I38
F-0.625
S'light'
p802
I5
tp803
a(I26
I10
F-0.625
S'light'
p804
I5
tp805
a(I40
I1
F-0.625
S'light'
p806
I5
tp807
a(I40
I49
F-0.625
S'light'
p808
I5
tp809
a(I52
I8
F-0.625
S'light'
p810
I5
tp811
as(S'on'
p812
S'sd'
p813
S'card'
p814
tp815
(lp816
(I6
I0
F-0.625
g16
I0
tp817
a(I18
I35
F-0.5
g494
I0
tp818
a(I18
I35
F-0.375
g496
I0
tp819
a(I18
I49
F-0.125
g20
I0
tp820
a(I18
I79
I0
g22
I0
tp821
a(I22
I11
F-0.75
g24
I0
tp822
a(I22
I32
I0
g516
I0
tp823
a(I22
I63
F0.5
g26
I0
tp824
a(I24
I29
F0.375
g28
I0
tp825
a(I35
I14
I0
g30
I0
tp826
a(I41
I52
I0
g32
I0
tp827
a(I59
I95
I0
g38
I0
tp828
as(S'many'
p829
S'apps'
p830
tp831
(lp832
(I12
I41
I0
g332
I0
tp833
a(I12
I41
I0
g334
I0
tp834
a(I14
I14
I0
g112
I0
tp835
a(I14
I14
F0.375
g114
I0
tp836
a(I22
I26
I0
g357
I0
tp837
a(I24
I12
I0
g365
I0
tp838
a(I24
I43
I0
g367
I0
tp839
a(I24
I43
I0
g369
I0
tp840
a(I29
I30
I0
g375
I0
tp841
a(I29
I30
I0
g377
I0
tp842
a(I30
I7
I0
g385
I0
tp843
a(I35
I6
I0
g131
I0
tp844
a(I40
I52
I0
g406
I0
tp845
a(I54
I9
I0
g439
I0
tp846
a(I56
I10
I0
g447
I0
tp847
a(I56
I10
I0
g449
I0
tp848
a(I59
I81
I0
g458
I0
tp849
as(S'android'
p850
tp851
(lp852
(I7
I7
I0
S'old'
p853
I0
tp854
a(I14
I12
I0
S'current'
p855
I0
tp856
a(I18
I63
F0.375
S'new'
p857
I0
tp858
a(I30
I18
F-0.625
S'other'
p859
I0
tp860
a(I30
I19
I0
S'latest'
p861
I0
tp862
a(I32
I23
F0.125
S'last'
p863
I0
tp864
a(I40
I20
I-100
S"'jellybean"
p865
I0
tp866
a(I59
I9
F-0.375
S'serious'
p867
I0
tp868
a(I59
I68
I0
S'fast'
p869
I0
tp870
a(I59
I132
F-0.625
S'other'
p871
I0
tp872
a(I59
I138
I0
S'most'
p873
I0
tp874
a(I59
I148
I0
S'many'
p875
I0
tp876
a(I59
I165
I0
S'standard'
p877
I0
tp878
a(I59
I168
F0.625
S'aware'
p879
I0
tp880
a(I59
I173
F-0.25
S'inexpensive'
p881
I0
tp882
as(S'apps'
p883
S'to'
p884
S'sd'
p885
tp886
(lp887
(I0
I35
F0.125
g110
I0
tp888
a(I18
I79
F0.125
g116
I0
tp889
a(I18
I79
I0
g22
I0
tp890
a(I22
I47
I0
g119
I0
tp891
a(I22
I47
I0
g121
I0
tp892
a(I25
I0
I0
g123
I0
tp893
a(I25
I0
I0
g125
I0
tp894
a(I30
I32
I0
g127
I0
tp895
a(I30
I33
I0
g129
I0
tp896
a(I35
I6
I0
g131
I0
tp897
a(I37
I33
F-0.75
g133
I0
tp898
a(I38
I6
F-0.75
g135
I0
tp899
a(I41
I52
I0
g32
I0
tp900
a(I58
I2
F-0.25
g451
I0
tp901
a(I59
I75
I0
g138
I0
tp902
a(I59
I95
F0.125
g140
I0
tp903
a(I59
I95
F0.25
g142
I0
tp904
a(I59
I95
I0
g38
I0
tp905
a(I59
I95
I0
g145
I0
tp906
as(S'smart'
p907
tp908
(lp909
(I3
I3
F-0.25
S'modern'
p910
I10
tp911
a(I7
I1
F0.125
S'first'
p912
I10
tp913
a(I29
I37
F0.125
S'first'
p914
I10
tp915
a(I32
I5
F0.125
S'first'
p916
I10
tp917
a(I32
I14
I0
S'android'
p918
I10
tp919
a(I37
I31
I0
S'different'
p920
I10
tp921
a(I40
I38
F0.125
S'first'
p922
I10
tp923
a(I44
I86
F0.125
S'first'
p924
I10
tp925
a(I56
I0
F0.375
S'newer'
p926
I10
tp927
as(S'optimus'
p928
S'v'
p929
tp930
(lp931
(I0
I3
F0.25
g169
I0
tp932
a(I0
I9
I0
g171
I0
tp933
a(I0
I9
I0
g173
I0
tp934
a(I0
I48
I0
g175
I0
tp935
a(I30
I21
F-0.625
g163
I0
tp936
a(I40
I27
I0
g178
I0
tp937
a(I53
I17
F0.375
g180
I0
tp938
a(I59
I18
I0
g182
I0
tp939
a(I59
I109
I0
g184
I0
tp940
as(S'samsung'
p941
S'galaxy'
p942
tp943
(lp944
(I12
I63
I0
S'large'
p945
I0
tp946
a(I12
I17
F0.125
S'able'
p947
I7
tp948
a(I59
I10
F1.0
S'good'
p949
I7
tp950
a(I12
I63
I0
g945
I0
tp951
as(S'internal'
p952
S'memory'
p953
tp954
(lp955
(I0
I25
I0
g634
I0
tp956
a(I5
I0
I0
g640
I0
tp957
a(I5
I0
I0
g642
I0
tp958
a(I5
I4
I0
g644
I0
tp959
a(I5
I12
I0
g646
I0
tp960
a(I5
I16
F-0.25
g648
I0
tp961
a(I5
I16
I0
g650
I0
tp962
a(I5
I18
F-0.25
g652
I0
tp963
a(I5
I18
I0
g654
I0
tp964
a(I5
I27
F0.375
g656
I0
tp965
a(I5
I27
I0
g658
I0
tp966
a(I13
I3
F-0.375
g665
I0
tp967
a(I13
I3
I0
g667
I0
tp968
a(I14
I44
I0
g671
I0
tp969
a(I14
I44
I0
g673
I0
tp970
a(I15
I2
I0
g675
I0
tp971
a(I15
I7
I0
g677
I0
tp972
a(I15
I7
I0
g679
I0
tp973
a(I16
I4
I0
g681
I0
tp974
a(I16
I4
I0
g683
I0
tp975
a(I16
I4
F-0.625
g685
I0
tp976
a(I18
I18
I0
g687
I0
tp977
a(I18
I21
I0
g689
I0
tp978
a(I18
I21
F0.375
g691
I0
tp979
a(I18
I34
I0
g551
I0
tp980
a(I18
I34
I0
g555
I0
tp981
a(I18
I34
I0
g559
I0
tp982
a(I18
I34
F0.625
g561
I0
tp983
a(I18
I43
I0
g563
I0
tp984
a(I18
I49
I0
g60
I0
tp985
a(I18
I79
F-0.375
g566
I0
tp986
a(I18
I81
I0
g702
I0
tp987
a(I22
I42
I0
g705
I0
tp988
a(I22
I52
I0
g613
I0
tp989
a(I23
I10
I0
g708
I0
tp990
a(I23
I18
I0
g710
I0
tp991
a(I23
I18
I0
g712
I0
tp992
a(I29
I28
I0
g726
I0
tp993
a(I33
I9
I0
g728
I0
tp994
a(I37
I34
I0
g733
I0
tp995
a(I41
I2
I0
g572
I0
tp996
a(I41
I52
I0
g574
I0
tp997
a(I44
I12
I0
g738
I0
tp998
a(I49
I16
I0
g744
I0
tp999
a(I49
I16
F0.5
g746
I0
tp1000
a(I49
I16
I0
g748
I0
tp1001
a(I49
I16
I0
g750
I0
tp1002
a(I58
I4
I0
g763
I0
tp1003
a(I58
I19
I0
g586
I0
tp1004
a(I58
I19
I0
g588
I0
tp1005
a(I59
I16
I0
g775
I0
tp1006
a(I59
I86
I0
g777
I0
tp1007
a(I59
I94
I0
g590
I0
tp1008
a(I59
I95
I0
g592
I0
tp1009
a(I59
I96
I0
g781
I0
tp1010
a(I59
I113
F-0.75
g594
I0
tp1011
a(I59
I113
I0
g596
I0
tp1012
a(I59
I115
I0
g785
I0
tp1013
a(I59
I147
I0
g788
I0
tp1014
a(I59
I147
I0
g790
I0
tp1015
a(I59
I158
I0
g792
I0
tp1016
as(S'a'
p1017
S'sd'
p1018
S'card'
p1019
tp1020
(lp1021
(I6
I0
F-0.625
g16
I0
tp1022
a(I17
I2
F0.5
g492
I0
tp1023
a(I18
I35
F-0.5
g494
I0
tp1024
a(I18
I35
F-0.375
g496
I0
tp1025
a(I18
I36
I0
g18
I0
tp1026
a(I18
I49
F-0.125
g20
I0
tp1027
a(I18
I79
I0
g22
I0
tp1028
a(I22
I11
F-0.75
g24
I0
tp1029
a(I22
I32
I0
g516
I0
tp1030
a(I22
I52
I0
g518
I0
tp1031
a(I22
I63
F0.5
g26
I0
tp1032
a(I24
I29
F0.375
g28
I0
tp1033
a(I35
I14
I0
g30
I0
tp1034
a(I41
I52
I0
g32
I0
tp1035
a(I59
I76
I0
g34
I0
tp1036
a(I59
I76
I0
g36
I0
tp1037
a(I59
I95
I0
g38
I0
tp1038
a(I59
I170
I0
g40
I0
tp1039
a(I59
I170
F0.5
g42
I0
tp1040
as(S'speaker'
p1041
tp1042
(lp1043
(I5
I95
F0.375
S'loud'
p1044
I8
tp1045
a(I14
I33
F-0.25
S'disappointing'
p1046
I8
tp1047
a(I26
I25
F1.0
S'better'
p1048
I8
tp1049
a(I59
I93
F0.875
S'music'
p1050
I8
tp1051
as(S'dual'
p1052
S'core'
p1053
S'processor'
p1054
tp1055
(lp1056
(I23
I1
F0.25
S'powerful'
p1057
I0
tp1058
a(I25
I20
I0
S'fast'
p1059
I0
tp1060
a(I26
I4
I0
S'faster'
p1061
I0
tp1062
a(I26
I4
F-0.75
S'single'
p1063
I0
tp1064
a(I25
I20
I0
g1059
I0
tp1065
a(I26
I4
I0
g1061
I0
tp1066
a(I26
I4
F-0.75
g1063
I0
tp1067
a(I49
I1
F0.25
S'responsive'
p1068
I0
tp1069
as(S'lot'
p1070
S'of'
p1071
S'apps'
p1072
tp1073
(lp1074
(I4
I13
I0
S'install'
p1075
I0
tp1076
a(I53
I31
I0
S'adequate'
p1077
I0
tp1078
a(I59
I75
I0
g138
I0
tp1079
as(S'for'
p1080
S'virgin'
p1081
S'mobile'
p1082
tp1083
(lp1084
(I7
I9
F-0.125
S'slow'
p1085
I0
tp1086
a(I15
I21
I0
S'mobile'
p1087
I0
tp1088
a(I35
I40
F0.125
S'able'
p1089
I0
tp1090
as(S'great'
p1091
S'battery'
p1092
S'life'
p1093
tp1094
(lp1095
(I0
I9
I0
S'great'
p1096
I0
tp1097
a(I5
I43
I0
S'great'
p1098
I0
tp1099
a(I5
I77
F1.0
S'good'
p1100
I0
tp1101
a(I11
I26
I0
S'great'
p1102
I0
tp1103
a(I14
I39
I0
S'great'
p1104
I0
tp1105
a(I17
I5
I0
S'great'
p1106
I0
tp1107
a(I17
I5
F0.5
S'strong'
p1108
I0
tp1109
a(I18
I94
I0
S'great'
p1110
I0
tp1111
a(I26
I10
I0
S'great'
p1112
I0
tp1113
a(I26
I10
F0.625
S'easy'
p1114
I0
tp1115
a(I26
I29
I0
S'great'
p1116
I0
tp1117
a(I31
I9
I0
S'great'
p1118
I0
tp1119
a(I34
I3
I0
S'great'
p1120
I0
tp1121
a(I35
I83
I0
S'great'
p1122
I0
tp1123
a(I37
I24
I0
S'great'
p1124
I0
tp1125
a(I40
I49
I0
S'great'
p1126
I0
tp1127
a(I0
I9
I0
g1096
I0
tp1128
a(I5
I43
I0
g1098
I0
tp1129
a(I5
I77
F1.0
g1100
I0
tp1130
a(I11
I26
I0
g1102
I0
tp1131
a(I14
I39
I0
g1104
I0
tp1132
a(I17
I5
I0
g1106
I0
tp1133
a(I17
I5
F0.5
g1108
I0
tp1134
a(I18
I94
I0
g1110
I0
tp1135
a(I26
I10
I0
g1112
I0
tp1136
a(I26
I10
F0.625
g1114
I0
tp1137
a(I26
I29
I0
g1116
I0
tp1138
a(I31
I9
I0
g1118
I0
tp1139
a(I34
I3
I0
g1120
I0
tp1140
a(I35
I83
I0
g1122
I0
tp1141
a(I37
I24
I0
g1124
I0
tp1142
a(I40
I49
I0
g1126
I0
tp1143
a(I0
I9
I0
g1096
I0
tp1144
a(I11
I26
I0
g1102
I0
tp1145
a(I17
I5
I0
g1106
I0
tp1146
a(I18
I94
I0
g1110
I0
tp1147
a(I34
I3
I0
g1120
I0
tp1148
a(I47
I9
I0
S'great'
p1149
I0
tp1150
a(I0
I9
I0
g1096
I1
tp1151
a(I0
I36
F1.0
S'good'
p1152
I1
tp1153
a(I4
I12
F1.0
S'good'
p1154
I1
tp1155
a(I4
I12
F0.625
S'easy'
p1156
I1
tp1157
a(I5
I29
F-0.25
S'epic'
p1158
I1
tp1159
a(I5
I43
I0
g1098
I1
tp1160
a(I5
I77
F1.0
g1100
I1
tp1161
a(I8
I10
F-0.5
S'poor'
p1162
I1
tp1163
a(I8
I22
F1.0
S'good'
p1164
I1
tp1165
a(I11
I26
I0
g1102
I1
tp1166
a(I11
I29
I0
S'automatic'
p1167
I1
tp1168
a(I11
I29
F-0.25
S'low'
p1169
I1
tp1170
a(I11
I29
F0.125
S'able'
p1171
I1
tp1172
a(I12
I51
F1.0
S'good'
p1173
I1
tp1174
a(I12
I51
F-0.375
S'smaller'
p1175
I1
tp1176
a(I14
I39
I0
g1104
I1
tp1177
a(I17
I5
I0
g1106
I1
tp1178
a(I17
I5
F0.5
g1108
I1
tp1179
a(I18
I24
F1.0
S'good'
p1180
I1
tp1181
a(I18
I72
F-0.75
S'sad'
p1182
I1
tp1183
a(I18
I73
F0.625
S'superior'
p1184
I1
tp1185
a(I18
I94
I0
g1110
I1
tp1186
a(I21
I14
F0.125
S'impressive'
p1187
I1
tp1188
a(I21
I38
F-0.5
S'long'
p1189
I1
tp1190
a(I21
I38
F-0.125
S'slow'
p1191
I1
tp1192
a(I25
I7
I0
S'most'
p1193
I1
tp1194
a(I26
I10
I0
g1112
I1
tp1195
a(I26
I10
F0.625
g1114
I1
tp1196
a(I26
I28
F-0.625
S'light'
p1197
I1
tp1198
a(I26
I28
I0
S'phenomenal'
p1199
I1
tp1200
a(I26
I29
I0
g1116
I1
tp1201
a(I31
I9
I0
g1118
I1
tp1202
a(I31
I23
I0
S'incredible'
p1203
I1
tp1204
a(I34
I3
I0
g1120
I1
tp1205
a(I35
I83
I0
g1122
I1
tp1206
a(I37
I24
I0
g1124
I1
tp1207
a(I40
I49
I0
g1126
I1
tp1208
a(I43
I27
F-0.75
S'short'
p1209
I1
tp1210
a(I44
I96
F1.0
S'good'
p1211
I1
tp1212
a(I53
I3
I0
S'incredible'
p1213
I1
tp1214
a(I56
I17
I0
g73
I1
tp1215
a(I56
I23
F-0.5
S'longer'
p1216
I1
tp1217
a(I56
I23
I0
S'quick'
p1218
I1
tp1219
a(I57
I0
F1.0
S'good'
p1220
I1
tp1221
a(I59
I111
F1.0
S'good'
p1222
I1
tp1223
a(I59
I133
I0
S'most'
p1224
I1
tp1225
a(I59
I133
F-0.25
S'disappointing'
p1226
I1
tp1227
a(I59
I137
F-0.5
S'poor'
p1228
I1
tp1229
a(I59
I140
I0
S'vaunted'
p1230
I1
tp1231
a(I0
I36
F1.0
g1152
I19
tp1232
a(I4
I12
F1.0
g1154
I19
tp1233
a(I4
I12
F0.625
g1156
I19
tp1234
a(I5
I43
I0
g1098
I19
tp1235
a(I5
I77
F1.0
g1100
I19
tp1236
a(I8
I22
F1.0
g1164
I19
tp1237
a(I11
I29
F0.125
g1171
I19
tp1238
a(I12
I51
F1.0
g1173
I19
tp1239
a(I12
I51
F-0.375
g1175
I19
tp1240
a(I14
I39
I0
g1104
I19
tp1241
a(I17
I5
F0.5
g1108
I19
tp1242
a(I18
I24
F1.0
g1180
I19
tp1243
a(I18
I72
F-0.75
g1182
I19
tp1244
a(I18
I73
F0.625
g1184
I19
tp1245
a(I21
I14
F0.125
g1187
I19
tp1246
a(I21
I38
F-0.125
g1191
I19
tp1247
a(I25
I7
I0
g1193
I19
tp1248
a(I26
I10
I0
g1112
I19
tp1249
a(I26
I10
F0.625
g1114
I19
tp1250
a(I26
I28
I0
g1199
I19
tp1251
a(I26
I29
I0
g1116
I19
tp1252
a(I30
I4
F0.625
S'easier'
p1253
I19
tp1254
a(I31
I9
I0
g1118
I19
tp1255
a(I31
I23
I0
g1203
I19
tp1256
a(I35
I83
I0
g1122
I19
tp1257
a(I37
I24
I0
g1124
I19
tp1258
a(I40
I49
I0
g1126
I19
tp1259
a(I44
I96
F1.0
g1211
I19
tp1260
a(I53
I3
I0
g1213
I19
tp1261
a(I56
I5
F0.625
S'easy'
p1262
I19
tp1263
a(I56
I23
F-0.5
g1216
I19
tp1264
a(I56
I23
I0
g1218
I19
tp1265
a(I59
I111
F1.0
g1222
I19
tp1266
a(I0
I9
I0
g1096
I15
tp1267
a(I5
I29
F-0.25
g1158
I15
tp1268
a(I8
I10
F-0.5
g1162
I15
tp1269
a(I11
I26
I0
g1102
I15
tp1270
a(I11
I29
I0
g1167
I15
tp1271
a(I11
I29
F-0.25
g1169
I15
tp1272
a(I13
I14
F0.625
S'removable'
p1273
I15
tp1274
a(I17
I5
I0
g1106
I15
tp1275
a(I18
I47
I0
S'many'
p1276
I15
tp1277
a(I18
I94
I0
g1110
I15
tp1278
a(I21
I38
F-0.5
g1189
I15
tp1279
a(I23
I5
F-0.25
S'low'
p1280
I15
tp1281
a(I26
I28
F-0.625
g1197
I15
tp1282
a(I31
I2
F0.25
S'larger'
p1283
I15
tp1284
a(I34
I3
I0
g1120
I15
tp1285
a(I37
I2
F0.125
S'last'
p1286
I15
tp1287
a(I40
I5
I0
S'big'
p1288
I15
tp1289
a(I40
I44
F0.375
S'standby'
p1290
I15
tp1291
a(I40
I44
F-0.625
S'free'
p1292
I15
tp1293
a(I40
I44
F0.375
S'new'
p1294
I15
tp1295
a(I40
I44
I0
S'same'
p1296
I15
tp1297
a(I43
I27
F-0.75
g1209
I15
tp1298
a(I43
I29
F-0.5
S'longer'
p1299
I15
tp1300
a(I46
I6
F0.375
S'confident'
p1301
I15
tp1302
a(I47
I9
I0
g1149
I15
tp1303
a(I48
I1
F0.125
S'last'
p1304
I15
tp1305
a(I49
I4
I0
S'full'
p1306
I15
tp1307
a(I56
I17
I0
g73
I15
tp1308
a(I57
I0
F1.0
g1220
I15
tp1309
a(I59
I133
I0
g1224
I15
tp1310
a(I59
I133
F-0.25
g1226
I15
tp1311
a(I59
I135
F-0.75
S'difficult'
p1312
I15
tp1313
a(I59
I135
F-0.375
S'smaller'
p1314
I15
tp1315
a(I59
I137
F-0.5
g1228
I15
tp1316
a(I59
I140
I0
g1230
I15
tp1317
as(S'internal'
p1318
S'storage'
p1319
tp1320
(lp1321
(I5
I53
I0
S'internal'
p1322
I0
tp1323
a(I5
I53
I0
S'ample'
p1324
I0
tp1325
a(I5
I53
I0
S'internal'
p1326
I0
tp1327
a(I5
I53
F-0.25
S'low'
p1328
I0
tp1329
a(I9
I1
F-0.75
S'little'
p1330
I0
tp1331
a(I9
I1
I0
S'internal'
p1332
I0
tp1333
a(I22
I13
F-0.75
S'sufficient'
p1334
I0
tp1335
a(I22
I13
I0
S'internal'
p1336
I0
tp1337
a(I23
I15
I0
S'minimal'
p1338
I0
tp1339
a(I35
I13
I0
S'internal'
p1340
I0
tp1341
a(I35
I36
I0
S'internal'
p1342
I0
tp1343
a(I40
I11
I0
S'internal'
p1344
I0
tp1345
a(I40
I15
I0
S'internal'
p1346
I0
tp1347
a(I40
I16
I0
S'internal'
p1348
I0
tp1349
a(I40
I36
I0
S'internal'
p1350
I0
tp1351
a(I45
I8
I0
S'internal'
p1352
I0
tp1353
a(I49
I60
I0
S'internal'
p1354
I0
tp1355
a(I51
I15
I0
S'internal'
p1356
I0
tp1357
a(I53
I30
I0
S'internal'
p1358
I0
tp1359
a(I58
I54
I0
S'internal'
p1360
I0
tp1361
a(I59
I73
I0
S'internal'
p1362
I0
tp1363
a(I59
I75
I0
S'internal'
p1364
I0
tp1365
a(I59
I80
I0
S'internal'
p1366
I0
tp1367
a(I59
I80
F-0.25
S'low'
p1368
I0
tp1369
a(I5
I53
I0
g1322
I1
tp1370
a(I5
I53
I0
g1324
I1
tp1371
a(I5
I53
I0
g1326
I1
tp1372
a(I5
I53
F-0.25
g1328
I1
tp1373
a(I7
I9
F0.125
S'enough'
p1374
I1
tp1375
a(I7
I9
I0
S'more'
p1376
I1
tp1377
a(I9
I1
F-0.75
g1330
I1
tp1378
a(I9
I1
I0
g1332
I1
tp1379
a(I14
I4
F1.0
S'good'
p1380
I1
tp1381
a(I14
I4
F-0.75
S'sad'
p1382
I1
tp1383
a(I14
I38
F-0.75
S'little'
p1384
I1
tp1385
a(I18
I9
I0
S'quick'
p1386
I1
tp1387
a(I18
I19
F0.5
S'drive'
p1388
I1
tp1389
a(I22
I13
F-0.75
g1334
I1
tp1390
a(I22
I13
I0
g1336
I1
tp1391
a(I23
I15
I0
g1338
I1
tp1392
a(I29
I1
I0
S'external'
p1393
I1
tp1394
a(I29
I18
I0
S'same'
p1395
I1
tp1396
a(I29
I18
I0
S'adequate'
p1397
I1
tp1398
a(I30
I33
F-0.25
S'low'
p1399
I1
tp1400
a(I35
I13
I0
g1340
I1
tp1401
a(I35
I36
I0
g1342
I1
tp1402
a(I35
I90
F0.625
S'aware'
p1403
I1
tp1404
a(I40
I11
I0
g1344
I1
tp1405
a(I40
I15
I0
g1346
I1
tp1406
a(I40
I16
I0
g1348
I1
tp1407
a(I40
I36
I0
g1350
I1
tp1408
a(I45
I8
I0
g1352
I1
tp1409
a(I49
I60
I0
g1354
I1
tp1410
a(I51
I15
I0
g1356
I1
tp1411
a(I53
I30
I0
g1358
I1
tp1412
a(I58
I54
I0
g1360
I1
tp1413
a(I59
I73
I0
g1362
I1
tp1414
a(I59
I75
I0
g1364
I1
tp1415
a(I59
I80
I0
g1366
I1
tp1416
a(I59
I80
F-0.25
g1368
I1
tp1417
as(S'on'
p1418
S'virgin'
p1419
S'mobile'
p1420
tp1421
(lp1422
(I0
I41
F0.375
S'available'
p1423
I0
tp1424
a(I3
I5
F-0.625
S'other'
p1425
I0
tp1426
a(I7
I9
F-0.125
g1085
I0
tp1427
a(I15
I21
I0
g1087
I0
tp1428
a(I23
I4
I0
S'few'
p1429
I0
tp1430
a(I35
I40
F0.125
g1089
I0
tp1431
a(I41
I48
I0
S'few'
p1432
I0
tp1433
a(I44
I83
F-0.375
S'top'
p1434
I0
tp1435
a(I0
I23
F0.625
S'aware'
p1436
I0
tp1437
a(I0
I41
F0.375
g1423
I0
tp1438
a(I3
I5
F-0.625
g1425
I0
tp1439
a(I7
I9
F-0.125
g1085
I0
tp1440
a(I15
I21
I0
g1087
I0
tp1441
a(I23
I4
I0
g1429
I0
tp1442
a(I31
I20
F1.0
S'good'
p1443
I0
tp1444
a(I35
I40
F0.125
g1089
I0
tp1445
a(I41
I48
I0
g1432
I0
tp1446
a(I44
I83
F-0.375
g1434
I0
tp1447
a(I0
I23
F0.625
g1436
I0
tp1448
a(I0
I41
F0.375
g1423
I0
tp1449
a(I3
I5
F-0.625
g1425
I0
tp1450
a(I7
I9
F-0.125
g1085
I0
tp1451
a(I15
I21
I0
g1087
I0
tp1452
a(I22
I29
F0.625
S'acceptable'
p1453
I0
tp1454
a(I23
I4
I0
g1429
I0
tp1455
a(I31
I15
F1.0
S'good'
p1456
I0
tp1457
a(I31
I20
F1.0
g1443
I0
tp1458
a(I35
I40
F0.125
g1089
I0
tp1459
a(I40
I41
F-0.25
S'cheaper'
p1460
I0
tp1461
a(I41
I48
I0
g1432
I0
tp1462
a(I44
I83
F-0.375
g1434
I0
tp1463
a(I59
I83
F0.125
S'first'
p1464
I0
tp1465
as(S'evo'
p1466
g929
tp1467
(lp1468
(I23
I5
F0.875
S'lucky'
p1469
I0
tp1470
as.