(dp0
(S'android'
p1
tp2
(lp3
(I16
I3
I0
S'latest'
p4
I0
tp5
a(I30
I64
F-0.25
S'past'
p6
I0
tp7
as(S'battery'
p8
S'life'
p9
tp10
(lp11
(I14
I1
I0
S'great'
p12
I1
tp13
a(I30
I40
F1.0
S'best'
p14
I1
tp15
a(I32
I4
F-0.5
S'long'
p16
I1
tp17
a(I14
I1
I0
g12
I15
tp18
a(I30
I40
F1.0
g14
I15
tp19
a(I30
I64
I0
S'more'
p20
I15
tp21
a(I32
I4
F-0.5
g16
I15
tp22
a(I39
I0
F-0.875
S'worst'
p23
I15
tp24
a(I46
I2
F0.375
S'new'
p25
I15
tp26
as(S'venezuela'
p27
tp28
(lp29
(I1
I3
F0.125
S'digital'
p30
I0
tp31
a(I2
I5
I0
S'efficient'
p32
I0
tp33
as(S's3'
p34
S'mini'
p35
tp36
(lp37
(I30
I22
I0
S'older'
p38
I0
tp39
a(I30
I22
F0.625
S'easy'
p40
I0
tp41
a(I30
I23
I0
S'slim'
p42
I0
tp43
as(S'apps'
p44
tp45
(lp46
(I0
I2
F0.625
S'easy'
p47
I0
tp48
a(I0
I7
F0.375
S'available'
p49
I0
tp50
a(I27
I5
F0.625
S'necessary'
p51
I0
tp52
a(I30
I47
I0
S'downloaded'
p53
I0
tp54
a(I30
I56
I0
S'few'
p55
I0
tp56
a(I30
I57
I0
S'more'
p57
I0
tp58
a(I30
I57
I0
S'later'
p59
I0
tp60
a(I39
I3
I0
S'unnecessary'
p61
I0
tp62
a(I39
I3
I0
S'slower'
p63
I0
tp64
as(S's4'
p65
S'mini'
p66
tp67
(lp68
(I11
I7
I0
S'great'
p69
I0
tp70
a(I11
I7
I0
g69
I13
tp71
a(I23
I0
F-0.125
S'super'
p72
I13
tp73
a(I23
I0
I0
S'great'
p74
I13
tp75
a(I30
I31
F-0.625
S'free'
p76
I13
tp77
a(I43
I9
F1.0
S'best'
p78
I13
tp79
as(S'samsung'
p80
S'galaxy'
p81
tp82
(lp83
(I30
I27
F0.375
S'new'
p84
I0
tp85
a(I30
I27
F0.375
g84
I7
tp86
a(I32
I9
F0.25
S'original'
p87
I7
tp88
as(S'sim'
p89
S'card'
p90
tp91
(lp92
(I5
I5
F-0.125
S'mine'
p93
I0
tp94
a(I19
I8
F0.625
S'perfect'
p95
I0
tp96
a(I30
I24
I0
S'old'
p97
I0
tp98
a(I30
I24
I0
S'standard'
p99
I0
tp100
a(I30
I27
I0
S'such'
p101
I0
tp102
as.