(dp0
(S'battery'
p1
S'life'
p2
tp3
(lp4
(I3
I2
I0
S'great'
p5
I1
tp6
a(I3
I2
F-0.625
S'light'
p7
I1
tp8
a(I8
I1
F0.125
S'first'
p9
I1
tp10
a(I8
I1
F-0.5
S'less'
p11
I1
tp12
a(I34
I21
F1.0
S'good'
p13
I1
tp14
a(I4
I1
F-0.625
S'other'
p15
I15
tp16
a(I8
I1
F0.125
g9
I15
tp17
a(I34
I16
F1.0
S'good'
p18
I15
tp19
a(I34
I21
F1.0
g13
I15
tp20
as(S's4'
p21
S'mini'
p22
tp23
(lp24
(I20
I4
F1.0
S'good'
p25
I0
tp26
a(I34
I33
F-0.375
S'smaller'
p27
I0
tp28
a(I50
I2
F0.25
S'original'
p29
I0
tp30
a(I20
I4
F1.0
g25
I13
tp31
as(S'perfect'
p32
S'size'
p33
tp34
(lp35
(I14
I1
F0.625
S'perfect'
p36
I2
tp37
a(I27
I1
F0.625
S'perfect'
p38
I2
tp39
a(I38
I1
F0.625
S'perfect'
p40
I2
tp41
a(I40
I1
F0.625
S'perfect'
p42
I2
tp43
as(S'apps'
p44
tp45
(lp46
(I3
I1
F0.375
S'available'
p47
I0
tp48
a(I19
I2
I0
S'different'
p49
I0
tp50
a(I20
I0
I0
S'more'
p51
I0
tp52
a(I21
I10
F-0.75
S'stupid'
p53
I0
tp54
a(I29
I13
I0
S'different'
p55
I0
tp56
a(I49
I17
F0.375
S'available'
p57
I0
tp58
as(S'samsung'
p59
tp60
(lp61
(I10
I9
I0
S'next'
p62
I7
tp63
a(I10
I22
I0
S'useful'
p64
I7
tp65
a(I20
I4
F-0.625
S'green'
p66
I7
tp67
a(I21
I10
F-0.75
S'single'
p68
I7
tp69
as(S'camera'
p70
tp71
(lp72
(I3
I0
F1.0
S'good'
p73
I1
tp74
a(I4
I2
F1.0
S'good'
p75
I1
tp76
a(I19
I1
I0
S'fast'
p77
I1
tp78
a(I19
I1
I0
S'great'
p79
I1
tp80
a(I29
I5
I0
S'few'
p81
I1
tp82
a(I43
I6
I0
S'incredible'
p83
I1
tp84
as.