(dp0
(S'little'
p1
S'slow'
p2
tp3
(lp4
(I2
I0
F-0.75
S'little'
p5
I1
tp6
as(S'sim'
p7
S'card'
p8
tp9
(lp10
(I7
I12
I0
S'different'
p11
I0
tp12
a(I7
I17
F0.375
S'new'
p13
I0
tp14
a(I7
I17
F1.0
S'good'
p15
I0
tp16
a(I11
I3
F-0.5
S'sure'
p17
I0
tp18
a(I15
I7
F1.0
S'good'
p19
I0
tp20
a(I15
I7
F-0.625
S'bad'
p21
I0
tp22
as.