(dp0
(S'qwerty'
p1
S'keyboard'
p2
tp3
(lp4
(I5
I31
I0
S'physical'
p5
I0
tp6
a(I5
I34
F0.875
S'nice'
p7
I0
tp8
a(I5
I42
I0
S'physical'
p9
I0
tp10
a(I6
I62
I0
S'numeric'
p11
I0
tp12
a(I6
I62
F0.625
S'easier'
p13
I0
tp14
a(I5
I31
I0
g5
I0
tp15
a(I5
I42
I0
g9
I0
tp16
a(I6
I62
F0.625
g13
I0
tp17
as(S'sparq'
p18
tp19
(lp20
(I1
I19
F0.375
S'new'
p21
I0
tp22
a(I5
I45
F0.25
S'original'
p23
I0
tp24
a(I5
I69
F0.125
S'first'
p25
I0
tp26
a(I5
I69
F-0.125
S'behold'
p27
I0
tp28
a(I5
I69
I0
S'more'
p29
I0
tp30
a(I6
I0
F0.25
S'original'
p31
I0
tp32
a(I6
I89
F0.375
S'new'
p33
I0
tp34
a(I6
I114
I0
S'sensitive'
p35
I0
tp36
a(I6
I114
I0
S'old'
p37
I0
tp38
as(S'music'
p39
S'player'
p40
tp41
(lp42
(I6
I33
F0.875
S'music'
p43
I0
tp44
a(I6
I55
F0.875
S'music'
p45
I0
tp46
a(I6
I65
F-0.625
S'useless'
p47
I0
tp48
as(S'battery'
p49
tp50
(lp51
(I5
I90
F-0.25
S'low'
p52
I15
tp53
a(I6
I89
F0.375
S'new'
p54
I15
tp55
a(I10
I24
F1.0
S'better'
p56
I15
tp57
as(S'texting'
p58
tp59
(lp60
(I0
I20
I0
S'big'
p61
I0
tp62
a(I0
I36
I0
S'normal'
p63
I0
tp64
a(I5
I58
I0
S'great'
p65
I0
tp66
a(I5
I58
I0
S'basic'
p67
I0
tp68
as(S'text'
p69
tp70
(lp71
(I0
I17
F-0.5
S'long'
p72
I18
tp73
a(I5
I105
F-0.5
S'power'
p74
I18
tp75
a(I5
I109
F0.125
S'able'
p76
I18
tp77
a(I5
I109
F-0.375
S'simple'
p78
I18
tp79
a(I6
I41
F-0.5
S'long'
p80
I18
tp81
a(I6
I44
F-0.5
S'longer'
p82
I18
tp83
a(I10
I3
F-0.625
S'other'
p84
I18
tp85
as(S'keys'
p86
tp87
(lp88
(I5
I35
I0
S'sensitive'
p89
I9
tp90
a(I5
I35
I0
S'sensitive'
p91
I9
tp92
a(I6
I18
F0.375
S'tight'
p93
I9
tp94
a(I6
I18
F-0.875
S'hard'
p95
I9
tp96
a(I6
I59
F-0.375
S'small'
p97
I9
tp98
a(I6
I113
I0
S'plastic'
p99
I9
tp100
as(S'pocket'
p101
tp102
(lp103
(I5
I20
I0
S'dial'
p104
I17
tp105
a(I5
I22
F0.375
S'tight'
p106
I17
tp107
a(I5
I48
I0
S'dial'
p108
I17
tp109
a(I5
I83
F0.375
S'tight'
p110
I17
tp111
as(S'calls'
p112
tp113
(lp114
(I6
I24
I0
S'more'
p115
I0
tp116
as(S'sim'
p117
S'card'
p118
tp119
(lp120
(I1
I5
F0.625
S'easy'
p121
I0
tp122
a(I6
I8
I0
S'least'
p123
I0
tp124
a(I6
I8
F1.0
S'good'
p125
I0
tp126
as(S'slide'
p127
S'out'
p128
S'keyboard'
p129
tp130
(lp131
(I5
I34
F0.875
g7
I0
tp132
a(I6
I51
F0.875
S'nice'
p133
I0
tp134
a(I6
I51
I0
S'sized'
p135
I0
tp136
a(I6
I51
F0.875
g133
I6
tp137
a(I6
I51
I0
g135
I6
tp138
a(I0
I51
I0
S'handy'
p139
I2
tp140
a(I1
I5
F1.0
S'good'
p141
I2
tp142
a(I1
I5
F0.625
S'easy'
p143
I2
tp144
a(I2
I39
F0.625
S'easier'
p145
I2
tp146
a(I5
I9
F0.125
S'last'
p147
I2
tp148
a(I5
I15
F0.625
S'easy'
p149
I2
tp150
a(I5
I25
I0
S'internal'
p151
I2
tp152
a(I5
I34
F0.875
g7
I2
tp153
a(I5
I46
F1.0
S'better'
p154
I2
tp155
a(I5
I81
I0
S'least'
p156
I2
tp157
a(I5
I92
F0.625
S'easy'
p158
I2
tp159
a(I6
I62
I0
g11
I2
tp160
a(I7
I1
F0.625
S'easy'
p161
I2
tp162
a(I7
I1
F-0.75
S'uncomfortable'
p163
I2
tp164
as(S'camera'
p165
tp166
(lp167
(I3
I3
F-0.375
S'small'
p168
I1
tp169
a(I5
I26
F1.0
S'good'
p170
I1
tp171
as(S'flip'
p172
tp173
(lp174
(I5
I108
F-0.25
S'inexpensive'
p175
I4
tp176
a(I6
I15
F0.75
S'classic'
p177
I4
tp178
a(I6
I24
I0
S'old'
p179
I4
tp180
a(I6
I55
I0
S'basic'
p181
I4
tp182
a(I6
I72
F-0.25
S'cheaper'
p183
I4
tp184
a(I10
I6
F0.5
S'advanced'
p185
I4
tp186
as.