(dp0
(S'evo'
p1
S'design'
p2
tp3
(lp4
(I20
I0
F0.875
S'nice'
p5
tp6
as(S'problem'
p7
tp8
(lp9
(I10
I1
F0.25
S'bigger'
p10
tp11
a(I151
I1
I0
S'only'
p12
tp13
a(I224
I0
I0
S'only'
p14
tp15
a(I236
I15
I0
S'common'
p16
tp17
a(I240
I2
I0
S'big'
p18
tp19
as(S'love'
p20
S'love'
p21
tp22
(lp23
(I130
I0
F-0.375
S'crazy'
p24
tp25
a(I211
I0
F1.0
S'love'
p26
tp27
a(I225
I7
F1.0
S'love'
p28
tp29
as(S'battery'
p30
S'life'
p31
tp32
(lp33
(I4
I0
F1.0
S'good'
p34
tp35
a(I37
I2
F-0.75
S'short'
p36
tp37
a(I63
I3
F1.0
S'good'
p38
tp39
a(I73
I0
F0.125
S'last'
p40
tp41
a(I151
I3
F-0.25
S'battery'
p42
tp43
a(I203
I1
F1.0
S'good'
p44
tp45
a(I268
I0
F-0.625
S'other'
p46
tp47
a(I276
I4
I0
S'standard'
p48
tp49
a(I276
I5
F1.0
S'good'
p50
tp51
a(I285
I7
F-0.625
S'bad'
p52
tp53
a(I285
I7
F1.0
S'better'
p54
tp55
a(I292
I10
I0
S'incredible'
p56
tp57
as(S'purchase'
p58
tp59
(lp60
(I8
I2
F0.375
S'new'
p61
tp62
a(I50
I2
F1.0
S'best'
p63
tp64
a(I115
I0
F1.0
S'best'
p65
tp66
a(I164
I1
I0
S'big'
p67
tp68
a(I164
I1
F1.0
S'good'
p69
tp70
a(I186
I3
F0.875
S'happy'
p71
tp72
a(I228
I0
I0
S'great'
p73
tp74
a(I228
I0
F-0.125
S'overall'
p75
tp76
a(I263
I0
F0.125
S'last'
p77
tp78
a(I298
I30
F0.75
S'worth'
p79
tp80
as(S'crystal'
p81
S'clear'
p82
tp83
(lp84
(I99
I1
I0
S'crystal'
p85
tp86
a(I298
I17
I0
S'crystal'
p87
tp88
as(S'galaxy'
p89
tp90
(lp91
(I104
I0
F1.0
S'better'
p92
tp93
a(I170
I0
F0.875
S'happy'
p94
tp95
a(I186
I1
F0.5
S'expensive'
p96
tp97
a(I281
I0
I0
S'own'
p98
tp99
a(I298
I4
F0.375
S'new'
p100
tp101
as(S'galaxy'
p102
S's2'
p103
tp104
(lp105
(I214
I8
I0
S'least'
p106
tp107
as(S'perfect'
p108
tp109
(lp110
(I211
I0
F-0.125
S'super'
p111
tp112
as(S'money'
p113
tp114
(lp115
(I47
I2
F0.75
S'worth'
p116
tp117
a(I58
I0
F0.5
S'willing'
p118
tp119
a(I225
I2
I0
S'nervous'
p120
tp121
a(I274
I0
F0.75
S'worth'
p122
tp123
a(I274
I0
F-0.5
S'less'
p124
tp125
as(S'boost'
p126
S'mobile'
p127
tp128
(lp129
(I2
I1
F1.0
S'best'
p130
tp131
a(I35
I2
F0.5
S'expensive'
p132
tp133
a(I152
I0
F0.875
S'nice'
p134
tp135
a(I152
I0
F1.0
S'good'
p136
tp137
a(I155
I1
I0
S'great'
p138
tp139
a(I175
I0
F-0.25
S'cheaper'
p140
tp141
a(I210
I2
F-0.625
S'other'
p142
tp143
a(I221
I1
F1.0
S'good'
p144
tp145
a(I301
I0
F1.0
S'best'
p146
tp147
as(S'happy'
p148
tp149
(lp150
(I263
I0
F-0.125
S'super'
p151
tp152
as(S'screen'
p153
tp154
(lp155
(I29
I0
I0
S'large'
p156
tp157
a(I57
I0
F0.25
S'bigger'
p158
tp159
a(I114
I1
I0
S'large'
p160
tp161
a(I117
I3
I0
S'large'
p162
tp163
a(I124
I3
F0.25
S'bigger'
p164
tp165
a(I124
I3
F0.5
S'clear'
p166
tp167
a(I145
I0
F1.0
S'love'
p168
tp169
a(I145
I0
I0
S'incredible'
p170
tp171
a(I153
I2
I0
S'large'
p172
tp173
a(I153
I2
F0.625
S'perfect'
p174
tp175
a(I165
I11
I0
S'same'
p176
tp177
a(I174
I2
I0
S'great'
p178
tp179
a(I180
I1
I0
S'large'
p180
tp181
a(I192
I10
F0.625
S'easy'
p182
tp183
a(I195
I1
F0.625
S'easy'
p184
tp185
a(I195
I1
I0
S'large'
p186
tp187
a(I210
I3
F0.5
S'clear'
p188
tp189
a(I212
I0
I0
S'big'
p190
tp191
a(I212
I0
F0.625
S'easy'
p192
tp193
a(I217
I0
F0.5
S'whole'
p194
tp195
a(I225
I6
F0.375
S'much'
p196
tp197
a(I225
I6
I0
S'sensitive'
p198
tp199
a(I225
I6
F0.5
S'touch'
p200
tp201
a(I225
I6
F0.625
S'easier'
p202
tp203
a(I274
I0
F0.5
S'touch'
p204
tp205
a(I276
I2
I0
S'large'
p206
tp207
a(I279
I2
I0
S'fast'
p208
tp209
a(I279
I2
F0.625
S'easy'
p210
tp211
a(I279
I2
I0
S'large'
p212
tp213
a(I288
I1
I0
S'big'
p214
tp215
a(I292
I5
I0
S'chose'
p216
tp217
a(I298
I26
I0
S'active'
p218
tp219
as(S'with'
p220
S'boost'
p221
S'mobile'
p222
tp223
(lp224
(I35
I2
F0.5
g132
tp225
a(I152
I0
F0.875
g134
tp226
a(I152
I0
F1.0
g136
tp227
a(I301
I0
F1.0
g146
tp228
as(S'service'
p229
tp230
(lp231
(I15
I1
F1.0
S'best'
p232
tp233
a(I56
I1
F0.625
S'fair'
p234
tp235
a(I56
I4
F0.625
S'fair'
p236
tp237
a(I61
I1
I0
S'great'
p238
tp239
a(I151
I2
I0
S'internet'
p240
tp241
a(I180
I3
F0.875
S'happier'
p242
tp243
a(I185
I4
F0.125
S'able'
p244
tp245
a(I185
I10
F-0.5
S'poor'
p246
tp247
a(I234
I3
F-0.5
S'poor'
p248
tp249
a(I298
I1
F0.125
S'solid'
p250
tp251
as(S'everything'
p252
tp253
(lp254
(I118
I1
I0
S'great'
p255
tp256
a(I130
I5
F0.25
S'stellar'
p257
tp258
a(I165
I8
F0.125
S'first'
p259
tp260
a(I209
I3
I0
S'more'
p261
tp262
a(I209
I4
F1.0
S'good'
p263
tp264
a(I209
I4
F0.5
S'true'
p265
tp266
a(I291
I2
F-0.5
S'long'
p267
tp268
as(S'problems'
p269
tp270
(lp271
(I52
I0
F0.625
S'major'
p272
tp273
a(I94
I0
F0.875
S'happy'
p274
tp275
a(I198
I0
I0
S'many'
p276
tp277
a(I299
I1
I0
S'such'
p278
tp279
as(S'samsung'
p280
tp281
(lp282
(I45
I0
F0.375
S'new'
p283
tp284
a(I46
I1
F0.25
S'larger'
p285
tp286
a(I47
I0
I0
S'great'
p287
tp288
a(I68
I0
F0.375
S'new'
p289
tp290
a(I95
I0
F0.375
S'new'
p291
tp292
a(I101
I4
F0.875
S'happy'
p293
tp294
a(I109
I1
F0.125
S'first'
p295
tp296
a(I109
I4
I0
S'fourth'
p297
tp298
a(I109
I4
F0.625
S'easy'
p299
tp300
a(I112
I2
F0.375
S'new'
p301
tp302
a(I230
I2
F0.125
S'last'
p303
tp304
a(I242
I1
F-0.25
S'cheaper'
p305
tp306
a(I272
I0
I0
S'old'
p307
tp308
as(S'galaxy'
p309
S's4'
p310
tp311
(lp312
(I236
I16
I0
S'active'
p313
tp314
a(I281
I0
I0
g98
tp315
as(S'cell'
p316
tp317
(lp318
(I197
I0
F0.75
S'beautiful'
p319
tp320
a(I208
I0
F1.0
S'best'
p321
tp322
a(I209
I0
I0
S'junky'
p323
tp324
a(I230
I1
F1.0
S'good'
p325
tp326
a(I234
I2
F-0.875
S'worst'
p327
tp328
a(I234
I7
I0
S'different'
p329
tp330
a(I240
I3
F0.375
S'new'
p331
tp332
a(I292
I6
I0
S'different'
p333
tp334
as(S'love'
p335
tp336
(lp337
(I130
I0
F-0.375
g24
tp338
a(I211
I0
F1.0
g26
tp339
a(I225
I7
F1.0
g28
tp340
as(S'camera'
p341
tp342
(lp343
(I1
I0
I0
S'quick'
p344
tp345
a(I4
I0
I0
S'great'
p346
tp347
a(I165
I19
I0
S'rear'
p348
tp349
a(I180
I2
I0
S'great'
p350
tp351
a(I276
I3
F1.0
S'better'
p352
tp353
a(I292
I5
F0.25
S'bigger'
p354
tp355
as(S'mobile'
p356
tp357
(lp358
(I152
I0
F1.0
g136
tp359
as(S'month'
p360
tp361
(lp362
(I122
I0
I0
S'more'
p363
tp364
a(I185
I7
F0.125
S'first'
p365
tp366
as(S'love'
p367
S'samsung'
p368
tp369
(lp370
(I47
I0
I0
g287
tp371
a(I68
I0
F0.375
g289
tp372
a(I95
I0
F0.375
g291
tp373
a(I112
I2
F0.375
g301
tp374
a(I272
I0
I0
g307
tp375
as(S'life'
p376
tp377
(lp378
(I37
I2
F-0.75
g36
tp379
a(I73
I0
F0.125
g40
tp380
a(I151
I3
F-0.25
g42
tp381
a(I268
I0
F-0.625
g46
tp382
a(I276
I5
F1.0
g50
tp383
a(I285
I7
F-0.625
g52
tp384
a(I285
I7
F1.0
g54
tp385
as(S'galaxy'
p386
S's3'
p387
tp388
(lp389
(I114
I0
I0
S'great'
p390
tp391
a(I114
I0
F0.625
S'easy'
p392
tp393
a(I298
I4
F0.375
g100
tp394
as(S'samsung'
p395
S'galaxy'
p396
S's'
p397
tp398
(lp399
(I45
I0
F0.375
g283
tp400
a(I68
I0
F0.375
g289
tp401
a(I95
I0
F0.375
g291
tp402
a(I101
I4
F0.875
g293
tp403
a(I112
I2
F0.375
g301
tp404
a(I170
I0
F0.875
g94
tp405
as(S'pictures'
p406
tp407
(lp408
(I36
I4
F0.875
S'music'
p409
tp410
a(I57
I1
F0.875
S'nice'
p411
tp412
a(I57
I1
F0.5
S'clear'
p413
tp414
a(I99
I1
I0
S'big'
p415
tp416
a(I230
I2
F1.0
S'best'
p417
tp418
a(I230
I2
F-0.125
S'super'
p419
tp420
a(I230
I2
F0.625
S'easy'
p421
tp422
as(S'features'
p423
tp424
(lp425
(I4
I0
I0
S'great'
p426
tp427
a(I18
I2
F1.0
S'better'
p428
tp429
a(I29
I0
I0
S'many'
p430
tp431
a(I29
I0
I0
S'such'
p432
tp433
a(I48
I1
I0
S'great'
p434
tp435
a(I66
I1
F-0.625
S'other'
p436
tp437
a(I77
I3
I0
S'great'
p438
tp439
a(I100
I0
I0
S'great'
p440
tp441
a(I107
I0
I0
S'few'
p442
tp443
a(I109
I1
I0
S'android'
p444
tp445
a(I117
I4
I0
S'many'
p446
tp447
a(I120
I2
I0
S'different'
p448
tp449
a(I156
I5
I0
S'awhile'
p450
tp451
a(I165
I7
I0
S'android'
p452
tp453
a(I184
I0
I0
S'many'
p454
tp455
a(I192
I4
I0
S'more'
p456
tp457
a(I214
I3
F0.25
S'favorite'
p458
tp459
a(I233
I3
I0
S'more'
p460
tp461
a(I234
I6
I0
S'great'
p462
tp463
a(I242
I1
F0.375
S'new'
p464
tp465
as(S'on'
p466
S'boost'
p467
S'mobile'
p468
tp469
(lp470
(I2
I1
F1.0
g130
tp471
a(I152
I0
F0.875
g134
tp472
a(I152
I0
F1.0
g136
tp473
a(I155
I1
I0
g138
tp474
a(I175
I0
F-0.25
g140
tp475
a(I210
I2
F-0.625
g142
tp476
a(I301
I0
F1.0
g146
tp477
as(S'great'
p478
tp479
(lp480
(I209
I3
F-0.5
S'less'
p481
tp482
a(I209
I3
F0.25
S'boost'
p483
tp484
a(I209
I3
I0
S'mobile'
p485
tp486
as(S'people'
p487
tp488
(lp489
(I39
I1
F-0.625
S'other'
p490
tp491
a(I109
I0
I0
S'many'
p492
tp493
a(I192
I9
I0
S'most'
p494
tp495
a(I214
I5
I0
S'many'
p496
tp497
a(I214
I9
F0.5
S'live'
p498
tp499
a(I235
I1
F1.0
S'good'
p500
tp501
as(S'work'
p502
tp503
(lp504
(I214
I8
I0
S'great'
p505
tp506
as(S'getting'
p507
tp508
(lp509
(I165
I22
F-0.5
S'unsuccessful'
p510
tp511
as(S'thank'
p512
tp513
(lp514
(I69
I0
F1.0
S'good'
p515
tp516
a(I249
I0
I0
S'special'
p517
tp518
a(I260
I0
F0.125
S'first'
p519
tp520
as(S'shipping'
p521
tp522
(lp523
(I45
I7
I0
S'same'
p524
tp525
a(I64
I0
I0
S'standard'
p526
tp527
a(I89
I0
F-0.5
S'upset'
p528
tp529
a(I137
I2
F-0.375
S'denial'
p530
tp531
a(I148
I1
I0
S'fast'
p532
tp533
as(S'love'
p534
S't'
p535
S'love'
p536
tp537
(lp538
(I130
I0
F-0.375
g24
tp539
a(I211
I0
F1.0
g26
tp540
a(I225
I7
F1.0
g28
tp541
as(S'android'
p542
tp543
(lp544
(I59
I2
I0
S'great'
p545
tp546
a(I101
I0
F0.125
S'first'
p547
tp548
a(I212
I0
I0
S'old'
p549
tp550
as(S'case'
p551
tp552
(lp553
(I90
I2
F-0.75
S'difficult'
p554
tp555
a(I165
I19
F-0.875
S'hard'
p556
tp557
a(I236
I16
F0.5
S'compatible'
p558
tp559
as(S'works'
p560
tp561
(lp562
(I142
I2
I0
S'great'
p563
tp564
a(I184
I1
I0
S'sprint'
p565
tp566
as(S'large'
p567
S'screen'
p568
tp569
(lp570
(I29
I0
I0
g156
tp571
a(I114
I1
I0
g160
tp572
a(I117
I3
I0
g162
tp573
a(I153
I2
I0
g172
tp574
a(I153
I2
F0.625
g174
tp575
a(I180
I1
I0
g180
tp576
a(I195
I1
F0.625
g184
tp577
a(I195
I1
I0
g186
tp578
a(I276
I2
I0
g206
tp579
a(I279
I2
I0
g208
tp580
a(I279
I2
F0.625
g210
tp581
a(I279
I2
I0
g212
tp582
as(S'boost'
p583
tp584
(lp585
(I2
I1
F1.0
g130
tp586
a(I12
I1
F0.875
S'happy'
p587
tp588
a(I35
I2
F0.5
g132
tp589
a(I45
I8
F0.125
S'sealed'
p590
tp591
a(I65
I0
F0.875
S'happy'
p592
tp593
a(I152
I0
F0.875
g134
tp594
a(I155
I1
I0
g138
tp595
a(I159
I0
F0.375
S'new'
p596
tp597
a(I175
I0
F-0.25
g140
tp598
a(I185
I11
F-0.5
S'sure'
p599
tp600
a(I210
I2
F-0.625
g142
tp601
a(I215
I4
F1.0
S'good'
p602
tp603
a(I216
I2
F-0.125
S'slow'
p604
tp605
a(I216
I2
F-0.75
S'downfall'
p606
tp607
a(I221
I1
F1.0
g144
tp608
a(I276
I3
F-0.625
S'other'
p609
tp610
a(I301
I0
F1.0
g146
tp611
as(S'samsung'
p612
S'galaxy'
p613
S's3'
p614
tp615
(lp616
(I114
I0
I0
g390
tp617
a(I114
I0
F0.625
g392
tp618
as(S'product'
p619
tp620
(lp621
(I61
I1
F1.0
S'good'
p622
tp623
a(I88
I0
F-0.125
S'super'
p624
tp625
a(I167
I1
F1.0
S'better'
p626
tp627
a(I179
I0
I0
S'great'
p628
tp629
a(I185
I0
F-0.25
S'low'
p630
tp631
a(I200
I1
F-0.75
S'wrong'
p632
tp633
a(I209
I5
I0
S'great'
p634
tp635
a(I240
I4
F0.125
S'essential'
p636
tp637
a(I240
I4
F0.625
S'sophisticated'
p638
tp639
a(I262
I2
F0.875
S'happy'
p640
tp641
a(I263
I0
I0
S'great'
p642
tp643
a(I305
I1
F0.25
S'powerful'
p644
tp645
as(S'battery'
p646
tp647
(lp648
(I4
I0
F1.0
g34
tp649
a(I48
I12
F-0.25
S'low'
p650
tp651
a(I48
I15
F0.375
S'new'
p652
tp653
a(I63
I3
F1.0
g38
tp654
a(I89
I1
F-0.625
S'wall'
p655
tp656
a(I154
I0
F0.125
S'last'
p657
tp658
a(I154
I0
F-0.5
S'long'
p659
tp660
a(I155
I0
F-0.625
S'bad'
p661
tp662
a(I165
I20
F0.375
S'extended'
p663
tp664
a(I203
I1
F1.0
g44
tp665
a(I203
I2
I0
S'external'
p666
tp667
a(I208
I0
F0.625
S'easy'
p668
tp669
a(I208
I0
F0.125
S'last'
p670
tp671
a(I230
I4
I0
S'different'
p672
tp673
a(I236
I16
F0.375
S'extended'
p674
tp675
a(I245
I0
I0
S'bran'
p676
tp677
a(I272
I0
F0.125
S'last'
p678
tp679
a(I276
I4
I0
g48
tp680
a(I292
I10
I0
g56
tp681
as(S'upgrade'
p682
tp683
(lp684
(I8
I1
I0
S'big'
p685
tp686
a(I195
I1
F0.625
S'major'
p687
tp688
a(I214
I1
F0.625
S'major'
p689
tp690
a(I233
I2
F0.5
S'welcome'
p691
tp692
a(I254
I1
I0
S'android'
p693
tp694
as(S'awesome'
p695
tp696
(lp697
(I71
I0
F0.625
S'perfect'
p698
tp699
a(I166
I0
F-0.125
S'overall'
p700
tp701
as(S'samsung'
p702
S'galaxy'
p703
tp704
(lp705
(I45
I0
F0.375
g283
tp706
a(I68
I0
F0.375
g289
tp707
a(I95
I0
F0.375
g291
tp708
a(I101
I4
F0.875
g293
tp709
a(I112
I2
F0.375
g301
tp710
a(I170
I0
F0.875
g94
tp711
as(S'better'
p712
tp713
(lp714
(I87
I2
F0.375
S'much'
p715
tp716
as(S'thing'
p717
tp718
(lp719
(I158
I2
I0
S'only'
p720
tp721
a(I165
I20
F0.375
S'appreciate'
p722
tp723
a(I169
I0
I0
S'only'
p724
tp725
a(I209
I3
I0
S'same'
p726
tp727
a(I211
I0
F-0.25
S'thin'
p728
tp729
a(I211
I0
F1.0
S'best'
p730
tp731
a(I230
I4
I0
S'only'
p732
tp733
as(S'sim'
p734
S'card'
p735
tp736
(lp737
(I44
I1
F-0.625
S'bad'
p738
tp739
as(S'charge'
p740
tp741
(lp742
(I81
I1
F0.125
S'last'
p743
tp744
a(I109
I2
I0
S'full'
p745
tp746
as(S'serial'
p747
S'number'
p748
tp749
(lp750
(I178
I2
I0
S'serial'
p751
tp752
a(I178
I4
I0
S'serial'
p753
tp754
a(I178
I5
I0
S'serial'
p755
tp756
as(S'with'
p757
S'samsung'
p758
S'galaxy'
p759
tp760
(lp761
(I95
I0
F0.375
g291
tp762
a(I101
I4
F0.875
g293
tp763
a(I112
I2
F0.375
g301
tp764
a(I170
I0
F0.875
g94
tp765
as(S'customer'
p766
tp767
(lp768
(I185
I4
F0.5
S'told'
p769
tp770
a(I185
I4
I0
S'website'
p771
tp772
as(S'price'
p773
tp774
(lp775
(I18
I2
I0
S'third'
p776
tp777
a(I24
I1
F-0.25
S'cheaper'
p778
tp779
a(I29
I0
I0
S'great'
p780
tp781
a(I51
I2
F1.0
S'better'
p782
tp783
a(I72
I0
F1.0
S'good'
p784
tp785
a(I85
I0
F-0.25
S'cheapest'
p786
tp787
a(I123
I1
I0
S'great'
p788
tp789
a(I133
I0
F1.0
S'best'
p790
tp791
a(I137
I3
I0
S'great'
p792
tp793
a(I185
I1
F0.5
S'willing'
p794
tp795
a(I185
I2
I0
S'great'
p796
tp797
a(I188
I1
I0
S'great'
p798
tp799
a(I209
I6
F1.0
S'best'
p800
tp801
a(I229
I0
I0
S'same'
p802
tp803
a(I229
I0
I0
S'different'
p804
tp805
a(I263
I0
F0.5
S'reasonable'
p806
tp807
a(I276
I2
F-0.25
S'higher'
p808
tp809
a(I288
I5
I0
S'great'
p810
tp811
a(I302
I0
F0.875
S'happy'
p812
tp813
as(S'time'
p814
tp815
(lp816
(I17
I1
F0.5
S'expensive'
p817
tp818
a(I17
I1
F0.75
S'worth'
p819
tp820
a(I41
I3
F0.5
S'respectable'
p821
tp822
a(I45
I6
I0
S'same'
p823
tp824
a(I109
I4
F0.125
S'first'
p825
tp826
a(I111
I0
F0.625
S'decent'
p827
tp828
a(I111
I1
F0.125
S'first'
p829
tp830
a(I111
I1
F0.125
S'last'
p831
tp832
a(I144
I2
F-0.5
S'long'
p833
tp834
a(I174
I1
F-0.5
S'long'
p835
tp836
a(I193
I5
I0
S'mobile'
p837
tp838
a(I213
I0
F-0.75
S'single'
p839
tp840
a(I218
I1
F0.5
S'reasonable'
p841
tp842
as(S'new'
p843
S'samsung'
p844
S'galaxy'
p845
tp846
(lp847
(I45
I0
F0.375
g283
tp848
a(I68
I0
F0.375
g289
tp849
a(I95
I0
F0.375
g291
tp850
a(I112
I2
F0.375
g301
tp851
as(S'charger'
p852
tp853
(lp854
(I89
I1
I0
S'different'
p855
tp856
a(I236
I15
I0
S'external'
p857
tp858
a(I236
I16
I0
S'external'
p859
tp860
as(S'love'
p861
S'love'
p862
S'love'
p863
tp864
(lp865
(I130
I0
F-0.375
g24
tp866
a(I211
I0
F1.0
g26
tp867
a(I225
I7
F1.0
g28
tp868
as(S'customer'
p869
S'service'
p870
tp871
(lp872
(I56
I1
F0.625
g234
tp873
a(I61
I1
I0
g238
tp874
a(I185
I4
F0.5
g769
tp875
a(I185
I4
I0
g771
tp876
a(I185
I4
F0.125
g244
tp877
a(I185
I10
F-0.5
g246
tp878
a(I234
I3
F-0.5
g248
tp879
a(I298
I1
F0.125
g250
tp880
as(S'anyone'
p881
tp882
(lp883
(I110
I1
F0.625
S'interested'
p884
tp885
a(I260
I0
F-0.625
S'sorry'
p886
tp887
as(S'months'
p888
tp889
(lp890
(I30
I1
F-0.5
S'less'
p891
tp892
a(I30
I1
I0
S'later'
p893
tp894
a(I48
I27
F-0.5
S'less'
p895
tp896
a(I53
I0
F0.125
S'charger'
p897
tp898
a(I53
I1
I0
S'few'
p899
tp900
a(I109
I3
F-0.5
S'less'
p901
tp902
a(I226
I0
I0
S'old'
p903
tp904
a(I287
I0
I0
S'more'
p905
tp906
as(S'apps'
p907
tp908
(lp909
(I51
I3
I0
S'many'
p910
tp911
a(I68
I1
F-0.375
S'manual'
p912
tp913
a(I68
I1
I0
S'great'
p914
tp915
a(I104
I0
F-0.625
S'free'
p916
tp917
a(I151
I2
I0
S'few'
p918
tp919
a(I151
I2
I0
S'few'
p920
tp921
a(I151
I4
I0
S'great'
p922
tp923
a(I151
I4
I0
S'unnecessary'
p924
tp925
a(I165
I2
I0
S'different'
p926
tp927
a(I165
I11
I0
S'different'
p928
tp929
a(I195
I4
F0.875
S'music'
p930
tp931
a(I212
I0
F0.625
S'easy'
p932
tp933
a(I258
I1
F-0.625
S'free'
p934
tp935
a(I258
I1
F0.625
S'easy'
p936
tp937
as(S'dropped'
p938
S'calls'
p939
tp940
(lp941
(I240
I2
F-0.25
S'dropped'
p942
tp943
a(I256
I3
F-0.25
S'dropped'
p944
tp945
as(S'days'
p946
tp947
(lp948
(I73
I0
I0
S'more'
p949
tp950
a(I101
I1
I0
S'few'
p951
tp952
a(I256
I6
I0
S'few'
p953
tp954
as(S'fast'
p955
tp956
(lp957
(I22
I0
I0
S'real'
p958
tp959
a(I87
I3
F-0.125
S'super'
p960
tp961
a(I301
I0
I0
S'very'
p962
tp963
as(S'taking'
p964
S'pictures'
p965
tp966
(lp967
(I57
I1
F0.875
g411
tp968
a(I57
I1
F0.5
g413
tp969
as.