(dp0
(S'ear'
p1
S'buds'
p2
tp3
(lp4
(I19
I96
F0.75
S'ear'
p5
I0
tp6
a(I19
I96
F-0.375
S'double'
p7
I0
tp8
a(I19
I96
F0.75
S'ear'
p9
I0
tp10
a(I61
I40
F0.75
S'ear'
p11
I0
tp12
as(S'on'
p13
S'blu'
p14
S'life'
p15
tp16
(lp17
(I14
I73
F0.125
S'first'
p18
I0
tp19
a(I36
I7
F-0.875
S'unhappy'
p20
I0
tp21
a(I48
I80
F0.625
S'correct'
p22
I0
tp23
a(I64
I46
F0.25
S'original'
p24
I0
tp25
a(I64
I61
F-0.125
S'overall'
p26
I0
tp27
a(I14
I73
F0.125
g18
I0
tp28
a(I19
I51
F0.375
S'new'
p29
I0
tp30
a(I26
I48
F0.875
S'happy'
p31
I0
tp32
a(I36
I7
F-0.875
g20
I0
tp33
a(I48
I80
F0.625
g22
I0
tp34
a(I64
I46
F0.25
g24
I0
tp35
a(I64
I61
F-0.125
g26
I0
tp36
a(I3
I19
F-0.125
S'overall'
p37
I19
tp38
a(I12
I1
I0
S'real'
p39
I19
tp40
a(I14
I73
F0.125
g18
I19
tp41
a(I19
I78
I0
S'such'
p42
I19
tp43
a(I20
I15
F1.0
S'best'
p44
I19
tp45
a(I26
I78
I0
S'hear'
p46
I19
tp47
a(I29
I17
F1.0
S'good'
p48
I19
tp49
a(I30
I1
I0
S'great'
p50
I19
tp51
a(I32
I32
I0
S'great'
p52
I19
tp53
a(I37
I59
I0
S'great'
p54
I19
tp55
a(I39
I8
F1.0
S'good'
p56
I19
tp57
a(I42
I53
F0.25
S'responsive'
p58
I19
tp59
a(I48
I25
F1.0
S'good'
p60
I19
tp61
a(I49
I12
F1.0
S'good'
p62
I19
tp63
a(I64
I52
I0
S'real'
p64
I19
tp65
as(S'thin'
p66
S'and'
p67
S'light'
p68
tp69
(lp70
(I48
I4
F-0.625
S'light'
p71
I0
tp72
as(S'call'
p73
S'quality'
p74
tp75
(lp76
(I5
I120
F1.0
S'good'
p77
I0
tp78
a(I13
I25
F1.0
S'good'
p79
I0
tp80
a(I13
I25
F0.125
S'first'
p81
I0
tp82
a(I48
I59
I0
S'great'
p83
I0
tp84
a(I53
I18
I0
S'great'
p85
I0
tp86
a(I57
I24
I0
S'delicious'
p87
I0
tp88
a(I61
I55
I0
S'great'
p89
I0
tp90
as(S'in'
p91
S'low'
p92
S'light'
p93
tp94
(lp95
(I26
I104
F-0.25
S'low'
p96
I0
tp97
a(I61
I48
F-0.25
S'low'
p98
I0
tp99
as(S'a'
p100
S'low'
p101
S'price'
p102
tp103
(lp104
(I7
I9
F-0.25
S'low'
p105
I1
tp106
a(I19
I67
I0
S'fast'
p107
I1
tp108
a(I19
I78
F-0.25
S'low'
p109
I1
tp110
a(I19
I84
I0
S'such'
p111
I1
tp112
a(I19
I84
F-0.25
S'low'
p113
I1
tp114
a(I20
I39
F-0.25
S'low'
p115
I1
tp116
a(I20
I39
F-0.25
S'loose'
p117
I1
tp118
a(I26
I85
F-0.25
S'low'
p119
I1
tp120
a(I33
I20
F-0.25
S'low'
p121
I1
tp122
a(I50
I66
F-0.25
S'low'
p123
I1
tp124
a(I61
I88
F-0.25
S'low'
p125
I1
tp126
as(S'apn'
p127
S'settings'
p128
tp129
(lp130
(I5
I87
F0.125
S'profile'
p131
I0
tp132
a(I13
I8
F0.625
S'correct'
p133
I0
tp134
a(I17
I7
F0.625
S'correct'
p135
I0
tp136
a(I17
I7
F0.125
S'adjust'
p137
I0
tp138
a(I48
I79
I0
S'old'
p139
I0
tp140
a(I5
I87
F0.125
g131
I1
tp141
a(I17
I7
F0.625
g135
I1
tp142
a(I17
I7
F0.125
g137
I1
tp143
a(I37
I20
F0.375
S'worked'
p144
I1
tp145
as(S'charging'
p146
S'port'
p147
tp148
(lp149
(I26
I100
F-0.25
S'loose'
p150
I1
tp151
a(I48
I68
F-0.25
S'loose'
p152
I1
tp153
a(I50
I14
F0.125
S'first'
p154
I1
tp155
a(I50
I79
F-0.25
S'loose'
p156
I1
tp157
a(I48
I90
F0.25
S'original'
p158
I12
tp159
a(I57
I6
I0
S'same'
p160
I12
tp161
as(S'apps'
p162
tp163
(lp164
(I5
I99
I0
S'serviceable'
p165
I0
tp166
a(I8
I3
F-0.5
S'regular'
p167
I0
tp168
a(I26
I107
F-0.25
S'order'
p169
I0
tp170
a(I26
I119
I0
S'most'
p171
I0
tp172
a(I26
I119
F0.875
S'important'
p173
I0
tp174
a(I37
I28
I0
S'many'
p175
I0
tp176
a(I37
I40
F-0.625
S'other'
p177
I0
tp178
a(I37
I96
F0.75
S'worth'
p179
I0
tp180
a(I39
I9
I0
S'great'
p181
I0
tp182
a(I47
I3
F0.375
S'much'
p183
I0
tp184
a(I53
I55
F-0.625
S'other'
p185
I0
tp186
a(I54
I42
F0.125
S'native'
p187
I0
tp188
a(I54
I46
F-0.75
S'likely'
p189
I0
tp190
a(I54
I46
F0.75
S'due'
p191
I0
tp192
a(I63
I23
I0
S'more'
p193
I0
tp194
a(I64
I103
I0
S'more'
p195
I0
tp196
as(S'iphone'
p197
tp198
(lp199
(I5
I46
F-0.125
S'former'
p200
I1
tp201
a(I42
I7
F0.25
S'used'
p202
I1
tp203
a(I42
I25
F-0.75
S'comfortable'
p204
I1
tp205
a(I51
I0
F0.125
S'popular'
p206
I1
tp207
as(S'straight'
p208
S'talk'
p209
tp210
(lp211
(I26
I17
F0.625
S'straight'
p212
I0
tp213
a(I26
I50
I0
S'current'
p214
I0
tp215
a(I48
I60
F0.625
S'straight'
p216
I0
tp217
a(I48
I117
F0.625
S'straight'
p218
I0
tp219
a(I48
I120
F0.625
S'straight'
p220
I0
tp221
as(S'speed'
p222
tp223
(lp224
(I1
I18
F-0.25
S'higher'
p225
I9
tp226
a(I17
I18
I0
S'same'
p227
I9
tp228
a(I20
I41
F0.875
S'happy'
p229
I9
tp230
a(I35
I18
I0
S'most'
p231
I9
tp232
a(I35
I18
F0.625
S'wanted'
p233
I9
tp234
a(I57
I40
I0
S'full'
p235
I9
tp236
a(I61
I58
I0
S'high'
p237
I9
tp238
a(I64
I113
F0.125
S'theoretical'
p239
I9
tp240
a(I64
I117
I0
S'same'
p241
I9
tp242
as(S'galaxy'
p243
S's3'
p244
tp245
(lp246
(I40
I1
F1.0
S'good'
p247
I0
tp248
a(I40
I1
F1.0
S'better'
p249
I0
tp250
a(I45
I1
I0
S'fast'
p251
I0
tp252
a(I50
I32
F0.375
S'much'
p253
I0
tp254
a(I50
I32
I0
S'different'
p255
I0
tp256
as(S'voice'
p257
S'mail'
p258
tp259
(lp260
(I37
I25
F0.5
S'personal'
p261
I0
tp262
as(S'third'
p263
S'party'
p264
tp265
(lp266
(I31
I14
I0
S'third'
p267
I0
tp268
a(I54
I43
I0
S'third'
p269
I0
tp270
a(I57
I50
I0
S'third'
p271
I0
tp272
as(S'good'
p273
S'battery'
p274
S'life'
p275
tp276
(lp277
(I8
I18
I0
S'download'
p278
I0
tp279
a(I19
I52
F1.0
S'good'
p280
I0
tp281
a(I19
I78
F1.0
S'good'
p282
I0
tp283
a(I19
I78
I0
g42
I0
tp284
a(I29
I17
F1.0
g48
I0
tp285
a(I39
I8
F1.0
g56
I0
tp286
a(I48
I25
F1.0
g60
I0
tp287
a(I49
I12
F1.0
g62
I0
tp288
a(I60
I30
I0
S'great'
p289
I0
tp290
a(I61
I33
I0
S'big'
p291
I0
tp292
a(I61
I33
F1.0
S'better'
p293
I0
tp294
a(I61
I33
F1.0
S'good'
p295
I0
tp296
as(S'sim'
p297
S'cards'
p298
tp299
(lp300
(I29
I5
F0.125
S'able'
p301
I0
tp302
as(S'factory'
p303
S'reset'
p304
tp305
(lp306
(I58
I17
F-0.375
S'simple'
p307
I0
tp308
a(I58
I17
I0
S'quick'
p309
I0
tp310
as(S'android'
p311
tp312
(lp313
(I5
I0
F0.125
S'first'
p314
I0
tp315
a(I5
I83
F-0.5
S'international'
p316
I0
tp317
a(I5
I95
I0
S'generic'
p318
I0
tp319
a(I5
I125
F0.5
S'upgraded'
p320
I0
tp321
a(I29
I8
F0.375
S'newer'
p322
I0
tp323
a(I29
I14
I0
S'most'
p324
I0
tp325
a(I39
I18
F0.5
S'reasonable'
p326
I0
tp327
a(I46
I2
F0.25
S'recent'
p328
I0
tp329
a(I46
I7
F-0.375
S'top'
p330
I0
tp331
a(I61
I2
F0.5
S'expensive'
p332
I0
tp333
as(S'galaxy'
p334
S's4'
p335
tp336
(lp337
(I28
I20
I0
S'more'
p338
I0
tp339
a(I50
I32
F0.375
g253
I0
tp340
a(I50
I32
I0
g255
I0
tp341
as(S'gb'
p342
S'sd'
p343
S'card'
p344
tp345
(lp346
(I61
I3
I0
S'adequate'
p347
I0
tp348
as(S'sd'
p349
S'card'
p350
S'slot'
p351
tp352
(lp353
(I48
I3
F0.625
S'major'
p354
I0
tp355
as(S'case'
p356
S'screen'
p357
S'protector'
p358
tp359
(lp360
(I14
I63
F0.125
S'protective'
p361
I0
tp362
a(I19
I56
F0.125
S'protective'
p363
I0
tp364
a(I30
I0
I0
S'screen'
p365
I0
tp366
a(I37
I2
F0.125
S'charger'
p367
I0
tp368
a(I41
I6
I0
S'blue'
p369
I0
tp370
a(I48
I39
F-0.625
S'free'
p371
I0
tp372
a(I58
I19
F-0.625
S'free'
p373
I0
tp374
a(I30
I0
I0
g365
I4
tp375
a(I38
I46
F0.375
S'extra'
p376
I4
tp377
a(I54
I48
F0.125
S'protective'
p378
I4
tp379
a(I60
I57
F0.875
S'nice'
p380
I4
tp381
a(I30
I0
I0
g365
I9
tp382
as(g100
S'dual'
p383
S'sim'
p384
tp385
(lp386
(I38
I10
F-0.625
S'other'
p387
I0
tp388
a(I38
I10
F-0.5
S'regular'
p389
I0
tp390
a(I38
I45
I0
S'active'
p391
I0
tp392
a(I38
I10
F-0.625
g387
I0
tp393
a(I38
I10
F-0.5
g389
I0
tp394
a(I38
I45
I0
g391
I0
tp395
as(S'samsung'
p396
S'galaxy'
p397
tp398
(lp399
(I13
I3
F-0.25
S'thin'
p400
I0
tp401
a(I13
I3
F-0.25
S'thin'
p402
I0
tp403
a(I14
I1
F1.0
S'good'
p404
I0
tp405
a(I20
I37
I0
S'third'
p406
I0
tp407
a(I50
I32
F0.375
g253
I0
tp408
a(I50
I32
I0
g255
I0
tp409
a(I13
I3
F-0.25
g400
I7
tp410
a(I13
I3
F-0.25
g402
I7
tp411
a(I14
I1
F1.0
g404
I7
tp412
a(I19
I101
I0
S'old'
p413
I7
tp414
a(I49
I0
F0.5
S'comparable'
p415
I7
tp416
a(I49
I18
I0
S'older'
p417
I7
tp418
a(I55
I8
I0
S'plastic'
p419
I7
tp420
a(I55
I12
F1.0
S'good'
p421
I7
tp422
a(I55
I12
F1.0
S'better'
p423
I7
tp424
a(I3
I3
F-0.125
S'slow'
p425
I0
tp426
a(I20
I37
I0
g406
I0
tp427
a(I26
I106
F0.375
S'louder'
p428
I0
tp429
a(I40
I1
F1.0
g247
I0
tp430
a(I40
I1
F1.0
g249
I0
tp431
a(I45
I1
I0
g251
I0
tp432
a(I50
I32
F0.375
g253
I0
tp433
a(I50
I32
I0
g255
I0
tp434
a(I53
I62
I0
S'slower'
p435
I0
tp436
as(S'sim'
p437
S'card'
p438
tp439
(lp440
(I10
I11
F0.5
S'beware'
p441
I0
tp442
a(I39
I4
I0
S'standard'
p443
I0
tp444
a(I55
I6
F-0.25
S'ready'
p445
I0
tp446
a(I61
I58
F0.375
S'new'
p447
I0
tp448
as(g100
S'great'
p449
S'price'
p450
tp451
(lp452
(I14
I63
F0.5
S'reasonable'
p453
I9
tp454
a(I16
I3
I0
S'great'
p455
I9
tp456
a(I19
I78
F-0.25
g109
I9
tp457
a(I20
I39
F-0.25
g115
I9
tp458
a(I20
I39
F-0.25
g117
I9
tp459
a(I26
I85
F-0.25
g119
I9
tp460
a(I26
I125
I0
S'great'
p461
I9
tp462
a(I31
I19
I0
S'great'
p463
I9
tp464
a(I39
I14
I0
S'great'
p465
I9
tp466
a(I53
I10
I0
S'great'
p467
I9
tp468
a(I54
I14
I0
S'great'
p469
I9
tp470
a(I54
I45
F1.0
S'good'
p471
I9
tp472
a(I60
I1
I0
S'great'
p473
I9
tp474
a(I61
I37
I0
S'great'
p475
I9
tp476
a(I61
I50
I0
S'great'
p477
I9
tp478
as(S'quad'
p479
S'core'
p480
tp481
(lp482
(I64
I66
I0
S'quad'
p483
I0
tp484
as(S'case'
p485
S'and'
p486
S'screen'
p487
tp488
(lp489
(I5
I32
I0
S'big'
p490
I0
tp491
a(I5
I32
F0.625
S'easy'
p492
I0
tp493
a(I14
I63
F0.125
g361
I0
tp494
a(I19
I56
F0.125
g363
I0
tp495
a(I41
I6
I0
g369
I0
tp496
a(I48
I39
F-0.625
g371
I0
tp497
a(I58
I19
F-0.625
g373
I0
tp498
as(g100
S'screen'
p499
S'protector'
p500
tp501
(lp502
(I30
I0
I0
g365
I1
tp503
a(I38
I46
F0.375
g376
I1
tp504
a(I54
I48
F0.125
g378
I1
tp505
a(I60
I57
F0.875
g380
I1
tp506
as(S'blu'
p507
S'life'
p508
S'play'
p509
tp510
(lp511
(I19
I51
F0.375
g29
I0
tp512
a(I26
I48
F0.875
g31
I0
tp513
a(I36
I7
F-0.875
g20
I0
tp514
a(I42
I47
F-0.25
S'thin'
p515
I0
tp516
a(I42
I47
F-0.625
S'light'
p517
I0
tp518
a(I48
I80
F0.625
g22
I0
tp519
a(I64
I61
F-0.125
g26
I0
tp520
a(I3
I19
F-0.125
g37
I0
tp521
a(I42
I22
I0
S'great'
p522
I0
tp523
a(I42
I25
F0.125
S'first'
p524
I0
tp525
a(I42
I47
F-0.25
g515
I0
tp526
a(I42
I47
F-0.625
g517
I0
tp527
a(I50
I3
F-0.5
S'less'
p528
I0
tp529
as(S'camera'
p530
tp531
(lp532
(I3
I17
F1.0
S'good'
p533
I1
tp534
a(I3
I17
I0
S'great'
p535
I1
tp536
a(I8
I20
I0
S'most'
p537
I1
tp538
a(I11
I46
F1.0
S'good'
p539
I1
tp540
a(I11
I46
I0
S'great'
p541
I1
tp542
a(I11
I46
F1.0
S'good'
p543
I1
tp544
a(I17
I3
I0
S'great'
p545
I1
tp546
a(I18
I1
F1.0
S'good'
p547
I1
tp548
a(I19
I78
F1.0
S'good'
p549
I1
tp550
a(I24
I8
F0.25
S'suppose'
p551
I1
tp552
a(I26
I40
F-0.25
S'low'
p553
I1
tp554
a(I26
I40
F-0.625
S'light'
p555
I1
tp556
a(I26
I102
F1.0
S'good'
p557
I1
tp558
a(I29
I32
I0
S'great'
p559
I1
tp560
a(I31
I9
F1.0
S'good'
p561
I1
tp562
a(I38
I27
F1.0
S'good'
p563
I1
tp564
a(I38
I29
I0
S'great'
p565
I1
tp566
a(I40
I13
I0
S'great'
p567
I1
tp568
a(I50
I73
I0
S'great'
p569
I1
tp570
a(I53
I11
F0.625
S'perfect'
p571
I1
tp572
a(I53
I12
F0.625
S'easy'
p573
I1
tp574
a(I54
I34
F1.0
S'best'
p575
I1
tp576
a(I58
I19
I0
S'great'
p577
I1
tp578
a(I61
I48
F1.0
S'good'
p579
I1
tp580
a(I61
I49
F-0.75
S'sufficient'
p581
I1
tp582
a(I61
I56
F1.0
S'good'
p583
I1
tp584
a(I61
I73
I0
S'cool'
p585
I1
tp586
as(S'micro'
p587
S'sd'
p588
S'card'
p589
tp590
(lp591
(I13
I7
I0
S'external'
p592
I0
tp593
a(I13
I7
I0
g592
I0
tp594
a(I28
I25
I0
S'external'
p595
I0
tp596
a(I28
I25
F-0.5
S'sure'
p597
I0
tp598
a(I28
I25
F0.375
S'available'
p599
I0
tp600
a(I13
I7
I0
g592
I3
tp601
a(I26
I117
I0
S'old'
p602
I3
tp603
a(I28
I25
I0
g595
I3
tp604
a(I39
I3
F-0.625
S'free'
p605
I3
tp606
a(I43
I8
I0
S'outpoint'
p607
I3
tp608
a(I61
I33
F0.5
S'primary'
p609
I3
tp610
as(S'blu'
p611
S'products'
p612
tp613
(lp614
(I32
I7
I0
S'next'
p615
I0
tp616
a(I64
I10
F0.875
S'happy'
p617
I0
tp618
as(S'customer'
p619
S'service'
p620
tp621
(lp622
(I5
I39
F-0.875
S'awful'
p623
I3
tp624
a(I11
I30
F1.0
S'best'
p625
I3
tp626
a(I19
I7
F1.0
S'good'
p627
I3
tp628
a(I50
I22
F1.0
S'good'
p629
I3
tp630
a(I5
I39
F-0.875
g623
I16
tp631
a(I11
I30
F1.0
g625
I16
tp632
a(I18
I9
F0.625
S'acceptable'
p633
I16
tp634
a(I18
I9
F-0.625
S'bad'
p635
I16
tp636
a(I18
I9
F0.25
S'professional'
p637
I16
tp638
a(I26
I79
F-0.5
S'poor'
p639
I16
tp640
a(I35
I3
F-0.625
S'unprofessional'
p641
I16
tp642
a(I37
I116
F-0.5
S'international'
p643
I16
tp644
a(I37
I120
F-0.5
S'poor'
p645
I16
tp646
a(I47
I11
I0
S'great'
p647
I16
tp648
a(I50
I22
F1.0
g629
I16
tp649
a(I57
I19
I0
S'great'
p650
I16
tp651
a(I61
I13
I0
S'great'
p652
I16
tp653
a(I64
I115
F0.75
S'due'
p654
I16
tp655
as(S't'
p656
S'mobile'
p657
S'sim'
p658
tp659
(lp660
(I5
I5
F-0.5
S'regular'
p661
I0
tp662
a(I39
I3
I0
S'standard'
p663
I0
tp664
as(S'great'
p665
S'battery'
p666
S'life'
p667
tp668
(lp669
(I19
I52
F1.0
g280
I0
tp670
a(I19
I78
F1.0
g282
I0
tp671
a(I19
I78
I0
g42
I0
tp672
a(I30
I1
I0
g50
I0
tp673
a(I37
I59
I0
g54
I0
tp674
a(I60
I30
I0
g289
I0
tp675
a(I61
I33
I0
g291
I0
tp676
a(I61
I33
F1.0
g293
I0
tp677
a(I61
I33
F1.0
g295
I0
tp678
a(I64
I21
I0
S'great'
p679
I0
tp680
a(I19
I52
F1.0
g280
I0
tp681
a(I19
I78
F1.0
g282
I0
tp682
a(I19
I78
I0
g42
I0
tp683
a(I30
I1
I0
g50
I0
tp684
a(I37
I59
I0
g54
I0
tp685
a(I60
I30
I0
g289
I0
tp686
a(I61
I33
I0
g291
I0
tp687
a(I61
I33
F1.0
g293
I0
tp688
a(I61
I33
F1.0
g295
I0
tp689
a(I64
I21
I0
g679
I0
tp690
a(I8
I18
I0
g278
I1
tp691
a(I13
I14
F0.625
S'removable'
p692
I1
tp693
a(I19
I52
F1.0
g280
I1
tp694
a(I19
I78
F1.0
g282
I1
tp695
a(I19
I78
I0
g42
I1
tp696
a(I20
I15
F1.0
g44
I1
tp697
a(I29
I17
F1.0
g48
I1
tp698
a(I30
I1
I0
g50
I1
tp699
a(I37
I59
I0
g54
I1
tp700
a(I39
I8
F1.0
g56
I1
tp701
a(I48
I25
F1.0
g60
I1
tp702
a(I49
I12
F1.0
g62
I1
tp703
a(I60
I30
I0
g289
I1
tp704
a(I61
I33
I0
g291
I1
tp705
a(I61
I33
F1.0
g293
I1
tp706
a(I61
I33
F1.0
g295
I1
tp707
a(I64
I11
F-0.75
S'short'
p708
I1
tp709
a(I64
I21
I0
g679
I1
tp710
a(I7
I16
I0
S'different'
p711
I15
tp712
a(I8
I18
I0
g278
I15
tp713
a(I11
I49
F-0.25
S'low'
p714
I15
tp715
a(I13
I14
F0.625
g692
I15
tp716
a(I19
I52
F1.0
g280
I15
tp717
a(I19
I78
F1.0
g282
I15
tp718
a(I28
I46
I0
S'great'
p719
I15
tp720
a(I32
I31
I0
S'big'
p721
I15
tp722
a(I38
I25
F0.375
S'extra'
p723
I15
tp724
a(I43
I5
F0.125
S'last'
p725
I15
tp726
a(I54
I35
F0.125
S'last'
p727
I15
tp728
a(I60
I30
I0
g289
I15
tp729
a(I60
I51
F0.375
S'extra'
p730
I15
tp731
a(I61
I33
I0
g291
I15
tp732
a(I61
I33
F1.0
g293
I15
tp733
a(I61
I33
F1.0
g295
I15
tp734
a(I64
I11
F-0.75
g708
I15
tp735
a(I64
I21
I0
g679
I15
tp736
a(I64
I56
F0.375
S'new'
p737
I15
tp738
a(I64
I136
F0.375
S'new'
p739
I15
tp740
as(S'headphones'
p741
tp742
(lp743
(I5
I112
F-0.5
S'regular'
p744
I0
tp745
a(I26
I35
F1.0
S'good'
p746
I0
tp747
a(I28
I60
F-0.75
S'uncomfortable'
p748
I0
tp749
a(I37
I61
I0
S'great'
p750
I0
tp751
a(I42
I65
F0.125
S'pair'
p752
I0
tp753
a(I53
I20
F0.5
S'clear'
p754
I0
tp755
a(I53
I21
F-0.625
S'other'
p756
I0
tp757
as(S'storage'
p758
tp759
(lp760
(I1
I18
F0.375
S'extra'
p761
I1
tp762
a(I13
I7
I0
S'internal'
p763
I1
tp764
a(I13
I7
F0.625
S'accessible'
p765
I1
tp766
a(I14
I2
I0
S'more'
p767
I1
tp768
a(I14
I2
I0
S'internal'
p769
I1
tp770
a(I22
I1
F1.0
S'better'
p771
I1
tp772
a(I23
I3
F-0.25
S'low'
p773
I1
tp774
a(I26
I8
I0
S'internal'
p775
I1
tp776
a(I26
I36
I0
S'internal'
p777
I1
tp778
a(I33
I16
I0
S'more'
p779
I1
tp780
a(I33
I16
I0
S'adequate'
p781
I1
tp782
a(I35
I20
I0
S'great'
p783
I1
tp784
a(I37
I28
F-0.375
S'small'
p785
I1
tp786
a(I49
I2
F-0.375
S'small'
p787
I1
tp788
a(I49
I2
I0
S'internal'
p789
I1
tp790
a(I55
I42
F-0.25
S'low'
p791
I1
tp792
a(I55
I42
I0
S'internal'
p793
I1
tp794
a(I61
I21
I0
S'more'
p795
I1
tp796
a(I62
I7
F0.25
S'main'
p797
I1
tp798
a(I63
I24
F0.125
S'plenty'
p799
I1
tp800
a(I64
I65
I0
S'internal'
p801
I1
tp802
a(I64
I65
F-0.375
S'small'
p803
I1
tp804
as(S'amazon'
p805
tp806
(lp807
(I32
I21
F-0.625
S'free'
p808
I13
tp809
a(I37
I54
I0
S'most'
p810
I13
tp811
a(I60
I20
F-0.25
S'past'
p812
I13
tp813
as(S'to'
p814
S'sd'
p815
S'card'
p816
tp817
(lp818
(I37
I29
F0.875
S'nice'
p819
I0
tp820
a(I64
I65
F0.125
S'essential'
p821
I0
tp822
a(I64
I65
I0
S'large'
p823
I0
tp824
a(I37
I29
F0.875
g819
I0
tp825
a(I37
I39
F-0.5
S'sure'
p826
I0
tp827
a(I64
I65
F0.125
g821
I0
tp828
a(I64
I65
I0
g823
I0
tp829
as(S'data'
p830
tp831
(lp832
(I37
I6
I0
S'cable'
p833
I13
tp834
a(I61
I13
I0
S'nationwide'
p835
I13
tp836
a(I64
I116
I0
S'mobile'
p837
I13
tp838
a(I64
I120
I0
S'mobile'
p839
I13
tp840
a(I64
I122
I0
S'mobile'
p841
I13
tp842
as.