(dp0
(S'viewing'
p1
S'angles'
p2
tp3
(lp4
(I10
I11
F1.0
S'good'
p5
I5
tp6
a(I15
I33
F-0.625
S'bad'
p7
I5
tp8
a(I15
I34
I0
S'vertical'
p9
I5
tp10
as(S'name'
p11
S'brand'
p12
tp13
(lp14
(I12
I65
F0.375
S'much'
p15
I0
tp16
a(I12
I65
F-0.625
S'other'
p17
I0
tp18
a(I18
I36
F0.375
S'new'
p19
I0
tp20
as(S'battery'
p21
S'life'
p22
tp23
(lp24
(I4
I66
I0
S'great'
p25
I1
tp26
a(I9
I1
F1.0
S'good'
p27
I1
tp28
a(I11
I102
F-0.625
S'bad'
p29
I1
tp30
a(I11
I111
F-0.25
S'disappointing'
p31
I1
tp32
a(I11
I143
I0
S'quick'
p33
I1
tp34
a(I12
I14
I0
S'great'
p35
I1
tp36
a(I16
I9
F1.0
S'best'
p37
I1
tp38
a(I4
I66
I0
g25
I19
tp39
a(I11
I111
F-0.25
g31
I19
tp40
a(I11
I143
I0
g33
I19
tp41
a(I12
I14
I0
g35
I19
tp42
a(I16
I9
F1.0
g37
I19
tp43
a(I5
I14
F0.375
S'new'
p44
I15
tp45
a(I9
I1
F1.0
g27
I15
tp46
a(I11
I102
F-0.625
g29
I15
tp47
a(I11
I106
F1.0
S'good'
p48
I15
tp49
a(I18
I22
F0.625
S'decent'
p50
I15
tp51
as(S'quad'
p52
S'core'
p53
S'processor'
p54
tp55
(lp56
(I7
I36
I0
S'quad'
p57
I0
tp58
a(I7
I36
I0
g57
I0
tp59
a(I17
I11
I0
S'quad'
p60
I0
tp61
a(I7
I36
I0
g57
I0
tp62
as(S'nexus'
p63
tp64
(lp65
(I3
I18
F-0.25
S'google'
p66
I0
tp67
as(S'settings'
p68
tp69
(lp70
(I9
I15
I0
S'high'
p71
I1
tp72
as(S'camera'
p73
tp74
(lp75
(I0
I2
F-0.625
S'average'
p76
I1
tp77
a(I7
I29
F-0.5
S'poor'
p78
I1
tp79
a(I12
I12
F1.0
S'best'
p80
I1
tp81
a(I12
I12
F-0.25
S'low'
p82
I1
tp83
a(I12
I12
F-0.625
S'light'
p84
I1
tp85
a(I12
I40
F-0.625
S'bad'
p86
I1
tp87
a(I13
I4
F0.25
S'larger'
p88
I1
tp89
a(I13
I4
F1.0
S'good'
p90
I1
tp91
a(I15
I42
I0
S'rubbish'
p92
I1
tp93
a(I18
I99
F1.0
S'good'
p94
I1
tp95
as(S'operating'
p96
S'system'
p97
tp98
(lp99
(I9
I25
F-0.125
S'slow'
p100
I2
tp101
a(I11
I93
F1.0
S'good'
p102
I2
tp103
a(I11
I93
F-0.125
S'overall'
p104
I2
tp105
as(S'straight'
p106
S'talk'
p107
tp108
(lp109
(I5
I6
F0.625
S'straight'
p110
I0
tp111
as(S'high'
p112
S'end'
p113
tp114
(lp115
(I8
I10
I0
S'high'
p116
I0
tp117
a(I20
I1
I0
S'high'
p118
I0
tp119
a(I20
I4
I0
S'high'
p120
I0
tp121
as(S'memory'
p122
tp123
(lp124
(I11
I21
F-0.375
S'small'
p125
I5
tp126
a(I20
I3
F-0.5
S'poor'
p127
I5
tp128
as(S'galaxy'
p129
tp130
(lp131
(I18
I1
F0.5
S'comparable'
p132
I0
tp133
as(S'light'
p134
S'weight'
p135
tp136
(lp137
(I7
I28
F-0.625
S'light'
p138
I5
tp139
as(S'android'
p140
tp141
(lp142
(I5
I0
F0.125
S'first'
p143
I0
tp144
a(I8
I26
F0.125
S'first'
p145
I0
tp146
a(I8
I26
F-0.875
S'worst'
p147
I0
tp148
a(I11
I5
F-0.25
S'couple'
p149
I0
tp150
a(I11
I5
I0
S'more'
p151
I0
tp152
a(I11
I101
I0
S'old'
p153
I0
tp154
a(I15
I12
F0.375
S'new'
p155
I0
tp156
a(I15
I29
I0
S'latest'
p157
I0
tp158
a(I18
I27
F0.875
S'nice'
p159
I0
tp160
a(I18
I64
I0
S'different'
p161
I0
tp162
a(I18
I80
F-0.125
S'slow'
p163
I0
tp164
as(S'sound'
p165
tp166
(lp167
(I4
I79
I0
S'loader'
p168
I7
tp169
a(I4
I79
F1.0
S'good'
p170
I7
tp171
a(I11
I74
F-0.625
S'bad'
p172
I7
tp173
a(I11
I129
I0
S'loader'
p174
I7
tp175
a(I11
I129
F1.0
S'good'
p176
I7
tp177
as(S'blu'
p178
S'dash'
p179
tp180
(lp181
(I3
I30
I0
S'identical'
p182
I0
tp183
as(S'network'
p184
tp185
(lp186
(I15
I25
F-0.5
S'actual'
p187
I0
tp188
as(S'screen'
p189
S'protector'
p190
tp191
(lp192
(I0
I60
F0.375
S'extra'
p193
I4
tp194
a(I18
I70
F-0.375
S'top'
p195
I4
tp196
a(I18
I70
F-0.25
S'thin'
p197
I4
tp198
a(I21
I3
I0
S'mandatory'
p199
I4
tp200
a(I0
I60
F0.375
g193
I9
tp201
as(S'calls'
p202
tp203
(lp204
(I12
I54
I0
S'great'
p205
I0
tp206
as(S'sim'
p207
S'card'
p208
tp209
(lp210
(I0
I51
F0.875
S'nice'
p211
I0
tp212
a(I9
I22
F-0.75
S'single'
p213
I0
tp214
a(I11
I97
I0
S'standard'
p215
I0
tp216
a(I11
I97
F0.625
S'easy'
p217
I0
tp218
a(I11
I97
I0
S'old'
p219
I0
tp220
a(I20
I2
F0.5
S'second'
p221
I0
tp222
a(I22
I11
F0.625
S'convenient'
p223
I0
tp224
a(I22
I11
F-0.125
S'overall'
p225
I0
tp226
as(S'dust'
p227
tp228
(lp229
(I7
I24
F0.5
S'whole'
p230
I8
tp231
as(S'amazon'
p232
tp233
(lp234
(I11
I88
I0
S'same'
p235
I13
tp236
a(I18
I10
I0
S'great'
p237
I13
tp238
as(S'car'
p239
S'charger'
p240
tp241
(lp242
(I12
I2
F-0.625
S'wall'
p243
I0
tp244
a(I13
I6
I0
S'cable'
p245
I0
tp246
as(S'data'
p247
S'plan'
p248
tp249
(lp250
(I22
I14
I0
S'monthly'
p251
I0
tp252
a(I17
I1
I0
S'faster'
p253
I13
tp254
a(I20
I2
I0
S'only'
p255
I13
tp256
as(S'wifi'
p257
tp258
(lp259
(I5
I20
I0
S'great'
p260
I0
tp261
a(I11
I9
F-0.375
S'simple'
p262
I0
tp263
as(S'apps'
p264
tp265
(lp266
(I3
I32
F0.125
S'essential'
p267
I0
tp268
a(I4
I68
I0
S'recreational'
p269
I0
tp270
a(I4
I75
F-0.625
S'other'
p271
I0
tp272
a(I10
I5
I0
S'few'
p273
I0
tp274
a(I10
I5
F-0.625
S'free'
p275
I0
tp276
a(I11
I31
F-0.625
S'other'
p277
I0
tp278
a(I11
I31
I0
S'such'
p279
I0
tp280
a(I11
I125
F-0.625
S'other'
p281
I0
tp282
a(I18
I24
F0.125
S'usual'
p283
I0
tp284
a(I18
I95
I0
S'many'
p285
I0
tp286
as.