(dp0
(S'model'
p1
tp2
(lp3
(I65
I1
I0
S'european'
p4
tp5
a(I161
I0
F-0.625
S'other'
p6
tp7
a(I239
I0
F-0.75
S'wrong'
p8
tp9
a(I323
I6
I0
S'european'
p10
tp11
as(S'perfect'
p12
tp13
(lp14
(I237
I1
I0
S'hungary'
p15
tp16
as(S'purchase'
p17
tp18
(lp19
(I12
I0
I0
S'website'
p20
tp21
a(I118
I4
F0.875
S'happy'
p22
tp23
a(I131
I12
F0.5
S'expensive'
p24
tp25
a(I172
I0
F0.875
S'happy'
p26
tp27
a(I185
I18
F-0.125
S'overall'
p28
tp29
a(I185
I18
F0.875
S'happy'
p30
tp31
a(I216
I1
F1.0
S'best'
p32
tp33
a(I275
I0
F0.875
S'happy'
p34
tp35
a(I326
I2
F1.0
S'good'
p36
tp37
a(I372
I1
F1.0
S'good'
p38
tp39
a(I373
I0
F-0.5
S'sure'
p40
tp41
as(S'customer'
p42
S'service'
p43
tp44
(lp45
(I8
I0
I0
S'adequate'
p46
tp47
a(I91
I6
I0
S'great'
p48
tp49
as(S'nice'
p50
tp51
(lp52
(I274
I13
I0
S'darn'
p53
tp54
a(I285
I13
F-0.375
S'small'
p55
tp56
as(S'reviews'
p57
tp58
(lp59
(I1
I2
F0.625
S'positive'
p60
tp61
a(I1
I3
I0
S'nervous'
p62
tp63
a(I1
I3
F-0.625
S'other'
p64
tp65
a(I2
I1
F-0.875
S'negative'
p66
tp67
a(I2
I5
F1.0
S'good'
p68
tp69
a(I117
I14
F-0.625
S'other'
p70
tp71
a(I179
I10
F-0.625
S'other'
p72
tp73
a(I202
I0
I0
S'many'
p74
tp75
a(I202
I0
F1.0
S'good'
p76
tp77
a(I202
I0
I0
S'few'
p78
tp79
a(I202
I0
F-0.625
S'bad'
p80
tp81
a(I221
I11
F-0.625
S'bad'
p82
tp83
a(I225
I0
F0.375
S'honest'
p84
tp85
as(S'version'
p86
tp87
(lp88
(I3
I1
I0
S'french'
p89
tp90
a(I8
I3
F-0.5
S'international'
p91
tp92
a(I8
I6
F-0.5
S'international'
p93
tp94
a(I13
I1
F-0.375
S'smaller'
p95
tp96
a(I13
I1
F-0.625
S'lighter'
p97
tp98
a(I21
I0
I0
S'more'
p99
tp100
a(I21
I0
F-0.25
S'cheaper'
p101
tp102
a(I53
I0
F-0.5
S'international'
p103
tp104
a(I57
I5
F-0.5
S'international'
p105
tp106
a(I59
I0
F-0.5
S'international'
p107
tp108
a(I83
I0
F-0.5
S'international'
p109
tp110
a(I83
I0
I0
S'european'
p111
tp112
a(I91
I0
F0.25
S'unlocked'
p113
tp114
a(I97
I2
I0
S'european'
p115
tp116
a(I97
I2
F-0.5
S'international'
p117
tp118
a(I122
I1
F0.25
S'original'
p119
tp120
a(I147
I0
F-0.5
S'international'
p121
tp122
a(I148
I2
F-0.5
S'international'
p123
tp124
a(I164
I0
F-0.5
S'international'
p125
tp126
a(I167
I0
F-0.5
S'international'
p127
tp128
a(I179
I3
F-0.5
S'international'
p129
tp130
a(I186
I0
I0
S'french'
p131
tp132
a(I218
I0
F-0.5
S'international'
p133
tp134
a(I218
I1
I0
S'european'
p135
tp136
a(I223
I0
F-0.5
S'international'
p137
tp138
a(I239
I1
F-0.25
S'cheaper'
p139
tp140
a(I248
I0
F-0.5
S'international'
p141
tp142
a(I259
I5
F-0.5
S'international'
p143
tp144
a(I285
I8
F-0.5
S'international'
p145
tp146
a(I336
I5
F-0.75
S'wrong'
p147
tp148
a(I357
I1
F-0.5
S'international'
p149
tp150
a(I363
I4
F0.625
S'aware'
p151
tp152
a(I363
I4
F-0.5
S'international'
p153
tp154
a(I363
I4
F-0.75
S'likely'
p155
tp156
a(I366
I1
F-0.5
S'international'
p157
tp158
as(S'cellphone'
p159
tp160
(lp161
(I69
I0
I0
S'refurnished'
p162
tp163
a(I85
I0
I0
S'great'
p164
tp165
a(I127
I0
F0.875
S'happy'
p166
tp167
a(I195
I2
F0.375
S'new'
p168
tp169
a(I219
I0
F0.5
S'true'
p170
tp171
a(I284
I0
F1.0
S'good'
p172
tp173
a(I284
I0
F0.375
S'much'
p174
tp175
as(S'a'
p176
S'samsung'
p177
S'galaxy'
p178
tp179
(lp180
(I110
I0
I0
S'own'
p181
tp182
a(I181
I0
I0
S'young'
p183
tp184
a(I217
I0
F0.375
S'new'
p185
tp186
as(S'sd'
p187
S'card'
p188
tp189
(lp190
(I141
I3
I0
S'sd'
p191
tp192
a(I141
I6
I0
S'sd'
p193
tp194
a(I145
I1
F0.375
S'extra'
p195
tp196
as(S'english'
p197
tp198
(lp199
(I321
I7
I0
S'least'
p200
tp201
as(S'5'
p202
S'stars'
p203
tp204
(lp205
(I171
I2
F0.375
S'new'
p206
tp207
as(S'venezuela'
p208
tp209
(lp210
(I152
I0
F-0.625
S'bad'
p211
tp212
a(I156
I0
F0.375
S'honest'
p213
tp214
a(I164
I0
F0.5
S'possible'
p215
tp216
as(S'excellent'
p217
tp218
(lp219
(I342
I2
I0
S'general'
p220
tp221
as(S'language'
p222
tp223
(lp224
(I18
I1
I0
S'french'
p225
tp226
a(I44
I0
F1.0
S'good'
p227
tp228
a(I44
I0
F-0.375
S'blind'
p229
tp230
a(I95
I0
F0.625
S'polish'
p231
tp232
a(I185
I2
I0
S'english'
p233
tp234
a(I197
I2
F0.875
S'happy'
p235
tp236
a(I197
I2
F-0.375
S'manual'
p237
tp238
a(I202
I1
I0
S'french'
p239
tp240
a(I321
I6
I0
S'czech'
p241
tp242
a(I363
I2
I0
S'french'
p243
tp244
a(I363
I2
F0.125
S'able'
p245
tp246
as(S'sim'
p247
S'card'
p248
tp249
(lp250
(I40
I0
I0
S'different'
p251
tp252
a(I55
I2
F-0.5
S'regular'
p253
tp254
a(I73
I11
F-0.5
S'open'
p255
tp256
a(I73
I13
F-0.5
S'regular'
p257
tp258
a(I102
I1
I0
S'different'
p259
tp260
a(I102
I1
F-0.125
S'foreign'
p261
tp262
a(I102
I2
I0
S'european'
p263
tp264
a(I158
I0
I0
S'european'
p265
tp266
a(I242
I2
I0
S'old'
p267
tp268
a(I244
I2
F0.375
S'new'
p269
tp270
a(I279
I5
F-0.5
S'regular'
p271
tp272
a(I323
I6
I0
S'european'
p273
tp274
a(I366
I7
I0
S'full'
p275
tp276
as(S'samsung'
p277
S'galaxy'
p278
S's4'
p279
tp280
(lp281
(I110
I0
I0
g181
tp282
a(I181
I0
I0
g183
tp283
a(I217
I0
F0.375
g185
tp284
a(I316
I2
F0.875
S'happy'
p285
tp286
as(S'micro'
p287
S'sim'
p288
tp289
(lp290
(I55
I4
F-0.375
S'manual'
p291
tp292
a(I73
I11
F-0.5
g255
tp293
a(I73
I13
F-0.5
g257
tp294
a(I221
I12
F0.375
S'new'
p295
tp296
a(I221
I12
F-0.625
S'free'
p297
tp298
a(I242
I2
I0
g267
tp299
a(I279
I5
F-0.5
g271
tp300
as(S'card'
p301
tp302
(lp303
(I141
I3
I0
g191
tp304
a(I141
I6
I0
g193
tp305
a(I236
I0
I0
S'external'
p306
tp307
a(I244
I2
F0.375
g269
tp308
as(S'on'
p309
S's4'
p310
S'mini'
p311
tp312
(lp313
(I306
I1
I0
S'funny'
p314
tp315
a(I346
I4
I0
S'such'
p316
tp317
as(S'time'
p318
tp319
(lp320
(I6
I4
F0.125
S'last'
p321
tp322
a(I7
I1
F1.0
S'good'
p323
tp324
a(I17
I4
F-0.625
S'free'
p325
tp326
a(I17
I23
I0
S'most'
p327
tp328
a(I46
I0
F0.5
S'told'
p329
tp330
a(I56
I0
F-0.75
S'short'
p331
tp332
a(I66
I0
F-0.5
S'long'
p333
tp334
a(I117
I5
I0
S'same'
p335
tp336
a(I131
I1
I0
S'only'
p337
tp338
a(I199
I2
I0
S'same'
p339
tp340
a(I218
I1
F0.375
S'new'
p341
tp342
a(I274
I14
I0
S'same'
p343
tp344
a(I326
I1
I0
S'same'
p345
tp346
a(I338
I7
I0
S'only'
p347
tp348
as(S'n'
p349
S'french'
p350
tp351
(lp352
(I286
I6
F0.625
S'easy'
p353
tp354
a(I333
I1
F-0.375
S'manual'
p355
tp356
as(S'fast'
p357
tp358
(lp359
(I140
I0
F-0.375
S'small'
p360
tp361
a(I140
I0
F0.5
S'strong'
p362
tp363
as(S'problem'
p364
tp365
(lp366
(I3
I1
I0
S'only'
p367
tp368
a(I3
I1
I0
S'big'
p369
tp370
a(I26
I4
F-0.375
S'small'
p371
tp372
a(I26
I4
I0
S'only'
p373
tp374
a(I85
I0
I0
S'only'
p375
tp376
a(I102
I4
F0.5
S'second'
p377
tp378
a(I108
I3
F0.25
S'main'
p379
tp380
a(I117
I14
F0.125
S'last'
p381
tp382
a(I131
I5
F0.75
S'due'
p383
tp384
a(I141
I5
F0.125
S'first'
p385
tp386
a(I185
I12
F0.125
S'usual'
p387
tp388
a(I185
I19
F0.125
S'usual'
p389
tp390
a(I260
I0
F-0.625
S'other'
p391
tp392
a(I270
I2
I0
S'unsure'
p393
tp394
a(I323
I3
I0
S'same'
p395
tp396
a(I324
I7
I0
S'common'
p397
tp398
a(I364
I3
I0
S'only'
p399
tp400
a(I364
I3
F-0.75
S'little'
p401
tp402
as(g176
S'micro'
p403
S'sim'
p404
tp405
(lp406
(I55
I4
F-0.375
g291
tp407
a(I73
I11
F-0.5
g255
tp408
a(I73
I13
F-0.5
g257
tp409
a(I221
I12
F0.375
g295
tp410
a(I221
I12
F-0.625
g297
tp411
a(I242
I2
I0
g267
tp412
a(I279
I5
F-0.5
g271
tp413
as(S'money'
p414
tp415
(lp416
(I18
I2
F0.375
S'extra'
p417
tp418
a(I73
I21
F0.75
S'worth'
p419
tp420
a(I236
I1
F1.0
S'better'
p421
tp422
a(I357
I2
I0
S'more'
p423
tp424
as(S'change'
p425
tp426
(lp427
(I182
I0
F0.875
S'happy'
p428
tp429
as(S'price'
p430
tp431
(lp432
(I17
I3
F0.375
S'similar'
p433
tp434
a(I81
I0
I0
S'great'
p435
tp436
a(I91
I0
F0.5
S'reasonable'
p437
tp438
a(I143
I0
F0.5
S'reasonable'
p439
tp440
a(I213
I1
F1.0
S'good'
p441
tp442
a(I217
I4
F0.75
S'worth'
p443
tp444
a(I250
I0
F1.0
S'good'
p445
tp446
a(I316
I1
F-0.625
S'bad'
p447
tp448
a(I325
I2
F1.0
S'best'
p449
tp450
a(I326
I2
F0.875
S'nice'
p451
tp452
a(I346
I10
I0
S'high'
p453
tp454
as(S'service'
p455
tp456
(lp457
(I2
I5
F0.875
S'happy'
p458
tp459
a(I8
I0
I0
g46
tp460
a(I8
I6
F-0.625
S'bad'
p461
tp462
a(I21
I1
F-0.125
S'slow'
p463
tp464
a(I21
I1
F-0.5
S'poor'
p465
tp466
a(I91
I6
I0
g48
tp467
a(I101
I0
F1.0
S'good'
p468
tp469
a(I112
I2
F1.0
S'good'
p470
tp471
a(I139
I3
F1.0
S'good'
p472
tp473
a(I186
I1
I0
S'different'
p474
tp475
a(I293
I0
F-0.75
S'lost'
p476
tp477
a(I346
I9
F0.875
S'nice'
p478
tp479
as(S'works'
p480
tp481
(lp482
(I50
I0
I0
S'great'
p483
tp484
a(I74
I1
I0
S'great'
p485
tp486
a(I86
I0
F-0.5
S'international'
p487
tp488
a(I131
I11
I0
S'different'
p489
tp490
a(I136
I0
I0
S'great'
p491
tp492
a(I193
I2
I0
S'great'
p493
tp494
a(I206
I0
F-0.25
S'battery'
p495
tp496
a(I235
I2
F1.0
S'best'
p497
tp498
a(I299
I0
I0
S'great'
p499
tp500
as(S'custom'
p501
S'roms'
p502
tp503
(lp504
(I51
I22
F1.0
S'good'
p505
tp506
as(g176
S'little'
p507
S'bit'
p508
tp509
(lp510
(I28
I0
F-0.375
S'smaller'
p511
tp512
a(I51
I1
F0.25
S'larger'
p513
tp514
as(S'recommend'
p515
tp516
(lp517
(I117
I19
I0
S'id'
p518
tp519
as(S'product'
p520
tp521
(lp522
(I13
I0
I0
S'great'
p523
tp524
a(I20
I0
I0
S'great'
p525
tp526
a(I25
I0
I0
S'specific'
p527
tp528
a(I61
I0
F1.0
S'good'
p529
tp530
a(I61
I0
I0
S'big'
p531
tp532
a(I75
I0
F1.0
S'good'
p533
tp534
a(I125
I0
I0
S'handy'
p535
tp536
a(I146
I0
F1.0
S'good'
p537
tp538
a(I166
I0
F0.75
S'receive'
p539
tp540
a(I166
I0
F0.375
S'new'
p541
tp542
a(I186
I3
F-0.5
S'certain'
p543
tp544
a(I186
I3
F0.125
S'able'
p545
tp546
a(I256
I0
F1.0
S'good'
p547
tp548
a(I256
I0
I0
S'big'
p549
tp550
a(I266
I0
F1.0
S'good'
p551
tp552
a(I269
I0
F-0.75
S'incorrect'
p553
tp554
a(I274
I14
F1.0
S'good'
p555
tp556
a(I313
I0
F0.375
S'new'
p557
tp558
as(S'an'
p559
S'nternational'
p560
S'version'
p561
tp562
(lp563
(I8
I3
F-0.5
g91
tp564
a(I8
I6
F-0.5
g93
tp565
a(I53
I0
F-0.5
g103
tp566
a(I57
I5
F-0.5
g105
tp567
a(I59
I0
F-0.5
g107
tp568
a(I83
I0
F-0.5
g109
tp569
a(I83
I0
I0
g111
tp570
a(I97
I2
I0
g115
tp571
a(I97
I2
F-0.5
g117
tp572
a(I147
I0
F-0.5
g121
tp573
a(I167
I0
F-0.5
g127
tp574
a(I179
I3
F-0.5
g129
tp575
a(I218
I0
F-0.5
g133
tp576
a(I223
I0
F-0.5
g137
tp577
a(I248
I0
F-0.5
g141
tp578
a(I259
I5
F-0.5
g143
tp579
a(I285
I8
F-0.5
g145
tp580
a(I357
I1
F-0.5
g149
tp581
a(I363
I4
F0.625
g151
tp582
a(I363
I4
F-0.5
g153
tp583
a(I363
I4
F-0.75
g155
tp584
as(g349
S'perfect'
p585
tp586
(lp587
(I237
I1
I0
g15
tp588
as(S'features'
p589
tp590
(lp591
(I11
I1
I0
S'great'
p592
tp593
a(I21
I1
F-0.625
S'other'
p594
tp595
a(I88
I6
F0.125
S'key'
p596
tp597
a(I128
I2
I0
S'many'
p598
tp599
a(I128
I2
I0
S'own'
p600
tp601
a(I185
I16
F-0.625
S'bad'
p602
tp603
a(I200
I5
F0.125
S'key'
p604
tp605
a(I221
I7
I0
S'many'
p606
tp607
a(I221
I7
I0
S'many'
p608
tp609
a(I262
I2
I0
S'big'
p610
tp611
a(I274
I12
F-0.625
S'average'
p612
tp613
a(I337
I1
I0
S'great'
p614
tp615
a(I338
I1
I0
S'many'
p616
tp617
as(g349
S'country'
p618
tp619
(lp620
(I68
I0
F-0.125
S'foreign'
p621
tp622
a(I285
I6
F0.375
S'available'
p623
tp624
as(S'micro'
p625
S'sim'
p626
S'card'
p627
tp628
(lp629
(I55
I4
F-0.375
g291
tp630
a(I73
I11
F-0.5
g255
tp631
a(I73
I13
F-0.5
g257
tp632
a(I242
I2
I0
g267
tp633
a(I244
I2
F0.375
g269
tp634
a(I279
I5
F-0.5
g271
tp635
as(S'factory'
p636
tp637
(lp638
(I25
I0
F-0.5
S'international'
p639
tp640
a(I25
I0
F0.5
S'true'
p641
tp642
a(I73
I1
F-0.5
S'international'
p643
tp644
a(I142
I1
F-0.625
S'fresh'
p645
tp646
a(I189
I0
F0.25
S'original'
p647
tp648
as(S's3'
p649
S'mini'
p650
tp651
(lp652
(I61
I0
F-0.375
S'small'
p653
tp654
a(I243
I2
I0
S'faster'
p655
tp656
a(I256
I0
F-0.375
S'small'
p657
tp658
a(I372
I0
I0
S'faster'
p659
tp660
as(S'network'
p661
tp662
(lp663
(I17
I4
I0
S'social'
p664
tp665
a(I26
I3
I0
S'cellular'
p666
tp667
a(I102
I4
I0
S'asian'
p668
tp669
a(I285
I3
I0
S'social'
p670
tp671
as(S'thing'
p672
tp673
(lp674
(I66
I0
F0.25
S'main'
p675
tp676
a(I88
I12
I0
S'same'
p677
tp678
a(I123
I1
F1.0
S'best'
p679
tp680
a(I141
I8
I0
S'same'
p681
tp682
a(I141
I12
F1.0
S'good'
p683
tp684
a(I141
I12
F-0.625
S'light'
p685
tp686
a(I141
I12
F-0.375
S'small'
p687
tp688
a(I141
I14
I0
S'only'
p689
tp690
a(I154
I3
I0
S'funny'
p691
tp692
a(I171
I4
I0
S'only'
p693
tp694
a(I191
I1
I0
S'fast'
p695
tp696
a(I191
I1
I0
S'only'
p697
tp698
a(I240
I0
F-0.75
S'little'
p699
tp700
a(I240
I0
F-0.625
S'other'
p701
tp702
a(I314
I0
I0
S'only'
p703
tp704
a(I338
I7
I0
S'only'
p705
tp706
a(I338
I7
F-0.625
S'other'
p707
tp708
a(I347
I1
I0
S'only'
p709
tp710
a(I347
I1
F-0.75
S'wrong'
p711
tp712
a(I366
I5
I0
S'only'
p713
tp714
as(S'country'
p715
tp716
(lp717
(I68
I0
F-0.125
g621
tp718
a(I285
I6
F0.375
g623
tp719
as(g176
S'sim'
p720
S'card'
p721
tp722
(lp723
(I40
I0
I0
g251
tp724
a(I55
I2
F-0.5
g253
tp725
a(I73
I11
F-0.5
g255
tp726
a(I73
I13
F-0.5
g257
tp727
a(I102
I1
I0
g259
tp728
a(I102
I1
F-0.125
g261
tp729
a(I102
I2
I0
g263
tp730
a(I158
I0
I0
g265
tp731
a(I242
I2
I0
g267
tp732
a(I244
I2
F0.375
g269
tp733
a(I279
I5
F-0.5
g271
tp734
a(I323
I6
I0
g273
tp735
a(I366
I7
I0
g275
tp736
as(S'size'
p737
tp738
(lp739
(I11
I2
I0
S'great'
p740
tp741
a(I13
I2
I0
S'same'
p742
tp743
a(I24
I0
F0.125
S'practical'
p744
tp745
a(I36
I1
I0
S'big'
p746
tp747
a(I36
I1
F-0.375
S'small'
p748
tp749
a(I45
I2
F0.875
S'nice'
p750
tp751
a(I51
I1
F0.375
S'much'
p752
tp753
a(I51
I1
I0
S'same'
p754
tp755
a(I57
I3
F-0.375
S'small'
p756
tp757
a(I58
I2
F0.75
S'ideal'
p758
tp759
a(I66
I0
I0
S'same'
p760
tp761
a(I71
I0
I0
S'great'
p762
tp763
a(I81
I0
F0.625
S'easy'
p764
tp765
a(I84
I1
F0.625
S'perfect'
p766
tp767
a(I117
I4
F-0.375
S'small'
p768
tp769
a(I117
I4
F0.625
S'easy'
p770
tp771
a(I133
I0
I0
S'physical'
p772
tp773
a(I133
I4
I0
S'same'
p774
tp775
a(I150
I2
F-0.625
S'light'
p776
tp777
a(I155
I1
F0.625
S'perfect'
p778
tp779
a(I159
I2
I0
S'full'
p780
tp781
a(I159
I4
F0.375
S'much'
p782
tp783
a(I159
I4
I0
S'full'
p784
tp785
a(I159
I4
I0
S'full'
p786
tp787
a(I159
I6
I0
S'full'
p788
tp789
a(I159
I7
I0
S'next'
p790
tp791
a(I159
I7
I0
S'full'
p792
tp793
a(I160
I0
F-0.625
S'light'
p794
tp795
a(I160
I0
F0.75
S'proper'
p796
tp797
a(I185
I6
I0
S'great'
p798
tp799
a(I185
I6
I0
S'normal'
p800
tp801
a(I191
I0
F0.625
S'perfect'
p802
tp803
a(I199
I1
I0
S'fast'
p804
tp805
a(I235
I1
F0.625
S'perfect'
p806
tp807
a(I262
I1
I0
S'big'
p808
tp809
a(I276
I1
F0.625
S'perfect'
p810
tp811
a(I286
I4
I0
S'same'
p812
tp813
a(I305
I1
I0
S'great'
p814
tp815
a(I305
I1
I0
S'fast'
p816
tp817
a(I310
I1
F0.625
S'perfect'
p818
tp819
a(I316
I2
F-0.375
S'smaller'
p820
tp821
a(I316
I2
I0
S'full'
p822
tp823
a(I325
I1
F1.0
S'good'
p824
tp825
a(I345
I3
F0.625
S'perfect'
p826
tp827
a(I356
I1
F-0.375
S'small'
p828
tp829
a(I356
I1
F1.0
S'good'
p830
tp831
as(S'work'
p832
tp833
(lp834
(I117
I9
F-0.5
S'long'
p835
tp836
as(S'battery'
p837
S'life'
p838
tp839
(lp840
(I51
I2
I0
S'great'
p841
tp842
a(I51
I14
F1.0
S'good'
p843
tp844
a(I283
I1
I0
S'great'
p845
tp846
a(I342
I1
F-0.75
S'short'
p847
tp848
as(S'happy'
p849
S'with'
p850
S'purchase'
p851
tp852
(lp853
(I118
I4
F0.875
g22
tp854
a(I172
I0
F0.875
g26
tp855
a(I185
I18
F-0.125
g28
tp856
a(I185
I18
F0.875
g30
tp857
a(I275
I0
F0.875
g34
tp858
as(S'came'
p859
tp860
(lp861
(I38
I2
I0
S'japanese'
p862
tp863
a(I73
I14
F-0.75
S'worse'
p864
tp865
a(I154
I3
F0.5
S'seal'
p866
tp867
a(I185
I0
F-0.125
S'mine'
p868
tp869
as(S'samsung'
p870
S's4'
p871
S'mini'
p872
tp873
(lp874
(I110
I0
I0
g181
tp875
a(I217
I0
F0.375
g185
tp876
as(S'perfect'
p877
S'size'
p878
tp879
(lp880
(I36
I1
I0
g746
tp881
a(I36
I1
F-0.375
g748
tp882
a(I84
I1
F0.625
g766
tp883
a(I155
I1
F0.625
g778
tp884
a(I191
I0
F0.625
g802
tp885
a(I199
I1
I0
g804
tp886
a(I235
I1
F0.625
g806
tp887
a(I262
I1
I0
g808
tp888
a(I276
I1
F0.625
g810
tp889
a(I310
I1
F0.625
g818
tp890
a(I345
I3
F0.625
g826
tp891
as(S'back'
p892
tp893
(lp894
(I138
I9
I0
S'cable'
p895
tp896
a(I371
I8
F-0.375
S'black'
p897
tp898
as(S'nternational'
p899
S'version'
p900
tp901
(lp902
(I8
I3
F-0.5
g91
tp903
a(I8
I6
F-0.5
g93
tp904
a(I53
I0
F-0.5
g103
tp905
a(I57
I5
F-0.5
g105
tp906
a(I59
I0
F-0.5
g107
tp907
a(I83
I0
F-0.5
g109
tp908
a(I83
I0
I0
g111
tp909
a(I97
I2
I0
g115
tp910
a(I97
I2
F-0.5
g117
tp911
a(I147
I0
F-0.5
g121
tp912
a(I148
I2
F-0.5
g123
tp913
a(I164
I0
F-0.5
g125
tp914
a(I167
I0
F-0.5
g127
tp915
a(I179
I3
F-0.5
g129
tp916
a(I218
I0
F-0.5
g133
tp917
a(I223
I0
F-0.5
g137
tp918
a(I248
I0
F-0.5
g141
tp919
a(I259
I5
F-0.5
g143
tp920
a(I285
I8
F-0.5
g145
tp921
a(I357
I1
F-0.5
g149
tp922
a(I363
I4
F0.625
g151
tp923
a(I363
I4
F-0.5
g153
tp924
a(I363
I4
F-0.75
g155
tp925
a(I366
I1
F-0.5
g157
tp926
as(S'unlocked'
p927
S'nternational'
p928
S'version'
p929
tp930
(lp931
(I53
I0
F-0.5
g103
tp932
a(I57
I5
F-0.5
g105
tp933
a(I59
I0
F-0.5
g107
tp934
a(I83
I0
F-0.5
g109
tp935
a(I83
I0
I0
g111
tp936
a(I164
I0
F-0.5
g125
tp937
a(I167
I0
F-0.5
g127
tp938
a(I179
I3
F-0.5
g129
tp939
a(I223
I0
F-0.5
g137
tp940
a(I248
I0
F-0.5
g141
tp941
a(I357
I1
F-0.5
g149
tp942
as(S'straight'
p943
S'talk'
p944
tp945
(lp946
(I36
I2
F0.625
S'straight'
p947
tp948
a(I274
I2
F0.625
S'straight'
p949
tp950
as(S'mini'
p951
tp952
(lp953
(I300
I0
F1.0
S'best'
p954
tp955
a(I346
I4
I0
g316
tp956
a(I371
I3
F0.875
S'happy'
p957
tp958
as(S'fine'
p959
tp960
(lp961
(I125
I0
F1.0
S'good'
p962
tp963
a(I211
I0
F1.0
S'good'
p964
tp965
a(I339
I5
F-0.5
S'international'
p966
tp967
as(S'notification'
p968
S'light'
p969
tp970
(lp971
(I328
I6
F0.625
S'interested'
p972
tp973
a(I328
I6
F0.125
S'downside'
p974
tp975
a(I336
I5
F-0.625
S'other'
p976
tp977
a(I346
I2
I0
S'such'
p978
tp979
as(S's4'
p980
S'mini'
p981
tp982
(lp983
(I306
I1
I0
g314
tp984
a(I346
I4
I0
g316
tp985
as(S'adapter'
p986
tp987
(lp988
(I112
I4
F0.125
S'electric'
p989
tp990
a(I112
I4
I0
S'standard'
p991
tp992
a(I163
I1
I0
S'american'
p993
tp994
a(I253
I6
F-0.5
S'power'
p995
tp996
a(I336
I2
F0.625
S'changeable'
p997
tp998
a(I363
I3
F0.375
S'extra'
p999
tp1000
a(I363
I3
F-0.125
S'mine'
p1001
tp1002
as(S'use'
p1003
S't'
p1004
g349
tp1005
(lp1006
(I1
I6
I0
S'more'
p1007
tp1008
a(I6
I1
I0
S'standard'
p1009
tp1010
a(I8
I4
F-0.5
S'international'
p1011
tp1012
a(I51
I6
F-0.25
S'intensive'
p1013
tp1014
as(S'cover'
p1015
S'warranties'
p1016
tp1017
(lp1018
(I131
I10
I0
S'only'
p1019
tp1020
as(S'seller'
p1021
tp1022
(lp1023
(I55
I7
F0.5
S'hopeful'
p1024
tp1025
a(I179
I14
F0.625
S'aware'
p1026
tp1027
a(I219
I0
F-0.625
S'bad'
p1028
tp1029
a(I363
I0
F-0.125
S'mine'
p1030
tp1031
a(I368
I4
F0.375
S'reliable'
p1032
tp1033
as(g349
S'r'
p1034
S'pocket'
p1035
tp1036
(lp1037
(I7
I10
I0
S'great'
p1038
tp1039
a(I338
I2
F-0.375
S'small'
p1040
tp1041
as(S'amazon'
p1042
S'prime'
p1043
tp1044
(lp1045
(I336
I1
F0.375
S'prime'
p1046
tp1047
as(S'battery'
p1048
tp1049
(lp1050
(I11
I3
F0.125
S'last'
p1051
tp1052
a(I23
I0
F0.375
S'extra'
p1053
tp1054
a(I46
I0
F-0.125
S'slow'
p1055
tp1056
a(I46
I0
I0
S'more'
p1057
tp1058
a(I47
I0
I0
S'quick'
p1059
tp1060
a(I51
I9
F1.0
S'good'
p1061
tp1062
a(I51
I14
F1.0
g843
tp1063
a(I75
I1
F-0.5
S'long'
p1064
tp1065
a(I85
I0
I0
S'hot'
p1066
tp1067
a(I86
I3
I0
S'incredible'
p1068
tp1069
a(I138
I1
I0
S'full'
p1070
tp1071
a(I138
I10
I0
S'full'
p1072
tp1073
a(I167
I0
F0.25
S'original'
p1074
tp1075
a(I185
I16
F0.375
S'conscious'
p1076
tp1077
a(I200
I5
F0.125
S'able'
p1078
tp1079
a(I283
I1
I0
g845
tp1080
a(I307
I1
F0.125
S'last'
p1081
tp1082
a(I338
I5
I0
S'fast'
p1083
tp1084
a(I342
I1
F-0.75
g847
tp1085
as(S'samsung'
p1086
S'galaxy'
p1087
tp1088
(lp1089
(I110
I0
I0
g181
tp1090
a(I181
I0
I0
g183
tp1091
a(I217
I0
F0.375
g185
tp1092
as(S'cell'
p1093
tp1094
(lp1095
(I30
I2
F0.625
S'extraordinary'
p1096
tp1097
a(I103
I2
I0
S'great'
p1098
tp1099
a(I128
I2
F-0.375
S'manual'
p1100
tp1101
a(I128
I2
I0
S'hungarian'
p1102
tp1103
a(I128
I3
F0.875
S'happy'
p1104
tp1105
a(I189
I0
I0
S'orange'
p1106
tp1107
a(I285
I0
F0.375
S'new'
p1108
tp1109
a(I324
I2
I0
S'different'
p1110
tp1111
as(S't-mobile'
p1112
S'hungary'
p1113
tp1114
(lp1115
(I237
I2
F0.375
S'meant'
p1116
tp1117
as(S'xmas'
p1118
S'present'
p1119
tp1120
(lp1121
(I154
I4
I0
S'great'
p1122
tp1123
a(I154
I4
I0
S'more'
p1124
tp1125
a(I154
I4
F1.0
S'best'
p1126
tp1127
as(S'faster'
p1128
S'than'
p1129
S's3'
p1130
tp1131
(lp1132
(I77
I7
I0
S'faster'
p1133
tp1134
a(I243
I2
I0
g655
tp1135
a(I345
I2
I0
S'faster'
p1136
tp1137
a(I372
I0
I0
g659
tp1138
as(S'galaxy'
p1139
S's4'
p1140
S'mini'
p1141
tp1142
(lp1143
(I181
I0
I0
g183
tp1144
a(I306
I1
I0
g314
tp1145
as(g349
S'venezuela'
p1146
tp1147
(lp1148
(I152
I0
F-0.625
g211
tp1149
a(I156
I0
F0.375
g213
tp1150
a(I164
I0
F0.5
g215
tp1151
as(S'moto'
p1152
S'g'
p1153
tp1154
(lp1155
(I322
I0
F-0.375
S'smaller'
p1156
tp1157
as(S'screen'
p1158
tp1159
(lp1160
(I31
I1
F0.25
S'larger'
p1161
tp1162
a(I51
I2
F0.75
S'due'
p1163
tp1164
a(I51
I2
F-0.375
S'smaller'
p1165
tp1166
a(I77
I2
I0
S'narrower'
p1167
tp1168
a(I110
I2
F0.75
S'beautiful'
p1169
tp1170
a(I110
I2
F-0.75
S'little'
p1171
tp1172
a(I159
I4
F-0.75
S'bright'
p1173
tp1174
a(I159
I13
F0.875
S'nice'
p1175
tp1176
a(I188
I0
F1.0
S'good'
p1177
tp1178
a(I188
I0
I0
S'fast'
p1179
tp1180
a(I215
I3
I0
S'crystal'
p1181
tp1182
a(I215
I3
F0.5
S'clear'
p1183
tp1184
a(I221
I2
I0
S'big'
p1185
tp1186
a(I262
I3
F-0.375
S'smaller'
p1187
tp1188
a(I268
I0
I0
S'large'
p1189
tp1190
a(I278
I7
F1.0
S'best'
p1191
tp1192
a(I285
I3
I0
S'entire'
p1193
tp1194
a(I285
I5
F-0.75
S'bright'
p1195
tp1196
a(I285
I5
I0
S'sensitive'
p1197
tp1198
a(I306
I2
F0.25
S'bigger'
p1199
tp1200
a(I323
I1
F0.875
S'nice'
p1201
tp1202
a(I326
I1
F0.75
S'beautiful'
p1203
tp1204
a(I338
I2
I0
S'large'
p1205
tp1206
a(I354
I1
F0.875
S'nice'
p1207
tp1208
as(S'light'
p1209
tp1210
(lp1211
(I88
I47
F0.125
S'above'
p1212
tp1213
a(I336
I5
F-0.625
g976
tp1214
a(I346
I7
I0
S'great'
p1215
tp1216
as(S'everything'
p1217
tp1218
(lp1219
(I130
I1
F0.25
S'original'
p1220
tp1221
a(I183
I0
F0.625
S'responsible'
p1222
tp1223
a(I323
I8
F0.625
S'perfect'
p1224
tp1225
a(I347
I1
I0
S'great'
p1226
tp1227
a(I347
I1
I0
S'full'
p1228
tp1229
a(I371
I4
F0.5
S'slick'
p1230
tp1231
a(I371
I4
F0.625
S'easy'
p1232
tp1233
as(S'samsung'
p1234
tp1235
(lp1236
(I96
I0
F0.875
S'happy'
p1237
tp1238
a(I96
I0
F0.375
S'new'
p1239
tp1240
a(I107
I0
F-0.625
S'other'
p1241
tp1242
a(I110
I0
I0
g181
tp1243
a(I202
I2
I0
S'local'
p1244
tp1245
a(I207
I2
F0.25
S'original'
p1246
tp1247
a(I215
I5
I0
S'third'
p1248
tp1249
a(I217
I0
F0.375
g185
tp1250
a(I221
I13
F-0.5
S'sure'
p1251
tp1252
a(I231
I4
F0.25
S'recent'
p1253
tp1254
a(I231
I4
F0.375
S'newer'
p1255
tp1256
a(I264
I0
F-0.5
S'regular'
p1257
tp1258
a(I353
I2
I0
S'regional'
p1259
tp1260
as(S'camera'
p1261
tp1262
(lp1263
(I79
I3
F1.0
S'good'
p1264
tp1265
a(I141
I3
F-0.875
S'inferior'
p1266
tp1267
a(I160
I2
F-0.5
S'weak'
p1268
tp1269
a(I191
I1
F-0.125
S'slow'
p1270
tp1271
a(I327
I1
I0
S'great'
p1272
tp1273
a(I377
I0
F0.125
S'able'
p1274
tp1275
as(S'using'
p1276
tp1277
(lp1278
(I200
I5
I0
S'more'
p1279
tp1280
a(I200
I5
F0.625
S'interested'
p1281
tp1282
as(S'mobile'
p1283
tp1284
(lp1285
(I132
I0
I0
S'cellular'
p1286
tp1287
a(I313
I1
I0
S'french'
p1288
tp1289
as(S'galaxy'
p1290
tp1291
(lp1292
(I17
I1
F-0.5
S'regular'
p1293
tp1294
a(I71
I0
I0
S'old'
p1295
tp1296
a(I77
I2
F0.25
S'original'
p1297
tp1298
a(I110
I2
F0.25
S'sharp'
p1299
tp1300
a(I181
I0
I0
g183
tp1301
a(I225
I0
I0
S'old'
p1302
tp1303
a(I225
I0
I0
S'old'
p1304
tp1305
a(I354
I1
F0.125
S'last'
p1306
tp1307
as(S'group'
p1308
S'wireless'
p1309
tp1310
(lp1311
(I185
I1
F-0.125
S'mine'
p1312
tp1313
a(I185
I1
F-0.5
S'open'
p1314
tp1315
a(I200
I8
F-0.5
S'open'
p1316
tp1317
a(I280
I0
F-0.5
S'open'
p1318
tp1319
a(I374
I1
F-0.5
S'open'
p1320
tp1321
as(S'people'
p1322
tp1323
(lp1324
(I6
I3
F-0.75
S'tough'
p1325
tp1326
a(I41
I0
F0.375
S'new'
p1327
tp1328
a(I73
I10
F-0.625
S'other'
p1329
tp1330
a(I117
I19
F-0.5
S'sure'
p1331
tp1332
a(I133
I3
F-0.625
S'want'
p1333
tp1334
a(I159
I2
I0
S'most'
p1335
tp1336
a(I179
I11
F0.875
S'happy'
p1337
tp1338
a(I179
I13
F-0.25
S'fraud'
p1339
tp1340
a(I221
I2
F-0.75
S'hate'
p1341
tp1342
a(I291
I0
F-0.625
S'want'
p1343
tp1344
a(I323
I3
I0
S'many'
p1345
tp1346
a(I323
I8
I0
S'many'
p1347
tp1348
a(I350
I1
F0.375
S'complete'
p1349
tp1350
as(S'latin'
p1351
S'america'
p1352
tp1353
(lp1354
(I323
I6
I0
S'same'
p1355
tp1356
a(I323
I6
F-0.625
S'other'
p1357
tp1358
as(S'galaxy'
p1359
S's4'
p1360
tp1361
(lp1362
(I110
I2
F0.25
g1299
tp1363
a(I181
I0
I0
g183
tp1364
a(I306
I1
I0
g314
tp1365
a(I316
I2
F0.875
g285
tp1366
as(S'device'
p1367
tp1368
(lp1369
(I122
I0
I0
S'least'
p1370
tp1371
a(I237
I2
I0
S'hungary'
p1372
tp1373
a(I237
I2
I0
S'decided'
p1374
tp1375
a(I279
I11
F0.375
S'reliable'
p1376
tp1377
a(I279
I11
F0.125
S'practical'
p1378
tp1379
a(I285
I1
F0.25
S'powerful'
p1380
tp1381
a(I315
I1
I0
S'great'
p1382
tp1383
a(I375
I1
F-0.625
S'other'
p1384
tp1385
as(S'work'
p1386
g349
S'venezuela'
p1387
tp1388
(lp1389
(I152
I0
F-0.625
g211
tp1390
a(I164
I0
F0.5
g215
tp1391
as(S'buying'
p1392
tp1393
(lp1394
(I66
I0
I0
S'nervous'
p1395
tp1396
a(I171
I1
F-0.5
S'afraid'
p1397
tp1398
a(I195
I0
F-0.5
S'sure'
p1399
tp1400
as(S'charger'
p1401
tp1402
(lp1403
(I163
I1
I0
S'european'
p1404
tp1405
a(I171
I4
F0.25
S'original'
p1406
tp1407
a(I277
I0
I0
S'european'
p1408
tp1409
a(I352
I2
F-0.5
S'separate'
p1410
tp1411
as(S'apps'
p1412
tp1413
(lp1414
(I2
I3
I0
S'few'
p1415
tp1416
a(I2
I3
I0
S'french'
p1417
tp1418
a(I17
I19
F1.0
S'good'
p1419
tp1420
a(I63
I0
F-0.125
S'foreign'
p1421
tp1422
a(I64
I0
I0
S'great'
p1423
tp1424
a(I110
I2
I0
S'same'
p1425
tp1426
a(I117
I3
I0
S'standard'
p1427
tp1428
a(I159
I4
F-0.625
S'other'
p1429
tp1430
a(I159
I4
I0
S'more'
p1431
tp1432
a(I159
I4
F-0.5
S'regular'
p1433
tp1434
a(I200
I3
I0
S'large'
p1435
tp1436
a(I200
I5
I0
S'useful'
p1437
tp1438
a(I244
I0
I0
S'many'
p1439
tp1440
a(I244
I0
I0
S'useful'
p1441
tp1442
a(I257
I1
F0.25
S'powerful'
p1443
tp1444
a(I261
I0
I0
S'basic'
p1445
tp1446
as(S'days'
p1447
tp1448
(lp1449
(I17
I26
F0.125
S'plenty'
p1450
tp1451
a(I88
I10
I0
S'few'
p1452
tp1453
a(I88
I26
I0
S'few'
p1454
tp1455
a(I126
I1
I0
S'later'
p1456
tp1457
a(I131
I7
I0
S'later'
p1458
tp1459
a(I131
I7
F0.125
S'first'
p1460
tp1461
a(I131
I11
I0
S'later'
p1462
tp1463
a(I351
I0
I0
S'few'
p1464
tp1465
a(I351
I0
I0
S'later'
p1466
tp1467
a(I371
I8
I0
S'few'
p1468
tp1469
a(I371
I8
I0
S'later'
p1470
tp1471
as.