(dp0
(S'model'
p1
tp2
(lp3
(I32
I3
I0
S'american'
p4
tp5
a(I84
I7
I0
S'identical'
p6
tp7
a(I107
I2
F0.375
S'newer'
p8
tp9
as(S'transfer'
p10
S'files'
p11
tp12
(lp13
(I19
I0
F0.875
S'music'
p14
tp15
as(S'perfect'
p16
tp17
(lp18
(I89
I0
I0
S'mobile'
p19
tp20
as(S'battery'
p21
S'life'
p22
tp23
(lp24
(I54
I8
F0.125
S'impressive'
p25
tp26
a(I92
I6
F0.125
S'last'
p27
tp28
as(S'purchase'
p29
tp30
(lp31
(I6
I1
F1.0
S'good'
p32
tp33
a(I31
I2
F0.875
S'happy'
p34
tp35
a(I143
I2
F0.875
S'happy'
p36
tp37
a(I166
I1
F1.0
S'good'
p38
tp39
a(I189
I9
F0.875
S'happy'
p40
tp41
a(I189
I9
F0.625
S'right'
p42
tp43
as(S'big'
p44
S'brother'
p45
tp46
(lp47
(I57
I0
I0
S'big'
p48
tp49
a(I57
I0
F0.25
S'original'
p50
tp51
a(I85
I0
F0.25
S'bigger'
p52
tp53
a(I125
I0
I0
S'big'
p54
tp55
a(I134
I0
I0
S'big'
p56
tp57
a(I149
I1
I0
S'big'
p58
tp59
a(I162
I1
F0.25
S'bigger'
p60
tp61
as(S'fits'
p62
S'n'
p63
S'pocket'
p64
tp65
(lp66
(I145
I2
I0
S'large'
p67
tp68
a(I152
I2
F0.75
S'ideal'
p69
tp70
a(I189
I2
I0
S'handy'
p71
tp72
as(S'money'
p73
tp74
(lp75
(I1
I4
F0.5
S'absolute'
p76
tp77
a(I1
I4
F1.0
S'best'
p78
tp79
a(I92
I1
F0.375
S'extra'
p80
tp81
as(S'price'
p82
tp83
(lp84
(I1
I5
I0
S'full'
p85
tp86
a(I100
I0
F0.5
S'elegant'
p87
tp88
a(I190
I2
F1.0
S'good'
p89
tp90
as(S'dual'
p91
S'sim'
p92
S'feature'
p93
tp94
(lp95
(I67
I1
I0
S'more'
p96
tp97
a(I67
I1
F-0.625
S'other'
p98
tp99
a(I99
I6
F0.375
S'flexible'
p100
tp101
a(I130
I2
I0
S'great'
p102
tp103
as(S'service'
p104
tp105
(lp106
(I81
I0
I0
S'great'
p107
tp108
a(I156
I9
F-0.5
S'poor'
p109
tp110
a(I156
I9
F-0.625
S'unprofessional'
p111
tp112
as(S'perfect'
p113
S'size'
p114
tp115
(lp116
(I1
I3
F0.625
S'perfect'
p117
tp118
a(I25
I2
F0.625
S'perfect'
p119
tp120
a(I89
I0
I0
g19
tp121
a(I121
I1
F0.625
S'perfect'
p122
tp123
a(I127
I1
F0.625
S'easy'
p124
tp125
a(I127
I1
F-0.625
S'light'
p126
tp127
a(I127
I1
F0.625
S'perfect'
p128
tp129
a(I145
I2
F0.625
S'perfect'
p130
tp131
a(I145
I2
I0
S'large'
p132
tp133
a(I190
I1
F0.625
S'perfect'
p134
tp135
as(S'2'
p136
S'days'
p137
tp138
(lp139
(I85
I3
I0
S'faster'
p140
tp141
a(I85
I3
F0.5
S'told'
p142
tp143
a(I156
I11
I0
S'later'
p144
tp145
as(S'samsung'
p146
tp147
(lp148
(I22
I0
I0
S'standard'
p149
tp150
a(I96
I1
F0.25
S'original'
p151
tp152
a(I109
I4
F0.25
S'recent'
p153
tp154
a(I109
I4
F0.375
S'newer'
p155
tp156
a(I137
I1
F0.125
S'last'
p157
tp158
a(I200
I0
F0.875
S'happy'
p159
tp160
as(S'galaxy'
p161
S's4'
p162
tp163
(lp164
(I67
I1
F-0.625
S'other'
p165
tp166
as(S'size'
p167
S'perfect'
p168
tp169
(lp170
(I1
I3
F0.625
g117
tp171
a(I25
I2
F0.625
g119
tp172
a(I89
I0
I0
g19
tp173
a(I121
I1
F0.625
g122
tp174
a(I127
I1
F0.625
g124
tp175
a(I127
I1
F-0.625
g126
tp176
a(I127
I1
F0.625
g128
tp177
a(I145
I2
F0.625
g130
tp178
a(I145
I2
I0
g132
tp179
a(I190
I1
F0.625
g134
tp180
as(g63
S'pocket'
p181
tp182
(lp183
(I15
I1
F-0.75
S'uncomfortable'
p184
tp185
a(I15
I1
I0
S'full'
p186
tp187
a(I125
I1
F0.625
S'easy'
p188
tp189
a(I145
I2
I0
g67
tp190
as(S'dual'
p191
S'sim'
p192
tp193
(lp194
(I25
I2
I0
S'great'
p195
tp196
a(I53
I0
F-0.5
S'heavy'
p197
tp198
a(I67
I1
I0
g96
tp199
a(I67
I1
F-0.625
g98
tp200
a(I88
I0
F1.0
S'best'
p201
tp202
a(I165
I0
I0
S'great'
p203
tp204
a(I180
I8
I0
S'standard'
p205
tp206
a(I202
I2
F1.0
S'best'
p207
tp208
a(I207
I0
I0
S'great'
p209
tp210
as(g63
S'venezuela'
p211
tp212
(lp213
(I46
I1
F0.625
S'perfect'
p214
tp215
as(S'wifi'
p216
tp217
(lp218
(I92
I9
I0
S'relevant'
p219
tp220
a(I99
I0
F0.5
S'rid'
p221
tp222
as(S'mini'
p223
tp224
(lp225
(I125
I0
F0.625
S'aware'
p226
tp227
as(S'apps'
p228
tp229
(lp230
(I37
I0
F0.125
S'native'
p231
tp232
a(I57
I4
F0.375
S'new'
p233
tp234
a(I63
I1
F-0.5
S'longer'
p235
tp236
a(I92
I5
I0
S'few'
p237
tp238
a(I92
I5
I0
S'basic'
p239
tp240
a(I121
I10
I0
S'close'
p241
tp242
a(I123
I0
I0
S'many'
p243
tp244
a(I203
I0
F0.375
S'much'
p245
tp246
as(S'samsung'
p247
S'galaxy'
p248
S's4'
p249
tp250
(lp251
(I200
I0
F0.875
g159
tp252
as(S'product'
p253
tp254
(lp255
(I13
I0
F1.0
S'good'
p256
tp257
a(I26
I0
F1.0
S'good'
p258
tp259
a(I26
I0
F0.625
S'easy'
p260
tp261
a(I26
I0
F1.0
S'good'
p262
tp263
a(I77
I3
I0
S'great'
p264
tp265
a(I105
I0
F1.0
S'good'
p266
tp267
a(I110
I1
F0.125
S'indicative'
p268
tp269
a(I118
I0
F0.5
S'compatible'
p270
tp271
a(I125
I0
F1.0
S'good'
p272
tp273
a(I209
I0
I0
S'supplier'
p274
tp275
as(S'right'
p276
tp277
(lp278
(I25
I4
F-0.125
S'mine'
p279
tp280
as(S'galaxy'
p281
tp282
(lp283
(I23
I1
F0.125
S'first'
p284
tp285
a(I67
I1
F-0.625
g165
tp286
a(I204
I6
I0
S'chinese'
p287
tp288
as(S'great'
p289
tp290
(lp291
(I124
I4
F-0.75
S'bright'
p292
tp293
as(S's4'
p294
S'mini'
p295
tp296
(lp297
(I8
I4
F-0.125
S'overall'
p298
tp299
a(I125
I0
F0.625
g226
tp300
as(S'features'
p301
tp302
(lp303
(I4
I0
F1.0
S'good'
p304
tp305
a(I15
I1
F1.0
S'good'
p306
tp307
a(I54
I11
F0.375
S'extra'
p308
tp309
a(I67
I1
I0
S'same'
p310
tp311
a(I84
I3
I0
S'most'
p312
tp313
a(I107
I2
F1.0
S'enjoy'
p314
tp315
a(I113
I1
F-0.5
S'sure'
p316
tp317
a(I136
I1
F0.125
S'key'
p318
tp319
a(I178
I1
I0
S'faster'
p320
tp321
a(I182
I1
I0
S'many'
p322
tp323
a(I192
I1
F1.0
S'better'
p324
tp325
a(I197
I1
I0
S'many'
p326
tp327
a(I202
I1
F0.875
S'nice'
p328
tp329
as(S'using'
p330
tp331
(lp332
(I121
I10
F0.625
S'finish'
p333
tp334
as(S'everything'
p335
tp336
(lp337
(I110
I3
F0.625
S'easy'
p338
tp339
a(I110
I3
F0.625
S'easy'
p340
tp341
as(S'with'
p342
S's4'
p343
S'mini'
p344
tp345
(lp346
(I8
I4
F-0.125
g298
tp347
as(S'people'
p348
tp349
(lp350
(I32
I11
F-0.75
S'worse'
p351
tp352
a(I49
I5
I0
S'old'
p353
tp354
a(I92
I4
F0.625
S'easy'
p355
tp356
a(I92
I4
I0
S'many'
p357
tp358
a(I129
I0
I0
S'few'
p359
tp360
a(I129
I0
F-0.625
S'other'
p361
tp362
as(S'months'
p363
tp364
(lp365
(I54
I3
F-0.5
S'heavy'
p366
tp367
a(I159
I0
F-0.875
S'hard'
p368
tp369
as(S'dual'
p370
S'sim'
p371
S'works'
p372
tp373
(lp374
(I53
I0
F-0.5
g197
tp375
a(I53
I0
I0
S'great'
p376
tp377
a(I88
I0
F1.0
g201
tp378
a(I165
I0
I0
g203
tp379
as(S'light'
p380
S'weight'
p381
tp382
(lp383
(I67
I1
F-0.625
S'light'
p384
tp385
a(I94
I2
I0
S'great'
p386
tp387
a(I104
I2
I0
S'great'
p388
tp389
a(I180
I4
F-0.625
S'light'
p390
tp391
as(S'sim'
p392
S'cards'
p393
tp394
(lp395
(I33
I3
I0
S'old'
p396
tp397
a(I33
I3
I0
S'large'
p398
tp399
a(I33
I3
I0
S'own'
p400
tp401
a(I106
I13
F1.0
S'good'
p402
tp403
a(I144
I0
I0
S'russian'
p404
tp405
a(I199
I0
I0
S'german'
p406
tp407
as(S'seller'
p408
tp409
(lp410
(I150
I1
F-0.625
S'bad'
p411
tp412
a(I192
I3
F1.0
S'good'
p413
tp414
as(S'fine'
p415
tp416
(lp417
(I89
I1
F0.125
S'colorful'
p418
tp419
as(S'works'
p420
tp421
(lp422
(I13
I0
F0.5
S'elegant'
p423
tp424
a(I51
I2
F0.25
S'original'
p425
tp426
a(I51
I4
I0
S'great'
p427
tp428
a(I53
I0
I0
g376
tp429
a(I73
I1
I0
S'great'
p430
tp431
a(I155
I0
F1.0
S'good'
p432
tp433
as(S'venezuela'
p434
tp435
(lp436
(I46
I1
F0.625
g214
tp437
as(S'kind'
p438
tp439
(lp440
(I54
I27
I0
S'inside'
p441
tp442
a(I54
I45
I0
S'proprietary'
p443
tp444
as(S'battery'
p445
tp446
(lp447
(I12
I1
F0.625
S'removable'
p448
tp449
a(I21
I2
F1.0
S'good'
p450
tp451
a(I22
I1
F-0.25
S'low'
p452
tp453
a(I36
I2
I0
S'wish'
p454
tp455
a(I36
I2
F0.125
S'last'
p456
tp457
a(I68
I0
F0.125
S'last'
p458
tp459
a(I111
I1
I0
S'faster'
p460
tp461
a(I111
I1
I0
S'faster'
p462
tp463
a(I111
I9
F0.375
S'new'
p464
tp465
a(I148
I0
F0.375
S'new'
p466
tp467
a(I166
I0
I0
S'hot'
p468
tp469
a(I194
I0
F-0.375
S'serious'
p470
tp471
a(I194
I1
F0.125
S'last'
p472
tp473
a(I203
I0
F-0.625
S'bad'
p474
tp475
as(S'smart'
p476
tp477
(lp478
(I28
I0
F1.0
S'good'
p479
tp480
a(I65
I0
F0.125
S'first'
p481
tp482
a(I70
I0
F0.125
S'first'
p483
tp484
a(I85
I2
F-0.375
S'crazy'
p485
tp486
a(I92
I0
F0.625
S'fair'
p487
tp488
a(I92
I0
F0.125
S'first'
p489
tp490
a(I92
I0
I0
S'real'
p491
tp492
a(I92
I3
F-0.625
S'other'
p493
tp494
a(I100
I0
F1.0
S'good'
p495
tp496
a(I140
I0
F-0.375
S'small'
p497
tp498
a(I140
I0
I0
S'great'
p499
tp500
a(I140
I0
F0.25
S'powerful'
p501
tp502
a(I205
I0
F0.125
S'impressive'
p503
tp504
as(S'few'
p505
S'weeks'
p506
tp507
(lp508
(I62
I0
I0
S'few'
p509
tp510
a(I111
I1
I0
S'few'
p511
tp512
a(I175
I0
I0
S'few'
p513
tp514
as(S'samsung'
p515
S'galaxy'
p516
tp517
(lp518
(I200
I0
F0.875
g159
tp519
a(I204
I6
I0
g287
tp520
as(S'cell'
p521
tp522
(lp523
(I3
I0
F0.875
S'nice'
p524
tp525
a(I63
I0
I0
S'different'
p526
tp527
a(I121
I0
F0.875
S'nice'
p528
tp529
a(I121
I0
F-0.75
S'difficult'
p530
tp531
a(I121
I0
F1.0
S'good'
p532
tp533
a(I121
I0
F-0.375
S'small'
p534
tp535
a(I162
I0
I0
S'more'
p536
tp537
a(I203
I0
F1.0
S'good'
p538
tp539
as(S'calls'
p540
tp541
(lp542
(I15
I1
I0
S'few'
p543
tp544
a(I84
I5
F-0.625
S'free'
p545
tp546
a(I189
I6
F0.125
S'able'
p547
tp548
as(S'thing'
p549
tp550
(lp551
(I18
I2
I0
S'only'
p552
tp553
a(I44
I4
I0
S'only'
p554
tp555
a(I54
I3
F0.5
S'whole'
p556
tp557
a(I54
I34
F-0.875
S'worst'
p558
tp559
a(I54
I39
I0
S'only'
p560
tp561
a(I54
I39
F-0.75
S'worse'
p562
tp563
a(I54
I47
I0
S'slippery'
p564
tp565
a(I99
I2
I0
S'same'
p566
tp567
a(I119
I0
F1.0
S'good'
p568
tp569
a(I119
I0
F0.875
S'music'
p570
tp571
a(I119
I0
F0.5
S'clear'
p572
tp573
a(I121
I0
I0
S'fast'
p574
tp575
a(I121
I0
F0.875
S'nice'
p576
tp577
a(I137
I0
F1.0
S'best'
p578
tp579
a(I164
I1
F0.75
S'beautiful'
p580
tp581
as(S'sim'
p582
S'card'
p583
tp584
(lp585
(I33
I3
I0
g396
tp586
a(I33
I3
I0
g400
tp587
a(I87
I1
I0
S'american'
p588
tp589
a(I144
I0
I0
g404
tp590
a(I199
I0
I0
g406
tp591
as(S'device'
p592
tp593
(lp594
(I99
I3
F-0.625
S'other'
p595
tp596
a(I113
I3
F1.0
S'good'
p597
tp598
a(I133
I0
F0.875
S'nice'
p599
tp600
a(I173
I0
F0.625
S'convenient'
p601
tp602
a(I175
I0
F-0.625
S'other'
p603
tp604
a(I182
I0
F-0.375
S'smooth'
p605
tp606
a(I182
I2
F-0.625
S'light'
p607
tp608
as(S'first'
p609
S'week'
p610
tp611
(lp612
(I32
I0
F0.125
S'first'
p613
tp614
a(I32
I14
F0.125
S'first'
p615
tp616
a(I124
I9
F0.125
S'first'
p617
tp618
as(S'feature'
p619
tp620
(lp621
(I84
I3
I0
S'critical'
p622
tp623
a(I84
I6
F0.625
S'aware'
p624
tp625
a(I84
I8
F0.875
S'important'
p626
tp627
a(I99
I6
F0.375
g100
tp628
a(I130
I2
I0
g102
tp629
as(S'screen'
p630
tp631
(lp632
(I1
I3
I0
S'next'
p633
tp634
a(I12
I1
F0.25
S'bigger'
p635
tp636
a(I15
I1
F1.0
S'good'
p637
tp638
a(I61
I1
F0.375
S'reliable'
p639
tp640
a(I61
I1
I0
S'great'
p641
tp642
a(I100
I0
F1.0
S'good'
p643
tp644
a(I181
I1
F-0.375
S'small'
p645
tp646
a(I184
I4
I0
S'great'
p647
tp648
a(I197
I3
F-0.625
S'other'
p649
tp650
as(S'time'
p651
tp652
(lp653
(I5
I0
F0.5
S'second'
p654
tp655
a(I22
I1
F-0.625
S'green'
p656
tp657
a(I54
I27
F-0.5
S'long'
p658
tp659
a(I63
I0
I0
S'same'
p660
tp661
a(I91
I0
F1.0
S'good'
p662
tp663
a(I92
I7
F0.125
S'plenty'
p664
tp665
a(I133
I1
I0
S'same'
p666
tp667
as(S'camera'
p668
tp669
(lp670
(I54
I11
I0
S'great'
p671
tp672
a(I97
I0
F0.25
S'effective'
p673
tp674
a(I165
I0
F1.0
S'good'
p675
tp676
as(S'quality'
p677
tp678
(lp679
(I67
I1
F-0.625
S'bad'
p680
tp681
a(I105
I1
F1.0
S'good'
p682
tp683
a(I134
I0
F1.0
S'good'
p684
tp685
a(I155
I0
F1.0
S'good'
p686
tp687
a(I200
I0
F1.0
S'good'
p688
tp689
as(S'smartphone'
p690
tp691
(lp692
(I58
I1
I0
S'more'
p693
tp694
a(I61
I2
F-0.625
S'other'
p695
tp696
a(I83
I0
F1.0
S'good'
p697
tp698
a(I107
I0
F0.125
S'first'
p699
tp700
a(I155
I1
F0.875
S'happy'
p701
tp702
as(S'galaxy'
p703
S's4'
p704
S'mini'
p705
tp706
(lp707
(I67
I1
F-0.625
g165
tp708
as(S'light'
p709
tp710
(lp711
(I113
I2
F-0.75
S'bright'
p712
tp713
as(S'a'
p714
S'sim'
p715
S'card'
p716
tp717
(lp718
(I33
I3
I0
g396
tp719
a(I33
I3
I0
g400
tp720
a(I87
I1
I0
g588
tp721
a(I144
I0
I0
g404
tp722
a(I199
I0
I0
g406
tp723
as(S'size'
p724
tp725
(lp726
(I1
I3
F0.625
g117
tp727
a(I15
I1
I0
S'adequate'
p728
tp729
a(I25
I2
F0.625
g119
tp730
a(I39
I2
F-0.375
S'small'
p731
tp732
a(I39
I2
F1.0
S'good'
p733
tp734
a(I48
I1
I0
S'prefect'
p735
tp736
a(I54
I1
I0
S'great'
p737
tp738
a(I67
I1
F-0.375
S'small'
p739
tp740
a(I85
I0
F-0.375
S'smaller'
p741
tp742
a(I92
I3
I0
S'many'
p743
tp744
a(I100
I0
F0.625
S'easy'
p745
tp746
a(I121
I1
F0.625
g122
tp747
a(I123
I0
I0
S'great'
p748
tp749
a(I125
I1
F-0.375
S'small'
p750
tp751
a(I125
I1
I0
S'very'
p752
tp753
a(I125
I1
F0.25
S'portable'
p754
tp755
a(I127
I1
F0.625
g124
tp756
a(I127
I1
F-0.625
g126
tp757
a(I127
I1
F0.625
g128
tp758
a(I141
I0
F1.0
S'good'
p759
tp760
a(I141
I0
F-0.75
S'comfortable'
p761
tp762
a(I145
I2
F0.625
g130
tp763
a(I145
I2
I0
g132
tp764
a(I160
I3
I0
S'full'
p765
tp766
a(I168
I0
F-0.375
S'small'
p767
tp768
a(I190
I1
F0.625
g134
tp769
a(I208
I3
F1.0
S'good'
p770
tp771
as(S'customer'
p772
S'service'
p773
tp774
(lp775
(I81
I0
I0
g107
tp776
as(S'pocket'
p777
tp778
(lp779
(I15
I1
F-0.75
g184
tp780
a(I15
I1
I0
g186
tp781
a(I125
I1
F0.625
g188
tp782
a(I145
I2
I0
g67
tp783
as(S'work'
p784
tp785
(lp786
(I44
I1
F0.5
S'personal'
p787
tp788
a(I54
I10
I0
S'entire'
p789
tp790
a(I102
I0
F1.0
S'good'
p791
tp792
as(S'safe'
p793
S'mode'
p794
tp795
(lp796
(I18
I1
F0.625
S'safe'
p797
tp798
as(S'days'
p799
tp800
(lp801
(I32
I13
I0
S'few'
p802
tp803
a(I85
I3
I0
g140
tp804
a(I85
I3
F0.5
g142
tp805
a(I110
I8
I0
S'few'
p806
tp807
a(I156
I11
I0
g144
tp808
as(S'cards'
p809
tp810
(lp811
(I33
I3
I0
g398
tp812
a(I106
I13
F1.0
g402
tp813
as(S'fast'
p814
tp815
(lp816
(I123
I0
I0
S'very'
p817
tp818
as.