(dp0
(S'screen'
p1
S'size'
p2
tp3
(lp4
(I23
I2
I0
S'big'
p5
I3
tp6
a(I23
I2
F0.125
S'able'
p7
I3
tp8
a(I24
I3
F0.25
S'larger'
p9
I3
tp10
a(I30
I39
F1.0
S'good'
p11
I3
tp12
a(I61
I31
F-0.625
S'light'
p13
I3
tp14
as(S'happy'
p15
S'with'
p16
S'purchase'
p17
tp18
(lp19
(I18
I6
F0.875
S'happy'
p20
I0
tp21
a(I44
I11
F0.875
S'happy'
p22
I0
tp23
a(I51
I3
F0.875
S'happy'
p24
I0
tp25
a(I51
I4
F0.875
S'happy'
p26
I0
tp27
a(I55
I4
F0.875
S'happy'
p28
I0
tp29
a(I61
I61
F0.875
S'happy'
p30
I0
tp31
as(S'battery'
p32
S'life'
p33
tp34
(lp35
(I6
I6
F1.0
S'better'
p36
I1
tp37
a(I6
I56
F1.0
S'good'
p38
I1
tp39
a(I7
I0
I0
S'great'
p40
I1
tp41
a(I11
I30
F0.625
S'aware'
p42
I1
tp43
a(I28
I11
F1.0
S'good'
p44
I1
tp45
a(I30
I66
F-0.5
S'sure'
p46
I1
tp47
a(I46
I7
F-0.625
S'average'
p48
I1
tp49
a(I50
I7
F1.0
S'good'
p50
I1
tp51
a(I54
I77
F1.0
S'best'
p52
I1
tp53
a(I54
I77
F1.0
S'good'
p54
I1
tp55
a(I54
I106
F1.0
S'better'
p56
I1
tp57
a(I54
I125
F-0.75
S'little'
p58
I1
tp59
a(I70
I10
F0.375
S'extra'
p60
I1
tp61
a(I72
I3
F1.0
S'good'
p62
I1
tp63
a(I79
I31
F1.0
S'good'
p64
I1
tp65
a(I6
I6
F1.0
g36
I19
tp66
a(I6
I56
F1.0
g38
I19
tp67
a(I7
I0
I0
g40
I19
tp68
a(I21
I36
F0.625
S'easier'
p69
I19
tp70
a(I28
I11
F1.0
g44
I19
tp71
a(I30
I66
F-0.5
g46
I19
tp72
a(I50
I7
F1.0
g50
I19
tp73
a(I54
I77
F1.0
g52
I19
tp74
a(I54
I77
F1.0
g54
I19
tp75
a(I54
I106
F1.0
g56
I19
tp76
a(I72
I3
F1.0
g62
I19
tp77
a(I79
I31
F1.0
g64
I19
tp78
a(I2
I37
F-0.75
S'little'
p79
I15
tp80
a(I2
I67
F0.5
S'second'
p81
I15
tp82
a(I8
I16
F-0.5
S'sure'
p83
I15
tp84
a(I11
I12
F0.625
S'removable'
p85
I15
tp86
a(I11
I30
F0.625
g42
I15
tp87
a(I30
I31
F0.125
S'last'
p88
I15
tp89
a(I30
I31
I0
S'faster'
p90
I15
tp91
a(I35
I6
F-0.5
S'longer'
p92
I15
tp93
a(I37
I31
I0
S'faster'
p94
I15
tp95
a(I37
I31
I0
S'normal'
p96
I15
tp97
a(I43
I10
F0.375
S'new'
p98
I15
tp99
a(I46
I7
F-0.625
g48
I15
tp100
a(I51
I16
F0.375
S'new'
p101
I15
tp102
a(I53
I77
F-0.5
S'longer'
p103
I15
tp104
a(I54
I48
I0
S'great'
p105
I15
tp106
a(I54
I79
F0.375
S'extra'
p107
I15
tp108
a(I54
I125
F-0.75
g58
I15
tp109
a(I59
I7
F-0.75
S'worse'
p110
I15
tp111
a(I61
I37
F-0.875
S'worst'
p112
I15
tp113
a(I63
I42
F0.125
S'last'
p114
I15
tp115
a(I66
I43
F0.625
S'replaceable'
p116
I15
tp117
a(I70
I10
F0.375
g60
I15
tp118
a(I72
I21
F0.625
S'removable'
p119
I15
tp120
a(I79
I45
F0.375
S'extended'
p121
I15
tp122
as(S'network'
p123
tp124
(lp125
(I48
I4
F0.375
S'reliable'
p126
I0
tp127
a(I48
I4
F1.0
S'best'
p128
I0
tp129
a(I54
I31
I0
S'same'
p130
I0
tp131
a(I55
I10
F-0.625
S'other'
p132
I0
tp133
a(I63
I9
I0
S'mobile'
p134
I0
tp135
a(I63
I11
I0
S'mobile'
p136
I0
tp137
a(I63
I11
F0.375
S'available'
p138
I0
tp139
as(S'to'
p140
S'virgin'
p141
S'mobile'
p142
tp143
(lp144
(I10
I5
F-0.5
S'sure'
p145
I0
tp146
a(I36
I19
I0
S'old'
p147
I0
tp148
a(I41
I16
I0
S'old'
p149
I0
tp150
a(I41
I19
F0.875
S'happy'
p151
I0
tp152
a(I53
I24
F-0.5
S'poor'
p153
I0
tp154
a(I53
I49
I0
S'great'
p155
I0
tp156
a(I53
I52
I0
S'mobile'
p157
I0
tp158
a(I84
I2
F0.25
S'helpful'
p159
I0
tp160
as(S'text'
p161
tp162
(lp163
(I34
I9
F0.5
S'clear'
p164
I18
tp165
a(I66
I94
F0.625
S'easy'
p166
I18
tp167
as(S'galaxy'
p168
S's3'
p169
tp170
(lp171
(I61
I56
F1.0
S'love'
p172
I0
tp173
a(I70
I3
I0
S'website'
p174
I0
tp175
as(S'faster'
p176
tp177
(lp178
(I6
I46
F0.375
S'much'
p179
I7
tp180
as(S'call'
p181
S'quality'
p182
tp183
(lp184
(I11
I1
F-0.625
S'average'
p185
I0
tp186
a(I34
I6
I0
S'great'
p187
I0
tp188
a(I53
I57
F1.0
S'best'
p189
I0
tp190
a(I54
I56
I0
S'great'
p191
I0
tp192
a(I61
I30
I0
S'great'
p193
I0
tp194
a(I64
I15
F1.0
S'good'
p195
I0
tp196
a(I66
I41
I0
S'great'
p197
I0
tp198
a(I70
I0
F1.0
S'good'
p199
I0
tp200
as(S'camera'
p201
tp202
(lp203
(I0
I3
I0
S'anymore'
p204
I1
tp205
a(I6
I3
F0.875
S'nice'
p206
I1
tp207
a(I19
I9
I0
S'great'
p208
I1
tp209
a(I23
I5
F0.25
S'bigger'
p210
I1
tp211
a(I23
I5
I0
S'faster'
p212
I1
tp213
a(I23
I5
F1.0
S'better'
p214
I1
tp215
a(I28
I7
F-0.625
S'average'
p216
I1
tp217
a(I28
I7
I0
S'great'
p218
I1
tp219
a(I30
I38
I0
S'great'
p220
I1
tp221
a(I50
I5
F1.0
S'good'
p222
I1
tp223
a(I53
I34
F0.875
S'nice'
p224
I1
tp225
a(I54
I36
F1.0
S'better'
p226
I1
tp227
a(I54
I36
I0
S'great'
p228
I1
tp229
a(I54
I74
I0
S'great'
p230
I1
tp231
a(I54
I100
I0
S'useful'
p232
I1
tp233
a(I54
I100
I0
S'such'
p234
I1
tp235
a(I54
I117
I0
S'external'
p236
I1
tp237
a(I54
I125
I0
S'external'
p238
I1
tp239
a(I59
I5
F-0.75
S'worse'
p240
I1
tp241
a(I61
I39
I0
S'great'
p242
I1
tp243
a(I61
I109
I0
S'great'
p244
I1
tp245
a(I66
I6
F1.0
S'better'
p246
I1
tp247
a(I66
I6
F1.0
S'better'
p248
I1
tp249
a(I66
I69
I0
S'rear'
p250
I1
tp251
a(I72
I11
F0.75
S'beautiful'
p252
I1
tp253
a(I81
I16
I0
S'great'
p254
I1
tp255
as(S'iphone'
p256
tp257
(lp258
(I8
I12
I0
S'big'
p259
I1
tp260
a(I30
I14
I0
S'switched'
p261
I1
tp262
a(I36
I2
I0
S'general'
p263
I1
tp264
a(I36
I3
F1.0
S'better'
p265
I1
tp266
a(I43
I5
F0.625
S'easy'
p267
I1
tp268
a(I46
I9
F1.0
S'good'
p269
I1
tp270
a(I46
I16
F0.375
S'much'
p271
I1
tp272
a(I46
I16
I0
S'more'
p273
I1
tp274
a(I46
I16
F0.5
S'expensive'
p275
I1
tp276
a(I53
I44
I0
S'forth'
p277
I1
tp278
a(I63
I55
F0.625
S'easy'
p279
I1
tp280
a(I66
I36
F-0.25
S'burst'
p281
I1
tp282
a(I66
I109
I0
S'many'
p283
I1
tp284
a(I72
I5
F1.0
S'better'
p285
I1
tp286
a(I72
I21
F0.375
S'reliable'
p287
I1
tp288
a(I80
I53
F-0.125
S'former'
p289
I1
tp290
as(S'speed'
p291
tp292
(lp293
(I56
I5
I0
S'high'
p294
I9
tp295
a(I59
I13
I0
S'only'
p296
I9
tp297
a(I61
I27
I0
S'incredible'
p298
I9
tp299
a(I79
I23
I0
S'same'
p300
I9
tp301
a(I79
I24
I0
S'more'
p302
I9
tp303
a(I79
I24
I0
S'current'
p304
I9
tp305
as(S'memory'
p306
tp307
(lp308
(I8
I20
I0
S'internal'
p309
I5
tp310
a(I21
I19
I0
S'internal'
p311
I5
tp312
a(I21
I19
I0
S'full'
p313
I5
tp314
a(I36
I30
F0.375
S'extra'
p315
I5
tp316
a(I36
I30
I0
S'internal'
p317
I5
tp318
a(I36
I30
I0
S'large'
p319
I5
tp320
a(I53
I36
I0
S'internal'
p321
I5
tp322
a(I54
I59
I0
S'internal'
p323
I5
tp324
a(I70
I15
F0.375
S'much'
p325
I5
tp326
a(I73
I3
I0
S'external'
p327
I5
tp328
as(S'button'
p329
tp330
(lp331
(I6
I42
I0
S'close'
p332
I19
tp333
a(I34
I24
I0
S'stiff'
p334
I19
tp335
a(I54
I112
I0
S'soft'
p336
I19
tp337
a(I54
I112
I0
S'physical'
p338
I19
tp339
a(I59
I13
I0
S'fast'
p340
I19
tp341
as(S'samsung'
p342
S'galaxy'
p343
S's'
p344
tp345
(lp346
(I2
I15
I0
S'great'
p347
I0
tp348
a(I2
I51
I0
S'faster'
p349
I0
tp350
a(I6
I32
F0.375
S'new'
p351
I0
tp352
a(I12
I13
I0
S'latest'
p353
I0
tp354
a(I2
I15
I0
g347
I0
tp355
a(I2
I51
I0
g349
I0
tp356
a(I6
I32
F0.375
g351
I0
tp357
a(I12
I13
I0
g353
I0
tp358
a(I2
I15
I0
g347
I7
tp359
a(I6
I32
F0.375
g351
I7
tp360
a(I12
I13
I0
g353
I7
tp361
a(I46
I33
F0.5
S'told'
p362
I7
tp363
a(I46
I33
F0.75
S'due'
p364
I7
tp365
a(I55
I14
F0.125
S'last'
p366
I7
tp367
a(I61
I53
I0
S'latest'
p368
I7
tp369
a(I66
I64
F-0.625
S'other'
p370
I7
tp371
a(I70
I32
F0.875
S'happy'
p372
I7
tp373
a(I71
I9
F-0.75
S'unreliable'
p374
I7
tp375
a(I80
I18
F-0.25
S'white'
p376
I7
tp377
a(I2
I51
I0
g349
I0
tp378
a(I11
I37
F1.0
S'best'
p379
I0
tp380
a(I28
I31
F0.375
S'new'
p381
I0
tp382
a(I46
I19
F-0.5
S'sure'
p383
I0
tp384
a(I49
I23
F1.0
S'good'
p385
I0
tp386
a(I54
I47
F0.625
S'superior'
p387
I0
tp388
a(I61
I56
F1.0
g172
I0
tp389
as(S'sd'
p390
S'card'
p391
tp392
(lp393
(I53
I38
F-0.75
S'secondary'
p394
I0
tp395
a(I54
I110
I0
S'old'
p396
I0
tp397
a(I54
I110
F0.375
S'new'
p398
I0
tp399
as(S'android'
p400
tp401
(lp402
(I36
I3
I0
S'latest'
p403
I0
tp404
a(I37
I38
I0
S'standard'
p405
I0
tp406
a(I46
I30
I0
S'latest'
p407
I0
tp408
a(I49
I9
F1.0
S'better'
p409
I0
tp410
a(I54
I97
F0.375
S'new'
p411
I0
tp412
a(I54
I124
I0
S'stable'
p413
I0
tp414
a(I61
I103
I0
S'more'
p415
I0
tp416
a(I63
I63
F-0.125
S'bean'
p417
I0
tp418
a(I66
I9
I0
S'next'
p419
I0
tp420
a(I66
I9
F1.0
S'best'
p421
I0
tp422
a(I66
I19
I0
S'old'
p423
I0
tp424
a(I66
I35
I0
S'fastest'
p425
I0
tp426
a(I66
I35
I-100
S'crispest'
p427
I0
tp428
a(I66
I42
F0.625
S'acceptable'
p429
I0
tp430
a(I66
I70
F1.0
S'best'
p431
I0
tp432
a(I75
I11
F1.0
S'best'
p433
I0
tp434
a(I80
I42
F0.375
S'similar'
p435
I0
tp436
as(S'smart'
p437
tp438
(lp439
(I2
I14
F0.125
S'first'
p440
I10
tp441
a(I2
I17
F0.125
S'first'
p442
I10
tp443
a(I18
I11
F0.125
S'first'
p444
I10
tp445
a(I21
I36
I0
S'old'
p446
I10
tp447
a(I22
I6
F0.125
S'first'
p448
I10
tp449
a(I33
I5
F1.0
S'good'
p450
I10
tp451
a(I35
I2
F0.125
S'first'
p452
I10
tp453
a(I66
I86
F0.125
S'first'
p454
I10
tp455
a(I79
I46
F0.375
S'new'
p456
I10
tp457
a(I79
I49
F0.25
S'unlocked'
p458
I10
tp459
as(S'amazon'
p460
tp461
(lp462
(I25
I8
I0
S'efficient'
p463
I13
tp464
a(I35
I17
F-0.25
S'cheaper'
p465
I13
tp466
a(I47
I4
F-0.625
S'bad'
p467
I13
tp468
a(I49
I15
F0.125
S'able'
p469
I13
tp470
a(I75
I6
F1.0
S'good'
p471
I13
tp472
as(S'data'
p473
tp474
(lp475
(I2
I74
F-0.5
S'unlimited'
p476
I13
tp477
a(I30
I33
F0.625
S'responsible'
p478
I13
tp479
a(I30
I44
I0
S'great'
p480
I13
tp481
a(I36
I7
F0.25
S'stellar'
p482
I13
tp483
a(I41
I15
I0
S'fast'
p484
I13
tp485
a(I46
I42
I0
S'more'
p486
I13
tp487
a(I49
I13
F-0.5
S'unlimited'
p488
I13
tp489
a(I63
I31
F-0.5
S'unlimited'
p490
I13
tp491
as(S'a'
p492
S'virgin'
p493
S'mobile'
p494
tp495
(lp496
(I2
I3
F1.0
S'good'
p497
I0
tp498
a(I6
I24
F0.875
S'happy'
p499
I0
tp500
a(I8
I5
I0
S'mobile'
p501
I0
tp502
a(I10
I5
F-0.5
g145
I0
tp503
a(I35
I9
I0
S'monthly'
p504
I0
tp505
a(I36
I19
I0
g147
I0
tp506
a(I37
I39
F0.125
S'typical'
p507
I0
tp508
a(I41
I16
I0
g149
I0
tp509
a(I41
I19
F0.875
g151
I0
tp510
a(I43
I16
I0
S'more'
p511
I0
tp512
a(I49
I18
F-0.25
S'cheaper'
p513
I0
tp514
a(I53
I24
F-0.5
g153
I0
tp515
a(I53
I49
I0
g155
I0
tp516
a(I53
I52
I0
g157
I0
tp517
a(I56
I9
I0
S'mobile'
p518
I0
tp519
a(I84
I2
F0.25
g159
I0
tp520
as(S'virgin'
p521
S'mobile'
p522
S'service'
p523
tp524
(lp525
(I2
I73
F1.0
S'good'
p526
I0
tp527
a(I6
I24
F0.875
g499
I0
tp528
a(I10
I5
F-0.5
g145
I0
tp529
a(I46
I20
I0
S'great'
p530
I0
tp531
a(I2
I3
F1.0
g497
I0
tp532
a(I6
I24
F0.875
g499
I0
tp533
a(I8
I5
I0
g501
I0
tp534
a(I10
I5
F-0.5
g145
I0
tp535
a(I35
I9
I0
g504
I0
tp536
a(I36
I19
I0
g147
I0
tp537
a(I37
I39
F0.125
g507
I0
tp538
a(I41
I16
I0
g149
I0
tp539
a(I41
I19
F0.875
g151
I0
tp540
a(I43
I16
I0
g511
I0
tp541
a(I49
I18
F-0.25
g513
I0
tp542
a(I53
I24
F-0.5
g153
I0
tp543
a(I53
I49
I0
g155
I0
tp544
a(I53
I52
I0
g157
I0
tp545
a(I56
I9
I0
g518
I0
tp546
a(I84
I2
F0.25
g159
I0
tp547
a(I6
I24
F0.875
g499
I0
tp548
a(I6
I38
I0
S'website'
p549
I0
tp550
a(I8
I5
I0
g501
I0
tp551
a(I35
I9
I0
g504
I0
tp552
a(I36
I19
I0
g147
I0
tp553
a(I37
I39
F0.125
g507
I0
tp554
a(I41
I16
I0
g149
I0
tp555
a(I41
I19
F0.875
g151
I0
tp556
a(I43
I16
I0
g511
I0
tp557
a(I44
I4
F0.375
S'available'
p558
I0
tp559
a(I49
I18
F-0.25
g513
I0
tp560
a(I53
I24
F-0.5
g153
I0
tp561
a(I53
I52
I0
g157
I0
tp562
a(I54
I4
I0
S'website'
p563
I0
tp564
a(I56
I9
I0
g518
I0
tp565
a(I60
I0
F1.0
S'better'
p566
I0
tp567
a(I63
I31
I0
S'great'
p568
I0
tp569
a(I79
I2
F-0.25
S'cheaper'
p570
I0
tp571
a(I2
I73
F1.0
g526
I16
tp572
a(I6
I52
I0
S'immediate'
p573
I16
tp574
a(I30
I10
I0
S'same'
p575
I16
tp576
a(I30
I36
F-0.5
S'separate'
p577
I16
tp578
a(I46
I20
I0
g530
I16
tp579
a(I54
I54
F-0.125
S'slow'
p580
I16
tp581
a(I82
I5
I0
S'same'
p582
I16
tp583
a(I2
I3
F1.0
g497
I0
tp584
a(I10
I5
F-0.5
g145
I0
tp585
a(I53
I49
I0
g155
I0
tp586
a(I84
I2
F0.25
g159
I0
tp587
as(S'for'
p588
S'virgin'
p589
S'mobile'
p590
tp591
(lp592
(I6
I24
F0.875
g499
I0
tp593
a(I8
I5
I0
g501
I0
tp594
a(I10
I5
F-0.5
g145
I0
tp595
a(I43
I16
I0
g511
I0
tp596
a(I53
I24
F-0.5
g153
I0
tp597
a(I56
I9
I0
g518
I0
tp598
as(S'apps'
p599
tp600
(lp601
(I2
I9
I0
S'closing'
p602
I0
tp603
a(I2
I31
F-0.625
S'free'
p604
I0
tp605
a(I6
I18
F0.125
S'able'
p606
I0
tp607
a(I6
I18
F0.25
S'favorite'
p608
I0
tp609
a(I21
I46
I0
S'basic'
p610
I0
tp611
a(I24
I9
I0
S'such'
p612
I0
tp613
a(I30
I31
I0
S'more'
p614
I0
tp615
a(I43
I46
F0.375
S'extra'
p616
I0
tp617
a(I48
I6
I0
S'closing'
p618
I0
tp619
a(I53
I77
I0
S'close'
p620
I0
tp621
a(I63
I43
I0
S'unneeded'
p622
I0
tp623
a(I66
I1
F0.5
S'functional'
p624
I0
tp625
a(I66
I63
I0
S'many'
p626
I0
tp627
a(I71
I19
I0
S'many'
p628
I0
tp629
a(I71
I19
F0.375
S'available'
p630
I0
tp631
a(I80
I44
F0.5
S'drive'
p632
I0
tp633
as(S'on'
p634
S'virgin'
p635
S'mobile'
p636
tp637
(lp638
(I2
I3
F1.0
g497
I0
tp639
a(I6
I24
F0.875
g499
I0
tp640
a(I8
I5
I0
g501
I0
tp641
a(I35
I9
I0
g504
I0
tp642
a(I36
I19
I0
g147
I0
tp643
a(I37
I39
F0.125
g507
I0
tp644
a(I41
I16
I0
g149
I0
tp645
a(I41
I19
F0.875
g151
I0
tp646
a(I43
I16
I0
g511
I0
tp647
a(I53
I24
F-0.5
g153
I0
tp648
a(I53
I49
I0
g155
I0
tp649
a(I53
I52
I0
g157
I0
tp650
a(I56
I9
I0
g518
I0
tp651
as.