(dp0
(S'times'
p1
tp2
(lp3
(I76
I9
I0
S'most'
p4
tp5
a(I126
I1
F-0.625
S'other'
p6
tp7
a(I126
I1
F-0.875
S'hard'
p8
tp9
a(I138
I0
I0
S'faster'
p10
tp11
a(I138
I0
I0
S'faster'
p12
tp13
a(I138
I0
F-0.125
S'slow'
p14
tp15
as(S'problem'
p16
tp17
(lp18
(I103
I6
F-0.25
S'disappointed'
p19
tp20
a(I131
I0
I0
S'only'
p21
tp22
a(I140
I3
I0
S'most'
p23
tp24
a(I140
I3
I0
S'same'
p25
tp26
as(S'cust'
p27
S'svc'
p28
tp29
(lp30
(I76
I17
F1.0
S'best'
p31
tp32
a(I76
I17
F0.375
S'available'
p33
tp34
as(S'battery'
p35
S'life'
p36
tp37
(lp38
(I4
I9
F1.0
S'good'
p39
tp40
a(I20
I1
F0.875
S'nice'
p41
tp42
a(I51
I1
I0
S'great'
p43
tp44
a(I57
I3
F-0.625
S'bad'
p45
tp46
a(I89
I1
F0.875
S'nice'
p47
tp48
a(I94
I0
F-0.25
S'disappointing'
p49
tp50
a(I109
I1
F1.0
S'good'
p51
tp52
a(I114
I2
F0.875
S'nice'
p53
tp54
a(I129
I12
F1.0
S'good'
p55
tp56
a(I138
I2
F-0.375
S'double'
p57
tp58
a(I142
I8
F-0.5
S'long'
p59
tp60
a(I144
I8
F1.0
S'better'
p61
tp62
as(S'network'
p63
tp64
(lp65
(I133
I2
I0
S'slowest'
p66
tp67
a(I138
I1
I0
S'such'
p68
tp69
as(S'galaxy'
p70
tp71
(lp72
(I51
I2
F0.875
S'nice'
p73
tp74
a(I96
I0
F1.0
S'better'
p75
tp76
a(I144
I6
F-0.625
S'clean'
p77
tp78
a(I144
I6
I0
S'fast'
p79
tp80
a(I144
I6
F0.75
S'beautiful'
p81
tp82
as(S'money'
p83
tp84
(lp85
(I51
I3
F0.375
S'much'
p86
tp87
a(I51
I3
F-0.5
S'less'
p88
tp89
as(S'boost'
p90
S'mobile'
p91
tp92
(lp93
(I41
I1
F1.0
S'better'
p94
tp95
a(I79
I0
I0
S'old'
p96
tp97
a(I105
I0
F-0.5
S'sure'
p98
tp99
as(S'happy'
p100
tp101
(lp102
(I61
I4
F-0.125
S'super'
p103
tp104
a(I61
I4
F0.875
S'happy'
p105
tp106
as(S'screen'
p107
tp108
(lp109
(I7
I2
F0.25
S'larger'
p110
tp111
a(I11
I0
F0.25
S'bigger'
p112
tp113
a(I22
I0
I0
S'big'
p114
tp115
a(I52
I5
F0.75
S'beautiful'
p116
tp117
a(I67
I4
F0.5
S'touch'
p118
tp119
a(I73
I2
F0.5
S'strong'
p120
tp121
a(I73
I2
I0
S'signal'
p122
tp123
a(I73
I2
F1.0
S'good'
p124
tp125
a(I74
I1
F0.5
S'touch'
p126
tp127
a(I82
I0
F1.0
S'good'
p128
tp129
a(I88
I5
I0
S'big'
p130
tp131
a(I102
I2
I0
S'wish'
p132
tp133
a(I102
I2
F0.25
S'bigger'
p134
tp135
a(I114
I1
F-0.75
S'bright'
p136
tp137
a(I114
I1
F0.5
S'clear'
p138
tp139
a(I126
I1
I0
S'big'
p140
tp141
a(I129
I2
F0.875
S'nice'
p142
tp143
a(I132
I1
I0
S'big'
p144
tp145
a(I134
I0
F-0.5
S'sure'
p146
tp147
a(I138
I2
F0.25
S'sharp'
p148
tp149
a(I142
I1
F0.5
S'clear'
p150
tp151
as(S'sound'
p152
tp153
(lp154
(I12
I1
I0
S'great'
p155
tp156
a(I57
I3
F0.875
S'music'
p157
tp158
a(I119
I3
F-0.625
S'bad'
p159
tp160
a(I125
I1
F1.0
S'good'
p161
tp162
a(I135
I2
F0.5
S'clear'
p163
tp164
as(S'service'
p165
tp166
(lp167
(I13
I0
I0
S'lag'
p168
tp169
a(I22
I0
I0
S'referral'
p170
tp171
a(I38
I1
I0
S'only'
p172
tp173
a(I132
I2
F0.125
S'spectacular'
p174
tp175
a(I146
I0
I0
S'android'
p176
tp177
as(S'everything'
p178
tp179
(lp180
(I141
I0
F0.125
S'able'
p181
tp182
as(S'problems'
p183
tp184
(lp185
(I37
I2
I0
S'same'
p186
tp187
a(I76
I12
I0
S'own'
p188
tp189
a(I130
I1
F0.875
S'nice'
p190
tp191
as(S'samsung'
p192
tp193
(lp194
(I15
I0
F1.0
S'better'
p195
tp196
a(I45
I4
I0
S'few'
p197
tp198
a(I45
I4
I0
S'different'
p199
tp200
a(I60
I0
F-0.5
S'less'
p201
tp202
a(I76
I17
I0
S'few'
p203
tp204
as(S'back'
p205
tp206
(lp207
(I49
I0
F0.25
S'boost'
p208
tp209
a(I49
I0
F0.25
S'boost'
p210
tp211
a(I134
I0
I0
S'plastic'
p212
tp213
as(S'camera'
p214
tp215
(lp216
(I114
I1
F0.625
S'perfect'
p217
tp218
as(S'games'
p219
tp220
(lp221
(I89
I5
F0.875
S'music'
p222
tp223
a(I138
I4
I0
S'most'
p224
tp225
as(S'quality'
p226
tp227
(lp228
(I37
I0
I0
S'great'
p229
tp230
a(I54
I0
I0
S'great'
p231
tp232
a(I57
I3
F-0.5
S'less'
p233
tp234
a(I62
I5
F1.0
S'good'
p235
tp236
a(I74
I3
F1.0
S'good'
p237
tp238
a(I89
I1
F1.0
S'good'
p239
tp240
a(I101
I1
F1.0
S'good'
p241
tp242
a(I104
I1
F1.0
S'good'
p243
tp244
a(I104
I2
I0
S'high'
p245
tp246
a(I107
I5
I0
S'great'
p247
tp248
a(I113
I1
F1.0
S'better'
p249
tp250
a(I119
I1
F0.75
S'sound'
p251
tp252
a(I138
I2
I0
S'high'
p253
tp254
a(I138
I3
I0
S'high'
p255
tp256
a(I138
I5
I0
S'large'
p257
tp258
a(I138
I5
I0
S'high'
p259
tp260
as(S'life'
p261
tp262
(lp263
(I51
I1
I0
g43
tp264
a(I57
I3
F-0.625
g45
tp265
a(I94
I0
F-0.25
g49
tp266
a(I109
I1
F1.0
g51
tp267
a(I114
I2
F0.875
g53
tp268
a(I120
I1
F0.625
S'easier'
p269
tp270
as(S'a'
p271
S'samsung'
p272
S'galaxy'
p273
tp274
(lp275
(I45
I4
I0
g197
tp276
a(I45
I4
I0
g199
tp277
a(I60
I0
F-0.5
g201
tp278
a(I96
I0
F1.0
g75
tp279
as(S'pictures'
p280
tp281
(lp282
(I20
I1
I0
S'great'
p283
tp284
a(I68
I3
F0.75
S'beautiful'
p285
tp286
a(I135
I2
F0.625
S'perfect'
p287
tp288
as(S'features'
p289
tp290
(lp291
(I4
I3
I0
S'cool'
p292
tp293
a(I4
I3
I0
S'such'
p294
tp295
a(I12
I0
I0
S'most'
p296
tp297
a(I37
I0
I0
S'cool'
p298
tp299
a(I39
I2
I0
S'operational'
p300
tp301
a(I59
I1
I0
S'great'
p302
tp303
a(I72
I4
I0
S'many'
p304
tp305
a(I72
I4
I0
S'such'
p306
tp307
a(I115
I0
F1.0
S'good'
p308
tp309
a(I130
I2
F0.875
S'nice'
p310
tp311
a(I132
I1
I0
S'great'
p312
tp313
as(S'htc'
p314
S'one'
p315
S'sv'
p316
tp317
(lp318
(I68
I2
I0
S'old'
p319
tp320
as(S'people'
p321
tp322
(lp323
(I68
I0
I0
S'hear'
p324
tp325
a(I68
I0
I0
S'only'
p326
tp327
a(I68
I0
I0
S'many'
p328
tp329
a(I108
I0
F-0.375
S'static'
p330
tp331
a(I114
I0
F-0.625
S'other'
p332
tp333
a(I131
I0
I0
S'great'
p334
tp335
a(I135
I2
F-0.5
S'sure'
p336
tp337
a(I135
I2
F-0.625
S'other'
p338
tp339
as(S'work'
p340
tp341
(lp342
(I139
I1
F1.0
S'good'
p343
tp344
as(S'feature'
p345
tp346
(lp347
(I68
I1
F0.375
S'new'
p348
tp349
a(I126
I1
F0.875
S'nice'
p350
tp351
as(S'display'
p352
tp353
(lp354
(I37
I0
F-0.125
S'overall'
p355
tp356
a(I54
I0
F-0.125
S'overall'
p357
tp358
a(I77
I0
F1.0
S'good'
p359
tp360
a(I79
I1
I0
S'crisp'
p361
tp362
a(I79
I1
F0.125
S'colorful'
p363
tp364
a(I144
I1
F0.75
S'beautiful'
p365
tp366
as(S'case'
p367
tp368
(lp369
(I3
I1
F0.125
S'protective'
p370
tp371
a(I118
I5
F0.125
S'protective'
p372
tp373
a(I138
I7
F1.0
S'good'
p374
tp375
as(S'works'
p376
tp377
(lp378
(I16
I0
I0
S'great'
p379
tp380
a(I70
I0
I0
S'great'
p381
tp382
a(I82
I0
F1.0
S'good'
p383
tp384
a(I125
I1
I0
S'screen'
p385
tp386
as(S'boost'
p387
tp388
(lp389
(I2
I1
I0
S'orange'
p390
tp391
a(I17
I1
F1.0
S'best'
p392
tp393
a(I18
I0
F-0.5
S'less'
p394
tp395
a(I41
I1
F1.0
g94
tp396
a(I50
I5
F-0.625
S'glad'
p397
tp398
a(I72
I4
F-0.25
S'cheaper'
p399
tp400
a(I72
I4
I0
S'website'
p401
tp402
a(I79
I0
I0
g96
tp403
a(I90
I5
F1.0
S'best'
p404
tp405
a(I103
I7
F-0.75
S'unable'
p406
tp407
a(I105
I0
F-0.5
g98
tp408
a(I138
I2
I0
S'closing'
p409
tp410
a(I141
I0
F1.0
S'good'
p411
tp412
as(S'processor'
p413
tp414
(lp415
(I26
I3
F-0.625
S'bad'
p416
tp417
a(I52
I5
I0
S'quick'
p418
tp419
a(I63
I2
F0.375
S'new'
p420
tp421
a(I63
I2
F0.625
S'perfect'
p422
tp423
as(S'battery'
p424
tp425
(lp426
(I4
I9
F1.0
g39
tp427
a(I20
I1
F0.875
g41
tp428
a(I21
I0
I0
S'great'
p429
tp430
a(I76
I11
F-0.5
S'less'
p431
tp432
a(I89
I1
F0.875
g47
tp433
a(I110
I0
I0
S'full'
p434
tp435
a(I129
I12
F1.0
g55
tp436
a(I138
I2
F-0.375
g57
tp437
a(I142
I8
F-0.5
g59
tp438
a(I144
I8
F1.0
g61
tp439
as(S'and'
p440
S'battery'
p441
S'life'
p442
tp443
(lp444
(I20
I1
F0.875
g41
tp445
a(I57
I3
F-0.625
g45
tp446
a(I109
I1
F1.0
g51
tp447
a(I114
I2
F0.875
g53
tp448
a(I138
I2
F-0.375
g57
tp449
a(I144
I8
F1.0
g61
tp450
as(S'awesome'
p451
tp452
(lp453
(I47
I0
F-0.125
S'overall'
p454
tp455
as(S'samsung'
p456
S'galaxy'
p457
tp458
(lp459
(I45
I4
I0
g197
tp460
a(I45
I4
I0
g199
tp461
a(I60
I0
F-0.5
g201
tp462
a(I96
I0
F1.0
g75
tp463
as(S'cell'
p464
tp465
(lp466
(I41
I5
F-0.375
S'smooth'
p467
tp468
a(I73
I1
F-0.625
S'other'
p469
tp470
as(S'calls'
p471
tp472
(lp473
(I3
I0
F-0.25
S'dropped'
p474
tp475
a(I30
I0
F-0.75
S'stupid'
p476
tp477
a(I53
I3
I0
S'many'
p478
tp479
a(I53
I3
F0.875
S'important'
p480
tp481
as(S'sim'
p482
S'card'
p483
tp484
(lp485
(I59
I0
F-0.875
S'hard'
p486
tp487
a(I59
I0
F0.5
S'possible'
p488
tp489
as(S'high'
p490
S'quality'
p491
tp492
(lp493
(I104
I2
I0
g245
tp494
a(I138
I2
I0
g253
tp495
a(I138
I3
I0
g255
tp496
a(I138
I5
I0
g257
tp497
a(I138
I5
I0
g259
tp498
as(S'call'
p499
tp500
(lp501
(I80
I3
F0.125
S'able'
p502
tp503
a(I116
I0
F-0.5
S'regular'
p504
tp505
as(S'wi-max'
p506
S'network'
p507
tp508
(lp509
(I138
I1
I0
g68
tp510
as(S'pretty'
p511
tp512
(lp513
(I125
I1
F0.125
S'last'
p514
tp515
as(S'price'
p516
tp517
(lp518
(I8
I2
F1.0
S'best'
p519
tp520
a(I14
I0
I0
S'great'
p521
tp522
a(I17
I0
F0.75
S'worth'
p523
tp524
a(I29
I0
F-0.25
S'low'
p525
tp526
a(I35
I0
I0
S'great'
p527
tp528
a(I45
I0
I0
S'retail'
p529
tp530
a(I57
I3
F1.0
S'best'
p531
tp532
a(I64
I0
I0
S'great'
p533
tp534
a(I65
I12
I0
S'same'
p535
tp536
a(I72
I4
F0.5
S'reasonable'
p537
tp538
a(I93
I2
I0
S'great'
p539
tp540
a(I106
I1
F-0.25
S'low'
p541
tp542
a(I119
I1
F0.5
S'reasonable'
p543
tp544
as(S'time'
p545
tp546
(lp547
(I37
I1
I0
S'most'
p548
tp549
a(I37
I1
F0.125
S'able'
p550
tp551
a(I41
I4
I0
S'only'
p552
tp553
a(I49
I1
F-0.875
S'hard'
p554
tp555
a(I53
I0
F0.125
S'first'
p556
tp557
a(I65
I4
F-0.625
S'quiet'
p558
tp559
a(I68
I0
F-0.875
S'hard'
p560
tp561
a(I103
I3
F0.625
S'easy'
p562
tp563
a(I117
I0
I0
S'same'
p564
tp565
as(S'card'
p566
tp567
(lp568
(I59
I0
F0.5
g488
tp569
as(S'love'
p570
tp571
(lp572
(I72
I1
F1.0
S'love'
p573
tp574
as(S'better'
p575
tp576
(lp577
(I144
I5
F0.375
S'much'
p578
tp579
as(S'months'
p580
tp581
(lp582
(I22
I0
F0.125
S'first'
p583
tp584
a(I100
I5
F-0.5
S'longer'
p585
tp586
a(I125
I0
I0
S'great'
p587
tp588
a(I127
I0
F0.125
S'first'
p589
tp590
as(S'videos'
p591
tp592
(lp593
(I138
I2
I0
S'adequate'
p594
tp595
a(I138
I6
F0.625
S'easier'
p596
tp597
as(S'apps'
p598
tp599
(lp600
(I26
I2
F-0.125
S'slow'
p601
tp602
a(I26
I4
I0
S'fast'
p603
tp604
a(I38
I1
I0
S'great'
p605
tp606
a(I49
I1
F-0.625
S'other'
p607
tp608
a(I79
I1
I0
S'closing'
p609
tp610
a(I95
I0
I0
S'great'
p611
tp612
a(I117
I0
I0
S'many'
p613
tp614
a(I117
I0
F-0.625
S'other'
p615
tp616
as(S'4g'
p617
S'lte'
p618
tp619
(lp620
(I138
I1
I0
S'signal'
p621
tp622
a(I138
I1
F0.375
S'available'
p623
tp624
a(I138
I2
I0
S'large'
p625
tp626
as(S'fast'
p627
tp628
(lp629
(I88
I4
F-0.125
S'slow'
p630
tp631
a(I88
I4
I0
S'faster'
p632
tp633
as.