(dp0
(S'screen'
p1
S'size'
p2
tp3
(lp4
(I84
I2
I0
S'big'
p5
tp6
a(I84
I2
F0.125
S'able'
p7
tp8
a(I85
I3
F0.25
S'larger'
p9
tp10
a(I202
I5
F1.0
S'good'
p11
tp12
a(I248
I20
F-0.625
S'light'
p13
tp14
as(S'happy'
p15
S'with'
p16
S'purchase'
p17
tp18
(lp19
(I35
I8
F0.875
S'happy'
p20
tp21
a(I67
I1
F0.875
S'happy'
p22
tp23
a(I204
I3
F0.875
S'happy'
p24
tp25
a(I233
I4
F0.875
S'happy'
p26
tp27
a(I252
I1
F0.875
S'happy'
p28
tp29
a(I295
I5
F0.875
S'happy'
p30
tp31
as(S'virgin'
p32
S'mobile'
p33
tp34
(lp35
(I21
I4
F0.875
S'happy'
p36
tp37
a(I33
I9
I0
S'mobile'
p38
tp39
a(I41
I5
F0.125
S'first'
p40
tp41
a(I49
I0
I0
S'mobile'
p42
tp43
a(I93
I1
I0
S'faster'
p44
tp45
a(I118
I1
F0.5
S'compatible'
p46
tp47
a(I123
I4
I0
S'mobile'
p48
tp49
a(I129
I7
I0
S'monthly'
p50
tp51
a(I138
I1
I0
S'old'
p52
tp53
a(I150
I19
F0.125
S'typical'
p54
tp55
a(I161
I12
I0
S'old'
p56
tp57
a(I161
I15
F0.875
S'happy'
p58
tp59
a(I171
I2
I0
S'more'
p60
tp61
a(I198
I8
F-0.25
S'cheaper'
p62
tp63
a(I198
I8
I0
S'mobile'
p64
tp65
a(I213
I18
F-0.5
S'poor'
p66
tp67
a(I214
I4
I0
S'mobile'
p68
tp69
a(I217
I2
F-0.125
S'virgin'
p70
tp71
a(I217
I2
I0
S'great'
p72
tp73
a(I218
I1
I0
S'mobile'
p74
tp75
a(I219
I3
I0
S'mobile'
p76
tp77
a(I248
I1
I0
S'mobile'
p78
tp79
a(I249
I0
I0
S'latest'
p80
tp81
a(I344
I2
F0.25
S'helpful'
p82
tp83
as(S'battery'
p84
S'life'
p85
tp86
(lp87
(I16
I1
F1.0
S'better'
p88
tp89
a(I26
I3
F1.0
S'good'
p90
tp91
a(I29
I0
I0
S'great'
p92
tp93
a(I46
I2
F0.625
S'aware'
p94
tp95
a(I117
I7
F-0.5
S'sure'
p96
tp97
a(I183
I1
I0
S'great'
p98
tp99
a(I183
I4
F-0.625
S'average'
p100
tp101
a(I202
I3
F1.0
S'good'
p102
tp103
a(I229
I0
F1.0
S'best'
p104
tp105
a(I229
I0
F1.0
S'good'
p106
tp107
a(I231
I2
F1.0
S'better'
p108
tp109
a(I232
I15
F1.0
S'better'
p110
tp111
a(I232
I27
F-0.75
S'little'
p112
tp113
a(I294
I3
F0.375
S'extra'
p114
tp115
a(I306
I3
F1.0
S'good'
p116
tp117
a(I326
I18
F1.0
S'good'
p118
tp119
as(S'purchase'
p120
tp121
(lp122
(I35
I8
F0.875
g20
tp123
a(I67
I1
F0.875
g22
tp124
a(I68
I1
F0.625
S'easy'
p125
tp126
a(I170
I2
F0.25
S'sweet'
p127
tp128
a(I198
I8
F1.0
S'best'
p129
tp130
a(I204
I3
F0.875
g24
tp131
a(I233
I4
F0.875
g26
tp132
a(I252
I1
F0.875
g28
tp133
a(I289
I0
F1.0
S'best'
p134
tp135
a(I295
I5
F0.875
g30
tp136
as(S'problem'
p137
tp138
(lp139
(I119
I2
I0
S'common'
p140
tp141
a(I125
I19
F-0.625
S'other'
p142
tp143
as(S'network'
p144
tp145
(lp146
(I123
I1
F-0.625
S'other'
p147
tp148
a(I194
I1
F0.375
S'reliable'
p149
tp150
a(I194
I1
F1.0
S'best'
p151
tp152
a(I227
I21
I0
S'same'
p153
tp154
a(I236
I2
F-0.625
S'other'
p155
tp156
a(I262
I8
I0
S'mobile'
p157
tp158
a(I262
I8
F0.375
S'available'
p159
tp160
a(I262
I10
I0
S'mobile'
p161
tp162
a(I262
I10
F0.375
S'available'
p163
tp164
as(S'to'
p165
S'virgin'
p166
S'mobile'
p167
tp168
(lp169
(I33
I9
I0
g38
tp170
a(I41
I5
F0.125
g40
tp171
a(I93
I1
I0
g44
tp172
a(I138
I1
I0
g52
tp173
a(I161
I12
I0
g56
tp174
a(I161
I15
F0.875
g58
tp175
a(I213
I18
F-0.5
g66
tp176
a(I214
I4
I0
g68
tp177
a(I217
I2
F-0.125
g70
tp178
a(I217
I2
I0
g72
tp179
a(I218
I1
I0
g74
tp180
a(I344
I2
F0.25
g82
tp181
as(S'text'
p182
tp183
(lp184
(I125
I8
F0.5
S'clear'
p185
tp186
a(I158
I1
I0
S'efficient'
p187
tp188
a(I283
I5
F0.625
S'easy'
p189
tp190
as(S'galaxy'
p191
tp192
(lp193
(I48
I0
F1.0
S'best'
p194
tp195
a(I99
I5
F0.375
S'new'
p196
tp197
a(I131
I1
F0.125
S'first'
p198
tp199
a(I131
I1
F0.375
S'new'
p200
tp201
a(I184
I0
F-0.5
S'sure'
p202
tp203
a(I200
I2
F1.0
S'good'
p204
tp205
a(I227
I35
F0.625
S'superior'
p206
tp207
a(I250
I0
F1.0
S'love'
p208
tp209
as(S'nice'
p210
tp211
(lp212
(I311
I0
F0.625
S'easy'
p213
tp214
a(I326
I2
F0.375
S'extra'
p215
tp216
as(S'screen'
p217
tp218
(lp219
(I9
I5
F0.25
S'larger'
p220
tp221
a(I9
I10
F0.5
S'touch'
p222
tp223
a(I15
I2
F0.5
S'clear'
p224
tp225
a(I21
I2
F-0.75
S'bright'
p226
tp227
a(I21
I2
I0
S'big'
p228
tp229
a(I34
I1
I0
S'large'
p230
tp231
a(I35
I3
I0
S'large'
p232
tp233
a(I35
I3
F0.5
S'clear'
p234
tp235
a(I53
I2
I0
S'big'
p236
tp237
a(I54
I6
F0.5
S'flat'
p238
tp239
a(I60
I2
I0
S'big'
p240
tp241
a(I67
I3
F-0.25
S'thin'
p242
tp243
a(I67
I3
F-0.625
S'light'
p244
tp245
a(I68
I5
I0
S'large'
p246
tp247
a(I68
I8
F-0.625
S'free'
p248
tp249
a(I69
I1
I0
S'big'
p250
tp251
a(I84
I2
I0
g5
tp252
a(I84
I2
F0.125
g7
tp253
a(I85
I3
F0.25
g9
tp254
a(I97
I3
F-0.75
S'bright'
p255
tp256
a(I100
I0
F0.25
S'larger'
p257
tp258
a(I125
I6
F0.75
S'beautiful'
p259
tp260
a(I129
I1
F0.25
S'bigger'
p261
tp262
a(I129
I1
I0
S'faster'
p263
tp264
a(I136
I4
F1.0
S'better'
p265
tp266
a(I141
I7
I0
S'great'
p267
tp268
a(I145
I2
F0.25
S'sharp'
p269
tp270
a(I161
I10
F0.875
S'nice'
p271
tp272
a(I167
I0
F0.25
S'bigger'
p273
tp274
a(I183
I0
F-0.375
S'small'
p275
tp276
a(I183
I2
F0.125
S'spectacular'
p277
tp278
a(I188
I1
F0.125
S'impressive'
p279
tp280
a(I188
I2
F0.5
S'told'
p281
tp282
a(I188
I2
F0.75
S'due'
p283
tp284
a(I202
I5
F1.0
g11
tp285
a(I211
I1
I0
S'large'
p286
tp287
a(I213
I9
F-0.5
S'heavier'
p288
tp289
a(I213
I9
F0.25
S'larger'
p290
tp291
a(I227
I34
F0.875
S'important'
p292
tp293
a(I228
I3
F0.125
S'outside'
p294
tp295
a(I232
I9
I0
S'big'
p296
tp297
a(I239
I2
I0
S'large'
p298
tp299
a(I239
I2
F0.5
S'clear'
p300
tp301
a(I248
I14
F-0.5
S'dull'
p302
tp303
a(I248
I14
F-0.75
S'dark'
p304
tp305
a(I248
I20
F-0.625
g13
tp306
a(I255
I0
I0
S'large'
p307
tp308
a(I273
I2
I0
S'great'
p309
tp310
a(I276
I0
I0
S'big'
p311
tp312
a(I278
I10
F0.5
S'touch'
p313
tp314
a(I296
I2
I0
S'great'
p315
tp316
a(I306
I5
I0
S'big'
p317
tp318
a(I306
I5
F0.75
S'beautiful'
p319
tp320
a(I306
I9
I0
S'big'
p321
tp322
a(I337
I0
F0.25
S'larger'
p323
tp324
a(I337
I0
I0
S'more'
p325
tp326
a(I337
I0
F0.625
S'easier'
p327
tp328
as(S'faster'
p329
tp330
(lp331
(I24
I9
F0.375
S'much'
p332
tp333
as(S'call'
p334
S'quality'
p335
tp336
(lp337
(I43
I1
F-0.625
S'average'
p338
tp339
a(I125
I5
I0
S'great'
p340
tp341
a(I219
I3
F1.0
S'best'
p342
tp343
a(I227
I43
I0
S'great'
p344
tp345
a(I273
I3
F1.0
S'good'
p346
tp347
a(I278
I30
I0
S'great'
p348
tp349
as(S'service'
p350
tp351
(lp352
(I9
I55
F1.0
S'good'
p353
tp354
a(I25
I3
I0
S'immediate'
p355
tp356
a(I41
I5
F-0.5
S'sure'
p357
tp358
a(I107
I3
I0
S'same'
p359
tp360
a(I114
I4
F-0.5
S'separate'
p361
tp362
a(I150
I20
F0.375
S'register'
p363
tp364
a(I184
I1
I0
S'great'
p365
tp366
a(I227
I41
F-0.125
S'slow'
p367
tp368
a(I341
I5
I0
S'same'
p369
tp370
as(S'virgin'
p371
tp372
(lp373
(I21
I4
F0.875
g36
tp374
a(I24
I1
I0
S'website'
p375
tp376
a(I33
I9
I0
g38
tp377
a(I41
I5
F0.125
g40
tp378
a(I49
I0
I0
g42
tp379
a(I118
I1
F0.5
g46
tp380
a(I123
I4
I0
g48
tp381
a(I129
I7
I0
g50
tp382
a(I138
I1
I0
g52
tp383
a(I150
I19
F0.125
g54
tp384
a(I161
I12
I0
g56
tp385
a(I161
I15
F0.875
g58
tp386
a(I171
I2
I0
g60
tp387
a(I176
I0
F0.375
S'available'
p388
tp389
a(I198
I8
F-0.25
g62
tp390
a(I198
I8
I0
g64
tp391
a(I213
I18
F-0.5
g66
tp392
a(I214
I4
I0
g68
tp393
a(I218
I1
I0
g74
tp394
a(I219
I3
I0
g76
tp395
a(I227
I1
I0
S'website'
p396
tp397
a(I246
I0
F1.0
S'better'
p398
tp399
a(I248
I1
I0
g78
tp400
a(I265
I2
I0
S'great'
p401
tp402
a(I324
I2
F-0.25
S'cheaper'
p403
tp404
as(S'samsung'
p405
tp406
(lp407
(I9
I1
I0
S'great'
p408
tp409
a(I23
I0
F0.375
S'new'
p410
tp411
a(I52
I0
I0
S'latest'
p412
tp413
a(I236
I6
F0.125
S'last'
p414
tp415
a(I278
I48
F-0.625
S'other'
p416
tp417
a(I331
I14
F-0.25
S'white'
p418
tp419
as(S'back'
p420
tp421
(lp422
(I54
I3
F-0.5
S'sure'
p423
tp424
a(I54
I3
I0
S'plastic'
p425
tp426
a(I54
I3
F-0.25
S'cheap'
p427
tp428
a(I54
I3
F-0.25
S'thin'
p429
tp430
as(S'lg'
p431
S'optimus'
p432
S'v'
p433
tp434
(lp435
(I326
I20
I0
S'same'
p436
tp437
as(S'camera'
p438
tp439
(lp440
(I1
I0
I0
S'anymore'
p441
tp442
a(I15
I1
F0.875
S'nice'
p443
tp444
a(I70
I6
I0
S'great'
p445
tp446
a(I84
I5
F0.25
S'bigger'
p447
tp448
a(I84
I5
I0
S'faster'
p449
tp450
a(I84
I5
F1.0
S'better'
p451
tp452
a(I96
I4
F-0.625
S'average'
p453
tp454
a(I96
I4
I0
S'great'
p455
tp456
a(I202
I1
F1.0
S'good'
p457
tp458
a(I214
I0
F0.875
S'nice'
p459
tp460
a(I227
I25
F1.0
S'better'
p461
tp462
a(I227
I25
I0
S'great'
p463
tp464
a(I228
I4
I0
S'great'
p465
tp466
a(I232
I10
I0
S'useful'
p467
tp468
a(I232
I10
I0
S'such'
p469
tp470
a(I232
I24
I0
S'external'
p471
tp472
a(I232
I27
I0
S'external'
p473
tp474
a(I242
I3
F-0.75
S'worse'
p475
tp476
a(I278
I1
F1.0
S'better'
p477
tp478
a(I278
I1
F1.0
S'better'
p479
tp480
a(I278
I52
I0
S'rear'
p481
tp482
a(I306
I11
F0.75
S'beautiful'
p483
tp484
a(I339
I1
I0
S'great'
p485
tp486
as(S'years'
p487
tp488
(lp489
(I56
I0
I0
S'many'
p490
tp491
a(I96
I4
I0
S'few'
p492
tp493
a(I97
I2
I0
S'few'
p494
tp495
a(I97
I2
I0
S'old'
p496
tp497
a(I232
I19
I0
S'few'
p498
tp499
a(I272
I0
F-0.25
S'past'
p500
tp501
a(I272
I0
I0
S'few'
p502
tp503
a(I284
I2
I0
S'young'
p504
tp505
a(I302
I5
I0
S'few'
p506
tp507
a(I344
I0
F-0.125
S'future'
p508
tp509
as(S'size'
p510
tp511
(lp512
(I33
I5
F0.25
S'bigger'
p513
tp514
a(I202
I0
F1.0
S'good'
p515
tp516
a(I232
I15
F0.375
S'similar'
p517
tp518
a(I278
I13
F-0.625
S'light'
p519
tp520
a(I284
I2
F0.625
S'perfect'
p521
tp522
as(S'quality'
p523
tp524
(lp525
(I43
I1
F-0.625
g338
tp526
a(I64
I0
F-0.5
S'poor'
p527
tp528
a(I85
I2
F0.875
S'nice'
p529
tp530
a(I85
I2
I0
S'high'
p531
tp532
a(I98
I4
F-0.5
S'poor'
p533
tp534
a(I115
I4
F-0.875
S'awful'
p535
tp536
a(I125
I5
I0
g340
tp537
a(I141
I2
I0
S'high'
p538
tp539
a(I177
I1
I0
S'high'
p540
tp541
a(I202
I2
F1.0
S'good'
p542
tp543
a(I219
I3
F1.0
g342
tp544
a(I227
I43
I0
g344
tp545
a(I273
I3
F1.0
g346
tp546
a(I278
I26
F1.0
S'good'
p547
tp548
a(I278
I30
I0
g348
tp549
a(I283
I4
F0.625
S'acceptable'
p550
tp551
a(I283
I4
F0.875
S'music'
p552
tp553
a(I326
I7
F0.5
S'proven'
p554
tp555
as(S'memory'
p556
tp557
(lp558
(I34
I1
I0
S'internal'
p559
tp560
a(I75
I1
I0
S'internal'
p561
tp562
a(I75
I1
I0
S'full'
p563
tp564
a(I141
I1
F0.375
S'extra'
p565
tp566
a(I141
I1
I0
S'internal'
p567
tp568
a(I141
I1
I0
S'large'
p569
tp570
a(I214
I1
I0
S'internal'
p571
tp572
a(I227
I45
I0
S'internal'
p573
tp574
a(I295
I4
F0.375
S'much'
p575
tp576
a(I311
I1
I0
S'external'
p577
tp578
as(S'life'
p579
tp580
(lp581
(I16
I1
F1.0
g88
tp582
a(I26
I3
F1.0
g90
tp583
a(I29
I0
I0
g92
tp584
a(I75
I17
F0.625
S'easier'
p585
tp586
a(I117
I7
F-0.5
g96
tp587
a(I202
I3
F1.0
g102
tp588
a(I229
I0
F1.0
g104
tp589
a(I229
I0
F1.0
g106
tp590
a(I232
I15
F1.0
g110
tp591
a(I306
I3
F1.0
g116
tp592
a(I326
I18
F1.0
g118
tp593
as(S'galaxy'
p594
S's3'
p595
tp596
(lp597
(I131
I1
F0.125
g198
tp598
a(I131
I1
F0.375
g200
tp599
a(I250
I0
F1.0
g208
tp600
a(I293
I0
I0
S'website'
p601
tp602
as(S'mobile'
p603
tp604
(lp605
(I93
I1
I0
g44
tp606
a(I217
I2
F-0.125
g70
tp607
a(I217
I2
I0
g72
tp608
a(I249
I0
I0
g80
tp609
a(I344
I2
F0.25
g82
tp610
as(S'features'
p611
tp612
(lp613
(I44
I8
I0
S'many'
p614
tp615
a(I44
I8
F-0.625
S'other'
p616
tp617
a(I44
I8
I0
S'useful'
p618
tp619
a(I67
I4
I0
S'great'
p620
tp621
a(I68
I3
I0
S'many'
p622
tp623
a(I85
I4
I0
S'same'
p624
tp625
a(I85
I4
F0.125
S'able'
p626
tp627
a(I101
I4
I0
S'many'
p628
tp629
a(I101
I4
F-0.5
S'sure'
p630
tp631
a(I115
I0
F0.25
S'related'
p632
tp633
a(I213
I21
F-0.5
S'certain'
p634
tp635
a(I218
I0
I0
S'great'
p636
tp637
a(I219
I2
I0
S'great'
p638
tp639
a(I227
I29
I0
S'such'
p640
tp641
a(I228
I0
I0
S'many'
p642
tp643
a(I228
I0
F-0.625
S'unreal'
p644
tp645
a(I248
I29
F-0.625
S'other'
p646
tp647
a(I248
I29
I0
S'great'
p648
tp649
a(I266
I2
I0
S'more'
p650
tp651
a(I268
I0
F1.0
S'better'
p652
tp653
a(I278
I4
F0.875
S'important'
p654
tp655
a(I278
I49
I0
S'cool'
p656
tp657
a(I303
I1
F-0.625
S'other'
p658
tp659
a(I306
I11
I0
S'many'
p660
tp661
a(I306
I11
I0
S'useful'
p662
tp663
as(S'things'
p664
tp665
(lp666
(I23
I2
I0
S'many'
p667
tp668
a(I23
I4
F0.375
S'new'
p669
tp670
a(I48
I0
I0
S'many'
p671
tp672
a(I48
I0
F0.5
S'possible'
p673
tp674
a(I180
I1
F0.625
S'easy'
p675
tp676
a(I180
I1
I0
S'many'
p677
tp678
a(I195
I29
F0.25
S'main'
p679
tp680
a(I239
I4
F-0.625
S'other'
p681
tp682
a(I242
I1
F0.125
S'first'
p683
tp684
a(I242
I2
F-0.75
S'hate'
p685
tp686
a(I260
I2
I0
S'same'
p687
tp688
a(I278
I41
F-0.625
S'other'
p689
tp690
a(I306
I13
F1.0
S'good'
p691
tp692
a(I337
I4
F0.125
S'essential'
p693
tp694
as(S'clear'
p695
tp696
(lp697
(I74
I12
I0
S'crystal'
p698
tp699
as(S'samsung'
p700
S'galaxy'
p701
S's'
p702
tp703
(lp704
(I9
I1
I0
g408
tp705
a(I23
I0
F0.375
g410
tp706
a(I52
I0
I0
g412
tp707
as(S'everything'
p708
tp709
(lp710
(I42
I2
I0
S'great'
p711
tp712
a(I58
I4
F-0.625
S'free'
p713
tp714
a(I75
I13
F0.125
S'able'
p715
tp716
a(I174
I0
I0
S'more'
p717
tp718
as(S'little'
p719
tp720
(lp721
(I331
I6
F1.0
S'good'
p722
tp723
as(S'price'
p724
tp725
(lp726
(I56
I2
I0
S'same'
p727
tp728
a(I91
I0
F0.375
S'much'
p729
tp730
a(I93
I1
I0
S'same'
p731
tp732
a(I94
I1
F-0.25
S'low'
p733
tp734
a(I102
I1
F1.0
S'good'
p735
tp736
a(I136
I1
F-0.25
S'low'
p737
tp738
a(I148
I0
F0.75
S'worth'
p739
tp740
a(I156
I2
I0
S'same'
p741
tp742
a(I171
I0
I0
S'same'
p743
tp744
a(I183
I12
I0
S'same'
p745
tp746
a(I184
I1
F1.0
S'best'
p747
tp748
a(I227
I3
I0
S'full'
p749
tp750
a(I237
I14
I0
S'great'
p751
tp752
a(I260
I1
F-0.25
S'higher'
p753
tp754
a(I261
I0
F0.75
S'worth'
p755
tp756
a(I287
I3
F0.75
S'worth'
p757
tp758
a(I294
I1
F0.625
S'beat'
p759
tp760
a(I331
I18
F1.0
S'best'
p761
tp762
a(I332
I2
F-0.75
S'wrong'
p763
tp764
a(I341
I1
F1.0
S'good'
p765
tp766
as(S'sd'
p767
S'card'
p768
tp769
(lp770
(I150
I20
F-0.5
S'sure'
p771
tp772
a(I174
I3
F-0.25
S'd'
p773
tp774
a(I197
I5
I0
S'sd'
p775
tp776
a(I214
I3
F-0.75
S'secondary'
p777
tp778
a(I232
I19
I0
S'old'
p779
tp780
a(I232
I19
F0.375
S'new'
p781
tp782
as(S'lg'
p783
S'optimus'
p784
tp785
(lp786
(I33
I0
F0.25
S'elite'
p787
tp788
a(I35
I0
F0.25
S'elite'
p789
tp790
a(I67
I0
F0.25
S'elite'
p791
tp792
a(I326
I20
I0
g436
tp793
as(S'month'
p794
tp795
(lp796
(I75
I18
F0.875
S'happy'
p797
tp798
a(I115
I6
I0
S'more'
p799
tp800
a(I213
I17
I0
S'entire'
p801
tp802
a(I239
I1
F-0.5
S'less'
p803
tp804
as(S'plan'
p805
tp806
(lp807
(I130
I1
I0
S'incredible'
p808
tp809
a(I161
I8
I0
S'same'
p810
tp811
a(I161
I8
F-0.25
S'cheaper'
p812
tp813
a(I181
I0
F0.625
S'perfect'
p814
tp815
a(I232
I19
F-0.5
S'outright'
p816
tp817
a(I298
I0
I0
S'great'
p818
tp819
a(I308
I7
F0.875
S'attractive'
p820
tp821
a(I308
I7
I0
S'monthly'
p822
tp823
as(S'case'
p824
tp825
(lp826
(I9
I35
F0.5
S'careful'
p827
tp828
a(I105
I3
I0
S'great'
p829
tp830
a(I105
I3
F0.375
S'new'
p831
tp832
a(I138
I3
F-0.75
S'tough'
p833
tp834
a(I138
I3
F0.5
S'strong'
p835
tp836
a(I263
I0
I0
S'slippery'
p837
tp838
a(I306
I8
F1.0
S'good'
p839
tp840
as(S'works'
p841
tp842
(lp843
(I86
I0
I0
S'great'
p844
tp845
a(I192
I0
I0
S'great'
p846
tp847
a(I232
I27
F0.5
S'flat'
p848
tp849
a(I250
I1
F-0.25
S'white'
p850
tp851
a(I250
I1
I0
S'great'
p852
tp853
as(S'card'
p854
tp855
(lp856
(I75
I2
F0.125
S'able'
p857
tp858
a(I150
I20
F-0.5
g771
tp859
a(I174
I3
F-0.25
g773
tp860
a(I197
I5
I0
g775
tp861
a(I232
I19
I0
g779
tp862
a(I232
I19
F0.375
g781
tp863
as(S'samsung'
p864
S'galaxy'
p865
S's3'
p866
tp867
(lp868
(I52
I0
I0
g412
tp869
a(I293
I0
I0
g601
tp870
as(S'android'
p871
tp872
(lp873
(I150
I18
I0
S'standard'
p874
tp875
a(I232
I8
F0.375
S'new'
p876
tp877
a(I232
I27
I0
S'stable'
p878
tp879
a(I269
I3
F-0.125
S'bean'
p880
tp881
a(I278
I11
I0
S'old'
p882
tp883
a(I278
I53
F1.0
S'best'
p884
tp885
a(I316
I1
F1.0
S'best'
p886
tp887
a(I333
I5
F0.375
S'similar'
p888
tp889
as(S'battery'
p890
tp891
(lp892
(I9
I20
F-0.75
S'little'
p893
tp894
a(I9
I50
F0.5
S'second'
p895
tp896
a(I33
I8
F-0.5
S'sure'
p897
tp898
a(I44
I1
F0.625
S'removable'
p899
tp900
a(I46
I2
F0.625
g94
tp901
a(I113
I4
F0.125
S'last'
p902
tp903
a(I113
I4
I0
S'faster'
p904
tp905
a(I129
I4
F-0.5
S'longer'
p906
tp907
a(I150
I12
I0
S'faster'
p908
tp909
a(I150
I12
I0
S'normal'
p910
tp911
a(I169
I0
F0.375
S'new'
p912
tp913
a(I183
I1
I0
g98
tp914
a(I183
I4
F-0.625
g100
tp915
a(I209
I4
F0.375
S'new'
p916
tp917
a(I224
I2
F-0.5
S'longer'
p918
tp919
a(I227
I36
I0
S'great'
p920
tp921
a(I229
I2
F0.375
S'extra'
p922
tp923
a(I231
I2
F1.0
g108
tp924
a(I232
I27
F-0.75
g112
tp925
a(I242
I5
F-0.75
S'worse'
p926
tp927
a(I248
I25
F-0.875
S'worst'
p928
tp929
a(I265
I12
F0.125
S'last'
p930
tp931
a(I278
I32
F0.625
S'replaceable'
p932
tp933
a(I294
I3
F0.375
g114
tp934
a(I308
I2
F0.625
S'removable'
p935
tp936
a(I327
I2
F0.375
S'extended'
p937
tp938
as(S'smart'
p939
tp940
(lp941
(I9
I0
F0.125
S'first'
p942
tp943
a(I9
I3
F0.125
S'first'
p944
tp945
a(I68
I1
F0.125
S'first'
p946
tp947
a(I75
I17
I0
S'old'
p948
tp949
a(I82
I0
F0.125
S'first'
p950
tp951
a(I123
I3
F1.0
S'good'
p952
tp953
a(I129
I0
F0.125
S'first'
p954
tp955
a(I283
I1
F0.125
S'first'
p956
tp957
a(I328
I0
F0.375
S'new'
p958
tp959
a(I328
I3
F0.25
S'unlocked'
p960
tp961
as(S'with'
p962
S'virgin'
p963
S'mobile'
p964
tp965
(lp966
(I21
I4
F0.875
g36
tp967
a(I33
I9
I0
g38
tp968
a(I41
I5
F0.125
g40
tp969
a(I118
I1
F0.5
g46
tp970
a(I150
I19
F0.125
g54
tp971
a(I161
I15
F0.875
g58
tp972
a(I213
I18
F-0.5
g66
tp973
a(I214
I4
I0
g68
tp974
as(S'a'
p975
S'virgin'
p976
S'mobile'
p977
tp978
(lp979
(I21
I4
F0.875
g36
tp980
a(I33
I9
I0
g38
tp981
a(I41
I5
F0.125
g40
tp982
a(I49
I0
I0
g42
tp983
a(I93
I1
I0
g44
tp984
a(I118
I1
F0.5
g46
tp985
a(I123
I4
I0
g48
tp986
a(I129
I7
I0
g50
tp987
a(I138
I1
I0
g52
tp988
a(I150
I19
F0.125
g54
tp989
a(I161
I12
I0
g56
tp990
a(I161
I15
F0.875
g58
tp991
a(I171
I2
I0
g60
tp992
a(I198
I8
F-0.25
g62
tp993
a(I198
I8
I0
g64
tp994
a(I213
I18
F-0.5
g66
tp995
a(I214
I4
I0
g68
tp996
a(I217
I2
F-0.125
g70
tp997
a(I217
I2
I0
g72
tp998
a(I218
I1
I0
g74
tp999
a(I219
I3
I0
g76
tp1000
a(I248
I1
I0
g78
tp1001
a(I249
I0
I0
g80
tp1002
a(I344
I2
F0.25
g82
tp1003
as(S'better'
p1004
tp1005
(lp1006
(I253
I1
F0.375
S'much'
p1007
tp1008
as(S'thing'
p1009
tp1010
(lp1011
(I9
I9
F1.0
S'best'
p1012
tp1013
a(I9
I28
F-0.75
S'stupid'
p1014
tp1015
a(I9
I28
I0
S'hot'
p1016
tp1017
a(I11
I1
I0
S'only'
p1018
tp1019
a(I28
I1
I0
S'next'
p1020
tp1021
a(I28
I1
I0
S'big'
p1022
tp1023
a(I29
I1
F0.625
S'easy'
p1024
tp1025
a(I29
I1
I0
S'only'
p1026
tp1027
a(I54
I3
F-0.375
S'crazy'
p1028
tp1029
a(I91
I1
F-0.875
S'worst'
p1030
tp1031
a(I117
I2
F-0.625
S'generous'
p1032
tp1033
a(I117
I7
I0
S'only'
p1034
tp1035
a(I140
I1
I0
S'fast'
p1036
tp1037
a(I172
I2
I0
S'only'
p1038
tp1039
a(I172
I2
F-0.25
S'disappointed'
p1040
tp1041
a(I198
I1
I0
S'only'
p1042
tp1043
a(I207
I1
I0
S'only'
p1044
tp1045
a(I218
I1
F-0.625
S'bad'
p1046
tp1047
a(I222
I0
I0
S'such'
p1048
tp1049
a(I262
I17
I0
S'same'
p1050
tp1051
a(I279
I0
I0
S'only'
p1052
tp1053
a(I335
I0
I0
S'only'
p1054
tp1055
a(I335
I0
F-0.25
S'disappointed'
p1056
tp1057
as(S'excellent'
p1058
tp1059
(lp1060
(I278
I22
I0
S'great'
p1061
tp1062
a(I278
I22
I0
S'large'
p1063
tp1064
as(S'device'
p1065
tp1066
(lp1067
(I27
I5
F0.375
S'new'
p1068
tp1069
a(I126
I2
F1.0
S'good'
p1070
tp1071
a(I213
I1
I0
S'great'
p1072
tp1073
a(I213
I1
F-0.75
S'little'
p1074
tp1075
a(I213
I17
F-0.75
S'little'
p1076
tp1077
a(I227
I3
F0.75
S'worth'
p1078
tp1079
a(I227
I4
F0.125
S'capable'
p1080
tp1081
a(I227
I52
I0
S'more'
p1082
tp1083
a(I227
I52
F0.125
S'popular'
p1084
tp1085
a(I278
I51
F-0.625
S'other'
p1086
tp1087
a(I278
I55
F0.875
S'attractive'
p1088
tp1089
a(I308
I10
F0.125
S'able'
p1090
tp1091
a(I333
I0
I0
S'least'
p1092
tp1093
a(I333
I0
F-0.625
S'other'
p1094
tp1095
a(I333
I2
I0
S'quick'
p1096
tp1097
as(S'call'
p1098
tp1099
(lp1100
(I58
I2
F-0.625
S'free'
p1101
tp1102
as(S'data'
p1103
tp1104
(lp1105
(I9
I56
F-0.5
S'unlimited'
p1106
tp1107
a(I114
I1
F0.625
S'responsible'
p1108
tp1109
a(I136
I6
F0.25
S'stellar'
p1110
tp1111
a(I161
I11
I0
S'fast'
p1112
tp1113
a(I198
I5
F-0.5
S'unlimited'
p1114
tp1115
a(I265
I2
F-0.5
S'unlimited'
p1116
tp1117
a(I326
I13
F0.5
S'personal'
p1118
tp1119
as(S'time'
p1120
tp1121
(lp1122
(I9
I21
I0
S'closing'
p1123
tp1124
a(I74
I6
F-0.5
S'disappear'
p1125
tp1126
a(I77
I2
I0
S'fast'
p1127
tp1128
a(I81
I3
I0
S'most'
p1129
tp1130
a(I150
I5
I0
S'same'
p1131
tp1132
a(I170
I2
F1.0
S'good'
p1133
tp1134
a(I183
I5
I0
S'great'
p1135
tp1136
a(I189
I2
F0.375
S'complete'
p1137
tp1138
a(I245
I2
F-0.5
S'long'
p1139
tp1140
a(I278
I2
F-0.5
S'long'
p1141
tp1142
a(I289
I0
F-0.5
S'long'
p1143
tp1144
as(S'galaxy'
p1145
g702
S'ii'
p1146
tp1147
(lp1148
(I99
I5
F0.375
g196
tp1149
as(S'speed'
p1150
tp1151
(lp1152
(I237
I4
I0
S'high'
p1153
tp1154
a(I242
I10
I0
S'only'
p1155
tp1156
a(I248
I18
I0
S'incredible'
p1157
tp1158
a(I326
I13
I0
S'same'
p1159
tp1160
a(I326
I14
I0
S'more'
p1161
tp1162
a(I326
I14
I0
S'current'
p1163
tp1164
as(S'samsung'
p1165
S'galaxy'
p1166
tp1167
(lp1168
(I9
I1
I0
g408
tp1169
a(I23
I0
F0.375
g410
tp1170
a(I52
I0
I0
g412
tp1171
as(S'virgin'
p1172
S'mobile'
p1173
S'service'
p1174
tp1175
(lp1176
(I9
I55
F1.0
g353
tp1177
a(I21
I4
F0.875
g36
tp1178
a(I41
I5
F0.125
g40
tp1179
a(I41
I5
F-0.5
g357
tp1180
a(I123
I4
I0
g48
tp1181
a(I184
I1
I0
g365
tp1182
a(I214
I4
I0
g68
tp1183
as(S'fast'
p1184
tp1185
(lp1186
(I161
I10
F-0.125
S'super'
p1187
tp1188
a(I173
I0
I0
S'very'
p1189
tp1190
a(I194
I2
F-0.125
S'super'
p1191
tp1192
a(I292
I0
F0.625
S'easy'
p1193
tp1194
a(I294
I2
I0
S'very'
p1195
tp1196
as(S'for'
p1197
S'virgin'
p1198
S'mobile'
p1199
tp1200
(lp1201
(I21
I4
F0.875
g36
tp1202
a(I33
I9
I0
g38
tp1203
a(I41
I5
F0.125
g40
tp1204
a(I118
I1
F0.5
g46
tp1205
a(I171
I2
I0
g60
tp1206
a(I213
I18
F-0.5
g66
tp1207
a(I214
I4
I0
g68
tp1208
a(I249
I0
I0
g80
tp1209
as(S'using'
p1210
S'virgin'
p1211
S'mobile'
p1212
tp1213
(lp1214
(I33
I9
I0
g38
tp1215
as(S'deal'
p1216
tp1217
(lp1218
(I80
I0
F-0.625
S'bad'
p1219
tp1220
a(I85
I4
F1.0
S'good'
p1221
tp1222
a(I93
I1
F1.0
S'better'
p1223
tp1224
a(I108
I0
F0.875
S'happy'
p1225
tp1226
a(I108
I0
I0
S'great'
p1227
tp1228
a(I232
I25
I0
S'phenomenal'
p1229
tp1230
a(I237
I5
F1.0
S'best'
p1231
tp1232
a(I237
I14
I0
S'great'
p1233
tp1234
a(I237
I19
F1.0
S'best'
p1235
tp1236
a(I257
I0
I0
S'great'
p1237
tp1238
a(I269
I2
F1.0
S'good'
p1239
tp1240
a(I296
I1
I0
S'great'
p1241
tp1242
a(I331
I1
I0
S'great'
p1243
tp1244
as(S'from'
p1245
S'virgin'
p1246
S'mobile'
p1247
tp1248
(lp1249
(I93
I1
I0
g44
tp1250
a(I138
I1
I0
g52
tp1251
a(I161
I12
I0
g56
tp1252
a(I171
I2
I0
g60
tp1253
as(S'apps'
p1254
tp1255
(lp1256
(I7
I4
I0
S'closing'
p1257
tp1258
a(I9
I16
F-0.625
S'free'
p1259
tp1260
a(I20
I1
F0.125
S'able'
p1261
tp1262
a(I20
I1
F0.25
S'favorite'
p1263
tp1264
a(I77
I2
I0
S'basic'
p1265
tp1266
a(I86
I2
I0
S'such'
p1267
tp1268
a(I113
I4
I0
S'more'
p1269
tp1270
a(I145
I1
F0.25
S'responsive'
p1271
tp1272
a(I172
I1
F0.375
S'extra'
p1273
tp1274
a(I194
I2
I0
S'closing'
p1275
tp1276
a(I224
I2
I0
S'close'
p1277
tp1278
a(I265
I13
I0
S'unneeded'
p1279
tp1280
a(I276
I0
F0.5
S'functional'
p1281
tp1282
a(I278
I47
I0
S'many'
p1283
tp1284
a(I303
I2
I0
S'many'
p1285
tp1286
a(I303
I2
F0.375
S'available'
p1287
tp1288
a(I333
I7
F0.5
S'drive'
p1289
tp1290
as(S'on'
p1291
S'virgin'
p1292
S'mobile'
p1293
tp1294
(lp1295
(I21
I4
F0.875
g36
tp1296
a(I33
I9
I0
g38
tp1297
a(I49
I0
I0
g42
tp1298
a(I93
I1
I0
g44
tp1299
a(I118
I1
F0.5
g46
tp1300
a(I123
I4
I0
g48
tp1301
a(I129
I7
I0
g50
tp1302
a(I138
I1
I0
g52
tp1303
a(I150
I19
F0.125
g54
tp1304
a(I161
I12
I0
g56
tp1305
a(I161
I15
F0.875
g58
tp1306
a(I171
I2
I0
g60
tp1307
a(I213
I18
F-0.5
g66
tp1308
a(I214
I4
I0
g68
tp1309
a(I217
I2
F-0.125
g70
tp1310
a(I217
I2
I0
g72
tp1311
a(I218
I1
I0
g74
tp1312
a(I219
I3
I0
g76
tp1313
a(I248
I1
I0
g78
tp1314
a(I249
I0
I0
g80
tp1315
as(S'days'
p1316
tp1317
(lp1318
(I70
I4
F-0.25
S'past'
p1319
tp1320
a(I137
I4
I0
S'later'
p1321
tp1322
a(I183
I11
I0
S'few'
p1323
tp1324
a(I183
I11
F-0.625
S'glad'
p1325
tp1326
a(I232
I16
I0
S'full'
p1327
tp1328
a(I262
I6
F0.125
S'first'
p1329
tp1330
a(I297
I4
F-0.5
S'less'
p1331
tp1332
a(I297
I4
I0
S'few'
p1333
tp1334
a(I319
I2
F0.125
S'first'
p1335
tp1336
as(S'lg'
p1337
S'optimus'
p1338
S'elite'
p1339
tp1340
(lp1341
(I33
I0
F0.25
g787
tp1342
a(I35
I0
F0.25
g789
tp1343
a(I67
I0
F0.25
g791
tp1344
as(S'4g'
p1345
S'lte'
p1346
tp1347
(lp1348
(I273
I4
F0.875
S'nice'
p1349
tp1350
as(S'htc'
p1351
S'one'
p1352
g433
tp1353
(lp1354
(I24
I0
I0
S'adequate'
p1355
tp1356
a(I171
I6
F-0.5
S'try'
p1357
tp1358
as.