(dp0
(S'cases'
p1
tp2
(lp3
(I18
I62
F0.625
S'add'
p4
I3
tp5
a(I20
I82
I0
S'most'
p6
I3
tp7
as(S'purple'
p8
tp9
(lp10
(I2
I10
F-0.5
S'ordinary'
p11
I2
tp12
a(I13
I8
F0.125
S'solid'
p13
I2
tp14
a(I13
I8
I0
S'great'
p15
I2
tp16
a(I18
I22
F-0.375
S'black'
p17
I2
tp18
as(S'low'
p19
S'profile'
p20
tp21
(lp22
(I16
I10
F-0.25
S'low'
p23
I2
tp24
a(I18
I0
F-0.25
S'low'
p25
I2
tp26
a(I18
I62
F-0.25
S'low'
p27
I2
tp28
a(I20
I66
F-0.25
S'low'
p29
I2
tp30
a(I20
I68
F-0.25
S'low'
p31
I2
tp32
a(I20
I69
F-0.25
S'low'
p33
I2
tp34
as(S'camera'
p35
S'lens'
p36
tp37
(lp38
(I18
I67
I0
S'rear'
p39
I0
tp40
a(I20
I51
F-0.25
S'bubble'
p41
I2
tp42
a(I18
I67
I0
g39
I1
tp43
as(S'edges'
p44
tp45
(lp46
(I12
I4
F-0.125
S'mine'
p47
I10
tp48
a(I12
I4
F-0.625
S'rough'
p49
I10
tp50
a(I18
I40
F0.25
S'sharp'
p51
I10
tp52
a(I20
I47
F0.5
S'slick'
p53
I10
tp54
a(I20
I90
F0.125
S'protective'
p55
I10
tp56
as(S'case'
p57
S'fits'
p58
tp59
(lp60
(I4
I3
F0.75
S'beautiful'
p61
I0
tp62
a(I4
I3
I0
S'great'
p63
I0
tp64
a(I9
I0
F-0.625
S'overcome'
p65
I0
tp66
as(S'corners'
p67
tp68
(lp69
(I4
I32
I0
S'most'
p70
I4
tp71
a(I4
I32
I0
S'great'
p72
I4
tp73
a(I12
I22
F-0.375
S'wear'
p74
I4
tp75
a(I12
I22
F-0.25
S'tear'
p76
I4
tp77
a(I12
I22
F-0.625
S'other'
p78
I4
tp79
a(I13
I3
F0.375
S'vulnerable'
p80
I4
tp81
a(I17
I2
F-0.125
S'front'
p82
I4
tp83
a(I18
I19
F-0.625
S'other'
p84
I4
tp85
a(I18
I19
F-0.5
S'cracked'
p86
I4
tp87
as(S'nokia'
p88
S'lumia'
p89
tp90
(lp91
(I5
I3
F-0.625
S'other'
p92
I0
tp93
a(I16
I32
I0
S'slippery'
p94
I0
tp95
a(I17
I23
F-0.625
S'light'
p96
I0
tp97
a(I4
I8
I0
S'slippery'
p98
I0
tp99
a(I5
I3
F-0.625
g92
I0
tp100
a(I17
I23
F-0.625
g96
I0
tp101
a(I13
I1
I0
S'metallic'
p102
I0
tp103
a(I13
I1
I0
S'plastic'
p104
I0
tp105
a(I16
I8
I0
S'great'
p106
I0
tp107
a(I16
I32
I0
g94
I0
tp108
a(I18
I38
F0.375
S'much'
p109
I0
tp110
a(I18
I38
F0.625
S'easier'
p111
I0
tp112
a(I20
I1
F0.25
S'bigger'
p113
I0
tp114
as(S'bottom'
p115
S'edge'
p116
tp117
(lp118
(I13
I17
F-0.375
S'top'
p119
I0
tp120
a(I13
I17
F-0.5
S'open'
p121
I0
tp122
a(I20
I30
F-0.375
S'top'
p123
I0
tp124
a(I20
I108
F-0.375
S'top'
p125
I0
tp126
as(S'buttons'
p127
tp128
(lp129
(I7
I13
F0.25
S'main'
p130
I13
tp131
a(I7
I13
F0.25
S'main'
p132
I13
tp133
a(I17
I33
F0.625
S'easy'
p134
I13
tp135
a(I18
I43
I0
S'great'
p136
I13
tp137
as(S'crack'
p138
tp139
(lp140
(I20
I84
F-0.5
S'longest'
p141
I5
tp142
as(S'screen'
p143
S'protector'
p144
tp145
(lp146
(I1
I4
F0.875
S'nice'
p147
I4
tp148
a(I10
I13
F0.125
S'visible'
p149
I4
tp150
a(I16
I50
F0.125
S'protective'
p151
I4
tp152
a(I10
I13
F0.125
g149
I9
tp153
as(S'slim'
p154
tp155
(lp156
(I20
I52
F-0.125
S'overall'
p157
I3
tp158
a(I20
I52
F0.875
S'nice'
p159
I3
tp160
as(S'protection'
p161
tp162
(lp163
(I4
I20
F-0.125
S'ultimate'
p164
I2
tp165
a(I8
I1
I0
S'term'
p166
I2
tp167
a(I10
I4
F0.375
S'much'
p168
I2
tp169
a(I16
I20
I0
S'great'
p170
I2
tp171
a(I16
I30
F0.375
S'extra'
p172
I2
tp173
a(I17
I5
F1.0
S'good'
p174
I2
tp175
a(I18
I26
F1.0
S'better'
p176
I2
tp177
a(I18
I35
F0.125
S'enough'
p178
I2
tp179
a(I18
I70
F0.5
S'greater'
p180
I2
tp181
a(I19
I15
I0
S'minimal'
p182
I2
tp183
a(I20
I40
F0.375
S'much'
p184
I2
tp185
a(I20
I52
F0.375
S'extra'
p186
I2
tp187
a(I20
I66
I0
S'questionable'
p188
I2
tp189
a(I20
I67
I0
S'incredible'
p190
I2
tp191
a(I20
I94
F-0.75
S'little'
p192
I2
tp193
as(S'grip'
p194
tp195
(lp196
(I16
I41
F1.0
S'better'
p197
I1
tp198
a(I18
I33
F1.0
S'better'
p199
I1
tp200
a(I20
I26
F0.5
S'greater'
p201
I1
tp202
a(I20
I26
I0
S'slippery'
p203
I1
tp204
as.