(dp0
(S'virgin'
p1
S'mobile'
p2
tp3
(lp4
(I2
I2
F0.5
S'careful'
p5
I0
tp6
a(I7
I76
F1.0
S'best'
p7
I0
tp8
a(I12
I52
F-0.75
S'hate'
p9
I0
tp10
a(I17
I0
I0
S'great'
p11
I0
tp12
a(I21
I4
F0.5
S'second'
p13
I0
tp14
a(I2
I2
F0.5
g5
I0
tp15
a(I7
I76
F1.0
g7
I0
tp16
a(I9
I5
I0
S'great'
p17
I0
tp18
a(I12
I52
F-0.75
g9
I0
tp19
a(I21
I4
F0.5
g13
I0
tp20
a(I17
I0
I0
g11
I0
tp21
as(S'sound'
p22
tp23
(lp24
(I7
I30
F0.875
S'music'
p25
I7
tp26
a(I10
I2
F0.875
S'music'
p27
I7
tp28
a(I10
I2
I0
S'great'
p29
I7
tp30
a(I10
I2
F-0.625
S'bad'
p31
I7
tp32
as(S'battery'
p33
S'life'
p34
tp35
(lp36
(I7
I51
F0.125
S'first'
p37
I1
tp38
a(I7
I51
F0.375
S'extended'
p39
I1
tp40
a(I8
I15
F-0.75
S'shorter'
p41
I1
tp42
a(I8
I44
F1.0
S'good'
p43
I1
tp44
a(I9
I8
F0.625
S'replaceable'
p45
I1
tp46
a(I12
I31
I0
S'great'
p47
I1
tp48
a(I7
I51
F0.125
g37
I19
tp49
a(I7
I51
F0.375
g39
I19
tp50
a(I7
I52
F0.375
S'extended'
p51
I15
tp52
a(I7
I52
F0.375
S'available'
p53
I15
tp54
a(I7
I53
F0.375
S'extended'
p55
I15
tp56
a(I8
I15
F-0.75
g41
I15
tp57
a(I8
I18
I0
S'more'
p58
I15
tp59
a(I8
I44
F1.0
g43
I15
tp60
a(I9
I8
F0.625
g45
I15
tp61
a(I12
I31
I0
g47
I15
tp62
as(S'memory'
p63
tp64
(lp65
(I1
I18
F-0.25
S'low'
p66
I5
tp67
a(I3
I5
F1.0
S'good'
p68
I5
tp69
a(I6
I1
I0
S'internal'
p70
I5
tp71
a(I7
I19
I0
S'internal'
p72
I5
tp73
a(I7
I26
I0
S'internal'
p74
I5
tp75
a(I15
I1
F-0.25
S'low'
p76
I5
tp77
a(I15
I29
F-0.625
S'free'
p78
I5
tp79
a(I15
I30
F-0.625
S'free'
p80
I5
tp81
a(I15
I31
F-0.625
S'free'
p82
I5
tp83
a(I19
I27
F-0.25
S'low'
p84
I5
tp85
as(S'galaxy'
p86
tp87
(lp88
(I3
I6
F0.375
S'similar'
p89
I0
tp90
a(I15
I21
F-0.625
S'other'
p91
I0
tp92
a(I15
I32
I0
S'close'
p93
I0
tp94
a(I15
I32
F0.5
S'second'
p95
I0
tp96
as(S'restart'
p97
tp98
(lp99
(I9
I5
I0
S'own'
p100
I2
tp101
a(I23
I3
F0.75
S'constant'
p102
I2
tp103
as(S'internet'
p104
tp105
(lp106
(I3
I8
F-0.125
S'slow'
p107
I6
tp108
a(I8
I38
I0
S'faster'
p109
I6
tp110
as(S'storage'
p111
tp112
(lp113
(I11
I4
F0.375
S'much'
p114
I1
tp115
a(I19
I34
F-0.25
S'low'
p116
I1
tp117
a(I19
I34
F-0.625
S'other'
p118
I1
tp119
as(S'sometimes'
p120
tp121
(lp122
(I15
I4
F-0.625
S'bad'
p123
I17
tp124
as(S'service'
p125
tp126
(lp127
(I1
I0
F0.5
S'polite'
p128
I16
tp129
a(I1
I3
I0
S'great'
p130
I16
tp131
a(I8
I4
F1.0
S'better'
p132
I16
tp133
a(I19
I56
F0.625
S'decent'
p134
I16
tp135
a(I19
I56
F-0.125
S'overall'
p136
I16
tp137
as(S'apps'
p138
tp139
(lp140
(I0
I1
F-0.125
S'slow'
p141
I0
tp142
a(I3
I12
I0
S'more'
p143
I0
tp144
a(I8
I29
F0.125
S'able'
p145
I0
tp146
a(I10
I5
F-0.5
S'open'
p147
I0
tp148
a(I12
I20
F0.375
S'available'
p149
I0
tp150
a(I14
I17
F0.5
S'compatible'
p151
I0
tp152
a(I15
I16
F0.375
S'new'
p153
I0
tp154
a(I16
I4
F0.25
S'responsive'
p155
I0
tp156
a(I16
I4
I0
S'quick'
p157
I0
tp158
a(I19
I7
I0
S'many'
p159
I0
tp160
a(I19
I50
F0.125
S'able'
p161
I0
tp162
a(I23
I1
F0.875
S'music'
p163
I0
tp164
as(S'sd'
p165
S'card'
p166
tp167
(lp168
(I6
I1
F0.375
S'extra'
p169
I0
tp170
a(I8
I29
I0
S'external'
p171
I0
tp172
a(I8
I30
F-0.5
S'actual'
p173
I0
tp174
a(I12
I25
F0.625
S'add'
p175
I0
tp176
a(I15
I42
I0
S'external'
p177
I0
tp178
a(I17
I14
F0.25
S'larger'
p179
I0
tp180
a(I24
I14
F-0.875
S'stuck'
p181
I0
tp182
a(I24
I15
F-0.625
S'free'
p183
I0
tp184
as(S'camera'
p185
tp186
(lp187
(I1
I15
I0
S'great'
p188
I1
tp189
a(I8
I42
I0
S'great'
p190
I1
tp191
a(I8
I44
F1.0
S'good'
p192
I1
tp193
a(I9
I3
F0.375
S'much'
p194
I1
tp195
a(I15
I16
F0.875
S'nice'
p196
I1
tp197
a(I21
I11
F0.25
S'sharp'
p198
I1
tp199
a(I21
I28
F0.875
S'nice'
p200
I1
tp201
as(S'music'
p202
tp203
(lp204
(I24
I20
F1.0
S'better'
p205
I0
tp206
as.