(dp0
(S'big'
p1
S'brother'
p2
tp3
(lp4
(I25
I74
I0
S'big'
p5
I0
tp6
a(I25
I74
F0.25
S'original'
p7
I0
tp8
a(I46
I16
I0
S'big'
p9
I0
tp10
a(I48
I7
I0
S'big'
p11
I0
tp12
a(I52
I1
I0
S'big'
p13
I0
tp14
a(I56
I1
F0.25
S'bigger'
p15
I0
tp16
as(S'transfer'
p17
S'files'
p18
tp19
(lp20
(I10
I8
F0.875
S'music'
p21
I0
tp22
as(S'battery'
p23
S'life'
p24
tp25
(lp26
(I25
I14
F0.125
S'impressive'
p27
I1
tp28
a(I34
I50
F0.125
S'last'
p29
I1
tp30
a(I6
I4
F0.625
S'removable'
p31
I15
tp32
a(I11
I2
F1.0
S'good'
p33
I15
tp34
a(I11
I6
F-0.25
S'low'
p35
I15
tp36
a(I16
I2
I0
S'wish'
p37
I15
tp38
a(I16
I2
F0.125
S'last'
p39
I15
tp40
a(I27
I11
F0.125
S'last'
p41
I15
tp42
a(I41
I25
I0
S'faster'
p43
I15
tp44
a(I41
I25
I0
S'faster'
p45
I15
tp46
a(I41
I33
F0.375
S'new'
p47
I15
tp48
a(I51
I18
F0.375
S'new'
p49
I15
tp50
a(I57
I7
I0
S'hot'
p51
I15
tp52
a(I65
I25
F-0.375
S'serious'
p53
I15
tp54
a(I65
I26
F0.125
S'last'
p55
I15
tp56
a(I68
I4
F-0.625
S'bad'
p57
I15
tp58
as(S'smartphone'
p59
tp60
(lp61
(I25
I80
I0
S'more'
p62
I0
tp63
a(I26
I2
F-0.625
S'other'
p64
I0
tp65
a(I34
I7
F1.0
S'good'
p66
I0
tp67
a(I40
I38
F0.125
S'first'
p68
I0
tp69
a(I53
I13
F0.875
S'happy'
p70
I0
tp71
as(S'dual'
p72
S'sim'
p73
S'feature'
p74
tp75
(lp76
(I27
I6
I0
S'more'
p77
I0
tp78
a(I27
I6
F-0.625
S'other'
p79
I0
tp80
a(I37
I8
F0.375
S'flexible'
p81
I0
tp82
a(I47
I2
I0
S'great'
p83
I0
tp84
as(S'2'
p85
S'days'
p86
tp87
(lp88
(I53
I28
I0
S'later'
p89
I3
tp90
as(S'size'
p91
S'perfect'
p92
tp93
(lp94
(I1
I3
F0.625
S'perfect'
p95
I1
tp96
a(I11
I15
F0.625
S'perfect'
p97
I1
tp98
a(I34
I36
I0
S'mobile'
p99
I1
tp100
a(I45
I5
F0.625
S'perfect'
p101
I1
tp102
a(I46
I30
F-0.625
S'light'
p103
I1
tp104
a(I46
I30
F0.625
S'perfect'
p105
I1
tp106
a(I51
I2
F0.625
S'perfect'
p107
I1
tp108
a(I51
I2
I0
S'large'
p109
I1
tp110
a(I65
I16
F0.625
S'perfect'
p111
I1
tp112
a(I1
I3
F0.625
g95
I2
tp113
a(I11
I15
F0.625
g97
I2
tp114
a(I34
I36
I0
g99
I2
tp115
a(I45
I5
F0.625
g101
I2
tp116
a(I46
I30
F-0.625
g103
I2
tp117
a(I46
I30
F0.625
g105
I2
tp118
a(I51
I2
F0.625
g107
I2
tp119
a(I51
I2
I0
g109
I2
tp120
a(I65
I16
F0.625
g111
I2
tp121
as(S'iphone'
p122
tp123
(lp124
(I6
I5
I0
S'next'
p125
I1
tp126
a(I25
I81
F0.375
S'new'
p127
I1
tp128
as(S'camera'
p129
tp130
(lp131
(I25
I18
I0
S'great'
p132
I1
tp133
a(I36
I4
F0.25
S'effective'
p134
I1
tp135
a(I57
I6
F1.0
S'good'
p136
I1
tp137
as(S's4'
p138
S'mini'
p139
tp140
(lp141
(I5
I4
F-0.125
S'overall'
p142
I0
tp143
a(I46
I16
F0.625
S'aware'
p144
I0
tp145
a(I46
I16
F0.625
g144
I13
tp146
as(S'few'
p147
S'weeks'
p148
tp149
(lp150
(I26
I3
I0
S'few'
p151
I2
tp152
a(I41
I25
I0
S'few'
p153
I2
tp154
a(I63
I0
I0
S'few'
p155
I2
tp156
as(S'dual'
p157
S'sim'
p158
S'works'
p159
tp160
(lp161
(I24
I26
F-0.5
S'heavy'
p162
I0
tp163
a(I24
I26
I0
S'great'
p164
I0
tp165
a(I34
I34
F1.0
S'best'
p166
I0
tp167
a(I57
I6
I0
S'great'
p168
I0
tp169
a(I11
I15
I0
S'great'
p170
I0
tp171
a(I24
I26
F-0.5
g162
I0
tp172
a(I27
I6
I0
g77
I0
tp173
a(I27
I6
F-0.625
g79
I0
tp174
a(I34
I34
F1.0
g166
I0
tp175
a(I57
I6
I0
g168
I0
tp176
a(I63
I21
I0
S'standard'
p177
I0
tp178
a(I68
I3
F1.0
S'best'
p179
I0
tp180
as(S'light'
p181
S'weight'
p182
tp183
(lp184
(I27
I6
F-0.625
S'light'
p185
I5
tp186
a(I34
I64
I0
S'great'
p187
I5
tp188
a(I40
I2
I0
S'great'
p189
I5
tp190
a(I63
I15
F-0.625
S'light'
p191
I5
tp192
as(S'sim'
p193
S'cards'
p194
tp195
(lp196
(I14
I20
I0
S'old'
p197
I0
tp198
a(I14
I20
I0
S'large'
p199
I0
tp200
a(I14
I20
I0
S'own'
p201
I0
tp202
a(I40
I24
F1.0
S'good'
p203
I0
tp204
a(I50
I3
I0
S'russian'
p205
I0
tp206
a(I67
I0
I0
S'german'
p207
I0
tp208
a(I14
I20
I0
g199
I15
tp209
a(I40
I24
F1.0
g203
I15
tp210
as(S'safe'
p211
S'mode'
p212
tp213
(lp214
(I10
I1
F0.625
S'safe'
p215
I0
tp216
as(S'seller'
p217
tp218
(lp219
(I52
I7
F-0.625
S'bad'
p220
I19
tp221
as(S'venezuela'
p222
tp223
(lp224
(I23
I1
F0.625
S'perfect'
p225
I0
tp226
as(S'smart'
p227
tp228
(lp229
(I27
I0
F0.125
S'first'
p230
I10
tp231
a(I28
I0
F0.125
S'first'
p232
I10
tp233
a(I34
I43
F0.625
S'fair'
p234
I10
tp235
a(I34
I43
F0.125
S'first'
p236
I10
tp237
a(I34
I43
I0
S'real'
p238
I10
tp239
a(I34
I47
F-0.625
S'other'
p240
I10
tp241
a(I48
I22
F-0.375
S'small'
p242
I10
tp243
a(I48
I22
I0
S'great'
p244
I10
tp245
a(I48
I22
F0.25
S'powerful'
p246
I10
tp247
a(I68
I19
F0.125
S'impressive'
p248
I10
tp249
as(S'calls'
p250
tp251
(lp252
(I8
I6
I0
S'few'
p253
I0
tp254
a(I34
I15
F-0.625
S'free'
p255
I0
tp256
a(I65
I8
F0.125
S'able'
p257
I0
tp258
as(S'first'
p259
S'week'
p260
tp261
(lp262
(I14
I0
F0.125
S'first'
p263
I0
tp264
a(I14
I14
F0.125
S'first'
p265
I0
tp266
a(I46
I11
F0.125
S'first'
p267
I0
tp268
as(S'samsung'
p269
S'galaxy'
p270
S's4'
p271
tp272
(lp273
(I67
I1
F0.875
S'happy'
p274
I0
tp275
a(I52
I1
F-0.75
S'sad'
p276
I0
tp277
a(I67
I1
F0.875
g274
I0
tp278
a(I27
I10
F-0.625
S'other'
p279
I0
tp280
a(I36
I1
F0.25
S'original'
p281
I7
tp282
a(I41
I4
F0.25
S'recent'
p283
I7
tp284
a(I41
I4
F0.375
S'newer'
p285
I7
tp286
a(I48
I15
F0.125
S'last'
p287
I7
tp288
a(I52
I1
F-0.75
g276
I7
tp289
a(I65
I28
F0.625
S'perfect'
p290
I7
tp291
a(I67
I1
F0.875
g274
I7
tp292
a(I68
I17
F0.625
S'certified'
p293
I7
tp294
a(I11
I11
F0.5
S'upgraded'
p295
I0
tp296
a(I11
I11
F0.125
S'first'
p297
I0
tp298
a(I27
I10
F-0.625
g279
I0
tp299
as(S'fits'
p300
S'in'
p301
S'pocket'
p302
tp303
(lp304
(I25
I4
F0.875
S'nice'
p305
I0
tp306
a(I25
I4
F-0.625
S'light'
p307
I0
tp308
a(I51
I2
I0
S'large'
p309
I0
tp310
a(I53
I2
F0.75
S'ideal'
p311
I0
tp312
a(I65
I2
I0
S'handy'
p313
I0
tp314
a(I8
I4
F-0.75
S'uncomfortable'
p315
I17
tp316
a(I25
I4
F0.875
g305
I17
tp317
a(I25
I4
F-0.625
g307
I17
tp318
a(I46
I19
F0.625
S'easy'
p319
I17
tp320
a(I51
I2
I0
g309
I17
tp321
as(S'a'
p322
S'sim'
p323
S'card'
p324
tp325
(lp326
(I14
I20
I0
g197
I0
tp327
a(I14
I20
I0
g201
I0
tp328
a(I34
I32
I0
S'american'
p329
I0
tp330
a(I50
I3
I0
g205
I0
tp331
a(I67
I0
I0
g207
I0
tp332
a(I14
I20
I0
g197
I0
tp333
a(I14
I20
I0
g201
I0
tp334
a(I34
I32
I0
g329
I0
tp335
a(I50
I3
I0
g205
I0
tp336
a(I67
I0
I0
g207
I0
tp337
as(S'customer'
p338
S'service'
p339
tp340
(lp341
(I34
I1
I0
S'great'
p342
I3
tp343
a(I34
I1
I0
g342
I16
tp344
a(I53
I26
F-0.5
S'poor'
p345
I16
tp346
a(I53
I26
F-0.625
S'unprofessional'
p347
I16
tp348
as(S'wifi'
p349
tp350
(lp351
(I34
I54
I0
S'relevant'
p352
I0
tp353
a(I37
I2
F0.5
S'rid'
p354
I0
tp355
as(S'apps'
p356
tp357
(lp358
(I16
I4
F0.125
S'native'
p359
I0
tp360
a(I25
I78
F0.375
S'new'
p361
I0
tp362
a(I26
I8
F-0.5
S'longer'
p363
I0
tp364
a(I34
I49
I0
S'few'
p365
I0
tp366
a(I34
I49
I0
S'basic'
p367
I0
tp368
a(I45
I17
I0
S'close'
p369
I0
tp370
a(I45
I21
I0
S'many'
p371
I0
tp372
a(I68
I4
F0.375
S'much'
p373
I0
tp374
as(S'amazon'
p375
tp376
(lp377
(I1
I0
I0
S'more'
p378
I13
tp379
a(I25
I67
F-0.75
S'wrong'
p380
I13
tp381
as.