(dp0
(S'charging'
p1
S'port'
p2
tp3
(lp4
(I99
I14
F-0.25
S'loose'
p5
tp6
a(I191
I15
F-0.25
S'loose'
p7
tp8
a(I191
I23
F0.375
S'new'
p9
tp10
a(I198
I4
F0.125
S'first'
p11
tp12
a(I208
I3
F-0.25
S'loose'
p13
tp14
as(S'with'
p15
S'blu'
p16
S'life'
p17
tp18
(lp19
(I63
I0
F0.625
S'perfect'
p20
tp21
a(I63
I0
I0
S'great'
p22
tp23
a(I80
I0
I0
S'blue'
p24
tp25
a(I137
I4
F-0.875
S'unhappy'
p26
tp27
a(I277
I0
F-0.875
S'unhappy'
p28
tp29
as(S'nice'
p30
tp31
(lp32
(I110
I1
F0.75
S'fit'
p33
tp34
a(I229
I1
F-0.625
S'light'
p35
tp36
a(I257
I17
F0.875
S'happy'
p37
tp38
a(I271
I1
F-0.625
S'light'
p39
tp40
as(S'quad'
p41
S'core'
p42
tp43
(lp44
(I281
I2
I0
S'quad'
p45
tp46
as(S'month'
p47
tp48
(lp49
(I31
I3
I0
S'later'
p50
tp51
a(I53
I2
I0
S'great'
p52
tp53
a(I185
I3
I0
S'more'
p54
tp55
a(I227
I2
I0
S'few'
p56
tp57
a(I237
I0
I0
S'great'
p58
tp59
a(I285
I4
F0.375
S'available'
p60
tp61
as(S'quality'
p62
tp63
(lp64
(I4
I0
F1.0
S'good'
p65
tp66
a(I21
I15
I0
S'great'
p67
tp68
a(I21
I19
F1.0
S'good'
p69
tp70
a(I31
I3
F1.0
S'good'
p71
tp72
a(I35
I0
F-0.5
S'poor'
p73
tp74
a(I48
I11
F1.0
S'good'
p75
tp76
a(I48
I12
F-0.5
S'call'
p77
tp78
a(I48
I12
F1.0
S'good'
p79
tp80
a(I69
I4
F1.0
S'good'
p81
tp82
a(I87
I2
F1.0
S'good'
p83
tp84
a(I109
I0
I0
S'same'
p85
tp86
a(I110
I1
I0
S'great'
p87
tp88
a(I120
I0
F1.0
S'good'
p89
tp90
a(I141
I5
I0
S'more'
p91
tp92
a(I145
I3
I0
S'high'
p93
tp94
a(I154
I2
F0.5
S'comparable'
p95
tp96
a(I174
I1
I0
S'high'
p97
tp98
a(I179
I1
F1.0
S'good'
p99
tp100
a(I185
I2
I0
S'more'
p101
tp102
a(I186
I0
I0
S'great'
p103
tp104
a(I186
I0
F0.25
S'responsive'
p105
tp106
a(I191
I7
I0
S'great'
p107
tp108
a(I234
I7
F1.0
S'good'
p109
tp110
a(I234
I7
F0.125
S'practical'
p111
tp112
a(I241
I2
F1.0
S'good'
p113
tp114
a(I243
I2
F-0.25
S'low'
p115
tp116
a(I243
I2
F-0.375
S'top'
p117
tp118
a(I243
I7
I0
S'delicious'
p119
tp120
a(I245
I17
I0
S'more'
p121
tp122
a(I266
I4
I0
S'great'
p123
tp124
a(I286
I1
F0.125
S'impressive'
p125
tp126
a(I289
I1
F1.0
S'good'
p127
tp128
a(I290
I2
F0.625
S'easy'
p129
tp130
as(S'to'
p131
S'sd'
p132
S'card'
p133
tp134
(lp135
(I140
I19
F0.875
S'nice'
p136
tp137
a(I257
I14
I0
S'sd'
p138
tp139
a(I281
I1
F0.125
S'essential'
p140
tp141
a(I281
I1
I0
S'large'
p142
tp143
as(S'case'
p144
S'and'
p145
S'screen'
p146
tp147
(lp148
(I16
I1
I0
S'big'
p149
tp150
a(I16
I1
F0.625
S'easy'
p151
tp152
a(I57
I0
F0.125
S'protective'
p153
tp154
a(I74
I4
F0.125
S'protective'
p155
tp156
a(I166
I2
I0
S'blue'
p157
tp158
a(I189
I9
F-0.625
S'free'
p159
tp160
a(I215
I0
F0.75
S'beautiful'
p161
tp162
a(I250
I2
F-0.625
S'free'
p163
tp164
as(S'sd'
p165
S'card'
p166
tp167
(lp168
(I140
I19
F0.875
g136
tp169
a(I140
I26
F-0.5
S'sure'
p170
tp171
a(I257
I14
I0
g138
tp172
a(I281
I1
F0.125
g140
tp173
a(I281
I1
I0
g142
tp174
as(S'case'
p175
tp176
(lp177
(I57
I0
F0.125
g153
tp178
a(I58
I3
F0.625
S'easier'
p179
tp180
a(I74
I4
F0.125
g155
tp181
a(I95
I17
I0
S'great'
p182
tp183
a(I119
I3
F-0.875
S'hard'
p184
tp185
a(I139
I2
F0.125
S'charger'
p186
tp187
a(I166
I2
I0
g157
tp188
a(I189
I9
F-0.625
g159
tp189
a(I216
I4
I0
S'plastic'
p190
tp191
a(I233
I1
I0
S'such'
p192
tp193
a(I250
I2
F-0.625
g163
tp194
a(I267
I6
F-0.625
S'other'
p195
tp196
as(S'people'
p197
tp198
(lp199
(I51
I14
I0
S'text'
p200
tp201
a(I95
I20
F-0.5
S'sure'
p202
tp203
a(I113
I1
F0.875
S'nice'
p204
tp205
a(I146
I2
F-0.625
S'other'
p206
tp207
a(I169
I8
F0.5
S'clear'
p208
tp209
a(I189
I10
I0
S'most'
p210
tp211
a(I191
I12
F-0.625
S'other'
p212
tp213
a(I256
I0
I0
S'most'
p214
tp215
a(I260
I6
I0
S'great'
p216
tp217
a(I284
I3
I0
S'most'
p218
tp219
as(S'sim'
p220
S'card'
p221
tp222
(lp223
(I38
I5
F0.5
S'beware'
p224
tp225
a(I56
I5
I0
S'standard'
p226
tp227
a(I158
I3
I0
S'standard'
p228
tp229
a(I234
I5
F-0.25
S'ready'
p230
tp231
a(I266
I7
F0.375
S'new'
p232
tp233
as(S'charge'
p234
tp235
(lp236
(I83
I4
I0
S'full'
p237
tp238
a(I124
I20
F-0.375
S'angle'
p239
tp240
a(I125
I10
I0
S'same'
p241
tp242
a(I146
I12
F0.375
S'complete'
p243
tp244
a(I186
I1
F0.375
S'extra'
p245
tp246
a(I280
I17
F-0.625
S'free'
p247
tp248
as(S'samsung'
p249
S'galaxy'
p250
S's4'
p251
tp252
(lp253
(I48
I1
F-0.25
S'thin'
p254
tp255
a(I48
I1
F-0.25
S'thin'
p256
tp257
a(I107
I0
I0
S'more'
p258
tp259
a(I201
I0
F0.375
S'much'
p260
tp261
a(I201
I0
I0
S'different'
p262
tp263
as(S'a'
p264
S'screen'
p265
S'protector'
p266
tp267
(lp268
(I120
I0
I0
S'screen'
p269
tp270
a(I154
I36
F0.375
S'extra'
p271
tp272
a(I215
I0
F0.75
g161
tp273
a(I233
I4
F0.125
S'protective'
p274
tp275
a(I258
I0
F0.875
S'nice'
p276
tp277
as(S'blu'
p278
S'life'
p279
S'play'
p280
tp281
(lp282
(I54
I0
F0.375
S'new'
p283
tp284
a(I63
I0
F0.625
g20
tp285
a(I63
I0
I0
g22
tp286
a(I74
I0
F0.375
S'new'
p287
tp288
a(I80
I0
I0
g24
tp289
a(I95
I29
F0.875
S'happy'
p290
tp291
a(I97
I11
I0
S'blue'
p292
tp293
a(I137
I4
F-0.875
g26
tp294
a(I169
I11
F-0.25
S'thin'
p295
tp296
a(I169
I11
F-0.625
S'light'
p297
tp298
a(I185
I0
I0
S'february'
p299
tp300
a(I191
I21
F0.625
S'correct'
p301
tp302
a(I197
I3
F-0.5
S'less'
p303
tp304
a(I277
I0
F-0.875
g28
tp305
a(I280
I4
F0.875
S'happy'
p306
tp307
a(I280
I23
F0.25
S'original'
p308
tp309
a(I281
I0
F-0.125
S'overall'
p310
tp311
as(S'n'
p312
S'low'
p313
S'light'
p314
tp315
(lp316
(I99
I18
F-0.25
S'low'
p317
tp318
a(I265
I12
F-0.25
S'low'
p319
tp320
as(S'card'
p321
tp322
(lp323
(I38
I5
F0.5
g224
tp324
a(I40
I11
F-0.625
S'bad'
p325
tp326
a(I140
I26
F-0.5
g170
tp327
a(I154
I29
F-0.75
S'damaged'
p328
tp329
a(I234
I5
F-0.25
g230
tp330
a(I257
I14
I0
g138
tp331
as(S'customer'
p332
S'service'
p333
tp334
(lp335
(I16
I8
F-0.875
S'awful'
p336
tp337
a(I40
I25
F1.0
S'best'
p338
tp339
a(I68
I5
F1.0
S'good'
p340
tp341
a(I198
I12
F1.0
S'good'
p342
tp343
as(S'great'
p344
S'battery'
p345
S'life'
p346
tp347
(lp348
(I74
I1
F1.0
S'good'
p349
tp350
a(I77
I2
F1.0
S'good'
p351
tp352
a(I77
I2
I0
S'such'
p353
tp354
a(I120
I1
I0
S'great'
p355
tp356
a(I142
I3
I0
S'great'
p357
tp358
a(I256
I1
I0
S'great'
p359
tp360
a(I257
I14
F0.375
S'extra'
p361
tp362
a(I264
I1
I0
S'big'
p363
tp364
a(I264
I1
F1.0
S'better'
p365
tp366
a(I264
I1
F1.0
S'good'
p367
tp368
a(I280
I11
I0
S'great'
p369
tp370
a(I282
I5
I0
S'great'
p371
tp372
a(I288
I1
I0
S'great'
p373
tp374
as(S'fast'
p375
tp376
(lp377
(I81
I0
I0
S'very'
p378
tp379
a(I81
I0
F-0.25
S'thin'
p380
tp381
as(S'performance'
p382
tp383
(lp384
(I77
I2
I0
S'great'
p385
tp386
a(I103
I0
F1.0
S'good'
p387
tp388
a(I109
I0
I0
S'big'
p389
tp390
a(I114
I8
F0.125
S'solid'
p391
tp392
a(I123
I14
I0
S'such'
p393
tp394
a(I190
I0
F1.0
S'good'
p395
tp396
as(S'problem'
p397
tp398
(lp399
(I18
I2
F0.125
S'first'
p400
tp401
a(I29
I5
F0.5
S'second'
p402
tp403
a(I55
I2
I0
S'same'
p404
tp405
a(I72
I1
F-0.125
S'mine'
p406
tp407
a(I90
I2
F-0.5
S'encounter'
p408
tp409
a(I123
I5
I0
S'only'
p410
tp411
a(I146
I19
I0
S'exact'
p412
tp413
a(I180
I1
F0.625
S'major'
p414
tp415
a(I195
I6
F0.5
S'second'
p416
tp417
a(I198
I1
I0
S'only'
p418
tp419
a(I205
I6
I0
S'cable'
p420
tp421
a(I208
I2
I0
S'same'
p422
tp423
a(I218
I0
I0
S'only'
p424
tp425
as(S'on'
p426
S'blu'
p427
S'life'
p428
tp429
(lp430
(I54
I0
F0.375
g283
tp431
a(I58
I0
F0.125
S'first'
p432
tp433
a(I63
I0
F0.625
g20
tp434
a(I63
I0
I0
g22
tp435
a(I80
I0
I0
g24
tp436
a(I97
I11
I0
g292
tp437
a(I137
I4
F-0.875
g26
tp438
a(I191
I21
F0.625
g301
tp439
a(I277
I0
F-0.875
g28
tp440
a(I280
I4
F0.875
g306
tp441
a(I280
I23
F0.25
g308
tp442
a(I281
I0
F-0.125
g310
tp443
as(S'money'
p444
tp445
(lp446
(I201
I5
F0.375
S'much'
p447
tp448
as(S'micro'
p449
S'sd'
p450
tp451
(lp452
(I48
I3
I0
S'external'
p453
tp454
a(I107
I5
I0
S'external'
p455
tp456
a(I107
I5
F-0.5
S'sure'
p457
tp458
a(I107
I5
F0.375
S'available'
p459
tp460
a(I261
I4
I0
S'optional'
p461
tp462
as(S'case'
p463
S'screen'
p464
S'protector'
p465
tp466
(lp467
(I57
I0
F0.125
g153
tp468
a(I74
I4
F0.125
g155
tp469
a(I120
I0
I0
g269
tp470
a(I139
I2
F0.125
g186
tp471
a(I166
I2
I0
g157
tp472
a(I189
I9
F-0.625
g159
tp473
a(I215
I0
F0.75
g161
tp474
a(I250
I2
F-0.625
g163
tp475
as(S'service'
p476
tp477
(lp478
(I16
I8
F-0.875
g336
tp479
a(I40
I25
F1.0
g338
tp480
a(I40
I31
F-0.5
S'poor'
p481
tp482
a(I67
I0
F-0.625
S'bad'
p483
tp484
a(I67
I0
F0.25
S'professional'
p485
tp486
a(I97
I13
F-0.5
S'poor'
p487
tp488
a(I132
I0
F-0.625
S'unprofessional'
p489
tp490
a(I150
I3
F-0.5
S'international'
p491
tp492
a(I150
I7
F-0.5
S'poor'
p493
tp494
a(I185
I9
I0
S'great'
p495
tp496
a(I198
I12
F1.0
g342
tp497
a(I243
I3
I0
S'great'
p498
tp499
a(I260
I5
I0
S'great'
p500
tp501
a(I286
I19
F0.75
S'due'
p502
tp503
as(S'works'
p504
tp505
(lp506
(I41
I2
I0
S'great'
p507
tp508
a(I81
I8
F1.0
S'good'
p509
tp510
a(I99
I29
I0
S'great'
p511
tp512
a(I107
I1
I0
S'great'
p513
tp514
a(I124
I14
F1.0
S'better'
p515
tp516
a(I130
I0
I0
S'great'
p517
tp518
a(I160
I1
I0
S'great'
p519
tp520
a(I225
I6
I0
S'fast'
p521
tp522
a(I244
I9
F0.25
S'helpful'
p523
tp524
a(I257
I5
I0
S'great'
p525
tp526
as(g264
S'low'
p527
S'price'
p528
tp529
(lp530
(I26
I1
F-0.25
S'low'
p531
tp532
a(I76
I2
I0
S'fast'
p533
tp534
a(I77
I2
F-0.25
S'low'
p535
tp536
a(I77
I7
I0
S'such'
p537
tp538
a(I77
I7
F-0.25
S'low'
p539
tp540
a(I84
I0
F-0.25
S'low'
p541
tp542
a(I84
I0
F-0.25
S'loose'
p543
tp544
a(I98
I0
F-0.25
S'low'
p545
tp546
a(I128
I4
F-0.25
S'low'
p547
tp548
a(I206
I2
F-0.25
S'low'
p549
tp550
a(I269
I5
F-0.25
S'low'
p551
tp552
as(S'dual'
p553
S'sim'
p554
tp555
(lp556
(I154
I9
F-0.625
S'other'
p557
tp558
a(I154
I9
F-0.5
S'regular'
p559
tp560
a(I154
I36
I0
S'active'
p561
tp562
as(S'blu'
p563
S'life'
p564
tp565
(lp566
(I54
I0
F0.375
g283
tp567
a(I58
I0
F0.125
g432
tp568
a(I63
I0
F0.625
g20
tp569
a(I63
I0
I0
g22
tp570
a(I74
I0
F0.375
g287
tp571
a(I80
I0
I0
g24
tp572
a(I95
I29
F0.875
g290
tp573
a(I97
I11
I0
g292
tp574
a(I137
I4
F-0.875
g26
tp575
a(I191
I21
F0.625
g301
tp576
a(I277
I0
F-0.875
g28
tp577
a(I280
I4
F0.875
g306
tp578
a(I280
I23
F0.25
g308
tp579
a(I281
I0
F-0.125
g310
tp580
as(S'product'
p581
tp582
(lp583
(I5
I0
I0
S'great'
p584
tp585
a(I25
I0
I0
S'great'
p586
tp587
a(I150
I0
F0.5
S'reasonable'
p588
tp589
a(I204
I0
I0
S'great'
p590
tp591
a(I213
I3
F1.0
S'good'
p592
tp593
a(I247
I6
I0
S'more'
p594
tp595
a(I256
I1
I0
S'great'
p596
tp597
a(I270
I0
F1.0
S'good'
p598
tp599
a(I285
I6
F0.875
S'important'
p600
tp601
as(g264
S'samsung'
p602
S'galaxy'
p603
tp604
(lp605
(I48
I1
F-0.25
g254
tp606
a(I48
I1
F-0.25
g256
tp607
a(I83
I5
I0
S'third'
p608
tp609
a(I201
I0
F0.375
g260
tp610
a(I201
I0
I0
g262
tp611
as(S'life'
p612
S'play'
p613
tp614
(lp615
(I9
I7
F-0.125
S'overall'
p616
tp617
a(I80
I0
I0
g24
tp618
a(I168
I5
I0
S'great'
p619
tp620
a(I168
I8
F0.125
S'first'
p621
tp622
a(I169
I11
F-0.25
g295
tp623
a(I169
I11
F-0.625
g297
tp624
a(I185
I0
I0
g299
tp625
a(I197
I3
F-0.5
g303
tp626
a(I221
I4
F0.625
S'perfect'
p627
tp628
as(S'months'
p629
tp630
(lp631
(I40
I10
F-0.75
S'short'
p632
tp633
a(I68
I3
I0
S'old'
p634
tp635
a(I97
I3
F0.125
S'last'
p636
tp637
a(I97
I3
I0
S'few'
p638
tp639
a(I162
I0
I0
S'great'
p640
tp641
a(I264
I2
I0
S'few'
p642
tp643
a(I286
I27
F-0.25
S'past'
p644
tp645
as(S'android'
p646
tp647
(lp648
(I15
I0
F0.125
S'first'
p649
tp650
a(I19
I9
F-0.5
S'international'
p651
tp652
a(I21
I2
I0
S'generic'
p653
tp654
a(I88
I0
F1.0
S'good'
p655
tp656
a(I114
I4
F0.375
S'newer'
p657
tp658
a(I160
I3
F0.5
S'reasonable'
p659
tp660
a(I182
I0
F0.25
S'recent'
p661
tp662
a(I182
I5
F-0.375
S'top'
p663
tp664
as(S'sd'
p665
S'card'
p666
S'slot'
p667
tp668
(lp669
(I188
I3
F0.625
S'major'
p670
tp671
as(S'thing'
p672
tp673
(lp674
(I6
I0
F1.0
S'best'
p675
tp676
a(I19
I7
I0
S'more'
p677
tp678
a(I71
I2
F-0.25
S'thin'
p679
tp680
a(I81
I3
F0.125
S'last'
p681
tp682
a(I83
I5
F1.0
S'best'
p683
tp684
a(I99
I13
F0.875
S'important'
p685
tp686
a(I142
I4
I0
S'only'
p687
tp688
a(I148
I3
I0
S'only'
p689
tp690
a(I162
I3
F-0.75
S'little'
p691
tp692
a(I185
I3
F-0.625
S'other'
p693
tp694
a(I186
I1
I0
S'same'
p695
tp696
a(I191
I10
F-0.625
S'bad'
p697
tp698
a(I206
I4
F1.0
S'best'
p699
tp700
a(I209
I2
F0.125
S'last'
p701
tp702
a(I209
I2
F0.875
S'important'
p703
tp704
a(I229
I3
I0
S'only'
p705
tp706
a(I256
I0
I0
S'only'
p707
tp708
as(S'setapn'
p709
S'protocol'
p710
tp711
(lp712
(I223
I2
I0
S'net'
p713
tp714
as(S'data'
p715
tp716
(lp717
(I106
I12
F0.75
S'worth'
p718
tp719
a(I140
I2
I0
S'cable'
p720
tp721
a(I260
I5
I0
S'nationwide'
p722
tp723
a(I286
I19
I0
S'mobile'
p724
tp725
a(I286
I23
I0
S'mobile'
p726
tp727
a(I286
I24
I0
S'mobile'
p728
tp729
as(S'port'
p730
tp731
(lp732
(I37
I1
F-0.625
S'other'
p733
tp734
a(I99
I14
F-0.25
g5
tp735
a(I168
I4
I0
S'auxiliary'
p736
tp737
a(I191
I15
F-0.25
g7
tp738
a(I191
I23
F0.375
g9
tp739
a(I198
I4
F0.125
g11
tp740
a(I208
I3
F-0.25
g13
tp741
as(S'fine'
p742
tp743
(lp744
(I21
I12
I0
S'nike'
p745
tp746
a(I57
I2
I0
S'later'
p747
tp748
a(I258
I0
I0
S'great'
p749
tp750
as(S'micro'
p751
S'sd'
p752
S'card'
p753
tp754
(lp755
(I48
I3
I0
g453
tp756
a(I261
I4
I0
g461
tp757
as(g264
S'dual'
p758
S'sim'
p759
tp760
(lp761
(I154
I9
F-0.625
g557
tp762
a(I154
I9
F-0.5
g559
tp763
a(I154
I36
I0
g561
tp764
as(g264
S'factory'
p765
S'reset'
p766
tp767
(lp768
(I250
I1
F-0.375
S'simple'
p769
tp770
a(I250
I1
I0
S'quick'
p771
tp772
as(S'battery'
p773
S'life'
p774
tp775
(lp776
(I31
I0
I0
S'download'
p777
tp778
a(I48
I7
F-0.5
S'less'
p779
tp780
a(I48
I7
F0.625
S'removable'
p781
tp782
a(I48
I13
F1.0
S'good'
p783
tp784
a(I74
I1
F1.0
g349
tp785
a(I77
I2
F1.0
g351
tp786
a(I77
I2
I0
g353
tp787
a(I82
I4
F1.0
S'best'
p788
tp789
a(I114
I7
F1.0
S'good'
p790
tp791
a(I120
I1
I0
g355
tp792
a(I142
I3
I0
g357
tp793
a(I159
I3
F1.0
S'good'
p794
tp795
a(I175
I0
F1.0
S'good'
p796
tp797
a(I189
I3
F1.0
S'good'
p798
tp799
a(I256
I1
I0
g359
tp800
a(I257
I14
F0.375
g361
tp801
a(I264
I1
I0
g363
tp802
a(I264
I1
F1.0
g365
tp803
a(I264
I1
F1.0
g367
tp804
a(I280
I4
F-0.75
S'short'
p805
tp806
a(I280
I11
I0
g369
tp807
a(I280
I23
F-0.25
S'low'
p808
tp809
a(I282
I5
I0
g371
tp810
a(I288
I1
I0
g373
tp811
as(S'metro'
p812
S'pcs'
p813
tp814
(lp815
(I82
I3
I0
S'great'
p816
tp817
a(I234
I2
F-0.5
S'sure'
p818
tp819
a(I234
I2
F0.375
S'new'
p820
tp821
as(S'company'
p822
tp823
(lp824
(I97
I13
F-0.375
S'small'
p825
tp826
a(I167
I8
F-0.5
S'less'
p827
tp828
a(I185
I9
I0
S'great'
p829
tp830
a(I234
I1
F0.5
S'uncommon'
p831
tp832
a(I248
I0
F-0.625
S'generous'
p833
tp834
a(I265
I3
F-0.75
S'wrong'
p835
tp836
a(I285
I5
F0.375
S'newer'
p837
tp838
a(I285
I6
F0.375
S'new'
p839
tp840
as(S'problems'
p841
tp842
(lp843
(I140
I23
F0.625
S'major'
p844
tp845
a(I195
I3
F0.125
S'first'
p846
tp847
as(S'settings'
p848
tp849
(lp850
(I19
I9
F0.125
S'profile'
p851
tp852
a(I63
I6
F0.625
S'correct'
p853
tp854
a(I63
I6
F0.125
S'adjust'
p855
tp856
a(I140
I12
F0.375
S'worked'
p857
tp858
as(S'back'
p859
tp860
(lp861
(I123
I14
F-0.875
S'hard'
p862
tp863
a(I154
I30
F-0.5
S'less'
p864
tp865
a(I169
I12
F-0.375
S'opaque'
p866
tp867
a(I169
I12
F0.125
S'protective'
p868
tp869
a(I198
I12
I0
S'fourth'
p870
tp871
as(g264
S'certain'
p872
S'way'
p873
tp874
(lp875
(I16
I3
F-0.5
S'certain'
p876
tp877
a(I124
I20
F-0.5
S'certain'
p878
tp879
a(I141
I4
F-0.5
S'certain'
p880
tp881
a(I191
I15
F-0.5
S'certain'
p882
tp883
a(I191
I25
F-0.5
S'certain'
p884
tp885
as(S'straight'
p886
S'talk'
p887
tp888
(lp889
(I0
I1
F0.625
S'straight'
p890
tp891
a(I95
I11
F0.625
S'straight'
p892
tp893
a(I95
I30
I0
S'current'
p894
tp895
a(I191
I18
F0.625
S'straight'
p896
tp897
a(I191
I19
F0.625
S'straight'
p898
tp899
a(I191
I22
F0.625
S'straight'
p900
tp901
a(I194
I1
F0.625
S'straight'
p902
tp903
a(I194
I3
F0.625
S'straight'
p904
tp905
a(I204
I2
F0.625
S'straight'
p906
tp907
as(S'speed'
p908
tp909
(lp910
(I2
I5
F-0.25
S'higher'
p911
tp912
a(I64
I1
I0
S'same'
p913
tp914
a(I84
I2
F0.875
S'happy'
p915
tp916
a(I135
I3
I0
S'most'
p917
tp918
a(I135
I3
F0.625
S'wanted'
p919
tp920
a(I245
I2
I0
S'full'
p921
tp922
a(I266
I7
I0
S'high'
p923
tp924
a(I286
I17
F0.125
S'theoretical'
p925
tp926
a(I286
I20
I0
S'same'
p927
tp928
as(S'life'
p929
tp930
(lp931
(I9
I7
F-0.125
g616
tp932
a(I43
I1
I0
S'real'
p933
tp934
a(I48
I7
F-0.5
g779
tp935
a(I58
I0
F0.125
g432
tp936
a(I77
I2
I0
g353
tp937
a(I80
I0
I0
g24
tp938
a(I82
I4
F1.0
g788
tp939
a(I97
I12
I0
S'hear'
p940
tp941
a(I114
I7
F1.0
g790
tp942
a(I120
I1
I0
g355
tp943
a(I125
I10
I0
S'great'
p944
tp945
a(I142
I3
I0
g357
tp946
a(I159
I3
F1.0
g794
tp947
a(I171
I1
F0.25
S'responsive'
p948
tp949
a(I189
I3
F1.0
g798
tp950
a(I280
I25
F0.375
S'new'
p951
tp952
a(I280
I25
I0
S'real'
p953
tp954
a(I282
I5
I0
g371
tp955
as(S'voice'
p956
S'mail'
p957
tp958
(lp959
(I140
I16
F0.5
S'personal'
p960
tp961
as(S'third'
p962
S'party'
p963
tp964
(lp965
(I123
I9
I0
S'third'
p966
tp967
a(I233
I3
I0
S'third'
p968
tp969
a(I245
I10
I0
S'third'
p970
tp971
as(S'good'
p972
S'battery'
p973
S'life'
p974
tp975
(lp976
(I31
I0
I0
g777
tp977
a(I48
I7
F-0.5
g779
tp978
a(I48
I7
F0.625
g781
tp979
a(I48
I13
F1.0
g783
tp980
a(I74
I1
F1.0
g349
tp981
a(I77
I2
F1.0
g351
tp982
a(I77
I2
I0
g353
tp983
a(I114
I7
F1.0
g790
tp984
a(I159
I3
F1.0
g794
tp985
a(I175
I0
F1.0
g796
tp986
a(I189
I3
F1.0
g798
tp987
a(I256
I1
I0
g359
tp988
a(I264
I1
I0
g363
tp989
a(I264
I1
F1.0
g365
tp990
a(I264
I1
F1.0
g367
tp991
as(S'protector'
p992
tp993
(lp994
(I120
I0
I0
g269
tp995
as(S'battery'
p996
tp997
(lp998
(I26
I8
I0
S'different'
p999
tp1000
a(I31
I0
I0
g777
tp1001
a(I42
I0
F-0.25
S'low'
p1002
tp1003
a(I48
I7
F0.625
g781
tp1004
a(I48
I13
F1.0
g783
tp1005
a(I57
I7
F-0.375
S'daily'
p1006
tp1007
a(I74
I1
F1.0
g349
tp1008
a(I77
I2
F1.0
g351
tp1009
a(I110
I0
I0
S'great'
p1010
tp1011
a(I125
I9
I0
S'big'
p1012
tp1013
a(I174
I1
F0.125
S'last'
p1014
tp1015
a(I175
I0
F1.0
g796
tp1016
a(I232
I4
F0.125
S'last'
p1017
tp1018
a(I256
I1
I0
g359
tp1019
a(I257
I14
F0.375
g361
tp1020
a(I264
I1
I0
g363
tp1021
a(I264
I1
F1.0
g365
tp1022
a(I264
I1
F1.0
g367
tp1023
a(I280
I4
F-0.75
g805
tp1024
a(I280
I11
I0
g369
tp1025
a(I280
I23
F-0.25
g808
tp1026
a(I280
I28
F0.375
S'new'
p1027
tp1028
a(I287
I1
F0.375
S'new'
p1029
tp1030
a(I288
I1
I0
g373
tp1031
as(S'samsung'
p1032
S'galaxy'
p1033
tp1034
(lp1035
(I48
I1
F-0.25
g254
tp1036
a(I48
I1
F-0.25
g256
tp1037
a(I83
I5
I0
g608
tp1038
a(I201
I0
F0.375
g260
tp1039
a(I201
I0
I0
g262
tp1040
as(S'looking'
p1041
tp1042
(lp1043
(I96
I1
F0.875
S'happy'
p1044
tp1045
a(I96
I1
F0.875
S'nice'
p1046
tp1047
a(I122
I2
I0
S'great'
p1048
tp1049
as(S'micro'
p1050
tp1051
(lp1052
(I48
I3
I0
g453
tp1053
a(I99
I30
I0
S'old'
p1054
tp1055
a(I107
I5
I0
g455
tp1056
a(I158
I2
F-0.625
S'free'
p1057
tp1058
a(I174
I2
I0
S'outpoint'
p1059
tp1060
a(I261
I4
I0
g461
tp1061
a(I264
I1
F0.5
S'primary'
p1062
tp1063
as(S'play'
p1064
tp1065
(lp1066
(I168
I5
I0
g619
tp1067
a(I168
I8
F0.125
g621
tp1068
a(I169
I11
F-0.25
g295
tp1069
a(I169
I11
F-0.625
g297
tp1070
a(I185
I0
I0
g299
tp1071
a(I197
I3
F-0.5
g303
tp1072
a(I221
I4
F0.625
g627
tp1073
as(S'update'
p1074
tp1075
(lp1076
(I44
I0
I0
S'quick'
p1077
tp1078
a(I140
I16
F0.125
S'last'
p1079
tp1080
as(S'pretty'
p1081
tp1082
(lp1083
(I125
I14
F1.0
S'good'
p1084
tp1085
a(I125
I14
F1.0
S'good'
p1086
tp1087
as(S'battery'
p1088
S'life'
p1089
S'great'
p1090
tp1091
(lp1092
(I74
I1
F1.0
g349
tp1093
a(I77
I2
F1.0
g351
tp1094
a(I77
I2
I0
g353
tp1095
a(I120
I1
I0
g355
tp1096
a(I142
I3
I0
g357
tp1097
a(I256
I1
I0
g359
tp1098
a(I257
I14
F0.375
g361
tp1099
a(I264
I1
I0
g363
tp1100
a(I264
I1
F1.0
g365
tp1101
a(I264
I1
F1.0
g367
tp1102
a(I280
I11
I0
g369
tp1103
a(I282
I5
I0
g371
tp1104
a(I288
I1
I0
g373
tp1105
as(S'time'
p1106
tp1107
(lp1108
(I11
I3
I0
S'same'
p1109
tp1110
a(I11
I3
I0
S'great'
p1111
tp1112
a(I21
I14
F-0.625
S'other'
p1113
tp1114
a(I21
I19
I0
S'more'
p1115
tp1116
a(I28
I0
I0
S'same'
p1117
tp1118
a(I28
I1
F0.75
S'due'
p1119
tp1120
a(I57
I5
I0
S'most'
p1121
tp1122
a(I77
I5
F-0.375
S'bumped'
p1123
tp1124
a(I92
I3
I0
S'same'
p1125
tp1126
a(I106
I5
I0
S'same'
p1127
tp1128
a(I146
I11
F0.125
S'first'
p1129
tp1130
a(I191
I9
F-0.5
S'long'
p1131
tp1132
a(I195
I5
F0.125
S'first'
p1133
tp1134
a(I198
I8
F0.125
S'first'
p1135
tp1136
a(I225
I5
I0
S'same'
p1137
tp1138
a(I226
I0
F-0.5
S'long'
p1139
tp1140
a(I233
I3
I0
S'sensitive'
p1141
tp1142
a(I243
I0
I0
S'most'
p1143
tp1144
a(I247
I7
I0
S'more'
p1145
tp1146
a(I264
I1
F0.125
S'first'
p1147
tp1148
as(S'support'
p1149
tp1150
(lp1151
(I31
I1
F-0.25
S'modern'
p1152
tp1153
a(I31
I1
I0
S'android'
p1154
tp1155
a(I40
I30
F0.25
S'responsive'
p1156
tp1157
a(I97
I14
F0.625
S'successful'
p1158
tp1159
a(I114
I11
F1.0
S'better'
p1160
tp1161
a(I141
I2
F0.875
S'nice'
p1162
tp1163
a(I146
I8
F0.5
S'technical'
p1164
tp1165
a(I146
I26
I0
S'tech'
p1166
tp1167
a(I167
I2
I0
S'tech'
p1168
tp1169
a(I170
I0
F0.5
S'technical'
p1170
tp1171
a(I198
I8
F0.5
S'technical'
p1172
tp1173
a(I269
I4
F0.5
S'technical'
p1174
tp1175
a(I285
I3
F0.5
S'technical'
p1176
tp1177
a(I285
I3
F0.25
S'helpful'
p1178
tp1179
a(I285
I3
F1.0
S'best'
p1180
tp1181
a(I286
I3
I0
S'tech'
p1182
tp1183
as(S'apn'
p1184
S'settings'
p1185
tp1186
(lp1187
(I19
I9
F0.125
g851
tp1188
a(I48
I4
F0.625
S'correct'
p1189
tp1190
a(I63
I6
F0.625
g853
tp1191
a(I63
I6
F0.125
g855
tp1192
a(I95
I31
F0.375
S'new'
p1193
tp1194
a(I191
I20
I0
S'old'
p1195
tp1196
as(S'headphones'
p1197
tp1198
(lp1199
(I95
I24
F1.0
S'good'
p1200
tp1201
a(I111
I4
F-0.75
S'uncomfortable'
p1202
tp1203
a(I143
I0
I0
S'great'
p1204
tp1205
a(I173
I4
F0.125
S'pair'
p1206
tp1207
a(I184
I0
F-0.625
S'other'
p1208
tp1209
a(I216
I4
F0.5
S'clear'
p1210
tp1211
a(I216
I5
F-0.625
S'other'
p1212
tp1213
as(S'storage'
p1214
tp1215
(lp1216
(I2
I5
F0.375
S'extra'
p1217
tp1218
a(I48
I3
I0
S'internal'
p1219
tp1220
a(I48
I3
F0.625
S'accessible'
p1221
tp1222
a(I51
I1
I0
S'more'
p1223
tp1224
a(I51
I1
I0
S'internal'
p1225
tp1226
a(I87
I3
F-0.25
S'low'
p1227
tp1228
a(I95
I6
I0
S'internal'
p1229
tp1230
a(I95
I24
I0
S'internal'
p1231
tp1232
a(I128
I1
I0
S'more'
p1233
tp1234
a(I128
I1
I0
S'adequate'
p1235
tp1236
a(I135
I5
I0
S'great'
p1237
tp1238
a(I140
I18
F-0.375
S'small'
p1239
tp1240
a(I154
I13
I0
S'user'
p1241
tp1242
a(I154
I13
F0.625
S'accessible'
p1243
tp1244
a(I195
I2
F-0.375
S'small'
p1245
tp1246
a(I195
I2
I0
S'internal'
p1247
tp1248
a(I236
I14
F-0.25
S'low'
p1249
tp1250
a(I236
I14
I0
S'internal'
p1251
tp1252
a(I261
I4
I0
S'more'
p1253
tp1254
a(I271
I7
F0.25
S'main'
p1255
tp1256
a(I277
I2
F0.125
S'plenty'
p1257
tp1258
a(I281
I1
I0
S'internal'
p1259
tp1260
a(I281
I1
F-0.375
S'small'
p1261
tp1262
as(S'working'
p1263
tp1264
(lp1265
(I172
I3
F1.0
S'good'
p1266
tp1267
as(S'ear'
p1268
S'buds'
p1269
tp1270
(lp1271
(I80
I0
F0.75
S'ear'
p1272
tp1273
a(I80
I0
F-0.375
S'double'
p1274
tp1275
a(I80
I0
F0.75
S'ear'
p1276
tp1277
a(I265
I4
F0.75
S'ear'
p1278
tp1279
as(S'viewing'
p1280
S'angles'
p1281
tp1282
(lp1283
(I70
I1
F0.125
S'able'
p1284
tp1285
a(I154
I1
I0
S'great'
p1286
tp1287
as(S'charging'
p1288
tp1289
(lp1290
(I191
I25
F0.25
S'original'
p1291
tp1292
a(I241
I4
I0
S'same'
p1293
tp1294
as(S'screen'
p1295
tp1296
(lp1297
(I7
I1
I0
S'plastic'
p1298
tp1299
a(I16
I1
I0
g149
tp1300
a(I16
I1
F0.625
g151
tp1301
a(I21
I10
F0.25
S'bigger'
p1302
tp1303
a(I21
I20
I0
S'big'
p1304
tp1305
a(I63
I4
F0.75
S'beautiful'
p1306
tp1307
a(I70
I0
F-0.75
S'bright'
p1308
tp1309
a(I70
I1
I0
S'great'
p1310
tp1311
a(I70
I2
F0.25
S'larger'
p1312
tp1313
a(I78
I1
F-0.375
S'black'
p1314
tp1315
a(I81
I0
I0
S'big'
p1316
tp1317
a(I86
I1
F1.0
S'good'
p1318
tp1319
a(I86
I1
I0
S'great'
p1320
tp1321
a(I86
I1
F0.25
S'responsive'
p1322
tp1323
a(I87
I2
F0.875
S'nice'
p1324
tp1325
a(I106
I4
F0.75
S'beautiful'
p1326
tp1327
a(I106
I4
F-0.25
S'thin'
p1328
tp1329
a(I124
I17
F1.0
S'good'
p1330
tp1331
a(I125
I7
F0.125
S'first'
p1332
tp1333
a(I125
I7
F-0.625
S'light'
p1334
tp1335
a(I139
I1
F0.75
S'beautiful'
p1336
tp1337
a(I141
I2
I0
S'large'
p1338
tp1339
a(I142
I0
I0
S'great'
p1340
tp1341
a(I154
I21
I0
S'big'
p1342
tp1343
a(I154
I28
F-0.5
S'longer'
p1344
tp1345
a(I154
I36
F0.375
g271
tp1346
a(I161
I2
F-0.75
S'bright'
p1347
tp1348
a(I162
I11
F0.5
S'touch'
p1349
tp1350
a(I168
I1
I0
S'great'
p1351
tp1352
a(I168
I11
F0.25
S'bigger'
p1353
tp1354
a(I174
I0
F0.5
S'clear'
p1355
tp1356
a(I188
I0
I0
S'large'
p1357
tp1358
a(I188
I0
F0.125
S'impressive'
p1359
tp1360
a(I189
I1
F0.75
S'beautiful'
p1361
tp1362
a(I190
I1
I0
S'big'
p1363
tp1364
a(I191
I7
F0.5
S'touch'
p1365
tp1366
a(I206
I3
I0
S'great'
p1367
tp1368
a(I213
I1
F0.875
S'nice'
p1369
tp1370
a(I215
I0
F0.75
g161
tp1371
a(I219
I2
I0
S'great'
p1372
tp1373
a(I230
I1
F-0.625
S'light'
p1374
tp1375
a(I230
I1
F-0.25
S'thin'
p1376
tp1377
a(I233
I4
F0.125
g274
tp1378
a(I236
I6
I0
S'great'
p1379
tp1380
a(I236
I11
F-0.5
S'less'
p1381
tp1382
a(I246
I0
F0.625
S'perfect'
p1383
tp1384
a(I247
I1
F-0.375
S'black'
p1385
tp1386
a(I253
I2
F-0.75
S'bright'
p1387
tp1388
a(I258
I0
F0.875
g276
tp1389
a(I262
I0
I0
S'great'
p1390
tp1391
a(I271
I1
F-0.625
S'glorious'
p1392
tp1393
a(I280
I9
F0.125
S'visible'
p1394
tp1395
a(I280
I11
F0.875
S'happy'
p1396
tp1397
a(I280
I27
F-0.5
S'replaced'
p1398
tp1399
a(I282
I6
F-0.375
S'small'
p1400
tp1401
a(I284
I0
I0
S'big'
p1402
tp1403
a(I288
I1
F0.25
S'responsive'
p1404
tp1405
as(S'light'
p1406
tp1407
(lp1408
(I99
I18
F-0.25
g317
tp1409
a(I188
I8
F-0.5
S'poor'
p1410
tp1411
a(I265
I12
F-0.25
g319
tp1412
a(I266
I8
F-0.125
S'super'
p1413
tp1414
as(S'everything'
p1415
tp1416
(lp1417
(I95
I4
I0
S'more'
p1418
tp1419
a(I194
I0
I0
S'more'
p1420
tp1421
a(I222
I0
I0
S'more'
p1422
tp1423
as(S'samsung'
p1424
tp1425
(lp1426
(I48
I1
F-0.25
g254
tp1427
a(I48
I1
F-0.25
g256
tp1428
a(I80
I0
I0
S'old'
p1429
tp1430
a(I195
I0
F0.5
S'comparable'
p1431
tp1432
a(I196
I5
I0
S'older'
p1433
tp1434
a(I234
I10
F1.0
S'good'
p1435
tp1436
a(I234
I10
F1.0
S'better'
p1437
tp1438
as(S'camera'
p1439
tp1440
(lp1441
(I9
I5
F1.0
S'good'
p1442
tp1443
a(I9
I5
I0
S'great'
p1444
tp1445
a(I31
I1
I0
S'most'
p1446
tp1447
a(I41
I2
F1.0
S'good'
p1448
tp1449
a(I41
I2
I0
S'great'
p1450
tp1451
a(I41
I2
F1.0
S'good'
p1452
tp1453
a(I63
I3
I0
S'great'
p1454
tp1455
a(I66
I0
F1.0
S'good'
p1456
tp1457
a(I77
I2
F1.0
S'good'
p1458
tp1459
a(I90
I2
F0.25
S'suppose'
p1460
tp1461
a(I95
I24
F-0.25
S'low'
p1462
tp1463
a(I95
I24
F-0.625
S'light'
p1464
tp1465
a(I99
I16
F1.0
S'good'
p1466
tp1467
a(I115
I0
I0
S'great'
p1468
tp1469
a(I123
I4
F1.0
S'good'
p1470
tp1471
a(I154
I21
F1.0
S'good'
p1472
tp1473
a(I154
I23
I0
S'great'
p1474
tp1475
a(I162
I12
I0
S'great'
p1476
tp1477
a(I207
I4
I0
S'great'
p1478
tp1479
a(I232
I3
F1.0
S'best'
p1480
tp1481
a(I265
I12
F1.0
S'good'
p1482
tp1483
a(I265
I13
F-0.75
S'sufficient'
p1484
tp1485
a(I266
I5
F1.0
S'good'
p1486
tp1487
a(I267
I7
I0
S'cool'
p1488
tp1489
as(S'gb'
p1490
S'sd'
p1491
S'card'
p1492
tp1493
(lp1494
(I51
I6
I0
S'internal'
p1495
tp1496
a(I259
I3
I0
S'adequate'
p1497
tp1498
as(S'mobile'
p1499
tp1500
(lp1501
(I51
I1
F-0.5
S'wished'
p1502
tp1503
a(I64
I2
F-0.375
S'smooth'
p1504
tp1505
a(I95
I24
I0
S'general'
p1506
tp1507
a(I97
I1
I0
S'general'
p1508
tp1509
as(S'galaxy'
p1510
tp1511
(lp1512
(I6
I1
F-0.125
S'slow'
p1513
tp1514
a(I83
I5
I0
g608
tp1515
a(I99
I20
F0.375
S'louder'
p1516
tp1517
a(I162
I1
F1.0
S'good'
p1518
tp1519
a(I162
I1
F1.0
S'better'
p1520
tp1521
a(I179
I1
I0
S'fast'
p1522
tp1523
a(I201
I0
F0.375
g260
tp1524
a(I201
I0
I0
g262
tp1525
a(I225
I1
I0
S'slower'
p1526
tp1527
as(S'and'
p1528
S'screen'
p1529
S'protector'
p1530
tp1531
(lp1532
(I120
I0
I0
g269
tp1533
a(I154
I36
F0.375
g271
tp1534
a(I215
I0
F0.75
g161
tp1535
a(I258
I0
F0.875
g276
tp1536
as(S'factory'
p1537
S'reset'
p1538
tp1539
(lp1540
(I250
I1
F-0.375
g769
tp1541
a(I250
I1
I0
g771
tp1542
as(S'galaxy'
p1543
S's4'
p1544
tp1545
(lp1546
(I107
I0
I0
g258
tp1547
a(I201
I0
F0.375
g260
tp1548
a(I201
I0
I0
g262
tp1549
as(S'think'
p1550
tp1551
(lp1552
(I80
I0
F0.125
S'first'
p1553
tp1554
as(g264
S'great'
p1555
S'price'
p1556
tp1557
(lp1558
(I57
I0
F0.5
S'reasonable'
p1559
tp1560
a(I62
I0
I0
S'great'
p1561
tp1562
a(I77
I2
F-0.25
g535
tp1563
a(I84
I0
F-0.25
g541
tp1564
a(I84
I0
F-0.25
g543
tp1565
a(I98
I0
F-0.25
g545
tp1566
a(I101
I1
I0
S'great'
p1567
tp1568
a(I123
I14
I0
S'great'
p1569
tp1570
a(I160
I0
I0
S'great'
p1571
tp1572
a(I215
I0
I0
S'great'
p1573
tp1574
a(I228
I0
I0
S'great'
p1575
tp1576
a(I252
I1
I0
S'great'
p1577
tp1578
a(I265
I1
I0
S'great'
p1579
tp1580
a(I266
I0
I0
S'great'
p1581
tp1582
as(S'better'
p1583
tp1584
(lp1585
(I90
I2
F0.375
S'much'
p1586
tp1587
a(I99
I18
F-0.25
S'low'
p1588
tp1589
a(I99
I18
F-0.125
S'overall'
p1590
tp1591
as(S'screen'
p1592
S'protector'
p1593
tp1594
(lp1595
(I120
I0
I0
g269
tp1596
a(I154
I36
F0.375
g271
tp1597
a(I215
I0
F0.75
g161
tp1598
a(I233
I4
F0.125
g274
tp1599
a(I258
I0
F0.875
g276
tp1600
as(S'device'
p1601
tp1602
(lp1603
(I1
I0
F-0.25
S'low'
p1604
tp1605
a(I31
I3
I0
S'great'
p1606
tp1607
a(I31
I3
F0.25
S'responsive'
p1608
tp1609
a(I48
I12
F0.5
S'accurate'
p1610
tp1611
a(I48
I13
I0
S'fastest'
p1612
tp1613
a(I48
I13
F-0.375
S'smoothest'
p1614
tp1615
a(I48
I13
F0.875
S'happy'
p1616
tp1617
a(I80
I2
F0.875
S'nice'
p1618
tp1619
a(I80
I2
F0.5
S'comparable'
p1620
tp1621
a(I80
I3
F0.5
S'stylish'
p1622
tp1623
a(I223
I3
I0
S'great'
p1624
tp1625
a(I253
I3
F-0.375
S'double'
p1626
tp1627
a(I257
I1
F1.0
S'good'
p1628
tp1629
a(I257
I1
F0.125
S'far'
p1630
tp1631
as(S'call'
p1632
tp1633
(lp1634
(I48
I12
F0.125
S'first'
p1635
tp1636
a(I244
I8
F0.625
S'hold'
p1637
tp1638
as(S'price'
p1639
tp1640
(lp1641
(I26
I1
F-0.25
g531
tp1642
a(I49
I3
F0.25
S'sweet'
p1643
tp1644
a(I56
I1
F1.0
S'best'
p1645
tp1646
a(I56
I1
I0
S'android'
p1647
tp1648
a(I56
I1
F-0.125
S'bean'
p1649
tp1650
a(I57
I0
F0.5
g1559
tp1651
a(I62
I0
I0
g1561
tp1652
a(I64
I0
I0
S'high'
p1653
tp1654
a(I67
I0
I0
S'full'
p1655
tp1656
a(I76
I2
I0
g533
tp1657
a(I77
I2
F-0.25
g535
tp1658
a(I77
I7
I0
g537
tp1659
a(I77
I7
F-0.25
g539
tp1660
a(I84
I0
F-0.25
g541
tp1661
a(I84
I0
F-0.25
g543
tp1662
a(I98
I0
F-0.25
g545
tp1663
a(I101
I1
I0
g1567
tp1664
a(I108
I1
F0.625
S'accessible'
p1665
tp1666
a(I117
I3
F1.0
S'good'
p1667
tp1668
a(I123
I14
I0
g1569
tp1669
a(I128
I4
F-0.25
g547
tp1670
a(I138
I1
F1.0
S'good'
p1671
tp1672
a(I160
I0
I0
g1571
tp1673
a(I191
I22
F-0.25
S'modern'
p1674
tp1675
a(I206
I2
F-0.25
g549
tp1676
a(I215
I0
I0
g1573
tp1677
a(I228
I0
I0
g1575
tp1678
a(I230
I3
I0
S'noisy'
p1679
tp1680
a(I230
I3
I0
S'adequate'
p1681
tp1682
a(I232
I5
F1.0
S'best'
p1683
tp1684
a(I233
I2
F0.5
S'comparable'
p1685
tp1686
a(I252
I1
I0
g1577
tp1687
a(I265
I1
I0
g1579
tp1688
a(I266
I0
I0
g1581
tp1689
a(I269
I5
F-0.25
g551
tp1690
as(S'galaxy'
p1691
S's3'
p1692
tp1693
(lp1694
(I162
I1
F1.0
g1518
tp1695
a(I162
I1
F1.0
g1520
tp1696
a(I179
I1
I0
g1522
tp1697
a(I201
I0
F0.375
g260
tp1698
a(I201
I0
I0
g262
tp1699
as(S'charger'
p1700
tp1701
(lp1702
(I66
I2
F-0.375
S'top'
p1703
tp1704
a(I82
I7
F0.25
S'original'
p1705
tp1706
a(I90
I2
I0
S'same'
p1707
tp1708
a(I140
I2
F0.125
S'usual'
p1709
tp1710
a(I191
I15
F0.25
S'original'
p1711
tp1712
a(I191
I16
F0.25
S'original'
p1713
tp1714
a(I191
I17
F0.25
S'original'
p1715
tp1716
a(I191
I26
I0
S'different'
p1717
tp1718
a(I198
I4
F-0.375
S'top'
p1719
tp1720
a(I198
I4
F1.0
S'good'
p1721
tp1722
as(S'blu'
p1723
S'products'
p1724
tp1725
(lp1726
(I18
I5
F0.375
S'audible'
p1727
tp1728
a(I124
I7
I0
S'next'
p1729
tp1730
a(I280
I4
F0.875
g306
tp1731
as(S't'
p1732
S'mobile'
p1733
S'sim'
p1734
tp1735
(lp1736
(I15
I3
F-0.5
S'regular'
p1737
tp1738
a(I158
I2
I0
S'standard'
p1739
tp1740
as(S'cell'
p1741
tp1742
(lp1743
(I38
I0
I0
S'real'
p1744
tp1745
a(I38
I0
I0
S'particular'
p1746
tp1747
a(I40
I6
F0.625
S'aware'
p1748
tp1749
a(I51
I15
F1.0
S'good'
p1750
tp1751
a(I82
I3
F0.625
S'fair'
p1752
tp1753
a(I87
I0
F0.125
S'typical'
p1754
tp1755
a(I182
I3
F-0.75
S'stupid'
p1756
tp1757
a(I189
I7
F-0.375
S'nearest'
p1758
tp1759
a(I230
I0
F1.0
S'good'
p1760
tp1761
a(I246
I0
F1.0
S'best'
p1762
tp1763
a(I258
I0
F-0.75
S'dead'
p1764
tp1765
a(I263
I0
I0
S'real'
p1766
tp1767
a(I263
I0
I0
S'active'
p1768
tp1769
a(I263
I5
F0.25
S'unlocked'
p1770
tp1771
as(S'apps'
p1772
tp1773
(lp1774
(I21
I5
I0
S'serviceable'
p1775
tp1776
a(I29
I2
F-0.5
S'regular'
p1777
tp1778
a(I99
I21
F-0.25
S'order'
p1779
tp1780
a(I99
I32
I0
S'most'
p1781
tp1782
a(I99
I32
F0.875
S'important'
p1783
tp1784
a(I140
I18
I0
S'many'
p1785
tp1786
a(I140
I27
F-0.625
S'other'
p1787
tp1788
a(I144
I0
F-0.625
S'other'
p1789
tp1790
a(I146
I20
F0.75
S'worth'
p1791
tp1792
a(I159
I4
I0
S'great'
p1793
tp1794
a(I185
I3
F0.375
S'much'
p1795
tp1796
a(I223
I3
F-0.625
S'other'
p1797
tp1798
a(I233
I3
F0.125
S'native'
p1799
tp1800
a(I233
I3
F-0.75
S'likely'
p1801
tp1802
a(I233
I3
F0.75
S'due'
p1803
tp1804
a(I277
I1
I0
S'more'
p1805
tp1806
a(I286
I9
I0
S'more'
p1807
tp1808
as(S'days'
p1809
tp1810
(lp1811
(I99
I6
I0
S'few'
p1812
tp1813
a(I140
I0
I0
S'few'
p1814
tp1815
a(I147
I1
F-0.25
S'late'
p1816
tp1817
a(I172
I0
I0
S'great'
p1818
tp1819
a(I183
I1
I0
S'few'
p1820
tp1821
a(I191
I24
I0
S'more'
p1822
tp1823
a(I232
I4
F-0.625
S'light'
p1824
tp1825
a(I271
I0
I0
S'few'
p1826
tp1827
as.