(dp0
(S'text'
p1
S'message'
p2
tp3
(lp4
(I2
I43
F-0.25
S'lower'
p5
I0
tp6
a(I15
I0
F-0.5
S'sure'
p7
I0
tp8
a(I2
I43
F-0.25
g5
I18
tp9
a(I8
I1
F-0.5
S'call'
p10
I18
tp11
as(S'assurance'
p12
S'wireless'
p13
tp14
(lp15
(I13
I7
F-0.625
S'free'
p16
I0
tp17
a(I16
I1
F-0.625
S'free'
p18
I0
tp19
a(I13
I7
F-0.625
g16
I0
tp20
a(I16
I1
F-0.625
g18
I0
tp21
as(S'reception'
p22
tp23
(lp24
(I0
I0
F-0.5
S'poor'
p25
I0
tp26
a(I0
I14
F-0.625
S'bad'
p27
I0
tp28
a(I0
I22
I0
S'normal'
p29
I0
tp30
a(I2
I19
F1.0
S'good'
p31
I0
tp32
a(I2
I22
F-0.5
S'poor'
p33
I0
tp34
a(I20
I26
F-0.625
S'bad'
p35
I0
tp36
as(S'calls'
p37
tp38
(lp39
(I2
I21
I0
S'few'
p40
I0
tp41
a(I2
I21
F0.75
S'due'
p42
I0
tp43
a(I2
I71
F0.375
S'loud'
p44
I0
tp45
a(I5
I4
I0
S'great'
p46
I0
tp47
a(I12
I10
I0
S'many'
p48
I0
tp49
a(I16
I1
F0.5
S'clearer'
p50
I0
tp51
as(S'kyocera'
p52
tp53
(lp54
(I0
I20
I-100
S'sheeesh'
p55
I0
tp56
a(I2
I48
I0
S'basic'
p57
I0
tp58
a(I2
I48
F-0.375
S'smaller'
p59
I0
tp60
as(S'keys'
p61
tp62
(lp63
(I1
I16
I0
S'large'
p64
I9
tp65
a(I1
I16
F0.625
S'easy'
p66
I9
tp67
a(I5
I12
I0
S'large'
p68
I9
tp69
a(I7
I0
I0
S'big'
p70
I9
tp71
a(I9
I8
F0.25
S'larger'
p72
I9
tp73
a(I12
I8
F-0.375
S'small'
p74
I9
tp75
a(I20
I7
I0
S'large'
p76
I9
tp77
as(S'buttons'
p78
tp79
(lp80
(I0
I63
I0
S'big'
p81
I13
tp82
a(I0
I90
I0
S'large'
p83
I13
tp84
a(I1
I1
F0.25
S'larger'
p85
I13
tp86
a(I8
I2
I0
S'big'
p87
I13
tp88
a(I8
I2
F1.0
S'best'
p89
I13
tp90
a(I13
I15
F0.625
S'easy'
p91
I13
tp92
a(I13
I18
F-0.375
S'small'
p93
I13
tp94
a(I15
I0
F0.25
S'bigger'
p95
I13
tp96
a(I16
I8
I0
S'large'
p97
I13
tp98
as(S'service'
p99
tp100
(lp101
(I0
I25
F1.0
S'good'
p102
I16
tp103
a(I2
I11
F1.0
S'good'
p104
I16
tp105
a(I6
I2
F1.0
S'good'
p106
I16
tp107
a(I6
I14
I0
S'great'
p108
I16
tp109
a(I8
I1
I0
S'great'
p110
I16
tp111
a(I13
I27
F-0.875
S'worst'
p112
I16
tp113
as(S'virgin'
p114
tp115
(lp116
(I0
I9
F-0.625
S'other'
p117
I0
tp118
a(I0
I13
F-0.625
S'other'
p119
I0
tp120
a(I0
I13
I0
S'normal'
p121
I0
tp122
a(I1
I15
I0
S'fast'
p123
I0
tp124
a(I1
I15
F0.625
S'easy'
p125
I0
tp126
a(I16
I11
I0
S'old'
p127
I0
tp128
as(S'flip'
p129
tp130
(lp131
(I0
I38
F0.125
S'last'
p132
I4
tp133
a(I0
I49
F0.875
S'nice'
p134
I4
tp135
a(I0
I59
F0.625
S'easy'
p136
I4
tp137
as(S'large'
p138
S'print'
p139
tp140
(lp141
(I5
I14
I0
S'large'
p142
I1
tp143
a(I16
I42
I0
S'large'
p144
I1
tp145
a(I19
I0
I0
S'large'
p146
I1
tp147
as(S'camera'
p148
tp149
(lp150
(I0
I25
F1.0
S'good'
p151
I1
tp152
a(I18
I4
F0.625
S'convenient'
p153
I1
tp154
a(I18
I4
F0.625
S'easy'
p155
I1
tp156
a(I20
I4
F0.625
S'decent'
p157
I1
tp158
as(S'battery'
p159
S'life'
p160
tp161
(lp162
(I0
I81
F1.0
S'good'
p163
I1
tp164
a(I1
I6
F-0.5
S'long'
p165
I1
tp166
a(I1
I6
F-0.5
S'long'
p167
I1
tp168
as.