(dp0
(S'seller'
p1
tp2
(lp3
(I32
I1
F-0.5
S'sure'
p4
I19
tp5
a(I38
I9
F1.0
S'good'
p6
I19
tp7
a(I38
I9
F0.625
S'responsible'
p8
I19
tp9
as(S'battery'
p10
S'life'
p11
tp12
(lp13
(I18
I6
F0.375
S'extended'
p14
I1
tp15
a(I26
I35
F-0.25
S'low'
p16
I1
tp17
a(I34
I22
F-0.75
S'short'
p18
I1
tp19
a(I47
I2
F1.0
S'good'
p20
I1
tp21
a(I50
I5
F0.125
S'last'
p22
I1
tp23
a(I34
I22
F-0.75
g18
I19
tp24
a(I47
I2
F1.0
g20
I19
tp25
a(I50
I5
F0.125
g22
I19
tp26
a(I4
I8
I0
S'old'
p27
I15
tp28
a(I15
I18
F0.625
S'removable'
p29
I15
tp30
a(I18
I6
F0.375
g14
I15
tp31
a(I26
I24
F1.0
S'better'
p32
I15
tp33
a(I26
I35
F-0.25
g16
I15
tp34
a(I29
I8
F0.125
S'able'
p35
I15
tp36
a(I34
I2
F-0.5
S'less'
p37
I15
tp38
a(I46
I0
I0
S'high'
p39
I15
tp40
a(I49
I2
F0.625
S'changeable'
p41
I15
tp42
a(I61
I23
F1.0
S'good'
p43
I15
tp44
a(I62
I5
F-0.75
S'sufficient'
p45
I15
tp46
as(S'power'
p47
S'button'
p48
tp49
(lp50
(I15
I21
I-100
S'hard-to-hit'
p51
I0
tp52
a(I15
I21
F-0.875
S'harder'
p53
I0
tp54
as(S'perfect'
p55
S'size'
p56
tp57
(lp58
(I2
I3
F0.375
S'much'
p59
I2
tp60
a(I23
I42
F0.625
S'perfect'
p61
I2
tp62
a(I41
I7
F0.625
S'perfect'
p63
I2
tp64
a(I50
I41
F0.625
S'perfect'
p65
I2
tp66
as(S'camera'
p67
tp68
(lp69
(I15
I11
F0.5
S'advanced'
p70
I1
tp71
a(I35
I6
F-0.625
S'bad'
p72
I1
tp73
as(S'dual'
p74
S'sim'
p75
tp76
(lp77
(I43
I10
I0
S'third'
p78
I0
tp79
as(S'iphone'
p80
tp81
(lp82
(I9
I7
I0
S'large'
p83
I1
tp84
a(I26
I33
F0.75
S'due'
p85
I1
tp86
a(I41
I4
F0.25
S'used'
p87
I1
tp88
a(I50
I50
F0.5
S'strict'
p89
I1
tp90
a(I50
I53
F1.0
S'better'
p91
I1
tp92
a(I50
I53
F-0.75
S'worse'
p93
I1
tp94
as(S'straight'
p95
S'talk'
p96
tp97
(lp98
(I23
I18
F0.625
S'straight'
p99
I0
tp100
a(I23
I21
F0.625
S'straight'
p101
I0
tp102
a(I52
I4
F0.625
S'straight'
p103
I0
tp104
as(S'internet'
p105
tp106
(lp107
(I9
I21
F-0.125
S'slow'
p108
I6
tp109
a(I26
I6
I-100
S'kn'
p110
I6
tp111
a(I26
I44
F-0.125
S'slow'
p112
I6
tp113
a(I29
I0
F-0.25
S'google'
p114
I6
tp115
a(I41
I40
F0.125
S'colorful'
p116
I6
tp117
a(I50
I65
I0
S'quick'
p118
I6
tp119
as(S'mobile'
p120
tp121
(lp122
(I16
I11
I0
S'local'
p123
I0
tp124
as(S'sim'
p125
S'cards'
p126
tp127
(lp128
(I35
I3
I0
S'great'
p129
I0
tp130
a(I35
I3
I0
g129
I15
tp131
as(S'south'
p132
S'america'
p133
tp134
(lp135
(I26
I37
I0
S'central'
p136
I0
tp137
a(I26
I37
I0
S'central'
p138
I0
tp139
as(S'venezuela'
p140
tp141
(lp142
(I15
I3
F0.5
S'expensive'
p143
I0
tp144
as(S'smart'
p145
tp146
(lp147
(I2
I1
F0.125
S'first'
p148
I10
tp149
a(I43
I1
I0
S'many'
p150
I10
tp151
as(S'samsung'
p152
S'galaxy'
p153
tp154
(lp155
(I58
I0
I0
S'great'
p156
I0
tp157
a(I61
I13
F-0.25
S'lower'
p158
I0
tp159
a(I26
I33
F0.375
S'new'
p160
I7
tp161
a(I33
I0
F0.25
S'original'
p162
I7
tp163
a(I41
I3
F0.125
S'first'
p164
I7
tp165
a(I44
I10
I0
S'latest'
p166
I7
tp167
a(I58
I0
I0
g156
I7
tp168
a(I61
I13
F-0.25
g158
I7
tp169
as(S'sim'
p170
S'card'
p171
tp172
(lp173
(I15
I1
F-0.375
S'smaller'
p174
I0
tp175
a(I15
I1
F0.125
S'usual'
p176
I0
tp177
a(I16
I10
I0
S'local'
p178
I0
tp179
a(I41
I44
F0.375
S'new'
p180
I0
tp181
a(I43
I16
F0.375
S'new'
p182
I0
tp183
a(I62
I14
F0.375
S'new'
p184
I0
tp185
as(S'text'
p186
S'messages'
p187
tp188
(lp189
(I62
I19
I0
S'text'
p190
I0
tp191
as(S'data'
p192
tp193
(lp194
(I28
I3
I0
S'great'
p195
I13
tp196
a(I50
I22
I0
S'mobile'
p197
I13
tp198
as(S'galaxy'
p199
S's4'
p200
S'mini'
p201
tp202
(lp203
(I26
I27
F-0.5
S'regular'
p204
I0
tp205
a(I34
I14
I0
S'full'
p206
I0
tp207
a(I26
I27
F-0.5
g204
I0
tp208
a(I34
I10
F-0.5
S'regular'
p209
I0
tp210
a(I26
I27
F-0.5
g204
I0
tp211
a(I34
I10
F-0.5
g209
I0
tp212
a(I59
I5
F0.375
S'new'
p213
I0
tp214
a(I59
I6
I0
S'old'
p215
I0
tp216
as(S'customer'
p217
S'service'
p218
tp219
(lp220
(I26
I56
F-0.5
S'sure'
p221
I3
tp222
a(I26
I56
I0
S'chinese'
p223
I3
tp224
a(I26
I56
F-0.5
g221
I16
tp225
a(I26
I56
I0
g223
I16
tp226
a(I29
I11
I0
S'different'
p227
I16
tp228
a(I43
I14
I0
S'same'
p229
I16
tp230
a(I43
I15
F0.375
S'new'
p231
I16
tp232
a(I43
I15
F0.125
S'first'
p233
I16
tp234
a(I43
I22
F0.5
S'greater'
p235
I16
tp236
as(S'apps'
p237
tp238
(lp239
(I9
I1
I0
S'many'
p240
I0
tp241
a(I9
I8
F-0.5
S'open'
p242
I0
tp243
a(I9
I8
I0
S'close'
p244
I0
tp245
a(I12
I18
I0
S'such'
p246
I0
tp247
a(I26
I19
I0
S'common'
p248
I0
tp249
a(I34
I1
F-0.5
S'heavy'
p250
I0
tp251
a(I37
I1
F0.625
S'easy'
p252
I0
tp253
a(I37
I1
I0
S'great'
p254
I0
tp255
a(I40
I1
F0.625
S'easy'
p256
I0
tp257
a(I50
I8
I0
S'useful'
p258
I0
tp259
a(I50
I65
F-0.125
S'slow'
p260
I0
tp261
a(I62
I1
I0
S'many'
p262
I0
tp263
a(I62
I1
I0
S'different'
p264
I0
tp265
a(I62
I11
I0
S'great'
p266
I0
tp267
as(S'amazon'
p268
tp269
(lp270
(I26
I51
F0.375
S'prime'
p271
I13
tp272
as.