(dp0
(S'warranty'
p1
tp2
(lp3
(I0
I33
F0.5
S'possible'
p4
I2
tp5
a(I11
I2
F0.625
S'interested'
p6
I2
tp7
as(S'battery'
p8
S'life'
p9
tp10
(lp11
(I3
I41
F1.0
S'good'
p12
I1
tp13
a(I8
I3
F0.125
S'last'
p14
I1
tp15
a(I0
I27
F0.625
S'removable'
p16
I15
tp17
a(I0
I27
I0
S'large'
p18
I15
tp19
a(I3
I11
F0.125
S'able'
p20
I15
tp21
a(I3
I41
F1.0
g12
I15
tp22
a(I9
I2
F-0.25
S'low'
p23
I15
tp24
a(I13
I0
F1.0
S'good'
p25
I15
tp26
a(I13
I0
F-0.125
S'slow'
p27
I15
tp28
a(I14
I7
F1.0
S'good'
p29
I15
tp30
a(I17
I34
F1.0
S'good'
p31
I15
tp32
a(I18
I10
F0.375
S'new'
p33
I15
tp34
as(S'underwater'
p35
tp36
(lp37
(I4
I9
F0.875
S'music'
p38
I0
tp39
a(I4
I9
I0
S'cool'
p40
I0
tp41
as(S'repair'
p42
tp43
(lp44
(I11
I29
F-0.625
S'free'
p45
I4
tp46
as(S'protective'
p47
S'case'
p48
tp49
(lp50
(I5
I9
F0.375
S'confident'
p51
I0
tp52
as(S'camera'
p53
tp54
(lp55
(I7
I49
F1.0
S'good'
p56
I1
tp57
a(I8
I4
F1.0
S'good'
p58
I1
tp59
a(I8
I4
F-0.125
S'overall'
p60
I1
tp61
a(I11
I6
F-0.625
S'brush'
p62
I1
tp63
as(S'water'
p64
S'resistant'
p65
tp66
(lp67
(I7
I71
I0
S'more'
p68
I0
tp69
a(I0
I18
F0.125
S'able'
p70
I6
tp71
a(I6
I8
I0
S'same'
p72
I6
tp73
a(I7
I5
F-0.5
S'longer'
p74
I6
tp75
a(I7
I15
F0.5
S'willing'
p76
I6
tp77
a(I7
I71
I0
g68
I6
tp78
a(I11
I9
F-0.125
S'dive'
p79
I6
tp80
a(I11
I10
F-0.625
S'clean'
p81
I6
tp82
a(I11
I10
F-0.625
S'fresh'
p83
I6
tp84
as(S'samsung'
p85
S'galaxy'
p86
tp87
(lp88
(I0
I0
F0.375
S'new'
p89
I0
tp90
a(I0
I0
F0.375
g89
I7
tp91
a(I0
I22
F-0.625
S'other'
p92
I7
tp93
a(I3
I18
F0.375
S'much'
p94
I7
tp95
a(I7
I56
I-100
S'4come'
p96
I7
tp97
a(I8
I2
I0
S'apple'
p98
I7
tp99
a(I8
I2
F0.375
S'new'
p100
I7
tp101
a(I10
I1
I0
S'old'
p102
I0
tp103
a(I15
I10
F1.0
S'better'
p104
I0
tp105
a(I15
I10
F-0.5
S'regular'
p106
I0
tp107
a(I16
I12
I0
S'standard'
p108
I0
tp109
as(S's4'
p110
S'win'
p111
tp112
(lp113
(I19
I17
I0
S'active'
p114
I0
tp115
as(S'active'
p116
tp117
(lp118
(I0
I1
F0.25
S'bigger'
p119
I9
tp120
a(I7
I16
F1.0
S'best'
p121
I9
tp122
as(S'water'
p123
S'damage'
p124
tp125
(lp126
(I7
I5
F-0.5
g74
I0
tp127
as.