(dp0
(S'virgin'
p1
S'mobile'
p2
tp3
(lp4
(I39
I1
I0
S'mobile'
p5
tp6
a(I139
I0
I0
S'mobile'
p7
tp8
as(S'battery'
p9
S'life'
p10
tp11
(lp12
(I13
I0
F0.625
S'extraordinary'
p13
tp14
a(I34
I6
I0
S'great'
p15
tp16
a(I46
I13
I0
S'great'
p17
tp18
a(I68
I5
F1.0
S'better'
p19
tp20
a(I68
I5
F-0.625
S'bad'
p21
tp22
a(I81
I2
I0
S'great'
p23
tp24
a(I89
I3
F-0.5
S'longer'
p25
tp26
a(I127
I3
F-0.25
S'battery'
p27
tp28
a(I134
I0
I0
S'great'
p29
tp30
as(S'network'
p31
tp32
(lp33
(I39
I19
F-0.5
S'poor'
p34
tp35
a(I52
I5
I0
S'such'
p36
tp37
as(S'galaxy'
p38
tp39
(lp40
(I46
I9
I0
S'few'
p41
tp42
a(I49
I9
F0.375
S'similar'
p43
tp44
as(S'talk'
p45
tp46
(lp47
(I7
I2
I0
S'great'
p48
tp49
a(I7
I2
F0.625
S'straight'
p50
tp51
a(I40
I1
F0.625
S'straight'
p52
tp53
a(I52
I5
F0.625
S'straight'
p54
tp55
a(I53
I0
F0.625
S'straight'
p56
tp57
a(I53
I1
F0.625
S'straight'
p58
tp59
a(I53
I2
F0.625
S'straight'
p60
tp61
a(I53
I2
F0.625
S'straight'
p62
tp63
a(I56
I0
F0.625
S'straight'
p64
tp65
a(I58
I0
F0.625
S'straight'
p66
tp67
a(I58
I3
F0.625
S'straight'
p68
tp69
a(I58
I3
I0
S'activate'
p70
tp71
a(I58
I3
F0.625
S'straight'
p72
tp73
a(I84
I11
F0.625
S'straight'
p74
tp75
a(I110
I2
F0.625
S'straight'
p76
tp77
as(S'text'
p78
tp79
(lp80
(I46
I2
F0.25
S'responsive'
p81
tp82
a(I85
I12
F-0.5
S'regular'
p83
tp84
as(S'galaxy'
p85
S's3'
p86
tp87
(lp88
(I40
I5
I0
S'adequate'
p89
tp90
a(I49
I9
F0.375
g43
tp91
a(I49
I9
F-0.5
S'less'
p92
tp93
a(I106
I1
F0.5
S'comparable'
p94
tp95
a(I107
I2
F-0.375
S'smaller'
p96
tp97
as(S'nice'
p98
tp99
(lp100
(I56
I1
I0
S'big'
p101
tp102
a(I88
I4
F-0.125
S'super'
p103
tp104
as(S'screen'
p105
tp106
(lp107
(I13
I0
I0
S'fast'
p108
tp109
a(I13
I0
F0.75
S'beautiful'
p110
tp111
a(I37
I1
F-0.75
S'difficult'
p112
tp113
a(I37
I7
I0
S'cool'
p114
tp115
a(I37
I7
F0.75
S'beautiful'
p116
tp117
a(I37
I7
F0.625
S'easy'
p118
tp119
a(I39
I12
F0.875
S'nice'
p120
tp121
a(I46
I13
F0.25
S'responsive'
p122
tp123
a(I52
I0
F-0.75
S'short'
p124
tp125
a(I52
I0
I0
S'big'
p126
tp127
a(I52
I4
F-0.25
S'low'
p128
tp129
a(I66
I0
I0
S'same'
p130
tp131
a(I66
I0
F-0.375
S'smaller'
p132
tp133
a(I67
I6
F0.25
S'larger'
p134
tp135
a(I67
I6
F0.625
S'easy'
p136
tp137
a(I69
I0
F0.25
S'responsive'
p138
tp139
a(I72
I0
I0
S'large'
p140
tp141
a(I76
I2
I0
S'large'
p142
tp143
a(I76
I2
F0.875
S'nice'
p144
tp145
a(I77
I30
F0.5
S'touch'
p146
tp147
a(I85
I8
I0
S'big'
p148
tp149
a(I85
I8
I0
S'big'
p150
tp151
a(I86
I2
F0.875
S'nice'
p152
tp153
a(I89
I4
F0.125
S'exist'
p154
tp155
a(I101
I1
F0.25
S'larger'
p156
tp157
a(I117
I3
F0.5
S'clear'
p158
tp159
a(I123
I3
F0.25
S'responsive'
p160
tp161
a(I123
I3
F0.5
S'clear'
p162
tp163
a(I127
I2
F-0.125
S'super'
p164
tp165
a(I128
I3
F0.875
S'nice'
p166
tp167
a(I128
I3
I0
S'large'
p168
tp169
a(I135
I4
F0.5
S'touch'
p170
tp171
a(I138
I3
F0.25
S'responsive'
p172
tp173
a(I146
I0
F0.25
S'larger'
p174
tp175
a(I146
I2
F0.25
S'bigger'
p176
tp177
as(S'call'
p178
S'quality'
p179
tp180
(lp181
(I10
I1
F1.0
S'good'
p182
tp183
a(I86
I5
F1.0
S'good'
p184
tp185
a(I127
I1
F0.125
S'equal'
p186
tp187
as(S'service'
p188
tp189
(lp190
(I8
I2
I0
S'faster'
p191
tp192
a(I8
I2
F0.5
S'clearer'
p193
tp194
a(I8
I2
F1.0
S'better'
p195
tp196
a(I8
I2
F-0.75
S'sick'
p197
tp198
a(I8
I2
I0
S'old'
p199
tp200
a(I34
I8
F0.625
S'easy'
p201
tp202
a(I84
I11
F0.875
S'happier'
p203
tp204
a(I90
I14
F-0.25
S'past'
p205
tp206
a(I120
I0
F-0.875
S'worst'
p207
tp208
as(S'everything'
p209
tp210
(lp211
(I103
I0
F1.0
S'good'
p212
tp213
a(I134
I0
F0.75
S'worth'
p214
tp215
as(S'samsung'
p216
tp217
(lp218
(I2
I5
F-0.625
S'glad'
p219
tp220
a(I37
I8
I0
S'high'
p221
tp222
a(I37
I8
F-0.625
S'other'
p223
tp224
a(I43
I4
I0
S'fast'
p225
tp226
a(I87
I3
I0
S'old'
p227
tp228
a(I129
I8
F0.5
S'clear'
p229
tp230
a(I138
I0
F0.125
S'first'
p231
tp232
a(I143
I0
I0
S'third'
p233
tp234
a(I143
I0
F-0.875
S'worst'
p235
tp236
as(S'first'
p237
S'smart'
p238
tp239
(lp240
(I29
I0
F0.125
S'first'
p241
tp242
a(I75
I1
F0.125
S'first'
p243
tp244
a(I110
I0
F0.125
S'first'
p245
tp246
a(I121
I1
F0.125
S'first'
p247
tp248
a(I121
I6
F0.125
S'first'
p249
tp250
a(I135
I0
F0.125
S'first'
p251
tp252
as(S'touch'
p253
tp254
(lp255
(I61
I2
F0.25
S'responsive'
p256
tp257
as(S'camera'
p258
tp259
(lp260
(I31
I1
I0
S'great'
p261
tp262
a(I34
I10
F1.0
S'good'
p263
tp264
a(I40
I9
F1.0
S'better'
p265
tp266
a(I51
I6
F1.0
S'good'
p267
tp268
a(I61
I8
I0
S'great'
p269
tp270
a(I65
I9
F0.625
S'easy'
p271
tp272
a(I65
I9
I0
S'great'
p273
tp274
a(I70
I4
F-0.625
S'bad'
p275
tp276
a(I87
I1
F0.125
S'able'
p277
tp278
a(I117
I6
F1.0
S'better'
p279
tp280
a(I117
I9
F1.0
S'better'
p281
tp282
as(S'gophone'
p283
tp284
(lp285
(I37
I15
F-0.625
S'other'
p286
tp287
a(I39
I26
F-0.625
S'glad'
p288
tp289
a(I51
I0
F1.0
S'best'
p290
tp291
a(I51
I0
F0.375
S'available'
p292
tp293
a(I128
I1
F-0.25
S'cheaper'
p294
tp295
as(S'using'
p296
tp297
(lp298
(I144
I2
I0
S'adequate'
p299
tp300
as(S'month'
p301
tp302
(lp303
(I39
I23
F-0.5
S'less'
p304
tp305
a(I77
I68
I0
S'later'
p306
tp307
a(I104
I0
F0.625
S'easy'
p308
tp309
as(S'straight'
p310
S'talk'
p311
tp312
(lp313
(I7
I2
I0
g48
tp314
a(I7
I2
F0.625
g50
tp315
a(I40
I1
F0.625
g52
tp316
a(I52
I5
F0.625
g54
tp317
a(I53
I0
F0.625
g56
tp318
a(I53
I1
F0.625
g58
tp319
a(I53
I2
F0.625
g60
tp320
a(I53
I2
F0.625
g62
tp321
a(I56
I0
F0.625
g64
tp322
a(I58
I0
F0.625
g66
tp323
a(I58
I3
F0.625
g68
tp324
a(I58
I3
I0
g70
tp325
a(I58
I3
F0.625
g72
tp326
a(I84
I11
F0.625
g74
tp327
a(I110
I2
F0.625
g76
tp328
as(S'quality'
p329
tp330
(lp331
(I1
I1
I0
S'high'
p332
tp333
a(I1
I1
F1.0
S'good'
p334
tp335
a(I2
I5
F1.0
S'best'
p336
tp337
a(I2
I5
F-0.875
S'worst'
p338
tp339
a(I10
I1
F1.0
g182
tp340
a(I14
I2
F1.0
S'good'
p341
tp342
a(I14
I2
F0.625
S'easy'
p343
tp344
a(I74
I0
I0
S'great'
p345
tp346
a(I85
I12
F-0.125
S'overall'
p347
tp348
a(I86
I5
F1.0
g184
tp349
a(I102
I1
I0
S'high'
p350
tp351
a(I103
I0
F1.0
S'good'
p352
tp353
a(I108
I3
F1.0
S'good'
p354
tp355
a(I133
I2
F1.0
S'good'
p356
tp357
a(I135
I9
F1.0
S'good'
p358
tp359
as(S'life'
p360
tp361
(lp362
(I13
I0
F0.625
g13
tp363
a(I34
I6
I0
g15
tp364
a(I46
I13
I0
g17
tp365
a(I68
I5
F1.0
g19
tp366
a(I68
I5
F-0.625
g21
tp367
a(I81
I2
I0
g23
tp368
a(I89
I3
F-0.5
g25
tp369
a(I127
I3
F-0.25
g27
tp370
as(S'right'
p371
tp372
(lp373
(I13
I1
F-0.375
S'top'
p374
tp375
a(I77
I66
F-0.375
S'top'
p376
tp377
as(S'to'
p378
S'sd'
p379
S'card'
p380
tp381
(lp382
(I37
I12
I0
S'sd'
p383
tp384
a(I65
I2
I0
S'external'
p385
tp386
a(I67
I2
F0.625
S'removable'
p387
tp388
as(S'pictures'
p389
tp390
(lp391
(I14
I1
F0.25
S'sharp'
p392
tp393
a(I46
I12
F0.5
S'clear'
p394
tp395
a(I65
I8
F0.625
S'necessary'
p396
tp397
a(I65
I9
F0.875
S'nice'
p398
tp399
a(I72
I3
F0.625
S'easy'
p400
tp401
a(I74
I1
I0
S'great'
p402
tp403
a(I104
I1
F0.625
S'easy'
p404
tp405
a(I126
I4
F0.25
S'sharper'
p406
tp407
as(S'galaxy'
p408
S'express'
p409
tp410
(lp411
(I46
I9
I0
g41
tp412
a(I69
I0
I0
S'faster'
p413
tp414
a(I89
I1
I0
S'galaxy'
p415
tp416
a(I89
I2
I0
S'galaxy'
p417
tp418
as(S'clear'
p419
tp420
(lp421
(I84
I2
F1.0
S'good'
p422
tp423
a(I84
I2
F0.875
S'nice'
p424
tp425
as(S'features'
p426
tp427
(lp428
(I22
I1
I0
S'many'
p429
tp430
a(I37
I1
F0.875
S'nice'
p431
tp432
a(I63
I2
I0
S'many'
p433
tp434
a(I64
I2
F-0.875
S'stuck'
p435
tp436
a(I70
I1
I0
S'many'
p437
tp438
a(I71
I2
F0.625
S'easy'
p439
tp440
a(I87
I1
I0
S'many'
p441
tp442
a(I138
I2
I0
S'many'
p443
tp444
a(I138
I2
I0
S'such'
p445
tp446
a(I146
I3
F0.375
S'available'
p447
tp448
as(S'prepaid'
p449
tp450
(lp451
(I49
I2
F0.375
S'new'
p452
tp453
a(I65
I3
F0.125
S'first'
p454
tp455
a(I90
I15
I0
S'most'
p456
tp457
a(I90
I15
F-0.625
S'other'
p458
tp459
a(I107
I0
F0.875
S'nice'
p460
tp461
a(I146
I4
I0
S'great'
p462
tp463
as(S'price'
p464
tp465
(lp466
(I11
I2
I0
S'great'
p467
tp468
a(I26
I7
I0
S'great'
p469
tp470
a(I34
I2
F1.0
S'good'
p471
tp472
a(I46
I19
I0
S'great'
p473
tp474
a(I52
I1
I0
S'same'
p475
tp476
a(I62
I12
F1.0
S'best'
p477
tp478
a(I75
I1
F0.75
S'worth'
p479
tp480
a(I79
I7
I0
S'great'
p481
tp482
a(I95
I1
I0
S'great'
p483
tp484
a(I96
I1
I0
S'great'
p485
tp486
a(I105
I2
F1.0
S'best'
p487
tp488
a(I106
I0
I0
S'great'
p489
tp490
a(I108
I1
I0
S'great'
p491
tp492
a(I126
I8
F1.0
S'good'
p493
tp494
a(I138
I2
F0.5
S'reasonable'
p495
tp496
a(I140
I5
I0
S'great'
p497
tp498
as(S'voice'
p499
S'to'
p500
S'text'
p501
tp502
(lp503
(I62
I1
I0
S'galaxy'
p504
tp505
a(I85
I12
F-0.5
g83
tp506
as(S'sd'
p507
S'card'
p508
tp509
(lp510
(I37
I12
I0
g383
tp511
a(I65
I2
I0
g385
tp512
a(I67
I2
F0.625
g387
tp513
as(S'call'
p514
tp515
(lp516
(I73
I0
F-0.5
S'regular'
p517
tp518
a(I112
I0
F1.0
S'better'
p519
tp520
a(I127
I1
F0.125
g186
tp521
as(S'contract'
p522
tp523
(lp524
(I32
I1
F0.625
S'easy'
p525
tp526
a(I54
I1
I0
S'monthly'
p527
tp528
a(I56
I0
I0
S'great'
p529
tp530
a(I90
I5
F-0.375
S'top'
p531
tp532
as(S'android'
p533
tp534
(lp535
(I43
I5
F-0.25
S'google'
p536
tp537
as(S'plan'
p538
tp539
(lp540
(I62
I4
I0
S'same'
p541
tp542
as(S'sound'
p543
tp544
(lp545
(I24
I3
I0
S'different'
p546
tp547
as(S'works'
p548
tp549
(lp550
(I43
I3
I0
S'great'
p551
tp552
a(I81
I2
I0
S'great'
p553
tp554
a(I81
I3
F0.375
S'similar'
p555
tp556
as(S'samsung'
p557
S'galaxy'
p558
S'express'
p559
tp560
(lp561
(I69
I0
I0
g413
tp562
as(S'back'
p563
tp564
(lp565
(I42
I1
I0
S'great'
p566
tp567
as(S'feel'
p568
tp569
(lp570
(I77
I17
F-0.75
S'little'
p571
tp572
as(S'smart'
p573
tp574
(lp575
(I21
I2
F1.0
S'good'
p576
tp577
a(I29
I0
F0.125
g241
tp578
a(I40
I0
F0.875
S'nice'
p579
tp580
a(I75
I1
F0.125
g243
tp581
a(I110
I0
F0.125
g245
tp582
a(I120
I3
I0
S'only'
p583
tp584
a(I121
I1
F0.125
g247
tp585
a(I121
I6
F0.125
g249
tp586
a(I128
I0
F0.375
S'new'
p587
tp588
a(I135
I0
F0.125
g251
tp589
as(S'store'
p590
tp591
(lp592
(I141
I1
F0.125
S'able'
p593
tp594
as(S'turn'
p595
tp596
(lp597
(I77
I29
F0.5
S'touch'
p598
tp599
as(S'samsung'
p600
S'galaxy'
p601
tp602
(lp603
(I37
I8
I0
g221
tp604
a(I37
I8
F-0.625
g223
tp605
a(I87
I3
I0
g227
tp606
as(S'micro'
p607
S'sd'
p608
S'card'
p609
tp610
(lp611
(I67
I2
F0.625
g387
tp612
as(S'case'
p613
tp614
(lp615
(I39
I25
F-0.375
S'serious'
p616
tp617
a(I50
I5
I0
S'ballistic'
p618
tp619
a(I67
I10
I0
S'ballistic'
p620
tp621
a(I94
I5
F-0.5
S'feminine'
p622
tp623
a(I106
I6
I0
S'ballistic'
p624
tp625
a(I123
I6
F0.125
S'able'
p626
tp627
as(S'galaxy'
p628
S'express'
p629
S'gophone'
p630
tp631
(lp632
(I39
I26
F-0.625
g288
tp633
a(I89
I1
I0
g415
tp634
a(I128
I1
F-0.25
g294
tp635
as(S'thing'
p636
tp637
(lp638
(I73
I0
F1.0
S'good'
p639
tp640
a(I79
I4
I0
S'only'
p641
tp642
a(I88
I0
F0.875
S'important'
p643
tp644
a(I135
I6
F0.25
S'favorite'
p645
tp646
as(S'sim'
p647
S'card'
p648
tp649
(lp650
(I61
I8
F0.375
S'new'
p651
tp652
a(I79
I4
F-0.875
S'negative'
p653
tp654
a(I79
I4
I0
S'old'
p655
tp656
a(I79
I4
F0.25
S'larger'
p657
tp658
a(I79
I4
F0.375
S'new'
p659
tp660
a(I80
I1
F-0.625
S'free'
p661
tp662
a(I91
I1
F0.375
S'new'
p663
tp664
a(I102
I3
F-0.625
S'free'
p665
tp666
as(S'device'
p667
tp668
(lp669
(I39
I2
I0
S'own'
p670
tp671
a(I39
I4
I0
S'android'
p672
tp673
a(I39
I18
I0
S'android'
p674
tp675
a(I39
I18
I0
S'high'
p676
tp677
a(I39
I24
F0.625
S'sophisticated'
p678
tp679
a(I41
I1
I0
S'mobile'
p680
tp681
a(I123
I0
F0.375
S'new'
p682
tp683
as(S'text'
p684
S'messages'
p685
tp686
(lp687
(I58
I2
I0
S'big'
p688
tp689
as(S'things'
p690
tp691
(lp692
(I46
I0
I0
S'android'
p693
tp694
a(I77
I68
I0
S'more'
p695
tp696
a(I79
I2
I0
S'many'
p697
tp698
a(I79
I2
I0
S'great'
p699
tp700
a(I84
I0
I0
S'few'
p701
tp702
a(I84
I4
I0
S'different'
p703
tp704
a(I95
I1
I0
S'cool'
p705
tp706
as(S'happy'
p707
tp708
(lp709
(I61
I8
I0
S'great'
p710
tp711
as(S'use'
p712
S'wifi'
p713
tp714
(lp715
(I102
I2
F0.25
S'portable'
p716
tp717
a(I115
I4
F-0.625
S'free'
p718
tp719
as(S'data'
p720
tp721
(lp722
(I19
I1
F-0.5
S'heavy'
p723
tp724
a(I39
I23
I0
S'faster'
p725
tp726
a(I67
I1
F0.625
S'perfect'
p727
tp728
a(I90
I11
F0.125
S'enough'
p729
tp730
as(S'time'
p731
tp732
(lp733
(I23
I5
F-0.5
S'long'
p734
tp735
a(I49
I5
F-0.5
S'longest'
p736
tp737
a(I57
I0
I0
S'identified'
p738
tp739
a(I62
I12
F-0.5
S'long'
p740
tp741
a(I69
I1
F-0.5
S'long'
p742
tp743
a(I77
I49
I0
S'high'
p744
tp745
a(I77
I49
F0.125
S'last'
p746
tp747
a(I85
I15
F0.375
S'extra'
p748
tp749
a(I110
I3
I0
S'more'
p750
tp751
a(I110
I3
F0.125
S'able'
p752
tp753
as(S'battery'
p754
tp755
(lp756
(I77
I60
F-0.25
S'low'
p757
tp758
a(I97
I1
I0
S'most'
p759
tp760
a(I97
I1
F0.125
S'last'
p761
tp762
a(I106
I4
F0.625
S'removable'
p763
tp764
a(I134
I0
I0
g29
tp765
a(I135
I18
F1.0
S'good'
p766
tp767
as(S'fine'
p768
tp769
(lp770
(I135
I30
F0.75
S'fit'
p771
tp772
as(S'smartphone'
p773
tp774
(lp775
(I0
I0
F0.125
S'first'
p776
tp777
a(I63
I4
F1.0
S'best'
p778
tp779
a(I121
I8
I0
S'latest'
p780
tp781
a(I144
I0
F0.125
S'first'
p782
tp783
as(S'card'
p784
tp785
(lp786
(I37
I12
I0
g383
tp787
a(I67
I2
F0.625
g387
tp788
a(I80
I1
F-0.625
g661
tp789
a(I102
I3
F-0.625
g665
tp790
as(S'wifi'
p791
tp792
(lp793
(I102
I2
F0.25
g716
tp794
a(I115
I4
F-0.625
g718
tp795
as(S'great'
p796
S'price'
p797
tp798
(lp799
(I11
I2
I0
g467
tp800
a(I26
I7
I0
g469
tp801
a(I46
I19
I0
g473
tp802
a(I79
I7
I0
g481
tp803
a(I95
I1
I0
g483
tp804
a(I96
I1
I0
g485
tp805
a(I106
I0
I0
g489
tp806
a(I108
I1
I0
g491
tp807
a(I140
I5
I0
g497
tp808
as(S'size'
p809
tp810
(lp811
(I84
I2
F1.0
S'good'
p812
tp813
a(I91
I3
F0.625
S'perfect'
p814
tp815
a(I98
I0
F0.875
S'nice'
p816
tp817
as(S'work'
p818
tp819
(lp820
(I57
I2
I0
S'great'
p821
tp822
as(S'apps'
p823
tp824
(lp825
(I38
I4
I0
S'wish'
p826
tp827
a(I70
I4
I0
S'many'
p828
tp829
a(I77
I21
I0
S'earlier'
p830
tp831
a(I77
I21
I0
S'download'
p832
tp833
a(I77
I21
I0
S'many'
p834
tp835
as(S'express'
p836
tp837
(lp838
(I69
I0
I0
g413
tp839
a(I84
I0
F-0.125
S'overall'
p840
tp841
a(I89
I1
I0
g415
tp842
a(I89
I2
I0
g417
tp843
as(S'days'
p844
tp845
(lp846
(I67
I8
F0.125
S'charger'
p847
tp848
a(I69
I0
I0
S'few'
p849
tp850
a(I82
I0
F-0.5
S'less'
p851
tp852
a(I97
I1
I0
S'full'
p853
tp854
a(I135
I10
I0
S'old'
p855
tp856
as(S'4g'
p857
S'lte'
p858
tp859
(lp860
(I46
I8
F0.375
S'newest'
p861
tp862
a(I90
I6
F0.375
S'available'
p863
tp864
a(I90
I6
I0
S'fast'
p865
tp866
as(S'touch'
p867
S'screen'
p868
tp869
(lp870
(I46
I13
F0.25
g122
tp871
a(I61
I2
F0.25
g256
tp872
a(I69
I0
F0.25
g138
tp873
a(I77
I30
F0.5
g146
tp874
a(I135
I4
F0.5
g170
tp875
a(I138
I3
F0.25
g172
tp876
as.