(dp0
(S'n'
p1
S'an'
p2
S'area'
p3
tp4
(lp5
(I8
I2
F0.75
S'worth'
p6
tp7
as(S'of'
p8
S'nternal'
p9
S'storage'
p10
tp11
(lp12
(I26
I2
I0
S'internal'
p13
tp14
a(I26
I2
I0
S'ample'
p15
tp16
a(I26
I2
I0
S'internal'
p17
tp18
a(I26
I2
F-0.25
S'low'
p19
tp20
a(I99
I13
I0
S'minimal'
p21
tp22
a(I157
I4
I0
S'internal'
p23
tp24
a(I180
I7
I0
S'internal'
p25
tp26
a(I180
I9
I0
S'internal'
p27
tp28
a(I180
I10
I0
S'internal'
p29
tp30
a(I214
I4
I0
S'internal'
p31
tp32
a(I230
I1
I0
S'internal'
p33
tp34
a(I275
I3
I0
S'internal'
p35
tp36
a(I275
I8
I0
S'internal'
p37
tp38
a(I275
I8
F-0.25
S'low'
p39
tp40
as(S'on'
p41
S'board'
p42
S'memory'
p43
tp44
(lp45
(I77
I3
I0
S'internal'
p46
tp47
a(I171
I0
I0
S'external'
p48
tp49
as(S'dual'
p50
S'core'
p51
tp52
(lp53
(I111
I7
I0
S'fast'
p54
tp55
a(I114
I4
I0
S'faster'
p56
tp57
a(I114
I4
F-0.75
S'single'
p58
tp59
a(I224
I1
F0.25
S'responsive'
p60
tp61
as(S'nice'
p62
tp63
(lp64
(I89
I2
F0.625
S'easy'
p65
tp66
as(S'call'
p67
S'quality'
p68
tp69
(lp70
(I7
I1
F1.0
S'good'
p71
tp72
a(I8
I3
F-0.5
S'call'
p73
tp74
a(I45
I2
I0
S'great'
p75
tp76
a(I46
I21
F0.625
S'acceptable'
p77
tp78
a(I136
I3
F1.0
S'good'
p79
tp80
a(I167
I2
F1.0
S'best'
p81
tp82
a(I167
I2
F-0.5
S'regular'
p83
tp84
a(I167
I2
F0.25
S'stellar'
p85
tp86
a(I171
I0
F-0.625
S'average'
p87
tp88
a(I176
I1
F0.5
S'clear'
p89
tp90
a(I181
I6
F1.0
S'good'
p91
tp92
a(I269
I17
F0.5
S'clear'
p93
tp94
as(S't'
p95
S'battery'
p96
S'life'
p97
tp98
(lp99
(I0
I3
I0
S'great'
p100
tp101
a(I6
I3
F1.0
S'good'
p102
tp103
a(I20
I2
F1.0
S'good'
p104
tp105
a(I20
I2
F0.625
S'easy'
p106
tp107
a(I24
I0
F-0.25
S'epic'
p108
tp109
a(I25
I9
I0
S'great'
p110
tp111
a(I29
I3
F1.0
S'good'
p112
tp113
a(I37
I4
F-0.5
S'poor'
p114
tp115
a(I37
I11
F1.0
S'good'
p116
tp117
a(I46
I14
I0
S'great'
p118
tp119
a(I46
I17
I0
S'automatic'
p120
tp121
a(I46
I17
F-0.25
S'low'
p122
tp123
a(I46
I17
F0.125
S'able'
p124
tp125
a(I56
I4
F1.0
S'good'
p126
tp127
a(I56
I4
F-0.375
S'smaller'
p128
tp129
a(I63
I2
I0
S'great'
p130
tp131
a(I71
I0
I0
S'great'
p132
tp133
a(I71
I0
F0.5
S'strong'
p134
tp135
a(I75
I8
F1.0
S'good'
p136
tp137
a(I79
I1
F-0.75
S'sad'
p138
tp139
a(I79
I2
F0.625
S'superior'
p140
tp141
a(I79
I20
I0
S'great'
p142
tp143
a(I82
I3
I0
S'great'
p144
tp145
a(I87
I3
F0.125
S'impressive'
p146
tp147
a(I89
I3
F-0.5
S'long'
p148
tp149
a(I89
I3
F-0.125
S'slow'
p150
tp151
a(I110
I5
I0
S'most'
p152
tp153
a(I115
I0
I0
S'great'
p154
tp155
a(I115
I0
F0.625
S'easy'
p156
tp157
a(I119
I6
F-0.625
S'light'
p158
tp159
a(I119
I6
I0
S'phenomenal'
p160
tp161
a(I119
I6
I0
S'great'
p162
tp163
a(I138
I0
I0
S'great'
p164
tp165
a(I140
I1
I0
S'incredible'
p166
tp167
a(I151
I3
I0
S'great'
p168
tp169
a(I163
I0
I0
S'great'
p170
tp171
a(I170
I2
I0
S'great'
p172
tp173
a(I185
I1
I0
S'great'
p174
tp175
a(I201
I0
F-0.75
S'short'
p176
tp177
a(I212
I3
F1.0
S'good'
p178
tp179
a(I235
I2
I0
S'android'
p180
tp181
a(I245
I2
I0
S'incredible'
p182
tp183
a(I248
I11
F1.0
S'good'
p184
tp185
a(I254
I1
I0
S'great'
p186
tp187
a(I259
I8
I0
S'next'
p188
tp189
a(I260
I0
F-0.5
S'longer'
p190
tp191
a(I260
I0
I0
S'quick'
p192
tp193
a(I261
I0
F1.0
S'good'
p194
tp195
a(I277
I3
F1.0
S'good'
p196
tp197
a(I278
I11
F-0.25
S'disappointing'
p198
tp199
a(I278
I15
F-0.5
S'poor'
p200
tp201
a(I278
I18
I0
S'vaunted'
p202
tp203
as(S'quality'
p204
tp205
(lp206
(I8
I3
F-0.5
g73
tp207
a(I15
I0
F-0.625
S'other'
p208
tp209
a(I15
I0
F1.0
S'good'
p210
tp211
a(I45
I2
I0
g75
tp212
a(I46
I19
F-0.25
S'low'
p213
tp214
a(I46
I21
F0.625
g77
tp215
a(I57
I2
F-0.5
S'poor'
p216
tp217
a(I111
I15
F-0.625
S'surprising'
p218
tp219
a(I111
I15
I0
S'visual'
p220
tp221
a(I126
I3
F0.625
S'fair'
p222
tp223
a(I126
I3
I0
S'great'
p224
tp225
a(I130
I3
F-0.25
S'low'
p226
tp227
a(I136
I3
F1.0
g79
tp228
a(I167
I2
F1.0
g81
tp229
a(I167
I2
F0.25
g85
tp230
a(I171
I0
F-0.625
g87
tp231
a(I181
I6
F1.0
g91
tp232
a(I209
I0
I0
S'great'
p233
tp234
a(I213
I1
F-0.25
S'low'
p235
tp236
a(I229
I1
F-0.25
S'past'
p237
tp238
a(I250
I0
F1.0
S'good'
p239
tp240
a(I254
I1
I0
S'high'
p241
tp242
a(I269
I17
F0.5
g93
tp243
as(S'to'
p244
S'sd'
p245
S'card'
p246
tp247
(lp248
(I33
I0
F-0.625
S'other'
p249
tp250
a(I75
I16
F-0.5
S'regular'
p251
tp252
a(I75
I16
F-0.375
S'top'
p253
tp254
a(I75
I17
I0
S'standard'
p255
tp256
a(I77
I3
F-0.125
S'present'
p257
tp258
a(I79
I7
I0
S'external'
p259
tp260
a(I94
I11
F-0.75
S'unable'
p261
tp262
a(I97
I2
F0.5
S'bought'
p263
tp264
a(I155
I2
I0
S'internal'
p265
tp266
a(I192
I24
I0
S'external'
p267
tp268
a(I275
I4
I0
S'external'
p269
tp270
a(I275
I4
I0
S'useful'
p271
tp272
a(I276
I7
I0
S'external'
p273
tp274
as(S'lg'
p275
S'optimus'
p276
S'elite'
p277
tp278
(lp279
(I0
I1
F0.25
S'bigger'
p280
tp281
a(I79
I0
F0.125
S'last'
p282
tp283
a(I79
I0
F0.25
S'elite'
p284
tp285
a(I111
I14
F0.25
S'elite'
p286
tp287
a(I119
I0
F0.25
S'elite'
p288
tp289
a(I119
I8
F0.25
S'elite'
p290
tp291
a(I247
I1
F0.25
S'elite'
p292
tp293
a(I251
I0
F0.25
S'elite'
p294
tp295
as(S'to'
p296
S'memory'
p297
S'card'
p298
tp299
(lp300
(I31
I1
F-0.25
S'low'
p301
tp302
a(I56
I7
I0
S'large'
p303
tp304
a(I75
I15
I0
S'internal'
p305
tp306
a(I75
I15
F0.625
S'removable'
p307
tp308
a(I75
I15
I0
S'internal'
p309
tp310
a(I75
I15
F-0.625
S'other'
p311
tp312
a(I75
I15
I0
S'external'
p313
tp314
a(I75
I15
F0.625
S'removable'
p315
tp316
a(I77
I1
I0
S'internal'
p317
tp318
a(I77
I3
I0
g46
tp319
a(I79
I7
I0
S'internal'
p320
tp321
a(I79
I7
F-0.375
S'small'
p322
tp323
a(I119
I1
F-0.5
S'less'
p324
tp325
a(I171
I0
I0
g48
tp326
a(I189
I2
I0
S'internal'
p327
tp328
a(I192
I24
I0
S'internal'
p329
tp330
a(I201
I8
F0.375
S'extra'
p331
tp332
a(I205
I19
I0
S'external'
p333
tp334
a(I205
I23
I0
S'full'
p335
tp336
a(I205
I23
F-0.25
S'potential'
p337
tp338
a(I205
I23
I0
S'external'
p339
tp340
a(I266
I2
I0
S'internal'
p341
tp342
a(I266
I2
I0
S'external'
p343
tp344
a(I276
I6
I0
S'internal'
p345
tp346
a(I276
I7
I0
S'internal'
p347
tp348
a(I276
I7
I0
S'internal'
p349
tp350
a(I276
I7
I0
S'internal'
p351
tp352
a(I277
I5
F-0.75
S'little'
p353
tp354
a(I277
I5
I0
S'internal'
p355
tp356
a(I278
I22
F-0.25
S'low'
p357
tp358
a(I278
I22
I0
S'same'
p359
tp360
a(I278
I22
I0
S'internal'
p361
tp362
a(I278
I31
I0
S'internal'
p363
tp364
as(S'sd'
p365
S'card'
p366
tp367
(lp368
(I33
I0
F-0.625
g249
tp369
a(I75
I16
F-0.5
g251
tp370
a(I75
I16
F-0.375
g253
tp371
a(I75
I17
I0
g255
tp372
a(I77
I3
F-0.125
g257
tp373
a(I79
I7
I0
g259
tp374
a(I94
I11
F-0.75
g261
tp375
a(I94
I12
I0
S'sd'
p376
tp377
a(I95
I11
I0
S'big'
p378
tp379
a(I95
I29
I0
S'emulate'
p380
tp381
a(I97
I2
F0.5
g263
tp382
a(I104
I14
F0.375
S'much'
p383
tp384
a(I155
I2
I0
g265
tp385
a(I192
I24
I0
g267
tp386
a(I275
I4
I0
g269
tp387
a(I275
I4
I0
g271
tp388
a(I276
I7
I0
g273
tp389
a(I278
I39
I0
S'many'
p390
tp391
a(I278
I39
F0.5
S'possible'
p392
tp393
as(S'case'
p394
tp395
(lp396
(I48
I1
F0.125
S'protective'
p397
tp398
a(I56
I13
F-0.75
S'tough'
p399
tp400
a(I180
I3
F0.875
S'nice'
p401
tp402
a(I192
I14
F0.125
S'first'
p403
tp404
a(I203
I3
F-0.375
S'wear'
p405
tp406
a(I203
I3
F-0.25
S'tear'
p407
tp408
a(I205
I11
F1.0
S'good'
p409
tp410
a(I226
I7
I0
S'more'
p411
tp412
as(S'5'
p413
S'stars'
p414
tp415
(lp416
(I132
I14
I0
S'latest'
p417
tp418
a(I132
I14
I0
S'android'
p419
tp420
as(S'apps'
p421
S'to'
p422
S'sd'
p423
tp424
(lp425
(I6
I2
F0.125
S'able'
p426
tp427
a(I79
I7
F0.125
S'able'
p428
tp429
a(I79
I7
I0
g259
tp430
a(I95
I25
I0
S'remnant'
p431
tp432
a(I95
I25
I0
S'big'
p433
tp434
a(I110
I0
I0
S'external'
p435
tp436
a(I110
I0
I0
S'internal'
p437
tp438
a(I135
I2
I0
S'basic'
p439
tp440
a(I135
I2
I0
S'most'
p441
tp442
a(I153
I0
I0
S'large'
p443
tp444
a(I173
I1
F-0.75
S'unable'
p445
tp446
a(I177
I2
F-0.75
S'impossible'
p447
tp448
a(I192
I24
I0
g267
tp449
a(I263
I2
F-0.25
S'disappointing'
p450
tp451
a(I266
I2
F-0.125
S'delete'
p452
tp453
a(I275
I3
I0
S'most'
p454
tp455
a(I276
I7
F0.125
S'able'
p456
tp457
a(I276
I7
F0.25
S'larger'
p458
tp459
a(I276
I7
I0
g273
tp460
a(I276
I7
F-0.25
S'google'
p461
tp462
a(I276
I7
I0
S'such'
p463
tp464
as(S'and'
p465
S'battery'
p466
S'life'
p467
tp468
(lp469
(I0
I3
I0
g100
tp470
a(I6
I3
F1.0
g102
tp471
a(I20
I2
F1.0
g104
tp472
a(I20
I2
F0.625
g106
tp473
a(I24
I0
F-0.25
g108
tp474
a(I25
I9
I0
g110
tp475
a(I37
I4
F-0.5
g114
tp476
a(I56
I4
F1.0
g126
tp477
a(I56
I4
F-0.375
g128
tp478
a(I63
I2
I0
g130
tp479
a(I71
I0
I0
g132
tp480
a(I71
I0
F0.5
g134
tp481
a(I79
I1
F-0.75
g138
tp482
a(I79
I20
I0
g142
tp483
a(I110
I5
I0
g152
tp484
a(I119
I6
F-0.625
g158
tp485
a(I119
I6
I0
g160
tp486
a(I119
I6
I0
g162
tp487
a(I151
I3
I0
g168
tp488
a(I163
I0
I0
g170
tp489
a(I201
I0
F-0.75
g176
tp490
a(I212
I3
F1.0
g178
tp491
a(I235
I2
I0
g180
tp492
a(I248
I11
F1.0
g184
tp493
a(I254
I1
I0
g186
tp494
a(I259
I8
I0
g188
tp495
a(I261
I0
F1.0
g194
tp496
a(I277
I3
F1.0
g196
tp497
a(I278
I11
F-0.25
g198
tp498
a(I278
I15
F-0.5
g200
tp499
as(S'optimus'
p500
S'v'
p501
tp502
(lp503
(I0
I1
F0.25
g280
tp504
a(I0
I3
I0
S'third'
p505
tp506
a(I0
I3
I0
S'next'
p507
tp508
a(I10
I0
I0
S'old'
p509
tp510
a(I94
I18
F-0.625
S'glad'
p511
tp512
a(I157
I7
F0.25
S'elite'
p513
tp514
a(I157
I8
F0.25
S'elite'
p515
tp516
a(I181
I3
I0
S'old'
p517
tp518
a(I247
I0
F0.375
S'new'
p519
tp520
a(I273
I9
I0
S'ancient'
p521
tp522
a(I277
I1
I0
S'third'
p523
tp524
as(S'optimus'
p525
S'f3'
p526
tp527
(lp528
(I197
I2
F-0.625
S'light'
p529
tp530
a(I247
I0
F0.375
g519
tp531
a(I277
I1
I0
g523
tp532
as(S'1'
p533
S'2'
p534
S'gb'
p535
tp536
(lp537
(I1
I2
F0.75
S'due'
p538
tp539
a(I99
I13
I0
S'internal'
p540
tp541
a(I192
I5
F0.375
S'available'
p542
tp543
as(S'to'
p544
S'lg'
p545
S'optimus'
p546
tp547
(lp548
(I0
I1
F0.25
g280
tp549
a(I37
I2
F0.625
S'noticeable'
p550
tp551
a(I109
I0
I0
S'android'
p552
tp553
a(I111
I14
F0.25
g286
tp554
a(I119
I8
F0.25
g290
tp555
a(I247
I1
F0.25
g292
tp556
a(I251
I0
F0.25
g294
tp557
as(S'optimus'
p558
tp559
(lp560
(I0
I1
F0.25
g280
tp561
a(I0
I3
I0
g505
tp562
a(I0
I3
I0
g507
tp563
a(I10
I0
I0
g509
tp564
a(I181
I3
I0
g517
tp565
a(I247
I0
F0.375
g519
tp566
a(I273
I9
I0
g521
tp567
a(I277
I1
I0
g523
tp568
as(S'easy'
p569
S'to'
p570
S'use'
p571
tp572
(lp573
(I62
I4
F1.0
S'best'
p574
tp575
as(S'battery'
p576
S'life'
p577
S'great'
p578
tp579
(lp580
(I0
I3
I0
g100
tp581
a(I25
I9
I0
g110
tp582
a(I29
I3
F1.0
g112
tp583
a(I46
I14
I0
g118
tp584
a(I63
I2
I0
g130
tp585
a(I71
I0
I0
g132
tp586
a(I71
I0
F0.5
g134
tp587
a(I79
I20
I0
g142
tp588
a(I82
I3
I0
g144
tp589
a(I115
I0
I0
g154
tp590
a(I115
I0
F0.625
g156
tp591
a(I119
I6
F-0.625
g158
tp592
a(I119
I6
I0
g160
tp593
a(I119
I6
I0
g162
tp594
a(I138
I0
I0
g164
tp595
a(I151
I3
I0
g168
tp596
a(I163
I0
I0
g170
tp597
a(I170
I2
I0
g172
tp598
a(I185
I1
I0
g174
tp599
a(I235
I2
I0
g180
tp600
a(I254
I1
I0
g186
tp601
as(S'card'
p602
tp603
(lp604
(I33
I0
F-0.625
g249
tp605
a(I56
I7
I0
g303
tp606
a(I62
I10
F0.875
S'nice'
p607
tp608
a(I75
I15
F0.625
g307
tp609
a(I75
I15
F-0.625
g311
tp610
a(I75
I16
F-0.375
g253
tp611
a(I94
I12
I0
g376
tp612
a(I104
I14
F0.375
g383
tp613
a(I205
I22
I0
S'external'
p614
tp615
a(I275
I4
I0
g271
tp616
a(I278
I39
I0
g390
tp617
a(I278
I39
F0.5
g392
tp618
as(S'love'
p619
tp620
(lp621
(I265
I0
I0
S'instant'
p622
tp623
as(S'an'
p624
S'sd'
p625
S'card'
p626
tp627
(lp628
(I33
I0
F-0.625
g249
tp629
a(I75
I17
I0
g255
tp630
a(I77
I3
F-0.125
g257
tp631
a(I79
I7
I0
g259
tp632
a(I94
I11
F-0.75
g261
tp633
a(I94
I12
I0
g376
tp634
a(I97
I2
F0.5
g263
tp635
a(I104
I14
F0.375
g383
tp636
a(I155
I2
I0
g265
tp637
a(I192
I24
I0
g267
tp638
a(I275
I4
I0
g269
tp639
a(I275
I4
I0
g271
tp640
a(I276
I7
I0
g273
tp641
a(I278
I39
I0
g390
tp642
a(I278
I39
F0.5
g392
tp643
as(S'nternal'
p644
S'storage'
p645
tp646
(lp647
(I26
I2
I0
g13
tp648
a(I26
I2
I0
g15
tp649
a(I26
I2
I0
g17
tp650
a(I26
I2
F-0.25
g19
tp651
a(I38
I1
F-0.75
S'little'
p652
tp653
a(I38
I1
I0
S'internal'
p654
tp655
a(I94
I13
F-0.75
S'sufficient'
p656
tp657
a(I94
I13
I0
S'internal'
p658
tp659
a(I99
I13
I0
g21
tp660
a(I155
I1
I0
S'internal'
p661
tp662
a(I157
I4
I0
g23
tp663
a(I180
I7
I0
g25
tp664
a(I180
I9
I0
g27
tp665
a(I180
I10
I0
g29
tp666
a(I183
I1
I0
S'internal'
p667
tp668
a(I214
I4
I0
g31
tp669
a(I230
I1
I0
g33
tp670
a(I239
I6
I0
S'internal'
p671
tp672
a(I248
I4
I0
S'internal'
p673
tp674
a(I269
I13
I0
S'internal'
p675
tp676
a(I275
I2
I0
S'internal'
p677
tp678
a(I275
I3
I0
g35
tp679
a(I275
I8
I0
g37
tp680
a(I275
I8
F-0.25
g39
tp681
as(S'on'
p682
S'virgin'
p683
S'mobile'
p684
tp685
(lp686
(I16
I3
F-0.625
S'other'
p687
tp688
a(I35
I0
F-0.125
S'slow'
p689
tp690
a(I99
I4
I0
S'few'
p691
tp692
a(I152
I0
I0
S'mobile'
p693
tp694
a(I157
I8
F0.125
S'able'
p695
tp696
a(I192
I21
I0
S'few'
p697
tp698
a(I210
I17
F-0.375
S'top'
p699
tp700
as(S'move'
p701
S'apps'
p702
tp703
(lp704
(I6
I2
F0.125
g426
tp705
a(I26
I4
F-0.5
S'regular'
p706
tp707
a(I173
I1
F-0.75
g445
tp708
a(I177
I2
F-0.75
g447
tp709
a(I192
I5
I0
S'large'
p710
tp711
a(I192
I18
F-0.625
S'glad'
p712
tp713
a(I192
I18
I0
S'least'
p714
tp715
a(I192
I26
I0
S'few'
p716
tp717
a(I276
I7
F0.125
g456
tp718
a(I276
I7
F0.25
g458
tp719
a(I276
I7
F-0.25
g461
tp720
a(I276
I7
I0
g463
tp721
as(S'fast'
p722
tp723
(lp724
(I25
I6
F-0.375
S'crazy'
p725
tp726
as(S'times'
p727
tp728
(lp729
(I56
I13
I0
S'many'
p730
tp731
a(I75
I0
I0
S'few'
p732
tp733
a(I95
I8
I0
S'slower'
p734
tp735
a(I95
I13
F-0.75
S'little'
p736
tp737
a(I95
I13
I0
S'more'
p738
tp739
a(I111
I10
F0.375
S'much'
p740
tp741
a(I161
I1
F-0.5
S'longer'
p742
tp743
a(I163
I0
I0
S'few'
p744
tp745
a(I197
I0
I0
S'most'
p746
tp747
a(I197
I0
F-0.625
S'other'
p748
tp749
a(I203
I3
F-0.125
S'mine'
p750
tp751
a(I264
I3
I0
S'multiple'
p752
tp753
a(I274
I9
I0
S'many'
p754
tp755
as(S'problem'
p756
tp757
(lp758
(I11
I3
I0
S'only'
p759
tp760
a(I11
I3
I0
S'big'
p761
tp762
a(I49
I1
F0.25
S'biggest'
p763
tp764
a(I150
I2
I0
S'only'
p765
tp766
a(I150
I2
F-0.25
S'google'
p767
tp768
a(I202
I1
I0
S'only'
p769
tp770
a(I207
I10
F-0.625
S'other'
p771
tp772
a(I215
I1
F0.25
S'biggest'
p773
tp774
a(I278
I19
F-0.75
S'little'
p775
tp776
as(S'memory'
p777
S'card'
p778
tp779
(lp780
(I31
I1
F-0.25
g301
tp781
a(I56
I7
I0
g303
tp782
a(I75
I15
I0
g305
tp783
a(I75
I15
F0.625
g307
tp784
a(I75
I15
I0
g309
tp785
a(I75
I15
F-0.625
g311
tp786
a(I75
I15
I0
g313
tp787
a(I75
I15
F0.625
g315
tp788
a(I77
I1
I0
g317
tp789
a(I77
I3
I0
g46
tp790
a(I79
I7
I0
g320
tp791
a(I79
I7
F-0.375
g322
tp792
a(I86
I8
F-0.5
S'complaint'
p793
tp794
a(I95
I29
I0
S'internal'
p795
tp796
a(I119
I1
F-0.5
g324
tp797
a(I171
I0
I0
g48
tp798
a(I189
I2
I0
g327
tp799
a(I192
I24
I0
g329
tp800
a(I201
I8
F0.375
g331
tp801
a(I205
I19
I0
g333
tp802
a(I205
I23
I0
g335
tp803
a(I205
I23
F-0.25
g337
tp804
a(I205
I23
I0
g339
tp805
a(I244
I0
F-0.5
S'poor'
p806
tp807
a(I266
I2
I0
g341
tp808
a(I266
I2
I0
g343
tp809
a(I276
I6
I0
g345
tp810
a(I276
I7
I0
g347
tp811
a(I276
I7
I0
g349
tp812
a(I276
I7
I0
g351
tp813
a(I277
I5
F-0.75
g353
tp814
a(I277
I5
I0
g355
tp815
a(I278
I22
F-0.25
g357
tp816
a(I278
I22
I0
g359
tp817
a(I278
I22
I0
g361
tp818
a(I278
I31
I0
g363
tp819
as(S'problems'
p820
tp821
(lp822
(I155
I1
I0
S'only'
p823
tp824
a(I192
I31
F-0.375
S'serious'
p825
tp826
a(I207
I6
I0
S'only'
p827
tp828
as(S'micro'
p829
S'sd'
p830
tp831
(lp832
(I77
I3
F-0.125
g257
tp833
as(S'price'
p834
tp835
(lp836
(I7
I1
F-0.375
S'top'
p837
tp838
a(I15
I0
F-0.25
S'low'
p839
tp840
a(I38
I3
F0.875
S'happy'
p841
tp842
a(I40
I0
I0
S'total'
p843
tp844
a(I46
I2
I0
S'third'
p845
tp846
a(I57
I0
F0.5
S'reasonable'
p847
tp848
a(I62
I2
I0
S'same'
p849
tp850
a(I66
I6
I0
S'same'
p851
tp852
a(I66
I6
I0
S'standard'
p853
tp854
a(I95
I3
I0
S'same'
p855
tp856
a(I102
I6
F-0.25
S'low'
p857
tp858
a(I105
I0
F-0.25
S'low'
p859
tp860
a(I105
I0
I0
S'great'
p861
tp862
a(I130
I3
F0.5
S'reasonable'
p863
tp864
a(I146
I5
F1.0
S'good'
p865
tp866
a(I148
I0
F0.75
S'beautiful'
p867
tp868
a(I156
I1
I0
S'great'
p869
tp870
a(I161
I9
I0
S'very'
p871
tp872
a(I171
I0
F1.0
S'best'
p873
tp874
a(I174
I1
F0.875
S'happier'
p875
tp876
a(I174
I1
I0
S'great'
p877
tp878
a(I176
I2
F0.625
S'aware'
p879
tp880
a(I189
I7
I0
S'great'
p881
tp882
a(I193
I5
F0.75
S'worth'
p883
tp884
a(I201
I0
I0
S'high'
p885
tp886
a(I201
I2
F-0.25
S'lower'
p887
tp888
a(I215
I7
F-0.625
S'bad'
p889
tp890
a(I269
I2
I0
S'retail'
p891
tp892
a(I273
I1
F1.0
S'good'
p893
tp894
a(I274
I0
F-0.25
S'low'
p895
tp896
a(I276
I14
F-0.25
S'lower'
p897
tp898
as(S'lg'
p899
S'optimus'
p900
g501
tp901
(lp902
(I0
I1
F0.25
g280
tp903
a(I37
I2
F0.625
g550
tp904
a(I109
I0
I0
g552
tp905
a(I111
I14
F0.25
g286
tp906
a(I133
I0
F-0.125
S'former'
p907
tp908
a(I133
I0
F-0.625
S'average'
p909
tp910
a(I251
I0
F0.25
g294
tp911
as(S'gorilla'
p912
S'glass'
p913
tp914
(lp915
(I192
I5
I0
S'great'
p916
tp917
as(S'memory'
p918
tp919
(lp920
(I3
I1
I0
S'internal'
p921
tp922
a(I19
I4
F0.25
S'main'
p923
tp924
a(I20
I4
I0
S'install'
p925
tp926
a(I22
I0
I0
S'minimal'
p927
tp928
a(I22
I0
I0
S'internal'
p929
tp930
a(I22
I3
I0
S'internal'
p931
tp932
a(I22
I5
I0
S'internal'
p933
tp934
a(I22
I10
I0
S'internal'
p935
tp936
a(I22
I13
F-0.25
S'low'
p937
tp938
a(I22
I13
I0
S'internal'
p939
tp940
a(I23
I0
F0.375
S'extra'
p941
tp942
a(I23
I0
I0
S'internal'
p943
tp944
a(I26
I4
I0
S'external'
p945
tp946
a(I31
I1
F-0.25
g301
tp947
a(I46
I11
F0.125
S'able'
p948
tp949
a(I57
I2
F-0.375
S'small'
p950
tp951
a(I57
I2
I0
S'internal'
p952
tp953
a(I61
I0
I0
S'external'
p954
tp955
a(I64
I2
I0
S'internal'
p956
tp957
a(I64
I2
I0
S'more'
p958
tp959
a(I66
I2
I0
S'internal'
p960
tp961
a(I66
I6
I0
S'more'
p962
tp963
a(I66
I6
I0
S'internal'
p964
tp965
a(I69
I1
I0
S'more'
p966
tp967
a(I69
I1
I0
S'internal'
p968
tp969
a(I69
I1
F-0.625
S'other'
p970
tp971
a(I75
I1
I0
S'internal'
p972
tp973
a(I75
I2
I0
S'internal'
p974
tp975
a(I75
I5
I0
S'internal'
p976
tp977
a(I75
I5
F0.375
S'extra'
p978
tp979
a(I75
I15
I0
g305
tp980
a(I75
I15
I0
g309
tp981
a(I75
I15
I0
g313
tp982
a(I75
I15
F0.625
g315
tp983
a(I77
I1
I0
g317
tp984
a(I77
I3
I0
g46
tp985
a(I78
I8
I0
S'more'
p986
tp987
a(I79
I7
I0
g320
tp988
a(I79
I7
F-0.375
g322
tp989
a(I79
I9
I0
S'internal'
p990
tp991
a(I86
I8
F-0.5
g793
tp992
a(I95
I20
I0
S'internal'
p993
tp994
a(I95
I29
I0
g795
tp995
a(I99
I8
I0
S'internal'
p996
tp997
a(I99
I15
I0
S'more'
p998
tp999
a(I99
I15
I0
S'internal'
p1000
tp1001
a(I101
I1
F-0.889
S'unfortunate'
p1002
tp1003
a(I104
I4
F-0.625
S'free'
p1004
tp1005
a(I104
I4
I0
S'fast'
p1006
tp1007
a(I111
I9
F-0.5
S'less'
p1008
tp1009
a(I119
I1
F-0.5
g324
tp1010
a(I119
I7
F0.125
S'enough'
p1011
tp1012
a(I126
I2
I0
S'internal'
p1013
tp1014
a(I149
I2
I0
S'internal'
p1015
tp1016
a(I161
I2
I0
S'limited'
p1017
tp1018
a(I171
I0
I0
g48
tp1019
a(I173
I2
I0
S'internal'
p1020
tp1021
a(I189
I2
I0
g327
tp1022
a(I192
I24
I0
g329
tp1023
a(I201
I8
F0.375
g331
tp1024
a(I205
I4
I0
S'internal'
p1025
tp1026
a(I205
I19
I0
g333
tp1027
a(I205
I23
I0
g335
tp1028
a(I205
I23
F-0.25
g337
tp1029
a(I205
I23
I0
g339
tp1030
a(I225
I2
I0
S'internal'
p1031
tp1032
a(I225
I2
F0.5
S'drive'
p1033
tp1034
a(I225
I2
I0
S'same'
p1035
tp1036
a(I225
I2
I0
S'internal'
p1037
tp1038
a(I231
I0
F0.375
S'available'
p1039
tp1040
a(I239
I8
F0.75
S'constant'
p1041
tp1042
a(I239
I8
F-0.25
S'low'
p1043
tp1044
a(I244
I0
F-0.5
g806
tp1045
a(I253
I1
F-0.25
S'low'
p1046
tp1047
a(I253
I1
F0.375
S'available'
p1048
tp1049
a(I263
I3
I0
S'internal'
p1050
tp1051
a(I264
I5
I0
S'full'
p1052
tp1053
a(I266
I2
I0
g341
tp1054
a(I266
I2
I0
g343
tp1055
a(I267
I1
I0
S'more'
p1056
tp1057
a(I267
I1
F0.875
S'happy'
p1058
tp1059
a(I273
I8
I0
S'internal'
p1060
tp1061
a(I276
I1
I0
S'internal'
p1062
tp1063
a(I276
I6
I0
g345
tp1064
a(I276
I7
I0
g347
tp1065
a(I276
I7
I0
g349
tp1066
a(I276
I7
I0
g351
tp1067
a(I277
I5
F-0.75
g353
tp1068
a(I277
I5
I0
g355
tp1069
a(I277
I7
I0
S'internal'
p1070
tp1071
a(I278
I22
F-0.25
g357
tp1072
a(I278
I22
I0
g359
tp1073
a(I278
I22
I0
g361
tp1074
a(I278
I31
I0
g363
tp1075
as(S'google'
p1076
tp1077
(lp1078
(I46
I9
I0
S'such'
p1079
tp1080
a(I161
I6
I0
S'few'
p1081
tp1082
a(I161
I6
F-0.625
S'other'
p1083
tp1084
as(S'lg'
p1085
S'optimus'
p1086
S'f3'
p1087
tp1088
(lp1089
(I109
I0
I0
g552
tp1090
a(I111
I14
F0.25
g286
tp1091
a(I119
I0
F0.25
g288
tp1092
a(I197
I2
F-0.625
g529
tp1093
a(I247
I1
F0.25
g292
tp1094
as(S'features'
p1095
tp1096
(lp1097
(I10
I1
I0
S'great'
p1098
tp1099
a(I42
I2
I0
S'basic'
p1100
tp1101
a(I79
I20
F1.0
S'good'
p1102
tp1103
a(I88
I0
F0.625
S'easy'
p1104
tp1105
a(I91
I3
I0
S'many'
p1106
tp1107
a(I99
I14
F0.875
S'nice'
p1108
tp1109
a(I103
I0
I0
S'useful'
p1110
tp1111
a(I111
I9
F0.375
S'similar'
p1112
tp1113
a(I150
I2
I0
S'more'
p1114
tp1115
a(I150
I3
F1.0
S'good'
p1116
tp1117
a(I166
I0
I0
S'few'
p1118
tp1119
a(I166
I0
F1.0
S'better'
p1120
tp1121
a(I178
I0
I0
S'many'
p1122
tp1123
a(I178
I0
F0.375
S'available'
p1124
tp1125
a(I190
I1
I0
S'cool'
p1126
tp1127
a(I246
I2
I0
S'tech'
p1128
tp1129
as(S'great'
p1130
S'battery'
p1131
S'life'
p1132
tp1133
(lp1134
(I0
I3
I0
g100
tp1135
a(I25
I9
I0
g110
tp1136
a(I29
I3
F1.0
g112
tp1137
a(I46
I14
I0
g118
tp1138
a(I63
I2
I0
g130
tp1139
a(I71
I0
I0
g132
tp1140
a(I71
I0
F0.5
g134
tp1141
a(I79
I20
I0
g142
tp1142
a(I82
I3
I0
g144
tp1143
a(I115
I0
I0
g154
tp1144
a(I115
I0
F0.625
g156
tp1145
a(I119
I6
F-0.625
g158
tp1146
a(I119
I6
I0
g160
tp1147
a(I119
I6
I0
g162
tp1148
a(I138
I0
I0
g164
tp1149
a(I151
I3
I0
g168
tp1150
a(I163
I0
I0
g170
tp1151
a(I170
I2
I0
g172
tp1152
a(I185
I1
I0
g174
tp1153
a(I235
I2
I0
g180
tp1154
a(I254
I1
I0
g186
tp1155
as(S'light'
p1156
S'weight'
p1157
tp1158
(lp1159
(I34
I4
F-0.625
S'lighter'
p1160
tp1161
a(I93
I1
F-0.625
S'light'
p1162
tp1163
a(I93
I1
F0.875
S'important'
p1164
tp1165
a(I106
I3
F-0.625
S'light'
p1166
tp1167
a(I115
I0
F-0.625
S'light'
p1168
tp1169
a(I180
I0
F-0.625
S'light'
p1170
tp1171
a(I185
I1
F-0.625
S'light'
p1172
tp1173
a(I242
I2
F-0.625
S'light'
p1174
tp1175
a(I256
I1
F-0.625
S'light'
p1176
tp1177
as(S'on'
p1178
S'sd'
p1179
S'card'
p1180
tp1181
(lp1182
(I33
I0
F-0.625
g249
tp1183
a(I75
I16
F-0.5
g251
tp1184
a(I75
I16
F-0.375
g253
tp1185
a(I77
I3
F-0.125
g257
tp1186
a(I79
I7
I0
g259
tp1187
a(I94
I11
F-0.75
g261
tp1188
a(I94
I12
I0
g376
tp1189
a(I95
I11
I0
g378
tp1190
a(I97
I2
F0.5
g263
tp1191
a(I104
I14
F0.375
g383
tp1192
a(I155
I2
I0
g265
tp1193
a(I192
I24
I0
g267
tp1194
a(I276
I7
I0
g273
tp1195
as(S'android'
p1196
tp1197
(lp1198
(I34
I7
I0
S'old'
p1199
tp1200
a(I62
I9
I0
S'current'
p1201
tp1202
a(I78
I8
F0.375
S'new'
p1203
tp1204
a(I146
I5
F0.125
S'last'
p1205
tp1206
a(I273
I3
F-0.375
S'serious'
p1207
tp1208
a(I278
I37
I0
S'standard'
p1209
tp1210
a(I278
I41
F-0.25
S'inexpensive'
p1211
tp1212
as(S'thing'
p1213
tp1214
(lp1215
(I3
I2
I0
S'only'
p1216
tp1217
a(I3
I2
F1.0
S'good'
p1218
tp1219
a(I3
I2
I0
S'fast'
p1220
tp1221
a(I51
I3
F-0.5
S'less'
p1222
tp1223
a(I80
I2
I0
S'only'
p1224
tp1225
a(I95
I12
F0.125
S'solid'
p1226
tp1227
a(I95
I29
I0
S'wish'
p1228
tp1229
a(I95
I29
I0
S'least'
p1230
tp1231
a(I97
I1
I0
S'only'
p1232
tp1233
a(I104
I1
I0
S'very'
p1234
tp1235
a(I104
I1
F0.125
S'first'
p1236
tp1237
a(I108
I6
I0
S'only'
p1238
tp1239
a(I108
I6
F0.125
S'memory'
p1240
tp1241
a(I137
I3
F-0.375
S'small'
p1242
tp1243
a(I137
I3
F1.0
S'good'
p1244
tp1245
a(I138
I0
I0
S'only'
p1246
tp1247
a(I157
I4
I0
S'same'
p1248
tp1249
a(I192
I9
F0.125
S'first'
p1250
tp1251
a(I192
I20
I0
S'great'
p1252
tp1253
a(I205
I1
F0.25
S'main'
p1254
tp1255
a(I227
I1
F-0.375
S'beast'
p1256
tp1257
a(I227
I8
I0
S'only'
p1258
tp1259
a(I241
I0
I0
S'only'
p1260
tp1261
a(I273
I4
F-0.75
S'little'
p1262
tp1263
a(I277
I7
F1.0
S'best'
p1264
tp1265
as(S'area'
p1266
tp1267
(lp1268
(I8
I2
F0.75
g6
tp1269
a(I166
I5
I0
S'local'
p1270
tp1271
a(I195
I1
F0.375
S'similar'
p1272
tp1273
a(I246
I3
I0
S'rural'
p1274
tp1275
as(S'great'
p1276
S'battery'
p1277
tp1278
(lp1279
(I0
I3
I0
g100
tp1280
a(I46
I14
I0
g118
tp1281
a(I71
I0
I0
g132
tp1282
a(I79
I20
I0
g142
tp1283
a(I82
I3
I0
g144
tp1284
a(I119
I6
F-0.625
g158
tp1285
a(I151
I3
I0
g168
tp1286
a(I219
I2
I0
S'great'
p1287
tp1288
a(I235
I2
I0
g180
tp1289
a(I254
I1
I0
g186
tp1290
as(S'sure'
p1291
tp1292
(lp1293
(I38
I0
F0.625
S'decent'
p1294
tp1295
a(I210
I17
F0.5
S'compatible'
p1296
tp1297
as(S'micro'
p1298
S'sd'
p1299
S'card'
p1300
tp1301
(lp1302
(I77
I3
F-0.125
g257
tp1303
as(S'size'
p1304
tp1305
(lp1306
(I62
I15
F0.125
S'able'
p1307
tp1308
a(I68
I1
I0
S'same'
p1309
tp1310
a(I107
I1
F0.875
S'nice'
p1311
tp1312
a(I129
I1
F-0.875
S'hard'
p1313
tp1314
a(I129
I1
F0.5
S'drive'
p1315
tp1316
a(I129
I1
F-0.375
S'small'
p1317
tp1318
a(I146
I3
F0.625
S'acceptable'
p1319
tp1320
a(I171
I0
F0.875
S'nice'
p1321
tp1322
a(I197
I1
F0.25
S'larger'
p1323
tp1324
a(I197
I1
F-0.125
S'overall'
p1325
tp1326
a(I229
I2
F0.625
S'perfect'
p1327
tp1328
a(I276
I12
F-0.75
S'wrong'
p1329
tp1330
as(S'seems'
p1331
tp1332
(lp1333
(I37
I11
F-0.625
S'average'
p1334
tp1335
as(S'htc'
p1336
S'one'
p1337
g501
tp1338
(lp1339
(I197
I0
I0
S'temperamental'
p1340
tp1341
as(S'virgin'
p1342
S'mobile'
p1343
tp1344
(lp1345
(I2
I3
F0.625
S'aware'
p1346
tp1347
a(I16
I3
F-0.625
g687
tp1348
a(I35
I0
F-0.125
g689
tp1349
a(I99
I4
I0
g691
tp1350
a(I139
I9
F1.0
S'good'
p1351
tp1352
a(I139
I9
I0
S'mobile'
p1353
tp1354
a(I152
I0
I0
g693
tp1355
a(I157
I8
F0.125
g695
tp1356
a(I192
I21
I0
g697
tp1357
a(I210
I17
F-0.375
g699
tp1358
as(S'battery'
p1359
S'life'
p1360
tp1361
(lp1362
(I0
I3
I0
g100
tp1363
a(I6
I3
F1.0
g102
tp1364
a(I20
I2
F1.0
g104
tp1365
a(I20
I2
F0.625
g106
tp1366
a(I24
I0
F-0.25
g108
tp1367
a(I25
I9
I0
g110
tp1368
a(I29
I3
F1.0
g112
tp1369
a(I37
I4
F-0.5
g114
tp1370
a(I37
I11
F1.0
g116
tp1371
a(I46
I14
I0
g118
tp1372
a(I46
I17
I0
g120
tp1373
a(I46
I17
F-0.25
g122
tp1374
a(I46
I17
F0.125
g124
tp1375
a(I56
I4
F1.0
g126
tp1376
a(I56
I4
F-0.375
g128
tp1377
a(I63
I2
I0
g130
tp1378
a(I71
I0
I0
g132
tp1379
a(I71
I0
F0.5
g134
tp1380
a(I75
I8
F1.0
g136
tp1381
a(I79
I1
F-0.75
g138
tp1382
a(I79
I2
F0.625
g140
tp1383
a(I79
I20
I0
g142
tp1384
a(I82
I3
I0
g144
tp1385
a(I87
I3
F0.125
g146
tp1386
a(I89
I3
F-0.5
g148
tp1387
a(I89
I3
F-0.125
g150
tp1388
a(I110
I5
I0
g152
tp1389
a(I115
I0
I0
g154
tp1390
a(I115
I0
F0.625
g156
tp1391
a(I119
I6
F-0.625
g158
tp1392
a(I119
I6
I0
g160
tp1393
a(I119
I6
I0
g162
tp1394
a(I138
I0
I0
g164
tp1395
a(I140
I1
I0
g166
tp1396
a(I151
I3
I0
g168
tp1397
a(I163
I0
I0
g170
tp1398
a(I170
I2
I0
g172
tp1399
a(I185
I1
I0
g174
tp1400
a(I201
I0
F-0.75
g176
tp1401
a(I212
I3
F1.0
g178
tp1402
a(I235
I2
I0
g180
tp1403
a(I245
I2
I0
g182
tp1404
a(I248
I11
F1.0
g184
tp1405
a(I254
I1
I0
g186
tp1406
a(I259
I8
I0
g188
tp1407
a(I260
I0
F-0.5
g190
tp1408
a(I260
I0
I0
g192
tp1409
a(I261
I0
F1.0
g194
tp1410
a(I277
I3
F1.0
g196
tp1411
a(I278
I11
F-0.25
g198
tp1412
a(I278
I15
F-0.5
g200
tp1413
a(I278
I18
I0
g202
tp1414
as(S'root'
p1415
tp1416
(lp1417
(I163
I0
F0.625
S'easy'
p1418
tp1419
a(I216
I2
F0.625
S'easy'
p1420
tp1421
as(S'move'
p1422
tp1423
(lp1424
(I26
I4
F-0.5
g706
tp1425
a(I207
I8
F-0.75
S'worse'
p1426
tp1427
as(S'virgin'
p1428
tp1429
(lp1430
(I2
I3
F0.625
g1346
tp1431
a(I16
I3
F-0.625
g687
tp1432
a(I35
I0
F-0.125
g689
tp1433
a(I95
I8
F0.625
S'acceptable'
p1434
tp1435
a(I99
I4
I0
g691
tp1436
a(I139
I4
F1.0
S'good'
p1437
tp1438
a(I139
I9
F1.0
g1351
tp1439
a(I139
I9
I0
g1353
tp1440
a(I152
I0
I0
g693
tp1441
a(I157
I8
F0.125
g695
tp1442
a(I184
I3
F-0.25
S'cheaper'
p1443
tp1444
a(I192
I21
I0
g697
tp1445
a(I210
I17
F-0.375
g699
tp1446
as(S'apps'
p1447
S'on'
p1448
S'sd'
p1449
tp1450
(lp1451
(I6
I2
F0.125
g426
tp1452
a(I62
I11
I0
S'many'
p1453
tp1454
a(I62
I11
F0.375
S'available'
p1455
tp1456
a(I79
I7
F0.125
g428
tp1457
a(I79
I7
I0
g259
tp1458
a(I95
I25
I0
g431
tp1459
a(I95
I25
I0
g433
tp1460
a(I110
I0
I0
g435
tp1461
a(I110
I0
I0
g437
tp1462
a(I135
I2
I0
g439
tp1463
a(I135
I2
I0
g441
tp1464
a(I153
I0
I0
g443
tp1465
a(I173
I1
F-0.75
g445
tp1466
a(I177
I2
F-0.75
g447
tp1467
a(I192
I24
I0
g267
tp1468
a(I266
I2
F-0.125
g452
tp1469
a(I275
I3
I0
g454
tp1470
a(I276
I7
F0.125
g456
tp1471
a(I276
I7
F0.25
g458
tp1472
a(I276
I7
I0
g273
tp1473
a(I276
I7
F-0.25
g461
tp1474
a(I276
I7
I0
g463
tp1475
as(S'back'
p1476
tp1477
(lp1478
(I30
I8
F0.5
S'slick'
p1479
tp1480
a(I274
I4
I0
S'more'
p1481
tp1482
as(S'fine'
p1483
tp1484
(lp1485
(I95
I26
I0
S'crush'
p1486
tp1487
a(I166
I3
F-0.375
S'simple'
p1488
tp1489
a(I192
I37
F0.125
S'entertaining'
p1490
tp1491
as(S'life'
p1492
tp1493
(lp1494
(I6
I3
F1.0
g102
tp1495
a(I20
I2
F1.0
g104
tp1496
a(I20
I2
F0.625
g106
tp1497
a(I25
I9
I0
g110
tp1498
a(I29
I3
F1.0
g112
tp1499
a(I37
I11
F1.0
g116
tp1500
a(I46
I17
F0.125
g124
tp1501
a(I56
I4
F1.0
g126
tp1502
a(I56
I4
F-0.375
g128
tp1503
a(I63
I2
I0
g130
tp1504
a(I71
I0
F0.5
g134
tp1505
a(I75
I8
F1.0
g136
tp1506
a(I79
I1
F-0.75
g138
tp1507
a(I79
I2
F0.625
g140
tp1508
a(I87
I3
F0.125
g146
tp1509
a(I89
I3
F-0.125
g150
tp1510
a(I110
I5
I0
g152
tp1511
a(I115
I0
I0
g154
tp1512
a(I115
I0
F0.625
g156
tp1513
a(I119
I6
I0
g160
tp1514
a(I119
I6
I0
g162
tp1515
a(I132
I1
F0.625
S'easier'
p1516
tp1517
a(I138
I0
I0
g164
tp1518
a(I140
I1
I0
g166
tp1519
a(I163
I0
I0
g170
tp1520
a(I170
I2
I0
g172
tp1521
a(I185
I1
I0
g174
tp1522
a(I212
I3
F1.0
g178
tp1523
a(I245
I2
I0
g182
tp1524
a(I257
I5
F0.625
S'easy'
p1525
tp1526
a(I260
I0
F-0.5
g190
tp1527
a(I260
I0
I0
g192
tp1528
a(I277
I3
F1.0
g196
tp1529
as(S'do'
p1530
S"n't"
p1531
S'use'
p1532
tp1533
(lp1534
(I10
I9
I0
S'normal'
p1535
tp1536
a(I10
I9
F0.5
S'expensive'
p1537
tp1538
a(I29
I3
I0
S'basic'
p1539
tp1540
a(I29
I3
I0
S'great'
p1541
tp1542
a(I273
I26
F-0.75
S'little'
p1543
tp1544
as(S'of'
p1545
S'nternal'
p1546
S'memory'
p1547
tp1548
(lp1549
(I22
I13
F-0.25
g937
tp1550
a(I22
I13
I0
g939
tp1551
a(I23
I0
F0.375
g941
tp1552
a(I23
I0
I0
g943
tp1553
a(I57
I2
F-0.375
g950
tp1554
a(I57
I2
I0
g952
tp1555
a(I64
I2
I0
g956
tp1556
a(I64
I2
I0
g958
tp1557
a(I75
I1
I0
g972
tp1558
a(I75
I5
I0
g976
tp1559
a(I75
I5
F0.375
g978
tp1560
a(I77
I1
I0
g317
tp1561
a(I95
I20
I0
g993
tp1562
a(I99
I15
I0
g998
tp1563
a(I99
I15
I0
g1000
tp1564
a(I149
I2
I0
g1015
tp1565
a(I173
I2
I0
g1020
tp1566
a(I189
I2
I0
g327
tp1567
a(I192
I24
I0
g329
tp1568
a(I266
I2
I0
g341
tp1569
a(I266
I2
I0
g343
tp1570
a(I276
I1
I0
g1062
tp1571
a(I276
I6
I0
g345
tp1572
a(I276
I7
I0
g347
tp1573
a(I276
I7
I0
g349
tp1574
a(I276
I7
I0
g351
tp1575
a(I277
I7
I0
g1070
tp1576
a(I278
I22
F-0.25
g357
tp1577
a(I278
I22
I0
g359
tp1578
a(I278
I22
I0
g361
tp1579
as(S'lg'
p1580
S'optimus'
p1581
tp1582
(lp1583
(I0
I1
F0.25
g280
tp1584
a(I37
I2
F0.625
g550
tp1585
a(I79
I0
F0.125
g282
tp1586
a(I79
I0
F0.25
g284
tp1587
a(I109
I0
I0
g552
tp1588
a(I111
I14
F0.25
g286
tp1589
a(I119
I0
F0.25
g288
tp1590
a(I119
I8
F0.25
g290
tp1591
a(I133
I0
F-0.125
g907
tp1592
a(I133
I0
F-0.625
g909
tp1593
a(I247
I1
F0.25
g292
tp1594
a(I251
I0
F0.25
g294
tp1595
as(S'user'
p1596
tp1597
(lp1598
(I26
I1
F0.875
S'nice'
p1599
tp1600
a(I150
I4
F-0.625
S'bad'
p1601
tp1602
a(I150
I4
F-0.375
S'small'
p1603
tp1604
a(I150
I12
F-0.125
S'complicated'
p1605
tp1606
a(I150
I12
F-0.25
S'white'
p1607
tp1608
a(I166
I0
I0
S'basic'
p1609
tp1610
a(I166
I6
I0
S'basic'
p1611
tp1612
a(I226
I16
F0.5
S'advanced'
p1613
tp1614
a(I226
I16
F0.875
S'music'
p1615
tp1616
a(I226
I16
I0
S'such'
p1617
tp1618
as(S'feel'
p1619
tp1620
(lp1621
(I18
I2
I0
S'great'
p1622
tp1623
a(I26
I1
I0
S'great'
p1624
tp1625
a(I160
I0
I0
S'great'
p1626
tp1627
a(I180
I3
F1.0
S'good'
p1628
tp1629
a(I241
I1
F-0.625
S'free'
p1630
tp1631
as(S'smart'
p1632
tp1633
(lp1634
(I16
I1
F-0.25
S'modern'
p1635
tp1636
a(I20
I0
F0.125
S'first'
p1637
tp1638
a(I34
I1
F0.125
S'first'
p1639
tp1640
a(I129
I0
F0.125
S'first'
p1641
tp1642
a(I144
I0
F0.125
S'first'
p1643
tp1644
a(I145
I0
I0
S'android'
p1645
tp1646
a(I172
I5
I0
S'different'
p1647
tp1648
a(I184
I0
F0.125
S'first'
p1649
tp1650
a(I211
I0
F0.125
S'first'
p1651
tp1652
a(I257
I0
F0.375
S'newer'
p1653
tp1654
a(I269
I8
I0
S'standard'
p1655
tp1656
as(S'samsung'
p1657
S'galaxy'
p1658
tp1659
(lp1660
(I56
I13
I0
S'large'
p1661
tp1662
as(S'a'
p1663
S'micro'
p1664
S'sd'
p1665
tp1666
(lp1667
(I77
I3
F-0.125
g257
tp1668
as(S'space'
p1669
tp1670
(lp1671
(I22
I12
I0
S'more'
p1672
tp1673
a(I22
I12
I0
S'more'
p1674
tp1675
a(I22
I17
F0.375
S'much'
p1676
tp1677
a(I108
I8
I0
S'more'
p1678
tp1679
a(I120
I2
F-0.625
S'free'
p1680
tp1681
a(I122
I1
I0
S'more'
p1682
tp1683
a(I129
I2
F-0.5
S'open'
p1684
tp1685
a(I135
I2
F-0.25
S'low'
p1686
tp1687
a(I135
I2
F-0.75
S'unable'
p1688
tp1689
a(I161
I2
F0.5
S'accurate'
p1690
tp1691
a(I189
I5
I0
S'many'
p1692
tp1693
a(I207
I6
F-0.75
S'little'
p1694
tp1695
a(I248
I11
I0
S'more'
p1696
tp1697
a(I263
I1
I0
S'internal'
p1698
tp1699
a(I266
I3
F0.125
S'enough'
p1700
tp1701
a(I266
I5
F0.125
S'enough'
p1702
tp1703
a(I268
I2
F-0.5
S'less'
p1704
tp1705
a(I269
I9
F0.375
S'available'
p1706
tp1707
a(I269
I10
F0.375
S'available'
p1708
tp1709
a(I273
I10
F0.875
S'music'
p1710
tp1711
as(g1663
S'sd'
p1712
S'card'
p1713
tp1714
(lp1715
(I33
I0
F-0.625
g249
tp1716
a(I75
I16
F-0.5
g251
tp1717
a(I75
I16
F-0.375
g253
tp1718
a(I75
I17
I0
g255
tp1719
a(I77
I3
F-0.125
g257
tp1720
a(I79
I7
I0
g259
tp1721
a(I94
I11
F-0.75
g261
tp1722
a(I94
I12
I0
g376
tp1723
a(I95
I11
I0
g378
tp1724
a(I95
I29
I0
g380
tp1725
a(I97
I2
F0.5
g263
tp1726
a(I104
I14
F0.375
g383
tp1727
a(I155
I2
I0
g265
tp1728
a(I192
I24
I0
g267
tp1729
a(I275
I4
I0
g269
tp1730
a(I275
I4
I0
g271
tp1731
a(I276
I7
I0
g273
tp1732
a(I278
I39
I0
g390
tp1733
a(I278
I39
F0.5
g392
tp1734
as(S'speaker'
p1735
tp1736
(lp1737
(I30
I11
F0.375
S'loud'
p1738
tp1739
a(I62
I26
F-0.25
S'disappointing'
p1740
tp1741
a(I119
I4
F1.0
S'better'
p1742
tp1743
a(I276
I6
F0.875
S'music'
p1744
tp1745
as(S'external'
p1746
S'sd'
p1747
S'card'
p1748
tp1749
(lp1750
(I79
I7
I0
g259
tp1751
a(I192
I24
I0
g267
tp1752
a(I275
I4
I0
g269
tp1753
a(I275
I4
I0
g271
tp1754
a(I276
I7
I0
g273
tp1755
as(S'dual'
p1756
S'core'
p1757
S'processor'
p1758
tp1759
(lp1760
(I99
I1
F0.25
S'powerful'
p1761
tp1762
a(I111
I7
I0
g54
tp1763
a(I114
I4
I0
g56
tp1764
a(I114
I4
F-0.75
g58
tp1765
as(S'pretty'
p1766
tp1767
(lp1768
(I116
I3
F-0.125
S'overall'
p1769
tp1770
a(I116
I3
I0
S'great'
p1771
tp1772
a(I186
I2
F1.0
S'good'
p1773
tp1774
as(S'elite'
p1775
tp1776
(lp1777
(I59
I8
F0.375
S'similar'
p1778
tp1779
as(S'time'
p1780
tp1781
(lp1782
(I17
I2
I0
S'third'
p1783
tp1784
a(I23
I0
F-0.75
S'short'
p1785
tp1786
a(I56
I14
F0.125
S'last'
p1787
tp1788
a(I79
I3
F-0.5
S'less'
p1789
tp1790
a(I79
I4
I0
S'faster'
p1791
tp1792
a(I132
I8
F-0.75
S'short'
p1793
tp1794
a(I137
I2
F-0.5
S'long'
p1795
tp1796
a(I156
I0
F0.125
S'first'
p1797
tp1798
a(I166
I2
F-0.5
S'long'
p1799
tp1800
a(I181
I7
I0
S'same'
p1801
tp1802
a(I184
I5
F0.375
S'much'
p1803
tp1804
a(I186
I2
F0.125
S'first'
p1805
tp1806
a(I222
I1
F-0.5
S'long'
p1807
tp1808
a(I239
I15
I0
S'such'
p1809
tp1810
a(I248
I2
F-0.75
S'difficult'
p1811
tp1812
as(S'f'
p1813
S'do'
p1814
S"n't"
p1815
S'use'
p1816
tp1817
(lp1818
(I10
I9
I0
g1535
tp1819
a(I10
I9
F0.5
g1537
tp1820
a(I29
I3
I0
g1539
tp1821
a(I29
I3
I0
g1541
tp1822
a(I273
I26
F-0.75
g1543
tp1823
as(S'for'
p1824
S'virgin'
p1825
S'mobile'
p1826
tp1827
(lp1828
(I35
I0
F-0.125
g689
tp1829
a(I152
I0
I0
g693
tp1830
a(I157
I8
F0.125
g695
tp1831
a(I192
I21
I0
g697
tp1832
as(S'storage'
p1833
tp1834
(lp1835
(I26
I2
I0
g13
tp1836
a(I26
I2
I0
g15
tp1837
a(I26
I2
I0
g17
tp1838
a(I26
I2
F-0.25
g19
tp1839
a(I35
I0
F0.125
S'enough'
p1840
tp1841
a(I35
I0
I0
S'more'
p1842
tp1843
a(I38
I1
F-0.75
g652
tp1844
a(I38
I1
I0
g654
tp1845
a(I62
I4
F1.0
S'good'
p1846
tp1847
a(I62
I4
F-0.75
S'sad'
p1848
tp1849
a(I63
I1
F-0.75
S'little'
p1850
tp1851
a(I73
I1
I0
S'quick'
p1852
tp1853
a(I75
I3
F0.5
S'drive'
p1854
tp1855
a(I94
I13
F-0.75
g656
tp1856
a(I94
I13
I0
g658
tp1857
a(I99
I13
I0
g21
tp1858
a(I122
I0
I0
S'external'
p1859
tp1860
a(I124
I2
I0
S'same'
p1861
tp1862
a(I124
I2
I0
S'adequate'
p1863
tp1864
a(I135
I2
F-0.25
S'low'
p1865
tp1866
a(I155
I1
I0
g661
tp1867
a(I157
I4
I0
g23
tp1868
a(I163
I2
F0.625
S'aware'
p1869
tp1870
a(I180
I7
I0
g25
tp1871
a(I180
I9
I0
g27
tp1872
a(I180
I10
I0
g29
tp1873
a(I183
I1
I0
g667
tp1874
a(I214
I4
I0
g31
tp1875
a(I230
I1
I0
g33
tp1876
a(I239
I6
I0
g671
tp1877
a(I248
I4
I0
g673
tp1878
a(I269
I13
I0
g675
tp1879
a(I275
I2
I0
g677
tp1880
a(I275
I3
I0
g35
tp1881
a(I275
I8
I0
g37
tp1882
a(I275
I8
F-0.25
g39
tp1883
as(S'nternal'
p1884
S'memory'
p1885
tp1886
(lp1887
(I3
I1
I0
g921
tp1888
a(I22
I0
I0
g927
tp1889
a(I22
I0
I0
g929
tp1890
a(I22
I3
I0
g931
tp1891
a(I22
I5
I0
g933
tp1892
a(I22
I10
I0
g935
tp1893
a(I22
I13
F-0.25
g937
tp1894
a(I22
I13
I0
g939
tp1895
a(I23
I0
F0.375
g941
tp1896
a(I23
I0
I0
g943
tp1897
a(I57
I2
F-0.375
g950
tp1898
a(I57
I2
I0
g952
tp1899
a(I64
I2
I0
g956
tp1900
a(I64
I2
I0
g958
tp1901
a(I66
I2
I0
g960
tp1902
a(I66
I6
I0
g962
tp1903
a(I66
I6
I0
g964
tp1904
a(I69
I1
I0
g966
tp1905
a(I69
I1
I0
g968
tp1906
a(I69
I1
F-0.625
g970
tp1907
a(I75
I1
I0
g972
tp1908
a(I75
I2
I0
g974
tp1909
a(I75
I5
I0
g976
tp1910
a(I75
I5
F0.375
g978
tp1911
a(I75
I15
I0
g305
tp1912
a(I75
I15
I0
g309
tp1913
a(I75
I15
I0
g313
tp1914
a(I75
I15
F0.625
g315
tp1915
a(I77
I1
I0
g317
tp1916
a(I77
I3
I0
g46
tp1917
a(I79
I7
I0
g320
tp1918
a(I79
I7
F-0.375
g322
tp1919
a(I79
I9
I0
g990
tp1920
a(I95
I20
I0
g993
tp1921
a(I95
I29
I0
g795
tp1922
a(I99
I8
I0
g996
tp1923
a(I99
I15
I0
g998
tp1924
a(I99
I15
I0
g1000
tp1925
a(I126
I2
I0
g1013
tp1926
a(I149
I2
I0
g1015
tp1927
a(I173
I2
I0
g1020
tp1928
a(I189
I2
I0
g327
tp1929
a(I192
I24
I0
g329
tp1930
a(I205
I4
I0
g1025
tp1931
a(I225
I2
I0
g1031
tp1932
a(I225
I2
F0.5
g1033
tp1933
a(I225
I2
I0
g1035
tp1934
a(I225
I2
I0
g1037
tp1935
a(I263
I3
I0
g1050
tp1936
a(I266
I2
I0
g341
tp1937
a(I266
I2
I0
g343
tp1938
a(I273
I8
I0
g1060
tp1939
a(I276
I1
I0
g1062
tp1940
a(I276
I6
I0
g345
tp1941
a(I276
I7
I0
g347
tp1942
a(I276
I7
I0
g349
tp1943
a(I276
I7
I0
g351
tp1944
a(I277
I5
F-0.75
g353
tp1945
a(I277
I5
I0
g355
tp1946
a(I277
I7
I0
g1070
tp1947
a(I278
I22
F-0.25
g357
tp1948
a(I278
I22
I0
g359
tp1949
a(I278
I22
I0
g361
tp1950
a(I278
I31
I0
g363
tp1951
as(S'4g'
p1952
S'lte'
p1953
tp1954
(lp1955
(I276
I0
F0.125
S'first'
p1956
tp1957
a(I276
I3
F-0.5
S'heavier'
p1958
tp1959
as(S'screen'
p1960
tp1961
(lp1962
(I1
I1
F0.5
S'clear'
p1963
tp1964
a(I22
I5
F-0.25
S'past'
p1965
tp1966
a(I24
I0
F1.0
S'good'
p1967
tp1968
a(I34
I3
F0.875
S'nice'
p1969
tp1970
a(I34
I3
F0.5
S'clear'
p1971
tp1972
a(I62
I25
F0.875
S'nice'
p1973
tp1974
a(I85
I2
I0
S'plastic'
p1975
tp1976
a(I86
I2
I0
S'large'
p1977
tp1978
a(I86
I2
F0.625
S'easy'
p1979
tp1980
a(I94
I17
F-0.75
S'bright'
p1981
tp1982
a(I95
I10
F0.625
S'easy'
p1983
tp1984
a(I95
I10
I0
S'quick'
p1985
tp1986
a(I95
I10
I0
S'adequate'
p1987
tp1988
a(I96
I2
I0
S'great'
p1989
tp1990
a(I102
I3
I0
S'great'
p1991
tp1992
a(I102
I3
I0
S'fast'
p1993
tp1994
a(I104
I9
F-0.375
S'small'
p1995
tp1996
a(I112
I3
F0.25
S'responsive'
p1997
tp1998
a(I114
I5
F-0.25
S'low'
p1999
tp2000
a(I118
I0
F0.25
S'sharp'
p2001
tp2002
a(I129
I1
F0.125
S'colorful'
p2003
tp2004
a(I146
I6
I0
S'substantial'
p2005
tp2006
a(I151
I3
F0.5
S'clear'
p2007
tp2008
a(I176
I1
F-0.25
S'giant'
p2009
tp2010
a(I176
I1
I0
S'real'
p2011
tp2012
a(I185
I1
F-0.75
S'bright'
p2013
tp2014
a(I201
I5
F0.25
S'larger'
p2015
tp2016
a(I215
I15
I0
S'adequate'
p2017
tp2018
a(I219
I2
I0
S'great'
p2019
tp2020
a(I246
I4
I0
S'lightweight'
p2021
tp2022
a(I246
I4
I0
S'big'
p2023
tp2024
a(I246
I4
F0.5
S'touch'
p2025
tp2026
a(I247
I3
F0.25
S'larger'
p2027
tp2028
a(I259
I10
F0.125
S'last'
p2029
tp2030
a(I259
I10
I0
S'least'
p2031
tp2032
a(I278
I5
F0.125
S'visible'
p2033
tp2034
as(S'everything'
p2035
tp2036
(lp2037
(I51
I1
I0
S'more'
p2038
tp2039
a(I80
I1
I0
S'incredible'
p2040
tp2041
a(I99
I9
F0.5
S'absolute'
p2042
tp2043
a(I99
I9
F1.0
S'best'
p2044
tp2045
a(I128
I1
F0.25
S'responsive'
p2046
tp2047
a(I146
I1
F0.375
S'available'
p2048
tp2049
a(I239
I8
F-0.25
S'google'
p2050
tp2051
as(S'r'
p2052
S'sd'
p2053
S'card'
p2054
tp2055
(lp2056
(I33
I0
F-0.625
g249
tp2057
a(I75
I16
F-0.5
g251
tp2058
a(I75
I16
F-0.375
g253
tp2059
a(I75
I17
I0
g255
tp2060
a(I77
I3
F-0.125
g257
tp2061
a(I79
I7
I0
g259
tp2062
a(I94
I11
F-0.75
g261
tp2063
a(I94
I12
I0
g376
tp2064
a(I95
I11
I0
g378
tp2065
a(I95
I29
I0
g380
tp2066
a(I97
I2
F0.5
g263
tp2067
a(I104
I14
F0.375
g383
tp2068
a(I155
I2
I0
g265
tp2069
a(I192
I24
I0
g267
tp2070
a(I275
I4
I0
g269
tp2071
a(I275
I4
I0
g271
tp2072
a(I276
I7
I0
g273
tp2073
a(I278
I39
I0
g390
tp2074
a(I278
I39
F0.5
g392
tp2075
as(S'samsung'
p2076
tp2077
(lp2078
(I49
I11
F0.125
S'able'
p2079
tp2080
a(I273
I4
F1.0
S'good'
p2081
tp2082
as(S'camera'
p2083
tp2084
(lp2085
(I0
I3
I0
S'great'
p2086
tp2087
a(I1
I4
F1.0
S'good'
p2088
tp2089
a(I1
I4
F1.0
S'best'
p2090
tp2091
a(I1
I4
F1.0
S'good'
p2092
tp2093
a(I25
I7
I0
S'only'
p2094
tp2095
a(I25
I7
F-0.875
S'negative'
p2096
tp2097
a(I110
I7
I0
S'great'
p2098
tp2099
a(I146
I2
I0
S'rear'
p2100
tp2101
a(I164
I0
F-0.125
S'super'
p2102
tp2103
a(I185
I1
I0
S'great'
p2104
tp2105
a(I215
I16
I0
S'great'
p2106
tp2107
a(I247
I3
I0
S'rear'
p2108
tp2109
a(I265
I1
F-0.5
S'open'
p2110
tp2111
a(I274
I11
I0
S'rear'
p2112
tp2113
a(I274
I12
I0
S'rear'
p2114
tp2115
a(I274
I12
F1.0
S'best'
p2116
tp2117
as(S'games'
p2118
tp2119
(lp2120
(I22
I14
F0.25
S'bigger'
p2121
tp2122
a(I25
I10
I0
S'play'
p2123
tp2124
a(I25
I10
F-0.25
S'intensive'
p2125
tp2126
a(I38
I2
I0
S'many'
p2127
tp2128
a(I62
I15
I0
S'many'
p2129
tp2130
a(I111
I14
I0
S'only'
p2131
tp2132
a(I129
I3
I0
S'limited'
p2133
tp2134
a(I163
I1
I0
S'play'
p2135
tp2136
a(I192
I17
I0
S'fast'
p2137
tp2138
a(I192
I35
I0
S'large'
p2139
tp2140
a(I192
I35
F-0.625
S'addictive'
p2141
tp2142
a(I269
I9
I0
S'many'
p2143
tp2144
a(I276
I6
I0
S'large'
p2145
tp2146
as(S'take'
p2147
tp2148
(lp2149
(I22
I7
F0.125
S'first'
p2150
tp2151
as(S'lg'
p2152
S'f3'
p2153
tp2154
(lp2155
(I109
I0
I0
g552
tp2156
a(I111
I14
F0.25
g286
tp2157
a(I119
I0
F0.25
g288
tp2158
a(I192
I5
F-0.625
S'other'
p2159
tp2160
a(I192
I5
I0
S'current'
p2161
tp2162
a(I197
I2
F-0.625
g529
tp2163
a(I247
I1
F0.25
g292
tp2164
as(S'optimus'
p2165
S'elite'
p2166
tp2167
(lp2168
(I0
I1
F0.25
g280
tp2169
a(I277
I1
I0
g523
tp2170
as(S'battery'
p2171
S'life'
p2172
S'excellent'
p2173
tp2174
(lp2175
(I259
I8
I0
g188
tp2176
as(S'galaxy'
p2177
tp2178
(lp2179
(I56
I13
I0
g1661
tp2180
as(S'people'
p2181
tp2182
(lp2183
(I8
I3
I0
S'most'
p2184
tp2185
a(I87
I15
I0
S'most'
p2186
tp2187
a(I95
I7
I0
S'most'
p2188
tp2189
a(I99
I8
I0
S'most'
p2190
tp2191
a(I139
I4
F0.75
S'due'
p2192
tp2193
a(I150
I8
I0
S'more'
p2194
tp2195
a(I150
I8
I0
S'submit'
p2196
tp2197
a(I155
I1
I0
S'many'
p2198
tp2199
a(I161
I8
F1.0
S'good'
p2200
tp2201
a(I180
I9
I0
S'most'
p2202
tp2203
a(I226
I17
I0
S'most'
p2204
tp2205
a(I239
I16
I0
S'many'
p2206
tp2207
as(S'many'
p2208
S'apps'
p2209
tp2210
(lp2211
(I55
I4
I0
S'many'
p2212
tp2213
a(I55
I4
I0
S'many'
p2214
tp2215
a(I62
I11
I0
g1453
tp2216
a(I62
I11
F0.375
g1455
tp2217
a(I77
I2
I0
S'such'
p2218
tp2219
a(I77
I2
F-0.125
S'slow'
p2220
tp2221
a(I79
I17
I0
S'many'
p2222
tp2223
a(I95
I5
I0
S'many'
p2224
tp2225
a(I103
I0
I0
S'many'
p2226
tp2227
a(I107
I3
I0
S'many'
p2228
tp2229
a(I126
I4
I0
S'many'
p2230
tp2231
a(I126
I4
I0
S'unnecessary'
p2232
tp2233
a(I132
I4
I0
S'many'
p2234
tp2235
a(I153
I0
I0
g443
tp2236
a(I185
I3
I0
S'many'
p2237
tp2238
a(I192
I5
I0
g710
tp2239
a(I251
I5
I0
S'many'
p2240
tp2241
a(I259
I1
I0
S'many'
p2242
tp2243
a(I259
I1
I0
S'more'
p2244
tp2245
a(I275
I9
I0
S'many'
p2246
tp2247
as(S'battery'
p2248
tp2249
(lp2250
(I0
I3
I0
g100
tp2251
a(I24
I0
F-0.25
g108
tp2252
a(I37
I4
F-0.5
g114
tp2253
a(I46
I14
I0
g118
tp2254
a(I46
I17
I0
g120
tp2255
a(I46
I17
F-0.25
g122
tp2256
a(I59
I7
F0.625
S'removable'
p2257
tp2258
a(I71
I0
I0
g132
tp2259
a(I77
I2
I0
S'many'
p2260
tp2261
a(I79
I20
I0
g142
tp2262
a(I82
I3
I0
g144
tp2263
a(I89
I3
F-0.5
g148
tp2264
a(I99
I5
F-0.25
S'low'
p2265
tp2266
a(I119
I6
F-0.625
g158
tp2267
a(I136
I2
F0.25
S'larger'
p2268
tp2269
a(I151
I3
I0
g168
tp2270
a(I166
I2
F0.125
S'last'
p2271
tp2272
a(I180
I3
I0
S'big'
p2273
tp2274
a(I182
I1
F1.0
S'good'
p2275
tp2276
a(I184
I6
F0.375
S'standby'
p2277
tp2278
a(I184
I6
F-0.625
S'free'
p2279
tp2280
a(I184
I6
F0.375
S'new'
p2281
tp2282
a(I184
I6
I0
S'same'
p2283
tp2284
a(I201
I0
F-0.75
g176
tp2285
a(I201
I2
F-0.5
S'longer'
p2286
tp2287
a(I215
I6
F0.375
S'confident'
p2288
tp2289
a(I219
I2
I0
g1287
tp2290
a(I222
I1
F0.125
S'last'
p2291
tp2292
a(I224
I4
I0
S'full'
p2293
tp2294
a(I235
I2
I0
g180
tp2295
a(I248
I11
F1.0
g184
tp2296
a(I254
I1
I0
g186
tp2297
a(I259
I8
I0
g188
tp2298
a(I261
I0
F1.0
g194
tp2299
a(I278
I11
F-0.25
g198
tp2300
a(I278
I13
F-0.75
S'difficult'
p2301
tp2302
a(I278
I13
F-0.375
S'smaller'
p2303
tp2304
a(I278
I15
F-0.5
g200
tp2305
a(I278
I18
I0
g202
tp2306
as(S'works'
p2307
tp2308
(lp2309
(I20
I4
I0
S'great'
p2310
tp2311
a(I40
I3
F0.5
S'second'
p2312
tp2313
a(I40
I3
I0
S'great'
p2314
tp2315
a(I70
I3
F0.875
S'happy'
p2316
tp2317
a(I203
I1
I0
S'lightweight'
p2318
tp2319
a(I277
I4
I0
S'great'
p2320
tp2321
as(S'to'
p2322
S'move'
p2323
S'apps'
p2324
tp2325
(lp2326
(I6
I2
F0.125
g426
tp2327
a(I26
I4
F-0.5
g706
tp2328
a(I173
I1
F-0.75
g445
tp2329
a(I177
I2
F-0.75
g447
tp2330
a(I192
I5
I0
g710
tp2331
a(I192
I18
F-0.625
g712
tp2332
a(I192
I18
I0
g714
tp2333
a(I276
I7
F0.125
g456
tp2334
a(I276
I7
F0.25
g458
tp2335
a(I276
I7
F-0.25
g461
tp2336
a(I276
I7
I0
g463
tp2337
as(S'better'
p2338
tp2339
(lp2340
(I34
I7
F0.375
S'much'
p2341
tp2342
a(I149
I0
F0.375
S'much'
p2343
tp2344
a(I201
I3
F0.375
S'much'
p2345
tp2346
a(I224
I9
F-0.125
S'mine'
p2347
tp2348
as(S'device'
p2349
tp2350
(lp2351
(I6
I0
F-0.625
S'light'
p2352
tp2353
a(I6
I0
I0
S'sturdy'
p2354
tp2355
a(I22
I16
F-0.5
S'less'
p2356
tp2357
a(I22
I16
F1.0
S'best'
p2358
tp2359
a(I146
I5
F1.0
S'best'
p2360
tp2361
a(I188
I1
F1.0
S'best'
p2362
tp2363
a(I188
I1
I0
S'awhile'
p2364
tp2365
a(I192
I33
I0
S'android'
p2366
tp2367
as(S'bells'
p2368
S'and'
p2369
S'whistles'
p2370
tp2371
(lp2372
(I36
I4
F1.0
S'good'
p2373
tp2374
a(I79
I6
I0
S'few'
p2375
tp2376
a(I79
I6
F0.375
S'extra'
p2377
tp2378
as(S'of'
p2379
S'virgin'
p2380
S'mobile'
p2381
tp2382
(lp2383
(I35
I0
F-0.125
g689
tp2384
a(I99
I4
I0
g691
tp2385
a(I157
I8
F0.125
g695
tp2386
a(I192
I21
I0
g697
tp2387
as(S'lot'
p2388
S'of'
p2389
S'apps'
p2390
tp2391
(lp2392
(I20
I3
I0
S'install'
p2393
tp2394
a(I248
I5
I0
S'adequate'
p2395
tp2396
a(I275
I3
I0
g454
tp2397
as(S'light'
p2398
tp2399
(lp2400
(I25
I8
F-0.5
S'poor'
p2401
tp2402
a(I132
I10
F1.0
S'good'
p2403
tp2404
a(I148
I1
F-0.125
S'super'
p2405
tp2406
a(I233
I1
F-0.25
S'plugged'
p2407
tp2408
as(S'apps'
p2409
tp2410
(lp2411
(I0
I2
F-0.625
S'free'
p2412
tp2413
a(I1
I0
I0
S'basic'
p2414
tp2415
a(I3
I1
I0
S'more'
p2416
tp2417
a(I6
I2
F0.125
g426
tp2418
a(I22
I6
F0.5
S'rid'
p2419
tp2420
a(I22
I6
I0
S'such'
p2421
tp2422
a(I22
I10
I0
S'download'
p2423
tp2424
a(I22
I10
F0.25
S'favorite'
p2425
tp2426
a(I22
I13
F0.125
S'able'
p2427
tp2428
a(I22
I13
F0.375
S'following'
p2429
tp2430
a(I22
I13
I0
S'current'
p2431
tp2432
a(I22
I14
F-0.25
S'low'
p2433
tp2434
a(I25
I10
I0
S'different'
p2435
tp2436
a(I26
I2
I0
S'own'
p2437
tp2438
a(I30
I0
F-0.5
S'heavy'
p2439
tp2440
a(I52
I1
I0
S'few'
p2441
tp2442
a(I55
I4
I0
g2212
tp2443
a(I55
I4
I0
g2214
tp2444
a(I61
I0
F-0.75
S'impossible'
p2445
tp2446
a(I62
I11
I0
g1453
tp2447
a(I62
I11
F0.375
g1455
tp2448
a(I75
I3
F0.75
S'give'
p2449
tp2450
a(I75
I4
F0.875
S'music'
p2451
tp2452
a(I75
I4
I0
S'least'
p2453
tp2454
a(I76
I1
F-0.25
S'google'
p2455
tp2456
a(I77
I2
I0
g2218
tp2457
a(I77
I2
F-0.125
g2220
tp2458
a(I79
I7
F0.125
g428
tp2459
a(I79
I10
F-0.5
S'less'
p2460
tp2461
a(I79
I10
I0
S'third'
p2462
tp2463
a(I79
I17
I0
g2222
tp2464
a(I95
I5
I0
g2224
tp2465
a(I95
I7
I0
S'android'
p2466
tp2467
a(I95
I7
I0
S'useful'
p2468
tp2469
a(I95
I25
I0
g431
tp2470
a(I95
I25
I0
g433
tp2471
a(I99
I1
I0
S'most'
p2472
tp2473
a(I103
I0
I0
g2226
tp2474
a(I107
I3
I0
g2228
tp2475
a(I111
I12
I0
S'few'
p2476
tp2477
a(I120
I4
I0
S'few'
p2478
tp2479
a(I126
I4
I0
g2230
tp2480
a(I126
I4
I0
g2232
tp2481
a(I129
I3
F-0.625
S'other'
p2482
tp2483
a(I130
I3
F-0.375
S'disable'
p2484
tp2485
a(I130
I3
F-0.625
S'free'
p2486
tp2487
a(I132
I4
I0
g2234
tp2488
a(I135
I2
I0
g439
tp2489
a(I135
I2
I0
g441
tp2490
a(I149
I2
I0
S'most'
p2491
tp2492
a(I150
I9
F-0.625
S'average'
p2493
tp2494
a(I150
I9
F-0.5
S'sure'
p2495
tp2496
a(I150
I9
F-0.5
S'open'
p2497
tp2498
a(I153
I0
I0
g443
tp2499
a(I154
I1
I0
S'very'
p2500
tp2501
a(I159
I5
I0
S'limited'
p2502
tp2503
a(I173
I1
F-0.75
g445
tp2504
a(I177
I2
F-0.75
g447
tp2505
a(I180
I10
I0
S'own'
p2506
tp2507
a(I185
I3
I0
g2237
tp2508
a(I189
I6
I0
S'few'
p2509
tp2510
a(I189
I6
I0
S'great'
p2511
tp2512
a(I189
I7
I0
S'few'
p2513
tp2514
a(I192
I5
I0
g710
tp2515
a(I192
I18
F-0.625
g712
tp2516
a(I192
I18
I0
g714
tp2517
a(I192
I26
I0
g716
tp2518
a(I192
I34
I0
S'most'
p2519
tp2520
a(I207
I7
I0
S'own'
p2521
tp2522
a(I226
I3
F0.125
S'able'
p2523
tp2524
a(I226
I3
I0
S'more'
p2525
tp2526
a(I226
I3
F0.25
S'bigger'
p2527
tp2528
a(I230
I3
F-0.75
S'unable'
p2529
tp2530
a(I239
I8
I0
S'few'
p2531
tp2532
a(I239
I8
F0.25
S'favorite'
p2533
tp2534
a(I248
I3
I0
S'few'
p2535
tp2536
a(I248
I3
I0
S'different'
p2537
tp2538
a(I251
I5
I0
g2240
tp2539
a(I251
I6
I0
S'more'
p2540
tp2541
a(I251
I6
I0
S'few'
p2542
tp2543
a(I251
I6
I0
S'basic'
p2544
tp2545
a(I259
I1
I0
g2242
tp2546
a(I259
I1
I0
g2244
tp2547
a(I263
I2
F-0.25
g450
tp2548
a(I264
I4
F-0.625
S'other'
p2549
tp2550
a(I266
I2
F-0.125
g452
tp2551
a(I275
I3
I0
g454
tp2552
a(I275
I9
I0
g2246
tp2553
a(I275
I10
I0
S'few'
p2554
tp2555
a(I275
I10
F0.125
S'essential'
p2556
tp2557
a(I276
I7
F0.125
g456
tp2558
a(I276
I7
F0.25
g458
tp2559
a(I276
I7
F-0.25
g461
tp2560
a(I276
I7
I0
g463
tp2561
a(I277
I2
F0.875
S'music'
p2562
tp2563
a(I277
I7
F-0.125
S'cant'
p2564
tp2565
as(S'days'
p2566
tp2567
(lp2568
(I29
I3
F-0.625
S'lasting'
p2569
tp2570
a(I32
I0
I0
S'few'
p2571
tp2572
a(I40
I2
F0.125
S'first'
p2573
tp2574
a(I46
I15
I0
S'full'
p2575
tp2576
a(I55
I7
I0
S'dial'
p2577
tp2578
a(I55
I7
I0
S'cable'
p2579
tp2580
a(I94
I7
F-0.25
S'late'
p2581
tp2582
a(I95
I4
I0
S'few'
p2583
tp2584
a(I102
I0
I0
S'great'
p2585
tp2586
a(I122
I1
I0
S'android'
p2587
tp2588
a(I157
I8
I0
S'few'
p2589
tp2590
a(I269
I17
F0.125
S'last'
p2591
tp2592
a(I274
I7
I0
S'most'
p2593
tp2594
a(I278
I30
F0.125
S'essential'
p2595
tp2596
as.