(dp0
(S'purchase'
p1
tp2
(lp3
(I4
I0
F-0.25
S'lower'
p4
tp5
a(I91
I11
F-0.875
S'worst'
p6
tp7
a(I286
I0
F-0.625
S'bad'
p8
tp9
a(I467
I2
F1.0
S'good'
p10
tp11
as(S'crap'
p12
tp13
(lp14
(I361
I0
F-0.875
S'worst'
p15
tp16
a(I496
I4
F-0.625
S'other'
p17
tp18
as(S'nice'
p19
tp20
(lp21
(I216
I0
I0
S'only'
p22
tp23
a(I553
I0
I0
S'great'
p24
tp25
as(S'reviews'
p26
tp27
(lp28
(I87
I0
F-0.625
S'other'
p29
tp30
a(I95
I0
F-0.875
S'regret'
p31
tp32
a(I155
I4
F1.0
S'good'
p33
tp34
a(I312
I0
I0
S'many'
p35
tp36
a(I312
I0
F-0.625
S'bad'
p37
tp38
a(I312
I0
F-0.625
S'bad'
p39
tp40
a(I336
I0
F1.0
S'good'
p41
tp42
a(I336
I0
F-0.625
S'bad'
p43
tp44
a(I345
I0
I0
S'many'
p45
tp46
a(I345
I0
F-0.625
S'bad'
p47
tp48
a(I370
I0
F-0.875
S'negative'
p49
tp50
a(I370
I10
F-0.625
S'bad'
p51
tp52
a(I371
I1
F-0.625
S'other'
p53
tp54
a(I371
I1
F-0.625
S'bad'
p55
tp56
a(I371
I1
F0.125
S'sceptic'
p57
tp58
a(I371
I5
F1.0
S'good'
p59
tp60
a(I434
I0
F-0.625
S'bad'
p61
tp62
a(I476
I0
F-0.625
S'other'
p63
tp64
a(I494
I4
F-0.625
S'bad'
p65
tp66
a(I529
I0
F-0.625
S'bad'
p67
tp68
a(I579
I2
I0
S'many'
p69
tp70
a(I579
I2
F-0.875
S'negative'
p71
tp72
as(S'waste'
p73
S'r'
p74
S'time'
p75
tp76
(lp77
(I540
I0
F0.75
S'worth'
p78
tp79
as(S'quality'
p80
tp81
(lp82
(I90
I2
F1.0
S'good'
p83
tp84
a(I95
I2
F-0.625
S'bad'
p85
tp86
a(I102
I1
F1.0
S'best'
p87
tp88
a(I195
I2
F-0.5
S'poor'
p89
tp90
a(I218
I0
F-0.625
S'bad'
p91
tp92
a(I218
I0
F-0.625
S'bad'
p93
tp94
a(I238
I0
F0.125
S'last'
p95
tp96
a(I319
I0
I0
S'relevant'
p97
tp98
a(I339
I0
F-0.5
S'poor'
p99
tp100
a(I403
I0
F1.0
S'good'
p101
tp102
a(I424
I0
F0.625
S'fair'
p103
tp104
a(I441
I0
F-0.875
S'awful'
p105
tp106
a(I456
I0
F-0.5
S'poor'
p107
tp108
a(I487
I3
F-0.25
S'cheaper'
p109
tp110
a(I487
I3
I0
S'most'
p111
tp112
a(I487
I3
I0
S'high'
p113
tp114
a(I526
I0
F-0.5
S'poor'
p115
tp116
a(I526
I0
I0
S'basic'
p117
tp118
a(I557
I3
F-0.5
S'poor'
p119
tp120
as(S'a'
p121
S'full'
p122
S'refund'
p123
tp124
(lp125
(I31
I2
I0
S'full'
p126
tp127
a(I170
I4
I0
S'full'
p128
tp129
a(I240
I2
I0
S'full'
p130
tp131
a(I585
I10
F0.875
S'happy'
p132
tp133
a(I585
I10
I0
S'full'
p134
tp135
as(S'sd'
p136
S'card'
p137
tp138
(lp139
(I66
I5
I0
S'same'
p140
tp141
a(I126
I4
I0
S'more'
p142
tp143
a(I453
I0
I0
S'sd'
p144
tp145
a(I534
I1
I0
S'external'
p146
tp147
a(I564
I1
I0
S'same'
p148
tp149
as(g74
S'money'
p150
tp151
(lp152
(I30
I0
F0.5
S'satisfied'
p153
tp154
a(I143
I0
F0.75
S'worth'
p155
tp156
a(I153
I1
F0.375
S'extra'
p157
tp158
a(I185
I0
I0
S'most'
p159
tp160
a(I238
I3
F0.75
S'worth'
p161
tp162
a(I308
I3
F0.75
S'worth'
p163
tp164
a(I317
I6
F-0.625
S'want'
p165
tp166
a(I320
I0
I0
S'website'
p167
tp168
a(I484
I1
F0.75
S'worth'
p169
tp170
a(I510
I1
F0.75
S'worth'
p171
tp172
a(I525
I1
F1.0
S'best'
p173
tp174
a(I570
I0
F0.75
S'give'
p175
tp176
a(I586
I0
I0
S'android'
p177
tp178
as(S'ever'
p179
tp180
(lp181
(I16
I2
F-0.125
S'slow'
p182
tp183
as(S'takes'
p184
tp185
(lp186
(I354
I3
F-0.75
S'sad'
p187
tp188
as(S'anything'
p189
tp190
(lp191
(I27
I5
F-0.625
S'shot'
p192
tp193
a(I186
I0
F0.125
S'able'
p194
tp195
a(I248
I4
F0.75
S'cautious'
p196
tp197
a(I413
I3
F0.5
S'rid'
p198
tp199
a(I419
I1
F-0.125
S'slow'
p200
tp201
a(I505
I3
F1.0
S'good'
p202
tp203
as(S'sim'
p204
S'card'
p205
tp206
(lp207
(I0
I6
F-0.625
S'other'
p208
tp209
a(I25
I0
F-0.75
S'stupid'
p210
tp211
a(I158
I0
F-0.125
S'slow'
p212
tp213
a(I205
I2
F0.625
S'easy'
p214
tp215
a(I205
I2
F-0.5
S'regular'
p216
tp217
a(I205
I2
F0.5
S'patient'
p218
tp219
a(I220
I5
F-0.125
S'overall'
p220
tp221
a(I220
I5
F-0.375
S'double'
p222
tp223
a(I297
I0
F1.0
S'good'
p224
tp225
a(I301
I3
F0.375
S'similar'
p226
tp227
a(I350
I2
I0
S'standard'
p228
tp229
a(I401
I1
I0
S'slower'
p230
tp231
a(I401
I1
I0
S'standard'
p232
tp233
a(I414
I1
F0.625
S'perfect'
p234
tp235
a(I432
I0
F-0.5
S'worthless'
p236
tp237
as(S'charge'
p238
tp239
(lp240
(I43
I3
F0.625
S'hold'
p241
tp242
a(I43
I3
F1.0
S'good'
p243
tp244
a(I140
I0
F0.875
S'music'
p245
tp246
a(I140
I0
I0
S'fast'
p247
tp248
a(I347
I2
I0
S'full'
p249
tp250
a(I439
I1
I0
S'full'
p251
tp252
a(I501
I0
F-0.125
S'slow'
p253
tp254
as(S'waste'
p255
S'of'
p256
S'money'
p257
tp258
(lp259
(I30
I0
F0.5
g153
tp260
a(I95
I3
F0.375
S'complete'
p261
tp262
a(I185
I0
I0
g159
tp263
a(I198
I4
I0
S'big'
p264
tp265
a(I357
I0
F0.25
S'biggest'
p266
tp267
a(I461
I0
F0.375
S'complete'
p268
tp269
a(I586
I0
I0
S'big'
p270
tp271
a(I586
I0
I0
g177
tp272
as(S'samsung'
p273
S'galaxy'
p274
S's4'
p275
tp276
(lp277
(I394
I1
F-0.5
S'less'
p278
tp279
a(I394
I1
F0.5
S'expensive'
p280
tp281
a(I583
I2
F0.25
S'bigger'
p282
tp283
as(S'refund'
p284
tp285
(lp286
(I31
I2
I0
g126
tp287
a(I153
I1
F-0.625
S'want'
p288
tp289
a(I170
I4
I0
g128
tp290
a(I240
I2
I0
g130
tp291
a(I366
I0
F0.5
S'possible'
p292
tp293
a(I585
I10
F0.875
g132
tp294
a(I585
I10
I0
g134
tp295
as(S'picture'
p296
tp297
(lp298
(I18
I0
F-0.75
S'wrong'
p299
tp300
a(I232
I1
I0
S'website'
p301
tp302
a(I237
I5
F0.375
S'new'
p303
tp304
a(I328
I1
F0.75
S'receive'
p305
tp306
a(I544
I1
F0.5
S'clear'
p307
tp308
a(I544
I1
F0.25
S'sharp'
p309
tp310
a(I546
I0
F1.0
S'good'
p311
tp312
a(I546
I0
I0
S'more'
p313
tp314
a(I546
I0
F-0.5
S'less'
p315
tp316
as(S'card'
p317
tp318
(lp319
(I25
I0
F-0.75
g210
tp320
a(I126
I4
I0
g142
tp321
a(I205
I2
F0.625
g214
tp322
a(I301
I3
F0.375
g226
tp323
a(I414
I1
F0.625
g234
tp324
a(I432
I0
F-0.5
g236
tp325
a(I453
I0
I0
g144
tp326
as(S'wifi'
p327
tp328
(lp329
(I91
I9
F-0.75
S'impossible'
p330
tp331
a(I126
I2
F-0.125
S'ultimate'
p332
tp333
a(I126
I2
F-0.125
S'slow'
p334
tp335
a(I215
I1
F-0.625
S'steady'
p336
tp337
a(I359
I0
I0
S'great'
p338
tp339
a(I581
I0
I0
S'mobile'
p340
tp341
as(S'not'
p342
S'worth'
p343
S'money'
p344
tp345
(lp346
(I143
I0
F0.75
g155
tp347
a(I238
I3
F0.75
g161
tp348
a(I308
I3
F0.75
g163
tp349
as(S'please'
p350
tp351
(lp352
(I381
I6
F-0.75
S'sad'
p353
tp354
as(S'problem'
p355
tp356
(lp357
(I307
I1
I0
S'only'
p358
tp359
a(I468
I0
I0
S'only'
p360
tp361
a(I583
I5
I0
S'only'
p362
tp363
as(S'memory'
p364
S'card'
p365
tp366
(lp367
(I6
I0
I0
S'more'
p368
tp369
a(I6
I0
F-0.625
S'other'
p370
tp371
a(I134
I0
I0
S'more'
p372
tp373
a(I460
I0
I0
S'internal'
p374
tp375
a(I499
I1
F-0.25
S'low'
p376
tp377
a(I499
I1
I0
S'gig'
p378
tp379
a(I534
I1
I0
S'more'
p380
tp381
as(S'ocean'
p382
S'cross'
p383
tp384
(lp385
(I249
I0
I0
S'ocean'
p386
tp387
a(I299
I0
I0
S'ocean'
p388
tp389
a(I585
I11
I0
S'ocean'
p390
tp391
as(S'name'
p392
S'brand'
p393
tp394
(lp395
(I403
I0
I0
S'fast'
p396
tp397
as(S'money'
p398
tp399
(lp400
(I30
I0
F0.5
g153
tp401
a(I143
I0
F0.75
g155
tp402
a(I153
I1
F0.375
g157
tp403
a(I185
I0
I0
g159
tp404
a(I238
I3
F0.75
g161
tp405
a(I308
I3
F0.75
g163
tp406
a(I317
I6
F-0.625
g165
tp407
a(I320
I0
I0
g167
tp408
a(I361
I8
I0
S'wish'
p409
tp410
a(I484
I1
F0.75
g169
tp411
a(I510
I1
F0.75
g171
tp412
a(I525
I1
F1.0
g173
tp413
a(I570
I0
F0.75
g175
tp414
a(I586
I0
I0
g177
tp415
as(S'price'
p416
tp417
(lp418
(I6
I0
F-0.25
S'low'
p419
tp420
a(I26
I0
F1.0
S'good'
p421
tp422
a(I69
I0
I0
S'great'
p423
tp424
a(I99
I0
F-0.25
S'low'
p425
tp426
a(I148
I0
I0
S'big'
p427
tp428
a(I190
I4
I0
S'great'
p429
tp430
a(I205
I2
F-0.25
S'low'
p431
tp432
a(I327
I0
F1.0
S'good'
p433
tp434
a(I427
I0
F0.75
S'worth'
p435
tp436
a(I557
I4
F0.75
S'worth'
p437
tp438
a(I586
I0
F0.5
S'buy'
p439
tp440
as(S'service'
p441
tp442
(lp443
(I23
I0
F1.0
S'good'
p444
tp445
a(I30
I0
F-0.625
S'bad'
p446
tp447
a(I87
I13
F-0.25
S'google'
p448
tp449
a(I359
I0
I0
S'great'
p450
tp451
a(I481
I0
I0
S'internet'
p452
tp453
a(I482
I3
F0.375
S'available'
p454
tp455
a(I577
I2
F0.375
S'much'
p456
tp457
as(S'works'
p458
tp459
(lp460
(I70
I0
I0
S'great'
p461
tp462
a(I147
I0
F1.0
S'good'
p463
tp464
a(I303
I1
F0.25
S'original'
p465
tp466
a(I406
I0
F-0.125
S'slow'
p467
tp468
a(I502
I0
F1.0
S'good'
p469
tp470
as(S'piece'
p471
S'of'
p472
S'crap'
p473
tp474
(lp475
(I361
I0
F-0.875
g15
tp476
a(I396
I1
I0
S'generic'
p477
tp478
as(S'memory'
p479
tp480
(lp481
(I6
I0
I0
g368
tp482
a(I6
I0
F-0.625
g370
tp483
a(I8
I0
I0
S'internal'
p484
tp485
a(I8
I0
I0
S'full'
p486
tp487
a(I108
I2
I0
S'internal'
p488
tp489
a(I134
I0
I0
g372
tp490
a(I413
I1
I0
S'full'
p491
tp492
a(I452
I0
F-0.25
S'low'
p493
tp494
a(I460
I0
I0
g374
tp495
a(I496
I2
F-0.75
S'tough'
p496
tp497
a(I496
I2
I0
S'internal'
p498
tp499
a(I499
I1
F-0.25
g376
tp500
a(I499
I1
I0
g378
tp501
a(I523
I0
I0
S'full'
p502
tp503
a(I534
I1
I0
g380
tp504
a(I548
I3
F0.125
S'enough'
p505
tp506
a(I556
I1
F-0.25
S'low'
p507
tp508
a(I558
I0
F0.625
S'removable'
p509
tp510
a(I571
I1
F-0.25
S'low'
p511
tp512
as(S'play'
p513
tp514
(lp515
(I215
I1
F-0.25
S'google'
p516
tp517
a(I399
I0
F-0.25
S'google'
p518
tp519
as(S'return'
p520
tp521
(lp522
(I116
I5
I0
S'great'
p523
tp524
as(S'dont'
p525
tp526
(lp527
(I267
I0
F1.0
S'good'
p528
tp529
as(S'batteries'
p530
tp531
(lp532
(I269
I0
F-0.625
S'bad'
p533
tp534
a(I317
I4
F-0.625
S'bad'
p535
tp536
a(I467
I1
F0.125
S'last'
p537
tp538
as(S'order'
p539
tp540
(lp541
(I3
I2
I0
S'wont'
p542
tp543
a(I427
I0
F-0.75
S'stupid'
p544
tp545
a(I468
I1
F-0.75
S'bright'
p546
tp547
a(I468
I1
F-0.625
S'light'
p548
tp549
a(I482
I1
I0
S'special'
p550
tp551
a(I498
I0
F-0.25
S'disappointed'
p552
tp553
a(I498
I0
F0.125
S'first'
p554
tp555
as(S'make'
p556
S'calls'
p557
tp558
(lp559
(I290
I2
F-0.75
S'difficult'
p560
tp561
a(I290
I2
I0
S'recipient'
p562
tp563
a(I476
I10
F0.125
S'able'
p564
tp565
as(S'slow'
p566
tp567
(lp568
(I266
I0
F-0.75
S'little'
p569
tp570
as(S'do'
p571
S"n't"
p572
S'buy'
p573
tp574
(lp575
(I486
I0
F-0.875
S'worst'
p576
tp577
as(S'save'
p578
g74
S'money'
p579
tp580
(lp581
(I143
I0
F0.75
g155
tp582
a(I525
I1
F1.0
g173
tp583
as(S'thing'
p584
tp585
(lp586
(I6
I0
I0
S'only'
p587
tp588
a(I61
I3
F-0.5
S'certain'
p589
tp590
a(I85
I0
F0.5
S'whole'
p591
tp592
a(I91
I4
I0
S'only'
p593
tp594
a(I92
I3
F0.375
S'mean'
p595
tp596
a(I92
I3
F-0.875
S'worst'
p597
tp598
a(I116
I5
F0.625
S'positive'
p599
tp600
a(I190
I6
I0
S'only'
p601
tp602
a(I190
I6
F1.0
S'good'
p603
tp604
a(I239
I1
F1.0
S'good'
p605
tp606
a(I280
I0
I0
S'only'
p607
tp608
a(I317
I1
F1.0
S'good'
p609
tp610
a(I370
I0
I0
S'only'
p611
tp612
a(I370
I0
F0.625
S'positive'
p613
tp614
a(I391
I0
I0
S'real'
p615
tp616
a(I408
I0
F-0.625
S'badest'
p617
tp618
a(I461
I0
F-0.875
S'worst'
p619
tp620
a(I477
I3
I0
S'funny'
p621
tp622
a(I477
I10
I0
S'only'
p623
tp624
a(I486
I0
F-0.875
S'worst'
p625
tp626
a(I557
I0
I0
S'real'
p627
tp628
a(I584
I1
F1.0
S'good'
p629
tp630
a(I584
I1
F0.375
S'new'
p631
tp632
as(g121
S'sim'
p633
S'card'
p634
tp635
(lp636
(I0
I6
F-0.625
g208
tp637
a(I25
I0
F-0.75
g210
tp638
a(I158
I0
F-0.125
g212
tp639
a(I205
I2
F0.625
g214
tp640
a(I205
I2
F-0.5
g216
tp641
a(I205
I2
F0.5
g218
tp642
a(I220
I5
F-0.125
g220
tp643
a(I220
I5
F-0.375
g222
tp644
a(I297
I0
F1.0
g224
tp645
a(I301
I3
F0.375
g226
tp646
a(I350
I2
I0
g228
tp647
a(I401
I1
I0
g230
tp648
a(I401
I1
I0
g232
tp649
a(I414
I1
F0.625
g234
tp650
a(I432
I0
F-0.5
g236
tp651
as(S'many'
p652
S'bad'
p653
S'reviews'
p654
tp655
(lp656
(I312
I0
I0
g35
tp657
a(I312
I0
F-0.625
g37
tp658
a(I312
I0
F-0.625
g39
tp659
a(I345
I0
I0
g45
tp660
a(I345
I0
F-0.625
g47
tp661
a(I434
I0
F-0.625
g61
tp662
as(S'work'
p663
tp664
(lp665
(I120
I1
F-0.625
S'other'
p666
tp667
a(I166
I1
F1.0
S'good'
p668
tp669
a(I533
I0
F0.875
S'important'
p670
tp671
as(S'battery'
p672
S'life'
p673
tp674
(lp675
(I143
I0
F-0.5
S'poor'
p676
tp677
a(I315
I0
F1.0
S'better'
p678
tp679
as(S'worth'
p680
tp681
(lp682
(I351
I0
F0.5
S'expensive'
p683
tp684
as(S'want'
p685
S'money'
p686
tp687
(lp688
(I30
I0
F0.5
g153
tp689
a(I153
I1
F0.375
g157
tp690
a(I185
I0
I0
g159
tp691
a(I317
I6
F-0.625
g165
tp692
as(S'gon'
p693
S'na'
p694
tp695
(lp696
(I390
I0
F0.75
S'give'
p697
tp698
a(I434
I0
F0.625
S'perfect'
p699
tp700
as(S'straight'
p701
S'talk'
p702
tp703
(lp704
(I266
I2
F0.625
S'straight'
p705
tp706
a(I279
I0
F0.625
S'straight'
p707
tp708
a(I279
I0
F0.625
S'straight'
p709
tp710
a(I350
I2
F0.625
S'straight'
p711
tp712
a(I555
I0
F0.625
S'straight'
p713
tp714
a(I577
I6
F0.625
S'straight'
p715
tp716
as(S'find'
p717
g121
S'case'
p718
tp719
(lp720
(I327
I0
F0.125
S'able'
p721
tp722
a(I451
I1
F0.625
S'find'
p723
tp724
as(S'calls'
p725
S'or'
p726
S'text'
p727
tp728
(lp729
(I476
I10
F0.125
g564
tp730
as(S'sucks'
p731
tp732
(lp733
(I202
I0
I0
S'internet'
p734
tp735
a(I211
I0
F1.0
S'good'
p736
tp737
a(I367
I0
I0
S'signal'
p738
tp739
a(I578
I0
F-0.625
S'bad'
p740
tp741
as(S'do'
p742
S"n't"
p743
S'buy'
p744
S't'
p745
tp746
(lp747
(I486
I0
F-0.875
g576
tp748
as(g745
S"'s"
p749
g121
S'good'
p750
tp751
(lp752
(I327
I0
I0
S'such'
p753
tp754
as(S'battery'
p755
tp756
(lp757
(I34
I2
F0.125
S'last'
p758
tp759
a(I34
I3
F-0.625
S'bad'
p760
tp761
a(I38
I4
F0.75
S'give'
p762
tp763
a(I38
I4
F0.375
S'extra'
p764
tp765
a(I59
I1
F-0.125
S'slow'
p766
tp767
a(I59
I1
F1.0
S'good'
p768
tp769
a(I143
I0
F-0.5
g676
tp770
a(I146
I1
F-0.75
S'dead'
p771
tp772
a(I257
I4
I0
S'own'
p773
tp774
a(I313
I0
F-0.75
S'dead'
p775
tp776
a(I313
I0
F0.5
S'second'
p777
tp778
a(I315
I0
F1.0
g678
tp779
a(I417
I2
F0.375
S'extra'
p780
tp781
a(I419
I4
F-0.75
S'dead'
p782
tp783
as(g745
S'sim'
p784
S'card'
p785
tp786
(lp787
(I0
I6
F-0.625
g208
tp788
a(I25
I0
F-0.75
g210
tp789
a(I158
I0
F-0.125
g212
tp790
a(I205
I2
F0.625
g214
tp791
a(I205
I2
F-0.5
g216
tp792
a(I205
I2
F0.5
g218
tp793
a(I220
I5
F-0.125
g220
tp794
a(I220
I5
F-0.375
g222
tp795
a(I297
I0
F1.0
g224
tp796
a(I301
I3
F0.375
g226
tp797
a(I327
I0
I0
g753
tp798
a(I350
I2
I0
g228
tp799
a(I401
I1
I0
g230
tp800
a(I401
I1
I0
g232
tp801
a(I414
I1
F0.625
g234
tp802
a(I432
I0
F-0.5
g236
tp803
as(S'samsung'
p804
S'galaxy'
p805
tp806
(lp807
(I66
I5
I0
S'real'
p808
tp809
a(I564
I1
I0
S'real'
p810
tp811
as(S'looking'
p812
tp813
(lp814
(I247
I0
I0
S'such'
p815
tp816
a(I247
I0
F1.0
S'good'
p817
tp818
a(I343
I0
F0.875
S'nice'
p819
tp820
a(I432
I2
F0.875
S'nice'
p821
tp822
a(I450
I0
F1.0
S'good'
p823
tp824
a(I516
I0
F1.0
S'good'
p825
tp826
a(I546
I0
F0.875
S'nice'
p827
tp828
as(S'text'
p829
tp830
(lp831
(I56
I2
F-0.125
S'slow'
p832
tp833
a(I283
I1
I0
S'more'
p834
tp835
a(I413
I4
F0.375
S'new'
p836
tp837
as(S'time'
p838
tp839
(lp840
(I37
I0
F-0.75
S'short'
p841
tp842
a(I38
I1
I0
S'great'
p843
tp844
a(I38
I1
I0
S'most'
p845
tp846
a(I61
I1
I0
S'only'
p847
tp848
a(I72
I2
F-0.875
S'hard'
p849
tp850
a(I92
I2
F-0.75
S'impossible'
p851
tp852
a(I131
I0
F-0.125
S'slow'
p853
tp854
a(I236
I0
F1.0
S'good'
p855
tp856
a(I261
I0
F-0.5
S'long'
p857
tp858
a(I318
I2
F0.5
S'whole'
p859
tp860
a(I371
I0
F0.125
S'first'
p861
tp862
a(I371
I2
F0.125
S'enough'
p863
tp864
a(I398
I0
I0
S'hot'
p865
tp866
a(I413
I4
F0.75
S'worth'
p867
tp868
a(I433
I4
F-0.5
S'long'
p869
tp870
a(I480
I2
F-0.75
S'difficult'
p871
tp872
a(I505
I3
F-0.875
S'worst'
p873
tp874
a(I506
I0
I0
S'signal'
p875
tp876
a(I518
I3
F-0.875
S'hard'
p877
tp878
a(I540
I0
F0.75
g78
tp879
a(I552
I1
I0
S'signal'
p880
tp881
a(I564
I3
I0
S'entire'
p882
tp883
as(S'always'
p884
tp885
(lp886
(I22
I0
F0.125
S'key'
p887
tp888
a(I22
I0
F0.25
S'broad'
p889
tp890
as(S'touch'
p891
S'screen'
p892
tp893
(lp894
(I76
I3
F-0.75
S'unresponsive'
p895
tp896
a(I152
I2
F0.5
S'touch'
p897
tp898
a(I152
I2
F-0.625
S'sorry'
p899
tp900
a(I219
I0
F1.0
S'good'
p901
tp902
a(I460
I0
I0
S'big'
p903
tp904
as(S'looks'
p905
tp906
(lp907
(I159
I0
F1.0
S'good'
p908
tp909
a(I232
I0
F1.0
S'better'
p910
tp911
a(I347
I0
F-0.125
S'super'
p912
tp913
a(I425
I1
F1.0
S'good'
p914
tp915
a(I438
I0
F-0.625
S'other'
p916
tp917
as(S'waste'
p918
tp919
(lp920
(I95
I3
F0.375
g261
tp921
a(I198
I4
I0
g264
tp922
a(I357
I0
F0.25
g266
tp923
a(I461
I0
F0.375
g268
tp924
a(I496
I3
F0.25
S'biggest'
p925
tp926
a(I586
I0
I0
g270
tp927
as(S'screen'
p928
tp929
(lp930
(I18
I0
F-0.25
S'white'
p931
tp932
a(I43
I2
F-0.375
S'black'
p933
tp934
a(I43
I2
F-0.375
S'black'
p935
tp936
a(I75
I0
F0.25
S'main'
p937
tp938
a(I113
I1
F1.0
S'good'
p939
tp940
a(I135
I1
F-0.75
S'dark'
p941
tp942
a(I146
I1
F-0.125
S'slow'
p943
tp944
a(I146
I1
I0
S'sensitive'
p945
tp946
a(I152
I2
F0.5
g897
tp947
a(I152
I2
F-0.625
g899
tp948
a(I205
I1
I0
S'large'
p949
tp950
a(I233
I6
F-0.25
S'white'
p951
tp952
a(I243
I0
F-0.75
S'dead'
p953
tp954
a(I315
I0
F1.0
S'better'
p955
tp956
a(I343
I2
I0
S'different'
p957
tp958
a(I370
I11
F-0.375
S'black'
p959
tp960
a(I381
I3
F0.25
S'bigger'
p961
tp962
a(I393
I0
F-0.125
S'slow'
p963
tp964
a(I393
I0
F0.75
S'break'
p965
tp966
a(I438
I0
F-0.125
S'slow'
p967
tp968
a(I460
I0
I0
g903
tp969
a(I553
I0
I0
S'big'
p970
tp971
a(I553
I0
F-0.125
S'slow'
p972
tp973
a(I582
I1
F-0.375
S'black'
p974
tp975
as(S'case'
p976
tp977
(lp978
(I278
I0
F0.125
S'charger'
p979
tp980
a(I321
I11
F0.875
S'nice'
p981
tp982
a(I321
I11
F-0.875
S'hard'
p983
tp984
a(I327
I0
F0.125
g721
tp985
a(I441
I2
F0.875
S'nice'
p986
tp987
a(I451
I1
F0.625
g723
tp988
a(I467
I0
F0.125
S'protective'
p989
tp990
as(S'charger'
p991
tp992
(lp993
(I257
I1
F-0.25
S'inserted'
p994
tp995
a(I266
I1
F-0.375
S'top'
p996
tp997
a(I455
I0
F-0.625
S'bad'
p998
tp999
a(I490
I0
F1.0
S'good'
p1000
tp1001
as(S'everything'
p1002
tp1003
(lp1004
(I66
I10
F0.375
S'new'
p1005
tp1006
a(I276
I0
I0
S'chinese'
p1007
tp1008
a(I393
I0
F1.0
S'good'
p1009
tp1010
a(I551
I2
I0
S'fast'
p1011
tp1012
as(S'samsung'
p1013
tp1014
(lp1015
(I66
I5
I0
g808
tp1016
a(I265
I0
F-0.875
S'worst'
p1017
tp1018
a(I564
I1
I0
g810
tp1019
as(S'waste'
p1020
S'of'
p1021
S'time'
p1022
tp1023
(lp1024
(I540
I0
F0.75
g78
tp1025
as(S'download'
p1026
tp1027
(lp1028
(I370
I4
F-0.125
S'cant'
p1029
tp1030
as(S'camera'
p1031
tp1032
(lp1033
(I150
I0
F1.0
S'good'
p1034
tp1035
a(I228
I0
F-0.625
S'bad'
p1036
tp1037
a(I321
I8
I0
S'basic'
p1038
tp1039
a(I361
I4
F-0.875
S'awful'
p1040
tp1041
a(I370
I8
F0.875
S'nice'
p1042
tp1043
a(I476
I8
F1.0
S'good'
p1044
tp1045
a(I477
I6
F1.0
S'good'
p1046
tp1047
a(I534
I1
F0.875
S'nice'
p1048
tp1049
a(I546
I0
I0
S'own'
p1050
tp1051
a(I577
I3
F-0.625
S'green'
p1052
tp1053
as(S'take'
p1054
tp1055
(lp1056
(I3
I1
F-0.125
S'cant'
p1057
tp1058
as(S'mobile'
p1059
tp1060
(lp1061
(I351
I0
F1.0
S'good'
p1062
tp1063
as(S'galaxy'
p1064
tp1065
(lp1066
(I123
I0
F1.0
S'good'
p1067
tp1068
a(I123
I0
F0.5
S'recommended'
p1069
tp1070
a(I162
I1
F0.75
S'worth'
p1071
tp1072
a(I324
I0
I0
S'real'
p1073
tp1074
a(I417
I1
I0
S'old'
p1075
tp1076
a(I550
I0
I0
S'cloned'
p1077
tp1078
as(S'pictures'
p1079
tp1080
(lp1081
(I31
I3
F0.375
S'new'
p1082
tp1083
a(I174
I0
F0.75
S'receive'
p1084
tp1085
a(I174
I0
F0.875
S'happy'
p1086
tp1087
a(I343
I1
F-0.125
S'slow'
p1088
tp1089
a(I367
I0
F1.0
S'good'
p1090
tp1091
a(I440
I0
I0
S'chinese'
p1092
tp1093
a(I487
I2
I0
S'great'
p1094
tp1095
a(I516
I0
F-0.625
S'green'
p1096
tp1097
as(S'people'
p1098
tp1099
(lp1100
(I162
I0
F1.0
S'good'
p1101
tp1102
a(I272
I3
F-0.875
S'awful'
p1103
tp1104
a(I404
I0
F-0.625
S'other'
p1105
tp1106
a(I416
I1
I0
S'few'
p1107
tp1108
a(I419
I2
I0
S'hear'
p1109
tp1110
a(I459
I4
I0
S'different'
p1111
tp1112
a(I534
I0
I0
S'many'
p1113
tp1114
as(S'card'
p1115
S'n'
p1116
g745
tp1117
(lp1118
(I25
I0
F-0.75
g210
tp1119
a(I126
I4
I0
g142
tp1120
a(I205
I2
F0.625
g214
tp1121
a(I301
I3
F0.375
g226
tp1122
a(I327
I0
I0
g753
tp1123
a(I414
I1
F0.625
g234
tp1124
a(I432
I0
F-0.5
g236
tp1125
a(I453
I0
I0
g144
tp1126
as(S'galaxy'
p1127
S's4'
p1128
tp1129
(lp1130
(I394
I1
F-0.5
g278
tp1131
a(I394
I1
F0.5
g280
tp1132
a(I550
I0
I0
g1077
tp1133
a(I583
I2
F0.25
g282
tp1134
as(S'apps'
p1135
tp1136
(lp1137
(I23
I1
F-0.75
S'difficult'
p1138
tp1139
a(I69
I0
F1.0
S'good'
p1140
tp1141
a(I108
I2
F0.5
S'careful'
p1142
tp1143
a(I131
I0
I0
S'more'
p1144
tp1145
a(I207
I4
I0
S'download'
p1146
tp1147
a(I213
I1
I0
S'chinese'
p1148
tp1149
a(I213
I1
F-0.125
S'slow'
p1150
tp1151
a(I234
I0
F-0.5
S'open'
p1152
tp1153
a(I308
I2
F-0.5
S'certain'
p1154
tp1155
a(I321
I4
F-0.625
S'other'
p1156
tp1157
a(I321
I4
F0.625
S'certified'
p1158
tp1159
a(I370
I3
F-0.5
S'open'
p1160
tp1161
a(I399
I0
F-0.25
S'google'
p1162
tp1163
a(I434
I0
F-0.125
S'overall'
p1164
tp1165
a(I477
I1
I0
S'many'
p1166
tp1167
a(I524
I0
I0
S'most'
p1168
tp1169
a(I586
I0
F-0.125
S'cant'
p1170
tp1171
as(S'waste'
p1172
g74
S'money'
p1173
tp1174
(lp1175
(I30
I0
F0.5
g153
tp1176
a(I95
I3
F0.375
g261
tp1177
a(I153
I1
F0.375
g157
tp1178
a(I185
I0
I0
g159
tp1179
a(I317
I6
F-0.625
g165
tp1180
a(I320
I0
I0
g167
tp1181
a(I461
I0
F0.375
g268
tp1182
a(I586
I0
I0
g270
tp1183
a(I586
I0
I0
g177
tp1184
as(S'better'
p1185
tp1186
(lp1187
(I573
I4
F0.375
S'much'
p1188
tp1189
as(S'nothing'
p1190
tp1191
(lp1192
(I78
I0
F0.625
S'positive'
p1193
tp1194
a(I463
I0
I0
S'internet'
p1195
tp1196
a(I559
I0
F0.125
S'able'
p1197
tp1198
a(I577
I8
F0.75
S'worth'
p1199
tp1200
as(S'call'
p1201
tp1202
(lp1203
(I92
I2
F-0.375
S'simple'
p1204
tp1205
as(S'super'
p1206
S'slow'
p1207
tp1208
(lp1209
(I92
I2
F-0.125
S'slow'
p1210
tp1211
a(I407
I1
F-0.125
S'slow'
p1212
tp1213
as(S'recommend'
p1214
tp1215
(lp1216
(I452
I0
F0.625
S'easy'
p1217
tp1218
as(S'product'
p1219
tp1220
(lp1221
(I58
I3
F-0.875
S'unhappy'
p1222
tp1223
a(I113
I2
F-0.125
S'overall'
p1224
tp1225
a(I113
I2
F1.0
S'good'
p1226
tp1227
a(I169
I0
F0.875
S'happy'
p1228
tp1229
a(I267
I0
F1.0
S'good'
p1230
tp1231
as(S'days'
p1232
tp1233
(lp1234
(I0
I2
F0.375
S'prime'
p1235
tp1236
a(I16
I0
F0.5
S'whole'
p1237
tp1238
a(I20
I1
F-0.375
S'top'
p1239
tp1240
a(I24
I1
I0
S'few'
p1241
tp1242
a(I43
I3
I0
S'internet'
p1243
tp1244
a(I116
I1
I0
S'few'
p1245
tp1246
a(I152
I6
I0
S'few'
p1247
tp1248
a(I152
I6
I0
S'later'
p1249
tp1250
a(I190
I2
I0
S'only'
p1251
tp1252
a(I308
I1
I0
S'few'
p1253
tp1254
a(I308
I1
F-0.125
S'slow'
p1255
tp1256
a(I326
I4
I0
S'few'
p1257
tp1258
a(I326
I4
I0
S'galaxy'
p1259
tp1260
as(S'calls'
p1261
tp1262
(lp1263
(I33
I0
I0
S'hot'
p1264
tp1265
a(I87
I12
F-0.625
S'free'
p1266
tp1267
a(I290
I2
F-0.75
g560
tp1268
a(I290
I2
I0
g562
tp1269
a(I367
I0
F-0.25
S'dropped'
p1270
tp1271
a(I378
I1
F-0.5
S'poor'
p1272
tp1273
a(I391
I4
F-0.125
S'cant'
p1274
tp1275
a(I391
I4
F0.75
S'receive'
p1276
tp1277
a(I417
I7
F-0.25
S'dropped'
p1278
tp1279
a(I471
I1
I0
S'great'
p1280
tp1281
a(I476
I10
F0.125
g564
tp1282
a(I484
I0
F1.0
S'good'
p1283
tp1284
a(I484
I0
I0
S'few'
p1285
tp1286
a(I492
I2
I0
g1116
tp1287
as.