(dp0
(S'battery'
p1
S'life'
p2
tp3
(lp4
(I15
I54
I0
S'great'
p5
I1
tp6
a(I17
I2
I0
S'more'
p7
I1
tp8
a(I25
I18
F-0.375
S'daily'
p9
I1
tp10
a(I32
I9
F0.25
S'original'
p11
I1
tp12
a(I17
I2
I0
g7
I15
tp13
a(I20
I1
F0.5
S'second'
p14
I15
tp15
a(I20
I1
F-0.375
S'small'
p16
I15
tp17
a(I20
I2
I0
S'real'
p18
I15
tp19
as(S'hydro'
p20
S'edge'
p21
tp22
(lp23
(I5
I19
F0.375
S'new'
p24
I0
tp25
a(I11
I7
F0.25
S'original'
p26
I0
tp27
a(I11
I7
I0
S'old'
p28
I0
tp29
a(I12
I23
F-0.5
S'long'
p30
I0
tp31
a(I12
I23
F-0.125
S'refresh'
p32
I0
tp33
a(I12
I23
F0.25
S'original'
p34
I0
tp35
a(I12
I23
F0.25
S'original'
p36
I0
tp37
a(I12
I27
F0.25
S'original'
p38
I0
tp39
a(I12
I29
F0.375
S'new'
p40
I0
tp41
a(I12
I29
I0
S'very'
p42
I0
tp43
a(I12
I33
F0.5
S'odd'
p44
I0
tp45
a(I12
I33
F0.25
S'original'
p46
I0
tp47
a(I12
I51
F0.25
S'original'
p48
I0
tp49
a(I12
I53
F0.25
S'original'
p50
I0
tp51
a(I13
I18
F0.375
S'new'
p52
I0
tp53
a(I24
I36
F0.875
S'happy'
p54
I0
tp55
a(I27
I4
F-0.5
S'regular'
p56
I0
tp57
as(S'power'
p58
S'button'
p59
tp60
(lp61
(I13
I0
F0.25
S'responsive'
p62
I0
tp63
a(I13
I0
F0.25
g62
I19
tp64
as(S'boost'
p65
S'mobile'
p66
tp67
(lp68
(I15
I2
F1.0
S'good'
p69
I0
tp70
a(I15
I2
F1.0
g69
I0
tp71
a(I19
I13
I0
S'local'
p72
I0
tp73
a(I19
I13
I0
S'store'
p74
I0
tp75
as(S'call'
p76
S'quality'
p77
tp78
(lp79
(I22
I4
F-0.5
S'call'
p80
I0
tp81
as(S'service'
p82
tp83
(lp84
(I4
I4
F1.0
S'best'
p85
I16
tp86
a(I14
I2
F-0.125
S'slow'
p87
I16
tp88
a(I15
I31
F-0.25
S'lower'
p89
I16
tp90
a(I24
I29
F-0.25
S'stunned'
p91
I16
tp92
as(S'camera'
p93
tp94
(lp95
(I5
I16
I0
S'great'
p96
I1
tp97
a(I5
I21
F0.125
S'impressive'
p98
I1
tp99
a(I5
I21
I0
S'more'
p100
I1
tp101
a(I12
I44
F0.375
S'new'
p102
I1
tp103
a(I12
I48
F0.5
S'second'
p104
I1
tp105
a(I13
I16
F1.0
S'better'
p106
I1
tp107
a(I15
I11
F0.875
S'nice'
p108
I1
tp109
a(I33
I9
F0.25
S'sharp'
p110
I1
tp111
as(S'original'
p112
S'hydro'
p113
tp114
(lp115
(I11
I7
F0.25
g26
I0
tp116
a(I11
I7
I0
g28
I0
tp117
a(I12
I13
F0.25
S'original'
p118
I0
tp119
a(I12
I23
F-0.5
g30
I0
tp120
a(I12
I23
F0.25
g34
I0
tp121
a(I12
I23
F0.25
g36
I0
tp122
a(I12
I24
F0.25
S'original'
p123
I0
tp124
a(I12
I27
F0.25
g38
I0
tp125
a(I12
I29
F0.375
g40
I0
tp126
a(I12
I33
F0.5
g44
I0
tp127
a(I12
I33
F0.25
g46
I0
tp128
a(I12
I34
F0.25
S'original'
p129
I0
tp130
a(I12
I51
F0.25
g48
I0
tp131
a(I12
I53
F0.25
g50
I0
tp132
a(I17
I2
F0.25
S'original'
p133
I0
tp134
a(I32
I0
F0.25
S'original'
p135
I0
tp136
a(I5
I19
F0.375
g24
I0
tp137
a(I11
I7
F0.25
g26
I0
tp138
a(I11
I7
I0
g28
I0
tp139
a(I12
I13
F0.25
g118
I0
tp140
a(I12
I22
F-0.125
S'refresh'
p141
I0
tp142
a(I12
I23
F-0.5
g30
I0
tp143
a(I12
I23
F0.25
g34
I0
tp144
a(I12
I23
F0.25
g36
I0
tp145
a(I12
I24
F0.25
g123
I0
tp146
a(I12
I27
F0.25
g38
I0
tp147
a(I12
I28
F0.125
S'first'
p148
I0
tp149
a(I12
I29
F0.375
g40
I0
tp150
a(I12
I31
F0.375
S'new'
p151
I0
tp152
a(I12
I33
F0.5
g44
I0
tp153
a(I12
I33
F0.25
g46
I0
tp154
a(I12
I34
F0.25
g129
I0
tp155
a(I12
I37
F0.125
S'first'
p156
I0
tp157
a(I12
I46
I0
S'old'
p158
I0
tp159
a(I12
I51
F0.25
g48
I0
tp160
a(I12
I53
F0.25
g50
I0
tp161
a(I13
I18
F0.375
g52
I0
tp162
a(I17
I2
F0.25
g133
I0
tp163
a(I24
I36
F0.875
g54
I0
tp164
a(I27
I4
F-0.5
g56
I0
tp165
a(I30
I23
F-0.5
S'regular'
p166
I0
tp167
a(I32
I0
F0.25
g135
I0
tp168
as(S'sd'
p169
S'card'
p170
tp171
(lp172
(I13
I3
I0
S'large'
p173
I0
tp174
as(S'android'
p175
tp176
(lp177
(I13
I1
F0.375
S'new'
p178
I0
tp179
a(I16
I27
F0.125
S'last'
p180
I0
tp181
a(I18
I13
F0.375
S'newer'
p182
I0
tp183
a(I18
I61
F0.125
S'first'
p184
I0
tp185
as(S'calls'
p186
tp187
(lp188
(I4
I12
F-0.125
S'overall'
p189
I0
tp190
a(I13
I6
F1.0
S'good'
p191
I0
tp192
a(I24
I27
F-0.125
S'private'
p193
I0
tp194
a(I28
I38
I0
S'crystal'
p195
I0
tp196
a(I28
I38
F0.5
S'clear'
p197
I0
tp198
as(S'text'
p199
S'messages'
p200
tp201
(lp202
(I15
I38
I0
S'text'
p203
I0
tp204
a(I15
I46
F-0.5
S'vibrate'
p205
I0
tp206
a(I26
I7
I0
S'e-mail'
p207
I18
tp208
as(S'smartphone'
p209
tp210
(lp211
(I12
I55
F0.125
S'solid'
p212
I0
tp213
a(I18
I9
I0
S'third'
p214
I0
tp215
as(S'added'
p216
S'bonus'
p217
tp218
(lp219
(I0
I3
F0.5
S'added'
p220
I2
tp221
as(S'water'
p222
tp223
(lp224
(I28
I24
I0
S'hot'
p225
I6
tp226
a(I30
I14
F-0.25
S'inexpensive'
p227
I6
tp228
a(I30
I14
I0
S'large'
p229
I6
tp230
as(S'internal'
p231
S'storage'
p232
tp233
(lp234
(I18
I20
I0
S'internal'
p235
I0
tp236
a(I18
I20
I0
S'standard'
p237
I0
tp238
a(I18
I28
I0
S'internal'
p239
I0
tp240
a(I18
I29
I0
S'internal'
p241
I0
tp242
as(S'apps'
p243
tp244
(lp245
(I6
I1
F0.625
S'easy'
p246
I0
tp247
a(I12
I16
I0
S'few'
p248
I0
tp249
a(I18
I21
I0
S'many'
p250
I0
tp251
a(I18
I24
I0
S'competitive'
p252
I0
tp253
a(I18
I25
F0.25
S'favorite'
p254
I0
tp255
a(I18
I40
F-0.125
S'handful'
p256
I0
tp257
a(I18
I43
F0.625
S'easy'
p258
I0
tp259
a(I20
I0
I0
S'own'
p260
I0
tp261
a(I25
I16
F-0.625
S'free'
p262
I0
tp263
as(S'waterproof'
p264
tp265
(lp266
(I18
I43
F0.125
S'solid'
p267
I0
tp268
as(S'kyocera'
p269
tp270
(lp271
(I5
I11
F0.5
S'second'
p272
I0
tp273
a(I11
I8
F0.375
S'much'
p274
I0
tp275
a(I11
I8
F0.125
S'capable'
p276
I0
tp277
a(I12
I4
F0.25
S'original'
p278
I0
tp279
a(I12
I5
F0.25
S'original'
p280
I0
tp281
a(I12
I5
F-0.5
S'longer'
p282
I0
tp283
a(I30
I13
F0.875
S'happy'
p284
I0
tp285
as.