(dp0
(S'sprint'
p1
tp2
(lp3
(I3
I14
F-0.625
S'other'
p4
I0
tp5
a(I10
I50
F0.75
S'due'
p6
I0
tp7
a(I10
I88
I0
S'national'
p8
I0
tp9
as(S'sound'
p10
tp11
(lp12
(I3
I23
I0
S'great'
p13
I7
tp14
a(I3
I25
I0
S'great'
p15
I7
tp16
a(I3
I25
F0.625
S'easy'
p17
I7
tp18
a(I13
I22
F1.0
S'good'
p19
I7
tp20
a(I19
I9
I0
S'great'
p21
I7
tp22
as(S'battery'
p23
S'life'
p24
tp25
(lp26
(I3
I65
F-0.75
S'dead'
p27
I1
tp28
a(I5
I1
F1.0
S'good'
p29
I1
tp30
a(I6
I16
F1.0
S'good'
p31
I1
tp32
a(I11
I122
F-0.75
S'short'
p33
I1
tp34
a(I12
I7
I0
S'great'
p35
I1
tp36
a(I15
I1
F1.0
S'good'
p37
I1
tp38
a(I16
I1
F1.0
S'good'
p39
I1
tp40
a(I17
I3
F1.0
S'good'
p41
I1
tp42
a(I3
I65
F-0.75
g27
I19
tp43
a(I5
I1
F1.0
g29
I19
tp44
a(I6
I16
F1.0
g31
I19
tp45
a(I10
I27
F0.625
S'easier'
p46
I19
tp47
a(I12
I7
I0
g35
I19
tp48
a(I3
I66
I0
S'internal'
p49
I15
tp50
a(I11
I77
F0.25
S'bigger'
p51
I15
tp52
a(I11
I80
F0.625
S'replaceable'
p53
I15
tp54
a(I11
I122
F-0.75
g33
I15
tp55
a(I15
I1
F1.0
g37
I15
tp56
a(I16
I1
F1.0
g39
I15
tp57
a(I17
I3
F1.0
g41
I15
tp58
as(S'smartphone'
p59
tp60
(lp61
(I3
I56
F0.125
S'first'
p62
I0
tp63
a(I10
I42
F-0.125
S'ultimate'
p64
I0
tp65
a(I11
I77
F-0.625
S'other'
p66
I0
tp67
a(I19
I23
F0.625
S'decent'
p68
I0
tp69
a(I20
I0
F0.125
S'first'
p70
I0
tp71
as(S'account'
p72
tp73
(lp74
(I10
I69
I0
S'current'
p75
I3
tp76
a(I10
I93
I0
S'old'
p77
I3
tp78
as(S'amazon'
p79
tp80
(lp81
(I3
I49
F0.125
S'able'
p82
I13
tp83
a(I3
I49
F0.375
S'new'
p84
I13
tp85
a(I3
I69
F0.375
S'new'
p86
I13
tp87
as(S'camera'
p88
tp89
(lp90
(I6
I13
F1.0
S'good'
p91
I1
tp92
a(I6
I13
F-0.25
S'low'
p93
I1
tp94
a(I6
I13
F-0.625
S'light'
p95
I1
tp96
a(I11
I115
F-0.625
S'light'
p97
I1
tp98
a(I17
I1
I0
S'great'
p99
I1
tp100
a(I19
I53
I0
S'great'
p101
I1
tp102
a(I20
I19
I0
S'toggle'
p103
I1
tp104
as.