(dp0
(S'a'
p1
S'heavy'
p2
S'user'
p3
tp4
(lp5
(I109
I3
F-0.5
S'heavy'
p6
tp7
a(I115
I6
F-0.5
S'heavy'
p8
tp9
a(I115
I7
F-0.5
S'heavy'
p10
tp11
a(I152
I0
F-0.5
S'heavy'
p12
tp13
as(S'perfect'
p14
tp15
(lp16
(I28
I2
F-0.75
S'damaged'
p17
tp18
as(S'email'
p19
S'accounts'
p20
tp21
(lp22
(I82
I16
F-0.625
S'other'
p23
tp24
as(S'motorola'
p25
tp26
(lp27
(I20
I2
I0
S'chinese'
p28
tp29
a(I27
I3
I0
S'website'
p30
tp31
a(I40
I5
F-0.5
S'sure'
p32
tp33
a(I48
I1
F0.25
S'original'
p34
tp35
a(I52
I80
I0
S'fast'
p36
tp37
a(I77
I14
F-0.625
S'bad'
p38
tp39
a(I80
I6
F0.375
S'new'
p40
tp41
a(I85
I1
F0.25
S'original'
p42
tp43
a(I86
I2
F-0.25
S'google'
p44
tp45
a(I176
I2
F0.25
S'original'
p46
tp47
as(S'on'
p48
S'moto'
p49
S'x'
p50
tp51
(lp52
(I1
I4
F0.25
S'favorite'
p53
tp54
a(I1
I4
F0.5
S'second'
p55
tp56
a(I1
I7
F1.0
S'best'
p57
tp58
a(I16
I5
F-0.375
S'black'
p59
tp60
a(I25
I1
F1.0
S'best'
p61
tp62
a(I35
I6
F0.375
S'much'
p63
tp64
a(I48
I1
F1.0
S'best'
p65
tp66
a(I61
I8
I0
S'next'
p67
tp68
a(I68
I12
F1.0
S'good'
p69
tp70
a(I68
I29
F-0.375
S'small'
p71
tp72
a(I80
I6
F0.125
S'first'
p73
tp74
a(I80
I6
F-0.25
S'google'
p75
tp76
a(I80
I6
I0
S'great'
p77
tp78
a(I82
I1
F1.0
S'good'
p79
tp80
a(I82
I3
I0
S'most'
p81
tp82
a(I83
I0
F-0.125
S'mine'
p83
tp84
a(I86
I30
F0.125
S'magic'
p85
tp86
a(I93
I1
F0.375
S'new'
p87
tp88
a(I96
I0
I0
S'more'
p89
tp90
a(I96
I0
F0.5
S'satisfied'
p91
tp92
a(I99
I8
F-0.125
S'mine'
p93
tp94
a(I125
I2
I0
S'android'
p95
tp96
a(I155
I7
F-0.5
S'separate'
p97
tp98
as(S'reviews'
p99
tp100
(lp101
(I18
I8
I0
S'most'
p102
tp103
a(I18
I30
F0.25
S'professional'
p104
tp105
a(I21
I8
F-0.625
S'other'
p106
tp107
a(I40
I1
F1.0
S'good'
p108
tp109
a(I48
I0
F-0.5
S'long'
p110
tp111
a(I50
I1
I0
S'many'
p112
tp113
a(I56
I0
F0.125
S'enough'
p114
tp115
a(I175
I1
I0
S'few'
p116
tp117
a(I189
I1
F0.375
S'available'
p118
tp119
as(S'things'
p120
tp121
(lp122
(I1
I15
F-0.625
S'other'
p123
tp124
a(I2
I8
I0
S'very'
p125
tp126
a(I2
I8
I0
S'few'
p127
tp128
a(I2
I8
F0.625
S'add'
p129
tp130
a(I2
I8
F1.0
S'better'
p131
tp132
a(I18
I26
F0.875
S'music'
p133
tp134
a(I52
I23
I0
S'few'
p135
tp136
a(I52
I28
F-0.625
S'other'
p137
tp138
a(I83
I13
I0
S'same'
p139
tp140
as(S'quality'
p141
tp142
(lp143
(I7
I2
I0
S'high'
p144
tp145
a(I46
I6
I0
S'high'
p146
tp147
a(I72
I1
F0.625
S'acceptable'
p148
tp149
a(I135
I13
I0
S'high'
p150
tp151
a(I138
I13
F-0.5
S'poor'
p152
tp153
a(I160
I4
I0
S'fast'
p154
tp155
a(I160
I4
F1.0
S'better'
p156
tp157
a(I186
I2
I0
S'great'
p158
tp159
as(S'great'
p160
S'n'
p161
S'hand'
p162
tp163
(lp164
(I33
I3
I0
S'great'
p165
tp166
a(I33
I3
F-0.5
S'heavy'
p167
tp168
a(I33
I3
I0
S'sturdy'
p169
tp170
a(I56
I1
I0
S'great'
p171
tp172
a(I103
I1
I0
S'great'
p173
tp174
as(S'sd'
p175
S'card'
p176
tp177
(lp178
(I52
I44
F1.0
S'good'
p179
tp180
as(S'experience'
p181
tp182
(lp183
(I2
I4
F-0.125
S'overall'
p184
tp185
a(I52
I74
F-0.625
S'bad'
p186
tp187
a(I64
I1
I0
S'third'
p188
tp189
a(I64
I1
F1.0
S'good'
p190
tp191
a(I68
I28
I0
S'android'
p192
tp193
a(I141
I16
F0.5
S'whole'
p194
tp195
as(S'case'
p196
tp197
(lp198
(I16
I5
I0
S'slippery'
p199
tp200
a(I77
I7
F0.875
S'nice'
p201
tp202
a(I135
I17
F1.0
S'better'
p203
tp204
a(I169
I2
I0
S'slippery'
p205
tp206
a(I179
I35
F0.875
S'nice'
p207
tp208
a(I179
I35
F-0.25
S'thin'
p209
tp210
as(S'stock'
p211
S'android'
p212
tp213
(lp214
(I154
I3
I0
S'android'
p215
tp216
a(I171
I1
F-0.25
S'google'
p217
tp218
as(S'software'
p219
tp220
(lp221
(I7
I4
F1.0
S'better'
p222
tp223
a(I13
I10
I0
S'only'
p224
tp225
a(I13
I10
F-0.625
S'bad'
p226
tp227
a(I21
I20
I0
S'many'
p228
tp229
a(I21
I24
I0
S'android'
p230
tp231
a(I21
I41
F0.375
S'available'
p232
tp233
a(I21
I43
F0.375
S'available'
p234
tp235
a(I21
I45
F0.25
S'related'
p236
tp237
a(I21
I60
I0
S'such'
p238
tp239
a(I48
I3
I0
S'unnecessary'
p240
tp241
a(I50
I8
I0
S'own'
p242
tp243
a(I68
I25
F-0.625
S'other'
p244
tp245
a(I105
I0
I0
S'fluid'
p246
tp247
a(I109
I14
F-0.125
S'cant'
p248
tp249
a(I123
I0
F1.0
S'best'
p250
tp251
a(I123
I0
I0
S'latest'
p252
tp253
a(I142
I9
I0
S'own'
p254
tp255
as(S'ok'
p256
S'google'
p257
tp258
(lp259
(I16
I7
F-0.625
S'other'
p260
tp261
a(I33
I9
F0.875
S'nice'
p262
tp263
a(I40
I10
F0.875
S'nice'
p264
tp265
a(I59
I2
F-0.25
S'google'
p266
tp267
a(I125
I6
F0.375
S'loud'
p268
tp269
a(I135
I6
I0
S'navigate'
p270
tp271
as(S'sim'
p272
S'card'
p273
tp274
(lp275
(I61
I9
F0.25
S'unlocked'
p276
tp277
a(I61
I12
F-0.5
S'sure'
p278
tp279
a(I107
I8
I0
S'own'
p280
tp281
a(I109
I8
F0.375
S'new'
p282
tp283
a(I139
I0
F-0.125
S'foreign'
p284
tp285
a(I155
I1
I0
S'local'
p286
tp287
as(g161
S'r'
p288
S'hand'
p289
tp290
(lp291
(I13
I5
F0.875
S'music'
p292
tp293
a(I33
I3
I0
g165
tp294
a(I33
I3
F-0.5
g167
tp295
a(I33
I3
I0
g169
tp296
a(I56
I1
I0
g171
tp297
a(I103
I1
I0
g173
tp298
a(I125
I5
F-0.375
S'simple'
p299
tp300
a(I157
I0
F0.375
S'flexible'
p301
tp302
as(S'charge'
p303
tp304
(lp305
(I20
I1
F0.625
S'hold'
p306
tp307
a(I55
I17
I0
S'full'
p308
tp309
as(S'half'
p310
S'hour'
p311
tp312
(lp313
(I52
I29
I0
S'later'
p314
tp315
as(S'with'
p316
S'moto'
p317
g50
tp318
(lp319
(I1
I7
F1.0
g57
tp320
a(I52
I22
I0
S'lame'
p321
tp322
a(I52
I22
I0
S'specific'
p323
tp324
a(I68
I12
F1.0
g69
tp325
a(I71
I4
F0.75
S'worth'
p326
tp327
a(I80
I6
F0.125
g73
tp328
a(I80
I6
F-0.25
g75
tp329
a(I80
I6
I0
g77
tp330
a(I155
I7
F-0.5
g97
tp331
as(S'captcha'
p332
S'text'
p333
tp334
(lp335
(I13
I14
I0
S'enter'
p336
tp337
as(S'card'
p338
tp339
(lp340
(I52
I44
F1.0
g179
tp341
a(I99
I11
F0.375
S'much'
p342
tp343
as(S'love'
p344
tp345
(lp346
(I67
I1
F-0.625
S'other'
p347
tp348
a(I67
I1
F1.0
S'love'
p349
tp350
as(S'customer'
p351
S'service'
p352
tp353
(lp354
(I88
I1
I0
S'great'
p355
tp356
a(I141
I6
F0.5
S'live'
p357
tp358
as(S'fast'
p359
tp360
(lp361
(I102
I1
F-0.375
S'crazy'
p362
tp363
a(I142
I6
F-0.125
S'super'
p364
tp365
as(S'times'
p366
tp367
(lp368
(I2
I16
I0
S'few'
p369
tp370
a(I21
I24
I0
S'different'
p371
tp372
a(I25
I2
I0
S'few'
p373
tp374
a(I52
I45
F-0.5
S'less'
p375
tp376
a(I52
I45
F0.625
S'convenient'
p377
tp378
a(I52
I45
F-0.25
S'google'
p379
tp380
a(I52
I54
F-0.625
S'other'
p381
tp382
a(I54
I3
I0
S'few'
p383
tp384
a(I57
I7
I0
S'few'
p385
tp386
a(I88
I0
I0
S'different'
p387
tp388
a(I119
I0
I0
S'few'
p389
tp390
a(I135
I6
F-0.625
S'other'
p391
tp392
a(I138
I18
F-0.625
S'other'
p393
tp394
a(I144
I8
I0
S'few'
p395
tp396
a(I144
I9
F0.5
S'odd'
p397
tp398
a(I144
I9
I0
S'few'
p399
tp400
a(I154
I4
F1.0
S'better'
p401
tp402
as(S'email'
p403
tp404
(lp405
(I1
I17
F0.25
S'responsive'
p406
tp407
a(I1
I17
F1.0
S'good'
p408
tp409
a(I21
I32
F-0.625
S'quiet'
p410
tp411
a(I21
I32
I0
S'most'
p412
tp413
a(I21
I32
F-0.625
S'other'
p414
tp415
a(I35
I0
F0.625
S'major'
p416
tp417
a(I35
I1
F0.625
S'major'
p418
tp419
as(S'text'
p420
tp421
(lp422
(I109
I4
I0
S'standard'
p423
tp424
a(I160
I15
F0.875
S'important'
p425
tp426
as(S'price'
p427
tp428
(lp429
(I30
I11
F-0.5
S'less'
p430
tp431
a(I50
I1
F0.75
S'worth'
p432
tp433
a(I51
I0
F0.125
S'first'
p434
tp435
a(I53
I0
I0
S'great'
p436
tp437
a(I65
I1
I0
S'great'
p438
tp439
a(I154
I11
I0
S'standard'
p440
tp441
as(S'service'
p442
tp443
(lp444
(I127
I2
I0
S'great'
p445
tp446
as(S'need'
p447
tp448
(lp449
(I58
I4
F-0.5
S'sure'
p450
tp451
a(I58
I4
F0.875
S'nice'
p452
tp453
as(S'moto'
p454
tp455
(lp456
(I16
I5
F-0.375
g59
tp457
a(I27
I4
I0
S'many'
p458
tp459
a(I48
I1
F1.0
g65
tp460
a(I61
I8
I0
g67
tp461
a(I68
I29
F-0.375
g71
tp462
a(I71
I1
F0.5
S'second'
p463
tp464
a(I71
I4
F0.75
g326
tp465
a(I82
I3
I0
g81
tp466
a(I83
I0
F-0.125
g83
tp467
a(I93
I1
F0.375
g87
tp468
a(I99
I8
F-0.125
g93
tp469
a(I125
I2
I0
g95
tp470
a(I150
I1
F1.0
S'best'
p471
tp472
as(S'droid'
p473
S'maxx'
p474
tp475
(lp476
(I159
I2
F0.75
S'due'
p477
tp478
as(S'kit'
p479
S'kat'
p480
tp481
(lp482
(I31
I5
I0
S'android'
p483
tp484
as(S'google'
p485
tp486
(lp487
(I18
I22
F0.375
S'new'
p488
tp489
a(I33
I9
F0.875
g262
tp490
a(I104
I5
F0.5
S'drive'
p491
tp492
a(I135
I6
I0
g270
tp493
a(I179
I28
F-0.25
S'google'
p494
tp495
as(S'photo'
p496
S'quality'
p497
tp498
(lp499
(I72
I1
F0.625
g148
tp500
a(I135
I13
I0
g150
tp501
a(I138
I13
F0.125
S'first'
p502
tp503
a(I138
I13
F-0.25
S'low'
p504
tp505
a(I138
I13
F-0.5
g152
tp506
a(I161
I1
F0.625
S'easy'
p507
tp508
a(I161
I1
F1.0
S'good'
p509
tp510
as(S'features'
p511
tp512
(lp513
(I9
I1
I0
S'such'
p514
tp515
a(I43
I0
I0
S'full'
p516
tp517
a(I54
I5
I0
S'great'
p518
tp519
a(I61
I3
F0.875
S'important'
p520
tp521
a(I65
I2
I0
S'great'
p522
tp523
a(I83
I13
F-0.125
S'handful'
p524
tp525
a(I98
I0
I0
S'many'
p526
tp527
a(I109
I8
F-0.625
S'other'
p528
tp529
a(I125
I5
I0
S'cool'
p530
tp531
a(I125
I5
I0
S'useful'
p532
tp533
a(I134
I0
I0
S'most'
p534
tp535
a(I134
I0
I0
S'useful'
p536
tp537
a(I134
I0
F0.375
S'available'
p538
tp539
a(I144
I15
F-0.625
S'other'
p540
tp541
a(I154
I18
I0
S'coolest'
p542
tp543
a(I154
I18
I0
S'useful'
p544
tp545
a(I175
I8
F0.875
S'important'
p546
tp547
as(g1
S'720p'
p548
S'screen'
p549
tp550
(lp551
(I99
I1
F0.25
S'largest'
p552
tp553
as(S'android'
p554
tp555
(lp556
(I21
I43
F0.125
S'first'
p557
tp558
a(I52
I55
F-0.125
S'opposite'
p559
tp560
a(I52
I55
F0.125
S'last'
p561
tp562
a(I68
I23
F0.125
S'first'
p563
tp564
a(I72
I1
I0
S'latest'
p565
tp566
a(I109
I2
F-0.625
S'other'
p567
tp568
a(I111
I0
I0
S'such'
p569
tp570
a(I111
I0
I0
S'great'
p571
tp572
a(I125
I2
F0.125
S'first'
p573
tp574
a(I148
I1
F0.125
S'first'
p575
tp576
a(I161
I0
I0
S'great'
p577
tp578
a(I161
I0
F0.125
S'first'
p579
tp580
a(I176
I4
I0
S'old'
p581
tp582
a(I192
I0
F0.875
S'nice'
p583
tp584
as(S'voice'
p585
tp586
(lp587
(I7
I4
F-0.25
S'google'
p588
tp589
a(I7
I4
I0
S'useful'
p590
tp591
a(I21
I34
F0.5
S'polite'
p592
tp593
a(I123
I2
F0.5
S'touch'
p594
tp595
a(I123
I2
F0.875
S'nice'
p596
tp597
a(I135
I3
F-0.5
S'actual'
p598
tp599
a(I175
I8
I0
S'active'
p600
tp601
a(I175
I27
F-0.25
S'google'
p602
tp603
as(S'nexus'
p604
tp605
(lp606
(I17
I0
F1.0
S'better'
p607
tp608
a(I99
I1
I0
S'galaxy'
p609
tp610
as(S'thing'
p611
tp612
(lp613
(I11
I0
I0
S'only'
p614
tp615
a(I18
I17
F-0.875
S'hardest'
p616
tp617
a(I21
I45
I0
S'same'
p618
tp619
a(I21
I45
F-0.25
S'late'
p620
tp621
a(I22
I0
I0
S'only'
p622
tp623
a(I68
I18
F-0.625
S'other'
p624
tp625
a(I83
I3
I0
S'closest'
p626
tp627
a(I107
I11
I0
S'only'
p628
tp629
a(I118
I3
F-0.75
S'little'
p630
tp631
a(I125
I3
F-0.375
S'smooth'
p632
tp633
a(I138
I28
F0.5
S'whole'
p634
tp635
a(I169
I4
F0.5
S'odd'
p636
tp637
a(I175
I7
F-0.25
S'google'
p638
tp639
a(I178
I1
I0
S'only'
p640
tp641
as(S'34'
p642
S'ok'
p643
S'google'
p644
tp645
(lp646
(I16
I7
F-0.625
g260
tp647
a(I40
I10
F0.875
g264
tp648
a(I59
I2
F-0.25
g266
tp649
a(I125
I6
F0.375
g268
tp650
a(I135
I6
I0
g270
tp651
as(S'better'
p652
S'battery'
p653
S'life'
p654
tp655
(lp656
(I35
I2
F-0.375
S'top'
p657
tp658
a(I35
I2
F1.0
S'better'
p659
tp660
a(I35
I2
I0
S'more'
p661
tp662
a(I179
I9
F1.0
S'better'
p663
tp664
a(I180
I5
F0.375
S'much'
p665
tp666
as(S'control'
p667
tp668
(lp669
(I21
I41
F-0.625
S'bad'
p670
tp671
a(I75
I3
F1.0
S'best'
p672
tp673
a(I148
I4
I0
S'great'
p674
tp675
a(I152
I0
F0.25
S'helpful'
p676
tp677
a(I169
I8
I0
S'great'
p678
tp679
as(S'moto'
p680
g50
tp681
(lp682
(I1
I4
F0.25
g53
tp683
a(I1
I4
F0.5
g55
tp684
a(I1
I7
F1.0
g57
tp685
a(I16
I5
F-0.375
g59
tp686
a(I25
I1
F1.0
g61
tp687
a(I27
I4
I0
g458
tp688
a(I35
I6
F0.375
g63
tp689
a(I48
I1
F1.0
g65
tp690
a(I52
I22
I0
g321
tp691
a(I52
I22
I0
g323
tp692
a(I61
I8
I0
g67
tp693
a(I68
I12
F1.0
g69
tp694
a(I68
I29
F-0.375
g71
tp695
a(I71
I4
F0.75
g326
tp696
a(I80
I6
F0.125
g73
tp697
a(I80
I6
F-0.25
g75
tp698
a(I80
I6
I0
g77
tp699
a(I82
I1
F1.0
g79
tp700
a(I82
I3
I0
g81
tp701
a(I83
I0
F-0.125
g83
tp702
a(I86
I30
F0.125
g85
tp703
a(I93
I1
F0.375
g87
tp704
a(I96
I0
I0
g89
tp705
a(I96
I0
F0.5
g91
tp706
a(I99
I8
F-0.125
g93
tp707
a(I125
I2
I0
g95
tp708
a(I138
I1
F0.25
S'bigger'
p709
tp710
a(I150
I1
F1.0
g471
tp711
a(I155
I7
F-0.5
g97
tp712
a(I159
I0
F-0.25
S'google'
p713
tp714
a(I160
I3
F0.75
S'fit'
p715
tp716
as(S'to'
p717
S'moto'
p718
g50
tp719
(lp720
(I1
I4
F0.25
g53
tp721
a(I1
I4
F0.5
g55
tp722
a(I1
I7
F1.0
g57
tp723
a(I16
I5
F-0.375
g59
tp724
a(I25
I1
F1.0
g61
tp725
a(I27
I4
I0
g458
tp726
a(I35
I6
F0.375
g63
tp727
a(I48
I1
F1.0
g65
tp728
a(I52
I22
I0
g321
tp729
a(I52
I22
I0
g323
tp730
a(I61
I8
I0
g67
tp731
a(I68
I12
F1.0
g69
tp732
a(I68
I29
F-0.375
g71
tp733
a(I71
I4
F0.75
g326
tp734
a(I80
I6
F0.125
g73
tp735
a(I80
I6
F-0.25
g75
tp736
a(I80
I6
I0
g77
tp737
a(I82
I1
F1.0
g79
tp738
a(I82
I3
I0
g81
tp739
a(I83
I0
F-0.125
g83
tp740
a(I86
I30
F0.125
g85
tp741
a(I93
I1
F0.375
g87
tp742
a(I96
I0
I0
g89
tp743
a(I96
I0
F0.5
g91
tp744
a(I99
I8
F-0.125
g93
tp745
a(I125
I2
I0
g95
tp746
a(I138
I1
F0.25
g709
tp747
a(I150
I1
F1.0
g471
tp748
a(I155
I7
F-0.5
g97
tp749
a(I159
I0
F-0.25
g713
tp750
a(I160
I3
F0.75
g715
tp751
as(S'size'
p752
tp753
(lp754
(I9
I4
I0
S'large'
p755
tp756
a(I9
I4
F-0.375
S'small'
p757
tp758
a(I9
I4
F0.625
S'perfect'
p759
tp760
a(I16
I1
F0.875
S'nice'
p761
tp762
a(I16
I1
F0.625
S'easy'
p763
tp764
a(I40
I11
F-0.375
S'small'
p765
tp766
a(I103
I1
F0.625
S'perfect'
p767
tp768
a(I105
I1
F-0.75
S'comfortable'
p769
tp770
a(I105
I1
I0
S'large'
p771
tp772
a(I109
I4
F0.875
S'nice'
p773
tp774
a(I138
I30
F-0.375
S'smaller'
p775
tp776
a(I157
I0
F0.625
S'perfect'
p777
tp778
as(S'make'
p779
tp780
(lp781
(I107
I13
F0.625
S'easy'
p782
tp783
as(S'hours'
p784
tp785
(lp786
(I49
I0
I0
S'few'
p787
tp788
a(I173
I5
I0
S'more'
p789
tp790
a(I173
I5
I0
S'mobile'
p791
tp792
as(S'work'
p793
tp794
(lp795
(I26
I3
F1.0
S'good'
p796
tp797
a(I51
I7
F-0.375
S'servant'
p798
tp799
a(I68
I40
F0.5
S'personal'
p800
tp801
a(I77
I18
F1.0
S'good'
p802
tp803
as(S'surface'
p804
S'rt'
p805
tp806
(lp807
(I21
I60
F1.0
S'better'
p808
tp809
as(S'battery'
p810
S'life'
p811
tp812
(lp813
(I1
I14
I0
S'great'
p814
tp815
a(I7
I6
I0
S'limited'
p816
tp817
a(I35
I2
F-0.375
g657
tp818
a(I35
I2
F1.0
g659
tp819
a(I35
I2
I0
g661
tp820
a(I35
I5
F1.0
S'good'
p821
tp822
a(I52
I46
F0.625
S'acceptable'
p823
tp824
a(I55
I13
I0
S'great'
p825
tp826
a(I59
I4
F0.625
S'decent'
p827
tp828
a(I59
I7
I0
S'more'
p829
tp830
a(I59
I7
F0.375
S'extended'
p831
tp832
a(I61
I5
I0
S'great'
p833
tp834
a(I86
I30
F-0.75
S'shorter'
p835
tp836
a(I93
I1
F1.0
S'good'
p837
tp838
a(I99
I5
F0.375
S'extra'
p839
tp840
a(I99
I16
F0.625
S'replaceable'
p841
tp842
a(I99
I16
F1.0
S'good'
p843
tp844
a(I99
I16
F0.375
S'extra'
p845
tp846
a(I115
I3
I0
S'great'
p847
tp848
a(I115
I7
I0
S'great'
p849
tp850
a(I135
I6
F1.0
S'good'
p851
tp852
a(I142
I10
F-0.25
S'disappointing'
p853
tp854
a(I166
I4
I0
S'great'
p855
tp856
a(I175
I18
I0
S'great'
p857
tp858
a(I179
I9
F1.0
g663
tp859
a(I179
I14
F-0.5
S'long'
p860
tp861
a(I179
I16
F1.0
S'best'
p862
tp863
a(I179
I16
F0.25
S'larger'
p864
tp865
as(S'back'
p866
tp867
(lp868
(I128
I0
F-0.375
S'black'
p869
tp870
as(S'life'
p871
tp872
(lp873
(I1
I14
I0
g814
tp874
a(I35
I2
I0
g661
tp875
a(I35
I5
F1.0
g821
tp876
a(I52
I46
F0.625
g823
tp877
a(I55
I13
I0
g825
tp878
a(I59
I4
F0.625
g827
tp879
a(I61
I5
I0
g833
tp880
a(I80
I11
F1.0
S'better'
p881
tp882
a(I86
I30
F-0.75
g835
tp883
a(I99
I16
F1.0
g843
tp884
a(I135
I6
F1.0
g851
tp885
a(I142
I10
F-0.25
g853
tp886
a(I175
I18
I0
g857
tp887
a(I175
I28
F0.625
S'easier'
p888
tp889
a(I179
I16
F0.25
g864
tp890
as(g161
S'hand'
p891
tp892
(lp893
(I13
I5
F0.875
g292
tp894
a(I33
I3
I0
g165
tp895
a(I33
I3
F-0.5
g167
tp896
a(I33
I3
I0
g169
tp897
a(I56
I1
I0
g171
tp898
a(I103
I1
I0
g173
tp899
a(I125
I5
F-0.375
g299
tp900
a(I157
I0
F0.375
g301
tp901
as(g288
S'hand'
p902
tp903
(lp904
(I13
I5
F0.875
g292
tp905
a(I33
I3
I0
g165
tp906
a(I33
I3
F-0.5
g167
tp907
a(I33
I3
I0
g169
tp908
a(I56
I1
I0
g171
tp909
a(I103
I1
I0
g173
tp910
a(I125
I5
F-0.375
g299
tp911
a(I157
I0
F0.375
g301
tp912
as(S'republic'
p913
S'wireless'
p914
tp915
(lp916
(I2
I3
I0
S'republic'
p917
tp918
a(I16
I0
I0
S'republic'
p919
tp920
a(I16
I0
F0.875
S'happy'
p921
tp922
a(I21
I1
F-0.125
S'mine'
p923
tp924
a(I21
I1
I0
S'republic'
p925
tp926
a(I40
I7
I0
S'republic'
p927
tp928
a(I59
I0
I0
S'republic'
p929
tp930
a(I59
I3
I0
S'republic'
p931
tp932
a(I59
I3
F-0.75
S'wrong'
p933
tp934
a(I84
I0
I0
S'republic'
p935
tp936
a(I84
I3
I0
S'republic'
p937
tp938
a(I84
I3
I0
S'republic'
p939
tp940
a(I90
I0
I0
S'republic'
p941
tp942
a(I142
I0
I0
S'republic'
p943
tp944
as(S'user'
p945
tp946
(lp947
(I21
I52
I0
S'particular'
p948
tp949
a(I68
I41
F-0.625
S'average'
p950
tp951
a(I72
I2
I0
S'graphical'
p952
tp953
a(I109
I3
F-0.5
g6
tp954
a(I115
I6
F-0.5
g8
tp955
a(I115
I7
F-0.5
g10
tp956
a(I152
I0
F-0.5
g12
tp957
a(I181
I0
F-0.25
S'google'
p958
tp959
as(S'active'
p960
S'display'
p961
tp962
(lp963
(I30
I4
I0
S'active'
p964
tp965
a(I52
I24
I0
S'active'
p966
tp967
a(I99
I10
I0
S'active'
p968
tp969
a(I99
I11
I0
S'active'
p970
tp971
a(I126
I1
I0
S'active'
p972
tp973
a(I129
I1
I0
S'active'
p974
tp975
a(I132
I3
I0
S'active'
p976
tp977
a(I138
I5
I0
S'active'
p978
tp979
a(I138
I9
I0
S'active'
p980
tp981
a(I138
I31
I0
S'active'
p982
tp983
a(I138
I31
I0
S'useful'
p984
tp985
a(I148
I3
I0
S'active'
p986
tp987
a(I154
I18
I0
S'active'
p988
tp989
a(I154
I18
F-0.125
S'super'
p990
tp991
a(I154
I18
I0
S'useful'
p992
tp993
a(I155
I8
I0
S'active'
p994
tp995
a(I175
I8
I0
S'active'
p996
tp997
a(I175
I15
I0
S'active'
p998
tp999
a(I182
I1
I0
S'active'
p1000
tp1001
as(S'display'
p1002
tp1003
(lp1004
(I30
I4
I0
g964
tp1005
a(I52
I24
I0
g966
tp1006
a(I54
I2
F0.75
S'beautiful'
p1007
tp1008
a(I99
I10
I0
g968
tp1009
a(I99
I11
I0
g970
tp1010
a(I126
I1
I0
g972
tp1011
a(I129
I1
I0
g974
tp1012
a(I132
I2
F0.75
S'beautiful'
p1013
tp1014
a(I132
I3
I0
g976
tp1015
a(I138
I5
I0
g978
tp1016
a(I138
I9
I0
g980
tp1017
a(I138
I31
I0
g982
tp1018
a(I138
I31
I0
g984
tp1019
a(I148
I3
I0
g986
tp1020
a(I154
I18
I0
g988
tp1021
a(I154
I18
F-0.125
g990
tp1022
a(I154
I18
I0
g992
tp1023
a(I155
I8
I0
g994
tp1024
a(I175
I8
I0
g996
tp1025
a(I175
I15
I0
g998
tp1026
a(I182
I1
I0
g1000
tp1027
as(S'battery'
p1028
tp1029
(lp1030
(I7
I6
I0
g816
tp1031
a(I11
I0
I0
S'faster'
p1032
tp1033
a(I18
I2
F0.25
S'original'
p1034
tp1035
a(I21
I8
F0.125
S'enough'
p1036
tp1037
a(I21
I24
F1.0
S'best'
p1038
tp1039
a(I29
I2
F0.125
S'last'
p1040
tp1041
a(I30
I6
F0.125
S'last'
p1042
tp1043
a(I32
I1
I0
S'great'
p1044
tp1045
a(I35
I2
F-0.375
g657
tp1046
a(I35
I2
F1.0
g659
tp1047
a(I45
I1
F0.625
S'perfect'
p1048
tp1049
a(I45
I2
I0
S'same'
p1050
tp1051
a(I59
I7
I0
g829
tp1052
a(I59
I7
F0.375
g831
tp1053
a(I69
I4
F0.625
S'removable'
p1054
tp1055
a(I69
I4
F-0.75
S'difficult'
p1056
tp1057
a(I93
I1
F1.0
g837
tp1058
a(I99
I5
F0.375
g839
tp1059
a(I99
I14
F0.625
S'replaceable'
p1060
tp1061
a(I99
I16
F0.625
g841
tp1062
a(I99
I16
F0.375
g845
tp1063
a(I107
I11
F0.625
S'easy'
p1064
tp1065
a(I108
I3
F0.375
S'new'
p1066
tp1067
a(I108
I3
F0.25
S'original'
p1068
tp1069
a(I108
I5
F-0.75
S'wrong'
p1070
tp1071
a(I108
I5
F0.25
S'original'
p1072
tp1073
a(I115
I3
I0
g847
tp1074
a(I115
I7
I0
g849
tp1075
a(I138
I31
F0.375
S'much'
p1076
tp1077
a(I154
I19
F1.0
S'good'
p1078
tp1079
a(I158
I0
F1.0
S'good'
p1080
tp1081
a(I158
I0
F0.875
S'nice'
p1082
tp1083
a(I160
I14
F0.25
S'bigger'
p1084
tp1085
a(I166
I4
I0
g855
tp1086
a(I173
I5
F0.875
S'nice'
p1087
tp1088
a(I179
I9
F1.0
g663
tp1089
a(I179
I14
F-0.5
g860
tp1090
a(I179
I16
F1.0
g862
tp1091
a(I179
I30
I0
S'great'
p1092
tp1093
a(I180
I3
F-0.875
S'worst'
p1094
tp1095
as(S'samsung'
p1096
S'galaxy'
p1097
tp1098
(lp1099
(I18
I5
F1.0
S'better'
p1100
tp1101
as(S'calls'
p1102
tp1103
(lp1104
(I45
I2
I0
S'internet'
p1105
tp1106
a(I52
I58
I0
S'few'
p1107
tp1108
a(I82
I9
F0.875
S'important'
p1109
tp1110
as(g1
S'moto'
p1111
g50
tp1112
(lp1113
(I1
I4
F0.25
g53
tp1114
a(I1
I4
F0.5
g55
tp1115
a(I1
I7
F1.0
g57
tp1116
a(I16
I5
F-0.375
g59
tp1117
a(I25
I1
F1.0
g61
tp1118
a(I27
I4
I0
g458
tp1119
a(I35
I6
F0.375
g63
tp1120
a(I48
I1
F1.0
g65
tp1121
a(I52
I22
I0
g321
tp1122
a(I52
I22
I0
g323
tp1123
a(I61
I8
I0
g67
tp1124
a(I68
I12
F1.0
g69
tp1125
a(I68
I29
F-0.375
g71
tp1126
a(I71
I4
F0.75
g326
tp1127
a(I80
I6
F0.125
g73
tp1128
a(I80
I6
F-0.25
g75
tp1129
a(I80
I6
I0
g77
tp1130
a(I82
I1
F1.0
g79
tp1131
a(I82
I3
I0
g81
tp1132
a(I86
I30
F0.125
g85
tp1133
a(I93
I1
F0.375
g87
tp1134
a(I96
I0
I0
g89
tp1135
a(I96
I0
F0.5
g91
tp1136
a(I99
I8
F-0.125
g93
tp1137
a(I125
I2
I0
g95
tp1138
a(I138
I1
F0.25
g709
tp1139
a(I150
I1
F1.0
g471
tp1140
a(I155
I7
F-0.5
g97
tp1141
a(I159
I0
F-0.25
g713
tp1142
a(I160
I3
F0.75
g715
tp1143
as(S'time'
p1144
tp1145
(lp1146
(I18
I21
F-0.75
S'short'
p1147
tp1148
a(I35
I4
F-0.5
S'less'
p1149
tp1150
a(I38
I3
I0
S'same'
p1151
tp1152
a(I52
I55
F-0.5
S'long'
p1153
tp1154
a(I55
I22
F0.75
S'worth'
p1155
tp1156
a(I59
I5
I0
S'same'
p1157
tp1158
a(I66
I0
F0.125
S'first'
p1159
tp1160
a(I77
I0
F0.125
S'first'
p1161
tp1162
a(I79
I2
F0.875
S'worthy'
p1163
tp1164
a(I79
I2
F-0.5
S'long'
p1165
tp1166
a(I138
I8
F0.875
S'nice'
p1167
tp1168
a(I151
I5
F-0.25
S'ready'
p1169
tp1170
a(I151
I5
F0.375
S'prime'
p1171
tp1172
a(I175
I27
F0.125
S'first'
p1173
tp1174
a(I179
I18
F0.375
S'available'
p1175
tp1176
as(S'sim'
p1177
S'cards'
p1178
tp1179
(lp1180
(I61
I9
F0.25
g276
tp1181
a(I61
I12
F-0.5
g278
tp1182
a(I61
I12
F0.375
S'worked'
p1183
tp1184
as(S'34'
p1185
S'ok'
p1186
tp1187
(lp1188
(I16
I7
F-0.625
g260
tp1189
a(I40
I10
F0.875
g264
tp1190
a(I59
I2
F-0.25
g266
tp1191
a(I125
I6
F0.375
g268
tp1192
as(S'touchless'
p1193
tp1194
(lp1195
(I52
I31
I0
S'many'
p1196
tp1197
as(S'galaxy'
p1198
S'nexus'
p1199
tp1200
(lp1201
(I99
I1
I0
g609
tp1202
a(I99
I1
F0.25
S'original'
p1203
tp1204
as(S'of'
p1205
S'moto'
p1206
g50
tp1207
(lp1208
(I1
I4
F0.25
g53
tp1209
a(I1
I4
F0.5
g55
tp1210
a(I1
I7
F1.0
g57
tp1211
a(I61
I8
I0
g67
tp1212
a(I68
I12
F1.0
g69
tp1213
a(I80
I6
F0.125
g73
tp1214
a(I80
I6
F-0.25
g75
tp1215
a(I80
I6
I0
g77
tp1216
a(I82
I3
I0
g81
tp1217
a(I93
I1
F0.375
g87
tp1218
a(I138
I1
F0.25
g709
tp1219
as(S'screen'
p1220
tp1221
(lp1222
(I2
I9
F1.0
S'best'
p1223
tp1224
a(I7
I2
F1.0
S'good'
p1225
tp1226
a(I7
I4
F-0.75
S'impossible'
p1227
tp1228
a(I9
I3
I0
S'high'
p1229
tp1230
a(I18
I19
F0.125
S'first'
p1231
tp1232
a(I18
I29
F0.25
S'bigger'
p1233
tp1234
a(I21
I2
F0.25
S'biggest'
p1235
tp1236
a(I21
I2
I0
S'fast'
p1237
tp1238
a(I21
I2
I0
S'big'
p1239
tp1240
a(I26
I2
F0.625
S'perfect'
p1241
tp1242
a(I26
I4
F0.75
S'beautiful'
p1243
tp1244
a(I26
I6
F0.875
S'nice'
p1245
tp1246
a(I27
I2
F-0.625
S'free'
p1247
tp1248
a(I27
I3
F-0.625
S'free'
p1249
tp1250
a(I52
I32
I0
S'lame'
p1251
tp1252
a(I52
I39
F0.25
S'bigger'
p1253
tp1254
a(I55
I1
I0
S'large'
p1255
tp1256
a(I68
I9
F0.375
S'much'
p1257
tp1258
a(I68
I11
I0
S'great'
p1259
tp1260
a(I68
I14
F0.625
S'noticeable'
p1261
tp1262
a(I69
I1
F-0.125
S'super'
p1263
tp1264
a(I69
I1
F0.25
S'responsive'
p1265
tp1266
a(I81
I0
F0.25
S'bigger'
p1267
tp1268
a(I84
I0
I0
S'big'
p1269
tp1270
a(I86
I10
F0.875
S'nice'
p1271
tp1272
a(I86
I10
F-0.75
S'bright'
p1273
tp1274
a(I86
I19
F-0.375
S'top'
p1275
tp1276
a(I94
I1
I0
S'great'
p1277
tp1278
a(I99
I0
F-0.25
S'giant'
p1279
tp1280
a(I99
I1
F0.25
g552
tp1281
a(I99
I6
F0.25
S'larger'
p1282
tp1283
a(I111
I0
F-0.375
S'smaller'
p1284
tp1285
a(I123
I1
I0
S'more'
p1286
tp1287
a(I125
I4
F0.25
S'bigger'
p1288
tp1289
a(I133
I1
F0.75
S'beautiful'
p1290
tp1291
a(I134
I1
F0.125
S'able'
p1292
tp1293
a(I134
I1
I0
S'big'
p1294
tp1295
a(I138
I2
F0.25
S'bigger'
p1296
tp1297
a(I138
I4
I0
S'empty'
p1298
tp1299
a(I138
I25
F-0.25
S'past'
p1300
tp1301
a(I138
I30
F0.25
S'bigger'
p1302
tp1303
a(I138
I32
F-0.625
S'unnoticeable'
p1304
tp1305
a(I144
I3
F0.875
S'nice'
p1306
tp1307
a(I144
I3
I0
S'large'
p1308
tp1309
a(I144
I15
F0.75
S'beautiful'
p1310
tp1311
a(I144
I15
F0.625
S'easy'
p1312
tp1313
a(I154
I13
F0.375
S'extra'
p1314
tp1315
a(I154
I13
F0.5
S'second'
p1316
tp1317
a(I154
I20
F0.75
S'beautiful'
p1318
tp1319
a(I166
I3
F-0.375
S'fanciest'
p1320
tp1321
a(I166
I3
I0
S'own'
p1322
tp1323
a(I166
I3
F0.625
S'right'
p1324
tp1325
a(I171
I1
F0.5
S'touch'
p1326
tp1327
a(I173
I3
F0.5
S'whole'
p1328
tp1329
a(I173
I3
I0
S'big'
p1330
tp1331
a(I175
I24
F1.0
S'better'
p1332
tp1333
a(I179
I8
F-0.375
S'small'
p1334
tp1335
a(I179
I16
F-0.5
S'heavier'
p1336
tp1337
a(I179
I17
F0.25
S'larger'
p1338
tp1339
a(I179
I31
F-0.75
S'difficult'
p1340
tp1341
a(I184
I1
F-0.75
S'bright'
p1342
tp1343
as(S'everything'
p1344
tp1345
(lp1346
(I19
I3
I0
S'most'
p1347
tp1348
a(I109
I9
I0
S'great'
p1349
tp1350
as(S'samsung'
p1351
tp1352
(lp1353
(I18
I5
F1.0
g1100
tp1354
a(I24
I0
F0.5
S'comparable'
p1355
tp1356
a(I165
I1
F0.5
S'comparable'
p1357
tp1358
as(S'camera'
p1359
tp1360
(lp1361
(I1
I7
F0.875
S'nice'
p1362
tp1363
a(I1
I11
F0.625
S'accessible'
p1364
tp1365
a(I23
I0
F-0.5
S'open'
p1366
tp1367
a(I50
I9
F-0.25
S'google'
p1368
tp1369
a(I52
I26
I0
S'useful'
p1370
tp1371
a(I65
I3
I0
S'great'
p1372
tp1373
a(I68
I50
I0
S'great'
p1374
tp1375
a(I68
I50
F0.75
S'due'
p1376
tp1377
a(I70
I0
I0
S'great'
p1378
tp1379
a(I83
I9
F0.25
S'queen'
p1380
tp1381
a(I111
I0
F1.0
S'better'
p1382
tp1383
a(I135
I12
F-0.5
S'actual'
p1384
tp1385
a(I138
I33
F1.0
S'best'
p1386
tp1387
a(I144
I8
I0
S'launch'
p1388
tp1389
a(I160
I4
F-0.5
S'poor'
p1390
tp1391
a(I166
I7
F0.5
S'rid'
p1392
tp1393
a(I179
I25
I0
S'update'
p1394
tp1395
as(S'galaxy'
p1396
tp1397
(lp1398
(I99
I1
F0.25
g1203
tp1399
as(S'love'
p1400
S'moto'
p1401
g50
tp1402
(lp1403
(I35
I6
F0.375
g63
tp1404
a(I96
I0
I0
g89
tp1405
a(I96
I0
F0.5
g91
tp1406
as(S'people'
p1407
tp1408
(lp1409
(I18
I3
F-0.375
S'fanciest'
p1410
tp1411
a(I18
I32
F-0.5
S'sure'
p1412
tp1413
a(I18
I32
I0
S'most'
p1414
tp1415
a(I32
I4
I0
S'normal'
p1416
tp1417
a(I68
I11
I0
S'many'
p1418
tp1419
a(I68
I46
I0
S'most'
p1420
tp1421
a(I68
I46
F0.125
S'able'
p1422
tp1423
a(I86
I9
F0.125
S'able'
p1424
tp1425
a(I109
I9
I0
S'great'
p1426
tp1427
as(S'use'
p1428
S'google'
p1429
tp1430
(lp1431
(I7
I4
F0.125
S'practical'
p1432
tp1433
a(I33
I9
F0.875
g262
tp1434
a(I90
I0
F-0.625
S'moderate'
p1435
tp1436
as(S'feature'
p1437
tp1438
(lp1439
(I2
I11
F0.25
S'favorite'
p1440
tp1441
a(I40
I6
F-0.5
S'less'
p1442
tp1443
a(I52
I25
I0
S'normal'
p1444
tp1445
a(I86
I24
I0
S'great'
p1446
tp1447
a(I138
I18
F0.875
S'nice'
p1448
tp1449
as(S'feel'
p1450
tp1451
(lp1452
(I138
I5
F0.125
S'solid'
p1453
tp1454
a(I179
I29
F0.25
S'helpful'
p1455
tp1456
a(I179
I29
F-0.625
S'free'
p1457
tp1458
as(S'works'
p1459
tp1460
(lp1461
(I0
I1
I0
S'more'
p1462
tp1463
a(I16
I1
I0
S'great'
p1464
tp1465
a(I61
I11
F1.0
S'best'
p1466
tp1467
a(I142
I8
I0
S'great'
p1468
tp1469
a(I156
I1
F0.875
S'nice'
p1470
tp1471
as(S'better'
p1472
tp1473
(lp1474
(I109
I2
F0.375
S'much'
p1475
tp1476
a(I151
I8
I0
S'android'
p1477
tp1478
a(I180
I5
F0.375
g665
tp1479
as(S'call'
p1480
tp1481
(lp1482
(I52
I5
I0
S'most'
p1483
tp1484
a(I52
I5
F0.875
S'important'
p1485
tp1486
as(S'hand'
p1487
tp1488
(lp1489
(I13
I5
F0.875
g292
tp1490
a(I33
I3
I0
g165
tp1491
a(I33
I3
F-0.5
g167
tp1492
a(I33
I3
I0
g169
tp1493
a(I56
I1
I0
g171
tp1494
a(I103
I1
I0
g173
tp1495
a(I125
I5
F-0.375
g299
tp1496
a(I157
I0
F0.375
g301
tp1497
as(S'much'
p1498
S'better'
p1499
tp1500
(lp1501
(I109
I2
F0.375
g1475
tp1502
a(I180
I5
F0.375
g665
tp1503
as(S'touchless'
p1504
S'control'
p1505
tp1506
(lp1507
(I148
I4
I0
g674
tp1508
a(I152
I0
F0.25
g676
tp1509
a(I169
I8
I0
g678
tp1510
as(S'light'
p1511
tp1512
(lp1513
(I52
I65
F-0.25
S'low'
p1514
tp1515
a(I169
I5
F-0.75
S'short'
p1516
tp1517
a(I169
I6
F0.875
S'nice'
p1518
tp1519
as(S'review'
p1520
tp1521
(lp1522
(I56
I2
F0.5
S'technical'
p1523
tp1524
a(I77
I11
F0.25
S'professional'
p1525
tp1526
as(S'form'
p1527
S'factor'
p1528
tp1529
(lp1530
(I7
I0
F-0.75
S'comfortable'
p1531
tp1532
a(I35
I4
I0
S'great'
p1533
tp1534
a(I109
I4
F-0.375
S'small'
p1535
tp1536
as(S'apps'
p1537
tp1538
(lp1539
(I13
I11
F-0.25
S'google'
p1540
tp1541
a(I21
I46
I0
S'most'
p1542
tp1543
a(I33
I5
F0.375
S'new'
p1544
tp1545
a(I50
I6
F-0.625
S'other'
p1546
tp1547
a(I55
I15
I0
S'many'
p1548
tp1549
a(I70
I0
I0
S'fast'
p1550
tp1551
a(I151
I0
F-0.25
S'google'
p1552
tp1553
a(I151
I1
F-0.25
S'google'
p1554
tp1555
a(I176
I4
I0
S'great'
p1556
tp1557
as(S'feels'
p1558
tp1559
(lp1560
(I159
I2
I0
S'great'
p1561
tp1562
as.