(dp0
(S'windows'
p1
tp2
(lp3
(I6
I0
I0
S'mobile'
p4
tp5
a(I17
I1
F0.875
S'nice'
p6
tp7
a(I20
I3
I0
S'android'
p8
tp9
a(I23
I0
F0.625
S'decent'
p10
tp11
a(I28
I0
F0.25
S'familiar'
p12
tp13
a(I29
I1
F0.25
S'original'
p14
tp15
a(I49
I3
F0.125
S'first'
p16
tp17
a(I57
I3
I0
S'mobile'
p18
tp19
a(I84
I0
F0.125
S'first'
p20
tp21
a(I86
I0
F0.375
S'available'
p22
tp23
a(I89
I2
F-0.625
S'bad'
p24
tp25
a(I92
I1
I0
S'full'
p26
tp27
a(I100
I1
I0
S'faster'
p28
tp29
a(I105
I2
I0
S'android'
p30
tp31
a(I105
I10
F0.5
S'compatible'
p32
tp33
a(I108
I0
F1.0
S'good'
p34
tp35
a(I117
I2
F0.25
S'familiar'
p36
tp37
a(I118
I1
I0
S'curious'
p38
tp39
a(I119
I3
F1.0
S'good'
p40
tp41
a(I131
I0
F0.625
S'easy'
p42
tp43
a(I131
I0
F0.375
S'reliable'
p44
tp45
a(I133
I29
I0
S'most'
p46
tp47
a(I135
I2
I0
S'mobile'
p48
tp49
a(I140
I1
I0
S'android'
p50
tp51
a(I140
I1
I0
S'android'
p52
tp53
a(I142
I10
F0.625
S'easy'
p54
tp55
a(I163
I0
F-0.625
S'bad'
p56
tp57
a(I163
I0
I0
S'great'
p58
tp59
a(I170
I1
F0.875
S'happy'
p60
tp61
a(I178
I5
I0
S'android'
p62
tp63
a(I178
I6
F0.25
S'familiar'
p64
tp65
a(I199
I2
I0
S'curious'
p66
tp67
a(I199
I10
F0.875
S'happy'
p68
tp69
a(I199
I10
I0
S'many'
p70
tp71
a(I237
I1
F0.625
S'easy'
p72
tp73
a(I268
I2
I0
S'mobile'
p74
tp75
a(I344
I2
I0
S'few'
p76
tp77
a(I356
I0
F0.875
S'nice'
p78
tp79
a(I368
I45
I0
S'old'
p80
tp81
a(I372
I0
F-0.5
S'less'
p82
tp83
a(I384
I1
F0.125
S'first'
p84
tp85
a(I404
I22
F1.0
S'best'
p86
tp87
a(I413
I3
I0
S'only'
p88
tp89
a(I413
I3
F-0.875
S'negative'
p90
tp91
a(I413
I5
I0
S'android'
p92
tp93
a(I439
I1
F0.375
S'much'
p94
tp95
a(I439
I1
F1.0
S'better'
p96
tp97
a(I468
I7
F-0.375
S'simple'
p98
tp99
a(I468
I12
F0.625
S'easy'
p100
tp101
a(I475
I0
I0
S'android'
p102
tp103
a(I488
I0
F0.25
S'familiar'
p104
tp105
a(I504
I3
F0.125
S'popular'
p106
tp107
a(I504
I38
F-0.5
S'miss'
p108
tp109
a(I512
I0
I0
S'fast'
p110
tp111
a(I518
I7
I0
S'great'
p112
tp113
a(I539
I0
I0
S'great'
p114
tp115
a(I543
I20
F-0.75
S'wrong'
p116
tp117
a(I545
I0
F0.375
S'available'
p118
tp119
a(I546
I3
F0.75
S'worth'
p120
tp121
a(I551
I0
I0
S'mobile'
p122
tp123
a(I570
I1
F0.125
S'first'
p124
tp125
a(I571
I1
I0
S'great'
p126
tp127
a(I573
I8
I0
S'more'
p128
tp129
a(I580
I0
F1.0
S'good'
p130
tp131
a(I594
I4
I0
S'different'
p132
tp133
a(I602
I2
I0
S'more'
p134
tp135
a(I637
I4
I0
S'laptop'
p136
tp137
a(I641
I15
I0
S'curious'
p138
tp139
a(I643
I2
I0
S'topic'
p140
tp141
a(I644
I5
F-0.625
S'other'
p142
tp143
a(I644
I7
F-0.625
S'other'
p144
tp145
a(I653
I1
F1.0
S'love'
p146
tp147
a(I718
I2
F0.375
S'new'
p148
tp149
a(I720
I0
F0.125
S'first'
p150
tp151
a(I730
I2
F0.75
S'due'
p152
tp153
a(I776
I0
F0.25
S'familiar'
p154
tp155
a(I787
I4
F0.5
S'bought'
p156
tp157
a(I787
I4
I0
S'great'
p158
tp159
a(I800
I5
F-0.625
S'other'
p160
tp161
a(I800
I7
F-0.625
S'other'
p162
tp163
a(I813
I2
I0
S'old'
p164
tp165
a(I815
I0
F1.0
S'good'
p166
tp167
a(I817
I1
F0.625
S'easy'
p168
tp169
a(I817
I1
F0.25
S'familiar'
p170
tp171
a(I843
I1
F0.5
S'whole'
p172
tp173
a(I872
I2
F0.625
S'easier'
p174
tp175
a(I883
I1
F1.0
S'good'
p176
tp177
a(I883
I1
I0
S'basic'
p178
tp179
a(I887
I0
F0.375
S'new'
p180
tp181
a(I973
I2
F0.5
S'functional'
p182
tp183
a(I981
I1
F-0.5
S'sure'
p184
tp185
a(I985
I34
I0
S'laptop'
p186
tp187
a(I987
I1
I0
S'mobile'
p188
tp189
a(I989
I5
F-0.5
S'miss'
p190
tp191
a(I990
I5
F0.625
S'interested'
p192
tp193
a(I998
I1
F0.125
S'first'
p194
tp195
a(I1010
I0
F0.125
S'first'
p196
tp197
a(I1010
I1
F-0.625
S'other'
p198
tp199
a(I1010
I22
I0
S'great'
p200
tp201
a(I1023
I11
F0.125
S'first'
p202
tp203
a(I1023
I13
F1.0
S'better'
p204
tp205
a(I1032
I4
F0.625
S'easy'
p206
tp207
a(I1042
I0
F-0.875
S'hard'
p208
tp209
a(I1067
I6
F-0.625
S'other'
p210
tp211
a(I1070
I0
F1.0
S'best'
p212
tp213
a(I1091
I0
F0.125
S'first'
p214
tp215
a(I1100
I1
I0
S'mobile'
p216
tp217
a(I1100
I16
I0
S'mobile'
p218
tp219
a(I1102
I6
F0.375
S'new'
p220
tp221
a(I1113
I1
F0.625
S'easy'
p222
tp223
a(I1115
I3
F0.375
S'new'
p224
tp225
a(I1115
I4
I0
S'current'
p226
tp227
a(I1132
I5
F0.875
S'nice'
p228
tp229
a(I1140
I2
F-0.25
S'inexpensive'
p230
tp231
a(I1141
I2
F0.125
S'first'
p232
tp233
a(I1175
I0
F0.375
S'new'
p234
tp235
a(I1180
I39
F1.0
S'good'
p236
tp237
a(I1195
I0
F0.375
S'similar'
p238
tp239
a(I1204
I4
F0.375
S'available'
p240
tp241
a(I1208
I2
F0.375
S'available'
p242
tp243
a(I1234
I1
I0
S'laptop'
p244
tp245
a(I1237
I2
F-0.5
S'sure'
p246
tp247
a(I1246
I7
F-0.5
S'sure'
p248
tp249
as(S'want'
p250
S'to'
p251
S'use'
p252
tp253
(lp254
(I395
I25
F-0.5
S'regular'
p255
tp256
a(I659
I64
F0.375
S'early'
p257
tp258
a(I802
I9
I0
S'useful'
p259
tp260
as(S'cheap'
p261
tp262
(lp263
(I182
I1
F1.0
S'good'
p264
tp265
a(I238
I0
F1.0
S'good'
p266
tp267
a(I286
I0
F0.625
S'easy'
p268
tp269
a(I310
I2
I0
S'android'
p270
tp271
a(I401
I1
F-0.25
S'cheaper'
p272
tp273
a(I496
I8
I0
S'such'
p274
tp275
a(I509
I1
I0
S'few'
p276
tp277
a(I548
I1
F0.875
S'nice'
p278
tp279
a(I783
I3
I0
S'only'
p280
tp281
a(I1104
I0
I0
S'great'
p282
tp283
a(I1138
I1
I0
S'such'
p284
tp285
a(I1200
I1
F-0.625
S'other'
p286
tp287
a(I1213
I0
F0.375
S'new'
p288
tp289
a(I1221
I1
I0
S'great'
p290
tp291
a(I1236
I6
I0
S'great'
p292
tp293
as(S'nice'
p294
tp295
(lp296
(I558
I4
F-0.625
S'other'
p297
tp298
a(I654
I0
I0
S'user'
p299
tp300
a(I807
I1
F0.5
S'expensive'
p301
tp302
as(S'touch'
p303
tp304
(lp305
(I7
I0
I0
S'sensitive'
p306
tp307
a(I86
I0
F1.0
S'good'
p308
tp309
a(I101
I1
F0.625
S'easy'
p310
tp311
a(I101
I1
I0
S'fluid'
p312
tp313
a(I101
I1
I0
S'predictable'
p314
tp315
a(I203
I1
I0
S'sensitive'
p316
tp317
a(I260
I2
F0.125
S'capable'
p318
tp319
a(I295
I1
F0.875
S'nice'
p320
tp321
a(I310
I1
I0
S'great'
p322
tp323
a(I401
I1
F-0.375
S'smaller'
p324
tp325
a(I401
I6
F0.875
S'nice'
p326
tp327
a(I406
I0
F0.125
S'first'
p328
tp329
a(I465
I9
I0
S'soft'
p330
tp331
a(I465
I9
I0
S'plastic'
p332
tp333
a(I531
I5
I0
S'different'
p334
tp335
a(I599
I0
F0.125
S'first'
p336
tp337
a(I717
I2
F0.25
S'responsive'
p338
tp339
a(I748
I9
F0.875
S'nice'
p340
tp341
a(I776
I5
F0.25
S'responsive'
p342
tp343
a(I785
I13
F0.875
S'nice'
p344
tp345
a(I802
I9
I0
S'most'
p346
tp347
a(I918
I7
F0.375
S'much'
p348
tp349
a(I918
I26
F0.125
S'able'
p350
tp351
a(I1123
I0
I0
S'sensitive'
p352
tp353
as(S'with'
p354
S'straight'
p355
S'talk'
p356
tp357
(lp358
(I169
I1
F0.625
S'straight'
p359
tp360
a(I170
I0
F0.625
S'straight'
p361
tp362
a(I195
I5
F0.625
S'straight'
p363
tp364
a(I226
I1
F0.625
S'straight'
p365
tp366
a(I256
I0
F0.625
S'straight'
p367
tp368
a(I256
I1
F0.625
S'straight'
p369
tp370
a(I256
I2
F0.625
S'straight'
p371
tp372
a(I518
I4
F0.625
S'straight'
p373
tp374
a(I518
I4
F0.625
S'straight'
p375
tp376
a(I518
I4
F0.625
S'straight'
p377
tp378
a(I525
I0
F0.625
S'straight'
p379
tp380
a(I779
I1
F0.625
S'straight'
p381
tp382
a(I928
I1
F0.625
S'straight'
p383
tp384
a(I990
I3
F0.625
S'straight'
p385
tp386
a(I1034
I1
F0.625
S'straight'
p387
tp388
a(I1034
I1
F0.625
S'straight'
p389
tp390
a(I1047
I0
F0.625
S'straight'
p391
tp392
a(I1047
I0
F0.625
S'straight'
p393
tp394
a(I1047
I12
F0.625
S'straight'
p395
tp396
a(I1238
I2
F0.625
S'straight'
p397
tp398
a(I1246
I1
F0.625
S'straight'
p399
tp400
as(S'month'
p401
tp402
(lp403
(I1
I1
F0.125
S'first'
p404
tp405
a(I1
I8
F0.125
S'first'
p406
tp407
a(I18
I2
F-0.5
S'less'
p408
tp409
a(I49
I15
I0
S'more'
p410
tp411
a(I57
I0
F0.125
S'last'
p412
tp413
a(I57
I0
F-0.75
S'unable'
p414
tp415
a(I91
I6
I0
S'later'
p416
tp417
a(I174
I3
I0
S'next'
p418
tp419
a(I295
I7
I0
S'justify'
p420
tp421
a(I391
I0
F0.125
S'last'
p422
tp423
a(I391
I0
I0
S'more'
p424
tp425
a(I391
I0
F0.125
S'impressive'
p426
tp427
a(I613
I7
F0.875
S'happy'
p428
tp429
a(I686
I3
F0.125
S'last'
p430
tp431
a(I752
I2
I0
S'old'
p432
tp433
a(I904
I8
F-0.25
S'past'
p434
tp435
a(I985
I2
F1.0
S'good'
p436
tp437
a(I1139
I2
F0.125
S'first'
p438
tp439
a(I1142
I0
F0.125
S'last'
p440
tp441
a(I1196
I2
F0.125
S'first'
p442
tp443
as(S'quality'
p444
tp445
(lp446
(I5
I1
F-0.25
S'inexpensive'
p447
tp448
a(I5
I1
I0
S'high'
p449
tp450
a(I30
I3
F1.0
S'good'
p451
tp452
a(I30
I3
F0.5
S'touch'
p453
tp454
a(I46
I9
F0.625
S'find'
p455
tp456
a(I46
I36
F1.0
S'good'
p457
tp458
a(I55
I0
F1.0
S'good'
p459
tp460
a(I59
I0
I0
S'great'
p461
tp462
a(I70
I0
F1.0
S'good'
p463
tp464
a(I70
I0
F0.625
S'easy'
p465
tp466
a(I96
I8
F1.0
S'good'
p467
tp468
a(I104
I11
F1.0
S'good'
p469
tp470
a(I122
I5
F1.0
S'good'
p471
tp472
a(I126
I6
I0
S'high'
p473
tp474
a(I142
I2
I0
S'great'
p475
tp476
a(I208
I1
F-0.25
S'higher'
p477
tp478
a(I213
I0
F1.0
S'good'
p479
tp480
a(I234
I2
F-0.25
S'inexpensive'
p481
tp482
a(I234
I2
F-0.25
S'low'
p483
tp484
a(I262
I2
F1.0
S'good'
p485
tp486
a(I300
I3
F1.0
S'good'
p487
tp488
a(I312
I3
I0
S'great'
p489
tp490
a(I355
I2
F1.0
S'good'
p491
tp492
a(I368
I2
F1.0
S'good'
p493
tp494
a(I372
I0
F1.0
S'better'
p495
tp496
a(I380
I2
F0.375
S'available'
p497
tp498
a(I384
I2
F1.0
S'best'
p499
tp500
a(I393
I0
F-0.25
S'low'
p501
tp502
a(I404
I29
F0.375
S'much'
p503
tp504
a(I410
I3
F1.0
S'good'
p505
tp506
a(I432
I1
F0.625
S'kind'
p507
tp508
a(I432
I1
F-0.25
S'disappointed'
p509
tp510
a(I486
I8
F1.0
S'good'
p511
tp512
a(I532
I0
F1.0
S'good'
p513
tp514
a(I552
I3
I0
S'great'
p515
tp516
a(I562
I7
F1.0
S'good'
p517
tp518
a(I573
I1
F1.0
S'good'
p519
tp520
a(I573
I1
I0
S'great'
p521
tp522
a(I573
I2
F1.0
S'good'
p523
tp524
a(I635
I0
F1.0
S'good'
p525
tp526
a(I689
I3
I0
S'high'
p527
tp528
a(I690
I0
I0
S'general'
p529
tp530
a(I720
I8
F1.0
S'good'
p531
tp532
a(I739
I5
F0.5
S'so-so'
p533
tp534
a(I739
I11
F1.0
S'better'
p535
tp536
a(I748
I21
F-0.125
S'overall'
p537
tp538
a(I759
I1
I0
S'great'
p539
tp540
a(I841
I2
F-0.5
S'poor'
p541
tp542
a(I866
I2
I0
S'great'
p543
tp544
a(I866
I2
I0
S'great'
p545
tp546
a(I918
I26
I0
S'great'
p547
tp548
a(I925
I7
F0.75
S'beautiful'
p549
tp550
a(I931
I13
I0
S'great'
p551
tp552
a(I977
I5
I0
S'great'
p553
tp554
a(I985
I62
F-0.875
S'inferior'
p555
tp556
a(I987
I13
F-0.5
S'poor'
p557
tp558
a(I989
I1
F1.0
S'good'
p559
tp560
a(I1036
I0
F1.0
S'good'
p561
tp562
a(I1063
I9
I0
S'high'
p563
tp564
a(I1094
I0
F1.0
S'good'
p565
tp566
a(I1116
I1
I0
S'high'
p567
tp568
a(I1173
I3
I0
S'great'
p569
tp570
a(I1176
I11
F1.0
S'good'
p571
tp572
a(I1176
I16
F0.625
S'decent'
p573
tp574
a(I1237
I8
I0
S'high'
p575
tp576
a(I1239
I4
F-0.375
S'small'
p577
tp578
a(I1241
I0
F1.0
S'good'
p579
tp580
a(I1241
I2
F1.0
S'good'
p581
tp582
a(I1241
I2
F0.5
S'temporary'
p583
tp584
as(S'unlock'
p585
tp586
(lp587
(I961
I0
F0.5
S'told'
p588
tp589
as(S'sd'
p590
S'card'
p591
tp592
(lp593
(I92
I7
F0.875
S'music'
p594
tp595
a(I142
I1
I0
S'full'
p596
tp597
a(I199
I8
I0
S'total'
p598
tp599
a(I659
I52
F-0.125
S'delete'
p600
tp601
a(I1153
I4
F1.0
S'good'
p602
tp603
as(S'contract'
p604
tp605
(lp606
(I177
I1
F0.25
S'tired'
p607
tp608
a(I202
I2
F0.25
S'powerful'
p609
tp610
a(I258
I1
F-0.625
S'free'
p611
tp612
a(I266
I4
F-0.625
S'free'
p613
tp614
a(I284
I0
F0.375
S'meant'
p615
tp616
a(I451
I2
I0
S'current'
p617
tp618
a(I510
I1
F-0.875
S'stuck'
p619
tp620
a(I572
I1
F0.625
S'easy'
p621
tp622
a(I598
I0
F1.0
S'good'
p623
tp624
a(I600
I6
I0
S'same'
p625
tp626
a(I624
I21
F0.125
S'renewal'
p627
tp628
a(I641
I1
I0
S'great'
p629
tp630
a(I701
I8
I0
S'post-paid'
p631
tp632
a(I701
I15
F0.375
S'new'
p633
tp634
a(I701
I15
F0.875
S'important'
p635
tp636
a(I773
I1
F0.625
S'easy'
p637
tp638
a(I773
I1
I0
S'great'
p639
tp640
a(I781
I0
F-0.625
S'free'
p641
tp642
a(I783
I8
F-0.75
S'little'
p643
tp644
a(I802
I9
F-0.625
S'free'
p645
tp646
a(I805
I31
F0.5
S'expensive'
p647
tp648
a(I805
I31
I0
S'monthly'
p649
tp650
a(I809
I1
I0
S'retail'
p651
tp652
a(I904
I8
F1.0
S'best'
p653
tp654
a(I1067
I9
I0
S'most'
p655
tp656
a(I1130
I0
F0.375
S'new'
p657
tp658
as(S'app'
p659
S'store'
p660
tp661
(lp662
(I45
I4
F0.375
S'available'
p663
tp664
a(I59
I3
F0.25
S'favorite'
p665
tp666
a(I59
I3
I0
S'more'
p667
tp668
a(I160
I2
F-0.625
S'other'
p669
tp670
a(I204
I7
I0
S'only'
p671
tp672
a(I230
I8
F0.125
S'digital'
p673
tp674
a(I241
I2
F1.0
S'better'
p675
tp676
a(I378
I8
F-0.375
S'top'
p677
tp678
a(I457
I2
I0
S'many'
p679
tp680
a(I504
I36
F0.375
S'interesting'
p681
tp682
a(I543
I12
F0.375
S'available'
p683
tp684
a(I573
I8
F0.375
S'available'
p685
tp686
a(I613
I7
I0
S'most'
p687
tp688
a(I638
I2
I0
S'own'
p689
tp690
a(I638
I2
I0
S'many'
p691
tp692
a(I787
I4
F0.25
S'biggest'
p693
tp694
a(I795
I2
F0.875
S'happy'
p695
tp696
a(I795
I2
I0
S'android'
p697
tp698
a(I826
I0
F0.125
S'able'
p699
tp700
a(I1029
I8
F0.5
S'comparable'
p701
tp702
a(I1087
I7
I0
S'extensive'
p703
tp704
a(I1087
I7
I0
S'apple'
p705
tp706
a(I1087
I7
I0
S'android'
p707
tp708
a(I1111
I3
I0
S'android'
p709
tp710
a(I1111
I3
I0
S'most'
p711
tp712
a(I1191
I13
I0
S'young'
p713
tp714
as(S'store'
p715
tp716
(lp717
(I96
I0
I0
S'retail'
p718
tp719
a(I177
I4
I0
S'corporate'
p720
tp721
a(I230
I8
F0.125
g673
tp722
a(I366
I5
F-0.5
S'actual'
p723
tp724
a(I428
I5
F-0.5
S'sure'
p725
tp726
a(I457
I2
I0
g679
tp727
a(I504
I36
F0.375
g681
tp728
a(I613
I7
I0
g687
tp729
a(I638
I2
I0
g691
tp730
a(I985
I1
I0
S'later'
p731
tp732
a(I1069
I3
I0
S'real'
p733
tp734
a(I1087
I7
I0
g703
tp735
a(I1087
I7
I0
g705
tp736
a(I1087
I7
I0
g707
tp737
a(I1111
I3
I0
g711
tp738
a(I1182
I0
F-0.25
S'google'
p739
tp740
a(I1191
I13
I0
g713
tp741
as(S'nokia'
p742
tp743
(lp744
(I90
I0
F-0.75
S'hate'
p745
tp746
a(I94
I3
F-0.625
S'free'
p747
tp748
a(I194
I3
F-0.625
S'glad'
p749
tp750
a(I197
I8
I0
S'older'
p751
tp752
a(I239
I0
F0.125
S'first'
p753
tp754
a(I284
I7
F-0.625
S'free'
p755
tp756
a(I284
I53
F0.25
S'unlocked'
p757
tp758
a(I295
I5
I0
S'wherever'
p759
tp760
a(I412
I3
F0.125
S'able'
p761
tp762
a(I451
I0
I0
S'adequate'
p763
tp764
a(I482
I2
F1.0
S'best'
p765
tp766
a(I482
I2
F1.0
S'best'
p767
tp768
a(I489
I0
I0
S'stable'
p769
tp770
a(I615
I0
I0
S'own'
p771
tp772
a(I637
I5
F-0.625
S'free'
p773
tp774
a(I681
I0
F0.125
S'first'
p775
tp776
a(I681
I4
F0.125
S'far'
p777
tp778
a(I682
I2
F-0.375
S'smaller'
p779
tp780
a(I682
I2
F-0.625
S'bad'
p781
tp782
a(I691
I4
F1.0
S'better'
p783
tp784
a(I708
I4
I0
S'great'
p785
tp786
a(I708
I4
F-0.25
S'past'
p787
tp788
a(I709
I0
F0.875
S'happy'
p789
tp790
a(I724
I5
F0.875
S'attractive'
p791
tp792
a(I769
I0
F0.125
S'first'
p793
tp794
a(I769
I2
F0.5
S'second'
p795
tp796
a(I787
I5
I0
S'least'
p797
tp798
a(I800
I14
F-0.625
S'free'
p799
tp800
a(I812
I17
F0.375
S'available'
p801
tp802
a(I822
I2
F-0.625
S'free'
p803
tp804
a(I822
I2
F0.875
S'music'
p805
tp806
a(I849
I1
I0
S'wish'
p807
tp808
a(I885
I0
F0.625
S'easy'
p809
tp810
a(I904
I1
F0.5
S'true'
p811
tp812
a(I922
I2
I0
S'many'
p813
tp814
a(I977
I7
F-0.25
S'cheaper'
p815
tp816
a(I977
I7
I0
S'old'
p817
tp818
a(I1010
I2
F-0.625
S'other'
p819
tp820
a(I1052
I0
I0
S'anymore'
p821
tp822
a(I1086
I0
F0.625
S'easy'
p823
tp824
a(I1086
I0
F0.875
S'happy'
p825
tp826
a(I1115
I1
F0.125
S'first'
p827
tp828
a(I1133
I2
I0
S'great'
p829
tp830
a(I1180
I45
I0
S'old'
p831
tp832
a(I1189
I0
F0.375
S'new'
p833
tp834
a(I1193
I8
I0
S'exclusive'
p835
tp836
a(I1205
I3
F0.5
S'told'
p837
tp838
a(I1219
I10
I0
S'great'
p839
tp840
a(I1219
I14
I0
S'great'
p841
tp842
a(I1238
I5
F1.0
S'good'
p843
tp844
as(S'sim'
p845
S'card'
p846
tp847
(lp848
(I51
I2
I0
S'old'
p849
tp850
a(I71
I0
F-0.625
S'free'
p851
tp852
a(I119
I2
I0
S'activate'
p853
tp854
a(I125
I1
F0.375
S'new'
p855
tp856
a(I167
I2
I0
S'local'
p857
tp858
a(I167
I2
F1.0
S'good'
p859
tp860
a(I199
I3
I0
S'own'
p861
tp862
a(I199
I3
F0.25
S'larger'
p863
tp864
a(I206
I0
F0.375
S'new'
p865
tp866
a(I206
I0
I0
S'standard'
p867
tp868
a(I206
I0
I0
S'current'
p869
tp870
a(I210
I1
F0.125
S'able'
p871
tp872
a(I257
I5
I0
S'different'
p873
tp874
a(I314
I6
I0
S'old'
p875
tp876
a(I327
I3
I0
S'older'
p877
tp878
a(I327
I3
I0
S'large'
p879
tp880
a(I366
I5
F-0.5
S'regular'
p881
tp882
a(I403
I11
F0.25
S'larger'
p883
tp884
a(I405
I14
F0.125
S'able'
p885
tp886
a(I431
I4
F0.625
S'easy'
p887
tp888
a(I431
I4
I0
S'full'
p889
tp890
a(I504
I7
F0.5
S'willing'
p891
tp892
a(I604
I1
I0
S'old'
p893
tp894
a(I604
I3
I0
S'old'
p895
tp896
a(I604
I6
F0.375
S'new'
p897
tp898
a(I604
I7
I0
S'old'
p899
tp900
a(I695
I1
F-0.375
S'simple'
p901
tp902
a(I701
I20
F0.375
S'new'
p903
tp904
a(I704
I3
F0.75
S'beautiful'
p905
tp906
a(I704
I3
F-0.25
S'ready'
p907
tp908
a(I704
I3
I0
S'same'
p909
tp910
a(I704
I4
F-0.375
S'smaller'
p911
tp912
a(I737
I2
F0.125
S'able'
p913
tp914
a(I760
I6
I0
S'old'
p915
tp916
a(I769
I3
I0
S'identical'
p917
tp918
a(I853
I0
F0.125
S'able'
p919
tp920
a(I853
I0
I0
S'special'
p921
tp922
a(I933
I2
F-0.625
S'free'
p923
tp924
a(I940
I1
F-0.5
S'open'
p925
tp926
a(I962
I1
F-0.75
S'difficult'
p927
tp928
a(I980
I6
I0
S'activate'
p929
tp930
a(I980
I13
I0
S'different'
p931
tp932
a(I1034
I1
F0.5
S'compatible'
p933
tp934
a(I1071
I5
F0.375
S'new'
p935
tp936
a(I1071
I5
F-0.375
S'small'
p937
tp938
a(I1071
I5
F0.375
S'new'
p939
tp940
a(I1226
I3
F-0.375
S'smaller'
p941
tp942
a(I1250
I8
F0.125
S'valid'
p943
tp944
as(S'os'
p945
S'and'
p946
S'android'
p947
tp948
(lp949
(I44
I4
F-0.375
S'smooth'
p950
tp951
a(I91
I1
F-0.625
S'other'
p952
tp953
a(I208
I1
I0
S'android'
p954
tp955
a(I401
I20
F0.875
S'nice'
p956
tp957
a(I495
I9
F-0.375
S'robust'
p958
tp959
a(I495
I9
I0
S'least'
p960
tp961
a(I555
I10
I0
S'android'
p962
tp963
a(I693
I1
I0
S'android'
p964
tp965
a(I727
I1
F0.125
S'flaky'
p966
tp967
a(I777
I0
F-0.75
S'little'
p968
tp969
a(I787
I5
I0
S'great'
p970
tp971
a(I967
I9
I0
S'android'
p972
tp973
a(I985
I5
I0
S'android'
p974
tp975
a(I985
I5
F1.0
S'best'
p976
tp977
a(I988
I12
F-0.625
S'clean'
p978
tp979
a(I1013
I1
F0.125
S'impressive'
p980
tp981
a(I1027
I0
I0
S'android'
p982
tp983
a(I1063
I1
F0.125
S'popular'
p984
tp985
a(I1095
I3
I0
S'android'
p986
tp987
as(S'facing'
p988
S'camera'
p989
tp990
(lp991
(I111
I3
F-0.125
S'slow'
p992
tp993
a(I111
I3
F-0.625
S'bad'
p994
tp995
a(I247
I2
F-0.5
S'complaint'
p996
tp997
a(I259
I1
I0
S'great'
p998
tp999
a(I613
I5
I0
S'rear'
p1000
tp1001
a(I624
I5
I0
S'rear'
p1002
tp1003
a(I627
I3
I0
S'rear'
p1004
tp1005
a(I1197
I0
I0
S'rear'
p1006
tp1007
a(I1197
I0
F-0.375
S'small'
p1008
tp1009
a(I1239
I5
F0.125
S'digital'
p1010
tp1011
a(I1244
I2
F0.625
S'aware'
p1012
tp1013
as(S'easy'
p1014
S'to'
p1015
S'use'
p1016
tp1017
(lp1018
(I403
I4
I0
S'normal'
p1019
tp1020
as(S'smartphone'
p1021
tp1022
(lp1023
(I37
I1
F-0.25
S'cheapest'
p1024
tp1025
a(I43
I0
F0.125
S'first'
p1026
tp1027
a(I45
I7
F-0.625
S'other'
p1028
tp1029
a(I46
I31
F0.125
S'first'
p1030
tp1031
a(I62
I5
F-0.125
S'overall'
p1032
tp1033
a(I62
I5
F1.0
S'best'
p1034
tp1035
a(I73
I1
F0.125
S'first'
p1036
tp1037
a(I118
I17
I0
S'more'
p1038
tp1039
a(I124
I0
F0.125
S'capable'
p1040
tp1041
a(I199
I11
F0.125
S'first'
p1042
tp1043
a(I199
I12
I0
S'apple'
p1044
tp1045
a(I199
I12
I0
S'android'
p1046
tp1047
a(I213
I2
F1.0
S'good'
p1048
tp1049
a(I261
I3
F0.5
S'expensive'
p1050
tp1051
a(I288
I1
F0.625
S'interested'
p1052
tp1053
a(I306
I4
F0.875
S'nice'
p1054
tp1055
a(I310
I2
I0
S'more'
p1056
tp1057
a(I366
I0
F0.125
S'first'
p1058
tp1059
a(I368
I17
F0.625
S'acceptable'
p1060
tp1061
a(I395
I14
I0
S'standard'
p1062
tp1063
a(I409
I0
F0.125
S'first'
p1064
tp1065
a(I412
I2
I0
S'great'
p1066
tp1067
a(I417
I2
F1.0
S'best'
p1068
tp1069
a(I433
I0
F1.0
S'best'
p1070
tp1071
a(I444
I0
F0.5
S'whole'
p1072
tp1073
a(I444
I0
F0.375
S'new'
p1074
tp1075
a(I462
I1
I0
S'android'
p1076
tp1077
a(I464
I7
F0.125
S'first'
p1078
tp1079
a(I472
I0
F1.0
S'best'
p1080
tp1081
a(I473
I0
F0.875
S'nice'
p1082
tp1083
a(I473
I1
F1.0
S'better'
p1084
tp1085
a(I477
I0
I0
S'basic'
p1086
tp1087
a(I487
I1
I0
S'great'
p1088
tp1089
a(I510
I0
F1.0
S'best'
p1090
tp1091
a(I543
I7
F-0.5
S'actual'
p1092
tp1093
a(I551
I5
F0.125
S'first'
p1094
tp1095
a(I593
I0
F0.125
S'first'
p1096
tp1097
a(I596
I0
F-0.25
S'inexpensive'
p1098
tp1099
a(I606
I2
F0.5
S'primary'
p1100
tp1101
a(I680
I0
F0.5
S'expensive'
p1102
tp1103
a(I680
I0
F-0.625
S'other'
p1104
tp1105
a(I684
I18
F0.125
S'first'
p1106
tp1107
a(I684
I18
I0
S'normal'
p1108
tp1109
a(I730
I2
I0
S'full'
p1110
tp1111
a(I735
I1
F-0.75
S'impossible'
p1112
tp1113
a(I738
I16
F0.125
S'first'
p1114
tp1115
a(I787
I3
I0
S'least'
p1116
tp1117
a(I839
I0
F1.0
S'good'
p1118
tp1119
a(I851
I0
F0.125
S'first'
p1120
tp1121
a(I856
I0
I0
S'great'
p1122
tp1123
a(I863
I2
I0
S'android'
p1124
tp1125
a(I868
I4
F1.0
S'good'
p1126
tp1127
a(I868
I4
I0
S'basic'
p1128
tp1129
a(I917
I0
I0
S'great'
p1130
tp1131
a(I917
I0
F0.125
S'first'
p1132
tp1133
a(I920
I0
F1.0
S'best'
p1134
tp1135
a(I921
I2
F-0.5
S'heavy'
p1136
tp1137
a(I957
I0
F1.0
S'best'
p1138
tp1139
a(I963
I0
F0.125
S'first'
p1140
tp1141
a(I963
I8
F1.0
S'good'
p1142
tp1143
a(I975
I6
F1.0
S'better'
p1144
tp1145
a(I983
I1
F-0.5
S'sure'
p1146
tp1147
a(I985
I81
F0.375
S'new'
p1148
tp1149
a(I1008
I1
F-0.25
S'modern'
p1150
tp1151
a(I1027
I15
F1.0
S'best'
p1152
tp1153
a(I1029
I0
F0.125
S'first'
p1154
tp1155
a(I1029
I3
F-0.625
S'bad'
p1156
tp1157
a(I1046
I5
F0.25
S'unlocked'
p1158
tp1159
a(I1046
I6
F0.25
S'unlocked'
p1160
tp1161
a(I1080
I0
I0
S'economical'
p1162
tp1163
a(I1100
I14
F1.0
S'good'
p1164
tp1165
a(I1166
I4
F0.375
S'new'
p1166
tp1167
a(I1193
I2
F-0.625
S'other'
p1168
tp1169
a(I1193
I2
F0.125
S'first'
p1170
tp1171
a(I1201
I4
F1.0
S'best'
p1172
tp1173
a(I1201
I4
F0.375
S'available'
p1174
tp1175
a(I1204
I0
F0.875
S'nice'
p1176
tp1177
a(I1226
I1
F-0.375
S'simple'
p1178
tp1179
as(S'card'
p1180
tp1181
(lp1182
(I114
I5
F-0.625
S'free'
p1183
tp1184
a(I114
I6
I0
S'old'
p1185
tp1186
a(I119
I2
I0
g853
tp1187
a(I142
I1
I0
g596
tp1188
a(I167
I2
F1.0
g859
tp1189
a(I199
I8
I0
g598
tp1190
a(I257
I5
I0
g873
tp1191
a(I327
I3
I0
g877
tp1192
a(I327
I3
I0
g879
tp1193
a(I327
I6
F0.375
S'new'
p1194
tp1195
a(I368
I31
F0.375
S'new'
p1196
tp1197
a(I403
I11
F0.25
g883
tp1198
a(I405
I14
F0.125
g885
tp1199
a(I504
I7
F0.5
g891
tp1200
a(I504
I68
F0.125
S'able'
p1201
tp1202
a(I659
I52
F-0.125
g600
tp1203
a(I769
I3
I0
g917
tp1204
a(I933
I2
F-0.625
g923
tp1205
a(I962
I1
F-0.75
g927
tp1206
a(I1034
I1
F0.5
g933
tp1207
a(I1071
I5
F0.375
g935
tp1208
a(I1071
I5
F-0.375
g937
tp1209
a(I1153
I4
F1.0
g602
tp1210
a(I1226
I3
F-0.375
g941
tp1211
as(S'love'
p1212
tp1213
(lp1214
(I81
I0
I0
S'great'
p1215
tp1216
as(S'wifi'
p1217
tp1218
(lp1219
(I195
I6
I0
S'great'
p1220
tp1221
a(I200
I6
I0
S'internet'
p1222
tp1223
a(I200
I6
F0.375
S'available'
p1224
tp1225
a(I230
I6
F-0.625
S'free'
p1226
tp1227
a(I573
I8
F0.375
S'available'
p1228
tp1229
a(I627
I3
I0
S'own'
p1230
tp1231
a(I627
I3
F-0.125
S'public'
p1232
tp1233
a(I693
I4
I0
S'many'
p1234
tp1235
a(I709
I0
F0.625
S'easy'
p1236
tp1237
a(I933
I8
F-0.625
S'free'
p1238
tp1239
a(I933
I8
F-0.625
S'free'
p1240
tp1241
a(I1023
I9
F-0.5
S'heavy'
p1242
tp1243
a(I1167
I1
F-0.625
S'free'
p1244
tp1245
as(S'operating'
p1246
S'system'
p1247
tp1248
(lp1249
(I92
I2
F-0.625
S'other'
p1250
tp1251
a(I328
I3
F-0.625
S'other'
p1252
tp1253
a(I363
I4
F0.375
S'new'
p1254
tp1255
a(I368
I49
I0
S'mobile'
p1256
tp1257
a(I452
I0
F0.25
S'powerful'
p1258
tp1259
a(I452
I0
I0
S'fluid'
p1260
tp1261
a(I624
I3
I0
S'more'
p1262
tp1263
a(I777
I0
F0.25
S'responsive'
p1264
tp1265
a(I1007
I1
F0.875
S'nice'
p1266
tp1267
a(I1026
I1
I0
S'android'
p1268
tp1269
a(I1056
I2
I0
S'stable'
p1270
tp1271
a(I1191
I10
F-0.625
S'other'
p1272
tp1273
a(I1225
I1
F-0.375
S'top'
p1274
tp1275
as(S'fast'
p1276
tp1277
(lp1278
(I105
I7
F-0.25
S'direct'
p1279
tp1280
a(I114
I11
F0.375
S'reliable'
p1281
tp1282
a(I1034
I0
F1.0
S'best'
p1283
tp1284
a(I1054
I0
F-0.125
S'cant'
p1285
tp1286
as(S'problem'
p1287
tp1288
(lp1289
(I96
I21
F0.25
S'biggest'
p1290
tp1291
a(I230
I11
I0
S'only'
p1292
tp1293
a(I494
I0
I0
S'only'
p1294
tp1295
a(I580
I1
I0
S'only'
p1296
tp1297
a(I604
I1
I0
S'big'
p1298
tp1299
a(I670
I0
F-0.75
S'single'
p1300
tp1301
a(I705
I6
F0.625
S'kind'
p1302
tp1303
a(I771
I3
I0
S'solve'
p1304
tp1305
a(I890
I0
I0
S'real'
p1306
tp1307
a(I988
I26
I0
S'signal'
p1308
tp1309
a(I1020
I1
F-0.375
S'small'
p1310
tp1311
a(I1020
I1
F0.125
S'first'
p1312
tp1313
a(I1115
I1
I0
S'great'
p1314
tp1315
a(I1165
I5
F0.125
S'first'
p1316
tp1317
as(S'micro'
p1318
S'sim'
p1319
tp1320
(lp1321
(I45
I9
F0.375
S'new'
p1322
tp1323
a(I177
I4
I0
S'normal'
p1324
tp1325
a(I187
I3
F0.125
S'able'
p1326
tp1327
a(I314
I6
I0
g875
tp1328
a(I339
I2
F0.125
S'able'
p1329
tp1330
a(I366
I5
F-0.5
g881
tp1331
a(I431
I4
F0.625
g887
tp1332
a(I431
I4
I0
g889
tp1333
a(I573
I4
F0.375
S'new'
p1334
tp1335
a(I593
I17
F-0.5
S'sure'
p1336
tp1337
a(I604
I3
I0
g895
tp1338
a(I760
I6
I0
g915
tp1339
a(I795
I1
F0.625
S'mindful'
p1340
tp1341
a(I853
I0
F0.125
g919
tp1342
a(I853
I0
I0
g921
tp1343
a(I977
I6
I0
S'old'
p1344
tp1345
a(I1176
I16
I0
S'prepaid'
p1346
tp1347
a(I1176
I16
I0
S'old'
p1348
tp1349
a(I1187
I5
F-0.625
S'free'
p1350
tp1351
as(S'email'
p1352
tp1353
(lp1354
(I96
I17
F0.125
S'native'
p1355
tp1356
a(I96
I19
I0
S'frequent'
p1357
tp1358
a(I404
I22
F-0.625
S'free'
p1359
tp1360
a(I407
I5
I0
S'different'
p1361
tp1362
a(I504
I27
F-0.625
S'other'
p1363
tp1364
a(I504
I33
F0.5
S'second'
p1365
tp1366
a(I504
I34
F0.5
S'live'
p1367
tp1368
a(I684
I9
F-0.625
S'light'
p1369
tp1370
a(I822
I2
I0
S'great'
p1371
tp1372
a(I985
I75
I0
S'android'
p1373
tp1374
a(I985
I75
F0.125
S'able'
p1375
tp1376
a(I985
I75
I0
S'individual'
p1377
tp1378
a(I1100
I6
F-0.625
S'other'
p1379
tp1380
a(I1246
I6
I0
S'such'
p1381
tp1382
as(S'a'
p1383
S'micro'
p1384
S'sim'
p1385
tp1386
(lp1387
(I45
I9
F0.375
g1322
tp1388
a(I177
I4
I0
g1324
tp1389
a(I187
I3
F0.125
g1326
tp1390
a(I314
I6
I0
g875
tp1391
a(I339
I2
F0.125
g1329
tp1392
a(I366
I5
F-0.5
g881
tp1393
a(I431
I4
F0.625
g887
tp1394
a(I431
I4
I0
g889
tp1395
a(I573
I4
F0.375
g1334
tp1396
a(I593
I17
F-0.5
g1336
tp1397
a(I604
I3
I0
g895
tp1398
a(I760
I6
I0
g915
tp1399
a(I795
I1
F0.625
g1340
tp1400
a(I853
I0
F0.125
g919
tp1401
a(I853
I0
I0
g921
tp1402
a(I977
I6
I0
g1344
tp1403
a(I1176
I16
I0
g1346
tp1404
a(I1176
I16
I0
g1348
tp1405
a(I1187
I5
F-0.625
g1350
tp1406
as(S'money'
p1407
tp1408
(lp1409
(I5
I0
F-0.5
S'less'
p1410
tp1411
a(I8
I1
F0.75
S'worth'
p1412
tp1413
a(I180
I2
F0.375
S'extra'
p1414
tp1415
a(I250
I4
F-0.25
S'low'
p1416
tp1417
a(I254
I1
F0.375
S'extra'
p1418
tp1419
a(I257
I9
F-0.75
S'wrong'
p1420
tp1421
a(I356
I0
F0.75
S'worth'
p1422
tp1423
a(I357
I1
I0
S'same'
p1424
tp1425
a(I701
I14
I0
S'old'
p1426
tp1427
a(I955
I0
F1.0
S'good'
p1428
tp1429
a(I1111
I0
F0.75
S'worth'
p1430
tp1431
a(I1157
I13
F1.0
S'best'
p1432
tp1433
a(I1172
I1
F0.875
S'happy'
p1434
tp1435
a(I1172
I1
I0
S'rich'
p1436
tp1437
a(I1221
I0
F0.875
S'happier'
p1438
tp1439
a(I1231
I0
F1.0
S'good'
p1440
tp1441
a(I1254
I0
F0.75
S'worth'
p1442
tp1443
as(S'micro'
p1444
S'sd'
p1445
tp1446
(lp1447
(I49
I6
F0.125
S'able'
p1448
tp1449
a(I539
I2
F0.125
S'memory'
p1450
tp1451
as(S'price'
p1452
tp1453
(lp1454
(I6
I0
I0
S'such'
p1455
tp1456
a(I6
I0
F-0.375
S'simple'
p1457
tp1458
a(I6
I0
F1.0
S'best'
p1459
tp1460
a(I20
I1
F-0.5
S'less'
p1461
tp1462
a(I29
I2
F-0.5
S'less'
p1463
tp1464
a(I29
I2
F0.5
S'expensive'
p1465
tp1466
a(I35
I0
F-0.75
S'little'
p1467
tp1468
a(I35
I0
F-0.25
S'disappointing'
p1469
tp1470
a(I52
I2
F-0.25
S'cheaper'
p1471
tp1472
a(I59
I0
I0
S'great'
p1473
tp1474
a(I74
I2
I0
S'great'
p1475
tp1476
a(I79
I2
F0.625
S'fair'
p1477
tp1478
a(I96
I34
I0
S'great'
p1479
tp1480
a(I102
I2
I0
S'great'
p1481
tp1482
a(I124
I7
F-0.25
S'lowest'
p1483
tp1484
a(I126
I9
I0
S'great'
p1485
tp1486
a(I146
I2
F0.625
S'right'
p1487
tp1488
a(I149
I1
F-0.25
S'low'
p1489
tp1490
a(I155
I0
F-0.25
S'cheaper'
p1491
tp1492
a(I155
I0
F-0.5
S'regular'
p1493
tp1494
a(I160
I2
F-0.25
S'low'
p1495
tp1496
a(I190
I0
I0
S'great'
p1497
tp1498
a(I204
I11
I0
S'current'
p1499
tp1500
a(I211
I0
F-0.25
S'low'
p1501
tp1502
a(I217
I1
I0
S'more'
p1503
tp1504
a(I226
I5
F-0.25
S'low'
p1505
tp1506
a(I245
I5
F-0.5
S'less'
p1507
tp1508
a(I247
I1
I0
S'such'
p1509
tp1510
a(I247
I1
I0
S'great'
p1511
tp1512
a(I250
I0
F-0.25
S'low'
p1513
tp1514
a(I252
I1
I0
S'great'
p1515
tp1516
a(I259
I0
F1.0
S'good'
p1517
tp1518
a(I278
I0
I0
S'unbelievable'
p1519
tp1520
a(I301
I3
F0.25
S'original'
p1521
tp1522
a(I327
I7
F0.75
S'worth'
p1523
tp1524
a(I342
I5
I0
S'more'
p1525
tp1526
a(I360
I0
I0
S'great'
p1527
tp1528
a(I364
I0
F-0.25
S'low'
p1529
tp1530
a(I386
I2
I0
S'great'
p1531
tp1532
a(I401
I22
I0
S'same'
p1533
tp1534
a(I410
I0
I0
S'great'
p1535
tp1536
a(I418
I0
F1.0
S'good'
p1537
tp1538
a(I425
I0
F0.5
S'reasonable'
p1539
tp1540
a(I452
I0
F-0.25
S'low'
p1541
tp1542
a(I465
I6
F-0.125
S'mine'
p1543
tp1544
a(I465
I6
F-0.25
S'cheaper'
p1545
tp1546
a(I471
I0
F0.375
S'content'
p1547
tp1548
a(I475
I1
F0.625
S'easy'
p1549
tp1550
a(I478
I0
F-0.25
S'cheaper'
p1551
tp1552
a(I490
I1
I0
S'great'
p1553
tp1554
a(I495
I0
I0
S'special'
p1555
tp1556
a(I496
I10
F0.5
S'true'
p1557
tp1558
a(I500
I0
F-0.75
S'short'
p1559
tp1560
a(I503
I9
I0
S'great'
p1561
tp1562
a(I509
I6
I0
S'great'
p1563
tp1564
a(I529
I1
I0
S'such'
p1565
tp1566
a(I529
I1
I0
S'great'
p1567
tp1568
a(I562
I1
I0
S'current'
p1569
tp1570
a(I562
I1
F-0.625
S'bad'
p1571
tp1572
a(I585
I1
F-0.25
S'low'
p1573
tp1574
a(I590
I12
F0.625
S'beat'
p1575
tp1576
a(I613
I3
F1.0
S'good'
p1577
tp1578
a(I625
I0
F1.0
S'good'
p1579
tp1580
a(I627
I3
F0.75
S'worth'
p1581
tp1582
a(I631
I0
F-0.25
S'low'
p1583
tp1584
a(I637
I11
F1.0
S'good'
p1585
tp1586
a(I641
I13
I0
S'incredible'
p1587
tp1588
a(I647
I3
I0
S'more'
p1589
tp1590
a(I647
I3
F0.125
S'impressive'
p1591
tp1592
a(I674
I0
I0
S'great'
p1593
tp1594
a(I693
I0
F-0.25
S'low'
p1595
tp1596
a(I693
I1
F0.5
S'clear'
p1597
tp1598
a(I701
I3
I0
S'great'
p1599
tp1600
a(I715
I1
I0
S'great'
p1601
tp1602
a(I720
I18
F-0.25
S'pop-up'
p1603
tp1604
a(I732
I0
F1.0
S'good'
p1605
tp1606
a(I740
I9
I0
S'great'
p1607
tp1608
a(I742
I0
F1.0
S'better'
p1609
tp1610
a(I743
I0
F-0.25
S'low'
p1611
tp1612
a(I744
I0
F-0.25
S'low'
p1613
tp1614
a(I765
I0
F-0.25
S'low'
p1615
tp1616
a(I767
I1
I0
S'initial'
p1617
tp1618
a(I776
I10
F-0.25
S'cheapest'
p1619
tp1620
a(I785
I6
F-0.25
S'higher'
p1621
tp1622
a(I795
I0
F1.0
S'best'
p1623
tp1624
a(I795
I4
F0.875
S'attractive'
p1625
tp1626
a(I814
I0
F-0.375
S'small'
p1627
tp1628
a(I816
I7
F0.75
S'worth'
p1629
tp1630
a(I830
I0
F1.0
S'best'
p1631
tp1632
a(I837
I1
F-0.25
S'low'
p1633
tp1634
a(I838
I4
F0.125
S'spectacular'
p1635
tp1636
a(I847
I2
F1.0
S'good'
p1637
tp1638
a(I856
I1
F-0.25
S'low'
p1639
tp1640
a(I861
I1
I0
S'great'
p1641
tp1642
a(I862
I0
I0
S'such'
p1643
tp1644
a(I862
I0
F-0.25
S'low'
p1645
tp1646
a(I880
I1
F-0.25
S'low'
p1647
tp1648
a(I880
I1
F0.5
S'reasonable'
p1649
tp1650
a(I883
I0
F1.0
S'good'
p1651
tp1652
a(I891
I4
F-0.25
S'lower'
p1653
tp1654
a(I891
I11
F1.0
S'good'
p1655
tp1656
a(I893
I0
I0
S'website'
p1657
tp1658
a(I893
I0
F0.625
S'easy'
p1659
tp1660
a(I893
I0
I0
S'quick'
p1661
tp1662
a(I941
I5
I0
S'great'
p1663
tp1664
a(I952
I4
F0.375
S'much'
p1665
tp1666
a(I963
I1
I0
S'great'
p1667
tp1668
a(I978
I2
F0.375
S'new'
p1669
tp1670
a(I983
I3
I0
S'such'
p1671
tp1672
a(I983
I3
I0
S'great'
p1673
tp1674
a(I1009
I2
F1.0
S'good'
p1675
tp1676
a(I1016
I0
F0.125
S'able'
p1677
tp1678
a(I1022
I17
F-0.25
S'low'
p1679
tp1680
a(I1047
I13
F1.0
S'best'
p1681
tp1682
a(I1047
I13
I0
S'android'
p1683
tp1684
a(I1102
I10
F-0.125
S'overall'
p1685
tp1686
a(I1104
I0
F-0.625
S'bad'
p1687
tp1688
a(I1133
I1
F-0.375
S'small'
p1689
tp1690
a(I1165
I8
I0
S'incredible'
p1691
tp1692
a(I1177
I0
F-0.125
S'overall'
p1693
tp1694
a(I1177
I0
F1.0
S'good'
p1695
tp1696
a(I1184
I0
I0
S'more'
p1697
tp1698
a(I1187
I3
F-0.25
S'lower'
p1699
tp1700
a(I1189
I0
F-0.25
S'low'
p1701
tp1702
a(I1190
I0
F-0.5
S'less'
p1703
tp1704
a(I1220
I8
F0.75
S'worth'
p1705
tp1706
as(S'service'
p1707
tp1708
(lp1709
(I199
I14
I0
S'handy'
p1710
tp1711
a(I200
I2
F1.0
S'good'
p1712
tp1713
a(I200
I5
F0.5
S'true'
p1714
tp1715
a(I210
I2
F0.125
S'able'
p1716
tp1717
a(I237
I1
I0
S'mobile'
p1718
tp1719
a(I282
I4
I0
S'great'
p1720
tp1721
a(I284
I33
I0
S'cellular'
p1722
tp1723
a(I299
I0
F1.0
S'best'
p1724
tp1725
a(I313
I4
I0
S'cellular'
p1726
tp1727
a(I313
I4
F-0.5
S'weak'
p1728
tp1729
a(I319
I1
F-0.5
S'less'
p1730
tp1731
a(I365
I0
I0
S'great'
p1732
tp1733
a(I593
I10
I0
S'basic'
p1734
tp1735
a(I593
I19
F0.25
S'read'
p1736
tp1737
a(I694
I0
I0
S'old'
p1738
tp1739
a(I709
I0
F-0.625
S'free'
p1740
tp1741
a(I730
I1
I0
S'current'
p1742
tp1743
a(I732
I2
I0
S'great'
p1744
tp1745
a(I738
I18
F-0.25
S'google'
p1746
tp1747
a(I744
I3
F-0.5
S'continuous'
p1748
tp1749
a(I805
I32
I0
S'prepaid'
p1750
tp1751
a(I1168
I9
I0
S'basic'
p1752
tp1753
a(I1173
I2
I0
S'great'
p1754
tp1755
a(I1204
I4
F0.375
S'similar'
p1756
tp1757
as(S'maps'
p1758
tp1759
(lp1760
(I207
I3
F-0.25
S'google'
p1761
tp1762
a(I404
I25
F0.875
S'music'
p1763
tp1764
a(I510
I7
F1.0
S'better'
p1765
tp1766
a(I510
I7
F-0.25
S'google'
p1767
tp1768
a(I640
I2
F0.5
S'drive'
p1769
tp1770
a(I693
I1
F-0.625
S'free'
p1771
tp1772
a(I717
I2
F-0.25
S'google'
p1773
tp1774
a(I718
I2
F-0.25
S'google'
p1775
tp1776
a(I780
I1
F1.0
S'better'
p1777
tp1778
a(I780
I1
F-0.25
S'google'
p1779
tp1780
a(I805
I22
F-0.625
S'free'
p1781
tp1782
a(I813
I2
F-0.625
S'free'
p1783
tp1784
a(I871
I1
I0
S'regional'
p1785
tp1786
a(I904
I3
F-0.625
S'free'
p1787
tp1788
a(I980
I4
I0
S'great'
p1789
tp1790
a(I980
I4
F-0.625
S'free'
p1791
tp1792
a(I985
I68
F-0.25
S'google'
p1793
tp1794
a(I1047
I15
I0
S'great'
p1795
tp1796
a(I1111
I3
F-0.25
S'google'
p1797
tp1798
as(S'angry'
p1799
S'birds'
p1800
tp1801
(lp1802
(I501
I1
I0
S'angry'
p1803
tp1804
a(I993
I0
I0
S'angry'
p1805
tp1806
as(S'nokia'
p1807
S'lumia'
p1808
tp1809
(lp1810
(I46
I34
I0
S'most'
p1811
tp1812
a(I210
I1
I0
S'great'
p1813
tp1814
a(I339
I0
F-0.25
S'inexpensive'
p1815
tp1816
a(I447
I0
F-0.25
S'low'
p1817
tp1818
a(I489
I0
F1.0
S'good'
p1819
tp1820
a(I489
I0
I0
g769
tp1821
a(I615
I0
I0
g771
tp1822
a(I709
I0
F0.875
g789
tp1823
a(I731
I0
F0.75
S'receive'
p1824
tp1825
a(I731
I0
F-0.375
S'locked'
p1826
tp1827
a(I731
I0
F-0.625
S'unjust'
p1828
tp1829
a(I787
I5
I0
g797
tp1830
a(I904
I1
F0.5
g811
tp1831
as(S'gorilla'
p1832
S'glass'
p1833
tp1834
(lp1835
(I133
I24
F-0.75
S'bright'
p1836
tp1837
as(S'front'
p1838
S'facing'
p1839
S'camera'
p1840
tp1841
(lp1842
(I46
I39
F0.375
S'flash'
p1843
tp1844
a(I89
I4
I0
S'most'
p1845
tp1846
a(I111
I3
F-0.125
g992
tp1847
a(I111
I3
F-0.625
g994
tp1848
a(I259
I1
I0
g998
tp1849
a(I624
I5
I0
g1002
tp1850
a(I1197
I0
I0
g1006
tp1851
a(I1197
I0
F-0.375
g1008
tp1852
a(I1239
I5
F0.125
g1010
tp1853
a(I1244
I2
F0.625
g1012
tp1854
as(S'recommend'
p1855
tp1856
(lp1857
(I565
I21
F0.75
S'due'
p1858
tp1859
as(S'lumia'
p1860
tp1861
(lp1862
(I21
I3
F0.125
S'first'
p1863
tp1864
a(I30
I3
F0.125
S'first'
p1865
tp1866
a(I46
I34
I0
g1811
tp1867
a(I112
I2
F-0.375
S'smooth'
p1868
tp1869
a(I126
I3
F0.875
S'happy'
p1870
tp1871
a(I133
I3
F-0.75
S'little'
p1872
tp1873
a(I133
I8
F-0.75
S'little'
p1874
tp1875
a(I174
I5
F1.0
S'good'
p1876
tp1877
a(I210
I1
I0
g1813
tp1878
a(I284
I28
F-0.5
S'sure'
p1879
tp1880
a(I339
I0
F-0.25
g1815
tp1881
a(I362
I1
F0.375
S'newer'
p1882
tp1883
a(I439
I2
I0
S'most'
p1884
tp1885
a(I447
I0
F-0.25
g1817
tp1886
a(I489
I0
F1.0
g1819
tp1887
a(I524
I11
I0
S'current'
p1888
tp1889
a(I574
I2
F0.375
S'new'
p1890
tp1891
a(I697
I1
F0.875
S'happy'
p1892
tp1893
a(I705
I10
F-0.5
S'less'
p1894
tp1895
a(I731
I0
F0.75
g1824
tp1896
a(I731
I0
F-0.375
g1826
tp1897
a(I731
I0
F-0.625
g1828
tp1898
a(I739
I14
F-0.375
S'serious'
p1899
tp1900
a(I748
I2
F1.0
S'good'
p1901
tp1902
a(I762
I1
F-0.625
S'other'
p1903
tp1904
a(I885
I1
F0.875
S'nice'
p1905
tp1906
a(I885
I1
F-0.375
S'small'
p1907
tp1908
a(I931
I20
F-0.625
S'other'
p1909
tp1910
a(I979
I3
F0.5
S'expensive'
p1911
tp1912
a(I988
I20
I0
S'same'
p1913
tp1914
a(I1023
I10
F-0.375
S'black'
p1915
tp1916
as(S'google'
p1917
tp1918
(lp1919
(I195
I2
I0
S'bingle'
p1920
tp1921
as(S'at'
p1922
S'price'
p1923
S'point'
p1924
tp1925
(lp1926
(I4
I3
F-0.5
S'less'
p1927
tp1928
a(I4
I3
F0.5
S'careful'
p1929
tp1930
a(I35
I0
F-0.75
g1467
tp1931
a(I35
I0
F-0.25
g1469
tp1932
a(I226
I5
F-0.25
g1505
tp1933
a(I401
I22
I0
g1533
tp1934
a(I893
I0
I0
g1657
tp1935
a(I893
I0
F0.625
g1659
tp1936
a(I893
I0
I0
g1661
tp1937
a(I1102
I10
F-0.125
g1685
tp1938
as(S'features'
p1939
tp1940
(lp1941
(I24
I5
F0.875
S'nice'
p1942
tp1943
a(I43
I0
I0
S'many'
p1944
tp1945
a(I46
I12
I0
S'buggy'
p1946
tp1947
a(I114
I15
F1.0
S'good'
p1948
tp1949
a(I115
I0
I0
S'great'
p1950
tp1951
a(I150
I0
F1.0
S'best'
p1952
tp1953
a(I174
I12
F0.125
S'key'
p1954
tp1955
a(I197
I17
I0
S'more'
p1956
tp1957
a(I197
I17
F0.25
S'familiar'
p1958
tp1959
a(I200
I6
F0.375
S'new'
p1960
tp1961
a(I216
I0
F0.875
S'nice'
p1962
tp1963
a(I219
I1
I0
S'own'
p1964
tp1965
a(I230
I16
F0.375
S'extra'
p1966
tp1967
a(I241
I4
F0.375
S'extra'
p1968
tp1969
a(I290
I0
I0
S'great'
p1970
tp1971
a(I295
I12
I0
S'many'
p1972
tp1973
a(I319
I1
I0
S'many'
p1974
tp1975
a(I319
I1
F0.625
S'easy'
p1976
tp1977
a(I351
I2
I0
S'great'
p1978
tp1979
a(I351
I9
F0.875
S'nice'
p1980
tp1981
a(I361
I11
F0.625
S'easy'
p1982
tp1983
a(I361
I11
I0
S'many'
p1984
tp1985
a(I374
I5
I0
S'many'
p1986
tp1987
a(I384
I2
F-0.5
S'sure'
p1988
tp1989
a(I384
I2
I0
S'customizing'
p1990
tp1991
a(I384
I2
F0.375
S'available'
p1992
tp1993
a(I405
I6
I0
S'many'
p1994
tp1995
a(I405
I6
I0
S'more'
p1996
tp1997
a(I407
I2
F0.5
S'comparable'
p1998
tp1999
a(I440
I1
I0
S'only'
p2000
tp2001
a(I440
I1
F-0.5
S'certain'
p2002
tp2003
a(I458
I2
I0
S'many'
p2004
tp2005
a(I458
I2
F0.625
S'easy'
p2006
tp2007
a(I487
I1
I0
S'great'
p2008
tp2009
a(I488
I1
F1.0
S'best'
p2010
tp2011
a(I518
I2
I0
S'great'
p2012
tp2013
a(I537
I5
F0.25
S'used'
p2014
tp2015
a(I537
I5
F0.375
S'extra'
p2016
tp2017
a(I565
I3
F0.875
S'important'
p2018
tp2019
a(I596
I1
I0
S'adequate'
p2020
tp2021
a(I673
I1
I0
S'more'
p2022
tp2023
a(I680
I0
I0
S'same'
p2024
tp2025
a(I684
I28
F0.375
S'extra'
p2026
tp2027
a(I692
I0
F-0.625
S'other'
p2028
tp2029
a(I705
I2
I0
S'few'
p2030
tp2031
a(I736
I1
F1.0
S'good'
p2032
tp2033
a(I803
I3
I0
S'fast'
p2034
tp2035
a(I803
I3
F0.625
S'easy'
p2036
tp2037
a(I812
I18
I0
S'many'
p2038
tp2039
a(I813
I0
F0.375
S'new'
p2040
tp2041
a(I834
I0
I0
S'great'
p2042
tp2043
a(I834
I0
F0.625
S'easy'
p2044
tp2045
a(I894
I2
I0
S'many'
p2046
tp2047
a(I894
I2
I0
S'same'
p2048
tp2049
a(I895
I4
I0
S'many'
p2050
tp2051
a(I907
I4
F0.625
S'easy'
p2052
tp2053
a(I907
I4
I0
S'many'
p2054
tp2055
a(I925
I1
I0
S'great'
p2056
tp2057
a(I925
I1
F0.625
S'easy'
p2058
tp2059
a(I945
I1
F0.625
S'easy'
p2060
tp2061
a(I1010
I9
F0.875
S'nice'
p2062
tp2063
a(I1010
I21
F0.625
S'easy'
p2064
tp2065
a(I1010
I32
F1.0
S'best'
p2066
tp2067
a(I1065
I4
F-0.625
S'other'
p2068
tp2069
a(I1071
I1
I0
S'many'
p2070
tp2071
a(I1100
I1
I0
S'basic'
p2072
tp2073
a(I1113
I3
F-0.25
S'google'
p2074
tp2075
a(I1132
I6
F-0.625
S'other'
p2076
tp2077
a(I1173
I8
F0.375
S'new'
p2078
tp2079
a(I1219
I9
F0.625
S'easy'
p2080
tp2081
a(I1219
I9
I0
S'useful'
p2082
tp2083
a(I1233
I4
I0
S'such'
p2084
tp2085
as(g1383
S'great'
p2086
S'value'
p2087
tp2088
(lp2089
(I49
I1
I0
S'great'
p2090
tp2091
a(I234
I1
I0
S'great'
p2092
tp2093
a(I247
I0
I0
S'great'
p2094
tp2095
a(I278
I4
I0
S'great'
p2096
tp2097
a(I366
I7
I0
S'great'
p2098
tp2099
a(I431
I0
I0
S'great'
p2100
tp2101
a(I474
I1
I0
S'great'
p2102
tp2103
a(I510
I17
I0
S'great'
p2104
tp2105
a(I518
I1
I0
S'great'
p2106
tp2107
a(I518
I7
I0
S'great'
p2108
tp2109
a(I529
I0
I0
S'great'
p2110
tp2111
a(I565
I20
I0
S'great'
p2112
tp2113
a(I659
I38
I0
S'great'
p2114
tp2115
a(I766
I0
I0
S'great'
p2116
tp2117
a(I818
I15
I0
S'great'
p2118
tp2119
a(I925
I8
I0
S'great'
p2120
tp2121
a(I1168
I11
I0
S'great'
p2122
tp2123
as(S'flash'
p2124
tp2125
(lp2126
(I89
I4
F0.875
S'nice'
p2127
tp2128
a(I91
I1
F0.625
S'led'
p2129
tp2130
a(I284
I49
I0
S'rear'
p2131
tp2132
a(I380
I1
F-0.5
S'less'
p2133
tp2134
a(I451
I4
F0.125
S'first'
p2135
tp2136
a(I582
I2
I0
S'wish'
p2137
tp2138
a(I800
I20
F-0.5
S'poor'
p2139
tp2140
a(I925
I2
I0
S'wish'
p2141
tp2142
a(I1087
I12
I0
S'great'
p2143
tp2144
a(I1107
I0
F-0.5
S'sure'
p2145
tp2146
a(I1138
I2
F-0.625
S'other'
p2147
tp2148
a(I1139
I19
I0
S'most'
p2149
tp2150
a(I1187
I3
F-0.625
S'bad'
p2151
tp2152
a(I1219
I20
I0
S'most'
p2153
tp2154
a(I1256
I2
I0
S'great'
p2155
tp2156
as(S'well'
p2157
tp2158
(lp2159
(I27
I3
F0.625
S'easy'
p2160
tp2161
a(I27
I3
F1.0
S'good'
p2162
tp2163
as(S'micro'
p2164
S'sim'
p2165
S'card'
p2166
tp2167
(lp2168
(I45
I9
F0.375
g1322
tp2169
a(I119
I2
I0
g853
tp2170
a(I314
I6
I0
g875
tp2171
a(I366
I5
F-0.5
g881
tp2172
a(I405
I14
F0.125
g885
tp2173
a(I431
I4
F0.625
g887
tp2174
a(I431
I4
I0
g889
tp2175
a(I604
I3
I0
g895
tp2176
a(I760
I6
I0
g915
tp2177
a(I853
I0
F0.125
g919
tp2178
a(I853
I0
I0
g921
tp2179
as(S'android'
p2180
tp2181
(lp2182
(I20
I4
F-0.5
S'aside'
p2183
tp2184
a(I340
I0
I0
S'old'
p2185
tp2186
a(I351
I0
F0.5
S'loyal'
p2187
tp2188
a(I403
I5
I0
S'old'
p2189
tp2190
a(I465
I61
I0
S'many'
p2191
tp2192
a(I465
I61
F0.375
S'new'
p2193
tp2194
a(I727
I1
F0.125
g966
tp2195
a(I748
I2
F-0.25
S'modern'
p2196
tp2197
a(I777
I0
F-0.75
g968
tp2198
a(I846
I5
F0.125
S'typical'
p2199
tp2200
a(I937
I5
F0.125
S'last'
p2201
tp2202
a(I983
I2
F-0.25
S'inexpensive'
p2203
tp2204
a(I985
I80
F0.375
S'new'
p2205
tp2206
a(I1063
I1
F0.125
g984
tp2207
a(I1099
I0
F0.375
S'new'
p2208
tp2209
as(S'microsoft'
p2210
tp2211
(lp2212
(I133
I20
I0
S'wish'
p2213
tp2214
a(I214
I3
F0.125
S'usual'
p2215
tp2216
a(I284
I7
F0.375
S'new'
p2217
tp2218
a(I368
I15
F-0.25
S'google'
p2219
tp2220
a(I504
I58
F0.75
S'classic'
p2221
tp2222
a(I551
I3
F-0.375
S'top'
p2223
tp2224
a(I687
I1
F0.625
S'easy'
p2225
tp2226
a(I687
I1
I0
S'great'
p2227
tp2228
a(I1041
I5
I0
S'earlier'
p2229
tp2230
a(I1056
I3
I0
S'local'
p2231
tp2232
a(I1123
I11
F-0.625
S'glad'
p2233
tp2234
a(I1176
I11
F-0.625
S'other'
p2235
tp2236
as(S'thing'
p2237
tp2238
(lp2239
(I1
I8
I0
S'funny'
p2240
tp2241
a(I48
I2
I0
S'most'
p2242
tp2243
a(I52
I1
I0
S'only'
p2244
tp2245
a(I89
I6
I0
S'more'
p2246
tp2247
a(I96
I33
I0
S'only'
p2248
tp2249
a(I96
I33
F-0.625
S'other'
p2250
tp2251
a(I125
I0
I0
S'only'
p2252
tp2253
a(I142
I7
F0.375
S'much'
p2254
tp2255
a(I142
I15
I0
S'funny'
p2256
tp2257
a(I155
I0
I0
S'real'
p2258
tp2259
a(I189
I3
I0
S'only'
p2260
tp2261
a(I217
I5
F1.0
S'good'
p2262
tp2263
a(I245
I5
I0
S'only'
p2264
tp2265
a(I245
I5
F1.0
S'good'
p2266
tp2267
a(I300
I2
I0
S'only'
p2268
tp2269
a(I311
I1
F-0.625
S'bad'
p2270
tp2271
a(I367
I1
F-0.875
S'worst'
p2272
tp2273
a(I367
I1
F-0.875
S'unhappy'
p2274
tp2275
a(I368
I42
I0
S'only'
p2276
tp2277
a(I380
I1
I0
S'only'
p2278
tp2279
a(I387
I3
I0
S'only'
p2280
tp2281
a(I387
I3
F-0.625
S'bad'
p2282
tp2283
a(I436
I2
I0
S'only'
p2284
tp2285
a(I443
I1
I0
S'only'
p2286
tp2287
a(I452
I0
F-0.25
S'past'
p2288
tp2289
a(I504
I43
F0.375
S'available'
p2290
tp2291
a(I522
I11
I0
S'more'
p2292
tp2293
a(I537
I6
I0
S'only'
p2294
tp2295
a(I543
I9
I0
S'more'
p2296
tp2297
a(I562
I3
F0.125
S'first'
p2298
tp2299
a(I601
I5
F0.625
S'major'
p2300
tp2301
a(I610
I1
I0
S'only'
p2302
tp2303
a(I624
I0
F-0.625
S'bad'
p2304
tp2305
a(I640
I6
F1.0
S'best'
p2306
tp2307
a(I642
I4
I0
S'same'
p2308
tp2309
a(I645
I0
F1.0
S'best'
p2310
tp2311
a(I658
I1
I0
S'very'
p2312
tp2313
a(I658
I1
F1.0
S'best'
p2314
tp2315
a(I673
I2
F1.0
S'best'
p2316
tp2317
a(I680
I6
F1.0
S'good'
p2318
tp2319
a(I705
I8
F1.0
S'best'
p2320
tp2321
a(I709
I0
I0
S'great'
p2322
tp2323
a(I718
I3
F1.0
S'best'
p2324
tp2325
a(I734
I1
I0
S'only'
p2326
tp2327
a(I751
I5
I0
S'only'
p2328
tp2329
a(I752
I8
I0
S'only'
p2330
tp2331
a(I779
I0
F-0.375
S'beast'
p2332
tp2333
a(I805
I8
I0
S'only'
p2334
tp2335
a(I805
I28
I0
S'latest'
p2336
tp2337
a(I817
I3
F-0.625
S'other'
p2338
tp2339
a(I817
I3
F0.625
S'easier'
p2340
tp2341
a(I834
I4
I0
S'same'
p2342
tp2343
a(I895
I4
F0.25
S'main'
p2344
tp2345
a(I897
I2
F1.0
S'good'
p2346
tp2347
a(I918
I7
I0
S'same'
p2348
tp2349
a(I918
I31
I0
S'only'
p2350
tp2351
a(I934
I1
F1.0
S'good'
p2352
tp2353
a(I938
I2
I0
S'only'
p2354
tp2355
a(I995
I0
I0
S'real'
p2356
tp2357
a(I1001
I4
I0
S'only'
p2358
tp2359
a(I1035
I0
F1.0
S'best'
p2360
tp2361
a(I1036
I2
I0
S'handy'
p2362
tp2363
a(I1062
I1
F-0.75
S'wrong'
p2364
tp2365
a(I1069
I0
I0
S'only'
p2366
tp2367
a(I1087
I10
I0
S'big'
p2368
tp2369
a(I1111
I12
I0
S'only'
p2370
tp2371
a(I1127
I2
I0
S'more'
p2372
tp2373
a(I1138
I2
I0
S'only'
p2374
tp2375
a(I1138
I2
F-0.75
S'wrong'
p2376
tp2377
a(I1139
I11
F1.0
S'good'
p2378
tp2379
a(I1176
I7
F1.0
S'good'
p2380
tp2381
a(I1177
I3
I0
S'most'
p2382
tp2383
a(I1201
I1
F1.0
S'best'
p2384
tp2385
a(I1208
I3
F0.875
S'nice'
p2386
tp2387
a(I1235
I4
I0
S'only'
p2388
tp2389
a(I1237
I1
I0
S'same'
p2390
tp2391
a(I1237
I8
I0
S'only'
p2392
tp2393
a(I1246
I14
I0
S'only'
p2394
tp2395
a(I1256
I2
I0
S'only'
p2396
tp2397
as(S'flash'
p2398
S'for'
p2399
S'camera'
p2400
tp2401
(lp2402
(I89
I4
F0.875
g2127
tp2403
a(I226
I2
I0
S'external'
p2404
tp2405
a(I380
I1
F-0.5
g2133
tp2406
a(I451
I4
F0.125
g2135
tp2407
a(I574
I1
I0
S'rear'
p2408
tp2409
a(I684
I17
F1.0
S'good'
p2410
tp2411
a(I1157
I16
F0.375
S'flash'
p2412
tp2413
a(I1197
I0
I0
g1006
tp2414
a(I1197
I0
F-0.375
g1008
tp2415
a(I1219
I11
F0.625
S'acceptable'
p2416
tp2417
as(S'no'
p2418
S'front'
p2419
S'camera'
p2420
tp2421
(lp2422
(I89
I4
I0
g1845
tp2423
a(I111
I3
F-0.125
g992
tp2424
a(I111
I3
F-0.625
g994
tp2425
a(I574
I1
I0
g2408
tp2426
a(I624
I5
I0
g1002
tp2427
a(I734
I1
I0
S'more'
p2428
tp2429
a(I734
I1
F0.5
S'expensive'
p2430
tp2431
a(I1197
I0
I0
g1006
tp2432
a(I1197
I0
F-0.375
g1008
tp2433
a(I1244
I2
F0.625
g1012
tp2434
as(S'data'
p2435
tp2436
(lp2437
(I116
I0
I0
S'such'
p2438
tp2439
a(I116
I0
I0
S'old'
p2440
tp2441
a(I149
I4
F-0.375
S'simple'
p2442
tp2443
a(I212
I2
I0
S'monthly'
p2444
tp2445
a(I308
I1
I0
S'monthly'
p2446
tp2447
a(I394
I10
F-0.5
S'open'
p2448
tp2449
a(I449
I1
I0
S'cellular'
p2450
tp2451
a(I522
I5
I0
S'dial'
p2452
tp2453
a(I573
I5
F-0.375
S'disable'
p2454
tp2455
a(I592
I1
I0
S'cellular'
p2456
tp2457
a(I592
I2
I0
S'cellular'
p2458
tp2459
a(I659
I1
I0
S'toggle'
p2460
tp2461
a(I684
I4
F0.5
S'possible'
p2462
tp2463
a(I701
I9
F0.625
S'add'
p2464
tp2465
a(I701
I16
F0.5
S'variable'
p2466
tp2467
a(I701
I16
I0
S'multiple'
p2468
tp2469
a(I720
I4
F1.0
S'good'
p2470
tp2471
a(I744
I3
I0
S'monthly'
p2472
tp2473
a(I767
I5
I0
S'own'
p2474
tp2475
a(I805
I3
I0
S'cellular'
p2476
tp2477
a(I812
I3
I0
S'minimal'
p2478
tp2479
a(I817
I2
F0.5
S'expensive'
p2480
tp2481
a(I891
I10
I0
S'cellular'
p2482
tp2483
a(I891
I10
F0.375
S'extra'
p2484
tp2485
a(I985
I37
I0
S'cable'
p2486
tp2487
a(I1167
I5
F-0.5
S'try'
p2488
tp2489
a(I1167
I5
I0
S'more'
p2490
tp2491
a(I1212
I0
I0
S'high'
p2492
tp2493
as(S'os'
p2494
S'or'
p2495
S'android'
p2496
tp2497
(lp2498
(I91
I1
F-0.625
g952
tp2499
a(I495
I9
F-0.375
g958
tp2500
a(I495
I9
I0
g960
tp2501
a(I693
I1
I0
g964
tp2502
a(I777
I0
F-0.75
g968
tp2503
a(I787
I5
I0
g970
tp2504
a(I967
I9
I0
g972
tp2505
a(I985
I5
I0
g974
tp2506
a(I985
I5
F1.0
g976
tp2507
a(I1013
I1
F0.125
g980
tp2508
as(g1383
S'data'
p2509
S'plan'
p2510
tp2511
(lp2512
(I13
I1
F0.375
S'new'
p2513
tp2514
a(I308
I1
I0
g2446
tp2515
a(I384
I4
F0.75
S'give'
p2516
tp2517
a(I449
I1
I0
g2450
tp2518
a(I592
I1
I0
g2456
tp2519
a(I701
I9
F0.625
g2464
tp2520
a(I701
I13
F0.375
S'new'
p2521
tp2522
a(I701
I16
F0.375
S'new'
p2523
tp2524
a(I701
I16
F0.375
S'new'
p2525
tp2526
a(I701
I16
F0.5
g2466
tp2527
a(I701
I16
I0
g2468
tp2528
a(I735
I1
F0.625
S'necessary'
p2529
tp2530
a(I744
I3
I0
g2472
tp2531
a(I891
I10
I0
g2482
tp2532
a(I891
I10
F0.375
g2484
tp2533
a(I1167
I5
F-0.5
g2488
tp2534
a(I1167
I5
I0
g2490
tp2535
a(I1196
I1
I0
S'old'
p2536
tp2537
a(I1212
I0
I0
g2492
tp2538
as(S'micro'
p2539
S'sd'
p2540
S'card'
p2541
tp2542
(lp2543
(I49
I6
F0.125
g1448
tp2544
a(I1153
I4
F1.0
g602
tp2545
as(g1383
S'sim'
p2546
S'card'
p2547
tp2548
(lp2549
(I51
I2
I0
g849
tp2550
a(I71
I0
F-0.625
g851
tp2551
a(I119
I2
I0
g853
tp2552
a(I125
I1
F0.375
g855
tp2553
a(I167
I2
I0
g857
tp2554
a(I167
I2
F1.0
g859
tp2555
a(I199
I3
I0
g861
tp2556
a(I199
I3
F0.25
g863
tp2557
a(I206
I0
F0.375
g865
tp2558
a(I206
I0
I0
g867
tp2559
a(I206
I0
I0
g869
tp2560
a(I210
I1
F0.125
g871
tp2561
a(I257
I5
I0
g873
tp2562
a(I314
I6
I0
g875
tp2563
a(I327
I3
I0
g877
tp2564
a(I327
I3
I0
g879
tp2565
a(I366
I5
F-0.5
g881
tp2566
a(I403
I11
F0.25
g883
tp2567
a(I405
I14
F0.125
g885
tp2568
a(I431
I4
F0.625
g887
tp2569
a(I431
I4
I0
g889
tp2570
a(I504
I7
F0.5
g891
tp2571
a(I604
I1
I0
g893
tp2572
a(I604
I3
I0
g895
tp2573
a(I604
I6
F0.375
g897
tp2574
a(I604
I7
I0
g899
tp2575
a(I695
I1
F-0.375
g901
tp2576
a(I701
I20
F0.375
g903
tp2577
a(I704
I3
F0.75
g905
tp2578
a(I704
I3
F-0.25
g907
tp2579
a(I704
I3
I0
g909
tp2580
a(I704
I4
F-0.375
g911
tp2581
a(I737
I2
F0.125
g913
tp2582
a(I760
I6
I0
g915
tp2583
a(I769
I3
I0
g917
tp2584
a(I853
I0
F0.125
g919
tp2585
a(I853
I0
I0
g921
tp2586
a(I933
I2
F-0.625
g923
tp2587
a(I940
I1
F-0.5
g925
tp2588
a(I962
I1
F-0.75
g927
tp2589
a(I980
I6
I0
g929
tp2590
a(I980
I13
I0
g931
tp2591
a(I1034
I1
F0.5
g933
tp2592
a(I1071
I5
F0.375
g935
tp2593
a(I1071
I5
F-0.375
g937
tp2594
a(I1071
I5
F0.375
g939
tp2595
a(I1226
I3
F-0.375
g941
tp2596
a(I1250
I8
F0.125
g943
tp2597
as(S'work'
p2598
tp2599
(lp2600
(I80
I4
F1.0
S'good'
p2601
tp2602
a(I805
I15
F0.625
S'easy'
p2603
tp2604
a(I805
I15
F0.5
S'personal'
p2605
tp2606
a(I1100
I10
F0.125
S'able'
p2607
tp2608
as(S'battery'
p2609
S'life'
p2610
tp2611
(lp2612
(I30
I3
F-0.125
S'super'
p2613
tp2614
a(I30
I3
I0
S'sensitive'
p2615
tp2616
a(I46
I0
I0
S'great'
p2617
tp2618
a(I46
I33
F-0.625
S'bad'
p2619
tp2620
a(I48
I2
F-0.5
S'long'
p2621
tp2622
a(I71
I2
F-0.625
S'average'
p2623
tp2624
a(I94
I3
F1.0
S'good'
p2625
tp2626
a(I118
I6
I0
S'passable'
p2627
tp2628
a(I133
I10
F0.625
S'decent'
p2629
tp2630
a(I167
I5
F1.0
S'good'
p2631
tp2632
a(I171
I7
F0.25
S'stellar'
p2633
tp2634
a(I174
I13
F1.0
S'good'
p2635
tp2636
a(I179
I4
F1.0
S'good'
p2637
tp2638
a(I197
I12
F-0.5
S'poor'
p2639
tp2640
a(I232
I3
F1.0
S'good'
p2641
tp2642
a(I262
I1
F1.0
S'good'
p2643
tp2644
a(I284
I51
I0
S'incredible'
p2645
tp2646
a(I295
I11
F-0.625
S'average'
p2647
tp2648
a(I323
I0
F1.0
S'better'
p2649
tp2650
a(I392
I1
F-0.5
S'long'
p2651
tp2652
a(I419
I2
I0
S'great'
p2653
tp2654
a(I470
I3
F1.0
S'good'
p2655
tp2656
a(I471
I1
I0
S'most'
p2657
tp2658
a(I471
I1
I0
S'notable'
p2659
tp2660
a(I499
I1
F-0.5
S'poor'
p2661
tp2662
a(I508
I1
I0
S'great'
p2663
tp2664
a(I626
I2
I0
S'phenomenal'
p2665
tp2666
a(I659
I54
F0.625
S'decent'
p2667
tp2668
a(I665
I0
I0
S'great'
p2669
tp2670
a(I665
I0
I0
S'quick'
p2671
tp2672
a(I677
I9
F-0.625
S'average'
p2673
tp2674
a(I689
I8
F1.0
S'good'
p2675
tp2676
a(I694
I3
F1.0
S'good'
p2677
tp2678
a(I724
I1
F1.0
S'good'
p2679
tp2680
a(I724
I2
F-0.5
S'long'
p2681
tp2682
a(I727
I2
F1.0
S'good'
p2683
tp2684
a(I729
I1
F-0.75
S'short'
p2685
tp2686
a(I729
I1
F1.0
S'better'
p2687
tp2688
a(I776
I6
F1.0
S'good'
p2689
tp2690
a(I785
I8
F1.0
S'good'
p2691
tp2692
a(I790
I0
F-0.75
S'short'
p2693
tp2694
a(I790
I3
I0
S'more'
p2695
tp2696
a(I818
I4
I0
S'great'
p2697
tp2698
a(I837
I1
F-0.25
S'inexpensive'
p2699
tp2700
a(I855
I1
F0.625
S'easy'
p2701
tp2702
a(I855
I1
F1.0
S'good'
p2703
tp2704
a(I928
I2
F0.625
S'replaceable'
p2705
tp2706
a(I929
I4
F1.0
S'good'
p2707
tp2708
a(I934
I2
F1.0
S'good'
p2709
tp2710
a(I1105
I0
F0.625
S'easy'
p2711
tp2712
a(I1141
I1
F1.0
S'good'
p2713
tp2714
a(I1168
I1
F0.125
S'fondle'
p2715
tp2716
a(I1168
I1
F0.875
S'worthy'
p2717
tp2718
a(I1196
I8
F-0.625
S'bad'
p2719
tp2720
a(I1219
I7
I0
S'useful'
p2721
tp2722
a(I1248
I2
F-0.875
S'worst'
p2723
tp2724
as(S'talk'
p2725
tp2726
(lp2727
(I4
I6
F0.625
S'straight'
p2728
tp2729
a(I158
I1
F0.625
S'straight'
p2730
tp2731
a(I169
I1
F0.625
g359
tp2732
a(I170
I0
F0.625
g361
tp2733
a(I195
I5
F0.625
g363
tp2734
a(I198
I6
F0.625
S'straight'
p2735
tp2736
a(I226
I1
F0.625
g365
tp2737
a(I256
I0
F0.625
g367
tp2738
a(I256
I1
F0.625
g369
tp2739
a(I256
I2
F0.625
g371
tp2740
a(I282
I1
F0.625
S'straight'
p2741
tp2742
a(I405
I5
F0.625
S'straight'
p2743
tp2744
a(I405
I11
F0.625
S'straight'
p2745
tp2746
a(I436
I0
F0.625
S'straight'
p2747
tp2748
a(I518
I4
F0.625
g373
tp2749
a(I518
I4
F0.625
g375
tp2750
a(I518
I4
F0.625
g377
tp2751
a(I525
I0
F0.625
g379
tp2752
a(I593
I15
F0.625
S'straight'
p2753
tp2754
a(I733
I0
F0.625
S'straight'
p2755
tp2756
a(I733
I0
F0.625
S'straight'
p2757
tp2758
a(I733
I1
F0.625
S'straight'
p2759
tp2760
a(I779
I1
F0.625
g381
tp2761
a(I784
I0
F0.625
S'straight'
p2762
tp2763
a(I889
I2
F0.625
S'straight'
p2764
tp2765
a(I928
I1
F0.625
g383
tp2766
a(I985
I22
I0
S'local'
p2767
tp2768
a(I990
I3
F0.625
g385
tp2769
a(I1034
I1
F0.625
g387
tp2770
a(I1034
I1
F0.625
g389
tp2771
a(I1047
I0
F0.625
g391
tp2772
a(I1047
I0
F0.625
g393
tp2773
a(I1047
I3
F0.625
S'straight'
p2774
tp2775
a(I1047
I3
F0.125
S'able'
p2776
tp2777
a(I1047
I12
F0.625
g395
tp2778
a(I1082
I3
F0.625
S'straight'
p2779
tp2780
a(I1097
I4
F0.625
S'straight'
p2781
tp2782
a(I1118
I0
F0.625
S'straight'
p2783
tp2784
a(I1237
I1
F0.625
S'straight'
p2785
tp2786
a(I1238
I2
F0.625
g397
tp2787
a(I1246
I0
F0.625
S'straight'
p2788
tp2789
a(I1246
I1
F0.625
g399
tp2790
a(I1246
I2
F0.625
S'straight'
p2791
tp2792
a(I1246
I3
F0.625
S'straight'
p2793
tp2794
as(S'bought'
p2795
tp2796
(lp2797
(I176
I1
I0
S'quick'
p2798
tp2799
a(I176
I1
F0.625
S'aware'
p2800
tp2801
as(S'daily'
p2802
S'driver'
p2803
tp2804
(lp2805
(I800
I9
F-0.375
S'daily'
p2806
tp2807
a(I801
I0
F-0.375
S'daily'
p2808
tp2809
a(I1151
I2
F-0.375
S'daily'
p2810
tp2811
as(S'back'
p2812
tp2813
(lp2814
(I89
I7
F0.5
S'careful'
p2815
tp2816
a(I194
I10
F0.625
S'changeable'
p2817
tp2818
a(I284
I23
I0
S'rotate'
p2819
tp2820
a(I457
I3
F-0.25
S'yellow'
p2821
tp2822
a(I504
I15
F-0.5
S'open'
p2823
tp2824
a(I659
I52
F0.875
S'music'
p2825
tp2826
a(I748
I31
F0.5
S'possible'
p2827
tp2828
a(I751
I5
F-0.625
S'light'
p2829
tp2830
a(I969
I0
F-0.375
S'black'
p2831
tp2832
a(I977
I9
I0
S'plastic'
p2833
tp2834
a(I998
I7
F0.25
S'biggest'
p2835
tp2836
a(I1022
I12
F-0.125
S'mine'
p2837
tp2838
a(I1032
I6
F-0.875
S'negative'
p2839
tp2840
a(I1102
I2
F0.375
S'extra'
p2841
tp2842
a(I1151
I5
F0.625
S'removable'
p2843
tp2844
a(I1151
I5
F0.625
S'easier'
p2845
tp2846
a(I1165
I6
F-0.625
S'other'
p2847
tp2848
as(S'good'
p2849
tp2850
(lp2851
(I374
I2
I0
S'big'
p2852
tp2853
as(S'straight'
p2854
S'talk'
p2855
tp2856
(lp2857
(I4
I6
F0.625
g2728
tp2858
a(I158
I1
F0.625
g2730
tp2859
a(I169
I1
F0.625
g359
tp2860
a(I170
I0
F0.625
g361
tp2861
a(I195
I5
F0.625
g363
tp2862
a(I198
I6
F0.625
g2735
tp2863
a(I226
I1
F0.625
g365
tp2864
a(I256
I0
F0.625
g367
tp2865
a(I256
I1
F0.625
g369
tp2866
a(I256
I2
F0.625
g371
tp2867
a(I282
I1
F0.625
g2741
tp2868
a(I405
I5
F0.625
g2743
tp2869
a(I405
I11
F0.625
g2745
tp2870
a(I436
I0
F0.625
g2747
tp2871
a(I518
I4
F0.625
g373
tp2872
a(I518
I4
F0.625
g375
tp2873
a(I518
I4
F0.625
g377
tp2874
a(I525
I0
F0.625
g379
tp2875
a(I593
I15
F0.625
g2753
tp2876
a(I733
I0
F0.625
g2755
tp2877
a(I733
I0
F0.625
g2757
tp2878
a(I733
I1
F0.625
g2759
tp2879
a(I779
I1
F0.625
g381
tp2880
a(I784
I0
F0.625
g2762
tp2881
a(I889
I2
F0.625
g2764
tp2882
a(I928
I1
F0.625
g383
tp2883
a(I990
I3
F0.625
g385
tp2884
a(I1034
I1
F0.625
g387
tp2885
a(I1034
I1
F0.625
g389
tp2886
a(I1047
I0
F0.625
g391
tp2887
a(I1047
I0
F0.625
g393
tp2888
a(I1047
I3
F0.625
g2774
tp2889
a(I1047
I3
F0.125
g2776
tp2890
a(I1047
I12
F0.625
g395
tp2891
a(I1082
I3
F0.625
g2779
tp2892
a(I1097
I4
F0.625
g2781
tp2893
a(I1118
I0
F0.625
g2783
tp2894
a(I1237
I1
F0.625
g2785
tp2895
a(I1238
I2
F0.625
g397
tp2896
a(I1246
I0
F0.625
g2788
tp2897
a(I1246
I1
F0.625
g399
tp2898
a(I1246
I2
F0.625
g2791
tp2899
a(I1246
I3
F0.625
g2793
tp2900
as(S'an'
p2901
S'entry'
p2902
S'level'
p2903
tp2904
(lp2905
(I210
I5
F-0.25
S'lower'
p2906
tp2907
a(I404
I3
F1.0
S'best'
p2908
tp2909
a(I444
I17
I0
S'standard'
p2910
tp2911
as(S'life'
p2912
tp2913
(lp2914
(I46
I0
I0
g2617
tp2915
a(I118
I6
I0
g2627
tp2916
a(I167
I5
F1.0
g2631
tp2917
a(I171
I7
F0.25
g2633
tp2918
a(I179
I4
F1.0
g2637
tp2919
a(I197
I12
F-0.5
g2639
tp2920
a(I284
I51
I0
g2645
tp2921
a(I288
I1
F0.5
S'personal'
p2922
tp2923
a(I295
I11
F-0.625
g2647
tp2924
a(I323
I0
F1.0
g2649
tp2925
a(I419
I2
I0
g2653
tp2926
a(I470
I3
F1.0
g2655
tp2927
a(I471
I1
I0
g2657
tp2928
a(I471
I1
I0
g2659
tp2929
a(I499
I1
F-0.5
g2661
tp2930
a(I626
I2
I0
g2665
tp2931
a(I637
I10
F-0.5
S'longer'
p2932
tp2933
a(I665
I0
I0
g2671
tp2934
a(I677
I9
F-0.625
g2673
tp2935
a(I689
I8
F1.0
g2675
tp2936
a(I694
I3
F1.0
g2677
tp2937
a(I724
I1
F1.0
g2679
tp2938
a(I727
I2
F1.0
g2683
tp2939
a(I776
I6
F1.0
g2689
tp2940
a(I785
I8
F1.0
g2691
tp2941
a(I818
I4
I0
g2697
tp2942
a(I890
I0
F0.125
S'able'
p2943
tp2944
a(I929
I4
F1.0
g2707
tp2945
a(I1105
I0
F0.625
g2711
tp2946
a(I1139
I18
F0.625
S'easier'
p2947
tp2948
a(I1196
I8
F-0.625
g2719
tp2949
a(I1219
I7
I0
g2721
tp2950
as(S'best'
p2951
tp2952
(lp2953
(I1021
I0
I0
S'cool'
p2954
tp2955
a(I1021
I0
F-0.375
S'black'
p2956
tp2957
as(S'third'
p2958
S'party'
p2959
tp2960
(lp2961
(I114
I11
I0
S'third'
p2962
tp2963
a(I177
I2
I0
S'third'
p2964
tp2965
a(I549
I3
I0
S'third'
p2966
tp2967
a(I918
I17
I0
S'least'
p2968
tp2969
a(I918
I17
I0
S'third'
p2970
tp2971
a(I918
I23
I0
S'third'
p2972
tp2973
a(I1219
I10
I0
S'third'
p2974
tp2975
as(S'good'
p2976
S'battery'
p2977
S'life'
p2978
tp2979
(lp2980
(I30
I3
F-0.125
g2613
tp2981
a(I30
I3
I0
g2615
tp2982
a(I94
I3
F1.0
g2625
tp2983
a(I167
I5
F1.0
g2631
tp2984
a(I174
I13
F1.0
g2635
tp2985
a(I179
I4
F1.0
g2637
tp2986
a(I232
I3
F1.0
g2641
tp2987
a(I262
I1
F1.0
g2643
tp2988
a(I323
I0
F1.0
g2649
tp2989
a(I392
I1
F-0.5
g2651
tp2990
a(I419
I2
I0
g2653
tp2991
a(I470
I3
F1.0
g2655
tp2992
a(I689
I8
F1.0
g2675
tp2993
a(I694
I3
F1.0
g2677
tp2994
a(I724
I1
F1.0
g2679
tp2995
a(I727
I2
F1.0
g2683
tp2996
a(I776
I6
F1.0
g2689
tp2997
a(I785
I8
F1.0
g2691
tp2998
a(I855
I1
F0.625
g2701
tp2999
a(I855
I1
F1.0
g2703
tp3000
a(I928
I2
F0.625
g2705
tp3001
a(I929
I4
F1.0
g2707
tp3002
a(I934
I2
F1.0
g2709
tp3003
a(I1105
I0
F0.625
g2711
tp3004
a(I1141
I1
F1.0
g2713
tp3005
as(S'dual'
p3006
S'core'
p3007
tp3008
(lp3009
(I368
I20
F-0.75
S'single'
p3010
tp3011
a(I822
I0
I0
S'latest'
p3012
tp3013
a(I1023
I3
I0
S'great'
p3014
tp3015
as(S'music'
p3016
tp3017
(lp3018
(I4
I5
I0
S'penny'
p3019
tp3020
a(I57
I7
F1.0
S'good'
p3021
tp3022
a(I103
I1
F-0.625
S'free'
p3023
tp3024
a(I149
I3
F-0.625
S'free'
p3025
tp3026
a(I149
I3
F0.375
S'new'
p3027
tp3028
a(I279
I1
I0
S'great'
p3029
tp3030
a(I279
I1
F-0.75
S'little'
p3031
tp3032
a(I465
I46
I0
S'great'
p3033
tp3034
a(I465
I46
F-0.25
S'google'
p3035
tp3036
a(I543
I15
I0
S'generic'
p3037
tp3038
a(I689
I13
F1.0
S'good'
p3039
tp3040
a(I693
I1
F0.25
S'favorite'
p3041
tp3042
a(I738
I20
F-0.25
S'google'
p3043
tp3044
a(I846
I8
F0.875
S'nice'
p3045
tp3046
a(I889
I3
I0
S'mobile'
p3047
tp3048
a(I906
I2
I0
S'download'
p3049
tp3050
a(I1067
I4
F-0.625
S'free'
p3051
tp3052
a(I1067
I4
F0.375
S'available'
p3053
tp3054
a(I1067
I5
F-0.625
S'other'
p3055
tp3056
a(I1067
I5
I0
S'standard'
p3057
tp3058
a(I1067
I5
F0.125
S'popular'
p3059
tp3060
a(I1111
I8
I0
S'own'
p3061
tp3062
a(I1193
I7
I0
S'great'
p3063
tp3064
a(I1196
I9
I0
S'great'
p3065
tp3066
as(S'user'
p3067
tp3068
(lp3069
(I38
I2
I0
S'detailed'
p3070
tp3071
a(I38
I2
F-0.375
S'manual'
p3072
tp3073
a(I126
I3
I0
S'great'
p3074
tp3075
a(I126
I5
I0
S'general'
p3076
tp3077
a(I199
I16
I0
S'more'
p3078
tp3079
a(I200
I0
F-0.375
S'simple'
p3080
tp3081
a(I208
I10
I0
S'android'
p3082
tp3083
a(I212
I0
F-0.75
S'wrong'
p3084
tp3085
a(I238
I2
F-0.5
S'less'
p3086
tp3087
a(I377
I2
F-0.625
S'light'
p3088
tp3089
a(I395
I7
F1.0
S'good'
p3090
tp3091
a(I631
I1
F0.625
S'replaceable'
p3092
tp3093
a(I817
I2
F-0.5
S'heavy'
p3094
tp3095
a(I837
I1
I0
S'fast'
p3096
tp3097
a(I891
I10
I0
S'cable'
p3098
tp3099
a(I985
I47
F0.625
S'replaceable'
p3100
tp3101
a(I1009
I0
I0
S'basic'
p3102
tp3103
a(I1010
I0
I0
S'android'
p3104
tp3105
a(I1010
I5
I0
S'own'
p3106
tp3107
a(I1013
I1
I0
S'android'
p3108
tp3109
a(I1022
I6
F0.375
S'similar'
p3110
tp3111
a(I1100
I16
I0
S'android'
p3112
tp3113
a(I1123
I28
I0
S'android'
p3114
tp3115
a(I1219
I7
F0.375
S'appreciate'
p3116
tp3117
a(I1219
I7
F0.625
S'replaceable'
p3118
tp3119
a(I1252
I2
F0.875
S'happy'
p3120
tp3121
as(S'battery'
p3122
tp3123
(lp3124
(I16
I0
F1.0
S'good'
p3125
tp3126
a(I30
I3
F-0.125
g2613
tp3127
a(I30
I3
I0
g2615
tp3128
a(I46
I33
F-0.625
g2619
tp3129
a(I48
I2
F-0.5
g2621
tp3130
a(I71
I2
F-0.625
g2623
tp3131
a(I94
I3
F1.0
g2625
tp3132
a(I114
I23
I0
S'automatic'
p3133
tp3134
a(I133
I10
F0.625
g2629
tp3135
a(I136
I5
F0.125
S'last'
p3136
tp3137
a(I171
I16
F1.0
S'good'
p3138
tp3139
a(I174
I13
F1.0
g2635
tp3140
a(I195
I3
F-0.625
S'light'
p3141
tp3142
a(I199
I7
F0.25
S'bigger'
p3143
tp3144
a(I202
I9
F0.625
S'replaceable'
p3145
tp3146
a(I232
I3
F1.0
g2641
tp3147
a(I236
I5
F-0.625
S'average'
p3148
tp3149
a(I262
I1
F1.0
g2643
tp3150
a(I341
I0
I0
S'quick'
p3151
tp3152
a(I368
I4
I0
S'rear'
p3153
tp3154
a(I368
I39
I0
S'rear'
p3155
tp3156
a(I392
I1
F-0.5
g2651
tp3157
a(I399
I4
F0.5
S'expensive'
p3158
tp3159
a(I407
I3
F0.625
S'replaceable'
p3160
tp3161
a(I508
I1
I0
g2663
tp3162
a(I659
I54
F0.625
g2667
tp3163
a(I665
I0
I0
g2669
tp3164
a(I701
I5
F-0.25
S'loose'
p3165
tp3166
a(I724
I2
F-0.5
g2681
tp3167
a(I729
I1
F-0.75
g2685
tp3168
a(I729
I1
F1.0
g2687
tp3169
a(I738
I12
F0.625
S'replaceable'
p3170
tp3171
a(I748
I16
F0.625
S'removable'
p3172
tp3173
a(I752
I11
F0.375
S'new'
p3174
tp3175
a(I785
I1
F0.375
S'new'
p3176
tp3177
a(I790
I0
F-0.75
g2693
tp3178
a(I790
I3
I0
g2695
tp3179
a(I802
I9
F0.625
S'removable'
p3180
tp3181
a(I805
I11
I0
S'one-half'
p3182
tp3183
a(I812
I4
F0.625
S'replaceable'
p3184
tp3185
a(I837
I1
F-0.25
g2699
tp3186
a(I855
I1
F0.625
g2701
tp3187
a(I855
I1
F1.0
g2703
tp3188
a(I856
I1
F-0.5
S'weak'
p3189
tp3190
a(I865
I2
F0.875
S'nice'
p3191
tp3192
a(I866
I2
F0.125
S'last'
p3193
tp3194
a(I928
I2
F0.625
g2705
tp3195
a(I934
I2
F1.0
g2709
tp3196
a(I983
I6
F0.125
S'last'
p3197
tp3198
a(I985
I44
I0
S'rapid'
p3199
tp3200
a(I985
I53
F-0.375
S'red'
p3201
tp3202
a(I987
I7
F-0.5
S'sure'
p3203
tp3204
a(I988
I15
F0.25
S'used'
p3205
tp3206
a(I1023
I7
F0.125
S'last'
p3207
tp3208
a(I1047
I19
F0.625
S'removable'
p3209
tp3210
a(I1047
I20
F0.625
S'easy'
p3211
tp3212
a(I1129
I2
F-0.25
S'loose'
p3213
tp3214
a(I1135
I1
F0.625
S'easy'
p3215
tp3216
a(I1140
I4
F1.0
S'good'
p3217
tp3218
a(I1141
I1
F1.0
g2713
tp3219
a(I1168
I1
F0.125
g2715
tp3220
a(I1168
I1
F0.875
g2717
tp3221
a(I1218
I0
F1.0
S'good'
p3222
tp3223
a(I1219
I13
F0.625
S'replaceable'
p3224
tp3225
a(I1248
I2
F-0.875
g2723
tp3226
as(S'smart'
p3227
tp3228
(lp3229
(I39
I1
I0
S'great'
p3230
tp3231
a(I61
I0
F0.25
S'powerful'
p3232
tp3233
a(I84
I1
F1.0
S'good'
p3234
tp3235
a(I94
I0
F0.125
S'first'
p3236
tp3237
a(I101
I0
F0.125
S'first'
p3238
tp3239
a(I101
I2
F-0.625
S'other'
p3240
tp3241
a(I179
I0
F0.125
S'first'
p3242
tp3243
a(I197
I0
F1.0
S'good'
p3244
tp3245
a(I197
I0
F0.125
S'first'
p3246
tp3247
a(I257
I4
F0.125
S'last'
p3248
tp3249
a(I257
I8
F0.125
S'last'
p3250
tp3251
a(I281
I2
F0.125
S'first'
p3252
tp3253
a(I302
I1
F0.5
S'functional'
p3254
tp3255
a(I350
I2
F1.0
S'good'
p3256
tp3257
a(I361
I11
I0
S'great'
p3258
tp3259
a(I366
I7
F-0.375
S'simple'
p3260
tp3261
a(I392
I0
F0.125
S'first'
p3262
tp3263
a(I396
I1
F-0.625
S'other'
p3264
tp3265
a(I405
I7
F0.25
S'unlocked'
p3266
tp3267
a(I432
I4
F0.125
S'first'
p3268
tp3269
a(I432
I4
F-0.625
S'other'
p3270
tp3271
a(I467
I2
F0.5
S'expensive'
p3272
tp3273
a(I520
I0
F0.125
S'first'
p3274
tp3275
a(I537
I4
I0
S'basic'
p3276
tp3277
a(I576
I0
F-0.25
S'cheapest'
p3278
tp3279
a(I592
I2
F-0.25
S'inexpensive'
p3280
tp3281
a(I594
I6
I0
S'real'
p3282
tp3283
a(I601
I0
F-0.125
S'overall'
p3284
tp3285
a(I601
I0
F0.125
S'first'
p3286
tp3287
a(I607
I0
F0.125
S'first'
p3288
tp3289
a(I612
I1
F0.125
S'first'
p3290
tp3291
a(I637
I16
I0
S'basic'
p3292
tp3293
a(I648
I0
I0
S'different'
p3294
tp3295
a(I659
I4
I0
S'many'
p3296
tp3297
a(I707
I3
I0
S'next'
p3298
tp3299
a(I727
I1
F-0.625
S'other'
p3300
tp3301
a(I741
I0
F0.5
S'expensive'
p3302
tp3303
a(I788
I3
F-0.5
S'longer'
p3304
tp3305
a(I788
I3
F-0.625
S'other'
p3306
tp3307
a(I804
I0
F-0.5
S'regular'
p3308
tp3309
a(I816
I11
F-0.625
S'other'
p3310
tp3311
a(I816
I11
I0
S'same'
p3312
tp3313
a(I837
I2
F0.125
S'first'
p3314
tp3315
a(I854
I0
F0.125
S'first'
p3316
tp3317
a(I857
I0
F0.125
S'first'
p3318
tp3319
a(I865
I3
I0
S'great'
p3320
tp3321
a(I877
I1
F1.0
S'good'
p3322
tp3323
a(I880
I0
F0.125
S'first'
p3324
tp3325
a(I880
I2
F0.5
S'true'
p3326
tp3327
a(I880
I2
I0
S'fastest'
p3328
tp3329
a(I880
I2
F1.0
S'good'
p3330
tp3331
a(I890
I0
F0.5
S'smartest'
p3332
tp3333
a(I898
I0
I0
S'great'
p3334
tp3335
a(I898
I0
I0
S'basic'
p3336
tp3337
a(I904
I0
F1.0
S'good'
p3338
tp3339
a(I944
I1
F0.125
S'first'
p3340
tp3341
a(I952
I1
F-0.5
S'less'
p3342
tp3343
a(I980
I1
I0
S'great'
p3344
tp3345
a(I997
I1
F0.875
S'nice'
p3346
tp3347
a(I1013
I6
F0.75
S'competent'
p3348
tp3349
a(I1022
I10
F0.5
S'primary'
p3350
tp3351
a(I1067
I8
I0
S'most'
p3352
tp3353
a(I1067
I8
F-0.625
S'other'
p3354
tp3355
a(I1088
I0
F1.0
S'best'
p3356
tp3357
a(I1100
I1
I0
S'standard'
p3358
tp3359
a(I1108
I0
I0
S'big'
p3360
tp3361
a(I1210
I1
F-0.625
S'other'
p3362
tp3363
a(I1210
I1
F0.5
S'expensive'
p3364
tp3365
a(I1215
I0
F0.125
S'first'
p3366
tp3367
a(I1219
I0
F1.0
S'best'
p3368
tp3369
a(I1233
I0
F0.125
S'first'
p3370
tp3371
a(I1246
I4
F0.625
S'major'
p3372
tp3373
as(S't'
p3374
S'works'
p3375
S'great'
p3376
tp3377
(lp3378
(I142
I17
I0
S'great'
p3379
tp3380
a(I205
I0
I0
S'great'
p3381
tp3382
a(I226
I1
I0
S'great'
p3383
tp3384
a(I376
I1
F1.0
S'good'
p3385
tp3386
a(I503
I8
I0
S'great'
p3387
tp3388
a(I549
I4
I0
S'great'
p3389
tp3390
a(I582
I0
I0
S'great'
p3391
tp3392
a(I591
I0
I0
S'great'
p3393
tp3394
a(I684
I8
I0
S'great'
p3395
tp3396
a(I740
I9
I0
S'great'
p3397
tp3398
a(I843
I8
I0
S'great'
p3399
tp3400
a(I882
I0
I0
S'great'
p3401
tp3402
a(I888
I1
I0
S'great'
p3403
tp3404
a(I910
I0
I0
S'great'
p3405
tp3406
a(I931
I11
I0
S'great'
p3407
tp3408
a(I1030
I0
I0
S'great'
p3409
tp3410
a(I1176
I3
I0
S'great'
p3411
tp3412
a(I1213
I0
I0
S'great'
p3413
tp3414
a(I1224
I4
I0
S'great'
p3415
tp3416
as(S'looking'
p3417
tp3418
(lp3419
(I265
I2
F1.0
S'good'
p3420
tp3421
a(I383
I0
F-0.625
S'clean'
p3422
tp3423
a(I395
I11
I0
S'same'
p3424
tp3425
a(I465
I16
F1.0
S'good'
p3426
tp3427
a(I465
I40
F1.0
S'good'
p3428
tp3429
a(I607
I1
F1.0
S'good'
p3430
tp3431
a(I620
I0
F1.0
S'good'
p3432
tp3433
a(I655
I1
F0.875
S'nice'
p3434
tp3435
a(I655
I1
F-0.25
S'modern'
p3436
tp3437
a(I738
I11
F0.25
S'responsive'
p3438
tp3439
a(I738
I11
I0
S'fast'
p3440
tp3441
a(I738
I11
F1.0
S'good'
p3442
tp3443
a(I795
I1
F1.0
S'good'
p3444
tp3445
a(I795
I1
F0.625
S'easy'
p3446
tp3447
a(I1167
I0
I0
S'cool'
p3448
tp3449
as(S'calls'
p3450
tp3451
(lp3452
(I49
I4
I0
S'few'
p3453
tp3454
a(I93
I0
I0
S'local'
p3455
tp3456
a(I226
I1
F0.625
S'easy'
p3457
tp3458
a(I328
I8
F1.0
S'good'
p3459
tp3460
a(I366
I3
F0.5
S'clear'
p3461
tp3462
a(I464
I5
F0.5
S'possible'
p3463
tp3464
a(I465
I32
F0.5
S'clearer'
p3465
tp3466
a(I543
I3
I0
S'few'
p3467
tp3468
a(I555
I1
F1.0
S'good'
p3469
tp3470
a(I555
I1
F-0.25
S'dropped'
p3471
tp3472
a(I613
I7
F-0.25
S'dropped'
p3473
tp3474
a(I748
I22
F0.5
S'clear'
p3475
tp3476
a(I748
I24
I0
S'most'
p3477
tp3478
a(I748
I24
F1.0
S'good'
p3479
tp3480
a(I890
I1
F-0.625
S'free'
p3481
tp3482
a(I1027
I13
F0.5
S'clear'
p3483
tp3484
as(S'micro'
p3485
tp3486
(lp3487
(I45
I9
F0.375
g1322
tp3488
a(I49
I6
F0.125
g1448
tp3489
a(I403
I3
I0
S'standard'
p3490
tp3491
a(I539
I2
F0.125
g1450
tp3492
a(I573
I4
F0.375
g1334
tp3493
a(I593
I17
F-0.5
g1336
tp3494
a(I1176
I16
I0
g1348
tp3495
as(S'lack'
p3496
S'of'
p3497
S'apps'
p3498
tp3499
(lp3500
(I164
I11
I0
S'most'
p3501
tp3502
a(I214
I2
F0.875
S'music'
p3503
tp3504
a(I214
I2
I0
S'sky'
p3505
tp3506
a(I214
I2
F0.5
S'drive'
p3507
tp3508
a(I380
I4
F0.375
S'new'
p3509
tp3510
a(I384
I2
F0.375
S'new'
p3511
tp3512
a(I468
I9
I0
S'many'
p3513
tp3514
a(I468
I9
F0.125
S'popular'
p3515
tp3516
a(I500
I0
I0
S'useful'
p3517
tp3518
a(I500
I0
F-0.625
S'free'
p3519
tp3520
a(I641
I6
F-0.625
S'other'
p3521
tp3522
a(I869
I8
F0.75
S'give'
p3523
tp3524
a(I985
I78
I0
S'specific'
p3525
tp3526
a(I989
I1
F0.25
S'effective'
p3527
tp3528
a(I1224
I6
I0
S'only'
p3529
tp3530
a(I1224
I6
F-0.875
S'negative'
p3531
tp3532
a(I1224
I6
F-0.625
S'free'
p3533
tp3534
as(S'works'
p3535
S'great'
p3536
tp3537
(lp3538
(I142
I17
I0
g3379
tp3539
a(I205
I0
I0
g3381
tp3540
a(I226
I1
I0
g3383
tp3541
a(I376
I1
F1.0
g3385
tp3542
a(I503
I8
I0
g3387
tp3543
a(I549
I4
I0
g3389
tp3544
a(I582
I0
I0
g3391
tp3545
a(I591
I0
I0
g3393
tp3546
a(I684
I8
I0
g3395
tp3547
a(I740
I9
I0
g3397
tp3548
a(I843
I8
I0
g3399
tp3549
a(I882
I0
I0
g3401
tp3550
a(I888
I1
I0
g3403
tp3551
a(I931
I11
I0
g3407
tp3552
a(I1030
I0
I0
g3409
tp3553
a(I1176
I3
I0
g3411
tp3554
a(I1213
I0
I0
g3413
tp3555
a(I1224
I4
I0
g3415
tp3556
as(S'front'
p3557
tp3558
(lp3559
(I46
I39
F0.375
g1843
tp3560
a(I89
I4
I0
g1845
tp3561
a(I734
I1
I0
g2428
tp3562
a(I734
I1
F0.5
g2430
tp3563
as(S'parental'
p3564
S'controls'
p3565
tp3566
(lp3567
(I551
I5
I0
S'parental'
p3568
tp3569
a(I903
I3
I0
S'parental'
p3570
tp3571
a(I903
I10
F1.0
S'better'
p3572
tp3573
a(I903
I10
I0
S'parental'
p3574
tp3575
as(S'able'
p3576
S'to'
p3577
S'use'
p3578
tp3579
(lp3580
(I802
I9
I0
g259
tp3581
a(I1010
I29
F0.375
S'available'
p3582
tp3583
as(S'pretty'
p3584
tp3585
(lp3586
(I1016
I2
F0.625
S'easy'
p3587
tp3588
as(S'tech'
p3589
S'savvy'
p3590
tp3591
(lp3592
(I590
I6
I0
S'tech'
p3593
tp3594
a(I687
I0
I0
S'tech'
p3595
tp3596
a(I1043
I3
F0.5
S'true'
p3597
tp3598
a(I1043
I3
I0
S'tech'
p3599
tp3600
a(I1211
I0
I0
S'tech'
p3601
tp3602
as(S'time'
p3603
tp3604
(lp3605
(I45
I4
F0.125
S'first'
p3606
tp3607
a(I49
I12
F-0.5
S'long'
p3608
tp3609
a(I50
I0
I0
S'next'
p3610
tp3611
a(I77
I0
F0.125
S'first'
p3612
tp3613
a(I89
I6
F0.125
S'first'
p3614
tp3615
a(I114
I24
F1.0
S'better'
p3616
tp3617
a(I114
I33
F-0.5
S'long'
p3618
tp3619
a(I188
I16
I0
S'very'
p3620
tp3621
a(I188
I16
F0.125
S'first'
p3622
tp3623
a(I188
I18
I0
S'same'
p3624
tp3625
a(I200
I4
F-0.875
S'hard'
p3626
tp3627
a(I200
I4
F0.375
S'much'
p3628
tp3629
a(I209
I2
F-0.125
S'slow'
p3630
tp3631
a(I231
I0
F0.125
S'rite'
p3632
tp3633
a(I242
I0
I0
S'very'
p3634
tp3635
a(I242
I0
F0.125
S'first'
p3636
tp3637
a(I245
I3
I0
S'more'
p3638
tp3639
a(I287
I2
F0.125
S'first'
p3640
tp3641
a(I322
I3
F0.125
S'last'
p3642
tp3643
a(I334
I1
F0.625
S'manageable'
p3644
tp3645
a(I334
I1
I0
S'considerable'
p3646
tp3647
a(I378
I3
I0
S'android'
p3648
tp3649
a(I452
I0
I0
S'same'
p3650
tp3651
a(I452
I0
F0.5
S'primary'
p3652
tp3653
a(I500
I1
F0.5
S'second'
p3654
tp3655
a(I500
I1
F-0.875
S'load'
p3656
tp3657
a(I504
I10
F0.125
S'last'
p3658
tp3659
a(I547
I0
I0
S'faster'
p3660
tp3661
a(I578
I2
F-0.5
S'long'
p3662
tp3663
a(I594
I0
F-0.375
S'black'
p3664
tp3665
a(I637
I1
F-0.5
S'long'
p3666
tp3667
a(I659
I40
F-0.125
S'mine'
p3668
tp3669
a(I681
I4
F-0.75
S'short'
p3670
tp3671
a(I739
I3
F-0.75
S'single'
p3672
tp3673
a(I744
I3
I0
S'most'
p3674
tp3675
a(I748
I1
F-0.5
S'long'
p3676
tp3677
a(I764
I9
I0
S'website'
p3678
tp3679
a(I805
I0
F-0.5
S'long'
p3680
tp3681
a(I818
I11
I0
S'entire'
p3682
tp3683
a(I822
I2
I0
S'latest'
p3684
tp3685
a(I922
I2
I0
S'big'
p3686
tp3687
a(I928
I6
F0.125
S'first'
p3688
tp3689
a(I986
I1
I0
S'great'
p3690
tp3691
a(I986
I1
F0.125
S'first'
p3692
tp3693
a(I1014
I1
F-0.75
S'little'
p3694
tp3695
a(I1032
I3
F0.125
S'first'
p3696
tp3697
a(I1032
I3
F-0.75
S'difficult'
p3698
tp3699
a(I1058
I0
F0.125
S'first'
p3700
tp3701
a(I1104
I0
F0.625
S'right'
p3702
tp3703
a(I1110
I0
F-0.5
S'long'
p3704
tp3705
a(I1192
I1
I0
S'great'
p3706
tp3707
a(I1205
I2
I0
S'later'
p3708
tp3709
a(I1206
I0
F0.125
S'first'
p3710
tp3711
a(I1237
I3
F-0.875
S'hard'
p3712
tp3713
a(I1246
I0
I0
S'same'
p3714
tp3715
a(I1246
I23
I0
S'same'
p3716
tp3717
as(S'find'
p3718
tp3719
(lp3720
(I199
I16
F0.625
S'easier'
p3721
tp3722
a(I278
I1
I0
S'great'
p3723
tp3724
a(I1180
I25
F0.125
S'able'
p3725
tp3726
as(S'wall'
p3727
S'charger'
p3728
tp3729
(lp3730
(I1022
I0
I0
S'standard'
p3731
tp3732
as(S'months'
p3733
tp3734
(lp3735
(I28
I4
I0
S'few'
p3736
tp3737
a(I234
I4
F-0.25
S'past'
p3738
tp3739
a(I395
I26
I0
S'many'
p3740
tp3741
a(I444
I15
I0
S'many'
p3742
tp3743
a(I521
I1
I0
S'few'
p3744
tp3745
a(I545
I0
I0
S'few'
p3746
tp3747
a(I565
I6
F0.125
S'able'
p3748
tp3749
a(I594
I3
F0.375
S'acting'
p3750
tp3751
a(I640
I6
I0
S'next'
p3752
tp3753
a(I640
I6
I0
S'few'
p3754
tp3755
a(I744
I3
I0
S'least'
p3756
tp3757
a(I773
I0
F0.875
S'happy'
p3758
tp3759
a(I780
I3
I0
S'slower'
p3760
tp3761
a(I780
I3
I0
S'slower'
p3762
tp3763
a(I834
I2
I0
S'few'
p3764
tp3765
a(I834
I4
I0
S'few'
p3766
tp3767
a(I869
I2
I0
S'few'
p3768
tp3769
a(I869
I3
F-0.25
S'past'
p3770
tp3771
a(I869
I3
I0
S'few'
p3772
tp3773
a(I869
I6
I0
S'few'
p3774
tp3775
a(I911
I1
F1.0
S'good'
p3776
tp3777
a(I911
I1
F0.125
S'first'
p3778
tp3779
a(I1152
I0
F0.125
S'first'
p3780
tp3781
a(I1152
I1
F0.75
S'worth'
p3782
tp3783
a(I1180
I33
F-0.25
S'past'
p3784
tp3785
a(I1190
I1
I0
S'least'
p3786
tp3787
a(I1196
I3
F0.125
S'first'
p3788
tp3789
a(I1212
I1
I0
S'few'
p3790
tp3791
a(I1228
I4
I0
S'few'
p3792
tp3793
a(I1228
I4
I0
S'later'
p3794
tp3795
as(S'deal'
p3796
tp3797
(lp3798
(I14
I5
F1.0
S'best'
p3799
tp3800
a(I39
I0
I0
S'great'
p3801
tp3802
a(I44
I2
I0
S'big'
p3803
tp3804
a(I49
I15
F1.0
S'good'
p3805
tp3806
a(I49
I15
F1.0
S'better'
p3807
tp3808
a(I68
I1
I0
S'big'
p3809
tp3810
a(I95
I0
F1.0
S'good'
p3811
tp3812
a(I113
I1
F0.25
S'sweet'
p3813
tp3814
a(I114
I7
I0
S'big'
p3815
tp3816
a(I114
I28
I0
S'big'
p3817
tp3818
a(I124
I5
F-0.5
S'open'
p3819
tp3820
a(I124
I5
F1.0
S'good'
p3821
tp3822
a(I132
I2
F1.0
S'good'
p3823
tp3824
a(I167
I1
I0
S'great'
p3825
tp3826
a(I175
I0
F1.0
S'best'
p3827
tp3828
a(I204
I10
F1.0
S'good'
p3829
tp3830
a(I208
I1
I0
S'great'
p3831
tp3832
a(I221
I1
I0
S'big'
p3833
tp3834
a(I221
I8
I0
S'same'
p3835
tp3836
a(I241
I6
I0
S'big'
p3837
tp3838
a(I322
I9
F-0.625
S'bad'
p3839
tp3840
a(I327
I5
I0
S'big'
p3841
tp3842
a(I439
I0
F1.0
S'better'
p3843
tp3844
a(I451
I5
I0
S'big'
p3845
tp3846
a(I465
I1
F1.0
S'best'
p3847
tp3848
a(I524
I9
I0
S'big'
p3849
tp3850
a(I537
I13
I0
S'big'
p3851
tp3852
a(I561
I0
I0
S'great'
p3853
tp3854
a(I613
I8
I0
S'android'
p3855
tp3856
a(I613
I8
F-0.625
S'bad'
p3857
tp3858
a(I657
I0
F0.875
S'happier'
p3859
tp3860
a(I667
I2
F1.0
S'good'
p3861
tp3862
a(I701
I2
I0
S'big'
p3863
tp3864
a(I769
I5
F-0.25
S'cheaper'
p3865
tp3866
a(I805
I22
I0
S'big'
p3867
tp3868
a(I822
I0
I0
S'great'
p3869
tp3870
a(I869
I6
F1.0
S'good'
p3871
tp3872
a(I891
I0
F0.125
S'last'
p3873
tp3874
a(I902
I1
I0
S'great'
p3875
tp3876
a(I918
I5
I0
S'big'
p3877
tp3878
a(I992
I4
F-0.625
S'glad'
p3879
tp3880
a(I1019
I0
F1.0
S'good'
p3881
tp3882
a(I1029
I2
F1.0
S'good'
p3883
tp3884
a(I1046
I6
I0
S'great'
p3885
tp3886
a(I1092
I7
I0
S'great'
p3887
tp3888
a(I1157
I16
I0
S'big'
p3889
tp3890
a(I1166
I4
F1.0
S'good'
p3891
tp3892
a(I1200
I0
F1.0
S'best'
p3893
tp3894
a(I1224
I3
I0
S'big'
p3895
tp3896
a(I1235
I5
F1.0
S'best'
p3897
tp3898
as(S'as'
p3899
S'many'
p3900
S'apps'
p3901
tp3902
(lp3903
(I92
I8
F-0.5
S'open'
p3904
tp3905
a(I124
I4
I0
S'many'
p3906
tp3907
a(I323
I0
I0
S'many'
p3908
tp3909
a(I328
I3
I0
S'many'
p3910
tp3911
a(I376
I1
F-0.625
S'other'
p3912
tp3913
a(I384
I1
I0
S'many'
p3914
tp3915
a(I384
I1
I0
S'android'
p3916
tp3917
a(I468
I9
I0
g3513
tp3918
a(I468
I9
F0.125
g3515
tp3919
a(I510
I5
I0
S'many'
p3920
tp3921
a(I510
I5
I0
S'android'
p3922
tp3923
a(I573
I8
I0
S'many'
p3924
tp3925
a(I573
I8
I0
S'android'
p3926
tp3927
a(I573
I8
I0
S'common'
p3928
tp3929
a(I677
I10
I0
S'many'
p3930
tp3931
a(I677
I10
F-0.625
S'free'
p3932
tp3933
a(I680
I4
I0
S'many'
p3934
tp3935
a(I689
I15
I0
S'many'
p3936
tp3937
a(I693
I1
F0.125
S'enough'
p3938
tp3939
a(I693
I1
I0
S'many'
p3940
tp3941
a(I739
I14
I0
S'many'
p3942
tp3943
a(I842
I0
I0
S'many'
p3944
tp3945
a(I842
I0
F0.875
S'nice'
p3946
tp3947
a(I895
I7
I0
S'many'
p3948
tp3949
a(I895
I7
F1.0
S'good'
p3950
tp3951
a(I985
I11
I0
S'many'
p3952
tp3953
a(I985
I11
F0.875
S'important'
p3954
tp3955
a(I1111
I10
I0
S'many'
p3956
tp3957
a(I1128
I0
I0
S'many'
p3958
tp3959
a(I1128
I0
I0
S'most'
p3960
tp3961
a(I1128
I0
F0.125
S'popular'
p3962
tp3963
a(I1150
I0
I0
S'many'
p3964
tp3965
a(I1150
I0
I0
S'android'
p3966
tp3967
as(S'text'
p3968
tp3969
(lp3970
(I285
I1
I0
S'internet'
p3971
tp3972
a(I504
I66
F-0.25
S'white'
p3973
tp3974
a(I504
I66
F-0.375
S'top'
p3975
tp3976
a(I565
I10
F0.125
S'first'
p3977
tp3978
a(I573
I8
F-0.5
S'regular'
p3979
tp3980
a(I592
I2
F0.375
S'much'
p3981
tp3982
a(I1084
I0
F-0.5
S'unlimited'
p3983
tp3984
a(I1092
I4
F0.625
S'easy'
p3985
tp3986
a(I1191
I26
F0.5
S'clear'
p3987
tp3988
as(S'pixel'
p3989
S'density'
p3990
tp3991
(lp3992
(I112
I3
I0
S'high'
p3993
tp3994
a(I114
I9
F-0.25
S'low'
p3995
tp3996
a(I1191
I26
F-0.25
S'low'
p3997
tp3998
as(S'plan'
p3999
tp4000
(lp4001
(I13
I1
F0.375
g2513
tp4002
a(I146
I1
F0.5
S'expensive'
p4003
tp4004
a(I312
I6
I0
S'great'
p4005
tp4006
a(I314
I0
I0
S'great'
p4007
tp4008
a(I377
I1
F-0.75
S'little'
p4009
tp4010
a(I377
I2
F1.0
S'best'
p4011
tp4012
a(I384
I4
F0.75
g2516
tp4013
a(I476
I7
F-0.5
S'unlimited'
p4014
tp4015
a(I478
I0
F0.375
S'available'
p4016
tp4017
a(I515
I3
I0
S'monthly'
p4018
tp4019
a(I515
I3
I0
S'old'
p4020
tp4021
a(I542
I0
I0
S'monthly'
p4022
tp4023
a(I595
I1
F-0.25
S'cheaper'
p4024
tp4025
a(I637
I13
I0
S'more'
p4026
tp4027
a(I659
I70
F-0.25
S'low'
p4028
tp4029
a(I701
I8
I0
S'post-paid'
p4030
tp4031
a(I701
I13
F0.375
g2521
tp4032
a(I701
I14
I0
S'website'
p4033
tp4034
a(I701
I16
F0.375
g2523
tp4035
a(I701
I16
F0.375
g2525
tp4036
a(I735
I1
F0.625
g2529
tp4037
a(I797
I0
I0
S'monthly'
p4038
tp4039
a(I889
I3
F0.625
S'straight'
p4040
tp4041
a(I906
I4
I0
S'monthly'
p4042
tp4043
a(I1027
I17
I0
S'monthly'
p4044
tp4045
a(I1135
I3
F1.0
S'good'
p4046
tp4047
a(I1196
I1
I0
g2536
tp4048
a(I1242
I1
F1.0
S'better'
p4049
tp4050
as(S'screen'
p4051
tp4052
(lp4053
(I1
I2
F0.125
S'first'
p4054
tp4055
a(I1
I2
F-0.625
S'light'
p4056
tp4057
a(I1
I3
F0.5
S'touch'
p4058
tp4059
a(I30
I3
F0.125
S'amazon'
p4060
tp4061
a(I33
I0
F0.625
S'washed'
p4062
tp4063
a(I46
I4
F0.625
S'easier'
p4064
tp4065
a(I49
I9
F0.25
S'main'
p4066
tp4067
a(I91
I2
F0.25
S'responsive'
p4068
tp4069
a(I91
I7
I0
S'large'
p4070
tp4071
a(I114
I7
F0.25
S'receptive'
p4072
tp4073
a(I123
I1
F0.25
S'responsive'
p4074
tp4075
a(I133
I4
F0.25
S'larger'
p4076
tp4077
a(I133
I23
F0.375
S'reflective'
p4078
tp4079
a(I142
I8
F0.25
S'bigger'
p4080
tp4081
a(I142
I8
F0.5
S'clear'
p4082
tp4083
a(I142
I8
I0
S'great'
p4084
tp4085
a(I158
I5
F-0.375
S'smaller'
p4086
tp4087
a(I158
I5
F-0.375
S'small'
p4088
tp4089
a(I174
I16
F-0.625
S'green'
p4090
tp4091
a(I199
I7
F0.25
S'bigger'
p4092
tp4093
a(I230
I8
F-0.125
S'front'
p4094
tp4095
a(I232
I1
F0.5
S'touch'
p4096
tp4097
a(I264
I1
F-0.5
S'long'
p4098
tp4099
a(I280
I3
F0.25
S'main'
p4100
tp4101
a(I280
I15
F1.0
S'good'
p4102
tp4103
a(I309
I2
I0
S'different'
p4104
tp4105
a(I312
I4
F0.25
S'responsive'
p4106
tp4107
a(I342
I2
F0.5
S'touch'
p4108
tp4109
a(I342
I2
F0.25
S'responsive'
p4110
tp4111
a(I351
I1
F0.5
S'second'
p4112
tp4113
a(I359
I0
F0.5
S'touch'
p4114
tp4115
a(I368
I0
F0.75
S'due'
p4116
tp4117
a(I373
I1
I0
S'high'
p4118
tp4119
a(I401
I2
F0.875
S'nice'
p4120
tp4121
a(I403
I1
F-0.75
S'bright'
p4122
tp4123
a(I404
I27
F0.25
S'responsive'
p4124
tp4125
a(I413
I0
F0.5
S'clear'
p4126
tp4127
a(I424
I1
F0.25
S'sharp'
p4128
tp4129
a(I444
I6
F-0.75
S'bright'
p4130
tp4131
a(I462
I4
F-0.375
S'black'
p4132
tp4133
a(I464
I6
F0.75
S'beautiful'
p4134
tp4135
a(I465
I19
I0
S'full'
p4136
tp4137
a(I465
I19
F1.0
S'good'
p4138
tp4139
a(I465
I20
F-0.75
S'bright'
p4140
tp4141
a(I465
I20
I0
S'high'
p4142
tp4143
a(I465
I27
F0.5
S'glossy'
p4144
tp4145
a(I468
I9
F-0.5
S'less'
p4146
tp4147
a(I468
I9
F0.5
S'touch'
p4148
tp4149
a(I485
I2
F0.25
S'main'
p4150
tp4151
a(I486
I5
F0.5
S'touch'
p4152
tp4153
a(I495
I5
I0
S'most'
p4154
tp4155
a(I495
I5
F0.125
S'impressive'
p4156
tp4157
a(I495
I5
I0
S'fluid'
p4158
tp4159
a(I495
I5
I0
S'quick'
p4160
tp4161
a(I495
I5
F0.5
S'touch'
p4162
tp4163
a(I497
I1
F0.875
S'nice'
p4164
tp4165
a(I504
I11
F-0.375
S'top'
p4166
tp4167
a(I504
I46
I0
S'more'
p4168
tp4169
a(I504
I56
F-0.75
S'bright'
p4170
tp4171
a(I510
I12
I0
S'full'
p4172
tp4173
a(I559
I4
F0.875
S'nice'
p4174
tp4175
a(I559
I5
F-0.75
S'bright'
p4176
tp4177
a(I565
I7
F-0.375
S'smaller'
p4178
tp4179
a(I565
I21
F0.5
S'touch'
p4180
tp4181
a(I566
I0
F0.5
S'touch'
p4182
tp4183
a(I592
I3
I0
S'great'
p4184
tp4185
a(I624
I6
F-0.75
S'bright'
p4186
tp4187
a(I624
I6
F0.5
S'clear'
p4188
tp4189
a(I641
I13
F0.875
S'nice'
p4190
tp4191
a(I659
I54
F0.5
S'clear'
p4192
tp4193
a(I688
I1
F0.625
S'easy'
p4194
tp4195
a(I689
I4
F-0.625
S'light'
p4196
tp4197
a(I689
I4
F-0.75
S'bright'
p4198
tp4199
a(I711
I4
F0.25
S'responsive'
p4200
tp4201
a(I717
I8
F0.25
S'sharp'
p4202
tp4203
a(I717
I8
I0
S'real'
p4204
tp4205
a(I729
I2
I0
S'real'
p4206
tp4207
a(I740
I0
I0
S'great'
p4208
tp4209
a(I740
I0
I0
S'wide'
p4210
tp4211
a(I764
I2
I0
S'big'
p4212
tp4213
a(I764
I2
F0.5
S'clear'
p4214
tp4215
a(I764
I2
F0.625
S'pleasant'
p4216
tp4217
a(I782
I1
I0
S'most'
p4218
tp4219
a(I782
I1
F0.875
S'nice'
p4220
tp4221
a(I785
I14
F0.625
S'easy'
p4222
tp4223
a(I812
I15
F-0.625
S'light'
p4224
tp4225
a(I846
I1
F0.125
S'low-resolution'
p4226
tp4227
a(I868
I1
F0.25
S'main'
p4228
tp4229
a(I868
I1
F0.5
S'second'
p4230
tp4231
a(I868
I2
F0.25
S'main'
p4232
tp4233
a(I868
I3
F-0.625
S'other'
p4234
tp4235
a(I868
I4
F0.25
S'main'
p4236
tp4237
a(I869
I2
F0.875
S'happy'
p4238
tp4239
a(I870
I2
I0
S'great'
p4240
tp4241
a(I886
I3
F0.875
S'nice'
p4242
tp4243
a(I930
I1
F1.0
S'good'
p4244
tp4245
a(I954
I1
F1.0
S'good'
p4246
tp4247
a(I977
I2
F0.5
S'touch'
p4248
tp4249
a(I982
I7
F0.875
S'nice'
p4250
tp4251
a(I989
I4
F-0.5
S'less'
p4252
tp4253
a(I1007
I2
I0
S'great'
p4254
tp4255
a(I1027
I9
F0.875
S'nice'
p4256
tp4257
a(I1039
I3
F-0.375
S'black'
p4258
tp4259
a(I1046
I2
F0.125
S'first'
p4260
tp4261
a(I1046
I2
I0
S'blue'
p4262
tp4263
a(I1072
I7
F1.0
S'good'
p4264
tp4265
a(I1074
I2
F0.25
S'larger'
p4266
tp4267
a(I1074
I2
F0.875
S'nice'
p4268
tp4269
a(I1074
I2
I0
S'more'
p4270
tp4271
a(I1074
I3
I0
S'large'
p4272
tp4273
a(I1074
I3
F0.625
S'manageable'
p4274
tp4275
a(I1087
I5
F0.5
S'clear'
p4276
tp4277
a(I1119
I3
I0
S'blue'
p4278
tp4279
a(I1168
I1
F0.5
S'so-so'
p4280
tp4281
a(I1191
I27
F-0.875
S'hard'
p4282
tp4283
a(I1219
I15
F1.0
S'good'
p4284
tp4285
a(I1249
I0
F1.0
S'good'
p4286
tp4287
a(I1249
I0
I0
S'sensitive'
p4288
tp4289
as(S'everything'
p4290
tp4291
(lp4292
(I119
I1
F0.625
S'easier'
p4293
tp4294
a(I241
I3
I0
S'great'
p4295
tp4296
a(I283
I0
I0
S'more'
p4297
tp4298
a(I299
I1
F0.625
S'easy'
p4299
tp4300
a(I537
I9
I0
S'fluid'
p4301
tp4302
a(I846
I4
I0
S'most'
p4303
tp4304
a(I880
I1
F0.125
S'able'
p4305
tp4306
a(I932
I2
F0.625
S'easy'
p4307
tp4308
a(I988
I6
F0.875
S'happy'
p4309
tp4310
a(I1013
I3
F1.0
S'better'
p4311
tp4312
a(I1032
I1
F0.625
S'easy'
p4313
tp4314
a(I1079
I0
I0
S'more'
p4315
tp4316
a(I1156
I0
F0.625
S'perfect'
p4317
tp4318
a(I1182
I0
I0
S'download'
p4319
tp4320
a(I1207
I0
I0
S'more'
p4321
tp4322
a(I1208
I3
F1.0
S'better'
p4323
tp4324
a(I1221
I0
F-0.375
S'smooth'
p4325
tp4326
a(I1237
I5
I0
S'same'
p4327
tp4328
as(S'camera'
p4329
tp4330
(lp4331
(I24
I5
F-0.625
S'average'
p4332
tp4333
a(I29
I3
I0
S'real'
p4334
tp4335
a(I45
I2
F1.0
S'good'
p4336
tp4337
a(I45
I2
F0.625
S'easy'
p4338
tp4339
a(I71
I2
F-0.625
S'average'
p4340
tp4341
a(I89
I5
I0
S'great'
p4342
tp4343
a(I96
I10
F-0.625
S'average'
p4344
tp4345
a(I111
I3
F-0.125
g992
tp4346
a(I111
I3
F-0.625
g994
tp4347
a(I126
I8
I0
S'great'
p4348
tp4349
a(I136
I1
F1.0
S'good'
p4350
tp4351
a(I159
I0
F1.0
S'good'
p4352
tp4353
a(I159
I0
F0.875
S'nice'
p4354
tp4355
a(I194
I8
F1.0
S'good'
p4356
tp4357
a(I199
I12
F0.125
S'first'
p4358
tp4359
a(I199
I12
F0.5
S'second'
p4360
tp4361
a(I204
I6
I0
S'real'
p4362
tp4363
a(I226
I2
I0
g2404
tp4364
a(I243
I0
I0
S'great'
p4365
tp4366
a(I247
I2
F-0.5
g996
tp4367
a(I259
I1
I0
g998
tp4368
a(I290
I0
I0
S'crystal'
p4369
tp4370
a(I290
I0
F0.5
S'clear'
p4371
tp4372
a(I311
I0
F1.0
S'good'
p4373
tp4374
a(I360
I0
F1.0
S'better'
p4375
tp4376
a(I373
I1
I0
S'great'
p4377
tp4378
a(I380
I0
F0.125
S'dedicated'
p4379
tp4380
a(I384
I2
F1.0
S'good'
p4381
tp4382
a(I384
I2
F-0.5
S'sure'
p4383
tp4384
a(I401
I16
F1.0
S'best'
p4385
tp4386
a(I403
I2
F-0.625
S'average'
p4387
tp4388
a(I411
I9
F1.0
S'good'
p4389
tp4390
a(I427
I1
F-0.5
S'poor'
p4391
tp4392
a(I432
I1
F-0.5
S'try'
p4393
tp4394
a(I461
I5
I0
S'great'
p4395
tp4396
a(I461
I5
I0
S'real'
p4397
tp4398
a(I465
I48
F0.875
S'nice'
p4399
tp4400
a(I465
I49
I0
S'physical'
p4401
tp4402
a(I465
I54
I0
S'basic'
p4403
tp4404
a(I470
I4
I0
S'basic'
p4405
tp4406
a(I510
I13
I0
S'basic'
p4407
tp4408
a(I565
I2
I0
S'great'
p4409
tp4410
a(I574
I1
I0
g2408
tp4411
a(I589
I0
F-0.75
S'difficult'
p4412
tp4413
a(I609
I1
I0
S'great'
p4414
tp4415
a(I624
I5
I0
g1002
tp4416
a(I636
I0
F1.0
S'good'
p4417
tp4418
a(I682
I5
I0
S'great'
p4419
tp4420
a(I684
I17
F1.0
g2410
tp4421
a(I699
I0
F0.875
S'nice'
p4422
tp4423
a(I703
I1
F-0.375
S'simple'
p4424
tp4425
a(I739
I6
F1.0
S'best'
p4426
tp4427
a(I739
I14
F1.0
S'better'
p4428
tp4429
a(I740
I7
F0.125
S'dedicated'
p4430
tp4431
a(I748
I3
F1.0
S'better'
p4432
tp4433
a(I748
I5
F-0.125
S'overall'
p4434
tp4435
a(I776
I1
I0
S'great'
p4436
tp4437
a(I783
I7
F-0.625
S'average'
p4438
tp4439
a(I805
I13
I0
S'real'
p4440
tp4441
a(I818
I3
F1.0
S'good'
p4442
tp4443
a(I888
I3
F1.0
S'good'
p4444
tp4445
a(I904
I5
I0
S'great'
p4446
tp4447
a(I929
I3
F0.875
S'nice'
p4448
tp4449
a(I977
I2
F1.0
S'good'
p4450
tp4451
a(I988
I25
F-0.625
S'average'
p4452
tp4453
a(I1009
I0
I0
S'basic'
p4454
tp4455
a(I1010
I2
I0
S'only'
p4456
tp4457
a(I1010
I2
F1.0
S'better'
p4458
tp4459
a(I1023
I5
F1.0
S'good'
p4460
tp4461
a(I1048
I1
F1.0
S'good'
p4462
tp4463
a(I1087
I9
I0
S'great'
p4464
tp4465
a(I1087
I11
F-0.25
S'disappointing'
p4466
tp4467
a(I1123
I8
F1.0
S'good'
p4468
tp4469
a(I1151
I5
F1.0
S'best'
p4470
tp4471
a(I1157
I7
F1.0
S'good'
p4472
tp4473
a(I1157
I8
F1.0
S'better'
p4474
tp4475
a(I1157
I16
F0.375
g2412
tp4476
a(I1171
I1
F1.0
S'good'
p4477
tp4478
a(I1180
I45
F1.0
S'better'
p4479
tp4480
a(I1197
I0
I0
g1006
tp4481
a(I1197
I0
F-0.375
g1008
tp4482
a(I1211
I1
F-0.875
S'hard'
p4483
tp4484
a(I1219
I11
F0.625
g2416
tp4485
a(I1239
I5
F0.125
g1010
tp4486
a(I1241
I1
F0.625
S'perfect'
p4487
tp4488
a(I1244
I2
F0.625
g1012
tp4489
a(I1249
I1
F1.0
S'good'
p4490
tp4491
as(S'using'
p4492
tp4493
(lp4494
(I266
I4
I0
S'navigate'
p4495
tp4496
as(S'need'
p4497
tp4498
(lp4499
(I303
I2
F-0.25
S'google'
p4500
tp4501
a(I591
I1
I0
S'more'
p4502
tp4503
as(S'mobile'
p4504
tp4505
(lp4506
(I24
I3
F-0.25
S'cheaper'
p4507
tp4508
a(I237
I0
F1.0
S'good'
p4509
tp4510
a(I301
I1
I0
S'own'
p4511
tp4512
a(I697
I0
F0.375
S'new'
p4513
tp4514
a(I1236
I5
I0
S'great'
p4515
tp4516
as(S'kindle'
p4517
S'fire'
p4518
tp4519
(lp4520
(I114
I2
I0
S'kindle'
p4521
tp4522
as(S'works'
p4523
tp4524
(lp4525
(I142
I17
I0
g3379
tp4526
a(I143
I0
F1.0
S'good'
p4527
tp4528
a(I205
I0
I0
g3381
tp4529
a(I221
I3
F1.0
S'good'
p4530
tp4531
a(I226
I1
I0
g3383
tp4532
a(I257
I8
F1.0
S'better'
p4533
tp4534
a(I284
I10
F1.0
S'best'
p4535
tp4536
a(I352
I2
F0.875
S'happy'
p4537
tp4538
a(I376
I1
F1.0
g3385
tp4539
a(I465
I13
F1.0
S'best'
p4540
tp4541
a(I503
I8
I0
g3387
tp4542
a(I549
I4
I0
g3389
tp4543
a(I582
I0
I0
g3391
tp4544
a(I591
I0
I0
g3393
tp4545
a(I684
I8
I0
g3395
tp4546
a(I721
I1
F1.0
S'better'
p4547
tp4548
a(I730
I2
I0
S'android'
p4549
tp4550
a(I740
I9
I0
g3397
tp4551
a(I843
I8
I0
g3399
tp4552
a(I882
I0
I0
g3401
tp4553
a(I888
I1
I0
g3403
tp4554
a(I931
I11
I0
g3407
tp4555
a(I1030
I0
I0
g3409
tp4556
a(I1050
I1
I0
S'same'
p4557
tp4558
a(I1118
I1
F-0.5
S'international'
p4559
tp4560
a(I1176
I3
I0
g3411
tp4561
a(I1213
I0
I0
g3413
tp4562
a(I1224
I4
I0
g3415
tp4563
as(S'ease'
p4564
S'of'
p4565
S'use'
p4566
tp4567
(lp4568
(I528
I1
F0.25
S'familiar'
p4569
tp4570
a(I1010
I29
F0.375
g3582
tp4571
a(I1139
I10
F-0.5
S'long'
p4572
tp4573
as(S'think'
p4574
tp4575
(lp4576
(I717
I9
F-0.125
S'cant'
p4577
tp4578
as(S'apps'
p4579
tp4580
(lp4581
(I4
I4
I0
S'few'
p4582
tp4583
a(I14
I2
I0
S'few'
p4584
tp4585
a(I21
I7
F0.375
S'much'
p4586
tp4587
a(I30
I3
F-0.75
S'sufficient'
p4588
tp4589
a(I32
I0
F0.125
S'able'
p4590
tp4591
a(I37
I1
F0.375
S'available'
p4592
tp4593
a(I37
I1
F-0.625
S'free'
p4594
tp4595
a(I45
I5
F0.125
S'plenty'
p4596
tp4597
a(I45
I5
F0.875
S'music'
p4598
tp4599
a(I45
I5
F0.375
S'available'
p4600
tp4601
a(I46
I20
F0.125
S'first'
p4602
tp4603
a(I46
I25
I0
S'android'
p4604
tp4605
a(I57
I1
F0.125
S'stockpile'
p4606
tp4607
a(I59
I1
F0.125
S'able'
p4608
tp4609
a(I59
I1
I0
S'same'
p4610
tp4611
a(I59
I2
F0.375
S'similar'
p4612
tp4613
a(I59
I2
I0
S'android'
p4614
tp4615
a(I59
I2
I0
S'same'
p4616
tp4617
a(I60
I0
F-0.625
S'other'
p4618
tp4619
a(I61
I2
F0.375
S'available'
p4620
tp4621
a(I61
I2
F-0.625
S'free'
p4622
tp4623
a(I69
I0
I0
S'download'
p4624
tp4625
a(I80
I2
I0
S'great'
p4626
tp4627
a(I80
I2
I0
S'fewer'
p4628
tp4629
a(I80
I4
I0
S'cool'
p4630
tp4631
a(I86
I0
F-0.125
S'front'
p4632
tp4633
a(I87
I0
F0.125
S'popular'
p4634
tp4635
a(I91
I1
I0
S'few'
p4636
tp4637
a(I91
I1
F-0.625
S'other'
p4638
tp4639
a(I92
I8
F-0.5
g3904
tp4640
a(I118
I12
I0
S'basic'
p4641
tp4642
a(I124
I4
I0
g3906
tp4643
a(I133
I6
I0
S'few'
p4644
tp4645
a(I133
I6
F0.125
S'key'
p4646
tp4647
a(I133
I24
I0
S'few'
p4648
tp4649
a(I133
I24
F0.125
S'key'
p4650
tp4651
a(I136
I3
F0.375
S'new'
p4652
tp4653
a(I140
I1
F-0.75
S'comfortable'
p4654
tp4655
a(I164
I11
I0
g3501
tp4656
a(I171
I6
F1.0
S'good'
p4657
tp4658
a(I171
I16
I0
S'basic'
p4659
tp4660
a(I185
I1
I0
S'many'
p4661
tp4662
a(I195
I8
F0.25
S'familiar'
p4663
tp4664
a(I195
I10
I0
S'more'
p4665
tp4666
a(I195
I12
I0
S'android'
p4667
tp4668
a(I204
I12
F0.375
S'available'
p4669
tp4670
a(I205
I2
I0
S'more'
p4671
tp4672
a(I207
I1
I0
S'adequate'
p4673
tp4674
a(I214
I2
F0.875
g3503
tp4675
a(I214
I2
I0
g3505
tp4676
a(I214
I2
F0.5
g3507
tp4677
a(I238
I0
F1.0
S'good'
p4678
tp4679
a(I238
I2
I0
S'android'
p4680
tp4681
a(I245
I1
F0.375
S'available'
p4682
tp4683
a(I251
I0
I0
S'many'
p4684
tp4685
a(I255
I4
F-0.625
S'free'
p4686
tp4687
a(I282
I2
F0.125
S'popular'
p4688
tp4689
a(I284
I30
F-0.5
S'open'
p4690
tp4691
a(I284
I44
I0
S'more'
p4692
tp4693
a(I284
I44
I0
S'efficient'
p4694
tp4695
a(I284
I44
I0
S'android'
p4696
tp4697
a(I284
I52
F0.125
S'able'
p4698
tp4699
a(I303
I0
I0
S'android'
p4700
tp4701
a(I303
I3
F0.375
S'available'
p4702
tp4703
a(I303
I3
I0
S'android'
p4704
tp4705
a(I303
I3
F-0.25
S'google'
p4706
tp4707
a(I310
I1
F0.375
S'similar'
p4708
tp4709
a(I310
I2
I0
S'more'
p4710
tp4711
a(I310
I2
I0
S'common'
p4712
tp4713
a(I321
I0
F0.375
S'available'
p4714
tp4715
a(I323
I0
I0
g3908
tp4716
a(I328
I3
I0
g3910
tp4717
a(I339
I7
F-0.625
S'free'
p4718
tp4719
a(I339
I7
F0.375
S'available'
p4720
tp4721
a(I339
I8
I0
S'basic'
p4722
tp4723
a(I342
I2
I0
S'stable'
p4724
tp4725
a(I342
I2
F-0.375
S'smooth'
p4726
tp4727
a(I344
I2
F0.125
S'essential'
p4728
tp4729
a(I344
I2
F0.375
S'available'
p4730
tp4731
a(I368
I10
I0
S'more'
p4732
tp4733
a(I368
I10
F-0.5
S'less'
p4734
tp4735
a(I368
I35
F0.125
S'able'
p4736
tp4737
a(I368
I40
F1.0
S'best'
p4738
tp4739
a(I368
I40
F0.375
S'available'
p4740
tp4741
a(I376
I1
F-0.625
g3912
tp4742
a(I380
I4
F0.375
g3509
tp4743
a(I384
I1
I0
g3914
tp4744
a(I384
I1
I0
g3916
tp4745
a(I384
I2
F0.375
g3511
tp4746
a(I394
I2
F0.125
S'popular'
p4747
tp4748
a(I395
I2
I0
S'many'
p4749
tp4750
a(I395
I8
F-0.625
S'other'
p4751
tp4752
a(I401
I8
F0.875
S'nice'
p4753
tp4754
a(I413
I4
F0.375
S'available'
p4755
tp4756
a(I413
I5
F0.375
S'available'
p4757
tp4758
a(I421
I0
I0
S'great'
p4759
tp4760
a(I436
I2
I0
S'android'
p4761
tp4762
a(I439
I2
I0
S'general'
p4763
tp4764
a(I440
I1
I0
S'few'
p4765
tp4766
a(I444
I14
I0
S'more'
p4767
tp4768
a(I455
I6
F0.25
S'powerful'
p4769
tp4770
a(I455
I6
I0
S'many'
p4771
tp4772
a(I455
I6
F-0.625
S'free'
p4773
tp4774
a(I464
I7
F0.375
S'available'
p4775
tp4776
a(I465
I43
F0.5
S'odd'
p4777
tp4778
a(I465
I43
I0
S'most'
p4779
tp4780
a(I465
I43
F0.625
S'easy'
p4781
tp4782
a(I467
I1
I0
S'standard'
p4783
tp4784
a(I468
I9
I0
g3513
tp4785
a(I468
I9
F0.125
g3515
tp4786
a(I486
I7
I0
S'most'
p4787
tp4788
a(I486
I7
I0
S'android'
p4789
tp4790
a(I486
I7
F1.0
S'better'
p4791
tp4792
a(I500
I0
I0
g3517
tp4793
a(I500
I0
F-0.625
g3519
tp4794
a(I501
I1
F0.125
S'popular'
p4795
tp4796
a(I510
I5
I0
g3920
tp4797
a(I510
I5
I0
g3922
tp4798
a(I522
I4
F-0.625
S'free'
p4799
tp4800
a(I527
I5
I0
S'same'
p4801
tp4802
a(I538
I3
F-0.125
S'slow'
p4803
tp4804
a(I539
I2
I0
S'more'
p4805
tp4806
a(I543
I11
I0
S'many'
p4807
tp4808
a(I545
I0
F0.125
S'popular'
p4809
tp4810
a(I551
I2
I0
S'many'
p4811
tp4812
a(I557
I0
F-0.625
S'free'
p4813
tp4814
a(I562
I9
F1.0
S'good'
p4815
tp4816
a(I570
I0
I0
S'many'
p4817
tp4818
a(I570
I0
F1.0
S'good'
p4819
tp4820
a(I573
I8
I0
g3924
tp4821
a(I573
I8
I0
g3926
tp4822
a(I573
I8
I0
g3928
tp4823
a(I578
I5
I0
S'big'
p4824
tp4825
a(I578
I5
I0
S'few'
p4826
tp4827
a(I590
I4
F0.625
S'perfect'
p4828
tp4829
a(I613
I7
F0.625
S'major'
p4830
tp4831
a(I617
I1
F-0.5
S'certain'
p4832
tp4833
a(I618
I1
F0.875
S'important'
p4834
tp4835
a(I624
I16
I0
S'basic'
p4836
tp4837
a(I637
I7
F0.625
S'easy'
p4838
tp4839
a(I659
I66
F1.0
S'better'
p4840
tp4841
a(I677
I9
I0
S'android'
p4842
tp4843
a(I677
I10
I0
g3930
tp4844
a(I677
I10
F-0.625
g3932
tp4845
a(I680
I2
I0
S'social'
p4846
tp4847
a(I680
I4
I0
g3934
tp4848
a(I683
I1
I0
S'great'
p4849
tp4850
a(I684
I28
F-0.5
S'less'
p4851
tp4852
a(I687
I0
I0
S'many'
p4853
tp4854
a(I689
I15
I0
g3936
tp4855
a(I693
I1
F0.125
g3938
tp4856
a(I693
I1
I0
g3940
tp4857
a(I703
I1
I0
S'few'
p4858
tp4859
a(I703
I1
I0
S'useful'
p4860
tp4861
a(I711
I15
F0.125
S'popular'
p4862
tp4863
a(I717
I4
F-0.5
S'less'
p4864
tp4865
a(I717
I5
F-0.125
S'present'
p4866
tp4867
a(I720
I6
F0.125
S'popular'
p4868
tp4869
a(I720
I6
I0
S'many'
p4870
tp4871
a(I739
I14
I0
g3942
tp4872
a(I740
I5
F0.875
S'nice'
p4873
tp4874
a(I743
I2
I0
S'few'
p4875
tp4876
a(I743
I2
F0.375
S'available'
p4877
tp4878
a(I756
I1
I0
S'big'
p4879
tp4880
a(I763
I0
F0.375
S'much'
p4881
tp4882
a(I764
I1
I0
S'unnecessary'
p4883
tp4884
a(I803
I2
F-0.25
S'google'
p4885
tp4886
a(I803
I2
F-0.625
S'surprising'
p4887
tp4888
a(I805
I24
F0.5
S'true'
p4889
tp4890
a(I810
I1
F0.375
S'available'
p4891
tp4892
a(I812
I5
F1.0
S'good'
p4893
tp4894
a(I812
I6
F0.25
S'favorite'
p4895
tp4896
a(I813
I2
I0
S'old'
p4897
tp4898
a(I818
I2
I0
S'same'
p4899
tp4900
a(I842
I0
I0
g3944
tp4901
a(I842
I0
F0.875
g3946
tp4902
a(I851
I5
I0
S'cool'
p4903
tp4904
a(I860
I2
F0.625
S'easy'
p4905
tp4906
a(I868
I1
F-0.625
S'other'
p4907
tp4908
a(I868
I4
F-0.5
S'certain'
p4909
tp4910
a(I869
I8
F0.75
g3523
tp4911
a(I886
I3
F-0.625
S'free'
p4912
tp4913
a(I887
I1
I0
S'old'
p4914
tp4915
a(I895
I7
I0
g3948
tp4916
a(I895
I7
F1.0
g3950
tp4917
a(I911
I3
I0
S'many'
p4918
tp4919
a(I918
I18
F-0.75
S'likely'
p4920
tp4921
a(I918
I18
F0.375
S'newest'
p4922
tp4923
a(I918
I25
I0
S'most'
p4924
tp4925
a(I918
I25
F0.125
S'popular'
p4926
tp4927
a(I929
I1
F0.375
S'similar'
p4928
tp4929
a(I935
I2
I0
S'more'
p4930
tp4931
a(I949
I5
I0
S'few'
p4932
tp4933
a(I981
I2
I0
S'many'
p4934
tp4935
a(I984
I1
I0
S'most'
p4936
tp4937
a(I985
I11
I0
g3952
tp4938
a(I985
I11
F0.875
g3954
tp4939
a(I985
I56
F-0.25
S'google'
p4940
tp4941
a(I985
I61
I0
S'such'
p4942
tp4943
a(I985
I78
I0
g3525
tp4944
a(I988
I13
F1.0
S'good'
p4945
tp4946
a(I991
I1
F0.875
S'nice'
p4947
tp4948
a(I991
I1
F-0.625
S'free'
p4949
tp4950
a(I998
I2
F0.375
S'much'
p4951
tp4952
a(I1013
I4
I0
S'fewer'
p4953
tp4954
a(I1023
I12
I0
S'android'
p4955
tp4956
a(I1023
I12
I0
S'android'
p4957
tp4958
a(I1024
I0
F0.25
S'helpful'
p4959
tp4960
a(I1027
I1
I0
S'many'
p4961
tp4962
a(I1063
I6
F0.125
S'able'
p4963
tp4964
a(I1063
I6
I0
S'most'
p4965
tp4966
a(I1063
I10
I0
S'standard'
p4967
tp4968
a(I1067
I6
F0.875
S'nice'
p4969
tp4970
a(I1087
I7
I0
S'most'
p4971
tp4972
a(I1088
I0
F1.0
S'good'
p4973
tp4974
a(I1100
I13
I0
S'few'
p4975
tp4976
a(I1100
I14
I0
S'useful'
p4977
tp4978
a(I1111
I3
F0.25
S'used'
p4979
tp4980
a(I1111
I3
I0
S'such'
p4981
tp4982
a(I1111
I10
I0
g3956
tp4983
a(I1116
I2
I0
S'many'
p4984
tp4985
a(I1116
I2
F-0.625
S'other'
p4986
tp4987
a(I1128
I0
I0
g3958
tp4988
a(I1128
I0
I0
g3960
tp4989
a(I1128
I0
F0.125
g3962
tp4990
a(I1139
I3
F0.375
S'worked'
p4991
tp4992
a(I1150
I0
I0
g3964
tp4993
a(I1150
I0
I0
g3966
tp4994
a(I1155
I3
I0
S'lame'
p4995
tp4996
a(I1157
I2
F0.25
S'favorite'
p4997
tp4998
a(I1165
I5
F0.25
S'larger'
p4999
tp5000
a(I1166
I4
I0
S'different'
p5001
tp5002
a(I1168
I1
F0.375
S'available'
p5003
tp5004
a(I1170
I0
F1.0
S'good'
p5005
tp5006
a(I1180
I5
I0
S'forth'
p5007
tp5008
a(I1180
I14
I0
S'few'
p5009
tp5010
a(I1181
I1
I0
S'mobile'
p5011
tp5012
a(I1181
I1
I0
S'fluid'
p5013
tp5014
a(I1181
I1
I0
S'cool'
p5015
tp5016
a(I1183
I5
F-0.5
S'certain'
p5017
tp5018
a(I1183
I6
F-0.5
S'certain'
p5019
tp5020
a(I1183
I6
F-0.375
S'daily'
p5021
tp5022
a(I1191
I10
I0
S'most'
p5023
tp5024
a(I1196
I5
I0
S'many'
p5025
tp5026
a(I1208
I2
I0
S'few'
p5027
tp5028
a(I1208
I2
I0
S'android'
p5029
tp5030
a(I1219
I2
I0
S'educational'
p5031
tp5032
a(I1219
I2
F0.375
S'available'
p5033
tp5034
a(I1219
I8
I0
S'few'
p5035
tp5036
a(I1219
I8
F0.125
S'essential'
p5037
tp5038
a(I1224
I6
F-0.625
g3533
tp5039
a(I1236
I2
F-0.375
S'top'
p5040
tp5041
a(I1236
I2
F-0.625
S'free'
p5042
tp5043
a(I1239
I2
F0.375
S'new'
p5044
tp5045
a(I1239
I2
F0.625
S'major'
p5046
tp5047
a(I1253
I2
F0.375
S'available'
p5048
tp5049
as(S'better'
p5050
tp5051
(lp5052
(I46
I37
F0.375
S'much'
p5053
tp5054
a(I46
I37
F0.625
S'easy'
p5055
tp5056
a(I142
I15
F0.375
S'much'
p5057
tp5058
a(I188
I10
F0.375
S'much'
p5059
tp5060
a(I204
I5
F0.375
S'much'
p5061
tp5062
a(I535
I1
F0.375
S'much'
p5063
tp5064
a(I626
I4
F0.375
S'much'
p5065
tp5066
a(I705
I8
F0.375
S'much'
p5067
tp5068
a(I730
I2
I0
S'android'
p5069
tp5070
a(I917
I0
F-0.625
S'other'
p5071
tp5072
a(I959
I2
F0.375
S'much'
p5073
tp5074
a(I988
I20
F0.375
S'much'
p5075
tp5076
as(S'never'
p5077
tp5078
(lp5079
(I1154
I0
I0
S'few'
p5080
tp5081
as(S'device'
p5082
tp5083
(lp5084
(I4
I0
I0
S'great'
p5085
tp5086
a(I5
I0
F1.0
S'better'
p5087
tp5088
a(I5
I1
I0
S'great'
p5089
tp5090
a(I5
I3
F0.5
S'primary'
p5091
tp5092
a(I5
I3
F0.5
S'primary'
p5093
tp5094
a(I57
I0
F0.5
S'primary'
p5095
tp5096
a(I57
I3
F0.375
S'new'
p5097
tp5098
a(I89
I5
F0.875
S'nice'
p5099
tp5100
a(I152
I1
F-0.375
S'small'
p5101
tp5102
a(I199
I18
I0
S'mobile'
p5103
tp5104
a(I199
I18
F0.125
S'able'
p5105
tp5106
a(I201
I0
I0
S'particular'
p5107
tp5108
a(I336
I3
I0
S'great'
p5109
tp5110
a(I336
I3
F-0.75
S'little'
p5111
tp5112
a(I346
I0
F-0.125
S'slow'
p5113
tp5114
a(I368
I49
F0.5
S'second'
p5115
tp5116
a(I378
I13
F-0.25
S'google'
p5117
tp5118
a(I449
I1
F0.875
S'nice'
p5119
tp5120
a(I500
I1
I0
S'fastest'
p5121
tp5122
a(I527
I6
F-0.625
S'bad'
p5123
tp5124
a(I527
I6
I0
S'mobile'
p5125
tp5126
a(I562
I7
I0
S'fast'
p5127
tp5128
a(I562
I7
F-0.625
S'other'
p5129
tp5130
a(I624
I3
F-0.5
S'actual'
p5131
tp5132
a(I640
I0
I0
S'great'
p5133
tp5134
a(I644
I8
I0
S'android'
p5135
tp5136
a(I659
I34
F0.5
S'clear'
p5137
tp5138
a(I659
I34
F-0.75
S'dead'
p5139
tp5140
a(I737
I2
F0.375
S'much'
p5141
tp5142
a(I739
I7
F0.75
S'worth'
p5143
tp5144
a(I740
I3
F0.125
S'able'
p5145
tp5146
a(I748
I18
F0.625
S'pleasant'
p5147
tp5148
a(I752
I16
F-0.25
S'past'
p5149
tp5150
a(I762
I0
F0.75
S'worth'
p5151
tp5152
a(I800
I8
I0
S'android'
p5153
tp5154
a(I800
I21
F0.5
S'comparable'
p5155
tp5156
a(I800
I21
F1.0
S'better'
p5157
tp5158
a(I800
I21
I0
S'android'
p5159
tp5160
a(I802
I0
F-0.5
S'less'
p5161
tp5162
a(I802
I11
F0.5
S'comparable'
p5163
tp5164
a(I894
I0
I0
S'great'
p5165
tp5166
a(I894
I2
I0
S'sturdy'
p5167
tp5168
a(I937
I0
F0.375
S'much'
p5169
tp5170
a(I973
I5
I0
S'great'
p5171
tp5172
a(I973
I5
F-0.75
S'little'
p5173
tp5174
a(I973
I5
F0.125
S'enough'
p5175
tp5176
a(I983
I6
I0
S'high'
p5177
tp5178
a(I983
I6
I0
S'android'
p5179
tp5180
a(I1010
I1
F0.5
S'personal'
p5181
tp5182
a(I1010
I11
I0
S'android'
p5183
tp5184
a(I1010
I23
F0.5
S'bought'
p5185
tp5186
a(I1100
I16
I0
S'android'
p5187
tp5188
a(I1123
I12
I0
S'android'
p5189
tp5190
a(I1191
I30
I0
S'fluid'
p5191
tp5192
a(I1222
I6
F1.0
S'good'
p5193
tp5194
as(S'call'
p5195
tp5196
(lp5197
(I96
I10
I0
S'such'
p5198
tp5199
a(I230
I11
I0
S'quick'
p5200
tp5201
a(I236
I5
I0
S'great'
p5202
tp5203
a(I404
I24
F0.5
S'clear'
p5204
tp5205
a(I660
I5
F0.5
S'clearest'
p5206
tp5207
a(I660
I5
F0.375
S'loudest'
p5208
tp5209
a(I689
I6
F0.875
S'music'
p5210
tp5211
a(I693
I1
F1.0
S'good'
p5212
tp5213
a(I1069
I0
F0.75
S'sound'
p5214
tp5215
a(I1135
I5
F-0.5
S'international'
p5216
tp5217
as(S'much'
p5218
S'better'
p5219
tp5220
(lp5221
(I46
I37
F0.375
g5053
tp5222
a(I46
I37
F0.625
g5055
tp5223
a(I142
I15
F0.375
g5057
tp5224
a(I188
I10
F0.375
g5059
tp5225
a(I204
I5
F0.375
g5061
tp5226
a(I535
I1
F0.375
g5063
tp5227
a(I626
I4
F0.375
g5065
tp5228
a(I705
I8
F0.375
g5067
tp5229
a(I917
I0
F-0.625
g5071
tp5230
a(I959
I2
F0.375
g5073
tp5231
a(I988
I20
F0.375
g5075
tp5232
as(S'data'
p5233
S'plan'
p5234
tp5235
(lp5236
(I13
I1
F0.375
g2513
tp5237
a(I308
I1
I0
g2446
tp5238
a(I384
I4
F0.75
g2516
tp5239
a(I449
I1
I0
g2450
tp5240
a(I592
I1
I0
g2456
tp5241
a(I701
I9
F0.625
g2464
tp5242
a(I701
I13
F0.375
g2521
tp5243
a(I701
I16
F0.375
g2523
tp5244
a(I701
I16
F0.375
g2525
tp5245
a(I701
I16
F0.5
g2466
tp5246
a(I701
I16
I0
g2468
tp5247
a(I735
I1
F0.625
g2529
tp5248
a(I744
I3
I0
g2472
tp5249
a(I891
I10
I0
g2482
tp5250
a(I891
I10
F0.375
g2484
tp5251
a(I1167
I5
F-0.5
g2488
tp5252
a(I1167
I5
I0
g2490
tp5253
a(I1196
I1
I0
g2536
tp5254
a(I1212
I0
I0
g2492
tp5255
as(S'form'
p5256
S'factor'
p5257
tp5258
(lp5259
(I142
I1
I0
S'great'
p5260
tp5261
a(I378
I10
F1.0
S'good'
p5262
tp5263
as(g1383
S'great'
p5264
S'price'
p5265
tp5266
(lp5267
(I59
I0
I0
g1473
tp5268
a(I74
I2
I0
g1475
tp5269
a(I96
I34
I0
g1479
tp5270
a(I102
I2
I0
g1481
tp5271
a(I126
I9
I0
g1485
tp5272
a(I190
I0
I0
g1497
tp5273
a(I226
I5
F-0.25
g1505
tp5274
a(I247
I1
I0
g1509
tp5275
a(I247
I1
I0
g1511
tp5276
a(I252
I1
I0
g1515
tp5277
a(I360
I0
I0
g1527
tp5278
a(I386
I2
I0
g1531
tp5279
a(I410
I0
I0
g1535
tp5280
a(I418
I0
F1.0
g1537
tp5281
a(I478
I0
F-0.25
g1551
tp5282
a(I490
I1
I0
g1553
tp5283
a(I503
I9
I0
g1561
tp5284
a(I509
I6
I0
g1563
tp5285
a(I529
I1
I0
g1565
tp5286
a(I529
I1
I0
g1567
tp5287
a(I674
I0
I0
g1593
tp5288
a(I693
I1
F0.5
g1597
tp5289
a(I701
I3
I0
g1599
tp5290
a(I715
I1
I0
g1601
tp5291
a(I740
I9
I0
g1607
tp5292
a(I814
I0
F-0.375
g1627
tp5293
a(I861
I1
I0
g1641
tp5294
a(I941
I5
I0
g1663
tp5295
a(I963
I1
I0
g1667
tp5296
a(I983
I3
I0
g1671
tp5297
a(I983
I3
I0
g1673
tp5298
a(I1104
I0
F-0.625
g1687
tp5299
a(I1189
I0
F-0.25
g1701
tp5300
as.