(dp0
(S'battery'
p1
S'life'
p2
tp3
(lp4
(I7
I20
F1.0
S'good'
p5
I1
tp6
a(I8
I4
F1.0
S'better'
p7
I1
tp8
a(I20
I23
I0
S'great'
p9
I1
tp10
a(I25
I20
F1.0
S'good'
p11
I1
tp12
a(I26
I21
F0.625
S'easy'
p13
I1
tp14
a(I30
I14
F-0.75
S'short'
p15
I1
tp16
a(I30
I24
I0
S'great'
p17
I1
tp18
a(I1
I0
F0.625
S'removable'
p19
I15
tp20
a(I8
I4
F1.0
g7
I15
tp21
a(I20
I8
I-100
S'5hd'
p22
I15
tp23
a(I20
I23
I0
g9
I15
tp24
a(I26
I21
F0.625
g13
I15
tp25
a(I27
I36
F0.125
S'last'
p26
I15
tp27
a(I30
I14
F-0.75
g15
I15
tp28
a(I30
I24
I0
g17
I15
tp29
as(S'samsung'
p30
tp31
(lp32
(I19
I11
F1.0
S'better'
p33
I7
tp34
as(S'download'
p35
tp36
(lp37
(I29
I42
F0.5
S'second'
p38
I1
tp39
as(S'camera'
p40
tp41
(lp42
(I7
I41
F1.0
S'good'
p43
I1
tp44
a(I11
I21
F0.875
S'nice'
p45
I1
tp46
a(I16
I9
I0
S'great'
p47
I1
tp48
a(I18
I87
I0
S'rear'
p49
I1
tp50
a(I19
I9
I0
S'great'
p51
I1
tp52
a(I19
I14
I0
S'great'
p53
I1
tp54
a(I19
I47
F0.375
S'new'
p55
I1
tp56
a(I27
I2
I0
S'great'
p57
I1
tp58
as(S'system'
p59
S'board'
p60
tp61
(lp62
(I30
I56
I0
S'same'
p63
I0
tp64
as(S'games'
p65
tp66
(lp67
(I7
I43
I0
S'great'
p68
I19
tp69
a(I15
I5
I0
S'play'
p70
I19
tp71
a(I15
I5
I0
S'many'
p72
I19
tp73
a(I29
I18
I0
S'3d'
p74
I19
tp75
as(S'operating'
p76
S'system'
p77
tp78
(lp79
(I27
I80
I0
S'android'
p80
I2
tp81
a(I27
I92
I0
S'more'
p82
I2
tp83
as(S'apps'
p84
tp85
(lp86
(I4
I20
F-0.875
S'trouble'
p87
I0
tp88
a(I11
I27
I0
S'many'
p89
I0
tp90
a(I17
I11
I0
S'many'
p91
I0
tp92
a(I18
I38
F0.75
S'due'
p93
I0
tp94
a(I18
I71
I0
S'many'
p95
I0
tp96
a(I19
I8
I0
S'own'
p97
I0
tp98
a(I19
I46
I0
S'handy'
p99
I0
tp100
a(I25
I3
I0
S'own'
p101
I0
tp102
a(I25
I14
I0
S'older'
p103
I0
tp104
a(I27
I40
I0
S'many'
p105
I0
tp106
a(I27
I40
F-0.5
S'open'
p107
I0
tp108
a(I27
I42
F-0.625
S'free'
p109
I0
tp110
a(I27
I91
I0
S'more'
p111
I0
tp112
a(I27
I93
I0
S'many'
p113
I0
tp114
a(I27
I93
F0.25
S'familiar'
p115
I0
tp116
a(I27
I101
I0
S'more'
p117
I0
tp118
a(I27
I101
I0
S'more'
p119
I0
tp120
as(S'memory'
p121
tp122
(lp123
(I4
I18
I0
S'internal'
p124
I5
tp125
a(I7
I52
F0.375
S'conscious'
p126
I5
tp127
a(I11
I52
I0
S'external'
p128
I5
tp129
a(I20
I18
I0
S'internal'
p130
I5
tp131
a(I25
I57
I0
S'internal'
p132
I5
tp133
a(I28
I3
I0
S'external'
p134
I5
tp135
a(I30
I14
F-0.25
S'low'
p136
I5
tp137
as(S'build'
p138
S'quality'
p139
tp140
(lp141
(I18
I86
F0.125
S'solid'
p142
I2
tp143
a(I27
I77
I0
S'substantial'
p144
I2
tp145
a(I27
I116
F0.875
S'nice'
p146
I2
tp147
as(S'google'
p148
tp149
(lp150
(I27
I90
I0
S'initial'
p151
I4
tp152
as(S'galaxy'
p153
tp154
(lp155
(I18
I11
I0
S'different'
p156
I0
tp157
as(S'android'
p158
tp159
(lp160
(I11
I0
I0
S'old'
p161
I0
tp162
as(S'sound'
p163
tp164
(lp165
(I17
I52
F1.0
S'good'
p166
I7
tp167
a(I25
I14
F0.5
S'clear'
p168
I7
tp169
a(I25
I23
F-0.5
S'poor'
p170
I7
tp171
a(I26
I18
F1.0
S'good'
p172
I7
tp173
a(I27
I29
F1.0
S'best'
p174
I7
tp175
as(S'card'
p176
S'slot'
p177
tp178
(lp179
(I15
I90
F0.375
S'extra'
p180
I0
tp181
a(I15
I90
F0.375
g180
I6
tp182
as(S'first'
p183
S'time'
p184
tp185
(lp186
(I4
I3
F0.125
S'first'
p187
I10
tp188
a(I11
I5
F0.125
S'first'
p189
I10
tp190
a(I18
I53
I0
S'very'
p191
I10
tp192
a(I18
I53
F0.125
S'first'
p193
I10
tp194
a(I21
I2
F0.125
S'first'
p195
I10
tp196
a(I27
I113
F0.125
S'first'
p197
I10
tp198
as(S'sim'
p199
S'card'
p200
tp201
(lp202
(I4
I3
F0.5
S'second'
p203
I0
tp204
as(S'hardware'
p205
S'buttons'
p206
tp207
(lp208
(I18
I82
I0
S'sensitive'
p209
I0
tp210
as(S'blu'
p211
S'life'
p212
S'view'
p213
tp214
(lp215
(I15
I44
I0
S'next'
p216
I0
tp217
a(I15
I88
F-0.5
S'sure'
p218
I0
tp219
a(I30
I67
F0.375
S'new'
p220
I0
tp221
a(I15
I44
I0
g216
I0
tp222
a(I15
I44
I0
g216
I0
tp223
a(I15
I88
F-0.5
g218
I0
tp224
a(I30
I48
F0.25
S'original'
p225
I0
tp226
a(I30
I67
F0.375
g220
I0
tp227
a(I7
I20
F1.0
g5
I19
tp228
a(I15
I44
I0
g216
I19
tp229
a(I25
I20
F1.0
g11
I19
tp230
a(I30
I54
I0
S'real'
p231
I19
tp232
as(S'large'
p233
S'display'
p234
tp235
(lp236
(I15
I3
I0
S'large'
p237
I0
tp238
a(I15
I77
I0
S'large'
p239
I0
tp240
a(I15
I86
I0
S'large'
p241
I0
tp242
a(I18
I111
I0
S'great'
p243
I0
tp244
a(I27
I53
I0
S'great'
p245
I0
tp246
a(I27
I53
I0
S'large'
p247
I0
tp248
as(S'blu'
p249
S'products'
p250
tp251
(lp252
(I27
I2
F0.5
S'told'
p253
I0
tp254
a(I30
I13
F0.875
S'happy'
p255
I0
tp256
as(S'internal'
p257
S'storage'
p258
tp259
(lp260
(I18
I38
I0
S'internal'
p261
I0
tp262
a(I27
I18
I0
S'internal'
p263
I0
tp264
a(I27
I19
I0
S'internal'
p265
I0
tp266
a(I31
I5
I0
S'internal'
p267
I0
tp268
a(I31
I9
I0
S'internal'
p269
I0
tp270
a(I8
I1
I0
S'external'
p271
I1
tp272
a(I15
I8
I0
S'ample'
p273
I1
tp274
a(I15
I79
I0
S'current'
p275
I1
tp276
a(I18
I38
I0
g261
I1
tp277
a(I18
I67
F0.375
S'available'
p278
I1
tp279
a(I19
I19
F0.375
S'available'
p280
I1
tp281
a(I27
I18
I0
g263
I1
tp282
a(I27
I19
I0
g265
I1
tp283
a(I29
I59
I0
S'external'
p284
I1
tp285
a(I31
I5
I0
g267
I1
tp286
a(I31
I9
I0
g269
I1
tp287
as(S'videos'
p288
tp289
(lp290
(I25
I57
F0.875
S'music'
p291
I8
tp292
a(I27
I7
F-0.5
S'certain'
p293
I8
tp294
as(S'amazon'
p295
tp296
(lp297
(I7
I14
I0
S'later'
p298
I13
tp299
as(S'touch'
p300
S'screen'
p301
tp302
(lp303
(I13
I0
F0.5
S'touch'
p304
I2
tp305
a(I15
I33
F-0.75
S'bright'
p306
I2
tp307
a(I15
I33
F0.5
S'clear'
p308
I2
tp309
a(I18
I40
F-0.375
S'black'
p310
I2
tp311
a(I18
I40
F0.25
S'responsive'
p312
I2
tp313
a(I18
I40
F0.5
S'touch'
p314
I2
tp315
a(I18
I77
F1.0
S'good'
p316
I2
tp317
a(I18
I81
F-0.5
S'less'
p318
I2
tp319
a(I18
I81
F0.375
S'reliable'
p320
I2
tp321
as.