(dp0
(S'a'
p1
S'galaxy'
p2
S'nexus'
p3
tp4
(lp5
(I7
I286
I0
S'incredible'
p6
I0
tp7
a(I7
I286
I0
S'incredible'
p8
I0
tp9
a(I7
I314
F0.25
S'original'
p10
I0
tp11
a(I7
I286
I0
g6
I0
tp12
a(I7
I286
I0
g8
I0
tp13
a(I7
I314
F0.25
g10
I0
tp14
a(I7
I286
I0
g6
I0
tp15
a(I7
I286
I0
g8
I0
tp16
a(I7
I314
F0.25
g10
I0
tp17
a(I10
I110
F-0.125
S'complicated'
p18
I0
tp19
a(I11
I62
F-0.375
S'small'
p20
I0
tp21
a(I11
I62
I0
S'large'
p22
I0
tp23
a(I11
I63
F1.0
S'good'
p24
I0
tp25
as(S'active'
p26
S'notifications'
p27
tp28
(lp29
(I4
I17
I0
S'active'
p30
I0
tp31
a(I5
I20
I0
S'active'
p32
I0
tp33
a(I5
I21
I0
S'active'
p34
I0
tp35
a(I5
I53
I0
S'active'
p36
I0
tp37
a(I5
I66
I0
S'active'
p38
I0
tp39
a(I7
I73
I0
S'active'
p40
I0
tp41
a(I7
I292
I0
S'cool'
p42
I0
tp43
a(I8
I27
I0
S'more'
p44
I0
tp45
a(I8
I27
F0.25
S'helpful'
p46
I0
tp47
a(I8
I39
I0
S'active'
p48
I0
tp49
a(I8
I40
I0
S'active'
p50
I0
tp51
a(I9
I59
F-0.25
S'google'
p52
I0
tp53
a(I9
I59
I0
S'active'
p54
I0
tp55
a(I9
I65
I0
S'active'
p56
I0
tp57
a(I9
I65
I0
S'active'
p58
I0
tp59
a(I9
I70
I0
S'active'
p60
I0
tp61
a(I10
I57
I0
S'active'
p62
I0
tp63
a(I11
I198
I0
S'active'
p64
I0
tp65
a(I11
I245
I0
S'active'
p66
I0
tp67
a(I4
I17
I0
g30
I1
tp68
a(I5
I20
I0
g32
I1
tp69
a(I5
I21
I0
g34
I1
tp70
a(I5
I53
I0
g36
I1
tp71
a(I5
I66
I0
g38
I1
tp72
a(I7
I73
I0
g40
I1
tp73
a(I7
I292
I0
g42
I1
tp74
a(I7
I330
F0.375
S'new'
p75
I1
tp76
a(I7
I330
I0
S'such'
p77
I1
tp78
a(I8
I27
I0
g44
I1
tp79
a(I8
I27
F0.25
g46
I1
tp80
a(I8
I39
I0
g48
I1
tp81
a(I8
I40
I0
g50
I1
tp82
a(I9
I59
F-0.25
g52
I1
tp83
a(I9
I59
I0
g54
I1
tp84
a(I9
I65
I0
g56
I1
tp85
a(I9
I65
I0
g58
I1
tp86
a(I9
I70
I0
g60
I1
tp87
a(I9
I82
F-0.125
S'overall'
p88
I1
tp89
a(I10
I57
I0
g62
I1
tp90
a(I11
I198
I0
g64
I1
tp91
a(I11
I245
I0
g66
I1
tp92
as(S'droid'
p93
tp94
(lp95
(I4
I98
I0
S'own'
p96
I0
tp97
a(I7
I153
I0
S'old'
p98
I0
tp99
a(I7
I162
F1.0
S'better'
p100
I0
tp101
a(I7
I237
F0.25
S'original'
p102
I0
tp103
a(I8
I111
F-0.875
S'trouble'
p104
I0
tp105
a(I9
I23
F0.25
S'original'
p106
I0
tp107
a(I11
I77
F0.25
S'original'
p108
I0
tp109
a(I11
I240
F0.25
S'original'
p110
I0
tp111
as(S'motorola'
p112
tp113
(lp114
(I5
I5
I0
S'few'
p115
I0
tp116
a(I5
I5
I0
S'specific'
p117
I0
tp118
a(I5
I26
F0.375
S'new'
p119
I0
tp120
a(I5
I54
I0
S'latest'
p121
I0
tp122
a(I6
I15
F-0.75
S'little'
p123
I0
tp124
a(I6
I28
F0.375
S'much'
p125
I0
tp126
a(I6
I77
F-0.625
S'bad'
p127
I0
tp128
a(I7
I211
I0
S'rooted'
p129
I0
tp130
a(I7
I255
F-0.625
S'other'
p131
I0
tp132
a(I7
I285
F0.25
S'original'
p133
I0
tp134
a(I8
I98
I0
S'old'
p135
I0
tp136
a(I10
I115
F0.125
S'first'
p137
I0
tp138
a(I10
I115
F-0.625
S'free'
p139
I0
tp140
a(I11
I208
F0.5
S'upgraded'
p141
I0
tp142
a(I11
I214
F0.125
S'first'
p143
I0
tp144
a(I11
I240
I0
S'third'
p145
I0
tp146
as(S'text'
p147
tp148
(lp149
(I6
I46
I0
S'few'
p150
I18
tp151
as(S'go'
p152
S'back'
p153
tp154
(lp155
(I5
I60
F0.5
S'stylish'
p156
I5
tp157
as(S'active'
p158
S'display'
p159
tp160
(lp161
(I5
I36
I0
S'active'
p162
I0
tp163
a(I6
I19
I0
S'active'
p164
I0
tp165
a(I6
I19
I0
S'useful'
p166
I0
tp167
a(I6
I31
I0
S'active'
p168
I0
tp169
a(I6
I32
I0
S'active'
p170
I0
tp171
a(I6
I33
I0
S'active'
p172
I0
tp173
a(I6
I34
I0
S'active'
p174
I0
tp175
a(I6
I88
I0
S'active'
p176
I0
tp177
a(I7
I224
I0
S'active'
p178
I0
tp179
a(I7
I224
I0
S'such'
p180
I0
tp181
a(I7
I296
I0
S'great'
p182
I0
tp183
a(I8
I120
I0
S'active'
p184
I0
tp185
a(I8
I121
I0
S'active'
p186
I0
tp187
a(I8
I121
I0
S'more'
p188
I0
tp189
a(I11
I12
I0
S'active'
p190
I0
tp191
a(I11
I24
I0
S'active'
p192
I0
tp193
a(I11
I40
I0
S'active'
p194
I0
tp195
as(S'camera'
p196
tp197
(lp198
(I3
I5
F1.0
S'best'
p199
I1
tp200
a(I4
I18
F1.0
S'best'
p201
I1
tp202
a(I4
I83
I0
S'most'
p203
I1
tp204
a(I4
I147
F-0.625
S'bad'
p205
I1
tp206
a(I4
I179
I0
S'photosphere'
p207
I1
tp208
a(I5
I55
F1.0
S'good'
p209
I1
tp210
a(I5
I66
I0
S'great'
p211
I1
tp212
a(I7
I8
F0.125
S'impressive'
p213
I1
tp214
a(I7
I8
F-0.375
S'simple'
p215
I1
tp216
a(I7
I47
F-0.5
S'open'
p217
I1
tp218
a(I7
I90
I0
S'great'
p219
I1
tp220
a(I7
I164
F1.0
S'good'
p221
I1
tp222
a(I7
I164
I0
S'great'
p223
I1
tp224
a(I7
I167
F1.0
S'best'
p225
I1
tp226
a(I7
I235
I0
S'old'
p227
I1
tp228
a(I7
I239
I0
S'fourth'
p229
I1
tp230
a(I7
I239
F1.0
S'best'
p231
I1
tp232
a(I7
I307
F-0.625
S'average'
p233
I1
tp234
a(I7
I309
F1.0
S'good'
p235
I1
tp236
a(I7
I344
F1.0
S'better'
p237
I1
tp238
a(I9
I73
F1.0
S'good'
p239
I1
tp240
a(I9
I77
F1.0
S'good'
p241
I1
tp242
a(I11
I30
F1.0
S'best'
p243
I1
tp244
a(I11
I113
F-0.5
S'open'
p245
I1
tp246
a(I11
I114
I0
S'handy'
p247
I1
tp248
a(I11
I194
I0
S'update'
p249
I1
tp250
a(I11
I235
I0
S'only'
p251
I1
tp252
as(S'feel'
p253
S'in'
p254
S'hand'
p255
tp256
(lp257
(I4
I163
F-0.375
S'small'
p258
I0
tp259
a(I5
I59
I0
S'great'
p260
I0
tp261
a(I8
I71
I0
S'great'
p262
I0
tp263
a(I8
I113
F1.0
S'good'
p264
I0
tp265
a(I11
I8
F1.0
S'good'
p266
I0
tp267
as(S'iphone'
p268
tp269
(lp270
(I7
I10
I0
S'old'
p271
I1
tp272
a(I7
I348
I0
S'old'
p273
I1
tp274
a(I7
I349
F0.375
S'new'
p275
I1
tp276
a(I7
I350
I0
S'old'
p277
I1
tp278
a(I7
I352
I0
S'old'
p279
I1
tp280
a(I7
I354
F0.625
S'easy'
p281
I1
tp282
a(I10
I94
F-0.125
S'slow'
p283
I1
tp284
a(I11
I57
F0.375
S'new'
p285
I1
tp286
a(I11
I57
I0
S'large'
p287
I1
tp288
as(S'google'
p289
tp290
(lp291
(I0
I2
F0.625
S'aware'
p292
I4
tp293
a(I4
I93
F-0.375
S'simple'
p294
I4
tp295
a(I4
I149
I0
S'later'
p296
I4
tp297
a(I7
I368
F-0.625
S'bad'
p298
I4
tp299
a(I8
I1
F0.125
S'first'
p300
I4
tp301
a(I11
I138
F-0.625
S'sorry'
p302
I4
tp303
a(I11
I250
F0.875
S'worthy'
p304
I4
tp305
as(S'great'
p306
S'battery'
p307
S'life'
p308
tp309
(lp310
(I1
I0
I0
S'great'
p311
I0
tp312
a(I1
I2
I0
S'great'
p313
I0
tp314
a(I4
I23
I0
S'great'
p315
I0
tp316
a(I4
I102
I0
S'great'
p317
I0
tp318
a(I7
I139
I0
S'great'
p319
I0
tp320
a(I7
I317
I0
S'great'
p321
I0
tp322
as(S'verizon'
p323
tp324
(lp325
(I4
I29
F-0.125
S'slow'
p326
I0
tp327
a(I4
I178
F-0.5
S'sure'
p328
I0
tp329
a(I6
I63
F0.25
S'gear'
p330
I0
tp331
a(I7
I174
F0.375
S'available'
p332
I0
tp333
a(I8
I73
F-0.5
S'complaint'
p334
I0
tp335
as(S'end'
p336
S'of'
p337
S'day'
p338
tp339
(lp340
(I5
I14
F0.125
S'last'
p341
I0
tp342
a(I5
I14
I0
S'most'
p343
I0
tp344
a(I9
I85
F0.125
S'last'
p345
I0
tp346
a(I11
I96
I0
S'full'
p347
I0
tp348
as(g1
S'deal'
p349
S'breaker'
p350
tp351
(lp352
(I4
I154
I0
S'big'
p353
I0
tp354
as(S'hands'
p355
tp356
(lp357
(I1
I58
F1.0
S'better'
p358
I15
tp359
a(I2
I18
F-0.75
S'comfortable'
p360
I15
tp361
a(I4
I140
F-0.625
S'free'
p362
I15
tp363
a(I4
I140
F-0.375
S'pull'
p364
I15
tp365
a(I4
I164
F-0.625
S'free'
p366
I15
tp367
a(I7
I184
F0.125
S'able'
p368
I15
tp369
a(I8
I31
F-0.375
S'smaller'
p370
I15
tp371
a(I8
I142
F-0.5
S'unavailable'
p372
I15
tp373
a(I11
I99
F-0.625
S'free'
p374
I15
tp375
a(I11
I198
F-0.625
S'free'
p376
I15
tp377
a(I11
I225
F0.375
S'complete'
p378
I15
tp379
a(I11
I225
F-0.625
S'free'
p380
I15
tp381
as(S'and'
p382
S'battery'
p383
S'life'
p384
tp385
(lp386
(I1
I0
I0
g311
I1
tp387
a(I4
I23
I0
g315
I1
tp388
a(I4
I24
I0
S'more'
p389
I1
tp390
a(I4
I37
F1.0
S'good'
p391
I1
tp392
a(I4
I45
F-0.25
S'battery'
p393
I1
tp394
a(I4
I49
F1.0
S'better'
p395
I1
tp396
a(I4
I58
F-0.5
S'long'
p397
I1
tp398
a(I5
I14
F0.625
S'removable'
p399
I1
tp400
a(I5
I14
F0.25
S'larger'
p401
I1
tp402
a(I5
I14
F0.375
S'extended'
p403
I1
tp404
a(I7
I53
F-0.625
S'glad'
p405
I1
tp406
a(I7
I84
F0.875
S'important'
p407
I1
tp408
a(I7
I84
I0
S'subjective'
p409
I1
tp410
a(I7
I139
I0
g319
I1
tp411
a(I11
I30
I0
S'incredible'
p412
I1
tp413
a(I11
I177
F1.0
S'better'
p414
I1
tp415
a(I11
I182
F-0.5
S'long'
p416
I1
tp417
a(I11
I184
F1.0
S'best'
p418
I1
tp419
a(I11
I184
F0.25
S'larger'
p420
I1
tp421
as(S'stock'
p422
S'android'
p423
tp424
(lp425
(I5
I66
F0.875
S'nice'
p426
I0
tp427
a(I7
I118
F-0.375
S'simple'
p428
I0
tp429
a(I7
I120
F-0.625
S'clean'
p430
I0
tp431
a(I7
I262
F0.5
S'possible'
p432
I0
tp433
a(I8
I108
I0
S'great'
p434
I0
tp435
a(I9
I63
I0
S'close'
p436
I0
tp437
a(I7
I118
F-0.375
g428
I6
tp438
a(I7
I120
F-0.625
g430
I6
tp439
a(I8
I108
I0
g434
I6
tp440
a(I9
I63
I0
g436
I6
tp441
a(I1
I7
F0.375
S'available'
p442
I0
tp443
a(I1
I7
I0
S'most'
p444
I0
tp445
a(I1
I7
F-0.625
S'other'
p446
I0
tp447
a(I1
I41
I0
S'immediate'
p448
I0
tp449
a(I3
I24
F1.0
S'best'
p450
I0
tp451
a(I4
I66
F0.375
S'new'
p452
I0
tp453
a(I5
I1
F1.0
S'best'
p454
I0
tp455
a(I5
I66
F0.875
g426
I0
tp456
a(I7
I1
F0.875
S'happy'
p457
I0
tp458
a(I7
I1
I0
S'old'
p459
I0
tp460
a(I7
I122
F1.0
S'best'
p461
I0
tp462
a(I7
I174
F-0.75
S'purest'
p463
I0
tp464
a(I7
I176
F-0.75
S'pure'
p465
I0
tp466
a(I7
I262
F0.5
g432
I0
tp467
a(I7
I302
F0.75
S'worth'
p468
I0
tp469
a(I7
I303
F0.125
S'last'
p470
I0
tp471
a(I7
I306
I0
S're-enter'
p472
I0
tp473
a(I7
I325
F-0.625
S'other'
p474
I0
tp475
a(I7
I353
F-0.375
S'top'
p476
I0
tp477
a(I8
I103
I0
S'great'
p478
I0
tp479
a(I10
I0
F1.0
S'best'
p480
I0
tp481
a(I10
I48
F1.0
S'best'
p482
I0
tp483
a(I10
I77
F-0.625
S'other'
p484
I0
tp485
a(I11
I77
I0
S'many'
p486
I0
tp487
a(I11
I80
F1.0
S'best'
p488
I0
tp489
a(I11
I227
F-0.125
S'overall'
p490
I0
tp491
as(S'smart'
p492
tp493
(lp494
(I3
I19
F0.5
S'true'
p495
I10
tp496
a(I3
I35
F0.125
S'first'
p497
I10
tp498
a(I4
I12
F0.125
S'first'
p499
I10
tp500
a(I4
I137
F0.125
S'first'
p501
I10
tp502
a(I5
I9
F0.25
S'bigger'
p503
I10
tp504
a(I5
I65
F0.375
S'feel'
p505
I10
tp506
a(I5
I66
F-0.75
S'plain'
p507
I10
tp508
a(I11
I78
F1.0
S'best'
p509
I10
tp510
a(I11
I91
F0.125
S'last'
p511
I10
tp512
a(I11
I124
F0.625
S'sophisticated'
p513
I10
tp514
as(S'samsung'
p515
S'galaxy'
p516
tp517
(lp518
(I4
I25
F1.0
S'better'
p519
I0
tp520
a(I10
I110
F-0.125
g18
I0
tp521
a(I11
I263
I0
S'sturdy'
p522
I0
tp523
a(I4
I25
F1.0
g519
I7
tp524
a(I7
I55
I0
S'old'
p525
I7
tp526
a(I7
I340
F-0.5
S'heavy'
p527
I7
tp528
a(I8
I69
I0
S'few'
p529
I7
tp530
a(I11
I263
I0
g522
I7
tp531
as(S'calls'
p532
tp533
(lp534
(I9
I8
I0
S'adequate'
p535
I0
tp536
as(S'on'
p537
S'moto'
p538
S'x'
p539
tp540
(lp541
(I4
I57
I0
S'exclusive'
p542
I0
tp543
a(I5
I4
I0
S'closest'
p544
I0
tp545
a(I7
I273
F-0.5
S'sure'
p546
I0
tp547
a(I7
I279
F0.25
S'responsive'
p548
I0
tp549
a(I7
I311
I0
S'great'
p550
I0
tp551
a(I8
I28
F-0.375
S'top'
p552
I0
tp553
a(I8
I38
F0.25
S'original'
p554
I0
tp555
a(I8
I39
I0
S'suite'
p556
I0
tp557
a(I8
I39
I0
S'useful'
p558
I0
tp559
a(I8
I88
I0
S'same'
p560
I0
tp561
a(I9
I5
F0.375
S'much'
p562
I0
tp563
a(I9
I5
F0.875
S'attractive'
p564
I0
tp565
a(I11
I80
I0
S'great'
p566
I0
tp567
a(I11
I186
F1.0
S'better'
p568
I0
tp569
as(S'voice'
p570
S'commands'
p571
tp572
(lp573
(I2
I19
F0.25
S'responsive'
p574
I0
tp575
a(I2
I19
F0.5
S'touch'
p576
I0
tp577
a(I2
I19
F0.25
g574
I4
tp578
a(I4
I75
F-0.5
S'continuous'
p579
I4
tp580
a(I4
I75
F1.0
S'best'
p581
I4
tp582
a(I7
I330
F0.375
S'new'
p583
I4
tp584
a(I7
I330
I0
S'e-mail'
p585
I4
tp586
a(I7
I330
F0.375
S'new'
p587
I4
tp588
as(g1
S'moto'
p589
g539
tp590
(lp591
(I4
I2
I0
S'great'
p592
I0
tp593
a(I4
I15
F0.25
S'favorite'
p594
I0
tp595
a(I4
I57
I0
g542
I0
tp596
a(I4
I135
I0
S'close'
p597
I0
tp598
a(I5
I4
I0
g544
I0
tp599
a(I5
I11
I0
S'more'
p600
I0
tp601
a(I7
I273
F-0.5
g546
I0
tp602
a(I7
I279
F0.25
g548
I0
tp603
a(I7
I311
I0
g550
I0
tp604
a(I8
I28
F-0.375
g552
I0
tp605
a(I8
I38
F0.25
g554
I0
tp606
a(I8
I39
I0
g556
I0
tp607
a(I8
I39
I0
g558
I0
tp608
a(I8
I88
I0
g560
I0
tp609
a(I9
I5
F0.375
g562
I0
tp610
a(I9
I5
F0.875
g564
I0
tp611
a(I10
I53
F0.875
S'happier'
p612
I0
tp613
a(I10
I102
F0.25
S'powerful'
p614
I0
tp615
a(I10
I102
F0.625
S'easy'
p616
I0
tp617
a(I11
I11
F0.375
S'similar'
p618
I0
tp619
a(I11
I13
F0.875
S'happy'
p620
I0
tp621
a(I11
I80
I0
g566
I0
tp622
a(I11
I186
F1.0
g568
I0
tp623
as(S'music'
p624
tp625
(lp626
(I11
I42
F0.875
S'music'
p627
I0
tp628
as(S'to'
p629
S'moto'
p630
g539
tp631
(lp632
(I4
I2
I0
g592
I0
tp633
a(I4
I15
F0.25
g594
I0
tp634
a(I4
I57
I0
g542
I0
tp635
a(I4
I135
I0
g597
I0
tp636
a(I5
I4
I0
g544
I0
tp637
a(I5
I11
I0
g600
I0
tp638
a(I7
I273
F-0.5
g546
I0
tp639
a(I7
I279
F0.25
g548
I0
tp640
a(I7
I311
I0
g550
I0
tp641
a(I8
I28
F-0.375
g552
I0
tp642
a(I8
I38
F0.25
g554
I0
tp643
a(I8
I39
I0
g556
I0
tp644
a(I8
I39
I0
g558
I0
tp645
a(I8
I88
I0
g560
I0
tp646
a(I9
I5
F0.375
g562
I0
tp647
a(I9
I5
F0.875
g564
I0
tp648
a(I10
I53
F0.875
g612
I0
tp649
a(I10
I102
F0.25
g614
I0
tp650
a(I10
I102
F0.625
g616
I0
tp651
a(I11
I11
F0.375
g618
I0
tp652
a(I11
I13
F0.875
g620
I0
tp653
a(I11
I80
I0
g566
I0
tp654
a(I11
I186
F1.0
g568
I0
tp655
a(I4
I2
I0
g592
I0
tp656
a(I4
I15
F0.25
g594
I0
tp657
a(I4
I57
I0
g542
I0
tp658
a(I4
I135
I0
g597
I0
tp659
a(I5
I4
I0
g544
I0
tp660
a(I5
I11
I0
g600
I0
tp661
a(I7
I273
F-0.5
g546
I0
tp662
a(I7
I279
F0.25
g548
I0
tp663
a(I7
I311
I0
g550
I0
tp664
a(I8
I28
F-0.375
g552
I0
tp665
a(I8
I38
F0.25
g554
I0
tp666
a(I8
I39
I0
g556
I0
tp667
a(I8
I39
I0
g558
I0
tp668
a(I8
I88
I0
g560
I0
tp669
a(I9
I5
F0.375
g562
I0
tp670
a(I9
I5
F0.875
g564
I0
tp671
a(I10
I53
F0.875
g612
I0
tp672
a(I10
I102
F0.25
g614
I0
tp673
a(I10
I102
F0.625
g616
I0
tp674
a(I11
I11
F0.375
g618
I0
tp675
a(I11
I13
F0.875
g620
I0
tp676
a(I11
I80
I0
g566
I0
tp677
a(I11
I186
F1.0
g568
I0
tp678
a(I2
I26
F0.375
S'new'
p679
I1
tp680
a(I2
I26
F-0.875
S'bother'
p681
I1
tp682
a(I4
I57
I0
g542
I1
tp683
a(I4
I135
I0
g597
I1
tp684
a(I5
I11
I0
g600
I1
tp685
a(I7
I279
F0.25
g548
I1
tp686
a(I8
I28
F-0.375
g552
I1
tp687
a(I8
I38
F0.25
g554
I1
tp688
a(I8
I39
I0
g556
I1
tp689
a(I8
I39
I0
g558
I1
tp690
a(I9
I5
F0.375
g562
I1
tp691
a(I9
I5
F0.875
g564
I1
tp692
a(I10
I53
F0.875
g612
I1
tp693
a(I11
I13
F0.875
g620
I1
tp694
as(S'with'
p695
S'battery'
p696
S'life'
p697
tp698
(lp699
(I4
I37
F1.0
g391
I0
tp700
a(I4
I45
F-0.25
g393
I0
tp701
a(I4
I49
F1.0
g395
I0
tp702
a(I4
I58
F-0.5
g397
I0
tp703
a(I5
I14
F0.625
g399
I0
tp704
a(I5
I14
F0.25
g401
I0
tp705
a(I5
I14
F0.375
g403
I0
tp706
a(I7
I289
F1.0
S'best'
p707
I0
tp708
a(I8
I20
F-0.5
S'less'
p709
I0
tp710
a(I8
I96
F1.0
S'good'
p711
I0
tp712
a(I11
I182
F-0.5
g416
I0
tp713
a(I11
I184
F1.0
g418
I0
tp714
a(I11
I184
F0.25
g420
I0
tp715
a(I1
I0
I0
g311
I1
tp716
a(I1
I2
I0
g313
I1
tp717
a(I2
I2
I0
S'incredible'
p718
I1
tp719
a(I4
I23
I0
g315
I1
tp720
a(I4
I24
I0
g389
I1
tp721
a(I4
I37
F1.0
g391
I1
tp722
a(I4
I45
F-0.25
g393
I1
tp723
a(I4
I49
F1.0
g395
I1
tp724
a(I4
I58
F-0.5
g397
I1
tp725
a(I4
I102
I0
g317
I1
tp726
a(I4
I104
F0.25
S'stellar'
p727
I1
tp728
a(I5
I14
F0.625
g399
I1
tp729
a(I5
I14
F0.25
g401
I1
tp730
a(I5
I14
F0.375
g403
I1
tp731
a(I6
I20
F0.375
S'much'
p732
I1
tp733
a(I6
I42
F1.0
S'better'
p734
I1
tp735
a(I7
I53
F-0.625
g405
I1
tp736
a(I7
I84
F0.875
g407
I1
tp737
a(I7
I84
I0
g409
I1
tp738
a(I7
I139
I0
g319
I1
tp739
a(I7
I289
F1.0
g707
I1
tp740
a(I7
I304
F0.125
S'spectacular'
p741
I1
tp742
a(I7
I317
I0
g321
I1
tp743
a(I8
I20
F-0.5
g709
I1
tp744
a(I8
I96
F1.0
g711
I1
tp745
a(I11
I30
I0
g412
I1
tp746
a(I11
I177
F1.0
g414
I1
tp747
a(I11
I182
F-0.5
g416
I1
tp748
a(I11
I184
F1.0
g418
I1
tp749
a(I11
I184
F0.25
g420
I1
tp750
a(I1
I22
F-0.375
S'daily'
p751
I19
tp752
a(I2
I2
I0
g718
I19
tp753
a(I4
I23
I0
g315
I19
tp754
a(I4
I24
I0
g389
I19
tp755
a(I4
I45
F-0.25
g393
I19
tp756
a(I4
I102
I0
g317
I19
tp757
a(I4
I104
F0.25
g727
I19
tp758
a(I5
I14
F0.25
g401
I19
tp759
a(I6
I42
F1.0
g734
I19
tp760
a(I7
I53
F-0.625
g405
I19
tp761
a(I7
I84
F0.875
g407
I19
tp762
a(I7
I84
I0
g409
I19
tp763
a(I7
I139
I0
g319
I19
tp764
a(I7
I188
F0.75
S'healthy'
p765
I19
tp766
a(I7
I289
F1.0
g707
I19
tp767
a(I7
I304
F0.125
g741
I19
tp768
a(I8
I20
F-0.5
g709
I19
tp769
a(I8
I96
F1.0
g711
I19
tp770
a(I11
I184
F0.25
g420
I19
tp771
a(I0
I1
I0
S'extensive'
p772
I15
tp773
a(I1
I0
I0
g311
I15
tp774
a(I1
I2
I0
g313
I15
tp775
a(I1
I16
I0
S'integrated'
p776
I15
tp777
a(I4
I37
F1.0
g391
I15
tp778
a(I4
I49
F1.0
g395
I15
tp779
a(I4
I58
F-0.5
g397
I15
tp780
a(I5
I14
F0.625
g399
I15
tp781
a(I5
I14
F0.375
g403
I15
tp782
a(I6
I20
F0.375
g732
I15
tp783
a(I6
I43
F0.25
S'bigger'
p784
I15
tp785
a(I6
I84
F0.625
S'removable'
p786
I15
tp787
a(I7
I17
I0
S'great'
p788
I15
tp789
a(I7
I160
F0.875
S'nice'
p790
I15
tp791
a(I7
I160
F-0.75
S'little'
p792
I15
tp793
a(I7
I248
F0.625
S'changeable'
p794
I15
tp795
a(I7
I298
F0.625
S'decent'
p796
I15
tp797
a(I7
I317
I0
g321
I15
tp798
a(I7
I345
I0
S'great'
p799
I15
tp800
a(I8
I126
I0
S'more'
p801
I15
tp802
a(I8
I126
F0.375
S'significant'
p803
I15
tp804
a(I8
I127
I0
S'curious'
p805
I15
tp806
a(I9
I20
F-0.75
S'single'
p807
I15
tp808
a(I10
I36
F0.125
S'able'
p809
I15
tp810
a(I11
I30
I0
g412
I15
tp811
a(I11
I96
F-0.25
S'low'
p812
I15
tp813
a(I11
I177
F1.0
g414
I15
tp814
a(I11
I182
F-0.5
g416
I15
tp815
a(I11
I184
F1.0
g418
I15
tp816
a(I11
I202
I0
S'great'
p817
I15
tp818
a(I11
I263
F0.625
S'removable'
p819
I15
tp820
as(S'specs'
p821
tp822
(lp823
(I4
I52
I0
S'more'
p824
I6
tp825
a(I4
I52
F0.875
S'important'
p826
I6
tp827
a(I7
I346
F1.0
S'best'
p828
I6
tp829
a(I8
I110
F-0.375
S'top'
p830
I6
tp831
a(I10
I99
F1.0
S'better'
p832
I6
tp833
as(S'smartphone'
p834
tp835
(lp836
(I1
I19
F1.0
S'best'
p837
I0
tp838
a(I1
I21
F0.125
S'first'
p839
I0
tp840
a(I1
I53
F0.625
S'easier'
p841
I0
tp842
a(I1
I53
I0
S'faster'
p843
I0
tp844
a(I3
I10
F0.375
S'interesting'
p845
I0
tp846
a(I3
I10
I0
S'least'
p847
I0
tp848
a(I3
I10
F0.125
S'popular'
p849
I0
tp850
a(I3
I10
I0
S'on-line'
p851
I0
tp852
a(I4
I28
I0
S'old'
p853
I0
tp854
a(I5
I9
F0.25
S'bigger'
p855
I0
tp856
a(I7
I44
F-0.5
S'long'
p857
I0
tp858
a(I7
I87
F1.0
S'best'
p859
I0
tp860
a(I7
I273
F0.375
S'new'
p861
I0
tp862
a(I11
I119
F0.125
S'first'
p863
I0
tp864
as(S'much'
p865
S'better'
p866
tp867
(lp868
(I10
I34
F0.375
S'much'
p869
I9
tp870
as(S'pocket'
p871
tp872
(lp873
(I3
I30
F-0.375
S'pull'
p874
I17
tp875
a(I5
I11
F-0.75
S'likely'
p876
I17
tp877
a(I7
I172
F0.125
S'enough'
p878
I17
tp879
as(S'touchless'
p880
S'control'
p881
tp882
(lp883
(I2
I3
F0.125
S'first'
p884
I0
tp885
a(I4
I108
F0.25
S'helpful'
p886
I0
tp887
a(I8
I44
I0
S'next'
p888
I0
tp889
a(I8
I44
I0
g888
I0
tp890
as(S'apps'
p891
tp892
(lp893
(I7
I82
I0
S'android'
p894
I0
tp895
a(I7
I88
F0.375
S'honest'
p896
I0
tp897
a(I8
I123
F-0.625
S'other'
p898
I0
tp899
a(I11
I263
F-0.5
S'open'
p900
I0
tp901
as(S'feels'
p902
tp903
(lp904
(I1
I12
F-0.625
S'light'
p905
I14
tp906
a(I1
I12
F1.0
S'good'
p907
I14
tp908
a(I3
I22
F0.25
S'powerful'
p909
I14
tp910
a(I6
I87
I0
S'great'
p911
I14
tp912
a(I11
I80
I0
S'incredible'
p913
I14
tp914
as(S'low'
p915
S'light'
p916
S'pictures'
p917
tp918
(lp919
(I3
I16
F-0.25
S'low'
p920
I0
tp921
a(I8
I59
F-0.25
S'low'
p922
I0
tp923
a(I11
I237
F-0.25
S'low'
p924
I0
tp925
as.