(dp0
(S'battery'
p1
S'life'
p2
tp3
(lp4
(I18
I63
F1.0
S'good'
p5
I1
tp6
a(I11
I14
F0.125
S'last'
p7
I15
tp8
a(I11
I14
F-0.5
S'long'
p9
I15
tp10
a(I16
I7
F-0.75
S'little'
p11
I15
tp12
a(I16
I28
F-0.625
S'light'
p13
I15
tp14
a(I16
I54
F-0.5
S'long'
p15
I15
tp16
a(I18
I54
F-0.75
S'dead'
p17
I15
tp18
a(I18
I63
F1.0
g5
I15
tp19
as(S't'
p20
S'mobile'
p21
tp22
(lp23
(I5
I5
F0.375
S'extra'
p24
I0
tp25
as(S'low'
p26
S'price'
p27
tp28
(lp29
(I11
I0
F-0.25
S'low'
p30
I8
tp31
a(I11
I0
F0.125
S'further'
p32
I8
tp33
a(I22
I1
F-0.25
S'low'
p34
I8
tp35
a(I23
I0
F-0.25
S'low'
p36
I8
tp37
as(S'calls'
p38
tp39
(lp40
(I8
I1
I0
S'few'
p41
I0
tp42
a(I18
I29
F-0.625
S'green'
p43
I0
tp44
as(S'sim'
p45
S'card'
p46
tp47
(lp48
(I4
I0
F-0.25
S'inexpensive'
p49
I0
tp50
as(S'text'
p51
tp52
(lp53
(I1
I2
I0
S'basic'
p54
I18
tp55
as(S'dual'
p56
S'sim'
p57
tp58
(lp59
(I16
I3
F1.0
S'good'
p60
I0
tp61
a(I18
I19
F0.5
S'attest'
p62
I0
tp63
as.