(dp0
(S'screen'
p1
S'size'
p2
tp3
(lp4
(I0
I4
I0
S'large'
p5
tp6
a(I0
I4
F0.75
S'beautiful'
p7
tp8
a(I22
I4
F0.25
S'bigger'
p9
tp10
a(I58
I3
F0.875
S'nice'
p11
tp12
a(I86
I0
F0.75
S'beautiful'
p13
tp14
a(I92
I3
I0
S'great'
p15
tp16
a(I92
I3
I0
S'big'
p17
tp18
a(I92
I3
F0.625
S'perfect'
p19
tp20
a(I112
I1
F0.25
S'largest'
p21
tp22
a(I120
I0
I0
S'large'
p23
tp24
a(I120
I0
I0
S'same'
p25
tp26
a(I120
I0
F-0.375
S'smaller'
p27
tp28
a(I137
I97
F-0.125
S'overall'
p29
tp30
a(I137
I100
F0.625
S'easy'
p31
tp32
a(I169
I5
I0
S'fast'
p33
tp34
a(I169
I5
F-0.125
S'super'
p35
tp36
a(I169
I5
F0.25
S'sharp'
p37
tp38
a(I172
I0
F0.75
S'due'
p39
tp40
a(I202
I3
F-0.625
S'light'
p41
tp42
a(I209
I26
F0.375
S'much'
p43
tp44
as(S'verizon'
p45
S'version'
p46
tp47
(lp48
(I43
I8
F-0.375
S'smaller'
p49
tp50
a(I76
I0
F-0.5
S'international'
p51
tp52
a(I168
I1
I0
S'android'
p53
tp54
a(I195
I41
F-0.625
S'other'
p55
tp56
as(S'something'
p57
tp58
(lp59
(I36
I1
F-0.25
S'past'
p60
tp61
a(I79
I62
F0.375
S'new'
p62
tp63
a(I137
I48
F-0.5
S'less'
p64
tp65
a(I137
I79
F0.375
S'new'
p66
tp67
a(I137
I86
F0.125
S'able'
p68
tp69
a(I137
I86
I0
S'fundamental'
p70
tp71
a(I155
I0
F-0.125
S'complex'
p72
tp73
a(I155
I34
F0.25
S'tier'
p74
tp75
a(I155
I34
I0
S'sized'
p76
tp77
a(I192
I3
F0.375
S'similar'
p78
tp79
a(I195
I41
F0.375
S'available'
p80
tp81
as(S'screen'
p82
S'to'
p83
S'turn'
p84
tp85
(lp86
(I124
I2
F0.875
S'lucky'
p87
tp88
a(I173
I8
F-0.375
S'double'
p89
tp90
a(I195
I5
F-0.625
S'sporadic'
p91
tp92
a(I195
I5
F1.0
S'best'
p93
tp94
as(S'a'
p95
S'motorola'
p96
S'droid'
p97
tp98
(lp99
(I48
I0
F0.25
S'original'
p100
tp101
as(S'nice'
p102
tp103
(lp104
(I210
I4
I0
S'big'
p105
tp106
as(S'call'
p107
S'quality'
p108
tp109
(lp110
(I60
I2
I0
S'great'
p111
tp112
a(I71
I8
F-0.5
S'call'
p113
tp114
a(I77
I5
F-0.625
S'other'
p115
tp116
a(I105
I7
I0
S'user'
p117
tp118
a(I123
I4
F-0.5
S'poor'
p119
tp120
a(I133
I0
F-0.5
S'call'
p121
tp122
a(I133
I7
F-0.5
S'call'
p123
tp124
a(I140
I38
I0
S'big'
p125
tp126
a(I140
I42
F0.125
S'tolerable'
p127
tp128
a(I167
I34
F0.25
S'stellar'
p129
tp130
as(S'version'
p131
tp132
(lp133
(I57
I17
I0
S'latest'
p134
tp135
a(I76
I0
F-0.5
g51
tp136
a(I79
I21
F0.375
S'newest'
p137
tp138
a(I82
I1
I0
S'android'
p139
tp140
a(I84
I7
F-0.375
S'black'
p141
tp142
a(I140
I26
F1.0
S'better'
p143
tp144
a(I168
I1
I0
g53
tp145
a(I195
I41
F-0.625
g55
tp146
a(I217
I41
F0.375
S'available'
p147
tp148
a(I217
I56
I0
S'american'
p149
tp150
as(S'droid'
p151
S'razr'
p152
S'maxx'
p153
tp154
(lp155
(I48
I0
F0.25
g100
tp156
a(I71
I8
I0
S'old'
p157
tp158
a(I71
I8
F0.875
S'happy'
p159
tp160
as(S'tons'
p161
S'on'
p162
S'back'
p163
tp164
(lp165
(I18
I4
I0
S'different'
p166
tp167
a(I36
I2
F-0.375
S'crazy'
p168
tp169
a(I43
I8
I0
S'more'
p170
tp171
a(I43
I8
I0
S'flush'
p172
tp173
a(I81
I6
F0.625
S'removable'
p174
tp175
a(I137
I39
I0
S'more'
p176
tp177
a(I155
I41
F1.0
S'better'
p178
tp179
a(I156
I1
I0
S'fast'
p180
tp181
a(I210
I9
I0
S'great'
p182
tp183
as(g95
S'samsung'
p184
S'galaxy'
p185
tp186
(lp187
(I137
I41
F-0.625
S'other'
p188
tp189
a(I210
I80
F-0.375
S'smaller'
p190
tp191
as(S'verizon'
p192
tp193
(lp194
(I43
I7
F0.25
S'original'
p195
tp196
a(I43
I8
F-0.375
g49
tp197
a(I46
I0
F0.375
S'available'
p198
tp199
a(I81
I2
I0
S'local'
p200
tp201
a(I120
I0
I0
S'great'
p202
tp203
a(I133
I0
F0.875
S'happy'
p204
tp205
a(I135
I5
F0.5
S'rid'
p206
tp207
a(I140
I57
I0
S'wish'
p208
tp209
a(I140
I57
F0.25
S'recent'
p210
tp211
a(I142
I1
F0.375
S'new'
p212
tp213
a(I152
I26
I0
S'local'
p214
tp215
a(I155
I40
F-0.375
S'smaller'
p216
tp217
a(I158
I2
F0.375
S'new'
p218
tp219
a(I195
I54
F0.75
S'due'
p220
tp221
a(I195
I58
F0.75
S'due'
p222
tp223
a(I216
I0
F0.625
S'easier'
p224
tp225
as(S'case'
p226
tp227
(lp228
(I42
I3
F-0.75
S'impossible'
p229
tp230
a(I79
I33
F-0.875
S'worst'
p231
tp232
a(I85
I3
F0.125
S'protective'
p233
tp234
a(I105
I8
F-0.25
S'thin'
p235
tp236
a(I112
I9
I0
S'rubberized'
p237
tp238
a(I112
I12
F0.625
S'easier'
p239
tp240
a(I112
I12
F0.125
S'protective'
p241
tp242
a(I134
I3
F0.125
S'protective'
p243
tp244
a(I142
I3
F0.125
S'protective'
p245
tp246
a(I155
I48
F-0.25
S'thin'
p247
tp248
a(I209
I30
F0.625
S'easy'
p249
tp250
a(I209
I30
F-0.25
S'hang'
p251
tp252
a(I210
I113
F0.125
S'protective'
p253
tp254
as(S'excellent'
p255
tp256
(lp257
(I56
I15
F0.25
S'portable'
p258
tp259
a(I167
I34
F0.625
S'easy'
p260
tp261
a(I194
I5
I0
S'snug'
p262
tp263
as(S'side'
p264
tp265
(lp266
(I44
I10
F1.0
S'good'
p267
tp268
a(I105
I10
F-0.5
S'open'
p269
tp270
a(I137
I109
F-0.625
S'other'
p271
tp272
as(S'and'
p273
S'battery'
p274
S'life'
p275
tp276
(lp277
(I16
I2
I0
S'great'
p278
tp279
a(I21
I1
F1.0
S'best'
p280
tp281
a(I25
I2
F-0.5
S'long'
p282
tp283
a(I44
I42
F1.0
S'best'
p284
tp285
a(I44
I42
F0.25
S'consistent'
p286
tp287
a(I44
I42
F-0.625
S'unstoppable'
p288
tp289
a(I64
I0
F1.0
S'good'
p290
tp291
a(I77
I6
I0
S'incredible'
p292
tp293
a(I79
I161
F-0.5
S'long'
p294
tp295
a(I89
I0
I0
S'great'
p296
tp297
a(I89
I6
F1.0
S'better'
p298
tp299
a(I96
I14
F1.0
S'good'
p300
tp301
a(I105
I8
I0
S'great'
p302
tp303
a(I137
I5
F1.0
S'better'
p304
tp305
a(I137
I5
I0
S'great'
p306
tp307
a(I137
I56
F0.5
S'plausible'
p308
tp309
a(I137
I56
F0.375
S'new'
p310
tp311
a(I146
I0
F0.25
S'favorite'
p312
tp313
a(I154
I13
F1.0
S'best'
p314
tp315
a(I154
I47
I0
S'great'
p316
tp317
a(I167
I1
F-0.5
S'long'
p318
tp319
a(I167
I23
F0.25
S'stellar'
p320
tp321
a(I169
I5
F-0.375
S'crazy'
p322
tp323
a(I169
I5
F1.0
S'good'
p324
tp325
a(I173
I14
F0.625
S'removable'
p326
tp327
a(I173
I14
F0.375
S'extended'
p328
tp329
a(I193
I8
I0
S'same'
p330
tp331
a(I195
I26
F1.0
S'good'
p332
tp333
a(I206
I2
F1.0
S'good'
p334
tp335
a(I217
I60
I0
S'current'
p336
tp337
a(I218
I0
I0
S'phenomenal'
p338
tp339
as(S'long'
p340
S'battery'
p341
S'life'
p342
tp343
(lp344
(I25
I2
F-0.5
g282
tp345
a(I25
I10
F0.875
S'important'
p346
tp347
a(I62
I5
F-0.5
S'heavy'
p348
tp349
a(I62
I5
F0.375
S'extended'
p350
tp351
a(I62
I5
I0
S'bionic'
p352
tp353
a(I79
I161
F-0.5
g294
tp354
a(I137
I56
F0.5
g308
tp355
a(I137
I56
F0.375
g310
tp356
a(I138
I1
F-0.25
S'battery'
p357
tp358
a(I138
I1
I0
S'such'
p359
tp360
a(I155
I32
I0
S'great'
p361
tp362
a(I167
I1
F-0.5
g318
tp363
a(I206
I2
F1.0
g334
tp364
as(S'software'
p365
tp366
(lp367
(I56
I13
F0.625
S'decent'
p368
tp369
a(I57
I15
I0
S'android'
p370
tp371
a(I72
I8
F-0.875
S'negative'
p372
tp373
a(I100
I3
F0.375
S'extra'
p374
tp375
a(I155
I6
I0
S'different'
p376
tp377
a(I179
I35
I0
S'most'
p378
tp379
a(I179
I35
F0.375
S'new'
p380
tp381
a(I195
I16
F-0.625
S'bad'
p382
tp383
a(I217
I48
I0
S'more'
p384
tp385
as(S'note'
p386
tp387
(lp388
(I16
I8
F-0.75
S'bright'
p389
tp390
a(I18
I1
I0
S'big'
p391
tp392
a(I18
I1
I0
S'big'
p393
tp394
a(I111
I3
I0
S'big'
p395
tp396
a(I167
I38
I0
S'rich'
p397
tp398
a(I167
I38
F-0.25
S'post-it'
p399
tp400
a(I167
I38
I0
S'useful'
p401
tp402
as(S'n'
p403
S'r'
p404
S'hand'
p405
tp406
(lp407
(I25
I8
F-0.625
S'other'
p408
tp409
a(I25
I8
I0
S'more'
p410
tp411
a(I58
I1
I0
S'great'
p412
tp413
a(I179
I32
F0.5
S'slick'
p414
tp415
a(I195
I51
F1.0
S'good'
p416
tp417
a(I210
I75
F-0.75
S'difficult'
p418
tp419
a(I217
I15
F-0.5
S'heavy'
p420
tp421
as(S'charge'
p422
tp423
(lp424
(I12
I4
F-0.75
S'single'
p425
tp426
a(I25
I3
I0
S'full'
p427
tp428
a(I25
I4
I0
S'full'
p429
tp430
a(I25
I4
I0
S'fast'
p431
tp432
a(I35
I1
F-0.125
S'slow'
p433
tp434
a(I35
I1
F-0.125
S'slow'
p435
tp436
a(I56
I5
F-0.75
S'single'
p437
tp438
a(I105
I6
F-0.75
S'single'
p439
tp440
a(I107
I7
F-0.75
S'dead'
p441
tp442
a(I107
I7
I0
S'full'
p443
tp444
a(I112
I1
F0.625
S'safe'
p445
tp446
a(I117
I14
F0.125
S'solid'
p447
tp448
a(I118
I8
F-0.75
S'single'
p449
tp450
a(I129
I6
F-0.125
S'slow'
p451
tp452
a(I137
I15
F-0.125
S'slow'
p453
tp454
as(S'on'
p455
S'verizon'
p456
S'version'
p457
tp458
(lp459
(I43
I8
F-0.375
g49
tp460
a(I76
I0
F-0.5
g51
tp461
a(I168
I1
I0
g53
tp462
a(I195
I41
F-0.625
g55
tp463
as(S'work'
p464
tp465
(lp466
(I174
I4
I0
S'initial'
p467
tp468
as(S'easy'
p469
S'to'
p470
S'use'
p471
tp472
(lp473
(I47
I2
F0.625
S'easy'
p474
tp475
a(I47
I2
I0
S'most'
p476
tp477
as(S'smartphone'
p478
tp479
(lp480
(I0
I7
F-0.75
S'wrong'
p481
tp482
a(I11
I13
F0.25
S'bigger'
p483
tp484
a(I11
I13
F0.875
S'nice'
p485
tp486
a(I31
I0
F0.125
S'first'
p487
tp488
a(I56
I0
F-0.5
S'long'
p489
tp490
a(I72
I0
F0.125
S'impressive'
p491
tp492
a(I72
I7
F-0.375
S'top'
p493
tp494
a(I97
I0
F0.125
S'first'
p495
tp496
a(I101
I0
F0.125
S'first'
p497
tp498
a(I137
I10
F0.25
S'recent'
p499
tp500
a(I137
I117
I0
S'common'
p501
tp502
a(I137
I117
I0
S'most'
p503
tp504
a(I137
I139
F0.625
S'necessary'
p505
tp506
a(I138
I1
F0.25
S'powerful'
p507
tp508
a(I154
I21
F1.0
S'better'
p509
tp510
a(I195
I12
F-0.375
S'serious'
p511
tp512
a(I195
I56
F1.0
S'good'
p513
tp514
a(I219
I1
F0.5
S'second'
p515
tp516
as(S'love'
p517
tp518
(lp519
(I16
I10
I0
S'slippery'
p520
tp521
as(S'volume'
p522
tp523
(lp524
(I11
I8
I0
S'full'
p525
tp526
a(I81
I6
F1.0
S'better'
p527
tp528
a(I105
I11
F0.25
S'changed'
p529
tp530
a(I155
I42
I0
S'different'
p531
tp532
a(I199
I7
F-0.25
S'lower'
p533
tp534
a(I209
I11
F0.625
S'easier'
p535
tp536
as(S'double'
p537
S'tap'
p538
tp539
(lp540
(I12
I1
F-0.375
S'double'
p541
tp542
a(I18
I5
F-0.375
S'double'
p543
tp544
a(I28
I7
F-0.375
S'double'
p545
tp546
a(I56
I9
F-0.375
S'double'
p547
tp548
a(I57
I7
F-0.375
S'double'
p549
tp550
a(I57
I8
F-0.375
S'double'
p551
tp552
a(I87
I7
F-0.375
S'double'
p553
tp554
a(I100
I5
F-0.375
S'double'
p555
tp556
a(I105
I10
F-0.375
S'double'
p557
tp558
a(I105
I14
F-0.375
S'double'
p559
tp560
a(I105
I14
I0
S'handy'
p561
tp562
a(I105
I14
F-0.375
S'double'
p563
tp564
a(I154
I38
F-0.375
S'double'
p565
tp566
a(I154
I38
F-0.375
S'double'
p567
tp568
a(I170
I7
F-0.375
S'double'
p569
tp570
a(I184
I6
F-0.375
S'double'
p571
tp572
a(I185
I1
F-0.375
S'double'
p573
tp574
a(I206
I2
F-0.375
S'double'
p575
tp576
as(S'verizon'
p577
S'and'
p578
S'lg'
p579
tp580
(lp581
(I43
I7
F0.25
g195
tp582
a(I43
I8
F-0.375
g49
tp583
a(I48
I3
F0.625
S'invasive'
p584
tp585
a(I73
I0
F0.125
S'usual'
p586
tp587
as(S'low'
p588
S'light'
p589
S'pictures'
p590
tp591
(lp592
(I96
I11
F-0.25
S'low'
p593
tp594
a(I137
I117
F1.0
S'better'
p595
tp596
a(I137
I117
F-0.25
S'low'
p597
tp598
a(I144
I7
F-0.25
S'low'
p599
tp600
a(I144
I7
F-0.625
S'light'
p601
tp602
a(I155
I16
F-0.25
S'low'
p603
tp604
a(I155
I16
F-0.625
S'average'
p605
tp606
a(I155
I16
F-0.25
S'low'
p607
tp608
a(I155
I17
F-0.25
S'low'
p609
tp610
as(S'problem'
p611
tp612
(lp613
(I166
I7
I0
S'real'
p614
tp615
a(I174
I7
I0
S'stable'
p616
tp617
a(I210
I113
I0
S'final'
p618
tp619
a(I210
I129
F0.25
S'biggest'
p620
tp621
a(I217
I4
F-0.75
S'unresponsive'
p622
tp623
as(S'double'
p624
S'tap'
p625
S'screen'
p626
tp627
(lp628
(I0
I4
I0
g5
tp629
a(I0
I4
F0.75
g7
tp630
a(I18
I5
F-0.375
g543
tp631
a(I57
I8
F-0.375
g551
tp632
a(I105
I10
F-0.375
g557
tp633
a(I105
I14
F-0.375
g559
tp634
a(I105
I14
I0
g561
tp635
a(I105
I14
F-0.375
g563
tp636
a(I154
I38
F-0.375
g565
tp637
a(I154
I38
F-0.375
g567
tp638
a(I173
I8
F-0.375
g89
tp639
a(I184
I6
F-0.375
g571
tp640
a(I206
I2
F-0.75
S'bright'
p641
tp642
a(I206
I2
I0
S'big'
p643
tp644
a(I206
I2
F-0.375
g575
tp645
as(g403
S'opinion'
p646
tp647
(lp648
(I26
I0
F1.0
S'best'
p649
tp650
a(I58
I9
F1.0
S'best'
p651
tp652
a(I155
I19
F-0.5
S'humble'
p653
tp654
a(I190
I2
F-0.5
S'humble'
p655
tp656
as(g403
S'low'
p657
S'light'
p658
tp659
(lp660
(I96
I11
F-0.25
g593
tp661
a(I137
I117
F-0.25
g597
tp662
a(I155
I16
F-0.25
g603
tp663
a(I155
I16
F-0.25
g607
tp664
a(I155
I17
F-0.25
g609
tp665
a(I155
I18
F-0.25
S'low'
p666
tp667
as(S'lg'
p668
S'g2'
p669
tp670
(lp671
(I44
I3
F0.375
S'new'
p672
tp673
a(I47
I11
F0.75
S'give'
p674
tp675
a(I49
I21
F1.0
S'good'
p676
tp677
a(I93
I1
F-0.75
S'wrong'
p678
tp679
a(I137
I3
F0.375
S'new'
p680
tp681
a(I137
I79
F-0.625
S'other'
p682
tp683
a(I137
I102
F0.5
S'true'
p684
tp685
a(I140
I2
F0.625
S'interested'
p686
tp687
a(I144
I2
F0.375
S'new'
p688
tp689
a(I154
I0
F0.375
S'new'
p690
tp691
a(I154
I0
F0.375
S'much'
p692
tp693
a(I155
I41
F-0.5
S'international'
p694
tp695
a(I173
I2
F-0.5
S'less'
p696
tp697
a(I176
I2
F-0.625
S'glad'
p698
tp699
a(I207
I0
I0
S'tech'
p700
tp701
a(I210
I81
F0.125
S'last'
p702
tp703
as(S'like'
p704
tp705
(lp706
(I79
I93
F0.375
S'much'
p707
tp708
as(S'need'
p709
tp710
(lp711
(I132
I1
I0
S'more'
p712
tp713
as(S'knock'
p714
S'on'
p715
S'feature'
p716
tp717
(lp718
(I22
I10
I0
S'cool'
p719
tp720
a(I58
I7
F0.625
S'convenient'
p721
tp722
a(I81
I2
F0.75
S'due'
p723
tp724
a(I133
I8
I0
S'special'
p725
tp726
a(I176
I7
I0
S'handy'
p727
tp728
a(I181
I0
I0
S'cool'
p729
tp730
a(I195
I18
F0.625
S'necessary'
p731
tp732
as(S'droid'
p733
S'maxx'
p734
tp735
(lp736
(I48
I0
F0.25
g100
tp737
a(I71
I2
F0.375
S'new'
p738
tp739
a(I71
I8
I0
g157
tp740
a(I71
I8
F0.875
g159
tp741
as(S'build'
p742
S'quality'
p743
tp744
(lp745
(I7
I0
F1.0
S'good'
p746
tp747
a(I7
I0
F0.125
S'solid'
p748
tp749
a(I137
I35
I0
S'great'
p750
tp751
a(I195
I9
I0
S'great'
p752
tp753
a(I195
I9
F-0.875
S'inferior'
p754
tp755
as(S'droid'
p756
tp757
(lp758
(I48
I0
F0.25
g100
tp759
a(I67
I5
I0
S'old'
p760
tp761
a(I71
I2
F0.375
g738
tp762
a(I71
I8
I0
g157
tp763
a(I115
I0
I0
S'old'
p764
tp765
a(I168
I1
F0.25
S'original'
p766
tp767
as(S'takes'
p768
S'great'
p769
S'pictures'
p770
tp771
(lp772
(I0
I4
I0
S'great'
p773
tp774
a(I46
I4
I0
S'great'
p775
tp776
a(I58
I4
I0
S'great'
p777
tp778
a(I101
I3
I0
S'great'
p779
tp780
a(I111
I4
I0
S'great'
p781
tp782
a(I214
I0
I0
S'great'
p783
tp784
as(S'features'
p785
tp786
(lp787
(I3
I0
I0
S'such'
p788
tp789
a(I24
I1
F-0.625
S'other'
p790
tp791
a(I31
I1
I0
S'many'
p792
tp793
a(I31
I1
I0
S'most'
p794
tp795
a(I38
I1
I0
S'fast'
p796
tp797
a(I38
I1
I0
S'quad'
p798
tp799
a(I38
I1
F0.25
S'favorite'
p800
tp801
a(I43
I5
I0
S'most'
p802
tp803
a(I43
I5
F0.375
S'extra'
p804
tp805
a(I44
I27
I0
S'most'
p806
tp807
a(I48
I5
I0
S'many'
p808
tp809
a(I53
I10
F-0.625
S'other'
p810
tp811
a(I57
I16
I0
S'great'
p812
tp813
a(I71
I15
I0
S'great'
p814
tp815
a(I79
I12
F0.625
S'easy'
p816
tp817
a(I79
I57
F0.125
S'key'
p818
tp819
a(I79
I57
I0
S'many'
p820
tp821
a(I84
I4
I0
S'many'
p822
tp823
a(I84
I4
I0
S'different'
p824
tp825
a(I99
I3
F0.875
S'nice'
p826
tp827
a(I112
I0
F-0.375
S'top'
p828
tp829
a(I112
I22
I0
S'many'
p830
tp831
a(I114
I3
I0
S'extensive'
p832
tp833
a(I123
I2
I0
S'big'
p834
tp835
a(I137
I5
F1.0
S'best'
p836
tp837
a(I137
I124
F0.375
S'available'
p838
tp839
a(I141
I1
I0
S'many'
p840
tp841
a(I141
I1
F0.375
S'new'
p842
tp843
a(I154
I18
F0.875
S'happy'
p844
tp845
a(I155
I8
I0
S'useful'
p846
tp847
a(I155
I32
I0
S'most'
p848
tp849
a(I167
I29
I0
S'fewer'
p850
tp851
a(I172
I0
I0
S'special'
p852
tp853
a(I177
I3
F1.0
S'best'
p854
tp855
a(I188
I1
F-0.25
S'ready'
p856
tp857
a(I194
I2
I0
S'many'
p858
tp859
a(I195
I7
I0
S'different'
p860
tp861
a(I195
I21
I0
S'useful'
p862
tp863
a(I210
I106
I0
S'more'
p864
tp865
a(I213
I0
F0.125
S'impressive'
p866
tp867
a(I217
I35
F0.375
S'new'
p868
tp869
as(S'great'
p870
S'battery'
p871
S'life'
p872
tp873
(lp874
(I8
I1
I0
S'great'
p875
tp876
a(I13
I2
I0
S'full'
p877
tp878
a(I16
I2
I0
g278
tp879
a(I32
I0
I0
S'great'
p880
tp881
a(I89
I0
I0
g296
tp882
a(I101
I4
I0
S'great'
p883
tp884
a(I101
I4
F0.125
S'plenty'
p885
tp886
a(I105
I8
I0
g302
tp887
a(I137
I5
F1.0
g304
tp888
a(I137
I5
I0
g306
tp889
a(I154
I13
F1.0
g314
tp890
a(I154
I47
I0
g316
tp891
a(I155
I32
I0
g361
tp892
a(I174
I6
I0
S'great'
p893
tp894
a(I176
I3
I0
S'great'
p895
tp896
a(I214
I0
I0
S'great'
p897
tp898
as(S'power'
p899
tp900
(lp901
(I0
I4
F-0.375
S'small'
p902
tp903
a(I38
I4
F0.25
S'used'
p904
tp905
a(I43
I12
F-0.625
S'push'
p906
tp907
a(I55
I3
F0.375
S'reliable'
p908
tp909
a(I64
I0
F0.125
S'dedicated'
p910
tp911
a(I137
I26
I0
S'high'
p912
tp913
as(S'lg'
p914
S'and'
p915
S'verizon'
p916
tp917
(lp918
(I43
I7
F0.25
g195
tp919
a(I43
I8
F-0.375
g49
tp920
a(I48
I3
F0.625
g584
tp921
a(I73
I0
F0.125
g586
tp922
as(S'deal'
p923
tp924
(lp925
(I0
I4
I0
S'great'
p926
tp927
a(I16
I20
I0
S'big'
p928
tp929
a(I22
I8
I0
S'big'
p930
tp931
a(I65
I0
F1.0
S'best'
p932
tp933
a(I106
I1
I0
S'big'
p934
tp935
a(I123
I2
I0
S'big'
p936
tp937
a(I137
I53
I0
S'big'
p938
tp939
a(I152
I11
I0
S'same'
p940
tp941
a(I152
I11
I0
S'android'
p942
tp943
a(I178
I1
I0
S'great'
p944
tp945
a(I179
I30
I0
S'big'
p946
tp947
a(I188
I0
F0.625
S'major'
p948
tp949
a(I203
I17
I0
S'penny'
p950
tp951
a(I204
I1
I0
S'big'
p952
tp953
a(I209
I16
I0
S'big'
p954
tp955
a(I209
I21
I0
S'big'
p956
tp957
a(I210
I40
I0
S'big'
p958
tp959
a(I210
I72
I0
S'big'
p960
tp961
a(I210
I93
I0
S'big'
p962
tp963
a(I217
I46
F1.0
S'good'
p964
tp965
a(I217
I59
I0
S'great'
p966
tp967
as(S'android'
p968
tp969
(lp970
(I16
I9
F0.125
S'typical'
p971
tp972
a(I28
I13
F0.125
S'native'
p973
tp974
a(I72
I0
I0
S'fourth'
p975
tp976
a(I79
I9
F-0.5
S'regular'
p977
tp978
a(I98
I1
F1.0
S'best'
p979
tp980
a(I110
I1
I0
S'only'
p981
tp982
a(I128
I0
F1.0
S'best'
p983
tp984
a(I154
I17
F0.5
S'second'
p985
tp986
a(I155
I5
I0
S'standard'
p987
tp988
a(I165
I0
F1.0
S'best'
p989
tp990
a(I166
I0
F0.125
S'first'
p991
tp992
a(I167
I29
F0.125
S'first'
p993
tp994
a(I182
I1
F0.125
S'last'
p995
tp996
a(I213
I5
F1.0
S'best'
p997
tp998
a(I217
I48
I0
S'most'
p999
tp1000
a(I217
I52
F0.125
S'first'
p1001
tp1002
a(I218
I1
F1.0
S'best'
p1003
tp1004
as(S'nexus'
p1005
tp1006
(lp1007
(I137
I1
F0.5
S'second'
p1008
tp1009
a(I174
I26
F-0.625
S'other'
p1010
tp1011
a(I199
I12
F-0.25
S'google'
p1012
tp1013
as(S'excellent'
p1014
S'battery'
p1015
S'life'
p1016
tp1017
(lp1018
(I56
I15
F0.25
g258
tp1019
a(I105
I8
I0
g302
tp1020
a(I154
I13
F1.0
g314
tp1021
as(S'and'
p1022
S'samsung'
p1023
S'galaxy'
p1024
tp1025
(lp1026
(I210
I80
F-0.375
g190
tp1027
as(S'thing'
p1028
tp1029
(lp1030
(I7
I3
I0
S'great'
p1031
tp1032
a(I11
I4
I0
S'only'
p1033
tp1034
a(I11
I10
I0
S'only'
p1035
tp1036
a(I28
I12
I0
S'only'
p1037
tp1038
a(I40
I1
F0.25
S'favorite'
p1039
tp1040
a(I44
I9
I0
S'most'
p1041
tp1042
a(I44
I9
F0.625
S'noticeable'
p1043
tp1044
a(I46
I5
I0
S'weird'
p1045
tp1046
a(I46
I5
F0.125
S'first'
p1047
tp1048
a(I71
I14
I0
S'same'
p1049
tp1050
a(I77
I0
F0.625
S'major'
p1051
tp1052
a(I79
I25
I0
S'normal'
p1053
tp1054
a(I79
I78
F0.25
S'biggest'
p1055
tp1056
a(I79
I91
F-0.625
S'other'
p1057
tp1058
a(I79
I91
F0.125
S'last'
p1059
tp1060
a(I86
I6
I0
S'big'
p1061
tp1062
a(I86
I6
F1.0
S'good'
p1063
tp1064
a(I96
I13
F1.0
S'best'
p1065
tp1066
a(I110
I1
I0
S'weird'
p1067
tp1068
a(I112
I21
I0
S'same'
p1069
tp1070
a(I112
I21
I0
S'most'
p1071
tp1072
a(I112
I21
F0.125
S'don'
p1073
tp1074
a(I115
I4
I0
S'only'
p1075
tp1076
a(I137
I128
F0.125
S'last'
p1077
tp1078
a(I140
I48
I0
S'same'
p1079
tp1080
a(I152
I1
I0
S'only'
p1081
tp1082
a(I154
I25
F1.0
S'good'
p1083
tp1084
a(I203
I2
I0
S'same'
p1085
tp1086
a(I210
I18
F-0.75
S'single'
p1087
tp1088
a(I210
I18
I0
S'most'
p1089
tp1090
a(I210
I18
F0.875
S'important'
p1091
tp1092
a(I210
I38
I0
S'only'
p1093
tp1094
a(I210
I66
F1.0
S'good'
p1095
tp1096
a(I210
I75
F-0.625
S'bad'
p1097
tp1098
as(S'point'
p1099
S'and'
p1100
S'shoot'
p1101
tp1102
(lp1103
(I210
I7
F1.0
S'good'
p1104
tp1105
a(I210
I7
F-0.5
S'regular'
p1106
tp1107
a(I210
I52
F-0.5
S'regular'
p1108
tp1109
a(I210
I53
F-0.5
S'regular'
p1110
tp1111
as(S'great'
p1112
S'battery'
p1113
tp1114
(lp1115
(I8
I1
I0
g875
tp1116
a(I13
I2
I0
g877
tp1117
a(I16
I2
I0
g278
tp1118
a(I44
I45
I0
S'great'
p1119
tp1120
a(I81
I6
I0
S'great'
p1121
tp1122
a(I89
I0
I0
g296
tp1123
a(I105
I8
I0
g302
tp1124
a(I133
I6
I0
S'great'
p1125
tp1126
a(I137
I5
F1.0
g304
tp1127
a(I137
I6
I0
S'great'
p1128
tp1129
a(I154
I13
F1.0
g314
tp1130
a(I174
I6
I0
g893
tp1131
as(S'quality'
p1132
tp1133
(lp1134
(I30
I2
I0
S'great'
p1135
tp1136
a(I60
I2
I0
g111
tp1137
a(I71
I8
F-0.5
g113
tp1138
a(I77
I5
F-0.625
g115
tp1139
a(I79
I57
F1.0
S'good'
p1140
tp1141
a(I113
I3
F0.5
S'second'
p1142
tp1143
a(I115
I1
I0
S'great'
p1144
tp1145
a(I123
I4
F-0.5
g119
tp1146
a(I133
I0
F-0.5
g121
tp1147
a(I133
I7
F-0.5
g123
tp1148
a(I137
I39
I0
S'high'
p1149
tp1150
a(I137
I106
I0
S'signal'
p1151
tp1152
a(I137
I119
F1.0
S'better'
p1153
tp1154
a(I140
I38
I0
g125
tp1155
a(I140
I42
F0.125
g127
tp1156
a(I154
I35
F-0.625
S'average'
p1157
tp1158
a(I155
I42
F1.0
S'good'
p1159
tp1160
a(I155
I42
F-0.875
S'harder'
p1161
tp1162
a(I156
I2
I0
S'great'
p1163
tp1164
a(I167
I34
F0.25
g129
tp1165
a(I195
I9
F-0.875
g754
tp1166
a(I195
I25
I0
S'high'
p1167
tp1168
a(I195
I25
F0.5
S'live'
p1169
tp1170
a(I217
I44
I0
S'many'
p1171
tp1172
a(I217
I44
I0
S'high'
p1173
tp1174
a(I217
I44
F0.25
S'portable'
p1175
tp1176
a(I219
I35
F0.375
S'reflective'
p1177
tp1178
as(S'fast'
p1179
tp1180
(lp1181
(I7
I0
F-0.125
S'super'
p1182
tp1183
a(I35
I1
I0
S'included'
p1184
tp1185
a(I47
I6
F-0.125
S'super'
p1186
tp1187
a(I146
I2
F-0.125
S'super'
p1188
tp1189
a(I179
I17
F-0.125
S'super'
p1190
tp1191
as(S'size'
p1192
tp1193
(lp1194
(I58
I3
F0.875
g11
tp1195
a(I61
I0
F0.125
S'first'
p1196
tp1197
a(I61
I0
F0.25
S'larger'
p1198
tp1199
a(I88
I1
I0
S'great'
p1200
tp1201
a(I92
I3
I0
g17
tp1202
a(I92
I3
F0.625
g19
tp1203
a(I94
I0
F0.625
S'right'
p1204
tp1205
a(I111
I3
F0.25
S'larger'
p1206
tp1207
a(I111
I3
I0
S'most'
p1208
tp1209
a(I111
I3
F1.0
S'good'
p1210
tp1211
a(I120
I0
I0
g25
tp1212
a(I120
I0
F-0.375
g27
tp1213
a(I137
I97
F-0.125
g29
tp1214
a(I172
I0
F0.75
g39
tp1215
a(I209
I25
I0
S'nervous'
p1216
tp1217
a(I209
I25
I0
S'big'
p1218
tp1219
a(I209
I28
F0.25
S'familiar'
p1220
tp1221
as(S'make'
p1222
tp1223
(lp1224
(I179
I25
F-0.375
S'smaller'
p1225
tp1226
as(S'lot'
p1227
S'of'
p1228
S'people'
p1229
tp1230
(lp1231
(I79
I13
F-0.5
S'miss'
p1232
tp1233
as(S'turn'
p1234
tp1235
(lp1236
(I79
I153
F0.125
S'first'
p1237
tp1238
as(S'listening'
p1239
S'to'
p1240
S'music'
p1241
tp1242
(lp1243
(I91
I5
F0.875
S'music'
p1244
tp1245
a(I112
I16
F1.0
S'best'
p1246
tp1247
a(I112
I16
F0.875
S'music'
p1248
tp1249
a(I195
I40
I0
S'same'
p1250
tp1251
as(S'battery'
p1252
S'life'
p1253
tp1254
(lp1255
(I8
I1
I0
g875
tp1256
a(I12
I3
F0.875
S'happy'
p1257
tp1258
a(I13
I2
I0
g877
tp1259
a(I16
I2
I0
g278
tp1260
a(I21
I1
F1.0
g280
tp1261
a(I25
I2
F-0.5
g282
tp1262
a(I25
I10
F0.875
g346
tp1263
a(I32
I0
I0
g880
tp1264
a(I44
I42
F1.0
g284
tp1265
a(I44
I42
F0.25
g286
tp1266
a(I44
I42
F-0.625
g288
tp1267
a(I62
I5
F-0.5
g348
tp1268
a(I62
I5
F0.375
g350
tp1269
a(I62
I5
I0
g352
tp1270
a(I64
I0
F1.0
g290
tp1271
a(I77
I6
I0
g292
tp1272
a(I79
I161
F-0.5
g294
tp1273
a(I89
I0
I0
g296
tp1274
a(I89
I6
F1.0
g298
tp1275
a(I96
I14
F1.0
g300
tp1276
a(I101
I4
I0
g883
tp1277
a(I101
I4
F0.125
g885
tp1278
a(I105
I8
I0
g302
tp1279
a(I129
I4
F0.375
S'much'
p1280
tp1281
a(I137
I5
F1.0
g304
tp1282
a(I137
I5
I0
g306
tp1283
a(I137
I56
F0.5
g308
tp1284
a(I137
I56
F0.375
g310
tp1285
a(I138
I1
F-0.25
g357
tp1286
a(I138
I1
I0
g359
tp1287
a(I146
I0
F0.25
g312
tp1288
a(I154
I13
F1.0
g314
tp1289
a(I154
I47
I0
g316
tp1290
a(I155
I32
I0
g361
tp1291
a(I167
I1
F-0.5
g318
tp1292
a(I167
I23
F0.25
g320
tp1293
a(I169
I5
F-0.375
g322
tp1294
a(I169
I5
F1.0
g324
tp1295
a(I173
I14
F0.625
g326
tp1296
a(I173
I14
F0.375
g328
tp1297
a(I174
I6
I0
g893
tp1298
a(I176
I3
I0
g895
tp1299
a(I185
I3
F0.125
S'impressive'
p1300
tp1301
a(I193
I8
I0
g330
tp1302
a(I195
I26
F1.0
g332
tp1303
a(I197
I10
F0.125
S'impressive'
p1304
tp1305
a(I206
I2
F1.0
g334
tp1306
a(I214
I0
I0
g897
tp1307
a(I217
I60
I0
g336
tp1308
a(I218
I0
I0
g338
tp1309
as(S'screen'
p1310
S'real'
p1311
S'estate'
p1312
tp1313
(lp1314
(I49
I11
I0
S'real'
p1315
tp1316
a(I57
I4
I0
S'valuable'
p1317
tp1318
a(I174
I19
I0
S'real'
p1319
tp1320
a(I209
I5
I0
S'real'
p1321
tp1322
as(S'take'
p1323
g95
S'picture'
p1324
tp1325
(lp1326
(I137
I111
F0.25
S'spontaneous'
p1327
tp1328
a(I137
I117
F-0.375
S'smaller'
p1329
tp1330
as(S'back'
p1331
tp1332
(lp1333
(I18
I4
I0
g166
tp1334
a(I36
I2
F-0.375
g168
tp1335
a(I43
I8
I0
g170
tp1336
a(I43
I8
I0
g172
tp1337
a(I81
I6
F0.625
g174
tp1338
a(I105
I8
F0.5
S'glossy'
p1339
tp1340
a(I136
I19
I0
S'such'
p1341
tp1342
a(I137
I38
I0
S'plastic'
p1343
tp1344
a(I137
I38
F0.125
S'solid'
p1345
tp1346
a(I137
I39
I0
g176
tp1347
a(I140
I76
I0
S'plastic'
p1348
tp1349
a(I155
I41
F1.0
g178
tp1350
a(I156
I1
I0
g180
tp1351
a(I174
I15
I0
S'plastic'
p1352
tp1353
a(I210
I9
I0
g182
tp1354
as(S'with'
p1355
S'one'
p1356
S'hand'
p1357
tp1358
(lp1359
(I25
I8
F-0.625
g408
tp1360
a(I25
I8
I0
g410
tp1361
a(I195
I51
F1.0
g416
tp1362
a(I210
I75
F-0.75
g418
tp1363
as(S'knock'
p1364
S'knock'
p1365
S'feature'
p1366
tp1367
(lp1368
(I22
I10
I0
g719
tp1369
a(I58
I7
F0.625
g721
tp1370
a(I81
I2
F0.75
g723
tp1371
a(I133
I8
I0
g725
tp1372
a(I167
I38
I0
S'more'
p1373
tp1374
a(I167
I38
I0
S'great'
p1375
tp1376
a(I176
I7
I0
g727
tp1377
a(I181
I0
I0
g729
tp1378
a(I195
I18
F0.625
g731
tp1379
a(I209
I17
I0
S'more'
p1380
tp1381
as(S'life'
p1382
tp1383
(lp1384
(I21
I1
F1.0
g280
tp1385
a(I25
I10
F0.875
g346
tp1386
a(I32
I0
I0
g880
tp1387
a(I62
I5
F-0.5
g348
tp1388
a(I62
I5
F0.375
g350
tp1389
a(I101
I4
I0
g883
tp1390
a(I101
I4
F0.125
g885
tp1391
a(I137
I5
I0
g306
tp1392
a(I138
I1
F-0.25
g357
tp1393
a(I138
I1
I0
g359
tp1394
a(I154
I47
I0
g316
tp1395
a(I155
I32
I0
g361
tp1396
a(I167
I23
F0.25
g320
tp1397
a(I169
I5
F-0.375
g322
tp1398
a(I169
I5
F1.0
g324
tp1399
a(I176
I3
I0
g895
tp1400
a(I185
I3
F0.125
g1300
tp1401
a(I197
I10
F0.125
g1304
tp1402
a(I214
I0
I0
g897
tp1403
a(I217
I60
I0
g336
tp1404
a(I218
I0
I0
g338
tp1405
as(g95
S'single'
p1406
S'charge'
p1407
tp1408
(lp1409
(I12
I4
F-0.75
g425
tp1410
a(I56
I5
F-0.75
g437
tp1411
a(I105
I6
F-0.75
g439
tp1412
a(I118
I8
F-0.75
g449
tp1413
as(S'quite'
p1414
g95
S'bit'
p1415
tp1416
(lp1417
(I0
I1
F-0.625
S'quite'
p1418
tp1419
as(S'2'
p1420
S'year'
p1421
S'contract'
p1422
tp1423
(lp1424
(I53
I0
I0
S'rebate'
p1425
tp1426
as(S'and'
p1427
S'battery'
p1428
S'lasts'
p1429
tp1430
(lp1431
(I54
I2
I0
S'least'
p1432
tp1433
a(I120
I0
F-0.5
S'longer'
p1434
tp1435
as(g95
S'full'
p1436
S'day'
p1437
tp1438
(lp1439
(I74
I2
I0
S'full'
p1440
tp1441
a(I87
I2
I0
S'full'
p1442
tp1443
a(I87
I2
F0.625
S'easy'
p1444
tp1445
a(I107
I4
I0
S'full'
p1446
tp1447
a(I118
I8
I0
S'full'
p1448
tp1449
a(I123
I14
I0
S'full'
p1450
tp1451
a(I137
I9
F0.125
S'last'
p1452
tp1453
a(I137
I9
I0
S'full'
p1454
tp1455
a(I152
I0
F0.125
S'last'
p1456
tp1457
a(I174
I7
F0.125
S'first'
p1458
tp1459
a(I174
I7
I0
S'full'
p1460
tp1461
a(I184
I4
I0
S'full'
p1462
tp1463
as(S'ton'
p1464
S'on'
p1465
S'back'
p1466
tp1467
(lp1468
(I18
I4
I0
g166
tp1469
a(I36
I2
F-0.375
g168
tp1470
a(I43
I8
I0
g170
tp1471
a(I43
I8
I0
g172
tp1472
a(I81
I6
F0.625
g174
tp1473
a(I137
I39
I0
g176
tp1474
a(I155
I41
F1.0
g178
tp1475
a(I156
I1
I0
g180
tp1476
a(I210
I9
I0
g182
tp1477
as(S'display'
p1478
tp1479
(lp1480
(I8
I1
I0
S'great'
p1481
tp1482
a(I46
I4
I0
S'great'
p1483
tp1484
a(I47
I8
F-0.75
S'bright'
p1485
tp1486
a(I47
I8
I0
S'large'
p1487
tp1488
a(I47
I8
F0.5
S'flat'
p1489
tp1490
a(I47
I8
F0.75
S'beautiful'
p1491
tp1492
a(I56
I4
F-0.5
S'less'
p1493
tp1494
a(I61
I0
I0
S'faster'
p1495
tp1496
a(I61
I0
F1.0
S'better'
p1497
tp1498
a(I74
I0
F0.75
S'beautiful'
p1499
tp1500
a(I76
I0
F0.875
S'happy'
p1501
tp1502
a(I97
I0
F-0.75
S'bright'
p1503
tp1504
a(I98
I1
I0
S'great'
p1505
tp1506
a(I104
I3
F0.75
S'beautiful'
p1507
tp1508
a(I105
I4
I0
S'great'
p1509
tp1510
a(I122
I1
F0.75
S'beautiful'
p1511
tp1512
a(I132
I1
I0
S'crisp'
p1513
tp1514
a(I154
I10
I0
S'closest'
p1515
tp1516
a(I155
I2
F0.875
S'nice'
p1517
tp1518
a(I156
I2
I0
S'big'
p1519
tp1520
a(I165
I0
F0.875
S'nice'
p1521
tp1522
a(I165
I1
F0.25
S'responsive'
p1523
tp1524
a(I181
I0
I0
S'large'
p1525
tp1526
a(I193
I4
I0
S'crystal'
p1527
tp1528
a(I195
I7
F0.625
S'superior'
p1529
tp1530
a(I195
I8
F0.25
S'sharp'
p1531
tp1532
a(I195
I28
I0
S'great'
p1533
tp1534
a(I204
I1
F0.875
S'nice'
p1535
tp1536
a(I208
I0
I0
S'great'
p1537
tp1538
a(I210
I43
I0
S'big'
p1539
tp1540
a(I210
I43
F0.75
S'beautiful'
p1541
tp1542
as(S'feel'
p1543
tp1544
(lp1545
(I38
I4
F0.5
S'graceful'
p1546
tp1547
a(I65
I4
I0
S'plastic'
p1548
tp1549
a(I65
I4
F-0.75
S'comfortable'
p1550
tp1551
a(I79
I3
I0
S'different'
p1552
tp1553
a(I79
I3
F0.625
S'easy'
p1554
tp1555
a(I105
I8
I0
S'plastic'
p1556
tp1557
a(I107
I3
F-0.125
S'overall'
p1558
tp1559
a(I107
I3
F0.875
S'happier'
p1560
tp1561
a(I112
I3
F0.125
S'solid'
p1562
tp1563
a(I117
I1
F0.875
S'important'
p1564
tp1565
a(I137
I35
F0.125
S'solid'
p1566
tp1567
a(I137
I68
I0
S'same'
p1568
tp1569
a(I199
I8
F0.375
S'similar'
p1570
tp1571
as(g95
S'galaxy'
p1572
S'nexus'
p1573
tp1574
(lp1575
(I137
I13
I0
S'old'
p1576
tp1577
a(I137
I45
I0
S'old'
p1578
tp1579
a(I137
I87
I0
S'old'
p1580
tp1581
a(I137
I112
I0
S'old'
p1582
tp1583
a(I137
I141
I0
S'old'
p1584
tp1585
a(I174
I13
F0.25
S'bigger'
p1586
tp1587
a(I174
I13
I0
S'old'
p1588
tp1589
as(S'low'
p1590
S'light'
p1591
tp1592
(lp1593
(I96
I11
F-0.25
g593
tp1594
a(I137
I117
F-0.25
g597
tp1595
a(I155
I16
F-0.25
g603
tp1596
a(I155
I16
F-0.25
g607
tp1597
a(I155
I17
F-0.25
g609
tp1598
a(I155
I18
F-0.25
g666
tp1599
as(S'samsung'
p1600
S'galaxy'
p1601
tp1602
(lp1603
(I137
I41
F-0.625
g188
tp1604
a(I210
I80
F-0.375
g190
tp1605
as(S'calls'
p1606
tp1607
(lp1608
(I42
I11
F0.875
S'music'
p1609
tp1610
a(I133
I1
F0.125
S'able'
p1611
tp1612
a(I137
I104
F1.0
S'good'
p1613
tp1614
as(S'volume'
p1615
S'and'
p1616
S'power'
p1617
tp1618
(lp1619
(I81
I6
F1.0
g527
tp1620
a(I105
I11
F0.25
g529
tp1621
a(I155
I42
I0
g531
tp1622
as(S'speaker'
p1623
tp1624
(lp1625
(I2
I5
I0
S'wish'
p1626
tp1627
a(I11
I7
F0.375
S'loud'
p1628
tp1629
a(I11
I10
I0
S'different'
p1630
tp1631
a(I11
I10
F-0.625
S'other'
p1632
tp1633
a(I54
I5
F0.625
S'acceptable'
p1634
tp1635
a(I57
I15
I0
S'only'
p1636
tp1637
a(I57
I15
F-0.875
S'negative'
p1638
tp1639
a(I57
I15
F-0.5
S'actual'
p1640
tp1641
a(I77
I5
I0
S'great'
p1642
tp1643
a(I104
I3
F1.0
S'good'
p1644
tp1645
a(I112
I16
F-0.75
S'single'
p1646
tp1647
a(I137
I103
I0
S'external'
p1648
tp1649
a(I140
I28
I0
S'external'
p1650
tp1651
a(I154
I33
F-0.75
S'single'
p1652
tp1653
a(I179
I57
I0
S'external'
p1654
tp1655
a(I179
I57
F0.875
S'music'
p1656
tp1657
as(S'battery'
p1658
S'life'
p1659
S'great'
p1660
tp1661
(lp1662
(I8
I1
I0
g875
tp1663
a(I13
I2
I0
g877
tp1664
a(I16
I2
I0
g278
tp1665
a(I32
I0
I0
g880
tp1666
a(I89
I0
I0
g296
tp1667
a(I101
I4
I0
g883
tp1668
a(I101
I4
F0.125
g885
tp1669
a(I105
I8
I0
g302
tp1670
a(I137
I5
F1.0
g304
tp1671
a(I137
I5
I0
g306
tp1672
a(I154
I13
F1.0
g314
tp1673
a(I154
I47
I0
g316
tp1674
a(I155
I32
I0
g361
tp1675
a(I174
I6
I0
g893
tp1676
a(I176
I3
I0
g895
tp1677
a(I214
I0
I0
g897
tp1678
as(S'time'
p1679
tp1680
(lp1681
(I14
I1
I0
S'same'
p1682
tp1683
a(I16
I18
F0.125
S'first'
p1684
tp1685
a(I27
I1
F0.125
S'first'
p1686
tp1687
a(I32
I1
F-0.75
S'little'
p1688
tp1689
a(I36
I0
F0.125
S'first'
p1690
tp1691
a(I42
I5
I0
S'full'
p1692
tp1693
a(I42
I10
F1.0
S'good'
p1694
tp1695
a(I44
I11
F0.625
S'easy'
p1696
tp1697
a(I44
I11
F-0.75
S'wrong'
p1698
tp1699
a(I44
I11
I0
S'most'
p1700
tp1701
a(I44
I28
F0.125
S'outside'
p1702
tp1703
a(I44
I28
F-0.5
S'longer'
p1704
tp1705
a(I48
I5
I0
S'same'
p1706
tp1707
a(I48
I5
F-0.5
S'open'
p1708
tp1709
a(I68
I12
F-0.5
S'long'
p1710
tp1711
a(I74
I3
F-0.375
S'double'
p1712
tp1713
a(I79
I113
I0
S'same'
p1714
tp1715
a(I79
I113
I0
S'more'
p1716
tp1717
a(I105
I14
I0
S'most'
p1718
tp1719
a(I105
I15
F0.125
S'first'
p1720
tp1721
a(I105
I15
I0
S'next'
p1722
tp1723
a(I110
I1
I0
S'same'
p1724
tp1725
a(I110
I1
F-0.5
S'long'
p1726
tp1727
a(I112
I8
F-0.75
S'wrong'
p1728
tp1729
a(I134
I1
F0.125
S'first'
p1730
tp1731
a(I134
I3
F0.125
S'first'
p1732
tp1733
a(I137
I17
F-0.5
S'long'
p1734
tp1735
a(I137
I98
I0
S'big'
p1736
tp1737
a(I144
I10
I0
S'next'
p1738
tp1739
a(I149
I0
F0.125
S'first'
p1740
tp1741
a(I155
I2
F0.625
S'noticeable'
p1742
tp1743
a(I155
I2
F-0.625
S'green'
p1744
tp1745
a(I174
I0
F0.5
S'willing'
p1746
tp1747
a(I174
I1
I0
S'same'
p1748
tp1749
a(I184
I7
F0.375
S'new'
p1750
tp1751
a(I189
I2
F-0.875
S'harder'
p1752
tp1753
a(I189
I5
I0
S'same'
p1754
tp1755
a(I192
I3
F0.125
S'first'
p1756
tp1757
a(I195
I1
I0
S'great'
p1758
tp1759
a(I195
I1
I0
S'same'
p1760
tp1761
a(I195
I2
F-0.875
S'hard'
p1762
tp1763
a(I195
I31
F0.125
S'first'
p1764
tp1765
a(I197
I14
F-0.875
S'hard'
p1766
tp1767
a(I203
I15
F0.125
S'first'
p1768
tp1769
a(I206
I1
F0.125
S'first'
p1770
tp1771
a(I209
I1
F-0.5
S'long'
p1772
tp1773
a(I217
I35
I0
S'old'
p1774
tp1775
as(g95
S'removable'
p1776
S'battery'
p1777
tp1778
(lp1779
(I62
I4
F0.625
S'removable'
p1780
tp1781
a(I79
I161
F-0.5
g294
tp1782
a(I81
I6
I0
g1121
tp1783
a(I112
I1
F0.625
S'removable'
p1784
tp1785
a(I118
I8
F0.625
S'removable'
p1786
tp1787
a(I137
I57
F0.125
S'essential'
p1788
tp1789
a(I173
I14
F0.625
g326
tp1790
a(I173
I14
F0.375
g328
tp1791
a(I210
I92
F0.625
S'removable'
p1792
tp1793
a(I217
I56
F0.625
S'removable'
p1794
tp1795
a(I217
I56
F-0.375
S'smaller'
p1796
tp1797
as(S'knock'
p1798
S'knock'
p1799
S'knock'
p1800
tp1801
(lp1802
(I44
I22
F0.375
S'new'
p1803
tp1804
a(I81
I2
F0.75
g723
tp1805
a(I167
I38
I0
g1373
tp1806
a(I209
I17
I0
g1380
tp1807
as(S'and'
p1808
S'power'
p1809
S'tons'
p1810
tp1811
(lp1812
(I64
I0
F0.125
g910
tp1813
as(S'samsung'
p1814
S'galaxy'
p1815
S'note'
p1816
tp1817
(lp1818
(I210
I80
F-0.375
g190
tp1819
as(S'knock'
p1820
tp1821
(lp1822
(I44
I22
F0.375
g1803
tp1823
a(I81
I2
F0.75
g723
tp1824
a(I167
I38
I0
g1373
tp1825
a(I209
I17
I0
g1380
tp1826
as(g95
S'protective'
p1827
S'case'
p1828
tp1829
(lp1830
(I85
I3
F0.125
g233
tp1831
a(I112
I12
F0.625
g239
tp1832
a(I112
I12
F0.125
g241
tp1833
a(I134
I3
F0.125
g243
tp1834
a(I142
I3
F0.125
g245
tp1835
a(I210
I113
F0.125
g253
tp1836
as(S'have'
p1837
S'small'
p1838
S'hands'
p1839
tp1840
(lp1841
(I1
I6
F-0.375
S'small'
p1842
tp1843
a(I107
I7
F-0.375
S'small'
p1844
tp1845
a(I155
I37
F-0.375
S'small'
p1846
tp1847
a(I195
I52
F-0.375
S'small'
p1848
tp1849
a(I210
I77
F-0.375
S'small'
p1850
tp1851
as(S'galaxy'
p1852
S'nexus'
p1853
tp1854
(lp1855
(I137
I13
I0
g1576
tp1856
a(I137
I45
I0
g1578
tp1857
a(I137
I87
I0
g1580
tp1858
a(I137
I112
I0
g1582
tp1859
a(I137
I141
I0
g1584
tp1860
a(I174
I13
F0.25
g1586
tp1861
a(I174
I13
I0
g1588
tp1862
as(g95
S'big'
p1863
S'plus'
p1864
tp1865
(lp1866
(I169
I6
I0
S'big'
p1867
tp1868
a(I210
I127
I0
S'big'
p1869
tp1870
as(S'screen'
p1871
tp1872
(lp1873
(I0
I4
I0
g5
tp1874
a(I0
I4
F0.75
g7
tp1875
a(I1
I5
I0
S'great'
p1876
tp1877
a(I1
I5
F-0.625
S'light'
p1878
tp1879
a(I1
I5
F0.25
S'bigger'
p1880
tp1881
a(I11
I2
F0.375
S'much'
p1882
tp1883
a(I11
I2
F0.5
S'possible'
p1884
tp1885
a(I16
I5
I0
S'such'
p1886
tp1887
a(I16
I5
I0
S'large'
p1888
tp1889
a(I17
I0
F0.5
S'touch'
p1890
tp1891
a(I21
I3
F0.5
S'touch'
p1892
tp1893
a(I21
I11
F0.125
S'first'
p1894
tp1895
a(I21
I11
F-0.75
S'wild'
p1896
tp1897
a(I22
I4
F0.25
g9
tp1898
a(I25
I2
I0
S'big'
p1899
tp1900
a(I33
I3
I0
S'large'
p1901
tp1902
a(I33
I8
F0.25
S'larger'
p1903
tp1904
a(I37
I1
F0.25
S'bigger'
p1905
tp1906
a(I38
I3
F-0.625
S'light'
p1907
tp1908
a(I38
I4
I0
S'fast'
p1909
tp1910
a(I50
I1
I0
S'large'
p1911
tp1912
a(I57
I4
I0
g1317
tp1913
a(I58
I0
F-0.25
S'giant'
p1914
tp1915
a(I58
I0
F-0.875
S'hard'
p1916
tp1917
a(I58
I2
F0.125
S'capable'
p1918
tp1919
a(I60
I2
F0.75
S'beautiful'
p1920
tp1921
a(I63
I1
I0
S'big'
p1922
tp1923
a(I67
I3
I0
S'large'
p1924
tp1925
a(I79
I28
F-0.375
S'unacceptable'
p1926
tp1927
a(I79
I32
F-0.375
S'top'
p1928
tp1929
a(I79
I87
F0.5
S'whole'
p1930
tp1931
a(I79
I110
I0
S'most'
p1932
tp1933
a(I79
I129
F-0.375
S'black'
p1934
tp1935
a(I79
I129
F-0.25
S'white'
p1936
tp1937
a(I79
I154
I0
S'blue'
p1938
tp1939
a(I85
I7
I0
S'incredible'
p1940
tp1941
a(I86
I0
F0.75
g13
tp1942
a(I89
I1
F-0.75
S'bright'
p1943
tp1944
a(I90
I1
F0.5
S'clear'
p1945
tp1946
a(I91
I4
I0
S'crystal'
p1947
tp1948
a(I91
I4
F0.5
S'clear'
p1949
tp1950
a(I92
I3
I0
g15
tp1951
a(I96
I5
F0.75
S'beautiful'
p1952
tp1953
a(I104
I3
I0
S'large'
p1954
tp1955
a(I105
I8
F0.625
S'easy'
p1956
tp1957
a(I109
I1
F-0.75
S'bright'
p1958
tp1959
a(I110
I0
F0.25
S'sharp'
p1960
tp1961
a(I112
I1
F0.25
g21
tp1962
a(I115
I1
I0
S'big'
p1963
tp1964
a(I117
I4
I0
S'big'
p1965
tp1966
a(I118
I8
F-0.75
S'bright'
p1967
tp1968
a(I120
I0
I0
g23
tp1969
a(I124
I2
F0.875
g87
tp1970
a(I129
I3
F0.5
S'clear'
p1971
tp1972
a(I130
I11
F-0.625
S'other'
p1973
tp1974
a(I131
I0
I0
S'unbelievable'
p1975
tp1976
a(I133
I3
F0.25
S'larger'
p1977
tp1978
a(I133
I3
F0.5
S'clearer'
p1979
tp1980
a(I133
I3
F0.25
S'sharper'
p1981
tp1982
a(I136
I0
I0
S'great'
p1983
tp1984
a(I136
I4
I0
S'entire'
p1985
tp1986
a(I136
I22
I0
S'big'
p1987
tp1988
a(I137
I94
F-0.75
S'bright'
p1989
tp1990
a(I137
I100
F0.625
g31
tp1991
a(I138
I0
F0.875
S'nice'
p1992
tp1993
a(I140
I84
I0
S'large'
p1994
tp1995
a(I141
I0
I0
S'large'
p1996
tp1997
a(I143
I1
F-0.625
S'average'
p1998
tp1999
a(I148
I2
I0
S'full'
p2000
tp2001
a(I152
I18
F-0.875
S'harder'
p2002
tp2003
a(I152
I18
F-0.875
S'harder'
p2004
tp2005
a(I152
I21
I0
S'more'
p2006
tp2007
a(I152
I25
F0.25
S'bigger'
p2008
tp2009
a(I152
I25
F0.75
S'due'
p2010
tp2011
a(I152
I25
I0
S'middle'
p2012
tp2013
a(I155
I37
I0
S'big'
p2014
tp2015
a(I163
I0
I0
S'big'
p2016
tp2017
a(I167
I1
F1.0
S'best'
p2018
tp2019
a(I167
I1
I0
S'fast'
p2020
tp2021
a(I167
I5
F-0.375
S'small'
p2022
tp2023
a(I167
I29
F-0.375
S'smaller'
p2024
tp2025
a(I167
I31
I0
S'large'
p2026
tp2027
a(I169
I5
I0
g33
tp2028
a(I169
I5
F-0.125
g35
tp2029
a(I169
I5
F0.25
g37
tp2030
a(I173
I3
F0.25
S'bigger'
p2031
tp2032
a(I173
I8
F-0.375
g89
tp2033
a(I185
I4
I0
S'great'
p2034
tp2035
a(I187
I1
I0
S'large'
p2036
tp2037
a(I187
I1
F0.5
S'clear'
p2038
tp2039
a(I187
I1
F0.625
S'easy'
p2040
tp2041
a(I194
I0
I0
S'unbelievable'
p2042
tp2043
a(I195
I5
F-0.625
g91
tp2044
a(I195
I5
F1.0
g93
tp2045
a(I195
I44
F0.75
S'beautiful'
p2046
tp2047
a(I197
I2
F0.25
S'larger'
p2048
tp2049
a(I197
I8
I0
S'incredible'
p2050
tp2051
a(I202
I2
I0
S'crisp'
p2052
tp2053
a(I202
I3
F-0.625
g41
tp2054
a(I206
I2
F-0.75
g641
tp2055
a(I206
I2
I0
g643
tp2056
a(I209
I26
F0.375
g43
tp2057
a(I210
I78
F0.25
S'biggest'
p2058
tp2059
a(I210
I78
F0.5
S'possible'
p2060
tp2061
a(I210
I126
F0.875
S'nice'
p2062
tp2063
a(I212
I0
F0.75
S'beautiful'
p2064
tp2065
a(I212
I1
F-0.375
S'top'
p2066
tp2067
a(I212
I1
F0.5
S'touch'
p2068
tp2069
a(I217
I2
F-0.75
S'bright'
p2070
tp2071
a(I217
I2
F0.25
S'dim'
p2072
tp2073
a(I217
I4
F0.5
S'touch'
p2074
tp2075
a(I217
I5
I0
S'old'
p2076
tp2077
a(I217
I60
F-0.75
S'difficult'
p2078
tp2079
a(I218
I0
F0.75
S'beautiful'
p2080
tp2081
as(S'look'
p2082
tp2083
(lp2084
(I44
I8
I0
S'metallic'
p2085
tp2086
a(I58
I0
F1.0
S'good'
p2087
tp2088
a(I58
I1
F0.5
S'glossy'
p2089
tp2090
a(I79
I46
F0.25
S'sharp'
p2091
tp2092
a(I167
I11
I0
S'net'
p2093
tp2094
a(I195
I46
F-0.625
S'clean'
p2095
tp2096
as(g1420
S'days'
p2097
tp2098
(lp2099
(I79
I162
I0
S'more'
p2100
tp2101
a(I90
I0
F-0.625
S'moderate'
p2102
tp2103
a(I117
I5
I0
S'few'
p2104
tp2105
a(I165
I3
I0
S'few'
p2106
tp2107
a(I170
I2
I0
S'full'
p2108
tp2109
as(S'samsung'
p2110
tp2111
(lp2112
(I40
I0
F0.25
S'tired'
p2113
tp2114
a(I119
I2
F0.875
S'nice'
p2115
tp2116
a(I137
I41
F-0.625
g188
tp2117
a(I169
I0
I0
S'big'
p2118
tp2119
a(I210
I80
F-0.375
g190
tp2120
a(I211
I3
I0
S'old'
p2121
tp2122
a(I217
I30
F0.875
S'nice'
p2123
tp2124
a(I217
I32
I0
S'old'
p2125
tp2126
a(I217
I35
F0.25
S'recent'
p2127
tp2128
as(S'camera'
p2129
tp2130
(lp2131
(I4
I9
F0.25
S'professional'
p2132
tp2133
a(I10
I2
I0
S'phenomenal'
p2134
tp2135
a(I22
I11
I0
S'great'
p2136
tp2137
a(I30
I3
F1.0
S'good'
p2138
tp2139
a(I38
I4
F1.0
S'good'
p2140
tp2141
a(I56
I15
I0
S'most'
p2142
tp2143
a(I71
I6
I0
S'great'
p2144
tp2145
a(I71
I12
F-0.5
S'regular'
p2146
tp2147
a(I71
I12
F-0.75
S'dark'
p2148
tp2149
a(I72
I3
F-0.5
S'weak'
p2150
tp2151
a(I76
I0
F0.125
S'impressive'
p2152
tp2153
a(I79
I161
F1.0
S'good'
p2154
tp2155
a(I96
I9
F1.0
S'good'
p2156
tp2157
a(I96
I9
F0.25
S'stellar'
p2158
tp2159
a(I96
I12
F0.5
S'second'
p2160
tp2161
a(I99
I4
F1.0
S'better'
p2162
tp2163
a(I112
I18
I0
S'rear'
p2164
tp2165
a(I137
I113
I0
S'different'
p2166
tp2167
a(I137
I115
I0
S'rear'
p2168
tp2169
a(I137
I115
F0.125
S'impressive'
p2170
tp2171
a(I137
I117
I0
S'real'
p2172
tp2173
a(I137
I127
F0.125
S'capable'
p2174
tp2175
a(I137
I128
F1.0
S'best'
p2176
tp2177
a(I146
I0
F1.0
S'best'
p2178
tp2179
a(I154
I22
F-0.625
S'bad'
p2180
tp2181
a(I155
I13
I0
S'more'
p2182
tp2183
a(I155
I13
I0
S'great'
p2184
tp2185
a(I155
I15
F-0.5
S'regular'
p2186
tp2187
a(I155
I17
F1.0
S'better'
p2188
tp2189
a(I155
I20
F0.375
S'extra'
p2190
tp2191
a(I155
I20
F0.5
S'second'
p2192
tp2193
a(I157
I0
I0
S'great'
p2194
tp2195
a(I162
I1
F-0.375
S'killer'
p2196
tp2197
a(I166
I5
F1.0
S'good'
p2198
tp2199
a(I167
I33
F1.0
S'good'
p2200
tp2201
a(I167
I33
F1.0
S'better'
p2202
tp2203
a(I174
I13
I0
S'quick'
p2204
tp2205
a(I190
I6
I0
S'great'
p2206
tp2207
a(I195
I11
F1.0
S'good'
p2208
tp2209
a(I195
I16
F0.125
S'capable'
p2210
tp2211
a(I197
I2
F0.875
S'nice'
p2212
tp2213
a(I206
I2
F-0.5
S'open'
p2214
tp2215
a(I217
I13
I0
S'most'
p2216
tp2217
a(I217
I26
F0.25
S'larger'
p2218
tp2219
a(I217
I26
F0.125
S'farther'
p2220
tp2221
a(I220
I5
I0
S'great'
p2222
tp2223
as(S'power'
p2224
S'and'
p2225
S'volume'
p2226
tp2227
(lp2228
(I81
I6
F1.0
g527
tp2229
a(I105
I11
F0.25
g529
tp2230
a(I155
I42
I0
g531
tp2231
as(S'galaxy'
p2232
tp2233
(lp2234
(I105
I6
F-0.5
S'heavier'
p2235
tp2236
a(I105
I8
I0
S'plastic'
p2237
tp2238
a(I112
I1
I0
S'such'
p2239
tp2240
a(I137
I13
I0
g1576
tp2241
a(I137
I45
I0
g1578
tp2242
a(I137
I87
I0
g1580
tp2243
a(I137
I112
I0
g1582
tp2244
a(I137
I141
I0
g1584
tp2245
a(I169
I2
F0.25
S'original'
p2246
tp2247
a(I174
I13
F0.25
g1586
tp2248
a(I174
I13
I0
g1588
tp2249
a(I219
I35
F0.5
S'comparable'
p2250
tp2251
as(S'pictures'
p2252
tp2253
(lp2254
(I0
I4
I0
g773
tp2255
a(I4
I8
I0
S'incredible'
p2256
tp2257
a(I25
I8
F0.875
S'nice'
p2258
tp2259
a(I44
I25
F1.0
S'good'
p2260
tp2261
a(I46
I4
I0
g775
tp2262
a(I56
I13
F1.0
S'good'
p2263
tp2264
a(I58
I4
I0
g777
tp2265
a(I65
I8
I0
S'many'
p2266
tp2267
a(I65
I8
I0
S'more'
p2268
tp2269
a(I101
I3
I0
g779
tp2270
a(I111
I4
I0
g781
tp2271
a(I137
I117
F1.0
g595
tp2272
a(I144
I7
F-0.25
g599
tp2273
a(I144
I7
F-0.625
g601
tp2274
a(I155
I16
F-0.625
g605
tp2275
a(I155
I21
F0.625
S'square'
p2276
tp2277
a(I185
I6
I0
S'great'
p2278
tp2279
a(I204
I12
I0
S'great'
p2280
tp2281
a(I210
I126
F1.0
S'good'
p2282
tp2283
a(I214
I0
I0
g783
tp2284
a(I219
I31
F0.125
S'able'
p2285
tp2286
a(I219
I31
F0.875
S'music'
p2287
tp2288
as(S'tap'
p2289
S'on'
p2290
S'screen'
p2291
tp2292
(lp2293
(I0
I4
I0
g5
tp2294
a(I0
I4
F0.75
g7
tp2295
a(I18
I5
F-0.375
g543
tp2296
a(I38
I3
F-0.625
g1907
tp2297
a(I57
I8
F-0.375
g551
tp2298
a(I79
I154
I0
g1938
tp2299
a(I105
I10
F-0.375
g557
tp2300
a(I105
I14
F-0.375
g559
tp2301
a(I105
I14
I0
g561
tp2302
a(I105
I14
F-0.375
g563
tp2303
a(I112
I10
F0.375
S'extra'
p2304
tp2305
a(I112
I10
F0.375
S'extra'
p2306
tp2307
a(I152
I21
I0
S'most'
p2308
tp2309
a(I152
I21
I0
g2006
tp2310
a(I154
I38
F-0.375
g565
tp2311
a(I154
I38
F-0.375
g567
tp2312
a(I173
I8
F-0.375
g89
tp2313
a(I184
I6
F-0.375
g571
tp2314
a(I206
I2
F-0.75
g641
tp2315
a(I206
I2
I0
g643
tp2316
a(I206
I2
F-0.375
g575
tp2317
as(S'on'
p2318
S'lg'
p2319
S'g2'
p2320
tp2321
(lp2322
(I44
I3
F0.375
g672
tp2323
a(I47
I11
F0.75
g674
tp2324
a(I49
I21
F1.0
g676
tp2325
a(I93
I1
F-0.75
g678
tp2326
a(I137
I3
F0.375
g680
tp2327
a(I137
I79
F-0.625
g682
tp2328
a(I137
I102
F0.5
g684
tp2329
a(I140
I2
F0.625
g686
tp2330
a(I144
I2
F0.375
g688
tp2331
a(I154
I0
F0.375
g690
tp2332
a(I154
I0
F0.375
g692
tp2333
a(I155
I41
F-0.5
g694
tp2334
a(I173
I2
F-0.5
g696
tp2335
a(I207
I0
I0
g700
tp2336
a(I210
I81
F0.125
g702
tp2337
as(S'people'
p2338
tp2339
(lp2340
(I33
I8
I0
S'most'
p2341
tp2342
a(I33
I9
F0.125
S'enough'
p2343
tp2344
a(I33
I9
I0
S'most'
p2345
tp2346
a(I44
I23
I0
S'most'
p2347
tp2348
a(I58
I7
F-0.625
S'other'
p2349
tp2350
a(I79
I0
I0
S'multiple'
p2351
tp2352
a(I79
I13
F-0.5
g1232
tp2353
a(I79
I84
I0
S'most'
p2354
tp2355
a(I79
I140
I0
S'most'
p2356
tp2357
a(I79
I140
F0.25
S'familiar'
p2358
tp2359
a(I112
I16
I0
S'most'
p2360
tp2361
a(I137
I55
I0
S'most'
p2362
tp2363
a(I137
I62
I0
S'most'
p2364
tp2365
a(I137
I84
I0
S'many'
p2366
tp2367
a(I137
I84
F-0.75
S'hate'
p2368
tp2369
a(I137
I100
F-0.625
S'averaged'
p2370
tp2371
a(I137
I101
F-0.375
S'small'
p2372
tp2373
a(I155
I28
F-0.625
S'other'
p2374
tp2375
a(I165
I9
F0.25
S'familiar'
p2376
tp2377
a(I210
I93
I0
S'many'
p2378
tp2379
a(I217
I50
F-0.5
S'sure'
p2380
tp2381
a(I217
I50
I0
S'many'
p2382
tp2383
as(S'tons'
p2384
tp2385
(lp2386
(I58
I0
F-0.5
S'sure'
p2387
tp2388
a(I217
I39
F0.875
S'music'
p2389
tp2390
as(S'feature'
p2391
tp2392
(lp2393
(I4
I2
I0
S'same'
p2394
tp2395
a(I22
I10
I0
g719
tp2396
a(I38
I7
I0
S'cool'
p2397
tp2398
a(I42
I10
I0
S'great'
p2399
tp2400
a(I48
I3
F0.25
S'favorite'
p2401
tp2402
a(I50
I4
F0.25
S'favorite'
p2403
tp2404
a(I58
I7
F0.625
g721
tp2405
a(I58
I9
I0
S'more'
p2406
tp2407
a(I79
I66
I0
S'screen'
p2408
tp2409
a(I79
I70
I0
S'handy'
p2410
tp2411
a(I96
I0
I0
S'most'
p2412
tp2413
a(I96
I0
F0.875
S'important'
p2414
tp2415
a(I99
I4
F0.25
S'favorite'
p2416
tp2417
a(I99
I5
I0
S'great'
p2418
tp2419
a(I105
I15
F0.25
S'helpful'
p2420
tp2421
a(I133
I8
I0
g725
tp2422
a(I137
I10
F-0.75
S'single'
p2423
tp2424
a(I137
I10
F1.0
S'best'
p2425
tp2426
a(I137
I20
F0.5
S'second'
p2427
tp2428
a(I137
I20
F0.25
S'favorite'
p2429
tp2430
a(I137
I101
F-0.625
S'other'
p2431
tp2432
a(I137
I101
I0
S'great'
p2433
tp2434
a(I154
I15
I0
S'specific'
p2435
tp2436
a(I154
I38
F0.375
S'interesting'
p2437
tp2438
a(I155
I26
I0
S'useful'
p2439
tp2440
a(I167
I38
I0
g1375
tp2441
a(I167
I44
F0.875
S'nice'
p2442
tp2443
a(I167
I44
F0.125
S'key'
p2444
tp2445
a(I176
I7
I0
g727
tp2446
a(I181
I0
I0
g729
tp2447
a(I195
I18
F0.625
g731
tp2448
a(I217
I11
F0.375
S'new'
p2449
tp2450
as(S'razr'
p2451
S'maxx'
p2452
tp2453
(lp2454
(I71
I8
F0.875
g159
tp2455
a(I184
I7
F0.375
S'new'
p2456
tp2457
as(S'battery'
p2458
tp2459
(lp2460
(I0
I0
F0.125
S'first'
p2461
tp2462
a(I0
I0
F0.25
S'larger'
p2463
tp2464
a(I8
I1
I0
g875
tp2465
a(I12
I3
F0.875
g1257
tp2466
a(I13
I2
I0
g877
tp2467
a(I16
I2
I0
g278
tp2468
a(I16
I3
F0.375
S'extended'
p2469
tp2470
a(I16
I3
F0.125
S'last'
p2471
tp2472
a(I25
I2
F-0.5
g282
tp2473
a(I44
I29
F0.125
S'last'
p2474
tp2475
a(I44
I29
F-0.5
S'long'
p2476
tp2477
a(I44
I32
F0.25
S'use'
p2478
tp2479
a(I44
I42
F1.0
g284
tp2480
a(I44
I42
F0.25
g286
tp2481
a(I44
I42
F-0.625
g288
tp2482
a(I44
I45
I0
g1119
tp2483
a(I62
I4
F0.625
g1780
tp2484
a(I62
I5
I0
g352
tp2485
a(I64
I0
F1.0
g290
tp2486
a(I77
I6
I0
g292
tp2487
a(I79
I161
F-0.5
g294
tp2488
a(I81
I6
I0
g1121
tp2489
a(I87
I3
I0
S'nervous'
p2490
tp2491
a(I89
I0
I0
g296
tp2492
a(I89
I6
F1.0
g298
tp2493
a(I91
I2
F0.125
S'last'
p2494
tp2495
a(I96
I14
F1.0
g300
tp2496
a(I105
I6
F0.25
S'bigger'
p2497
tp2498
a(I105
I8
I0
g302
tp2499
a(I112
I1
F0.625
g1784
tp2500
a(I118
I8
F0.625
g1786
tp2501
a(I123
I14
F0.125
S'last'
p2502
tp2503
a(I129
I4
F0.375
g1280
tp2504
a(I133
I6
I0
g1125
tp2505
a(I137
I5
F1.0
g304
tp2506
a(I137
I6
I0
g1128
tp2507
a(I137
I7
F-0.25
S'lower'
p2508
tp2509
a(I137
I10
F-0.875
S'worst'
p2510
tp2511
a(I137
I10
I0
S'such'
p2512
tp2513
a(I137
I10
I0
S'large'
p2514
tp2515
a(I137
I12
F0.5
S'second'
p2516
tp2517
a(I137
I12
F0.25
S'largest'
p2518
tp2519
a(I137
I18
I0
S'plate'
p2520
tp2521
a(I137
I22
F0.375
S'much'
p2522
tp2523
a(I137
I56
F0.5
g308
tp2524
a(I137
I56
F0.375
g310
tp2525
a(I137
I57
F0.125
g1788
tp2526
a(I146
I0
F0.25
g312
tp2527
a(I154
I12
I0
S'more'
p2528
tp2529
a(I154
I13
F1.0
g314
tp2530
a(I165
I1
F1.0
S'good'
p2531
tp2532
a(I167
I1
F-0.5
g318
tp2533
a(I173
I14
F0.625
g326
tp2534
a(I173
I14
F0.375
g328
tp2535
a(I174
I6
I0
g893
tp2536
a(I193
I8
I0
g330
tp2537
a(I195
I26
F1.0
g332
tp2538
a(I202
I3
F0.125
S'last'
p2539
tp2540
a(I206
I2
F1.0
g334
tp2541
a(I210
I34
F-0.75
S'impossible'
p2542
tp2543
a(I210
I37
F0.125
S'last'
p2544
tp2545
a(I210
I92
F0.625
g1792
tp2546
a(I217
I56
F0.625
g1794
tp2547
a(I217
I56
F-0.375
g1796
tp2548
as(S'works'
p2549
tp2550
(lp2551
(I12
I1
I0
S'great'
p2552
tp2553
a(I79
I68
F1.0
S'better'
p2554
tp2555
a(I94
I1
I0
S'great'
p2556
tp2557
a(I174
I15
I0
S'only'
p2558
tp2559
a(I219
I13
I0
S'great'
p2560
tp2561
as(g95
S'big'
p2562
S'deal'
p2563
tp2564
(lp2565
(I16
I20
I0
g928
tp2566
a(I22
I8
I0
g930
tp2567
a(I106
I1
I0
g934
tp2568
a(I123
I2
I0
g936
tp2569
a(I137
I53
I0
g938
tp2570
a(I179
I30
I0
g946
tp2571
a(I204
I1
I0
g952
tp2572
a(I209
I16
I0
g954
tp2573
a(I209
I21
I0
g956
tp2574
a(I210
I40
I0
g958
tp2575
a(I210
I72
I0
g960
tp2576
a(I210
I93
I0
g962
tp2577
as(S'with'
p2578
S'double'
p2579
S'tap'
p2580
tp2581
(lp2582
(I87
I7
F-0.375
g553
tp2583
a(I100
I5
F-0.375
g555
tp2584
as(S'better'
p2585
tp2586
(lp2587
(I11
I9
F0.625
S'perfect'
p2588
tp2589
as(S'device'
p2590
tp2591
(lp2592
(I0
I4
F0.375
S'available'
p2593
tp2594
a(I0
I4
I0
S'android'
p2595
tp2596
a(I11
I6
I0
S'only'
p2597
tp2598
a(I57
I9
I0
S'great'
p2599
tp2600
a(I57
I24
I0
S'great'
p2601
tp2602
a(I57
I24
F0.875
S'happier'
p2603
tp2604
a(I65
I0
F0.875
S'happy'
p2605
tp2606
a(I65
I0
F-0.625
S'want'
p2607
tp2608
a(I95
I2
I0
S'big'
p2609
tp2610
a(I95
I5
I0
S'external'
p2611
tp2612
a(I117
I17
F-0.625
S'other'
p2613
tp2614
a(I128
I2
I0
S'big'
p2615
tp2616
a(I128
I2
I0
S'mobile'
p2617
tp2618
a(I128
I2
F0.375
S'similar'
p2619
tp2620
a(I128
I3
I0
S'such'
p2621
tp2622
a(I137
I107
F-0.625
S'other'
p2623
tp2624
a(I137
I109
F0.625
S'straight'
p2625
tp2626
a(I165
I0
I0
S'great'
p2627
tp2628
a(I173
I0
F-0.875
S'deficient'
p2629
tp2630
a(I197
I18
I0
S'android'
p2631
tp2632
a(I210
I16
F0.625
S'pleasant'
p2633
tp2634
a(I210
I17
F-0.625
S'other'
p2635
tp2636
a(I210
I17
I0
S'electronic'
p2637
tp2638
a(I210
I99
F0.625
S'straight'
p2639
tp2640
a(I217
I15
I0
S'such'
p2641
tp2642
a(I217
I57
F0.25
S'powerful'
p2643
tp2644
a(I217
I57
I0
S'great'
p2645
tp2646
a(I219
I11
I0
S'faster'
p2647
tp2648
as(g95
g1420
S'year'
p2649
tp2650
(lp2651
(I137
I0
I0
S'old'
p2652
tp2653
a(I154
I4
F0.25
S'powerful'
p2654
tp2655
a(I178
I0
I0
S'old'
p2656
tp2657
a(I217
I14
I0
S'older'
p2658
tp2659
as(S'call'
p2660
tp2661
(lp2662
(I105
I7
I0
g117
tp2663
a(I167
I68
F0.5
S'clear'
p2664
tp2665
as(S'with'
p2666
S'lg'
p2667
S'g2'
p2668
tp2669
(lp2670
(I44
I3
F0.375
g672
tp2671
a(I93
I1
F-0.75
g678
tp2672
a(I137
I3
F0.375
g680
tp2673
a(I144
I2
F0.375
g688
tp2674
a(I154
I0
F0.375
g690
tp2675
a(I154
I0
F0.375
g692
tp2676
a(I207
I0
I0
g700
tp2677
a(I210
I81
F0.125
g702
tp2678
as(S'old'
p2679
S'galaxy'
p2680
S'nexus'
p2681
tp2682
(lp2683
(I137
I13
I0
g1576
tp2684
a(I137
I45
I0
g1578
tp2685
a(I137
I87
I0
g1580
tp2686
a(I137
I112
I0
g1582
tp2687
a(I137
I141
I0
g1584
tp2688
a(I174
I13
F0.25
g1586
tp2689
a(I174
I13
I0
g1588
tp2690
as(S'light'
p2691
tp2692
(lp2693
(I4
I9
F-0.75
S'little'
p2694
tp2695
a(I96
I10
F-0.75
S'bright'
p2696
tp2697
a(I96
I11
F-0.25
g593
tp2698
a(I137
I117
F-0.25
g597
tp2699
a(I155
I16
F-0.25
g603
tp2700
a(I155
I16
F-0.25
g607
tp2701
a(I155
I17
F-0.25
g609
tp2702
a(I155
I18
F-0.25
g666
tp2703
as(S'apps'
p2704
tp2705
(lp2706
(I0
I4
F-0.375
S'disable'
p2707
tp2708
a(I1
I2
F-0.125
S'slow'
p2709
tp2710
a(I1
I5
F-0.125
S'super'
p2711
tp2712
a(I1
I9
F-0.5
S'open'
p2713
tp2714
a(I1
I9
F0.375
S'similar'
p2715
tp2716
a(I11
I3
I0
S'many'
p2717
tp2718
a(I16
I16
I0
S'own'
p2719
tp2720
a(I28
I10
F0.125
S'native'
p2721
tp2722
a(I44
I13
I0
S'great'
p2723
tp2724
a(I44
I13
I0
S'quick'
p2725
tp2726
a(I56
I10
I0
S'own'
p2727
tp2728
a(I106
I1
I0
S'many'
p2729
tp2730
a(I112
I21
F0.375
S'available'
p2731
tp2732
a(I135
I4
I0
S'instant'
p2733
tp2734
a(I137
I32
I0
S'large'
p2735
tp2736
a(I137
I137
F-0.625
S'other'
p2737
tp2738
a(I137
I142
F-0.375
S'disable'
p2739
tp2740
a(I155
I11
F0.125
S'first'
p2741
tp2742
a(I155
I13
I0
S'such'
p2743
tp2744
a(I167
I56
F0.125
S'visible'
p2745
tp2746
a(I174
I7
F-0.5
S'open'
p2747
tp2748
a(I174
I26
F-0.5
S'worthless'
p2749
tp2750
a(I185
I2
I0
S'great'
p2751
tp2752
a(I191
I2
F-0.25
S'battery'
p2753
tp2754
a(I195
I20
I0
S'own'
p2755
tp2756
a(I199
I12
F0.875
S'nice'
p2757
tp2758
a(I199
I12
F0.25
S'recent'
p2759
tp2760
a(I210
I64
F0.875
S'music'
p2761
tp2762
a(I219
I10
F0.5
S'clear'
p2763
tp2764
as(S'days'
p2765
tp2766
(lp2767
(I25
I3
F-0.375
S'charge'
p2768
tp2769
a(I48
I3
I0
S'few'
p2770
tp2771
a(I74
I3
I0
S'few'
p2772
tp2773
a(I74
I3
F-0.625
S'natural'
p2774
tp2775
a(I79
I162
I0
g2100
tp2776
a(I90
I0
F-0.625
g2102
tp2777
a(I90
I1
I0
S'few'
p2778
tp2779
a(I117
I5
I0
g2104
tp2780
a(I165
I3
I0
g2106
tp2781
a(I170
I2
I0
g2108
tp2782
a(I179
I17
F0.125
S'first'
p2783
tp2784
a(I179
I17
F-0.75
S'dark'
p2785
tp2786
a(I217
I30
F-0.375
S'simple'
p2787
tp2788
a(I217
I55
I0
S'few'
p2789
tp2790
as(S'knock'
p2791
S'knock'
p2792
tp2793
(lp2794
(I44
I22
F0.375
g1803
tp2795
a(I81
I2
F0.75
g723
tp2796
a(I167
I38
I0
g1373
tp2797
a(I209
I17
I0
g1380
tp2798
as.