(dp0
(S'battery'
p1
S'life'
p2
tp3
(lp4
(I1
I50
F0.625
S'removable'
p5
I1
tp6
a(I1
I50
F0.25
S'larger'
p7
I1
tp8
a(I1
I50
F0.375
S'extended'
p9
I1
tp10
a(I2
I143
F1.0
S'good'
p11
I1
tp12
a(I2
I151
I0
S'great'
p13
I1
tp14
a(I2
I163
F-0.5
S'less'
p15
I1
tp16
a(I2
I167
F-0.5
S'poor'
p17
I1
tp18
a(I1
I50
F0.25
g7
I19
tp19
a(I1
I125
F-0.5
S'actual'
p20
I19
tp21
a(I2
I129
F0.125
S'plenty'
p22
I19
tp23
a(I2
I151
I0
g13
I19
tp24
a(I2
I163
F-0.5
g15
I19
tp25
a(I2
I167
F-0.5
g17
I19
tp26
a(I1
I50
F0.625
g5
I15
tp27
a(I1
I50
F0.375
g9
I15
tp28
a(I2
I143
F1.0
g11
I15
tp29
a(I2
I256
F0.25
S'portable'
p30
I15
tp31
a(I3
I88
I0
S'charged'
p32
I15
tp33
a(I3
I93
I0
S'overnight'
p34
I15
tp35
as(S'active'
p36
S'notifications'
p37
tp38
(lp39
(I1
I56
I0
S'active'
p40
I0
tp41
a(I1
I57
I0
S'active'
p42
I0
tp43
a(I2
I302
I0
S'active'
p44
I0
tp45
a(I2
I302
F0.875
S'nice'
p46
I0
tp47
a(I1
I56
I0
g40
I1
tp48
a(I1
I57
I0
g42
I1
tp49
a(I2
I249
F-0.375
S'simple'
p50
I1
tp51
a(I2
I302
I0
g44
I1
tp52
a(I2
I302
F0.875
g46
I1
tp53
as(S'motorola'
p54
tp55
(lp56
(I1
I41
I0
S'few'
p57
I0
tp58
a(I1
I41
I0
S'specific'
p59
I0
tp60
a(I1
I62
F0.375
S'new'
p61
I0
tp62
a(I1
I106
F1.0
S'good'
p63
I0
tp64
a(I1
I107
F-0.5
S'weak'
p65
I0
tp66
a(I1
I108
F0.125
S'first'
p67
I0
tp68
a(I2
I234
F0.75
S'give'
p69
I0
tp70
a(I3
I22
I0
S'few'
p71
I0
tp72
a(I3
I22
F1.0
S'good'
p73
I0
tp74
a(I3
I30
I0
S'third'
p75
I0
tp76
as(S'lock'
p77
S'screen'
p78
tp79
(lp80
(I2
I204
I0
S'most'
p81
I0
tp82
as(S'camera'
p83
tp84
(lp85
(I1
I10
F-0.75
S'sufficient'
p86
I1
tp87
a(I1
I11
F-0.5
S'sudden'
p88
I1
tp89
a(I1
I136
F0.625
S'convenient'
p90
I1
tp91
a(I1
I136
I0
S'quick'
p92
I1
tp93
a(I2
I64
I0
S'more'
p94
I1
tp95
a(I2
I161
I0
S'great'
p96
I1
tp97
a(I2
I161
I0
S'great'
p98
I1
tp99
a(I2
I190
I0
S'later'
p100
I1
tp101
a(I2
I302
F1.0
S'better'
p102
I1
tp103
a(I3
I92
F0.5
S'so-so'
p104
I1
tp105
as(S'iphone'
p106
tp107
(lp108
(I2
I121
F-0.375
S'small'
p109
I1
tp110
a(I2
I157
F0.25
S'original'
p111
I1
tp112
a(I2
I163
F-0.125
S'slow'
p113
I1
tp114
a(I2
I302
F1.0
S'better'
p115
I1
tp116
a(I3
I42
I0
S'proprietary'
p117
I1
tp118
as(S'android'
p119
tp120
(lp121
(I1
I19
F-0.625
S'other'
p122
I0
tp123
a(I1
I37
F1.0
S'best'
p124
I0
tp125
a(I1
I102
F-0.5
S'regular'
p126
I0
tp127
a(I2
I153
F0.25
S'favorite'
p128
I0
tp129
a(I2
I164
F-0.375
S'simple'
p130
I0
tp131
a(I2
I183
I0
S'commentary'
p132
I0
tp133
a(I2
I183
I0
S'more'
p134
I0
tp135
a(I2
I206
I0
S'commentary'
p136
I0
tp137
a(I2
I291
F-0.625
S'clean'
p138
I0
tp139
as(S'nexus'
p140
tp141
(lp142
(I1
I27
F0.5
S'flat'
p143
I0
tp144
a(I2
I149
F0.875
S'nice'
p145
I0
tp146
a(I2
I165
F0.375
S'new'
p147
I0
tp148
as(S'voice'
p149
S'recognition'
p150
tp151
(lp152
(I1
I127
I0
S'fast'
p153
I0
tp154
a(I1
I128
F0.5
S'accurate'
p155
I0
tp156
a(I1
I127
I0
g153
I4
tp157
a(I1
I128
F0.5
g155
I4
tp158
a(I2
I11
F-0.375
S'smooth'
p159
I4
tp160
a(I2
I197
I0
S'confirm'
p161
I4
tp162
as(S'text'
p163
S'messages'
p164
tp165
(lp166
(I1
I82
F0.375
S'strange'
p167
I0
tp168
a(I1
I88
I0
S'text'
p169
I0
tp170
a(I2
I103
I0
S'text'
p171
I0
tp172
a(I1
I82
F0.375
g167
I1
tp173
a(I1
I88
I0
g169
I1
tp174
a(I2
I103
I0
g171
I1
tp175
as(S'moto'
p176
S'x'
p177
tp178
(lp179
(I1
I18
F0.125
S'solid'
p180
I0
tp181
a(I1
I40
I0
S'closest'
p182
I0
tp183
a(I1
I47
I0
S'more'
p184
I0
tp185
a(I2
I173
I0
S'intentional'
p186
I0
tp187
a(I2
I228
F-0.75
S'short'
p188
I0
tp189
a(I1
I47
I0
g184
I1
tp190
as(S'much'
p191
S'better'
p192
tp193
(lp194
(I2
I217
F0.375
S'much'
p195
I9
tp196
as(S'volume'
p197
tp198
(lp199
(I2
I238
I0
S'physical'
p200
I6
tp201
a(I2
I265
F-0.25
S'lower'
p202
I6
tp203
as(S'form'
p204
S'factor'
p205
tp206
(lp207
(I2
I33
F-0.375
S'smaller'
p208
I1
tp209
a(I2
I41
I0
S'great'
p210
I1
tp211
a(I2
I50
F-0.375
S'small'
p212
I1
tp213
as(S'apps'
p214
tp215
(lp216
(I2
I96
F-0.5
S'less'
p217
I0
tp218
a(I2
I96
F-0.375
S'smaller'
p219
I0
tp220
a(I2
I96
F0.25
S'responsive'
p221
I0
tp222
as(S'amazon'
p223
tp224
(lp225
(I0
I7
F0.5
S'careful'
p226
I13
tp227
a(I1
I110
I0
S'cable'
p228
I13
tp229
a(I3
I46
F0.625
S'easy'
p230
I13
tp231
as.