(dp0
(S'sound'
p1
tp2
(lp3
(I0
I53
I0
S'great'
p4
I7
tp5
a(I7
I0
I0
S'great'
p6
I7
tp7
a(I13
I64
F1.0
S'good'
p8
I7
tp9
as(S'battery'
p10
S'life'
p11
tp12
(lp13
(I1
I5
I0
S'great'
p14
I1
tp15
a(I2
I0
F1.0
S'good'
p16
I1
tp17
a(I13
I64
I0
S'great'
p18
I1
tp19
a(I2
I0
F1.0
g16
I19
tp20
a(I1
I5
I0
g14
I15
tp21
a(I4
I3
I0
S'more'
p22
I15
tp23
a(I4
I3
F-0.75
S'little'
p24
I15
tp25
a(I13
I26
I0
S'more'
p26
I15
tp27
a(I13
I26
F-0.75
S'little'
p28
I15
tp29
a(I13
I64
I0
g18
I15
tp30
as(S'calls'
p31
tp32
(lp33
(I11
I8
F1.0
S'good'
p34
I0
tp35
as(S'samsung'
p36
tp37
(lp38
(I0
I40
F0.5
S'rid'
p39
I7
tp40
a(I13
I9
I0
S'faster'
p41
I7
tp42
as(S'camera'
p43
tp44
(lp45
(I5
I14
I0
S'great'
p46
I1
tp47
a(I5
I19
F0.125
S'dedicated'
p48
I1
tp49
a(I13
I42
F0.5
S'second'
p50
I1
tp51
a(I13
I42
F-0.5
S'poor'
p52
I1
tp53
a(I13
I45
F1.0
S'better'
p54
I1
tp55
as.