(dp0
(S'memory'
p1
S'card'
p2
tp3
(lp4
(I1
I0
I0
S'more'
p5
I0
tp6
a(I1
I0
F-0.625
S'other'
p7
I0
tp8
a(I50
I5
I0
S'more'
p9
I0
tp10
a(I180
I15
I0
S'internal'
p11
I0
tp12
a(I197
I15
F-0.25
S'low'
p13
I0
tp14
a(I197
I15
I0
S'gig'
p15
I0
tp16
a(I209
I8
I0
S'more'
p17
I0
tp18
a(I1
I0
I0
g5
I5
tp19
a(I1
I0
F-0.625
g7
I5
tp20
a(I3
I0
I0
S'internal'
p21
I5
tp22
a(I3
I0
I0
S'full'
p23
I5
tp24
a(I41
I2
I0
S'internal'
p25
I5
tp26
a(I50
I5
I0
g9
I5
tp27
a(I130
I15
I0
S'internal'
p28
I5
tp29
a(I162
I6
I0
S'full'
p30
I5
tp31
a(I176
I33
F-0.25
S'low'
p32
I5
tp33
a(I180
I15
I0
g11
I5
tp34
a(I197
I3
F-0.75
S'tough'
p35
I5
tp36
a(I197
I3
I0
S'internal'
p37
I5
tp38
a(I197
I15
F-0.25
g13
I5
tp39
a(I197
I15
I0
g15
I5
tp40
a(I204
I7
I0
S'full'
p41
I5
tp42
a(I209
I8
I0
g17
I5
tp43
a(I216
I3
F0.125
S'enough'
p44
I5
tp45
a(I219
I7
F0.625
S'removable'
p46
I5
tp47
a(I226
I3
F-0.25
S'low'
p48
I5
tp49
as(S'ocean'
p50
S'cross'
p51
tp52
(lp53
(I103
I27
I0
S'ocean'
p54
I0
tp55
a(I123
I0
I0
S'ocean'
p56
I0
tp57
a(I234
I13
I0
S'ocean'
p58
I0
tp59
as(S'battery'
p60
S'life'
p61
tp62
(lp63
(I54
I0
F-0.5
S'poor'
p64
I1
tp65
a(I129
I0
F1.0
S'better'
p66
I1
tp67
a(I180
I12
F1.0
S'good'
p68
I1
tp69
a(I17
I2
F0.125
S'last'
p70
I15
tp71
a(I17
I3
F-0.625
S'bad'
p72
I15
tp73
a(I17
I17
F0.75
S'give'
p74
I15
tp75
a(I17
I17
F0.375
S'extra'
p76
I15
tp77
a(I23
I26
F-0.125
S'slow'
p78
I15
tp79
a(I23
I26
F1.0
S'good'
p80
I15
tp81
a(I54
I0
F-0.5
g64
I15
tp82
a(I54
I8
F-0.75
S'dead'
p83
I15
tp84
a(I106
I10
I0
S'own'
p85
I15
tp86
a(I127
I0
F-0.75
S'dead'
p87
I15
tp88
a(I127
I0
F0.5
S'second'
p89
I15
tp90
a(I129
I0
F1.0
g66
I15
tp91
a(I163
I2
F0.375
S'extra'
p92
I15
tp93
a(I163
I20
F-0.75
S'dead'
p94
I15
tp95
as(S'want'
p96
S'money'
p97
tp98
(lp99
(I58
I15
F0.375
S'extra'
p100
I0
tp101
a(I73
I20
I0
S'most'
p102
I0
tp103
a(I130
I6
F-0.625
S'want'
p104
I0
tp105
a(I226
I2
F0.75
S'give'
p106
I0
tp107
as(S'gon'
p108
S'na'
p109
tp110
(lp111
(I156
I0
F0.75
S'give'
p112
I1
tp113
a(I170
I10
F0.625
S'perfect'
p114
I1
tp115
as(S'service'
p116
tp117
(lp118
(I12
I0
F1.0
S'good'
p119
I16
tp120
a(I15
I14
F-0.625
S'bad'
p121
I16
tp122
a(I144
I0
I0
S'great'
p123
I16
tp124
a(I187
I43
I0
S'internet'
p125
I16
tp126
a(I188
I3
F0.375
S'available'
p127
I16
tp128
a(I230
I2
F0.375
S'much'
p129
I16
tp130
as(S'name'
p131
S'brand'
p132
tp133
(lp134
(I159
I7
I0
S'fast'
p135
I0
tp136
as(S'download'
p137
tp138
(lp139
(I148
I8
F-0.125
S'cant'
p140
I1
tp141
as(S'camera'
p142
tp143
(lp144
(I31
I5
F1.0
S'good'
p145
I1
tp146
a(I57
I0
F1.0
S'good'
p147
I1
tp148
a(I96
I8
F-0.625
S'bad'
p149
I1
tp150
a(I130
I40
I0
S'basic'
p151
I1
tp152
a(I145
I4
F-0.875
S'awful'
p153
I1
tp154
a(I187
I13
F1.0
S'good'
p155
I1
tp156
a(I187
I24
F1.0
S'good'
p157
I1
tp158
a(I209
I8
F0.875
S'nice'
p159
I1
tp160
a(I214
I0
I0
S'own'
p161
I1
tp162
a(I230
I3
F-0.625
S'green'
p163
I1
tp164
as(S'piece'
p165
S'of'
p166
S'crap'
p167
tp168
(lp169
(I145
I0
F-0.875
S'worst'
p170
I0
tp171
a(I145
I0
F-0.875
g170
I3
tp172
a(I197
I5
F-0.625
S'other'
p173
I3
tp174
as(S'straight'
p175
S'talk'
p176
tp177
(lp178
(I106
I40
F0.625
S'straight'
p179
I0
tp180
a(I218
I4
F0.625
S'straight'
p181
I0
tp182
as(S'find'
p183
S'a'
p184
S'case'
p185
tp186
(lp187
(I133
I0
F0.125
S'able'
p188
I0
tp189
a(I176
I32
F0.625
S'find'
p190
I0
tp191
as(S'mobile'
p192
tp193
(lp194
(I142
I11
F1.0
S'good'
p195
I0
tp196
as(S'dont'
p197
tp198
(lp199
(I106
I44
F1.0
S'good'
p200
I16
tp201
as(S'sucks'
p202
tp203
(lp204
(I85
I3
F1.0
S'good'
p205
I2
tp206
a(I147
I0
I0
S'signal'
p207
I2
tp208
a(I230
I10
F-0.625
S'bad'
p209
I2
tp210
as(S'save'
p211
S'your'
p212
S'money'
p213
tp214
(lp215
(I54
I0
F0.75
S'worth'
p216
I1
tp217
a(I205
I2
F1.0
S'best'
p218
I1
tp219
as(S'batteries'
p220
tp221
(lp222
(I108
I0
F-0.625
S'bad'
p223
I3
tp224
a(I108
I0
I0
S'wen'
p225
I3
tp226
a(I130
I4
F-0.625
S'bad'
p227
I3
tp228
a(I184
I1
F0.125
S'last'
p229
I3
tp230
as(S'sd'
p231
S'card'
p232
tp233
(lp234
(I27
I15
I0
S'same'
p235
I0
tp236
a(I177
I0
I0
S'sd'
p237
I0
tp238
a(I209
I8
I0
S'external'
p239
I0
tp240
a(I224
I2
I0
S'same'
p241
I0
tp242
as(S'freezes'
p243
tp244
(lp245
(I40
I5
I0
S'spanish'
p246
I0
tp247
as(S'make'
p248
S'calls'
p249
tp250
(lp251
(I118
I3
F-0.75
S'difficult'
p252
I0
tp253
a(I118
I3
I0
S'recipient'
p254
I0
tp255
a(I187
I15
F0.125
S'able'
p256
I0
tp257
as(S'galaxy'
p258
S's4'
p259
tp260
(lp261
(I157
I2
F-0.5
S'less'
p262
I0
tp263
a(I157
I2
F0.5
S'expensive'
p264
I0
tp265
a(I216
I12
I0
S'cloned'
p266
I0
tp267
a(I233
I5
F0.25
S'bigger'
p268
I0
tp269
as(S't'
p270
S'sim'
p271
S'card'
p272
tp273
(lp274
(I0
I6
F-0.625
S'other'
p275
I0
tp276
a(I13
I0
F-0.75
S'stupid'
p277
I0
tp278
a(I61
I1
F-0.125
S'slow'
p279
I0
tp280
a(I93
I5
F-0.125
S'overall'
p281
I0
tp282
a(I93
I5
F-0.375
S'double'
p283
I0
tp284
a(I121
I0
F1.0
S'good'
p285
I0
tp286
a(I124
I7
F0.375
S'similar'
p287
I0
tp288
a(I142
I4
I0
S'standard'
p289
I0
tp290
a(I159
I3
I0
S'slower'
p291
I0
tp292
a(I159
I3
I0
S'standard'
p293
I0
tp294
a(I162
I14
F0.625
S'perfect'
p295
I0
tp296
a(I170
I0
F-0.5
S'worthless'
p297
I0
tp298
a(I0
I6
F-0.625
g275
I0
tp299
a(I13
I0
F-0.75
g277
I0
tp300
a(I61
I1
F-0.125
g279
I0
tp301
a(I93
I5
F-0.125
g281
I0
tp302
a(I93
I5
F-0.375
g283
I0
tp303
a(I121
I0
F1.0
g285
I0
tp304
a(I124
I7
F0.375
g287
I0
tp305
a(I142
I4
I0
g289
I0
tp306
a(I159
I3
I0
g291
I0
tp307
a(I159
I3
I0
g293
I0
tp308
a(I162
I14
F0.625
g295
I0
tp309
a(I170
I0
F-0.5
g297
I0
tp310
as(S'waste'
p311
S'your'
p312
S'money'
p313
tp314
(lp315
(I130
I6
F-0.625
g104
I5
tp316
a(I234
I15
I0
S'big'
p317
I5
tp318
a(I234
I15
I0
S'android'
p319
I5
tp320
a(I35
I49
F0.375
S'complete'
p321
I16
tp322
a(I79
I4
I0
S'big'
p323
I16
tp324
a(I143
I15
F0.25
S'biggest'
p325
I16
tp326
a(I181
I0
F0.375
S'complete'
p327
I16
tp328
a(I197
I4
F0.25
S'biggest'
p329
I16
tp330
a(I234
I15
I0
g317
I16
tp331
as(S'samsung'
p332
S'galaxy'
p333
tp334
(lp335
(I27
I15
I0
S'real'
p336
I0
tp337
a(I224
I2
I0
S'real'
p338
I0
tp339
a(I27
I15
I0
g336
I7
tp340
a(I106
I36
F-0.875
S'worst'
p341
I7
tp342
a(I224
I2
I0
g338
I7
tp343
a(I46
I0
F1.0
S'good'
p344
I0
tp345
a(I46
I0
F0.5
S'recommended'
p346
I0
tp347
a(I131
I4
I0
S'real'
p348
I0
tp349
a(I163
I1
I0
S'old'
p350
I0
tp351
a(I216
I12
I0
g266
I0
tp352
as(S'calls'
p353
S'or'
p354
S'text'
p355
tp356
(lp357
(I187
I15
F0.125
g256
I0
tp358
a(I23
I10
F-0.125
S'slow'
p359
I18
tp360
a(I116
I1
I0
S'more'
p361
I18
tp362
a(I162
I9
F0.375
S'new'
p363
I18
tp364
a(I16
I5
I0
S'hot'
p365
I0
tp366
a(I34
I15
F-0.625
S'free'
p367
I0
tp368
a(I118
I3
F-0.75
g252
I0
tp369
a(I118
I3
I0
g254
I0
tp370
a(I147
I0
F-0.25
S'dropped'
p371
I0
tp372
a(I151
I2
F-0.5
S'poor'
p373
I0
tp374
a(I156
I7
F-0.125
S'cant'
p375
I0
tp376
a(I156
I7
F0.75
S'receive'
p377
I0
tp378
a(I163
I7
F-0.25
S'dropped'
p379
I0
tp380
a(I184
I13
I0
S'great'
p381
I0
tp382
a(I187
I15
F0.125
g256
I0
tp383
a(I188
I6
F1.0
S'good'
p384
I0
tp385
a(I188
I6
I0
S'few'
p386
I0
tp387
a(I193
I2
I0
S'n'
p388
I0
tp389
as(S'micro'
p390
S'sd'
p391
tp392
(lp393
(I180
I15
I0
S'great'
p394
I0
tp395
as(S'waste'
p396
S'of'
p397
S'money'
p398
tp399
(lp400
(I35
I49
F0.375
g321
I4
tp401
a(I73
I20
I0
g102
I4
tp402
a(I79
I4
I0
g323
I4
tp403
a(I143
I15
F0.25
g325
I4
tp404
a(I181
I0
F0.375
g327
I4
tp405
a(I234
I15
I0
g317
I4
tp406
a(I234
I15
I0
g319
I4
tp407
as(S'@'
p408
g270
tp409
(lp410
(I234
I16
F-0.125
S'mine'
p411
I0
tp412
as(S'refund'
p413
tp414
(lp415
(I16
I2
I0
S'full'
p416
I8
tp417
a(I58
I15
F-0.625
S'want'
p418
I8
tp419
a(I67
I7
I0
S'full'
p420
I8
tp421
a(I100
I21
I0
S'full'
p422
I8
tp423
a(I146
I6
F0.5
S'possible'
p424
I8
tp425
a(I234
I12
I0
S'full'
p426
I8
tp427
as(S'takes'
p428
tp429
(lp430
(I143
I4
F-0.75
S'sad'
p431
I19
tp432
as(S'super'
p433
S'slow'
p434
tp435
(lp436
(I35
I23
F-0.125
S'slow'
p437
I0
tp438
a(I159
I19
F-0.125
S'slow'
p439
I0
tp440
a(I106
I38
F-0.75
S'little'
p441
I17
tp442
as(g184
S'sim'
p443
S'card'
p444
tp445
(lp446
(I0
I6
F-0.625
g275
I0
tp447
a(I13
I0
F-0.75
g277
I0
tp448
a(I61
I1
F-0.125
g279
I0
tp449
a(I93
I5
F-0.125
g281
I0
tp450
a(I93
I5
F-0.375
g283
I0
tp451
a(I121
I0
F1.0
g285
I0
tp452
a(I124
I7
F0.375
g287
I0
tp453
a(I142
I4
I0
g289
I0
tp454
a(I159
I3
I0
g291
I0
tp455
a(I159
I3
I0
g293
I0
tp456
a(I162
I14
F0.625
g295
I0
tp457
a(I170
I0
F-0.5
g297
I0
tp458
as(S'internet'
p459
tp460
(lp461
(I17
I11
I0
S'big'
p462
I6
tp463
a(I17
I11
F-0.125
S'super'
p464
I6
tp465
a(I17
I11
F-0.125
S'slow'
p466
I6
tp467
a(I45
I7
F0.125
S'able'
p468
I6
tp469
a(I47
I6
I0
S'such'
p470
I6
tp471
a(I47
I10
I0
S'dial'
p472
I6
tp473
a(I62
I7
F1.0
S'good'
p474
I6
tp475
a(I62
I10
F-0.125
S'slow'
p476
I6
tp477
a(I75
I0
F-0.125
S'slow'
p478
I6
tp479
a(I116
I2
F-0.125
S'slow'
p480
I6
tp481
a(I130
I2
F-0.125
S'slow'
p482
I6
tp483
a(I133
I10
F-0.125
S'slow'
p484
I6
tp485
a(I142
I17
F0.125
S'usual'
p486
I6
tp487
a(I148
I10
F-0.125
S'slow'
p488
I6
tp489
a(I162
I15
I0
S'great'
p490
I6
tp491
a(I162
I15
I0
S'great'
p492
I6
tp493
a(I165
I9
F0.25
S'original'
p494
I6
tp495
a(I176
I10
F-0.125
S'slow'
p496
I6
tp497
a(I176
I25
F-0.125
S'slow'
p498
I6
tp499
a(I207
I9
F-0.125
S'slow'
p500
I6
tp501
a(I225
I6
F-0.125
S'slow'
p502
I6
tp503
as(S'many'
p504
S'bad'
p505
S'reviews'
p506
tp507
(lp508
(I126
I28
I0
S'many'
p509
I0
tp510
a(I126
I28
F-0.625
S'bad'
p511
I0
tp512
a(I126
I28
F-0.625
S'bad'
p513
I0
tp514
a(I140
I0
I0
S'many'
p515
I0
tp516
a(I140
I0
F-0.625
S'bad'
p517
I0
tp518
a(I170
I10
F-0.625
S'bad'
p519
I0
tp520
as(S'wifi'
p521
tp522
(lp523
(I35
I15
F-0.75
S'impossible'
p524
I0
tp525
a(I47
I9
F-0.125
S'ultimate'
p526
I0
tp527
a(I47
I9
F-0.125
S'slow'
p528
I0
tp529
a(I88
I3
F-0.625
S'steady'
p530
I0
tp531
a(I144
I0
I0
S'great'
p532
I0
tp533
a(I232
I0
I0
S'mobile'
p534
I0
tp535
as(S'apps'
p536
tp537
(lp538
(I12
I1
F-0.75
S'difficult'
p539
I0
tp540
a(I28
I0
F1.0
S'good'
p541
I0
tp542
a(I41
I2
F0.5
S'careful'
p543
I0
tp544
a(I49
I5
I0
S'more'
p545
I0
tp546
a(I83
I15
I0
S'download'
p547
I0
tp548
a(I87
I1
I0
S'chinese'
p549
I0
tp550
a(I87
I1
F-0.125
S'slow'
p551
I0
tp552
a(I98
I16
F-0.5
S'open'
p553
I0
tp554
a(I126
I17
F-0.5
S'certain'
p555
I0
tp556
a(I130
I36
F-0.625
S'other'
p557
I0
tp558
a(I130
I36
F0.625
S'certified'
p559
I0
tp560
a(I148
I7
F-0.5
S'open'
p561
I0
tp562
a(I158
I0
F-0.25
S'google'
p563
I0
tp564
a(I170
I10
F-0.125
S'overall'
p565
I0
tp566
a(I187
I18
I0
S'many'
p567
I0
tp568
a(I209
I2
F-0.125
S'slow'
p569
I0
tp570
a(I209
I8
I0
S'downloaded'
p571
I0
tp572
a(I234
I15
F-0.125
S'cant'
p573
I0
tp574
as(S'amazon'
p575
tp576
(lp577
(I95
I5
I0
S'site'
p578
I13
tp579
a(I180
I12
I0
S'great'
p580
I13
tp581
as(S'touch'
p582
S'screen'
p583
tp584
(lp585
(I32
I3
F0.5
S'touch'
p586
I2
tp587
a(I32
I3
F-0.75
S'unresponsive'
p588
I2
tp589
a(I58
I7
F-0.625
S'sorry'
p590
I2
tp591
a(I92
I0
F1.0
S'good'
p592
I2
tp593
a(I180
I12
I0
S'big'
p594
I2
tp595
as.