(dp0
(S'battery'
p1
S'life'
p2
tp3
(lp4
(I16
I17
F-0.75
S'short'
p5
I1
tp6
a(I16
I17
F-0.625
S'other'
p7
I1
tp8
a(I16
I17
F-0.75
g5
I15
tp9
as(S'grey'
p10
S'hairs'
p11
tp12
(lp13
(I11
I20
F-0.125
S'grey'
p14
I0
tp15
as(S'apps'
p16
tp17
(lp18
(I0
I5
I0
S'same'
p19
I0
tp20
a(I5
I1
I0
S'such'
p21
I0
tp22
a(I5
I12
I0
S'latest'
p23
I0
tp24
a(I12
I3
I0
S'few'
p25
I0
tp26
a(I12
I39
I0
S'cool'
p27
I0
tp28
a(I12
I39
I0
S'most'
p29
I0
tp30
a(I16
I15
F1.0
S'good'
p31
I0
tp32
a(I17
I11
F-0.625
S'other'
p33
I0
tp34
as(S'smartphone'
p35
tp36
(lp37
(I0
I5
F0.5
S'expensive'
p38
I0
tp39
a(I12
I0
F1.0
S'good'
p40
I0
tp41
a(I12
I4
I0
S'great'
p42
I0
tp43
as(S'data'
p44
S'plan'
p45
tp46
(lp47
(I0
I11
F0.5
S'true'
p48
I0
tp49
a(I9
I8
F-0.5
S'separate'
p50
I0
tp51
a(I19
I19
F0.375
S'available'
p52
I0
tp53
a(I9
I8
F-0.5
g50
I13
tp54
a(I13
I8
I0
S'mobile'
p55
I13
tp56
a(I19
I19
F0.375
g52
I13
tp57
as(S'wifi'
p58
tp59
(lp60
(I6
I3
F-0.5
S'poorest'
p61
I0
tp62
a(I9
I9
F0.375
S'available'
p63
I0
tp64
as(S'sim'
p65
S'card'
p66
tp67
(lp68
(I6
I12
F0.125
S'able'
p69
I0
tp70
a(I6
I12
I0
S'old'
p71
I0
tp72
as(S'few'
p73
S'weeks'
p74
tp75
(lp76
(I12
I33
I0
S'few'
p77
I2
tp78
a(I12
I33
I0
S'few'
p79
I2
tp80
a(I14
I3
F0.125
S'first'
p81
I2
tp82
a(I14
I3
I0
S'few'
p83
I2
tp84
as(S'data'
p85
S'package'
p86
tp87
(lp88
(I9
I8
F-0.5
g50
I0
tp89
a(I19
I19
F0.375
g52
I0
tp90
as(S'camera'
p91
tp92
(lp93
(I0
I2
F-0.5
S'actual'
p94
I1
tp95
a(I6
I7
F1.0
S'best'
p96
I1
tp97
a(I6
I16
F-0.5
S'complaint'
p98
I1
tp99
a(I9
I4
I0
S'real'
p100
I1
tp101
a(I10
I26
F-0.625
S'bad'
p102
I1
tp103
a(I12
I11
F-0.75
S'worse'
p104
I1
tp105
as(S'touch'
p106
S'screen'
p107
tp108
(lp109
(I7
I1
F0.5
S'touch'
p110
I2
tp111
a(I7
I1
F0.5
S'accurate'
p112
I2
tp113
a(I7
I1
F-0.75
S'difficult'
p114
I2
tp115
a(I9
I15
I0
S'android'
p116
I2
tp117
a(I19
I2
F0.5
S'touch'
p118
I2
tp119
as.