(dp0
(S'motorola'
p1
tp2
(lp3
(I0
I36
F-0.125
S'mine'
p4
I0
tp5
a(I3
I28
I0
S'website'
p6
I0
tp7
a(I4
I88
F0.25
S'original'
p8
I0
tp9
a(I4
I208
I0
S'fast'
p10
I0
tp11
a(I7
I21
F-0.625
S'bad'
p12
I0
tp13
a(I7
I43
F0.375
S'new'
p14
I0
tp15
a(I8
I10
F0.25
S'original'
p16
I0
tp17
a(I10
I14
F0.25
S'used'
p18
I0
tp19
a(I20
I58
F0.25
S'original'
p20
I0
tp21
as(S'text'
p22
tp23
(lp24
(I11
I31
I0
S'standard'
p25
I18
tp26
a(I18
I100
F0.875
S'important'
p27
I18
tp28
as(S'active'
p29
S'display'
p30
tp31
(lp32
(I3
I41
I0
S'active'
p33
I0
tp34
a(I10
I16
I0
S'active'
p35
I0
tp36
a(I10
I17
I0
S'active'
p37
I0
tp38
a(I10
I57
I0
S'active'
p39
I0
tp40
a(I15
I1
I0
S'active'
p41
I0
tp42
a(I15
I16
I0
S'active'
p43
I0
tp44
a(I15
I64
I0
S'active'
p45
I0
tp46
a(I15
I68
I0
S'active'
p47
I0
tp48
a(I15
I96
I0
S'active'
p49
I0
tp50
a(I15
I96
I0
S'useful'
p51
I0
tp52
a(I17
I53
I0
S'active'
p53
I0
tp54
a(I18
I47
I0
S'active'
p55
I0
tp56
a(I18
I63
I0
S'active'
p57
I0
tp58
a(I20
I40
I0
S'active'
p59
I0
tp60
a(I20
I124
I0
S'active'
p61
I0
tp62
as(S'camera'
p63
tp64
(lp65
(I0
I19
F0.875
S'nice'
p66
I1
tp67
a(I3
I0
F-0.5
S'open'
p68
I1
tp69
a(I4
I155
I0
S'useful'
p70
I1
tp71
a(I5
I120
I0
S'great'
p72
I1
tp73
a(I6
I62
I0
S'great'
p74
I1
tp75
a(I6
I62
F0.75
S'due'
p76
I1
tp77
a(I6
I79
I0
S'great'
p78
I1
tp79
a(I11
I52
F1.0
S'better'
p80
I1
tp81
a(I15
I40
F-0.5
S'actual'
p82
I1
tp83
a(I15
I98
F1.0
S'best'
p84
I1
tp85
a(I17
I19
I0
S'launch'
p86
I1
tp87
a(I18
I88
F-0.5
S'poor'
p88
I1
tp89
a(I18
I124
F0.5
S'rid'
p90
I1
tp91
a(I20
I101
I0
S'update'
p92
I1
tp93
as(S'iphone'
p94
tp95
(lp96
(I2
I95
F-0.5
S'less'
p97
I1
tp98
a(I2
I102
F0.375
S'new'
p99
I1
tp100
a(I2
I132
F0.25
S'used'
p101
I1
tp102
a(I3
I36
F1.0
S'better'
p103
I1
tp104
a(I18
I107
F1.0
S'better'
p105
I1
tp106
as(S'galaxy'
p107
tp108
(lp109
(I10
I2
F0.25
S'original'
p110
I0
tp111
a(I20
I120
F-0.75
S'worse'
p112
I0
tp113
as(S'photo'
p114
S'quality'
p115
tp116
(lp117
(I15
I41
I0
S'high'
p118
I0
tp119
a(I15
I74
F0.125
S'first'
p120
I0
tp121
a(I15
I74
F-0.25
S'low'
p122
I0
tp123
a(I15
I74
F-0.5
S'poor'
p124
I0
tp125
a(I18
I102
F1.0
S'good'
p126
I0
tp127
as(S'use'
p128
S'google'
p129
tp130
(lp131
(I0
I83
F0.125
S'practical'
p132
I0
tp133
a(I3
I80
F0.875
S'nice'
p134
I0
tp135
a(I4
I77
I0
S'most'
p136
I0
tp137
a(I8
I76
F-0.625
S'moderate'
p138
I0
tp139
a(I0
I44
F0.375
S'complete'
p140
I4
tp141
a(I2
I48
F0.375
S'new'
p142
I4
tp143
a(I3
I80
F0.875
g134
I4
tp144
a(I4
I77
I0
g136
I4
tp145
a(I7
I43
I0
S'great'
p146
I4
tp147
a(I10
I46
F0.125
S'drunk'
p148
I4
tp149
a(I10
I63
F0.5
S'drive'
p150
I4
tp151
a(I15
I33
I0
S'navigate'
p152
I4
tp153
as(S'sd'
p154
S'card'
p155
tp156
(lp157
(I4
I173
F1.0
S'good'
p158
I0
tp159
as(S'email'
p160
S'accounts'
p161
tp162
(lp163
(I7
I81
F-0.625
S'other'
p164
I0
tp165
a(I0
I34
F0.25
S'responsive'
p166
I5
tp167
a(I0
I34
F1.0
S'good'
p168
I5
tp169
a(I2
I118
F-0.625
S'quiet'
p170
I5
tp171
a(I2
I118
I0
S'most'
p172
I5
tp173
a(I2
I118
F-0.625
S'other'
p174
I5
tp175
a(I4
I0
F0.625
S'major'
p176
I5
tp177
a(I4
I3
F0.625
S'major'
p178
I5
tp179
as(S'great'
p180
S'in'
p181
S'hand'
p182
tp183
(lp184
(I3
I70
I0
S'great'
p185
I0
tp186
a(I3
I70
F-0.5
S'heavy'
p187
I0
tp188
a(I3
I70
I0
S'sturdy'
p189
I0
tp190
a(I5
I37
I0
S'great'
p191
I0
tp192
a(I10
I49
I0
S'great'
p193
I0
tp194
as(S'voice'
p195
tp196
(lp197
(I0
I83
I0
S'useful'
p198
I4
tp199
a(I2
I120
F0.5
S'polite'
p200
I4
tp201
a(I13
I19
F0.5
S'touch'
p202
I4
tp203
a(I13
I19
F0.875
S'nice'
p204
I4
tp205
a(I15
I30
F-0.5
S'actual'
p206
I4
tp207
as(S'stock'
p208
S'android'
p209
tp210
(lp211
(I18
I42
F-0.625
S'light'
p212
I0
tp213
a(I2
I130
F0.125
S'first'
p214
I0
tp215
a(I4
I184
F-0.125
S'opposite'
p216
I0
tp217
a(I4
I184
F0.125
S'last'
p218
I0
tp219
a(I5
I8
F-0.625
S'other'
p220
I0
tp221
a(I6
I31
F0.125
S'first'
p222
I0
tp223
a(I6
I97
F-0.625
S'other'
p224
I0
tp225
a(I11
I29
F-0.625
S'other'
p226
I0
tp227
a(I11
I52
I0
S'such'
p228
I0
tp229
a(I11
I52
I0
S'great'
p230
I0
tp231
a(I13
I23
F1.0
S'best'
p232
I0
tp233
a(I13
I29
F0.125
S'first'
p234
I0
tp235
a(I17
I49
F0.125
S'first'
p236
I0
tp237
a(I17
I59
I0
S'oh'
p238
I0
tp239
a(I18
I42
F-0.625
g212
I0
tp240
a(I18
I101
F0.125
S'first'
p241
I0
tp242
a(I20
I8
F1.0
S'best'
p243
I0
tp244
a(I20
I60
I0
S'old'
p245
I0
tp246
a(I21
I5
F0.875
S'nice'
p247
I0
tp248
as(S'feels'
p249
tp250
(lp251
(I18
I77
I0
S'great'
p252
I14
tp253
as(S'calls'
p254
tp255
(lp256
(I4
I75
I0
S'internet'
p257
I0
tp258
a(I4
I187
I0
S'few'
p259
I0
tp260
a(I7
I72
F0.875
S'important'
p261
I0
tp262
as(S'ok'
p263
S'google'
p264
tp265
(lp266
(I2
I9
F-0.625
S'other'
p267
I0
tp268
a(I3
I80
F0.875
g134
I0
tp269
a(I4
I50
F0.875
S'nice'
p270
I0
tp271
a(I4
I77
I0
g136
I0
tp272
a(I5
I73
F-0.25
S'google'
p273
I0
tp274
a(I13
I33
F0.375
S'loud'
p275
I0
tp276
a(I15
I33
I0
g152
I0
tp277
as(S'sim'
p278
S'card'
p279
tp280
(lp281
(I5
I101
F0.25
S'unlocked'
p282
I0
tp283
a(I5
I104
F-0.5
S'sure'
p284
I0
tp285
a(I11
I8
I0
S'own'
p286
I0
tp287
a(I11
I36
F0.375
S'new'
p288
I0
tp289
a(I15
I99
F-0.125
S'foreign'
p290
I0
tp291
a(I18
I55
I0
S'local'
p292
I0
tp293
as(S'on'
p294
S'moto'
p295
S'x'
p296
tp297
(lp298
(I0
I12
F0.25
S'favorite'
p299
I0
tp300
a(I0
I12
F0.5
S'second'
p301
I0
tp302
a(I0
I12
F0.25
S'favorite'
p303
I0
tp304
a(I0
I18
F1.0
S'best'
p305
I0
tp306
a(I2
I7
F-0.375
S'black'
p307
I0
tp308
a(I3
I5
F1.0
S'best'
p309
I0
tp310
a(I4
I10
F0.375
S'much'
p311
I0
tp312
a(I4
I88
F1.0
S'best'
p313
I0
tp314
a(I5
I99
I0
S'next'
p315
I0
tp316
a(I6
I16
F1.0
S'good'
p317
I0
tp318
a(I7
I43
F0.125
S'first'
p319
I0
tp320
a(I7
I65
I0
S'most'
p321
I0
tp322
a(I7
I84
F-0.125
S'mine'
p323
I0
tp324
a(I8
I52
F0.125
S'magic'
p325
I0
tp326
a(I9
I5
F0.375
S'new'
p327
I0
tp328
a(I9
I12
I0
S'more'
p329
I0
tp330
a(I9
I12
F0.5
S'satisfied'
p331
I0
tp332
a(I10
I10
F-0.125
S'mine'
p333
I0
tp334
a(I18
I62
F-0.5
S'separate'
p335
I0
tp336
a(I20
I93
F1.0
S'better'
p337
I0
tp338
as(S'half'
p339
S'hour'
p340
tp341
(lp342
(I4
I158
I0
S'later'
p343
I3
tp344
as(S'a'
p345
S'moto'
p346
g296
tp347
(lp348
(I0
I12
F0.25
g299
I0
tp349
a(I0
I12
F0.5
g301
I0
tp350
a(I0
I12
F0.25
g303
I0
tp351
a(I0
I18
F1.0
g305
I0
tp352
a(I2
I7
F-0.375
g307
I0
tp353
a(I3
I5
F1.0
g309
I0
tp354
a(I3
I29
I0
S'many'
p355
I0
tp356
a(I4
I10
F0.375
g311
I0
tp357
a(I4
I49
I0
S'fast'
p358
I0
tp359
a(I4
I69
I0
S'large'
p360
I0
tp361
a(I4
I88
F1.0
g313
I0
tp362
a(I4
I151
I0
S'lame'
p363
I0
tp364
a(I4
I151
I0
S'specific'
p365
I0
tp366
a(I5
I99
I0
g315
I0
tp367
a(I6
I16
F1.0
g317
I0
tp368
a(I6
I37
F-0.375
S'small'
p369
I0
tp370
a(I6
I85
F0.75
S'worth'
p371
I0
tp372
a(I7
I43
F0.125
g319
I0
tp373
a(I7
I63
F-0.875
S'hard'
p374
I0
tp375
a(I7
I63
F1.0
S'good'
p376
I0
tp377
a(I7
I65
I0
g321
I0
tp378
a(I8
I52
F0.125
g325
I0
tp379
a(I9
I5
F0.375
g327
I0
tp380
a(I9
I12
I0
g329
I0
tp381
a(I9
I12
F0.5
g331
I0
tp382
a(I10
I10
F-0.125
g333
I0
tp383
a(I15
I57
F0.25
S'bigger'
p384
I0
tp385
a(I18
I1
F1.0
S'best'
p386
I0
tp387
a(I18
I62
F-0.5
g335
I0
tp388
a(I18
I84
F0.75
S'fit'
p389
I0
tp390
a(I20
I93
F1.0
g337
I0
tp391
as(S'better'
p392
S'battery'
p393
S'life'
p394
tp395
(lp396
(I4
I4
F-0.375
S'top'
p397
I0
tp398
a(I4
I4
F1.0
S'better'
p399
I0
tp400
a(I4
I4
I0
S'more'
p401
I0
tp402
a(I20
I84
F1.0
S'better'
p403
I0
tp404
a(I20
I120
F0.375
S'much'
p405
I0
tp406
a(I0
I29
I0
S'great'
p407
I1
tp408
a(I4
I4
F-0.375
g397
I1
tp409
a(I4
I4
F1.0
g399
I1
tp410
a(I4
I4
I0
g401
I1
tp411
a(I4
I8
F1.0
S'good'
p412
I1
tp413
a(I4
I175
F0.625
S'acceptable'
p414
I1
tp415
a(I5
I75
F0.625
S'decent'
p416
I1
tp417
a(I5
I78
I0
S'more'
p418
I1
tp419
a(I5
I78
F0.375
S'extended'
p420
I1
tp421
a(I5
I96
I0
S'great'
p422
I1
tp423
a(I8
I51
F-0.75
S'shorter'
p424
I1
tp425
a(I9
I6
F1.0
S'good'
p426
I1
tp427
a(I10
I6
F0.375
S'extra'
p428
I1
tp429
a(I10
I26
F0.625
S'replaceable'
p430
I1
tp431
a(I10
I26
F1.0
S'good'
p432
I1
tp433
a(I10
I26
F0.375
S'extra'
p434
I1
tp435
a(I11
I73
I0
S'great'
p436
I1
tp437
a(I11
I77
I0
S'great'
p438
I1
tp439
a(I15
I33
F1.0
S'good'
p440
I1
tp441
a(I16
I32
F-0.25
S'disappointing'
p442
I1
tp443
a(I18
I120
I0
S'great'
p444
I1
tp445
a(I20
I43
I0
S'great'
p446
I1
tp447
a(I20
I84
F1.0
g403
I1
tp448
a(I20
I89
F-0.5
S'long'
p449
I1
tp450
a(I20
I91
F1.0
S'best'
p451
I1
tp452
a(I20
I91
F0.25
S'larger'
p453
I1
tp454
a(I0
I29
I0
g407
I19
tp455
a(I4
I4
I0
g401
I19
tp456
a(I4
I8
F1.0
g412
I19
tp457
a(I4
I175
F0.625
g414
I19
tp458
a(I5
I75
F0.625
g416
I19
tp459
a(I5
I96
I0
g422
I19
tp460
a(I7
I48
F1.0
S'better'
p461
I19
tp462
a(I8
I51
F-0.75
g424
I19
tp463
a(I10
I26
F1.0
g432
I19
tp464
a(I15
I33
F1.0
g440
I19
tp465
a(I16
I32
F-0.25
g442
I19
tp466
a(I20
I43
I0
g446
I19
tp467
a(I20
I53
F0.625
S'easier'
p468
I19
tp469
a(I20
I91
F0.25
g453
I19
tp470
a(I1
I11
I0
S'faster'
p471
I15
tp472
a(I2
I17
F0.25
S'original'
p473
I15
tp474
a(I2
I90
F0.125
S'enough'
p475
I15
tp476
a(I2
I110
F1.0
S'best'
p477
I15
tp478
a(I3
I36
F0.125
S'last'
p479
I15
tp480
a(I3
I43
F0.125
S'last'
p481
I15
tp482
a(I3
I59
I0
S'great'
p483
I15
tp484
a(I4
I4
F-0.375
g397
I15
tp485
a(I4
I4
F1.0
g399
I15
tp486
a(I4
I76
I0
S'same'
p487
I15
tp488
a(I5
I78
I0
g418
I15
tp489
a(I5
I78
F0.375
g420
I15
tp490
a(I6
I78
F0.625
S'removable'
p491
I15
tp492
a(I6
I78
F-0.75
S'difficult'
p493
I15
tp494
a(I9
I6
F1.0
g426
I15
tp495
a(I10
I6
F0.375
g428
I15
tp496
a(I10
I24
F0.625
S'replaceable'
p497
I15
tp498
a(I10
I26
F0.625
g430
I15
tp499
a(I10
I26
F0.375
g434
I15
tp500
a(I11
I11
F0.625
S'easy'
p501
I15
tp502
a(I11
I19
F0.375
S'new'
p503
I15
tp504
a(I11
I19
F0.25
S'original'
p505
I15
tp506
a(I11
I21
F-0.75
S'wrong'
p507
I15
tp508
a(I11
I23
F0.25
S'original'
p509
I15
tp510
a(I11
I73
I0
g436
I15
tp511
a(I11
I77
I0
g438
I15
tp512
a(I15
I96
F0.375
S'much'
p513
I15
tp514
a(I18
I49
F1.0
S'good'
p515
I15
tp516
a(I18
I72
F1.0
S'good'
p517
I15
tp518
a(I18
I72
F0.875
S'nice'
p519
I15
tp520
a(I18
I99
F0.25
S'bigger'
p521
I15
tp522
a(I18
I120
I0
g444
I15
tp523
a(I20
I12
F0.875
S'nice'
p524
I15
tp525
a(I20
I84
F1.0
g403
I15
tp526
a(I20
I89
F-0.5
g449
I15
tp527
a(I20
I91
F1.0
g451
I15
tp528
a(I20
I109
I0
S'great'
p529
I15
tp530
a(I20
I118
F-0.875
S'worst'
p531
I15
tp532
as(S'republic'
p533
S'wireless'
p534
tp535
(lp536
(I2
I1
F0.875
S'happy'
p537
I0
tp538
a(I2
I82
F-0.125
S'mine'
p539
I0
tp540
a(I8
I6
I0
S'republic'
p541
I0
tp542
a(I8
I7
I0
S'republic'
p543
I0
tp544
as(S'to'
p545
S'moto'
p546
g296
tp547
(lp548
(I0
I12
F0.25
g299
I0
tp549
a(I0
I12
F0.5
g301
I0
tp550
a(I0
I12
F0.25
g303
I0
tp551
a(I0
I18
F1.0
g305
I0
tp552
a(I2
I7
F-0.375
g307
I0
tp553
a(I3
I5
F1.0
g309
I0
tp554
a(I3
I29
I0
g355
I0
tp555
a(I4
I10
F0.375
g311
I0
tp556
a(I4
I49
I0
g358
I0
tp557
a(I4
I69
I0
g360
I0
tp558
a(I4
I88
F1.0
g313
I0
tp559
a(I4
I151
I0
g363
I0
tp560
a(I4
I151
I0
g365
I0
tp561
a(I5
I99
I0
g315
I0
tp562
a(I6
I16
F1.0
g317
I0
tp563
a(I6
I37
F-0.375
g369
I0
tp564
a(I6
I85
F0.75
g371
I0
tp565
a(I7
I43
F0.125
g319
I0
tp566
a(I7
I63
F-0.875
g374
I0
tp567
a(I7
I63
F1.0
g376
I0
tp568
a(I7
I65
I0
g321
I0
tp569
a(I7
I84
F-0.125
g323
I0
tp570
a(I8
I52
F0.125
g325
I0
tp571
a(I9
I5
F0.375
g327
I0
tp572
a(I9
I12
I0
g329
I0
tp573
a(I9
I12
F0.5
g331
I0
tp574
a(I10
I10
F-0.125
g333
I0
tp575
a(I15
I57
F0.25
g384
I0
tp576
a(I18
I1
F1.0
g386
I0
tp577
a(I18
I62
F-0.5
g335
I0
tp578
a(I18
I84
F0.75
g389
I0
tp579
a(I20
I93
F1.0
g337
I0
tp580
a(I0
I12
F0.25
g299
I0
tp581
a(I0
I12
F0.5
g301
I0
tp582
a(I0
I12
F0.25
g303
I0
tp583
a(I0
I18
F1.0
g305
I0
tp584
a(I2
I7
F-0.375
g307
I0
tp585
a(I3
I5
F1.0
g309
I0
tp586
a(I3
I29
I0
g355
I0
tp587
a(I4
I10
F0.375
g311
I0
tp588
a(I4
I49
I0
g358
I0
tp589
a(I4
I69
I0
g360
I0
tp590
a(I4
I88
F1.0
g313
I0
tp591
a(I4
I151
I0
g363
I0
tp592
a(I4
I151
I0
g365
I0
tp593
a(I5
I99
I0
g315
I0
tp594
a(I6
I16
F1.0
g317
I0
tp595
a(I6
I37
F-0.375
g369
I0
tp596
a(I6
I85
F0.75
g371
I0
tp597
a(I7
I43
F0.125
g319
I0
tp598
a(I7
I63
F-0.875
g374
I0
tp599
a(I7
I63
F1.0
g376
I0
tp600
a(I7
I65
I0
g321
I0
tp601
a(I7
I84
F-0.125
g323
I0
tp602
a(I8
I52
F0.125
g325
I0
tp603
a(I9
I5
F0.375
g327
I0
tp604
a(I9
I12
I0
g329
I0
tp605
a(I9
I12
F0.5
g331
I0
tp606
a(I10
I10
F-0.125
g333
I0
tp607
a(I15
I57
F0.25
g384
I0
tp608
a(I18
I1
F1.0
g386
I0
tp609
a(I18
I62
F-0.5
g335
I0
tp610
a(I18
I84
F0.75
g389
I0
tp611
a(I20
I93
F1.0
g337
I0
tp612
a(I2
I7
F-0.375
g307
I1
tp613
a(I3
I29
I0
g355
I1
tp614
a(I4
I69
I0
g360
I1
tp615
a(I4
I88
F1.0
g313
I1
tp616
a(I5
I99
I0
g315
I1
tp617
a(I6
I37
F-0.375
g369
I1
tp618
a(I6
I81
F0.5
S'second'
p619
I1
tp620
a(I6
I85
F0.75
g371
I1
tp621
a(I7
I63
F-0.875
g374
I1
tp622
a(I7
I65
I0
g321
I1
tp623
a(I7
I84
F-0.125
g323
I1
tp624
a(I9
I5
F0.375
g327
I1
tp625
a(I10
I10
F-0.125
g333
I1
tp626
a(I18
I1
F1.0
g386
I1
tp627
as(S'much'
p628
S'better'
p629
tp630
(lp631
(I11
I29
F0.375
S'much'
p632
I9
tp633
a(I20
I120
F0.375
g405
I9
tp634
as(S'touchless'
p635
S'control'
p636
tp637
(lp638
(I17
I56
I0
S'great'
p639
I0
tp640
a(I18
I22
F0.25
S'helpful'
p641
I0
tp642
a(I19
I13
I0
S'great'
p643
I0
tp644
a(I20
I13
F0.875
S'nice'
p645
I0
tp646
a(I4
I160
I0
S'many'
p647
I0
tp648
a(I2
I128
F-0.625
S'bad'
p649
I8
tp650
a(I6
I106
F1.0
S'best'
p651
I8
tp652
a(I17
I56
I0
g639
I8
tp653
a(I18
I22
F0.25
g641
I8
tp654
a(I19
I13
I0
g643
I8
tp655
a(I20
I13
F0.875
g645
I8
tp656
as(S'customer'
p657
S'service'
p658
tp659
(lp660
(I8
I68
I0
S'great'
p661
I3
tp662
a(I16
I9
F0.5
S'live'
p663
I3
tp664
a(I14
I2
I0
S'great'
p665
I16
tp666
as(S'form'
p667
S'factor'
p668
tp669
(lp670
(I0
I78
F-0.75
S'comfortable'
p671
I1
tp672
a(I4
I7
I0
S'great'
p673
I1
tp674
a(I11
I31
F-0.375
S'small'
p675
I1
tp676
as(S'apps'
p677
tp678
(lp679
(I3
I73
F0.375
S'new'
p680
I0
tp681
a(I4
I105
F-0.625
S'other'
p682
I0
tp683
a(I5
I26
I0
S'many'
p684
I0
tp685
a(I6
I79
I0
S'fast'
p686
I0
tp687
a(I20
I62
I0
S'great'
p688
I0
tp689
as(S'amazon'
p690
tp691
(lp692
(I4
I45
F0.375
S'available'
p693
I13
tp694
a(I4
I124
I0
S'closest'
p695
I13
tp696
a(I4
I172
F0.375
S'available'
p697
I13
tp698
a(I18
I56
F0.375
S'available'
p699
I13
tp700
a(I20
I148
F0.125
S'able'
p701
I13
tp702
a(I20
I149
I-100
S'called/chatted'
p703
I13
tp704
a(I21
I0
F0.375
S'prime'
p705
I13
tp706
as.