(dp0
(S'battery'
p1
S'life'
p2
tp3
(lp4
(I0
I100
F-0.5
S'long'
p5
I1
tp6
a(I1
I13
F0.875
S'nice'
p7
I1
tp8
a(I1
I13
F0.125
S'first'
p9
I1
tp10
a(I1
I51
I0
S'fewer'
p11
I1
tp12
a(I2
I120
F1.0
S'better'
p13
I1
tp14
a(I2
I159
F1.0
S'good'
p15
I1
tp16
a(I2
I161
F1.0
S'good'
p17
I1
tp18
a(I3
I44
F-0.5
S'long'
p19
I1
tp20
a(I6
I116
F1.0
S'good'
p21
I1
tp22
a(I6
I158
F-0.625
S'average'
p23
I1
tp24
a(I9
I50
F1.0
S'better'
p25
I1
tp26
a(I1
I13
F0.875
g7
I19
tp27
a(I1
I13
F0.125
g9
I19
tp28
a(I1
I51
I0
g11
I19
tp29
a(I2
I120
F1.0
g13
I19
tp30
a(I6
I116
F1.0
g21
I19
tp31
a(I6
I158
F-0.625
g23
I19
tp32
a(I0
I100
F-0.5
g5
I15
tp33
a(I1
I15
F-0.75
S'unable'
p34
I15
tp35
a(I2
I130
I0
S'big'
p36
I15
tp37
a(I2
I133
F0.25
S'larger'
p38
I15
tp39
a(I2
I133
I0
S'more'
p40
I15
tp41
a(I2
I159
F1.0
g15
I15
tp42
a(I2
I161
F1.0
g17
I15
tp43
a(I3
I44
F-0.5
g19
I15
tp44
a(I6
I3
I0
S'big'
p45
I15
tp46
a(I9
I50
F1.0
g25
I15
tp47
as(S'faster'
p48
tp49
(lp50
(I6
I87
F0.375
S'much'
p51
I7
tp52
as(S'service'
p53
tp54
(lp55
(I0
I88
F1.0
S'better'
p56
I16
tp57
a(I0
I88
F1.0
S'better'
p58
I16
tp59
a(I2
I128
F-0.875
S'unhappy'
p60
I16
tp61
a(I6
I155
F1.0
S'good'
p62
I16
tp63
a(I10
I3
I0
S'monthly'
p64
I16
tp65
as(S'camera'
p66
tp67
(lp68
(I0
I52
F1.0
S'better'
p69
I1
tp70
a(I1
I5
I0
S'serviceable'
p71
I1
tp72
a(I1
I37
F1.0
S'best'
p73
I1
tp74
a(I2
I78
F1.0
S'good'
p75
I1
tp76
a(I2
I164
F-0.125
S'super'
p77
I1
tp78
a(I2
I164
F0.5
S'clear'
p79
I1
tp80
a(I6
I60
I0
S'normal'
p81
I1
tp82
a(I6
I90
F0.5
S'respectable'
p83
I1
tp84
a(I6
I146
I0
S'great'
p85
I1
tp86
a(I6
I146
I0
S'sturdier'
p87
I1
tp88
as(S'games'
p89
tp90
(lp91
(I0
I91
F-0.375
S'simple'
p92
I19
tp93
a(I2
I48
I0
S'most'
p94
I19
tp95
a(I2
I57
I0
S'many'
p96
I19
tp97
a(I2
I57
F-0.125
S'complex'
p98
I19
tp99
a(I6
I86
I0
S'latest'
p100
I19
tp101
a(I6
I86
I0
S'3d'
p102
I19
tp103
a(I6
I127
F-0.75
S'unable'
p104
I19
tp105
a(I9
I5
I0
S'many'
p106
I19
tp107
as(S'iphone'
p108
tp109
(lp110
(I2
I15
F-0.75
S'shorter'
p111
I1
tp112
a(I2
I15
F-0.625
S'lighter'
p113
I1
tp114
a(I6
I89
I0
S'latest'
p115
I1
tp116
a(I9
I47
F1.0
S'better'
p117
I1
tp118
as(S'apps'
p119
tp120
(lp121
(I0
I8
I0
S'most'
p122
I0
tp123
a(I0
I9
I0
S'few'
p124
I0
tp125
a(I0
I13
F0.125
S'able'
p126
I0
tp127
a(I0
I13
I0
S'few'
p128
I0
tp129
a(I0
I31
F0.375
S'available'
p130
I0
tp131
a(I0
I36
F0.125
S'able'
p132
I0
tp133
a(I0
I80
F0.375
S'available'
p134
I0
tp135
a(I0
I91
I0
S'such'
p136
I0
tp137
a(I1
I51
F-0.625
S'free'
p138
I0
tp139
a(I6
I13
I0
S'few'
p140
I0
tp141
a(I6
I43
I0
S'big'
p142
I0
tp143
a(I6
I51
F0.375
S'much'
p144
I0
tp145
a(I6
I114
I0
S'great'
p146
I0
tp147
a(I9
I5
I0
S'basic'
p148
I0
tp149
a(I9
I5
F-0.375
S'daily'
p150
I0
tp151
a(I9
I51
I0
S'many'
p152
I0
tp153
a(I10
I10
I0
S'most'
p154
I0
tp155
a(I10
I21
I0
S'such'
p156
I0
tp157
a(I10
I22
I0
S'more'
p158
I0
tp159
a(I10
I27
I0
S'large'
p160
I0
tp161
a(I10
I27
I0
S'such'
p162
I0
tp163
a(I10
I48
F0.125
S'able'
p164
I0
tp165
as(S'google'
p166
tp167
(lp168
(I9
I27
F0.25
S'prerequisite'
p169
I4
tp170
as(S'to'
p171
S'sd'
p172
S'card'
p173
tp174
(lp175
(I0
I13
I0
S'most'
p176
I0
tp177
a(I3
I24
I0
S'external'
p178
I0
tp179
a(I0
I13
I0
g176
I0
tp180
a(I3
I2
F0.625
S'necessary'
p181
I0
tp182
a(I3
I24
I0
g178
I0
tp183
as(S'button'
p184
tp185
(lp186
(I0
I42
I0
S'physical'
p187
I19
tp188
a(I0
I44
I0
S'physical'
p189
I19
tp190
as(S'storage'
p191
S'space'
p192
tp193
(lp194
(I10
I46
I0
S'very'
p195
I0
tp196
a(I10
I46
F-0.375
S'small'
p197
I0
tp198
a(I1
I31
F0.375
S'extra'
p199
I1
tp200
a(I3
I1
F0.375
S'much'
p201
I1
tp202
a(I3
I1
I0
S'internal'
p203
I1
tp204
a(I6
I44
I0
S'internal'
p205
I1
tp206
a(I6
I110
I0
S'internal'
p207
I1
tp208
a(I6
I111
F0.375
S'available'
p209
I1
tp210
a(I6
I111
F0.375
S'available'
p211
I1
tp212
a(I9
I4
I0
S'internal'
p213
I1
tp214
a(I9
I4
F0.25
S'larger'
p215
I1
tp216
a(I9
I52
F0.5
S'drive'
p217
I1
tp218
a(I10
I46
I0
g195
I1
tp219
a(I10
I46
F-0.375
g197
I1
tp220
as(S'network'
p221
tp222
(lp223
(I10
I8
I0
S'faster'
p224
I0
tp225
as(S'data'
p226
tp227
(lp228
(I0
I76
F0.125
S'first'
p229
I13
tp230
a(I0
I96
F0.625
S'necessary'
p231
I13
tp232
a(I2
I129
F1.0
S'good'
p233
I13
tp234
a(I8
I19
F-0.5
S'unlimited'
p235
I13
tp236
a(I9
I31
F0.375
S'much'
p237
I13
tp238
as(S'optimus'
p239
tp240
(lp241
(I6
I140
F0.375
S'new'
p242
I0
tp243
as(S'smartphone'
p244
tp245
(lp246
(I2
I1
F0.625
S'easy'
p247
I0
tp248
a(I2
I161
I0
S'basic'
p249
I0
tp250
a(I6
I136
F0.375
S'new'
p251
I0
tp252
a(I9
I23
F0.5
S'primary'
p253
I0
tp254
a(I9
I29
F0.375
S'new'
p255
I0
tp256
as(S'pocket'
p257
tp258
(lp259
(I2
I93
F-0.25
S'thin'
p260
I17
tp261
as(S'internal'
p262
S'storage'
p263
tp264
(lp265
(I3
I1
F0.375
g201
I0
tp266
a(I3
I1
I0
g203
I0
tp267
a(I6
I44
I0
g205
I0
tp268
a(I6
I110
I0
g207
I0
tp269
a(I9
I4
I0
g213
I0
tp270
a(I9
I4
F0.25
g215
I0
tp271
as(S'internal'
p272
S'memory'
p273
tp274
(lp275
(I0
I8
I0
S'internal'
p276
I0
tp277
a(I0
I17
I0
S'internal'
p278
I0
tp279
a(I0
I106
I0
S'internal'
p280
I0
tp281
a(I0
I114
I0
S'internal'
p282
I0
tp283
a(I1
I13
I0
S'internal'
p284
I0
tp285
a(I1
I24
I0
S'internal'
p286
I0
tp287
a(I1
I24
F-0.625
S'useless'
p288
I0
tp289
a(I1
I33
I0
S'internal'
p290
I0
tp291
a(I2
I2
I0
S'internal'
p292
I0
tp293
a(I2
I11
I0
S'internal'
p294
I0
tp295
a(I6
I121
I0
S'internal'
p296
I0
tp297
a(I6
I132
F-0.75
S'little'
p298
I0
tp299
a(I6
I132
I0
S'internal'
p300
I0
tp301
a(I6
I134
I0
S'internal'
p302
I0
tp303
a(I6
I136
I0
S'internal'
p304
I0
tp305
a(I10
I21
I0
S'internal'
p306
I0
tp307
a(I10
I21
F0.375
S'available'
p308
I0
tp309
a(I10
I22
F-0.625
S'free'
p310
I0
tp311
a(I10
I22
I0
S'internal'
p312
I0
tp313
a(I0
I8
I0
g276
I5
tp314
a(I0
I17
I0
g278
I5
tp315
a(I0
I106
I0
g280
I5
tp316
a(I0
I114
I0
g282
I5
tp317
a(I1
I13
I0
g284
I5
tp318
a(I1
I24
I0
g286
I5
tp319
a(I1
I24
F-0.625
g288
I5
tp320
a(I1
I33
I0
g290
I5
tp321
a(I1
I37
F-0.25
S'low'
p322
I5
tp323
a(I1
I41
I0
S'most'
p324
I5
tp325
a(I2
I2
I0
g292
I5
tp326
a(I2
I11
I0
g294
I5
tp327
a(I6
I62
F0.375
S'available'
p328
I5
tp329
a(I6
I121
I0
g296
I5
tp330
a(I6
I132
F-0.75
g298
I5
tp331
a(I6
I132
I0
g300
I5
tp332
a(I6
I134
I0
g302
I5
tp333
a(I6
I136
I0
g304
I5
tp334
a(I10
I21
I0
g306
I5
tp335
a(I10
I21
F0.375
g308
I5
tp336
a(I10
I22
F-0.625
g310
I5
tp337
a(I10
I22
I0
g312
I5
tp338
as.