(dp0
(S'sprint'
p1
tp2
(lp3
(I2
I3
F0.375
S'available'
p4
I0
tp5
a(I5
I65
I0
S'north'
p6
I0
tp7
a(I5
I108
F-0.5
S'sure'
p8
I0
tp9
a(I7
I0
I0
S'site'
p10
I0
tp11
a(I8
I88
F-0.25
S'cheaper'
p12
I0
tp13
a(I8
I88
F-0.5
S'actual'
p14
I0
tp15
as(S'voice'
p16
tp17
(lp18
(I2
I20
F-0.625
S'clean'
p19
I4
tp20
a(I8
I35
F0.5
S'touch'
p21
I4
tp22
as(S'battery'
p23
S'life'
p24
tp25
(lp26
(I3
I3
I0
S'great'
p27
I1
tp28
a(I3
I36
F-0.5
S'worry'
p29
I1
tp30
a(I5
I113
I0
S'fast'
p31
I1
tp32
a(I5
I113
F0.25
S'responsive'
p33
I1
tp34
a(I5
I113
I0
S'great'
p35
I1
tp36
a(I5
I113
F0.625
S'easy'
p37
I1
tp38
a(I5
I124
F1.0
S'love'
p39
I1
tp40
a(I5
I124
F0.625
S'removable'
p41
I1
tp42
a(I7
I73
I0
S'great'
p43
I1
tp44
a(I7
I87
I0
S'great'
p45
I1
tp46
a(I3
I3
I0
g27
I19
tp47
a(I5
I113
F0.625
g37
I19
tp48
a(I7
I73
I0
g43
I19
tp49
a(I7
I87
I0
g45
I19
tp50
a(I0
I54
F-0.375
S'small'
p51
I15
tp52
a(I2
I24
F0.625
S'replaceable'
p53
I15
tp54
a(I3
I36
F-0.5
g29
I15
tp55
a(I5
I113
I0
g31
I15
tp56
a(I5
I113
F0.25
g33
I15
tp57
a(I5
I113
I0
g35
I15
tp58
a(I5
I124
F1.0
g39
I15
tp59
a(I5
I124
F0.625
g41
I15
tp60
as(S'active'
p61
S'notifications'
p62
tp63
(lp64
(I0
I53
I0
S'active'
p65
I0
tp66
a(I5
I125
I0
S'active'
p67
I0
tp68
a(I7
I11
I0
S'active'
p69
I0
tp70
a(I7
I12
I0
S'active'
p71
I0
tp72
a(I8
I52
I0
S'active'
p73
I0
tp74
a(I0
I53
I0
g65
I1
tp75
a(I1
I18
F-0.625
S'other'
p76
I1
tp77
a(I5
I41
I0
S'multiple'
p78
I1
tp79
a(I5
I96
F0.75
S'sound'
p80
I1
tp81
a(I5
I96
F-0.5
S'vibrate'
p82
I1
tp83
a(I5
I125
I0
g67
I1
tp84
a(I5
I126
F0.375
S'new'
p85
I1
tp86
a(I7
I11
I0
g69
I1
tp87
a(I7
I12
I0
g71
I1
tp88
a(I8
I52
I0
g73
I1
tp89
a(I8
I79
F0.875
S'nice'
p90
I1
tp91
as(S'motorola'
p92
tp93
(lp94
(I8
I98
I0
S'nervous'
p95
I0
tp96
as(S'customer'
p97
S'service'
p98
tp99
(lp100
(I3
I5
F-0.875
S'awful'
p101
I3
tp102
a(I3
I8
F1.0
S'better'
p103
I3
tp104
as(S'samsung'
p105
tp106
(lp107
(I6
I61
I0
S'older'
p108
I7
tp109
a(I7
I14
F0.5
S'expensive'
p110
I7
tp111
as(S'call'
p112
S'quality'
p113
tp114
(lp115
(I0
I7
I0
S'great'
p116
I0
tp117
a(I6
I78
F-0.375
S'unacceptable'
p118
I0
tp119
as(S'wifi'
p120
tp121
(lp122
(I6
I37
F-0.5
S'open'
p123
I0
tp124
as(S'quad'
p125
S'core'
p126
tp127
(lp128
(I8
I48
F-0.375
S'rumble'
p129
I0
tp130
a(I8
I48
I0
S'fast'
p131
I0
tp132
as(S'a'
p133
S'text'
p134
S'message'
p135
tp136
(lp137
(I5
I52
F0.375
S'new'
p138
I0
tp139
a(I5
I52
F-0.5
S'actual'
p140
I0
tp141
a(I5
I52
F0.375
g138
I0
tp142
a(I5
I52
F-0.5
g140
I0
tp143
a(I5
I52
F0.375
g138
I18
tp144
a(I5
I52
F-0.5
g140
I1
tp145
a(I5
I120
I0
S'many'
p146
I1
tp147
as(S'active'
p148
S'display'
p149
tp150
(lp151
(I5
I8
I0
S'active'
p152
I0
tp153
a(I5
I8
F-0.875
S'hard'
p154
I0
tp155
a(I8
I89
I0
S'active'
p156
I0
tp157
a(I8
I89
F0.875
S'nice'
p158
I0
tp159
a(I8
I99
I0
S'active'
p160
I0
tp161
as(S'camera'
p162
tp163
(lp164
(I0
I38
F-0.5
S'poor'
p165
I1
tp166
a(I3
I23
F0.125
S'impressive'
p167
I1
tp168
a(I6
I29
I0
S'only'
p169
I1
tp170
a(I8
I82
F1.0
S'better'
p171
I1
tp172
a(I8
I94
I0
S'useful'
p173
I1
tp174
a(I8
I100
F1.0
S'good'
p175
I1
tp176
as(S'data'
p177
tp178
(lp179
(I5
I60
I0
S'more'
p180
I13
tp181
a(I5
I60
F-0.5
S'certain'
p182
I13
tp183
a(I5
I60
I0
S'slower'
p184
I13
tp185
as.