(dp0
(S'screen'
p1
S'size'
p2
tp3
(lp4
(I3
I82
F0.25
S'bigger'
p5
I3
tp6
a(I12
I40
F0.875
S'nice'
p7
I3
tp8
a(I18
I3
I0
S'big'
p9
I3
tp10
a(I18
I3
F0.625
S'perfect'
p11
I3
tp12
a(I22
I138
I0
S'large'
p13
I3
tp14
a(I22
I138
I0
S'same'
p15
I3
tp16
a(I22
I138
F-0.375
S'smaller'
p17
I3
tp18
a(I23
I195
F-0.125
S'overall'
p19
I3
tp20
a(I23
I199
F0.625
S'easy'
p21
I3
tp22
a(I29
I361
I0
S'fast'
p23
I3
tp24
a(I29
I361
F-0.125
S'super'
p25
I3
tp26
a(I29
I361
F0.25
S'sharp'
p27
I3
tp28
a(I29
I378
F0.75
S'due'
p29
I3
tp30
a(I34
I168
F-0.625
S'light'
p31
I3
tp32
a(I35
I67
F0.375
S'much'
p33
I3
tp34
as(S'samsung'
p35
S'galaxy'
p36
S'note'
p37
tp38
(lp39
(I35
I182
F-0.375
S'smaller'
p40
I0
tp41
a(I1
I60
F0.375
S'went'
p42
I0
tp43
a(I23
I128
I0
S'most'
p44
I0
tp45
a(I23
I128
F0.625
S'aware'
p46
I0
tp47
a(I23
I128
F-0.625
S'other'
p48
I0
tp49
a(I35
I182
F-0.375
g40
I0
tp50
a(I22
I41
I0
S'such'
p51
I0
tp52
a(I1
I60
F0.375
g42
I7
tp53
a(I10
I0
F0.25
S'tired'
p54
I7
tp55
a(I10
I90
F-0.875
S'worst'
p56
I7
tp57
a(I22
I132
F0.875
S'nice'
p58
I7
tp59
a(I23
I128
I0
g44
I7
tp60
a(I23
I128
F0.625
g46
I7
tp61
a(I23
I128
F-0.625
g48
I7
tp62
a(I29
I356
I0
S'big'
p63
I7
tp64
a(I35
I182
F-0.375
g40
I7
tp65
a(I35
I248
I0
S'old'
p66
I7
tp67
a(I37
I33
F0.875
S'nice'
p68
I7
tp69
a(I37
I35
I0
S'old'
p70
I7
tp71
a(I37
I38
F0.25
S'recent'
p72
I7
tp73
a(I37
I57
I0
S'more'
p74
I7
tp75
a(I37
I57
F0.625
S'polish'
p76
I7
tp77
a(I21
I18
F-0.5
S'heavier'
p78
I0
tp79
a(I21
I21
I0
S'plastic'
p80
I0
tp81
a(I22
I41
I0
g51
I0
tp82
a(I23
I89
I0
S'old'
p83
I0
tp84
a(I23
I133
I0
S'old'
p85
I0
tp86
a(I23
I181
I0
S'old'
p87
I0
tp88
a(I23
I215
I0
S'old'
p89
I0
tp90
a(I23
I254
I0
S'old'
p91
I0
tp92
a(I29
I358
F0.25
S'original'
p93
I0
tp94
a(I30
I17
F0.25
S'bigger'
p95
I0
tp96
a(I30
I17
I0
S'old'
p97
I0
tp98
a(I37
I113
F0.5
S'comparable'
p99
I0
tp100
as(S'screen'
p101
S'to'
p102
S'turn'
p103
tp104
(lp105
(I0
I31
I0
S'handy'
p106
I0
tp107
a(I22
I195
F0.875
S'lucky'
p108
I0
tp109
a(I29
I388
F-0.375
S'double'
p110
I0
tp111
a(I34
I34
F-0.625
S'sporadic'
p112
I0
tp113
a(I34
I34
F1.0
S'best'
p114
I0
tp115
as(S'screen'
p116
S'burn'
p117
tp118
(lp119
(I16
I60
F-0.375
S'unacceptable'
p120
I0
tp121
a(I16
I65
F-0.375
S'top'
p122
I0
tp123
as(S'double'
p124
S'tap'
p125
S'screen'
p126
tp127
(lp128
(I0
I31
I0
g106
I0
tp129
a(I3
I45
F-0.375
S'double'
p130
I0
tp131
a(I12
I10
F-0.375
S'double'
p132
I0
tp133
a(I21
I24
F-0.375
S'double'
p134
I0
tp135
a(I21
I28
F-0.375
S'double'
p136
I0
tp137
a(I21
I28
I0
S'handy'
p138
I0
tp139
a(I21
I28
F-0.375
S'double'
p140
I0
tp141
a(I29
I103
F-0.375
S'double'
p142
I0
tp143
a(I29
I103
F-0.375
S'double'
p144
I0
tp145
a(I29
I388
F-0.375
g110
I0
tp146
a(I31
I15
F-0.375
S'double'
p147
I0
tp148
a(I35
I24
I0
S'big'
p149
I0
tp150
a(I35
I24
F-0.375
S'double'
p151
I0
tp152
a(I1
I71
F-0.375
S'double'
p153
I0
tp154
a(I3
I45
F-0.375
g130
I0
tp155
a(I5
I7
F-0.375
S'double'
p156
I0
tp157
a(I11
I94
F-0.375
S'double'
p158
I0
tp159
a(I12
I9
F-0.375
S'double'
p160
I0
tp161
a(I12
I10
F-0.375
g132
I0
tp162
a(I17
I53
F-0.375
S'double'
p163
I0
tp164
a(I18
I73
F-0.375
S'double'
p165
I0
tp166
a(I21
I24
F-0.375
g134
I0
tp167
a(I21
I28
F-0.375
g136
I0
tp168
a(I21
I28
I0
g138
I0
tp169
a(I21
I28
F-0.375
g140
I0
tp170
a(I29
I103
F-0.375
g142
I0
tp171
a(I29
I103
F-0.375
g144
I0
tp172
a(I29
I372
F-0.375
S'double'
p173
I0
tp174
a(I31
I15
F-0.375
g147
I0
tp175
a(I32
I1
F-0.375
S'double'
p176
I0
tp177
a(I35
I24
F-0.375
g151
I0
tp178
as(S'screen'
p179
S'real'
p180
S'estate'
p181
tp182
(lp183
(I11
I12
I0
S'real'
p184
I0
tp185
a(I12
I5
I0
S'valuable'
p186
I0
tp187
a(I30
I24
I0
S'real'
p188
I0
tp189
a(I35
I41
I0
S'real'
p190
I0
tp191
as(S'power'
p192
S'button'
p193
tp194
(lp195
(I0
I9
F-0.375
S'small'
p196
I0
tp197
a(I9
I19
F0.25
S'used'
p198
I0
tp199
a(I10
I41
F-0.625
S'push'
p200
I0
tp201
a(I13
I16
F0.125
S'dedicated'
p202
I0
tp203
a(I13
I16
I-100
S'front/side'
p204
I0
tp205
a(I33
I24
I0
S'rear'
p206
I0
tp207
as(S'galaxy'
p208
S'nexus'
p209
tp210
(lp211
(I3
I7
I0
S'many'
p212
I0
tp213
a(I23
I89
I0
g83
I0
tp214
a(I23
I133
I0
g85
I0
tp215
a(I23
I181
I0
g87
I0
tp216
a(I23
I215
I0
g89
I0
tp217
a(I23
I254
I0
g91
I0
tp218
a(I30
I17
F0.25
g95
I0
tp219
a(I30
I17
I0
g97
I0
tp220
a(I3
I7
I0
g212
I0
tp221
a(I23
I70
F0.5
S'second'
p222
I0
tp223
a(I30
I32
F-0.625
S'other'
p224
I0
tp225
as(S'turn'
p226
S'off'
p227
S'screen'
p228
tp229
(lp230
(I0
I31
I0
g106
I0
tp231
as(S'viewing'
p232
S'angles'
p233
tp234
(lp235
(I23
I189
F1.0
S'good'
p236
I5
tp237
a(I30
I14
I0
S'wide'
p238
I5
tp239
as(S'day'
p240
S'of'
p241
S'use'
p242
tp243
(lp244
(I12
I16
F-0.5
S'heave'
p245
I0
tp246
a(I12
I17
I0
S'normal'
p247
I0
tp248
a(I13
I71
I0
S'overnight'
p249
I0
tp250
a(I13
I71
I0
S'most'
p251
I0
tp252
a(I13
I71
F0.5
S'second'
p253
I0
tp254
a(I16
I2
I0
S'full'
p255
I0
tp256
a(I16
I2
F-0.5
S'heavy'
p257
I0
tp258
a(I16
I123
F-0.5
S'regular'
p259
I0
tp260
a(I16
I123
F-0.5
S'regular'
p261
I0
tp262
a(I16
I190
F0.5
S'whole'
p263
I0
tp264
a(I16
I190
F0.125
S'enough'
p265
I0
tp266
a(I16
I231
F-0.5
S'heavy'
p267
I0
tp268
a(I22
I4
I0
S'full'
p269
I0
tp270
a(I23
I83
F-0.5
S'heavy'
p271
I0
tp272
a(I23
I83
F0.125
S'last'
p273
I0
tp274
a(I23
I83
I0
S'full'
p275
I0
tp276
a(I29
I354
F-0.5
S'heavy'
p277
I0
tp278
a(I29
I354
I0
S'least'
p279
I0
tp280
a(I31
I11
I0
S'full'
p281
I0
tp282
as(S'buttons'
p283
S'on'
p284
S'back'
p285
tp286
(lp287
(I1
I81
F-0.625
S'other'
p288
I0
tp289
a(I3
I43
I0
S'different'
p290
I0
tp291
a(I9
I2
F-0.375
S'crazy'
p292
I0
tp293
a(I10
I11
F0.125
S'key'
p294
I0
tp295
a(I10
I36
F0.25
S'larger'
p296
I0
tp297
a(I10
I36
F0.625
S'easier'
p298
I0
tp299
a(I10
I36
I0
S'more'
p300
I0
tp301
a(I10
I36
I0
S'flush'
p302
I0
tp303
a(I11
I70
I0
S'unnecessary'
p304
I0
tp305
a(I13
I65
F-0.75
S'comfortable'
p306
I0
tp307
a(I16
I231
F0.625
S'removable'
p308
I0
tp309
a(I20
I0
F-0.625
S'other'
p310
I0
tp311
a(I22
I224
I0
S'rear'
p312
I0
tp313
a(I23
I33
F-0.875
S'negative'
p314
I0
tp315
a(I23
I45
F0.25
S'main'
p316
I0
tp317
a(I23
I126
I0
S'more'
p318
I0
tp319
a(I23
I169
I0
S'rear'
p320
I0
tp321
a(I29
I72
F0.125
S'usual'
p322
I0
tp323
a(I29
I173
F1.0
S'better'
p324
I0
tp325
a(I29
I185
I0
S'fast'
p326
I0
tp327
a(I35
I95
I0
S'great'
p328
I0
tp329
a(I1
I81
F-0.625
g288
I13
tp330
a(I3
I62
I0
S'many'
p331
I13
tp332
a(I5
I10
F-0.625
S'natural'
p333
I13
tp334
a(I10
I11
F0.125
g294
I13
tp335
a(I10
I36
F0.25
g296
I13
tp336
a(I10
I36
F0.625
g298
I13
tp337
a(I10
I45
F-0.625
S'other'
p338
I13
tp339
a(I10
I57
F-0.875
S'awful'
p340
I13
tp341
a(I10
I119
I0
S'great'
p342
I13
tp343
a(I11
I12
I-100
S'soft-key'
p344
I13
tp345
a(I11
I13
I0
S'rear'
p346
I13
tp347
a(I11
I36
F-0.75
S'stupid'
p348
I13
tp349
a(I11
I36
F-0.875
S'harder'
p350
I13
tp351
a(I11
I70
I0
g304
I13
tp352
a(I12
I5
F-0.75
S'stupid'
p353
I13
tp354
a(I12
I5
I0
S'physical'
p355
I13
tp356
a(I12
I30
F0.625
S'easy'
p357
I13
tp358
a(I13
I14
I0
S'different'
p359
I13
tp360
a(I13
I28
I0
S'android'
p361
I13
tp362
a(I13
I65
F-0.75
g306
I13
tp363
a(I16
I117
F-0.25
S'lower'
p364
I13
tp365
a(I20
I0
F-0.625
g310
I13
tp366
a(I22
I51
F0.625
S'easy'
p367
I13
tp368
a(I22
I58
F-0.75
S'little'
p369
I13
tp370
a(I22
I60
I0
S'rear'
p371
I13
tp372
a(I22
I112
F0.375
S'strange'
p373
I13
tp374
a(I22
I112
F0.125
S'first'
p375
I13
tp376
a(I22
I198
F-0.25
S'hang'
p377
I13
tp378
a(I22
I224
I0
g312
I13
tp379
a(I22
I226
I0
S'standard'
p380
I13
tp381
a(I23
I33
F-0.875
g314
I13
tp382
a(I23
I45
F0.25
g316
I13
tp383
a(I23
I152
I0
S'rear'
p384
I13
tp385
a(I23
I154
I0
S'rear'
p386
I13
tp387
a(I23
I160
F0.625
S'easier'
p388
I13
tp389
a(I23
I169
I0
g320
I13
tp390
a(I23
I172
I0
S'physical'
p391
I13
tp392
a(I23
I176
I0
S'physical'
p393
I13
tp394
a(I29
I72
F0.125
g322
I13
tp395
a(I29
I300
I0
S'soft'
p396
I13
tp397
a(I30
I19
F-0.375
S'smaller'
p398
I13
tp399
a(I34
I83
I0
S'physical'
p400
I13
tp401
a(I34
I88
I0
S'metallic'
p402
I13
tp403
a(I34
I88
I0
S'plastic'
p404
I13
tp405
a(I34
I88
F-0.625
S'indistinguishable'
p406
I13
tp407
a(I35
I253
F0.5
S'odd'
p408
I13
tp409
a(I37
I92
I0
S'next'
p410
I13
tp411
as(S'couple'
p412
S'of'
p413
S'years'
p414
tp415
(lp416
(I34
I134
F0.125
S'last'
p417
I1
tp418
as(S'2'
p419
S'days'
p420
tp421
(lp422
(I16
I214
I0
S'more'
p423
I3
tp424
a(I17
I73
F-0.625
S'moderate'
p425
I3
tp426
a(I22
I102
I0
S'few'
p427
I3
tp428
a(I29
I367
I0
S'full'
p429
I3
tp430
as(S'camera'
p431
tp432
(lp433
(I1
I9
F0.25
S'professional'
p434
I1
tp435
a(I1
I41
I0
S'phenomenal'
p436
I1
tp437
a(I3
I89
I0
S'great'
p438
I1
tp439
a(I5
I24
F1.0
S'good'
p440
I1
tp441
a(I9
I21
F1.0
S'good'
p442
I1
tp443
a(I10
I76
I0
S'great'
p444
I1
tp445
a(I11
I103
I0
S'most'
p446
I1
tp447
a(I13
I12
I0
S'great'
p448
I1
tp449
a(I14
I6
I0
S'great'
p450
I1
tp451
a(I14
I12
F-0.5
S'regular'
p452
I1
tp453
a(I14
I12
F-0.75
S'dark'
p454
I1
tp455
a(I14
I23
F-0.5
S'weak'
p456
I1
tp457
a(I16
I212
F1.0
S'good'
p458
I1
tp459
a(I18
I40
F1.0
S'good'
p460
I1
tp461
a(I18
I40
F0.25
S'stellar'
p462
I1
tp463
a(I18
I43
F0.5
S'second'
p464
I1
tp465
a(I18
I61
F1.0
S'better'
p466
I1
tp467
a(I22
I64
I0
S'rear'
p468
I1
tp469
a(I23
I216
I0
S'different'
p470
I1
tp471
a(I23
I221
I0
S'rear'
p472
I1
tp473
a(I23
I221
F0.125
S'impressive'
p474
I1
tp475
a(I23
I223
I0
S'real'
p476
I1
tp477
a(I23
I236
F0.125
S'capable'
p478
I1
tp479
a(I23
I237
F1.0
S'best'
p480
I1
tp481
a(I25
I0
F1.0
S'best'
p482
I1
tp483
a(I29
I85
F-0.625
S'bad'
p484
I1
tp485
a(I29
I137
I0
S'great'
p486
I1
tp487
a(I29
I139
F-0.5
S'regular'
p488
I1
tp489
a(I29
I141
F1.0
S'better'
p490
I1
tp491
a(I29
I144
F0.375
S'extra'
p492
I1
tp493
a(I29
I144
F0.5
S'second'
p494
I1
tp495
a(I29
I189
I0
S'great'
p496
I1
tp497
a(I29
I203
F-0.375
S'killer'
p498
I1
tp499
a(I29
I240
F1.0
S'good'
p500
I1
tp501
a(I29
I292
F1.0
S'better'
p502
I1
tp503
a(I29
I294
F1.0
S'good'
p504
I1
tp505
a(I29
I294
F1.0
S'better'
p506
I1
tp507
a(I30
I17
I0
S'quick'
p508
I1
tp509
a(I34
I43
F1.0
S'good'
p510
I1
tp511
a(I34
I48
F0.125
S'capable'
p512
I1
tp513
a(I34
I116
F0.875
S'nice'
p514
I1
tp515
a(I34
I172
F0.625
S'decent'
p516
I1
tp517
a(I35
I24
F-0.5
S'open'
p518
I1
tp519
a(I37
I13
I0
S'most'
p520
I1
tp521
a(I37
I28
F0.25
S'larger'
p522
I1
tp523
a(I37
I28
F0.125
S'farther'
p524
I1
tp525
a(I37
I119
I0
S'great'
p526
I1
tp527
as(S'knock'
p528
S'on'
p529
S'feature'
p530
tp531
(lp532
(I3
I88
I0
S'cool'
p533
I0
tp534
a(I12
I47
F0.625
S'convenient'
p535
I0
tp536
a(I16
I226
F0.75
S'due'
p537
I0
tp538
a(I23
I10
I0
S'special'
p539
I0
tp540
a(I30
I46
I0
S'handy'
p541
I0
tp542
a(I30
I135
I0
S'cool'
p543
I0
tp544
a(I34
I51
F0.625
S'necessary'
p545
I0
tp546
a(I10
I71
F0.375
S'new'
p547
I0
tp548
a(I16
I226
F0.75
g537
I0
tp549
a(I29
I158
F1.0
S'better'
p550
I0
tp551
a(I35
I56
I0
S'more'
p552
I0
tp553
a(I3
I88
I0
g533
I0
tp554
a(I12
I47
F0.625
g535
I0
tp555
a(I16
I226
F0.75
g537
I0
tp556
a(I23
I10
I0
g539
I0
tp557
a(I29
I304
I0
S'great'
p558
I0
tp559
a(I30
I46
I0
g541
I0
tp560
a(I30
I135
I0
g543
I0
tp561
a(I34
I51
F0.625
g545
I0
tp562
a(I35
I56
I0
g552
I0
tp563
a(I10
I71
F0.375
g547
I0
tp564
a(I16
I226
F0.75
g537
I0
tp565
a(I29
I158
F1.0
g550
I0
tp566
a(I35
I56
I0
g552
I0
tp567
a(I10
I71
F0.375
g547
I3
tp568
a(I16
I226
F0.75
g537
I3
tp569
a(I29
I158
F1.0
g550
I3
tp570
a(I35
I56
I0
g552
I3
tp571
as(S'lot'
p572
S'of'
p573
S'people'
p574
tp575
(lp576
(I16
I44
F-0.5
S'miss'
p577
I0
tp578
as(S'operating'
p579
S'system'
p580
tp581
(lp582
(I35
I44
F-0.375
S'robust'
p583
I2
tp584
as(S'iphone'
p585
tp586
(lp587
(I3
I51
I0
S'old'
p588
I1
tp589
a(I13
I64
F-0.375
S'small'
p590
I1
tp591
a(I18
I35
F-0.5
S'weak'
p592
I1
tp593
a(I22
I19
I0
S'old'
p594
I1
tp595
a(I29
I30
I0
S'third'
p596
I1
tp597
a(I29
I264
I0
S'close'
p598
I1
tp599
a(I29
I366
F0.625
S'interested'
p600
I1
tp601
a(I34
I135
F0.125
S'last'
p602
I1
tp603
a(I34
I142
F1.0
S'best'
p604
I1
tp605
a(I34
I143
I0
S'many'
p606
I1
tp607
a(I35
I43
I0
S'entire'
p608
I1
tp609
as(S'volume'
p610
S'buttons'
p611
tp612
(lp613
(I1
I81
F-0.625
g288
I0
tp614
a(I5
I10
F-0.625
g333
I0
tp615
a(I10
I45
F-0.625
g338
I0
tp616
a(I10
I119
I0
g342
I0
tp617
a(I16
I117
F-0.25
g364
I0
tp618
a(I16
I231
F1.0
S'better'
p619
I0
tp620
a(I21
I25
F0.25
S'changed'
p621
I0
tp622
a(I22
I226
I0
g380
I0
tp623
a(I29
I174
I0
S'different'
p624
I0
tp625
a(I37
I92
I0
g410
I0
tp626
as(S'build'
p627
S'quality'
p628
tp629
(lp630
(I1
I22
F1.0
S'good'
p631
I2
tp632
a(I1
I22
F0.125
S'solid'
p633
I2
tp634
a(I23
I122
I0
S'great'
p635
I2
tp636
a(I34
I40
I0
S'great'
p637
I2
tp638
a(I34
I40
F-0.875
S'inferior'
p639
I2
tp640
as(S'headphone'
p641
S'jack'
p642
tp643
(lp644
(I1
I69
I0
S'wish'
p645
I0
tp646
a(I24
I36
F0.875
S'music'
p647
I0
tp648
as(S'droid'
p649
tp650
(lp651
(I0
I0
F0.125
S'first'
p652
I0
tp653
a(I10
I18
F-0.75
S'dead'
p654
I0
tp655
a(I10
I130
F0.25
S'original'
p656
I0
tp657
a(I13
I26
I0
S'faster'
p658
I0
tp659
a(I13
I27
F-0.375
S'smaller'
p660
I0
tp661
a(I13
I29
F1.0
S'good'
p662
I0
tp663
a(I13
I61
I0
S'old'
p664
I0
tp665
a(I14
I2
F0.375
S'new'
p666
I0
tp667
a(I14
I8
I0
S'old'
p668
I0
tp669
a(I22
I86
I0
S'old'
p670
I0
tp671
a(I29
I59
I0
S'decided'
p672
I0
tp673
a(I29
I346
F0.25
S'original'
p674
I0
tp675
as(S'third'
p676
S'party'
p677
tp678
(lp679
(I10
I65
I0
S'third'
p680
I0
tp681
a(I10
I70
I0
S'third'
p682
I0
tp683
a(I18
I22
I0
S'third'
p684
I0
tp685
a(I23
I233
I0
S'many'
p686
I0
tp687
a(I23
I233
F-0.625
S'other'
p688
I0
tp689
a(I23
I233
I0
S'third'
p690
I0
tp691
a(I23
I244
I0
S'third'
p692
I0
tp693
as(S'soft'
p694
S'keys'
p695
tp696
(lp697
(I22
I141
I0
S'soft'
p698
I0
tp699
a(I23
I172
I0
S'soft'
p700
I0
tp701
a(I23
I177
I0
S'soft'
p702
I0
tp703
as(S'a'
p704
S'samsung'
p705
S'galaxy'
p706
tp707
(lp708
(I1
I60
F0.375
g42
I0
tp709
a(I23
I128
I0
g44
I0
tp710
a(I23
I128
F0.625
g46
I0
tp711
a(I23
I128
F-0.625
g48
I0
tp712
a(I35
I182
F-0.375
g40
I0
tp713
as(S'great'
p714
S'battery'
p715
S'life'
p716
tp717
(lp718
(I1
I33
I0
S'great'
p719
I0
tp720
a(I1
I80
I0
S'full'
p721
I0
tp722
a(I6
I0
I0
S'great'
p723
I0
tp724
a(I17
I65
I0
S'great'
p725
I0
tp726
a(I19
I4
I0
S'great'
p727
I0
tp728
a(I21
I21
I0
S'great'
p729
I0
tp730
a(I29
I76
F1.0
S'best'
p731
I0
tp732
a(I29
I113
I0
S'great'
p733
I0
tp734
a(I29
I161
I0
S'great'
p735
I0
tp736
a(I30
I42
I0
S'great'
p737
I0
tp738
a(I35
I273
I0
S'great'
p739
I0
tp740
a(I1
I33
I0
g719
I0
tp741
a(I1
I80
I0
g721
I0
tp742
a(I6
I0
I0
g723
I0
tp743
a(I17
I65
I0
g725
I0
tp744
a(I19
I4
I0
g727
I0
tp745
a(I21
I21
I0
g729
I0
tp746
a(I29
I76
F1.0
g731
I0
tp747
a(I29
I113
I0
g733
I0
tp748
a(I29
I161
I0
g735
I0
tp749
a(I30
I42
I0
g737
I0
tp750
a(I35
I273
I0
g739
I0
tp751
a(I1
I33
I0
g719
I0
tp752
a(I1
I80
I0
g721
I0
tp753
a(I10
I103
I0
S'great'
p754
I0
tp755
a(I17
I65
I0
g725
I0
tp756
a(I21
I21
I0
g729
I0
tp757
a(I23
I6
I0
S'great'
p758
I0
tp759
a(I23
I80
I0
S'great'
p760
I0
tp761
a(I29
I76
F1.0
g731
I0
tp762
as(S'quite'
p763
g704
S'bit'
p764
tp765
(lp766
(I0
I2
F-0.625
S'quite'
p767
I7
tp768
as(S'on'
p769
S'lg'
p770
S'g2'
p771
tp772
(lp773
(I10
I128
F0.75
S'give'
p774
I0
tp775
a(I18
I7
F-0.75
S'wrong'
p776
I0
tp777
a(I23
I171
F-0.625
S'other'
p778
I0
tp779
a(I23
I202
F0.5
S'true'
p780
I0
tp781
a(I24
I113
F0.375
S'new'
p782
I0
tp783
a(I29
I60
F0.375
S'new'
p784
I0
tp785
a(I29
I60
F0.375
S'much'
p786
I0
tp787
a(I29
I173
F-0.5
S'international'
p788
I0
tp789
a(I29
I382
F-0.5
S'less'
p790
I0
tp791
a(I35
I185
F0.125
S'last'
p792
I0
tp793
a(I10
I128
F0.75
g774
I0
tp794
a(I18
I7
F-0.75
g776
I0
tp795
a(I23
I171
F-0.625
g778
I0
tp796
a(I23
I202
F0.5
g780
I0
tp797
a(I24
I2
F0.625
S'interested'
p798
I0
tp799
a(I24
I113
F0.375
g782
I0
tp800
a(I29
I60
F0.375
g784
I0
tp801
a(I29
I60
F0.375
g786
I0
tp802
a(I29
I173
F-0.5
g788
I0
tp803
a(I29
I382
F-0.5
g790
I0
tp804
a(I30
I41
F-0.625
S'glad'
p805
I0
tp806
a(I35
I185
F0.125
g792
I0
tp807
as(S'tap'
p808
S'on'
p809
S'screen'
p810
tp811
(lp812
(I0
I31
I0
g106
I0
tp813
a(I3
I45
F-0.375
g130
I0
tp814
a(I9
I18
F-0.625
S'light'
p815
I0
tp816
a(I12
I10
F-0.375
g132
I0
tp817
a(I16
I205
I0
S'blue'
p818
I0
tp819
a(I21
I24
F-0.375
g134
I0
tp820
a(I21
I28
F-0.375
g136
I0
tp821
a(I21
I28
I0
g138
I0
tp822
a(I21
I28
F-0.375
g140
I0
tp823
a(I22
I54
F0.375
S'extra'
p824
I0
tp825
a(I22
I54
F0.375
S'extra'
p826
I0
tp827
a(I29
I42
I0
S'most'
p828
I0
tp829
a(I29
I42
I0
S'more'
p830
I0
tp831
a(I29
I103
F-0.375
g142
I0
tp832
a(I29
I103
F-0.375
g144
I0
tp833
a(I29
I388
F-0.375
g110
I0
tp834
a(I31
I15
F-0.375
g147
I0
tp835
a(I35
I24
I0
g149
I0
tp836
a(I35
I24
F-0.375
g151
I0
tp837
as(S'button'
p838
S'on'
p839
S'back'
p840
tp841
(lp842
(I3
I43
I0
g290
I0
tp843
a(I9
I2
F-0.375
g292
I0
tp844
a(I10
I36
I0
g300
I0
tp845
a(I10
I36
I0
g302
I0
tp846
a(I16
I231
F0.625
g308
I0
tp847
a(I22
I53
F0.375
S'available'
p848
I0
tp849
a(I23
I126
I0
g318
I0
tp850
a(I24
I23
F-0.75
S'wrong'
p851
I0
tp852
a(I29
I173
F1.0
g324
I0
tp853
a(I29
I185
I0
g326
I0
tp854
a(I34
I86
I0
S'plastic'
p855
I0
tp856
a(I35
I95
I0
g328
I0
tp857
a(I3
I68
F-0.75
S'wrong'
p858
I19
tp859
a(I10
I40
F-0.625
S'push'
p860
I19
tp861
a(I16
I113
I0
S'next'
p862
I19
tp863
a(I17
I6
I0
S'third'
p864
I19
tp865
a(I18
I69
I0
S'subjective'
p866
I19
tp867
a(I22
I53
F0.375
g848
I19
tp868
a(I22
I58
F-0.75
S'difficult'
p869
I19
tp870
a(I23
I173
I0
S'real'
p871
I19
tp872
a(I23
I173
I0
S'real'
p873
I19
tp874
a(I24
I23
F-0.75
g851
I19
tp875
a(I29
I33
F0.5
S'obvious'
p876
I19
tp877
a(I33
I24
I0
g206
I19
tp878
a(I34
I34
F0.625
S'necessary'
p879
I19
tp880
a(I34
I86
I0
g855
I19
tp881
as(S'android'
p882
tp883
(lp884
(I3
I17
F0.125
S'typical'
p885
I0
tp886
a(I3
I27
F-0.25
S'google'
p887
I0
tp888
a(I5
I14
F0.125
S'native'
p889
I0
tp890
a(I9
I20
F-0.75
S'pure'
p891
I0
tp892
a(I9
I20
I0
S'fast'
p893
I0
tp894
a(I11
I46
I0
S'most'
p895
I0
tp896
a(I11
I84
F0.25
S'familiar'
p897
I0
tp898
a(I14
I19
I0
S'fourth'
p899
I0
tp900
a(I16
I37
F-0.5
S'regular'
p901
I0
tp902
a(I18
I53
F1.0
S'best'
p903
I0
tp904
a(I21
I19
I0
S'user'
p905
I0
tp906
a(I22
I17
I0
S'only'
p907
I0
tp908
a(I22
I209
F1.0
S'best'
p909
I0
tp910
a(I29
I27
F0.375
S'much'
p911
I0
tp912
a(I29
I80
F0.5
S'second'
p913
I0
tp914
a(I29
I86
F-0.875
S'worst'
p915
I0
tp916
a(I29
I125
I0
S'standard'
p917
I0
tp918
a(I29
I157
F-0.625
S'other'
p919
I0
tp920
a(I29
I218
F1.0
S'best'
p921
I0
tp922
a(I29
I235
F0.125
S'first'
p923
I0
tp924
a(I29
I343
F-0.625
S'other'
p925
I0
tp926
a(I30
I4
F1.0
S'good'
p927
I0
tp928
a(I31
I1
F0.125
S'last'
p929
I0
tp930
a(I34
I134
I0
S'nervous'
p931
I0
tp932
a(I34
I134
F0.625
S'easy'
p933
I0
tp934
a(I34
I134
F0.375
S'much'
p935
I0
tp936
a(I37
I56
F0.125
S'first'
p937
I0
tp938
a(I37
I68
F1.0
S'best'
p939
I0
tp940
as(S'image'
p941
S'stabilization'
p942
tp943
(lp944
(I10
I76
I0
S'optical'
p945
I0
tp946
a(I10
I76
F0.625
S'noticeable'
p947
I0
tp948
a(I29
I80
I0
S'optical'
p949
I0
tp950
a(I29
I80
I0
S'optical'
p951
I0
tp952
as(S'excellent'
p953
S'battery'
p954
S'life'
p955
tp956
(lp957
(I21
I21
I0
g729
I0
tp958
a(I29
I76
F1.0
g731
I0
tp959
as(S'razr'
p960
S'maxx'
p961
tp962
(lp963
(I31
I17
F0.375
S'new'
p964
I0
tp965
as(g704
S'big'
p966
S'deal'
p967
tp968
(lp969
(I3
I32
I0
S'big'
p970
I7
tp971
a(I3
I86
I0
S'big'
p972
I7
tp973
a(I21
I32
I0
S'big'
p974
I7
tp975
a(I22
I171
I0
S'big'
p976
I7
tp977
a(I23
I142
I0
S'big'
p978
I7
tp979
a(I24
I41
I0
S'big'
p980
I7
tp981
a(I30
I97
I0
S'big'
p982
I7
tp983
a(I35
I3
I0
S'big'
p984
I7
tp985
a(I35
I55
I0
S'big'
p986
I7
tp987
a(I35
I60
I0
S'big'
p988
I7
tp989
a(I35
I136
I0
S'big'
p990
I7
tp991
a(I35
I172
I0
S'big'
p992
I7
tp993
a(I35
I198
I0
S'big'
p994
I7
tp995
as(S'and'
p996
S'battery'
p997
S'life'
p998
tp999
(lp1000
(I3
I58
F1.0
S'best'
p1001
I1
tp1002
a(I4
I5
F-0.5
S'long'
p1003
I1
tp1004
a(I10
I99
F1.0
S'best'
p1005
I1
tp1006
a(I16
I23
I0
S'incredible'
p1007
I1
tp1008
a(I16
I212
F-0.5
S'long'
p1009
I1
tp1010
a(I17
I65
I0
g725
I1
tp1011
a(I18
I47
F1.0
S'good'
p1012
I1
tp1013
a(I21
I21
I0
g729
I1
tp1014
a(I23
I76
F1.0
S'better'
p1015
I1
tp1016
a(I23
I145
F0.5
S'plausible'
p1017
I1
tp1018
a(I23
I145
F0.375
S'new'
p1019
I1
tp1020
a(I25
I0
F0.25
S'favorite'
p1021
I1
tp1022
a(I29
I76
F1.0
g731
I1
tp1023
a(I29
I113
I0
g733
I1
tp1024
a(I29
I251
F-0.5
S'long'
p1025
I1
tp1026
a(I29
I361
F-0.375
S'crazy'
p1027
I1
tp1028
a(I29
I361
F1.0
S'good'
p1029
I1
tp1030
a(I29
I395
F0.625
S'removable'
p1031
I1
tp1032
a(I29
I395
F0.375
S'extended'
p1033
I1
tp1034
a(I37
I66
I0
S'current'
p1035
I1
tp1036
a(I37
I67
I0
S'phenomenal'
p1037
I1
tp1038
as(S'long'
p1039
S'battery'
p1040
S'life'
p1041
tp1042
(lp1043
(I4
I5
F-0.5
g1003
I0
tp1044
a(I4
I15
F0.875
S'important'
p1045
I0
tp1046
a(I13
I8
F-0.5
S'heavy'
p1047
I0
tp1048
a(I13
I8
F0.375
S'extended'
p1049
I0
tp1050
a(I16
I212
F-0.5
g1009
I0
tp1051
a(I23
I145
F0.5
g1017
I0
tp1052
a(I23
I145
F0.375
g1019
I0
tp1053
a(I23
I268
F-0.25
S'battery'
p1054
I0
tp1055
a(I23
I268
I0
S'such'
p1056
I0
tp1057
a(I29
I251
F-0.5
g1025
I0
tp1058
a(I33
I19
F-0.25
S'battery'
p1059
I0
tp1060
a(I35
I85
F-0.25
S'battery'
p1061
I0
tp1062
a(I1
I33
I0
g719
I1
tp1063
a(I1
I73
F0.875
S'happy'
p1064
I1
tp1065
a(I1
I80
I0
g721
I1
tp1066
a(I3
I58
F1.0
g1001
I1
tp1067
a(I4
I5
F-0.5
g1003
I1
tp1068
a(I4
I15
F0.875
g1045
I1
tp1069
a(I6
I0
I0
g723
I1
tp1070
a(I10
I99
F1.0
g1005
I1
tp1071
a(I13
I8
F-0.5
g1047
I1
tp1072
a(I13
I8
F0.375
g1049
I1
tp1073
a(I13
I16
F1.0
S'good'
p1074
I1
tp1075
a(I16
I23
I0
g1007
I1
tp1076
a(I16
I212
F-0.5
g1009
I1
tp1077
a(I17
I65
I0
g725
I1
tp1078
a(I17
I71
F1.0
S'better'
p1079
I1
tp1080
a(I18
I47
F1.0
g1012
I1
tp1081
a(I19
I4
I0
g727
I1
tp1082
a(I21
I21
I0
g729
I1
tp1083
a(I22
I220
F0.375
S'much'
p1084
I1
tp1085
a(I23
I76
F1.0
g1015
I1
tp1086
a(I23
I145
F0.5
g1017
I1
tp1087
a(I23
I145
F0.375
g1019
I1
tp1088
a(I23
I268
F-0.25
g1054
I1
tp1089
a(I23
I268
I0
g1056
I1
tp1090
a(I25
I0
F0.25
g1021
I1
tp1091
a(I29
I76
F1.0
g731
I1
tp1092
a(I29
I113
I0
g733
I1
tp1093
a(I29
I161
I0
g735
I1
tp1094
a(I29
I242
F0.5
S'respectable'
p1095
I1
tp1096
a(I29
I251
F-0.5
g1025
I1
tp1097
a(I29
I277
F0.25
S'stellar'
p1098
I1
tp1099
a(I29
I361
F-0.375
g1027
I1
tp1100
a(I29
I361
F1.0
g1029
I1
tp1101
a(I29
I395
F0.625
g1031
I1
tp1102
a(I29
I395
F0.375
g1033
I1
tp1103
a(I30
I42
I0
g737
I1
tp1104
a(I32
I3
F0.125
S'impressive'
p1105
I1
tp1106
a(I33
I19
F-0.25
g1059
I1
tp1107
a(I34
I11
I0
S'same'
p1108
I1
tp1109
a(I34
I61
F1.0
S'good'
p1110
I1
tp1111
a(I34
I125
F0.125
S'impressive'
p1112
I1
tp1113
a(I35
I23
F1.0
S'good'
p1114
I1
tp1115
a(I35
I85
F-0.25
g1061
I1
tp1116
a(I35
I273
I0
g739
I1
tp1117
a(I37
I66
I0
g1035
I1
tp1118
a(I37
I67
I0
g1037
I1
tp1119
a(I3
I58
F1.0
g1001
I19
tp1120
a(I4
I15
F0.875
g1045
I19
tp1121
a(I6
I0
I0
g723
I19
tp1122
a(I13
I8
F-0.5
g1047
I19
tp1123
a(I13
I8
F0.375
g1049
I19
tp1124
a(I19
I4
I0
g727
I19
tp1125
a(I19
I5
F0.125
S'plenty'
p1126
I19
tp1127
a(I23
I268
F-0.25
g1054
I19
tp1128
a(I23
I268
I0
g1056
I19
tp1129
a(I29
I113
I0
g733
I19
tp1130
a(I29
I161
I0
g735
I19
tp1131
a(I29
I242
F0.5
g1095
I19
tp1132
a(I29
I277
F0.25
g1098
I19
tp1133
a(I29
I361
F-0.375
g1027
I19
tp1134
a(I29
I361
F1.0
g1029
I19
tp1135
a(I30
I42
I0
g737
I19
tp1136
a(I32
I3
F0.125
g1105
I19
tp1137
a(I33
I19
F-0.25
g1059
I19
tp1138
a(I34
I125
F0.125
g1112
I19
tp1139
a(I35
I85
F-0.25
g1061
I19
tp1140
a(I35
I273
I0
g739
I19
tp1141
a(I37
I66
I0
g1035
I19
tp1142
a(I37
I67
I0
g1037
I19
tp1143
a(I0
I1
F0.25
S'larger'
p1144
I15
tp1145
a(I1
I33
I0
g719
I15
tp1146
a(I1
I73
F0.875
g1064
I15
tp1147
a(I1
I80
I0
g721
I15
tp1148
a(I3
I9
F0.375
S'extended'
p1149
I15
tp1150
a(I3
I9
F0.125
S'last'
p1151
I15
tp1152
a(I4
I5
F-0.5
g1003
I15
tp1153
a(I10
I83
F0.125
S'last'
p1154
I15
tp1155
a(I10
I83
F-0.5
S'long'
p1156
I15
tp1157
a(I10
I86
F0.25
S'use'
p1158
I15
tp1159
a(I10
I99
F1.0
g1005
I15
tp1160
a(I10
I100
F0.25
S'consistent'
p1161
I15
tp1162
a(I10
I100
F-0.625
S'unstoppable'
p1163
I15
tp1164
a(I10
I103
I0
g754
I15
tp1165
a(I13
I7
F0.625
S'removable'
p1166
I15
tp1167
a(I13
I16
F1.0
g1074
I15
tp1168
a(I16
I23
I0
g1007
I15
tp1169
a(I16
I212
F-0.5
g1009
I15
tp1170
a(I17
I48
I0
S'nervous'
p1171
I15
tp1172
a(I17
I65
I0
g725
I15
tp1173
a(I17
I71
F1.0
g1079
I15
tp1174
a(I17
I78
F0.125
S'last'
p1175
I15
tp1176
a(I18
I47
F1.0
g1012
I15
tp1177
a(I21
I18
F0.25
S'bigger'
p1178
I15
tp1179
a(I21
I21
I0
g729
I15
tp1180
a(I22
I43
F0.625
S'removable'
p1181
I15
tp1182
a(I22
I129
F0.625
S'removable'
p1183
I15
tp1184
a(I22
I189
F0.125
S'last'
p1185
I15
tp1186
a(I22
I220
F0.375
g1084
I15
tp1187
a(I23
I6
I0
g758
I15
tp1188
a(I23
I76
F1.0
g1015
I15
tp1189
a(I23
I80
I0
g760
I15
tp1190
a(I23
I81
F-0.25
S'lower'
p1191
I15
tp1192
a(I23
I84
F-0.875
S'worst'
p1193
I15
tp1194
a(I23
I85
I0
S'such'
p1195
I15
tp1196
a(I23
I85
I0
S'large'
p1197
I15
tp1198
a(I23
I87
F0.5
S'second'
p1199
I15
tp1200
a(I23
I87
F0.25
S'largest'
p1201
I15
tp1202
a(I23
I97
I0
S'plate'
p1203
I15
tp1204
a(I23
I102
F0.375
S'much'
p1205
I15
tp1206
a(I23
I145
F0.5
g1017
I15
tp1207
a(I23
I145
F0.375
g1019
I15
tp1208
a(I23
I146
F0.125
S'essential'
p1209
I15
tp1210
a(I25
I0
F0.25
g1021
I15
tp1211
a(I29
I4
F0.125
S'last'
p1212
I15
tp1213
a(I29
I75
I0
S'more'
p1214
I15
tp1215
a(I29
I76
F1.0
g731
I15
tp1216
a(I29
I220
F1.0
S'good'
p1217
I15
tp1218
a(I29
I251
F-0.5
g1025
I15
tp1219
a(I29
I395
F0.625
g1031
I15
tp1220
a(I29
I395
F0.375
g1033
I15
tp1221
a(I34
I11
I0
g1108
I15
tp1222
a(I34
I61
F1.0
g1110
I15
tp1223
a(I34
I168
F0.125
S'last'
p1224
I15
tp1225
a(I35
I23
F1.0
g1114
I15
tp1226
a(I35
I101
F0.625
S'removable'
p1227
I15
tp1228
a(I35
I130
F-0.75
S'impossible'
p1229
I15
tp1230
a(I35
I133
F0.125
S'last'
p1231
I15
tp1232
a(I35
I138
F-0.625
S'bad'
p1233
I15
tp1234
a(I35
I138
I0
S'such'
p1235
I15
tp1236
a(I35
I138
I0
S'big'
p1237
I15
tp1238
a(I35
I197
F0.625
S'removable'
p1239
I15
tp1240
a(I37
I61
F0.625
S'removable'
p1241
I15
tp1242
a(I37
I61
F-0.375
S'smaller'
p1243
I15
tp1244
as(S'calls'
p1245
tp1246
(lp1247
(I10
I26
F0.875
S'music'
p1248
I0
tp1249
a(I23
I1
F0.125
S'able'
p1250
I0
tp1251
a(I23
I205
F1.0
S'good'
p1252
I0
tp1253
as(g704
g419
S'year'
p1254
tp1255
(lp1256
(I23
I69
I0
S'old'
p1257
I0
tp1258
a(I29
I66
F0.25
S'powerful'
p1259
I0
tp1260
a(I30
I57
I0
S'old'
p1261
I0
tp1262
a(I37
I14
I0
S'older'
p1263
I0
tp1264
as(S'volume'
p1265
S'and'
p1266
S'power'
p1267
tp1268
(lp1269
(I16
I231
F1.0
g619
I0
tp1270
a(I21
I25
F0.25
g621
I0
tp1271
a(I29
I174
I0
g624
I0
tp1272
a(I16
I231
F1.0
g619
I0
tp1273
a(I21
I25
F0.25
g621
I0
tp1274
a(I29
I174
I0
g624
I0
tp1275
a(I1
I51
I0
S'full'
p1276
I6
tp1277
a(I16
I231
F1.0
g619
I6
tp1278
a(I21
I25
F0.25
g621
I6
tp1279
a(I29
I174
I0
g624
I6
tp1280
a(I34
I149
F-0.25
S'lower'
p1281
I6
tp1282
a(I35
I50
F0.625
S'easier'
p1283
I6
tp1284
as(S'extensive'
p1285
S'research'
p1286
tp1287
(lp1288
(I14
I1
I0
S'extensive'
p1289
I0
tp1290
a(I21
I5
I0
S'extensive'
p1291
I0
tp1292
a(I22
I81
I0
S'extensive'
p1293
I0
tp1294
as(S'on'
p1295
S'verizon'
p1296
S'version'
p1297
tp1298
(lp1299
(I10
I36
F-0.375
S'smaller'
p1300
I0
tp1301
a(I16
I13
F-0.5
S'international'
p1302
I0
tp1303
a(I34
I78
F-0.625
S'other'
p1304
I0
tp1305
a(I10
I36
F-0.375
g1300
I0
tp1306
a(I16
I13
F-0.5
g1302
I0
tp1307
a(I34
I78
F-0.625
g1304
I0
tp1308
a(I10
I35
F0.25
S'original'
p1309
I0
tp1310
a(I10
I36
F-0.375
g1300
I0
tp1311
a(I10
I110
F0.375
S'available'
p1312
I0
tp1313
a(I16
I226
I0
S'local'
p1314
I0
tp1315
a(I22
I137
I0
S'great'
p1316
I0
tp1317
a(I23
I0
F0.875
S'happy'
p1318
I0
tp1319
a(I23
I29
F0.5
S'rid'
p1320
I0
tp1321
a(I24
I63
I0
S'wish'
p1322
I0
tp1323
a(I24
I98
F0.375
S'new'
p1324
I0
tp1325
a(I29
I51
I0
S'local'
p1326
I0
tp1327
a(I29
I172
F-0.375
S'smaller'
p1328
I0
tp1329
a(I29
I193
F0.375
S'new'
p1330
I0
tp1331
a(I34
I94
F0.75
S'due'
p1332
I0
tp1333
a(I34
I99
F0.75
S'due'
p1334
I0
tp1335
a(I36
I11
F0.625
S'easier'
p1336
I0
tp1337
a(I37
I52
I0
S'most'
p1338
I0
tp1339
as(S'optical'
p1340
g941
tp1341
(lp1342
(I10
I76
I0
g945
I0
tp1343
a(I29
I80
I0
g949
I0
tp1344
a(I29
I80
I0
g951
I0
tp1345
as(S'speaker'
p1346
tp1347
(lp1348
(I0
I41
I0
S'wish'
p1349
I8
tp1350
a(I1
I50
F0.375
S'loud'
p1351
I8
tp1352
a(I1
I54
I0
S'different'
p1353
I8
tp1354
a(I1
I54
F-0.625
S'other'
p1355
I8
tp1356
a(I11
I75
F0.625
S'acceptable'
p1357
I8
tp1358
a(I12
I19
I0
S'only'
p1359
I8
tp1360
a(I12
I19
F-0.875
S'negative'
p1361
I8
tp1362
a(I12
I19
F-0.5
S'actual'
p1363
I8
tp1364
a(I16
I22
I0
S'great'
p1365
I8
tp1366
a(I21
I7
F1.0
S'good'
p1367
I8
tp1368
a(I22
I61
F-0.75
S'single'
p1369
I8
tp1370
a(I23
I203
I0
S'external'
p1371
I8
tp1372
a(I24
I30
I0
S'external'
p1373
I8
tp1374
a(I29
I98
F-0.75
S'single'
p1375
I8
tp1376
a(I30
I130
I0
S'external'
p1377
I8
tp1378
a(I30
I130
F0.875
S'music'
p1379
I8
tp1380
as(S'call'
p1381
S'quality'
p1382
tp1383
(lp1384
(I12
I56
I0
S'great'
p1385
I0
tp1386
a(I14
I8
F-0.5
S'call'
p1387
I0
tp1388
a(I16
I22
F-0.625
S'other'
p1389
I0
tp1390
a(I22
I174
F-0.5
S'poor'
p1391
I0
tp1392
a(I23
I0
F-0.5
S'call'
p1393
I0
tp1394
a(I23
I9
F-0.5
S'call'
p1395
I0
tp1396
a(I24
I46
F0.125
S'tolerable'
p1397
I0
tp1398
a(I29
I296
F0.25
S'stellar'
p1399
I0
tp1400
as(S'point'
p1401
S'and'
p1402
S'shoot'
p1403
tp1404
(lp1405
(I35
I91
F1.0
S'good'
p1406
I0
tp1407
a(I35
I91
F-0.5
S'regular'
p1408
I0
tp1409
a(I35
I150
F-0.5
S'regular'
p1410
I0
tp1411
a(I35
I151
F-0.5
S'regular'
p1412
I0
tp1413
as(S'negative'
p1414
S'comments'
p1415
tp1416
(lp1417
(I10
I136
F-0.875
S'negative'
p1418
I1
tp1419
a(I11
I71
I0
S'many'
p1420
I1
tp1421
a(I11
I71
F-0.875
S'negative'
p1422
I1
tp1423
a(I34
I2
F-0.875
S'negative'
p1424
I1
tp1425
as(S'smartphone'
p1426
tp1427
(lp1428
(I0
I21
F-0.75
S'wrong'
p1429
I0
tp1430
a(I1
I59
F0.25
S'bigger'
p1431
I0
tp1432
a(I1
I59
F0.875
S'nice'
p1433
I0
tp1434
a(I5
I26
F0.125
S'first'
p1435
I0
tp1436
a(I11
I83
F-0.5
S'long'
p1437
I0
tp1438
a(I14
I19
F0.125
S'impressive'
p1439
I0
tp1440
a(I14
I27
F-0.375
S'top'
p1441
I0
tp1442
a(I18
I48
F0.125
S'first'
p1443
I0
tp1444
a(I19
I0
F0.125
S'first'
p1445
I0
tp1446
a(I22
I41
F0.75
S'beautiful'
p1447
I0
tp1448
a(I23
I84
F0.25
S'recent'
p1449
I0
tp1450
a(I23
I224
I0
S'common'
p1451
I0
tp1452
a(I23
I224
I0
S'most'
p1453
I0
tp1454
a(I23
I251
F0.625
S'necessary'
p1455
I0
tp1456
a(I23
I268
F0.25
S'powerful'
p1457
I0
tp1458
a(I29
I84
F1.0
S'better'
p1459
I0
tp1460
a(I34
I44
F-0.375
S'serious'
p1461
I0
tp1462
a(I34
I96
F1.0
S'good'
p1463
I0
tp1464
a(I37
I71
F0.5
S'second'
p1465
I0
tp1466
as(g704
S'removable'
p1467
S'battery'
p1468
tp1469
(lp1470
(I13
I7
F0.625
g1166
I0
tp1471
a(I16
I212
F-0.5
g1009
I0
tp1472
a(I22
I43
F0.625
g1181
I0
tp1473
a(I22
I129
F0.625
g1183
I0
tp1474
a(I23
I146
F0.125
g1209
I0
tp1475
a(I29
I395
F0.625
g1031
I0
tp1476
a(I29
I395
F0.375
g1033
I0
tp1477
a(I35
I101
F0.625
g1227
I0
tp1478
a(I35
I197
F0.625
g1239
I0
tp1479
a(I37
I61
F0.625
g1241
I0
tp1480
a(I37
I61
F-0.375
g1243
I0
tp1481
as(S'apps'
p1482
tp1483
(lp1484
(I0
I13
F0.375
S'extra'
p1485
I0
tp1486
a(I0
I15
F-0.375
S'disable'
p1487
I0
tp1488
a(I0
I24
F-0.125
S'slow'
p1489
I0
tp1490
a(I0
I27
F-0.125
S'super'
p1491
I0
tp1492
a(I0
I33
F-0.5
S'open'
p1493
I0
tp1494
a(I0
I33
F0.375
S'similar'
p1495
I0
tp1496
a(I1
I46
I0
S'many'
p1497
I0
tp1498
a(I3
I26
I0
S'own'
p1499
I0
tp1500
a(I5
I11
F0.125
S'native'
p1501
I0
tp1502
a(I10
I61
I0
S'great'
p1503
I0
tp1504
a(I10
I61
I0
S'quick'
p1505
I0
tp1506
a(I11
I96
I0
S'own'
p1507
I0
tp1508
a(I21
I31
I0
S'many'
p1509
I0
tp1510
a(I22
I69
F0.375
S'available'
p1511
I0
tp1512
a(I23
I28
I0
S'instant'
p1513
I0
tp1514
a(I23
I118
I0
S'large'
p1515
I0
tp1516
a(I23
I249
F-0.625
S'other'
p1517
I0
tp1518
a(I23
I257
F-0.375
S'disable'
p1519
I0
tp1520
a(I29
I134
F0.125
S'first'
p1521
I0
tp1522
a(I29
I136
I0
S'such'
p1523
I0
tp1524
a(I29
I303
I0
S'more'
p1525
I0
tp1526
a(I29
I330
F0.125
S'visible'
p1527
I0
tp1528
a(I30
I11
F-0.5
S'open'
p1529
I0
tp1530
a(I30
I32
F-0.5
S'worthless'
p1531
I0
tp1532
a(I32
I2
I0
S'great'
p1533
I0
tp1534
a(I34
I53
I0
S'own'
p1535
I0
tp1536
a(I34
I156
F0.25
S'recent'
p1537
I0
tp1538
a(I35
I163
F0.875
S'music'
p1539
I0
tp1540
a(I37
I81
F0.5
S'clear'
p1541
I0
tp1542
as(S'listen'
p1543
S'to'
p1544
S'music'
p1545
tp1546
(lp1547
(I34
I76
I0
S'same'
p1548
I0
tp1549
as(S'low'
p1550
S'light'
p1551
S'pictures'
p1552
tp1553
(lp1554
(I24
I119
F-0.25
S'low'
p1555
I0
tp1556
a(I24
I119
F-0.625
S'light'
p1557
I0
tp1558
a(I29
I140
F-0.625
S'average'
p1559
I0
tp1560
a(I29
I140
F-0.25
S'low'
p1561
I0
tp1562
a(I29
I141
F-0.25
S'low'
p1563
I0
tp1564
a(I23
I224
F-0.25
S'low'
p1565
I0
tp1566
a(I29
I140
F-0.25
g1561
I0
tp1567
a(I29
I141
F-0.25
g1563
I0
tp1568
a(I29
I142
F-0.25
S'low'
p1569
I0
tp1570
as.