(dp0
(S'battery'
p1
S'life'
p2
tp3
(lp4
(I5
I25
F1.0
S'better'
p5
I1
tp6
a(I5
I25
F0.375
S'new'
p7
I1
tp8
a(I7
I19
I0
S'great'
p9
I1
tp10
a(I12
I3
F1.0
S'good'
p11
I1
tp12
a(I18
I62
F1.0
S'good'
p13
I1
tp14
a(I19
I8
I0
S'great'
p15
I1
tp16
a(I5
I25
F0.375
g7
I19
tp17
a(I7
I19
I0
g9
I19
tp18
a(I12
I3
F1.0
g11
I19
tp19
a(I18
I62
F1.0
g13
I19
tp20
a(I1
I44
F-0.375
S'small'
p21
I15
tp22
a(I5
I25
F1.0
g5
I15
tp23
a(I11
I4
F0.125
S'last'
p24
I15
tp25
a(I11
I4
F-0.5
S'long'
p26
I15
tp27
a(I11
I22
F-0.5
S'long'
p28
I15
tp29
a(I12
I12
F-0.25
S'low'
p30
I15
tp31
a(I13
I18
F0.375
S'new'
p32
I15
tp33
a(I15
I58
F1.0
S'good'
p34
I15
tp35
a(I18
I44
I0
S'faster'
p36
I15
tp37
a(I19
I8
I0
g15
I15
tp38
as(S'micro'
p39
S'sim'
p40
tp41
(lp42
(I6
I19
F0.375
S'new'
p43
I0
tp44
a(I18
I52
I0
S'old'
p45
I0
tp46
as(S'service'
p47
tp48
(lp49
(I6
I25
F1.0
S'good'
p50
I16
tp51
as(S'camera'
p52
tp53
(lp54
(I5
I17
F-0.125
S'minimum'
p55
I1
tp56
a(I5
I17
I0
S'least'
p57
I1
tp58
a(I5
I29
F-0.75
S'dependent'
p59
I1
tp60
a(I7
I10
F0.25
S'circular'
p61
I1
tp62
a(I11
I30
I0
S'rear'
p63
I1
tp64
a(I14
I17
F-0.125
S'front'
p65
I1
tp66
a(I14
I17
I0
S'great'
p67
I1
tp68
a(I15
I19
I0
S'rear'
p69
I1
tp70
a(I18
I31
F-0.625
S'bad'
p71
I1
tp72
a(I18
I34
F0.125
S'able'
p73
I1
tp74
a(I18
I117
F0.5
S'so-so'
p75
I1
tp76
as(S'iphone'
p77
tp78
(lp79
(I6
I3
F1.0
S'better'
p80
I1
tp81
a(I12
I35
F-0.625
S'bad'
p82
I1
tp83
as(S'straight'
p84
S'talk'
p85
tp86
(lp87
(I7
I43
F0.625
S'straight'
p88
I0
tp89
as(S'prepaid'
p90
tp91
(lp92
(I15
I0
I0
S'few'
p93
I0
tp94
as(S'contract'
p95
tp96
(lp97
(I4
I4
I0
S'different'
p98
I0
tp99
a(I5
I12
F0.125
S'renewal'
p100
I0
tp101
a(I5
I13
I0
S'two-year'
p102
I0
tp103
a(I13
I7
F1.0
S'better'
p104
I0
tp105
as(S'android'
p106
tp107
(lp108
(I1
I2
I0
S'great'
p109
I0
tp110
a(I1
I5
F-0.625
S'other'
p111
I0
tp112
a(I4
I0
I0
S'useful'
p113
I0
tp114
a(I4
I0
I0
S'basic'
p115
I0
tp116
a(I6
I1
F1.0
S'best'
p117
I0
tp118
a(I18
I93
F0.125
S'first'
p119
I0
tp120
a(I18
I95
I0
S'latest'
p121
I0
tp122
as(S'smart'
p123
tp124
(lp125
(I1
I65
F0.125
S'first'
p126
I10
tp127
a(I7
I1
I0
S'needed'
p128
I10
tp129
a(I7
I1
F0.375
S'new'
p130
I10
tp131
a(I7
I29
F0.625
S'concrete'
p132
I10
tp133
a(I7
I29
F-0.625
S'other'
p134
I10
tp135
a(I15
I34
F0.125
S'first'
p136
I10
tp137
a(I16
I11
I0
S'great'
p138
I10
tp139
a(I18
I11
F0.125
S'first'
p140
I10
tp141
a(I18
I100
F0.125
S'first'
p142
I10
tp143
as(S'samsung'
p144
S'galaxy'
p145
tp146
(lp147
(I5
I10
F-0.5
S'sure'
p148
I0
tp149
a(I5
I10
F-0.5
g148
I7
tp150
a(I11
I35
F1.0
S'good'
p151
I7
tp152
a(I14
I43
I0
S'older'
p153
I7
tp154
a(I18
I52
I0
S'generic'
p155
I0
tp156
as(S'sim'
p157
S'card'
p158
tp159
(lp160
(I7
I4
F0.375
S'new'
p161
I0
tp162
a(I14
I29
F-0.375
S'smaller'
p163
I0
tp164
a(I14
I29
I0
S'old'
p165
I0
tp166
a(I18
I52
I0
g45
I0
tp167
a(I20
I3
I0
S'great'
p168
I0
tp169
as(S'front'
p170
tp171
(lp172
(I13
I9
F0.125
S'outside'
p173
I14
tp174
as(S'a'
p175
S'data'
p176
S'plan'
p177
tp178
(lp179
(I18
I96
F0.625
S'easy'
p180
I0
tp181
a(I18
I104
I0
S'monthly'
p182
I0
tp183
a(I18
I104
I0
g182
I13
tp184
a(I18
I105
I0
S'more'
p185
I13
tp186
a(I18
I105
F-0.5
S'less'
p187
I13
tp188
as(S'wifi'
p189
tp190
(lp191
(I1
I5
F0.5
S'comparable'
p192
I0
tp193
a(I11
I17
F1.0
S'best'
p194
I0
tp195
a(I18
I108
F-0.625
S'other'
p196
I0
tp197
as(S'super'
p198
S'fast'
p199
tp200
(lp201
(I0
I9
F-0.125
S'super'
p202
I0
tp203
a(I7
I7
F-0.125
S'super'
p204
I0
tp205
a(I18
I50
F-0.125
S'super'
p206
I0
tp207
as(S'apps'
p208
tp209
(lp210
(I0
I4
I0
S'great'
p211
I0
tp212
a(I0
I4
F0.375
S'available'
p213
I0
tp214
a(I1
I9
I0
S'latest'
p215
I0
tp216
a(I1
I32
I0
S'such'
p217
I0
tp218
a(I15
I7
F0.25
S'larger'
p219
I0
tp220
as.