(dp0
(S'home'
p1
S'button'
p2
tp3
(lp4
(I4
I137
I0
S'quicker'
p5
I0
tp6
a(I11
I7
I0
S'pen'
p7
I0
tp8
as(S'screen'
p9
S'size'
p10
tp11
(lp12
(I6
I28
I0
S'large'
p13
I3
tp14
a(I6
I108
I0
S'great'
p15
I3
tp16
a(I8
I77
F-0.375
S'simpler'
p17
I3
tp18
as(S'back'
p19
S'cover'
p20
tp21
(lp22
(I6
I81
I0
S'plastic'
p23
I2
tp24
a(I6
I82
F-0.5
S'less'
p25
I2
tp26
as(S'keyboard'
p27
tp28
(lp29
(I8
I92
F0.125
S'native'
p30
I2
tp31
as(S'call'
p32
S'quality'
p33
tp34
(lp35
(I2
I77
F1.0
S'good'
p36
I0
tp37
a(I7
I18
F1.0
S'good'
p38
I0
tp39
a(I7
I18
F0.125
S'first'
p40
I0
tp41
as(S'2'
p42
S'days'
p43
tp44
(lp45
(I2
I76
F0.625
S'easy'
p46
I3
tp47
a(I6
I53
I0
S'full'
p48
I3
tp49
a(I7
I65
I0
S'least'
p50
I3
tp51
a(I8
I74
I0
S'few'
p52
I3
tp53
as(S'samsung'
p54
tp55
(lp56
(I1
I75
F-0.5
S'sure'
p57
I7
tp58
a(I2
I15
I0
S'site'
p59
I7
tp60
a(I7
I41
F-0.625
S'surprising'
p61
I7
tp62
a(I7
I61
F0.125
S'first'
p63
I7
tp64
a(I8
I39
F-0.625
S'other'
p65
I7
tp66
a(I8
I39
F0.375
S'new'
p67
I7
tp68
a(I11
I3
F0.375
S'new'
p69
I7
tp70
as(S'camera'
p71
tp72
(lp73
(I7
I75
I0
S'great'
p74
I1
tp75
a(I8
I0
F1.0
S'good'
p76
I1
tp77
a(I8
I71
F1.0
S'good'
p78
I1
tp79
as(S'iphone'
p80
tp81
(lp82
(I1
I14
F-0.125
S'slow'
p83
I1
tp84
a(I1
I14
F0.375
S'much'
p85
I1
tp86
a(I1
I35
F0.5
S'clear'
p87
I1
tp88
a(I1
I35
F1.0
S'better'
p89
I1
tp90
a(I8
I17
I0
S'old'
p91
I1
tp92
a(I8
I107
F0.875
S'happy'
p93
I1
tp94
as(S'galaxy'
p95
tp96
(lp97
(I1
I29
F-0.25
S'white'
p98
I0
tp99
a(I6
I14
F0.125
S'first'
p100
I0
tp101
a(I9
I0
F0.25
S'original'
p102
I0
tp103
as(S'apple'
p104
tp105
(lp106
(I6
I58
F0.875
S'nice'
p107
I4
tp108
as(S'stylus'
p109
tp110
(lp111
(I8
I98
F-0.875
S'hard'
p112
I7
tp113
a(I8
I100
F0.625
S'easy'
p114
I7
tp115
a(I13
I13
F0.375
S'new'
p116
I7
tp117
as(S'verizon'
p118
tp119
(lp120
(I2
I77
F0.25
S'sharp'
p121
I0
tp122
a(I2
I78
I0
S'fast'
p123
I0
tp124
a(I6
I87
F0.125
S'usual'
p125
I0
tp126
a(I10
I2
F0.375
S'extra'
p127
I0
tp128
a(I12
I28
I0
S'wish'
p129
I0
tp130
as(S'usage'
p131
tp132
(lp133
(I2
I76
F-0.625
S'light'
p134
I1
tp135
a(I6
I53
F-0.625
S'light'
p136
I1
tp137
a(I6
I53
F-0.5
S'heavy'
p138
I1
tp139
a(I8
I75
I0
S'same'
p140
I1
tp141
a(I8
I76
F-0.5
S'heavy'
p142
I1
tp143
a(I8
I82
F-0.625
S'moderate'
p144
I1
tp145
as(S'sound'
p146
tp147
(lp148
(I8
I71
F1.0
S'good'
p149
I7
tp150
as(S'android'
p151
tp152
(lp153
(I2
I17
I0
S'old'
p154
I0
tp155
a(I6
I92
F0.375
S'new'
p156
I0
tp157
a(I6
I92
I0
S'later'
p158
I0
tp159
as(S'larger'
p160
S'screen'
p161
tp162
(lp163
(I1
I25
I0
S'most'
p164
I0
tp165
a(I1
I25
F0.25
S'larger'
p166
I0
tp167
a(I3
I36
F0.25
S'larger'
p168
I0
tp169
a(I4
I82
F0.25
S'larger'
p170
I0
tp171
a(I6
I140
F0.25
S'larger'
p172
I0
tp173
a(I8
I64
F0.25
S'larger'
p174
I0
tp175
a(I8
I83
F0.25
S'larger'
p176
I0
tp177
as(S'hands'
p178
tp179
(lp180
(I1
I8
F-0.375
S'small'
p181
I15
tp182
a(I2
I59
F-0.75
S'dirty'
p183
I15
tp184
a(I2
I64
I0
S'large'
p185
I15
tp186
a(I6
I76
F-0.375
S'small'
p187
I15
tp188
a(I8
I31
I0
S'great'
p189
I15
tp190
a(I8
I80
F0.375
S'enable'
p191
I15
tp192
a(I8
I80
F-0.625
S'free'
p193
I15
tp194
as(S'razr'
p195
S'maxx'
p196
tp197
(lp198
(I4
I149
I0
S'meteorite'
p199
I0
tp200
as(S'apps'
p201
tp202
(lp203
(I1
I73
I0
S'useful'
p204
I0
tp205
a(I3
I37
I0
S'more'
p206
I0
tp207
a(I6
I18
F0.75
S'beautiful'
p208
I0
tp209
a(I6
I47
I0
S'same'
p210
I0
tp211
a(I6
I97
F0.25
S'favorite'
p212
I0
tp213
a(I8
I128
F-0.5
S'sure'
p214
I0
tp215
a(I11
I15
F-0.375
S'disable'
p216
I0
tp217
as(S'smart'
p218
tp219
(lp220
(I3
I5
F0.625
S'easier'
p221
I10
tp222
a(I3
I31
F1.0
S'best'
p223
I10
tp224
a(I8
I132
I0
S'many'
p225
I10
tp226
as(S'big'
p227
S'screen'
p228
tp229
(lp230
(I1
I37
F0.25
S'bigger'
p231
I1
tp232
a(I4
I172
I0
S'big'
p233
I1
tp234
a(I6
I18
I0
S'big'
p235
I1
tp236
a(I6
I37
I0
S'big'
p237
I1
tp238
a(I6
I39
I0
S'big'
p239
I1
tp240
a(I6
I40
F0.25
S'bigger'
p241
I1
tp242
a(I8
I131
I0
S'big'
p243
I1
tp244
a(I8
I132
I0
S'big'
p245
I1
tp246
as(S'write'
p247
tp248
(lp249
(I3
I0
I0
S'more'
p250
I12
tp251
as(S'contacts'
p252
tp253
(lp254
(I6
I24
F0.375
S'much'
p255
I0
tp256
a(I6
I125
F0.25
S'duplicate'
p257
I0
tp258
a(I7
I74
F0.5
S'touch'
p259
I0
tp260
as(S'text'
p261
S'messages'
p262
tp263
(lp264
(I4
I16
I0
S'write'
p265
I0
tp266
a(I4
I17
I0
S'write'
p267
I0
tp268
a(I4
I109
I0
S'many'
p269
I0
tp270
a(I4
I16
I0
g265
I18
tp271
a(I4
I17
I0
g267
I18
tp272
a(I4
I109
I0
g269
I18
tp273
as(S'speaker'
p274
tp275
(lp276
(I8
I16
F0.875
S'music'
p277
I8
tp278
as(S'voice'
p279
S'command'
p280
tp281
(lp282
(I6
I117
F-0.125
S'universal'
p283
I0
tp284
as(S'love'
p285
S'love'
p286
S'love'
p287
tp288
(lp289
(I3
I7
F0.125
S'key'
p290
I2
tp291
a(I3
I13
F1.0
S'love'
p292
I2
tp293
a(I3
I28
F1.0
S'love'
p294
I2
tp295
a(I8
I46
F1.0
S'love'
p296
I2
tp297
a(I3
I7
F0.125
g290
I2
tp298
a(I3
I13
F1.0
g292
I2
tp299
a(I3
I28
F1.0
g294
I2
tp300
a(I8
I46
F1.0
g296
I2
tp301
as(S'great'
p302
S'battery'
p303
S'life'
p304
tp305
(lp306
(I6
I17
I0
S'great'
p307
I0
tp308
a(I6
I140
I0
S'great'
p309
I0
tp310
a(I8
I106
I0
S'great'
p311
I0
tp312
a(I2
I75
F1.0
S'good'
p313
I1
tp314
a(I4
I115
F0.25
S'used'
p315
I1
tp316
a(I6
I17
I0
g307
I1
tp317
a(I6
I137
F-0.5
S'poor'
p318
I1
tp319
a(I6
I140
I0
g309
I1
tp320
a(I8
I81
I0
S'faster'
p321
I1
tp322
a(I8
I97
F-0.5
S'sure'
p323
I1
tp324
a(I8
I106
I0
g311
I1
tp325
a(I14
I0
F0.625
S'extraordinary'
p326
I1
tp327
a(I14
I0
F0.5
S'clear'
p328
I1
tp329
a(I2
I75
F1.0
g313
I19
tp330
a(I4
I115
F0.25
g315
I19
tp331
a(I13
I1
I0
S'active'
p332
I19
tp333
a(I14
I0
F0.5
g328
I19
tp334
a(I4
I52
F0.125
S'last'
p335
I15
tp336
a(I6
I17
I0
g307
I15
tp337
a(I6
I112
F0.625
S'removable'
p338
I15
tp339
a(I6
I137
F-0.5
g318
I15
tp340
a(I6
I140
I0
g309
I15
tp341
a(I7
I62
F1.0
S'good'
p342
I15
tp343
a(I7
I64
F1.0
S'good'
p344
I15
tp345
a(I8
I65
F0.625
S'replaceable'
p346
I15
tp347
a(I8
I81
I0
g321
I15
tp348
a(I8
I97
F-0.5
g323
I15
tp349
a(I8
I106
I0
g311
I15
tp350
a(I8
I123
F-0.625
S'other'
p351
I15
tp352
a(I14
I0
F0.625
g326
I15
tp353
as(S'videos'
p354
tp355
(lp356
(I1
I66
F0.25
S'helpful'
p357
I8
tp358
a(I11
I9
F0.875
S'music'
p359
I8
tp360
a(I12
I1
I0
S'educational'
p361
I8
tp362
as(S's'
p363
S'pen'
p364
tp365
(lp366
(I4
I16
I0
S'write'
p367
I0
tp368
as(S'amazon'
p369
tp370
(lp371
(I4
I110
I0
S'such'
p372
I13
tp373
a(I7
I67
I0
S'least'
p374
I13
tp375
as.