(dp0
(S'service'
p1
tp2
(lp3
(I10
I143
F1.0
S'good'
p4
I16
tp5
as(S'android'
p6
tp7
(lp8
(I9
I6
I0
S'most'
p9
I0
tp10
a(I9
I30
F0.5
S'flat'
p11
I0
tp12
a(I10
I35
I0
S'similarly'
p13
I0
tp14
a(I10
I35
F0.625
S'superior'
p15
I0
tp16
a(I17
I8
I0
S'current'
p17
I0
tp18
as(S'metro'
p19
S'pcs'
p20
tp21
(lp22
(I3
I19
F0.5
S'loyal'
p23
I0
tp24
a(I8
I5
I0
S'old'
p25
I0
tp26
a(I17
I1
I0
S'signal'
p27
I0
tp28
a(I1
I4
I0
S'website'
p29
I1
tp30
a(I3
I19
F0.5
g23
I1
tp31
a(I8
I5
I0
g25
I1
tp32
a(I17
I1
I0
g27
I1
tp33
as(S'windows'
p34
tp35
(lp36
(I9
I69
F0.25
S'familiar'
p37
I0
tp38
a(I10
I171
I0
S'great'
p39
I0
tp40
a(I13
I5
F0.125
S'first'
p41
I0
tp42
as(S'flat'
p43
S'rate'
p44
tp45
(lp46
(I9
I29
F0.5
S'flat'
p47
I0
tp48
as(S'flash'
p49
tp50
(lp51
(I2
I23
F-0.75
S'dirty'
p52
I2
tp53
a(I8
I2
F0.625
S'aware'
p54
I2
tp55
a(I8
I2
I0
S'close'
p56
I2
tp57
a(I10
I134
F0.875
S'important'
p58
I2
tp59
as(S'apps'
p60
tp61
(lp62
(I2
I12
F-0.5
S'heavy'
p63
I0
tp64
a(I4
I19
I0
S'great'
p65
I0
tp66
a(I4
I19
I0
S'fast'
p67
I0
tp68
a(I9
I5
I0
S'same'
p69
I0
tp70
a(I9
I5
I0
S'close'
p71
I0
tp72
a(I10
I34
F0.125
S'essential'
p73
I0
tp74
a(I10
I96
F1.0
S'good'
p75
I0
tp76
a(I10
I127
I0
S'many'
p77
I0
tp78
a(I10
I127
F1.0
S'good'
p79
I0
tp80
a(I17
I8
F1.0
S'love'
p81
I0
tp82
as(S'dropped'
p83
S'calls'
p84
tp85
(lp86
(I5
I6
F-0.25
S'dropped'
p87
I0
tp88
a(I7
I1
I0
S'frequent'
p89
I0
tp90
a(I5
I6
F-0.25
g87
I0
tp91
a(I7
I1
I0
g89
I0
tp92
a(I10
I155
F0.125
S'able'
p93
I0
tp94
a(I10
I155
F-0.5
S'certain'
p95
I0
tp96
a(I10
I171
I0
S'great'
p97
I0
tp98
as(S'nokia'
p99
tp100
(lp101
(I9
I36
I0
S'useful'
p102
I0
tp103
a(I9
I45
F0.625
S'easy'
p104
I0
tp105
a(I10
I6
F-0.375
S'simple'
p106
I0
tp107
a(I10
I128
F0.125
S'solid'
p108
I0
tp109
as(g44
S'plan'
p110
tp111
(lp112
(I9
I29
F0.5
g47
I0
tp113
a(I9
I69
F0.625
S'easy'
p114
I0
tp115
as(S'post'
p116
S'office'
p117
tp118
(lp119
(I9
I64
F0.625
S'hold'
p120
I1
tp121
as(S'camera'
p122
tp123
(lp124
(I2
I24
F-0.375
S'crazy'
p125
I1
tp126
a(I8
I10
F0.375
S'flash'
p127
I1
tp128
a(I9
I21
F-0.25
S'white'
p129
I1
tp130
a(I9
I49
F0.625
S'easy'
p131
I1
tp132
a(I9
I51
F0.125
S'digital'
p133
I1
tp134
a(I10
I10
I0
S'real'
p135
I1
tp136
a(I10
I62
F1.0
S'good'
p137
I1
tp138
a(I10
I65
F-0.25
S'low'
p139
I1
tp140
a(I10
I65
F-0.625
S'light'
p141
I1
tp142
a(I17
I7
F0.5
S'expensive'
p143
I1
tp144
a(I17
I20
F-0.5
S'sudden'
p145
I1
tp146
as(S'touch'
p147
S'screen'
p148
tp149
(lp150
(I9
I9
I0
S'sensitive'
p151
I2
tp152
a(I9
I48
F-0.75
S'bright'
p153
I2
tp154
a(I9
I63
F0.5
S'touch'
p155
I2
tp156
a(I10
I10
F0.5
S'touch'
p157
I2
tp158
as.