(dp0
(S'home'
p1
S'button'
p2
tp3
(lp4
(I14
I15
F-0.375
S'double'
p5
I0
tp6
a(I0
I30
I0
S'big'
p7
I19
tp8
a(I14
I15
F-0.375
g5
I19
tp9
as(S'battery'
p10
S'life'
p11
tp12
(lp13
(I17
I2
F-0.5
S'insane'
p14
I1
tp15
a(I22
I23
F-0.5
S'long'
p16
I1
tp17
a(I2
I86
I0
S'corporate'
p18
I19
tp19
a(I2
I86
F0.5
S'personal'
p20
I19
tp21
a(I6
I51
I0
S'real'
p22
I19
tp23
a(I22
I23
F-0.5
g16
I19
tp24
a(I0
I79
F0.25
S'bigger'
p25
I15
tp26
a(I2
I42
F1.0
S'good'
p27
I15
tp28
a(I2
I70
F0.625
S'removable'
p29
I15
tp30
a(I2
I71
F-0.5
S'weak'
p31
I15
tp32
a(I2
I87
F0.25
S'powerful'
p33
I15
tp34
a(I2
I87
F0.625
S'removable'
p35
I15
tp36
a(I6
I46
F0.125
S'last'
p37
I15
tp38
a(I14
I28
F0.375
S'new'
p39
I15
tp40
a(I14
I29
F0.375
S'new'
p41
I15
tp42
a(I14
I29
F0.375
S'new'
p43
I15
tp44
a(I17
I2
F-0.5
g14
I15
tp45
a(I24
I16
F0.125
S'last'
p46
I15
tp47
as(S'android'
p48
tp49
(lp50
(I14
I12
F-0.5
S'regular'
p51
I0
tp52
a(I19
I7
F0.5
S'advanced'
p53
I0
tp54
a(I19
I8
F0.5
S'advanced'
p55
I0
tp56
a(I24
I7
F-0.625
S'other'
p57
I0
tp58
as(S'regional'
p59
S'lock'
p60
tp61
(lp62
(I0
I59
I0
S'regional'
p63
I0
tp64
a(I0
I60
I0
S'regional'
p65
I0
tp66
a(I0
I64
I0
S'regional'
p67
I0
tp68
a(I5
I5
I0
S'regional'
p69
I0
tp70
as(S'market'
p71
tp72
(lp73
(I7
I19
I0
S'full'
p74
I16
tp75
a(I9
I2
F1.0
S'best'
p76
I16
tp77
a(I18
I48
I0
S'current'
p78
I16
tp79
a(I18
I48
F0.125
S'able'
p80
I16
tp81
as(S'quad'
p82
S'core'
p83
tp84
(lp85
(I18
I19
I0
S'fast'
p86
I0
tp87
as(S'samsung'
p88
tp89
(lp90
(I0
I101
F0.375
S'new'
p91
I7
tp92
a(I0
I117
F0.375
S'new'
p93
I7
tp94
a(I1
I7
F0.625
S'aware'
p95
I7
tp96
a(I2
I65
F-0.25
S'potential'
p97
I7
tp98
a(I3
I0
F-0.75
S'hate'
p99
I7
tp100
a(I6
I56
I0
S'real'
p101
I7
tp102
a(I7
I7
I0
S'local'
p103
I7
tp104
a(I12
I5
F-0.125
S'alternative'
p105
I7
tp106
a(I14
I8
I0
S'great'
p107
I7
tp108
a(I14
I8
I0
S'big'
p109
I7
tp110
a(I18
I3
I0
S'general'
p111
I7
tp112
as(S'iphone'
p113
tp114
(lp115
(I0
I57
F-0.5
S'miss'
p116
I1
tp117
a(I1
I13
F0.875
S'note'
p118
I1
tp119
a(I2
I1
F-0.625
S'steady'
p120
I1
tp121
a(I2
I1
F0.25
S'consistent'
p122
I1
tp123
a(I3
I1
F1.0
S'best'
p124
I1
tp125
a(I3
I1
F1.0
S'better'
p126
I1
tp127
a(I24
I16
F-0.75
S'impossible'
p128
I1
tp129
as(S'high'
p130
S'end'
p131
tp132
(lp133
(I6
I53
I0
S'many'
p134
I0
tp135
a(I6
I53
I0
S'high'
p136
I0
tp137
a(I22
I6
I0
S'few'
p138
I0
tp139
a(I22
I6
I0
S'high'
p140
I0
tp141
as(S'galaxy'
p142
S'note'
p143
tp144
(lp145
(I11
I22
I0
S'general'
p146
I0
tp147
a(I11
I81
F0.25
S'original'
p148
I0
tp149
a(I11
I138
F0.25
S'original'
p150
I0
tp151
a(I0
I47
I0
S'old'
p152
I0
tp153
a(I7
I25
F1.0
S'best'
p154
I0
tp155
a(I11
I81
F0.25
g148
I0
tp156
a(I11
I138
F0.25
g150
I0
tp157
as(S'weeks'
p158
tp159
(lp160
(I11
I0
I0
S'few'
p161
I18
tp162
as(S'air'
p163
S'command'
p164
tp165
(lp166
(I14
I18
I0
S'same'
p167
I0
tp168
a(I14
I18
I0
S'most'
p169
I0
tp170
as(S'processor'
p171
tp172
(lp173
(I6
I47
F0.5
S'second'
p174
I1
tp175
a(I6
I47
I0
S'latest'
p176
I1
tp177
a(I6
I68
F0.875
S'nice'
p178
I1
tp179
a(I11
I54
I0
S'fastest'
p180
I1
tp181
a(I14
I7
I0
S'fast'
p182
I1
tp183
a(I18
I37
I0
S'fastest'
p184
I1
tp185
as(S'sim'
p186
S'card'
p187
tp188
(lp189
(I0
I60
I0
S'different'
p190
I0
tp191
a(I0
I61
I0
S'egyptian'
p192
I0
tp193
a(I2
I75
F0.5
S'possible'
p194
I0
tp195
a(I7
I4
I0
S'local'
p196
I0
tp197
a(I7
I11
F0.125
S'first'
p198
I0
tp199
a(I13
I7
F-0.875
S'hard'
p200
I0
tp201
a(I13
I7
I0
S'spring-loaded'
p202
I0
tp203
as(S'carrier'
p204
tp205
(lp206
(I7
I15
F-0.125
S'foreign'
p207
I1
tp208
as(S'music'
p209
tp210
(lp211
(I24
I28
F-0.5
S'weakest'
p212
I0
tp213
as(S'apps'
p214
tp215
(lp216
(I1
I26
F-0.5
S'open'
p217
I0
tp218
a(I1
I27
F-0.5
S'open'
p219
I0
tp220
a(I2
I4
I0
S'different'
p221
I0
tp222
a(I2
I4
F0.125
S'able'
p223
I0
tp224
a(I6
I48
F-0.5
S'open'
p225
I0
tp226
a(I6
I68
I0
S'closing'
p227
I0
tp228
a(I6
I68
F-0.375
S'smooth'
p229
I0
tp230
a(I6
I68
I0
S'quick'
p231
I0
tp232
a(I14
I11
F0.25
S'duplicate'
p233
I0
tp234
a(I14
I12
F-0.5
S'regular'
p235
I0
tp236
a(I14
I12
F-0.625
S'other'
p237
I0
tp238
a(I14
I15
F0.25
S'duplicate'
p239
I0
tp240
a(I14
I15
F-0.625
S'other'
p241
I0
tp242
a(I14
I16
F-0.5
S'open'
p243
I0
tp244
a(I14
I18
I0
S'useful'
p245
I0
tp246
a(I24
I31
I0
S'such'
p247
I0
tp248
as(S'megapixel'
p249
S'camera'
p250
tp251
(lp252
(I2
I32
F0.25
S'powerful'
p253
I0
tp254
a(I11
I67
I0
S'great'
p255
I0
tp256
a(I0
I82
F1.0
S'good'
p257
I1
tp258
a(I0
I82
I0
S'faster'
p259
I1
tp260
a(I0
I82
I0
S'useful'
p261
I1
tp262
a(I0
I82
F0.375
S'much'
p263
I1
tp264
a(I6
I75
I0
S'great'
p265
I1
tp266
as.