(dp0
(S'samsung'
p1
S'galaxy'
p2
S'note'
p3
tp4
(lp5
(I0
I0
F0.25
S'original'
p6
I0
tp7
a(I0
I0
F0.25
g6
I0
tp8
a(I17
I15
I0
S'general'
p9
I0
tp10
a(I17
I77
F0.25
S'original'
p11
I0
tp12
a(I17
I137
F0.25
S'original'
p13
I0
tp14
a(I0
I0
F0.25
g6
I7
tp15
a(I16
I22
I0
S'website'
p16
I7
tp17
a(I16
I43
F1.0
S'best'
p18
I7
tp19
a(I17
I77
F0.25
g11
I0
tp20
a(I17
I137
F0.25
g13
I0
tp21
as(S'home'
p22
S'button'
p23
tp24
(lp25
(I16
I11
I0
S'big'
p26
I0
tp27
as(S'international'
p28
S'version'
p29
tp30
(lp31
(I17
I3
F-0.5
S'international'
p32
I0
tp33
a(I17
I6
F-0.5
S'less'
p34
I0
tp35
a(I17
I6
F-0.5
S'international'
p36
I0
tp37
a(I17
I20
I0
S'european'
p38
I0
tp39
a(I17
I27
F-0.375
S'black'
p40
I0
tp41
as(S'battery'
p42
S'life'
p43
tp44
(lp45
(I10
I3
F-0.75
S'shorter'
p46
I1
tp47
a(I14
I42
F0.125
S'last'
p48
I1
tp49
a(I14
I43
F0.125
S'last'
p50
I1
tp51
a(I10
I3
F-0.75
g46
I19
tp52
a(I14
I43
F0.125
g50
I19
tp53
a(I10
I1
F0.25
S'bigger'
p54
I15
tp55
a(I14
I42
F0.125
g48
I15
tp56
a(I14
I48
F0.375
S'available'
p57
I15
tp58
a(I14
I50
F0.125
S'last'
p59
I15
tp60
a(I14
I59
F0.625
S'removable'
p61
I15
tp62
a(I23
I5
F-0.5
S'sure'
p63
I15
tp64
as(S'apps'
p65
tp66
(lp67
(I10
I7
I0
S'many'
p68
I0
tp69
as(S'smart'
p70
tp71
(lp72
(I1
I1
F0.125
S'first'
p73
I10
tp74
a(I16
I55
F1.0
S'best'
p75
I10
tp76
a(I17
I132
F-0.625
S'other'
p77
I10
tp78
as(S'drive'
p79
S'mode'
p80
tp81
(lp82
(I13
I7
F0.5
S'drive'
p83
I0
tp84
a(I13
I8
F0.5
S'drive'
p85
I0
tp86
a(I13
I12
F0.5
S'drive'
p87
I0
tp88
as(S'sim'
p89
S'card'
p90
tp91
(lp92
(I0
I8
F-0.375
S'top'
p93
I0
tp94
a(I7
I0
I0
S'local'
p95
I0
tp96
a(I14
I89
I0
S'local'
p97
I0
tp98
as(S'last'
p99
S'digit'
p100
tp101
(lp102
(I17
I23
F0.125
S'last'
p103
I0
tp104
a(I17
I25
F0.125
S'last'
p105
I0
tp106
a(I17
I49
F0.125
S'last'
p107
I0
tp108
as(S'sim'
p109
S'cards'
p110
tp111
(lp112
(I7
I0
I0
g95
I0
tp113
as(S'quad'
p114
S'core'
p115
tp116
(lp117
(I17
I46
I0
S'quad'
p118
I0
tp119
as.