(dp0
(S'samsung'
p1
S'galaxy'
p2
S'note'
p3
tp4
(lp5
(I4
I7
F1.0
S'good'
p6
I0
tp7
a(I4
I7
I0
S'great'
p8
I0
tp9
a(I10
I113
F0.5
S'second'
p10
I0
tp11
a(I10
I113
F0.25
S'original'
p12
I0
tp13
a(I4
I7
F1.0
g6
I0
tp14
a(I10
I113
F0.5
g10
I0
tp15
a(I4
I7
I0
g8
I0
tp16
a(I8
I25
F0.5
S'whole'
p17
I0
tp18
a(I10
I7
F-0.625
S'lighter'
p19
I0
tp20
a(I10
I113
F0.5
g10
I0
tp21
a(I10
I113
F0.25
g12
I0
tp22
a(I12
I144
F0.25
S'original'
p23
I0
tp24
a(I12
I190
F0.25
S'original'
p25
I0
tp26
a(I12
I216
F0.25
S'original'
p27
I0
tp28
a(I4
I7
F1.0
g6
I7
tp29
a(I6
I63
I0
S'own'
p30
I7
tp31
a(I6
I124
F0.75
S'due'
p32
I7
tp33
a(I6
I189
F0.125
S'able'
p34
I7
tp35
a(I8
I25
F0.5
g17
I0
tp36
a(I10
I113
F0.5
g10
I0
tp37
a(I12
I144
F0.25
g23
I0
tp38
a(I12
I190
F0.25
g25
I0
tp39
a(I12
I216
F0.25
g27
I0
tp40
as(S'screen'
p41
S'size'
p42
tp43
(lp44
(I6
I120
F0.625
S'easier'
p45
I3
tp46
a(I9
I55
F0.875
S'nice'
p47
I3
tp48
as(S'battery'
p49
S'life'
p50
tp51
(lp52
(I1
I44
I0
S'great'
p53
I1
tp54
a(I2
I67
F1.0
S'better'
p55
I1
tp56
a(I5
I25
F1.0
S'best'
p57
I1
tp58
a(I7
I27
I0
S'big'
p59
I1
tp60
a(I8
I127
F-0.125
S'opposite'
p61
I1
tp62
a(I9
I69
F0.625
S'sustainable'
p63
I1
tp64
a(I11
I28
F-0.5
S'long'
p65
I1
tp66
a(I11
I42
I0
S'great'
p67
I1
tp68
a(I12
I58
F-0.5
S'long'
p69
I1
tp70
a(I0
I76
F-0.5
S'sure'
p71
I19
tp72
a(I2
I67
F1.0
g55
I19
tp73
a(I5
I25
F1.0
g57
I19
tp74
a(I7
I27
I0
g59
I19
tp75
a(I8
I127
F-0.125
g61
I19
tp76
a(I9
I69
F0.625
g63
I19
tp77
a(I9
I100
I0
S'real'
p78
I19
tp79
a(I12
I58
F-0.5
g69
I19
tp80
a(I1
I44
I0
g53
I15
tp81
a(I2
I14
F0.125
S'impressive'
p82
I15
tp83
a(I6
I136
F-0.25
S'low'
p84
I15
tp85
a(I8
I85
F0.25
S'bigger'
p86
I15
tp87
a(I10
I51
I0
S'more'
p88
I15
tp89
a(I11
I28
F-0.5
g65
I15
tp90
a(I11
I42
I0
g67
I15
tp91
a(I12
I32
F0.125
S'last'
p92
I15
tp93
as(S'email'
p94
tp95
(lp96
(I2
I50
F-0.5
S'less'
p97
I5
tp98
a(I6
I195
I0
S'great'
p99
I5
tp100
as(S'power'
p101
S'button'
p102
tp103
(lp104
(I8
I109
I0
S'flush'
p105
I0
tp106
as(S'air'
p107
S'gestures'
p108
tp109
(lp110
(I6
I262
I0
S'different'
p111
I0
tp112
as(S'iphone'
p113
tp114
(lp115
(I1
I55
I0
S'old'
p116
I1
tp117
a(I1
I57
F-0.25
S'thinner'
p118
I1
tp119
a(I1
I57
F-0.625
S'lighter'
p120
I1
tp121
a(I1
I66
I0
S'old'
p122
I1
tp123
a(I3
I4
F0.375
S'much'
p124
I1
tp125
a(I3
I4
F0.375
S'much'
p126
I1
tp127
a(I6
I208
I0
S'great'
p128
I1
tp129
a(I8
I60
F0.125
S'first'
p130
I1
tp131
a(I8
I68
F0.875
S'happy'
p132
I1
tp133
a(I8
I68
F0.125
S'first'
p134
I1
tp135
a(I8
I70
F0.125
S'first'
p136
I1
tp137
a(I8
I88
F0.125
S'able'
p138
I1
tp139
a(I9
I40
I0
S'fanatic'
p140
I1
tp141
a(I9
I52
I0
S'faster'
p142
I1
tp143
a(I9
I52
I-100
S'ios-7'
p144
I1
tp145
as(S'apple'
p146
tp147
(lp148
(I8
I72
F-0.5
S'heavy'
p149
I4
tp150
a(I8
I129
F-0.125
S'overall'
p151
I4
tp152
a(I8
I129
F0.875
S'happy'
p153
I4
tp154
a(I9
I77
F1.0
S'better'
p155
I4
tp156
a(I9
I92
F-0.5
S'miss'
p157
I4
tp158
a(I10
I113
I0
S'big'
p159
I4
tp160
a(I12
I21
I0
S'old'
p161
I4
tp162
as(S'stylus'
p163
tp164
(lp165
(I8
I15
I0
S'least'
p166
I7
tp167
as(S'android'
p168
tp169
(lp170
(I1
I5
F0.125
S'first'
p171
I0
tp172
a(I6
I237
I0
S'most'
p173
I0
tp174
a(I6
I237
F0.25
S'recent'
p175
I0
tp176
a(I6
I237
I0
S'older'
p177
I0
tp178
a(I7
I26
F0.125
S'first'
p179
I0
tp180
a(I8
I92
I0
S'more'
p181
I0
tp182
a(I9
I54
I0
S'older'
p183
I0
tp184
as(S'voice'
p185
tp186
(lp187
(I6
I36
F0.5
S'accurate'
p188
I4
tp189
a(I6
I205
F0.875
S'nice'
p190
I4
tp191
as(S'large'
p192
S'screen'
p193
tp194
(lp195
(I1
I60
F0.25
S'larger'
p196
I3
tp197
a(I2
I55
I0
S'large'
p198
I3
tp199
a(I5
I51
I0
S'large'
p200
I3
tp201
a(I6
I122
I0
S'large'
p202
I3
tp203
a(I8
I73
F-0.25
S'giant'
p204
I3
tp205
a(I12
I23
I0
S'large'
p206
I3
tp207
a(I12
I147
I0
S'large'
p208
I3
tp209
a(I12
I185
I0
S'large'
p210
I3
tp211
as(S'smart'
p212
tp213
(lp214
(I1
I0
F1.0
S'best'
p215
I10
tp216
a(I8
I3
I0
S'fast'
p217
I10
tp218
a(I11
I4
I0
S'large'
p219
I10
tp220
as(S'contacts'
p221
tp222
(lp223
(I8
I43
F0.25
S'duplicate'
p224
I0
tp225
a(I12
I108
I0
S'email'
p226
I0
tp227
as(S'camera'
p228
tp229
(lp230
(I0
I29
I0
S'great'
p231
I1
tp232
a(I1
I2
F1.0
S'good'
p233
I1
tp234
a(I6
I122
F0.375
S'mean'
p235
I1
tp236
a(I6
I127
I0
S'more'
p237
I1
tp238
a(I6
I129
F-0.75
S'short'
p239
I1
tp240
a(I6
I129
F1.0
S'good'
p241
I1
tp242
as(S'great'
p243
S'screen'
p244
tp245
(lp246
(I2
I67
I0
S'big'
p247
I0
tp248
a(I5
I51
I0
g200
I0
tp249
a(I6
I133
I0
S'great'
p250
I0
tp251
a(I6
I195
F0.375
S'much'
p252
I0
tp253
a(I8
I6
I0
S'great'
p254
I0
tp255
a(I11
I22
F-0.75
S'damaged'
p256
I0
tp257
as(S'super'
p258
S'fast'
p259
tp260
(lp261
(I6
I256
I0
S'such'
p262
I0
tp263
a(I12
I11
F-0.125
S'super'
p264
I0
tp265
as(S'apps'
p266
tp267
(lp268
(I6
I105
I0
S'many'
p269
I0
tp270
a(I6
I107
F-0.25
S'google'
p271
I0
tp272
a(I6
I226
F-0.625
S'other'
p273
I0
tp274
a(I6
I269
F0.5
S'second'
p275
I0
tp276
a(I8
I87
F-0.5
S'sure'
p277
I0
tp278
a(I8
I89
F-0.625
S'other'
p279
I0
tp280
a(I8
I89
I0
S'great'
p281
I0
tp282
a(I9
I46
F0.375
S'new'
p283
I0
tp284
a(I10
I91
F-0.5
S'certain'
p285
I0
tp286
a(I12
I23
I0
S'many'
p287
I0
tp288
a(I12
I23
F0.375
S'new'
p289
I0
tp290
as(S'lasts'
p291
S'all'
p292
S'day'
p293
tp294
(lp295
(I12
I147
F-0.625
S'moderate'
p296
I0
tp297
as(S'amazon'
p298
tp299
(lp300
(I6
I87
F-0.5
S'sure'
p301
I13
tp302
a(I9
I26
F0.75
S'worth'
p303
I13
tp304
as.