(dp0
(S'screen'
p1
S'size'
p2
tp3
(lp4
(I13
I168
F0.25
S'bigger'
p5
I3
tp6
a(I81
I24
F-0.375
S'small'
p7
I3
tp8
a(I84
I14
F-0.375
S'small'
p9
I3
tp10
a(I108
I3
F0.25
S'bigger'
p11
I3
tp12
a(I108
I7
I0
S'big'
p13
I3
tp14
as(S'every'
p15
S'time'
p16
tp17
(lp18
(I9
I0
I0
S'great'
p19
I14
tp20
a(I108
I37
F-0.75
S'single'
p21
I14
tp22
as(S'a'
p23
S'free'
p24
S'case'
p25
tp26
(lp27
(I30
I17
F-0.625
S'free'
p28
I0
tp29
a(I54
I8
F-0.625
S'free'
p30
I0
tp31
a(I87
I0
F-0.625
S'free'
p32
I0
tp33
a(I87
I2
F-0.625
S'free'
p34
I0
tp35
a(I87
I3
F-0.625
S'free'
p36
I0
tp37
a(I87
I5
F-0.625
S'free'
p38
I0
tp39
as(S'battery'
p40
S'life'
p41
tp42
(lp43
(I3
I2
F-0.25
S'disappointing'
p44
I1
tp45
a(I21
I30
I0
S'great'
p46
I1
tp47
a(I25
I7
F1.0
S'better'
p48
I1
tp49
a(I58
I1
F1.0
S'better'
p50
I1
tp51
a(I58
I1
F-0.5
S'longer'
p52
I1
tp53
a(I73
I6
I0
S'same'
p54
I1
tp55
a(I110
I11
I0
S'such'
p56
I1
tp57
a(I110
I15
F0.375
S'extended'
p58
I1
tp59
a(I3
I2
F-0.25
g44
I19
tp60
a(I21
I30
I0
g46
I19
tp61
a(I25
I7
F1.0
g48
I19
tp62
a(I73
I6
I0
g54
I19
tp63
a(I105
I13
F-0.375
S'daily'
p64
I19
tp65
a(I110
I11
I0
g56
I19
tp66
a(I1
I29
F-0.25
S'low'
p67
I15
tp68
a(I1
I29
F0.125
S'last'
p69
I15
tp70
a(I13
I76
I0
S'external'
p71
I15
tp72
a(I13
I120
F0.25
S'bigger'
p73
I15
tp74
a(I13
I121
F-0.5
S'long'
p75
I15
tp76
a(I13
I127
F0.625
S'replaceable'
p77
I15
tp78
a(I13
I127
I0
S'great'
p79
I15
tp80
a(I13
I128
F1.0
S'good'
p81
I15
tp82
a(I13
I129
F0.625
S'replaceable'
p83
I15
tp84
a(I13
I130
F1.0
S'good'
p85
I15
tp86
a(I15
I10
F-0.25
S'low'
p87
I15
tp88
a(I30
I38
F0.5
S'touch'
p89
I15
tp90
a(I30
I44
F0.375
S'extended'
p91
I15
tp92
a(I58
I1
F1.0
g50
I15
tp93
a(I58
I1
F-0.5
g52
I15
tp94
a(I82
I7
F1.0
S'good'
p95
I15
tp96
a(I92
I5
F0.25
S'bigger'
p97
I15
tp98
a(I102
I10
F1.0
S'better'
p99
I15
tp100
a(I110
I12
I0
S'auxiliary'
p101
I15
tp102
a(I110
I15
F0.375
g58
I15
tp103
as(S'credit'
p104
S'card'
p105
tp106
(lp107
(I33
I6
F-0.5
S'open'
p108
I0
tp109
as(S'thanks'
p110
tp111
(lp112
(I55
I22
I0
S'many'
p113
I12
tp114
a(I88
I24
I0
S'great'
p115
I12
tp116
as(S'retina'
p117
S'display'
p118
tp119
(lp120
(I13
I30
F0.75
S'beautiful'
p121
I0
tp122
as(S'new'
p123
S'iphone'
p124
tp125
(lp126
(I21
I38
F0.375
S'new'
p127
I0
tp128
a(I25
I1
F0.375
S'new'
p129
I0
tp130
a(I25
I5
F0.375
S'new'
p131
I0
tp132
a(I25
I9
F0.375
S'new'
p133
I0
tp134
a(I30
I28
I0
S'next'
p135
I0
tp136
a(I36
I3
F0.375
S'new'
p137
I0
tp138
a(I47
I0
F0.375
S'extra'
p139
I0
tp140
a(I69
I0
F0.375
S'new'
p141
I0
tp142
a(I70
I10
F0.375
S'new'
p143
I0
tp144
a(I70
I11
F0.375
S'new'
p145
I0
tp146
a(I74
I3
F0.375
S'new'
p147
I0
tp148
a(I88
I4
F0.375
S'new'
p149
I0
tp150
a(I94
I5
F0.375
S'new'
p151
I0
tp152
a(I98
I20
F0.375
S'new'
p153
I0
tp154
a(I98
I20
F0.375
S'new'
p155
I0
tp156
a(I108
I12
F0.375
S'new'
p157
I0
tp158
a(I108
I13
F0.375
S'new'
p159
I0
tp160
a(I117
I0
F0.375
S'new'
p161
I0
tp162
a(I1
I64
F0.75
S'worth'
p163
I1
tp164
a(I6
I4
F0.625
S'easy'
p165
I1
tp166
a(I8
I13
I0
S'old'
p167
I1
tp168
a(I8
I15
I0
S'more'
p169
I1
tp170
a(I8
I15
I0
S'tech'
p171
I1
tp172
a(I10
I8
F1.0
S'better'
p173
I1
tp174
a(I13
I8
F-0.375
S'black'
p175
I1
tp176
a(I13
I18
F0.5
S'true'
p177
I1
tp178
a(I13
I24
I0
S'large'
p179
I1
tp180
a(I13
I27
I0
S'skinny'
p181
I1
tp182
a(I13
I81
F-0.375
S'top'
p183
I1
tp184
a(I13
I81
F0.125
S'first'
p185
I1
tp186
a(I13
I84
F-0.5
S'sure'
p187
I1
tp188
a(I13
I84
F0.875
S'happy'
p189
I1
tp190
a(I13
I110
F0.125
S'first'
p191
I1
tp192
a(I13
I153
I0
S'cable'
p193
I1
tp194
a(I13
I153
F0.125
S'last'
p195
I1
tp196
a(I21
I0
I0
S'faster'
p197
I1
tp198
a(I21
I2
I0
S'old'
p199
I1
tp200
a(I21
I2
I0
S'cable'
p201
I1
tp202
a(I21
I4
F0.25
S'unlocked'
p203
I1
tp204
a(I21
I7
F0.125
S'first'
p205
I1
tp206
a(I21
I11
F-0.125
S'overall'
p207
I1
tp208
a(I21
I12
F0.625
S'superior'
p209
I1
tp210
a(I21
I12
I-100
S'areas:1'
p211
I1
tp212
a(I21
I38
F0.375
g127
I1
tp213
a(I21
I44
F-0.125
S'cant'
p214
I1
tp215
a(I21
I44
F0.5
S'live'
p216
I1
tp217
a(I22
I2
F0.625
S'easier'
p218
I1
tp219
a(I24
I6
I0
S'great'
p220
I1
tp221
a(I24
I6
F0.625
S'easy'
p222
I1
tp223
a(I25
I1
F0.375
g129
I1
tp224
a(I25
I5
F0.375
g131
I1
tp225
a(I25
I9
F0.375
g133
I1
tp226
a(I25
I12
F0.5
S'expensive'
p227
I1
tp228
a(I25
I21
F1.0
S'good'
p229
I1
tp230
a(I25
I25
F1.0
S'best'
p231
I1
tp232
a(I25
I48
I0
S'faster'
p233
I1
tp234
a(I26
I0
F-0.625
S'sorry'
p235
I1
tp236
a(I28
I12
I0
S'most'
p237
I1
tp238
a(I28
I29
F-0.25
S'past'
p239
I1
tp240
a(I28
I45
I0
S'more'
p241
I1
tp242
a(I30
I26
I0
S'old'
p243
I1
tp244
a(I30
I28
I0
g135
I1
tp245
a(I36
I3
F0.375
g137
I1
tp246
a(I40
I14
F0.125
S'usual'
p247
I1
tp248
a(I47
I0
F0.375
g139
I1
tp249
a(I50
I1
F0.5
S'upgraded'
p250
I1
tp251
a(I50
I3
F-0.5
S'less'
p252
I1
tp253
a(I56
I16
F0.75
S'worth'
p254
I1
tp255
a(I58
I8
F-0.5
S'regular'
p256
I1
tp257
a(I58
I8
F-0.625
S'bad'
p258
I1
tp259
a(I63
I2
F1.0
S'best'
p260
I1
tp261
a(I64
I4
F0.125
S'first'
p262
I1
tp263
a(I69
I0
F0.375
g141
I1
tp264
a(I70
I0
F-0.75
S'wrong'
p265
I1
tp266
a(I70
I4
I0
S'fastest'
p267
I1
tp268
a(I70
I10
F0.375
g143
I1
tp269
a(I70
I11
F0.375
g145
I1
tp270
a(I72
I3
F-0.375
S'locked'
p271
I1
tp272
a(I72
I4
F0.375
S'available'
p273
I1
tp274
a(I72
I17
I-100
S'107-1597809-1345043apple'
p275
I1
tp276
a(I74
I0
F0.5
S'possible'
p277
I1
tp278
a(I74
I3
F0.375
g147
I1
tp279
a(I75
I16
F0.25
S'larger'
p280
I1
tp281
a(I81
I5
I0
S'same'
p282
I1
tp283
a(I84
I13
I0
S'old'
p284
I1
tp285
a(I88
I4
F0.375
g149
I1
tp286
a(I91
I2
F0.625
S'easy'
p287
I1
tp288
a(I94
I5
F0.375
g151
I1
tp289
a(I98
I7
F-0.125
S'super'
p290
I1
tp291
a(I98
I11
F0.125
S'first'
p292
I1
tp293
a(I98
I20
F0.375
g153
I1
tp294
a(I98
I20
F0.375
g155
I1
tp295
a(I101
I1
I0
S'great'
p296
I1
tp297
a(I105
I16
F1.0
S'best'
p298
I1
tp299
a(I105
I19
F-0.375
S'locked'
p300
I1
tp301
a(I108
I12
F0.375
g157
I1
tp302
a(I108
I13
F0.375
g159
I1
tp303
a(I108
I42
I-100
S'`industry'
p304
I1
tp305
a(I109
I0
F0.125
S'first'
p306
I1
tp307
a(I109
I0
I0
S'more'
p308
I1
tp309
a(I110
I2
I0
S'faster'
p310
I1
tp311
a(I110
I28
F-0.625
S'other'
p312
I1
tp313
a(I117
I0
F0.375
g161
I1
tp314
as(S'camera'
p315
tp316
(lp317
(I1
I29
I0
S'full'
p318
I1
tp319
a(I2
I2
F-0.5
S'less'
p320
I1
tp321
a(I10
I1
F0.5
S'functional'
p322
I1
tp323
a(I13
I40
I0
S'incredible'
p324
I1
tp325
a(I13
I85
F1.0
S'better'
p326
I1
tp327
a(I13
I138
I0
S'great'
p328
I1
tp329
a(I13
I165
F1.0
S'best'
p330
I1
tp331
a(I21
I25
F1.0
S'good'
p332
I1
tp333
a(I41
I2
I0
S'great'
p334
I1
tp335
a(I104
I1
F1.0
S'good'
p336
I1
tp337
a(I104
I23
F-0.625
S'other'
p338
I1
tp339
a(I104
I23
I0
S'same'
p340
I1
tp341
a(I108
I42
F1.0
S'best'
p342
I1
tp343
a(I108
I43
F1.0
S'best'
p344
I1
tp345
a(I118
I6
F-0.25
S'low'
p346
I1
tp347
a(I118
I6
F-0.625
S'light'
p348
I1
tp349
as(S'finger'
p350
S'print'
p351
S'scanner'
p352
tp353
(lp354
(I13
I68
I0
S'finger'
p355
I0
tp356
a(I13
I89
I0
S'more'
p357
I0
tp358
a(I105
I25
F0.375
S'new'
p359
I0
tp360
a(I13
I68
I0
g355
I0
tp361
a(I13
I68
I0
g355
I0
tp362
a(I13
I89
I0
g357
I0
tp363
a(I64
I18
F0.375
S'new'
p364
I0
tp365
a(I69
I15
I0
S'different'
p366
I0
tp367
a(I105
I25
F0.375
g359
I0
tp368
a(I13
I89
I0
g357
I13
tp369
a(I64
I18
F0.375
g364
I13
tp370
a(I69
I15
I0
g366
I13
tp371
a(I81
I13
F-0.5
S'sure'
p372
I13
tp373
a(I81
I13
F-0.75
S'dry'
p374
I13
tp375
a(I105
I25
F0.375
g359
I13
tp376
as(S'operating'
p377
S'system'
p378
tp379
(lp380
(I104
I2
F1.0
S'best'
p381
I2
tp382
as(S'fingerprint'
p383
S'scanner'
p384
tp385
(lp386
(I108
I5
I0
S'fast'
p387
I0
tp388
as(S'speed'
p389
tp390
(lp391
(I13
I112
I0
S'indicate'
p392
I9
tp393
a(I29
I21
F-0.5
S'long'
p394
I9
tp395
as(S'slow'
p396
S'mo'
p397
tp398
(lp399
(I118
I7
F-0.125
S'slow'
p400
I0
tp401
a(I118
I7
F-0.125
S'slow'
p402
I0
tp403
a(I118
I8
F-0.125
S'slow'
p404
I0
tp405
as(S'headphone'
p406
S'jack'
p407
tp408
(lp409
(I25
I40
F0.375
S'much'
p410
I0
tp411
as(S'fingerprint'
p412
S'sensor'
p413
tp414
(lp415
(I108
I38
F0.375
S'new'
p416
I0
tp417
a(I1
I25
F0.375
S'new'
p418
I0
tp419
a(I108
I5
I0
g387
I0
tp420
as(S'apple'
p421
S'iphone'
p422
tp423
(lp424
(I8
I15
I0
g169
I0
tp425
a(I8
I15
I0
g171
I0
tp426
a(I10
I8
F1.0
g173
I0
tp427
a(I21
I4
F0.25
g203
I0
tp428
a(I21
I38
F0.375
g127
I0
tp429
a(I25
I5
F0.375
g131
I0
tp430
a(I25
I9
F0.375
g133
I0
tp431
a(I64
I4
F0.125
g262
I0
tp432
a(I77
I8
F0.375
S'appreciate'
p433
I0
tp434
a(I88
I4
F0.375
S'new'
p435
I0
tp436
a(I88
I4
F0.375
g149
I0
tp437
a(I91
I2
F0.625
g287
I0
tp438
a(I92
I2
F0.375
S'new'
p439
I0
tp440
a(I95
I1
I0
S'next'
p441
I0
tp442
a(I108
I12
F0.375
g157
I0
tp443
a(I2
I0
I0
S'great'
p444
I4
tp445
a(I13
I185
F0.375
S'reliable'
p446
I4
tp447
a(I21
I1
F0.25
S'original'
p448
I4
tp449
a(I21
I18
F0.5
S'clear'
p450
I4
tp451
a(I25
I3
I0
S'local'
p452
I4
tp453
a(I30
I12
F0.5
S'touch'
p454
I4
tp455
a(I30
I43
F0.75
S'healthy'
p456
I4
tp457
a(I41
I15
F-0.5
S'less'
p458
I4
tp459
a(I42
I17
F0.625
S'aware'
p460
I4
tp461
a(I42
I22
F0.625
S'aware'
p462
I4
tp463
a(I42
I32
I0
S'few'
p464
I4
tp465
a(I75
I12
F-0.625
S'bad'
p466
I4
tp467
a(I77
I8
F0.375
g433
I4
tp468
a(I79
I7
F0.375
S'new'
p469
I4
tp470
a(I88
I1
F-0.625
S'other'
p471
I4
tp472
a(I88
I4
F0.375
g435
I4
tp473
a(I88
I22
F-0.625
S'other'
p474
I4
tp475
a(I92
I2
F0.375
g439
I4
tp476
a(I95
I1
I0
g441
I4
tp477
a(I97
I0
F-0.25
S'cheaper'
p478
I4
tp479
a(I110
I32
F0.375
S'senior'
p480
I4
tp481
as(S'slow'
p482
S'motion'
p483
tp484
(lp485
(I13
I44
F-0.125
S'slow'
p486
I0
tp487
a(I56
I9
F-0.125
S'slow'
p488
I0
tp489
a(I92
I17
F-0.125
S'slow'
p490
I0
tp491
a(I118
I7
F-0.125
S'slow'
p492
I0
tp493
as(S'iphones'
p494
tp495
(lp496
(I22
I10
F-0.625
S'other'
p497
I0
tp498
a(I34
I3
F1.0
S'best'
p499
I0
tp500
a(I42
I3
I0
S'older'
p501
I0
tp502
as(S'seller'
p503
tp504
(lp505
(I29
I21
F1.0
S'good'
p506
I19
tp507
a(I43
I2
F0.625
S'aware'
p508
I19
tp509
a(I58
I3
F0.375
S'new'
p510
I19
tp511
a(I64
I30
I0
S'specific'
p512
I19
tp513
a(I82
I20
I0
S'great'
p514
I19
tp515
a(I87
I4
F0.875
S'nice'
p516
I19
tp517
a(I87
I10
F0.5
S'second'
p518
I19
tp519
as(S'android'
p520
tp521
(lp522
(I1
I21
F-0.75
S'have'
p523
I0
tp524
a(I13
I25
F0.375
S'believe'
p525
I0
tp526
a(I21
I15
I0
S'big'
p527
I0
tp528
a(I55
I0
F-0.375
S'simple'
p529
I0
tp530
a(I59
I1
F0.25
S'bigger'
p531
I0
tp532
a(I77
I9
I0
S'current'
p533
I0
tp534
as(S'sim'
p535
S'card'
p536
tp537
(lp538
(I25
I4
I0
S'old'
p539
I0
tp540
as(S'serial'
p541
S'number'
p542
tp543
(lp544
(I84
I8
I0
S'serial'
p545
I0
tp546
a(I84
I9
I0
S'serial'
p547
I0
tp548
a(I84
I10
F-0.75
S'wrong'
p549
I0
tp550
as(g23
S'bigger'
p551
S'screen'
p552
tp553
(lp554
(I13
I25
F0.25
S'bigger'
p555
I1
tp556
a(I13
I162
F0.25
S'bigger'
p557
I1
tp558
a(I29
I6
F0.25
S'bigger'
p559
I1
tp560
a(I29
I6
F0.875
S'nice'
p561
I1
tp562
a(I36
I0
F0.25
S'bigger'
p563
I1
tp564
a(I67
I1
F0.25
S'bigger'
p565
I1
tp566
a(I88
I5
F0.25
S'bigger'
p567
I1
tp568
a(I88
I7
F0.25
S'bigger'
p569
I1
tp570
a(I88
I7
F0.875
S'nice'
p571
I1
tp572
a(I108
I3
F0.25
g11
I1
tp573
as(S'older'
p574
S'generation'
p575
tp576
(lp577
(I18
I0
F-0.75
S'difficult'
p578
I0
tp579
a(I56
I3
I0
S'older'
p580
I0
tp581
as(S'power'
p582
S'users'
p583
tp584
(lp585
(I13
I174
F0.5
S'possible'
p586
I0
tp587
as(S'stupid'
p588
S'mistake'
p589
tp590
(lp591
(I33
I0
F-0.75
S'stupid'
p592
I0
tp593
as(S'touch'
p594
S'id'
p595
S'sensor'
p596
tp597
(lp598
(I13
I169
F0.5
S'touch'
p599
I0
tp600
a(I28
I24
F0.375
S'new'
p601
I0
tp602
a(I108
I38
F0.375
g416
I0
tp603
a(I10
I3
F0.5
S'touch'
p604
I0
tp605
a(I10
I3
I0
S'great'
p606
I0
tp607
a(I10
I5
F0.125
S'able'
p608
I0
tp609
a(I13
I61
F0.5
S'touch'
p610
I0
tp611
a(I13
I66
F0.5
S'touch'
p612
I0
tp613
a(I13
I85
F0.5
S'touch'
p614
I0
tp615
a(I13
I89
F0.5
S'touch'
p616
I0
tp617
a(I13
I169
F0.5
g599
I0
tp618
a(I25
I27
F0.5
S'touch'
p619
I0
tp620
a(I28
I24
F0.375
g601
I0
tp621
a(I29
I0
F0.375
S'new'
p622
I0
tp623
a(I88
I5
F0.5
S'touch'
p624
I0
tp625
a(I88
I11
F0.5
S'touch'
p626
I0
tp627
a(I95
I0
F0.5
S'touch'
p628
I0
tp629
a(I30
I14
F0.125
S'able'
p630
I1
tp631
a(I30
I14
F1.0
S'best'
p632
I1
tp633
a(I79
I3
F0.875
S'nice'
p634
I1
tp635
a(I108
I38
F0.375
g416
I1
tp636
as(S'space'
p637
S'gray'
p638
tp639
(lp640
(I81
I7
F0.375
S'available'
p641
I0
tp642
as(S'much'
p643
S'better'
p644
tp645
(lp646
(I2
I4
F0.375
S'much'
p647
I9
tp648
a(I30
I44
F0.375
S'much'
p649
I9
tp650
a(I77
I2
F0.375
S'much'
p651
I9
tp652
a(I110
I21
F0.375
S'much'
p653
I9
tp654
a(I110
I21
F0.125
S'first'
p655
I9
tp656
as(S'customer'
p657
S'service'
p658
tp659
(lp660
(I30
I33
I0
S'great'
p661
I3
tp662
a(I74
I4
F1.0
S'good'
p663
I3
tp664
as(S'apps'
p665
tp666
(lp667
(I11
I3
I0
S'android'
p668
I0
tp669
a(I11
I3
F-0.125
S'slow'
p670
I0
tp671
a(I21
I27
I0
S'useful'
p672
I0
tp673
a(I48
I5
F0.375
S'much'
p674
I0
tp675
a(I48
I5
I0
S'later'
p676
I0
tp677
a(I56
I15
I0
S'faster'
p678
I0
tp679
a(I56
I15
F0.5
S'compatible'
p680
I0
tp681
a(I64
I8
I0
S'many'
p682
I0
tp683
a(I64
I8
I0
S'useful'
p684
I0
tp685
a(I81
I19
I0
S'faster'
p686
I0
tp687
a(I81
I19
F-0.375
S'smoother'
p688
I0
tp689
a(I84
I3
F0.5
S'compatible'
p690
I0
tp691
a(I102
I0
F-0.625
S'free'
p692
I0
tp693
a(I108
I4
I0
S'same'
p694
I0
tp695
a(I110
I23
I0
S'more'
p696
I0
tp697
a(I110
I23
I0
S'useful'
p698
I0
tp699
as(S'amazon'
p700
tp701
(lp702
(I54
I10
F0.125
S'first'
p703
I13
tp704
a(I88
I24
F0.5
S'true'
p705
I13
tp706
as.