(dp0
(S'text'
p1
S'and'
p2
S'data'
p3
tp4
(lp5
(I4
I9
I0
S'great'
p6
I0
tp7
a(I28
I11
F0.375
S'available'
p8
I0
tp9
a(I36
I82
F-0.625
S'free'
p10
I0
tp11
a(I2
I2
F0.125
S'first'
p12
I18
tp13
a(I7
I159
F-0.5
S'regular'
p14
I18
tp15
a(I10
I39
I0
S'quick'
p16
I18
tp17
a(I10
I42
F0.625
S'easier'
p18
I18
tp19
a(I19
I23
F-0.625
S'free'
p20
I18
tp21
a(I21
I66
F-0.5
S'regular'
p22
I18
tp23
a(I22
I28
F0.75
S'receive'
p24
I18
tp25
a(I26
I26
F0.125
S'equal'
p26
I18
tp27
a(I35
I19
F-0.5
S'international'
p28
I18
tp29
a(I36
I82
F-0.625
g10
I18
tp30
a(I38
I105
I0
S'own'
p31
I18
tp32
a(I38
I150
F0.375
S'new'
p33
I18
tp34
a(I1
I14
I0
S'more'
p35
I13
tp36
a(I2
I7
I0
S'fast'
p37
I13
tp38
a(I4
I9
I0
g6
I13
tp39
a(I7
I139
F0.625
S'manageable'
p40
I13
tp41
a(I7
I147
F-0.125
S'slow'
p42
I13
tp43
a(I12
I63
F1.0
S'good'
p44
I13
tp45
a(I18
I24
F0.625
S'easy'
p46
I13
tp47
a(I22
I31
I0
S'more'
p48
I13
tp49
a(I23
I17
F0.5
S'expensive'
p50
I13
tp51
a(I23
I17
I0
S'monthly'
p52
I13
tp53
a(I23
I20
F0.375
S'available'
p54
I13
tp55
a(I26
I28
F-0.5
S'heavy'
p56
I13
tp57
a(I28
I11
F0.375
g8
I13
tp58
a(I36
I20
I0
S'more'
p59
I13
tp60
a(I36
I55
F0.125
S'first'
p61
I13
tp62
a(I38
I29
F-0.25
S'precious'
p63
I13
tp64
a(I38
I53
F0.75
S'due'
p65
I13
tp66
a(I38
I85
F0.75
S'receive'
p67
I13
tp68
a(I38
I173
I0
S'cable'
p69
I13
tp70
a(I41
I174
F0.375
S'new'
p71
I13
tp72
a(I41
I189
F-0.5
S'sure'
p73
I13
tp74
a(I41
I195
F0.375
S'much'
p75
I13
tp76
as(S'battery'
p77
S'life'
p78
tp79
(lp80
(I0
I82
F-0.25
S'low'
p81
I1
tp82
a(I0
I82
F1.0
S'good'
p83
I1
tp84
a(I4
I30
I0
S'great'
p85
I1
tp86
a(I7
I75
F1.0
S'good'
p87
I1
tp88
a(I9
I66
F0.125
S'typical'
p89
I1
tp90
a(I15
I3
F1.0
S'good'
p91
I1
tp92
a(I16
I48
F1.0
S'good'
p93
I1
tp94
a(I18
I149
F0.125
S'typical'
p95
I1
tp96
a(I18
I267
F1.0
S'good'
p97
I1
tp98
a(I29
I13
F0.25
S'responsive'
p99
I1
tp100
a(I29
I13
F1.0
S'good'
p101
I1
tp102
a(I31
I63
F1.0
S'good'
p103
I1
tp104
a(I31
I84
I0
S'signal'
p105
I1
tp106
a(I36
I59
I0
S'great'
p107
I1
tp108
a(I41
I0
F-0.5
S'long'
p109
I1
tp110
a(I41
I0
F1.0
S'good'
p111
I1
tp112
a(I0
I82
F1.0
g83
I15
tp113
a(I4
I30
I0
g85
I15
tp114
a(I6
I3
I0
S'more'
p115
I15
tp116
a(I7
I92
F1.0
S'good'
p117
I15
tp118
a(I10
I49
F-0.75
S'little'
p119
I15
tp120
a(I14
I57
F1.0
S'good'
p121
I15
tp122
a(I14
I57
F0.125
S'last'
p123
I15
tp124
a(I27
I221
F0.625
S'removable'
p125
I15
tp126
a(I29
I13
F0.25
g99
I15
tp127
a(I29
I13
F1.0
g101
I15
tp128
a(I31
I63
F1.0
g103
I15
tp129
a(I36
I59
I0
g107
I15
tp130
a(I38
I139
I0
S'standard'
p131
I15
tp132
a(I41
I0
F-0.5
g109
I15
tp133
as(S'check'
p134
S'your'
p135
S'balance'
p136
tp137
(lp138
(I38
I28
I0
S'quick'
p139
I0
tp140
as(S'verizon'
p141
tp142
(lp143
(I10
I3
F1.0
S'good'
p144
I0
tp145
a(I10
I3
I0
S'signal'
p146
I0
tp147
a(I16
I78
I0
S'old'
p148
I0
tp149
a(I25
I13
I0
S'big'
p150
I0
tp151
a(I27
I12
F-0.375
S'near'
p152
I0
tp153
a(I28
I25
F1.0
S'good'
p154
I0
tp155
as(S'time'
p156
S'tracfone'
p157
S'user'
p158
tp159
(lp160
(I17
I65
I0
S'close'
p161
I0
tp162
a(I32
I58
F-0.5
S'long'
p163
I0
tp164
a(I12
I29
F-0.625
S'light'
p165
I0
tp166
a(I17
I65
I0
g161
I0
tp167
a(I26
I25
I0
S'current'
p168
I0
tp169
a(I29
I56
I0
S'more'
p170
I0
tp171
a(I29
I56
I0
S'adequate'
p172
I0
tp173
a(I29
I56
F0.5
S'reasonable'
p174
I0
tp175
a(I41
I48
F0.5
S'loyal'
p176
I0
tp177
as(S'samsung'
p178
tp179
(lp180
(I21
I32
F0.375
S'extra'
p181
I7
tp182
a(I22
I36
F0.375
S'similar'
p183
I7
tp184
a(I27
I85
I0
S'old'
p185
I7
tp186
a(I27
I96
I0
S'old'
p187
I7
tp188
a(I27
I99
F0.125
S'last'
p189
I7
tp190
a(I27
I99
I0
S'old'
p191
I7
tp192
as(S'wi'
p193
S'fi'
p194
S'signal'
p195
tp196
(lp197
(I3
I2
F1.0
S'good'
p198
I0
tp199
a(I18
I273
F-0.625
S'bad'
p200
I0
tp201
a(I31
I40
I0
S'great'
p202
I0
tp203
a(I31
I77
F0.125
S'first'
p204
I0
tp205
a(I31
I77
F0.25
S'used'
p206
I0
tp207
a(I11
I3
F0.5
S'strong'
p208
I0
tp209
a(I37
I15
F0.625
S'easy'
p210
I0
tp211
a(I3
I2
F1.0
g198
I1
tp212
a(I10
I126
F-0.5
S'weak'
p213
I1
tp214
a(I16
I15
F-0.25
S'low'
p215
I1
tp216
a(I17
I39
I0
S'close'
p217
I1
tp218
a(I18
I273
F-0.625
g200
I1
tp219
a(I22
I18
F-0.5
S'poor'
p220
I1
tp221
a(I31
I2
F-0.5
S'poor'
p222
I1
tp223
a(I31
I2
I0
S'signal'
p224
I1
tp225
a(I31
I40
I0
g202
I1
tp226
a(I31
I74
F1.0
S'good'
p227
I1
tp228
a(I31
I77
F0.125
g204
I1
tp229
a(I31
I77
F0.25
g206
I1
tp230
a(I31
I79
F-0.625
S'average'
p231
I1
tp232
as(S'a'
p233
S'entry'
p234
S'level'
p235
tp236
(lp237
(I1
I7
I0
S'entry'
p238
I0
tp239
a(I9
I1
F0.875
S'happy'
p240
I0
tp241
a(I23
I76
F1.0
S'good'
p242
I0
tp243
a(I23
I76
F0.5
S'expensive'
p244
I0
tp245
a(I28
I2
I0
S'entry'
p246
I0
tp247
a(I41
I171
F-0.625
S'bad'
p248
I0
tp249
as(S'give'
p250
S'5'
p251
S'stars'
p252
tp253
(lp254
(I9
I43
I0
S'full'
p255
I0
tp256
a(I14
I25
F0.75
S'give'
p257
I0
tp258
a(I23
I45
F0.375
S'much'
p259
I0
tp260
a(I38
I114
I-100
S'-/i'
p261
I0
tp262
as(g233
S'text'
p263
S'message'
p264
tp265
(lp266
(I2
I2
F0.125
g12
I0
tp267
a(I7
I159
F-0.5
g14
I0
tp268
a(I7
I159
I0
S'different'
p269
I0
tp270
a(I10
I39
I0
g16
I0
tp271
a(I10
I42
F0.625
g18
I0
tp272
a(I21
I66
F-0.5
g22
I0
tp273
a(I41
I110
I0
S'website'
p274
I0
tp275
as(S'triple'
p276
S'minutes'
p277
tp278
(lp279
(I0
I61
F0.875
S'nice'
p280
I0
tp281
a(I9
I87
I0
S'great'
p282
I0
tp283
a(I13
I29
I0
S'old'
p284
I0
tp285
a(I23
I38
I0
S'tripled'
p286
I0
tp287
a(I23
I89
F0.375
S'extra'
p288
I0
tp289
a(I23
I91
F-0.25
S'triple'
p290
I0
tp291
a(I32
I111
F-0.25
S'triple'
p292
I0
tp293
a(I38
I113
I0
S'older'
p294
I0
tp295
as(S'minutes'
p296
S'for'
p297
S'life'
p298
tp299
(lp300
(I32
I111
F-0.25
g292
I0
tp301
a(I41
I52
I0
S'great'
p302
I0
tp303
a(I0
I82
F-0.25
g81
I19
tp304
a(I7
I75
F1.0
g87
I19
tp305
a(I9
I66
F0.125
g89
I19
tp306
a(I15
I3
F1.0
g91
I19
tp307
a(I16
I48
F1.0
g93
I19
tp308
a(I18
I149
F0.125
g95
I19
tp309
a(I18
I267
F1.0
g97
I19
tp310
a(I31
I84
I0
g105
I19
tp311
a(I41
I0
F1.0
g111
I19
tp312
a(I41
I52
I0
g302
I19
tp313
as(S'camera'
p314
tp315
(lp316
(I0
I25
I0
S'cool'
p317
I1
tp318
a(I0
I25
F-0.75
S'little'
p319
I1
tp320
a(I5
I13
F-0.75
S'sad'
p321
I1
tp322
a(I6
I51
I0
S'same'
p323
I1
tp324
a(I6
I56
I0
S'physical'
p325
I1
tp326
a(I7
I25
F1.0
S'better'
p327
I1
tp328
a(I7
I25
I0
S'great'
p329
I1
tp330
a(I7
I56
F1.0
S'better'
p331
I1
tp332
a(I7
I64
F-0.25
S'disappointing'
p333
I1
tp334
a(I14
I26
F1.0
S'good'
p335
I1
tp336
a(I16
I100
I0
S'adequate'
p337
I1
tp338
a(I16
I100
I0
S'great'
p339
I1
tp340
a(I16
I106
F-0.625
S'other'
p341
I1
tp342
a(I16
I109
I0
S'great'
p343
I1
tp344
a(I16
I109
I0
S'great'
p345
I1
tp346
a(I17
I7
F-0.125
S'accidental'
p347
I1
tp348
a(I19
I6
F0.25
S'dim'
p349
I1
tp350
a(I27
I139
I0
S'great'
p351
I1
tp352
a(I29
I14
F0.25
S'powerful'
p353
I1
tp354
a(I31
I121
F1.0
S'best'
p355
I1
tp356
a(I36
I42
F-0.625
S'bad'
p357
I1
tp358
a(I38
I72
F-0.125
S'slow'
p359
I1
tp360
as(S'reception'
p361
tp362
(lp363
(I0
I95
F1.0
S'good'
p364
I0
tp365
a(I5
I29
F1.0
S'better'
p366
I0
tp367
a(I6
I81
F-0.5
S'poor'
p368
I0
tp369
a(I7
I72
F-0.625
S'average'
p370
I0
tp371
a(I8
I1
I0
S'great'
p372
I0
tp373
a(I9
I30
F1.0
S'better'
p374
I0
tp375
a(I10
I107
F-0.5
S'poor'
p376
I0
tp377
a(I12
I50
F-0.875
S'worst'
p378
I0
tp379
a(I12
I55
I0
S'cellular'
p380
I0
tp381
a(I13
I47
F0.625
S'decent'
p382
I0
tp383
a(I15
I3
F0.125
S'solid'
p384
I0
tp385
a(I17
I46
F1.0
S'good'
p386
I0
tp387
a(I22
I55
F1.0
S'good'
p388
I0
tp389
a(I27
I69
I0
S'fewer'
p390
I0
tp391
a(I27
I70
F1.0
S'better'
p392
I0
tp393
a(I27
I198
F-0.5
S'poor'
p394
I0
tp395
a(I28
I26
F-0.625
S'bad'
p396
I0
tp397
a(I31
I22
F1.0
S'good'
p398
I0
tp399
a(I36
I6
F1.0
S'good'
p400
I0
tp401
a(I36
I71
F1.0
S'good'
p402
I0
tp403
a(I36
I72
I0
S'great'
p404
I0
tp405
a(I39
I10
I0
S'great'
p406
I0
tp407
a(I39
I11
F1.0
S'better'
p408
I0
tp409
a(I39
I11
F-0.75
S'worse'
p410
I0
tp411
a(I41
I256
F-0.5
S'weak'
p412
I0
tp413
as(g233
S'high'
p414
S'end'
p415
tp416
(lp417
(I0
I0
I0
S'high'
p418
I0
tp419
a(I6
I108
F-0.25
S'higher'
p420
I0
tp421
a(I12
I51
I0
S'high'
p422
I0
tp423
a(I16
I35
I0
S'high'
p424
I0
tp425
a(I35
I34
I0
S'high'
p426
I0
tp427
as(S'feet'
p428
S'from'
p429
S'router'
p430
tp431
(lp432
(I22
I6
I0
S'feet'
p433
I0
tp434
as(S'ability'
p435
S'to'
p436
S'use'
p437
tp438
(lp439
(I19
I25
F-0.625
S'glad'
p440
I0
tp441
as(S'tracfone'
p442
S'customer'
p443
S'service'
p444
tp445
(lp446
(I7
I111
F-0.875
S'worst'
p447
I0
tp448
a(I13
I52
F-0.625
S'bad'
p449
I0
tp450
a(I14
I20
I0
S'great'
p451
I0
tp452
a(I26
I9
F0.125
S'able'
p453
I0
tp454
a(I26
I10
F0.5
S'told'
p455
I0
tp456
a(I26
I10
I0
S'least'
p457
I0
tp458
a(I27
I102
I0
S'android'
p459
I0
tp460
a(I7
I100
I0
S'quick'
p461
I3
tp462
a(I7
I111
F-0.875
g447
I3
tp463
a(I13
I52
F-0.625
g449
I3
tp464
a(I14
I20
I0
g451
I3
tp465
a(I26
I9
F0.125
g453
I3
tp466
a(I26
I10
I0
g457
I3
tp467
a(I27
I72
F0.5
S'satisfactory'
p468
I3
tp469
a(I27
I102
I0
g459
I3
tp470
a(I38
I38
F0.25
S'familiar'
p471
I3
tp472
a(I41
I129
I0
S'most'
p473
I3
tp474
a(I41
I129
F-0.875
S'awful'
p475
I3
tp476
a(I0
I56
F0.125
S'last'
p477
I0
tp478
a(I0
I91
F0.75
S'due'
p479
I0
tp480
a(I0
I91
I0
S'old'
p481
I0
tp482
a(I3
I20
F0.5
S'possible'
p483
I0
tp484
a(I4
I38
F0.5
S'satisfied'
p485
I0
tp486
a(I4
I55
F0.125
S'last'
p487
I0
tp488
a(I7
I204
F0.125
S'last'
p489
I0
tp490
a(I7
I204
I0
S'least'
p491
I0
tp492
a(I8
I10
F-0.875
S'stick'
p493
I0
tp494
a(I9
I64
F0.625
S'easy'
p495
I0
tp496
a(I9
I64
I0
S'old'
p497
I0
tp498
a(I13
I16
I0
S'android'
p499
I0
tp500
a(I13
I20
I0
S'old'
p501
I0
tp502
a(I14
I17
I0
S'older'
p503
I0
tp504
a(I14
I17
I0
S'basic'
p505
I0
tp506
a(I15
I12
F-0.625
S'bad'
p507
I0
tp508
a(I16
I96
F-0.5
S'regular'
p509
I0
tp510
a(I17
I44
F-0.5
S'less'
p511
I0
tp512
a(I17
I73
F-0.625
S'other'
p513
I0
tp514
a(I18
I135
F-0.625
S'other'
p515
I0
tp516
a(I18
I172
I0
S'more'
p517
I0
tp518
a(I18
I181
I0
S'more'
p519
I0
tp520
a(I18
I181
F0.625
S'fair'
p521
I0
tp522
a(I18
I190
F0.25
S'original'
p523
I0
tp524
a(I18
I205
I0
S'old'
p525
I0
tp526
a(I18
I238
F-0.75
S'unable'
p527
I0
tp528
a(I18
I258
I0
S'old'
p529
I0
tp530
a(I18
I258
I0
S'basic'
p531
I0
tp532
a(I19
I27
F0.625
S'easy'
p533
I0
tp534
a(I20
I2
I0
S'old'
p535
I0
tp536
a(I20
I2
F0.375
S'new'
p537
I0
tp538
a(I21
I59
I0
S'most'
p539
I0
tp540
a(I21
I76
F-0.25
S'ready'
p541
I0
tp542
a(I21
I78
F1.0
S'best'
p543
I0
tp544
a(I23
I23
F0.875
S'happy'
p545
I0
tp546
a(I26
I10
F0.5
g455
I0
tp547
a(I26
I25
I0
g168
I0
tp548
a(I27
I6
I0
S'old'
p549
I0
tp550
a(I27
I18
F-0.75
S'disappointment'
p551
I0
tp552
a(I27
I49
F0.5
S'satisfied'
p553
I0
tp554
a(I27
I142
F0.375
S'newest'
p555
I0
tp556
a(I27
I197
F-0.625
S'glad'
p557
I0
tp558
a(I29
I15
I0
S'current'
p559
I0
tp560
a(I29
I18
I0
S'wish'
p561
I0
tp562
a(I29
I18
F-0.25
S'inexpensive'
p563
I0
tp564
a(I29
I56
I0
g170
I0
tp565
a(I29
I56
I0
g172
I0
tp566
a(I29
I56
F0.5
g174
I0
tp567
a(I31
I129
I0
S'decided'
p568
I0
tp569
a(I31
I129
F0.5
S'rid'
p570
I0
tp571
a(I31
I129
I0
S'old'
p572
I0
tp573
a(I32
I55
I0
S'old'
p574
I0
tp575
a(I32
I72
I0
S'on-line'
p576
I0
tp577
a(I32
I86
F0.875
S'happy'
p578
I0
tp579
a(I32
I93
F-0.5
S'regular'
p580
I0
tp581
a(I32
I102
F-0.5
S'regular'
p582
I0
tp583
a(I35
I41
F-0.75
S'sad'
p584
I0
tp585
a(I35
I42
F-0.75
S'sad'
p586
I0
tp587
a(I36
I15
F-0.125
S'former'
p588
I0
tp589
a(I36
I15
F0.625
S'easy'
p590
I0
tp591
a(I37
I2
F-0.625
S'glad'
p592
I0
tp593
a(I38
I16
I0
S'website'
p594
I0
tp595
a(I38
I25
F0.125
S'usual'
p596
I0
tp597
a(I38
I98
F0.25
S'familiar'
p598
I0
tp599
a(I38
I98
I0
S'most'
p600
I0
tp601
a(I38
I110
I0
S'old'
p602
I0
tp603
a(I39
I14
I0
S'quick'
p604
I0
tp605
a(I39
I14
F0.625
S'easy'
p606
I0
tp607
a(I39
I46
F0.125
S'enough'
p608
I0
tp609
a(I41
I48
F0.5
g176
I0
tp610
a(I41
I72
I0
S'update'
p611
I0
tp612
a(I41
I108
I0
S'website'
p613
I0
tp614
a(I41
I187
F0.375
S'new'
p615
I0
tp616
a(I41
I250
F0.125
S'first'
p617
I0
tp618
a(I4
I16
F0.375
S'available'
p619
I16
tp620
a(I4
I49
I0
S'great'
p621
I16
tp622
a(I5
I19
I0
S'more'
p623
I16
tp624
a(I7
I100
I0
g461
I16
tp625
a(I13
I40
I0
S'only'
p626
I16
tp627
a(I13
I40
F1.0
S'good'
p628
I16
tp629
a(I13
I52
F-0.625
g449
I16
tp630
a(I15
I3
I0
S'great'
p631
I16
tp632
a(I17
I38
F-0.5
S'regular'
p633
I16
tp634
a(I18
I228
I0
S'different'
p635
I16
tp636
a(I19
I2
F1.0
S'best'
p637
I16
tp638
a(I21
I63
I0
S'most'
p639
I16
tp640
a(I26
I9
F0.125
g453
I16
tp641
a(I26
I10
I0
g457
I16
tp642
a(I26
I22
F-0.5
S'unavailable'
p643
I16
tp644
a(I27
I72
F0.5
g468
I16
tp645
a(I27
I102
I0
g459
I16
tp646
a(I35
I19
F-0.5
S'international'
p647
I16
tp648
a(I35
I19
I0
S'dial'
p649
I16
tp650
a(I36
I80
F0.625
S'decent'
p651
I16
tp652
a(I41
I83
I0
S'one-year'
p653
I16
tp654
a(I41
I117
I0
S'monthly'
p655
I16
tp656
a(I41
I271
I0
S'different'
p657
I16
tp658
a(I4
I38
I0
S'more'
p659
I11
tp660
a(I7
I111
F-0.875
g447
I11
tp661
a(I8
I6
F-0.75
S'little'
p662
I11
tp663
a(I8
I6
F0.125
S'able'
p664
I11
tp665
a(I14
I20
I0
g451
I11
tp666
a(I38
I38
F0.25
g471
I11
tp667
a(I38
I186
F0.875
S'happy'
p668
I11
tp669
a(I39
I54
F-0.5
S'poor'
p670
I11
tp671
a(I41
I129
I0
g473
I11
tp672
a(I41
I129
F-0.875
g475
I11
tp673
as(S'google'
p674
S'play'
p675
S'store'
p676
tp677
(lp678
(I17
I41
F0.375
S'available'
p679
I0
tp680
a(I17
I41
F-0.625
S'free'
p681
I0
tp682
a(I22
I16
F0.375
S'available'
p683
I0
tp684
a(I25
I36
F-0.25
S'google'
p685
I0
tp686
a(I27
I121
F-0.25
S'google'
p687
I0
tp688
a(I27
I121
F1.0
S'good'
p689
I0
tp690
a(I0
I79
I0
S'most'
p691
I0
tp692
a(I22
I16
F0.375
g683
I0
tp693
a(I25
I36
F-0.25
g685
I0
tp694
a(I27
I121
F-0.25
g687
I0
tp695
a(I27
I121
F1.0
g689
I0
tp696
a(I7
I90
F-0.25
S'google'
p697
I0
tp698
a(I17
I41
F0.375
g679
I0
tp699
a(I17
I41
F-0.625
g681
I0
tp700
a(I25
I18
F-0.25
S'google'
p701
I0
tp702
a(I25
I36
F-0.25
g685
I0
tp703
a(I27
I121
F-0.25
g687
I0
tp704
a(I27
I132
F-0.25
S'google'
p705
I0
tp706
a(I29
I53
F-0.5
S'sure'
p707
I0
tp708
a(I36
I38
F-0.25
S'google'
p709
I0
tp710
a(I39
I28
F-0.25
S'google'
p711
I0
tp712
a(I17
I41
F0.375
g679
I4
tp713
a(I17
I41
F-0.625
g681
I4
tp714
a(I17
I56
F0.25
S'familiar'
p715
I4
tp716
a(I27
I128
I0
S'great'
p717
I4
tp718
a(I27
I167
F-0.25
S'myriad'
p719
I4
tp720
a(I29
I53
F-0.5
g707
I4
tp721
a(I38
I146
I0
S'standard'
p722
I4
tp723
as(S'single'
p724
S'core'
p725
S'processor'
p726
tp727
(lp728
(I6
I22
F-0.75
S'single'
p729
I0
tp730
a(I38
I47
F-0.75
S'single'
p731
I0
tp732
a(I38
I53
F-0.75
S'single'
p733
I0
tp734
a(I38
I72
F-0.75
S'single'
p735
I0
tp736
a(I38
I114
F-0.75
S'single'
p737
I0
tp738
a(I38
I158
I0
S'fast'
p739
I0
tp740
a(I38
I158
F-0.75
S'single'
p741
I0
tp742
as(g233
S'long'
p743
S'time'
p744
tp745
(lp746
(I6
I38
F-0.5
S'long'
p747
I12
tp748
a(I7
I52
F0.125
S'able'
p749
I12
tp750
a(I9
I37
F-0.5
S'long'
p751
I12
tp752
a(I9
I37
I0
S'great'
p753
I12
tp754
a(I21
I33
I0
S'same'
p755
I12
tp756
a(I27
I9
F0.125
S'first'
p757
I12
tp758
a(I27
I112
F-0.5
S'long'
p759
I12
tp760
a(I29
I24
F-0.5
S'long'
p761
I12
tp762
a(I32
I58
F-0.5
g163
I12
tp763
a(I35
I37
F-0.5
S'long'
p764
I12
tp765
as(S'voice'
p766
tp767
(lp768
(I12
I74
I0
S'more'
p769
I4
tp770
a(I15
I20
I0
S'dial'
p771
I4
tp772
a(I21
I61
F-0.625
S'free'
p773
I4
tp774
a(I27
I131
F1.0
S'good'
p775
I4
tp776
a(I38
I95
F0.5
S'clear'
p777
I4
tp778
a(I41
I202
F-0.25
S'google'
p779
I4
tp780
a(I41
I202
I0
S'pinger'
p781
I4
tp782
a(I41
I202
F1.0
S'good'
p783
I4
tp784
as(S'entry'
p785
S'level'
p786
S'android'
p787
tp788
(lp789
(I1
I7
I0
g238
I0
tp790
a(I23
I76
F1.0
g242
I0
tp791
a(I23
I76
F0.5
g244
I0
tp792
a(I28
I2
I0
g246
I0
tp793
a(I1
I7
I0
g238
I0
tp794
a(I9
I1
F0.875
g240
I0
tp795
a(I23
I76
F1.0
g242
I0
tp796
a(I23
I76
F0.5
g244
I0
tp797
a(I28
I2
I0
g246
I0
tp798
a(I41
I171
F-0.625
g248
I0
tp799
a(I0
I7
F0.125
S'first'
p800
I0
tp801
a(I6
I7
F0.375
S'new'
p802
I0
tp803
a(I6
I18
I-100
S'semi-new'
p804
I0
tp805
a(I6
I135
F0.375
S'reliable'
p806
I0
tp807
a(I12
I83
F0.375
S'new'
p808
I0
tp809
a(I14
I44
F0.125
S'first'
p810
I0
tp811
a(I16
I0
F1.0
S'good'
p812
I0
tp813
a(I16
I101
F0.125
S'first'
p814
I0
tp815
a(I18
I137
F0.5
S'functional'
p816
I0
tp817
a(I18
I151
F-0.625
S'other'
p818
I0
tp819
a(I18
I226
F0.375
S'new'
p820
I0
tp821
a(I19
I21
I0
S'generic'
p822
I0
tp823
a(I21
I76
F0.375
S'new'
p824
I0
tp825
a(I23
I110
F-0.625
S'other'
p826
I0
tp827
a(I23
I110
F0.375
S'new'
p828
I0
tp829
a(I24
I0
F0.375
S'new'
p830
I0
tp831
a(I27
I57
F0.125
S'first'
p832
I0
tp833
a(I28
I0
I0
S'different'
p834
I0
tp835
a(I31
I36
F0.625
S'acceptable'
p836
I0
tp837
a(I31
I36
F0.125
S'capable'
p838
I0
tp839
a(I31
I59
I0
S'large'
p840
I0
tp841
a(I35
I54
F0.125
S'first'
p842
I0
tp843
a(I36
I29
F0.5
S'expensive'
p844
I0
tp845
a(I36
I36
F-0.125
S'bean'
p846
I0
tp847
a(I36
I68
I0
S'fastest'
p848
I0
tp849
a(I36
I68
I0
S'most'
p850
I0
tp851
a(I36
I68
F0.25
S'powerful'
p852
I0
tp853
a(I37
I6
F0.125
S'first'
p854
I0
tp855
a(I38
I15
F0.125
S'first'
p856
I0
tp857
a(I38
I50
F0.25
S'familiar'
p858
I0
tp859
a(I38
I63
F0.25
S'familiar'
p860
I0
tp861
a(I38
I83
F0.25
S'familiar'
p862
I0
tp863
a(I38
I156
F0.125
S'last'
p864
I0
tp865
a(I40
I34
F0.5
S'true'
p866
I0
tp867
a(I40
I52
F1.0
S'best'
p868
I0
tp869
a(I41
I71
I0
S'only'
p870
I0
tp871
a(I41
I96
F-0.625
S'other'
p872
I0
tp873
a(I41
I269
F0.375
S'new'
p874
I0
tp875
as(g233
S'low'
p876
S'end'
p877
tp878
(lp879
(I4
I25
F-0.25
S'low'
p880
I0
tp881
a(I6
I54
F-0.25
S'low'
p882
I0
tp883
a(I6
I109
I0
S'more'
p884
I0
tp885
a(I6
I109
F-0.25
S'low'
p886
I0
tp887
a(I15
I16
F-0.25
S'low'
p888
I0
tp889
a(I16
I7
F-0.25
S'low'
p890
I0
tp891
a(I16
I14
F-0.25
S'low'
p892
I0
tp893
a(I16
I38
F-0.25
S'low'
p894
I0
tp895
a(I27
I114
F-0.25
S'low'
p896
I0
tp897
a(I27
I129
F0.875
S'happy'
p898
I0
tp899
a(I27
I129
F-0.25
S'low'
p900
I0
tp901
a(I38
I69
F-0.25
S'low'
p902
I0
tp903
a(I38
I144
F-0.25
S'lower'
p904
I0
tp905
a(I39
I43
F-0.25
S'low'
p906
I0
tp907
a(I41
I25
F-0.25
S'lower'
p908
I0
tp909
as(S'an'
p910
S'android'
p911
S'device'
p912
tp913
(lp914
(I5
I9
F0.5
S'functional'
p915
I0
tp916
a(I5
I9
I0
S'android'
p917
I0
tp918
a(I7
I41
I0
S'such'
p919
I0
tp920
a(I18
I151
F-0.625
g818
I0
tp921
a(I36
I68
I0
g848
I0
tp922
a(I36
I68
I0
g850
I0
tp923
a(I36
I68
F0.25
g852
I0
tp924
a(I38
I50
F0.25
g858
I0
tp925
a(I38
I63
F0.25
g860
I0
tp926
a(I41
I60
I0
S'android'
p927
I0
tp928
as(S'smart'
p929
tp930
(lp931
(I9
I47
F0.375
S'newer'
p932
I10
tp933
a(I9
I66
F-0.625
S'other'
p934
I10
tp935
a(I9
I68
F-0.375
S'smaller'
p936
I10
tp937
a(I9
I68
I0
S'many'
p938
I10
tp939
a(I9
I68
F0.375
S'newer'
p940
I10
tp941
a(I12
I8
F0.125
S'first'
p942
I10
tp943
a(I13
I60
F1.0
S'good'
p944
I10
tp945
a(I17
I92
F0.5
S'true'
p946
I10
tp947
a(I18
I64
F0.375
S'new'
p948
I10
tp949
a(I18
I197
F-0.625
S'other'
p950
I10
tp951
a(I19
I30
F0.375
S'new'
p952
I10
tp953
a(I19
I35
F0.375
S'new'
p954
I10
tp955
a(I19
I36
F0.375
S'new'
p956
I10
tp957
a(I25
I20
F0.125
S'first'
p958
I10
tp959
a(I25
I26
I0
S'real'
p960
I10
tp961
a(I26
I26
F-0.625
S'other'
p962
I10
tp963
a(I28
I45
F0.5
S'expensive'
p964
I10
tp965
a(I29
I26
F0.125
S'first'
p966
I10
tp967
a(I31
I61
F1.0
S'good'
p968
I10
tp969
a(I31
I61
I0
S'basic'
p970
I10
tp971
a(I32
I58
F0.5
S'true'
p972
I10
tp973
a(I32
I112
F0.125
S'first'
p974
I10
tp975
a(I35
I0
F0.125
S'first'
p976
I10
tp977
a(I37
I28
F0.375
S'new'
p978
I10
tp979
a(I39
I18
F0.125
S'first'
p980
I10
tp981
a(I39
I21
F0.125
S'first'
p982
I10
tp983
a(I41
I81
F0.125
S'first'
p984
I10
tp985
as(S'talk'
p986
tp987
(lp988
(I10
I86
F0.375
S'much'
p989
I13
tp990
a(I26
I26
F-0.625
S'free'
p991
I13
tp992
a(I28
I27
F0.625
S'straight'
p993
I13
tp994
a(I32
I114
I0
S'text'
p995
I13
tp996
a(I35
I9
F0.625
S'straight'
p997
I13
tp998
a(I41
I201
F-0.25
S'low'
p999
I13
tp1000
as(S'number'
p1001
S'and'
p1002
S'minutes'
p1003
tp1004
(lp1005
(I4
I40
I0
S'large'
p1006
I0
tp1007
a(I18
I30
F0.375
S'new'
p1008
I0
tp1009
a(I40
I19
I0
S'old'
p1010
I0
tp1011
a(I41
I160
F0.625
S'easy'
p1012
I0
tp1013
as(S'calls'
p1014
tp1015
(lp1016
(I0
I91
I0
S'many'
p1017
I0
tp1018
a(I7
I127
I0
S'later'
p1019
I0
tp1020
a(I9
I52
I0
S'local'
p1021
I0
tp1022
a(I10
I31
F1.0
S'good'
p1023
I0
tp1024
a(I18
I119
F0.625
S'necessary'
p1025
I0
tp1026
a(I21
I60
I0
S'most'
p1027
I0
tp1028
a(I23
I35
I0
S'many'
p1029
I0
tp1030
a(I31
I65
F-0.625
S'average'
p1031
I0
tp1032
a(I34
I1
F-0.25
S'dropped'
p1033
I0
tp1034
a(I35
I19
F-0.5
S'international'
p1035
I0
tp1036
a(I41
I161
I0
S'such'
p1037
I0
tp1038
as(S'on'
p1039
S'zte'
p1040
S'valet'
p1041
tp1042
(lp1043
(I7
I191
F1.0
S'best'
p1044
I0
tp1045
a(I16
I72
F0.5
S'second'
p1046
I0
tp1047
a(I18
I174
F0.375
S'new'
p1048
I0
tp1049
a(I20
I0
F0.375
S'new'
p1050
I0
tp1051
a(I27
I84
F0.125
S'able'
p1052
I0
tp1053
a(I27
I84
I0
S'most'
p1054
I0
tp1055
a(I37
I10
I0
S'android'
p1056
I0
tp1057
a(I40
I31
F1.0
S'best'
p1058
I0
tp1059
a(I7
I191
F1.0
g1044
I0
tp1060
a(I13
I56
F0.625
S'perfect'
p1061
I0
tp1062
a(I16
I72
F0.5
g1046
I0
tp1063
a(I18
I174
F0.375
g1048
I0
tp1064
a(I18
I263
F0.875
S'happy'
p1065
I0
tp1066
a(I20
I0
F0.375
g1050
I0
tp1067
a(I21
I6
I0
S'same'
p1068
I0
tp1069
a(I27
I84
F0.125
g1052
I0
tp1070
a(I27
I84
I0
g1054
I0
tp1071
a(I37
I10
I0
g1056
I0
tp1072
a(I40
I31
F1.0
g1058
I0
tp1073
a(I13
I56
F0.625
g1061
I0
tp1074
a(I18
I134
F0.625
S'superior'
p1075
I0
tp1076
a(I18
I164
F0.125
S'impressive'
p1077
I0
tp1078
a(I27
I84
F0.125
g1052
I0
tp1079
a(I27
I84
I0
g1054
I0
tp1080
a(I37
I10
I0
g1056
I0
tp1081
a(I40
I31
F1.0
g1058
I0
tp1082
as(S'60'
p1083
S'minute'
p1084
S'card'
p1085
tp1086
(lp1087
(I5
I4
F-0.75
S'single'
p1088
I0
tp1089
a(I40
I11
F-0.625
S'bad'
p1090
I0
tp1091
a(I5
I4
F-0.75
g1088
I0
tp1092
a(I40
I11
F-0.625
g1090
I0
tp1093
as(S'bars'
p1094
tp1095
(lp1096
(I5
I19
F-0.5
S'less'
p1097
I10
tp1098
a(I12
I51
I0
S'more'
p1099
I10
tp1100
a(I12
I57
F1.0
S'best'
p1101
I10
tp1102
a(I13
I41
F-0.25
S'low'
p1103
I10
tp1104
a(I14
I6
I0
S'more'
p1105
I10
tp1106
a(I15
I8
I0
S'most'
p1107
I10
tp1108
a(I27
I130
I0
S'many'
p1109
I10
tp1110
a(I27
I130
I0
S'signal'
p1111
I10
tp1112
a(I31
I39
I0
S'more'
p1113
I10
tp1114
a(I36
I5
F-0.625
S'steady'
p1115
I10
tp1116
a(I41
I257
I0
S'more'
p1117
I10
tp1118
as(S'smartphone'
p1119
tp1120
(lp1121
(I0
I58
F0.125
S'first'
p1122
I0
tp1123
a(I4
I19
F0.125
S'first'
p1124
I0
tp1125
a(I7
I7
F0.875
S'nice'
p1126
I0
tp1127
a(I7
I7
F0.125
S'first'
p1128
I0
tp1129
a(I7
I57
F1.0
S'good'
p1130
I0
tp1131
a(I7
I57
F0.125
S'first'
p1132
I0
tp1133
a(I7
I83
I0
S'more'
p1134
I0
tp1135
a(I7
I83
I0
S'real'
p1136
I0
tp1137
a(I7
I94
F0.375
S'new'
p1138
I0
tp1139
a(I7
I172
I0
S'third'
p1140
I0
tp1141
a(I9
I71
F0.25
S'powerful'
p1142
I0
tp1143
a(I9
I72
F0.125
S'first'
p1144
I0
tp1145
a(I9
I72
F0.375
S'available'
p1146
I0
tp1147
a(I9
I74
F0.375
S'new'
p1148
I0
tp1149
a(I10
I59
F0.125
S'first'
p1150
I0
tp1151
a(I10
I94
F-0.625
S'other'
p1152
I0
tp1153
a(I10
I94
I0
S'android'
p1154
I0
tp1155
a(I10
I101
F0.5
S'functional'
p1156
I0
tp1157
a(I10
I101
I0
S'user'
p1158
I0
tp1159
a(I10
I101
F0.375
S'friendly'
p1160
I0
tp1161
a(I10
I104
F1.0
S'good'
p1162
I0
tp1163
a(I12
I6
F0.125
S'first'
p1164
I0
tp1165
a(I12
I25
I0
S'real'
p1166
I0
tp1167
a(I12
I73
I0
S'basic'
p1168
I0
tp1169
a(I12
I73
F0.125
S'capable'
p1170
I0
tp1171
a(I14
I0
F0.125
S'first'
p1172
I0
tp1173
a(I16
I40
F0.125
S'first'
p1174
I0
tp1175
a(I17
I1
F0.5
S'expensive'
p1176
I0
tp1177
a(I18
I274
I0
S'basic'
p1178
I0
tp1179
a(I21
I40
F-0.25
S'cheapest'
p1180
I0
tp1181
a(I21
I40
F0.5
S'possible'
p1182
I0
tp1183
a(I23
I25
F0.125
S'able'
p1184
I0
tp1185
a(I24
I2
I0
S'big'
p1186
I0
tp1187
a(I27
I115
F0.5
S'true'
p1188
I0
tp1189
a(I27
I143
F0.125
S'first'
p1190
I0
tp1191
a(I31
I99
F0.375
S'new'
p1192
I0
tp1193
a(I36
I34
F1.0
S'good'
p1194
I0
tp1195
a(I36
I34
I0
S'basic'
p1196
I0
tp1197
a(I38
I11
I0
S'basic'
p1198
I0
tp1199
a(I39
I46
I0
S'monthly'
p1200
I0
tp1201
a(I41
I49
F0.375
S'available'
p1202
I0
tp1203
a(I41
I232
F0.5
S'whole'
p1204
I0
tp1205
a(I41
I250
F1.0
S'good'
p1206
I0
tp1207
a(I41
I285
F0.25
S'favorite'
p1208
I0
tp1209
as(g233
S'tracfone'
p1210
S'customer'
p1211
tp1212
(lp1213
(I4
I38
F0.5
g485
I0
tp1214
a(I4
I38
I0
g659
I0
tp1215
a(I7
I111
F-0.875
g447
I0
tp1216
a(I8
I6
F-0.75
g662
I0
tp1217
a(I8
I6
F0.125
g664
I0
tp1218
a(I14
I20
I0
g451
I0
tp1219
a(I26
I10
F0.5
g455
I0
tp1220
a(I27
I49
F0.5
g553
I0
tp1221
a(I39
I54
F-0.5
g670
I0
tp1222
as(S'long'
p1223
S'time'
p1224
S'tracfone'
p1225
tp1226
(lp1227
(I4
I55
F0.125
g487
I0
tp1228
a(I9
I37
F-0.5
g751
I0
tp1229
a(I9
I37
I0
g753
I0
tp1230
a(I21
I33
I0
g755
I0
tp1231
a(I27
I9
F0.125
g757
I0
tp1232
a(I27
I112
F-0.5
g759
I0
tp1233
a(I32
I58
F-0.5
g163
I0
tp1234
as(S'an'
p1235
S'sd'
p1236
S'card'
p1237
tp1238
(lp1239
(I10
I137
I-100
S'1-compatible'
p1240
I0
tp1241
a(I10
I137
I0
S'most'
p1242
I0
tp1243
a(I10
I137
F0.625
S'accessible'
p1244
I0
tp1245
a(I18
I86
F0.25
S'larger'
p1246
I0
tp1247
a(I23
I83
F-0.625
S'free'
p1248
I0
tp1249
a(I41
I157
I0
S'sd'
p1250
I0
tp1251
a(I10
I137
I0
g1242
I0
tp1252
a(I10
I137
F0.625
g1244
I0
tp1253
a(I18
I86
F0.25
g1246
I0
tp1254
a(I23
I83
F-0.625
g1248
I0
tp1255
a(I27
I90
F-0.75
S'difficult'
p1256
I0
tp1257
a(I41
I157
I0
g1250
I0
tp1258
as(S'wifi'
p1259
tp1260
(lp1261
(I1
I4
I0
S'different'
p1262
I0
tp1263
a(I4
I41
I0
S'different'
p1264
I0
tp1265
a(I4
I41
F-0.125
S'public'
p1266
I0
tp1267
a(I6
I62
F0.75
S'due'
p1268
I0
tp1269
a(I7
I142
F1.0
S'good'
p1270
I0
tp1271
a(I9
I54
I0
S'great'
p1272
I0
tp1273
a(I9
I65
F0.625
S'easy'
p1274
I0
tp1275
a(I10
I95
F1.0
S'good'
p1276
I0
tp1277
a(I10
I95
I0
S'signal'
p1278
I0
tp1279
a(I12
I79
F-0.75
S'single'
p1280
I0
tp1281
a(I12
I79
F-0.5
S'weak'
p1282
I0
tp1283
a(I14
I57
F-0.5
S'weak'
p1284
I0
tp1285
a(I16
I48
F1.0
S'good'
p1286
I0
tp1287
a(I18
I5
F0.5
S'possible'
p1288
I0
tp1289
a(I18
I6
F0.5
S'second'
p1290
I0
tp1291
a(I21
I2
F0.125
S'able'
p1292
I0
tp1293
a(I22
I32
F0.375
S'available'
p1294
I0
tp1295
a(I23
I63
F-0.5
S'poor'
p1296
I0
tp1297
a(I23
I67
F-0.5
S'poor'
p1298
I0
tp1299
a(I23
I69
I0
S'such'
p1300
I0
tp1301
a(I23
I69
F-0.5
S'weak'
p1302
I0
tp1303
a(I23
I82
F-0.5
S'sure'
p1304
I0
tp1305
a(I28
I12
F-0.5
S'weak'
p1306
I0
tp1307
a(I32
I20
F0.5
S'strong'
p1308
I0
tp1309
a(I32
I20
I0
S'signal'
p1310
I0
tp1311
a(I32
I20
F0.375
S'available'
p1312
I0
tp1313
a(I32
I28
F-0.5
S'weak'
p1314
I0
tp1315
a(I41
I223
F0.5
S'live'
p1316
I0
tp1317
a(I41
I281
F-0.5
S'unavailable'
p1318
I0
tp1319
as(S'texts'
p1320
tp1321
(lp1322
(I8
I19
F0.125
S'first'
p1323
I0
tp1324
a(I23
I22
F0.375
S'available'
p1325
I0
tp1326
a(I36
I82
F0.375
S'available'
p1327
I0
tp1328
a(I38
I150
F0.375
S'new'
p1329
I0
tp1330
as(S'apps'
p1331
tp1332
(lp1333
(I0
I11
F1.0
S'better'
p1334
I0
tp1335
a(I0
I52
I0
S'downloaded'
p1336
I0
tp1337
a(I1
I11
I0
S'basic'
p1338
I0
tp1339
a(I4
I30
F-0.125
S'slow'
p1340
I0
tp1341
a(I5
I9
I0
S'most'
p1342
I0
tp1343
a(I6
I63
F-0.5
S'sure'
p1344
I0
tp1345
a(I7
I16
I0
S'e-mail'
p1346
I0
tp1347
a(I7
I16
I0
S'such'
p1348
I0
tp1349
a(I7
I42
I0
S'many'
p1350
I0
tp1351
a(I9
I78
F0.375
S'new'
p1352
I0
tp1353
a(I10
I93
F0.875
S'music'
p1354
I0
tp1355
a(I10
I111
F0.125
S'able'
p1356
I0
tp1357
a(I10
I111
F0.875
S'nice'
p1358
I0
tp1359
a(I11
I1
F-0.5
S'certain'
p1360
I0
tp1361
a(I16
I106
F1.0
S'good'
p1362
I0
tp1363
a(I17
I61
F0.625
S'easy'
p1364
I0
tp1365
a(I18
I87
I0
S'many'
p1366
I0
tp1367
a(I18
I102
F0.125
S'able'
p1368
I0
tp1369
a(I18
I111
F-0.375
S'disable'
p1370
I0
tp1371
a(I18
I143
I0
S'basic'
p1372
I0
tp1373
a(I18
I157
F0.875
S'important'
p1374
I0
tp1375
a(I19
I16
I0
S'useful'
p1376
I0
tp1377
a(I19
I19
F-0.625
S'other'
p1378
I0
tp1379
a(I23
I19
I0
S'few'
p1380
I0
tp1381
a(I23
I86
F0.875
S'music'
p1382
I0
tp1383
a(I26
I23
F-0.625
S'other'
p1384
I0
tp1385
a(I27
I66
F-0.625
S'other'
p1386
I0
tp1387
a(I28
I4
I0
S'few'
p1388
I0
tp1389
a(I31
I53
I0
S'many'
p1390
I0
tp1391
a(I31
I53
F0.375
S'available'
p1392
I0
tp1393
a(I32
I3
I0
S'close'
p1394
I0
tp1395
a(I32
I3
F0.125
S'key'
p1396
I0
tp1397
a(I37
I12
F0.375
S'available'
p1398
I0
tp1399
a(I38
I50
F-0.5
S'open'
p1400
I0
tp1401
a(I38
I51
F-0.5
S'open'
p1402
I0
tp1403
a(I38
I94
I0
S'most'
p1404
I0
tp1405
a(I38
I139
I0
S'same'
p1406
I0
tp1407
a(I38
I193
F-0.625
S'free'
p1408
I0
tp1409
a(I41
I114
I0
S'few'
p1410
I0
tp1411
a(I41
I255
F1.0
S'best'
p1412
I0
tp1413
a(I41
I285
F0.375
S'available'
p1414
I0
tp1415
as(g233
S'tracfone'
p1416
S'user'
p1417
tp1418
(lp1419
(I12
I29
F-0.625
g165
I0
tp1420
a(I17
I65
I0
g161
I0
tp1421
a(I26
I25
I0
g168
I0
tp1422
a(I29
I56
I0
g170
I0
tp1423
a(I29
I56
I0
g172
I0
tp1424
a(I29
I56
F0.5
g174
I0
tp1425
a(I41
I48
F0.5
g176
I0
tp1426
as(S'touch'
p1427
S'screen'
p1428
tp1429
(lp1430
(I1
I15
F0.5
S'touch'
p1431
I2
tp1432
a(I9
I76
F0.5
S'touch'
p1433
I2
tp1434
a(I16
I20
F0.5
S'touch'
p1435
I2
tp1436
a(I16
I99
F0.25
S'responsive'
p1437
I2
tp1438
a(I18
I1
F0.5
S'touch'
p1439
I2
tp1440
a(I18
I58
F0.5
S'touch'
p1441
I2
tp1442
a(I18
I130
F-0.75
S'unresponsive'
p1443
I2
tp1444
a(I18
I178
F0.25
S'responsive'
p1445
I2
tp1446
a(I22
I58
F0.5
S'touch'
p1447
I2
tp1448
a(I25
I5
F0.5
S'touch'
p1449
I2
tp1450
a(I25
I7
F0.5
S'touch'
p1451
I2
tp1452
a(I26
I29
F0.5
S'touch'
p1453
I2
tp1454
a(I26
I29
F0.625
S'acceptable'
p1455
I2
tp1456
a(I27
I34
F0.5
S'touch'
p1457
I2
tp1458
a(I28
I19
F0.5
S'touch'
p1459
I2
tp1460
a(I28
I19
F0.25
S'responsive'
p1461
I2
tp1462
a(I32
I83
F0.5
S'touch'
p1463
I2
tp1464
a(I35
I1
F0.5
S'touch'
p1465
I2
tp1466
a(I35
I1
F-0.75
S'unresponsive'
p1467
I2
tp1468
as.