(dp0
(S'home'
p1
S'button'
p2
tp3
(lp4
(I1
I84
I0
S'physical'
p5
I0
tp6
a(I1
I88
I0
S'physical'
p7
I0
tp8
as(S'screen'
p9
S'size'
p10
tp11
(lp12
(I2
I175
I0
S'large'
p13
I3
tp14
as(S'battery'
p15
S'life'
p16
tp17
(lp18
(I2
I69
F1.0
S'good'
p19
I1
tp20
a(I5
I90
F1.0
S'good'
p21
I1
tp22
a(I2
I69
F1.0
g19
I19
tp23
a(I5
I90
F1.0
g21
I19
tp24
a(I1
I45
I0
S'unbelievable'
p25
I15
tp26
a(I1
I45
F-0.5
S'flimsy'
p27
I15
tp28
a(I1
I45
I0
S'plastic'
p29
I15
tp30
a(I3
I21
F0.375
S'much'
p31
I15
tp32
as(S'samsung'
p33
tp34
(lp35
(I1
I36
F0.625
S'fair'
p36
I7
tp37
a(I1
I91
F0.625
S'add'
p38
I7
tp39
a(I2
I208
I0
S'website'
p40
I7
tp41
a(I5
I113
F-0.625
S'other'
p42
I7
tp43
as(S'sync'
p44
tp45
(lp46
(I5
I37
F0.125
S'able'
p47
I0
tp48
as(S'camera'
p49
tp50
(lp51
(I2
I47
F-0.625
S'light'
p52
I1
tp53
a(I2
I105
F0.5
S'obvious'
p54
I1
tp55
a(I4
I95
F1.0
S'good'
p56
I1
tp57
a(I5
I104
F1.0
S'good'
p58
I1
tp59
as(S'iphone'
p60
tp61
(lp62
(I2
I233
F-0.75
S'sick'
p63
I1
tp64
a(I2
I233
F-0.125
S'slow'
p65
I1
tp66
a(I4
I34
F0.875
S'happy'
p67
I1
tp68
a(I5
I99
F-0.375
S'double'
p69
I1
tp70
as(S'google'
p71
tp72
(lp73
(I2
I98
I-100
S'navigation/earth/mapsgoogle'
p74
I4
tp75
a(I5
I143
I0
S'sync'
p76
I4
tp77
as(S'apple'
p78
tp79
(lp80
(I2
I231
F0.5
S'loyal'
p81
I4
tp82
as(S'galaxy'
p83
S'note'
p84
tp85
(lp86
(I5
I35
F0.125
S'first'
p87
I0
tp88
a(I5
I87
F0.25
S'original'
p89
I0
tp90
a(I7
I62
F0.25
S'original'
p91
I0
tp92
a(I7
I106
F0.25
S'original'
p93
I0
tp94
a(I7
I130
F0.25
S'original'
p95
I0
tp96
a(I5
I87
F0.25
g89
I0
tp97
a(I7
I62
F0.25
g91
I0
tp98
a(I7
I106
F0.25
g93
I0
tp99
a(I7
I130
F0.25
g95
I0
tp100
a(I7
I167
I0
S'unsure'
p101
I0
tp102
as(S'android'
p103
tp104
(lp105
(I0
I19
F1.0
S'best'
p106
I0
tp107
a(I5
I205
F0.5
S'whole'
p108
I0
tp109
as(S'large'
p110
S'screen'
p111
tp112
(lp113
(I1
I4
I0
S'large'
p114
I3
tp115
a(I1
I68
I0
S'large'
p116
I3
tp117
a(I1
I70
I0
S'large'
p118
I3
tp119
a(I1
I78
I0
S'large'
p120
I3
tp121
a(I1
I78
I0
S'great'
p122
I3
tp123
a(I1
I115
I0
S'large'
p124
I3
tp125
a(I2
I175
I0
g13
I3
tp126
a(I2
I255
F0.25
S'larger'
p127
I3
tp128
a(I4
I82
I0
S'large'
p129
I3
tp130
a(I7
I65
I0
S'large'
p131
I3
tp132
a(I7
I101
I0
S'large'
p133
I3
tp134
as(S'physical'
p135
S'buttons'
p136
tp137
(lp138
(I1
I89
I0
S'physical'
p139
I0
tp140
a(I1
I90
I0
S'only'
p141
I0
tp142
a(I1
I90
I0
S'physical'
p143
I0
tp144
a(I6
I10
I0
S'physical'
p145
I0
tp146
a(I6
I12
F-0.25
S'thin'
p147
I0
tp148
a(I6
I12
I0
S'physical'
p149
I0
tp150
a(I1
I53
I0
S'own'
p151
I13
tp152
a(I1
I53
F-0.5
S'separate'
p153
I13
tp154
a(I1
I89
I0
g139
I13
tp155
a(I1
I90
I0
g141
I13
tp156
a(I1
I90
I0
g143
I13
tp157
a(I6
I10
I0
g145
I13
tp158
a(I6
I12
F-0.25
g147
I13
tp159
a(I6
I12
I0
g149
I13
tp160
as(S'contacts'
p161
tp162
(lp163
(I5
I176
F0.5
S'second'
p164
I0
tp165
a(I7
I26
I0
S'email'
p166
I0
tp167
as(S'outlook'
p168
tp169
(lp170
(I5
I155
F0.375
S'new'
p171
I0
tp172
a(I5
I157
F0.375
S'new'
p173
I0
tp174
a(I5
I157
I-100
S'hotmail/outlook'
p175
I0
tp176
as(S'apps'
p177
tp178
(lp179
(I2
I72
F-0.625
S'other'
p180
I0
tp181
a(I2
I229
F-0.625
S'other'
p182
I0
tp183
a(I4
I93
I0
S'few'
p184
I0
tp185
a(I4
I94
F-0.625
S'free'
p186
I0
tp187
as(S'amazon'
p188
tp189
(lp190
(I7
I7
F0.375
S'available'
p191
I13
tp192
a(I8
I4
F-0.625
S'free'
p193
I13
tp194
as(S'processing'
p195
S'power'
p196
tp197
(lp198
(I1
I115
I0
S'great'
p199
I0
tp200
as.