(dp0
(S'seller'
p1
tp2
(lp3
(I4
I8
F0.625
S'aware'
p4
I19
tp5
as(S'customer'
p6
S'service'
p7
tp8
(lp9
(I8
I3
I0
S'great'
p10
I3
tp11
a(I21
I3
F1.0
S'best'
p12
I16
tp13
as(S'signal'
p14
tp15
(lp16
(I5
I20
I0
S'slower'
p17
I1
tp18
a(I5
I31
F0.125
S'enough'
p19
I1
tp20
a(I5
I32
I0
S'current'
p21
I1
tp22
as(S'galaxy'
p23
S'note'
p24
tp25
(lp26
(I5
I0
F0.375
S'new'
p27
I0
tp28
a(I17
I29
F-0.125
S'blackberry'
p29
I0
tp30
a(I5
I0
F0.375
g27
I0
tp31
a(I11
I39
F0.375
S'new'
p32
I0
tp33
as(S'sim'
p34
S'card'
p35
tp36
(lp37
(I5
I48
I0
S'european'
p38
I0
tp39
a(I18
I24
I0
S'european'
p40
I0
tp41
a(I20
I0
F0.375
S'new'
p42
I0
tp43
as(S'samsung'
p44
tp45
(lp46
(I4
I11
F1.0
S'best'
p47
I7
tp48
a(I5
I74
I0
S'official'
p49
I7
tp50
a(I21
I23
F0.25
S'original'
p51
I7
tp52
a(I21
I25
F0.5
S'true'
p53
I7
tp54
as.