(dp0
(S'android'
p1
tp2
(lp3
(I13
I24
I0
S'plastic'
p4
I0
tp5
a(I19
I4
F0.5
S'touch'
p6
I0
tp7
a(I19
I5
F-0.5
S'poor'
p8
I0
tp9
a(I21
I23
F0.125
S'last'
p10
I0
tp11
a(I21
I45
I0
S'faster'
p12
I0
tp13
a(I40
I30
I0
S'more'
p14
I0
tp15
as(S'amazon'
p16
tp17
(lp18
(I6
I0
F0.875
S'happy'
p19
I13
tp20
a(I37
I17
I0
S'great'
p21
I13
tp22
as(S'battery'
p23
S'life'
p24
tp25
(lp26
(I5
I22
I0
S'great'
p27
I1
tp28
a(I13
I2
I0
S'great'
p29
I1
tp30
a(I36
I35
F1.0
S'better'
p31
I1
tp32
a(I40
I8
F-0.5
S'poor'
p33
I1
tp34
a(I5
I22
I0
g27
I19
tp35
a(I21
I54
F-0.5
S'cracked'
p36
I19
tp37
a(I31
I18
F0.625
S'easier'
p38
I19
tp39
a(I13
I2
I0
g29
I15
tp40
a(I13
I24
F0.375
S'extra'
p41
I15
tp42
a(I13
I24
F0.25
S'bigger'
p43
I15
tp44
a(I19
I18
I0
S'fast'
p45
I15
tp46
a(I21
I34
F-0.375
S'top'
p47
I15
tp48
a(I36
I35
F1.0
g31
I15
tp49
a(I40
I8
F-0.5
g33
I15
tp50
as(S'apps'
p51
tp52
(lp53
(I17
I3
F0.375
S'new'
p54
I0
tp55
a(I17
I3
F0.875
S'music'
p56
I0
tp57
a(I21
I35
I0
S'unnecessary'
p58
I0
tp59
a(I21
I39
F-0.625
S'other'
p60
I0
tp61
a(I37
I40
I0
S'many'
p62
I0
tp63
a(I37
I40
I0
S'more'
p64
I0
tp65
a(I37
I40
I0
S'android'
p66
I0
tp67
a(I37
I41
I0
S'most'
p68
I0
tp69
a(I38
I11
I0
S'social'
p70
I0
tp71
a(I39
I22
F0.25
S'larger'
p72
I0
tp73
a(I40
I9
I0
S'few'
p74
I0
tp75
as(S'sim'
p76
S'card'
p77
tp78
(lp79
(I22
I31
F0.125
S'able'
p80
I0
tp81
a(I22
I40
F0.5
S'compatible'
p82
I0
tp83
a(I24
I5
F0.375
S'new'
p84
I0
tp85
a(I43
I1
F0.625
S'easy'
p86
I0
tp87
as(S'plastic'
p88
S'case'
p89
tp90
(lp91
(I11
I2
I0
S'plastic'
p92
I1
tp93
a(I11
I3
I0
S'plastic'
p94
I1
tp95
a(I11
I3
F-0.75
S'likely'
p96
I1
tp97
a(I12
I7
I0
S'plastic'
p98
I1
tp99
a(I21
I59
I0
S'plastic'
p100
I1
tp101
a(I30
I1
I0
S'plastic'
p102
I1
tp103
a(I38
I7
I0
S'plastic'
p104
I1
tp105
a(I43
I10
F-0.625
S'other'
p106
I1
tp107
as(S'isn'
p108
S'8217'
p109
S't'
p110
tp111
(lp112
(I17
I13
F0.25
S'powerful'
p113
I0
tp114
as(S'white'
p115
tp116
(lp117
(I39
I25
I0
S'least'
p118
I9
tp119
as(S'apple'
p120
S'products'
p121
tp122
(lp123
(I3
I11
I0
S'apple'
p124
I0
tp125
a(I3
I11
F0.25
S'original'
p126
I0
tp127
a(I19
I3
F-0.375
S'top'
p128
I0
tp129
a(I21
I56
F0.375
S'much'
p130
I0
tp131
a(I43
I8
F-0.625
S'other'
p132
I0
tp133
a(I19
I3
F-0.375
g128
I4
tp134
a(I21
I20
I0
S'android'
p135
I4
tp136
a(I21
I62
F-0.125
S'future'
p137
I4
tp138
a(I24
I18
I0
S'apple'
p139
I4
tp140
a(I26
I9
F1.0
S'best'
p141
I4
tp142
a(I31
I11
F-0.125
S'overall'
p143
I4
tp144
a(I37
I23
I0
S'more'
p145
I4
tp146
a(I37
I23
I0
S'real'
p147
I4
tp148
a(I37
I29
F-0.5
S'regular'
p149
I4
tp150
a(I40
I32
F0.75
S'worth'
p151
I4
tp152
a(I43
I8
F-0.625
g132
I4
tp153
as(S'bigger'
p154
S'screen'
p155
tp156
(lp157
(I2
I1
F0.25
S'bigger'
p158
I2
tp159
a(I4
I3
F0.5
S'true'
p160
I2
tp161
a(I5
I16
F0.375
S'much'
p162
I2
tp163
a(I19
I20
F0.25
S'bigger'
p164
I2
tp165
a(I39
I14
F0.25
S'bigger'
p166
I2
tp167
a(I39
I14
F1.0
S'better'
p168
I2
tp169
as(S'feels'
p170
tp171
(lp172
(I4
I13
I0
S'material'
p173
I14
tp174
a(I4
I13
F-0.25
S'cheaper'
p175
I14
tp176
a(I14
I6
F1.0
S'good'
p177
I14
tp178
a(I25
I18
I0
S'plastic'
p179
I14
tp180
a(I25
I18
F1.0
S'good'
p181
I14
tp182
as(S'new'
p183
S'iphone'
p184
tp185
(lp186
(I1
I3
F0.875
S'happy'
p187
I0
tp188
a(I1
I3
F0.375
S'new'
p189
I0
tp190
a(I8
I5
F0.375
S'new'
p191
I0
tp192
a(I8
I5
F1.0
S'better'
p193
I0
tp194
a(I11
I21
F0.375
S'new'
p195
I0
tp196
a(I15
I0
F0.375
S'new'
p197
I0
tp198
a(I24
I7
F-0.25
S'ready'
p199
I0
tp200
a(I24
I7
F0.375
S'new'
p201
I0
tp202
a(I31
I10
F0.375
S'new'
p203
I0
tp204
a(I36
I34
I0
S'fast'
p205
I0
tp206
a(I37
I24
F0.75
S'logic'
p207
I0
tp208
a(I45
I2
F0.375
S'new'
p209
I0
tp210
a(I45
I10
F0.125
S'first'
p211
I0
tp212
a(I45
I10
F0.375
S'new'
p213
I0
tp214
a(I1
I3
F0.875
g187
I1
tp215
a(I1
I3
F0.375
g189
I1
tp216
a(I2
I18
F0.75
S'due'
p217
I1
tp218
a(I3
I2
F-0.5
S'less'
p219
I1
tp220
a(I8
I0
F-0.625
S'green'
p221
I1
tp222
a(I8
I5
F0.375
g191
I1
tp223
a(I8
I5
F1.0
g193
I1
tp224
a(I8
I9
F-0.625
S'green'
p225
I1
tp226
a(I8
I16
I0
S'old'
p227
I1
tp228
a(I11
I21
F0.375
g195
I1
tp229
a(I12
I2
F0.125
S'first'
p230
I1
tp231
a(I13
I16
F1.0
S'best'
p232
I1
tp233
a(I15
I0
F0.375
g197
I1
tp234
a(I16
I5
F-0.5
S'longer'
p235
I1
tp236
a(I17
I11
I0
S'sleek'
p237
I1
tp238
a(I17
I11
F0.625
S'easy'
p239
I1
tp240
a(I17
I15
I0
S'same'
p241
I1
tp242
a(I17
I15
F0.375
S'featured'
p243
I1
tp244
a(I19
I35
F-0.5
S'less'
p245
I1
tp246
a(I19
I51
I0
S'next'
p247
I1
tp248
a(I21
I42
I-100
S'5c'
p249
I1
tp250
a(I21
I42
I0
S'same'
p251
I1
tp252
a(I21
I60
F0.25
S'largest'
p253
I1
tp254
a(I21
I60
F-0.5
S'heaviest'
p255
I1
tp256
a(I22
I0
F0.625
S'timid'
p257
I1
tp258
a(I22
I4
F0.875
S'happy'
p259
I1
tp260
a(I22
I6
I0
S'awhile'
p261
I1
tp262
a(I22
I7
F1.0
S'enjoy'
p263
I1
tp264
a(I22
I8
F-0.25
S'white'
p265
I1
tp266
a(I22
I13
F-0.25
S'lower'
p267
I1
tp268
a(I22
I51
F0.125
S'first'
p269
I1
tp270
a(I24
I7
F-0.25
g199
I1
tp271
a(I24
I7
F0.375
g201
I1
tp272
a(I24
I20
F1.0
S'good'
p273
I1
tp274
a(I25
I10
I0
S'identical'
p275
I1
tp276
a(I25
I19
I0
S'real'
p277
I1
tp278
a(I25
I22
I0
S'standard'
p279
I1
tp280
a(I26
I12
I0
S'useful'
p281
I1
tp282
a(I28
I21
F0.375
S'much'
p283
I1
tp284
a(I28
I21
F-0.625
S'other'
p285
I1
tp286
a(I30
I7
I0
S'same'
p287
I1
tp288
a(I31
I10
F0.375
g203
I1
tp289
a(I32
I1
F0.625
S'perfect'
p290
I1
tp291
a(I34
I3
I0
S'great'
p292
I1
tp293
a(I36
I17
F0.5
S'possible'
p294
I1
tp295
a(I36
I34
I0
g205
I1
tp296
a(I37
I24
F0.75
g207
I1
tp297
a(I39
I12
F0.125
S'first'
p298
I1
tp299
a(I39
I38
F0.5
S'rid'
p300
I1
tp301
a(I40
I24
I0
S'fourth'
p302
I1
tp303
a(I41
I2
I0
S'nervous'
p304
I1
tp305
a(I45
I2
F0.375
g209
I1
tp306
a(I45
I10
F0.125
g211
I1
tp307
a(I45
I10
F0.375
g213
I1
tp308
as(S'camera'
p309
tp310
(lp311
(I15
I3
I0
S'phenomenal'
p312
I1
tp313
a(I21
I61
F1.0
S'good'
p314
I1
tp315
a(I25
I10
I0
S'plastic'
p316
I1
tp317
a(I25
I10
F1.0
S'better'
p318
I1
tp319
a(I25
I21
F0.25
S'main'
p320
I1
tp321
a(I31
I5
I0
S'same'
p322
I1
tp323
a(I34
I8
F1.0
S'good'
p324
I1
tp325
as(S'top'
p326
S'of'
p327
S'line'
p328
tp329
(lp330
(I4
I16
F-0.375
S'top'
p331
I0
tp332
as.