(dp0
(S'iphone'
p1
tp2
(lp3
(I14
I18
F0.5
S'upgraded'
p4
I1
tp5
a(I17
I14
F-0.875
S'hard'
p6
I1
tp7
a(I17
I17
I0
S'current'
p8
I1
tp9
as(S'voice'
p10
tp11
(lp12
(I17
I45
F-0.5
S'poor'
p13
I4
tp14
as(S'battery'
p15
S'life'
p16
tp17
(lp18
(I5
I2
F-0.5
S'long'
p19
I1
tp20
a(I7
I3
F0.875
S'music'
p21
I1
tp22
a(I9
I28
F-0.5
S'long'
p23
I1
tp24
a(I9
I31
I0
S'older'
p25
I1
tp26
a(I10
I6
F-0.5
S'poor'
p27
I1
tp28
a(I16
I6
F0.125
S'last'
p29
I1
tp30
a(I20
I72
F0.125
S'spectacular'
p31
I1
tp32
a(I5
I2
F-0.5
g19
I19
tp33
a(I9
I31
I0
g25
I19
tp34
a(I10
I6
F-0.5
g27
I19
tp35
a(I16
I6
F0.125
g29
I19
tp36
a(I6
I6
F0.625
S'easy'
p37
I15
tp38
a(I6
I6
F1.0
S'good'
p39
I15
tp40
a(I6
I6
I0
S'same'
p41
I15
tp42
a(I7
I3
F0.875
g21
I15
tp43
a(I7
I11
F0.125
S'last'
p44
I15
tp45
a(I9
I28
F-0.5
g23
I15
tp46
a(I16
I10
I0
S'great'
p47
I15
tp48
a(I20
I72
F0.125
g31
I15
tp49
a(I20
I76
F0.625
S'removable'
p50
I15
tp51
as(S'apps'
p52
tp53
(lp54
(I14
I32
I0
S'useful'
p55
I0
tp56
a(I16
I56
F0.25
S'favorite'
p57
I0
tp58
a(I20
I16
F0.625
S'easy'
p59
I0
tp60
as(S'tablet'
p61
tp62
(lp63
(I17
I60
F0.125
S'able'
p64
I14
tp65
a(I20
I82
I0
S'more'
p66
I14
tp67
as(S'google'
p68
tp69
(lp70
(I17
I43
F0.125
S'able'
p71
I4
tp72
a(I17
I64
F-0.5
S'open'
p73
I4
tp74
a(I17
I67
I0
S'old'
p75
I4
tp76
as(S'big'
p77
S'screen'
p78
tp79
(lp80
(I9
I10
I0
S'big'
p81
I1
tp82
a(I12
I2
I0
S'big'
p83
I1
tp84
a(I12
I10
F0.75
S'due'
p85
I1
tp86
a(I12
I10
I0
S'big'
p87
I1
tp88
a(I12
I10
I0
S'more'
p89
I1
tp90
a(I14
I27
I0
S'big'
p91
I1
tp92
a(I17
I60
I0
S'big'
p93
I1
tp94
a(I17
I61
I0
S'big'
p95
I1
tp96
a(I17
I114
F0.25
S'bigger'
p97
I1
tp98
a(I17
I115
I0
S'big'
p99
I1
tp100
a(I20
I4
F0.25
S'bigger'
p101
I1
tp102
a(I20
I19
I0
S'large'
p103
I1
tp104
a(I20
I19
F0.25
S'bigger'
p105
I1
tp106
as(S'customer'
p107
S'service'
p108
tp109
(lp110
(I7
I6
F0.25
S'helpful'
p111
I3
tp112
a(I7
I6
F0.25
g111
I16
tp113
as(S'call'
p114
S'quality'
p115
tp116
(lp117
(I1
I2
F1.0
S'good'
p118
I0
tp119
a(I2
I7
F-0.625
S'unbearable'
p120
I0
tp121
a(I3
I7
I0
S'fluid'
p122
I0
tp123
a(I3
I48
I0
S'great'
p124
I0
tp125
a(I14
I8
F-0.5
S'call'
p126
I0
tp127
as(S's'
p128
S'pen'
p129
tp130
(lp131
(I8
I3
F0.625
S'easy'
p132
I0
tp133
a(I16
I52
F-0.125
S'super'
p134
I0
tp135
a(I16
I52
F0.25
S'responsive'
p136
I0
tp137
a(I18
I6
F0.5
S'upgraded'
p138
I0
tp139
a(I20
I17
I0
S'handy'
p140
I0
tp141
as(S'samsung'
p142
tp143
(lp144
(I4
I13
I0
S'specific'
p145
I7
tp146
a(I9
I33
F-0.625
S'other'
p147
I7
tp148
a(I15
I0
F0.375
S'new'
p149
I7
tp150
a(I16
I12
F0.625
S'easy'
p151
I7
tp152
a(I17
I64
I0
S'proprietary'
p153
I7
tp154
a(I20
I1
F0.375
S'new'
p155
I7
tp156
a(I20
I2
F1.0
S'best'
p157
I7
tp158
a(I20
I77
I0
S'standard'
p159
I7
tp160
as(S'amazon'
p161
tp162
(lp163
(I7
I8
F0.5
S'true'
p164
I13
tp165
a(I17
I22
F0.625
S'easiest'
p166
I13
tp167
as(S'sprint'
p168
S'store'
p169
tp170
(lp171
(I14
I30
I0
S'least'
p172
I0
tp173
a(I2
I1
I0
S'signal'
p174
I0
tp175
a(I3
I55
I0
S'great'
p176
I0
tp177
a(I7
I25
F0.375
S'new'
p178
I0
tp179
a(I7
I30
I0
S'many'
p180
I0
tp181
a(I9
I8
I0
S'cool'
p182
I0
tp183
as(S'camera'
p184
tp185
(lp186
(I20
I56
F1.0
S'good'
p187
I1
tp188
as(S'one'
p189
S'hand'
p190
tp191
(lp192
(I9
I32
F-0.625
S'other'
p193
I2
tp194
a(I9
I32
F0.5
S'strong'
p195
I2
tp196
as(S'galaxy'
p197
S'note'
p198
tp199
(lp200
(I17
I51
I0
S'current'
p201
I0
tp202
a(I17
I51
I0
g201
I0
tp203
as.