(dp0
(S'lg'
p1
S'optimus'
p2
tp3
(lp4
(I3
I0
I0
S'signal'
p5
I0
tp6
as(S'android'
p7
tp8
(lp9
(I4
I27
F0.375
S'similar'
p10
I0
tp11
a(I4
I27
F-0.625
S'other'
p12
I0
tp13
a(I4
I29
F1.0
S'best'
p14
I0
tp15
a(I7
I28
F1.0
S'good'
p16
I0
tp17
a(I8
I63
F-0.625
S'other'
p18
I0
tp19
as(S'virgin'
p20
S'mobile'
p21
tp22
(lp23
(I8
I42
F0.5
S'bought'
p24
I0
tp25
a(I8
I42
F0.5
g24
I0
tp26
as(S'battery'
p27
S'life'
p28
tp29
(lp30
(I2
I44
F0.125
S'last'
p31
I1
tp32
a(I2
I44
F-0.5
S'long'
p33
I1
tp34
a(I4
I40
I0
S'faster'
p35
I1
tp36
a(I4
I40
F-0.625
S'lighter'
p37
I1
tp38
a(I4
I40
F0.625
S'easier'
p39
I1
tp40
a(I4
I40
F1.0
S'good'
p41
I1
tp42
a(I7
I19
F-0.75
S'short'
p43
I1
tp44
a(I7
I25
F-0.75
S'short'
p45
I1
tp46
a(I8
I20
F1.0
S'good'
p47
I1
tp48
a(I8
I57
F1.0
S'good'
p49
I1
tp50
a(I9
I131
F-0.75
S'short'
p51
I1
tp52
a(I2
I44
F0.125
g31
I19
tp53
a(I2
I44
F-0.5
g33
I19
tp54
a(I4
I40
F1.0
g41
I19
tp55
a(I8
I20
F1.0
g47
I19
tp56
a(I8
I57
F1.0
g49
I19
tp57
a(I9
I131
F-0.75
g51
I19
tp58
a(I4
I40
I0
g35
I15
tp59
a(I4
I40
F-0.625
g37
I15
tp60
a(I4
I40
F0.625
g39
I15
tp61
a(I7
I19
F-0.75
g43
I15
tp62
a(I7
I25
F-0.75
g45
I15
tp63
a(I9
I16
F-0.75
S'dead'
p64
I15
tp65
a(I9
I16
F0.875
S'happier'
p66
I15
tp67
a(I9
I56
F1.0
S'good'
p68
I15
tp69
a(I9
I166
F-0.75
S'shorter'
p70
I15
tp71
a(I10
I0
I0
S'untouchable'
p72
I15
tp73
as(S'internet'
p74
tp75
(lp76
(I3
I0
F-0.125
S'slow'
p77
I6
tp78
a(I7
I101
F0.125
S'capable'
p79
I6
tp80
as(S'a'
p81
S'great'
p82
S'price'
p83
tp84
(lp85
(I1
I14
I0
S'great'
p86
I9
tp87
a(I7
I101
I0
S'great'
p88
I9
tp89
a(I7
I101
I0
S'great'
p90
I9
tp91
a(I8
I83
I0
S'great'
p92
I9
tp93
a(I8
I105
I0
S'earlier'
p94
I9
tp95
a(I9
I73
F-0.25
S'low'
p96
I9
tp97
a(I9
I73
I0
S'great'
p98
I9
tp99
a(I1
I14
I0
g86
I19
tp100
a(I7
I101
I0
g88
I19
tp101
a(I7
I101
I0
g90
I19
tp102
a(I8
I83
I0
g92
I19
tp103
a(I8
I105
I0
g94
I19
tp104
a(I9
I73
F-0.25
g96
I19
tp105
a(I9
I73
I0
g98
I19
tp106
as(S'text'
p107
tp108
(lp109
(I7
I13
I0
S'e-mail'
p110
I18
tp111
as(S'optimus'
p112
S'v'
p113
tp114
(lp115
(I6
I1
I0
S'old'
p116
I0
tp117
a(I6
I1
I0
g116
I0
tp118
as(S'sound'
p119
tp120
(lp121
(I9
I79
F0.375
S'much'
p122
I7
tp123
a(I9
I169
I0
S'cool'
p124
I7
tp125
as(S'wifi'
p126
tp127
(lp128
(I8
I26
I0
S'great'
p129
I0
tp130
a(I8
I39
F0.375
S'enable'
p131
I0
tp132
a(I8
I53
F-0.375
S'small'
p133
I0
tp134
a(I8
I53
F0.25
S'portable'
p135
I0
tp136
a(I8
I60
F1.0
S'good'
p137
I0
tp138
a(I8
I60
I0
S'signal'
p139
I0
tp140
as(S'apps'
p141
tp142
(lp143
(I2
I26
F0.5
S'clear'
p144
I0
tp145
a(I4
I14
I0
S'great'
p146
I0
tp147
a(I7
I25
F-0.625
S'unpredictable'
p148
I0
tp149
a(I7
I48
I0
S'many'
p150
I0
tp151
a(I8
I34
F0.875
S'nice'
p152
I0
tp153
a(I8
I34
F0.125
S'able'
p154
I0
tp155
a(I8
I34
F-0.375
S'stop'
p156
I0
tp157
a(I9
I22
F0.125
S'able'
p158
I0
tp159
a(I9
I28
F0.125
S'able'
p160
I0
tp161
a(I9
I28
F0.5
S'compatible'
p162
I0
tp163
a(I9
I44
I0
S'many'
p164
I0
tp165
a(I9
I94
I0
S'many'
p166
I0
tp167
a(I9
I99
I0
S'many'
p168
I0
tp169
a(I9
I169
F-0.625
S'bad'
p170
I0
tp171
a(I9
I169
F-0.667
S'incompatible'
p172
I0
tp173
as(S'reboot'
p174
tp175
(lp176
(I10
I6
F-0.75
S'single'
p177
I0
tp178
as(S'camera'
p179
tp180
(lp181
(I2
I16
F-0.5
S'actual'
p182
I1
tp183
a(I4
I21
F-0.875
S'awful'
p184
I1
tp185
a(I6
I8
I0
S'rear'
p186
I1
tp187
a(I6
I8
F0.875
S'important'
p188
I1
tp189
a(I6
I9
I0
S'rear'
p190
I1
tp191
a(I6
I51
F1.0
S'better'
p192
I1
tp193
a(I7
I1
I0
S'great'
p194
I1
tp195
a(I7
I11
F0.25
S'main'
p196
I1
tp197
a(I7
I44
F0.625
S'decent'
p198
I1
tp199
a(I8
I65
F-0.5
S'separate'
p200
I1
tp201
a(I8
I79
I0
S'reviewer'
p202
I1
tp203
a(I8
I79
F-0.625
S'average'
p204
I1
tp205
as(S'zte'
p206
S'awe'
p207
tp208
(lp209
(I4
I34
I0
S'th'
p210
I0
tp211
a(I7
I113
F-0.625
S'other'
p212
I0
tp213
a(I8
I55
F0.625
S'acceptable'
p214
I0
tp215
a(I8
I55
F-0.5
S'sure'
p216
I0
tp217
a(I10
I1
F0.375
S'new'
p218
I0
tp219
a(I10
I1
F1.0
S'better'
p220
I0
tp221
as.