(dp0
(S'screen'
p1
S'size'
p2
tp3
(lp4
(I22
I2
F0.25
S'bigger'
p5
tp6
a(I22
I2
F0.625
S'easy'
p7
tp8
a(I58
I1
F0.25
S'larger'
p9
tp10
a(I106
I1
F1.0
S'love'
p11
tp12
a(I131
I0
F-0.5
S'long'
p13
tp14
a(I152
I5
I0
S'big'
p15
tp16
a(I207
I0
I0
S'great'
p17
tp18
a(I207
I0
I0
S'big'
p19
tp20
as(S'problem'
p21
tp22
(lp23
(I93
I5
I0
S'same'
p24
tp25
a(I123
I8
F0.125
S'first'
p26
tp27
a(I217
I2
I0
S'only'
p28
tp29
as(S'something'
p30
tp31
(lp32
(I95
I1
F0.375
S'new'
p33
tp34
a(I95
I1
I0
S'valuable'
p35
tp36
a(I96
I12
F0.125
S'able'
p37
tp38
a(I142
I7
F0.375
S'new'
p39
tp40
a(I142
I7
I0
S'different'
p41
tp42
a(I165
I2
F0.375
S'new'
p43
tp44
a(I214
I2
F0.375
S'new'
p45
tp46
as(S'perfect'
p47
tp48
(lp49
(I20
I84
I0
S'horizontal'
p50
tp51
as(S'battery'
p52
S'life'
p53
tp54
(lp55
(I5
I6
I0
S'great'
p56
tp57
a(I14
I0
I0
S'great'
p58
tp59
a(I39
I1
F1.0
S'best'
p60
tp61
a(I44
I1
F1.0
S'best'
p62
tp63
a(I45
I2
F1.0
S'good'
p64
tp65
a(I69
I1
I0
S'great'
p66
tp67
a(I81
I0
I0
S'great'
p68
tp69
a(I92
I3
F0.125
S'able'
p70
tp71
a(I94
I1
I0
S'great'
p72
tp73
a(I103
I4
F-0.5
S'longer'
p74
tp75
a(I137
I12
I0
S'great'
p76
tp77
a(I147
I1
F1.0
S'best'
p78
tp79
a(I176
I12
F-0.5
S'longest'
p80
tp81
a(I185
I3
I0
S'gingerbread'
p82
tp83
a(I206
I2
I0
S'great'
p84
tp85
as(S'makes'
p86
tp87
(lp88
(I19
I12
F-0.25
S'google'
p89
tp90
as(S'anything'
p91
tp92
(lp93
(I32
I0
F-0.625
S'other'
p94
tp95
a(I142
I26
F-0.625
S'free'
p96
tp97
a(I156
I6
I0
S'more'
p98
tp99
a(I168
I2
I0
S'big'
p100
tp101
a(I185
I11
F-0.75
S'wrong'
p102
tp103
as(S'with'
p104
S'call'
p105
S'quality'
p106
tp107
(lp108
(I13
I7
F0.5
S'clear'
p109
tp110
a(I13
I7
F1.0
S'better'
p111
tp112
a(I192
I1
F-0.5
S'call'
p113
tp114
a(I192
I11
I0
S'adequate'
p115
tp116
as(S'screen'
p117
tp118
(lp119
(I4
I1
F0.75
S'beautiful'
p120
tp121
a(I17
I0
F0.75
S'beautiful'
p122
tp123
a(I20
I21
F-0.375
S'small'
p124
tp125
a(I20
I47
I0
S'large'
p126
tp127
a(I20
I72
I0
S'large'
p128
tp129
a(I20
I99
F1.0
S'good'
p130
tp131
a(I22
I4
F0.25
S'bigger'
p132
tp133
a(I31
I62
F0.5
S'flat'
p134
tp135
a(I31
I68
I0
S'same'
p136
tp137
a(I33
I3
I0
S'older'
p138
tp139
a(I33
I3
F0.25
S'bigger'
p140
tp141
a(I33
I3
F0.625
S'perfect'
p142
tp143
a(I54
I0
I0
S'large'
p144
tp145
a(I58
I1
F0.25
g9
tp146
a(I62
I6
F0.75
S'beautiful'
p147
tp148
a(I63
I2
F0.875
S'nice'
p149
tp150
a(I63
I2
I0
S'large'
p151
tp152
a(I67
I1
I0
S'large'
p153
tp154
a(I69
I1
F-0.75
S'bright'
p155
tp156
a(I73
I6
F0.5
S'clearer'
p157
tp158
a(I76
I2
I0
S'large'
p159
tp160
a(I78
I8
F-0.5
S'sure'
p161
tp162
a(I78
I8
F0.125
S'typical'
p163
tp164
a(I78
I8
F0.25
S'larger'
p165
tp166
a(I78
I8
I0
S'great'
p167
tp168
a(I90
I0
F0.25
S'bigger'
p169
tp170
a(I90
I0
F0.875
S'happy'
p171
tp172
a(I90
I0
F-0.875
S'hard'
p173
tp174
a(I97
I0
F-0.375
S'smaller'
p175
tp176
a(I102
I13
F-0.375
S'smaller'
p177
tp178
a(I106
I1
F1.0
g11
tp179
a(I112
I0
F0.25
S'sharpest'
p180
tp181
a(I124
I1
I0
S'large'
p182
tp183
a(I124
I2
I0
S'sensitive'
p184
tp185
a(I131
I0
F-0.5
g13
tp186
a(I135
I1
I0
S'great'
p187
tp188
a(I141
I1
I0
S'large'
p189
tp190
a(I141
I1
I0
S'great'
p191
tp192
a(I142
I5
F0.75
S'beautiful'
p193
tp194
a(I142
I7
F0.25
S'bigger'
p195
tp196
a(I142
I14
F-0.75
S'brightest'
p197
tp198
a(I142
I14
F0.5
S'possible'
p199
tp200
a(I152
I5
I0
g15
tp201
a(I156
I5
F0.25
S'dim'
p202
tp203
a(I165
I2
F0.25
S'larger'
p204
tp205
a(I190
I4
I0
S'big'
p206
tp207
a(I190
I6
F-0.75
S'bright'
p208
tp209
a(I193
I7
F0.25
S'stellar'
p210
tp211
a(I207
I0
I0
g17
tp212
a(I207
I0
I0
g19
tp213
as(S'call'
p214
S'quality'
p215
tp216
(lp217
(I13
I4
I0
S'same'
p218
tp219
a(I13
I6
F1.0
S'better'
p220
tp221
a(I13
I7
F0.5
g109
tp222
a(I13
I7
F1.0
g111
tp223
a(I19
I7
I0
S'great'
p224
tp225
a(I23
I2
I0
S'great'
p226
tp227
a(I39
I4
F0.5
S'clear'
p228
tp229
a(I46
I0
F-0.625
S'bad'
p230
tp231
a(I113
I1
F1.0
S'good'
p232
tp233
a(I117
I0
F-0.75
S'impossible'
p234
tp235
a(I189
I6
F-0.5
S'poor'
p236
tp237
a(I190
I1
F-0.5
S'call'
p238
tp239
a(I192
I1
F-0.5
g113
tp240
a(I192
I11
I0
g115
tp241
as(S'service'
p242
tp243
(lp244
(I13
I7
I0
S'sprint'
p245
tp246
a(I19
I25
F1.0
S'best'
p247
tp248
a(I28
I1
F-0.625
S'bad'
p249
tp250
a(I28
I1
F-0.5
S'weak'
p251
tp252
a(I44
I17
I0
S'more'
p253
tp254
a(I57
I2
I0
S'great'
p255
tp256
a(I90
I0
F-0.5
S'miss'
p257
tp258
a(I177
I2
F1.0
S'good'
p259
tp260
a(I192
I15
I0
S'dealt'
p261
tp262
as(S'everything'
p263
tp264
(lp265
(I19
I5
I0
S'great'
p266
tp267
a(I25
I2
F0.625
S'easier'
p268
tp269
a(I28
I5
F-0.375
S'top'
p270
tp271
a(I71
I4
I0
S'quick'
p272
tp273
a(I79
I1
I0
S'great'
p274
tp275
a(I94
I0
I0
S'great'
p276
tp277
a(I96
I3
I0
S'sprint'
p278
tp279
a(I98
I1
I0
S'great'
p280
tp281
a(I121
I1
I0
S'faster'
p282
tp283
a(I212
I1
I0
S'great'
p284
tp285
as(S'problems'
p286
tp287
(lp288
(I3
I23
I0
S'few'
p289
tp290
a(I18
I9
I0
S'few'
p291
tp292
a(I171
I2
I0
S'update'
p293
tp294
a(I185
I1
F-0.625
S'other'
p295
tp296
a(I190
I1
F-0.625
S'other'
p297
tp298
a(I192
I1
I0
S'extensive'
p299
tp300
as(S'samsung'
p301
tp302
(lp303
(I41
I0
F0.125
S'first'
p304
tp305
a(I80
I1
F1.0
S'better'
p306
tp307
a(I89
I20
F-0.625
S'other'
p308
tp309
a(I132
I3
F-0.625
S'other'
p310
tp311
a(I192
I4
I0
S"'tween"
p312
tp313
as(S'voice'
p314
tp315
(lp316
(I156
I16
F-0.25
S'google'
p317
tp318
a(I211
I2
F0.5
S'touch'
p319
tp320
a(I215
I2
I0
S'update'
p321
tp322
as(S'back'
p323
tp324
(lp325
(I205
I1
F1.0
S'good'
p326
tp327
as(S'custom'
p328
S'roms'
p329
tp330
(lp331
(I149
I63
F0.5
S'possible'
p332
tp333
as(S'camera'
p334
tp335
(lp336
(I4
I11
F0.625
S'sexy'
p337
tp338
a(I10
I0
I0
S'wish'
p339
tp340
a(I10
I0
F1.0
S'good'
p341
tp342
a(I18
I7
F1.0
S'good'
p343
tp344
a(I19
I6
F0.25
S'sharp'
p345
tp346
a(I22
I5
I0
S'great'
p347
tp348
a(I39
I0
I0
S'great'
p349
tp350
a(I114
I0
I0
S'great'
p351
tp352
a(I114
I0
F1.0
S'good'
p353
tp354
a(I118
I2
F0.125
S'further'
p355
tp356
a(I118
I2
I0
S'great'
p357
tp358
a(I147
I1
F1.0
S'good'
p359
tp360
a(I156
I31
F1.0
S'best'
p361
tp362
a(I156
I32
F1.0
S'good'
p363
tp364
a(I176
I2
F0.25
S'responsive'
p365
tp366
a(I176
I2
F1.0
S'good'
p367
tp368
a(I176
I3
I0
S'real'
p369
tp370
a(I179
I1
I0
S'great'
p371
tp372
as(S'better'
p373
tp374
(lp375
(I19
I6
F0.375
S'much'
p376
tp377
a(I31
I76
F0.375
S'much'
p378
tp379
a(I73
I16
F0.375
S'much'
p380
tp381
as(S'so'
p382
S'many'
p383
S'features'
p384
tp385
(lp386
(I4
I13
I0
S'many'
p387
tp388
a(I73
I16
I0
S'many'
p389
tp390
a(I142
I4
I0
S'many'
p391
tp392
a(I143
I0
I0
S'many'
p393
tp394
a(I153
I1
I0
S'many'
p395
tp396
a(I159
I1
I0
S'fast'
p397
tp398
a(I159
I1
I0
S'many'
p399
tp400
a(I183
I0
I0
S'many'
p401
tp402
as(S'htc'
p403
S'evo'
p404
tp405
(lp406
(I12
I0
I0
S'old'
p407
tp408
as(S'week'
p409
tp410
(lp411
(I7
I1
I0
S'incredible'
p412
tp413
a(I13
I13
F-0.25
S'past'
p414
tp415
a(I13
I13
I0
S'great'
p416
tp417
a(I34
I1
F-0.125
S'mine'
p418
tp419
a(I141
I3
F0.625
S'perfect'
p420
tp421
a(I142
I8
F0.125
S'first'
p422
tp423
a(I168
I0
F0.125
S'last'
p424
tp425
a(I182
I5
I0
S'next'
p426
tp427
a(I185
I12
F-0.25
S'past'
p428
tp429
a(I185
I14
F-0.25
S'past'
p430
tp431
a(I185
I14
F0.125
S'able'
p432
tp433
as(S'quality'
p434
tp435
(lp436
(I13
I4
I0
g218
tp437
a(I13
I6
F1.0
g220
tp438
a(I13
I7
F0.5
g109
tp439
a(I13
I7
F1.0
g111
tp440
a(I19
I7
I0
g224
tp441
a(I23
I2
I0
g226
tp442
a(I39
I4
F0.5
g228
tp443
a(I44
I4
F1.0
S'better'
p444
tp445
a(I44
I6
F-0.25
S'low'
p446
tp447
a(I45
I3
F0.875
S'nice'
p448
tp449
a(I46
I0
F-0.625
g230
tp450
a(I80
I8
I0
S'high'
p451
tp452
a(I113
I1
F1.0
g232
tp453
a(I117
I0
F-0.75
g234
tp454
a(I156
I34
I0
S'high'
p455
tp456
a(I189
I6
F-0.5
g236
tp457
a(I190
I1
F-0.5
g238
tp458
a(I192
I1
F-0.5
g113
tp459
a(I192
I11
I0
g115
tp460
a(I193
I0
I0
S'large'
p461
tp462
as(S'life'
p463
tp464
(lp465
(I5
I6
I0
g56
tp466
a(I31
I90
I0
S'corporate'
p467
tp468
a(I31
I90
F0.5
S'personal'
p469
tp470
a(I39
I1
F1.0
g60
tp471
a(I44
I1
F1.0
g62
tp472
a(I45
I2
F1.0
g64
tp473
a(I69
I1
I0
g66
tp474
a(I92
I3
F0.125
g70
tp475
a(I116
I1
F0.5
S'personal'
p476
tp477
a(I147
I1
F1.0
g78
tp478
a(I166
I2
F1.0
S'better'
p479
tp480
a(I206
I2
I0
g84
tp481
as(S'right'
p482
tp483
(lp484
(I126
I2
F1.0
S'good'
p485
tp486
a(I149
I30
F0.375
S'upper'
p487
tp488
as(S'galaxy'
p489
tp490
(lp491
(I7
I3
I0
S'old'
p492
tp493
a(I20
I45
F0.25
S'original'
p494
tp495
a(I20
I76
F0.25
S'original'
p496
tp497
a(I20
I94
F0.25
S'original'
p498
tp499
a(I41
I1
F-0.625
S'glad'
p500
tp501
a(I190
I4
F0.875
S'happy'
p502
tp503
a(I190
I9
F0.25
S'original'
p504
tp505
a(I190
I12
I0
S'old'
p506
tp507
a(I204
I11
F0.125
S'native'
p508
tp509
as(S'things'
p510
tp511
(lp512
(I4
I14
I0
S'many'
p513
tp514
a(I8
I2
I0
S'multiple'
p515
tp516
a(I20
I81
I0
S'few'
p517
tp518
a(I44
I3
I0
S'few'
p519
tp520
a(I76
I1
F0.5
S'possible'
p521
tp522
a(I92
I0
F0.125
S'enough'
p523
tp524
a(I92
I0
I0
S'great'
p525
tp526
a(I101
I1
F-0.5
S'sure'
p527
tp528
a(I127
I0
I0
S'many'
p529
tp530
a(I170
I0
I0
S'many'
p531
tp532
a(I170
I0
F0.125
S'capable'
p533
tp534
a(I194
I1
F0.375
S'new'
p535
tp536
a(I207
I0
I0
S'few'
p537
tp538
as(S'action'
p539
S'memo'
p540
tp541
(lp542
(I31
I72
I0
S'most'
p543
tp544
a(I31
I72
F-0.25
S'potential'
p545
tp546
a(I166
I2
F-0.625
S'other'
p547
tp548
as(S'features'
p549
tp550
(lp551
(I2
I1
I0
S'many'
p552
tp553
a(I4
I2
F0.875
S'nice'
p554
tp555
a(I4
I13
I0
g387
tp556
a(I9
I1
I0
S'full'
p557
tp558
a(I9
I1
I0
S'useful'
p559
tp560
a(I19
I19
F-0.25
S'hidden'
p561
tp562
a(I24
I0
I0
S'few'
p563
tp564
a(I24
I0
F0.375
S'new'
p565
tp566
a(I33
I2
I0
S'great'
p567
tp568
a(I33
I5
I0
S'fast'
p569
tp570
a(I36
I0
I0
S'many'
p571
tp572
a(I73
I16
I0
g389
tp573
a(I87
I1
I0
S'great'
p574
tp575
a(I87
I1
I0
S'faster'
p576
tp577
a(I87
I1
F0.125
S'last'
p578
tp579
a(I128
I0
I0
S'useful'
p580
tp581
a(I142
I4
I0
g391
tp582
a(I143
I0
I0
g393
tp583
a(I144
I0
I0
S'great'
p584
tp585
a(I153
I1
I0
g395
tp586
a(I159
I1
I0
g397
tp587
a(I159
I1
I0
g399
tp588
a(I162
I2
F-0.75
S'little'
p589
tp590
a(I174
I2
I0
S'cool'
p591
tp592
a(I174
I2
F0.625
S'easy'
p593
tp594
a(I183
I0
I0
g401
tp595
a(I193
I3
I0
S'needed'
p596
tp597
a(I211
I0
I0
S'many'
p598
tp599
as(S'handwriting'
p600
S'recognition'
p601
tp602
(lp603
(I201
I3
F0.5
S'accurate'
p604
tp605
a(I201
I3
I0
S'english'
p606
tp607
a(I201
I3
I0
S'korean'
p608
tp609
as(S'lg'
p610
S'g2'
p611
tp612
(lp613
(I80
I1
F-0.875
S'awful'
p614
tp615
a(I192
I12
F1.0
S'best'
p616
tp617
as(S'galaxy'
p618
S'note'
p619
tp620
(lp621
(I20
I45
F0.25
g494
tp622
a(I20
I76
F0.25
g496
tp623
a(I20
I94
F0.25
g498
tp624
a(I41
I1
F-0.625
g500
tp625
a(I147
I1
F0.25
S'original'
p626
tp627
a(I204
I11
F0.125
g508
tp628
a(I204
I11
F0.125
S'native'
p629
tp630
as(S'people'
p631
tp632
(lp633
(I20
I52
F-0.375
S'serious'
p634
tp635
a(I20
I52
I0
S'more'
p636
tp637
a(I24
I0
I0
S'big'
p638
tp639
a(I24
I0
I0
S'most'
p640
tp641
a(I97
I0
I0
S'big'
p642
tp643
a(I124
I0
F-0.625
S'other'
p644
tp645
a(I135
I0
I0
S'many'
p646
tp647
a(I149
I20
F-0.625
S'other'
p648
tp649
a(I156
I11
I0
S'most'
p650
tp651
a(I164
I5
I0
S'different'
p652
tp653
a(I189
I7
I0
S'many'
p654
tp655
as(S'feature'
p656
tp657
(lp658
(I19
I4
I0
S'only'
p659
tp660
a(I19
I4
I0
S'specific'
p661
tp662
a(I19
I10
I0
S'great'
p663
tp664
a(I19
I28
I0
S'useful'
p665
tp666
a(I31
I58
I0
S'critical'
p667
tp668
a(I149
I62
F-0.375
S'killer'
p669
tp670
a(I149
I62
F-0.625
S'useless'
p671
tp672
a(I156
I31
F-0.5
S'less'
p673
tp674
a(I156
I31
F-0.5
S'less'
p675
tp676
a(I186
I3
I0
S'android'
p677
tp678
a(I186
I3
F-0.5
S'sure'
p679
tp680
a(I189
I5
I0
S'great'
p681
tp682
as(S'modern'
p683
S'combat'
p684
tp685
(lp686
(I149
I36
F-0.25
S'modern'
p687
tp688
a(I149
I40
F-0.25
S'modern'
p689
tp690
as(S'fast'
p691
tp692
(lp693
(I79
I2
F-0.125
S'super'
p694
tp695
a(I205
I2
F-0.125
S'super'
p696
tp697
as(S'a'
p698
S'long'
p699
S'time'
p700
tp701
(lp702
(I53
I1
F-0.5
S'long'
p703
tp704
a(I57
I2
F-0.5
S'long'
p705
tp706
a(I106
I0
F-0.5
S'long'
p707
tp708
a(I121
I0
F-0.5
S'long'
p709
tp710
as(S'android'
p711
tp712
(lp713
(I18
I1
I0
S'own'
p714
tp715
a(I18
I1
F0.375
S'early'
p716
tp717
a(I73
I2
F0.125
S'first'
p718
tp719
a(I186
I3
I0
S'fourth'
p720
tp721
as(S'user'
p722
tp723
(lp724
(I18
I2
F0.5
S'technical'
p725
tp726
a(I39
I1
F-0.625
S'moderate'
p727
tp728
a(I39
I1
F-0.5
S'heavy'
p729
tp730
a(I188
I1
F-0.5
S'heavy'
p731
tp732
as(S'works'
p733
tp734
(lp735
(I28
I3
I0
S'great'
p736
tp737
a(I36
I0
I0
S'great'
p738
tp739
as(S'sprint'
p740
tp741
(lp742
(I125
I2
F0.375
S'new'
p743
tp744
a(I125
I4
I0
S'many'
p745
tp746
a(I150
I0
F0.125
S'last'
p747
tp748
a(I217
I3
I0
S'local'
p749
tp750
a(I217
I5
I0
S'local'
p751
tp752
as(S'display'
p753
tp754
(lp755
(I7
I2
I0
S'large'
p756
tp757
a(I7
I2
F0.5
S'clear'
p758
tp759
a(I7
I2
F-0.75
S'bright'
p760
tp761
a(I73
I14
F-0.75
S'bright'
p762
tp763
a(I123
I3
I0
S'large'
p764
tp765
a(I123
I3
I0
S'more'
p766
tp767
a(I165
I5
F0.75
S'beautiful'
p768
tp769
a(I194
I3
I0
S'great'
p770
tp771
a(I195
I3
F0.625
S'easier'
p772
tp773
as(S'battery'
p774
tp775
(lp776
(I4
I6
F0.375
S'extended'
p777
tp778
a(I5
I8
F0.125
S'last'
p779
tp780
a(I5
I9
I0
S'most'
p781
tp782
a(I14
I0
I0
g58
tp783
a(I19
I1
F1.0
S'best'
p784
tp785
a(I31
I51
F1.0
S'good'
p786
tp787
a(I31
I76
F0.625
S'removable'
p788
tp789
a(I31
I77
F-0.5
S'weak'
p790
tp791
a(I31
I91
F0.25
S'powerful'
p792
tp793
a(I31
I91
F0.625
S'removable'
p794
tp795
a(I35
I0
F1.0
S'good'
p796
tp797
a(I38
I5
I0
S'fast'
p798
tp799
a(I73
I14
F0.625
S'removable'
p800
tp801
a(I73
I18
F0.625
S'removable'
p802
tp803
a(I79
I5
I0
S'quick'
p804
tp805
a(I81
I0
I0
g68
tp806
a(I94
I1
I0
g72
tp807
a(I103
I4
F-0.5
g74
tp808
a(I133
I1
F0.125
S'last'
p809
tp810
a(I137
I12
I0
g76
tp811
a(I142
I11
F1.0
S'better'
p812
tp813
a(I142
I13
F-0.25
S'low'
p814
tp815
a(I148
I0
F0.375
S'extended'
p816
tp817
a(I165
I10
F-0.75
S'dead'
p818
tp819
a(I176
I12
F-0.5
g80
tp820
a(I185
I3
I0
g82
tp821
a(I193
I16
F0.375
S'much'
p822
tp823
as(S'software'
p824
tp825
(lp826
(I20
I35
I0
S'useful'
p827
tp828
a(I20
I45
I0
S'useful'
p829
tp830
a(I20
I45
I0
S'more'
p831
tp832
a(I20
I45
F0.5
S'functional'
p833
tp834
a(I20
I75
F1.0
S'best'
p835
tp836
a(I31
I59
I0
S'many'
p837
tp838
a(I39
I3
I0
S'pen'
p839
tp840
a(I66
I3
F0.375
S'new'
p841
tp842
as(S'dropped'
p843
S'calls'
p844
tp845
(lp846
(I83
I1
I0
S'signal'
p847
tp848
a(I182
I1
F-0.25
S'dropped'
p849
tp850
as(S'samsung'
p851
S'galaxy'
p852
tp853
(lp854
(I204
I11
F0.125
g508
tp855
as(S'note'
p856
tp857
(lp858
(I3
I20
F1.0
S'best'
p859
tp860
a(I13
I2
F0.375
S'much'
p861
tp862
a(I13
I13
F0.375
S'new'
p863
tp864
a(I18
I10
I0
S'more'
p865
tp866
a(I18
I10
F0.125
S'practical'
p867
tp868
a(I18
I10
I0
S'valuable'
p869
tp870
a(I20
I48
I0
S'more'
p871
tp872
a(I20
I48
F0.375
S'significant'
p873
tp874
a(I20
I93
F0.875
S'happy'
p875
tp876
a(I20
I93
F0.25
S'powerful'
p877
tp878
a(I20
I93
F0.5
S'functional'
p879
tp880
a(I31
I22
I0
S'earlier'
p881
tp882
a(I31
I59
F-0.375
S'replete'
p883
tp884
a(I31
I88
I0
S'close'
p885
tp886
a(I39
I2
I0
S'different'
p887
tp888
a(I44
I13
F-0.125
S'overall'
p889
tp890
a(I71
I1
F1.0
S'best'
p891
tp892
a(I73
I15
F0.375
S'new'
p893
tp894
a(I95
I0
F1.0
S'better'
p895
tp896
a(I95
I5
I0
S'big'
p897
tp898
a(I95
I5
F-0.125
S'complicated'
p899
tp900
a(I95
I5
I0
S'user'
p901
tp902
a(I100
I0
F-0.625
S'glad'
p903
tp904
a(I100
I2
I0
S'exclusive'
p905
tp906
a(I100
I2
I0
S'useful'
p907
tp908
a(I137
I0
F0.125
S'first'
p909
tp910
a(I142
I6
F-0.5
S'long'
p911
tp912
a(I147
I1
F0.25
g626
tp913
a(I172
I0
I0
S'great'
p914
tp915
a(I192
I4
F0.375
S'new'
p916
tp917
a(I192
I4
F-0.5
S'less'
p918
tp919
a(I192
I12
F-0.125
S'overall'
p920
tp921
a(I193
I12
F0.125
S'first'
p922
tp923
a(I204
I6
F0.375
S'new'
p924
tp925
a(I204
I8
F0.5
S'compatible'
p926
tp927
a(I204
I11
F0.125
g629
tp928
as(S'calls'
p929
tp930
(lp931
(I11
I1
F0.5
S'clearer'
p932
tp933
a(I17
I0
F0.5
S'clear'
p934
tp935
a(I31
I84
I0
S'few'
p936
tp937
a(I38
I4
F1.0
S'better'
p938
tp939
a(I39
I5
F0.75
S'receive'
p940
tp941
a(I80
I7
F0.5
S'clear'
p942
tp943
a(I83
I1
I0
g847
tp944
a(I167
I1
F-0.625
S'other'
p945
tp946
a(I167
I1
I0
S'un'
p947
tp948
a(I167
I1
F0.625
S'acceptable'
p949
tp950
a(I182
I1
F-0.25
g849
tp951
a(I182
I4
F0.125
S'able'
p952
tp953
as(S'thing'
p954
tp955
(lp956
(I4
I12
F1.0
S'good'
p957
tp958
a(I19
I30
F0.875
S'nice'
p959
tp960
a(I19
I30
F0.75
S'precise'
p961
tp962
a(I35
I0
F0.5
S'second'
p963
tp964
a(I121
I2
F1.0
S'best'
p965
tp966
a(I137
I12
I0
S'great'
p967
tp968
a(I142
I24
F1.0
S'good'
p969
tp970
a(I142
I24
F0.75
S'worth'
p971
tp972
a(I142
I24
F0.125
S'last'
p973
tp974
a(I149
I65
F-0.625
S'other'
p975
tp976
a(I156
I43
F-0.125
S'overall'
p977
tp978
a(I163
I0
F-0.75
S'wrong'
p979
tp980
a(I170
I0
F1.0
S'best'
p981
tp982
a(I185
I7
I0
S'only'
p983
tp984
a(I193
I16
F0.25
S'biggest'
p985
tp986
a(I195
I0
F0.125
S'first'
p987
tp988
as(S'many'
p989
S'features'
p990
tp991
(lp992
(I2
I1
I0
g552
tp993
a(I4
I13
I0
g387
tp994
a(I36
I0
I0
g571
tp995
a(I73
I16
I0
g389
tp996
a(I142
I4
I0
g391
tp997
a(I143
I0
I0
g393
tp998
a(I153
I1
I0
g395
tp999
a(I159
I1
I0
g397
tp1000
a(I159
I1
I0
g399
tp1001
a(I183
I0
I0
g401
tp1002
a(I211
I0
I0
g598
tp1003
as(S'update'
p1004
tp1005
(lp1006
(I32
I1
F0.375
S'new'
p1007
tp1008
a(I149
I6
F-0.5
S'certain'
p1009
tp1010
a(I164
I0
I0
S'latest'
p1011
tp1012
a(I176
I13
F-0.625
S'bad'
p1013
tp1014
a(I196
I1
F-0.25
S'google'
p1015
tp1016
a(I196
I1
I0
S'latest'
p1017
tp1018
as(S'device'
p1019
tp1020
(lp1021
(I3
I6
F1.0
S'best'
p1022
tp1023
a(I20
I93
F0.125
S'first'
p1024
tp1025
a(I31
I58
F0.25
S'powerful'
p1026
tp1027
a(I31
I62
I0
S'different'
p1028
tp1029
a(I31
I86
I0
S'full'
p1030
tp1031
a(I31
I86
F-0.25
S'potential'
p1032
tp1033
a(I38
I5
I0
S'android'
p1034
tp1035
a(I69
I0
I0
S'big'
p1036
tp1037
a(I69
I0
F-0.75
S'difficult'
p1038
tp1039
a(I89
I8
I0
S'more'
p1040
tp1041
a(I89
I8
I0
S'more'
p1042
tp1043
a(I101
I2
F0.25
S'portable'
p1044
tp1045
a(I101
I2
I0
S'large'
p1046
tp1047
a(I113
I0
F1.0
S'sensational'
p1048
tp1049
a(I113
I5
F-0.5
S'sure'
p1050
tp1051
a(I126
I0
F0.25
S'portable'
p1052
tp1053
a(I149
I1
I0
S'own'
p1054
tp1055
a(I163
I0
I0
S'mobile'
p1056
tp1057
a(I197
I1
F0.625
S'correct'
p1058
tp1059
a(I213
I10
F0.375
S'newest'
p1060
tp1061
as(S'signal'
p1062
S'strength'
p1063
tp1064
(lp1065
(I204
I2
I0
S'signal'
p1066
tp1067
a(I204
I2
F-0.5
S'weak'
p1068
tp1069
as(S'sd'
p1070
S'card'
p1071
tp1072
(lp1073
(I20
I33
I0
S'sd'
p1074
tp1075
a(I147
I1
F0.375
S'extra'
p1076
tp1077
a(I149
I68
I0
S'external'
p1078
tp1079
as(S'micro'
p1080
S'usb'
p1081
tp1082
(lp1083
(I31
I46
F-0.667
S'incompatible'
p1084
tp1085
a(I31
I46
F-0.5
S'regular'
p1086
tp1087
a(I31
I47
F-0.875
S'fear'
p1088
tp1089
a(I31
I47
I0
S'standard'
p1090
tp1091
a(I31
I77
I0
S'standard'
p1092
tp1093
as(S'call'
p1094
tp1095
(lp1096
(I64
I1
F0.75
S'constant'
p1097
tp1098
a(I127
I1
I0
S'more'
p1099
tp1100
a(I192
I16
I0
S'quick'
p1101
tp1102
a(I192
I16
F0.5
S'clear'
p1103
tp1104
as(S'hand'
p1105
tp1106
(lp1107
(I55
I3
I0
S'big'
p1108
tp1109
a(I142
I3
F0.125
S'first'
p1110
tp1111
a(I149
I10
F0.125
S'able'
p1112
tp1113
a(I203
I2
I0
S'large'
p1114
tp1115
a(I206
I1
I0
S'big'
p1116
tp1117
as(S'takes'
p1118
S'great'
p1119
S'pictures'
p1120
tp1121
(lp1122
(I38
I1
I0
S'great'
p1123
tp1124
a(I54
I0
I0
S'great'
p1125
tp1126
a(I135
I1
I0
S'great'
p1127
tp1128
a(I159
I2
I0
S'great'
p1129
tp1130
as(S'price'
p1131
tp1132
(lp1133
(I17
I0
I0
S'great'
p1134
tp1135
a(I31
I26
I0
S'retail'
p1136
tp1137
a(I43
I2
F0.125
S'able'
p1138
tp1139
a(I80
I4
I0
S'full'
p1140
tp1141
a(I135
I5
I0
S'great'
p1142
tp1143
a(I137
I7
F0.875
S'important'
p1144
tp1145
a(I137
I9
F-0.25
S'lower'
p1146
tp1147
a(I160
I2
F1.0
S'best'
p1148
tp1149
a(I160
I2
F0.375
S'available'
p1150
tp1151
a(I166
I2
F1.0
S'best'
p1152
tp1153
as(S'time'
p1154
tp1155
(lp1156
(I31
I68
I0
S'same'
p1157
tp1158
a(I39
I0
I0
S'real'
p1159
tp1160
a(I53
I1
F-0.5
g703
tp1161
a(I57
I2
F-0.5
g705
tp1162
a(I92
I2
I0
S'same'
p1163
tp1164
a(I106
I0
F-0.5
g707
tp1165
a(I121
I0
F-0.5
g709
tp1166
a(I149
I71
I0
S'more'
p1167
tp1168
a(I186
I3
F0.125
S'first'
p1169
tp1170
as(S'make'
p1171
tp1172
(lp1173
(I20
I48
I0
S'android'
p1174
tp1175
as(S'card'
p1176
tp1177
(lp1178
(I20
I33
I0
g1074
tp1179
a(I147
I1
F0.375
g1076
tp1180
as(S'love'
p1181
tp1182
(lp1183
(I25
I0
F1.0
S'love'
p1184
tp1185
a(I208
I0
I0
S'great'
p1186
tp1187
as(S'size'
p1188
tp1189
(lp1190
(I8
I1
F-0.375
S'smaller'
p1191
tp1192
a(I22
I2
F0.25
g5
tp1193
a(I22
I2
F0.625
g7
tp1194
a(I47
I2
I0
S'large'
p1195
tp1196
a(I75
I1
I0
S'great'
p1197
tp1198
a(I78
I10
I0
S'outweigh'
p1199
tp1200
a(I94
I1
F0.25
S'larger'
p1201
tp1202
a(I101
I3
F0.25
S'larger'
p1203
tp1204
a(I102
I2
F0.25
S'larger'
p1205
tp1206
a(I193
I17
F0.25
S'larger'
p1207
tp1208
a(I203
I4
F0.25
S'larger'
p1209
tp1210
a(I205
I0
F1.0
S'good'
p1211
tp1212
as(S'review'
p1213
tp1214
(lp1215
(I8
I1
F-0.625
S'bad'
p1216
tp1217
a(I19
I7
F-0.875
S'negative'
p1218
tp1219
a(I19
I7
I0
S'sprint'
p1220
tp1221
a(I19
I7
I0
S'patched'
p1222
tp1223
a(I31
I0
F0.5
S'technical'
p1224
tp1225
a(I73
I0
F-0.5
S'longest'
p1226
tp1227
a(I78
I0
F0.5
S'accurate'
p1228
tp1229
a(I125
I6
I0
S'latest'
p1230
tp1231
a(I142
I0
I0
S'extensive'
p1232
tp1233
a(I149
I71
F0.625
S'add'
p1234
tp1235
a(I149
I71
I0
S'update'
p1236
tp1237
as(S'great'
p1238
S'battery'
p1239
S'life'
p1240
tp1241
(lp1242
(I5
I6
I0
g56
tp1243
a(I14
I0
I0
g58
tp1244
a(I69
I1
I0
g66
tp1245
a(I81
I0
I0
g68
tp1246
a(I94
I1
I0
g72
tp1247
a(I137
I12
I0
g76
tp1248
a(I206
I2
I0
g84
tp1249
as(S'apps'
p1250
tp1251
(lp1252
(I19
I16
I0
S'stable'
p1253
tp1254
a(I19
I16
I0
S'close'
p1255
tp1256
a(I55
I6
F-0.375
S'slightest'
p1257
tp1258
a(I100
I2
I0
S'pen'
p1259
tp1260
a(I137
I5
F-0.625
S'other'
p1261
tp1262
a(I149
I66
F-0.625
S'other'
p1263
tp1264
a(I156
I16
I0
S'useful'
p1265
tp1266
a(I156
I16
F-0.25
S'google'
p1267
tp1268
a(I156
I27
I0
S'most'
p1269
tp1270
a(I156
I27
I0
S'useful'
p1271
tp1272
as(S'lasts'
p1273
S'all'
p1274
S'day'
p1275
tp1276
(lp1277
(I20
I47
F-0.625
S'moderate'
p1278
tp1279
a(I173
I2
I0
S'fast'
p1280
tp1281
as(S'power'
p1282
tp1283
(lp1284
(I149
I36
F0.375
S'enable'
p1285
tp1286
as(S'every'
p1287
tp1288
(lp1289
(I80
I4
F0.75
S'worth'
p1290
tp1291
as(S'proximity'
p1292
S'sensor'
p1293
tp1294
(lp1295
(I19
I20
F0.625
S'magnetic'
p1296
tp1297
a(I19
I20
F-0.625
S'light'
p1298
tp1299
as(S'quad'
p1300
S'core'
p1301
tp1302
(lp1303
(I19
I14
I0
S'great'
p1304
tp1305
as.