(dp0
(S'optical'
p1
S'image'
p2
S'stabilization'
p3
tp4
(lp5
(I5
I103
I0
S'optical'
p6
I0
tp7
a(I10
I22
I0
S'optical'
p8
I0
tp9
a(I15
I7
I0
S'optical'
p10
I0
tp11
a(I15
I20
I0
S'optical'
p12
I0
tp13
a(I5
I103
I0
g6
I0
tp14
a(I10
I22
I0
g8
I0
tp15
a(I15
I7
I0
g10
I0
tp16
a(I15
I20
I0
g12
I0
tp17
a(I5
I103
I0
g6
I0
tp18
a(I10
I22
I0
g8
I0
tp19
a(I15
I7
I0
g10
I0
tp20
a(I15
I20
I0
g12
I0
tp21
as(S'battery'
p22
S'life'
p23
tp24
(lp25
(I1
I5
I0
S'great'
p26
I1
tp27
a(I3
I91
I0
S'phenomenal'
p28
I1
tp29
a(I5
I75
I0
S'great'
p30
I1
tp31
a(I8
I70
F0.125
S'last'
p32
I1
tp33
a(I10
I2
F-0.5
S'longest'
p34
I1
tp35
a(I10
I73
F-0.5
S'longest'
p36
I1
tp37
a(I10
I260
F-0.5
S'long'
p38
I1
tp39
a(I10
I272
F-0.625
S'lighter'
p40
I1
tp41
a(I10
I272
F-0.5
S'longer'
p42
I1
tp43
a(I11
I0
F-0.5
S'long'
p44
I1
tp45
a(I11
I2
I0
S'incredible'
p46
I1
tp47
a(I11
I2
F0.25
S'powerful'
p48
I1
tp49
a(I12
I2
F-0.25
S'battery'
p50
I1
tp51
a(I13
I25
I0
S'great'
p52
I1
tp53
a(I16
I3
F1.0
S'good'
p54
I1
tp55
a(I17
I14
F-0.5
S'longest'
p56
I1
tp57
a(I17
I172
I0
S'great'
p58
I1
tp59
a(I17
I184
I0
S'great'
p60
I1
tp61
a(I17
I271
I0
S'least'
p62
I1
tp63
a(I17
I271
F0.5
S'reasonable'
p64
I1
tp65
a(I19
I74
F0.125
S'first'
p66
I1
tp67
a(I19
I98
I0
S'incredible'
p68
I1
tp69
a(I20
I4
F-0.25
S'battery'
p70
I1
tp71
a(I8
I40
F0.625
S'easy'
p72
I19
tp73
a(I8
I70
F0.125
g32
I19
tp74
a(I10
I2
F-0.5
g34
I19
tp75
a(I10
I73
F-0.5
g36
I19
tp76
a(I11
I0
F-0.5
g44
I19
tp77
a(I11
I2
F0.25
g48
I19
tp78
a(I12
I2
F-0.25
g50
I19
tp79
a(I13
I25
I0
g52
I19
tp80
a(I17
I184
I0
g60
I19
tp81
a(I17
I271
I0
g62
I19
tp82
a(I19
I98
I0
g68
I19
tp83
a(I20
I4
F-0.25
g70
I19
tp84
as(S'power'
p85
S'button'
p86
tp87
(lp88
(I0
I4
F0.625
S'convenient'
p89
I0
tp90
a(I10
I26
I0
S'rear'
p91
I0
tp92
a(I10
I26
F-0.625
S'natural'
p93
I0
tp94
a(I15
I63
F-0.875
S'harder'
p95
I0
tp96
a(I17
I22
I0
S'more'
p97
I0
tp98
a(I17
I22
F-0.5
S'long'
p99
I0
tp100
a(I17
I22
F0.5
S'flat'
p101
I0
tp102
a(I17
I22
F-0.375
S'top'
p103
I0
tp104
a(I0
I4
F0.625
g89
I19
tp105
a(I1
I6
I0
S'rear'
p106
I19
tp107
a(I9
I4
I0
S'close'
p108
I19
tp109
a(I9
I4
I0
S'closing'
p110
I19
tp111
a(I10
I26
F-0.625
g93
I19
tp112
a(I10
I27
F0.125
S'first'
p113
I19
tp114
a(I10
I154
I0
S'next'
p115
I19
tp116
a(I17
I22
F-0.375
g103
I19
tp117
a(I17
I141
I0
S'large'
p118
I19
tp119
a(I17
I141
F-0.25
S'thin'
p120
I19
tp121
as(S'removable'
p122
S'battery'
p123
tp124
(lp125
(I2
I2
I0
S'own'
p126
I0
tp127
a(I10
I260
F-0.5
g38
I0
tp128
a(I15
I29
F0.625
S'removable'
p129
I0
tp130
a(I15
I31
F0.625
S'removable'
p131
I0
tp132
a(I17
I233
F0.625
S'removable'
p133
I0
tp134
a(I20
I20
F0.625
S'removable'
p135
I0
tp136
a(I20
I116
F0.625
S'removable'
p137
I0
tp138
a(I1
I5
I0
g26
I15
tp139
a(I2
I2
I0
g126
I15
tp140
a(I3
I19
F1.0
S'good'
p141
I15
tp142
a(I3
I38
I0
S'large'
p143
I15
tp144
a(I3
I91
I0
g28
I15
tp145
a(I3
I97
I0
S'more'
p146
I15
tp147
a(I5
I75
I0
g30
I15
tp148
a(I6
I5
I0
S'different'
p149
I15
tp150
a(I6
I8
F-0.5
S'long'
p151
I15
tp152
a(I8
I5
F0.375
S'newer'
p153
I15
tp154
a(I8
I38
I0
S'quick'
p155
I15
tp156
a(I10
I45
F-0.5
S'separate'
p157
I15
tp158
a(I10
I46
F-0.375
S'top'
p159
I15
tp160
a(I10
I260
F-0.5
g38
I15
tp161
a(I10
I272
F-0.625
g40
I15
tp162
a(I10
I272
F-0.5
g42
I15
tp163
a(I11
I2
I0
g46
I15
tp164
a(I15
I29
F0.625
g129
I15
tp165
a(I15
I31
F0.625
g131
I15
tp166
a(I15
I88
F0.25
S'bigger'
p167
I15
tp168
a(I16
I3
F1.0
g54
I15
tp169
a(I17
I14
F-0.5
g56
I15
tp170
a(I17
I172
I0
g58
I15
tp171
a(I17
I188
F0.375
S'extended'
p172
I15
tp173
a(I17
I233
F0.625
g133
I15
tp174
a(I17
I262
F-0.375
S'beast'
p175
I15
tp176
a(I17
I265
F-0.5
S'heavy'
p177
I15
tp178
a(I17
I271
F0.5
g64
I15
tp179
a(I18
I22
F-0.75
S'bright'
p180
I15
tp181
a(I18
I22
F-0.625
S'light'
p182
I15
tp183
a(I18
I31
I0
S'big'
p184
I15
tp185
a(I18
I31
F-0.875
S'negative'
p186
I15
tp187
a(I18
I31
I0
S'own'
p188
I15
tp189
a(I18
I31
I0
S'later'
p190
I15
tp191
a(I19
I74
F0.125
g66
I15
tp192
a(I20
I20
F0.625
g135
I15
tp193
a(I20
I49
F-0.75
S'impossible'
p194
I15
tp195
a(I20
I52
F0.125
S'last'
p196
I15
tp197
a(I20
I57
F-0.625
S'bad'
p198
I15
tp199
a(I20
I57
I0
S'such'
p200
I15
tp201
a(I20
I57
I0
S'big'
p202
I15
tp203
a(I20
I116
F0.625
g137
I15
tp204
as(S'2'
p205
S'days'
p206
tp207
(lp208
(I10
I3
I0
S'full'
p209
I3
tp210
a(I10
I74
I0
S'full'
p211
I3
tp212
a(I10
I262
I0
S'more'
p213
I3
tp214
as(S'screen'
p215
S'burn'
p216
tp217
(lp218
(I10
I104
F-0.375
S'unacceptable'
p219
I0
tp220
a(I10
I109
F-0.375
S'top'
p221
I0
tp222
a(I10
I265
F-0.75
S'little'
p223
I0
tp224
as(S'camera'
p225
tp226
(lp227
(I3
I29
F1.0
S'better'
p228
I1
tp229
a(I3
I43
F1.0
S'best'
p230
I1
tp231
a(I4
I9
F0.25
S'familiar'
p232
I1
tp233
a(I5
I102
F1.0
S'best'
p234
I1
tp235
a(I10
I260
F1.0
S'good'
p236
I1
tp237
a(I15
I7
I0
S'physical'
p238
I1
tp239
a(I16
I4
F-0.5
S'open'
p240
I1
tp241
a(I17
I50
F1.0
S'best'
p242
I1
tp243
a(I17
I58
F-0.25
S'low'
p244
I1
tp245
a(I17
I195
F1.0
S'best'
p246
I1
tp247
a(I17
I220
F0.625
S'decent'
p248
I1
tp249
a(I19
I31
F1.0
S'good'
p250
I1
tp251
a(I19
I57
F-0.375
S'crazy'
p252
I1
tp253
a(I19
I57
F1.0
S'good'
p254
I1
tp255
as(S'home'
p256
S'screen'
p257
tp258
(lp259
(I9
I4
F-0.375
S'top'
p260
I0
tp261
a(I9
I4
I0
S'more'
p262
I0
tp263
as(S'iphone'
p264
tp265
(lp266
(I8
I0
I0
S'old'
p267
I1
tp268
a(I13
I22
F0.25
S'original'
p269
I1
tp270
a(I13
I27
F1.0
S'good'
p271
I1
tp272
a(I17
I4
F0.25
S'original'
p273
I1
tp274
a(I17
I48
F0.375
S'louder'
p275
I1
tp276
a(I17
I48
F0.375
S'loud'
p277
I1
tp278
a(I17
I241
F-0.375
S'small'
p279
I1
tp280
a(I19
I71
F0.125
S'last'
p281
I1
tp282
as(S'memory'
p283
tp284
(lp285
(I8
I56
I0
S'more'
p286
I5
tp287
a(I17
I214
I0
S'internal'
p288
I5
tp289
a(I17
I236
I0
S'internal'
p290
I5
tp291
a(I18
I32
I0
S'more'
p292
I5
tp293
a(I18
I32
I0
S'external'
p294
I5
tp295
a(I19
I60
F1.0
S'good'
p296
I5
tp297
as(S'apple'
p298
tp299
(lp300
(I5
I137
F-0.25
S'white'
p301
I4
tp302
as(S'galaxy'
p303
S'note'
p304
tp305
(lp306
(I14
I2
F-0.25
S'cheaper'
p307
I0
tp308
as(S'internal'
p309
S'storage'
p310
tp311
(lp312
(I15
I23
I0
S'internal'
p313
I0
tp314
a(I15
I30
I0
S'internal'
p315
I0
tp316
a(I15
I30
I0
S'ample'
p317
I0
tp318
a(I20
I12
I0
S'internal'
p319
I0
tp320
as(S'android'
p321
tp322
(lp323
(I3
I10
F-0.75
S'tough'
p324
I0
tp325
a(I8
I57
I0
S'most'
p326
I0
tp327
a(I13
I34
I0
S'specific'
p328
I0
tp329
a(I13
I34
F-0.75
S'likely'
p330
I0
tp331
a(I13
I34
I0
S'specific'
p332
I0
tp333
a(I15
I43
I0
S'most'
p334
I0
tp335
a(I15
I49
F-0.5
S'less'
p336
I0
tp337
a(I15
I79
F-0.5
S'regular'
p338
I0
tp339
a(I17
I116
I0
S'mobile'
p340
I0
tp341
a(I17
I166
F0.125
S'first'
p342
I0
tp343
a(I19
I81
F0.125
S'first'
p344
I0
tp345
as(S'battery'
p346
S'drain'
p347
tp348
(lp349
(I8
I73
F-0.25
S'battery'
p350
I0
tp351
a(I10
I45
F-0.5
g157
I0
tp352
a(I10
I46
F-0.375
g159
I0
tp353
a(I17
I265
F-0.5
g177
I0
tp354
a(I20
I49
F-0.75
g194
I0
tp355
as(S'galaxy'
p356
S's4'
p357
tp358
(lp359
(I10
I264
F0.375
S'much'
p360
I0
tp361
a(I17
I80
I0
S'great'
p362
I0
tp363
as(S'web'
p364
S'browsing'
p365
tp366
(lp367
(I11
I4
F0.625
S'easy'
p368
I0
tp369
as(S'big'
p370
S'screen'
p371
tp372
(lp373
(I1
I5
I0
S'big'
p374
I1
tp375
a(I3
I68
F-0.25
S'thin'
p376
I1
tp377
a(I3
I68
I0
S'big'
p378
I1
tp379
a(I8
I83
I0
S'big'
p380
I1
tp381
a(I16
I4
I0
S'big'
p382
I1
tp383
a(I17
I80
F0.25
S'bigger'
p384
I1
tp385
a(I17
I204
F0.25
S'bigger'
p386
I1
tp387
a(I17
I269
I0
S'big'
p388
I1
tp389
a(I20
I99
F0.25
S'biggest'
p390
I1
tp391
a(I20
I99
F0.5
S'possible'
p392
I1
tp393
as(S'samsung'
p394
S'galaxy'
p395
tp396
(lp397
(I10
I264
F0.375
g360
I0
tp398
a(I20
I101
F-0.375
S'smaller'
p399
I0
tp400
a(I3
I47
F0.375
S'felt'
p401
I7
tp402
a(I15
I70
F0.5
S'obvious'
p403
I7
tp404
a(I15
I72
I0
S'least'
p405
I7
tp406
a(I18
I28
F0.125
S'popular'
p407
I7
tp408
a(I19
I37
F0.375
S'similar'
p409
I7
tp410
a(I19
I65
F0.125
S'last'
p411
I7
tp412
a(I20
I101
F-0.375
g399
I7
tp413
a(I10
I264
F0.375
g360
I0
tp414
a(I14
I2
F-0.25
g307
I0
tp415
a(I15
I14
I0
S'faster'
p416
I0
tp417
as(S'next'
p418
S'browswer'
p419
tp420
(lp421
(I10
I112
I0
S'next'
p422
I0
tp423
a(I10
I255
I0
S'next'
p424
I0
tp425
as(S'point'
p426
S'and'
p427
S'shoot'
p428
tp429
(lp430
(I20
I10
F1.0
S'good'
p431
I0
tp432
a(I20
I10
F-0.5
S'regular'
p433
I0
tp434
a(I20
I69
F-0.5
S'regular'
p435
I0
tp436
a(I20
I70
F-0.5
S'regular'
p437
I0
tp438
as(S'much'
p439
S'better'
p440
tp441
(lp442
(I2
I6
F0.375
S'much'
p443
I9
tp444
a(I5
I27
F0.375
S'much'
p445
I9
tp446
a(I5
I83
F0.375
S'much'
p447
I9
tp448
a(I13
I27
F0.375
S'much'
p449
I9
tp450
a(I13
I30
F0.375
S'much'
p451
I9
tp452
as(S'status'
p453
S'bar'
p454
tp455
(lp456
(I10
I100
F0.875
S'nice'
p457
I0
tp458
as(S'takes'
p459
tp460
(lp461
(I11
I4
I0
S'phenomenal'
p462
I19
tp463
as(S'customer'
p464
S'service'
p465
tp466
(lp467
(I17
I97
F1.0
S'better'
p468
I3
tp469
as(S'volume'
p470
tp471
(lp472
(I17
I78
F0.625
S'easy'
p473
I6
tp474
as(S'wifi'
p475
tp476
(lp477
(I10
I61
I0
S'particular'
p478
I0
tp479
a(I17
I189
I0
S'close'
p480
I0
tp481
a(I17
I204
F0.5
S'strong'
p482
I0
tp483
a(I18
I3
F0.125
S'outside'
p484
I0
tp485
as(S'videos'
p486
tp487
(lp488
(I17
I77
F0.625
S'easy'
p489
I8
tp490
a(I20
I61
I0
S'great'
p491
I8
tp492
a(I20
I76
F-0.5
S'less'
p493
I8
tp494
as(S'double'
p495
S'tap'
p496
tp497
(lp498
(I2
I1
F-0.375
S'double'
p499
I0
tp500
a(I2
I1
F-0.375
S'double'
p501
I0
tp502
a(I5
I94
F-0.375
S'double'
p503
I0
tp504
a(I8
I12
F-0.375
S'double'
p505
I0
tp506
a(I8
I39
F-0.375
S'double'
p507
I0
tp508
a(I8
I62
F-0.375
S'double'
p509
I0
tp510
a(I9
I4
F-0.375
S'double'
p511
I0
tp512
a(I9
I29
F-0.375
S'double'
p513
I0
tp514
a(I13
I8
F-0.375
S'double'
p515
I0
tp516
a(I13
I9
F-0.375
S'double'
p517
I0
tp518
a(I13
I9
F-0.375
S'double'
p519
I0
tp520
a(I13
I32
F-0.375
S'double'
p521
I0
tp522
a(I14
I18
F-0.375
S'double'
p523
I0
tp524
a(I16
I4
F-0.375
S'double'
p525
I0
tp526
a(I17
I21
F-0.375
S'double'
p527
I0
tp528
a(I17
I25
F-0.375
S'double'
p529
I0
tp530
as(S'apps'
p531
tp532
(lp533
(I3
I27
I0
S'useful'
p534
I0
tp535
a(I3
I27
F-0.375
S'near'
p536
I0
tp537
a(I3
I27
F-0.125
S'future'
p538
I0
tp539
a(I9
I4
I0
S'relevant'
p540
I0
tp541
a(I10
I24
I0
S'useful'
p542
I0
tp543
a(I13
I36
I0
S'useful'
p544
I0
tp545
a(I13
I36
F-0.625
S'other'
p546
I0
tp547
a(I15
I95
F-0.625
S'glad'
p548
I0
tp549
a(I17
I150
I0
S'most'
p550
I0
tp551
a(I18
I21
I0
S'many'
p552
I0
tp553
a(I18
I26
F-0.5
S'open'
p554
I0
tp555
a(I20
I82
F0.875
S'music'
p556
I0
tp557
a(I20
I165
F0.625
S'easy'
p558
I0
tp559
as(S'knock'
p560
S'knock'
p561
tp562
(lp563
(I13
I1
F-0.375
S'double'
p564
I0
tp565
a(I13
I1
F-0.375
g564
I3
tp566
as(S'buttons'
p567
S'on'
p568
S'back'
p569
tp570
(lp571
(I4
I10
F1.0
S'better'
p572
I0
tp573
a(I4
I10
I0
S'different'
p574
I0
tp575
a(I20
I14
I0
S'great'
p576
I0
tp577
a(I4
I10
F1.0
g572
I0
tp578
a(I4
I10
I0
g574
I0
tp579
a(I20
I14
I0
g576
I0
tp580
a(I3
I52
F0.25
S'used'
p581
I13
tp582
a(I3
I52
I0
S'physical'
p583
I13
tp584
a(I5
I83
F0.875
S'nice'
p585
I13
tp586
a(I10
I161
F-0.625
S'bad'
p587
I13
tp588
a(I13
I13
I-100
S'screen/glass'
p589
I13
tp590
a(I15
I43
I0
S'capacitive'
p591
I13
tp592
as.