(dp0
(S'operating'
p1
S'system'
p2
tp3
(lp4
(I3
I35
I0
S'mobile'
p5
I2
tp6
a(I3
I39
F0.125
S'solid'
p7
I2
tp8
a(I3
I46
I0
S'latest'
p9
I2
tp10
as(S'android'
p11
tp12
(lp13
(I0
I45
I0
S'oh'
p14
I0
tp15
a(I0
I45
F-0.375
S'butcher'
p16
I0
tp17
a(I1
I9
I0
S'most'
p18
I0
tp19
a(I3
I31
I0
S'more'
p20
I0
tp21
a(I3
I45
F-0.375
S'avoid'
p22
I0
tp23
a(I5
I33
F0.5
S'true'
p24
I0
tp25
as(S'battery'
p26
S'life'
p27
tp28
(lp29
(I3
I6
I0
S'great'
p30
I1
tp31
a(I3
I39
I0
S'great'
p32
I1
tp33
a(I5
I0
I0
S'great'
p34
I1
tp35
a(I5
I17
I0
S'great'
p36
I1
tp37
a(I10
I2
F-0.5
S'insane'
p38
I1
tp39
a(I10
I9
I0
S'fast'
p40
I1
tp41
a(I10
I9
F0.375
S'reliable'
p42
I1
tp43
a(I13
I13
F0.125
S'impressive'
p44
I1
tp45
a(I5
I17
I0
g36
I19
tp46
a(I10
I2
F-0.5
g38
I19
tp47
a(I10
I9
I0
g40
I19
tp48
a(I10
I9
F0.375
g42
I19
tp49
a(I13
I12
F0.625
S'easier'
p50
I19
tp51
a(I13
I13
F0.125
g44
I19
tp52
a(I0
I25
F0.25
S'larger'
p53
I15
tp54
a(I0
I77
F0.25
S'responsive'
p55
I15
tp56
a(I0
I77
F1.0
S'good'
p57
I15
tp58
a(I3
I6
I0
g30
I15
tp59
a(I3
I39
I0
g32
I15
tp60
a(I5
I0
I0
g34
I15
tp61
a(I6
I3
I0
S'fast'
p62
I15
tp63
a(I6
I3
F1.0
S'good'
p64
I15
tp65
a(I8
I9
I0
S'great'
p66
I15
tp67
a(I10
I52
F-0.625
S'other'
p68
I15
tp69
as(S'lg'
p70
S'g2'
p71
tp72
(lp73
(I0
I72
F-0.75
S'wrong'
p74
I0
tp75
as(S'buttons'
p76
S'on'
p77
S'back'
p78
tp79
(lp80
(I0
I77
I0
S'real'
p81
I0
tp82
a(I0
I77
I0
S'switch'
p83
I0
tp84
a(I0
I77
I0
S'only'
p85
I0
tp86
a(I0
I77
I0
g81
I13
tp87
a(I0
I77
I0
g85
I13
tp88
as(S'apps'
p89
tp90
(lp91
(I1
I10
F-0.75
S'impossible'
p92
I0
tp93
a(I1
I10
F-0.125
S'alternative'
p94
I0
tp95
a(I3
I43
F0.5
S'whole'
p96
I0
tp97
a(I3
I43
I0
S'latest'
p98
I0
tp99
a(I3
I43
I0
S'most'
p100
I0
tp101
a(I3
I43
F0.625
S'major'
p102
I0
tp103
a(I3
I43
F0.375
S'available'
p104
I0
tp105
a(I3
I49
I0
S'latest'
p106
I0
tp107
a(I3
I57
F1.0
S'good'
p108
I0
tp109
a(I5
I35
F0.25
S'favorite'
p110
I0
tp111
a(I5
I35
F1.0
S'better'
p112
I0
tp113
a(I5
I37
I0
S'many'
p114
I0
tp115
as(S'camera'
p116
tp117
(lp118
(I3
I4
F0.875
S'nice'
p119
I1
tp120
a(I3
I7
I0
S'fast'
p121
I1
tp122
a(I6
I3
F1.0
S'good'
p123
I1
tp124
a(I8
I9
F0.625
S'easy'
p125
I1
tp126
a(I10
I2
I0
S'great'
p127
I1
tp128
as.