(dp0
(S'screen'
p1
S'size'
p2
tp3
(lp4
(I27
I4
F0.625
S'perfect'
p5
tp6
a(I27
I4
F0.25
S'larger'
p7
tp8
a(I31
I5
F-0.375
S'simple'
p9
tp10
a(I61
I3
I0
S'big'
p11
tp12
a(I61
I3
F0.75
S'worth'
p13
tp14
a(I63
I2
I0
S'great'
p15
tp16
a(I69
I0
F0.625
S'perfect'
p17
tp18
a(I103
I1
F-0.375
S'daily'
p19
tp20
a(I103
I1
I0
S'big'
p21
tp22
a(I103
I14
F0.25
S'larger'
p23
tp24
a(I167
I49
F0.25
S'larger'
p25
tp26
a(I195
I1
F0.25
S'larger'
p27
tp28
a(I207
I0
I0
S'large'
p29
tp30
a(I216
I3
F-0.375
S'smaller'
p31
tp32
a(I220
I1
I0
S'large'
p33
tp34
a(I220
I1
I0
S'large'
p35
tp36
as(S'something'
p37
tp38
(lp39
(I16
I13
F-0.375
S'black'
p40
tp41
a(I16
I13
F-0.125
S'slow'
p42
tp43
a(I45
I7
F0.625
S'right'
p44
tp45
a(I87
I3
F0.125
S'memory'
p46
tp47
a(I87
I3
F-0.25
S'intensive'
p48
tp49
a(I170
I63
F-0.5
S'sure'
p50
tp51
a(I182
I23
I0
S'different'
p52
tp53
a(I219
I4
F1.0
S'good'
p54
tp55
as(S'perfect'
p56
tp57
(lp58
(I23
I0
F-0.375
S'near'
p59
tp60
a(I84
I8
F-0.5
S'less'
p61
tp62
a(I182
I3
I0
S'big'
p63
tp64
as(S'comes'
p65
tp66
(lp67
(I192
I2
I0
S'handy'
p68
tp69
a(I226
I11
I0
S'apple'
p70
tp71
as(S'call'
p72
S'quality'
p73
tp74
(lp75
(I7
I1
F-0.5
S'call'
p76
tp77
a(I165
I4
I0
S'great'
p78
tp79
a(I208
I0
F1.0
S'good'
p80
tp81
a(I209
I2
I0
S'great'
p82
tp83
a(I226
I3
F-0.5
S'poor'
p84
tp85
a(I226
I3
F0.125
S'tolerable'
p86
tp87
as(S'operating'
p88
S'system'
p89
tp90
(lp91
(I45
I4
I0
S'great'
p92
tp93
a(I160
I3
I0
S'own'
p94
tp95
as(S'so'
p96
S'many'
p97
S'features'
p98
tp99
(lp100
(I15
I3
I0
S'many'
p101
tp102
a(I23
I17
I0
S'many'
p103
tp104
a(I71
I0
I0
S'many'
p105
tp106
a(I105
I0
I0
S'many'
p107
tp108
a(I139
I1
I0
S'many'
p109
tp110
a(I178
I2
I0
S'many'
p111
tp112
a(I190
I12
I0
S'many'
p113
tp114
a(I207
I0
I0
S'many'
p115
tp116
as(S'quality'
p117
tp118
(lp119
(I7
I1
F-0.5
g76
tp120
a(I35
I0
F0.5
S'second'
p121
tp122
a(I84
I6
F-0.5
S'poor'
p123
tp124
a(I84
I12
F1.0
S'good'
p125
tp126
a(I86
I4
I0
S'great'
p127
tp128
a(I86
I4
I0
S'high'
p129
tp130
a(I105
I5
F1.0
S'good'
p131
tp132
a(I109
I4
F1.0
S'better'
p133
tp134
a(I109
I6
F-0.25
S'low'
p135
tp136
a(I128
I0
F-0.625
S'other'
p137
tp138
a(I128
I0
F1.0
S'good'
p139
tp140
a(I141
I3
I0
S'great'
p141
tp142
a(I141
I3
I0
S'pic'
p143
tp144
a(I163
I6
F0.125
S'spectacular'
p145
tp146
a(I165
I4
I0
g78
tp147
a(I169
I1
I0
S'large'
p148
tp149
a(I190
I9
I0
S'great'
p150
tp151
a(I199
I0
I0
S'large'
p152
tp153
a(I208
I0
F1.0
g80
tp154
a(I226
I3
F0.125
g86
tp155
as(S'apple'
p156
tp157
(lp158
(I75
I0
I0
S'many'
p159
tp160
as(S'every'
p161
S'penny'
p162
tp163
(lp164
(I32
I11
F0.75
S'worth'
p165
tp166
a(I209
I7
F0.75
S'worth'
p167
tp168
as(S'real'
p169
S'estate'
p170
tp171
(lp172
(I8
I1
I0
S'real'
p173
tp174
a(I40
I2
I0
S'real'
p175
tp176
a(I51
I0
I0
S'real'
p177
tp178
a(I216
I5
I0
S'real'
p179
tp180
as(S'stylus'
p181
tp182
(lp183
(I11
I0
I0
S'cool'
p184
tp185
a(I57
I12
I0
S'handy'
p186
tp187
a(I105
I6
F-0.5
S'heavy'
p188
tp189
a(I197
I13
F1.0
S'better'
p190
tp191
a(I197
I13
F-0.625
S'conventional'
p192
tp193
as(S'verizon'
p194
tp195
(lp196
(I28
I4
I0
S'fast'
p197
tp198
a(I68
I0
F0.375
S'new'
p199
tp200
a(I76
I2
F0.5
S'rid'
p201
tp202
a(I84
I0
I0
S'local'
p203
tp204
a(I104
I3
F0.875
S'happier'
p205
tp206
a(I112
I0
I0
S'internet'
p207
tp208
a(I132
I6
F0.875
S'happy'
p209
tp210
a(I182
I20
I0
S'great'
p211
tp212
a(I192
I5
F0.375
S'new'
p213
tp214
as(S'sd'
p215
S'card'
p216
tp217
(lp218
(I31
I7
I0
S'external'
p219
tp220
a(I47
I8
F0.375
S'extra'
p221
tp222
as(S'unlimited'
p223
S'data'
p224
tp225
(lp226
(I27
I3
F-0.5
S'unlimited'
p227
tp228
a(I84
I2
F0.375
S'alive'
p229
tp230
as(S'case'
p231
tp232
(lp233
(I42
I10
I0
S'many'
p234
tp235
a(I170
I67
I0
S'large'
p236
tp237
a(I170
I67
F-0.5
S'heavy'
p238
tp239
a(I170
I67
F0.125
S'protective'
p240
tp241
a(I182
I12
I0
S'more'
p242
tp243
a(I185
I15
F1.0
S'good'
p244
tp245
a(I185
I15
F0.5
S'strong'
p246
tp247
a(I185
I15
I0
S'such'
p248
tp249
as(S'learning'
p250
S'curve'
p251
tp252
(lp253
(I83
I5
F0.5
S'willing'
p254
tp255
a(I170
I41
F0.375
S'steep'
p256
tp257
as(S'razr'
p258
S'maxx'
p259
tp260
(lp261
(I87
I24
F0.375
S'new'
p262
tp263
a(I87
I61
I0
S'meteorite'
p264
tp265
as(S'long'
p266
S'battery'
p267
S'life'
p268
tp269
(lp270
(I114
I1
I0
S'more'
p271
tp272
a(I121
I2
F-0.5
S'long'
p273
tp274
a(I222
I2
F0.625
S'easy'
p275
tp276
as(S'big'
p277
S'screen'
p278
tp279
(lp280
(I16
I3
I0
S'big'
p281
tp282
a(I32
I9
F0.25
S'bigger'
p283
tp284
a(I33
I0
I0
S'big'
p285
tp286
a(I34
I1
F0.875
S'nice'
p287
tp288
a(I34
I1
I0
S'big'
p289
tp290
a(I35
I2
F0.25
S'bigger'
p291
tp292
a(I43
I2
F-0.75
S'bright'
p293
tp294
a(I61
I3
I0
g11
tp295
a(I61
I3
F0.75
g13
tp296
a(I61
I8
F0.25
S'bigger'
p297
tp298
a(I79
I0
I0
S'big'
p299
tp300
a(I103
I1
F-0.375
g19
tp301
a(I114
I1
F0.25
S'bigger'
p302
tp303
a(I116
I2
I0
S'big'
p304
tp305
a(I118
I0
I0
S'big'
p306
tp307
a(I127
I2
I0
S'big'
p308
tp309
a(I134
I1
I0
S'big'
p310
tp311
a(I136
I0
F0.25
S'bigger'
p312
tp313
a(I177
I6
I0
S'big'
p314
tp315
a(I177
I15
F0.625
S'interested'
p316
tp317
a(I177
I15
F0.25
S'bigger'
p318
tp319
as(S'note'
p320
tp321
(lp322
(I1
I0
F1.0
S'better'
p323
tp324
a(I17
I7
F1.0
S'good'
p325
tp326
a(I20
I0
F1.0
S'best'
p327
tp328
a(I23
I13
F0.25
S'original'
p329
tp330
a(I23
I32
F0.125
S'able'
p331
tp332
a(I27
I6
F0.125
S'enough'
p333
tp334
a(I28
I0
I0
S'arrive'
p335
tp336
a(I31
I6
I0
S'full'
p337
tp338
a(I31
I11
I0
S'more'
p339
tp340
a(I31
I11
I0
S'older'
p341
tp342
a(I31
I15
I0
S'same'
p343
tp344
a(I32
I9
F-0.75
S'wrong'
p345
tp346
a(I43
I0
I0
S'more'
p347
tp348
a(I55
I3
F0.75
S'worth'
p349
tp350
a(I58
I1
F0.25
S'original'
p351
tp352
a(I59
I11
F-0.625
S'bad'
p353
tp354
a(I81
I3
F-0.625
S'bad'
p355
tp356
a(I87
I17
F0.125
S'able'
p357
tp358
a(I87
I35
F0.5
S'second'
p359
tp360
a(I98
I0
I0
S'wow'
p361
tp362
a(I103
I1
F0.125
S'first'
p363
tp364
a(I103
I25
F0.625
S'aware'
p365
tp366
a(I103
I26
F0.875
S'happy'
p367
tp368
a(I103
I26
F-0.5
S'sure'
p369
tp370
a(I104
I1
I0
S'sprint'
p371
tp372
a(I109
I13
F-0.125
S'overall'
p373
tp374
a(I117
I0
F-0.625
S'bad'
p375
tp376
a(I117
I0
I0
S'signal'
p377
tp378
a(I128
I8
I0
S'galaxy'
p379
tp380
a(I185
I4
F-0.625
S'glad'
p381
tp382
a(I195
I0
F0.25
S'larger'
p383
tp384
a(I195
I0
I0
S'most'
p385
tp386
a(I197
I7
F-0.625
S'other'
p387
tp388
a(I197
I7
F-0.875
S'negative'
p389
tp390
a(I197
I14
I0
S'most'
p391
tp392
a(I199
I12
F0.125
S'first'
p393
tp394
a(I203
I4
F-0.625
S'light'
p395
tp396
as(S'charge'
p397
tp398
(lp399
(I23
I32
I0
S'full'
p400
tp401
a(I95
I12
I0
S'slower'
p402
tp403
a(I167
I58
I0
S'full'
p404
tp405
a(I167
I65
F-0.5
S'longer'
p406
tp407
a(I210
I2
F-0.5
S'longer'
p408
tp409
a(I210
I2
F0.375
S'standby'
p410
tp411
a(I214
I5
F-0.125
S'minimum'
p412
tp413
a(I219
I14
F0.375
S'much'
p414
tp415
as(S'smartphone'
p416
tp417
(lp418
(I76
I1
F1.0
S'best'
p419
tp420
a(I80
I0
F0.125
S'first'
p421
tp422
a(I158
I0
F1.0
S'best'
p423
tp424
a(I193
I1
F0.125
S'first'
p425
tp426
a(I193
I1
I0
S'large'
p427
tp428
a(I193
I1
F-0.375
S'robust'
p429
tp430
a(I193
I15
F-0.375
S'smaller'
p431
tp432
a(I193
I22
F-0.625
S'other'
p433
tp434
as(S'usb'
p435
S'3'
p436
S'cable'
p437
tp438
(lp439
(I33
I2
F0.25
S'larger'
p440
tp441
a(I33
I2
I0
S'normal'
p442
tp443
a(I33
I3
I0
S'cable'
p444
tp445
a(I95
I10
I0
S'cable'
p446
tp447
a(I95
I13
I0
S'proprietary'
p448
tp449
a(I95
I13
I0
S'cable'
p450
tp451
a(I95
I13
I0
S'same'
p452
tp453
a(I103
I20
F0.375
S'available'
p454
tp455
as(S'customer'
p456
S'service'
p457
tp458
(lp459
(I170
I15
F1.0
S'best'
p460
tp461
a(I216
I8
F1.0
S'good'
p462
tp463
a(I216
I20
F-0.625
S'disgruntled'
p464
tp465
a(I216
I21
F1.0
S'good'
p466
tp467
as(S'great'
p468
S'battery'
p469
S'life'
p470
tp471
(lp472
(I45
I10
I0
S'great'
p473
tp474
a(I92
I2
I0
S'great'
p475
tp476
a(I128
I13
I0
S'great'
p477
tp478
a(I163
I12
I0
S'great'
p479
tp480
a(I172
I1
I0
S'great'
p481
tp482
a(I204
I7
I0
S'great'
p483
tp484
a(I207
I3
I0
S'great'
p485
tp486
a(I224
I13
I0
S'great'
p487
tp488
as(S'fast'
p489
tp490
(lp491
(I112
I0
F0.375
S'blazing'
p492
tp493
a(I174
I4
F-0.125
S'super'
p494
tp495
as(S'problem'
p496
tp497
(lp498
(I1
I1
I0
S'same'
p499
tp500
a(I33
I3
I0
S'same'
p501
tp502
a(I84
I9
I0
S'signal'
p503
tp504
a(I153
I3
F-0.75
S'single'
p505
tp506
a(I167
I42
F-0.625
S'average'
p507
tp508
a(I167
I42
I0
S'male'
p509
tp510
a(I170
I50
F-0.5
S'sure'
p511
tp512
a(I170
I50
I0
S'same'
p513
tp514
a(I179
I1
F-0.75
S'single'
p515
tp516
a(I214
I12
F0.5
S'told'
p517
tp518
as(S'price'
p519
tp520
(lp521
(I27
I8
I0
S'website'
p522
tp523
a(I32
I11
I0
S'full'
p524
tp525
a(I64
I0
I0
S'great'
p526
tp527
a(I68
I0
I0
S'great'
p528
tp529
a(I68
I2
I0
S'same'
p530
tp531
a(I74
I1
F-0.25
S'lowest'
p532
tp533
a(I84
I2
I0
S'full'
p534
tp535
a(I103
I24
I0
S'more'
p536
tp537
a(I103
I24
F0.5
S'reasonable'
p538
tp539
a(I139
I3
I0
S'great'
p540
tp541
a(I153
I0
F1.0
S'better'
p542
tp543
a(I174
I5
I0
S'great'
p544
tp545
as(S'otter'
p546
S'box'
p547
tp548
(lp549
(I185
I13
F-0.375
S'smooth'
p550
tp551
as(S'google'
p552
tp553
(lp554
(I217
I10
I0
S'current'
p555
tp556
as(S'things'
p557
tp558
(lp559
(I6
I1
I0
S'same'
p560
tp561
a(I21
I0
I0
S'only'
p562
tp563
a(I23
I16
I0
S'most'
p564
tp565
a(I23
I26
I0
S'most'
p566
tp567
a(I23
I26
F0.875
S'music'
p568
tp569
a(I23
I34
I0
S'few'
p570
tp571
a(I37
I3
I0
S'many'
p572
tp573
a(I52
I1
I0
S'few'
p574
tp575
a(I54
I0
I0
S'many'
p576
tp577
a(I68
I3
F1.0
S'good'
p578
tp579
a(I83
I4
F-0.375
S'top'
p580
tp581
a(I83
I4
F-0.375
S'disable'
p582
tp583
a(I83
I4
F-0.5
S'regular'
p584
tp585
a(I105
I1
F0.125
S'key'
p586
tp587
a(I109
I3
I0
S'few'
p588
tp589
a(I135
I5
F0.625
S'easier'
p590
tp591
a(I170
I26
I0
S'more'
p592
tp593
a(I170
I51
F0.125
S'first'
p594
tp595
a(I177
I14
I0
S'such'
p596
tp597
a(I203
I0
F0.375
S'new'
p598
tp599
a(I216
I21
F-0.75
S'little'
p600
tp601
a(I216
I21
F-0.75
S'little'
p602
tp603
as(S'features'
p604
tp605
(lp606
(I15
I3
I0
g101
tp607
a(I23
I17
I0
g103
tp608
a(I71
I0
I0
g105
tp609
a(I78
I2
F0.75
S'worth'
p610
tp611
a(I105
I0
I0
g107
tp612
a(I139
I1
I0
g109
tp613
a(I154
I1
I0
S'weird'
p614
tp615
a(I154
I4
I0
S'great'
p616
tp617
a(I167
I13
I0
S'physical'
p618
tp619
a(I167
I36
I0
S'useful'
p620
tp621
a(I178
I2
I0
g111
tp622
a(I180
I0
F0.375
S'new'
p623
tp624
a(I187
I27
F-0.625
S'other'
p625
tp626
a(I190
I12
I0
g113
tp627
a(I197
I15
I0
S'android'
p628
tp629
a(I199
I3
I0
S'needed'
p630
tp631
a(I202
I11
F-0.625
S'other'
p632
tp633
a(I207
I0
I0
g115
tp634
a(I217
I18
I0
S'android'
p635
tp636
a(I217
I19
I0
S'more'
p637
tp638
a(I218
I8
F0.375
S'new'
p639
tp640
as(S'video'
p641
tp642
(lp643
(I23
I26
I0
S'soft'
p644
tp645
a(I132
I5
I0
S'fast'
p646
tp647
a(I224
I7
I0
S'slim'
p648
tp649
as(S'a'
p650
S'long'
p651
S'time'
p652
tp653
(lp654
(I73
I0
F-0.5
S'long'
p655
tp656
a(I101
I1
F-0.375
S'top'
p657
tp658
a(I101
I1
F-0.5
S'long'
p659
tp660
a(I123
I0
F-0.5
S'long'
p661
tp662
a(I135
I4
F-0.5
S'long'
p663
tp664
a(I135
I4
F0.75
S'due'
p665
tp666
a(I167
I70
F-0.5
S'long'
p667
tp668
a(I167
I70
I0
S'more'
p669
tp670
as(S'android'
p671
tp672
(lp673
(I31
I4
I0
S'old'
p674
tp675
a(I45
I5
I0
S'prior'
p676
tp677
a(I96
I5
I0
S'old'
p678
tp679
a(I131
I1
I0
S'standard'
p680
tp681
a(I152
I0
F1.0
S'best'
p682
tp683
a(I163
I11
F0.125
S'able'
p684
tp685
a(I163
I11
I0
S'big'
p686
tp687
a(I187
I24
I0
S'old'
p688
tp689
a(I187
I24
F0.375
S'new'
p690
tp691
as(S'thing'
p692
tp693
(lp694
(I6
I2
I0
S'fast'
p695
tp696
a(I23
I12
I0
S'lag'
p697
tp698
a(I51
I1
F-0.5
S'sure'
p699
tp700
a(I62
I6
I0
S'only'
p701
tp702
a(I75
I1
F1.0
S'good'
p703
tp704
a(I87
I65
I0
S'later'
p705
tp706
a(I116
I3
I0
S'only'
p707
tp708
a(I119
I5
I0
S'more'
p709
tp710
a(I163
I11
F0.375
S'no-brainer'
p711
tp712
a(I166
I0
I0
S'pen'
p713
tp714
a(I166
I0
F-0.625
S'quiet'
p715
tp716
a(I167
I21
F1.0
S'better'
p717
tp718
a(I170
I45
I0
S'next'
p719
tp720
a(I183
I0
I0
S'incredible'
p721
tp722
a(I214
I16
I0
S'only'
p723
tp724
a(I217
I23
I0
S'next'
p725
tp726
a(I217
I23
F1.0
S'best'
p727
tp728
as(S'size'
p729
tp730
(lp731
(I15
I1
F0.125
S'first'
p732
tp733
a(I27
I4
F0.625
g5
tp734
a(I27
I4
F0.25
g7
tp735
a(I28
I2
I0
S'fast'
p736
tp737
a(I28
I2
F0.375
S'extra'
p738
tp739
a(I31
I5
F-0.375
g9
tp740
a(I45
I13
I0
S'great'
p741
tp742
a(I63
I2
I0
g15
tp743
a(I69
I0
F0.625
g17
tp744
a(I88
I4
F-0.5
S'regular'
p745
tp746
a(I103
I1
I0
g21
tp747
a(I103
I16
I0
S'great'
p748
tp749
a(I120
I3
I0
S'shear'
p750
tp751
a(I128
I14
F1.0
S'good'
p752
tp753
a(I143
I1
F0.25
S'larger'
p754
tp755
a(I167
I50
I0
S'big'
p756
tp757
a(I167
I50
F0.125
S'able'
p758
tp759
a(I178
I0
F0.125
S'first'
p760
tp761
a(I178
I0
I0
S'big'
p762
tp763
a(I178
I0
F0.625
S'perfect'
p764
tp765
a(I207
I0
I0
g29
tp766
a(I216
I8
F0.5
S'taller'
p767
tp768
a(I216
I8
F-0.625
S'average'
p769
tp770
a(I216
I8
I0
S'large'
p771
tp772
a(I220
I1
I0
g35
tp773
as(S'work'
p774
tp775
(lp776
(I113
I2
F0.625
S'easier'
p777
tp778
as(S'home'
p779
tp780
(lp781
(I87
I54
I0
S'quicker'
p782
tp783
as(S'an'
p784
S'entire'
p785
S'day'
p786
tp787
(lp788
(I87
I41
I0
S'entire'
p789
tp790
a(I103
I13
I0
S'entire'
p791
tp792
a(I120
I6
I0
S'entire'
p793
tp794
a(I167
I51
I0
S'entire'
p795
tp796
as(S'battery'
p797
S'life'
p798
tp799
(lp800
(I45
I10
I0
g473
tp801
a(I51
I0
F1.0
S'good'
p802
tp803
a(I92
I2
I0
g475
tp804
a(I103
I23
F-0.375
S'smaller'
p805
tp806
a(I109
I1
F1.0
S'best'
p807
tp808
a(I114
I1
I0
g271
tp809
a(I121
I2
F-0.5
g273
tp810
a(I128
I13
I0
g477
tp811
a(I144
I2
F1.0
S'good'
p812
tp813
a(I154
I1
I0
S'such'
p814
tp815
a(I163
I12
I0
g479
tp816
a(I165
I6
F1.0
S'best'
p817
tp818
a(I172
I1
I0
g481
tp819
a(I187
I3
F-0.625
S'unreal'
p820
tp821
a(I204
I7
I0
g483
tp822
a(I207
I3
I0
g485
tp823
a(I213
I3
F0.125
S'impressive'
p824
tp825
a(I218
I12
F1.0
S'good'
p826
tp827
a(I222
I2
F0.625
g275
tp828
a(I224
I13
I0
g487
tp829
as(S'happy'
p830
S'with'
p831
S'purchase'
p832
tp833
(lp834
(I37
I4
F0.875
S'happy'
p835
tp836
a(I91
I9
F0.875
S'happy'
p837
tp838
a(I113
I1
F0.875
S'happy'
p839
tp840
a(I213
I4
F0.875
S'happy'
p841
tp842
as(S'comes'
p843
S'n'
p844
S'handy'
p845
tp846
(lp847
(I192
I2
I0
g68
tp848
a(I204
I6
F-0.125
S'super'
p849
tp850
a(I204
I6
F0.625
S'easy'
p851
tp852
as(S'back'
p853
tp854
(lp855
(I23
I35
I0
S'plastic'
p856
tp857
a(I155
I1
I0
S'plastic'
p858
tp859
as(S'with'
p860
S'one'
p861
S'hand'
p862
tp863
(lp864
(I23
I18
F-0.625
S'other'
p865
tp866
as(S'life'
p867
tp868
(lp869
(I45
I6
I0
S'real'
p870
tp871
a(I45
I10
I0
g473
tp872
a(I109
I1
F1.0
g807
tp873
a(I114
I1
I0
g271
tp874
a(I121
I2
F-0.5
g273
tp875
a(I128
I13
I0
g477
tp876
a(I144
I2
F1.0
g812
tp877
a(I165
I6
F1.0
g817
tp878
a(I172
I1
I0
g481
tp879
a(I187
I3
F-0.625
g820
tp880
a(I213
I3
F0.125
g824
tp881
a(I218
I12
F1.0
g826
tp882
a(I222
I2
F0.625
g275
tp883
a(I224
I13
I0
g487
tp884
as(S'galaxy'
p885
S'note'
p886
tp887
(lp888
(I1
I0
F1.0
g323
tp889
a(I28
I0
I0
g335
tp890
a(I47
I1
I0
S'current'
p891
tp892
a(I128
I8
I0
g379
tp893
a(I185
I5
F0.25
S'original'
p894
tp895
a(I217
I3
F-0.375
S'black'
p896
tp897
as(S'have'
p898
S'big'
p899
S'hands'
p900
tp901
(lp902
(I119
I2
I0
S'big'
p903
tp904
a(I167
I8
I0
S'big'
p905
tp906
a(I167
I8
I0
S'general'
p907
tp908
a(I183
I1
I0
S'big'
p909
tp910
a(I214
I2
F0.25
S'bigger'
p911
tp912
a(I219
I4
I0
S'big'
p913
tp914
as(S'user'
p915
tp916
(lp917
(I120
I6
F-0.5
S'heavy'
p918
tp919
a(I165
I9
F-0.625
S'average'
p920
tp921
a(I197
I1
F-0.5
S'heavy'
p922
tp923
as(g844
S'r'
p924
S'pocket'
p925
tp926
(lp927
(I75
I2
F0.75
S'fit'
p928
tp929
a(I167
I54
F-0.625
S'idle'
p930
tp931
a(I173
I0
I0
S'big'
p932
tp933
a(I195
I1
F-0.375
S'smaller'
p934
tp935
a(I228
I6
I0
S'same'
p936
tp937
as(S'hands'
p938
tp939
(lp940
(I61
I2
F-0.375
S'small'
p941
tp942
a(I61
I2
F-0.75
S'difficult'
p943
tp944
a(I103
I26
F0.875
S'worthy'
p945
tp946
a(I119
I2
I0
g903
tp947
a(I120
I5
F-0.25
S'giant'
p948
tp949
a(I167
I8
I0
g905
tp950
a(I167
I8
I0
g907
tp951
a(I167
I43
F0.25
S'larger'
p952
tp953
a(I183
I1
I0
g909
tp954
a(I185
I9
I0
S'large'
p955
tp956
a(I185
I10
F-0.375
S'smaller'
p957
tp958
a(I193
I13
I0
S'big'
p959
tp960
a(I193
I13
I0
S'skinny'
p961
tp962
a(I213
I2
I0
S'large'
p963
tp964
a(I214
I2
F0.25
g911
tp965
a(I219
I4
I0
g913
tp966
a(I224
I8
F1.0
S'better'
p967
tp968
as(S'feel'
p969
tp970
(lp971
(I105
I2
F-0.25
S'thin'
p972
tp973
a(I105
I2
F-0.625
S'light'
p974
tp975
a(I193
I13
F0.875
S'nice'
p976
tp977
as(S'smart'
p978
tp979
(lp980
(I19
I1
F-0.625
S'bad'
p981
tp982
a(I26
I0
F1.0
S'best'
p983
tp984
a(I40
I0
F1.0
S'best'
p985
tp986
a(I43
I1
F-0.375
S'top'
p987
tp988
a(I43
I4
I0
S'real'
p989
tp990
a(I59
I11
I0
S'great'
p991
tp992
a(I79
I0
F0.125
S'first'
p993
tp994
a(I145
I4
F1.0
S'good'
p995
tp996
a(I170
I37
F0.375
S'new'
p997
tp998
a(I170
I37
F0.5
S'whole'
p999
tp1000
a(I197
I14
F0.125
S'first'
p1001
tp1002
a(I207
I0
I0
S'such'
p1003
tp1004
as(S'awesome'
p1005
tp1006
(lp1007
(I179
I2
I0
S'quick'
p1008
tp1009
a(I179
I2
I0
S'such'
p1010
tp1011
a(I222
I2
I0
S'many'
p1012
tp1013
as(S'samsung'
p1014
S'galaxy'
p1015
tp1016
(lp1017
(I96
I1
F0.125
S'first'
p1018
tp1019
a(I135
I0
F0.25
S'used'
p1020
tp1021
a(I217
I0
F0.5
S'second'
p1022
tp1023
as(S'update'
p1024
tp1025
(lp1026
(I22
I1
I0
S'latest'
p1027
tp1028
a(I22
I1
I0
S'android'
p1029
tp1030
a(I36
I0
I0
S'great'
p1031
tp1032
a(I36
I0
I0
S'old'
p1033
tp1034
a(I36
I0
F0.25
S'favorite'
p1035
tp1036
as(S'optimus'
p1037
S'g'
p1038
tp1039
(lp1040
(I217
I27
I0
S'slippery'
p1041
tp1042
as(S'droid'
p1043
S'bionic'
p1044
tp1045
(lp1046
(I27
I2
F-0.5
S'longer'
p1047
tp1048
as(S'time'
p1049
tp1050
(lp1051
(I47
I8
F-0.375
S'serious'
p1052
tp1053
a(I49
I0
F0.5
S'second'
p1054
tp1055
a(I49
I0
F0.125
S'first'
p1056
tp1057
a(I73
I0
F-0.5
g655
tp1058
a(I101
I1
F-0.375
g657
tp1059
a(I101
I1
F-0.5
g659
tp1060
a(I108
I5
I0
S'few'
p1061
tp1062
a(I123
I0
F-0.5
g661
tp1063
a(I135
I4
F-0.5
g663
tp1064
a(I135
I4
F0.75
g665
tp1065
a(I152
I4
I0
S'real'
p1066
tp1067
a(I162
I0
F0.125
S'first'
p1068
tp1069
a(I163
I6
I0
S'same'
p1070
tp1071
a(I164
I4
I0
S'only'
p1072
tp1073
a(I165
I11
F-0.75
S'short'
p1074
tp1075
a(I167
I70
F-0.5
g667
tp1076
a(I167
I70
I0
g669
tp1077
a(I191
I1
F0.25
S'favorite'
p1078
tp1079
a(I197
I14
F-0.5
S'aside'
p1080
tp1081
a(I214
I0
I0
S'summary'
p1082
tp1083
a(I216
I2
I0
S'same'
p1084
tp1085
a(I226
I4
I0
S'inside'
p1086
tp1087
a(I228
I3
I0
S'same'
p1088
tp1089
as(S'pocket'
p1090
tp1091
(lp1092
(I75
I2
F0.75
g928
tp1093
a(I167
I54
F-0.625
g930
tp1094
a(I173
I0
I0
g932
tp1095
a(I195
I1
F-0.375
g934
tp1096
a(I228
I6
I0
g936
tp1097
as(S'samsung'
p1098
S'galaxy'
p1099
S'note'
p1100
tp1101
(lp1102
(I96
I1
F0.125
g1018
tp1103
a(I135
I0
F0.25
g1020
tp1104
as(S'galaxy'
p1105
S'nexus'
p1106
tp1107
(lp1108
(I61
I12
I0
S'different'
p1109
tp1110
a(I95
I0
I0
S'galaxy'
p1111
tp1112
a(I95
I4
I0
S'galaxy'
p1113
tp1114
a(I130
I0
I0
S'old'
p1115
tp1116
a(I154
I1
I0
S'galaxy'
p1117
tp1118
a(I154
I1
I0
S'old'
p1119
tp1120
a(I206
I2
I0
S'old'
p1121
tp1122
a(I206
I2
F1.0
S'good'
p1123
tp1124
a(I228
I11
F-0.25
S'google'
p1125
tp1126
as(S'screen'
p1127
tp1128
(lp1129
(I14
I3
I0
S'large'
p1130
tp1131
a(I16
I3
I0
g281
tp1132
a(I22
I4
F0.875
S'nice'
p1133
tp1134
a(I23
I5
F-0.75
S'brightest'
p1135
tp1136
a(I26
I0
F0.5
S'touch'
p1137
tp1138
a(I32
I9
F0.25
g283
tp1139
a(I33
I0
I0
g285
tp1140
a(I34
I1
F0.875
g287
tp1141
a(I34
I1
I0
g289
tp1142
a(I35
I2
F0.25
g291
tp1143
a(I43
I2
F-0.75
g293
tp1144
a(I45
I12
F0.75
S'beautiful'
p1145
tp1146
a(I45
I12
I0
S'large'
p1147
tp1148
a(I61
I3
I0
g11
tp1149
a(I61
I3
F0.75
g13
tp1150
a(I61
I8
F0.25
g297
tp1151
a(I62
I6
I0
S'large'
p1152
tp1153
a(I72
I0
F0.25
S'larger'
p1154
tp1155
a(I79
I0
I0
g299
tp1156
a(I83
I1
I0
S'large'
p1157
tp1158
a(I87
I18
F0.25
S'larger'
p1159
tp1160
a(I87
I41
I0
S'attached'
p1161
tp1162
a(I87
I53
I0
S'quickest'
p1163
tp1164
a(I95
I6
F1.0
S'better'
p1165
tp1166
a(I97
I7
F1.0
S'good'
p1167
tp1168
a(I98
I1
F-0.375
S'small'
p1169
tp1170
a(I103
I1
F-0.375
g19
tp1171
a(I103
I14
F0.25
g23
tp1172
a(I105
I5
F0.75
S'beautiful'
p1173
tp1174
a(I114
I1
F0.25
g302
tp1175
a(I115
I1
I0
S'large'
p1176
tp1177
a(I116
I2
I0
g304
tp1178
a(I118
I0
I0
g306
tp1179
a(I120
I5
F-0.625
S'other'
p1180
tp1181
a(I122
I4
I0
S'large'
p1182
tp1183
a(I122
I4
I0
S'great'
p1184
tp1185
a(I126
I0
F-0.25
S'past'
p1186
tp1187
a(I127
I2
I0
g308
tp1188
a(I134
I1
I0
g310
tp1189
a(I134
I4
F-0.125
S'opposite'
p1190
tp1191
a(I136
I0
F0.25
g312
tp1192
a(I145
I4
F-0.375
S'smaller'
p1193
tp1194
a(I148
I2
F0.75
S'beautiful'
p1195
tp1196
a(I154
I4
I0
S'current'
p1197
tp1198
a(I154
I4
F-0.625
S'push'
p1199
tp1200
a(I156
I1
I0
S'pen'
p1201
tp1202
a(I156
I2
F0.875
S'gentle'
p1203
tp1204
a(I163
I5
F0.25
S'responsive'
p1205
tp1206
a(I163
I14
F0.625
S'easier'
p1207
tp1208
a(I164
I3
F-0.375
S'smaller'
p1209
tp1210
a(I167
I24
F0.5
S'clear'
p1211
tp1212
a(I167
I49
F0.25
g25
tp1213
a(I167
I51
F0.25
S'larger'
p1214
tp1215
a(I173
I1
F0.25
S'larger'
p1216
tp1217
a(I176
I1
I0
S'fast'
p1218
tp1219
a(I177
I6
I0
g314
tp1220
a(I177
I8
F-0.375
S'small'
p1221
tp1222
a(I177
I15
F0.625
g316
tp1223
a(I177
I15
F0.25
g318
tp1224
a(I185
I13
I0
S'plastic'
p1225
tp1226
a(I190
I3
I0
S'large'
p1227
tp1228
a(I190
I3
F0.5
S'clear'
p1229
tp1230
a(I195
I1
F0.25
g27
tp1231
a(I198
I1
F0.75
S'beautiful'
p1232
tp1233
a(I199
I7
F0.25
S'stellar'
p1234
tp1235
a(I200
I1
F0.25
S'larger'
p1236
tp1237
a(I202
I7
F0.625
S'perfect'
p1238
tp1239
a(I216
I3
F-0.375
g31
tp1240
a(I217
I11
F-0.5
S'oleophobic'
p1241
tp1242
a(I217
I11
F-0.5
S'suspect'
p1243
tp1244
a(I219
I7
I0
S'full'
p1245
tp1246
a(I220
I1
I0
g33
tp1247
a(I226
I1
I0
S'large'
p1248
tp1249
a(I228
I3
I0
S'such'
p1250
tp1251
as(S'thought'
p1252
tp1253
(lp1254
(I170
I10
I0
S'great'
p1255
tp1256
as(S'tablet'
p1257
tp1258
(lp1259
(I94
I2
F-0.375
S'small'
p1260
tp1261
a(I170
I10
F0.875
S'nice'
p1262
tp1263
a(I170
I14
F-0.375
S'small'
p1264
tp1265
a(I228
I11
F-0.5
S'separate'
p1266
tp1267
a(I228
I11
I0
S'such'
p1268
tp1269
as(S'everything'
p1270
tp1271
(lp1272
(I61
I11
F0.625
S'easier'
p1273
tp1274
a(I113
I0
I0
S'more'
p1275
tp1276
a(I132
I1
F-0.875
S'inferior'
p1277
tp1278
a(I132
I2
F-0.375
S'small'
p1279
tp1280
a(I132
I2
F-0.125
S'slow'
p1281
tp1282
as(S'samsung'
p1283
tp1284
(lp1285
(I27
I6
F0.125
S'first'
p1286
tp1287
a(I96
I1
F0.125
g1018
tp1288
a(I135
I0
F0.25
g1020
tp1289
a(I182
I16
F0.875
S'happy'
p1290
tp1291
a(I217
I0
F0.5
g1022
tp1292
a(I221
I3
I0
S'motive'
p1293
tp1294
as(S'camera'
p1295
tp1296
(lp1297
(I47
I13
I0
S'same'
p1298
tp1299
a(I47
I19
F-0.375
S'top'
p1300
tp1301
a(I167
I35
F-0.375
S'crazy'
p1302
tp1303
a(I197
I11
I0
S'large'
p1304
tp1305
a(I212
I5
I0
S'great'
p1306
tp1307
as(S'take'
p1308
tp1309
(lp1310
(I16
I17
F-0.75
S'likely'
p1311
tp1312
as(S'review'
p1313
tp1314
(lp1315
(I74
I0
I0
S'entire'
p1316
tp1317
a(I87
I27
F-0.5
S'actual'
p1318
tp1319
a(I87
I63
I0
S'initial'
p1320
tp1321
a(I140
I0
I0
S'full'
p1322
tp1323
a(I219
I15
F0.5
S'technical'
p1324
tp1325
as(S'going'
p1326
tp1327
(lp1328
(I87
I20
F0.125
S'first'
p1329
tp1330
as(S'galaxy'
p1331
tp1332
(lp1333
(I23
I37
F0.375
S'new'
p1334
tp1335
a(I47
I1
I0
g891
tp1336
a(I61
I12
I0
g1109
tp1337
a(I120
I7
I0
S'old'
p1338
tp1339
a(I130
I0
I0
g1115
tp1340
a(I154
I1
I0
g1119
tp1341
a(I185
I5
F0.25
g894
tp1342
a(I206
I2
I0
g1121
tp1343
a(I217
I3
F-0.375
g896
tp1344
as(S'pictures'
p1345
tp1346
(lp1347
(I16
I11
F0.625
S'decent'
p1348
tp1349
a(I34
I1
I0
S'great'
p1350
tp1351
a(I149
I2
F0.5
S'clear'
p1352
tp1353
a(I167
I38
F0.125
S'meaningful'
p1354
tp1355
a(I190
I6
F0.5
S'clear'
p1356
tp1357
a(I190
I6
I0
S'detailed'
p1358
tp1359
a(I193
I21
F0.625
S'easy'
p1360
tp1361
a(I202
I11
F1.0
S'good'
p1362
tp1363
a(I207
I3
I0
S'great'
p1364
tp1365
as(S'people'
p1366
tp1367
(lp1368
(I42
I9
I0
S'many'
p1369
tp1370
a(I161
I3
I0
S'many'
p1371
tp1372
a(I161
I3
I0
S'big'
p1373
tp1374
a(I190
I14
F-0.625
S'want'
p1375
tp1376
a(I226
I9
I0
S'many'
p1377
tp1378
a(I226
I9
I0
S'same'
p1379
tp1380
as(S'feature'
p1381
tp1382
(lp1383
(I27
I7
I0
S'fast'
p1384
tp1385
a(I83
I2
I0
S'pen'
p1386
tp1387
a(I103
I20
I0
S'exclusive'
p1388
tp1389
a(I167
I6
F0.875
S'nice'
p1390
tp1391
a(I204
I5
F0.875
S'nicest'
p1392
tp1393
a(I207
I1
I0
S'cool'
p1394
tp1395
a(I218
I9
F0.375
S'new'
p1396
tp1397
as(S'battery'
p1398
tp1399
(lp1400
(I22
I2
F0.375
S'much'
p1401
tp1402
a(I33
I3
I0
S'big'
p1403
tp1404
a(I42
I5
F-0.75
S'dead'
p1405
tp1406
a(I42
I5
I0
S'quick'
p1407
tp1408
a(I51
I0
F1.0
g802
tp1409
a(I62
I2
I0
S'large'
p1410
tp1411
a(I62
I5
F-0.25
S'low'
p1412
tp1413
a(I73
I0
F0.125
S'last'
p1414
tp1415
a(I75
I3
F1.0
S'good'
p1416
tp1417
a(I92
I2
I0
g475
tp1418
a(I103
I23
F-0.375
g805
tp1419
a(I116
I2
F0.625
S'replaceable'
p1420
tp1421
a(I122
I4
F0.125
S'last'
p1422
tp1423
a(I128
I14
I0
S'more'
p1424
tp1425
a(I129
I1
F0.375
S'new'
p1426
tp1427
a(I131
I6
F-0.75
S'dead'
p1428
tp1429
a(I133
I1
F0.125
S'last'
p1430
tp1431
a(I136
I1
I0
S'android'
p1432
tp1433
a(I142
I9
F0.625
S'removable'
p1434
tp1435
a(I154
I1
I0
g814
tp1436
a(I163
I12
I0
g479
tp1437
a(I165
I7
F1.0
S'better'
p1438
tp1439
a(I165
I7
F0.375
S'extended'
p1440
tp1441
a(I167
I50
I0
S'big'
p1442
tp1443
a(I187
I5
F0.625
S'removable'
p1444
tp1445
a(I198
I1
F1.0
S'good'
p1446
tp1447
a(I204
I7
I0
g483
tp1448
a(I207
I3
I0
g485
tp1449
a(I219
I11
F0.125
S'last'
p1450
tp1451
as(S'large'
p1452
S'screen'
p1453
tp1454
(lp1455
(I14
I3
I0
g1130
tp1456
a(I45
I12
F0.75
g1145
tp1457
a(I45
I12
I0
g1147
tp1458
a(I62
I6
I0
g1152
tp1459
a(I72
I0
F0.25
g1154
tp1460
a(I83
I1
I0
g1157
tp1461
a(I87
I18
F0.25
g1159
tp1462
a(I103
I14
F0.25
g23
tp1463
a(I115
I1
I0
g1176
tp1464
a(I122
I4
I0
g1182
tp1465
a(I122
I4
I0
g1184
tp1466
a(I164
I3
F-0.375
g1209
tp1467
a(I167
I49
F0.25
g25
tp1468
a(I167
I51
F0.25
g1214
tp1469
a(I173
I1
F0.25
g1216
tp1470
a(I190
I3
I0
g1227
tp1471
a(I190
I3
F0.5
g1229
tp1472
a(I195
I1
F0.25
g27
tp1473
a(I200
I1
F0.25
g1236
tp1474
a(I220
I1
I0
g33
tp1475
a(I226
I1
I0
g1248
tp1476
as(S'better'
p1477
tp1478
(lp1479
(I52
I3
F0.375
S'much'
p1480
tp1481
a(I158
I0
F0.375
S'much'
p1482
tp1483
a(I206
I6
F0.375
S'much'
p1484
tp1485
a(I206
I6
F1.0
S'good'
p1486
tp1487
a(I228
I11
F0.375
S'much'
p1488
tp1489
a(I228
I11
F0.375
S'much'
p1490
tp1491
as(S'screen'
p1492
S'protector'
p1493
tp1494
(lp1495
(I47
I1
F-0.25
S'ready'
p1496
tp1497
a(I156
I1
I0
g1201
tp1498
a(I156
I2
F0.875
g1203
tp1499
a(I185
I13
I0
g1225
tp1500
a(I219
I7
I0
g1245
tp1501
as(S'device'
p1502
tp1503
(lp1504
(I47
I32
I0
S'great'
p1505
tp1506
a(I48
I1
F0.375
S'new'
p1507
tp1508
a(I66
I10
F-0.125
S'mine'
p1509
tp1510
a(I66
I11
F-0.75
S'wrong'
p1511
tp1512
a(I74
I5
I0
S'activate'
p1513
tp1514
a(I87
I2
I0
S'great'
p1515
tp1516
a(I87
I21
F0.375
S'new'
p1517
tp1518
a(I88
I3
F0.25
S'responsive'
p1519
tp1520
a(I103
I26
F0.25
S'powerful'
p1521
tp1522
a(I114
I2
F0.5
S'personal'
p1523
tp1524
a(I126
I0
F0.375
S'new'
p1525
tp1526
a(I132
I3
I0
S'finest'
p1527
tp1528
a(I138
I0
I0
S'fastest'
p1529
tp1530
a(I138
I0
I0
S'mobile'
p1531
tp1532
a(I148
I2
F-0.125
S'overall'
p1533
tp1534
a(I148
I2
F0.25
S'powerful'
p1535
tp1536
a(I159
I2
F0.25
S'favorite'
p1537
tp1538
a(I166
I0
F0.125
S'solid'
p1539
tp1540
a(I186
I3
F0.5
S'desirable'
p1541
tp1542
a(I186
I3
F1.0
S'good'
p1543
tp1544
a(I187
I1
I0
S'large'
p1545
tp1546
a(I190
I5
F1.0
S'best'
p1547
tp1548
a(I190
I5
I0
S'mobile'
p1549
tp1550
a(I191
I1
I0
S'great'
p1551
tp1552
a(I197
I9
F-0.75
S'single'
p1553
tp1554
a(I197
I15
F0.25
S'portable'
p1555
tp1556
a(I217
I26
I0
S'large'
p1557
tp1558
a(I217
I26
F0.625
S'easy'
p1559
tp1560
as(S'text'
p1561
S'messages'
p1562
tp1563
(lp1564
(I87
I37
I0
S'many'
p1565
tp1566
as(S'call'
p1567
tp1568
(lp1569
(I209
I2
I0
g82
tp1570
a(I226
I3
F-0.5
g84
tp1571
as(S'hand'
p1572
tp1573
(lp1574
(I23
I18
F-0.625
g865
tp1575
a(I23
I19
I0
S'more'
p1576
tp1577
a(I32
I8
I0
S'great'
p1578
tp1579
a(I45
I5
F-0.625
S'other'
p1580
tp1581
a(I163
I9
F-0.75
S'comfortable'
p1582
tp1583
a(I168
I1
F-0.75
S'comfortable'
p1584
tp1585
a(I187
I1
I0
S'great'
p1586
tp1587
as(S'away'
p1588
tp1589
(lp1590
(I87
I16
F-0.75
S'blow'
p1591
tp1592
as(S'apps'
p1593
tp1594
(lp1595
(I19
I0
F0.375
S'available'
p1596
tp1597
a(I19
I0
I0
S'such'
p1598
tp1599
a(I23
I0
I0
S'many'
p1600
tp1601
a(I23
I40
F-0.5
S'certain'
p1602
tp1603
a(I63
I4
F-0.5
S'heavy'
p1604
tp1605
a(I91
I5
I0
S'multiple'
p1606
tp1607
a(I119
I7
I0
S'useful'
p1608
tp1609
a(I136
I0
I0
S'general'
p1610
tp1611
a(I154
I6
I0
S'many'
p1612
tp1613
a(I154
I6
I0
S'useful'
p1614
tp1615
a(I154
I8
F-0.5
S'certain'
p1616
tp1617
a(I163
I6
I0
S'active'
p1618
tp1619
a(I163
I6
F-0.5
S'open'
p1620
tp1621
a(I168
I4
I0
S'useful'
p1622
tp1623
a(I182
I20
F-0.5
S'unwanted'
p1624
tp1625
a(I182
I20
F-0.375
S'disable'
p1626
tp1627
a(I185
I11
F0.25
S'favorite'
p1628
tp1629
a(I187
I13
I0
S'different'
p1630
tp1631
a(I187
I22
F-0.625
S'other'
p1632
tp1633
a(I197
I4
I0
S'few'
p1634
tp1635
a(I210
I3
F-0.625
S'other'
p1636
tp1637
a(I210
I3
I0
S'questionable'
p1638
tp1639
a(I214
I16
F-0.375
S'disable'
p1640
tp1641
a(I214
I17
F-0.625
S'other'
p1642
tp1643
a(I217
I23
F-0.25
S'cursive'
p1644
tp1645
a(I217
I23
F-0.375
S'disable'
p1646
tp1647
as(S'days'
p1648
tp1649
(lp1650
(I2
I1
I0
S'few'
p1651
tp1652
a(I15
I1
I0
S'few'
p1653
tp1654
a(I68
I1
I0
S'later'
p1655
tp1656
a(I68
I1
F-0.25
S'cheaper'
p1657
tp1658
a(I74
I4
I0
S'later'
p1659
tp1660
a(I74
I14
F0.125
S'first'
p1661
tp1662
a(I90
I4
I0
S'cable'
p1663
tp1664
a(I107
I0
I0
S'many'
p1665
tp1666
a(I165
I8
I0
S'least'
p1667
tp1668
a(I170
I29
I0
S'few'
p1669
tp1670
a(I170
I29
F0.375
S'extra'
p1671
tp1672
a(I177
I4
F0.125
S'first'
p1673
tp1674
a(I177
I4
I0
S'few'
p1675
tp1676
a(I177
I16
I0
S'few'
p1677
tp1678
a(I182
I13
F-0.25
S'modern'
p1679
tp1680
a(I198
I0
F-0.25
S'past'
p1681
tp1682
as.