(dp0
(S'problem'
p1
tp2
(lp3
(I105
I11
I0
S'same'
p4
tp5
a(I130
I2
F-0.375
S'small'
p6
tp7
a(I135
I1
I0
S'only'
p8
tp9
as(S'something'
p10
tp11
(lp12
(I22
I14
I0
S'different'
p13
tp14
a(I74
I7
I0
S'more'
p15
tp16
a(I74
I7
I0
S'human'
p17
tp18
a(I74
I7
F0.625
S'playful'
p19
tp20
a(I150
I11
I0
S'more'
p21
tp22
as(S'battery'
p23
S'life'
p24
tp25
(lp26
(I19
I9
I0
S'great'
p27
tp28
a(I37
I2
I0
S'great'
p29
tp30
a(I129
I1
F1.0
S'better'
p31
tp32
a(I140
I3
I0
S'real'
p33
tp34
a(I140
I3
F-0.5
S'long'
p35
tp36
a(I155
I3
F-0.5
S'poor'
p37
tp38
as(S'purchase'
p39
tp40
(lp41
(I7
I2
F0.875
S'happy'
p42
tp43
a(I78
I7
F0.125
S'able'
p44
tp45
a(I112
I0
F-0.125
S'overall'
p46
tp47
as(S'white'
p48
tp49
(lp50
(I150
I12
I0
S'least'
p51
tp52
as(S'year'
p53
tp54
(lp55
(I42
I0
I0
S'old'
p56
tp57
a(I78
I5
I0
S'january'
p58
tp59
a(I105
I1
F0.875
S'happy'
p60
tp61
as(S'right'
p62
tp63
(lp64
(I38
I1
F0.25
S'refurbished'
p65
tp66
a(I38
I1
F0.375
S'new'
p67
tp68
a(I119
I1
I0
S'own'
p69
tp70
as(S'sim'
p71
S'card'
p72
tp73
(lp74
(I81
I2
F0.125
S'able'
p75
tp76
a(I83
I3
F0.5
S'compatible'
p77
tp78
a(I87
I5
F0.375
S'new'
p79
tp80
a(I164
I1
F0.625
S'easy'
p81
tp82
as(S'looks'
p83
tp84
(lp85
(I145
I0
F-0.25
S'cheaper'
p86
tp87
a(I145
I0
F0.5
S'stylish'
p88
tp89
as(S'money'
p90
tp91
(lp92
(I8
I1
F-0.5
S'afraid'
p93
tp94
a(I85
I1
F0.75
S'worth'
p95
tp96
a(I97
I0
F0.375
S'extra'
p97
tp98
as(S'screen'
p99
tp100
(lp101
(I3
I1
F0.25
S'bigger'
p102
tp103
a(I16
I1
F0.5
S'true'
p104
tp105
a(I22
I6
F0.5
S'clear'
p106
tp107
a(I22
I6
I0
S'big'
p108
tp109
a(I22
I17
I0
S'most'
p110
tp111
a(I42
I1
F1.0
S'good'
p112
tp113
a(I65
I9
F0.25
S'larger'
p114
tp115
a(I65
I13
F-0.75
S'bright'
p116
tp117
a(I65
I16
F0.25
S'bigger'
p118
tp119
a(I80
I2
F-0.5
S'complaint'
p120
tp121
a(I140
I3
F0.25
S'larger'
p122
tp123
a(I150
I3
F0.25
S'bigger'
p124
tp125
a(I150
I3
F1.0
S'better'
p126
tp127
a(I152
I4
F-0.875
S'hard'
p128
tp129
as(S'apple'
p130
S'products'
p131
tp132
(lp133
(I14
I2
I0
S'apple'
p134
tp135
a(I14
I2
F0.25
S'original'
p136
tp137
a(I28
I6
I0
S'apple'
p138
tp139
a(I65
I1
F-0.375
S'top'
p140
tp141
a(I65
I30
I0
S'apple'
p142
tp143
a(I76
I11
F0.375
S'much'
p144
tp145
a(I166
I3
F-0.625
S'other'
p146
tp147
as(S'everything'
p148
tp149
(lp150
(I22
I4
I0
S'same'
p151
tp152
a(I31
I0
F0.625
S'easy'
p153
tp154
as(S'problems'
p155
tp156
(lp157
(I80
I4
F0.5
S'functional'
p158
tp159
a(I105
I9
F-0.125
S'overall'
p160
tp161
a(I109
I5
F0.5
S'functional'
p162
tp163
a(I111
I2
I0
S'many'
p164
tp165
as(S'back'
p166
tp167
(lp168
(I18
I1
F-0.5
S'sure'
p169
tp170
a(I22
I9
I0
S'plastic'
p171
tp172
a(I111
I3
F-0.625
S'green'
p173
tp174
as(S'n'
p175
S'8217'
p176
S't'
p177
tp178
(lp179
(I58
I3
F0.25
S'powerful'
p180
tp181
as(S'camera'
p182
tp183
(lp184
(I45
I3
I0
S'phenomenal'
p185
tp186
a(I76
I13
F1.0
S'good'
p187
tp188
a(I88
I2
I0
S'great'
p189
tp190
a(I94
I4
I0
S'plastic'
p191
tp192
a(I94
I4
F1.0
S'better'
p193
tp194
a(I94
I12
F0.25
S'main'
p195
tp196
a(I112
I1
I0
S'same'
p197
tp198
a(I120
I2
F1.0
S'good'
p199
tp200
a(I155
I8
I0
S'great'
p201
tp202
as(S'better'
p203
tp204
(lp205
(I74
I14
F0.375
S'much'
p206
tp207
a(I78
I4
I0
S'faster'
p208
tp209
as(S'products'
p210
tp211
(lp212
(I14
I2
I0
g134
tp213
a(I14
I2
F0.25
g136
tp214
a(I28
I6
I0
g138
tp215
a(I65
I30
I0
g142
tp216
a(I76
I11
F0.375
g144
tp217
as(S'apps'
p218
tp219
(lp220
(I55
I3
F0.375
S'new'
p221
tp222
a(I55
I3
F0.875
S'music'
p223
tp224
a(I75
I7
F-0.625
S'other'
p225
tp226
a(I140
I8
I0
S'many'
p227
tp228
a(I140
I8
I0
S'more'
p229
tp230
a(I140
I8
I0
S'android'
p231
tp232
a(I140
I9
I0
S'most'
p233
tp234
a(I145
I2
I0
S'social'
p235
tp236
a(I150
I10
F0.25
S'larger'
p237
tp238
a(I155
I3
I0
S'few'
p239
tp240
as(S'quality'
p241
tp242
(lp243
(I28
I2
F1.0
S'good'
p244
tp245
a(I48
I0
F0.875
S'happy'
p246
tp247
a(I55
I3
F0.625
S'convenient'
p248
tp249
a(I55
I3
F1.0
S'good'
p250
tp251
a(I55
I3
F0.875
S'happy'
p252
tp253
a(I76
I3
I0
S'high'
p254
tp255
a(I82
I0
F1.0
S'good'
p256
tp257
a(I88
I0
F0.625
S'perfect'
p258
tp259
a(I98
I1
F1.0
S'good'
p260
tp261
as(S'product'
p262
tp263
(lp264
(I8
I0
F0.875
S'nice'
p265
tp266
a(I17
I0
F0.875
S'nice'
p267
tp268
a(I22
I5
I0
S'great'
p269
tp270
a(I24
I0
F-0.125
S'overall'
p271
tp272
a(I70
I0
I0
S'great'
p273
tp274
a(I76
I13
F0.375
S'new'
p275
tp276
a(I99
I0
F0.875
S'nice'
p277
tp278
a(I104
I0
F1.0
S'good'
p279
tp280
a(I118
I0
F-0.25
S'ready'
p281
tp282
a(I154
I0
F0.125
S'downside'
p283
tp284
a(I155
I3
I0
S'current'
p285
tp286
a(I170
I1
I0
S'different'
p287
tp288
as(S'plastic'
p289
S'case'
p290
tp291
(lp292
(I28
I1
I0
S'plastic'
p293
tp294
a(I28
I2
I0
S'plastic'
p295
tp296
a(I28
I2
F-0.75
S'likely'
p297
tp298
a(I35
I5
I0
S'plastic'
p299
tp300
a(I48
I0
I0
S'multiple'
p301
tp302
a(I76
I13
I0
S'plastic'
p303
tp304
a(I107
I1
I0
S'plastic'
p305
tp306
a(I145
I0
I0
S'plastic'
p307
tp308
as(S'apple'
p309
tp310
(lp311
(I56
I0
F-0.625
S'green'
p312
tp313
a(I62
I4
F1.0
S'better'
p314
tp315
a(I65
I1
F-0.375
g140
tp316
a(I76
I14
F-0.125
S'future'
p317
tp318
a(I99
I4
F1.0
S'best'
p319
tp320
a(I136
I0
I0
S'real'
p321
tp322
a(I138
I2
F-0.5
S'regular'
p323
tp324
a(I158
I1
F0.75
S'worth'
p325
tp326
a(I166
I3
F-0.625
g146
tp327
as(S'people'
p328
tp329
(lp330
(I22
I14
I0
S'android'
p331
tp332
a(I71
I2
F-0.625
S'sorry'
p333
tp334
a(I105
I18
I0
S'plastic'
p335
tp336
a(I115
I1
I0
S'younger'
p337
tp338
a(I138
I3
F-0.75
S'sad'
p339
tp340
a(I138
I3
F0.375
S'new'
p341
tp342
a(I166
I3
I0
S'plastic'
p343
tp344
as(S'colors'
p345
tp346
(lp347
(I74
I5
F0.75
S'beautiful'
p348
tp349
a(I76
I8
F0.375
S'new'
p350
tp351
a(I105
I18
I0
S'different'
p352
tp353
a(I129
I1
F-0.625
S'green'
p354
tp355
a(I129
I1
I0
S'blue'
p356
tp357
as(S'faster'
p358
tp359
(lp360
(I87
I1
F0.375
S'much'
p361
tp362
a(I112
I5
F-0.375
S'double'
p363
tp364
a(I112
I5
I0
S'fast'
p365
tp366
a(I112
I5
F0.5
S'second'
p367
tp368
as(S'top'
p369
S'of'
p370
S'line'
p371
tp372
(lp373
(I16
I10
F-0.375
S'top'
p374
tp375
as(S'plastic'
p376
tp377
(lp378
(I74
I13
F-0.5
S'complaint'
p379
tp380
a(I74
I13
F0.875
S'important'
p381
tp382
a(I74
I18
I0
S'soft'
p383
tp384
a(I74
I18
F0.625
S'excusable'
p385
tp386
a(I76
I3
I0
S'slippery'
p387
tp388
as(S'android'
p389
tp390
(lp391
(I42
I3
I0
S'plastic'
p392
tp393
a(I65
I3
F-0.5
S'poor'
p394
tp395
a(I74
I12
F0.125
S'last'
p396
tp397
a(I76
I2
I0
S'faster'
p398
tp399
as(S'case'
p400
tp401
(lp402
(I22
I10
I0
S'sturdy'
p403
tp404
a(I28
I1
I0
g293
tp405
a(I28
I2
I0
g295
tp406
a(I28
I2
F-0.75
g297
tp407
a(I35
I5
I0
g299
tp408
a(I48
I0
I0
g301
tp409
a(I76
I10
I0
S'retail'
p410
tp411
a(I76
I10
F0.125
S'protective'
p412
tp413
a(I76
I13
I0
g303
tp414
a(I107
I1
I0
g305
tp415
a(I112
I3
I0
S'unnecessary'
p416
tp417
a(I145
I0
I0
g307
tp418
as(S'works'
p419
tp420
(lp421
(I84
I2
I0
S'great'
p422
tp423
a(I123
I4
I0
S'great'
p424
tp425
a(I132
I1
F0.875
S'nice'
p426
tp427
as(S'excellent'
p428
tp429
(lp430
(I61
I0
F0.375
S'new'
p431
tp432
as(S'color'
p433
tp434
(lp435
(I22
I7
F0.25
S'favorite'
p436
tp437
a(I22
I8
F-0.625
S'green'
p438
tp439
a(I22
I8
F0.25
S'favorite'
p440
tp441
a(I28
I3
F-0.25
S'white'
p442
tp443
a(I40
I0
F0.625
S'easy'
p444
tp445
a(I48
I0
F-0.25
S'white'
p446
tp447
a(I59
I0
F0.875
S'nice'
p448
tp449
a(I59
I0
F-0.5
S'regular'
p450
tp451
a(I82
I3
F1.0
S'good'
p452
tp453
a(I153
I6
I0
S'great'
p454
tp455
a(I153
I6
F-0.375
S'black'
p456
tp457
a(I153
I6
F1.0
S'good'
p458
tp459
a(I155
I13
F-0.75
S'bright'
p460
tp461
a(I167
I1
I0
S'fast'
p462
tp463
as(S'brand'
p464
tp465
(lp466
(I33
I0
F0.375
S'new'
p467
tp468
a(I49
I1
F0.375
S'new'
p469
tp470
a(I88
I0
F0.375
S'new'
p471
tp472
a(I125
I4
F0.75
S'beautiful'
p473
tp474
a(I125
I4
F0.375
S'new'
p475
tp476
a(I125
I4
I0
S'blue'
p477
tp478
as(S'feel'
p479
tp480
(lp481
(I65
I12
F0.125
S'solid'
p482
tp483
a(I74
I2
F-0.25
S'cheaper'
p484
tp485
a(I74
I16
F0.125
S'protective'
p486
tp487
a(I94
I12
F0.25
S'responsive'
p488
tp489
as(S'store'
p490
tp491
(lp492
(I155
I3
F-0.5
S'sure'
p493
tp494
as(S'software'
p495
tp496
(lp497
(I19
I24
I0
S'same'
p498
tp499
a(I76
I10
F1.0
S'best'
p500
tp501
a(I76
I13
F0.875
S'nice'
p502
tp503
a(I105
I9
I0
S'different'
p504
tp505
a(I140
I6
I0
S'full'
p506
tp507
as(S'bigger'
p508
S'screen'
p509
tp510
(lp511
(I3
I1
F0.25
g102
tp512
a(I16
I1
F0.5
g104
tp513
a(I65
I16
F0.25
g118
tp514
a(I150
I3
F0.25
g124
tp515
a(I150
I3
F1.0
g126
tp516
as(S'thing'
p517
tp518
(lp519
(I6
I2
F-0.875
S'awful'
p520
tp521
a(I22
I5
I0
S'next'
p522
tp523
a(I22
I5
I0
S'big'
p524
tp525
a(I35
I4
I0
S'same'
p526
tp527
a(I53
I1
I0
S'same'
p528
tp529
a(I53
I5
I0
S'only'
p530
tp531
a(I53
I5
I0
S'only'
p532
tp533
a(I62
I5
I0
S'weird'
p534
tp535
a(I65
I40
F0.375
S'much'
p536
tp537
a(I65
I40
F0.375
S'new'
p538
tp539
a(I105
I19
F1.0
S'better'
p540
tp541
as(S'cheap'
p542
tp543
(lp544
(I28
I1
F-0.75
S'wrong'
p545
tp546
a(I54
I0
I0
S'plastic'
p547
tp548
a(I76
I3
I0
S'plastic'
p549
tp550
a(I76
I3
I0
S'plastic'
p551
tp552
a(I150
I5
F-0.625
S'light'
p553
tp554
a(I153
I7
I0
S'plastic'
p555
tp556
as(S'device'
p557
tp558
(lp559
(I94
I3
I0
S'android'
p560
tp561
a(I103
I1
I0
S'great'
p562
tp563
a(I157
I2
I0
S'more'
p564
tp565
a(I157
I2
I0
S'android'
p566
tp567
a(I165
I0
F-0.375
S'simple'
p568
tp569
as(S'look'
p570
tp571
(lp572
(I53
I7
F0.125
S'far'
p573
tp574
a(I129
I1
F0.375
S'new'
p575
tp576
as(S'price'
p577
tp578
(lp579
(I19
I16
F-0.25
S'cheaper'
p580
tp581
a(I22
I4
I0
S'fourth'
p582
tp583
a(I73
I2
F0.5
S'reasonable'
p584
tp585
a(I76
I13
I0
S'high'
p586
tp587
a(I98
I2
F1.0
S'good'
p588
tp589
a(I105
I13
I0
S'great'
p590
tp591
a(I105
I14
I0
S'standard'
p592
tp593
a(I112
I0
F0.375
S'similar'
p594
tp595
a(I121
I0
I0
S'same'
p596
tp597
a(I123
I7
I0
S'full'
p598
tp599
a(I141
I0
I0
S'great'
p600
tp601
a(I146
I0
F1.0
S'good'
p602
tp603
a(I168
I0
F0.25
S'original'
p604
tp605
as(S'time'
p606
tp607
(lp608
(I35
I5
F0.5
S'whole'
p609
tp610
a(I65
I5
I0
S'same'
p611
tp612
a(I65
I5
I0
S'same'
p613
tp614
a(I65
I5
I0
S'old'
p615
tp616
a(I65
I5
I0
S'same'
p617
tp618
a(I65
I5
I0
S'old'
p619
tp620
a(I65
I10
F-0.125
S'mine'
p621
tp622
a(I65
I21
F-0.25
S'precious'
p623
tp624
a(I65
I41
F0.125
S'first'
p625
tp626
a(I87
I8
I0
S'next'
p627
tp628
a(I150
I11
I0
S'next'
p629
tp630
a(I155
I6
F0.375
S'new'
p631
tp632
as(S'battery'
p633
tp634
(lp635
(I37
I2
I0
g29
tp636
a(I42
I3
F0.375
S'extra'
p637
tp638
a(I42
I3
F0.25
S'bigger'
p639
tp640
a(I42
I3
F0.375
S'new'
p641
tp642
a(I65
I14
I0
S'fast'
p643
tp644
a(I75
I3
F-0.375
S'top'
p645
tp646
a(I129
I1
F1.0
g31
tp647
a(I140
I3
I0
g33
tp648
a(I140
I3
F-0.5
g35
tp649
a(I155
I3
F-0.5
g37
tp650
as(S'make'
p651
tp652
(lp653
(I125
I6
I0
S'such'
p654
tp655
as(S'card'
p656
tp657
(lp658
(I29
I1
I0
S'great'
p659
tp660
as(S'always'
p661
tp662
(lp663
(I22
I11
I0
S'android'
p664
tp665
as(g175
S'venezuela'
p666
tp667
(lp668
(I96
I1
F1.0
S'good'
p669
tp670
as(S'review'
p671
tp672
(lp673
(I16
I1
I0
S'perspective'
p674
tp675
a(I19
I23
F0.125
S'valid'
p676
tp677
a(I65
I33
F-0.5
S'sure'
p678
tp679
as(S'hours'
p680
tp681
(lp682
(I42
I0
I0
S'close'
p683
tp684
as(S'deal'
p685
tp686
(lp687
(I10
I2
I0
S'great'
p688
tp689
a(I58
I2
F0.625
S'major'
p690
tp691
a(I105
I5
F1.0
S'good'
p692
tp693
a(I155
I5
F1.0
S'good'
p694
tp695
a(I155
I6
I0
S'great'
p696
tp697
a(I172
I0
F1.0
S'best'
p698
tp699
as(S'life'
p700
tp701
(lp702
(I19
I9
I0
g27
tp703
a(I76
I10
F-0.5
S'cracked'
p704
tp705
a(I113
I2
F0.625
S'easier'
p706
tp707
as(S'feels'
p708
tp709
(lp710
(I16
I8
F-0.25
S'cheaper'
p711
tp712
a(I44
I3
F1.0
S'good'
p713
tp714
a(I71
I5
I0
S'slower'
p715
tp716
a(I94
I10
F1.0
S'good'
p717
tp718
as.