(dp0
(S'screen'
p1
S'size'
p2
tp3
(lp4
(I6
I48
I0
S'big'
p5
I3
tp6
a(I6
I48
F0.75
S'worth'
p7
I3
tp8
a(I6
I75
I0
S'great'
p9
I3
tp10
a(I8
I13
F-0.375
S'daily'
p11
I3
tp12
a(I8
I13
I0
S'big'
p13
I3
tp14
a(I8
I29
F0.25
S'larger'
p15
I3
tp16
a(I16
I99
F0.25
S'larger'
p17
I3
tp18
a(I18
I198
F0.25
S'larger'
p19
I3
tp20
a(I20
I34
F-0.375
S'smaller'
p21
I3
tp22
a(I20
I158
I0
S'large'
p23
I3
tp24
a(I20
I158
I0
S'large'
p25
I3
tp26
as(S'samsung'
p27
S'galaxy'
p28
S'note'
p29
tp30
(lp31
(I7
I308
F0.125
S'first'
p32
I0
tp33
a(I20
I166
F-0.5
S'certain'
p34
I0
tp35
a(I7
I308
F0.125
g32
I0
tp36
a(I20
I54
F0.5
S'second'
p37
I0
tp38
a(I20
I166
F-0.5
g34
I0
tp39
a(I2
I160
I0
S'arrive'
p40
I0
tp41
a(I4
I2
I0
S'current'
p42
I0
tp43
a(I12
I26
I0
S'galaxy'
p44
I0
tp45
a(I18
I52
F0.25
S'original'
p46
I0
tp47
a(I20
I58
F-0.375
S'black'
p48
I0
tp49
a(I20
I166
F-0.5
g34
I0
tp50
a(I2
I155
F0.125
S'first'
p51
I7
tp52
a(I2
I183
I0
S'site'
p53
I7
tp54
a(I6
I30
F0.625
S'interested'
p55
I7
tp56
a(I6
I39
I0
S'same'
p57
I7
tp58
a(I7
I262
I0
S'switch'
p59
I7
tp60
a(I7
I262
I0
S'earlier'
p61
I7
tp62
a(I7
I308
F0.125
g32
I7
tp63
a(I15
I59
F0.5
S'rid'
p64
I7
tp65
a(I18
I25
F0.875
S'happy'
p66
I7
tp67
a(I20
I54
F0.5
g37
I7
tp68
a(I20
I74
I0
S'more'
p69
I7
tp70
a(I20
I168
I0
S'motive'
p71
I7
tp72
a(I2
I125
F0.375
S'new'
p73
I0
tp74
a(I4
I2
I0
g42
I0
tp75
a(I6
I61
I0
S'different'
p76
I0
tp77
a(I9
I88
I0
S'old'
p78
I0
tp79
a(I12
I41
I0
S'old'
p80
I0
tp81
a(I15
I14
I0
S'old'
p82
I0
tp83
a(I18
I52
F0.25
g46
I0
tp84
a(I19
I68
I0
S'old'
p85
I0
tp86
a(I20
I58
F-0.375
g48
I0
tp87
a(I20
I166
F-0.5
g34
I0
tp88
as(S'happy'
p89
S'with'
p90
S'purchase'
p91
tp92
(lp93
(I19
I117
F0.875
S'happy'
p94
I0
tp95
as(S'galaxy'
p96
S'nexus'
p97
tp98
(lp99
(I6
I61
I0
g76
I0
tp100
a(I7
I280
I0
S'galaxy'
p101
I0
tp102
a(I12
I41
I0
g80
I0
tp103
a(I15
I14
I0
g82
I0
tp104
a(I19
I68
I0
g85
I0
tp105
a(I19
I68
F1.0
S'good'
p106
I0
tp107
as(S'call'
p108
S'quality'
p109
tp110
(lp111
(I0
I38
F-0.5
S'call'
p112
I0
tp113
a(I2
I39
F-0.125
S'dive'
p114
I0
tp115
a(I16
I30
I0
S'great'
p116
I0
tp117
a(I19
I83
F1.0
S'good'
p118
I0
tp119
a(I20
I207
F-0.5
S'poor'
p120
I0
tp121
a(I20
I207
F0.125
S'tolerable'
p122
I0
tp123
as(S'tablet'
p124
tp125
(lp126
(I7
I271
F-0.375
S'small'
p127
I14
tp128
a(I16
I145
F0.875
S'nice'
p129
I14
tp130
a(I16
I150
F-0.375
S'small'
p131
I14
tp132
a(I20
I230
F-0.5
S'separate'
p133
I14
tp134
a(I20
I230
I0
S'such'
p135
I14
tp136
as(S'2'
p137
S'days'
p138
tp139
(lp140
(I6
I117
I0
S'later'
p141
I3
tp142
a(I6
I117
F-0.25
S'cheaper'
p143
I3
tp144
a(I16
I34
I0
S'least'
p145
I3
tp146
a(I18
I232
F-0.25
S'past'
p147
I3
tp148
as(S'camera'
p149
tp150
(lp151
(I4
I23
F-0.375
S'top'
p152
I1
tp153
a(I7
I287
F0.875
S'nice'
p154
I1
tp155
a(I16
I84
F-0.375
S'crazy'
p156
I1
tp157
as(S'operating'
p158
S'system'
p159
tp160
(lp161
(I3
I26
I0
S'great'
p162
I2
tp163
a(I15
I43
I0
S'android'
p164
I2
tp165
a(I15
I59
I0
S'own'
p166
I2
tp167
as(S'so'
p168
S'many'
p169
S'features'
p170
tp171
(lp172
(I2
I25
I0
S'many'
p173
I0
tp174
a(I2
I101
I0
S'many'
p175
I0
tp176
a(I7
I9
I0
S'many'
p177
I0
tp178
a(I8
I59
I0
S'many'
p179
I0
tp180
a(I12
I103
I0
S'many'
p181
I0
tp182
a(I17
I41
I0
S'many'
p183
I0
tp184
a(I18
I137
I0
S'many'
p185
I0
tp186
a(I19
I76
I0
S'many'
p187
I0
tp188
as(S'iphone'
p189
tp190
(lp191
(I3
I25
I0
S'android'
p192
I1
tp193
a(I3
I35
I0
S'such'
p194
I1
tp195
a(I4
I58
I0
S'third'
p196
I1
tp197
a(I4
I58
F0.5
S'flat'
p198
I1
tp199
a(I7
I310
F0.375
S'new'
p200
I1
tp201
a(I9
I81
F-0.25
S'higher'
p202
I1
tp203
a(I15
I43
I0
S'many'
p204
I1
tp205
a(I19
I88
F-0.625
S'other'
p206
I1
tp207
a(I20
I2
F-0.375
S'small'
p208
I1
tp209
as(S'button'
p210
tp211
(lp212
(I6
I59
F-0.125
S'opposite'
p213
I19
tp214
a(I6
I59
F-0.625
S'other'
p215
I19
tp216
a(I7
I310
F-0.75
S'single'
p217
I19
tp218
a(I15
I61
F-0.125
S'opposite'
p219
I19
tp220
a(I15
I61
F-0.25
S'ready'
p221
I19
tp222
a(I16
I65
F0.625
S'easy'
p223
I19
tp224
a(I18
I79
F0.25
S'favorite'
p225
I19
tp226
a(I18
I186
I0
S'big'
p227
I19
tp228
a(I20
I137
F-0.125
S'mine'
p229
I19
tp230
as(S'google'
p231
tp232
(lp233
(I4
I29
I0
S'great'
p234
I4
tp235
a(I20
I65
I0
S'current'
p236
I4
tp237
a(I20
I66
F0.125
S'able'
p238
I4
tp239
as(S'every'
p240
S'penny'
p241
tp242
(lp243
(I2
I226
F0.75
S'worth'
p244
I3
tp245
a(I19
I95
F0.75
S'worth'
p246
I3
tp247
as(S'real'
p248
S'estate'
p249
tp250
(lp251
(I0
I41
I0
S'real'
p252
I1
tp253
a(I2
I271
I0
S'real'
p254
I1
tp255
a(I4
I95
I0
S'real'
p256
I1
tp257
a(I20
I36
I0
S'real'
p258
I1
tp259
as(S'apple'
p260
tp261
(lp262
(I7
I39
I0
S'many'
p263
I4
tp264
as(S'stylus'
p265
tp266
(lp267
(I2
I1
I0
S'cool'
p268
I7
tp269
a(I6
I21
I0
S'handy'
p270
I7
tp271
a(I8
I67
F-0.5
S'heavy'
p272
I7
tp273
a(I18
I225
F-0.625
S'conventional'
p274
I7
tp275
as(S'verizon'
p276
tp277
(lp278
(I2
I165
I0
S'fast'
p279
I0
tp280
a(I6
I116
F0.375
S'new'
p281
I0
tp282
a(I7
I47
F0.5
S'rid'
p283
I0
tp284
a(I7
I89
I0
S'local'
p285
I0
tp286
a(I8
I55
F0.875
S'happier'
p287
I0
tp288
a(I9
I46
I0
S'internet'
p289
I0
tp290
a(I12
I58
F0.875
S'happy'
p291
I0
tp292
a(I16
I47
I0
S'fast'
p293
I0
tp294
a(I18
I29
I0
S'great'
p295
I0
tp296
a(I18
I150
F0.375
S'new'
p297
I0
tp298
as(S'sd'
p299
S'card'
p300
tp301
(lp302
(I2
I190
I0
S'external'
p303
I0
tp304
a(I4
I12
F0.375
S'extra'
p305
I0
tp306
as(S'unlimited'
p307
S'data'
p308
tp309
(lp310
(I2
I150
F-0.5
S'unlimited'
p311
I0
tp312
a(I7
I91
F0.375
S'alive'
p313
I0
tp314
as(S'a'
p315
S'long'
p316
S'time'
p317
tp318
(lp319
(I7
I14
F-0.5
S'long'
p320
I12
tp321
a(I8
I4
F-0.375
S'top'
p322
I12
tp323
a(I8
I4
F-0.5
S'long'
p324
I12
tp325
a(I10
I0
F-0.5
S'long'
p326
I12
tp327
a(I12
I81
F-0.5
S'long'
p328
I12
tp329
a(I12
I81
F0.75
S'due'
p330
I12
tp331
a(I16
I125
F-0.5
S'long'
p332
I12
tp333
a(I16
I125
I0
S'more'
p334
I12
tp335
as(S'android'
p336
tp337
(lp338
(I2
I186
I0
S'old'
p339
I0
tp340
a(I3
I27
I0
S'prior'
p341
I0
tp342
a(I7
I314
I0
S'old'
p343
I0
tp344
a(I12
I45
I0
S'standard'
p345
I0
tp346
a(I15
I1
F1.0
S'best'
p347
I0
tp348
a(I16
I11
F0.125
S'able'
p349
I0
tp350
a(I16
I11
I0
S'big'
p351
I0
tp352
a(I18
I14
F1.0
S'good'
p353
I0
tp354
a(I18
I115
I0
S'old'
p355
I0
tp356
a(I18
I115
F0.375
S'new'
p357
I0
tp358
as(S'large'
p359
S'screen'
p360
tp361
(lp362
(I2
I20
I0
S'large'
p363
I3
tp364
a(I3
I35
F0.75
S'beautiful'
p365
I3
tp366
a(I3
I35
I0
S'large'
p367
I3
tp368
a(I6
I71
I0
S'large'
p369
I3
tp370
a(I7
I11
F0.25
S'larger'
p371
I3
tp372
a(I7
I145
F0.25
S'larger'
p373
I3
tp374
a(I8
I29
F0.25
g15
I3
tp375
a(I9
I55
I0
S'large'
p376
I3
tp377
a(I9
I99
I0
S'large'
p378
I3
tp379
a(I9
I99
I0
S'great'
p380
I3
tp381
a(I16
I20
F-0.375
S'smaller'
p382
I3
tp383
a(I16
I99
F0.25
g17
I3
tp384
a(I16
I102
F0.25
S'larger'
p385
I3
tp386
a(I17
I2
F0.25
S'larger'
p387
I3
tp388
a(I18
I128
I0
S'large'
p389
I3
tp390
a(I18
I128
F0.5
S'clear'
p391
I3
tp392
a(I18
I198
F0.25
g19
I3
tp393
a(I19
I19
F0.25
S'larger'
p394
I3
tp395
a(I20
I158
I0
g23
I3
tp396
a(I20
I205
I0
S'large'
p397
I3
tp398
as(S'hands'
p399
tp400
(lp401
(I6
I46
F-0.375
S'small'
p402
I15
tp403
a(I6
I46
F-0.75
S'difficult'
p404
I15
tp405
a(I6
I46
I0
S'big'
p406
I15
tp407
a(I8
I50
F0.875
S'worthy'
p408
I15
tp409
a(I9
I75
I0
S'big'
p410
I15
tp411
a(I16
I52
I0
S'big'
p412
I15
tp413
a(I16
I52
I0
S'general'
p414
I15
tp415
a(I16
I93
F0.25
S'larger'
p416
I15
tp417
a(I18
I38
I0
S'big'
p418
I15
tp419
a(I18
I59
I0
S'large'
p420
I15
tp421
a(I18
I173
I0
S'big'
p422
I15
tp423
a(I18
I173
I0
S'skinny'
p424
I15
tp425
a(I19
I115
I0
S'large'
p426
I15
tp427
a(I20
I2
F0.25
S'bigger'
p428
I15
tp429
a(I20
I136
I0
S'big'
p430
I15
tp431
a(I20
I190
F1.0
S'better'
p432
I15
tp433
as(S'learning'
p434
S'curve'
p435
tp436
(lp437
(I7
I83
F0.5
S'willing'
p438
I2
tp439
a(I16
I179
F0.375
S'steep'
p440
I2
tp441
as(S'razr'
p442
S'maxx'
p443
tp444
(lp445
(I7
I212
I0
S'meteorite'
p446
I0
tp447
as(S'smart'
p448
tp449
(lp450
(I2
I65
F-0.625
S'bad'
p451
I10
tp452
a(I2
I145
F1.0
S'best'
p453
I10
tp454
a(I2
I269
F1.0
S'best'
p455
I10
tp456
a(I3
I14
F-0.375
S'top'
p457
I10
tp458
a(I3
I17
I0
S'real'
p459
I10
tp460
a(I6
I42
I0
S'great'
p461
I10
tp462
a(I7
I57
F0.125
S'first'
p463
I10
tp464
a(I13
I10
F1.0
S'good'
p465
I10
tp466
a(I16
I175
F0.375
S'new'
p467
I10
tp468
a(I16
I175
F0.5
S'whole'
p469
I10
tp470
a(I18
I228
F0.125
S'first'
p471
I10
tp472
a(I19
I76
I0
S'such'
p473
I10
tp474
as(S'long'
p475
S'battery'
p476
S'life'
p477
tp478
(lp479
(I8
I78
F-0.5
S'long'
p480
I0
tp481
a(I9
I52
I0
S'more'
p482
I0
tp483
a(I9
I92
F-0.5
S'long'
p484
I0
tp485
a(I0
I28
I-100
S'pros-big'
p486
I1
tp487
a(I3
I33
I0
S'great'
p488
I1
tp489
a(I7
I178
F0.25
S'used'
p490
I1
tp491
a(I7
I263
I0
S'great'
p492
I1
tp493
a(I8
I44
F-0.375
S'smaller'
p494
I1
tp495
a(I8
I78
F-0.5
g480
I1
tp496
a(I9
I18
F1.0
S'best'
p497
I1
tp498
a(I9
I52
I0
g482
I1
tp499
a(I9
I92
F-0.5
g484
I1
tp500
a(I12
I32
I0
S'great'
p501
I1
tp502
a(I13
I4
F1.0
S'good'
p503
I1
tp504
a(I15
I14
I0
S'such'
p505
I1
tp506
a(I16
I12
I0
S'great'
p507
I1
tp508
a(I16
I32
F1.0
S'best'
p509
I1
tp510
a(I16
I216
I0
S'great'
p511
I1
tp512
a(I18
I90
F-0.625
S'unreal'
p513
I1
tp514
a(I19
I58
I0
S'great'
p515
I1
tp516
a(I19
I80
I0
S'great'
p517
I1
tp518
a(I19
I116
F0.125
S'impressive'
p519
I1
tp520
a(I20
I107
F1.0
S'good'
p521
I1
tp522
a(I20
I195
I0
S'great'
p523
I1
tp524
a(I3
I28
I0
S'real'
p525
I19
tp526
a(I3
I33
I0
g488
I19
tp527
a(I7
I178
F0.25
g490
I19
tp528
a(I9
I18
F1.0
g497
I19
tp529
a(I9
I52
I0
g482
I19
tp530
a(I9
I92
F-0.5
g484
I19
tp531
a(I12
I32
I0
g501
I19
tp532
a(I13
I4
F1.0
g503
I19
tp533
a(I16
I32
F1.0
g509
I19
tp534
a(I16
I216
I0
g511
I19
tp535
a(I18
I90
F-0.625
g513
I19
tp536
a(I19
I116
F0.125
g519
I19
tp537
a(I20
I107
F1.0
g521
I19
tp538
a(I20
I195
I0
g523
I19
tp539
a(I2
I73
F0.375
S'much'
p540
I15
tp541
a(I2
I236
I0
S'big'
p542
I15
tp543
a(I3
I5
F-0.75
S'dead'
p544
I15
tp545
a(I3
I5
I0
S'quick'
p546
I15
tp547
a(I6
I66
I0
S'large'
p548
I15
tp549
a(I6
I69
F-0.25
S'low'
p550
I15
tp551
a(I7
I14
F0.125
S'last'
p552
I15
tp553
a(I7
I43
F1.0
S'good'
p554
I15
tp555
a(I7
I263
I0
g492
I15
tp556
a(I8
I44
F-0.375
g494
I15
tp557
a(I8
I78
F-0.5
g480
I15
tp558
a(I9
I64
F0.625
S'replaceable'
p559
I15
tp560
a(I9
I99
F0.125
S'last'
p561
I15
tp562
a(I12
I33
I0
S'more'
p563
I15
tp564
a(I12
I36
F0.375
S'new'
p565
I15
tp566
a(I12
I51
F-0.75
S'dead'
p567
I15
tp568
a(I12
I61
F0.125
S'last'
p569
I15
tp570
a(I12
I127
F0.625
S'removable'
p571
I15
tp572
a(I15
I14
I0
g505
I15
tp573
a(I16
I12
I0
g507
I15
tp574
a(I16
I33
F1.0
S'better'
p575
I15
tp576
a(I16
I33
F0.375
S'extended'
p577
I15
tp578
a(I16
I101
I0
S'big'
p579
I15
tp580
a(I18
I92
F0.625
S'removable'
p581
I15
tp582
a(I18
I233
F1.0
S'good'
p583
I15
tp584
a(I19
I58
I0
g515
I15
tp585
a(I19
I80
I0
g517
I15
tp586
a(I20
I144
F0.125
S'last'
p587
I15
tp588
as(S'big'
p589
S'screen'
p590
tp591
(lp592
(I2
I30
I0
S'big'
p593
I1
tp594
a(I2
I223
F0.25
S'bigger'
p595
I1
tp596
a(I2
I239
F0.875
S'nice'
p597
I1
tp598
a(I2
I239
I0
S'big'
p599
I1
tp600
a(I2
I245
F0.25
S'bigger'
p601
I1
tp602
a(I3
I15
F-0.75
S'bright'
p603
I1
tp604
a(I6
I48
I0
g5
I1
tp605
a(I6
I48
F0.75
g7
I1
tp606
a(I6
I55
F0.25
S'bigger'
p607
I1
tp608
a(I7
I58
F1.0
S'love'
p609
I1
tp610
a(I7
I58
I0
S'big'
p611
I1
tp612
a(I8
I13
F-0.375
g11
I1
tp613
a(I9
I52
F0.25
S'bigger'
p614
I1
tp615
a(I9
I64
I0
S'big'
p616
I1
tp617
a(I9
I70
I0
S'big'
p618
I1
tp619
a(I12
I10
I0
S'big'
p620
I1
tp621
a(I12
I66
I0
S'big'
p622
I1
tp623
a(I12
I83
F0.25
S'bigger'
p624
I1
tp625
a(I17
I24
I0
S'big'
p626
I1
tp627
a(I17
I38
F0.625
S'interested'
p628
I1
tp629
a(I17
I38
F0.25
S'bigger'
p630
I1
tp631
as(S'screen'
p632
S'protector'
p633
tp634
(lp635
(I4
I2
F-0.25
S'ready'
p636
I4
tp637
a(I7
I222
I0
S'later'
p638
I4
tp639
a(I15
I27
F0.875
S'gentle'
p640
I4
tp641
a(I18
I63
I0
S'plastic'
p642
I4
tp643
a(I20
I139
I0
S'full'
p644
I4
tp645
as(S'text'
p646
S'messages'
p647
tp648
(lp649
(I7
I172
I0
S'many'
p650
I0
tp651
as(S'much'
p652
S'better'
p653
tp654
(lp655
(I4
I108
F0.375
S'much'
p656
I9
tp657
a(I19
I74
F0.375
S'much'
p658
I9
tp659
a(I19
I74
F1.0
S'good'
p660
I9
tp661
a(I20
I229
F0.375
S'much'
p662
I9
tp663
a(I20
I231
F0.375
S'much'
p664
I9
tp665
as(S'pocket'
p666
tp667
(lp668
(I7
I42
F0.75
S'fit'
p669
I17
tp670
a(I16
I105
F-0.625
S'idle'
p671
I17
tp672
a(I17
I0
I0
S'big'
p673
I17
tp674
a(I18
I198
F-0.375
S'smaller'
p675
I17
tp676
a(I20
I224
I0
S'same'
p677
I17
tp678
as(S'smartphone'
p679
tp680
(lp681
(I7
I46
F1.0
S'best'
p682
I0
tp683
a(I7
I60
F0.125
S'first'
p684
I0
tp685
a(I7
I60
F0.875
S'happy'
p686
I0
tp687
a(I15
I44
F1.0
S'best'
p688
I0
tp689
a(I18
I157
F0.125
S'first'
p690
I0
tp691
a(I18
I157
I0
S'large'
p692
I0
tp693
a(I18
I157
F-0.375
S'robust'
p694
I0
tp695
a(I18
I175
F-0.375
S'smaller'
p696
I0
tp697
a(I18
I184
F-0.625
S'other'
p698
I0
tp699
as(S'customer'
p700
S'service'
p701
tp702
(lp703
(I16
I151
F1.0
S'best'
p704
I3
tp705
a(I20
I52
F-0.625
S'disgruntled'
p706
I3
tp707
a(I20
I53
F1.0
S'good'
p708
I3
tp709
as(S'great'
p710
S'battery'
p711
S'life'
p712
tp713
(lp714
(I3
I33
I0
g488
I0
tp715
a(I7
I263
I0
g492
I0
tp716
a(I12
I32
I0
g501
I0
tp717
a(I16
I12
I0
g507
I0
tp718
a(I16
I216
I0
g511
I0
tp719
a(I19
I58
I0
g515
I0
tp720
a(I19
I80
I0
g517
I0
tp721
a(I20
I195
I0
g523
I0
tp722
as(S'apps'
p723
tp724
(lp725
(I2
I63
F0.375
S'available'
p726
I0
tp727
a(I2
I63
I0
S'such'
p728
I0
tp729
a(I2
I78
I0
S'many'
p730
I0
tp731
a(I2
I98
I-100
S'productivity/design'
p732
I0
tp733
a(I2
I128
F-0.5
S'certain'
p734
I0
tp735
a(I7
I254
I0
S'multiple'
p736
I0
tp737
a(I9
I80
I0
S'useful'
p738
I0
tp739
a(I12
I83
I0
S'general'
p740
I0
tp741
a(I15
I19
I0
S'many'
p742
I0
tp743
a(I15
I19
I0
S'useful'
p744
I0
tp745
a(I15
I21
F-0.5
S'certain'
p746
I0
tp747
a(I16
I6
I0
S'active'
p748
I0
tp749
a(I16
I6
F-0.5
S'open'
p750
I0
tp751
a(I16
I130
I0
S'useful'
p752
I0
tp753
a(I18
I30
F-0.5
S'unwanted'
p754
I0
tp755
a(I18
I30
F-0.375
S'disable'
p756
I0
tp757
a(I18
I61
F0.25
S'favorite'
p758
I0
tp759
a(I18
I102
I0
S'different'
p760
I0
tp761
a(I18
I112
F-0.625
S'other'
p762
I0
tp763
a(I18
I210
I0
S'few'
p764
I0
tp765
a(I19
I99
F-0.625
S'other'
p766
I0
tp767
a(I19
I99
I0
S'questionable'
p768
I0
tp769
a(I20
I16
F-0.375
S'disable'
p770
I0
tp771
a(I20
I17
F-0.625
S'other'
p772
I0
tp773
as(S'amazon'
p774
tp775
(lp776
(I2
I53
F0.875
S'nice'
p777
I13
tp778
a(I2
I157
F1.0
S'best'
p779
I13
tp780
a(I2
I157
F0.125
S'able'
p781
I13
tp782
a(I7
I173
I0
S'such'
p783
I13
tp784
a(I12
I107
F0.875
S'happier'
p785
I13
tp786
a(I18
I123
F1.0
S'better'
p787
I13
tp788
as.