(dp0
(S'android'
p1
tp2
(lp3
(I17
I75
I0
S'fast'
p4
I0
tp5
a(I17
I75
F0.125
S'first'
p6
I0
tp7
a(I20
I18
I0
S'only'
p8
I0
tp9
a(I20
I18
F-0.625
S'other'
p10
I0
tp11
a(I23
I16
F1.0
S'best'
p12
I0
tp13
a(I24
I49
F1.0
S'best'
p14
I0
tp15
as(S'iphone'
p16
tp17
(lp18
(I6
I0
F-0.25
S'past'
p19
I1
tp20
a(I9
I82
I0
S'old'
p21
I1
tp22
a(I9
I82
I0
S'same'
p23
I1
tp24
a(I17
I9
F0.375
S'new'
p25
I1
tp26
a(I17
I74
F0.375
S'much'
p27
I1
tp28
a(I17
I74
I0
S'more'
p29
I1
tp30
a(I19
I7
I0
S'many'
p31
I1
tp32
as(S'mobile'
p33
tp34
(lp35
(I6
I16
F0.25
S'submersible'
p36
I0
tp37
as(S'battery'
p38
S'life'
p39
tp40
(lp41
(I5
I112
F1.0
S'good'
p42
I1
tp43
a(I7
I37
I0
S'very'
p44
I1
tp45
a(I7
I37
F1.0
S'good'
p46
I1
tp47
a(I19
I4
F-0.5
S'long'
p48
I1
tp49
a(I20
I12
F-0.125
S'overall'
p50
I1
tp51
a(I24
I35
F-0.875
S'awful'
p52
I1
tp53
a(I5
I112
F1.0
g42
I19
tp54
a(I19
I4
F-0.5
g48
I19
tp55
a(I20
I12
F-0.125
g50
I19
tp56
a(I24
I35
F-0.875
g52
I19
tp57
a(I25
I3
F0.625
S'aware'
p58
I19
tp59
a(I5
I11
F-0.5
S'long'
p60
I15
tp61
a(I7
I37
I0
g44
I15
tp62
a(I7
I37
F1.0
g46
I15
tp63
a(I7
I54
F0.25
S'powerful'
p64
I15
tp65
a(I9
I17
I0
S'large'
p66
I15
tp67
a(I9
I17
F0.125
S'last'
p68
I15
tp69
a(I9
I75
I0
S'soft'
p70
I15
tp71
a(I9
I76
F-0.5
S'sure'
p72
I15
tp73
a(I17
I21
F-0.25
S'low'
p74
I15
tp75
a(I19
I33
F-0.25
S'low'
p76
I15
tp77
a(I20
I0
F1.0
S'good'
p78
I15
tp79
as(S'water'
p80
S'proof'
p81
tp82
(lp83
(I7
I17
F-0.125
S'complex'
p84
I0
tp85
a(I7
I59
F-0.375
S'dust'
p86
I0
tp87
a(I20
I16
F-0.375
S'dust'
p88
I0
tp89
a(I5
I74
F-0.375
S'dust'
p90
I6
tp91
a(I7
I17
F-0.125
g84
I6
tp92
as(S'data'
p93
tp94
(lp95
(I17
I36
F0.375
S'much'
p96
I13
tp97
a(I17
I36
I0
S'internal'
p98
I13
tp99
as(S'sound'
p100
tp101
(lp102
(I9
I97
I0
S'laptop'
p103
I7
tp104
a(I9
I97
I0
S'internal'
p105
I7
tp106
as(S'smartphone'
p107
tp108
(lp109
(I5
I24
F1.0
S'good'
p110
I0
tp111
a(I5
I24
F0.25
S'powerful'
p112
I0
tp113
a(I6
I18
F1.0
S'good'
p114
I0
tp115
a(I17
I72
F1.0
S'best'
p116
I0
tp117
a(I18
I20
I0
S'great'
p118
I0
tp119
a(I25
I1
F1.0
S'best'
p120
I0
tp121
a(I26
I18
F1.0
S'best'
p122
I0
tp123
as(S'xperia'
p124
tp125
(lp126
(I8
I6
F0.375
S'new'
p127
I0
tp128
a(I21
I13
F0.375
S'new'
p129
I0
tp130
a(I26
I10
F0.5
S'true'
p131
I0
tp132
as(S'stamina'
p133
S'mode'
p134
tp135
(lp136
(I5
I17
I0
S'react'
p137
I0
tp138
a(I19
I33
F-0.25
S'low'
p139
I0
tp140
as(S'glass'
p141
tp142
(lp143
(I17
I45
F-0.5
S'afraid'
p144
I9
tp145
a(I17
I45
F0.25
S'lovely'
p146
I9
tp147
a(I17
I74
F1.0
S'good'
p148
I9
tp149
as(S'samsung'
p150
tp151
(lp152
(I9
I5
F0.625
S'superior'
p153
I7
tp154
a(I24
I25
I0
S'plastic'
p155
I7
tp156
as(S'screen'
p157
S'protector'
p158
tp159
(lp160
(I17
I47
F-0.375
S'dust'
p161
I4
tp162
as(S'camera'
p163
tp164
(lp165
(I0
I0
I0
S'great'
p166
I1
tp167
a(I5
I90
I0
S'great'
p168
I1
tp169
a(I5
I125
F0.75
S'wonder'
p170
I1
tp171
a(I7
I62
I0
S'great'
p172
I1
tp173
a(I8
I7
F0.125
S'first'
p174
I1
tp175
a(I12
I5
F1.0
S'good'
p176
I1
tp177
a(I12
I7
I0
S'more'
p178
I1
tp179
a(I12
I7
F0.5
S'clear'
p180
I1
tp181
a(I12
I7
F0.25
S'professional'
p182
I1
tp183
a(I12
I7
I0
S'more'
p184
I1
tp185
a(I12
I9
I0
S'great'
p186
I1
tp187
a(I17
I67
I0
S'physical'
p188
I1
tp189
a(I18
I8
F0.5
S'second'
p190
I1
tp191
a(I24
I40
F0.875
S'nice'
p192
I1
tp193
a(I25
I8
F1.0
S'good'
p194
I1
tp195
a(I26
I0
F0.625
S'perfect'
p196
I1
tp197
a(I26
I10
F0.25
S'bigger'
p198
I1
tp199
a(I26
I21
F0.875
S'nice'
p200
I1
tp201
as(S'sony'
p202
tp203
(lp204
(I5
I83
F0.5
S'loyal'
p205
I5
tp206
a(I5
I112
F0.25
S'biggest'
p207
I5
tp208
a(I5
I120
F1.0
S'better'
p209
I5
tp210
a(I19
I61
F-0.125
S'overall'
p211
I5
tp212
a(I21
I26
I0
S'more'
p213
I5
tp214
as.