(dp0
(S'something'
p1
tp2
(lp3
(I49
I38
I0
S'own'
p4
tp5
a(I161
I0
F0.375
S'new'
p6
tp7
a(I173
I29
I0
S'useful'
p8
tp9
as(S'with'
p10
S'blu'
p11
S'life'
p12
tp13
(lp14
(I49
I54
I0
S'blue'
p15
tp16
a(I148
I0
I0
S'different'
p17
tp18
a(I173
I66
F0.125
S'enough'
p19
tp20
as(S'accessories'
p21
tp22
(lp23
(I13
I5
I0
S'many'
p24
tp25
a(I13
I5
F0.375
S'available'
p26
tp27
a(I58
I3
F-0.625
S'other'
p28
tp29
a(I69
I7
I0
S'specific'
p30
tp31
a(I84
I4
F-0.875
S'hard'
p32
tp33
a(I145
I2
I0
S'more'
p34
tp35
as(S'version'
p36
tp37
(lp38
(I3
I4
I0
S'android'
p39
tp40
a(I11
I2
I0
S'android'
p41
tp42
a(I58
I5
F0.625
S'aware'
p43
tp44
a(I144
I3
I0
S'android'
p45
tp46
a(I173
I12
F-0.125
S'bean'
p47
tp48
a(I173
I12
I0
S'android'
p49
tp50
a(I173
I19
F-0.25
S'white'
p51
tp52
a(I173
I22
F-0.25
S'white'
p53
tp54
a(I173
I23
F-0.25
S'white'
p55
tp56
a(I173
I26
I0
S'latest'
p57
tp58
a(I173
I26
F0.5
S'true'
p59
tp60
a(I173
I26
I0
S'android'
p61
tp62
a(I173
I37
F-0.25
S'white'
p63
tp64
a(I173
I60
F-0.25
S'white'
p65
tp66
a(I173
I69
I0
S'android'
p67
tp68
a(I173
I78
I0
S'android'
p69
tp70
as(S'system'
p71
S'board'
p72
tp73
(lp74
(I174
I27
I0
S'same'
p75
tp76
as(S'with'
p77
S'straight'
p78
S'talk'
p79
tp80
(lp81
(I17
I9
F0.625
S'straight'
p82
tp83
a(I17
I12
F0.625
S'straight'
p84
tp85
a(I24
I5
F0.625
S'straight'
p86
tp87
a(I24
I7
F0.625
S'straight'
p88
tp89
a(I24
I7
F0.625
S'straight'
p90
tp91
a(I48
I1
F0.625
S'straight'
p92
tp93
a(I63
I0
F0.625
S'straight'
p94
tp95
a(I93
I5
F0.625
S'straight'
p96
tp97
a(I93
I5
F0.625
S'straight'
p98
tp99
a(I125
I2
F0.625
S'straight'
p100
tp101
a(I150
I8
F0.625
S'straight'
p102
tp103
a(I183
I2
F0.625
S'straight'
p104
tp105
as(S'high'
p106
S'end'
p107
tp108
(lp109
(I3
I1
I0
S'high'
p110
tp111
a(I32
I2
F-0.625
S'other'
p112
tp113
a(I44
I0
F-0.625
S'other'
p114
tp115
a(I44
I0
I0
S'high'
p116
tp117
a(I92
I10
I0
S'high'
p118
tp119
a(I156
I2
I0
S'high'
p120
tp121
a(I181
I1
I0
S'high'
p122
tp123
as(S'features'
p124
tp125
(lp126
(I1
I3
F-0.75
S'stupid'
p127
tp128
a(I36
I0
I0
S'great'
p129
tp130
a(I36
I1
I0
S'many'
p131
tp132
a(I38
I0
F0.875
S'nice'
p133
tp134
a(I81
I3
F1.0
S'good'
p135
tp136
a(I81
I3
I0
S'basic'
p137
tp138
a(I106
I2
F0.375
S'new'
p139
tp140
a(I110
I2
I0
S'more'
p141
tp142
a(I122
I3
I0
S'great'
p143
tp144
a(I124
I1
F1.0
S'good'
p145
tp146
a(I125
I0
I0
S'many'
p147
tp148
a(I139
I1
F-0.625
S'other'
p149
tp150
a(I145
I1
I0
S'big'
p151
tp152
a(I146
I5
F0.375
S'similar'
p153
tp154
a(I147
I1
I0
S'many'
p155
tp156
a(I160
I3
I0
S'most'
p157
tp158
a(I173
I78
I0
S'few'
p159
tp160
a(I173
I78
I0
S'useful'
p161
tp162
a(I173
I83
I0
S'useful'
p163
tp164
a(I173
I83
I0
S'operational'
p165
tp166
a(I177
I12
I0
S'great'
p167
tp168
as(S'sd'
p169
S'card'
p170
tp171
(lp172
(I24
I4
F0.5
S'primary'
p173
tp174
a(I59
I5
F0.25
S'larger'
p175
tp176
a(I80
I10
I0
S'internal'
p177
tp178
a(I80
I10
I0
S'sd'
p179
tp180
as(S'customer'
p181
tp182
(lp183
(I57
I8
F0.875
S'happy'
p184
tp185
a(I173
I41
I0
S'great'
p186
tp187
as(S'excellent'
p188
tp189
(lp190
(I7
I1
I0
S'great'
p191
tp192
as(S'takes'
p193
tp194
(lp195
(I14
I0
I0
S'great'
p196
tp197
as(S'sim'
p198
S'card'
p199
tp200
(lp201
(I49
I29
I0
S'different'
p202
tp203
a(I50
I3
F0.375
S'new'
p204
tp205
a(I58
I7
F-0.5
S'regular'
p206
tp207
a(I80
I20
I0
S'particular'
p208
tp209
a(I93
I2
I0
S'great'
p210
tp211
a(I101
I9
I0
S'old'
p212
tp213
a(I136
I20
F0.5
S'second'
p214
tp215
a(I136
I20
F0.5
S'second'
p216
tp217
a(I175
I2
I0
S'net'
p218
tp219
as(S'charge'
p220
tp221
(lp222
(I44
I6
I0
S'full'
p223
tp224
a(I61
I5
F-0.625
S'average'
p225
tp226
a(I68
I1
F1.0
S'good'
p227
tp228
a(I174
I17
F-0.625
S'free'
p229
tp230
a(I183
I4
I0
S'full'
p231
tp232
as(S'samsung'
p233
S'galaxy'
p234
S's4'
p235
tp236
(lp237
(I45
I0
F-0.5
S'less'
p238
tp239
as(S'factory'
p240
S'cable'
p241
tp242
(lp243
(I80
I8
I0
S'large'
p244
tp245
a(I80
I21
I0
S'included'
p246
tp247
as(S'easy'
p248
S'to'
p249
S'use'
p250
tp251
(lp252
(I136
I18
F0.625
S'acceptable'
p253
tp254
as(S'smartphone'
p255
tp256
(lp257
(I50
I5
F-0.375
S'small'
p258
tp259
a(I133
I1
I0
S'third'
p260
tp261
a(I168
I5
F-0.125
S'overall'
p262
tp263
a(I174
I19
F0.375
S'new'
p264
tp265
as(S'card'
p266
tp267
(lp268
(I24
I4
F0.5
g173
tp269
a(I59
I5
F0.25
g175
tp270
a(I80
I10
I0
g177
tp271
a(I80
I10
I0
g179
tp272
a(I93
I2
I0
g210
tp273
as(S'customer'
p274
S'service'
p275
tp276
(lp277
(I173
I33
F-0.625
S'bad'
p278
tp279
a(I173
I41
I0
g186
tp280
as(S'volume'
p281
tp282
(lp283
(I6
I5
I0
S'great'
p284
tp285
a(I20
I4
F-0.625
S'bad'
p286
tp287
a(I131
I5
F-0.25
S'highest'
p288
tp289
a(I145
I2
F-0.5
S'separate'
p290
tp291
as(S'wifi'
p292
tp293
(lp294
(I84
I9
F0.625
S'fair'
p295
tp296
a(I140
I2
F-0.75
S'short'
p297
tp298
a(I155
I0
F-0.875
S'worst'
p299
tp300
a(I177
I3
F-0.5
S'weak'
p301
tp302
a(I177
I7
I0
S'total'
p303
tp304
as(S'fast'
p305
tp306
(lp307
(I6
I10
F-0.125
S'super'
p308
tp309
a(I34
I1
I0
S'latest'
p310
tp311
a(I34
I1
I0
S'android'
p312
tp313
a(I34
I1
F0.375
S'extra'
p314
tp315
as(S'times'
p316
tp317
(lp318
(I20
I3
I0
S'many'
p319
tp320
a(I136
I22
F0.375
S'much'
p321
tp322
a(I140
I3
I0
S'many'
p323
tp324
a(I173
I37
I0
S'few'
p325
tp326
a(I173
I65
I0
S'many'
p327
tp328
a(I177
I4
I0
S'most'
p329
tp330
a(I177
I8
F-0.625
S'other'
p331
tp332
as(S'problem'
p333
tp334
(lp335
(I16
I3
I0
S'only'
p336
tp337
a(I80
I3
F0.125
S'first'
p338
tp339
a(I101
I11
I0
S'such'
p340
tp341
a(I181
I7
I0
S'same'
p342
tp343
as(S'happy'
p344
tp345
(lp346
(I166
I0
I0
S'real'
p347
tp348
as(S'price'
p349
tp350
(lp351
(I0
I0
F1.0
S'good'
p352
tp353
a(I7
I1
F-0.25
S'low'
p354
tp355
a(I9
I0
F0.5
S'reasonable'
p356
tp357
a(I16
I1
F-0.25
S'low'
p358
tp359
a(I24
I8
F1.0
S'good'
p360
tp361
a(I40
I0
F1.0
S'good'
p362
tp363
a(I49
I54
F-0.625
S'other'
p364
tp365
a(I59
I3
I0
S'same'
p366
tp367
a(I69
I7
I0
S'great'
p368
tp369
a(I86
I1
I0
S'great'
p370
tp371
a(I112
I0
I0
S'great'
p372
tp373
a(I113
I1
F1.0
S'good'
p374
tp375
a(I118
I2
I0
S'great'
p376
tp377
a(I141
I8
F-0.625
S'light'
p378
tp379
a(I145
I1
F0.625
S'beat'
p380
tp381
a(I146
I5
F-0.25
S'low'
p382
tp383
a(I160
I3
F0.5
S'reasonable'
p384
tp385
a(I163
I0
I0
S'mobile'
p386
tp387
a(I172
I10
F-0.5
S'less'
p388
tp389
a(I173
I101
F1.0
S'good'
p390
tp391
a(I177
I12
I0
S'phenomenal'
p392
tp393
a(I180
I1
F0.5
S'reasonable'
p394
tp395
as(S'service'
p396
tp397
(lp398
(I57
I6
I0
S'phenomenal'
p399
tp400
a(I141
I8
I0
S'net'
p401
tp402
a(I173
I33
F-0.625
g278
tp403
as(S'works'
p404
tp405
(lp406
(I14
I0
I0
S'great'
p407
tp408
a(I63
I0
F0.625
S'easy'
p409
tp410
a(I173
I28
F-0.125
S'bean'
p411
tp412
a(I173
I28
I0
S'general'
p413
tp414
a(I176
I3
F1.0
S'better'
p415
tp416
as(S'need'
p417
tp418
(lp419
(I173
I85
I0
S'real'
p420
tp421
as(S'gorilla'
p422
S'glass'
p423
tp424
(lp425
(I136
I18
F0.875
S'nice'
p426
tp427
as(S'dual'
p428
S'sim'
p429
tp430
(lp431
(I72
I0
F1.0
S'best'
p432
tp433
a(I173
I59
F0.875
S'nice'
p434
tp435
as(S'blu'
p436
S'life'
p437
tp438
(lp439
(I25
I1
F0.375
S'new'
p440
tp441
a(I49
I1
I0
S'blue'
p442
tp443
a(I49
I22
I0
S'blue'
p444
tp445
a(I49
I48
F0.375
S'new'
p446
tp447
a(I49
I54
I0
g15
tp448
a(I76
I0
F0.75
S'worth'
p449
tp450
a(I84
I9
I0
S'least'
p451
tp452
a(I84
I9
F0.625
S'fair'
p453
tp454
a(I84
I9
F-0.5
S'poor'
p455
tp456
a(I142
I0
F1.0
S'sensational'
p457
tp458
a(I148
I0
I0
g17
tp459
a(I173
I19
F0.5
S'true'
p460
tp461
a(I173
I66
F0.125
g19
tp462
a(I174
I4
F0.875
S'happy'
p463
tp464
a(I174
I23
F0.25
S'original'
p465
tp466
as(S'life'
p467
S'one'
p468
S'l120'
p469
tp470
(lp471
(I26
I0
F-0.25
S'google'
p472
tp473
as(S'memory'
p474
tp475
(lp476
(I19
I0
I0
S'big'
p477
tp478
a(I80
I6
F0.625
S'accessible'
p479
tp480
a(I84
I16
F-0.625
S'generous'
p481
tp482
a(I116
I5
I0
S'internal'
p483
tp484
a(I122
I5
I0
S'internal'
p485
tp486
a(I173
I29
I0
S'full'
p487
tp488
a(I174
I4
F-0.25
S'low'
p489
tp490
a(I177
I9
F-0.25
S'intensive'
p491
tp492
as(S'build'
p493
S'quality'
p494
tp495
(lp496
(I4
I1
F1.0
S'good'
p497
tp498
a(I61
I2
I0
S'great'
p499
tp500
a(I80
I15
F-0.625
S'average'
p501
tp502
as(S'right'
p503
tp504
(lp505
(I122
I5
I0
S'great'
p506
tp507
a(I173
I7
F0.375
S'upper'
p508
tp509
as(S'things'
p510
tp511
(lp512
(I2
I3
F-0.375
S'small'
p513
tp514
a(I60
I1
F0.625
S'positive'
p515
tp516
a(I124
I0
I0
S'few'
p517
tp518
a(I124
I9
F-0.625
S'other'
p519
tp520
a(I136
I4
F-0.375
S'unacceptable'
p521
tp522
a(I173
I69
I0
S'least'
p523
tp524
a(I173
I84
I0
S'more'
p525
tp526
a(I177
I2
F1.0
S'good'
p527
tp528
as(S'a'
p529
S'samsung'
p530
S'galaxy'
p531
tp532
(lp533
(I22
I0
F1.0
S'good'
p534
tp535
a(I133
I0
F-0.75
S'unreliable'
p536
tp537
a(I133
I0
I0
S'more'
p538
tp539
a(I147
I0
F0.375
S'much'
p540
tp541
a(I173
I6
F0.375
S'similar'
p542
tp543
as(S'on'
p544
S'straight'
p545
S'talk'
p546
tp547
(lp548
(I17
I9
F0.625
g82
tp549
a(I17
I12
F0.625
g84
tp550
a(I24
I0
F0.625
S'straight'
p551
tp552
a(I24
I5
F0.625
g86
tp553
a(I24
I7
F0.625
g88
tp554
a(I24
I7
F0.625
g90
tp555
a(I63
I0
F0.625
g94
tp556
a(I78
I0
F0.625
S'straight'
p557
tp558
a(I93
I4
F0.625
S'straight'
p559
tp560
a(I93
I4
F-0.125
S'front'
p561
tp562
a(I93
I5
F0.625
g96
tp563
a(I93
I5
F0.625
g98
tp564
a(I125
I2
F0.625
g100
tp565
a(I145
I2
F0.625
S'straight'
p566
tp567
a(I183
I2
F0.625
g104
tp568
as(S'well'
p569
tp570
(lp571
(I70
I8
F1.0
S'good'
p572
tp573
as(S'one'
p574
S'l120'
p575
tp576
(lp577
(I26
I0
F-0.25
g472
tp578
a(I147
I1
I0
S'wow'
p579
tp580
as(S'android'
p581
tp582
(lp583
(I42
I2
F0.875
S'nice'
p584
tp585
a(I42
I2
F0.375
S'much'
p586
tp587
a(I42
I2
I0
S'standard'
p588
tp589
a(I47
I2
I0
S'full'
p590
tp591
a(I64
I3
I0
S'great'
p592
tp593
a(I157
I6
F1.0
S'best'
p594
tp595
a(I166
I0
F0.125
S'first'
p596
tp597
a(I166
I0
F0.125
S'first'
p598
tp599
a(I173
I73
F0.25
S'original'
p600
tp601
a(I173
I87
I0
S'useful'
p602
tp603
as(S'thing'
p604
tp605
(lp606
(I18
I3
F1.0
S'best'
p607
tp608
a(I64
I3
I0
S'only'
p609
tp610
a(I89
I0
I0
S'only'
p611
tp612
a(I97
I1
I0
S'only'
p613
tp614
a(I138
I1
F0.125
S'first'
p615
tp616
a(I138
I2
F-0.75
S'sad'
p617
tp618
a(I138
I2
F-0.875
S'hard'
p619
tp620
a(I145
I1
I0
S'next'
p621
tp622
a(I145
I1
F1.0
S'best'
p623
tp624
a(I159
I1
F0.125
S'first'
p625
tp626
a(I169
I5
F-0.625
S'other'
p627
tp628
as(S'l120'
p629
tp630
(lp631
(I26
I0
F-0.25
g472
tp632
a(I147
I1
I0
g579
tp633
as(S'data'
p634
tp635
(lp636
(I50
I3
I0
S'cable'
p637
tp638
a(I69
I6
F0.125
S'able'
p639
tp640
a(I80
I1
I0
S'cable'
p641
tp642
a(I91
I3
F-0.75
S'dead'
p643
tp644
a(I108
I2
I0
S'particular'
p645
tp646
a(I108
I2
I0
S'mobile'
p647
tp648
a(I122
I6
I0
S'mobile'
p649
tp650
a(I125
I2
F0.125
S'able'
p651
tp652
a(I133
I13
F-0.5
S'unlimited'
p653
tp654
a(I133
I13
F-0.5
S'international'
p655
tp656
as(S'quality'
p657
tp658
(lp659
(I4
I1
F1.0
g497
tp660
a(I9
I0
I0
S'high'
p661
tp662
a(I11
I0
F1.0
S'good'
p663
tp664
a(I13
I1
F0.625
S'perfect'
p665
tp666
a(I17
I0
F1.0
S'good'
p667
tp668
a(I20
I7
F1.0
S'good'
p669
tp670
a(I20
I7
I0
S'external'
p671
tp672
a(I26
I0
F1.0
S'good'
p673
tp674
a(I32
I5
F1.0
S'good'
p675
tp676
a(I69
I7
F-0.5
S'call'
p677
tp678
a(I69
I7
I0
S'android'
p679
tp680
a(I80
I15
F-0.625
g501
tp681
a(I84
I21
F1.0
S'good'
p682
tp683
a(I95
I4
F1.0
S'good'
p684
tp685
a(I113
I1
F1.0
S'good'
p686
tp687
a(I145
I2
F1.0
S'good'
p688
tp689
a(I173
I52
F1.0
S'good'
p690
tp691
as(S'size'
p692
tp693
(lp694
(I18
I3
I0
S'big'
p695
tp696
a(I31
I3
F1.0
S'good'
p697
tp698
a(I80
I9
I0
S'same'
p699
tp700
a(I166
I4
F0.875
S'happier'
p701
tp702
a(I171
I1
F1.0
S'good'
p703
tp704
a(I173
I91
F0.375
S'similar'
p705
tp706
a(I178
I3
I0
S'large'
p707
tp708
as(S'make'
p709
tp710
(lp711
(I103
I5
F-0.75
S'little'
p712
tp713
a(I103
I5
I0
S'big'
p714
tp715
as(S'work'
p716
tp717
(lp718
(I18
I8
I0
S'great'
p719
tp720
a(I122
I10
F-0.75
S'sufficient'
p721
tp722
a(I164
I2
I0
S'great'
p723
tp724
as(S'battery'
p725
S'life'
p726
tp727
(lp728
(I3
I4
F0.5
S'so-so'
p729
tp730
a(I8
I6
I0
S'website'
p731
tp732
a(I20
I8
F1.0
S'best'
p733
tp734
a(I26
I0
F0.375
S'extra'
p735
tp736
a(I47
I4
F-0.625
S'other'
p737
tp738
a(I47
I4
I0
S'great'
p739
tp740
a(I49
I15
F-0.5
S'poor'
p741
tp742
a(I49
I15
F-0.25
S'low'
p743
tp744
a(I50
I7
F1.0
S'good'
p745
tp746
a(I62
I3
I0
S'great'
p747
tp748
a(I68
I1
F0.5
S'satisfied'
p749
tp750
a(I68
I1
F1.0
S'good'
p751
tp752
a(I84
I9
I0
g451
tp753
a(I84
I9
F0.625
g453
tp754
a(I84
I9
F-0.5
g455
tp755
a(I103
I1
I0
S'great'
p756
tp757
a(I110
I2
F-0.75
S'short'
p758
tp759
a(I110
I2
I0
S'wish'
p760
tp761
a(I114
I1
F1.0
S'good'
p762
tp763
a(I157
I5
I0
S'great'
p764
tp765
a(I172
I4
F1.0
S'good'
p766
tp767
a(I174
I4
F-0.75
S'short'
p768
tp769
a(I174
I11
I0
S'great'
p770
tp771
a(I174
I23
F-0.25
S'low'
p772
tp773
a(I174
I27
F1.0
S'good'
p774
tp775
a(I183
I3
I0
S'great'
p776
tp777
a(I183
I4
F1.0
S'good'
p778
tp779
as(S'talk'
p780
tp781
(lp782
(I17
I3
F0.625
S'straight'
p783
tp784
a(I17
I9
F0.625
g82
tp785
a(I17
I12
F0.625
g84
tp786
a(I24
I0
F0.625
g551
tp787
a(I24
I5
F0.625
g86
tp788
a(I24
I7
F0.625
g88
tp789
a(I24
I7
F0.625
g90
tp790
a(I48
I1
F0.625
g92
tp791
a(I49
I4
F0.625
S'straight'
p792
tp793
a(I63
I0
F0.625
g94
tp794
a(I78
I0
F0.625
g557
tp795
a(I93
I4
F0.625
g559
tp796
a(I93
I4
F-0.125
g561
tp797
a(I93
I5
F0.625
g96
tp798
a(I93
I5
F0.625
g98
tp799
a(I125
I2
F0.625
g100
tp800
a(I145
I2
F0.625
g566
tp801
a(I150
I8
F0.625
g102
tp802
a(I169
I18
F0.625
S'straight'
p803
tp804
a(I183
I2
F0.625
g104
tp805
as(S'bought'
p806
tp807
(lp808
(I36
I0
I0
S'net'
p809
tp810
a(I71
I0
I0
S'more'
p811
tp812
as(S'problems'
p813
tp814
(lp815
(I20
I11
I0
S'mentioned'
p816
tp817
a(I66
I5
I0
S'either'
p818
tp819
a(I160
I0
I0
S'more'
p820
tp821
as(S'settings'
p822
tp823
(lp824
(I24
I6
I0
S'site'
p825
tp826
a(I50
I3
F-0.25
S'google'
p827
tp828
as(S'back'
p829
tp830
(lp831
(I5
I8
I0
S'normal'
p832
tp833
a(I49
I38
I0
S'slippery'
p834
tp835
a(I50
I3
F0.375
S'flexible'
p836
tp837
a(I74
I0
F0.375
S'new'
p838
tp839
as(S'straight'
p840
S'talk'
p841
tp842
(lp843
(I17
I3
F0.625
g783
tp844
a(I17
I9
F0.625
g82
tp845
a(I17
I12
F0.625
g84
tp846
a(I24
I0
F0.625
g551
tp847
a(I24
I5
F0.625
g86
tp848
a(I24
I7
F0.625
g88
tp849
a(I24
I7
F0.625
g90
tp850
a(I48
I1
F0.625
g92
tp851
a(I49
I4
F0.625
g792
tp852
a(I63
I0
F0.625
g94
tp853
a(I78
I0
F0.625
g557
tp854
a(I93
I4
F0.625
g559
tp855
a(I93
I4
F-0.125
g561
tp856
a(I93
I5
F0.625
g96
tp857
a(I93
I5
F0.625
g98
tp858
a(I125
I2
F0.625
g100
tp859
a(I145
I2
F0.625
g566
tp860
a(I150
I8
F0.625
g102
tp861
a(I169
I18
F0.625
g803
tp862
a(I183
I2
F0.625
g104
tp863
as(S'life'
p864
tp865
(lp866
(I3
I4
F0.5
g729
tp867
a(I16
I1
I0
S'great'
p868
tp869
a(I47
I4
I0
g739
tp870
a(I49
I1
I0
g442
tp871
a(I49
I22
I0
g444
tp872
a(I49
I54
I0
g15
tp873
a(I50
I7
F1.0
g745
tp874
a(I68
I1
F1.0
g751
tp875
a(I76
I0
F0.75
g449
tp876
a(I84
I9
I0
g451
tp877
a(I84
I9
F0.625
g453
tp878
a(I84
I9
F-0.5
g455
tp879
a(I103
I1
I0
g756
tp880
a(I110
I2
F-0.75
g758
tp881
a(I110
I2
I0
g760
tp882
a(I142
I0
F1.0
g457
tp883
a(I148
I0
I0
g17
tp884
a(I157
I5
I0
g764
tp885
a(I172
I4
F1.0
g766
tp886
a(I173
I19
F0.5
g460
tp887
a(I173
I56
I0
S'real'
p888
tp889
a(I173
I66
F0.125
g19
tp890
a(I174
I25
F0.375
S'new'
p891
tp892
a(I174
I25
I0
S'real'
p893
tp894
as(S'third'
p895
S'party'
p896
tp897
(lp898
(I80
I6
I0
S'third'
p899
tp900
a(I106
I6
I0
S'third'
p901
tp902
a(I173
I84
I0
S'third'
p903
tp904
a(I173
I94
F-0.625
S'other'
p905
tp906
a(I173
I94
I0
S'third'
p907
tp908
a(I173
I99
I0
S'third'
p909
tp910
as(S'great'
p911
tp912
(lp913
(I145
I1
I0
S'same'
p914
tp915
as(S'display'
p916
tp917
(lp918
(I45
I1
F0.75
S'beautiful'
p919
tp920
a(I49
I10
F0.75
S'beautiful'
p921
tp922
a(I61
I1
I0
S'great'
p923
tp924
a(I61
I1
F-0.75
S'bright'
p925
tp926
a(I61
I1
F0.25
S'sharp'
p927
tp928
a(I81
I3
I0
S'great'
p929
tp930
a(I175
I1
F0.75
S'beautiful'
p931
tp932
as(S'battery'
p933
tp934
(lp935
(I5
I2
F0.375
S'extra'
p936
tp937
a(I8
I6
I0
g731
tp938
a(I20
I8
F1.0
g733
tp939
a(I26
I0
F0.375
g735
tp940
a(I47
I4
F-0.625
g737
tp941
a(I49
I15
F-0.5
g741
tp942
a(I49
I15
F-0.25
g743
tp943
a(I49
I18
F-0.625
S'fresh'
p944
tp945
a(I62
I3
I0
g747
tp946
a(I68
I1
F0.5
g749
tp947
a(I84
I1
F0.375
S'extra'
p948
tp949
a(I84
I14
F0.375
S'extra'
p950
tp951
a(I93
I14
I0
S'fast'
p952
tp953
a(I96
I1
I0
S'close'
p954
tp955
a(I113
I2
F0.875
S'nice'
p956
tp957
a(I114
I1
F1.0
g762
tp958
a(I119
I9
F0.625
S'removable'
p959
tp960
a(I136
I9
F0.625
S'removable'
p961
tp962
a(I141
I8
F0.625
S'replaceable'
p963
tp964
a(I155
I1
F1.0
S'good'
p965
tp966
a(I159
I9
F0.5
S'second'
p967
tp968
a(I173
I62
F0.625
S'removable'
p969
tp970
a(I173
I65
F-0.5
S'weaker'
p971
tp972
a(I173
I68
F0.625
S'removable'
p973
tp974
a(I174
I4
F-0.75
g768
tp975
a(I174
I11
I0
g770
tp976
a(I174
I23
F-0.25
g772
tp977
a(I174
I27
F1.0
g774
tp978
a(I176
I4
I0
S'great'
p979
tp980
a(I183
I3
I0
g776
tp981
a(I183
I4
F1.0
g778
tp982
as(S't'
p983
S'sim'
p984
S'card'
p985
tp986
(lp987
(I49
I29
I0
g202
tp988
a(I50
I3
F0.375
g204
tp989
a(I58
I7
F-0.5
g206
tp990
a(I80
I20
I0
g208
tp991
a(I93
I2
I0
g210
tp992
a(I101
I9
I0
g212
tp993
a(I136
I20
F0.5
g214
tp994
a(I136
I20
F0.5
g216
tp995
a(I175
I2
I0
g218
tp996
as(S'samsung'
p997
S'galaxy'
p998
tp999
(lp1000
(I22
I0
F1.0
g534
tp1001
a(I133
I0
F-0.75
g536
tp1002
a(I133
I0
I0
g538
tp1003
a(I147
I0
F0.375
g540
tp1004
a(I173
I6
F0.375
g542
tp1005
as(S'looking'
p1006
tp1007
(lp1008
(I61
I5
I0
S'great'
p1009
tp1010
a(I70
I1
F1.0
S'good'
p1011
tp1012
as(S'pretty'
p1013
tp1014
(lp1015
(I156
I2
F-0.625
S'other'
p1016
tp1017
as(S'screen'
p1018
tp1019
(lp1020
(I3
I2
F0.25
S'sharp'
p1021
tp1022
a(I6
I1
I0
S'large'
p1023
tp1024
a(I7
I1
I0
S'big'
p1025
tp1026
a(I15
I3
F0.5
S'touch'
p1027
tp1028
a(I16
I1
I0
S'big'
p1029
tp1030
a(I23
I3
I0
S'same'
p1031
tp1032
a(I30
I0
I0
S'great'
p1033
tp1034
a(I34
I1
I0
S'great'
p1035
tp1036
a(I38
I2
I0
S'big'
p1037
tp1038
a(I41
I5
I0
S'crystal'
p1039
tp1040
a(I41
I5
F0.5
S'clear'
p1041
tp1042
a(I49
I9
F0.25
S'larger'
p1043
tp1044
a(I69
I5
F-0.75
S'bright'
p1045
tp1046
a(I73
I1
I0
S'great'
p1047
tp1048
a(I73
I1
F-0.125
S'super'
p1049
tp1050
a(I73
I1
F0.5
S'clear'
p1051
tp1052
a(I89
I0
I0
S'great'
p1053
tp1054
a(I89
I0
I0
S'big'
p1055
tp1056
a(I96
I2
F0.5
S'clear'
p1057
tp1058
a(I103
I3
F1.0
S'best'
p1059
tp1060
a(I103
I3
I0
S'soft'
p1061
tp1062
a(I103
I4
I0
S'sensitive'
p1063
tp1064
a(I119
I2
F0.5
S'clear'
p1065
tp1066
a(I119
I2
F0.625
S'easy'
p1067
tp1068
a(I119
I2
F-0.625
S'bad'
p1069
tp1070
a(I124
I1
F1.0
S'good'
p1071
tp1072
a(I129
I6
F-0.75
S'bright'
p1073
tp1074
a(I129
I6
F0.5
S'clear'
p1075
tp1076
a(I132
I0
F0.5
S'touch'
p1077
tp1078
a(I138
I2
I0
S'big'
p1079
tp1080
a(I169
I8
F0.5
S'clear'
p1081
tp1082
a(I169
I8
F0.875
S'nice'
p1083
tp1084
a(I173
I99
F0.25
S'largest'
p1085
tp1086
a(I174
I9
F0.125
S'visible'
p1087
tp1088
a(I174
I11
F0.875
S'happy'
p1089
tp1090
a(I174
I27
F-0.5
S'replaced'
p1091
tp1092
a(I178
I3
I0
S'great'
p1093
tp1094
a(I181
I0
I0
S'large'
p1095
tp1096
as(S'time'
p1097
tp1098
(lp1099
(I47
I2
F0.125
S'first'
p1100
tp1101
a(I49
I39
F-0.875
S'hard'
p1102
tp1103
a(I53
I2
F-0.75
S'short'
p1104
tp1105
a(I53
I2
F-0.5
S'less'
p1106
tp1107
a(I59
I0
I0
S'most'
p1108
tp1109
a(I80
I1
F0.125
S'first'
p1110
tp1111
a(I91
I2
F0.125
S'last'
p1112
tp1113
a(I113
I0
I0
S'same'
p1114
tp1115
a(I173
I38
I0
S'full'
p1116
tp1117
a(I183
I2
F-0.5
S'sure'
p1118
tp1119
a(I183
I2
F0.75
S'due'
p1120
tp1121
as(S'version'
p1122
S'of'
p1123
S'android'
p1124
tp1125
(lp1126
(I3
I4
I0
g39
tp1127
a(I144
I3
I0
g45
tp1128
a(I173
I12
F-0.125
g47
tp1129
a(I173
I12
I0
g49
tp1130
a(I173
I26
I0
g57
tp1131
a(I173
I26
F0.5
g59
tp1132
a(I173
I26
I0
g61
tp1133
a(I173
I69
I0
g67
tp1134
a(I173
I73
F0.25
g600
tp1135
a(I173
I78
I0
g69
tp1136
as(S'apn'
p1137
S'settings'
p1138
tp1139
(lp1140
(I17
I12
F0.25
S'original'
p1141
tp1142
a(I17
I12
F0.25
S'original'
p1143
tp1144
a(I24
I6
I0
g825
tp1145
a(I24
I7
F-0.625
S'other'
p1146
tp1147
a(I50
I3
F-0.25
g827
tp1148
as(S'headphones'
p1149
tp1150
(lp1151
(I136
I18
F0.125
S'charger'
p1152
tp1153
a(I173
I88
F0.875
S'nice'
p1154
tp1155
a(I173
I89
F0.25
S'original'
p1156
tp1157
a(I173
I93
F-0.625
S'other'
p1158
tp1159
a(I173
I93
I0
S'later'
p1160
tp1161
a(I173
I94
I0
S'different'
p1162
tp1163
as(S'ear'
p1164
S'buds'
p1165
tp1166
(lp1167
(I52
I1
F0.75
S'ear'
p1168
tp1169
a(I129
I0
F0.75
S'ear'
p1170
tp1171
a(I169
I9
F0.75
S'ear'
p1172
tp1173
as(S'blu'
p1174
S'studio'
p1175
tp1176
(lp1177
(I174
I15
F0.375
S'honest'
p1178
tp1179
a(I174
I15
F-0.5
S'answer'
p1180
tp1181
a(I174
I27
F0.75
S'give'
p1182
tp1183
a(I174
I27
F-0.125
S'present'
p1184
tp1185
as(S'samsung'
p1186
tp1187
(lp1188
(I18
I6
F0.375
S'new'
p1189
tp1190
a(I22
I0
F1.0
g534
tp1191
a(I84
I28
F1.0
S'better'
p1192
tp1193
a(I133
I0
F-0.75
g536
tp1194
a(I171
I2
F0.375
S'similar'
p1195
tp1196
a(I173
I6
F0.375
g542
tp1197
as(S'case'
p1198
tp1199
(lp1200
(I13
I6
F1.0
S'good'
p1201
tp1202
a(I72
I0
F-0.75
S'difficult'
p1203
tp1204
a(I92
I7
F-0.25
S'thin'
p1205
tp1206
a(I124
I2
F-0.375
S'black'
p1207
tp1208
a(I133
I3
F0.125
S'protective'
p1209
tp1210
a(I136
I18
I0
S'clip-on'
p1211
tp1212
a(I162
I5
F-0.625
S'other'
p1213
tp1214
a(I173
I61
F0.875
S'nice'
p1215
tp1216
a(I173
I62
I0
S'hybrid'
p1217
tp1218
a(I173
I62
F0.125
S'protective'
p1219
tp1220
as(S'everything'
p1221
tp1222
(lp1223
(I50
I1
I0
S'big'
p1224
tp1225
a(I50
I1
F-0.75
S'bright'
p1226
tp1227
a(I55
I0
I0
S'more'
p1228
tp1229
a(I59
I1
I0
S'few'
p1230
tp1231
a(I64
I3
I0
S'great'
p1232
tp1233
a(I93
I11
I0
S'great'
p1234
tp1235
a(I178
I2
I0
S'great'
p1236
tp1237
a(I178
I2
F0.5
S'greater'
p1238
tp1239
as(S'like'
p1240
g529
S'samsung'
p1241
tp1242
(lp1243
(I84
I28
F1.0
g1192
tp1244
as(g529
S'screen'
p1245
S'protector'
p1246
tp1247
(lp1248
(I7
I1
I0
g1025
tp1249
as(S'camera'
p1250
tp1251
(lp1252
(I16
I3
F0.25
S'main'
p1253
tp1254
a(I50
I2
F0.125
S'solid'
p1255
tp1256
a(I93
I4
I0
S'great'
p1257
tp1258
a(I97
I1
I0
S'download'
p1259
tp1260
a(I119
I9
F-0.625
S'green'
p1261
tp1262
a(I123
I3
I0
S'real'
p1263
tp1264
a(I124
I5
I0
S'great'
p1265
tp1266
a(I138
I1
F0.875
S'nice'
p1267
tp1268
a(I141
I8
I0
S'great'
p1269
tp1270
a(I141
I8
F-0.25
S'low'
p1271
tp1272
a(I150
I2
I0
S'great'
p1273
tp1274
a(I169
I16
I0
S'great'
p1275
tp1276
a(I170
I1
F1.0
S'better'
p1277
tp1278
a(I172
I12
I0
S'incredible'
p1279
tp1280
a(I178
I7
F1.0
S'good'
p1281
tp1282
a(I181
I0
F1.0
S'good'
p1283
tp1284
as(S'using'
p1285
tp1286
(lp1287
(I133
I21
I0
S'more'
p1288
tp1289
as(S'products'
p1290
tp1291
(lp1292
(I106
I3
I0
S'blue'
p1293
tp1294
a(I145
I7
I0
S'great'
p1295
tp1296
as(S'note'
p1297
S'ii'
p1298
tp1299
(lp1300
(I49
I13
F-0.5
S'dull'
p1301
tp1302
a(I49
I15
I0
S'identical'
p1303
tp1304
as(S'13'
p1305
S'mp'
p1306
tp1307
(lp1308
(I38
I2
F0.875
S'nice'
p1309
tp1310
as(S'mobile'
p1311
tp1312
(lp1313
(I173
I58
I0
S'fast'
p1314
tp1315
as(S'galaxy'
p1316
tp1317
(lp1318
(I64
I0
I0
S'close'
p1319
tp1320
a(I93
I7
F-0.625
S'other'
p1321
tp1322
a(I122
I7
I0
S'identical'
p1323
tp1324
a(I133
I0
I0
g538
tp1325
a(I147
I0
F0.375
g540
tp1326
as(S'pictures'
p1327
tp1328
(lp1329
(I16
I4
F0.25
S'sharp'
p1330
tp1331
a(I73
I1
F1.0
S'good'
p1332
tp1333
a(I73
I1
I0
S'least'
p1334
tp1335
a(I84
I17
F-0.625
S'other'
p1336
tp1337
a(I90
I0
I0
S'great'
p1338
tp1339
a(I119
I9
F1.0
S'best'
p1340
tp1341
a(I136
I15
F0.75
S'beautiful'
p1342
tp1343
a(I141
I8
F0.75
S'receive'
p1344
tp1345
a(I169
I16
F-0.125
S'super'
p1346
tp1347
a(I169
I16
F0.5
S'clear'
p1348
tp1349
a(I169
I19
I0
S'text'
p1350
tp1351
a(I171
I1
F1.0
S'good'
p1352
tp1353
a(I171
I1
F0.625
S'easy'
p1354
tp1355
as(S'signal'
p1356
S'strength'
p1357
tp1358
(lp1359
(I173
I11
I0
S'normal'
p1360
tp1361
a(I173
I11
I0
S'signal'
p1362
tp1363
a(I177
I5
I0
S'specific'
p1364
tp1365
a(I177
I5
I0
S'signal'
p1366
tp1367
as(S'people'
p1368
tp1369
(lp1370
(I84
I2
I0
S'most'
p1371
tp1372
a(I93
I6
I0
S'few'
p1373
tp1374
a(I140
I7
F-0.625
S'other'
p1375
tp1376
as(S'galaxy'
p1377
S's4'
p1378
tp1379
(lp1380
(I45
I0
F-0.5
g238
tp1381
a(I93
I7
F-0.625
g1321
tp1382
a(I122
I7
I0
g1323
tp1383
as(S'better'
p1384
tp1385
(lp1386
(I180
I0
F0.125
S'able'
p1387
tp1388
as(S'screen'
p1389
S'protector'
p1390
tp1391
(lp1392
(I7
I1
I0
g1025
tp1393
as(S'device'
p1394
tp1395
(lp1396
(I21
I0
F1.0
S'good'
p1397
tp1398
a(I61
I11
F-0.625
S'other'
p1399
tp1400
a(I80
I16
F0.125
S'solid'
p1401
tp1402
a(I101
I2
F-0.125
S'overall'
p1403
tp1404
a(I101
I2
I0
S'great'
p1405
tp1406
a(I101
I14
I0
S'more'
p1407
tp1408
a(I159
I10
I0
S'great'
p1409
tp1410
a(I164
I1
F0.75
S'beautiful'
p1411
tp1412
a(I172
I11
I0
S'latest'
p1413
tp1414
as(S'kit'
p1415
S'kat'
p1416
tp1417
(lp1418
(I140
I2
I0
S'android'
p1419
tp1420
as(S'an'
p1421
S'extra'
p1422
S'battery'
p1423
tp1424
(lp1425
(I5
I2
F0.375
g936
tp1426
a(I26
I0
F0.375
g735
tp1427
a(I84
I1
F0.375
g948
tp1428
a(I84
I14
F0.375
g950
tp1429
as(S'blu'
p1430
S'products'
p1431
tp1432
(lp1433
(I106
I3
I0
g1293
tp1434
a(I145
I7
I0
g1295
tp1435
a(I174
I4
F0.875
g463
tp1436
as(S'apps'
p1437
tp1438
(lp1439
(I8
I6
F-0.5
S'open'
p1440
tp1441
a(I15
I4
F0.125
S'able'
p1442
tp1443
a(I49
I24
F0.375
S'available'
p1444
tp1445
a(I101
I1
F-0.625
S'other'
p1446
tp1447
a(I173
I29
I0
S'many'
p1448
tp1449
as(S'days'
p1450
tp1451
(lp1452
(I3
I3
I0
S'few'
p1453
tp1454
a(I25
I3
I0
S'great'
p1455
tp1456
a(I96
I1
I0
S'full'
p1457
tp1458
a(I130
I4
F0.875
S'happy'
p1459
tp1460
a(I136
I5
F1.0
S'good'
p1461
tp1462
a(I136
I5
F-0.625
S'bad'
p1463
tp1464
a(I136
I5
F-0.375
S'ugly'
p1465
tp1466
as.