(dp0
(S'google'
p1
tp2
(lp3
(I255
I0
I0
S'big'
p4
tp5
as(S'mms'
p6
S'message'
p7
tp8
(lp9
(I197
I38
F0.75
S'receive'
p10
tp11
as(S'samsung'
p12
S'galaxy'
p13
S'centura'
p14
tp15
(lp16
(I12
I0
I0
S'full'
p17
tp18
a(I59
I0
F0.375
S'new'
p19
tp20
a(I127
I0
I0
S'more'
p21
tp22
a(I187
I8
F-0.625
S'glad'
p23
tp24
a(I187
I8
I0
S'more'
p25
tp26
a(I202
I1
I0
S'valet'
p27
tp28
a(I212
I0
F0.375
S'new'
p29
tp30
a(I356
I13
F0.375
S'much'
p31
tp32
a(I356
I13
F1.0
S'better'
p33
tp34
as(S'nice'
p35
tp36
(lp37
(I8
I1
I0
S'large'
p38
tp39
as(S'a'
p40
S'tracfone'
p41
S'user'
p42
tp43
(lp44
(I20
I7
F-0.625
S'lighter'
p45
tp46
a(I37
I4
F0.125
S'typical'
p47
tp48
a(I236
I7
F0.5
S'willing'
p49
tp50
a(I251
I0
I0
S'big'
p51
tp52
a(I306
I0
F-0.75
S'comfortable'
p53
tp54
a(I325
I0
F0.625
S'easy'
p55
tp56
as(S'triple'
p57
S'minutes'
p58
tp59
(lp60
(I24
I10
I0
S'many'
p61
tp62
a(I24
I10
F0.375
S'new'
p63
tp64
a(I74
I27
F-0.25
S'triple'
p65
tp66
a(I92
I1
F-0.25
S'triple'
p67
tp68
a(I92
I1
F-0.625
S'average'
p69
tp70
a(I108
I1
I0
S'next'
p71
tp72
a(I114
I6
F-0.25
S'triple'
p73
tp74
a(I147
I7
F-0.25
S'triple'
p75
tp76
a(I177
I4
F-0.25
S'triple'
p77
tp78
a(I190
I6
F-0.625
S'free'
p79
tp80
a(I238
I0
F-0.25
S'triple'
p81
tp82
a(I265
I3
F-0.25
S'triple'
p83
tp84
a(I275
I6
F-0.25
S'triple'
p85
tp86
a(I284
I4
I0
S'lifetime'
p87
tp88
a(I336
I10
F0.125
S'able'
p89
tp90
as(S'years'
p91
tp92
(lp93
(I21
I6
I0
S'old'
p94
tp95
a(I82
I1
F0.125
S'last'
p96
tp97
a(I116
I0
I0
S'old'
p98
tp99
a(I116
I2
I0
S'many'
p100
tp101
a(I143
I0
F1.0
S'good'
p102
tp103
a(I166
I0
F-0.25
S'cheaper'
p104
tp105
a(I282
I3
F0.875
S'happy'
p106
tp107
a(I305
I4
I0
S'old'
p108
tp109
a(I308
I0
I0
S'old'
p110
tp111
a(I337
I1
I0
S'overseas'
p112
tp113
as(S'verizon'
p114
tp115
(lp116
(I43
I2
F0.125
S'tower'
p117
tp118
a(I124
I27
F0.5
S'expensive'
p119
tp120
a(I257
I2
F-0.5
S'weaker'
p121
tp122
a(I257
I2
F-0.5
S'regular'
p123
tp124
a(I306
I21
I0
S'android'
p125
tp126
as(S'mobile'
p127
S'data'
p128
tp129
(lp130
(I48
I4
F0.75
S'due'
p131
tp132
a(I48
I4
I0
S'mobile'
p133
tp134
a(I48
I5
I0
S'mobile'
p135
tp136
a(I48
I6
F-0.5
S'sure'
p137
tp138
a(I48
I6
I0
S'mobile'
p139
tp140
a(I94
I18
I0
S'mobile'
p141
tp142
a(I97
I4
I0
S'mobile'
p143
tp144
a(I97
I4
F-0.5
S'sure'
p145
tp146
a(I97
I4
I0
S'mobile'
p147
tp148
a(I97
I7
I0
S'mobile'
p149
tp150
a(I97
I8
I0
S'mobile'
p151
tp152
a(I97
I8
I0
S'mobile'
p153
tp154
a(I97
I9
I0
S'mobile'
p155
tp156
a(I97
I9
F-0.5
S'open'
p157
tp158
a(I97
I9
I0
S'e-mail'
p159
tp160
a(I97
I9
I0
S'mobile'
p161
tp162
a(I197
I38
F0.375
S'enable'
p163
tp164
a(I206
I18
I0
S'high'
p165
tp166
a(I250
I4
I0
S'mobile'
p167
tp168
a(I250
I8
F0.375
S'much'
p169
tp170
a(I250
I8
I0
S'mobile'
p171
tp172
a(I254
I16
I0
S'mobile'
p173
tp174
a(I269
I2
I0
S'mobile'
p175
tp176
a(I321
I18
I0
S'mobile'
p177
tp178
as(S'customer'
p179
tp180
(lp181
(I65
I5
F0.875
S'happy'
p182
tp183
a(I139
I1
F0.125
S'able'
p184
tp185
a(I143
I14
I0
S'mobile'
p186
tp187
a(I143
I15
F-0.625
S'other'
p188
tp189
a(I163
I23
F0.875
S'happy'
p190
tp191
a(I366
I4
F0.125
S'magic'
p192
tp193
as(S'triple'
p194
tp195
(lp196
(I108
I1
I0
g71
tp197
a(I190
I6
F-0.625
g79
tp198
a(I284
I4
I0
g87
tp199
as(S'learning'
p200
S'curve'
p201
tp202
(lp203
(I168
I3
I0
S'big'
p204
tp205
a(I168
I3
I0
S'prior'
p206
tp207
a(I190
I1
F-0.75
S'little'
p208
tp209
a(I240
I6
F-0.5
S'long'
p210
tp211
a(I275
I3
F0.375
S'steep'
p212
tp213
as(S'apps'
p214
S'from'
p215
S'google'
p216
tp217
(lp218
(I19
I1
F-0.375
S'smooth'
p219
tp220
a(I20
I5
I0
S'many'
p221
tp222
a(I20
I5
I0
S'different'
p223
tp224
a(I85
I1
F-0.25
S'google'
p225
tp226
a(I190
I2
I0
S'few'
p227
tp228
a(I266
I2
F0.25
S'favorite'
p229
tp230
a(I327
I3
F-0.625
S'free'
p231
tp232
as(S'number'
p233
S'and'
p234
S'minutes'
p235
tp236
(lp237
(I68
I3
I0
S'old'
p238
tp239
a(I68
I3
F0.375
S'new'
p240
tp241
a(I120
I4
I0
S'own'
p242
tp243
a(I143
I6
F0.375
S'complete'
p244
tp245
a(I262
I1
I0
S'old'
p246
tp247
a(I333
I7
I0
S'later'
p248
tp249
a(I351
I2
F0.625
S'hold'
p250
tp251
a(I351
I2
F0.625
S'hold'
p252
tp253
a(I351
I2
F0.25
S'main'
p254
tp255
a(I352
I3
I0
S'old'
p256
tp257
a(I366
I4
I0
S'old'
p258
tp259
a(I366
I4
F0.375
S'new'
p260
tp261
as(S'album'
p262
S'art'
p263
tp264
(lp265
(I144
I32
F0.125
S'first'
p266
tp267
a(I144
I32
I0
S'song'
p268
tp269
as(S'bought'
p270
tp271
(lp272
(I366
I1
F-0.75
S'stupid'
p273
tp274
a(I366
I1
F0.5
S'true'
p275
tp276
as(S'with'
p277
S'triple'
p278
S'minutes'
p279
tp280
(lp281
(I74
I27
F-0.25
g65
tp282
a(I92
I1
F-0.25
g67
tp283
a(I92
I1
F-0.625
g69
tp284
a(I114
I6
F-0.25
g73
tp285
a(I147
I7
F-0.25
g75
tp286
a(I177
I4
F-0.25
g77
tp287
a(I190
I6
F-0.625
g79
tp288
a(I238
I0
F-0.25
g81
tp289
a(I265
I3
F-0.25
g83
tp290
a(I284
I4
I0
g87
tp291
a(I336
I10
F0.125
g89
tp292
as(S'calls'
p293
tp294
(lp295
(I17
I2
F1.0
S'best'
p296
tp297
a(I35
I6
I0
S'few'
p298
tp299
a(I43
I2
I0
S'many'
p300
tp301
a(I91
I2
I0
S'many'
p302
tp303
a(I127
I16
I0
S'signal'
p304
tp305
a(I168
I4
I0
S'old'
p306
tp307
a(I216
I5
I0
S'many'
p308
tp309
a(I237
I1
I0
S'great'
p310
tp311
a(I246
I10
F1.0
S'good'
p312
tp313
a(I270
I1
I0
S'few'
p314
tp315
a(I334
I1
F-0.25
S'dropped'
p316
tp317
a(I341
I4
F0.625
S'easy'
p318
tp319
a(I347
I11
F-0.625
S'other'
p320
tp321
as(S'smartphone'
p322
tp323
(lp324
(I6
I29
F0.375
S'new'
p325
tp326
a(I6
I31
F1.0
S'best'
p327
tp328
a(I9
I1
F-0.25
S'cheaper'
p329
tp330
a(I9
I2
F0.375
S'newer'
p331
tp332
a(I12
I2
I0
S'full'
p333
tp334
a(I19
I1
I0
S'android'
p335
tp336
a(I36
I0
F0.5
S'second'
p337
tp338
a(I36
I0
F-0.25
S'inexpensive'
p339
tp340
a(I89
I17
F0.125
S'first'
p341
tp342
a(I97
I2
F0.5
S'advanced'
p343
tp344
a(I127
I0
F0.125
S'first'
p345
tp346
a(I127
I20
F0.875
S'nice'
p347
tp348
a(I157
I0
F0.125
S'first'
p349
tp350
a(I163
I0
F0.5
S'true'
p351
tp352
a(I163
I0
F0.375
S'available'
p353
tp354
a(I177
I0
F0.125
S'first'
p355
tp356
a(I198
I2
I0
S'basic'
p357
tp358
a(I198
I2
I0
S'great'
p359
tp360
a(I227
I6
F-0.5
S'regular'
p361
tp362
a(I258
I0
F0.125
S'first'
p363
tp364
a(I265
I15
I0
S'great'
p365
tp366
a(I266
I1
F1.0
S'best'
p367
tp368
a(I266
I1
F0.375
S'available'
p369
tp370
a(I270
I8
F0.375
S'new'
p371
tp372
a(I282
I1
F0.5
S'true'
p373
tp374
a(I297
I26
F-0.25
S'cheapest'
p375
tp376
a(I298
I0
I0
S'own'
p377
tp378
a(I298
I0
F0.125
S'first'
p379
tp380
a(I306
I1
I0
S'android'
p381
tp382
a(I343
I1
F0.125
S'first'
p383
tp384
a(I356
I14
F0.125
S'first'
p385
tp386
as(S'card'
p387
tp388
(lp389
(I265
I6
F-0.5
S'separate'
p390
tp391
a(I331
I0
F0.375
S'new'
p392
tp393
a(I350
I5
I0
S'more'
p394
tp395
a(I366
I1
F0.125
S'able'
p396
tp397
as(S'centura'
p398
tp399
(lp400
(I8
I0
F0.375
S'new'
p401
tp402
a(I20
I9
I0
S'galaxy'
p403
tp404
a(I37
I4
F0.25
S'biggest'
p405
tp406
a(I81
I2
F0.125
S'able'
p407
tp408
a(I127
I0
I0
g21
tp409
a(I190
I5
F0.375
S'new'
p410
tp411
a(I202
I1
I0
g27
tp412
a(I223
I5
F0.375
S'new'
p413
tp414
a(I275
I5
I0
S'glitch'
p415
tp416
a(I275
I5
F-0.625
S'free'
p417
tp418
a(I320
I3
I0
S'same'
p419
tp420
a(I359
I0
F1.0
S'good'
p421
tp422
as(S'customer'
p423
S'service'
p424
tp425
(lp426
(I143
I3
F-0.25
S'past'
p427
tp428
a(I143
I14
I0
g186
tp429
a(I263
I0
I0
S'common'
p430
tp431
a(I366
I4
F0.125
g192
tp432
as(S'wifi'
p433
tp434
(lp435
(I120
I3
F0.375
S'available'
p436
tp437
a(I133
I0
I0
S'great'
p438
tp439
a(I133
I0
F0.625
S'easy'
p440
tp441
a(I145
I13
F0.5
S'live'
p442
tp443
a(I145
I22
F0.375
S'much'
p444
tp445
a(I163
I8
F0.375
S'enable'
p446
tp447
a(I197
I10
F-0.5
S'sure'
p448
tp449
a(I234
I17
I0
S'most'
p450
tp451
a(I270
I3
F-0.625
S'free'
p452
tp453
a(I270
I3
F-0.625
S'free'
p454
tp455
a(I306
I13
I0
S'broadcast'
p456
tp457
a(I307
I15
F-0.5
S'sure'
p458
tp459
a(I327
I5
F0.5
S'possible'
p460
tp461
a(I328
I13
F0.5
S'complimentary'
p462
tp463
a(I328
I14
F-0.125
S'public'
p464
tp465
a(I339
I2
F0.375
S'available'
p466
tp467
a(I359
I1
F-0.5
S'call'
p468
tp469
as(S'problem'
p470
tp471
(lp472
(I24
I13
I0
S'real'
p473
tp474
a(I73
I1
I0
S'same'
p475
tp476
a(I111
I6
I0
S'common'
p477
tp478
a(I111
I6
I0
S'android'
p479
tp480
a(I158
I2
I0
S'real'
p481
tp482
a(I257
I4
I0
S'same'
p483
tp484
a(I287
I1
I0
S'only'
p485
tp486
a(I330
I9
I0
S'big'
p487
tp488
as(S'speed'
p489
S'dials'
p490
tp491
(lp492
(I254
I5
F0.5
S'touch'
p493
tp494
as(S'tracfone'
p495
S'service'
p496
tp497
(lp498
(I1
I1
F-0.5
S'sure'
p499
tp500
a(I1
I1
F0.875
S'happier'
p501
tp502
a(I24
I3
F1.0
S'good'
p503
tp504
a(I24
I3
F-0.75
S'little'
p505
tp506
a(I74
I11
F0.375
S'new'
p507
tp508
a(I97
I6
I0
S'net'
p509
tp510
a(I143
I3
F-0.25
g427
tp511
a(I216
I1
I0
S'monthly'
p512
tp513
a(I262
I0
F0.875
S'happy'
p514
tp515
a(I303
I1
F1.0
S'good'
p516
tp517
a(I323
I1
F0.5
S'possible'
p518
tp519
a(I325
I0
F0.625
g55
tp520
a(I333
I6
I0
S'fourth'
p521
tp522
a(I359
I3
I0
S'traditional'
p523
tp524
as(S'android'
p525
tp526
(lp527
(I6
I14
F-0.625
S'free'
p528
tp529
a(I7
I5
F0.125
S'first'
p530
tp531
a(I10
I0
F1.0
S'good'
p532
tp533
a(I12
I3
I0
S'full'
p534
tp535
a(I12
I3
F0.375
S'featured'
p536
tp537
a(I12
I8
F0.125
S'able'
p538
tp539
a(I27
I0
I0
S'great'
p540
tp541
a(I37
I1
F-0.375
S'simple'
p542
tp543
a(I37
I14
F0.5
S'agreeable'
p544
tp545
a(I44
I7
F0.375
S'new'
p546
tp547
a(I101
I0
I0
S'great'
p548
tp549
a(I126
I1
F0.5
S'true'
p550
tp551
a(I126
I18
F0.5
S'true'
p552
tp553
a(I130
I0
I0
S'great'
p554
tp555
a(I175
I0
F0.125
S'first'
p556
tp557
a(I180
I0
F0.125
S'first'
p558
tp559
a(I190
I8
F1.0
S'best'
p560
tp561
a(I200
I8
I0
S'different'
p562
tp563
a(I211
I3
F0.125
S'first'
p564
tp565
a(I228
I0
F0.125
S'first'
p566
tp567
a(I275
I12
F0.625
S'straight'
p568
tp569
a(I295
I3
F0.375
S'new'
p570
tp571
a(I295
I3
F0.125
S'able'
p572
tp573
a(I352
I1
F0.125
S'first'
p574
tp575
as(S'good'
p576
tp577
(lp578
(I355
I0
F-0.625
S'bad'
p579
tp580
a(I355
I0
I0
S'more'
p581
tp582
as(S'text'
p583
tp584
(lp585
(I6
I12
F0.5
S'clear'
p586
tp587
a(I145
I18
I0
S'standard'
p588
tp589
a(I175
I4
F-0.625
S'free'
p590
tp591
a(I197
I11
F-0.75
S'short'
p592
tp593
a(I213
I3
I0
S'android'
p594
tp595
a(I225
I2
F-0.375
S'simple'
p596
tp597
a(I233
I3
F-0.625
S'free'
p598
tp599
a(I261
I4
F-0.625
S'free'
p600
tp601
a(I275
I7
F0.5
S'true'
p602
tp603
as(S'happy'
p604
tp605
(lp606
(I94
I8
F-0.125
S'super'
p607
tp608
a(I238
I5
F0.375
S'new'
p609
tp610
a(I250
I11
F-0.125
S'super'
p611
tp612
a(I262
I0
F0.5
S'clear'
p613
tp614
as(S'price'
p615
tp616
(lp617
(I24
I14
F1.0
S'good'
p618
tp619
a(I25
I1
F0.5
S'reasonable'
p620
tp621
a(I39
I0
I0
S'great'
p622
tp623
a(I41
I0
I0
S'great'
p624
tp625
a(I60
I1
F-0.25
S'low'
p626
tp627
a(I64
I1
F-0.75
S'wrong'
p628
tp629
a(I84
I4
F1.0
S'good'
p630
tp631
a(I92
I0
F1.0
S'good'
p632
tp633
a(I101
I0
I0
S'great'
p634
tp635
a(I101
I2
I0
S'high'
p636
tp637
a(I147
I6
F1.0
S'best'
p638
tp639
a(I151
I0
F-0.25
S'low'
p640
tp641
a(I155
I2
F0.375
S'much'
p642
tp643
a(I155
I2
F-0.25
S'higher'
p644
tp645
a(I183
I6
F-0.25
S'low'
p646
tp647
a(I222
I1
I0
S'third'
p648
tp649
a(I257
I0
F-0.25
S'lower'
p650
tp651
a(I302
I7
F-0.25
S'low'
p652
tp653
a(I308
I0
I0
S'great'
p654
tp655
a(I327
I1
I0
S'android'
p656
tp657
a(I356
I17
I0
S'high'
p658
tp659
a(I362
I1
F-0.625
S'free'
p660
tp661
a(I370
I0
I0
S'great'
p662
tp663
as(S'service'
p664
tp665
(lp666
(I1
I1
F0.875
g501
tp667
a(I24
I3
F1.0
g503
tp668
a(I24
I3
F-0.75
g505
tp669
a(I44
I9
I0
S'different'
p670
tp671
a(I66
I6
F0.125
S'able'
p672
tp673
a(I74
I11
F0.375
g507
tp674
a(I105
I1
I0
S'great'
p675
tp676
a(I143
I3
F-0.25
g427
tp677
a(I216
I1
I0
g512
tp678
a(I258
I1
F1.0
S'good'
p679
tp680
a(I262
I0
F0.875
g514
tp681
a(I263
I0
I0
g430
tp682
a(I289
I4
I0
S'great'
p683
tp684
a(I291
I1
F-0.5
S'unlimited'
p685
tp686
a(I323
I1
F0.5
g518
tp687
as(S'number'
p688
tp689
(lp690
(I37
I8
I0
S'flashlight'
p691
tp692
a(I61
I0
I0
S'serial'
p693
tp694
a(I61
I2
I0
S'serial'
p695
tp696
a(I61
I2
F-0.75
S'incorrect'
p697
tp698
a(I68
I3
I0
g238
tp699
a(I74
I11
F0.375
S'new'
p700
tp701
a(I143
I6
F0.375
g244
tp702
a(I154
I1
I0
S'old'
p703
tp704
a(I163
I4
F0.375
S'new'
p705
tp706
a(I206
I20
I0
S'serial'
p707
tp708
a(I212
I6
I0
S'old'
p709
tp710
a(I262
I1
I0
g246
tp711
a(I297
I9
F0.375
S'new'
p712
tp713
a(I307
I12
I0
S'later'
p714
tp715
a(I320
I7
I0
S'old'
p716
tp717
a(I333
I6
I0
S'same'
p718
tp719
a(I333
I7
I0
g248
tp720
a(I351
I2
F0.25
g254
tp721
a(I352
I3
I0
g256
tp722
a(I356
I8
I0
S'same'
p723
tp724
as(S'need'
p725
tp726
(lp727
(I339
I3
I0
S'more'
p728
tp729
as(S'calls'
p730
S'to'
p731
S'tracfone'
p732
tp733
(lp734
(I43
I2
I0
g300
tp735
a(I97
I2
I0
S'mid-december'
p736
tp737
as(S'n'
p738
S'our'
p739
S'area'
p740
tp741
(lp742
(I178
I0
I0
S'local'
p743
tp744
a(I202
I4
F-0.75
S'dependent'
p745
tp746
a(I202
I4
I0
S'local'
p747
tp748
a(I227
I5
F1.0
S'better'
p749
tp750
a(I354
I0
F0.125
S'valid'
p751
tp752
a(I358
I1
I0
S'mile'
p753
tp754
as(S'play'
p755
tp756
(lp757
(I7
I5
F-0.25
S'google'
p758
tp759
a(I12
I7
F-0.25
S'google'
p760
tp761
a(I20
I5
F-0.25
S'google'
p762
tp763
a(I37
I8
F-0.25
S'google'
p764
tp765
a(I51
I5
F-0.25
S'google'
p766
tp767
a(I96
I5
F-0.25
S'google'
p768
tp769
a(I120
I4
F-0.25
S'google'
p770
tp771
a(I124
I15
F-0.25
S'google'
p772
tp773
a(I223
I3
F-0.25
S'google'
p774
tp775
a(I266
I2
F-0.25
S'google'
p776
tp777
a(I321
I20
F-0.25
S'google'
p778
tp779
as(S'right'
p780
tp781
(lp782
(I206
I13
F0.375
S'upper'
p783
tp784
a(I211
I10
I0
S'close'
p785
tp786
as(S'from'
p787
S'google'
p788
S'play'
p789
tp790
(lp791
(I12
I7
F-0.25
g760
tp792
a(I20
I5
F-0.25
g762
tp793
a(I266
I2
F-0.25
g776
tp794
as(S'tracfone'
p795
tp796
(lp797
(I1
I1
F-0.5
g499
tp798
a(I4
I1
F0.875
S'nicest'
p799
tp800
a(I4
I1
F1.0
S'best'
p801
tp802
a(I4
I1
I0
S'fourth'
p803
tp804
a(I6
I31
F0.875
S'happy'
p805
tp806
a(I6
I31
F0.125
S'enough'
p807
tp808
a(I21
I1
F-0.25
S'past'
p809
tp810
a(I35
I5
I0
S'old'
p811
tp812
a(I44
I3
I0
S'android'
p813
tp814
a(I49
I0
F-0.125
S'bottom'
p815
tp816
a(I62
I3
I0
S'old'
p817
tp818
a(I66
I10
I0
S'standard'
p819
tp820
a(I89
I9
I0
S'old'
p821
tp822
a(I94
I8
F0.875
S'happy'
p823
tp824
a(I97
I2
I0
g736
tp825
a(I97
I6
I0
g509
tp826
a(I112
I0
I0
S'android'
p827
tp828
a(I113
I0
F0.875
S'happy'
p829
tp830
a(I115
I1
I0
S'android'
p831
tp832
a(I118
I4
I0
S'site'
p833
tp834
a(I124
I24
I0
S'old'
p835
tp836
a(I126
I7
I0
S'website'
p837
tp838
a(I126
I9
I0
S'current'
p839
tp840
a(I126
I18
I0
S'standard'
p841
tp842
a(I141
I3
I0
S'old'
p843
tp844
a(I143
I2
F-0.625
S'glad'
p845
tp846
a(I143
I2
F0.5
S'comparable'
p847
tp848
a(I143
I15
F1.0
S'best'
p849
tp850
a(I144
I33
F1.0
S'best'
p851
tp852
a(I145
I4
I0
S'site'
p853
tp854
a(I150
I0
F-0.375
S'simple'
p855
tp856
a(I153
I0
I0
S'old'
p857
tp858
a(I155
I1
I0
S'current'
p859
tp860
a(I166
I1
I0
S'normal'
p861
tp862
a(I172
I9
F0.25
S'helpful'
p863
tp864
a(I175
I2
F-0.625
S'other'
p865
tp866
a(I176
I3
I0
S'old'
p867
tp868
a(I177
I2
I0
S'fourth'
p869
tp870
a(I193
I0
F0.125
S'first'
p871
tp872
a(I199
I0
F0.875
S'happy'
p873
tp874
a(I202
I15
I0
S'website'
p875
tp876
a(I207
I6
F-0.625
S'other'
p877
tp878
a(I221
I0
F0.875
S'happy'
p879
tp880
a(I221
I1
I0
S'old'
p881
tp882
a(I221
I8
I0
S'old'
p883
tp884
a(I233
I1
F0.375
S'similar'
p885
tp886
a(I236
I7
F0.5
g49
tp887
a(I237
I0
I0
S'fifth'
p888
tp889
a(I237
I0
I0
S'sixth'
p890
tp891
a(I239
I12
F1.0
S'best'
p892
tp893
a(I246
I8
F-0.625
S'other'
p894
tp895
a(I246
I10
I0
S'old'
p896
tp897
a(I257
I3
I0
S'old'
p898
tp899
a(I257
I3
F-0.5
S'poor'
p900
tp901
a(I275
I2
I0
S'same'
p902
tp903
a(I284
I2
I0
S'economical'
p904
tp905
a(I293
I1
I0
S'old'
p906
tp907
a(I303
I1
F1.0
g516
tp908
a(I307
I8
I0
S'third'
p909
tp910
a(I308
I0
F-0.625
S'other'
p911
tp912
a(I320
I5
I0
S'same'
p913
tp914
a(I325
I0
F0.625
g55
tp915
a(I333
I6
I0
g521
tp916
a(I346
I11
F-0.5
S'regular'
p917
tp918
a(I359
I0
I0
S'old'
p919
tp920
a(I359
I3
I0
g523
tp921
a(I360
I1
F1.0
S'good'
p922
tp923
a(I370
I1
I0
S'old'
p924
tp925
as(S'features'
p926
tp927
(lp928
(I3
I1
F-0.625
S'other'
p929
tp930
a(I3
I1
F0.875
S'nice'
p931
tp932
a(I6
I24
F-0.5
S'actual'
p933
tp934
a(I9
I2
F1.0
S'best'
p935
tp936
a(I34
I5
F0.375
S'much'
p937
tp938
a(I38
I2
F0.25
S'favorite'
p939
tp940
a(I58
I2
I0
S'many'
p941
tp942
a(I58
I2
I0
S'useful'
p943
tp944
a(I81
I0
I0
S'many'
p945
tp946
a(I82
I2
I0
S'more'
p947
tp948
a(I82
I2
F0.125
S'able'
p949
tp950
a(I188
I4
F-0.625
S'other'
p951
tp952
a(I250
I1
I0
S'few'
p953
tp954
a(I250
I4
F1.0
S'best'
p955
tp956
a(I258
I1
I0
S'great'
p957
tp958
a(I259
I1
I0
S'same'
p959
tp960
a(I262
I0
I0
S'great'
p961
tp962
a(I266
I7
I0
S'mechanical'
p963
tp964
a(I319
I2
F-0.625
S'other'
p965
tp966
as(g40
S'long'
p967
S'time'
p968
tp969
(lp970
(I0
I0
F-0.5
S'long'
p971
tp972
a(I6
I4
F-0.5
S'long'
p973
tp974
a(I11
I0
F-0.5
S'long'
p975
tp976
a(I20
I23
F-0.5
S'long'
p977
tp978
a(I64
I0
F0.125
S'first'
p979
tp980
a(I68
I1
F-0.5
S'long'
p981
tp982
a(I113
I0
F-0.5
S'long'
p983
tp984
a(I113
I4
F-0.875
S'unhappy'
p985
tp986
a(I113
I4
F-0.5
S'long'
p987
tp988
a(I124
I12
F-0.5
S'long'
p989
tp990
a(I288
I1
F-0.5
S'long'
p991
tp992
a(I291
I5
F-0.5
S'long'
p993
tp994
a(I296
I0
F-0.5
S'long'
p995
tp996
as(S'month'
p997
tp998
(lp999
(I36
I3
I0
S'least'
p1000
tp1001
a(I151
I0
F0.125
S'last'
p1002
tp1003
a(I154
I6
F-0.5
S'less'
p1004
tp1005
a(I213
I0
I0
S'android'
p1006
tp1007
a(I233
I1
F-0.125
S'former'
p1008
tp1009
a(I265
I8
F-0.5
S'less'
p1010
tp1011
a(I290
I3
F0.75
S'worth'
p1012
tp1013
a(I299
I7
I0
S'next'
p1014
tp1015
as(S'voice'
p1016
tp1017
(lp1018
(I8
I6
F-0.25
S'google'
p1019
tp1020
a(I120
I1
F-0.25
S'google'
p1021
tp1022
a(I190
I5
F1.0
S'better'
p1023
tp1024
a(I190
I5
F-0.375
S'simple'
p1025
tp1026
a(I359
I1
F-0.25
S'google'
p1027
tp1028
as(S'off'
p1029
S'mobile'
p1030
S'data'
p1031
tp1032
(lp1033
(I48
I6
F-0.5
g137
tp1034
a(I48
I6
I0
g139
tp1035
a(I94
I18
I0
g141
tp1036
a(I97
I4
I0
g143
tp1037
a(I97
I4
F-0.5
g145
tp1038
a(I97
I4
I0
g147
tp1039
a(I97
I8
I0
g151
tp1040
a(I97
I8
I0
g153
tp1041
a(I97
I9
I0
g155
tp1042
a(I97
I9
F-0.5
g157
tp1043
a(I97
I9
I0
g159
tp1044
a(I97
I9
I0
g161
tp1045
a(I206
I18
I0
g165
tp1046
a(I250
I4
I0
g167
tp1047
a(I321
I18
I0
g177
tp1048
as(S'thing'
p1049
tp1050
(lp1051
(I89
I10
F1.0
S'best'
p1052
tp1053
a(I97
I6
I0
S'great'
p1054
tp1055
a(I99
I0
I0
S'only'
p1056
tp1057
a(I131
I1
F0.875
S'important'
p1058
tp1059
a(I135
I2
F0.5
S'second'
p1060
tp1061
a(I135
I2
I0
S'same'
p1062
tp1063
a(I146
I4
F-0.75
S'little'
p1064
tp1065
a(I158
I2
I0
S'own'
p1066
tp1067
a(I182
I3
I0
S'same'
p1068
tp1069
a(I182
I3
F-0.625
S'bad'
p1070
tp1071
a(I195
I5
I0
S'same'
p1072
tp1073
a(I197
I36
F0.375
S'interesting'
p1074
tp1075
a(I204
I2
F1.0
S'best'
p1076
tp1077
a(I213
I5
F-0.5
S'separate'
p1078
tp1079
a(I215
I2
I0
S'same'
p1080
tp1081
a(I225
I4
F1.0
S'good'
p1082
tp1083
a(I234
I14
I0
S'own'
p1084
tp1085
a(I234
I14
F-0.5
S'separate'
p1086
tp1087
a(I244
I0
I0
S'k'
p1088
tp1089
a(I254
I4
F-0.875
S'hardest'
p1090
tp1091
a(I254
I12
F0.125
S'last'
p1092
tp1093
a(I282
I12
I0
S'great'
p1094
tp1095
a(I321
I45
F1.0
S'good'
p1096
tp1097
a(I321
I45
F-0.625
S'bad'
p1098
tp1099
a(I342
I4
F0.25
S'helpful'
p1100
tp1101
a(I342
I4
F0.375
S'available'
p1102
tp1103
a(I342
I4
I0
S'tutorial'
p1104
tp1105
a(I342
I4
I0
S'net'
p1106
tp1107
a(I356
I21
F1.0
S'good'
p1108
tp1109
a(I369
I4
F-0.75
S'comfortable'
p1110
tp1111
as(S'tracfone'
p1112
S'to'
p1113
S'get'
p1114
tp1115
(lp1116
(I6
I31
F0.875
g805
tp1117
a(I6
I31
F0.125
g807
tp1118
a(I35
I5
I0
g811
tp1119
a(I112
I0
I0
g827
tp1120
a(I150
I0
F-0.375
g855
tp1121
a(I166
I1
I0
g861
tp1122
as(S'area'
p1123
tp1124
(lp1125
(I43
I3
I0
S'rural'
p1126
tp1127
a(I52
I2
I0
S'rural'
p1128
tp1129
a(I89
I6
I0
S'great'
p1130
tp1131
a(I124
I19
I0
S'rural'
p1132
tp1133
a(I178
I0
I0
g743
tp1134
a(I202
I4
F-0.75
g745
tp1135
a(I202
I4
I0
g747
tp1136
a(I227
I5
F1.0
g749
tp1137
a(I354
I0
F0.125
g751
tp1138
a(I358
I1
I0
g753
tp1139
a(I367
I0
I0
S'large'
p1140
tp1141
as(S'data'
p1142
tp1143
(lp1144
(I7
I2
I0
S'most'
p1145
tp1146
a(I48
I4
F0.75
g131
tp1147
a(I48
I4
I0
g133
tp1148
a(I48
I5
I0
g135
tp1149
a(I48
I6
F-0.5
g137
tp1150
a(I48
I6
I0
g139
tp1151
a(I68
I9
F-0.5
S'long'
p1152
tp1153
a(I68
I13
F0.375
S'much'
p1154
tp1155
a(I94
I18
I0
g141
tp1156
a(I97
I4
I0
g143
tp1157
a(I97
I4
F-0.5
g145
tp1158
a(I97
I4
I0
g147
tp1159
a(I97
I7
I0
g149
tp1160
a(I97
I8
I0
g151
tp1161
a(I97
I8
I0
g153
tp1162
a(I97
I9
I0
g155
tp1163
a(I97
I9
F-0.5
g157
tp1164
a(I97
I9
I0
g159
tp1165
a(I97
I9
I0
g161
tp1166
a(I114
I5
I0
S'max'
p1167
tp1168
a(I114
I5
F-0.375
S'daily'
p1169
tp1170
a(I127
I7
I0
S'cellular'
p1171
tp1172
a(I146
I23
F-0.625
S'free'
p1173
tp1174
a(I197
I5
F0.875
S'nice'
p1175
tp1176
a(I197
I5
I0
S'text'
p1177
tp1178
a(I216
I5
F0.375
S'much'
p1179
tp1180
a(I233
I0
F-0.75
S'wrong'
p1181
tp1182
a(I250
I4
I0
g167
tp1183
a(I250
I8
F0.375
g169
tp1184
a(I250
I8
I0
g171
tp1185
a(I254
I16
I0
g173
tp1186
a(I269
I2
I0
g175
tp1187
a(I306
I6
I0
S'same'
p1188
tp1189
a(I307
I15
F-0.25
S'precious'
p1190
tp1191
a(I309
I5
I0
S'most'
p1192
tp1193
a(I309
I6
F-0.25
S'low'
p1194
tp1195
a(I320
I4
F-0.5
S'heavy'
p1196
tp1197
a(I321
I18
I0
g177
tp1198
as(S'hours'
p1199
tp1200
(lp1201
(I34
I4
F-0.125
S'invest'
p1202
tp1203
a(I56
I9
I0
S'more'
p1204
tp1205
a(I124
I11
I0
S'few'
p1206
tp1207
a(I203
I3
I0
S'many'
p1208
tp1209
a(I231
I1
I0
S'few'
p1210
tp1211
a(I282
I9
I0
S'few'
p1212
tp1213
a(I282
I9
F-0.75
S'comfortable'
p1214
tp1215
a(I340
I2
I0
S'few'
p1216
tp1217
as(S'work'
p1218
tp1219
(lp1220
(I77
I6
I0
S'android'
p1221
tp1222
as(S'turn'
p1223
tp1224
(lp1225
(I283
I7
F0.875
S'music'
p1226
tp1227
as(S'led'
p1228
S'flash'
p1229
tp1230
(lp1231
(I368
I3
F0.875
S'nice'
p1232
tp1233
as(S'tracfone'
p1234
S'customer'
p1235
tp1236
(lp1237
(I139
I1
F0.125
g184
tp1238
a(I143
I15
F1.0
g849
tp1239
a(I143
I15
F-0.625
g188
tp1240
a(I163
I23
F0.875
g190
tp1241
as(S'an'
p1242
S'alarm'
p1243
S'clock'
p1244
tp1245
(lp1246
(I262
I0
F0.625
S'aware'
p1247
tp1248
a(I272
I15
F0.625
S'major'
p1249
tp1250
as(S'battery'
p1251
S'life'
p1252
tp1253
(lp1254
(I11
I8
F0.625
S'fair'
p1255
tp1256
a(I12
I4
F1.0
S'good'
p1257
tp1258
a(I36
I1
F1.0
S'good'
p1259
tp1260
a(I62
I2
F1.0
S'good'
p1261
tp1262
a(I76
I3
F1.0
S'good'
p1263
tp1264
a(I120
I0
I0
S'useful'
p1265
tp1266
a(I146
I33
F1.0
S'good'
p1267
tp1268
a(I181
I0
F-0.75
S'short'
p1269
tp1270
a(I181
I1
F0.75
S'due'
p1271
tp1272
a(I225
I3
F-0.625
S'bad'
p1273
tp1274
a(I250
I5
I0
S'great'
p1275
tp1276
a(I291
I1
I0
S'great'
p1277
tp1278
a(I327
I9
F-0.5
S'poor'
p1279
tp1280
as(S'minutes'
p1281
tp1282
(lp1283
(I6
I23
F-0.5
S'try'
p1284
tp1285
a(I6
I23
I0
S'unnecessary'
p1286
tp1287
a(I24
I10
I0
g61
tp1288
a(I24
I10
F0.375
g63
tp1289
a(I66
I9
F0.5
S'willing'
p1290
tp1291
a(I66
I9
F0.375
S'much'
p1292
tp1293
a(I66
I9
I0
S'more'
p1294
tp1295
a(I68
I3
F0.375
g240
tp1296
a(I68
I13
I0
S'many'
p1297
tp1298
a(I74
I27
F-0.25
g65
tp1299
a(I87
I0
I0
S'many'
p1300
tp1301
a(I89
I4
I0
S'promotional'
p1302
tp1303
a(I92
I1
F-0.25
g67
tp1304
a(I92
I1
F-0.625
g69
tp1305
a(I114
I6
F-0.25
g73
tp1306
a(I120
I4
I0
g242
tp1307
a(I124
I14
I0
S'promotional'
p1308
tp1309
a(I139
I1
I0
S'current'
p1310
tp1311
a(I143
I5
F0.875
S'happy'
p1312
tp1313
a(I143
I5
F0.125
S'able'
p1314
tp1315
a(I146
I21
I0
S'more'
p1316
tp1317
a(I147
I7
F-0.25
g75
tp1318
a(I170
I3
F-0.625
S'sorry'
p1319
tp1320
a(I172
I8
F0.125
S'able'
p1321
tp1322
a(I177
I4
F-0.25
g77
tp1323
a(I222
I1
I0
S'more'
p1324
tp1325
a(I223
I0
F-0.875
S'trouble'
p1326
tp1327
a(I238
I0
F-0.25
g81
tp1328
a(I246
I6
I0
S'more'
p1329
tp1330
a(I249
I0
F0.375
S'available'
p1331
tp1332
a(I251
I2
F0.625
S'easy'
p1333
tp1334
a(I265
I3
F-0.25
g83
tp1335
a(I266
I2
I0
S'valuable'
p1336
tp1337
a(I266
I2
I0
S'close'
p1338
tp1339
a(I275
I6
F-0.25
g85
tp1340
a(I283
I7
I0
S'later'
p1341
tp1342
a(I284
I6
I0
S'many'
p1343
tp1344
a(I293
I9
I0
S'exact'
p1345
tp1346
a(I297
I25
I0
S'great'
p1347
tp1348
a(I304
I0
F-0.5
S'less'
p1349
tp1350
a(I312
I3
F-0.375
S'double'
p1351
tp1352
a(I327
I7
F0.125
S'enough'
p1353
tp1354
a(I331
I0
I0
S'promotional'
p1355
tp1356
a(I331
I2
I0
S'promotional'
p1357
tp1358
a(I336
I10
F0.125
g89
tp1359
a(I342
I1
I0
S'transfer'
p1360
tp1361
a(I342
I2
F0.375
S'extra'
p1362
tp1363
a(I345
I6
I0
S'wish'
p1364
tp1365
a(I346
I11
I0
S'more'
p1366
tp1367
a(I346
I12
F-0.625
S'other'
p1368
tp1369
a(I350
I9
I0
S'many'
p1370
tp1371
a(I351
I2
F0.625
g250
tp1372
a(I351
I2
F0.625
g252
tp1373
a(I366
I4
I0
g258
tp1374
a(I366
I4
F0.375
g260
tp1375
as(S'with'
p1376
S'tracfone'
p1377
S'service'
p1378
tp1379
(lp1380
(I1
I1
F-0.5
g499
tp1381
a(I1
I1
F0.875
g501
tp1382
a(I74
I11
F0.375
g507
tp1383
a(I97
I6
I0
g509
tp1384
a(I143
I3
F-0.25
g427
tp1385
a(I262
I0
F0.875
g514
tp1386
a(I325
I0
F0.625
g55
tp1387
a(I333
I6
I0
g521
tp1388
as(S'talk'
p1389
tp1390
(lp1391
(I92
I1
F0.625
S'straight'
p1392
tp1393
a(I136
I2
F0.625
S'straight'
p1394
tp1395
a(I166
I1
F-0.625
S'mumble'
p1396
tp1397
a(I206
I5
F0.625
S'straight'
p1398
tp1399
a(I247
I1
F0.625
S'straight'
p1400
tp1401
a(I247
I2
F0.625
S'straight'
p1402
tp1403
a(I347
I12
F0.625
S'straight'
p1404
tp1405
a(I347
I12
I0
S'net'
p1406
tp1407
as(S'turn'
p1408
S'off'
p1409
S'data'
p1410
tp1411
(lp1412
(I48
I6
F-0.5
g137
tp1413
a(I48
I6
I0
g139
tp1414
a(I97
I4
I0
g143
tp1415
a(I97
I4
F-0.5
g145
tp1416
a(I97
I4
I0
g147
tp1417
a(I97
I8
I0
g151
tp1418
a(I97
I8
I0
g153
tp1419
a(I97
I9
I0
g155
tp1420
a(I97
I9
F-0.5
g157
tp1421
a(I97
I9
I0
g159
tp1422
a(I97
I9
I0
g161
tp1423
a(I250
I4
I0
g167
tp1424
a(I307
I15
F-0.25
g1190
tp1425
a(I321
I18
I0
g177
tp1426
as(S'on'
p1427
S'mobile'
p1428
S'data'
p1429
tp1430
(lp1431
(I48
I4
F0.75
g131
tp1432
a(I48
I4
I0
g133
tp1433
a(I48
I5
I0
g135
tp1434
a(I94
I18
I0
g141
tp1435
a(I97
I4
I0
g143
tp1436
a(I97
I4
F-0.5
g145
tp1437
a(I97
I4
I0
g147
tp1438
a(I97
I7
I0
g149
tp1439
a(I97
I8
I0
g151
tp1440
a(I97
I8
I0
g153
tp1441
a(I97
I9
I0
g155
tp1442
a(I97
I9
F-0.5
g157
tp1443
a(I97
I9
I0
g159
tp1444
a(I97
I9
I0
g161
tp1445
a(I206
I18
I0
g165
tp1446
a(I250
I4
I0
g167
tp1447
a(I254
I16
I0
g173
tp1448
a(I269
I2
I0
g175
tp1449
a(I321
I18
I0
g177
tp1450
as(S'problems'
p1451
tp1452
(lp1453
(I79
I0
I0
S'slower'
p1454
tp1455
a(I79
I0
I0
S'internet'
p1456
tp1457
a(I187
I7
F0.625
S'major'
p1458
tp1459
a(I236
I1
F0.625
S'major'
p1460
tp1461
a(I311
I1
F0.625
S'easy'
p1462
tp1463
a(I357
I2
F0.625
S'major'
p1464
tp1465
as(S'back'
p1466
tp1467
(lp1468
(I6
I28
F-0.875
S'hard'
p1469
tp1470
a(I6
I28
F1.0
S'better'
p1471
tp1472
a(I124
I32
F0.375
S'bed'
p1473
tp1474
a(I170
I2
F-0.5
S'call'
p1475
tp1476
as(S'34'
p1477
S'triple'
p1478
S'minutes'
p1479
tp1480
(lp1481
(I108
I1
I0
g71
tp1482
a(I190
I6
F-0.625
g79
tp1483
as(S'transfer'
p1484
tp1485
(lp1486
(I44
I11
I0
S'many'
p1487
tp1488
a(I116
I10
F0.375
S'complete'
p1489
tp1490
a(I126
I8
I0
S'entire'
p1491
tp1492
a(I170
I2
F0.375
S'complete'
p1493
tp1494
a(I321
I7
F0.625
S'easy'
p1495
tp1496
as(S'minutes'
p1497
S'for'
p1498
S'life'
p1499
tp1500
(lp1501
(I112
I0
F0.625
S'easy'
p1502
tp1503
a(I265
I3
F-0.25
g83
tp1504
as(S'tracfone'
p1505
S'customer'
p1506
S'service'
p1507
tp1508
(lp1509
(I143
I3
F-0.25
g427
tp1510
as(S'minutes'
p1511
S'and'
p1512
S'service'
p1513
tp1514
(lp1515
(I114
I6
F-0.25
g73
tp1516
a(I120
I4
I0
g242
tp1517
a(I143
I5
F0.875
g1312
tp1518
a(I143
I5
F0.125
g1314
tp1519
a(I366
I4
I0
g258
tp1520
a(I366
I4
F0.375
g260
tp1521
as(S'user'
p1522
tp1523
(lp1524
(I12
I7
F-0.375
S'manual'
p1525
tp1526
a(I20
I7
F-0.625
g45
tp1527
a(I37
I4
F0.125
g47
tp1528
a(I243
I1
I0
S'older'
p1529
tp1530
a(I251
I0
I0
g51
tp1531
a(I257
I1
F-0.625
S'moderate'
p1532
tp1533
a(I260
I0
F-0.5
S'heavy'
p1534
tp1535
a(I265
I0
F-0.5
S'heavy'
p1536
tp1537
a(I306
I0
F-0.75
g53
tp1538
a(I369
I3
F-0.875
S'worst'
p1539
tp1540
as(S'battery'
p1541
tp1542
(lp1543
(I12
I4
F1.0
g1257
tp1544
a(I15
I2
F0.375
S'new'
p1545
tp1546
a(I15
I2
F-0.25
S'low'
p1547
tp1548
a(I62
I2
F1.0
g1261
tp1549
a(I126
I3
F-0.5
S'sure'
p1550
tp1551
a(I134
I1
F0.125
S'last'
p1552
tp1553
a(I134
I1
F-0.5
S'long'
p1554
tp1555
a(I181
I1
F0.75
g1271
tp1556
a(I195
I3
F1.0
S'good'
p1557
tp1558
a(I215
I2
F0.375
S'new'
p1559
tp1560
a(I225
I3
F-0.625
g1273
tp1561
a(I231
I0
I0
S'own'
p1562
tp1563
a(I266
I2
F0.125
S'last'
p1564
tp1565
a(I307
I5
F0.125
S'first'
p1566
tp1567
a(I307
I5
F-0.5
S'sure'
p1568
tp1569
a(I327
I9
F-0.5
g1279
tp1570
as(S'smart'
p1571
tp1572
(lp1573
(I14
I1
F0.5
S'true'
p1574
tp1575
a(I27
I1
F0.5
S'expensive'
p1576
tp1577
a(I40
I4
I0
S'real'
p1578
tp1579
a(I73
I0
F0.125
S'first'
p1580
tp1581
a(I81
I0
I0
S'normal'
p1582
tp1583
a(I81
I2
I0
S'normal'
p1584
tp1585
a(I94
I0
F0.125
S'first'
p1586
tp1587
a(I103
I1
F0.375
S'new'
p1588
tp1589
a(I116
I2
F0.125
S'first'
p1590
tp1591
a(I137
I1
I0
S'great'
p1592
tp1593
a(I137
I1
F-0.75
S'little'
p1594
tp1595
a(I141
I0
I0
S'real'
p1596
tp1597
a(I141
I1
I0
S'most'
p1598
tp1599
a(I141
I1
F-0.75
S'likely'
p1600
tp1601
a(I141
I1
F-0.375
S'top'
p1602
tp1603
a(I142
I0
F0.125
S'first'
p1604
tp1605
a(I147
I0
F0.125
S'first'
p1606
tp1607
a(I152
I4
F0.25
S'larger'
p1608
tp1609
a(I152
I4
I0
S'more'
p1610
tp1611
a(I152
I4
F0.5
S'expensive'
p1612
tp1613
a(I154
I9
F0.5
S'expensive'
p1614
tp1615
a(I166
I0
F0.125
S'first'
p1616
tp1617
a(I168
I2
F0.125
S'first'
p1618
tp1619
a(I197
I6
I0
S'old'
p1620
tp1621
a(I204
I0
F0.125
S'first'
p1622
tp1623
a(I204
I5
I0
S'great'
p1624
tp1625
a(I214
I0
F0.125
S'first'
p1626
tp1627
a(I227
I0
F0.125
S'first'
p1628
tp1629
a(I229
I0
F-0.625
S'other'
p1630
tp1631
a(I250
I12
F-0.625
S'other'
p1632
tp1633
a(I256
I0
F0.125
S'first'
p1634
tp1635
a(I279
I0
F0.375
S'new'
p1636
tp1637
a(I283
I16
F-0.625
S'bad'
p1638
tp1639
a(I305
I3
F0.125
S'first'
p1640
tp1641
a(I316
I10
F-0.625
S'other'
p1642
tp1643
a(I327
I0
F0.125
S'first'
p1644
tp1645
a(I327
I0
F0.125
S'first'
p1646
tp1647
a(I329
I0
F0.875
S'nice'
p1648
tp1649
a(I334
I0
F0.375
S'new'
p1650
tp1651
a(I342
I1
F0.375
S'new'
p1652
tp1653
a(I361
I0
F0.125
S'first'
p1654
tp1655
a(I367
I0
F0.125
S'first'
p1656
tp1657
as(S'samsung'
p1658
S'galaxy'
p1659
tp1660
(lp1661
(I6
I15
F0.25
S'read'
p1662
tp1663
a(I12
I0
I0
g17
tp1664
a(I59
I0
F0.375
g19
tp1665
a(I176
I0
F0.875
S'happy'
p1666
tp1667
a(I187
I8
F-0.625
g23
tp1668
a(I187
I8
I0
g25
tp1669
a(I212
I0
F0.375
g29
tp1670
a(I251
I1
F0.625
S'perfect'
p1671
tp1672
a(I307
I2
F-0.625
S'other'
p1673
tp1674
a(I320
I1
F0.875
S'nice'
p1675
tp1676
a(I356
I13
F0.375
g31
tp1677
a(I356
I13
F1.0
g33
tp1678
as(S'cell'
p1679
tp1680
(lp1681
(I94
I12
I0
S'big'
p1682
tp1683
a(I115
I4
F-0.5
S'weak'
p1684
tp1685
a(I116
I11
F-0.625
S'other'
p1686
tp1687
a(I131
I0
F-0.25
S'inexpensive'
p1688
tp1689
a(I246
I11
F0.375
S'much'
p1690
tp1691
a(I257
I2
I0
S'only'
p1692
tp1693
a(I320
I11
F-0.375
S'yearly'
p1694
tp1695
a(I326
I0
F0.125
S'first'
p1696
tp1697
as(S'money'
p1698
tp1699
(lp1700
(I7
I7
F0.75
S'worth'
p1701
tp1702
a(I7
I7
F0.375
S'extra'
p1703
tp1704
a(I9
I0
F0.75
S'worth'
p1705
tp1706
a(I11
I11
F0.375
S'much'
p1707
tp1708
a(I33
I1
F0.125
S'enough'
p1709
tp1710
a(I97
I18
F0.5
S'told'
p1711
tp1712
a(I97
I18
F-0.75
S'little'
p1713
tp1714
a(I238
I4
I0
S'great'
p1715
tp1716
a(I320
I12
I0
S'more'
p1717
tp1718
a(I335
I1
F0.375
S'extra'
p1719
tp1720
a(I346
I9
I0
S'same'
p1721
tp1722
a(I361
I0
F0.75
S'worth'
p1723
tp1724
as(S'time'
p1725
tp1726
(lp1727
(I0
I0
F-0.5
g971
tp1728
a(I4
I2
F0.875
S'happy'
p1729
tp1730
a(I6
I4
F-0.5
g973
tp1731
a(I11
I0
F-0.5
g975
tp1732
a(I20
I23
F-0.5
g977
tp1733
a(I21
I9
F0.375
S'prime'
p1734
tp1735
a(I24
I7
I0
S'most'
p1736
tp1737
a(I57
I0
I0
S'same'
p1738
tp1739
a(I64
I0
F0.125
g979
tp1740
a(I68
I1
F-0.5
g981
tp1741
a(I73
I3
I0
S'reset'
p1742
tp1743
a(I85
I3
F0.375
S'standby'
p1744
tp1745
a(I97
I2
I0
S'most'
p1746
tp1747
a(I113
I0
F-0.5
g983
tp1748
a(I113
I4
F-0.875
g985
tp1749
a(I113
I4
F-0.5
g987
tp1750
a(I124
I12
F-0.5
g989
tp1751
a(I126
I7
F0.125
S'first'
p1752
tp1753
a(I126
I26
F0.5
S'accurate'
p1754
tp1755
a(I139
I2
I0
S'same'
p1756
tp1757
a(I145
I24
I0
S'more'
p1758
tp1759
a(I156
I1
F-0.75
S'off'
p1760
tp1761
a(I156
I1
I0
S'most'
p1762
tp1763
a(I197
I14
F0.375
S'early'
p1764
tp1765
a(I202
I8
I0
S'same'
p1766
tp1767
a(I206
I15
F-0.75
S'tough'
p1768
tp1769
a(I212
I8
I0
S'exact'
p1770
tp1771
a(I215
I7
F-0.5
S'sure'
p1772
tp1773
a(I226
I12
F0.125
S'first'
p1774
tp1775
a(I236
I2
F-0.75
S'unlucky'
p1776
tp1777
a(I236
I2
F0.125
S'enough'
p1778
tp1779
a(I236
I6
F0.625
S'correct'
p1780
tp1781
a(I236
I9
F-0.625
S'unpredictable'
p1782
tp1783
a(I263
I0
I0
S'automatic'
p1784
tp1785
a(I264
I2
F0.125
S'last'
p1786
tp1787
a(I264
I2
F1.0
S'good'
p1788
tp1789
a(I272
I6
F-0.75
S'off'
p1790
tp1791
a(I278
I0
F0.125
S'first'
p1792
tp1793
a(I278
I0
F0.125
S'able'
p1794
tp1795
a(I288
I1
F-0.5
g991
tp1796
a(I291
I5
F-0.5
g993
tp1797
a(I291
I10
I0
S'same'
p1798
tp1799
a(I296
I0
F-0.5
g995
tp1800
a(I297
I9
F0.125
S'allotted'
p1801
tp1802
a(I305
I7
F-0.75
S'short'
p1803
tp1804
a(I316
I0
F0.125
S'first'
p1805
tp1806
a(I316
I1
I0
S'est'
p1807
tp1808
a(I316
I1
F0.625
S'correct'
p1809
tp1810
a(I328
I1
F0.125
S'first'
p1811
tp1812
a(I333
I15
I0
S'next'
p1813
tp1814
a(I366
I0
I0
S'more'
p1815
tp1816
as(S'find'
p1817
tp1818
(lp1819
(I76
I3
I0
S'more'
p1820
tp1821
as(S'long'
p1822
S'time'
p1823
S'tracfone'
p1824
tp1825
(lp1826
(I0
I0
F-0.5
g971
tp1827
a(I11
I0
F-0.5
g975
tp1828
a(I68
I1
F-0.5
g981
tp1829
a(I113
I0
F0.875
g829
tp1830
a(I113
I0
F-0.5
g983
tp1831
a(I113
I4
F-0.875
g985
tp1832
a(I113
I4
F-0.5
g987
tp1833
a(I124
I12
F-0.5
g989
tp1834
as(S'texts'
p1835
tp1836
(lp1837
(I6
I9
F-0.25
S'disappointed'
p1838
tp1839
a(I11
I12
F-0.125
S'minimum'
p1840
tp1841
a(I97
I4
I0
S'more'
p1842
tp1843
a(I183
I3
F0.75
S'receive'
p1844
tp1845
a(I309
I1
I0
S'few'
p1846
tp1847
a(I312
I3
I0
S'text'
p1848
tp1849
a(I312
I3
F0.75
S'gave'
p1850
tp1851
a(I341
I6
F0.625
S'easy'
p1852
tp1853
as(S'mp3'
p1854
S'player'
p1855
tp1856
(lp1857
(I145
I6
F0.875
S'music'
p1858
tp1859
as(S'google'
p1860
S'play'
p1861
tp1862
(lp1863
(I7
I5
F-0.25
g758
tp1864
a(I12
I7
F-0.25
g760
tp1865
a(I20
I5
F-0.25
g762
tp1866
a(I37
I8
F-0.25
g764
tp1867
a(I51
I5
F-0.25
g766
tp1868
a(I96
I5
F-0.25
g768
tp1869
a(I120
I4
F-0.25
g770
tp1870
a(I124
I15
F-0.25
g772
tp1871
a(I223
I3
F-0.25
g774
tp1872
a(I266
I2
F-0.25
g776
tp1873
a(I321
I20
F-0.25
g778
tp1874
as(S'text'
p1875
S'and'
p1876
S'data'
p1877
tp1878
(lp1879
(I97
I4
I0
g143
tp1880
a(I97
I4
F-0.5
g145
tp1881
a(I97
I4
I0
g147
tp1882
a(I197
I5
F0.875
g1175
tp1883
a(I197
I5
I0
g1177
tp1884
a(I197
I11
F-0.75
g592
tp1885
a(I233
I3
F-0.625
g598
tp1886
as(S'groove'
p1887
S'ip'
p1888
tp1889
(lp1890
(I120
I4
F0.5
S'true'
p1891
tp1892
a(I120
I4
I0
S'full'
p1893
tp1894
as(S'plan'
p1895
tp1896
(lp1897
(I104
I0
F0.5
S'warrant'
p1898
tp1899
a(I104
I0
I0
S'monthly'
p1900
tp1901
a(I104
I6
I0
S'monthly'
p1902
tp1903
a(I114
I6
F1.0
S'best'
p1904
tp1905
a(I118
I0
F0.5
S'expensive'
p1906
tp1907
a(I121
I1
F0.375
S'much'
p1908
tp1909
a(I137
I1
I0
S'full'
p1910
tp1911
a(I198
I0
I0
S'monthly'
p1912
tp1913
a(I206
I1
I0
S'prepaid'
p1914
tp1915
a(I206
I4
F-0.5
S'unlimited'
p1916
tp1917
as(S'entry'
p1918
S'level'
p1919
tp1920
(lp1921
(I14
I2
I0
S'entry'
p1922
tp1923
as(S'screen'
p1924
tp1925
(lp1926
(I8
I1
F0.625
S'easy'
p1927
tp1928
a(I32
I3
F0.25
S'bigger'
p1929
tp1930
a(I33
I1
F-0.375
S'small'
p1931
tp1932
a(I33
I2
F0.25
S'larger'
p1933
tp1934
a(I35
I9
F0.25
S'biggest'
p1935
tp1936
a(I37
I11
F0.625
S'superior'
p1937
tp1938
a(I57
I0
I0
S'sensitive'
p1939
tp1940
a(I57
I0
F0.5
S'careful'
p1941
tp1942
a(I72
I1
F0.125
S'visible'
p1943
tp1944
a(I97
I4
I0
S'many'
p1945
tp1946
a(I106
I0
I0
S'sensitive'
p1947
tp1948
a(I120
I1
F0.25
S'bigger'
p1949
tp1950
a(I126
I2
F0.5
S'touch'
p1951
tp1952
a(I126
I2
F0.25
S'responsive'
p1953
tp1954
a(I146
I6
F0.25
S'responsive'
p1955
tp1956
a(I146
I11
F-0.625
S'sorry'
p1957
tp1958
a(I152
I4
F0.25
S'larger'
p1959
tp1960
a(I190
I8
I0
S'large'
p1961
tp1962
a(I212
I3
F0.625
S'easy'
p1963
tp1964
a(I215
I5
F0.5
S'rid'
p1965
tp1966
a(I227
I4
F-0.625
S'other'
p1967
tp1968
a(I235
I0
F-0.375
S'smaller'
p1969
tp1970
a(I239
I7
F-0.375
S'black'
p1971
tp1972
a(I239
I10
F-0.375
S'black'
p1973
tp1974
a(I250
I3
F0.625
S'easier'
p1975
tp1976
a(I254
I2
F-0.125
S'slow'
p1977
tp1978
a(I254
I2
F-0.375
S'small'
p1979
tp1980
a(I266
I5
I0
S'large'
p1981
tp1982
a(I275
I15
F-0.375
S'smaller'
p1983
tp1984
a(I306
I5
I0
S'same'
p1985
tp1986
a(I307
I1
F0.5
S'touch'
p1987
tp1988
a(I321
I1
F0.5
S'touch'
p1989
tp1990
a(I321
I11
F0.125
S'rite'
p1991
tp1992
a(I321
I26
F0.25
S'bigger'
p1993
tp1994
a(I350
I12
F0.5
S'touch'
p1995
tp1996
as(S'galaxy'
p1997
S'centura'
p1998
tp1999
(lp2000
(I20
I9
I0
g403
tp2001
a(I37
I4
F0.25
g405
tp2002
a(I127
I0
I0
g21
tp2003
a(I187
I8
F-0.625
g23
tp2004
a(I187
I8
I0
g25
tp2005
a(I202
I1
I0
g27
tp2006
as(S'everything'
p2007
tp2008
(lp2009
(I64
I0
F0.625
S'easy'
p2010
tp2011
a(I144
I15
F0.625
S'necessary'
p2012
tp2013
a(I163
I4
F0.375
S'confident'
p2014
tp2015
a(I207
I3
F0.125
S'able'
p2016
tp2017
a(I227
I1
I0
S'great'
p2018
tp2019
a(I279
I1
F-0.375
S'simple'
p2020
tp2021
a(I303
I3
F-0.25
S'google'
p2022
tp2023
a(I358
I1
F-0.5
S'did'
p2024
tp2025
as(S'samsung'
p2026
tp2027
(lp2028
(I6
I15
F0.25
g1662
tp2029
a(I12
I0
I0
g17
tp2030
a(I59
I0
F0.375
g19
tp2031
a(I77
I6
F-0.625
S'sorry'
p2032
tp2033
a(I96
I18
I0
S'good-bye'
p2034
tp2035
a(I97
I3
I0
S'particular'
p2036
tp2037
a(I145
I3
F0.875
S'nice'
p2038
tp2039
a(I145
I3
F0.5
S'functional'
p2040
tp2041
a(I145
I9
I0
S'old'
p2042
tp2043
a(I176
I0
F0.875
g1666
tp2044
a(I194
I7
F0.5
S'loyal'
p2045
tp2046
a(I202
I3
F0.625
S'superior'
p2047
tp2048
a(I212
I0
F0.375
g29
tp2049
a(I217
I2
I0
S'binary'
p2050
tp2051
a(I307
I2
F-0.625
g1673
tp2052
a(I308
I0
F0.375
S'much'
p2053
tp2054
a(I320
I1
F0.875
g1675
tp2055
a(I356
I13
F0.375
g31
tp2056
a(I356
I13
F1.0
g33
tp2057
as(S'first'
p2058
S'smart'
p2059
tp2060
(lp2061
(I73
I0
F0.125
g1580
tp2062
a(I94
I0
F0.125
g1586
tp2063
a(I116
I2
F0.125
g1590
tp2064
a(I142
I0
F0.125
g1604
tp2065
a(I147
I0
F0.125
g1606
tp2066
a(I166
I0
F0.125
g1616
tp2067
a(I168
I2
F0.125
g1618
tp2068
a(I204
I0
F0.125
g1622
tp2069
a(I214
I0
F0.125
g1626
tp2070
a(I227
I0
F0.125
g1628
tp2071
a(I256
I0
F0.125
g1634
tp2072
a(I305
I3
F0.125
g1640
tp2073
a(I327
I0
F0.125
g1644
tp2074
a(I327
I0
F0.125
g1646
tp2075
a(I361
I0
F0.125
g1654
tp2076
a(I367
I0
F0.125
g1656
tp2077
as(S'download'
p2078
tp2079
(lp2080
(I96
I5
I0
S'android'
p2081
tp2082
a(I217
I2
I0
S'current'
p2083
tp2084
as(S'camera'
p2085
tp2086
(lp2087
(I6
I19
F0.625
S'decent'
p2088
tp2089
a(I87
I2
F0.875
S'nice'
p2090
tp2091
a(I97
I13
F0.875
S'important'
p2092
tp2093
a(I97
I13
I0
S'normal'
p2094
tp2095
a(I146
I8
F1.0
S'good'
p2096
tp2097
a(I160
I0
F1.0
S'good'
p2098
tp2099
a(I160
I0
F0.625
S'easy'
p2100
tp2101
a(I189
I3
F1.0
S'better'
p2102
tp2103
a(I236
I13
F-0.75
S'incapable'
p2104
tp2105
a(I262
I0
F-0.125
S'frontal'
p2106
tp2107
a(I262
I0
I0
S'real'
p2108
tp2109
a(I262
I2
F1.0
S'better'
p2110
tp2111
a(I333
I5
F1.0
S'good'
p2112
tp2113
a(I356
I24
I0
S'adequate'
p2114
tp2115
as(S'using'
p2116
tp2117
(lp2118
(I89
I15
I0
S'same'
p2119
tp2120
a(I197
I36
F-0.5
S'sure'
p2121
tp2122
a(I254
I2
F0.75
S'worth'
p2123
tp2124
as(S'wifi'
p2125
S'at'
p2126
S'home'
p2127
tp2128
(lp2129
(I89
I14
I0
S'internet'
p2130
tp2131
a(I270
I3
F-0.625
g452
tp2132
a(I270
I3
F-0.625
g454
tp2133
a(I358
I0
I0
S'signal'
p2134
tp2135
as(S'galaxy'
p2136
tp2137
(lp2138
(I14
I1
F0.375
S'new'
p2139
tp2140
a(I187
I8
F-0.625
g23
tp2141
a(I187
I8
I0
g25
tp2142
a(I251
I1
F0.625
g1671
tp2143
as(S'f'
p2144
S'use'
p2145
tp2146
(lp2147
(I44
I9
I0
S'least'
p2148
tp2149
a(I126
I3
I0
S'such'
p2150
tp2151
a(I280
I0
I0
S'great'
p2152
tp2153
a(I280
I0
I0
S'internet'
p2154
tp2155
a(I280
I0
F0.875
S'nice'
p2156
tp2157
a(I309
I2
F0.5
S'willing'
p2158
tp2159
a(I315
I0
I0
S'initial'
p2160
tp2161
as(S'google'
p2162
S'play'
p2163
S'store'
p2164
tp2165
(lp2166
(I12
I7
F-0.25
g760
tp2167
a(I19
I1
F-0.375
S'simple'
p2168
tp2169
a(I51
I5
F-0.25
g766
tp2170
a(I96
I5
F-0.25
g768
tp2171
a(I120
I4
F-0.25
g770
tp2172
as(S'to'
p2173
S'make'
p2174
S'calls'
p2175
tp2176
(lp2177
(I168
I4
I0
g306
tp2178
a(I341
I4
F0.625
g318
tp2179
as(S'work'
p2180
g738
S'area'
p2181
tp2182
(lp2183
(I358
I1
I0
g753
tp2184
as(S'play'
p2185
S'store'
p2186
tp2187
(lp2188
(I12
I7
F-0.25
g760
tp2189
a(I19
I1
F-0.375
g2168
tp2190
a(I51
I5
F-0.25
g766
tp2191
a(I96
I5
F-0.25
g768
tp2192
a(I120
I4
F-0.25
g770
tp2193
as(S'works'
p2194
tp2195
(lp2196
(I8
I6
I0
S'great'
p2197
tp2198
a(I25
I1
I0
S'great'
p2199
tp2200
a(I34
I3
F0.875
S'nice'
p2201
tp2202
a(I88
I2
I0
S'great'
p2203
tp2204
a(I172
I5
F-0.5
S'longer'
p2205
tp2206
a(I347
I8
F1.0
S'best'
p2207
tp2208
as(S'think'
p2209
tp2210
(lp2211
(I76
I3
F-0.25
S'google'
p2212
tp2213
as(S'mb'
p2214
S'of'
p2215
S'data'
p2216
tp2217
(lp2218
(I97
I4
I0
g143
tp2219
a(I97
I4
F-0.5
g145
tp2220
a(I97
I4
I0
g147
tp2221
a(I97
I7
I0
g149
tp2222
a(I126
I13
I0
S'few'
p2223
tp2224
as(S'zip'
p2225
S'code'
p2226
tp2227
(lp2228
(I71
I5
I0
S'activate'
p2229
tp2230
a(I202
I1
F0.5
S'greater'
p2231
tp2232
as(S'better'
p2233
tp2234
(lp2235
(I88
I3
F0.375
S'much'
p2236
tp2237
a(I88
I3
F-0.25
S'higher'
p2238
tp2239
a(I137
I1
F0.375
S'much'
p2240
tp2241
a(I240
I10
F0.375
S'much'
p2242
tp2243
a(I263
I3
F0.375
S'much'
p2244
tp2245
a(I275
I14
F0.375
S'much'
p2246
tp2247
a(I302
I7
I0
S'such'
p2248
tp2249
a(I335
I0
F0.375
S'much'
p2250
tp2251
as(g738
S'area'
p2252
tp2253
(lp2254
(I43
I3
I0
g1126
tp2255
a(I52
I2
I0
g1128
tp2256
a(I89
I6
I0
g1130
tp2257
a(I124
I19
I0
g1132
tp2258
a(I178
I0
I0
g743
tp2259
a(I202
I4
F-0.75
g745
tp2260
a(I202
I4
I0
g747
tp2261
a(I227
I5
F1.0
g749
tp2262
a(I354
I0
F0.125
g751
tp2263
a(I358
I1
I0
g753
tp2264
a(I367
I0
I0
g1140
tp2265
as(S'return'
p2266
S'policy'
p2267
tp2268
(lp2269
(I299
I7
F-0.875
S'stuck'
p2270
tp2271
a(I358
I6
F-0.125
S'trouble-shooting'
p2272
tp2273
as(S'home'
p2274
tp2275
(lp2276
(I74
I6
F-0.625
S'other'
p2277
tp2278
a(I89
I14
I0
g2130
tp2279
a(I127
I12
F0.5
S'strong'
p2280
tp2281
a(I358
I0
I0
g2134
tp2282
as(S'call'
p2283
tp2284
(lp2285
(I7
I9
I0
S'website'
p2286
tp2287
a(I74
I16
F0.5
S'told'
p2288
tp2289
a(I121
I1
F0.125
S'first'
p2290
tp2291
a(I143
I15
F0.125
S'first'
p2292
tp2293
a(I262
I0
F-0.75
S'single'
p2294
tp2295
a(I321
I21
F-0.625
S'free'
p2296
tp2297
as(S'much'
p2298
S'better'
p2299
tp2300
(lp2301
(I88
I3
F0.375
g2236
tp2302
a(I88
I3
F-0.25
g2238
tp2303
a(I137
I1
F0.375
g2240
tp2304
a(I240
I10
F0.375
g2242
tp2305
a(I263
I3
F0.375
g2244
tp2306
a(I275
I14
F0.375
g2246
tp2307
a(I335
I0
F0.375
g2250
tp2308
as(S'old'
p2309
S'tracfone'
p2310
tp2311
(lp2312
(I35
I5
I0
g811
tp2313
a(I62
I3
I0
g817
tp2314
a(I89
I9
I0
g821
tp2315
a(I124
I24
I0
g835
tp2316
a(I141
I3
I0
g843
tp2317
a(I153
I0
I0
g857
tp2318
a(I176
I3
I0
g867
tp2319
a(I221
I1
I0
g881
tp2320
a(I221
I8
I0
g883
tp2321
a(I246
I10
I0
g896
tp2322
a(I257
I3
I0
g898
tp2323
a(I257
I3
F-0.5
g900
tp2324
a(I293
I1
I0
g906
tp2325
a(I308
I0
F-0.625
g911
tp2326
a(I359
I0
I0
g919
tp2327
a(I370
I1
I0
g924
tp2328
as(S'apps'
p2329
tp2330
(lp2331
(I6
I7
I0
S'android'
p2332
tp2333
a(I19
I1
F-0.375
g219
tp2334
a(I20
I4
I0
S'android'
p2335
tp2336
a(I20
I5
I0
g221
tp2337
a(I20
I5
I0
g223
tp2338
a(I23
I3
I0
S'few'
p2339
tp2340
a(I23
I5
F1.0
S'good'
p2341
tp2342
a(I37
I8
F0.375
S'available'
p2343
tp2344
a(I38
I1
F-0.625
S'free'
p2345
tp2346
a(I51
I5
F-0.625
S'free'
p2347
tp2348
a(I68
I6
I0
S'few'
p2349
tp2350
a(I68
I6
F-0.5
S'sure'
p2351
tp2352
a(I76
I1
F-0.625
S'other'
p2353
tp2354
a(I76
I1
I0
S'interactive'
p2355
tp2356
a(I76
I7
F-0.625
S'free'
p2357
tp2358
a(I76
I8
F0.125
S'able'
p2359
tp2360
a(I85
I1
F-0.25
g225
tp2361
a(I88
I4
I0
S'many'
p2362
tp2363
a(I88
I4
F0.375
S'extra'
p2364
tp2365
a(I88
I4
I0
S'many'
p2366
tp2367
a(I98
I3
F-0.5
S'open'
p2368
tp2369
a(I114
I3
F0.875
S'nice'
p2370
tp2371
a(I126
I2
I0
S'many'
p2372
tp2373
a(I126
I18
F-0.5
S'certain'
p2374
tp2375
a(I130
I7
F-0.5
S'sure'
p2376
tp2377
a(I133
I0
I0
S'many'
p2378
tp2379
a(I144
I23
F-0.625
S'bad'
p2380
tp2381
a(I157
I2
I0
S'great'
p2382
tp2383
a(I179
I1
F-0.625
S'free'
p2384
tp2385
a(I183
I2
F-0.5
S'certain'
p2386
tp2387
a(I189
I1
I0
S'many'
p2388
tp2389
a(I190
I2
I0
g227
tp2390
a(I200
I4
F-0.5
S'open'
p2391
tp2392
a(I206
I9
F-0.375
S'simple'
p2393
tp2394
a(I206
I18
F0.375
S'available'
p2395
tp2396
a(I206
I21
I0
S'few'
p2397
tp2398
a(I212
I1
F0.125
S'first'
p2399
tp2400
a(I212
I1
F0.125
S'able'
p2401
tp2402
a(I212
I1
I0
S'many'
p2403
tp2404
a(I254
I11
I0
S'few'
p2405
tp2406
a(I262
I0
I0
S'same'
p2407
tp2408
a(I266
I2
F0.25
g229
tp2409
a(I270
I6
I0
S'many'
p2410
tp2411
a(I284
I5
I0
S'many'
p2412
tp2413
a(I302
I3
I0
S'many'
p2414
tp2415
a(I307
I14
F0.375
S'available'
p2416
tp2417
a(I309
I12
I0
S'android'
p2418
tp2419
a(I316
I7
I0
S'dial'
p2420
tp2421
a(I327
I3
F-0.625
g231
tp2422
a(I330
I6
I0
S'few'
p2423
tp2424
as(S'days'
p2425
tp2426
(lp2427
(I12
I5
F0.125
S'last'
p2428
tp2429
a(I76
I0
F0.125
S'first'
p2430
tp2431
a(I76
I0
I0
S'few'
p2432
tp2433
a(I77
I2
I0
S'few'
p2434
tp2435
a(I88
I0
F0.375
S'available'
p2436
tp2437
a(I144
I17
I0
S'later'
p2438
tp2439
a(I182
I0
I0
S'few'
p2440
tp2441
a(I231
I1
F0.125
S'last'
p2442
tp2443
a(I291
I8
I0
S'few'
p2444
tp2445
a(I291
I8
F0.125
S'last'
p2446
tp2447
a(I291
I8
I0
S'few'
p2448
tp2449
a(I315
I8
I0
S'later'
p2450
tp2451
a(I321
I3
I0
S'more'
p2452
tp2453
a(I336
I11
I0
S'few'
p2454
tp2455
a(I336
I11
I0
S'later'
p2456
tp2457
as(S'data'
p2458
S'usage'
p2459
tp2460
(lp2461
(I68
I9
F-0.5
g1152
tp2462
a(I94
I18
I0
g141
tp2463
a(I94
I20
F-0.625
S'free'
p2464
tp2465
a(I114
I5
I0
g1167
tp2466
a(I114
I5
F-0.375
g1169
tp2467
a(I307
I15
F-0.25
g1190
tp2468
a(I321
I18
I0
g177
tp2469
as.