(dp0
(S'internal'
p1
S'memory'
p2
tp3
(lp4
(I4
I3
I0
S'internal'
p5
I0
tp6
a(I32
I0
F-0.75
S'little'
p7
I0
tp8
a(I32
I0
I0
S'internal'
p9
I0
tp10
a(I33
I11
I0
S'internal'
p11
I0
tp12
a(I33
I11
I0
S'full'
p13
I0
tp14
a(I4
I3
I0
g5
I5
tp15
a(I5
I6
I0
S'full'
p16
I5
tp17
a(I12
I15
F0.375
S'new'
p18
I5
tp19
a(I28
I1
F0.875
S'happy'
p20
I5
tp21
a(I29
I0
F-0.25
S'low'
p22
I5
tp23
a(I29
I0
F-0.25
S'higher'
p24
I5
tp25
a(I32
I0
F-0.75
g7
I5
tp26
a(I32
I0
I0
g9
I5
tp27
a(I33
I11
I0
g11
I5
tp28
a(I33
I11
I0
g13
I5
tp29
as(S'download'
p30
tp31
(lp32
(I33
I15
F0.875
S'music'
p33
I1
tp34
as(S'internet'
p35
tp36
(lp37
(I7
I11
F-0.125
S'slow'
p38
I6
tp39
a(I11
I3
I0
S'slowest'
p40
I6
tp41
a(I11
I3
F0.375
S'available'
p42
I6
tp43
as.