(dp0
(S'battery'
p1
S'life'
p2
tp3
(lp4
(I0
I3
I0
S'great'
p5
I1
tp6
a(I1
I29
I0
S'third'
p7
I1
tp8
a(I1
I29
I0
S'total'
p9
I1
tp10
a(I1
I161
I0
S'great'
p11
I1
tp12
a(I5
I12
F1.0
S'best'
p13
I1
tp14
a(I5
I50
F0.25
S'powerful'
p15
I1
tp16
a(I6
I29
I0
S'great'
p17
I1
tp18
a(I6
I50
I0
S'adequate'
p19
I1
tp20
a(I7
I10
F0.125
S'last'
p21
I1
tp22
a(I8
I51
I0
S'great'
p23
I1
tp24
a(I5
I12
F1.0
g13
I19
tp25
a(I6
I50
I0
g19
I19
tp26
a(I7
I10
F0.125
g21
I19
tp27
a(I8
I4
I0
S'perspective'
p28
I19
tp29
a(I8
I4
F-0.5
S'nerd'
p30
I19
tp31
a(I8
I51
I0
g23
I19
tp32
a(I0
I3
I0
g5
I15
tp33
a(I1
I2
F0.125
S'last'
p34
I15
tp35
a(I1
I29
I0
g7
I15
tp36
a(I1
I29
I0
g9
I15
tp37
a(I1
I60
I0
S'faster'
p38
I15
tp39
a(I1
I62
F0.625
S'replaceable'
p40
I15
tp41
a(I1
I62
F0.875
S'nice'
p42
I15
tp43
a(I1
I95
F-0.375
S'small'
p44
I15
tp45
a(I1
I138
F0.125
S'last'
p46
I15
tp47
a(I1
I161
I0
g11
I15
tp48
a(I3
I7
F1.0
S'better'
p49
I15
tp50
a(I4
I8
F0.375
S'new'
p51
I15
tp52
a(I5
I50
F0.25
g15
I15
tp53
a(I5
I55
F0.625
S'removable'
p54
I15
tp55
a(I5
I132
F0.5
S'comparable'
p56
I15
tp57
a(I6
I4
F0.125
S'last'
p58
I15
tp59
a(I6
I29
I0
g17
I15
tp60
a(I7
I1
I0
S'fast'
p61
I15
tp62
as(S'bloatware'
p63
tp64
(lp65
(I0
I42
F0.875
S'nice'
p66
I0
tp67
a(I4
I0
F0.25
S'sweet'
p68
I0
tp69
a(I6
I76
F1.0
S'good'
p70
I0
tp71
a(I6
I111
F-0.75
S'little'
p72
I0
tp73
a(I8
I29
F-0.625
S'other'
p74
I0
tp75
as(S'service'
p76
tp77
(lp78
(I0
I20
F-0.5
S'poor'
p79
I16
tp80
a(I0
I44
I0
S'most'
p81
I16
tp82
a(I0
I44
F-0.75
S'likely'
p83
I16
tp84
a(I1
I152
I0
S'faster'
p85
I16
tp86
a(I1
I192
I0
S'great'
p87
I16
tp88
as(S'camera'
p89
tp90
(lp91
(I1
I57
F0.375
S'available'
p92
I1
tp93
a(I1
I57
F0.5
S'live'
p94
I1
tp95
a(I1
I130
F1.0
S'good'
p96
I1
tp97
a(I1
I131
F-0.25
S'low'
p98
I1
tp99
a(I1
I131
F-0.625
S'light'
p100
I1
tp101
a(I1
I177
F0.375
S'new'
p102
I1
tp103
a(I5
I30
I0
S'more'
p104
I1
tp105
a(I5
I30
F-0.75
S'sufficient'
p106
I1
tp107
a(I5
I56
F1.0
S'better'
p108
I1
tp109
a(I5
I124
F0.5
S'comparable'
p110
I1
tp111
a(I6
I18
F-0.625
S'bad'
p112
I1
tp113
a(I6
I60
F1.0
S'best'
p114
I1
tp115
a(I6
I62
F1.0
S'good'
p116
I1
tp117
a(I7
I9
F1.0
S'good'
p118
I1
tp119
a(I8
I2
F0.5
S'comparable'
p120
I1
tp121
as(S'sprint'
p122
tp123
(lp124
(I0
I42
F-0.75
S'little'
p125
I0
tp126
a(I6
I103
F0.375
S'new'
p127
I0
tp128
as(S'iphone'
p129
tp130
(lp131
(I1
I1
I0
S'old'
p132
I1
tp133
a(I1
I4
I0
S'mind'
p134
I1
tp135
a(I1
I165
F-0.5
S'less'
p136
I1
tp137
a(I5
I63
F0.75
S'beautiful'
p138
I1
tp139
a(I5
I63
F-0.375
S'black'
p140
I1
tp141
a(I5
I64
F0.25
S'bigger'
p142
I1
tp143
a(I5
I72
F-0.375
S'black'
p144
I1
tp145
a(I5
I89
F0.5
S'second'
p146
I1
tp147
as(S'kit'
p148
S'kat'
p149
tp150
(lp151
(I1
I61
F0.625
S'easy'
p152
I0
tp153
as(S'speed'
p154
tp155
(lp156
(I1
I140
F1.0
S'good'
p157
I9
tp158
a(I1
I168
I0
S'same'
p159
I9
tp160
a(I8
I35
I0
S'internet'
p161
I9
tp162
as(S'build'
p163
S'quality'
p164
tp165
(lp166
(I1
I58
F0.375
S'tight'
p167
I2
tp168
a(I4
I30
F1.0
S'better'
p169
I2
tp170
as(S'google'
p171
tp172
(lp173
(I4
I24
F-0.5
S'less'
p174
I4
tp175
a(I5
I57
I0
S'minimal'
p176
I4
tp177
a(I6
I24
F-0.375
S'top'
p178
I4
tp179
as(S'galaxy'
p180
tp181
(lp182
(I1
I150
F0.5
S'upgraded'
p183
I0
tp184
a(I6
I73
I0
S'old'
p185
I0
tp186
a(I7
I0
F0.5
S'upgraded'
p187
I0
tp188
as(S'smooth'
p189
tp190
(lp191
(I5
I66
I0
S'buttery'
p192
I16
tp193
as(S'speaker'
p194
tp195
(lp196
(I1
I119
F-0.5
S'weak'
p197
I8
tp198
as(S'light'
p199
S'weight'
p200
tp201
(lp202
(I1
I68
F-0.625
S'light'
p203
I5
tp204
a(I5
I60
F-0.625
S'light'
p205
I5
tp206
a(I6
I139
F-0.625
S'light'
p207
I5
tp208
as(S'contract'
p209
tp210
(lp211
(I7
I10
F1.0
S'good'
p212
I0
tp213
as(S'android'
p214
tp215
(lp216
(I1
I195
I0
S'next'
p217
I0
tp218
a(I3
I4
I0
S'normal'
p219
I0
tp220
a(I4
I0
I0
S'basic'
p221
I0
tp222
a(I4
I34
F1.0
S'best'
p223
I0
tp224
a(I5
I96
F1.0
S'better'
p225
I0
tp226
a(I6
I30
F1.0
S'best'
p227
I0
tp228
a(I6
I38
I0
S'fast'
p229
I0
tp230
a(I6
I38
F-0.625
S'clean'
p231
I0
tp232
a(I6
I53
I0
S'old'
p233
I0
tp234
a(I6
I79
I0
S'different'
p235
I0
tp236
a(I6
I136
F1.0
S'best'
p237
I0
tp238
a(I7
I14
F1.0
S'best'
p239
I0
tp240
a(I8
I0
F-0.625
S'clean'
p241
I0
tp242
a(I8
I0
F-0.375
S'simple'
p243
I0
tp244
as(S'updates'
p245
tp246
(lp247
(I4
I24
F-0.625
S'other'
p248
I12
tp249
a(I6
I89
F0.375
S'new'
p250
I12
tp251
a(I6
I137
F0.75
S'beautiful'
p252
I12
tp253
a(I6
I137
I0
S'fast'
p254
I12
tp255
a(I8
I25
F-0.625
S'want'
p256
I12
tp257
a(I8
I25
I0
S'android'
p258
I12
tp259
a(I8
I25
F0.5
S'possible'
p260
I12
tp261
as(S'nexus'
p262
tp263
(lp264
(I0
I2
F0.25
S'original'
p265
I0
tp266
a(I1
I28
I0
S'large'
p267
I0
tp268
a(I1
I28
F-0.75
S'bright'
p269
I0
tp270
a(I1
I112
F-0.25
S'white'
p271
I0
tp272
a(I1
I112
F0.5
S'glossy'
p273
I0
tp274
a(I1
I112
F-0.375
S'black'
p275
I0
tp276
a(I1
I149
I0
S'next'
p277
I0
tp278
a(I5
I47
F0.5
S'second'
p279
I0
tp280
a(I5
I48
F0.5
S'strong'
p281
I0
tp282
a(I5
I68
F1.0
S'best'
p283
I0
tp284
a(I5
I78
I0
S'plastic'
p285
I0
tp286
a(I5
I124
I0
S'least'
p287
I0
tp288
a(I5
I124
F1.0
S'best'
p289
I0
tp290
a(I5
I130
F0.125
S'equal'
p291
I0
tp292
a(I6
I13
I0
S'fast'
p293
I0
tp294
a(I6
I23
F0.125
S'first'
p295
I0
tp296
a(I6
I44
I0
S'faster'
p297
I0
tp298
a(I8
I42
F0.375
S'new'
p299
I0
tp300
as(S'upgrade'
p301
tp302
(lp303
(I5
I20
I0
S'great'
p304
I3
tp305
as(S'network'
p306
tp307
(lp308
(I0
I40
F1.0
S'good'
p309
I0
tp310
as(S'black'
p311
tp312
(lp313
(I1
I112
F-0.5
S'dull'
p314
I19
tp315
a(I5
I79
F-0.375
S'black'
p316
I19
tp317
a(I6
I10
F-0.125
S'mine'
p318
I19
tp319
as(S'apps'
p320
tp321
(lp322
(I1
I98
F0.375
S'new'
p323
I0
tp324
a(I1
I176
F-0.625
S'other'
p325
I0
tp326
a(I5
I11
F-0.375
S'smooth'
p327
I0
tp328
a(I6
I113
F-0.625
S'want'
p329
I0
tp330
as(S'amazon'
p331
tp332
(lp333
(I6
I120
F-0.125
S'mine'
p334
I13
tp335
a(I8
I14
F0.375
S'new'
p336
I13
tp337
as.