(dp0
(S'something'
p1
tp2
(lp3
(I4
I2
F0.875
S'important'
p4
tp5
a(I35
I6
F-0.75
S'wrong'
p6
tp7
a(I37
I1
F-0.25
S'inexpensive'
p8
tp9
a(I103
I0
F1.0
S'good'
p10
tp11
a(I103
I0
F0.5
S'possible'
p12
tp13
a(I104
I3
F-0.625
S'bad'
p14
tp15
a(I236
I0
I0
S'different'
p16
tp17
as(S'purchase'
p18
tp19
(lp20
(I97
I0
F-0.25
S'inexpensive'
p21
tp22
a(I116
I7
F0.875
S'happy'
p23
tp24
a(I149
I8
F-0.625
S'glad'
p25
tp26
a(I158
I1
F1.0
S'good'
p27
tp28
a(I172
I6
F0.875
S'happy'
p29
tp30
a(I184
I0
F0.875
S'happy'
p31
tp32
as(S'google'
p33
tp34
(lp35
(I18
I19
F-0.625
S'other'
p36
tp37
a(I18
I19
I0
S'standard'
p38
tp39
as(S'comes'
p40
tp41
(lp42
(I66
I1
I0
S'android'
p43
tp44
as(S'nice'
p45
tp46
(lp47
(I99
I0
F1.0
S'good'
p48
tp49
a(I142
I0
I0
S'very'
p50
tp51
a(I142
I0
F-0.75
S'comfortable'
p52
tp53
a(I142
I0
F0.625
S'easy'
p54
tp55
as(S'things'
p56
tp57
(lp58
(I18
I16
F0.75
S'fortunate'
p59
tp60
a(I116
I5
F1.0
S'better'
p61
tp62
a(I125
I4
I0
S'more'
p63
tp64
a(I177
I9
F-0.625
S'other'
p65
tp66
a(I177
I9
F-0.75
S'little'
p67
tp68
a(I196
I6
I0
S'few'
p69
tp70
a(I213
I10
F0.875
S'nice'
p71
tp72
as(S'touch'
p73
tp74
(lp75
(I18
I32
F1.0
S'better'
p76
tp77
a(I18
I32
F-0.75
S'worse'
p78
tp79
a(I18
I32
F-0.625
S'other'
p80
tp81
a(I220
I5
F0.375
S'extra'
p82
tp83
as(S'quality'
p84
tp85
(lp86
(I55
I1
I0
S'great'
p87
tp88
a(I56
I0
I0
S'high'
p89
tp90
a(I56
I0
F0.5
S'second'
p91
tp92
a(I67
I8
F1.0
S'good'
p93
tp94
a(I80
I0
I0
S'high'
p95
tp96
a(I86
I0
F1.0
S'best'
p97
tp98
a(I93
I1
F1.0
S'good'
p99
tp100
a(I93
I1
I0
S'high'
p101
tp102
a(I120
I1
F1.0
S'good'
p103
tp104
a(I149
I5
F1.0
S'good'
p105
tp106
a(I149
I5
F-0.375
S'top'
p107
tp108
a(I151
I0
I0
S'same'
p109
tp110
a(I172
I8
F1.0
S'best'
p111
tp112
a(I201
I1
F1.0
S'good'
p113
tp114
a(I203
I0
F1.0
S'good'
p115
tp116
a(I227
I3
F-0.5
S'poor'
p117
tp118
a(I227
I3
F0.625
S'kind'
p119
tp120
a(I227
I3
I0
S'weird'
p121
tp122
as(S'sd'
p123
S'card'
p124
tp125
(lp126
(I18
I7
I0
S'external'
p127
tp128
a(I18
I8
F0.125
S'able'
p129
tp130
a(I224
I9
F0.625
S'easy'
p131
tp132
as(S'sim'
p133
S'cards'
p134
tp135
(lp136
(I73
I6
I0
S'great'
p137
tp138
a(I232
I2
F-0.625
S'other'
p139
tp140
as(S'case'
p141
tp142
(lp143
(I18
I50
I0
S'useful'
p144
tp145
a(I59
I1
F-0.25
S'white'
p146
tp147
a(I59
I1
F0.875
S'nice'
p148
tp149
a(I59
I1
F-0.75
S'dark'
p150
tp151
a(I59
I1
F0.125
S'protective'
p152
tp153
a(I81
I5
I0
S'plastic'
p154
tp155
a(I95
I1
F-0.875
S'hard'
p156
tp157
a(I102
I8
F-0.625
S'bad'
p158
tp159
a(I112
I1
F0.875
S'happy'
p160
tp161
as(S'ear'
p162
S'piece'
p163
tp164
(lp165
(I126
I0
F0.75
S'ear'
p166
tp167
a(I199
I0
F0.75
S'ear'
p168
tp169
as(S'excellent'
p170
tp171
(lp172
(I206
I0
F-0.625
S'other'
p173
tp174
as(S'anything'
p175
tp176
(lp177
(I116
I2
F1.0
S'better'
p178
tp179
a(I199
I0
F-0.625
S'other'
p180
tp181
as(S'sim'
p182
S'card'
p183
tp184
(lp185
(I73
I6
I0
g137
tp186
a(I90
I1
I0
S'overseas'
p187
tp188
a(I90
I1
I0
S'local'
p189
tp190
a(I217
I5
F0.5
S'second'
p191
tp192
a(I224
I9
F0.625
g131
tp193
a(I232
I2
F-0.625
g139
tp194
a(I232
I9
F0.5
S'second'
p195
tp196
as(S'however'
p197
tp198
(lp199
(I64
I0
I0
S'android'
p200
tp201
a(I64
I0
I0
S'touchscreen'
p202
tp203
a(I64
I0
F0.125
S'able'
p204
tp205
as(S'case'
p206
S'and'
p207
S'screen'
p208
tp209
(lp210
(I41
I7
F0.125
S'protective'
p211
tp212
a(I120
I1
I0
S'included'
p213
tp214
a(I127
I4
F-0.625
S'free'
p215
tp216
as(S'stars'
p217
tp218
(lp219
(I119
I13
I0
S'most'
p220
tp221
as(S'smartphone'
p222
tp223
(lp224
(I73
I9
F1.0
S'good'
p225
tp226
a(I73
I9
I0
S'basic'
p227
tp228
a(I78
I0
F1.0
S'best'
p229
tp230
a(I87
I3
I0
S'basic'
p231
tp232
a(I87
I3
F1.0
S'good'
p233
tp234
a(I131
I5
I0
S'great'
p235
tp236
a(I131
I5
F0.125
S'first'
p237
tp238
a(I131
I5
F0.125
S'first'
p239
tp240
a(I179
I0
F1.0
S'good'
p241
tp242
a(I193
I0
F0.125
S'first'
p243
tp244
a(I193
I0
F0.5
S'satisfied'
p245
tp246
a(I196
I13
F0.125
S'practical'
p247
tp248
as(S'card'
p249
tp250
(lp251
(I191
I5
F0.375
S'new'
p252
tp253
a(I224
I9
F0.625
g131
tp254
as(S'customer'
p255
S'service'
p256
tp257
(lp258
(I141
I5
I0
S'full'
p259
tp260
a(I213
I13
I0
S'more'
p261
tp262
a(I213
I13
F0.625
S'accessible'
p263
tp264
as(S'wifi'
p265
tp266
(lp267
(I13
I8
F-0.625
S'free'
p268
tp269
a(I103
I13
F1.0
S'good'
p270
tp271
a(I103
I13
F-0.375
S'stay'
p272
tp273
a(I111
I0
I0
S'great'
p274
tp275
as(S'fast'
p276
tp277
(lp278
(I88
I1
F-0.125
S'super'
p279
tp280
as(S'problem'
p281
tp282
(lp283
(I18
I1
F0.375
S'much'
p284
tp285
a(I19
I7
I0
S'same'
p286
tp287
a(I26
I0
I0
S'next'
p288
tp289
a(I30
I1
F-0.75
S'short'
p290
tp291
a(I75
I4
I0
S'same'
p292
tp293
a(I98
I2
I0
S'only'
p294
tp295
a(I213
I0
F0.625
S'major'
p296
tp297
a(I231
I1
F0.25
S'biggest'
p298
tp299
as(S'resolution'
p300
tp301
(lp302
(I4
I2
F-0.5
S'sure'
p303
tp304
a(I79
I0
F1.0
S'good'
p305
tp306
a(I111
I0
I0
S'great'
p307
tp308
a(I177
I7
I0
S'adequate'
p309
tp310
a(I177
I7
F-0.25
S'higher'
p311
tp312
a(I200
I0
F-0.625
S'bad'
p313
tp314
as(S'price'
p315
tp316
(lp317
(I6
I1
F0.625
S'convenient'
p318
tp319
a(I8
I0
F-0.75
S'wrong'
p320
tp321
a(I19
I0
F-0.25
S'low'
p322
tp323
a(I28
I1
F1.0
S'good'
p324
tp325
a(I30
I1
F0.75
S'worth'
p326
tp327
a(I44
I2
I0
S'great'
p328
tp329
a(I51
I4
I0
S'wholesale'
p330
tp331
a(I51
I5
F1.0
S'better'
p332
tp333
a(I64
I1
F1.0
S'good'
p334
tp335
a(I72
I0
I0
S'sensitive'
p336
tp337
a(I85
I0
I0
S'great'
p338
tp339
a(I90
I0
I0
S'great'
p340
tp341
a(I92
I0
F0.375
S'much'
p342
tp343
a(I93
I4
F0.375
S'much'
p344
tp345
a(I99
I2
F1.0
S'good'
p346
tp347
a(I103
I3
F1.0
S'best'
p348
tp349
a(I103
I7
F0.875
S'happy'
p350
tp351
a(I107
I0
F0.75
S'beautiful'
p352
tp353
a(I116
I5
I0
S'own'
p354
tp355
a(I119
I2
I0
S'great'
p356
tp357
a(I128
I0
F-0.25
S'low'
p358
tp359
a(I141
I6
I0
S'great'
p360
tp361
a(I150
I2
F1.0
S'good'
p362
tp363
a(I153
I4
I0
S'same'
p364
tp365
a(I161
I0
F1.0
S'good'
p366
tp367
a(I166
I0
I0
S'great'
p368
tp369
a(I179
I0
I0
S'such'
p370
tp371
a(I179
I0
F-0.25
S'low'
p372
tp373
a(I179
I0
F0.625
S'perfect'
p374
tp375
a(I180
I1
F0.875
S'nice'
p376
tp377
a(I189
I0
I0
S'incredible'
p378
tp379
a(I203
I0
F1.0
S'best'
p380
tp381
a(I205
I0
I0
S'such'
p382
tp383
a(I215
I0
F-0.25
S'cheaper'
p384
tp385
a(I215
I0
F0.625
S'easy'
p386
tp387
a(I225
I0
I0
S'great'
p388
tp389
a(I227
I6
F1.0
S'better'
p390
tp391
a(I232
I13
F0.5
S'expensive'
p392
tp393
a(I237
I0
F1.0
S'best'
p394
tp395
a(I237
I4
F0.875
S'attractive'
p396
tp397
a(I238
I1
F1.0
S'best'
p398
tp399
as(S'like'
p400
tp401
(lp402
(I155
I1
I0
S'great'
p403
tp404
as(S'service'
p405
tp406
(lp407
(I139
I0
I0
S'net'
p408
tp409
a(I141
I5
I0
g259
tp410
a(I213
I13
I0
g261
tp411
a(I213
I13
F0.625
g263
tp412
as(S'getting'
p413
tp414
(lp415
(I81
I15
F-0.875
S'trouble'
p416
tp417
as(S'dual'
p418
S'sim'
p419
tp420
(lp421
(I73
I6
I0
g137
tp422
a(I237
I1
F-0.5
S'international'
p423
tp424
as(S'a'
p425
S'high'
p426
S'end'
p427
tp428
(lp429
(I109
I1
I0
S'high'
p430
tp431
a(I174
I0
I0
S'high'
p432
tp433
a(I205
I0
I0
S'high'
p434
tp435
as(S'memory'
p436
tp437
(lp438
(I6
I3
F0.375
S'available'
p439
tp440
a(I7
I1
F0.625
S'acceptable'
p441
tp442
a(I13
I8
F0.375
S'much'
p443
tp444
a(I13
I8
I0
S'more'
p445
tp446
a(I13
I8
I0
S'internal'
p447
tp448
a(I21
I2
I0
S'internal'
p449
tp450
a(I214
I1
I0
S'external'
p451
tp452
a(I214
I1
I0
S'internal'
p453
tp454
as(S'play'
p455
tp456
(lp457
(I12
I16
I0
S'text'
p458
tp459
a(I66
I1
F-0.25
S'google'
p460
tp461
a(I97
I3
F-0.25
S'google'
p462
tp463
a(I98
I1
F-0.25
S'google'
p464
tp465
a(I120
I1
F-0.25
S'google'
p466
tp467
a(I220
I9
F-0.25
S'google'
p468
tp469
as(S'silicone'
p470
S'case'
p471
tp472
(lp473
(I18
I47
F0.125
S'protective'
p474
tp475
a(I18
I50
I0
g144
tp476
a(I102
I8
F-0.625
g158
tp477
as(S'right'
p478
tp479
(lp480
(I119
I1
I0
S'big'
p481
tp482
a(I119
I1
F-0.375
S'small'
p483
tp484
as(S'from'
p485
S'google'
p486
S'play'
p487
tp488
(lp489
(I97
I3
F-0.25
g462
tp490
a(I120
I1
F-0.25
g466
tp491
a(I220
I9
F-0.25
g468
tp492
as(S'features'
p493
tp494
(lp495
(I28
I1
F1.0
S'good'
p496
tp497
a(I75
I1
I0
S'great'
p498
tp499
a(I141
I1
I0
S'same'
p500
tp501
a(I147
I1
F1.0
S'good'
p502
tp503
a(I155
I1
F0.875
S'nice'
p504
tp505
a(I183
I1
F-0.625
S'other'
p506
tp507
a(I187
I0
F1.0
S'good'
p508
tp509
a(I221
I3
I0
S'many'
p510
tp511
a(I221
I3
I0
S'many'
p512
tp513
as(S'android'
p514
tp515
(lp516
(I30
I0
F0.875
S'nice'
p517
tp518
a(I67
I3
I0
S'standard'
p519
tp520
a(I90
I0
F0.25
S'unlocked'
p521
tp522
a(I93
I5
F0.25
S'unlocked'
p523
tp524
a(I93
I7
F-0.25
S'inexpensive'
p525
tp526
a(I120
I1
F0.875
S'nice'
p527
tp528
a(I120
I1
F-0.125
S'bean'
p529
tp530
a(I220
I7
I0
S'open-source'
p531
tp532
as(S'micro'
p533
S'sd'
p534
S'card'
p535
tp536
(lp537
(I224
I9
F0.625
g131
tp538
as(S'moto'
p539
S'e'
p540
tp541
(lp542
(I5
I0
I0
S'many'
p543
tp544
a(I5
I15
F0.875
S'happier'
p545
tp546
a(I8
I2
F1.0
S'better'
p547
tp548
a(I8
I2
I0
S'social'
p549
tp550
a(I8
I2
F0.5
S'drive'
p551
tp552
as(S'high'
p553
S'end'
p554
tp555
(lp556
(I109
I1
I0
g430
tp557
a(I174
I0
I0
g432
tp558
a(I205
I0
I0
g434
tp559
as(S'watch'
p560
S'videos'
p561
tp562
(lp563
(I81
I34
F-0.625
S'bad'
p564
tp565
as(S'great'
p566
S'price'
p567
tp568
(lp569
(I6
I1
F0.625
g318
tp570
a(I44
I2
I0
g328
tp571
a(I85
I0
I0
g338
tp572
a(I90
I0
I0
g340
tp573
a(I103
I7
F0.875
g350
tp574
a(I107
I0
F0.75
g352
tp575
a(I107
I0
I0
S'great'
p576
tp577
a(I119
I2
I0
g356
tp578
a(I141
I6
I0
g360
tp579
a(I166
I0
I0
g368
tp580
a(I225
I0
I0
g388
tp581
as(S'size'
p582
tp583
(lp584
(I74
I0
F1.0
S'good'
p585
tp586
a(I79
I0
F1.0
S'good'
p587
tp588
a(I104
I1
F-0.75
S'comfortable'
p589
tp590
a(I116
I4
F0.25
S'larger'
p591
tp592
a(I119
I1
I0
S'same'
p593
tp594
a(I121
I1
I0
S'fast'
p595
tp596
a(I121
I1
F0.625
S'perfect'
p597
tp598
a(I155
I2
F1.0
S'good'
p599
tp600
a(I231
I3
F1.0
S'good'
p601
tp602
as(S'battery'
p603
S'life'
p604
tp605
(lp606
(I56
I1
I0
S'great'
p607
tp608
a(I62
I3
I0
S'great'
p609
tp610
a(I73
I10
I0
S'great'
p611
tp612
a(I73
I10
I0
S'most'
p613
tp614
a(I86
I0
F1.0
S'best'
p615
tp616
a(I115
I0
F-0.5
S'poor'
p617
tp618
a(I133
I1
I0
S'great'
p619
tp620
a(I149
I2
F-0.25
S'lowest'
p621
tp622
as(S'advance'
p623
tp624
(lp625
(I4
I1
F0.125
S'first'
p626
tp627
a(I170
I0
I0
S'great'
p628
tp629
a(I224
I9
F-0.75
S'comfortable'
p630
tp631
as(S'happy'
p632
S'with'
p633
S'purchase'
p634
tp635
(lp636
(I116
I7
F0.875
g23
tp637
a(I172
I6
F0.875
g29
tp638
a(I184
I0
F0.875
g31
tp639
as(S'looks'
p640
tp641
(lp642
(I67
I17
F0.875
S'nice'
p643
tp644
as(S'moto'
p645
S'g'
p646
tp647
(lp648
(I5
I0
I0
g543
tp649
as(S'problems'
p650
tp651
(lp652
(I39
I0
F1.0
S'good'
p653
tp654
a(I119
I13
F0.125
S'able'
p655
tp656
a(I177
I4
F-0.375
S'small'
p657
tp658
a(I227
I3
I0
S'only'
p659
tp660
as(S'back'
p661
tp662
(lp663
(I18
I40
F-0.25
S'lower'
p664
tp665
a(I144
I1
I0
S'currier'
p666
tp667
a(I149
I1
F0.5
S'glossy'
p668
tp669
as(S'straight'
p670
S'talk'
p671
tp672
(lp673
(I45
I0
F0.625
S'straight'
p674
tp675
a(I106
I0
F0.625
S'straight'
p676
tp677
a(I173
I3
F0.625
S'straight'
p678
tp679
as(S'life'
p680
tp681
(lp682
(I56
I1
I0
g607
tp683
a(I62
I3
I0
g609
tp684
a(I73
I10
I0
g611
tp685
a(I73
I10
I0
g613
tp686
a(I86
I0
F1.0
g615
tp687
a(I133
I1
I0
g619
tp688
as(S'protector'
p689
tp690
(lp691
(I42
I2
I0
S'screen'
p692
tp693
as(S'great'
p694
tp695
(lp696
(I107
I0
I0
g576
tp697
as(S'battery'
p698
tp699
(lp700
(I2
I0
F1.0
S'good'
p701
tp702
a(I12
I6
F0.125
S'last'
p703
tp704
a(I12
I6
F-0.5
S'long'
p705
tp706
a(I18
I46
I0
S'curious'
p707
tp708
a(I25
I1
F0.625
S'removable'
p709
tp710
a(I25
I1
F0.625
S'removable'
p711
tp712
a(I40
I2
F0.125
S'last'
p713
tp714
a(I49
I1
F0.375
S'extra'
p715
tp716
a(I67
I9
F0.625
S'decent'
p717
tp718
a(I83
I0
F-0.25
S'low'
p719
tp720
a(I115
I0
F-0.5
g617
tp721
a(I149
I2
F-0.25
g621
tp722
a(I159
I0
F0.125
S'last'
p723
tp724
a(I176
I1
F0.125
S'last'
p725
tp726
a(I176
I1
F-0.5
S'long'
p727
tp728
a(I232
I9
I0
S'rapid'
p729
tp730
a(I232
I11
F0.125
S'last'
p731
tp732
as(S't'
p733
S'works'
p734
S'great'
p735
tp736
(lp737
(I124
I0
I0
S'great'
p738
tp739
a(I212
I0
I0
S'great'
p740
tp741
as(S'cell'
p742
tp743
(lp744
(I38
I0
F0.375
S'new'
p745
tp746
a(I49
I2
F-0.125
S'public'
p747
tp748
a(I101
I0
F1.0
S'best'
p749
tp750
a(I120
I1
I0
S'android'
p751
tp752
a(I125
I10
I0
S'standard'
p753
tp754
a(I205
I0
F-0.375
S'blind'
p755
tp756
a(I224
I2
F0.375
S'new'
p757
tp758
as(S'calls'
p759
tp760
(lp761
(I103
I7
F0.5
S'clear'
p762
tp763
a(I195
I2
F0.5
S'clear'
p764
tp765
a(I232
I9
F-0.75
S'short'
p766
tp767
as(S'cheap'
p768
tp769
(lp770
(I13
I3
F-0.375
S'daily'
p771
tp772
a(I104
I3
F-0.125
S'super'
p773
tp774
as(S'works'
p775
S'great'
p776
tp777
(lp778
(I124
I0
I0
g738
tp779
as(S'front'
p780
tp781
(lp782
(I129
I1
F0.875
S'nice'
p783
tp784
as(S'screen'
p785
tp786
(lp787
(I4
I2
F0.625
S'perfect'
p788
tp789
a(I5
I6
I0
S'third'
p790
tp791
a(I13
I4
F0.5
S'so-so'
p792
tp793
a(I13
I4
F0.25
S'responsive'
p794
tp795
a(I13
I4
F1.0
S'good'
p796
tp797
a(I18
I21
F-0.75
S'bright'
p798
tp799
a(I37
I9
F-0.75
S'bright'
p800
tp801
a(I37
I12
F0.375
S'new'
p802
tp803
a(I41
I7
F0.125
g211
tp804
a(I51
I2
F0.625
S'easy'
p805
tp806
a(I51
I2
I0
S'crystal'
p807
tp808
a(I51
I2
F0.5
S'clear'
p809
tp810
a(I55
I0
F0.5
S'touch'
p811
tp812
a(I56
I1
I0
S'great'
p813
tp814
a(I67
I17
F-0.625
S'other'
p815
tp816
a(I80
I3
I0
S'quick'
p817
tp818
a(I88
I1
F0.875
S'nice'
p819
tp820
a(I88
I1
F-0.75
S'bright'
p821
tp822
a(I102
I3
F-0.625
S'free'
p823
tp824
a(I115
I0
F1.0
S'good'
p825
tp826
a(I120
I1
I0
g213
tp827
a(I127
I4
F-0.625
g215
tp828
a(I127
I5
I0
S'sensitive'
p829
tp830
a(I149
I5
I0
S'sensitive'
p831
tp832
a(I161
I0
F1.0
S'good'
p833
tp834
a(I185
I3
F-0.375
S'black'
p835
tp836
a(I186
I2
F-0.25
S'parallel'
p837
tp838
a(I190
I0
F1.0
S'good'
p839
tp840
a(I194
I0
F-0.375
S'smaller'
p841
tp842
a(I214
I0
F1.0
S'good'
p843
tp844
a(I220
I2
F-0.75
S'bright'
p845
tp846
a(I224
I9
I0
S'big'
p847
tp848
a(I224
I9
F-0.375
S'small'
p849
tp850
as(S'time'
p851
tp852
(lp853
(I12
I5
F0.125
S'first'
p854
tp855
a(I13
I2
F0.125
S'first'
p856
tp857
a(I15
I2
F0.125
S'first'
p858
tp859
a(I81
I18
F-0.5
S'long'
p860
tp861
a(I87
I3
F0.125
S'first'
p862
tp863
a(I105
I0
I0
S'same'
p864
tp865
a(I108
I4
F0.625
S'easy'
p866
tp867
a(I108
I4
F0.125
S'first'
p868
tp869
a(I125
I11
F-0.25
S'disappointed'
p870
tp871
a(I125
I11
I0
S'big'
p872
tp873
a(I141
I3
F-0.875
S'worst'
p874
tp875
a(I187
I4
F-0.875
S'hard'
p876
tp877
as(S'replacement'
p878
S'unit'
p879
tp880
(lp881
(I232
I6
F0.125
S'solid'
p882
tp883
a(I232
I6
F0.125
S'first'
p884
tp885
as(S'touch'
p886
S'screen'
p887
tp888
(lp889
(I13
I4
F0.5
g792
tp890
a(I13
I4
F0.25
g794
tp891
a(I13
I4
F1.0
g796
tp892
a(I18
I32
F1.0
g76
tp893
a(I18
I32
F-0.75
g78
tp894
a(I18
I32
F-0.625
g80
tp895
a(I55
I0
F0.5
g811
tp896
a(I127
I5
I0
g829
tp897
a(I149
I5
I0
g831
tp898
a(I220
I5
F0.375
g82
tp899
as(S'google'
p900
S'play'
p901
tp902
(lp903
(I66
I1
F-0.25
g460
tp904
a(I97
I3
F-0.25
g462
tp905
a(I98
I1
F-0.25
g464
tp906
a(I120
I1
F-0.25
g466
tp907
a(I220
I9
F-0.25
g468
tp908
as(S'viewing'
p909
S'angles'
p910
tp911
(lp912
(I170
I3
F0.5
S'touch'
p913
tp914
as(S'angle'
p915
tp916
(lp917
(I127
I4
I0
S'wide'
p918
tp919
a(I149
I2
I0
S'weird'
p920
tp921
a(I149
I2
F-0.625
S'other'
p922
tp923
a(I149
I2
F0.625
S'straight'
p924
tp925
a(I194
I0
F-0.5
S'certain'
p926
tp927
as(S'samsung'
p928
tp929
(lp930
(I53
I1
F0.5
S'expensive'
p931
tp932
a(I177
I0
F1.0
S'better'
p933
tp934
as(S'look'
p935
tp936
(lp937
(I27
I2
F0.875
S'nice'
p938
tp939
as(S'everything'
p940
tp941
(lp942
(I37
I4
I0
S'more'
p943
tp944
a(I74
I0
F-0.375
S'simple'
p945
tp946
a(I202
I0
F0.5
S'expensive'
p947
tp948
a(I232
I4
I0
S'sturdy'
p949
tp950
as(g425
S'screen'
p951
S'protector'
p952
tp953
(lp954
(I42
I2
I0
g692
tp955
a(I120
I1
I0
g213
tp956
a(I127
I4
F-0.625
g215
tp957
as(S'camera'
p958
tp959
(lp960
(I1
I1
F-0.625
S'bad'
p961
tp962
a(I1
I1
F1.0
S'good'
p963
tp964
a(I31
I1
F0.625
S'perfect'
p965
tp966
a(I31
I1
F1.0
S'better'
p967
tp968
a(I55
I2
F-0.625
S'useless'
p969
tp970
a(I103
I4
F-0.625
S'bad'
p971
tp972
a(I115
I0
I0
S'rear'
p973
tp974
a(I115
I0
F1.0
S'good'
p975
tp976
a(I115
I0
F1.0
S'good'
p977
tp978
a(I149
I4
F1.0
S'good'
p979
tp980
a(I172
I9
F-0.625
S'average'
p981
tp982
a(I179
I0
F1.0
S'best'
p983
tp984
a(I194
I0
F-0.125
S'slow'
p985
tp986
a(I195
I3
F1.0
S'better'
p987
tp988
as(S'5'
p989
S'stars'
p990
tp991
(lp992
(I119
I13
I0
g220
tp993
as(S'galaxy'
p994
tp995
(lp996
(I38
I0
I0
S'old'
p997
tp998
as(S'google'
p999
S'play'
p1000
S'store'
p1001
tp1002
(lp1003
(I66
I1
F-0.25
g460
tp1004
a(I97
I3
F-0.25
g462
tp1005
a(I120
I1
F-0.25
g466
tp1006
as(S'and'
p1007
S'screen'
p1008
S'protector'
p1009
tp1010
(lp1011
(I42
I2
I0
g692
tp1012
a(I120
I1
I0
g213
tp1013
a(I127
I4
F-0.625
g215
tp1014
as(S'play'
p1015
S'store'
p1016
tp1017
(lp1018
(I66
I1
F-0.25
g460
tp1019
a(I81
I13
F-0.25
S'ready'
p1020
tp1021
a(I97
I3
F-0.25
g462
tp1022
a(I120
I1
F-0.25
g466
tp1023
as(S'works'
p1024
tp1025
(lp1026
(I124
I0
I0
g738
tp1027
a(I127
I4
F0.125
S'capable'
p1028
tp1029
as(S'think'
p1030
tp1031
(lp1032
(I93
I5
F-0.25
S'inexpensive'
p1033
tp1034
as(S'apps'
p1035
tp1036
(lp1037
(I18
I3
F-0.625
S'other'
p1038
tp1039
a(I18
I5
F0.125
S'able'
p1040
tp1041
a(I18
I44
I0
S'many'
p1042
tp1043
a(I19
I3
I0
S'many'
p1044
tp1045
a(I37
I8
I0
S'quick'
p1046
tp1047
a(I124
I1
F0.625
S'easy'
p1048
tp1049
a(I125
I1
I0
S'download'
p1050
tp1051
a(I127
I3
I0
S'most'
p1052
tp1053
a(I129
I0
F-0.125
S'slow'
p1054
tp1055
a(I153
I3
F-0.5
S'certain'
p1056
tp1057
a(I153
I3
I0
S'such'
p1058
tp1059
a(I213
I3
I0
S'own'
p1060
tp1061
a(I213
I3
F-0.5
S'open'
p1062
tp1063
a(I220
I6
I0
S'few'
p1064
tp1065
a(I232
I2
I0
S'android'
p1066
tp1067
as(S'better'
p1068
tp1069
(lp1070
(I5
I0
F0.375
S'much'
p1071
tp1072
a(I28
I3
I0
S'internet'
p1073
tp1074
a(I132
I0
F-0.25
S'epic'
p1075
tp1076
as(S'screen'
p1077
S'protector'
p1078
tp1079
(lp1080
(I42
I2
I0
g692
tp1081
a(I120
I1
I0
g213
tp1082
a(I127
I4
F-0.625
g215
tp1083
as(S'nothing'
p1084
tp1085
(lp1086
(I68
I0
F0.125
S'far'
p1087
tp1088
a(I116
I0
F1.0
S'better'
p1089
tp1090
as(S'call'
p1091
tp1092
(lp1093
(I37
I5
I0
S'fast'
p1094
tp1095
a(I96
I1
I0
S'signal'
p1096
tp1097
as(S'blu'
p1098
S'advance'
p1099
tp1100
(lp1101
(I4
I1
F0.125
g626
tp1102
a(I224
I9
F-0.75
g630
tp1103
as(S'looking'
p1104
tp1105
(lp1106
(I18
I55
I0
S'cool'
p1107
tp1108
a(I237
I1
F1.0
S'good'
p1109
tp1110
a(I237
I1
F0.625
S'easy'
p1111
tp1112
as(S'product'
p1113
tp1114
(lp1115
(I34
I2
F-0.375
S'double'
p1116
tp1117
a(I99
I1
F-0.25
S'modern'
p1118
tp1119
a(I103
I7
F-0.125
S'overall'
p1120
tp1121
a(I103
I7
I0
S'great'
p1122
tp1123
a(I116
I6
F-0.5
S'certain'
p1124
tp1125
a(I116
I6
F1.0
S'best'
p1126
tp1127
a(I141
I6
I0
S'great'
p1128
tp1129
a(I203
I0
F0.5
S'grateful'
p1130
tp1131
as.