(dp0
(S'screen'
p1
S'size'
p2
tp3
(lp4
(I3
I3
F-0.5
S'sure'
p5
I3
tp6
a(I4
I124
I0
S'only'
p7
I3
tp8
a(I5
I32
F0.125
S'protective'
p9
I3
tp10
as(S'battery'
p11
S'life'
p12
tp13
(lp14
(I2
I14
I0
S'phenomenal'
p15
I1
tp16
a(I2
I56
F1.0
S'good'
p17
I1
tp18
a(I2
I56
I0
S'external'
p19
I1
tp20
a(I2
I102
I0
S'great'
p21
I1
tp22
a(I3
I0
F-0.5
S'long'
p23
I1
tp24
a(I3
I12
I0
S'great'
p25
I1
tp26
a(I4
I3
F-0.5
S'long'
p27
I1
tp28
a(I4
I83
F-0.5
S'long'
p29
I1
tp30
a(I4
I86
I0
S'great'
p31
I1
tp32
a(I4
I248
F1.0
S'best'
p33
I1
tp34
a(I6
I22
F0.5
S'comparable'
p35
I1
tp36
a(I6
I68
F1.0
S'good'
p37
I1
tp38
a(I7
I42
I0
S'external'
p39
I1
tp40
a(I2
I14
I0
g15
I19
tp41
a(I2
I56
F1.0
g17
I19
tp42
a(I2
I102
I0
g21
I19
tp43
a(I4
I83
F-0.5
g29
I19
tp44
a(I4
I179
I0
S'real'
p45
I19
tp46
a(I4
I248
F1.0
g33
I19
tp47
a(I4
I286
F-0.875
S'hard'
p48
I19
tp49
a(I6
I22
F0.5
g35
I19
tp50
a(I6
I68
F1.0
g37
I19
tp51
a(I1
I13
I0
S'large'
p52
I15
tp53
a(I2
I56
I0
g19
I15
tp54
a(I3
I0
F-0.5
g23
I15
tp55
a(I3
I12
I0
g25
I15
tp56
a(I4
I3
F-0.5
g27
I15
tp57
a(I4
I86
I0
g31
I15
tp58
a(I4
I242
F0.625
S'removable'
p59
I15
tp60
a(I5
I11
F0.5
S'strong'
p61
I15
tp62
a(I7
I26
I0
S'large'
p63
I15
tp64
a(I7
I42
I0
g39
I15
tp65
a(I7
I43
I0
S'official'
p66
I15
tp67
as(S'on'
p68
S'one'
p69
S'max'
p70
tp71
(lp72
(I2
I4
I0
S'incredible'
p73
I0
tp74
a(I4
I222
I0
S'phenomenal'
p75
I0
tp76
a(I6
I38
F-0.75
S'wrong'
p77
I0
tp78
a(I7
I1
I0
S'same'
p79
I0
tp80
a(I8
I2
F0.125
S'solid'
p81
I0
tp82
a(I8
I28
F1.0
S'best'
p83
I0
tp84
a(I8
I28
F-0.25
S'direct'
p85
I0
tp86
a(I8
I28
F-0.625
S'light'
p87
I0
tp88
a(I2
I4
I0
g73
I0
tp89
a(I4
I222
I0
g75
I0
tp90
a(I6
I38
F-0.75
g77
I0
tp91
a(I7
I1
I0
g79
I0
tp92
a(I8
I2
F0.125
g81
I0
tp93
a(I8
I28
F1.0
g83
I0
tp94
a(I8
I28
F-0.25
g85
I0
tp95
a(I8
I28
F-0.625
g87
I0
tp96
as(S'tablet'
p97
tp98
(lp99
(I4
I133
F-0.375
S'small'
p100
I14
tp101
as(S'samsung'
p102
tp103
(lp104
(I5
I19
I0
S'large'
p105
I7
tp106
a(I7
I22
I-100
S'cartoon-y'
p107
I7
tp108
as(S'camera'
p109
tp110
(lp111
(I2
I30
F-0.625
S'steady'
p112
I1
tp113
a(I4
I113
I0
S'wish'
p114
I1
tp115
a(I4
I113
I0
S'more'
p116
I1
tp117
a(I4
I118
I0
S'great'
p118
I1
tp119
a(I4
I119
F-0.5
S'actual'
p120
I1
tp121
a(I4
I232
F0.375
S'new'
p122
I1
tp123
a(I4
I247
F1.0
S'good'
p124
I1
tp125
a(I7
I35
F1.0
S'best'
p126
I1
tp127
a(I8
I29
F0.125
S'able'
p128
I1
tp129
a(I8
I37
I0
S'great'
p130
I1
tp131
as(S'build'
p132
S'quality'
p133
tp134
(lp135
(I7
I80
F0.125
S'solid'
p136
I2
tp137
as(S'button'
p138
tp139
(lp140
(I7
I72
I0
S'quick'
p141
I19
tp142
as(S'front'
p143
S'facing'
p144
S'speakers'
p145
tp146
(lp147
(I1
I11
F0.25
S'powerful'
p148
I0
tp149
a(I1
I11
F0.5
S'clear'
p150
I0
tp151
a(I4
I95
I0
S'phenomenal'
p152
I0
tp153
a(I7
I5
I0
S'great'
p154
I0
tp155
a(I1
I11
F0.25
g148
I0
tp156
a(I1
I11
F0.5
g150
I0
tp157
a(I4
I95
I0
g152
I0
tp158
a(I7
I5
I0
g154
I0
tp159
a(I1
I11
F0.25
g148
I2
tp160
a(I1
I11
F0.5
g150
I2
tp161
a(I2
I2
F0.25
S'larger'
p162
I2
tp163
a(I4
I0
I0
S'great'
p164
I2
tp165
a(I4
I95
I0
g152
I2
tp166
a(I4
I229
I0
S'great'
p167
I2
tp168
a(I7
I5
I0
g154
I2
tp169
a(I7
I97
F1.0
S'good'
p170
I2
tp171
as(S'sound'
p172
tp173
(lp174
(I2
I2
F0.875
S'music'
p175
I7
tp176
a(I3
I1
I0
S'great'
p177
I7
tp178
a(I4
I28
F0.125
S'first'
p179
I7
tp180
as(S'hands'
p181
tp182
(lp183
(I2
I20
I0
S'large'
p184
I15
tp185
a(I2
I23
F0.5
S'strong'
p186
I15
tp187
a(I2
I95
I0
S'large'
p188
I15
tp189
a(I4
I106
I0
S'big'
p190
I15
tp191
a(I4
I245
F-0.375
S'small'
p192
I15
tp193
a(I4
I245
F0.625
S'easy'
p194
I15
tp195
a(I7
I7
F-0.375
S'small'
p196
I15
tp197
a(I7
I77
I0
S'large'
p198
I15
tp199
a(I8
I44
F-0.375
S'small'
p200
I15
tp201
as(S'calls'
p202
tp203
(lp204
(I1
I5
F-0.25
S'dropped'
p205
I0
tp206
a(I7
I44
I0
S'few'
p207
I0
tp208
as(S'amazon'
p209
tp210
(lp211
(I4
I17
F-0.375
S'simple'
p212
I13
tp213
a(I5
I55
F1.0
S'better'
p214
I13
tp215
a(I6
I3
F0.125
S'spectacular'
p216
I13
tp217
a(I6
I4
F0.125
S'spectacular'
p218
I13
tp219
as(S'much'
p220
S'better'
p221
tp222
(lp223
(I2
I2
F0.375
S'much'
p224
I9
tp225
a(I4
I142
F0.375
S'much'
p226
I9
tp227
a(I8
I29
F0.375
S'much'
p228
I9
tp229
a(I8
I29
F-0.25
S'low'
p230
I9
tp231
a(I8
I30
F0.375
S'much'
p232
I9
tp233
as(S'blinkfeed'
p234
tp235
(lp236
(I4
I193
F0.5
S'absolute'
p237
I0
tp238
a(I4
I193
I0
S'most'
p239
I0
tp240
a(I4
I208
I0
S'later'
p241
I0
tp242
a(I4
I214
I0
S'current'
p243
I0
tp244
as(S'videos'
p245
tp246
(lp247
(I3
I1
F0.875
S'music'
p248
I8
tp249
as(S'watching'
p250
tp251
(lp252
(I1
I11
I0
S'great'
p253
I11
tp254
a(I4
I95
F0.875
S'nice'
p255
I11
tp256
as(S'feels'
p257
tp258
(lp259
(I5
I18
F0.5
S'expensive'
p260
I14
tp261
as.