(dp0
(S'sprint'
p1
tp2
(lp3
(I3
I24
I0
S'more'
p4
I0
tp5
a(I3
I115
I0
S'more'
p6
I0
tp7
a(I19
I71
F1.0
S'best'
p8
I0
tp9
as(S'iphone'
p10
tp11
(lp12
(I3
I103
I0
S'entire'
p13
I1
tp14
a(I3
I104
F-0.375
S'top'
p15
I1
tp16
a(I3
I121
F-0.625
S'other'
p17
I1
tp18
a(I7
I23
F-0.375
S'simple'
p19
I1
tp20
a(I7
I27
I0
S'faster'
p21
I1
tp22
a(I11
I9
I-100
S'it~~'
p23
I1
tp24
as(S'volume'
p25
tp26
(lp27
(I11
I80
F-0.75
S'little'
p28
I6
tp29
a(I11
I96
F-0.125
S'accidental'
p30
I6
tp31
as(S'battery'
p32
S'life'
p33
tp34
(lp35
(I3
I121
I0
S'standard'
p36
I1
tp37
a(I3
I127
F1.0
S'good'
p38
I1
tp39
a(I7
I24
I0
S'great'
p40
I1
tp41
a(I7
I24
F0.375
S'extended'
p42
I1
tp43
a(I8
I4
F1.0
S'good'
p44
I1
tp45
a(I11
I26
F-0.5
S'long'
p46
I1
tp47
a(I11
I38
I0
S'fast'
p48
I1
tp49
a(I11
I38
F0.125
S'capable'
p50
I1
tp51
a(I11
I38
I0
S'great'
p52
I1
tp53
a(I16
I12
I0
S'great'
p54
I1
tp55
a(I16
I16
F1.0
S'good'
p56
I1
tp57
a(I19
I7
I0
S'great'
p58
I1
tp59
a(I19
I29
F1.0
S'good'
p60
I1
tp61
a(I19
I40
F0.25
S'larger'
p62
I1
tp63
a(I19
I82
F-0.5
S'long'
p64
I1
tp65
a(I7
I24
I0
g40
I19
tp66
a(I19
I29
F1.0
g60
I19
tp67
a(I1
I6
F0.125
S'last'
p68
I15
tp69
a(I3
I2
I0
S'incredible'
p70
I15
tp71
a(I3
I49
F0.625
S'removable'
p72
I15
tp73
a(I3
I121
I0
g36
I15
tp74
a(I3
I124
F0.5
S'second'
p75
I15
tp76
a(I3
I127
F1.0
g38
I15
tp77
a(I6
I0
F-0.5
S'long'
p78
I15
tp79
a(I7
I24
F0.375
g42
I15
tp80
a(I8
I4
F1.0
g44
I15
tp81
a(I8
I5
F0.125
S'first'
p82
I15
tp83
a(I8
I5
I0
S'quick'
p84
I15
tp85
a(I11
I16
F0.125
S'last'
p86
I15
tp87
a(I11
I26
F-0.5
g46
I15
tp88
a(I11
I38
I0
g48
I15
tp89
a(I11
I38
F0.125
g50
I15
tp90
a(I11
I38
I0
g52
I15
tp91
a(I11
I93
F0.25
S'portable'
p92
I15
tp93
a(I11
I123
I0
S'external'
p94
I15
tp95
a(I16
I12
I0
g54
I15
tp96
a(I16
I16
F1.0
g56
I15
tp97
a(I19
I5
I0
S'user'
p98
I15
tp99
a(I19
I5
F0.625
S'replaceable'
p100
I15
tp101
a(I19
I7
I0
g58
I15
tp102
a(I19
I20
F0.125
S'last'
p103
I15
tp104
a(I19
I40
F0.25
g62
I15
tp105
a(I19
I82
F-0.5
g64
I15
tp106
a(I22
I1
F0.125
S'last'
p107
I15
tp108
as(S'take'
p109
S'pictures'
p110
tp111
(lp112
(I3
I68
I0
S'great'
p113
I0
tp114
a(I3
I68
F0.625
S'easy'
p115
I0
tp116
a(I3
I68
I0
S'quick'
p117
I0
tp118
a(I3
I69
I0
S'great'
p119
I0
tp120
a(I3
I69
F-0.75
S'dark'
p121
I0
tp122
a(I8
I13
F0.75
S'beautiful'
p123
I0
tp124
a(I8
I13
F0.625
S'easy'
p125
I0
tp126
a(I11
I76
F0.5
S'clear'
p127
I0
tp128
a(I11
I76
F0.25
S'sharp'
p129
I0
tp130
a(I11
I78
F1.0
S'good'
p131
I0
tp132
a(I11
I78
F1.0
S'good'
p133
I0
tp134
a(I19
I28
F1.0
S'good'
p135
I0
tp136
a(I19
I28
F-0.25
S'low'
p137
I0
tp138
a(I19
I28
F-0.625
S'light'
p139
I0
tp140
as(S'samsung'
p141
S'galaxy'
p142
tp143
(lp144
(I12
I3
I0
S'more'
p145
I0
tp146
a(I12
I3
I0
g145
I7
tp147
a(I11
I98
I0
S'old'
p148
I0
tp149
a(I19
I38
F0.125
S'unwieldy'
p150
I0
tp151
a(I19
I65
F1.0
S'better'
p152
I0
tp153
as(S'button'
p154
tp155
(lp156
(I3
I82
F-0.875
S'hard'
p157
I19
tp158
a(I19
I11
F-0.375
S'top'
p159
I19
tp160
a(I21
I8
I0
S'rear'
p161
I19
tp162
as(S'call'
p163
S'quality'
p164
tp165
(lp166
(I7
I5
I0
S'great'
p167
I0
tp168
a(I11
I81
F1.0
S'good'
p169
I0
tp170
a(I21
I10
F1.0
S'good'
p171
I0
tp172
a(I21
I15
F-0.375
S'serious'
p173
I0
tp174
a(I21
I20
F-0.375
S'serious'
p175
I0
tp176
a(I21
I22
F-0.5
S'call'
p177
I0
tp178
as(S'super'
p179
S'fast'
p180
tp181
(lp182
(I0
I2
F-0.125
S'super'
p183
I0
tp184
a(I22
I4
F-0.625
S'light'
p185
I0
tp186
as(S'double'
p187
S'tap'
p188
tp189
(lp190
(I3
I41
F-0.375
S'double'
p191
I0
tp192
a(I3
I47
F-0.375
S'double'
p193
I0
tp194
a(I3
I48
F-0.375
S'double'
p195
I0
tp196
a(I19
I12
F-0.375
S'double'
p197
I0
tp198
a(I19
I27
F-0.375
S'double'
p199
I0
tp200
as(S'apps'
p201
tp202
(lp203
(I3
I109
I0
S'multiple'
p204
I0
tp205
a(I3
I109
F-0.5
S'open'
p206
I0
tp207
a(I19
I21
I0
S'many'
p208
I0
tp209
as(S'lg'
p210
S'g2'
p211
tp212
(lp213
(I11
I105
I0
S'commercial'
p214
I0
tp215
a(I15
I2
F-0.625
S'glad'
p216
I0
tp217
a(I19
I9
F1.0
S'better'
p218
I0
tp219
a(I19
I35
F1.0
S'good'
p220
I0
tp221
as(S'galaxy'
p222
S's4'
p223
tp224
(lp225
(I19
I65
F1.0
g152
I0
tp226
as(S'camera'
p227
tp228
(lp229
(I3
I93
I0
S'real'
p230
I1
tp231
a(I11
I17
F1.0
S'good'
p232
I1
tp233
a(I13
I22
F-0.125
S'slow'
p234
I1
tp235
a(I16
I17
F1.0
S'good'
p236
I1
tp237
a(I17
I1
I0
S'great'
p238
I1
tp239
a(I21
I2
I0
S'great'
p240
I1
tp241
a(I21
I26
F0.375
S'interesting'
p242
I1
tp243
a(I21
I35
F0.5
S'clear'
p244
I1
tp245
a(I21
I35
I0
S'most'
p246
I1
tp247
as(S'buttons'
p248
S'on'
p249
S'back'
p250
tp251
(lp252
(I11
I55
I0
S'physical'
p253
I0
tp254
a(I11
I61
F-0.375
S'smaller'
p255
I0
tp256
a(I21
I49
F-0.5
S'sure'
p257
I0
tp258
a(I11
I55
I0
g253
I0
tp259
a(I11
I61
F-0.375
g255
I0
tp260
a(I21
I49
F-0.5
g257
I0
tp261
a(I11
I55
I0
g253
I13
tp262
as.