(dp0
(S'happy'
p1
S'with'
p2
S'purchase'
p3
tp4
(lp5
(I33
I7
F0.875
S'happy'
p6
I0
tp7
a(I51
I30
F0.875
S'happy'
p8
I0
tp9
as(S'google'
p10
S'play'
p11
tp12
(lp13
(I28
I13
F-0.25
S'google'
p14
I0
tp15
a(I7
I28
F-0.625
S'other'
p16
I4
tp17
a(I7
I28
I0
S'standard'
p18
I4
tp19
as(S'viewing'
p20
S'angles'
p21
tp22
(lp23
(I51
I16
F0.5
S'touch'
p24
I5
tp25
as(S'battery'
p26
S'life'
p27
tp28
(lp29
(I18
I40
I0
S'great'
p30
I1
tp31
a(I22
I5
I0
S'great'
p32
I1
tp33
a(I22
I84
I0
S'great'
p34
I1
tp35
a(I22
I84
I0
S'most'
p36
I1
tp37
a(I25
I6
F1.0
S'best'
p38
I1
tp39
a(I32
I0
F-0.5
S'poor'
p40
I1
tp41
a(I41
I1
I0
S'great'
p42
I1
tp43
a(I45
I29
F-0.25
S'lowest'
p44
I1
tp45
a(I18
I40
I0
g30
I19
tp46
a(I22
I5
I0
g32
I19
tp47
a(I22
I84
I0
g34
I19
tp48
a(I22
I84
I0
g36
I19
tp49
a(I25
I6
F1.0
g38
I19
tp50
a(I41
I1
I0
g42
I19
tp51
a(I0
I7
F1.0
S'good'
p52
I15
tp53
a(I4
I8
F0.125
S'last'
p54
I15
tp55
a(I4
I8
F-0.5
S'long'
p56
I15
tp57
a(I7
I60
I0
S'curious'
p58
I15
tp59
a(I9
I2
F0.625
S'removable'
p60
I15
tp61
a(I9
I2
F0.625
S'removable'
p62
I15
tp63
a(I9
I2
F0.5
S'second'
p64
I15
tp65
a(I16
I2
F0.125
S'last'
p66
I15
tp67
a(I18
I6
F0.375
S'extra'
p68
I15
tp69
a(I22
I32
F0.625
S'decent'
p70
I15
tp71
a(I25
I0
F-0.25
S'low'
p72
I15
tp73
a(I32
I0
F-0.5
g40
I15
tp74
a(I45
I29
F-0.25
g44
I15
tp75
a(I48
I3
F0.125
S'last'
p76
I15
tp77
a(I52
I7
F0.125
S'last'
p78
I15
tp79
a(I52
I7
F-0.5
S'long'
p80
I15
tp81
a(I67
I30
F0.125
S'last'
p82
I15
tp83
a(I69
I26
I0
S'rapid'
p84
I15
tp85
a(I69
I28
F0.125
S'last'
p86
I15
tp87
as(S'resolution'
p88
tp89
(lp90
(I0
I23
F-0.5
S'sure'
p91
I1
tp92
a(I23
I0
F1.0
S'good'
p93
I1
tp94
a(I31
I12
I0
S'great'
p95
I1
tp96
a(I48
I4
I0
S'great'
p97
I1
tp98
a(I53
I7
I0
S'adequate'
p99
I1
tp100
a(I53
I7
F-0.25
S'higher'
p101
I1
tp102
a(I56
I89
F-0.625
S'bad'
p103
I1
tp104
as(S'a'
p105
S'screen'
p106
S'protector'
p107
tp108
(lp109
(I35
I4
I0
S'included'
p110
I1
tp111
a(I37
I27
F-0.625
S'free'
p112
I1
tp113
a(I35
I4
I0
g110
I4
tp114
a(I37
I27
F-0.625
g112
I4
tp115
as(S'samsung'
p116
tp117
(lp118
(I18
I27
F0.5
S'expensive'
p119
I7
tp120
a(I22
I44
I0
S'same'
p121
I7
tp122
a(I35
I4
I0
S'ergonomic'
p123
I7
tp124
a(I53
I0
F1.0
S'better'
p125
I7
tp126
as(S'dual'
p127
S'sim'
p128
tp129
(lp130
(I22
I79
I0
S'great'
p131
I0
tp132
a(I71
I1
F-0.5
S'international'
p133
I0
tp134
as(S'straight'
p135
S'talk'
p136
tp137
(lp138
(I17
I10
F0.625
S'straight'
p139
I0
tp140
a(I29
I48
F0.625
S'straight'
p141
I0
tp142
a(I51
I39
F0.625
S'straight'
p143
I0
tp144
as(S'front'
p145
S'facing'
p146
S'camera'
p147
tp148
(lp149
(I25
I5
F1.0
S'good'
p150
I0
tp151
a(I38
I1
F0.875
S'nice'
p152
I14
tp153
a(I0
I4
F-0.625
S'bad'
p154
I1
tp155
a(I0
I4
F1.0
S'good'
p156
I1
tp157
a(I12
I1
F0.625
S'perfect'
p158
I1
tp159
a(I12
I1
F1.0
S'better'
p160
I1
tp161
a(I18
I36
F-0.625
S'useless'
p162
I1
tp163
a(I25
I5
F1.0
g150
I1
tp164
a(I29
I22
F-0.625
S'bad'
p165
I1
tp166
a(I31
I13
F1.0
S'better'
p167
I1
tp168
a(I32
I0
I0
S'rear'
p169
I1
tp170
a(I32
I0
F1.0
S'good'
p171
I1
tp172
a(I32
I0
F1.0
S'good'
p173
I1
tp174
a(I45
I40
F1.0
S'good'
p175
I1
tp176
a(I51
I35
F-0.625
S'average'
p177
I1
tp178
a(I54
I0
F1.0
S'best'
p179
I1
tp180
a(I56
I52
F-0.125
S'slow'
p181
I1
tp182
a(I56
I58
F1.0
S'better'
p183
I1
tp184
as(S'high'
p185
S'end'
p186
tp187
(lp188
(I31
I7
I0
S'high'
p189
I0
tp190
a(I52
I0
I0
S'high'
p191
I0
tp192
a(I60
I0
I0
S'high'
p193
I0
tp194
as(S'memory'
p195
tp196
(lp197
(I0
I55
F0.375
S'available'
p198
I5
tp199
a(I0
I57
F0.625
S'acceptable'
p200
I5
tp201
a(I4
I50
F0.375
S'much'
p202
I5
tp203
a(I4
I50
I0
S'more'
p204
I5
tp205
a(I4
I50
I0
S'internal'
p206
I5
tp207
a(I8
I18
I0
S'internal'
p208
I5
tp209
a(I64
I17
I0
S'external'
p210
I5
tp211
a(I64
I17
I0
S'internal'
p212
I5
tp213
as(S'good'
p214
S'price'
p215
tp216
(lp217
(I8
I0
F-0.25
S'low'
p218
I14
tp219
a(I22
I10
F1.0
S'good'
p220
I14
tp221
a(I46
I2
F1.0
S'good'
p222
I14
tp223
a(I48
I12
F1.0
S'good'
p224
I14
tp225
a(I54
I0
F0.625
S'perfect'
p226
I14
tp227
a(I58
I0
F1.0
S'best'
p228
I14
tp229
a(I64
I18
F-0.25
S'cheaper'
p230
I14
tp231
a(I64
I18
F0.625
S'easy'
p232
I14
tp233
a(I71
I6
F0.875
S'attractive'
p234
I14
tp235
as(S'silicone'
p236
S'case'
p237
tp238
(lp239
(I7
I62
F0.125
S'protective'
p240
I0
tp241
a(I7
I65
I0
S'useful'
p242
I0
tp243
a(I29
I9
F-0.625
S'bad'
p244
I0
tp245
as(S'sd'
p246
S'card'
p247
tp248
(lp249
(I7
I14
I0
S'external'
p250
I0
tp251
a(I7
I15
F0.125
S'able'
p252
I0
tp253
as(S'sim'
p254
S'cards'
p255
tp256
(lp257
(I69
I17
F-0.625
S'other'
p258
I0
tp259
as(S'android'
p260
tp261
(lp262
(I11
I0
F0.875
S'nice'
p263
I0
tp264
a(I16
I8
I0
S'user'
p265
I0
tp266
a(I16
I8
F0.375
S'friendly'
p267
I0
tp268
a(I22
I26
I0
S'standard'
p269
I0
tp270
a(I24
I4
F0.5
S'expensive'
p271
I0
tp272
a(I26
I0
F0.25
S'unlocked'
p273
I0
tp274
a(I26
I15
F0.25
S'unlocked'
p275
I0
tp276
a(I26
I18
F-0.25
S'inexpensive'
p277
I0
tp278
a(I28
I21
F1.0
S'best'
p279
I0
tp280
a(I30
I1
I0
S'latest'
p281
I0
tp282
a(I35
I3
F0.875
S'nice'
p283
I0
tp284
a(I35
I4
F-0.625
S'other'
p285
I0
tp286
a(I51
I14
F1.0
S'best'
p287
I0
tp288
a(I67
I11
I0
S'open-source'
p289
I0
tp290
as(S'ear'
p291
S'piece'
p292
tp293
(lp294
(I37
I21
F0.75
S'ear'
p295
I1
tp296
a(I56
I85
F0.75
S'ear'
p297
I1
tp298
as(S'play'
p299
S'store'
p300
tp301
(lp302
(I24
I27
F-0.25
S'ready'
p303
I0
tp304
as(S'calls'
p305
tp306
(lp307
(I29
I26
F0.5
S'clear'
p308
I0
tp309
a(I56
I57
F0.5
S'clear'
p310
I0
tp311
a(I69
I26
F-0.75
S'short'
p312
I0
tp313
as(S'sim'
p314
S'card'
p315
tp316
(lp317
(I26
I1
I0
S'overseas'
p318
I0
tp319
a(I26
I1
I0
S'local'
p320
I0
tp321
a(I66
I6
F0.5
S'second'
p322
I0
tp323
a(I68
I10
F0.625
S'easy'
p324
I0
tp325
a(I69
I17
F-0.625
g258
I0
tp326
a(I69
I26
F0.5
S'second'
p327
I0
tp328
as(S'moto'
p329
S'e'
p330
tp331
(lp332
(I0
I44
F0.875
S'happier'
p333
I0
tp334
a(I1
I2
F1.0
S'better'
p335
I0
tp336
a(I1
I2
I0
S'social'
p337
I0
tp338
a(I1
I2
F0.5
S'drive'
p339
I0
tp340
as(S'case'
p341
S'and'
p342
S'screen'
p343
tp344
(lp345
(I16
I10
F0.125
S'protective'
p346
I0
tp347
a(I35
I4
I0
g110
I0
tp348
a(I37
I27
F-0.625
g112
I0
tp349
a(I56
I80
F0.875
S'nice'
p350
I0
tp351
as(S'blu'
p352
S'advance'
p353
tp354
(lp355
(I68
I10
I0
S'more'
p356
I0
tp357
a(I68
I10
F-0.75
S'comfortable'
p358
I0
tp359
a(I68
I10
I0
g356
I16
tp360
a(I68
I10
F-0.75
g358
I16
tp361
as(S'smartphone'
p362
tp363
(lp364
(I22
I83
F1.0
S'good'
p365
I0
tp366
a(I22
I83
I0
S'basic'
p367
I0
tp368
a(I22
I100
F1.0
S'best'
p369
I0
tp370
a(I25
I11
I0
S'basic'
p371
I0
tp372
a(I25
I11
F1.0
S'good'
p373
I0
tp374
a(I40
I5
I0
S'great'
p375
I0
tp376
a(I40
I5
F0.125
S'first'
p377
I0
tp378
a(I40
I5
F0.125
S'first'
p379
I0
tp380
a(I54
I0
F1.0
S'good'
p381
I0
tp382
a(I56
I47
F0.125
S'first'
p383
I0
tp384
a(I56
I47
F0.5
S'satisfied'
p385
I0
tp386
as(S'watch'
p387
S'videos'
p388
tp389
(lp390
(I24
I54
F-0.625
S'bad'
p391
I0
tp392
as(S'great'
p393
S'price'
p394
tp395
(lp396
(I25
I4
I0
S'great'
p397
I19
tp398
a(I26
I0
I0
S'great'
p399
I19
tp400
a(I29
I25
F0.875
S'happy'
p401
I19
tp402
a(I30
I0
F0.75
S'beautiful'
p403
I19
tp404
a(I30
I0
I0
S'great'
p405
I19
tp406
a(I34
I2
I0
S'great'
p407
I19
tp408
a(I45
I6
I0
S'great'
p409
I19
tp410
a(I51
I0
I0
S'great'
p411
I19
tp412
as(S'customer'
p413
S'service'
p414
tp415
(lp416
(I45
I5
I0
S'full'
p417
I3
tp418
a(I64
I15
I0
S'more'
p419
I3
tp420
a(I64
I15
F0.625
S'accessible'
p421
I3
tp422
a(I44
I0
I0
S'net'
p423
I16
tp424
a(I45
I5
I0
g417
I16
tp425
a(I64
I15
I0
g419
I16
tp426
a(I64
I15
F0.625
g421
I16
tp427
as(S'wifi'
p428
tp429
(lp430
(I4
I49
F-0.625
S'free'
p431
I0
tp432
a(I4
I49
F1.0
S'good'
p433
I0
tp434
a(I29
I33
F1.0
S'good'
p435
I0
tp436
a(I29
I33
F-0.375
S'stay'
p437
I0
tp438
a(I31
I12
I0
S'great'
p439
I0
tp440
as(S'apps'
p441
tp442
(lp443
(I7
I9
F-0.625
S'other'
p444
I0
tp445
a(I7
I12
F0.125
S'able'
p446
I0
tp447
a(I7
I58
I0
S'many'
p448
I0
tp449
a(I8
I1
I0
S'many'
p450
I0
tp451
a(I8
I5
I0
S'many'
p452
I0
tp453
a(I8
I5
F-0.5
S'open'
p454
I0
tp455
a(I14
I8
I0
S'quick'
p456
I0
tp457
a(I36
I1
F0.625
S'easy'
p458
I0
tp459
a(I37
I2
I0
S'download'
p460
I0
tp461
a(I37
I26
I0
S'most'
p462
I0
tp463
a(I38
I0
F-0.125
S'slow'
p464
I0
tp465
a(I46
I11
F-0.5
S'certain'
p466
I0
tp467
a(I46
I11
I0
S'such'
p468
I0
tp469
a(I64
I5
I0
S'own'
p470
I0
tp471
a(I64
I5
F-0.5
S'open'
p472
I0
tp473
a(I67
I6
I0
S'few'
p474
I0
tp475
a(I69
I17
I0
S'android'
p476
I0
tp477
as(S'replacement'
p478
S'unit'
p479
tp480
(lp481
(I69
I23
F0.125
S'first'
p482
I0
tp483
as(S'touch'
p484
S'screen'
p485
tp486
(lp487
(I4
I39
F0.5
S'so-so'
p488
I2
tp489
a(I4
I39
F0.25
S'responsive'
p490
I2
tp491
a(I4
I39
F1.0
S'good'
p492
I2
tp493
a(I7
I43
F1.0
S'better'
p494
I2
tp495
a(I7
I43
F-0.75
S'worse'
p496
I2
tp497
a(I7
I43
F-0.625
S'other'
p498
I2
tp499
a(I18
I34
F0.5
S'touch'
p500
I2
tp501
a(I37
I28
I0
S'sensitive'
p502
I2
tp503
a(I45
I42
F0.5
S'touch'
p504
I2
tp505
a(I45
I42
I0
S'sensitive'
p506
I2
tp507
a(I67
I5
F0.375
S'extra'
p508
I2
tp509
as.