(dp0
(S'google'
p1
S'play'
p2
tp3
(lp4
(I1
I38
F-0.25
S'google'
p5
I0
tp6
a(I9
I49
F-0.125
S'super'
p7
I0
tp8
a(I38
I0
F-0.25
S'google'
p9
I0
tp10
a(I45
I1
I0
S'such'
p11
I0
tp12
a(I46
I27
F-0.25
S'google'
p13
I0
tp14
a(I45
I1
I0
g11
I4
tp15
a(I46
I23
I0
S'e-mail'
p16
I4
tp17
as(S'battery'
p18
S'life'
p19
tp20
(lp21
(I22
I6
F-0.5
S'poor'
p22
I1
tp23
a(I31
I2
F1.0
S'good'
p24
I1
tp25
a(I37
I10
F1.0
S'good'
p26
I1
tp27
a(I45
I85
F-0.75
S'short'
p28
I1
tp29
a(I46
I46
F-0.5
S'less'
p30
I1
tp31
a(I13
I11
F-0.5
S'poor'
p32
I15
tp33
a(I19
I60
F0.125
S'last'
p34
I15
tp35
a(I22
I16
I0
S'quick'
p36
I15
tp37
a(I45
I56
I0
S'most'
p38
I15
tp39
as(S'texting'
p40
tp41
(lp42
(I37
I44
F1.0
S'good'
p43
I0
tp44
as(S'talk'
p45
tp46
(lp47
(I45
I75
I0
S'basic'
p48
I13
tp49
as(S'service'
p50
tp51
(lp52
(I1
I2
I0
S'adequate'
p53
I16
tp54
a(I9
I20
F0.5
S'technical'
p55
I16
tp56
a(I9
I20
F0.5
S'told'
p57
I16
tp58
a(I10
I17
F-0.625
S'free'
p59
I16
tp60
a(I13
I81
F-0.25
S'ready'
p61
I16
tp62
as(S'bells'
p63
S'and'
p64
S'whistles'
p65
tp66
(lp67
(I19
I17
I0
S'many'
p68
I0
tp69
a(I24
I13
I0
S'few'
p70
I0
tp71
a(I24
I13
F0.375
S'extra'
p72
I0
tp73
as(S'tracfone'
p74
S'minutes'
p75
tp76
(lp77
(I1
I4
F-0.375
S'double'
p78
I0
tp79
a(I8
I5
F-0.625
S'other'
p80
I0
tp81
a(I10
I14
I0
S'minimal'
p82
I0
tp83
a(I10
I24
I0
S'minimal'
p84
I0
tp85
a(I10
I26
I0
S'useful'
p86
I0
tp87
a(I13
I1
I0
S'old'
p88
I0
tp89
a(I21
I31
I0
S'android'
p90
I0
tp91
a(I37
I32
F-0.25
S'triple'
p92
I0
tp93
a(I42
I14
F-0.5
S'regular'
p94
I0
tp95
a(I46
I39
I0
S'old'
p96
I0
tp97
a(I1
I11
I0
S'current'
p98
I0
tp99
a(I1
I36
F1.0
S'best'
p100
I0
tp101
a(I6
I0
F-0.5
S'long'
p102
I0
tp103
a(I6
I23
I0
S'android'
p104
I0
tp105
a(I8
I5
F-0.625
g80
I0
tp106
a(I9
I18
F0.5
S'high-tech'
p107
I0
tp108
a(I9
I51
F0.375
S'new'
p109
I0
tp110
a(I9
I54
I0
S'old'
p111
I0
tp112
a(I10
I14
I0
g82
I0
tp113
a(I10
I24
I0
g84
I0
tp114
a(I10
I26
I0
g86
I0
tp115
a(I13
I1
I0
g88
I0
tp116
a(I13
I4
F0.875
S'nice'
p117
I0
tp118
a(I13
I4
F0.625
S'easy'
p119
I0
tp120
a(I17
I21
I0
S'old'
p121
I0
tp122
a(I21
I30
I0
S'android'
p123
I0
tp124
a(I21
I63
I0
S'android'
p125
I0
tp126
a(I21
I66
I0
S'android'
p127
I0
tp128
a(I22
I7
I0
S'great'
p129
I0
tp130
a(I23
I13
F1.0
S'good'
p131
I0
tp132
a(I24
I8
F0.125
S'last'
p133
I0
tp134
a(I24
I9
F0.125
S'able'
p135
I0
tp136
a(I26
I12
F-0.375
S'simple'
p137
I0
tp138
a(I26
I15
I0
S'great'
p139
I0
tp140
a(I26
I15
F-0.75
S'little'
p141
I0
tp142
a(I27
I12
I0
S'old'
p143
I0
tp144
a(I30
I0
F0.875
S'happy'
p145
I0
tp146
a(I35
I1
I0
S'great'
p147
I0
tp148
a(I40
I24
F0.5
S'technical'
p149
I0
tp150
a(I41
I3
F0.5
S'reasonable'
p151
I0
tp152
a(I42
I14
F-0.5
g94
I0
tp153
a(I43
I11
I0
S'old'
p154
I0
tp155
a(I46
I1
F-0.625
S'other'
p156
I0
tp157
a(I46
I1
I0
S'old'
p158
I0
tp159
a(I46
I39
I0
g96
I0
tp160
as(S'transfer'
p161
tp162
(lp163
(I33
I7
F-0.25
S'direct'
p164
I1
tp165
as(S'storage'
p166
tp167
(lp168
(I17
I33
I0
S'more'
p169
I1
tp170
a(I17
I34
I0
S'internal'
p171
I1
tp172
a(I17
I35
I0
S'internal'
p173
I1
tp174
a(I17
I35
F-0.625
S'free'
p175
I1
tp176
a(I24
I0
F-0.25
S'low'
p177
I1
tp178
a(I26
I6
I0
S'one-third'
p179
I1
tp180
a(I26
I6
F0.375
S'available'
p181
I1
tp182
a(I37
I12
F-0.5
S'complaint'
p183
I1
tp184
a(I40
I27
I0
S'internal'
p185
I1
tp186
a(I42
I26
I0
S'internal'
p187
I1
tp188
a(I45
I81
F0.875
S'nice'
p189
I1
tp190
a(I46
I58
I0
S'internal'
p191
I1
tp192
a(I46
I59
I0
S'different'
p193
I1
tp194
as(S'android'
p195
S'tracfone'
p196
tp197
(lp198
(I6
I23
I0
g104
I0
tp199
a(I13
I44
F0.5
S'true'
p200
I0
tp201
a(I17
I48
F0.625
S'easy'
p202
I0
tp203
a(I17
I48
F0.5
S'clear'
p204
I0
tp205
a(I21
I30
I0
g123
I0
tp206
a(I21
I63
I0
g125
I0
tp207
a(I21
I66
I0
g127
I0
tp208
a(I26
I12
F-0.375
g137
I0
tp209
a(I42
I14
F-0.5
g94
I0
tp210
a(I46
I39
I0
g96
I0
tp211
a(I9
I48
F1.0
S'good'
p212
I0
tp213
a(I9
I58
F0.125
S'first'
p214
I0
tp215
a(I13
I44
F0.5
g200
I0
tp216
a(I14
I3
I0
S'basic'
p217
I0
tp218
a(I17
I48
F0.625
g202
I0
tp219
a(I17
I48
F0.5
g204
I0
tp220
a(I27
I10
I0
S'great'
p221
I0
tp222
a(I37
I1
F0.125
S'first'
p223
I0
tp224
a(I37
I31
F0.5
S'functional'
p225
I0
tp226
as(S'sd'
p227
S'card'
p228
tp229
(lp230
(I15
I3
I0
S'internal'
p231
I0
tp232
as(S'many'
p233
S'apps'
p234
tp235
(lp236
(I12
I11
F-0.25
S'google'
p237
I0
tp238
a(I12
I11
I0
S'android'
p239
I0
tp240
a(I12
I11
I0
S'many'
p241
I0
tp242
a(I23
I8
I0
S'many'
p243
I0
tp244
a(I37
I17
I0
S'many'
p245
I0
tp246
a(I37
I21
I0
S'many'
p247
I0
tp248
a(I37
I21
F0.5
S'possible'
p249
I0
tp250
a(I45
I87
I0
S'many'
p251
I0
tp252
a(I46
I5
I0
S'many'
p253
I0
tp254
a(I46
I5
I0
S'more'
p255
I0
tp256
a(I46
I9
I0
S'many'
p257
I0
tp258
as(S'verizon'
p259
tp260
(lp261
(I19
I36
F0.5
S'clear'
p262
I0
tp263
a(I46
I18
I0
S'extensive'
p264
I0
tp265
as(S'a'
p266
S'long'
p267
S'time'
p268
tp269
(lp270
(I19
I26
F-0.5
S'long'
p271
I12
tp272
a(I21
I24
F-0.5
S'long'
p273
I12
tp274
a(I21
I63
F-0.5
S'long'
p275
I12
tp276
a(I24
I4
F-0.5
S'longest'
p277
I12
tp278
a(I24
I4
F0.5
S'possible'
p279
I12
tp280
a(I37
I38
F-0.5
S'long'
p281
I12
tp282
a(I38
I1
F-0.5
S'long'
p283
I12
tp284
a(I45
I83
F-0.5
S'long'
p285
I12
tp286
a(I19
I26
F-0.5
g271
I13
tp287
a(I21
I24
F-0.5
g273
I13
tp288
a(I21
I63
F-0.5
g275
I13
tp289
a(I24
I4
F-0.5
g277
I13
tp290
a(I24
I4
F0.5
g279
I13
tp291
a(I37
I38
F-0.5
g281
I13
tp292
a(I38
I1
F-0.5
g283
I13
tp293
a(I45
I83
F-0.5
g285
I13
tp294
as(S'updates'
p295
tp296
(lp297
(I13
I14
I0
S'automatic'
p298
I12
tp299
a(I13
I18
F-0.5
S'sure'
p300
I12
tp301
a(I37
I23
F0.5
S'clear'
p302
I12
tp303
a(I46
I7
I0
S'automatic'
p304
I12
tp305
as(S'voice'
p306
tp307
(lp308
(I9
I53
I0
S'text'
p309
I4
tp310
a(I22
I2
F1.0
S'good'
p311
I4
tp312
a(I45
I39
I-100
S'2google'
p313
I4
tp314
as(S'apps'
p315
S'to'
p316
S'sd'
p317
tp318
(lp319
(I4
I22
F0.375
S'allow'
p320
I0
tp321
a(I15
I3
I0
g231
I0
tp322
a(I37
I21
I0
g247
I0
tp323
a(I37
I21
F0.5
g249
I0
tp324
a(I46
I5
I0
g253
I0
tp325
a(I46
I5
I0
g255
I0
tp326
a(I1
I40
F0.625
S'easy'
p327
I0
tp328
a(I1
I60
F1.0
S'good'
p329
I0
tp330
a(I4
I20
I0
S'more'
p331
I0
tp332
a(I4
I22
F0.375
g320
I0
tp333
a(I6
I26
F-0.625
S'other'
p334
I0
tp335
a(I8
I9
I0
S'basic'
p336
I0
tp337
a(I9
I32
I0
S'android'
p338
I0
tp339
a(I9
I49
F0.625
S'easy'
p340
I0
tp341
a(I9
I49
F-0.625
S'free'
p342
I0
tp343
a(I12
I11
F-0.25
g237
I0
tp344
a(I12
I11
I0
g239
I0
tp345
a(I12
I11
I0
g241
I0
tp346
a(I12
I13
I0
S'few'
p347
I0
tp348
a(I13
I2
F-0.125
S'slow'
p349
I0
tp350
a(I13
I3
F-0.5
S'sure'
p351
I0
tp352
a(I13
I13
I0
S'specific'
p353
I0
tp354
a(I13
I18
I0
S'individual'
p355
I0
tp356
a(I13
I28
I0
S'multiple'
p357
I0
tp358
a(I13
I76
I0
S'fast'
p359
I0
tp360
a(I17
I12
I0
S'most'
p361
I0
tp362
a(I19
I13
F-0.375
S'crazy'
p363
I0
tp364
a(I21
I35
I0
S'few'
p365
I0
tp366
a(I23
I8
I0
g243
I0
tp367
a(I26
I3
F0.125
S'able'
p368
I0
tp369
a(I37
I17
I0
g245
I0
tp370
a(I37
I21
I0
g247
I0
tp371
a(I37
I21
F0.5
g249
I0
tp372
a(I37
I23
F-0.625
S'other'
p373
I0
tp374
a(I37
I52
I0
S'few'
p375
I0
tp376
a(I38
I0
F0.5
S'careful'
p377
I0
tp378
a(I40
I16
I0
S'more'
p379
I0
tp380
a(I41
I1
F0.5
S'true'
p381
I0
tp382
a(I42
I9
F-0.625
S'free'
p383
I0
tp384
a(I43
I24
F0.375
S'newest'
p385
I0
tp386
a(I43
I29
F0.375
S'newest'
p387
I0
tp388
a(I45
I33
I0
S'drawer'
p389
I0
tp390
a(I45
I66
F-0.625
S'other'
p391
I0
tp392
a(I45
I76
F0.625
S'necessary'
p393
I0
tp394
a(I45
I87
I0
g251
I0
tp395
a(I46
I2
F-0.5
S'less'
p396
I0
tp397
a(I46
I5
I0
g253
I0
tp398
a(I46
I5
I0
g255
I0
tp399
a(I46
I9
I0
g257
I0
tp400
a(I46
I12
I0
S'most'
p401
I0
tp402
a(I46
I12
F0.375
S'available'
p403
I0
tp404
a(I46
I61
I0
S'faster'
p405
I0
tp406
as(S'and'
p407
S'triple'
p408
S'minutes'
p409
tp410
(lp411
(I1
I48
F-0.25
S'triple'
p412
I0
tp413
a(I37
I51
F-0.25
S'triple'
p414
I0
tp415
a(I37
I54
F-0.25
S'triple'
p416
I0
tp417
a(I42
I3
F-0.25
S'triple'
p418
I0
tp419
a(I1
I48
F-0.25
g412
I0
tp420
a(I37
I32
F-0.25
g92
I0
tp421
a(I37
I51
F-0.25
g414
I0
tp422
a(I37
I54
F-0.25
g416
I0
tp423
a(I42
I3
F-0.25
g418
I0
tp424
a(I45
I21
I0
S'great'
p425
I0
tp426
a(I45
I21
I0
g425
I1
tp427
as(S'low'
p428
S'memory'
p429
tp430
(lp431
(I4
I22
I0
S'internal'
p432
I0
tp433
a(I5
I4
F-0.375
S'small'
p434
I0
tp435
a(I6
I22
F-0.375
S'small'
p436
I0
tp437
a(I6
I22
F-0.25
S'low'
p438
I0
tp439
a(I6
I36
F-0.25
S'low'
p440
I0
tp441
a(I13
I12
F-0.5
S'poor'
p442
I0
tp443
a(I19
I13
F-0.25
S'low'
p444
I0
tp445
a(I21
I34
F-0.25
S'low'
p446
I0
tp447
a(I21
I35
F-0.25
S'low'
p448
I0
tp449
a(I21
I38
F-0.25
S'low'
p450
I0
tp451
a(I21
I71
I0
S'internal'
p452
I0
tp453
a(I21
I71
F-0.25
S'low'
p454
I0
tp455
a(I33
I4
I0
S'internal'
p456
I0
tp457
a(I41
I0
F-0.25
S'low'
p458
I0
tp459
a(I45
I71
F-0.25
S'low'
p460
I0
tp461
a(I46
I6
F-0.25
S'low'
p462
I0
tp463
a(I46
I10
F-0.25
S'low'
p464
I0
tp465
as(S'smart'
p466
tp467
(lp468
(I1
I29
F0.375
S'new'
p469
I10
tp470
a(I5
I4
F1.0
S'good'
p471
I10
tp472
a(I19
I41
I0
S'great'
p473
I10
tp474
a(I19
I41
I0
S'basic'
p475
I10
tp476
a(I23
I2
F0.125
S'first'
p477
I10
tp478
a(I23
I4
I0
S'great'
p479
I10
tp480
a(I30
I2
I0
S'basic'
p481
I10
tp482
a(I37
I33
F0.125
S'first'
p483
I10
tp484
a(I38
I0
F0.875
S'nice'
p485
I10
tp486
a(I48
I19
F1.0
S'good'
p487
I10
tp488
as(S'rural'
p489
S'area'
p490
tp491
(lp492
(I11
I2
I0
S'rural'
p493
I0
tp494
a(I22
I12
I0
S'rural'
p495
I0
tp496
a(I22
I12
I0
S'signal'
p497
I0
tp498
a(I22
I12
F-0.875
S'hard'
p499
I0
tp500
a(I46
I18
I0
S'rural'
p501
I0
tp502
as(S'app'
p503
S'to'
p504
S'sd'
p505
tp506
(lp507
(I15
I3
I0
g231
I0
tp508
a(I21
I71
I0
S'large'
p509
I0
tp510
as(S'network'
p511
tp512
(lp513
(I32
I3
F0.375
S'available'
p514
I0
tp515
a(I48
I28
F-0.5
S'actual'
p516
I0
tp517
a(I48
I42
I0
S'only'
p518
I0
tp519
as(S'great'
p520
S'deal'
p521
tp522
(lp523
(I10
I27
I0
S'great'
p524
I10
tp525
a(I10
I27
F1.0
S'better'
p526
I10
tp527
a(I13
I64
I0
S'great'
p528
I10
tp529
a(I19
I51
I0
S'such'
p530
I10
tp531
a(I19
I51
I0
S'great'
p532
I10
tp533
a(I45
I20
I0
S'great'
p534
I10
tp535
a(I48
I37
I0
S'great'
p536
I10
tp537
as(S'calls'
p538
tp539
(lp540
(I7
I4
F0.5
S'touch'
p541
I0
tp542
a(I8
I7
F0.75
S'receive'
p543
I0
tp544
a(I10
I8
F-0.625
S'free'
p545
I0
tp546
a(I13
I30
I0
S'such'
p547
I0
tp548
a(I19
I36
I0
S'crystal'
p549
I0
tp550
a(I24
I4
F-0.375
S'black'
p551
I0
tp552
a(I37
I25
F-0.625
S'free'
p553
I0
tp554
a(I43
I9
I0
S'least'
p555
I0
tp556
as(S'mp3'
p557
S'player'
p558
tp559
(lp560
(I8
I10
I0
S'great'
p561
I1
tp562
a(I13
I42
I0
S'more'
p563
I1
tp564
as(S'contacts'
p565
tp566
(lp567
(I17
I46
F0.125
S'able'
p568
I0
tp569
a(I46
I22
F0.5
S'accurate'
p570
I0
tp571
as(S'mb'
p572
S'of'
p573
S'data'
p574
tp575
(lp576
(I45
I58
F-0.75
S'little'
p577
I0
tp578
a(I12
I8
F0.75
S'give'
p579
I13
tp580
a(I13
I22
F-0.5
S'sure'
p581
I13
tp582
a(I13
I30
F0.5
S'clear'
p583
I13
tp584
a(I17
I45
I0
S'cool'
p585
I13
tp586
a(I45
I50
F-0.75
S'little'
p587
I13
tp588
a(I45
I58
F-0.75
g577
I13
tp589
a(I46
I4
F0.375
S'available'
p590
I13
tp591
as(S'download'
p592
S'an'
p593
S'app'
p594
tp595
(lp596
(I13
I19
I0
S'next'
p597
I0
tp598
a(I21
I71
I0
g509
I0
tp599
a(I37
I20
I0
S'few'
p600
I0
tp601
a(I13
I19
I0
g597
I1
tp602
as(S'system'
p603
S'memory'
p604
tp605
(lp606
(I6
I12
I0
S'full'
p607
I0
tp608
a(I27
I2
F-0.25
S'low'
p609
I0
tp610
a(I38
I8
I0
S'internal'
p611
I0
tp612
a(I38
I11
F0.125
S'last'
p613
I0
tp614
a(I46
I10
F-0.25
g464
I0
tp615
a(I17
I28
I0
S'android'
p616
I12
tp617
a(I27
I2
F-0.25
g609
I12
tp618
a(I38
I11
F0.125
g613
I12
tp619
a(I1
I40
I0
S'internal'
p620
I5
tp621
a(I1
I40
F-0.625
S'free'
p622
I5
tp623
a(I4
I22
I0
g432
I5
tp624
a(I5
I1
F-0.375
S'small'
p625
I5
tp626
a(I5
I1
I0
S'internal'
p627
I5
tp628
a(I5
I1
I0
S'different'
p629
I5
tp630
a(I5
I4
F-0.375
g434
I5
tp631
a(I6
I12
I0
g607
I5
tp632
a(I6
I22
F-0.375
g436
I5
tp633
a(I6
I22
F-0.25
g438
I5
tp634
a(I6
I36
F-0.25
g440
I5
tp635
a(I9
I28
F0.375
S'extra'
p636
I5
tp637
a(I9
I29
I0
S'internal'
p638
I5
tp639
a(I13
I12
F-0.5
g442
I5
tp640
a(I13
I16
I0
S'internal'
p641
I5
tp642
a(I13
I22
I0
S'minimal'
p643
I5
tp644
a(I13
I26
F-0.75
S'little'
p645
I5
tp646
a(I17
I2
I0
S'internal'
p647
I5
tp648
a(I17
I8
F-0.625
S'free'
p649
I5
tp650
a(I19
I13
F-0.25
g444
I5
tp651
a(I21
I34
F-0.25
g446
I5
tp652
a(I21
I35
F-0.25
g448
I5
tp653
a(I21
I38
F-0.25
g450
I5
tp654
a(I21
I71
I0
g452
I5
tp655
a(I21
I71
F-0.25
g454
I5
tp656
a(I25
I4
F0.125
S'enough'
p657
I5
tp658
a(I27
I10
F-0.75
S'little'
p659
I5
tp660
a(I27
I10
I0
S'internal'
p661
I5
tp662
a(I28
I2
I0
S'internal'
p663
I5
tp664
a(I33
I4
I0
g456
I5
tp665
a(I37
I20
I0
S'internal'
p666
I5
tp667
a(I37
I21
I0
S'internal'
p668
I5
tp669
a(I37
I28
I0
S'full'
p670
I5
tp671
a(I38
I0
F0.375
S'much'
p672
I5
tp673
a(I38
I8
I0
g611
I5
tp674
a(I40
I9
F-0.5
S'poor'
p675
I5
tp676
a(I40
I15
F-0.75
S'little'
p677
I5
tp678
a(I41
I0
F-0.25
g458
I5
tp679
a(I41
I1
I0
S'internal'
p680
I5
tp681
a(I42
I10
I0
S'internal'
p682
I5
tp683
a(I44
I0
I0
S'internal'
p684
I5
tp685
a(I44
I3
F0.125
S'enough'
p686
I5
tp687
a(I45
I3
I0
S'most'
p688
I5
tp689
a(I45
I3
F-0.25
S'google'
p690
I5
tp691
a(I45
I3
F-0.25
S'google'
p692
I5
tp693
a(I45
I3
F-0.25
S'google'
p694
I5
tp695
a(I45
I71
F-0.25
g460
I5
tp696
a(I45
I87
I0
S'faster'
p697
I5
tp698
a(I45
I87
F0.25
S'larger'
p699
I5
tp700
a(I46
I2
I0
S'limited'
p701
I5
tp702
a(I46
I6
F-0.25
g462
I5
tp703
a(I46
I8
F0.25
S'largest'
p704
I5
tp705
a(I46
I10
F-0.25
g464
I5
tp706
a(I48
I32
I0
S'internal'
p707
I5
tp708
as(S'smartphone'
p709
tp710
(lp711
(I9
I11
F0.375
S'reliable'
p712
I0
tp713
a(I13
I53
F-0.5
S'regular'
p714
I0
tp715
a(I21
I21
F0.375
S'new'
p716
I0
tp717
a(I37
I3
F0.125
S'first'
p718
I0
tp719
as(S'touch'
p720
S'screen'
p721
tp722
(lp723
(I1
I31
F0.5
S'touch'
p724
I2
tp725
a(I4
I23
F-0.75
S'bright'
p726
I2
tp727
a(I4
I23
F0.25
S'responsive'
p728
I2
tp729
a(I13
I53
I0
S'sensitive'
p730
I2
tp731
a(I17
I54
F0.25
S'responsive'
p732
I2
tp733
a(I17
I54
F0.5
S'touch'
p734
I2
tp735
a(I19
I36
F0.5
S'touch'
p736
I2
tp737
a(I21
I25
I0
S'sensitive'
p738
I2
tp739
a(I37
I44
F0.5
S'touch'
p740
I2
tp741
a(I46
I41
F0.5
S'touch'
p742
I2
tp743
as(S'wifi'
p744
tp745
(lp746
(I17
I46
F0.625
S'easy'
p747
I0
tp748
a(I45
I16
F-0.625
S'bad'
p749
I0
tp750
as(S'texts'
p751
tp752
(lp753
(I15
I1
I0
S'text'
p754
I0
tp755
a(I45
I14
F0.375
S'available'
p756
I0
tp757
as(S'internal'
p758
S'memory'
p759
tp760
(lp761
(I1
I40
I0
g620
I0
tp762
a(I1
I40
F-0.625
g622
I0
tp763
a(I4
I22
I0
g432
I0
tp764
a(I5
I1
F-0.375
g625
I0
tp765
a(I5
I1
I0
g627
I0
tp766
a(I5
I1
I0
g629
I0
tp767
a(I9
I29
I0
g638
I0
tp768
a(I13
I16
I0
g641
I0
tp769
a(I17
I2
I0
g647
I0
tp770
a(I21
I71
I0
g452
I0
tp771
a(I21
I71
F-0.25
g454
I0
tp772
a(I27
I10
F-0.75
g659
I0
tp773
a(I27
I10
I0
g661
I0
tp774
a(I28
I2
I0
g663
I0
tp775
a(I33
I4
I0
g456
I0
tp776
a(I37
I20
I0
g666
I0
tp777
a(I37
I21
I0
g668
I0
tp778
a(I38
I8
I0
g611
I0
tp779
a(I41
I1
I0
g680
I0
tp780
a(I42
I10
I0
g682
I0
tp781
a(I44
I0
I0
g684
I0
tp782
a(I48
I32
I0
g707
I0
tp783
as(S'land'
p784
S'line'
p785
tp786
(lp787
(I17
I24
I0
S'local'
p788
I0
tp789
as(S'text'
p790
S'messaging'
p791
tp792
(lp793
(I1
I37
I0
S'text'
p794
I0
tp795
a(I10
I28
F-0.375
S'small'
p796
I18
tp797
a(I10
I28
F0.25
S'read'
p798
I18
tp799
a(I15
I0
F-0.5
S'separate'
p800
I18
tp801
a(I26
I9
I0
S'total'
p802
I18
tp803
a(I26
I9
F-0.75
S'unable'
p804
I18
tp805
a(I32
I1
I0
S'great'
p806
I18
tp807
as.