(dp0
(S'social'
p1
S'networks'
p2
tp3
(lp4
(I4
I56
I0
S'social'
p5
I0
tp6
a(I4
I58
I0
S'social'
p7
I0
tp8
as(S'battery'
p9
S'life'
p10
tp11
(lp12
(I0
I22
I0
S'great'
p13
I1
tp14
a(I1
I131
I0
S'incredible'
p15
I1
tp16
a(I1
I167
F1.0
S'best'
p17
I1
tp18
a(I3
I28
I0
S'unbelievable'
p19
I1
tp20
a(I6
I69
F1.0
S'good'
p21
I1
tp22
a(I3
I28
I0
g19
I19
tp23
a(I0
I22
I0
g13
I15
tp24
a(I1
I131
I0
g15
I15
tp25
a(I1
I164
I0
S'incredible'
p26
I15
tp27
a(I1
I164
F0.5
S'live'
p28
I15
tp29
a(I1
I167
F1.0
g17
I15
tp30
a(I6
I69
F1.0
g21
I15
tp31
a(I8
I60
F0.625
S'easy'
p32
I15
tp33
as(S'text'
p34
tp35
(lp36
(I3
I82
F-0.625
S'green'
p37
I18
tp38
a(I5
I70
F0.75
S'sound'
p39
I18
tp40
as(S'tablet'
p41
tp42
(lp43
(I1
I63
I0
S'most'
p44
I14
tp45
as(S'camera'
p46
tp47
(lp48
(I0
I41
F-0.375
S'manual'
p49
I1
tp50
a(I1
I168
F0.5
S'second'
p51
I1
tp52
a(I1
I168
F1.0
S'best'
p53
I1
tp54
a(I2
I19
F0.5
S'clear'
p55
I1
tp56
a(I3
I54
I0
S'phenomenal'
p57
I1
tp58
a(I3
I64
I0
S'slower'
p59
I1
tp60
a(I4
I169
F-0.5
S'less'
p61
I1
tp62
a(I4
I169
F0.5
S'satisfied'
p63
I1
tp64
a(I5
I55
F1.0
S'better'
p65
I1
tp66
a(I6
I83
I0
S'great'
p67
I1
tp68
a(I7
I37
F0.125
S'first'
p69
I1
tp70
a(I7
I53
F0.125
S'impressive'
p71
I1
tp72
a(I7
I53
I0
S'close'
p73
I1
tp74
a(I7
I94
I0
S'great'
p75
I1
tp76
a(I7
I95
F1.0
S'better'
p77
I1
tp78
a(I8
I29
F0.5
S'whole'
p79
I1
tp80
a(I8
I58
I0
S'great'
p81
I1
tp82
as(S'operating'
p83
S'system'
p84
tp85
(lp86
(I0
I25
I0
S'great'
p87
I2
tp88
a(I1
I138
F1.0
S'best'
p89
I2
tp90
a(I1
I163
F-0.625
S'other'
p91
I2
tp92
a(I1
I138
F1.0
g89
I12
tp93
a(I6
I85
I0
S'faster'
p94
I12
tp95
a(I7
I3
F-0.625
S'other'
p96
I12
tp97
a(I8
I35
F0.5
S'whole'
p98
I12
tp99
as(S'iphone'
p100
tp101
(lp102
(I1
I30
F-0.125
S'former'
p103
I1
tp104
a(I1
I136
F-0.375
S'small'
p105
I1
tp106
a(I1
I187
I0
S'cool'
p107
I1
tp108
a(I1
I189
I0
S'many'
p109
I1
tp110
a(I2
I54
I0
S'darn'
p111
I1
tp112
a(I2
I54
F-0.375
S'small'
p113
I1
tp114
a(I2
I54
F-0.625
S'sorry'
p115
I1
tp116
a(I3
I76
F0.375
S'new'
p117
I1
tp118
a(I3
I161
F-0.375
S'serious'
p119
I1
tp120
a(I3
I174
F0.625
S'easier'
p121
I1
tp122
a(I3
I205
F0.125
S'able'
p123
I1
tp124
a(I3
I207
F0.125
S'able'
p125
I1
tp126
a(I5
I61
I0
S'funny'
p127
I1
tp128
a(I5
I61
F0.25
S'bigger'
p129
I1
tp130
a(I5
I62
I0
S'next'
p131
I1
tp132
a(I6
I77
F0.125
S'first'
p133
I1
tp134
as(S'social'
p135
S'network'
p136
tp137
(lp138
(I4
I174
I0
S'social'
p139
I0
tp140
as(S'live'
p141
S'tiles'
p142
tp143
(lp144
(I0
I35
F0.5
S'live'
p145
I0
tp146
a(I0
I36
F0.5
S'live'
p147
I0
tp148
a(I0
I44
F0.5
S'live'
p149
I0
tp150
a(I1
I155
F0.5
S'live'
p151
I0
tp152
a(I3
I56
F0.5
S'live'
p153
I0
tp154
a(I4
I10
F0.5
S'live'
p155
I0
tp156
a(I4
I48
F0.5
S'live'
p157
I0
tp158
a(I4
I174
F0.125
S'colorful'
p159
I0
tp160
a(I4
I174
F0.5
S'live'
p161
I0
tp162
a(I4
I179
F0.5
S'live'
p163
I0
tp164
a(I5
I5
F0.5
S'live'
p165
I0
tp166
a(I5
I59
F-0.375
S'simple'
p167
I0
tp168
a(I5
I59
F0.5
S'live'
p169
I0
tp170
a(I5
I59
F1.0
S'good'
p171
I0
tp172
a(I5
I59
I0
S'fast'
p173
I0
tp174
a(I5
I80
F0.5
S'live'
p175
I0
tp176
a(I7
I30
F0.5
S'live'
p177
I0
tp178
a(I7
I30
I0
S'handy'
p179
I0
tp180
a(I7
I30
I0
S'large'
p181
I0
tp182
a(I7
I52
F0.5
S'live'
p183
I0
tp184
a(I8
I35
F0.5
S'live'
p185
I0
tp186
a(I0
I35
F0.5
g145
I0
tp187
a(I0
I36
F0.5
g147
I0
tp188
a(I0
I44
F0.5
g149
I0
tp189
a(I1
I155
F0.5
g151
I0
tp190
a(I2
I56
F0.125
S'able'
p191
I0
tp192
a(I3
I24
F-0.625
S'other'
p193
I0
tp194
a(I3
I56
F0.5
g153
I0
tp195
a(I4
I10
F0.5
g155
I0
tp196
a(I4
I48
F0.5
g157
I0
tp197
a(I4
I174
F0.125
g159
I0
tp198
a(I4
I174
F0.5
g161
I0
tp199
a(I4
I179
F0.5
g163
I0
tp200
a(I5
I5
F0.5
g165
I0
tp201
a(I5
I59
F-0.375
g167
I0
tp202
a(I5
I59
F0.5
g169
I0
tp203
a(I5
I59
F1.0
g171
I0
tp204
a(I5
I59
I0
g173
I0
tp205
a(I5
I80
F0.5
g175
I0
tp206
a(I7
I30
F0.5
g177
I0
tp207
a(I7
I30
I0
g179
I0
tp208
a(I7
I30
I0
g181
I0
tp209
a(I7
I52
F0.5
g183
I0
tp210
a(I8
I35
F0.5
g185
I0
tp211
a(I8
I58
F-0.75
S'bright'
p212
I0
tp213
a(I8
I58
F1.0
S'good'
p214
I0
tp215
as(S'lumia'
p216
tp217
(lp218
(I1
I27
F0.375
S'much'
p219
I0
tp220
a(I1
I31
I0
S'most'
p221
I0
tp222
a(I1
I168
F1.0
S'best'
p223
I0
tp224
a(I1
I180
I0
S'exclusive'
p225
I0
tp226
a(I3
I51
F1.0
S'good'
p227
I0
tp228
a(I4
I131
F-0.375
S'black'
p229
I0
tp230
a(I6
I3
I0
S'earlier'
p231
I0
tp232
a(I6
I38
I0
S'same'
p233
I0
tp234
a(I6
I50
F1.0
S'better'
p235
I0
tp236
a(I7
I10
F0.125
S'first'
p237
I0
tp238
a(I7
I95
F-0.75
S'short'
p239
I0
tp240
as(S'windows'
p241
tp242
(lp243
(I0
I21
F0.5
S'second'
p244
I0
tp245
a(I1
I95
F-0.5
S'regular'
p246
I0
tp247
a(I2
I36
F0.375
S'available'
p248
I0
tp249
a(I3
I103
I0
S'latest'
p250
I0
tp251
a(I3
I111
I0
S'faster'
p252
I0
tp253
a(I3
I111
F-0.625
S'other'
p254
I0
tp255
a(I3
I128
F0.125
S'first'
p256
I0
tp257
a(I4
I8
F0.125
S'first'
p258
I0
tp259
a(I5
I12
F0.375
S'new'
p260
I0
tp261
a(I7
I1
F0.25
S'biggest'
p262
I0
tp263
a(I8
I7
F-0.625
S'bad'
p264
I0
tp265
a(I8
I21
F-0.5
S'less'
p266
I0
tp267
as(S'market'
p268
tp269
(lp270
(I5
I27
I0
S'next'
p271
I16
tp272
a(I5
I52
I0
S'such'
p273
I16
tp274
as(S'apple'
p275
tp276
(lp277
(I1
I28
F0.125
S'able'
p278
I4
tp279
a(I5
I34
F1.0
S'better'
p280
I4
tp281
a(I5
I79
F0.5
S'personal'
p282
I4
tp283
as(S'notification'
p284
S'center'
p285
tp286
(lp287
(I4
I182
I0
S'comprehensive'
p288
I0
tp289
a(I4
I185
I0
S'comprehensive'
p290
I0
tp291
as(S'devices'
p292
tp293
(lp294
(I1
I186
F-0.5
S'separate'
p295
I8
tp296
a(I3
I18
I0
S'android'
p297
I8
tp298
a(I4
I17
I0
S'hot'
p299
I8
tp300
a(I4
I129
F-0.625
S'other'
p301
I8
tp302
a(I4
I192
I0
S'fast'
p303
I8
tp304
a(I7
I90
F-0.375
S'small'
p305
I8
tp306
as(S'android'
p307
tp308
(lp309
(I3
I141
F-0.25
S'past'
p310
I0
tp311
a(I4
I194
I0
S'many'
p312
I0
tp313
a(I7
I40
F0.125
S'first'
p314
I0
tp315
a(I7
I58
F0.875
S'nice'
p316
I0
tp317
as(S'app'
p318
S'store'
p319
tp320
(lp321
(I2
I35
F0.375
S'available'
p322
I0
tp323
as(S'hands'
p324
tp325
(lp326
(I0
I55
I0
S'large'
p327
I15
tp328
a(I1
I29
F-0.375
S'small'
p329
I15
tp330
a(I1
I33
I0
S'big'
p331
I15
tp332
a(I1
I50
F-0.375
S'smaller'
p333
I15
tp334
a(I1
I154
I0
S'dial'
p335
I15
tp336
a(I1
I183
F-0.25
S'giant'
p337
I15
tp338
a(I3
I123
I0
S'big'
p339
I15
tp340
a(I8
I58
I0
S'big'
p341
I15
tp342
as(S'big'
p343
S'screen'
p344
tp345
(lp346
(I1
I108
I0
S'big'
p347
I1
tp348
a(I1
I136
F-0.375
S'smaller'
p349
I1
tp350
a(I1
I165
I0
S'big'
p351
I1
tp352
a(I3
I15
I0
S'big'
p353
I1
tp354
a(I4
I101
I0
S'big'
p355
I1
tp356
a(I4
I101
I0
S'big'
p357
I1
tp358
a(I5
I61
F-0.375
S'smaller'
p359
I1
tp360
a(I8
I58
I0
S'great'
p361
I1
tp362
a(I8
I58
I0
S'big'
p363
I1
tp364
as(S'nokia'
p365
tp366
(lp367
(I0
I5
I0
S'least'
p368
I0
tp369
a(I1
I78
F-0.625
S'other'
p370
I0
tp371
a(I7
I31
F-0.625
S'other'
p372
I0
tp373
a(I8
I53
F-0.5
S'sure'
p374
I0
tp375
as(S'build'
p376
S'quality'
p377
tp378
(lp379
(I7
I50
F1.0
S'best'
p380
I2
tp381
as(S'me'
p382
S'iexcl'
p383
S'tile'
p384
tp385
(lp386
(I4
I182
F0.5
S'live'
p387
I0
tp388
a(I4
I18
F0.25
S'forgive'
p389
I0
tp390
a(I4
I182
F0.5
g387
I0
tp391
a(I4
I18
F0.25
g389
I0
tp392
a(I4
I118
F-0.375
S'smaller'
p393
I0
tp394
a(I4
I182
F0.5
g387
I0
tp395
a(I4
I198
F-0.625
S'light'
p396
I0
tp397
a(I4
I18
F0.25
g389
I0
tp398
a(I4
I118
F-0.375
g393
I0
tp399
a(I4
I182
F0.5
g387
I0
tp400
a(I4
I198
F-0.625
g396
I0
tp401
as(S'data'
p402
tp403
(lp404
(I4
I61
I0
S'online'
p405
I13
tp406
a(I4
I174
F0.5
S'live'
p407
I13
tp408
a(I5
I32
I0
S'signal'
p409
I13
tp410
as(S'a'
p411
S'large'
p412
S'screen'
p413
tp414
(lp415
(I0
I31
I0
S'large'
p416
I2
tp417
a(I0
I36
I0
S'large'
p418
I2
tp419
a(I0
I50
I0
S'large'
p420
I2
tp421
a(I1
I123
F-0.375
S'small'
p422
I2
tp423
a(I1
I123
F0.25
S'larger'
p424
I2
tp425
a(I1
I123
F0.5
S'touch'
p426
I2
tp427
a(I3
I63
I0
S'large'
p428
I2
tp429
a(I4
I46
I0
S'large'
p430
I2
tp431
a(I4
I115
I0
S'large'
p432
I2
tp433
a(I6
I12
I0
S'large'
p434
I2
tp435
a(I6
I12
F0.5
S'obvious'
p436
I2
tp437
a(I8
I26
F0.25
S'larger'
p438
I2
tp439
a(I8
I36
I0
S'large'
p440
I2
tp441
a(I8
I43
F0.25
S'larger'
p442
I2
tp443
a(I8
I95
I0
S'large'
p444
I2
tp445
a(I0
I31
I0
g416
I3
tp446
a(I0
I36
I0
g418
I3
tp447
a(I0
I50
I0
g420
I3
tp448
a(I1
I123
F-0.375
g422
I3
tp449
a(I1
I123
F0.25
g424
I3
tp450
a(I1
I123
F0.5
g426
I3
tp451
a(I3
I63
I0
g428
I3
tp452
a(I4
I46
I0
g430
I3
tp453
a(I4
I115
I0
g432
I3
tp454
a(I6
I12
I0
g434
I3
tp455
a(I6
I12
F0.5
g436
I3
tp456
a(I8
I26
F0.25
g438
I3
tp457
a(I8
I36
I0
g440
I3
tp458
a(I8
I43
F0.25
g442
I3
tp459
a(I8
I95
I0
g444
I3
tp460
as(S'office'
p461
tp462
(lp463
(I7
I92
I0
S'entire'
p464
I15
tp465
a(I7
I92
F-0.625
S'quiet'
p466
I15
tp467
as(S'quality'
p468
S'apps'
p469
tp470
(lp471
(I2
I56
I0
S'many'
p472
I0
tp473
a(I3
I89
I0
S'high'
p474
I0
tp475
a(I8
I10
F-0.625
S'other'
p476
I0
tp477
a(I1
I7
I0
S'most'
p478
I0
tp479
a(I1
I24
I0
S'many'
p480
I0
tp481
a(I1
I37
F-0.25
S'repetitive'
p482
I0
tp483
a(I1
I92
F0.875
S'nice'
p484
I0
tp485
a(I1
I128
I0
S'many'
p486
I0
tp487
a(I1
I128
F1.0
S'good'
p488
I0
tp489
a(I1
I149
F-0.5
S'certain'
p490
I0
tp491
a(I2
I35
I0
S'wish'
p492
I0
tp493
a(I2
I36
I0
S'critical'
p494
I0
tp495
a(I2
I56
I0
g472
I0
tp496
a(I3
I93
F0.25
S'responsive'
p497
I0
tp498
a(I3
I130
F0.375
S'available'
p499
I0
tp500
a(I3
I156
F-0.625
S'other'
p501
I0
tp502
a(I4
I93
I0
S'great'
p503
I0
tp504
a(I4
I93
I0
S'exclusive'
p505
I0
tp506
a(I5
I2
I0
S'different'
p507
I0
tp508
a(I5
I2
F-0.5
S'open'
p509
I0
tp510
a(I5
I11
F0.625
S'major'
p511
I0
tp512
a(I5
I12
I0
S'most'
p513
I0
tp514
a(I5
I12
F-0.625
S'other'
p515
I0
tp516
a(I5
I12
F-0.75
S'secondary'
p517
I0
tp518
a(I5
I13
F0.375
S'available'
p519
I0
tp520
a(I5
I13
I0
S'great'
p521
I0
tp522
a(I5
I59
F0.375
S'new'
p523
I0
tp524
a(I5
I59
I0
S'more'
p525
I0
tp526
a(I5
I67
F0.375
S'available'
p527
I0
tp528
a(I5
I67
I0
S'more'
p529
I0
tp530
a(I5
I67
I0
S'more'
p531
I0
tp532
a(I5
I68
I0
S'great'
p533
I0
tp534
a(I6
I29
F-0.5
S'certain'
p535
I0
tp536
a(I6
I30
I0
S'particular'
p537
I0
tp538
a(I7
I68
F0.375
S'available'
p539
I0
tp540
a(I7
I71
F-0.5
S'sure'
p541
I0
tp542
a(I7
I116
F-0.625
S'other'
p543
I0
tp544
a(I8
I81
F0.375
S'available'
p545
I0
tp546
a(I8
I81
F0.375
S'similar'
p547
I0
tp548
a(I8
I81
F1.0
S'good'
p549
I0
tp550
a(I8
I81
F1.0
S'better'
p551
I0
tp552
a(I8
I81
F0.25
S'original'
p553
I0
tp554
as(S'one'
p555
S'hand'
p556
tp557
(lp558
(I2
I33
I0
S'dial'
p559
I2
tp560
a(I2
I33
F-0.75
S'impossible'
p561
I2
tp562
a(I6
I19
F-0.75
S'single'
p563
I2
tp564
a(I8
I74
F0.125
S'able'
p565
I2
tp566
a(I8
I74
F-0.75
S'difficult'
p567
I2
tp568
as.