(dp0
(S'android'
p1
tp2
(lp3
(I2
I5
F0.75
S'worth'
p4
I0
tp5
a(I16
I225
F-0.25
S'thin'
p6
I0
tp7
a(I17
I0
F1.0
S'best'
p8
I0
tp9
a(I17
I0
F0.125
S'further'
p10
I0
tp11
a(I17
I2
F1.0
S'best'
p12
I0
tp13
as(S'iphone'
p14
tp15
(lp16
(I14
I6
I0
S'more'
p17
I1
tp18
a(I16
I35
F-0.375
S'small'
p19
I1
tp20
as(S'battery'
p21
S'life'
p22
tp23
(lp24
(I2
I8
F-0.625
S'bad'
p25
I1
tp26
a(I4
I93
F-0.25
S'low'
p27
I1
tp28
a(I4
I103
F0.625
S'easy'
p29
I1
tp30
a(I4
I103
F1.0
S'good'
p31
I1
tp32
a(I16
I156
I0
S'same'
p33
I1
tp34
a(I16
I157
F0.625
S'superior'
p35
I1
tp36
a(I2
I8
F-0.625
g25
I19
tp37
a(I4
I93
F-0.25
g27
I19
tp38
a(I4
I103
F1.0
g31
I19
tp39
a(I16
I157
F0.625
g35
I19
tp40
a(I4
I41
F0.625
S'removable'
p41
I15
tp42
a(I4
I103
F0.625
g29
I15
tp43
a(I16
I98
F0.625
S'removable'
p44
I15
tp45
a(I16
I156
I0
g33
I15
tp46
a(I16
I224
F0.625
S'removable'
p47
I15
tp48
as(S'high'
p49
S'end'
p50
tp51
(lp52
(I1
I14
I0
S'high'
p53
I0
tp54
a(I2
I18
I0
S'high'
p55
I0
tp56
a(I7
I5
I0
S'high'
p57
I0
tp58
a(I16
I72
F1.0
S'best'
p59
I0
tp60
a(I16
I72
I0
S'high'
p61
I0
tp62
as(S'nexus'
p63
S'devices'
p64
tp65
(lp66
(I3
I0
F-0.25
S'google'
p67
I0
tp68
a(I4
I17
F-0.625
S'sorry'
p69
I0
tp70
a(I4
I42
F-0.625
S'other'
p71
I0
tp72
a(I16
I14
F-0.25
S'google'
p73
I0
tp74
a(I16
I30
I0
S'quick'
p75
I0
tp76
a(I16
I32
F1.0
S'best'
p77
I0
tp78
a(I16
I98
F0.25
S'recent'
p79
I0
tp80
a(I4
I2
F1.0
S'best'
p81
I0
tp82
a(I4
I17
F-0.625
g69
I0
tp83
a(I4
I42
F-0.625
g71
I0
tp84
a(I16
I14
F-0.25
g73
I0
tp85
a(I16
I37
F-0.625
S'glad'
p86
I0
tp87
a(I16
I98
F0.25
g79
I0
tp88
a(I16
I114
I0
S'specific'
p89
I0
tp90
a(I16
I126
I0
S'exclusive'
p91
I0
tp92
a(I16
I166
F-0.625
S'lighter'
p93
I0
tp94
a(I3
I0
F-0.25
g67
I8
tp95
a(I4
I41
F-0.625
S'light'
p96
I8
tp97
a(I4
I41
F-0.25
S'thin'
p98
I8
tp99
a(I16
I30
I0
g75
I8
tp100
a(I16
I32
F1.0
g77
I8
tp101
a(I16
I50
F-0.625
S'other'
p102
I8
tp103
a(I16
I50
I0
S'quick'
p104
I8
tp105
as(S'google'
p106
S'nexus'
p107
tp108
(lp109
(I16
I14
F-0.25
g73
I0
tp110
a(I16
I114
I0
g89
I0
tp111
a(I1
I15
F-0.125
S'mine'
p112
I4
tp113
a(I1
I19
F0.5
S'clear'
p114
I4
tp115
a(I16
I64
I-100
S'help-line'
p116
I4
tp117
a(I16
I119
I0
S'latest'
p118
I4
tp119
as(S'camera'
p120
tp121
(lp122
(I0
I1
F1.0
S'best'
p123
I1
tp124
a(I2
I16
F1.0
S'good'
p125
I1
tp126
a(I4
I42
F1.0
S'good'
p127
I1
tp128
a(I9
I1
F1.0
S'better'
p129
I1
tp130
a(I16
I44
F1.0
S'good'
p131
I1
tp132
a(I16
I112
F-0.125
S'slow'
p133
I1
tp134
a(I16
I117
F-0.125
S'slow'
p135
I1
tp136
a(I16
I224
I0
S'adequate'
p137
I1
tp138
as(S'mobile'
p139
tp140
(lp141
(I16
I88
I0
S'big'
p142
I0
tp143
as.