(dp0
(S'android'
p1
S'experience'
p2
tp3
(lp4
(I19
I11
I0
S'integrated'
p5
I0
tp6
a(I19
I14
I0
S'android'
p7
I0
tp8
a(I23
I10
F1.0
S'best'
p9
I0
tp10
a(I24
I3
I0
S'great'
p11
I0
tp12
a(I41
I0
I0
S'real'
p13
I0
tp14
a(I41
I5
F0.375
S'complete'
p15
I0
tp16
a(I41
I5
F-0.625
S'clean'
p17
I0
tp18
a(I41
I5
F0.75
S'beautiful'
p19
I0
tp20
a(I41
I20
F0.25
S'stellar'
p21
I0
tp22
as(S'battery'
p23
S'life'
p24
tp25
(lp26
(I16
I19
F1.0
S'good'
p27
I1
tp28
a(I19
I57
I0
S'least'
p29
I1
tp30
a(I22
I125
I0
S'great'
p31
I1
tp32
a(I26
I73
F0.625
S'extraordinary'
p33
I1
tp34
a(I26
I92
F1.0
S'good'
p35
I1
tp36
a(I32
I10
I0
S'great'
p37
I1
tp38
a(I41
I54
F1.0
S'better'
p39
I1
tp40
a(I43
I29
I0
S'standard'
p41
I1
tp42
a(I47
I10
F-0.625
S'bad'
p43
I1
tp44
a(I53
I109
I0
S'same'
p45
I1
tp46
a(I53
I110
F0.625
S'superior'
p47
I1
tp48
a(I16
I19
F1.0
g27
I19
tp49
a(I19
I57
I0
g29
I19
tp50
a(I22
I125
I0
g31
I19
tp51
a(I26
I92
F1.0
g35
I19
tp52
a(I32
I10
I0
g37
I19
tp53
a(I43
I29
I0
g41
I19
tp54
a(I47
I10
F-0.625
g43
I19
tp55
a(I53
I110
F0.625
g47
I19
tp56
a(I1
I9
I0
S'great'
p57
I15
tp58
a(I1
I10
I0
S'most'
p59
I15
tp60
a(I6
I5
F1.0
S'better'
p61
I15
tp62
a(I18
I0
F0.625
S'decent'
p63
I15
tp64
a(I18
I0
F0.875
S'happy'
p65
I15
tp66
a(I19
I25
F0.5
S'satisfactory'
p67
I15
tp68
a(I22
I130
F0.125
S'able'
p69
I15
tp70
a(I24
I1
I0
S'fast'
p71
I15
tp72
a(I26
I9
F-0.625
S'average'
p73
I15
tp74
a(I26
I73
F0.625
g33
I15
tp75
a(I28
I39
F0.625
S'removable'
p76
I15
tp77
a(I29
I4
F0.125
S'last'
p78
I15
tp79
a(I41
I54
F1.0
g39
I15
tp80
a(I45
I70
F0.5
S'comparable'
p81
I15
tp82
a(I45
I78
F-0.75
S'short'
p83
I15
tp84
a(I51
I5
F0.5
S'greater'
p85
I15
tp86
a(I53
I51
F0.625
S'removable'
p87
I15
tp88
a(I53
I109
I0
g45
I15
tp89
a(I53
I177
F0.625
S'removable'
p90
I15
tp91
as(S'galaxy'
p92
S'nexus'
p93
tp94
(lp95
(I41
I36
I0
S'great'
p96
I0
tp97
a(I41
I36
F0.25
S'bigger'
p98
I0
tp99
a(I45
I68
F0.125
S'equal'
p100
I0
tp101
as(S'first'
p102
S'android'
p103
tp104
(lp105
(I19
I38
F0.125
S'first'
p106
I0
tp107
a(I28
I72
F0.125
S'first'
p108
I0
tp109
a(I41
I18
F0.125
S'first'
p110
I0
tp111
a(I42
I6
I0
S'earlier'
p112
I0
tp113
a(I42
I6
F0.125
S'first'
p114
I0
tp115
a(I49
I5
F0.125
S'first'
p116
I0
tp117
a(I49
I14
F0.125
S'first'
p118
I0
tp119
a(I3
I6
I0
S'latest'
p120
I0
tp121
a(I11
I29
F1.0
S'best'
p122
I0
tp123
a(I13
I5
F1.0
S'better'
p124
I0
tp125
a(I19
I38
F0.125
g106
I0
tp126
a(I19
I44
I0
S'latest'
p127
I0
tp128
a(I22
I43
I0
S'fastest'
p129
I0
tp130
a(I22
I71
I0
S'central'
p131
I0
tp132
a(I22
I127
I-100
S'fast-speaker'
p133
I0
tp134
a(I23
I10
F1.0
g9
I0
tp135
a(I24
I3
I0
g11
I0
tp136
a(I25
I0
F1.0
S'best'
p137
I0
tp138
a(I27
I11
I0
S'latest'
p139
I0
tp140
a(I28
I72
F0.125
g108
I0
tp141
a(I29
I23
F0.25
S'recent'
p142
I0
tp143
a(I33
I5
F1.0
S'best'
p144
I0
tp145
a(I34
I0
F1.0
S'best'
p146
I0
tp147
a(I37
I10
I0
S'fast'
p148
I0
tp149
a(I37
I10
F0.25
S'responsive'
p150
I0
tp151
a(I37
I10
I-100
S'4g-ready'
p152
I0
tp153
a(I37
I10
I0
S'latest'
p154
I0
tp155
a(I41
I0
I0
g13
I0
tp156
a(I41
I5
F0.375
g15
I0
tp157
a(I41
I18
F0.125
g110
I0
tp158
a(I42
I6
I0
g112
I0
tp159
a(I42
I6
F0.125
g114
I0
tp160
a(I45
I34
F1.0
S'better'
p161
I0
tp162
a(I47
I5
F1.0
S'best'
p163
I0
tp164
a(I49
I5
F0.125
g116
I0
tp165
a(I49
I14
F0.125
g118
I0
tp166
a(I53
I10
I0
S'different'
p167
I0
tp168
a(I53
I178
F-0.25
S'thin'
p169
I0
tp170
as(S'call'
p171
S'quality'
p172
tp173
(lp174
(I1
I12
I0
S'great'
p175
I0
tp176
a(I19
I12
F-0.5
S'sure'
p177
I0
tp178
a(I19
I12
I0
S'few'
p179
I0
tp180
as(S'service'
p181
tp182
(lp183
(I26
I63
F-0.625
S'other'
p184
I16
tp185
a(I36
I90
I0
S'great'
p186
I16
tp187
a(I43
I26
F-0.75
S'short'
p188
I16
tp189
as(S'samsung'
p190
tp191
(lp192
(I11
I1
F0.5
S'upgraded'
p193
I7
tp194
a(I28
I28
F0.25
S'tired'
p195
I7
tp196
as(S'camera'
p197
tp198
(lp199
(I1
I16
F1.0
S'better'
p200
I1
tp201
a(I1
I16
F1.0
S'better'
p202
I1
tp203
a(I4
I5
F0.5
S'compatible'
p204
I1
tp205
a(I5
I3
F1.0
S'better'
p206
I1
tp207
a(I7
I41
I0
S'fast'
p208
I1
tp209
a(I7
I41
I0
S'update'
p210
I1
tp211
a(I10
I6
F1.0
S'good'
p212
I1
tp213
a(I11
I6
I0
S'wish'
p214
I1
tp215
a(I11
I6
F-0.5
S'heavy'
p216
I1
tp217
a(I13
I3
F-0.75
S'difficult'
p218
I1
tp219
a(I15
I1
I0
S'great'
p220
I1
tp221
a(I15
I2
F-0.75
S'short'
p222
I1
tp223
a(I19
I35
F1.0
S'good'
p224
I1
tp225
a(I22
I145
I0
S'great'
p226
I1
tp227
a(I24
I12
F1.0
S'good'
p228
I1
tp229
a(I26
I4
F1.0
S'better'
p230
I1
tp231
a(I26
I62
F1.0
S'better'
p232
I1
tp233
a(I26
I62
F-0.375
S'also-ran'
p234
I1
tp235
a(I28
I40
F1.0
S'good'
p236
I1
tp237
a(I32
I4
F1.0
S'good'
p238
I1
tp239
a(I34
I1
F1.0
S'best'
p240
I1
tp241
a(I35
I4
F1.0
S'better'
p242
I1
tp243
a(I36
I34
F-0.625
S'bad'
p244
I1
tp245
a(I43
I29
F1.0
S'good'
p246
I1
tp247
a(I45
I62
F0.5
S'comparable'
p248
I1
tp249
a(I48
I9
I0
S'such'
p250
I1
tp251
a(I53
I2
F0.625
S'perfect'
p252
I1
tp253
a(I53
I65
F-0.125
S'slow'
p254
I1
tp255
a(I53
I70
F-0.125
S'slow'
p256
I1
tp257
a(I53
I177
I0
S'adequate'
p258
I1
tp259
as(S'gorilla'
p260
S'glass'
p261
tp262
(lp263
(I14
I19
F-0.75
S'tough'
p264
I0
tp265
a(I53
I128
F1.0
S'good'
p266
I0
tp267
as(S'value'
p268
S'for'
p269
S'price'
p270
tp271
(lp272
(I6
I3
I0
S'great'
p273
I0
tp274
a(I22
I122
F1.0
S'good'
p275
I0
tp276
a(I37
I11
F1.0
S'good'
p277
I0
tp278
a(I53
I191
I0
S'great'
p279
I0
tp280
as(S'iphone'
p281
tp282
(lp283
(I8
I10
I0
S'old'
p284
I1
tp285
a(I10
I3
F0.25
S'unlocked'
p286
I1
tp287
a(I12
I11
F0.375
S'available'
p288
I1
tp289
a(I22
I46
I0
S'latest'
p290
I1
tp291
a(I26
I29
F0.375
S'new'
p292
I1
tp293
a(I26
I63
F1.0
S'better'
p294
I1
tp295
a(I29
I18
I0
S'substantial'
p296
I1
tp297
a(I29
I18
I-100
S'metal-clad'
p298
I1
tp299
a(I29
I28
F0.875
S'music'
p300
I1
tp301
a(I36
I83
F1.0
S'better'
p302
I1
tp303
a(I36
I84
F0.875
S'happy'
p304
I1
tp305
a(I41
I14
I0
S'old'
p306
I1
tp307
a(I43
I6
F0.5
S'rid'
p308
I1
tp309
a(I45
I1
F0.75
S'beautiful'
p310
I1
tp311
a(I45
I1
F-0.375
S'black'
p312
I1
tp313
a(I45
I2
F0.25
S'bigger'
p314
I1
tp315
a(I45
I10
F-0.375
S'black'
p316
I1
tp317
a(I45
I27
F0.5
S'second'
p318
I1
tp319
as(S'subsidy'
p320
S'recovery'
p321
tp322
(lp323
(I53
I140
I0
S'more'
p324
I0
tp325
a(I53
I140
I0
S'subsidy'
p326
I0
tp327
a(I53
I146
I0
S'subsidy'
p328
I0
tp329
as(S'high'
p330
S'end'
p331
tp332
(lp333
(I22
I62
I0
S'high'
p334
I0
tp335
a(I22
I62
I0
S'high'
p336
I0
tp337
a(I22
I109
I0
S'high'
p338
I0
tp339
a(I27
I23
I0
S'high'
p340
I0
tp341
a(I29
I36
I0
S'high'
p342
I0
tp343
a(I36
I34
I0
S'high'
p344
I0
tp345
a(I53
I25
F1.0
S'best'
p346
I0
tp347
a(I53
I25
I0
S'high'
p348
I0
tp349
as(S'mobile'
p350
tp351
(lp352
(I53
I41
I0
S'big'
p353
I0
tp354
as(S'google'
p355
S'play'
p356
S'store'
p357
tp358
(lp359
(I23
I0
F-0.5
S'less'
p360
I0
tp361
a(I10
I8
F-0.25
S'google'
p362
I0
tp363
a(I23
I0
F-0.5
g360
I0
tp364
a(I36
I91
F-0.25
S'google'
p365
I0
tp366
as(S'smooth'
p367
tp368
(lp369
(I22
I46
I0
S'standard'
p370
I16
tp371
a(I45
I4
I0
S'buttery'
p372
I16
tp373
as(S'black'
p374
tp375
(lp376
(I28
I33
F0.5
S'true'
p377
I19
tp378
a(I33
I2
F-0.25
S'white'
p379
I19
tp380
a(I45
I17
F-0.375
S'black'
p381
I19
tp382
as(S'devices'
p383
tp384
(lp385
(I19
I13
I0
S'android'
p386
I8
tp387
a(I27
I4
I0
S'user'
p388
I8
tp389
a(I28
I39
F-0.625
S'light'
p390
I8
tp391
a(I28
I39
F-0.25
S'thin'
p392
I8
tp393
a(I48
I17
F-0.625
S'other'
p394
I8
tp395
as(S'updates'
p396
tp397
(lp398
(I19
I69
I0
S'fast'
p399
I12
tp400
a(I19
I69
F-0.375
S'simple'
p401
I12
tp402
a(I19
I69
F0.125
S'last'
p403
I12
tp404
a(I22
I108
F-0.125
S'future'
p405
I12
tp406
a(I26
I88
F0.875
S'nice'
p407
I12
tp408
a(I29
I5
I0
S'latest'
p409
I12
tp410
a(I32
I13
F1.0
S'best'
p411
I12
tp412
as(S'a'
p413
S'full'
p414
S'day'
p415
tp416
(lp417
(I4
I8
I0
S'next'
p418
I0
tp419
a(I4
I15
I0
S'full'
p420
I0
tp421
a(I19
I57
I0
S'full'
p422
I0
tp423
a(I26
I74
I0
S'full'
p424
I0
tp425
a(I26
I74
F-0.625
S'want'
p426
I0
tp427
a(I29
I31
I0
S'full'
p428
I0
tp429
a(I36
I25
I0
S'full'
p430
I0
tp431
a(I36
I29
I0
S'full'
p432
I0
tp433
a(I53
I109
I0
S'full'
p434
I0
tp435
a(I4
I8
I0
g418
I0
tp436
a(I4
I15
I0
g420
I0
tp437
a(I19
I57
I0
g422
I0
tp438
a(I26
I74
I0
g424
I0
tp439
a(I26
I74
F-0.625
g426
I0
tp440
a(I29
I31
I0
g428
I0
tp441
a(I36
I25
I0
g430
I0
tp442
a(I36
I29
I0
g432
I0
tp443
a(I53
I109
I0
g434
I0
tp444
as(S'galaxy'
p445
S's4'
p446
tp447
(lp448
(I26
I85
F0.625
S'kind'
p449
I0
tp450
a(I26
I85
F1.0
S'like'
p451
I0
tp452
a(I26
I95
I0
S'galaxy'
p453
I0
tp454
a(I26
I85
F0.625
g449
I0
tp455
a(I26
I85
F1.0
g451
I0
tp456
as(S'image'
p457
S'stabilization'
p458
tp459
(lp460
(I22
I79
I0
S'optical'
p461
I0
tp462
a(I53
I65
F0.5
S'so-so'
p463
I0
tp464
as(S'amazon'
p465
tp466
(lp467
(I28
I78
F0.125
S'appropriate'
p468
I13
tp469
as(S'speaker'
p470
tp471
(lp472
(I5
I5
F0.625
S'easy'
p473
I8
tp474
a(I11
I11
I0
S'real'
p475
I8
tp476
a(I22
I89
F-0.625
S'bad'
p477
I8
tp478
a(I29
I22
I0
S'adequate'
p479
I8
tp480
a(I41
I45
F0.25
S'bigger'
p481
I8
tp482
a(I53
I17
I0
S'only'
p483
I8
tp484
a(I53
I17
F0.5
S'odd'
p485
I8
tp486
a(I53
I44
I0
S'more'
p487
I8
tp488
a(I53
I169
F-0.25
S'low'
p489
I8
tp490
as(S'best'
p491
S'android'
p492
tp493
(lp494
(I11
I29
F1.0
g122
I0
tp495
a(I13
I5
F1.0
g124
I0
tp496
a(I23
I10
F1.0
g9
I0
tp497
a(I25
I0
F1.0
g137
I0
tp498
a(I33
I5
F1.0
g144
I0
tp499
a(I34
I0
F1.0
g146
I0
tp500
a(I47
I5
F1.0
g163
I0
tp501
as(S'on'
p502
S'google'
p503
S'play'
p504
tp505
(lp506
(I22
I123
F-0.25
S'google'
p507
I0
tp508
a(I22
I123
F0.125
S'first'
p509
I0
tp510
a(I23
I0
F-0.5
g360
I0
tp511
a(I53
I72
I0
S'latest'
p512
I0
tp513
a(I22
I123
F-0.25
g507
I0
tp514
a(I22
I123
F0.125
g509
I0
tp515
a(I23
I0
F-0.5
g360
I0
tp516
a(I53
I72
I0
g512
I0
tp517
a(I1
I5
F-0.5
S'sure'
p518
I4
tp519
a(I1
I7
I0
S'latest'
p520
I4
tp521
a(I12
I11
F0.25
S'unlocked'
p522
I4
tp523
a(I16
I5
I0
S'incredible'
p524
I4
tp525
a(I19
I14
F-0.625
S'free'
p526
I4
tp527
a(I22
I78
F0.375
S'new'
p528
I4
tp529
a(I23
I0
F-0.5
g360
I4
tp530
a(I29
I11
F0.125
S'first'
p531
I4
tp532
a(I36
I40
F0.375
S'new'
p533
I4
tp534
a(I37
I1
I0
S'earlier'
p535
I4
tp536
a(I53
I72
I0
g512
I4
tp537
as(S'smartphone'
p538
tp539
(lp540
(I19
I29
F0.25
S'larger'
p541
I0
tp542
a(I22
I107
F0.25
S'unlocked'
p543
I0
tp544
a(I32
I13
F0.5
S'second'
p545
I0
tp546
a(I36
I9
F1.0
S'best'
p547
I0
tp548
a(I41
I41
I0
S'incredible'
p549
I0
tp550
a(I45
I70
F1.0
S'best'
p551
I0
tp552
a(I53
I157
I0
S'generic'
p553
I0
tp554
as(S'technical'
p555
S'support'
p556
tp557
(lp558
(I16
I5
F0.5
S'technical'
p559
I0
tp560
a(I47
I27
F-0.25
S'google'
p561
I0
tp562
a(I47
I27
F0.5
S'technical'
p563
I0
tp564
a(I47
I29
F0.25
S'responsive'
p565
I0
tp566
a(I47
I29
F0.5
S'technical'
p567
I0
tp568
as(S'google'
p569
S'nexus'
p570
tp571
(lp572
(I1
I19
I0
S'next'
p573
I0
tp574
a(I10
I10
F-0.25
S'google'
p575
I0
tp576
a(I12
I11
F0.25
g522
I0
tp577
a(I19
I14
F-0.625
g526
I0
tp578
a(I19
I15
F0.125
S'first'
p579
I0
tp580
a(I22
I32
I0
S'earlier'
p581
I0
tp582
a(I22
I78
F0.375
g528
I0
tp583
a(I29
I11
F0.125
g531
I0
tp584
a(I29
I32
F-0.25
S'google'
p585
I0
tp586
a(I37
I1
I0
g535
I0
tp587
a(I53
I67
I0
S'specific'
p588
I0
tp589
a(I1
I19
I0
g573
I0
tp590
a(I7
I16
F0.25
S'used'
p591
I0
tp592
a(I7
I16
I0
S'entire'
p593
I0
tp594
a(I7
I16
I0
S'old'
p595
I0
tp596
a(I7
I31
F0.875
S'happy'
p597
I0
tp598
a(I10
I10
F-0.25
g575
I0
tp599
a(I12
I10
I0
S'interim'
p600
I0
tp601
a(I12
I16
F0.375
S'new'
p602
I0
tp603
a(I19
I15
F0.125
g579
I0
tp604
a(I22
I32
I0
g581
I0
tp605
a(I24
I2
F-0.625
S'bad'
p606
I0
tp607
a(I24
I20
F-0.25
S'low'
p608
I0
tp609
a(I26
I80
F1.0
S'best'
p610
I0
tp611
a(I26
I83
F0.5
S'whole'
p612
I0
tp613
a(I28
I0
F1.0
S'best'
p614
I0
tp615
a(I28
I15
F-0.625
S'sorry'
p616
I0
tp617
a(I28
I40
F-0.625
S'other'
p618
I0
tp619
a(I29
I27
F-0.75
S'wrong'
p620
I0
tp621
a(I29
I32
F-0.25
g585
I0
tp622
a(I31
I0
I0
S'most'
p623
I0
tp624
a(I36
I87
F0.875
S'happy'
p625
I0
tp626
a(I37
I4
F0.375
S'new'
p627
I0
tp628
a(I37
I7
I0
S'slim'
p629
I0
tp630
a(I37
I7
F0.5
S'stylish'
p631
I0
tp632
a(I41
I36
I0
g96
I0
tp633
a(I41
I36
F0.25
g98
I0
tp634
a(I43
I2
F1.0
S'best'
p635
I0
tp636
a(I45
I6
F1.0
S'best'
p637
I0
tp638
a(I45
I16
I0
S'plastic'
p639
I0
tp640
a(I45
I62
I0
S'least'
p641
I0
tp642
a(I45
I62
F1.0
S'best'
p643
I0
tp644
a(I45
I68
F0.125
g100
I0
tp645
a(I47
I26
I0
S'anymore'
p646
I0
tp647
a(I51
I3
F0.5
S'upgraded'
p648
I0
tp649
a(I53
I51
F0.25
S'recent'
p650
I0
tp651
a(I53
I67
I0
g588
I0
tp652
a(I53
I79
I0
S'exclusive'
p653
I0
tp654
a(I53
I119
F-0.625
S'lighter'
p655
I0
tp656
as(S'apps'
p657
tp658
(lp659
(I3
I6
F-0.375
S'smooth'
p660
I0
tp661
a(I9
I17
F-0.625
S'other'
p662
I0
tp663
a(I14
I6
F0.25
S'powerful'
p664
I0
tp665
a(I14
I6
I0
S'many'
p666
I0
tp667
a(I14
I6
F0.375
S'available'
p668
I0
tp669
a(I16
I1
F0.625
S'easy'
p670
I0
tp671
a(I19
I10
F-0.25
S'google'
p672
I0
tp673
a(I22
I20
F0.625
S'major'
p674
I0
tp675
a(I22
I20
F0.875
S'reputable'
p676
I0
tp677
a(I22
I20
I0
S'most'
p678
I0
tp679
a(I22
I52
F0.875
S'music'
p680
I0
tp681
a(I22
I52
F-0.625
S'light'
p682
I0
tp683
a(I22
I52
I0
S'such'
p684
I0
tp685
a(I22
I98
F-0.75
S'impossible'
p686
I0
tp687
a(I22
I98
F-0.5
S'certain'
p688
I0
tp689
a(I22
I99
I0
S'most'
p690
I0
tp691
a(I22
I102
I0
S'most'
p692
I0
tp693
a(I41
I36
F-0.5
S'heavy'
p694
I0
tp695
a(I48
I31
I0
S'more'
p696
I0
tp697
a(I50
I0
I0
S'many'
p698
I0
tp699
a(I53
I167
F-0.5
S'certain'
p700
I0
tp701
as(S'feels'
p702
tp703
(lp704
(I1
I12
F-0.375
S'simple'
p705
I14
tp706
a(I11
I14
I0
S'great'
p707
I14
tp708
a(I19
I18
F-0.625
S'light'
p709
I14
tp710
a(I23
I6
I0
S'great'
p711
I14
tp712
a(I29
I1
F1.0
S'good'
p713
I14
tp714
a(I45
I11
I0
S'plastic'
p715
I14
tp716
as(S'performance'
p717
tp718
(lp719
(I5
I1
F1.0
S'good'
p720
I2
tp721
a(I23
I5
F-0.625
S'glad'
p722
I2
tp723
a(I41
I35
I0
S'old'
p724
I2
tp725
as.