(dp0
(S'text'
p1
tp2
(lp3
(I3
I33
I0
S'large'
p4
I18
tp5
a(I3
I33
F0.625
S'easy'
p6
I18
tp7
as(S'tracfone'
p8
tp9
(lp10
(I0
I6
F1.0
S'good'
p11
I0
tp12
a(I0
I6
F1.0
S'good'
p13
I0
tp14
a(I2
I22
I0
S'basic'
p15
I0
tp16
a(I2
I27
I0
S'basic'
p17
I0
tp18
a(I2
I33
F0.375
S'new'
p19
I0
tp20
a(I3
I69
F0.625
S'easy'
p21
I0
tp22
a(I3
I139
F0.375
S'new'
p23
I0
tp24
a(I4
I17
I0
S'old'
p25
I0
tp26
a(I5
I15
F0.375
S'new'
p27
I0
tp28
as.