(dp0
(S'internet'
p1
tp2
(lp3
(I10
I3
F0.75
S'due'
p4
I6
tp5
a(I10
I3
F-0.125
S'slow'
p6
I6
tp7
as(S'camera'
p8
tp9
(lp10
(I1
I1
F1.0
S'good'
p11
I1
tp12
a(I1
I1
I0
S'great'
p13
I1
tp14
a(I8
I0
I0
S'mobile'
p15
I1
tp16
a(I21
I17
I0
S'great'
p17
I1
tp18
as(S'battery'
p19
S'life'
p20
tp21
(lp22
(I1
I12
F1.0
S'better'
p23
I1
tp24
a(I15
I46
F0.125
S'last'
p25
I1
tp26
a(I15
I46
F-0.5
S'long'
p27
I1
tp28
a(I21
I18
I0
S'same'
p29
I15
tp30
as.