(dp0
(S'home'
p1
S'button'
p2
tp3
(lp4
(I14
I230
I0
S'physical'
p5
I0
tp6
as(S'battery'
p7
S'life'
p8
tp9
(lp10
(I0
I39
F-0.25
S'low'
p11
I1
tp12
a(I1
I7
F1.0
S'good'
p13
I1
tp14
a(I12
I10
F-0.375
S'small'
p15
I1
tp16
a(I12
I10
I0
S'great'
p17
I1
tp18
a(I14
I24
F1.0
S'better'
p19
I1
tp20
a(I14
I47
F1.0
S'good'
p21
I1
tp22
a(I14
I210
F0.125
S'last'
p23
I1
tp24
a(I14
I276
F1.0
S'good'
p25
I1
tp26
a(I15
I8
F1.0
S'good'
p27
I1
tp28
a(I19
I21
I0
S'big'
p29
I1
tp30
a(I14
I47
F1.0
g21
I19
tp31
a(I14
I59
F0.375
S'much'
p32
I19
tp33
a(I14
I210
F0.125
g23
I19
tp34
a(I15
I8
F1.0
g27
I19
tp35
a(I0
I9
I0
S'full'
p36
I15
tp37
a(I0
I39
F-0.25
g11
I15
tp38
a(I0
I54
I0
S'big'
p39
I15
tp40
a(I1
I7
F1.0
g13
I15
tp41
a(I3
I4
I0
S'wish'
p42
I15
tp43
a(I3
I4
F0.625
S'easier'
p44
I15
tp45
a(I3
I4
F0.5
S'second'
p46
I15
tp47
a(I5
I17
I0
S'standard'
p48
I15
tp49
a(I12
I10
F-0.375
g15
I15
tp50
a(I12
I10
I0
g17
I15
tp51
a(I14
I24
F1.0
g19
I15
tp52
a(I14
I137
F-0.375
S'smooth'
p53
I15
tp54
a(I14
I156
F0.625
S'removable'
p55
I15
tp56
a(I14
I276
F1.0
g25
I15
tp57
a(I19
I13
F-0.75
S'bright'
p58
I15
tp59
a(I19
I13
F1.0
S'good'
p60
I15
tp61
a(I19
I21
I0
g29
I15
tp62
a(I21
I82
F0.625
S'removable'
p63
I15
tp64
as(S'quad'
p65
S'core'
p66
S'processor'
p67
tp68
(lp69
(I0
I54
I0
S'efficient'
p70
I0
tp71
a(I12
I17
I0
S'quad'
p72
I0
tp73
a(I19
I21
I0
S'quad'
p74
I0
tp75
a(I12
I17
I0
g72
I0
tp76
a(I14
I53
I0
S'quad'
p77
I0
tp78
a(I19
I21
I0
g74
I0
tp79
a(I0
I54
I0
g70
I0
tp80
a(I12
I17
I0
g72
I0
tp81
a(I19
I21
I0
g74
I0
tp82
a(I12
I17
I0
g72
I3
tp83
a(I14
I53
I0
g77
I3
tp84
a(I19
I21
I0
g74
I3
tp85
as(S'power'
p86
S'button'
p87
tp88
(lp89
(I21
I28
F-0.125
S'opposite'
p90
I0
tp91
a(I21
I28
F-0.625
S'other'
p92
I0
tp93
a(I21
I53
F-0.125
S'opposite'
p94
I0
tp95
a(I6
I49
I0
S'physical'
p96
I19
tp97
a(I21
I28
F-0.125
g90
I19
tp98
a(I21
I28
F-0.625
g92
I19
tp99
a(I21
I53
F-0.125
g94
I19
tp100
as(S'decent'
p101
tp102
(lp103
(I14
I214
F1.0
S'best'
p104
I10
tp105
as(S'perfect'
p106
S'size'
p107
tp108
(lp109
(I8
I16
F0.625
S'perfect'
p110
I2
tp111
a(I8
I16
F0.625
S'easy'
p112
I2
tp113
a(I14
I60
I0
S'big'
p114
I2
tp115
a(I14
I60
F-0.375
S'small'
p116
I2
tp117
as(S'big'
p118
S'hands'
p119
tp120
(lp121
(I14
I220
I0
S'big'
p122
I1
tp123
a(I14
I220
F-0.875
S'hard'
p124
I1
tp125
a(I14
I220
I0
S'big'
p126
I1
tp127
a(I14
I222
I0
S'big'
p128
I1
tp129
as(S'camera'
p130
tp131
(lp132
(I0
I68
F0.625
S'fair'
p133
I1
tp134
a(I0
I68
F1.0
S'best'
p135
I1
tp136
a(I0
I73
F-0.375
S'small'
p137
I1
tp138
a(I0
I75
F0.375
S'available'
p139
I1
tp140
a(I4
I11
F1.0
S'good'
p141
I1
tp142
a(I5
I15
F0.625
S'decent'
p143
I1
tp144
a(I8
I26
I0
S'great'
p145
I1
tp146
a(I12
I12
F-0.125
S'slow'
p147
I1
tp148
a(I13
I21
I0
S'great'
p149
I1
tp150
a(I14
I44
F-0.625
S'average'
p151
I1
tp152
a(I14
I139
F0.625
S'decent'
p153
I1
tp154
a(I16
I17
F-0.125
S'slow'
p155
I1
tp156
a(I21
I42
F1.0
S'good'
p157
I1
tp158
as(S'iphone'
p159
tp160
(lp161
(I14
I218
F0.375
S'content'
p162
I1
tp163
as(S'mini'
p164
tp165
(lp166
(I14
I58
F-0.75
S'little'
p167
I13
tp168
as(S'signal'
p169
tp170
(lp171
(I16
I9
I0
S'great'
p172
I1
tp173
a(I16
I9
F1.0
S'good'
p174
I1
tp175
a(I21
I13
I0
S'same'
p176
I1
tp177
as(S'memory'
p178
tp179
(lp180
(I1
I64
F-0.375
S'small'
p181
I5
tp182
a(I6
I30
F-0.5
S'less'
p183
I5
tp184
a(I6
I32
I0
S'more'
p185
I5
tp186
a(I14
I228
I0
S'internal'
p187
I5
tp188
a(I14
I228
F-0.625
S'free'
p189
I5
tp190
a(I15
I1
I0
S'great'
p191
I5
tp192
a(I18
I7
I0
S'external'
p193
I5
tp194
as(S't'
p195
S'mobile'
p196
tp197
(lp198
(I9
I22
I0
S'current'
p199
I0
tp200
a(I9
I22
I0
g199
I0
tp201
as(S'sd'
p202
S'card'
p203
tp204
(lp205
(I0
I14
F0.375
S'new'
p206
I0
tp207
a(I5
I20
F-0.375
S'crazy'
p208
I0
tp209
a(I21
I82
I0
S'external'
p210
I0
tp211
as(S'android'
p212
tp213
(lp214
(I0
I76
F-0.375
S'smaller'
p215
I0
tp216
a(I1
I62
I0
S'great'
p217
I0
tp218
a(I6
I3
F0.375
S'reliable'
p219
I0
tp220
a(I9
I4
F0.5
S'upgraded'
p221
I0
tp222
a(I9
I24
I0
S'own'
p223
I0
tp224
a(I14
I198
I0
S'latest'
p225
I0
tp226
a(I19
I10
F0.125
S'typical'
p227
I0
tp228
as(S'amazon'
p229
tp230
(lp231
(I14
I182
F-0.25
S'cheaper'
p232
I13
tp233
as(S'galaxy'
p234
S's4'
p235
tp236
(lp237
(I9
I19
F0.5
S'expensive'
p238
I0
tp239
a(I9
I19
F0.5
S'true'
p240
I0
tp241
a(I9
I19
F0.375
S'much'
p242
I0
tp243
a(I9
I19
I0
S'more'
p244
I0
tp245
a(I9
I19
F0.5
S'expensive'
p246
I0
tp247
as(S'galaxy'
p248
S'light'
p249
tp250
(lp251
(I2
I2
F-0.625
S'glad'
p252
I0
tp253
a(I6
I28
F-0.75
S'wrong'
p254
I0
tp255
a(I8
I31
F-0.375
S'small'
p256
I0
tp257
a(I9
I19
F0.5
g238
I0
tp258
a(I9
I19
F0.5
g240
I0
tp259
a(I9
I19
F0.375
g242
I0
tp260
a(I9
I19
I0
g244
I0
tp261
a(I9
I19
F0.5
g246
I0
tp262
a(I13
I18
F0.375
S'new'
p263
I0
tp264
a(I21
I3
I0
S'old'
p265
I0
tp266
as(S'smart'
p267
tp268
(lp269
(I8
I30
I0
S'most'
p270
I10
tp271
a(I8
I30
F0.375
S'new'
p272
I10
tp273
a(I8
I43
F0.875
S'happy'
p274
I10
tp275
a(I9
I22
F-0.25
S'modern'
p276
I10
tp277
a(I12
I35
F-0.375
S'smaller'
p278
I10
tp279
a(I13
I4
F1.0
S'good'
p280
I10
tp281
a(I13
I16
F0.375
S'new'
p282
I10
tp283
a(I14
I209
F0.125
S'first'
p284
I10
tp285
a(I14
I246
F0.5
S'expensive'
p286
I10
tp287
a(I14
I269
F1.0
S'good'
p288
I10
tp289
a(I20
I4
F0.125
S'first'
p290
I10
tp291
a(I21
I47
F0.375
S'newer'
p292
I10
tp293
a(I21
I77
I0
S'most'
p294
I10
tp295
as(S'replacement'
p296
tp297
(lp298
(I9
I1
F-0.375
S'smaller'
p299
I13
tp300
as(S'network'
p301
tp302
(lp303
(I3
I12
I0
S'same'
p304
I0
tp305
a(I21
I18
F-0.5
S'sure'
p306
I0
tp307
a(I21
I18
I0
S'cellular'
p308
I0
tp309
a(I21
I95
I0
S'same'
p310
I0
tp311
as(S'sim'
p312
S'card'
p313
tp314
(lp315
(I1
I6
F0.625
S'easy'
p316
I0
tp317
a(I4
I17
F0.125
S'able'
p318
I0
tp319
a(I4
I17
I0
S'old'
p320
I0
tp321
a(I4
I17
F0.875
S'important'
p322
I0
tp323
a(I14
I183
I0
S'old'
p324
I0
tp325
a(I14
I183
I0
S'large'
p326
I0
tp327
a(I19
I2
I0
S'chinese'
p328
I0
tp329
a(I19
I17
F0.375
S'new'
p330
I0
tp331
as(S'data'
p332
tp333
(lp334
(I0
I59
I0
S'mobile'
p335
I13
tp336
a(I0
I59
I0
S'most'
p337
I13
tp338
a(I1
I5
I0
S'faster'
p339
I13
tp340
a(I1
I26
I0
S'signal'
p341
I13
tp342
a(I14
I146
I0
S'mobile'
p343
I13
tp344
as(S'price'
p345
S'point'
p346
tp347
(lp348
(I13
I16
F0.75
S'worth'
p349
I1
tp350
a(I15
I7
F1.0
S'better'
p351
I1
tp352
as(S'samsung'
p353
S'galaxy'
p354
tp355
(lp356
(I1
I56
I0
S'third'
p357
I0
tp358
a(I9
I39
I0
S'same'
p359
I0
tp360
a(I16
I56
F-0.625
S'other'
p361
I0
tp362
a(I5
I8
F-0.625
S'other'
p363
I0
tp364
a(I6
I28
F-0.75
g254
I0
tp365
a(I7
I5
F-0.375
S'smaller'
p366
I0
tp367
a(I9
I19
F0.5
g238
I0
tp368
a(I9
I19
F0.5
g240
I0
tp369
a(I9
I19
F0.375
g242
I0
tp370
a(I9
I19
I0
g244
I0
tp371
a(I9
I19
F0.5
g246
I0
tp372
a(I12
I16
I0
S'same'
p373
I0
tp374
a(I13
I18
F0.375
g263
I0
tp375
a(I14
I193
I0
S'more'
p376
I0
tp377
a(I14
I193
F0.5
S'expensive'
p378
I0
tp379
a(I14
I199
F-0.25
S'inexpensive'
p380
I0
tp381
a(I15
I18
F0.5
S'expensive'
p382
I0
tp383
a(I21
I3
I0
g265
I0
tp384
as(S'screen'
p385
S'bright'
p386
tp387
(lp388
(I0
I63
F-0.75
S'bright'
p389
I0
tp390
a(I8
I50
F-0.75
S'bright'
p391
I0
tp392
a(I14
I4
F-0.75
S'bright'
p393
I0
tp394
a(I15
I17
F-0.75
S'bright'
p395
I0
tp396
a(I15
I17
F1.0
S'good'
p397
I0
tp398
a(I19
I13
F0.25
S'sharp'
p399
I0
tp400
as(S'internet'
p401
tp402
(lp403
(I4
I8
I0
S'more'
p404
I6
tp405
a(I6
I49
F-0.125
S'slow'
p406
I6
tp407
a(I20
I7
F0.375
S'reliable'
p408
I6
tp409
as(S'pocket'
p410
tp411
(lp412
(I0
I75
F1.0
S'better'
p413
I17
tp414
a(I10
I3
F-0.375
S'top'
p415
I17
tp416
as(S'wifi'
p417
tp418
(lp419
(I6
I50
F-0.625
S'other'
p420
I0
tp421
a(I21
I13
F1.0
S'better'
p422
I0
tp423
as(S'apps'
p424
tp425
(lp426
(I8
I26
I0
S'few'
p427
I0
tp428
a(I14
I106
I0
S'many'
p429
I0
tp430
a(I14
I107
F-0.5
S'open'
p431
I0
tp432
a(I14
I138
I0
S'android'
p433
I0
tp434
a(I14
I268
I0
S'faster'
p435
I0
tp436
a(I21
I23
F0.125
S'able'
p437
I0
tp438
as(S'dropped'
p439
S'calls'
p440
tp441
(lp442
(I14
I15
F-0.25
S'dropped'
p443
I0
tp444
a(I14
I15
F-0.25
g443
I0
tp445
a(I16
I44
F0.125
S'able'
p446
I0
tp447
as(S'first'
p448
S'smartphone'
p449
tp450
(lp451
(I5
I23
F0.125
S'first'
p452
I0
tp453
a(I5
I30
F0.125
S'first'
p454
I0
tp455
a(I19
I5
F0.125
S'first'
p456
I0
tp457
a(I21
I70
F0.125
S'first'
p458
I0
tp459
a(I0
I77
F1.0
S'best'
p460
I0
tp461
a(I3
I3
F-0.625
S'other'
p462
I0
tp463
a(I4
I5
I0
S'basic'
p464
I0
tp465
a(I5
I23
F0.125
g452
I0
tp466
a(I5
I30
F0.125
g454
I0
tp467
a(I14
I20
F0.5
S'elegant'
p468
I0
tp469
a(I15
I12
I0
S'great'
p470
I0
tp471
a(I16
I12
F-0.375
S'simple'
p472
I0
tp473
a(I19
I5
F0.125
g456
I0
tp474
a(I21
I70
F0.125
g458
I0
tp475
as.