(dp0
(S'battery'
p1
S'life'
p2
tp3
(lp4
(I8
I46
F1.0
S'good'
p5
I1
tp6
a(I10
I13
F-0.5
S'long'
p7
I1
tp8
a(I15
I5
I0
S'great'
p9
I1
tp10
a(I15
I11
I0
S'phenomenal'
p11
I1
tp12
a(I15
I33
I0
S'fast'
p13
I1
tp14
a(I15
I33
F1.0
S'good'
p15
I1
tp16
a(I25
I0
I0
S'fast'
p17
I1
tp18
a(I8
I46
F1.0
g5
I19
tp19
a(I15
I11
I0
g11
I19
tp20
a(I25
I0
I0
g17
I19
tp21
a(I5
I1
F0.125
S'last'
p22
I15
tp23
a(I10
I2
F0.625
S'removable'
p24
I15
tp25
a(I10
I6
I0
S'external'
p26
I15
tp27
a(I10
I13
F-0.5
g7
I15
tp28
a(I12
I16
F0.625
S'removable'
p29
I15
tp30
a(I13
I26
I0
S'fast'
p31
I15
tp32
a(I14
I15
F0.625
S'removable'
p33
I15
tp34
a(I14
I57
F-0.75
S'dead'
p35
I15
tp36
a(I15
I5
I0
g9
I15
tp37
a(I15
I33
I0
g13
I15
tp38
a(I15
I33
F1.0
g15
I15
tp39
a(I17
I28
F0.125
S'last'
p40
I15
tp41
a(I17
I35
F0.125
S'last'
p42
I15
tp43
a(I25
I65
F1.0
S'good'
p44
I15
tp45
a(I26
I23
F0.75
S'due'
p46
I15
tp47
a(I26
I23
I0
S'great'
p48
I15
tp49
as(S'motorola'
p50
tp51
(lp52
(I14
I28
F-0.625
S'bad'
p53
I0
tp54
as(S'boost'
p55
S'mobile'
p56
tp57
(lp58
(I14
I3
F-0.25
S'inexpensive'
p59
I0
tp60
a(I14
I50
F1.0
S'best'
p61
I0
tp62
a(I14
I3
F-0.25
g59
I0
tp63
a(I14
I50
F1.0
g61
I0
tp64
a(I15
I6
F-0.875
S'stuck'
p65
I0
tp66
a(I15
I19
F1.0
S'good'
p67
I0
tp68
as(S'moto'
p69
S'g'
p70
tp71
(lp72
(I5
I9
F-0.25
S'late'
p73
I0
tp74
a(I6
I11
F0.375
S'new'
p75
I0
tp76
a(I10
I12
I0
S'great'
p77
I0
tp78
a(I12
I51
F0.5
S'compatible'
p79
I0
tp80
a(I25
I50
F0.125
S'solid'
p81
I0
tp82
a(I5
I9
F-0.25
g73
I1
tp83
a(I6
I11
F0.375
g75
I1
tp84
as(S'samsung'
p85
tp86
(lp87
(I8
I53
F0.5
S'upgraded'
p88
I7
tp89
a(I8
I53
F-0.75
S'dead'
p90
I7
tp91
a(I11
I1
I0
S'old'
p92
I7
tp93
a(I20
I3
I0
S'old'
p94
I7
tp95
a(I25
I67
F0.375
S'new'
p96
I7
tp97
as(S'camera'
p98
tp99
(lp100
(I8
I48
F1.0
S'better'
p101
I1
tp102
a(I11
I18
I0
S'great'
p103
I1
tp104
a(I17
I25
F1.0
S'good'
p105
I1
tp106
as(S'inch'
p107
S'screen'
p108
tp109
(lp110
(I26
I5
F0.5
S'whole'
p111
I0
tp112
as(S'kit'
p113
S'kat'
p114
tp115
(lp116
(I2
I2
F0.375
S'new'
p117
I0
tp118
as(S'memory'
p119
tp120
(lp121
(I6
I13
I0
S'external'
p122
I5
tp123
a(I6
I16
I0
S'internal'
p124
I5
tp125
a(I10
I11
F-0.875
S'hard'
p126
I5
tp127
a(I22
I4
I0
S'internal'
p128
I5
tp129
as(S'google'
p130
tp131
(lp132
(I13
I8
I0
S'wish'
p133
I4
tp134
a(I13
I8
F0.25
S'bigger'
p135
I4
tp136
a(I13
I8
F-0.875
S'hard'
p137
I4
tp138
a(I13
I8
F0.5
S'drive'
p139
I4
tp140
as(S'galaxy'
p141
tp142
(lp143
(I22
I21
F0.375
S'acting'
p144
I0
tp145
as(S'storage'
p146
tp147
(lp148
(I6
I17
I0
S'internal'
p149
I1
tp150
a(I7
I28
I0
S'external'
p151
I1
tp152
a(I8
I67
F1.0
S'good'
p153
I1
tp154
a(I8
I67
I0
S'internal'
p155
I1
tp156
a(I8
I67
F0.875
S'nice'
p157
I1
tp158
a(I10
I3
I0
S'internal'
p159
I1
tp160
a(I22
I5
F-0.625
S'free'
p161
I1
tp162
a(I22
I6
I0
S'full'
p163
I1
tp164
a(I22
I22
F1.0
S'good'
p165
I1
tp166
a(I25
I2
F-0.375
S'small'
p167
I1
tp168
a(I25
I3
F-0.5
S'actual'
p169
I1
tp170
as(S'android'
p171
tp172
(lp173
(I1
I2
F0.125
S'first'
p174
I0
tp175
a(I2
I6
I0
S'latest'
p176
I0
tp177
a(I4
I9
F0.375
S'new'
p178
I0
tp179
a(I6
I0
F0.125
S'first'
p180
I0
tp181
a(I12
I35
F0.375
S'newer'
p182
I0
tp183
a(I25
I9
F-0.375
S'loaded'
p184
I0
tp185
a(I25
I9
F0.375
S'newest'
p186
I0
tp187
as(S'sd'
p188
S'card'
p189
S'slot'
p190
tp191
(lp192
(I12
I14
I0
S'internal'
p193
I0
tp194
a(I12
I14
I0
S'internal'
p195
I0
tp196
a(I12
I14
I0
g193
I0
tp197
a(I12
I14
I0
g195
I0
tp198
a(I17
I15
I0
S'sd'
p199
I0
tp200
a(I20
I1
I0
S'external'
p201
I0
tp202
a(I25
I27
I0
S'external'
p203
I0
tp204
a(I12
I14
I0
g193
I0
tp205
a(I12
I14
I0
g195
I0
tp206
a(I17
I15
I0
g199
I6
tp207
as(S'a'
p208
S'quad'
p209
S'core'
p210
tp211
(lp212
(I4
I6
I0
S'quad'
p213
I0
tp214
a(I4
I6
I0
g213
I0
tp215
a(I4
I6
I0
g213
I3
tp216
a(I12
I11
F-0.75
S'single'
p217
I3
tp218
as(S'apps'
p219
tp220
(lp221
(I8
I30
I0
S'such'
p222
I0
tp223
a(I8
I32
I0
S'full'
p224
I0
tp225
a(I8
I42
F1.0
S'good'
p226
I0
tp227
a(I13
I18
F0.5
S'possible'
p228
I0
tp229
a(I14
I32
F0.375
S'much'
p230
I0
tp231
a(I25
I45
I0
S'most'
p232
I0
tp233
as(S'feels'
p234
tp235
(lp236
(I22
I21
I0
S'faster'
p237
I14
tp238
a(I22
I21
I0
S'more'
p239
I14
tp240
a(I26
I17
F1.0
S'good'
p241
I14
tp242
as.