(dp0
(S'battery'
p1
S'life'
p2
tp3
(lp4
(I0
I182
I0
S'great'
p5
I1
tp6
a(I6
I38
F0.875
S'happy'
p7
I1
tp8
a(I6
I137
F-0.5
S'poor'
p9
I1
tp10
a(I6
I219
F-0.5
S'longer'
p11
I1
tp12
a(I6
I252
F1.0
S'good'
p13
I1
tp14
a(I8
I20
F1.0
S'good'
p15
I1
tp16
a(I8
I22
F0.375
S'much'
p17
I1
tp18
a(I9
I36
I0
S'third'
p19
I1
tp20
a(I0
I182
I0
g5
I19
tp21
a(I6
I219
F-0.5
g11
I19
tp22
a(I6
I252
F1.0
g13
I19
tp23
a(I8
I22
F0.375
g17
I19
tp24
a(I9
I36
I0
g19
I19
tp25
a(I0
I151
F0.5
S'rid'
p26
I15
tp27
a(I0
I203
F1.0
S'good'
p28
I15
tp29
a(I0
I209
I0
S'great'
p30
I15
tp31
a(I2
I106
I0
S'more'
p32
I15
tp33
a(I3
I82
I0
S'wish'
p34
I15
tp35
a(I6
I38
F0.875
g7
I15
tp36
a(I6
I40
I-100
S'2400mah'
p37
I15
tp38
a(I6
I137
F-0.5
g9
I15
tp39
a(I6
I197
F1.0
S'good'
p40
I15
tp41
a(I6
I221
F1.0
S'good'
p42
I15
tp43
a(I7
I6
F0.125
S'able'
p44
I15
tp45
a(I7
I6
I0
S'forth'
p46
I15
tp47
a(I7
I6
F0.375
S'new'
p48
I15
tp49
a(I8
I20
F1.0
g15
I15
tp50
a(I9
I38
F0.625
S'removable'
p51
I15
tp52
as(S'ir'
p53
S'blaster'
p54
tp55
(lp56
(I9
I69
I0
S'most'
p57
I0
tp58
as(S'gunmetal'
p59
S'grey'
p60
tp61
(lp62
(I2
I17
F-0.75
S'dark'
p63
I0
tp64
as(S'sense'
p65
tp66
(lp67
(I0
I48
F1.0
S'good'
p68
I8
tp69
a(I2
I79
I0
S'faster'
p70
I8
tp71
a(I6
I114
I0
S'closest'
p72
I8
tp73
a(I9
I103
F0.5
S'functional'
p74
I8
tp75
as(S'speakers'
p76
tp77
(lp78
(I2
I159
I0
S'great'
p79
I2
tp80
a(I3
I85
I0
S'great'
p81
I2
tp82
a(I6
I233
I0
S'great'
p83
I2
tp84
a(I8
I20
F0.375
S'loud'
p85
I2
tp86
a(I9
I97
F0.375
S'loud'
p87
I2
tp88
as(S'power'
p89
S'button'
p90
tp91
(lp92
(I0
I194
F-0.375
S'top'
p93
I0
tp94
a(I0
I194
I0
S'great'
p95
I0
tp96
a(I2
I22
F-0.375
S'top'
p97
I0
tp98
a(I6
I89
F-0.875
S'harder'
p99
I0
tp100
a(I6
I181
F-0.375
S'top'
p101
I0
tp102
a(I0
I194
F-0.375
g93
I19
tp103
a(I0
I194
I0
g95
I19
tp104
a(I2
I22
F-0.375
g97
I19
tp105
a(I2
I74
F-0.625
S'bad'
p106
I19
tp107
a(I5
I2
F-0.375
S'top'
p108
I19
tp109
a(I6
I89
F-0.875
g99
I19
tp110
a(I6
I181
F-0.375
g101
I19
tp111
a(I8
I56
I0
S'soft'
p112
I19
tp113
as(S'stock'
p114
tp115
(lp116
(I2
I65
I0
S'great'
p117
I6
tp118
a(I2
I139
I0
S'blue'
p119
I6
tp120
a(I6
I14
I0
S'closer'
p121
I6
tp122
a(I6
I122
F0.375
S'similar'
p123
I6
tp124
a(I9
I103
I0
S'most'
p125
I6
tp126
as(S'call'
p127
S'quality'
p128
tp129
(lp130
(I0
I59
F-0.125
S'overall'
p131
I0
tp132
a(I8
I29
F-0.5
S'call'
p133
I0
tp134
a(I9
I35
F1.0
S'good'
p135
I0
tp136
as(S'samsung'
p137
tp138
(lp139
(I3
I75
I0
S'great'
p140
I7
tp141
a(I9
I40
F-0.25
S'disappointed'
p142
I7
tp143
as(S'brushed'
p144
S'aluminum'
p145
tp146
(lp147
(I3
I50
I0
S'brushed'
p148
I0
tp149
a(I6
I69
I0
S'brushed'
p150
I0
tp151
a(I6
I71
I0
S'brushed'
p152
I0
tp153
as(S'kit'
p154
S'kat'
p155
tp156
(lp157
(I0
I46
F1.0
S'better'
p158
I0
tp159
a(I6
I191
F-0.625
S'bad'
p160
I0
tp161
a(I9
I60
F-0.125
S'kit'
p162
I0
tp163
as(S'front'
p164
S'facing'
p165
S'camera'
p166
tp167
(lp168
(I2
I119
F0.5
S'primary'
p169
I0
tp170
a(I2
I181
F0.625
S'superior'
p171
I0
tp172
a(I2
I183
I0
S'only'
p173
I0
tp174
a(I2
I119
F0.5
g169
I0
tp175
a(I2
I181
F0.625
g171
I0
tp176
a(I2
I183
I0
g173
I0
tp177
a(I2
I124
I0
S'rear'
p178
I14
tp179
a(I0
I6
F0.25
S'main'
p180
I1
tp181
a(I0
I9
F0.25
S'main'
p182
I1
tp183
a(I0
I10
I0
S'different'
p184
I1
tp185
a(I0
I85
I0
S'real'
p186
I1
tp187
a(I0
I87
F1.0
S'better'
p188
I1
tp189
a(I0
I88
F-0.5
S'separate'
p190
I1
tp191
a(I0
I162
I0
S'next'
p192
I1
tp193
a(I0
I175
I0
S'cool'
p194
I1
tp195
a(I0
I185
F0.625
S'perfect'
p196
I1
tp197
a(I0
I213
F0.875
S'nice'
p198
I1
tp199
a(I2
I107
F0.5
S'primary'
p200
I1
tp201
a(I2
I119
F0.5
g169
I1
tp202
a(I2
I122
F0.375
S'new'
p203
I1
tp204
a(I2
I181
F0.625
g171
I1
tp205
a(I2
I183
I0
g173
I1
tp206
a(I2
I205
F-0.75
S'secondary'
p207
I1
tp208
a(I2
I205
F-0.375
S'top'
p209
I1
tp210
a(I2
I206
F-0.375
S'top'
p211
I1
tp212
a(I2
I206
F0.125
S'capable'
p213
I1
tp214
a(I2
I208
I-100
S'u-focus'
p215
I1
tp216
a(I2
I223
F0.625
S'superior'
p217
I1
tp218
a(I3
I8
I0
S'great'
p219
I1
tp220
a(I6
I151
F-0.875
S'worst'
p221
I1
tp222
a(I6
I165
F0.375
S'much'
p223
I1
tp224
a(I6
I251
F1.0
S'good'
p225
I1
tp226
a(I8
I3
I0
S'great'
p227
I1
tp228
a(I8
I21
I0
S'rear'
p229
I1
tp230
a(I8
I39
I0
S'great'
p231
I1
tp232
a(I8
I69
F0.125
S'last'
p233
I1
tp234
as(S'a'
p235
S'little'
p236
S'bit'
p237
tp238
(lp239
(I2
I75
F-0.5
S'less'
p240
I9
tp241
a(I2
I75
I0
S'sensitive'
p242
I9
tp243
a(I2
I109
I0
S'more'
p244
I9
tp245
a(I2
I121
F0.375
S'extra'
p246
I9
tp247
a(I2
I121
F-0.75
S'little'
p248
I9
tp249
a(I2
I135
I0
S'monochromatic'
p250
I9
tp251
a(I7
I14
F-0.75
S'little'
p252
I9
tp253
a(I2
I75
F-0.5
g240
I10
tp254
a(I2
I75
I0
g242
I10
tp255
a(I2
I109
I0
g244
I10
tp256
a(I2
I121
F0.375
g246
I10
tp257
a(I2
I121
F-0.75
g248
I10
tp258
a(I2
I135
I0
g250
I10
tp259
a(I7
I14
F-0.75
g252
I10
tp260
as(S'first'
p261
S'htc'
p262
tp263
(lp264
(I0
I100
F0.375
S'new'
p265
I0
tp266
a(I0
I199
F0.125
S'first'
p267
I0
tp268
a(I0
I199
F0.875
S'happy'
p269
I0
tp270
a(I2
I159
F0.125
S'first'
p271
I0
tp272
a(I2
I159
F1.0
S'better'
p273
I0
tp274
a(I2
I188
F0.125
S'first'
p275
I0
tp276
a(I6
I86
F0.125
S'first'
p277
I0
tp278
a(I6
I86
I0
S'next'
p279
I0
tp280
a(I6
I86
F-0.75
S'impossible'
p281
I0
tp282
a(I9
I71
F1.0
S'better'
p283
I0
tp284
a(I9
I71
F0.125
S'first'
p285
I0
tp286
as(S'build'
p287
S'quality'
p288
tp289
(lp290
(I0
I175
I0
S'great'
p291
I2
tp292
a(I1
I1
F0.875
S'nice'
p293
I2
tp294
a(I2
I2
F0.5
S'second'
p295
I2
tp296
a(I4
I5
F0.625
S'aware'
p297
I2
tp298
a(I0
I175
I0
g291
I13
tp299
a(I1
I1
F0.875
g293
I13
tp300
a(I4
I5
F0.625
g297
I13
tp301
as(S'headphone'
p302
S'jack'
p303
tp304
(lp305
(I2
I27
F-0.375
S'top'
p306
I0
tp307
as(S'droid'
p308
tp309
(lp310
(I0
I31
I0
S'old'
p311
I0
tp312
a(I0
I64
I0
S'same'
p313
I0
tp314
as(S'one'
p315
S'm8'
p316
tp317
(lp318
(I0
I183
F1.0
S'good'
p319
I0
tp320
a(I2
I25
F0.5
S'taller'
p321
I0
tp322
a(I2
I234
F0.625
S'easier'
p323
I0
tp324
a(I2
I246
F0.625
S'perfect'
p325
I0
tp326
as(S'verizon'
p327
tp328
(lp329
(I0
I211
I0
S'local'
p330
I0
tp331
a(I2
I17
F-0.125
S'mine'
p332
I0
tp333
a(I3
I62
F-0.5
S'complaint'
p334
I0
tp335
as(S'sd'
p336
S'card'
p337
tp338
(lp339
(I9
I3
F-0.75
S'bright'
p340
I0
tp341
as(S'manual'
p342
S'mode'
p343
tp344
(lp345
(I3
I34
F-0.375
S'manual'
p346
I0
tp347
a(I3
I35
F-0.375
S'manual'
p348
I0
tp349
a(I3
I41
F-0.375
S'manual'
p350
I0
tp351
as(S'android'
p352
tp353
(lp354
(I0
I48
I0
S'many'
p355
I0
tp356
a(I0
I139
I0
S'latest'
p357
I0
tp358
a(I2
I22
F-0.625
S'other'
p359
I0
tp360
a(I2
I24
I0
S'different'
p361
I0
tp362
a(I2
I99
F-0.625
S'other'
p363
I0
tp364
a(I6
I107
F-0.375
S'top'
p365
I0
tp366
a(I9
I90
F1.0
S'best'
p367
I0
tp368
as(S'new'
p369
S'htc'
p370
tp371
(lp372
(I0
I16
F0.375
S'new'
p373
I0
tp374
a(I0
I100
F0.375
g265
I0
tp375
a(I0
I189
F0.375
S'new'
p376
I0
tp377
a(I2
I15
F0.375
S'new'
p378
I0
tp379
a(I2
I56
F0.375
S'new'
p380
I0
tp381
a(I2
I150
F-0.125
S'overall'
p382
I0
tp383
a(I2
I150
F0.875
S'happy'
p384
I0
tp385
a(I3
I66
I0
S'old'
p386
I0
tp387
a(I6
I138
F0.375
S'new'
p388
I0
tp389
a(I6
I165
F0.375
S'new'
p390
I0
tp391
a(I8
I37
F0.375
S'new'
p392
I0
tp393
a(I8
I45
F0.375
S'new'
p394
I0
tp395
a(I9
I129
F0.375
S'new'
p396
I0
tp397
as(S'iphone'
p398
tp399
(lp400
(I9
I28
I0
S'least'
p401
I1
tp402
a(I9
I28
F-0.375
S'small'
p403
I1
tp404
a(I9
I45
F0.375
S'new'
p405
I1
tp406
as(S'low'
p407
S'light'
p408
tp409
(lp410
(I3
I32
F-0.25
S'low'
p411
I0
tp412
as(S'buttons'
p413
tp414
(lp415
(I8
I55
I0
S'soft'
p416
I13
tp417
a(I9
I73
I0
S'physical'
p418
I13
tp419
as(S'heavy'
p420
S'use'
p421
tp422
(lp423
(I0
I154
F-0.5
S'heavy'
p424
I1
tp425
a(I0
I155
F1.0
S'good'
p426
I1
tp427
a(I0
I155
F-0.5
S'heavy'
p428
I1
tp429
a(I2
I105
F-0.5
S'heavy'
p430
I1
tp431
a(I2
I105
F-0.5
S'longer'
p432
I1
tp433
a(I2
I105
I0
S'more'
p434
I1
tp435
a(I2
I105
F-0.625
S'moderate'
p436
I1
tp437
a(I2
I251
F-0.5
S'heavy'
p438
I1
tp439
a(I9
I122
F-0.5
S'heavy'
p440
I1
tp441
as(S'music'
p442
tp443
(lp444
(I2
I94
F0.875
S'music'
p445
I0
tp446
a(I2
I170
F0.125
S'able'
p447
I0
tp448
as(S'lock'
p449
S'screen'
p450
tp451
(lp452
(I6
I42
F-0.375
S'black'
p453
I0
tp454
a(I9
I57
F-0.375
S'top'
p455
I0
tp456
as(S'sound'
p457
S'quality'
p458
tp459
(lp460
(I6
I8
F0.875
S'happy'
p461
I0
tp462
a(I6
I246
F-0.125
S'overall'
p463
I0
tp464
a(I0
I208
F-0.625
S'bad'
p465
I7
tp466
a(I6
I5
F1.0
S'good'
p467
I7
tp468
a(I6
I8
F0.875
g461
I7
tp469
a(I6
I159
F0.5
S'strong'
p470
I7
tp471
a(I6
I160
F0.5
S'whole'
p472
I7
tp473
a(I6
I246
F-0.125
g463
I7
tp474
a(I9
I97
I0
S'full'
p475
I7
tp476
as(S'much'
p477
S'better'
p478
tp479
(lp480
(I2
I92
F0.375
S'much'
p481
I9
tp482
as(S'galaxy'
p483
S's5'
p484
tp485
(lp486
(I2
I224
I0
S'more'
p487
I0
tp488
a(I3
I0
F0.375
S'confident'
p489
I0
tp490
a(I0
I193
I0
S'wide'
p491
I0
tp492
a(I2
I52
I0
S'old'
p493
I0
tp494
a(I6
I140
I0
S'older'
p495
I0
tp496
as(S'higher'
p497
S'megapixel'
p498
tp499
(lp500
(I8
I50
F-0.25
S'higher'
p501
I0
tp502
a(I8
I51
F-0.25
S'higher'
p503
I0
tp504
a(I9
I86
F-0.25
S'higher'
p505
I0
tp506
as(S'customer'
p507
S'service'
p508
tp509
(lp510
(I0
I6
F0.125
S'able'
p511
I3
tp512
a(I0
I19
F-0.5
S'poor'
p513
I3
tp514
a(I6
I209
F0.125
S'last'
p515
I3
tp516
as(S'volume'
p517
tp518
(lp519
(I3
I18
F0.125
S'key'
p520
I6
tp521
a(I8
I38
F-0.625
S'quiet'
p522
I6
tp523
a(I8
I38
F-0.25
S'highest'
p524
I6
tp525
as(S'videos'
p526
tp527
(lp528
(I0
I59
F0.875
S'music'
p529
I8
tp530
a(I2
I161
F0.875
S'music'
p531
I8
tp532
as(S'double'
p533
S'tap'
p534
tp535
(lp536
(I2
I73
F-0.375
S'double'
p537
I0
tp538
a(I2
I77
F-0.375
S'double'
p539
I0
tp540
a(I2
I261
F-0.375
S'double'
p541
I0
tp542
a(I5
I2
F-0.375
S'double'
p543
I0
tp544
a(I9
I56
F-0.375
S'double'
p545
I0
tp546
as(S'apps'
p547
tp548
(lp549
(I2
I103
I0
S'many'
p550
I0
tp551
a(I2
I116
I0
S'flashlight'
p552
I0
tp553
a(I2
I128
I0
S'many'
p554
I0
tp555
a(I5
I1
I0
S'few'
p556
I0
tp557
a(I6
I196
F0.875
S'nice'
p558
I0
tp559
a(I9
I7
I0
S'great'
p560
I0
tp561
as(S'performance'
p562
tp563
(lp564
(I0
I35
F-0.75
S'sick'
p565
I2
tp566
a(I0
I88
F0.875
S'happy'
p567
I2
tp568
a(I0
I88
I0
S'least'
p569
I2
tp570
a(I0
I88
F0.75
S'give'
p571
I2
tp572
a(I0
I88
F0.625
S'superior'
p573
I2
tp574
a(I2
I193
I0
S'such'
p575
I2
tp576
a(I6
I250
I0
S'great'
p577
I2
tp578
as(S'one'
p579
S'thing'
p580
tp581
(lp582
(I0
I141
F1.0
S'best'
p583
I2
tp584
a(I6
I92
F0.125
S'last'
p585
I2
tp586
as.