(dp0
(S'screen'
p1
S'size'
p2
tp3
(lp4
(I24
I20
F-0.625
S'light'
p5
I3
tp6
a(I38
I0
I0
S'same'
p7
I3
tp8
a(I39
I4
I0
S'great'
p9
I3
tp10
a(I39
I4
I0
S'large'
p11
I3
tp12
a(I39
I4
F0.625
S'easy'
p13
I3
tp14
as(S'ear'
p15
S'buds'
p16
tp17
(lp18
(I37
I21
F0.75
S'ear'
p19
I0
tp20
a(I37
I21
F-0.375
S'double'
p21
I0
tp22
as(S'battery'
p23
S'life'
p24
tp25
(lp26
(I3
I33
F-0.5
S'long'
p27
I1
tp28
a(I11
I5
F1.0
S'good'
p29
I1
tp30
a(I11
I55
F-0.5
S'long'
p31
I1
tp32
a(I22
I19
F-0.375
S'simple'
p33
I1
tp34
a(I22
I19
F-0.25
S'low'
p35
I1
tp36
a(I24
I23
F-0.625
S'average'
p37
I1
tp38
a(I24
I23
F0.625
S'acceptable'
p39
I1
tp40
a(I36
I33
I0
S'great'
p41
I1
tp42
a(I36
I38
F1.0
S'good'
p43
I1
tp44
a(I22
I19
F-0.25
g35
I19
tp45
a(I24
I23
F-0.625
g37
I19
tp46
a(I24
I23
F0.625
g39
I19
tp47
a(I36
I33
I0
g41
I19
tp48
a(I3
I33
F-0.5
g27
I15
tp49
a(I11
I5
F1.0
g29
I15
tp50
a(I11
I46
F-0.375
S'loaded'
p51
I15
tp52
a(I11
I55
F-0.5
g31
I15
tp53
a(I14
I7
F0.375
S'new'
p54
I15
tp55
a(I22
I19
F-0.375
g33
I15
tp56
a(I36
I38
F1.0
g43
I15
tp57
a(I37
I42
I-100
S'install/uninstall'
p58
I15
tp59
a(I43
I31
F-0.75
S'wrong'
p60
I15
tp61
as(S'resolution'
p62
tp63
(lp64
(I1
I58
F-0.25
S'lower'
p65
I1
tp66
a(I3
I10
F-0.25
S'low'
p67
I1
tp68
a(I19
I10
F-0.25
S'low'
p69
I1
tp70
a(I40
I13
F-0.25
S'lower'
p71
I1
tp72
as(S'talk'
p73
tp74
(lp75
(I36
I10
F0.625
S'straight'
p76
I13
tp77
a(I36
I27
F1.0
S'good'
p78
I13
tp79
as(S'text'
p80
tp81
(lp82
(I0
I18
I0
S'text'
p83
I18
tp84
a(I0
I18
F-0.25
S'spoken'
p85
I18
tp86
as(S'blu'
p87
S'studio'
p88
tp89
(lp90
(I11
I26
F1.0
S'good'
p91
I0
tp92
a(I24
I7
F-0.375
S'smaller'
p93
I0
tp94
a(I37
I48
F0.625
S'aware'
p95
I0
tp96
a(I45
I31
I0
S'blue'
p97
I0
tp98
a(I11
I26
F1.0
g91
I2
tp99
a(I45
I28
F0.125
S'first'
p100
I2
tp101
a(I45
I31
I0
g97
I2
tp102
as(S'call'
p103
S'quality'
p104
tp105
(lp106
(I2
I0
I0
S'great'
p107
I0
tp108
a(I11
I18
F-0.625
S'average'
p109
I0
tp110
a(I19
I17
I0
S'adequate'
p111
I0
tp112
as(S'front'
p113
S'facing'
p114
S'camera'
p115
tp116
(lp117
(I13
I9
F-0.5
S'weak'
p118
I0
tp119
a(I22
I9
F-0.125
S'front'
p120
I0
tp121
a(I37
I38
F-0.375
S'simple'
p122
I0
tp123
a(I22
I9
F-0.125
g120
I0
tp124
a(I29
I17
I0
S'pixel'
p125
I0
tp126
a(I2
I45
F-0.625
S'bad'
p127
I0
tp128
a(I2
I45
F-0.625
S'bad'
p129
I0
tp130
a(I8
I8
I0
S'great'
p131
I0
tp132
a(I11
I11
I0
S'rear'
p133
I0
tp134
a(I11
I11
F1.0
S'good'
p135
I0
tp136
a(I11
I11
F-0.625
S'bad'
p137
I0
tp138
a(I13
I9
F-0.5
g118
I0
tp139
a(I19
I26
F-0.875
S'awful'
p140
I0
tp141
a(I24
I33
F1.0
S'good'
p142
I0
tp143
a(I35
I2
F1.0
S'good'
p144
I0
tp145
a(I35
I2
F-0.75
S'dark'
p146
I0
tp147
a(I37
I38
F-0.375
g122
I0
tp148
a(I39
I6
I0
S'great'
p149
I0
tp150
a(I43
I14
F-0.125
S'front'
p151
I0
tp152
a(I13
I9
F-0.5
g118
I0
tp153
a(I22
I9
F-0.125
g120
I0
tp154
a(I37
I38
F-0.375
g122
I0
tp155
a(I2
I45
F-0.625
g127
I14
tp156
a(I2
I45
F-0.625
g129
I14
tp157
a(I11
I11
F1.0
g135
I14
tp158
a(I11
I11
F-0.625
g137
I14
tp159
a(I24
I33
F1.0
g142
I14
tp160
a(I29
I17
I0
g125
I14
tp161
a(I39
I6
I0
g149
I14
tp162
a(I1
I27
F-0.625
S'bad'
p163
I1
tp164
a(I7
I15
I0
S'rear'
p165
I1
tp166
a(I7
I15
F1.0
S'good'
p167
I1
tp168
a(I8
I8
I0
g131
I1
tp169
a(I11
I11
I0
g133
I1
tp170
a(I13
I9
F-0.5
g118
I1
tp171
a(I19
I24
F0.25
S'main'
p172
I1
tp173
a(I19
I26
F-0.875
g140
I1
tp174
a(I35
I2
F1.0
g144
I1
tp175
a(I35
I2
F-0.75
g146
I1
tp176
a(I37
I35
F-0.25
S'low'
p177
I1
tp178
a(I37
I37
F0.25
S'main'
p179
I1
tp180
a(I37
I38
F-0.375
g122
I1
tp181
a(I43
I14
F-0.125
g151
I1
tp182
a(I43
I37
F0.625
S'easy'
p183
I1
tp184
a(I45
I9
F1.0
S'good'
p185
I1
tp186
as(S'apps'
p187
tp188
(lp189
(I3
I18
F0.5
S'uncommon'
p190
I0
tp191
a(I3
I26
F0.125
S'able'
p192
I0
tp193
a(I3
I26
I0
S'most'
p194
I0
tp195
a(I6
I2
I0
S'android'
p196
I0
tp197
a(I7
I10
I0
S'text'
p198
I0
tp199
a(I19
I12
I0
S'many'
p200
I0
tp201
a(I24
I31
F-0.5
S'heavy'
p202
I0
tp203
a(I24
I37
F0.625
S'aware'
p204
I0
tp205
as(S'a'
p206
S'samsung'
p207
S'galaxy'
p208
tp209
(lp210
(I1
I52
F0.5
S'personal'
p211
I0
tp212
a(I4
I2
I0
S'same'
p213
I0
tp214
a(I39
I14
I0
S'faster'
p215
I0
tp216
a(I41
I1
F0.625
S'easy'
p217
I0
tp218
a(I1
I52
F0.5
g211
I0
tp219
a(I4
I2
I0
g213
I0
tp220
a(I39
I14
I0
g215
I0
tp221
a(I41
I1
F0.625
g217
I0
tp222
a(I4
I2
I0
g213
I0
tp223
a(I41
I1
F0.625
g217
I0
tp224
a(I44
I2
F-0.625
S'other'
p225
I0
tp226
a(I44
I2
F0.375
S'similar'
p227
I0
tp228
as(S'galaxy'
p229
S's'
p230
tp231
(lp232
(I4
I2
I0
g213
I0
tp233
a(I41
I1
F0.625
g217
I0
tp234
a(I44
I2
F-0.625
g225
I0
tp235
a(I44
I2
F0.375
g227
I0
tp236
as(S'sim'
p237
S'cards'
p238
tp239
(lp240
(I13
I18
I0
S'cool'
p241
I0
tp242
a(I29
I6
F0.625
S'easy'
p243
I0
tp244
a(I41
I8
I0
S'different'
p245
I0
tp246
a(I13
I18
I0
g241
I15
tp247
as(S'android'
p248
tp249
(lp250
(I31
I9
I0
S'great'
p251
I0
tp252
a(I40
I0
F0.125
S'solid'
p253
I0
tp254
a(I41
I17
I0
S'same'
p255
I0
tp256
as(S'galaxy'
p257
S's4'
p258
tp259
(lp260
(I4
I2
I0
g213
I0
tp261
as(S'storage'
p262
S'space'
p263
tp264
(lp265
(I29
I16
I0
S'more'
p266
I0
tp267
a(I47
I2
F-0.375
S'small'
p268
I0
tp269
a(I3
I37
I0
S'restrictive'
p270
I1
tp271
a(I19
I14
F0.375
S'available'
p272
I1
tp273
a(I29
I16
I0
g266
I1
tp274
a(I37
I45
I0
S'internal'
p275
I1
tp276
a(I37
I47
F-0.25
S'low'
p277
I1
tp278
a(I37
I49
I0
S'internal'
p279
I1
tp280
a(I37
I50
I0
S'internal'
p281
I1
tp282
a(I37
I50
I0
S'useful'
p283
I1
tp284
as(S'big'
p285
S'screen'
p286
tp287
(lp288
(I0
I7
F-0.75
S'brightest'
p289
I1
tp290
a(I0
I7
I0
S'most'
p291
I1
tp292
a(I0
I7
F0.125
S'colorful'
p293
I1
tp294
a(I1
I8
I0
S'big'
p295
I1
tp296
a(I1
I52
F0.25
S'bigger'
p297
I1
tp298
a(I14
I47
I0
S'big'
p299
I1
tp300
a(I14
I47
F-0.75
S'bright'
p301
I1
tp302
a(I18
I0
I0
S'big'
p303
I1
tp304
a(I22
I23
I0
S'big'
p305
I1
tp306
a(I22
I23
I0
S'such'
p307
I1
tp308
as(S'calls'
p309
tp310
(lp311
(I2
I1
F0.375
S'much'
p312
I0
tp313
a(I13
I4
F0.5
S'clear'
p314
I0
tp315
as(S'sim'
p316
S'card'
p317
tp318
(lp319
(I2
I11
I0
S'old'
p320
I0
tp321
a(I2
I11
I0
S'active'
p322
I0
tp323
a(I2
I12
I0
S'active'
p324
I0
tp325
a(I5
I0
I0
S'standard'
p326
I0
tp327
a(I15
I3
F0.25
S'read'
p328
I0
tp329
a(I24
I17
F0.625
S'easy'
p330
I0
tp331
a(I29
I6
F0.625
g243
I0
tp332
a(I36
I21
F0.5
S'careful'
p333
I0
tp334
a(I40
I16
F0.5
S'second'
p335
I0
tp336
a(I40
I51
I0
S'great'
p337
I0
tp338
a(I41
I8
I0
g245
I0
tp339
as(S'low'
p340
S'cost'
p341
tp342
(lp343
(I2
I38
F1.0
S'good'
p344
I2
tp345
a(I13
I8
F-0.25
S'low'
p346
I2
tp347
a(I13
I8
I0
S'android'
p348
I2
tp349
a(I31
I9
F-0.25
S'low'
p350
I2
tp351
as(S'speed'
p352
tp353
(lp354
(I14
I17
F1.0
S'good'
p355
I9
tp356
a(I24
I31
F0.625
S'acceptable'
p357
I9
tp358
a(I29
I18
I0
S'great'
p359
I9
tp360
as(S'micro'
p361
S'sd'
p362
S'card'
p363
tp364
(lp365
(I2
I11
I0
g322
I0
tp366
a(I37
I39
I0
S'installing'
p367
I0
tp368
a(I2
I11
I0
g322
I0
tp369
a(I3
I26
F-0.75
S'single'
p370
I0
tp371
a(I24
I17
F0.625
g330
I0
tp372
a(I37
I46
I0
S'large'
p373
I0
tp374
a(I37
I47
I0
S'external'
p375
I0
tp376
a(I37
I39
I0
g367
I0
tp377
a(I37
I39
I0
g367
I3
tp378
as(S'great'
p379
S'price'
p380
tp381
(lp382
(I2
I18
I0
S'great'
p383
I19
tp384
a(I14
I40
F0.5
S'greater'
p385
I19
tp386
a(I22
I0
F-0.25
S'low'
p387
I19
tp388
a(I35
I2
F-0.125
S'overall'
p389
I19
tp390
a(I39
I7
I0
S'great'
p391
I19
tp392
a(I40
I0
I0
S'great'
p393
I19
tp394
as(S'customer'
p395
S'service'
p396
tp397
(lp398
(I1
I20
F-0.75
S'worse'
p399
I3
tp400
a(I32
I3
I0
S'great'
p401
I3
tp402
a(I1
I20
F-0.75
g399
I16
tp403
a(I2
I1
I0
S'same'
p404
I16
tp405
a(I2
I2
I0
S'internet'
p406
I16
tp407
a(I2
I33
F1.0
S'better'
p408
I16
tp409
a(I8
I3
I0
S'great'
p410
I16
tp411
a(I10
I10
I0
S'great'
p412
I16
tp413
a(I32
I3
I0
g401
I16
tp414
a(I37
I3
F0.375
S'new'
p415
I16
tp416
as(S'internal'
p417
S'storage'
p418
tp419
(lp420
(I37
I45
I0
g275
I0
tp421
a(I37
I49
I0
g279
I0
tp422
a(I37
I50
I0
g281
I0
tp423
a(I37
I50
I0
g283
I0
tp424
as(S'amazon'
p425
tp426
(lp427
(I14
I23
I0
S'appear'
p428
I13
tp429
a(I37
I51
F1.0
S'good'
p430
I13
tp431
a(I41
I10
F0.375
S'new'
p432
I13
tp433
as.