(dp0
(S'sprint'
p1
tp2
(lp3
(I4
I11
F-0.625
S'other'
p4
I0
tp5
a(I16
I35
F1.0
S'best'
p6
I0
tp7
a(I19
I6
F-0.25
S'cheaper'
p8
I0
tp9
as(S'fingerprint'
p10
S'scanner'
p11
tp12
(lp13
(I0
I176
F-0.625
S'fingerprint'
p14
I0
tp15
a(I0
I176
F-0.5
S'sure'
p16
I0
tp17
as(S'ext'
p18
S'storage'
p19
tp20
(lp21
(I0
I47
I0
S'external'
p22
I0
tp23
as(S'galaxy'
p24
S's5'
p25
tp26
(lp27
(I0
I17
F-0.25
S'revolutionary'
p28
I0
tp29
a(I0
I17
I0
S'evolutionary'
p30
I0
tp31
a(I9
I67
F0.375
S'new'
p32
I0
tp33
a(I9
I71
I0
S'cool'
p34
I0
tp35
a(I19
I86
I0
S'plastic'
p36
I0
tp37
a(I19
I210
F0.375
S'new'
p38
I0
tp39
a(I19
I210
F0.375
S'new'
p40
I0
tp41
a(I19
I210
F0.125
S'last'
p42
I0
tp43
as(S'image'
p44
S'stabilization'
p45
tp46
(lp47
(I19
I163
I0
S'optical'
p48
I0
tp49
a(I19
I198
I0
S'optical'
p50
I0
tp51
as(S'data'
p52
tp53
(lp54
(I16
I33
I0
S'mobile'
p55
I13
tp56
a(I16
I61
I0
S'limited'
p57
I13
tp58
a(I19
I29
I0
S'most'
p59
I13
tp60
a(I19
I125
I0
S'more'
p61
I13
tp62
as(S'samsung'
p63
S'galaxy'
p64
tp65
(lp66
(I10
I9
F1.0
S'good'
p67
I0
tp68
a(I0
I214
F0.125
S'last'
p69
I7
tp70
a(I8
I14
F-0.75
S'brighter'
p71
I7
tp72
a(I9
I68
F0.5
S'loyal'
p73
I7
tp74
a(I16
I41
I0
S'earlier'
p75
I7
tp76
a(I17
I17
F0.625
S'aware'
p77
I7
tp78
a(I9
I67
F0.375
g32
I0
tp79
a(I10
I9
F1.0
g67
I0
tp80
a(I19
I210
F0.375
g38
I0
tp81
a(I19
I210
F0.375
g40
I0
tp82
as(S'water'
p83
tp84
(lp85
(I4
I18
F0.125
S'able'
p86
I6
tp87
as(S'internal'
p88
S'storage'
p89
tp90
(lp91
(I19
I53
I0
S'internal'
p92
I0
tp93
a(I19
I186
I0
S'internal'
p94
I0
tp95
a(I19
I190
I0
S'internal'
p96
I0
tp97
a(I19
I197
I0
S'internal'
p98
I0
tp99
a(I0
I47
I0
g22
I1
tp100
a(I19
I53
I0
g92
I1
tp101
a(I19
I186
I0
g94
I1
tp102
a(I19
I190
I0
g96
I1
tp103
a(I19
I197
I0
g98
I1
tp104
as(S'amazon'
p105
tp106
(lp107
(I0
I10
F-0.625
S'glad'
p108
I13
tp109
a(I4
I24
F0.625
S'easy'
p110
I13
tp111
a(I4
I24
I0
S'efficient'
p112
I13
tp113
a(I6
I7
F-0.25
S'cheaper'
p114
I13
tp115
a(I7
I5
F1.0
S'best'
p116
I13
tp117
as(S'sd'
p118
S'card'
p119
tp120
(lp121
(I4
I33
F-0.5
S'complaint'
p122
I0
tp123
a(I4
I33
F-0.75
S'minor'
p124
I0
tp125
as(S'apps'
p126
tp127
(lp128
(I4
I20
F-0.625
S'other'
p129
I0
tp130
a(I4
I31
F0.25
S'recent'
p131
I0
tp132
a(I16
I30
I0
S'multiple'
p133
I0
tp134
as(S'camera'
p135
tp136
(lp137
(I0
I48
F0.5
S'obvious'
p138
I1
tp139
a(I2
I13
I0
S'great'
p140
I1
tp141
a(I2
I14
F1.0
S'good'
p142
I1
tp143
a(I19
I148
F0.25
S'sharp'
p144
I1
tp145
a(I19
I169
F1.0
S'good'
p146
I1
tp147
a(I19
I193
F0.875
S'nice'
p148
I1
tp149
as(S'user'
p150
S'interface'
p151
tp152
(lp153
(I16
I67
F0.625
S'easy'
p154
I0
tp155
as(S'battery'
p156
S'life'
p157
tp158
(lp159
(I2
I40
I0
S'great'
p160
I1
tp161
a(I4
I12
F0.875
S'happy'
p162
I1
tp163
a(I9
I53
F-0.625
S'other'
p164
I1
tp165
a(I19
I171
I0
S'more'
p166
I19
tp167
a(I19
I171
I0
S'adequate'
p168
I19
tp169
a(I0
I19
F0.625
S'removable'
p170
I15
tp171
a(I0
I132
I0
S'more'
p172
I15
tp173
a(I2
I40
I0
g160
I15
tp174
a(I4
I12
F0.875
g162
I15
tp175
a(I9
I53
F-0.625
g164
I15
tp176
a(I16
I13
F0.625
S'removable'
p177
I15
tp178
as.