(dp0
(S'straight'
p1
S'talk'
p2
tp3
(lp4
(I2
I6
F0.625
S'straight'
p5
I0
tp6
a(I24
I9
F0.625
S'straight'
p7
I0
tp8
a(I24
I9
F0.625
S'straight'
p9
I0
tp10
a(I2
I6
F0.625
g5
I13
tp11
a(I24
I9
F0.625
g7
I13
tp12
a(I24
I9
F0.625
g9
I13
tp13
as(S'data'
p14
tp15
(lp16
(I2
I22
F0.375
S'much'
p17
I13
tp18
as(S'magic'
p19
S'jack'
p20
tp21
(lp22
(I4
I26
F0.25
S'used'
p23
I0
tp24
a(I4
I26
F0.125
S'magic'
p25
I0
tp26
a(I4
I26
F-0.625
S'free'
p27
I0
tp28
a(I4
I41
F0.125
S'magic'
p29
I0
tp30
as(S'sim'
p31
S'card'
p32
tp33
(lp34
(I24
I5
I0
S'very'
p35
I0
tp36
a(I24
I5
I0
S'same'
p37
I0
tp38
as(S'gel'
p39
S'case'
p40
tp41
(lp42
(I2
I4
F0.5
S'clear'
p43
I0
tp44
a(I10
I12
F-0.75
S'dirty'
p45
I0
tp46
as(S'blu'
p47
S'studio'
p48
tp49
(lp50
(I1
I8
F0.125
S'last'
p51
I0
tp52
a(I1
I8
F0.125
g51
I2
tp53
as(S'total'
p54
S'cost'
p55
tp56
(lp57
(I4
I41
I0
S'total'
p58
I1
tp59
as(S'galaxy'
p60
tp61
(lp62
(I6
I4
F0.25
S'stellar'
p63
I0
tp64
a(I14
I8
F1.0
S'good'
p65
I0
tp66
as(S'screen'
p67
S'protector'
p68
tp69
(lp70
(I23
I24
F0.375
S'extra'
p71
I4
tp72
as(S'quad'
p73
S'core'
p74
tp75
(lp76
(I4
I13
I0
S'full'
p77
I0
tp78
as(S'apps'
p79
tp80
(lp81
(I2
I15
F0.875
S'music'
p82
I0
tp83
a(I4
I36
I0
S'many'
p84
I0
tp85
a(I5
I11
I0
S'most'
p86
I0
tp87
a(I22
I7
I0
S'many'
p88
I0
tp89
a(I22
I7
I0
S'more'
p90
I0
tp91
a(I24
I25
I0
S'many'
p92
I0
tp93
a(I24
I25
I0
S'more'
p94
I0
tp95
as(S'rear'
p96
S'camera'
p97
tp98
(lp99
(I3
I16
I0
S'rear'
p100
I0
tp101
a(I8
I1
I0
S'rear'
p102
I0
tp103
a(I10
I9
I0
S'rear'
p104
I0
tp105
a(I20
I18
I0
S'rear'
p106
I0
tp107
a(I1
I5
F1.0
S'good'
p108
I1
tp109
a(I1
I7
I0
S'slowest'
p110
I1
tp111
a(I1
I7
F1.0
S'good'
p112
I1
tp113
a(I3
I16
I0
g100
I1
tp114
a(I6
I3
I0
S'fast'
p115
I1
tp116
a(I8
I1
I0
g102
I1
tp117
a(I10
I9
I0
g104
I1
tp118
a(I12
I28
I0
S'great'
p119
I1
tp120
a(I12
I41
I0
S'many'
p121
I1
tp122
a(I12
I41
F1.0
S'good'
p123
I1
tp124
a(I13
I0
F-0.625
S'clean'
p125
I1
tp126
a(I20
I18
I0
g106
I1
tp127
a(I23
I1
F0.5
S'clear'
p128
I1
tp129
a(I24
I24
F0.625
S'decent'
p130
I1
tp131
as(S'internal'
p132
S'memory'
p133
tp134
(lp135
(I5
I13
I0
S'wish'
p136
I0
tp137
a(I5
I13
I0
S'more'
p138
I0
tp139
a(I5
I13
I0
S'internal'
p140
I0
tp141
a(I5
I13
F-0.625
S'other'
p142
I0
tp143
a(I22
I7
I0
S'internal'
p144
I0
tp145
a(I23
I22
I0
S'internal'
p146
I0
tp147
a(I2
I15
F-0.5
S'sure'
p148
I5
tp149
a(I2
I15
I0
S'least'
p150
I5
tp151
a(I5
I13
I0
g136
I5
tp152
a(I5
I13
I0
g138
I5
tp153
a(I5
I13
I0
g140
I5
tp154
a(I5
I13
F-0.625
g142
I5
tp155
a(I22
I7
I0
g144
I5
tp156
a(I23
I22
I0
g146
I5
tp157
as(S'sd'
p158
S'card'
p159
tp160
(lp161
(I1
I7
I0
S'least'
p162
I0
tp163
a(I4
I36
I0
S'external'
p164
I0
tp165
a(I4
I36
I0
S'external'
p166
I0
tp167
as(S'front'
p168
tp169
(lp170
(I6
I14
F-0.625
S'other'
p171
I14
tp172
as(S'back'
p173
S'button'
p174
tp175
(lp176
(I1
I20
F-0.75
S'unresponsive'
p177
I0
tp178
a(I1
I21
F0.875
S'important'
p179
I0
tp180
a(I1
I21
F0.875
g179
I19
tp181
a(I6
I6
F0.625
S'add'
p182
I19
tp183
as.