(dp0
(S'screen'
p1
S'size'
p2
tp3
(lp4
(I0
I19
F0.5
S'obvious'
p5
I3
tp6
a(I6
I24
I0
S'unsure'
p7
I3
tp8
a(I6
I27
I0
S'limited'
p9
I3
tp10
a(I8
I95
F0.25
S'larger'
p11
I3
tp12
a(I11
I58
F-0.625
S'other'
p13
I3
tp14
a(I11
I58
I0
S'fast'
p15
I3
tp16
a(I11
I58
F0.875
S'nice'
p17
I3
tp18
as(S'battery'
p19
S'life'
p20
tp21
(lp22
(I0
I71
I0
S'prolong'
p23
I1
tp24
a(I0
I80
F1.0
S'good'
p25
I1
tp26
a(I0
I89
F1.0
S'good'
p27
I1
tp28
a(I0
I89
F0.375
S'extra'
p29
I1
tp30
a(I6
I165
I0
S'quick'
p31
I1
tp32
a(I6
I165
F1.0
S'good'
p33
I1
tp34
a(I8
I100
F0.625
S'decent'
p35
I1
tp36
a(I9
I32
F1.0
S'good'
p37
I1
tp38
a(I9
I32
I0
S'fast'
p39
I1
tp40
a(I10
I154
I0
S'great'
p41
I1
tp42
a(I0
I89
F1.0
g27
I19
tp43
a(I6
I165
F1.0
g33
I19
tp44
a(I8
I100
F0.625
g35
I19
tp45
a(I9
I32
F1.0
g37
I19
tp46
a(I0
I41
F0.625
S'removable'
p47
I15
tp48
a(I0
I71
I0
g23
I15
tp49
a(I0
I80
F1.0
g25
I15
tp50
a(I0
I87
F0.625
S'removable'
p51
I15
tp52
a(I0
I89
F0.375
g29
I15
tp53
a(I3
I29
F0.125
S'last'
p54
I15
tp55
a(I6
I165
I0
g31
I15
tp56
a(I8
I131
I0
S'own'
p57
I15
tp58
a(I9
I32
I0
g39
I15
tp59
a(I10
I67
F0.625
S'removable'
p60
I15
tp61
a(I10
I154
I0
g41
I15
tp62
a(I11
I48
F0.25
S'portable'
p63
I15
tp64
a(I11
I51
I0
S'external'
p65
I15
tp66
as(S'keyboard'
p67
tp68
(lp69
(I0
I24
F0.25
S'main'
p70
I2
tp71
a(I8
I65
I0
S'physical'
p72
I2
tp73
a(I9
I17
I0
S'physical'
p74
I2
tp75
a(I9
I19
I0
S'old'
p76
I2
tp77
a(I9
I19
I0
S'physical'
p78
I2
tp79
a(I9
I120
F1.0
S'best'
p80
I2
tp81
as(S'samsung'
p82
tp83
(lp84
(I3
I62
F0.125
S'charger'
p85
I7
tp86
a(I6
I39
F1.0
S'best'
p87
I7
tp88
a(I6
I64
I0
S'older'
p89
I7
tp90
a(I8
I144
F0.625
S'aware'
p91
I7
tp92
a(I9
I171
F0.625
S'hold'
p93
I7
tp94
a(I10
I64
I0
S'great'
p95
I7
tp96
as(S'camera'
p97
tp98
(lp99
(I0
I80
I0
S'great'
p100
I1
tp101
a(I2
I16
F0.875
S'nice'
p102
I1
tp103
a(I6
I94
I-100
S'non-professional'
p104
I1
tp105
a(I6
I94
F0.125
S'digital'
p106
I1
tp107
a(I9
I85
F-0.625
S'bad'
p108
I1
tp109
a(I9
I149
F1.0
S'good'
p110
I1
tp111
a(I10
I53
I0
S'useful'
p112
I1
tp113
a(I10
I54
F0.875
S'important'
p114
I1
tp115
a(I10
I67
F0.625
S'superior'
p116
I1
tp117
a(I10
I120
F0.75
S'beautiful'
p118
I1
tp119
a(I10
I147
F0.625
S'convenient'
p120
I1
tp121
a(I11
I8
I0
S'great'
p122
I1
tp123
as(S'iphone'
p124
tp125
(lp126
(I0
I10
F0.5
S'second'
p127
I1
tp128
a(I0
I27
F0.125
S'able'
p129
I1
tp130
a(I3
I8
F0.625
S'convenient'
p131
I1
tp132
a(I6
I12
F0.375
S'honest'
p133
I1
tp134
a(I8
I20
F0.125
S'last'
p135
I1
tp136
a(I8
I88
F0.25
S'larger'
p137
I1
tp138
a(I9
I3
I0
S'more'
p139
I1
tp140
as(S'fingerprint'
p141
S'scanner'
p142
tp143
(lp144
(I9
I13
F-0.25
S'potential'
p145
I0
tp146
a(I9
I72
F1.0
S'good'
p147
I0
tp148
a(I8
I114
I0
S'active'
p149
I0
tp150
a(I9
I13
F-0.25
g145
I0
tp151
a(I9
I72
F1.0
g147
I0
tp152
as(S'galaxy'
p153
S's5'
p154
tp155
(lp156
(I0
I20
F0.625
S'superior'
p157
I0
tp158
a(I6
I65
F0.375
S'new'
p159
I0
tp160
a(I6
I68
F0.375
S'new'
p161
I0
tp162
a(I9
I180
F0.125
S'last'
p163
I0
tp164
a(I0
I20
F0.625
g157
I0
tp165
a(I6
I65
F0.375
g159
I0
tp166
a(I6
I68
F0.375
g161
I0
tp167
a(I6
I118
I0
S'old'
p168
I0
tp169
a(I8
I13
F0.375
S'new'
p170
I0
tp171
as(S'ultra'
p172
S'power'
p173
S'saving'
p174
tp175
(lp176
(I10
I132
F0.625
S'necessary'
p177
I0
tp178
a(I10
I132
F0.625
g177
I0
tp179
as(S'apple'
p180
tp181
(lp182
(I8
I20
I0
S'annual'
p183
I4
tp184
a(I9
I157
I0
S'angry'
p185
I4
tp186
as(S'power'
p187
S'saving'
p188
S'mode'
p189
tp190
(lp191
(I10
I132
F0.625
g177
I0
tp192
a(I10
I132
F0.625
g177
I0
tp193
as(S'water'
p194
S'resistance'
p195
tp196
(lp197
(I8
I128
F-0.375
S'dust'
p198
I0
tp199
a(I9
I42
F0.75
S'due'
p200
I6
tp201
as(S'rate'
p202
S'monitor'
p203
tp204
(lp205
(I9
I67
F-0.625
S'quiet'
p206
I0
tp207
as(S'upgrade'
p208
tp209
(lp210
(I3
I44
F1.0
S'good'
p211
I3
tp212
a(I4
I6
I0
S'great'
p213
I3
tp214
a(I4
I8
F0.375
S'available'
p215
I3
tp216
a(I6
I36
I0
S'great'
p217
I3
tp218
a(I6
I130
F0.75
S'worth'
p219
I3
tp220
as(S'wireless'
p221
S'charging'
p222
tp223
(lp224
(I3
I8
F0.625
S'replaceable'
p225
I0
tp226
a(I3
I8
F0.625
g225
I0
tp227
a(I3
I17
I0
S'current'
p228
I0
tp229
a(I9
I39
F0.25
S'inductive'
p230
I12
tp231
a(I9
I50
F0.25
S'inductive'
p232
I12
tp233
as(S'smart'
p234
tp235
(lp236
(I0
I9
F-0.625
S'other'
p237
I10
tp238
a(I7
I2
F0.625
S'easy'
p239
I10
tp240
a(I10
I147
F-0.25
S'modern'
p241
I10
tp242
as(S'washing'
p243
S'machine'
p244
tp245
(lp246
(I10
I147
F-0.375
S'tumble'
p247
I0
tp248
as(S'ultra-power'
p249
S'saving'
p250
tp251
(lp252
(I10
I132
F0.625
g177
I0
tp253
as(S'black'
p254
tp255
(lp256
(I10
I65
F0.5
S'true'
p257
I19
tp258
as(S'droid'
p259
S'bionic'
p260
tp261
(lp262
(I9
I32
I0
S'old'
p263
I0
tp264
a(I10
I56
I0
S'bionic'
p265
I0
tp266
a(I6
I119
F0.25
S'original'
p267
I0
tp268
a(I8
I112
I0
S'old'
p269
I0
tp270
a(I9
I18
F0.5
S'possible'
p271
I0
tp272
a(I9
I32
I0
g263
I0
tp273
a(I10
I56
I0
g265
I0
tp274
as(S'speed'
p275
tp276
(lp277
(I6
I100
I0
S'fastest'
p278
I9
tp279
as(S'apps'
p280
tp281
(lp282
(I0
I36
F0.25
S'favorite'
p283
I0
tp284
a(I0
I48
F-0.375
S'disable'
p285
I0
tp286
a(I8
I53
F0.5
S'crucial'
p287
I0
tp288
a(I10
I9
F-0.5
S'certain'
p289
I0
tp290
a(I10
I9
F-0.625
S'other'
p291
I0
tp292
a(I10
I20
I0
S'many'
p293
I0
tp294
a(I10
I68
I0
S'unnecessary'
p295
I0
tp296
as.