(dp0
(S'battery'
p1
S'life'
p2
tp3
(lp4
(I1
I121
F-0.25
S'battery'
p5
I1
tp6
a(I1
I141
I0
S'great'
p7
I1
tp8
a(I6
I8
I0
S'fast'
p9
I1
tp10
a(I6
I8
F0.125
S'solid'
p11
I1
tp12
a(I6
I8
F0.75
S'beautiful'
p13
I1
tp14
a(I18
I10
F0.125
S'impressive'
p15
I1
tp16
a(I20
I10
F-0.625
S'average'
p17
I1
tp18
a(I1
I121
F-0.25
g5
I19
tp19
a(I6
I8
I0
g9
I19
tp20
a(I6
I8
F0.125
g11
I19
tp21
a(I6
I8
F0.75
g13
I19
tp22
a(I18
I10
F0.125
g15
I19
tp23
a(I23
I35
I0
S'real'
p24
I19
tp25
a(I1
I141
I0
g7
I15
tp26
a(I1
I223
F0.375
S'much'
p27
I15
tp28
a(I10
I69
I0
S'great'
p29
I15
tp30
a(I12
I62
F0.375
S'much'
p31
I15
tp32
a(I20
I10
F-0.625
g17
I15
tp33
a(I24
I43
I0
S'great'
p34
I15
tp35
a(I28
I14
F0.625
S'removable'
p36
I15
tp37
a(I30
I37
F-0.25
S'lower'
p38
I15
tp39
a(I30
I37
I0
S'same'
p40
I15
tp41
a(I30
I47
F-0.25
S'low'
p42
I15
tp43
a(I30
I47
F-0.625
S'green'
p44
I15
tp45
as(S'sense'
p46
tp47
(lp48
(I1
I105
F0.625
S'safe'
p49
I8
tp50
a(I23
I27
F0.375
S'new'
p51
I8
tp52
a(I23
I27
F0.625
S'kind'
p53
I8
tp54
a(I24
I21
F1.0
S'good'
p55
I8
tp56
a(I29
I3
F-0.625
S'light'
p57
I8
tp58
as(S'power'
p59
S'button'
p60
tp61
(lp62
(I10
I28
F0.875
S'happy'
p63
I0
tp64
a(I30
I19
F-0.375
S'top'
p65
I0
tp66
a(I30
I19
F-0.375
g65
I19
tp67
as(S'deal'
p68
S'breaker'
p69
tp70
(lp71
(I17
I20
F0.5
S'absolute'
p72
I0
tp73
as(S'nexus'
p74
tp75
(lp76
(I22
I9
F0.375
S'available'
p77
I0
tp78
as(S'samsung'
p79
tp80
(lp81
(I10
I42
F0.25
S'used'
p82
I7
tp83
as(S'camera'
p84
tp85
(lp86
(I0
I9
I0
S'many'
p87
I1
tp88
a(I1
I116
F-0.5
S'actual'
p89
I1
tp90
a(I1
I119
F-0.125
S'overall'
p91
I1
tp92
a(I1
I119
F1.0
S'best'
p93
I1
tp94
a(I1
I144
F1.0
S'good'
p95
I1
tp96
a(I1
I188
F0.25
S'main'
p97
I1
tp98
a(I1
I188
F-0.5
S'less'
p99
I1
tp100
a(I1
I188
I0
S'same'
p101
I1
tp102
a(I6
I6
F0.875
S'nice'
p103
I1
tp104
a(I10
I62
F-0.625
S'other'
p105
I1
tp106
a(I12
I55
F0.5
S'second'
p107
I1
tp108
a(I15
I35
F1.0
S'good'
p109
I1
tp110
a(I16
I0
F-0.625
S'bad'
p111
I1
tp112
a(I16
I13
I0
S'big'
p113
I1
tp114
a(I16
I13
I0
S'fanatic'
p115
I1
tp116
a(I18
I2
F1.0
S'better'
p117
I1
tp118
a(I18
I45
I0
S'fast'
p119
I1
tp120
a(I19
I8
F1.0
S'best'
p121
I1
tp122
a(I21
I19
I0
S'great'
p123
I1
tp124
a(I22
I22
F0.25
S'main'
p125
I1
tp126
a(I23
I34
F-0.75
S'hate'
p127
I1
tp128
a(I24
I4
I0
S'great'
p129
I1
tp130
a(I28
I11
F1.0
S'good'
p131
I1
tp132
a(I28
I11
I0
S'great'
p133
I1
tp134
a(I28
I14
F1.0
S'better'
p135
I1
tp136
a(I28
I29
I0
S'incredible'
p137
I1
tp138
a(I30
I12
I0
S'rear'
p139
I1
tp140
a(I30
I12
F1.0
S'better'
p141
I1
tp142
a(I30
I27
F1.0
S'better'
p143
I1
tp144
a(I30
I27
F0.5
S'true'
p145
I1
tp146
as(S'play'
p147
S'edition'
p148
tp149
(lp150
(I22
I9
F-0.25
S'google'
p151
I0
tp152
as(S'iphone'
p153
tp154
(lp155
(I12
I32
I0
S'old'
p156
I1
tp157
a(I24
I11
F0.25
S'original'
p158
I1
tp159
a(I30
I56
I0
S'faster'
p160
I1
tp161
a(I30
I56
I0
S'more'
p162
I1
tp163
a(I31
I6
I0
S'big'
p164
I1
tp165
as(S'high'
p166
S'end'
p167
tp168
(lp169
(I16
I4
I0
S'high'
p170
I0
tp171
a(I28
I0
I0
S'high'
p172
I0
tp173
a(I28
I47
I0
S'high'
p174
I0
tp175
as(S'build'
p176
S'quality'
p177
tp178
(lp179
(I8
I1
F1.0
S'best'
p180
I2
tp181
a(I19
I9
F0.5
S'comparable'
p182
I2
tp183
a(I22
I1
F0.625
S'superior'
p184
I2
tp185
as(S'galaxy'
p186
tp187
(lp188
(I1
I23
F0.125
S'last'
p189
I0
tp190
a(I1
I169
F-0.5
S'flimsy'
p191
I0
tp192
a(I1
I169
F-0.625
S'other'
p193
I0
tp194
a(I1
I230
I0
S'own'
p195
I0
tp196
a(I28
I9
F0.125
S'able'
p197
I0
tp198
a(I28
I9
F0.375
S'new'
p199
I0
tp200
as(S'direct'
p201
S'sunlight'
p202
tp203
(lp204
(I10
I47
F-0.25
S'direct'
p205
I0
tp206
a(I21
I12
F-0.25
S'direct'
p207
I0
tp208
a(I30
I21
F-0.25
S'direct'
p209
I0
tp210
as(S'one'
p211
S'm8'
p212
tp213
(lp214
(I1
I89
I0
S'such'
p215
I0
tp216
a(I1
I247
F-0.375
S'serious'
p217
I0
tp218
a(I3
I9
F0.75
S'beautiful'
p219
I0
tp220
a(I6
I23
F-0.125
S'overall'
p221
I0
tp222
a(I12
I0
F0.375
S'new'
p223
I0
tp224
a(I14
I0
F-0.625
S'bad'
p225
I0
tp226
a(I24
I18
F1.0
S'best'
p227
I0
tp228
a(I27
I27
F0.75
S'beautiful'
p229
I0
tp230
a(I31
I4
F0.5
S'comparable'
p231
I0
tp232
as(S'usage'
p233
tp234
(lp235
(I12
I62
F-0.5
S'heavy'
p236
I1
tp237
a(I20
I11
I0
S'same'
p238
I1
tp239
a(I20
I15
F0.25
S'intelligent'
p240
I1
tp241
a(I30
I32
F-0.375
S'daily'
p242
I1
tp243
a(I30
I36
F-0.5
S'heavy'
p244
I1
tp245
as(S'front'
p246
S'facing'
p247
S'speakers'
p248
tp249
(lp250
(I12
I2
F-0.125
S'front'
p251
I0
tp252
a(I22
I4
F1.0
S'best'
p253
I0
tp254
a(I12
I2
F-0.125
g251
I0
tp255
a(I0
I19
I0
S'great'
p256
I2
tp257
a(I1
I243
F0.125
S'impressive'
p258
I2
tp259
a(I6
I12
F0.625
S'fair'
p260
I2
tp261
a(I10
I71
F1.0
S'best'
p262
I2
tp263
a(I10
I72
I0
S'crisp'
p264
I2
tp265
a(I10
I77
F0.375
S'loud'
p266
I2
tp267
a(I22
I4
F1.0
g253
I2
tp268
a(I24
I32
I0
S'only'
p269
I2
tp270
a(I24
I32
F-0.375
S'small'
p271
I2
tp272
a(I24
I32
I0
S'tinny'
p273
I2
tp274
a(I24
I43
I0
S'great'
p275
I2
tp276
as(S'audio'
p277
tp278
(lp279
(I1
I248
I0
S'great'
p280
I2
tp281
a(I6
I2
I0
S'fast'
p282
I2
tp283
a(I30
I29
F-0.375
S'serious'
p284
I2
tp285
as(S'button'
p286
S'placement'
p287
tp288
(lp289
(I1
I94
F0.625
S'logical'
p290
I0
tp291
a(I1
I94
F-0.75
S'comfortable'
p292
I0
tp293
a(I10
I28
F-0.375
S'top'
p294
I0
tp295
as(S'stock'
p296
S'android'
p297
tp298
(lp299
(I1
I106
F0.375
S'much'
p300
I0
tp301
a(I22
I9
F-0.625
S'cleanest'
p302
I0
tp303
a(I22
I9
I0
S'most'
p304
I0
tp305
a(I1
I9
F1.0
S'better'
p306
I0
tp307
a(I1
I84
F1.0
S'best'
p308
I0
tp309
a(I1
I145
I0
S'traditional'
p310
I0
tp311
a(I1
I202
I0
S'latest'
p312
I0
tp313
a(I1
I223
F0.5
S'whole'
p314
I0
tp315
a(I10
I19
F0.375
S'new'
p316
I0
tp317
a(I10
I59
F0.25
S'familiar'
p318
I0
tp319
a(I19
I9
F0.25
S'powerful'
p320
I0
tp321
a(I22
I0
F1.0
S'best'
p322
I0
tp323
a(I22
I9
F-0.625
g302
I0
tp324
a(I22
I9
I0
g304
I0
tp325
a(I23
I13
F0.125
S'typical'
p326
I0
tp327
a(I23
I27
F0.375
S'newest'
p328
I0
tp329
a(I23
I28
F0.375
S'new'
p330
I0
tp331
a(I28
I29
I0
S'latest'
p332
I0
tp333
as(S'previous'
p334
S'track'
p335
tp336
(lp337
(I1
I103
I0
S'next'
p338
I0
tp339
as(S'aluminum'
p340
S'body'
p341
tp342
(lp343
(I1
I166
I0
S'brushed'
p344
I0
tp345
as(S'apps'
p346
tp347
(lp348
(I1
I85
F-0.625
S'other'
p349
I0
tp350
a(I1
I172
F-0.25
S'myriad'
p351
I0
tp352
a(I17
I8
F-0.25
S'google'
p353
I0
tp354
a(I30
I38
I0
S'later'
p355
I0
tp356
as(S'feels'
p357
tp358
(lp359
(I10
I50
F1.0
S'good'
p360
I14
tp361
a(I10
I50
F-0.75
S'comfortable'
p362
I14
tp363
a(I21
I17
F-0.5
S'less'
p364
I14
tp365
a(I21
I17
I0
S'slippery'
p366
I14
tp367
a(I23
I26
F1.0
S'good'
p368
I14
tp369
as(S'play'
p370
S'store'
p371
tp372
(lp373
(I30
I44
I0
S'more'
p374
I0
tp375
as(S'sound'
p376
S'quality'
p377
tp378
(lp379
(I1
I23
F1.0
S'good'
p380
I0
tp381
a(I3
I22
I0
S'android'
p382
I0
tp383
a(I15
I33
I0
S'high'
p384
I0
tp385
a(I27
I10
F0.375
S'similar'
p386
I0
tp387
a(I2
I7
I0
S'great'
p388
I7
tp389
a(I12
I57
F0.5
S'clear'
p390
I7
tp391
as(S'one'
p392
S'thing'
p393
tp394
(lp395
(I1
I182
F0.125
S'last'
p396
I2
tp397
a(I12
I35
F1.0
S'good'
p398
I2
tp399
a(I14
I1
I0
S'only'
p400
I2
tp401
a(I21
I5
F0.5
S'clear'
p402
I2
tp403
a(I22
I1
F0.625
S'noticeable'
p404
I2
tp405
a(I22
I26
I0
S'only'
p406
I2
tp407
a(I30
I41
F1.0
S'good'
p408
I2
tp409
as.