(dp0
(S'battery'
p1
S'life'
p2
tp3
(lp4
(I6
I20
F1.0
S'good'
p5
I1
tp6
a(I8
I16
F1.0
S'good'
p7
I1
tp8
a(I8
I23
F-0.75
S'short'
p9
I1
tp10
a(I15
I3
F0.5
S'absolute'
p11
I1
tp12
a(I15
I3
F1.0
S'best'
p13
I1
tp14
a(I15
I8
F-0.5
S'long'
p15
I1
tp16
a(I15
I47
F-0.375
S'simple'
p17
I1
tp18
a(I15
I48
I0
S'great'
p19
I1
tp20
a(I18
I9
F1.0
S'good'
p21
I1
tp22
a(I27
I46
F-0.5
S'long'
p23
I1
tp24
a(I27
I53
I0
S'great'
p25
I1
tp26
a(I6
I20
F1.0
g5
I19
tp27
a(I8
I16
F1.0
g7
I19
tp28
a(I15
I47
F-0.375
g17
I19
tp29
a(I18
I9
F1.0
g21
I19
tp30
a(I1
I11
I0
S'same'
p31
I15
tp32
a(I6
I24
F1.0
S'good'
p33
I15
tp34
a(I6
I26
I0
S'internal'
p35
I15
tp36
a(I8
I0
I0
S'fast'
p37
I15
tp38
a(I8
I23
F-0.75
g9
I15
tp39
a(I15
I3
F0.5
g11
I15
tp40
a(I15
I3
F1.0
g13
I15
tp41
a(I15
I4
F0.125
S'last'
p42
I15
tp43
a(I15
I8
F-0.5
g15
I15
tp44
a(I15
I48
I0
g19
I15
tp45
a(I27
I46
F-0.5
g23
I15
tp46
a(I27
I50
F0.75
S'due'
p47
I15
tp48
a(I27
I53
I0
g25
I15
tp49
a(I28
I0
F0.375
S'much'
p50
I15
tp51
as(S'latest'
p52
S'version'
p53
tp54
(lp55
(I4
I12
I0
S'latest'
p56
I0
tp57
a(I5
I1
I0
S'latest'
p58
I0
tp59
a(I27
I6
I0
S'latest'
p60
I0
tp61
a(I27
I6
I0
S'android'
p62
I0
tp63
as(S'motorola'
p64
tp65
(lp66
(I4
I51
F0.125
S'first'
p67
I0
tp68
a(I6
I1
I0
S'old'
p69
I0
tp70
a(I19
I25
I0
S'old'
p71
I0
tp72
as(S'micro'
p73
S'sd'
p74
tp75
(lp76
(I4
I39
I0
S'gig'
p77
I0
tp78
a(I15
I27
I0
S'external'
p79
I0
tp80
a(I4
I39
I0
g77
I3
tp81
as(S'moto'
p82
S'g'
p83
tp84
(lp85
(I0
I2
F-0.625
S'surprising'
p86
I0
tp87
a(I0
I13
F-0.125
S'overall'
p88
I0
tp89
a(I4
I8
F0.375
S'new'
p90
I0
tp91
a(I4
I75
F-0.75
S'wrong'
p92
I0
tp93
a(I5
I0
F0.875
S'happy'
p94
I0
tp95
a(I8
I21
I0
S'more'
p96
I0
tp97
a(I29
I0
F1.0
S'better'
p98
I0
tp99
a(I29
I1
F0.25
S'bigger'
p100
I0
tp101
a(I29
I1
I0
S'faster'
p102
I0
tp103
a(I29
I1
F-0.25
S'cheaper'
p104
I0
tp105
a(I0
I2
F-0.625
g86
I1
tp106
a(I0
I13
F-0.125
g88
I1
tp107
a(I4
I8
F0.375
g90
I1
tp108
a(I4
I75
F-0.75
g92
I1
tp109
a(I5
I0
F0.875
g94
I1
tp110
a(I8
I21
I0
g96
I1
tp111
a(I18
I2
F0.375
S'new'
p112
I1
tp113
a(I18
I16
I0
S'old'
p114
I1
tp115
a(I29
I0
F1.0
g98
I1
tp116
as(S'overall'
p117
tp118
(lp119
(I3
I9
F0.25
S'responsive'
p120
I12
tp121
as(S'front'
p122
S'facing'
p123
S'camera'
p124
tp125
(lp126
(I4
I42
F-0.125
S'front'
p127
I0
tp128
a(I8
I18
I0
S'rear'
p129
I0
tp130
a(I4
I42
F-0.125
g127
I0
tp131
a(I8
I18
I0
g129
I0
tp132
a(I4
I42
F-0.125
g127
I0
tp133
a(I8
I18
I0
g129
I0
tp134
a(I23
I1
I0
S'rear'
p135
I0
tp136
a(I4
I42
F-0.125
g127
I2
tp137
a(I8
I18
I0
g129
I2
tp138
a(I23
I1
I0
g135
I2
tp139
a(I1
I26
F-0.625
S'bad'
p140
I1
tp141
a(I1
I32
I0
S'basic'
p142
I1
tp143
a(I4
I1
F1.0
S'better'
p144
I1
tp145
a(I4
I90
I0
S'only'
p146
I1
tp147
a(I4
I90
F-0.875
S'negative'
p148
I1
tp149
a(I6
I10
I0
S'rear'
p150
I1
tp151
a(I8
I19
F0.875
S'important'
p152
I1
tp153
a(I15
I39
F-0.5
S'regular'
p154
I1
tp155
a(I15
I40
I0
S'more'
p156
I1
tp157
a(I15
I40
F-0.375
S'serious'
p158
I1
tp159
a(I15
I78
F1.0
S'better'
p160
I1
tp161
a(I16
I33
I0
S'rear'
p162
I1
tp163
a(I27
I53
I0
S'autofocus'
p164
I1
tp165
a(I27
I66
F-0.625
S'bad'
p166
I1
tp167
as(S'high'
p168
S'end'
p169
tp170
(lp171
(I4
I92
I0
S'high'
p172
I0
tp173
a(I4
I92
I0
S'high'
p174
I0
tp175
a(I27
I66
I0
S'high'
p176
I0
tp177
as(S'build'
p178
S'quality'
p179
tp180
(lp181
(I1
I23
F1.0
S'good'
p182
I2
tp183
a(I16
I14
F1.0
S'good'
p184
I2
tp185
a(I21
I1
F1.0
S'good'
p186
I2
tp187
as(S'google'
p188
tp189
(lp190
(I8
I15
F-0.25
S'google'
p191
I4
tp192
as(S'flash'
p193
tp194
(lp195
(I15
I43
F0.5
S'drive'
p196
I2
tp197
as(S'wifi'
p198
tp199
(lp200
(I4
I56
I0
S'internet'
p201
I0
tp202
a(I15
I21
F0.5
S'strongest'
p203
I0
tp204
a(I18
I11
F0.625
S'easy'
p205
I0
tp206
a(I27
I53
F1.0
S'good'
p207
I0
tp208
as(S'sd'
p209
S'card'
p210
tp211
(lp212
(I0
I30
I0
S'external'
p213
I0
tp214
a(I15
I27
I0
g79
I0
tp215
a(I15
I28
F-0.25
S'higher'
p216
I0
tp217
a(I15
I33
F0.875
S'music'
p218
I0
tp219
a(I15
I33
I0
S'external'
p220
I0
tp221
a(I15
I35
I0
S'external'
p222
I0
tp223
a(I23
I1
F0.25
S'larger'
p224
I0
tp225
a(I23
I1
I0
S'internal'
p226
I0
tp227
a(I23
I1
I0
S'great'
p228
I0
tp229
as(S'android'
p230
tp231
(lp232
(I0
I2
F1.0
S'good'
p233
I0
tp234
a(I1
I24
F-0.625
S'other'
p235
I0
tp236
a(I1
I38
I0
S'current'
p237
I0
tp238
a(I4
I0
I0
S'great'
p239
I0
tp240
a(I4
I11
F-0.75
S'painful'
p241
I0
tp242
a(I15
I16
F0.625
S'straight'
p243
I0
tp244
a(I16
I14
I0
S'immediate'
p245
I0
tp246
a(I19
I21
I0
S'basic'
p247
I0
tp248
as(S'feels'
p249
tp250
(lp251
(I18
I28
I0
S'great'
p252
I14
tp253
as(S'sim'
p254
S'card'
p255
tp256
(lp257
(I0
I43
I0
S'standard'
p258
I0
tp259
as(S'low'
p260
S'cost'
p261
tp262
(lp263
(I1
I39
F0.25
S'effective'
p264
I2
tp265
a(I15
I48
F0.625
S'easy'
p266
I2
tp267
a(I15
I48
F-0.25
S'low'
p268
I2
tp269
a(I18
I18
F-0.25
S'low'
p270
I2
tp271
a(I20
I0
F-0.25
S'low'
p272
I2
tp273
a(I20
I0
I0
S'great'
p274
I2
tp275
as(S'much'
p276
S'better'
p277
tp278
(lp279
(I18
I16
F0.375
S'much'
p280
I9
tp281
a(I19
I16
F0.375
S'much'
p282
I9
tp283
as(S'smartphone'
p284
tp285
(lp286
(I0
I3
F0.5
S'functional'
p287
I0
tp288
a(I0
I53
I0
S'adequate'
p289
I0
tp290
a(I0
I53
F0.125
S'first'
p291
I0
tp292
a(I4
I3
F0.875
S'nice'
p293
I0
tp294
a(I4
I83
I0
S'basic'
p295
I0
tp296
a(I4
I85
F0.125
S'first'
p297
I0
tp298
a(I8
I14
F0.125
S'typical'
p299
I0
tp300
a(I12
I1
F-0.25
S'modern'
p301
I0
tp302
a(I13
I0
F0.375
S'new'
p303
I0
tp304
a(I16
I25
F0.5
S'functional'
p305
I0
tp306
a(I22
I4
F-0.25
S'inexpensive'
p307
I0
tp308
a(I29
I5
F0.125
S'first'
p309
I0
tp310
as(S'internal'
p311
S'storage'
p312
tp313
(lp314
(I0
I28
I0
S'internal'
p315
I0
tp316
a(I4
I41
I0
S'external'
p317
I0
tp318
a(I4
I41
I0
S'internal'
p319
I0
tp320
a(I4
I41
F0.125
S'able'
p321
I0
tp322
a(I4
I81
I0
S'internal'
p323
I0
tp324
a(I4
I81
F0.375
S'much'
p325
I0
tp326
a(I16
I30
I0
S'internal'
p327
I0
tp328
a(I18
I31
I0
S'internal'
p329
I0
tp330
a(I27
I30
I0
S'internal'
p331
I0
tp332
a(I27
I67
F-0.375
S'small'
p333
I0
tp334
a(I0
I28
I0
g315
I1
tp335
a(I0
I31
I0
S'external'
p336
I1
tp337
a(I4
I41
I0
g317
I1
tp338
a(I4
I41
I0
g319
I1
tp339
a(I4
I41
F0.125
g321
I1
tp340
a(I4
I81
I0
g323
I1
tp341
a(I4
I81
F0.375
g325
I1
tp342
a(I16
I29
I0
S'more'
p343
I1
tp344
a(I16
I30
I0
g327
I1
tp345
a(I18
I31
I0
g329
I1
tp346
a(I27
I30
I0
g331
I1
tp347
as(S'player'
p348
tp349
(lp350
(I15
I33
F0.875
S'music'
p351
I6
tp352
as(S'apps'
p353
tp354
(lp355
(I3
I12
F-0.5
S'open'
p356
I0
tp357
a(I4
I63
F0.375
S'new'
p358
I0
tp359
a(I5
I11
F0.875
S'music'
p360
I0
tp361
a(I6
I42
I0
S'more'
p362
I0
tp363
a(I15
I16
F0.125
S'essential'
p364
I0
tp365
a(I15
I42
F0.125
S'able'
p366
I0
tp367
a(I15
I42
I0
S'more'
p368
I0
tp369
a(I15
I61
I0
S'closing'
p370
I0
tp371
a(I15
I61
F0.125
S'enough'
p372
I0
tp373
a(I18
I21
F-0.625
S'other'
p374
I0
tp375
a(I18
I33
I0
S'big'
p376
I0
tp377
a(I19
I20
F-0.625
S'free'
p378
I0
tp379
a(I19
I20
F0.375
S'available'
p380
I0
tp381
a(I27
I33
I0
S'few'
p382
I0
tp383
as(S'internal'
p384
S'memory'
p385
tp386
(lp387
(I1
I31
F-0.375
S'small'
p388
I0
tp389
a(I4
I5
I0
S'internal'
p390
I0
tp391
a(I4
I58
I0
S'internal'
p392
I0
tp393
a(I21
I1
I0
S'internal'
p394
I0
tp395
a(I25
I1
I0
S'more'
p396
I0
tp397
a(I25
I1
I0
S'internal'
p398
I0
tp399
a(I27
I64
I0
S'internal'
p400
I0
tp401
a(I1
I31
F-0.375
g388
I5
tp402
a(I4
I5
I0
g390
I5
tp403
a(I4
I58
I0
g392
I5
tp404
a(I15
I4
F1.0
S'better'
p405
I5
tp406
a(I15
I16
F-0.5
S'less'
p407
I5
tp408
a(I15
I64
I0
S'more'
p409
I5
tp410
a(I21
I1
I0
g394
I5
tp411
a(I25
I1
I0
g396
I5
tp412
a(I25
I1
I0
g398
I5
tp413
a(I27
I64
I0
g400
I5
tp414
as(S'bluetooth'
p415
tp416
(lp417
(I18
I17
F0.125
S'able'
p418
I3
tp419
a(I27
I48
F0.875
S'music'
p420
I3
tp421
as(S'performance'
p422
tp423
(lp424
(I21
I1
I0
S'stable'
p425
I2
tp426
as.