(dp0
I0
I6016
sI1
I9391
sI2
I5600
sI3
I6185
sI4
I5909
sI5
I5486
sI6
I4977
sI7
I4936
sI8
I4511
sI9
I4333
sI10
I4100
sI11
I3962
sI12
I3883
sI13
I3863
sI14
I6162
sI15
I6292
sI16
I6690
sI17
I8918
sI18
I16173
sI19
I178991
sI20
I171411
sI21
I154015
sI22
I134866
sI23
I118848
sI24
I104898
sI25
I95123
sI26
I85430
sI27
I78611
sI28
I73490
sI29
I68024
sI30
I63519
sI31
I59717
sI32
I56717
sI33
I53271
sI34
I50955
sI35
I48225
sI36
I45680
sI37
I44106
sI38
I41925
sI39
I40603
sI40
I38944
sI41
I37269
sI42
I35816
sI43
I34556
sI44
I33233
sI45
I32484
sI46
I30999
sI47
I30006
sI48
I29060
sI49
I27893
sI50
I27224
sI51
I26331
sI52
I25413
sI53
I24881
sI54
I24031
sI55
I23127
sI56
I22781
sI57
I21955
sI58
I21427
sI59
I20906
sI60
I20017
sI61
I19662
sI62
I18946
sI63
I18463
sI64
I18324
sI65
I17554
sI66
I16996
sI67
I16899
sI68
I16271
sI69
I15485
sI70
I15262
sI71
I15098
sI72
I14764
sI73
I14339
sI74
I13798
sI75
I13526
sI76
I13193
sI77
I12808
sI78
I12601
sI79
I12190
sI80
I11888
sI81
I11668
sI82
I11398
sI83
I11091
sI84
I10730
sI85
I10529
sI86
I10197
sI87
I10176
sI88
I9734
sI89
I9684
sI90
I9363
sI91
I9230
sI92
I8949
sI93
I8742
sI94
I8755
sI95
I8327
sI96
I8220
sI97
I8127
sI98
I7805
sI99
I7907
sI100
I7438
sI101
I7318
sI102
I7260
sI103
I6987
sI104
I6793
sI105
I6703
sI106
I6637
sI107
I6554
sI108
I6374
sI109
I6169
sI110
I6056
sI111
I6057
sI112
I5866
sI113
I5748
sI114
I5682
sI115
I5526
sI116
I5436
sI117
I5444
sI118
I5266
sI119
I5024
sI120
I5028
sI121
I4762
sI122
I4763
sI123
I4639
sI124
I4563
sI125
I4587
sI126
I4529
sI127
I4484
sI128
I4233
sI129
I4215
sI130
I4193
sI131
I4040
sI132
I3984
sI133
I3997
sI134
I3909
sI135
I3762
sI136
I3709
sI137
I3649
sI138
I3672
sI139
I3547
sI140
I3402
sI141
I3413
sI142
I3310
sI143
I3353
sI144
I3313
sI145
I3245
sI146
I3047
sI147
I3129
sI148
I3066
sI149
I3080
sI150
I2992
sI151
I2881
sI152
I2883
sI153
I2737
sI154
I2782
sI155
I2638
sI156
I2595
sI157
I2666
sI158
I2577
sI159
I2509
sI160
I2466
sI161
I2459
sI162
I2431
sI163
I2385
sI164
I2402
sI165
I2301
sI166
I2358
sI167
I2298
sI168
I2325
sI169
I2140
sI170
I2210
sI171
I2093
sI172
I2081
sI173
I2006
sI174
I2110
sI175
I1974
sI176
I1937
sI177
I1919
sI178
I1932
sI179
I1903
sI180
I1883
sI181
I1806
sI182
I1865
sI183
I1764
sI184
I1747
sI185
I1616
sI186
I1718
sI187
I1663
sI188
I1653
sI189
I1636
sI190
I1531
sI191
I1613
sI192
I1570
sI193
I1546
sI194
I1538
sI195
I1561
sI196
I1447
sI197
I1482
sI198
I1452
sI199
I1390
sI200
I1498
sI201
I1383
sI202
I1452
sI203
I1319
sI204
I1337
sI205
I1255
sI206
I1290
sI207
I1252
sI208
I1288
sI209
I1212
sI210
I1196
sI211
I1239
sI212
I1218
sI213
I1165
sI214
I1140
sI215
I1133
sI216
I1087
sI217
I1198
sI218
I1105
sI219
I1135
sI220
I1117
sI221
I1035
sI222
I1083
sI223
I1035
sI224
I1007
sI225
I1036
sI226
I1016
sI227
I1010
sI228
I1006
sI229
I978
sI230
I923
sI231
I951
sI232
I898
sI233
I950
sI234
I934
sI235
I939
sI236
I907
sI237
I855
sI238
I871
sI239
I872
sI240
I846
sI241
I837
sI242
I820
sI243
I822
sI244
I762
sI245
I741
sI246
I786
sI247
I788
sI248
I781
sI249
I775
sI250
I735
sI251
I777
sI252
I758
sI253
I770
sI254
I665
sI255
I699
sI256
I725
sI257
I754
sI258
I709
sI259
I718
sI260
I662
sI261
I651
sI262
I620
sI263
I660
sI264
I615
sI265
I628
sI266
I639
sI267
I604
sI268
I583
sI269
I633
sI270
I618
sI271
I579
sI272
I650
sI273
I626
sI274
I616
sI275
I547
sI276
I558
sI277
I603
sI278
I564
sI279
I527
sI280
I516
sI281
I515
sI282
I525
sI283
I486
sI284
I522
sI285
I527
sI286
I539
sI287
I513
sI288
I538
sI289
I460
sI290
I514
sI291
I507
sI292
I476
sI293
I485
sI294
I501
sI295
I493
sI296
I455
sI297
I440
sI298
I444
sI299
I456
sI300
I58291
s.