(dp0
I0
I77
sI1
I115
sI2
I47
sI3
I65
sI4
I44
sI5
I65
sI6
I64
sI7
I64
sI8
I71
sI9
I64
sI10
I76
sI11
I100
sI12
I134
sI13
I139
sI14
I357
sI15
I345
sI16
I352
sI17
I402
sI18
I544
sI19
I2493
sI20
I2742
sI21
I2619
sI22
I2535
sI23
I2279
sI24
I2133
sI25
I1914
sI26
I1812
sI27
I1651
sI28
I1626
sI29
I1487
sI30
I1463
sI31
I1432
sI32
I1351
sI33
I1314
sI34
I1295
sI35
I1248
sI36
I1162
sI37
I1155
sI38
I1102
sI39
I1080
sI40
I1075
sI41
I1055
sI42
I1041
sI43
I982
sI44
I974
sI45
I965
sI46
I987
sI47
I929
sI48
I933
sI49
I904
sI50
I848
sI51
I826
sI52
I862
sI53
I833
sI54
I767
sI55
I760
sI56
I756
sI57
I780
sI58
I724
sI59
I720
sI60
I729
sI61
I692
sI62
I698
sI63
I647
sI64
I636
sI65
I634
sI66
I679
sI67
I624
sI68
I622
sI69
I618
sI70
I635
sI71
I521
sI72
I564
sI73
I561
sI74
I569
sI75
I553
sI76
I523
sI77
I501
sI78
I500
sI79
I491
sI80
I463
sI81
I510
sI82
I431
sI83
I425
sI84
I448
sI85
I433
sI86
I435
sI87
I414
sI88
I402
sI89
I404
sI90
I399
sI91
I359
sI92
I404
sI93
I376
sI94
I408
sI95
I389
sI96
I351
sI97
I390
sI98
I387
sI99
I341
sI100
I334
sI101
I339
sI102
I340
sI103
I310
sI104
I341
sI105
I351
sI106
I320
sI107
I298
sI108
I321
sI109
I270
sI110
I297
sI111
I271
sI112
I242
sI113
I285
sI114
I266
sI115
I272
sI116
I244
sI117
I256
sI118
I237
sI119
I276
sI120
I216
sI121
I227
sI122
I218
sI123
I272
sI124
I245
sI125
I207
sI126
I239
sI127
I213
sI128
I217
sI129
I193
sI130
I218
sI131
I217
sI132
I216
sI133
I200
sI134
I198
sI135
I170
sI136
I196
sI137
I178
sI138
I161
sI139
I164
sI140
I150
sI141
I173
sI142
I190
sI143
I155
sI144
I167
sI145
I161
sI146
I153
sI147
I160
sI148
I161
sI149
I157
sI150
I117
sI151
I150
sI152
I146
sI153
I169
sI154
I153
sI155
I142
sI156
I156
sI157
I135
sI158
I131
sI159
I118
sI160
I130
sI161
I117
sI162
I116
sI163
I122
sI164
I134
sI165
I90
sI166
I108
sI167
I108
sI168
I118
sI169
I104
sI170
I99
sI171
I110
sI172
I76
sI173
I115
sI174
I93
sI175
I92
sI176
I93
sI177
I102
sI178
I104
sI179
I92
sI180
I95
sI181
I105
sI182
I90
sI183
I81
sI184
I93
sI185
I91
sI186
I108
sI187
I91
sI188
I91
sI189
I88
sI190
I82
sI191
I89
sI192
I66
sI193
I77
sI194
I80
sI195
I67
sI196
I82
sI197
I72
sI198
I69
sI199
I78
sI200
I75
sI201
I76
sI202
I61
sI203
I65
sI204
I65
sI205
I59
sI206
I70
sI207
I50
sI208
I75
sI209
I70
sI210
I65
sI211
I69
sI212
I63
sI213
I60
sI214
I52
sI215
I52
sI216
I56
sI217
I52
sI218
I63
sI219
I50
sI220
I59
sI221
I49
sI222
I49
sI223
I46
sI224
I41
sI225
I54
sI226
I57
sI227
I63
sI228
I39
sI229
I46
sI230
I49
sI231
I37
sI232
I37
sI233
I44
sI234
I47
sI235
I38
sI236
I55
sI237
I62
sI238
I46
sI239
I44
sI240
I38
sI241
I47
sI242
I45
sI243
I36
sI244
I47
sI245
I37
sI246
I42
sI247
I35
sI248
I38
sI249
I37
sI250
I39
sI251
I26
sI252
I36
sI253
I38
sI254
I48
sI255
I35
sI256
I21
sI257
I24
sI258
I40
sI259
I41
sI260
I30
sI261
I30
sI262
I40
sI263
I35
sI264
I30
sI265
I32
sI266
I25
sI267
I28
sI268
I27
sI269
I17
sI270
I35
sI271
I24
sI272
I31
sI273
I28
sI274
I31
sI275
I37
sI276
I30
sI277
I29
sI278
I27
sI279
I22
sI280
I28
sI281
I23
sI282
I20
sI283
I20
sI284
I19
sI285
I21
sI286
I31
sI287
I20
sI288
I21
sI289
I15
sI290
I29
sI291
I24
sI292
I19
sI293
I22
sI294
I21
sI295
I20
sI296
I21
sI297
I16
sI298
I10
sI299
I18
sI300
I2232
s.